ARM GAS  /tmp/ccTUwwna.s 			page 1


   1              		.cpu cortex-m3
   2              		.eabi_attribute 20, 1
   3              		.eabi_attribute 21, 1
   4              		.eabi_attribute 23, 3
   5              		.eabi_attribute 24, 1
   6              		.eabi_attribute 25, 1
   7              		.eabi_attribute 26, 1
   8              		.eabi_attribute 30, 1
   9              		.eabi_attribute 34, 1
  10              		.eabi_attribute 18, 4
  11              		.file	"lv_img.c"
  12              		.text
  13              	.Ltext0:
  14              		.cfi_sections	.debug_frame
  15              		.section	.text.draw_img,"ax",%progbits
  16              		.align	1
  17              		.arch armv7-m
  18              		.syntax unified
  19              		.thumb
  20              		.thumb_func
  21              		.fpu softvfp
  23              	draw_img:
  24              	.LVL0:
  25              	.LFB165:
  26              		.file 1 "Middlewares/lvgl/src/widgets/lv_img.c"
   1:Middlewares/lvgl/src/widgets/lv_img.c **** /**
   2:Middlewares/lvgl/src/widgets/lv_img.c ****  * @file lv_img.c
   3:Middlewares/lvgl/src/widgets/lv_img.c ****  *
   4:Middlewares/lvgl/src/widgets/lv_img.c ****  */
   5:Middlewares/lvgl/src/widgets/lv_img.c **** 
   6:Middlewares/lvgl/src/widgets/lv_img.c **** /*********************
   7:Middlewares/lvgl/src/widgets/lv_img.c ****  *      INCLUDES
   8:Middlewares/lvgl/src/widgets/lv_img.c ****  *********************/
   9:Middlewares/lvgl/src/widgets/lv_img.c **** #include "lv_img.h"
  10:Middlewares/lvgl/src/widgets/lv_img.c **** #if LV_USE_IMG != 0
  11:Middlewares/lvgl/src/widgets/lv_img.c **** 
  12:Middlewares/lvgl/src/widgets/lv_img.c **** #include "../misc/lv_assert.h"
  13:Middlewares/lvgl/src/widgets/lv_img.c **** #include "../draw/lv_img_decoder.h"
  14:Middlewares/lvgl/src/widgets/lv_img.c **** #include "../misc/lv_fs.h"
  15:Middlewares/lvgl/src/widgets/lv_img.c **** #include "../misc/lv_txt.h"
  16:Middlewares/lvgl/src/widgets/lv_img.c **** #include "../misc/lv_math.h"
  17:Middlewares/lvgl/src/widgets/lv_img.c **** #include "../misc/lv_log.h"
  18:Middlewares/lvgl/src/widgets/lv_img.c **** 
  19:Middlewares/lvgl/src/widgets/lv_img.c **** /*********************
  20:Middlewares/lvgl/src/widgets/lv_img.c ****  *      DEFINES
  21:Middlewares/lvgl/src/widgets/lv_img.c ****  *********************/
  22:Middlewares/lvgl/src/widgets/lv_img.c **** #define MY_CLASS &lv_img_class
  23:Middlewares/lvgl/src/widgets/lv_img.c **** 
  24:Middlewares/lvgl/src/widgets/lv_img.c **** /**********************
  25:Middlewares/lvgl/src/widgets/lv_img.c ****  *      TYPEDEFS
  26:Middlewares/lvgl/src/widgets/lv_img.c ****  **********************/
  27:Middlewares/lvgl/src/widgets/lv_img.c **** 
  28:Middlewares/lvgl/src/widgets/lv_img.c **** /**********************
  29:Middlewares/lvgl/src/widgets/lv_img.c ****  *  STATIC PROTOTYPES
  30:Middlewares/lvgl/src/widgets/lv_img.c ****  **********************/
  31:Middlewares/lvgl/src/widgets/lv_img.c **** static void lv_img_constructor(const lv_obj_class_t * class_p, lv_obj_t * obj);
  32:Middlewares/lvgl/src/widgets/lv_img.c **** static void lv_img_destructor(const lv_obj_class_t * class_p, lv_obj_t * obj);
ARM GAS  /tmp/ccTUwwna.s 			page 2


  33:Middlewares/lvgl/src/widgets/lv_img.c **** static void lv_img_event(const lv_obj_class_t * class_p, lv_event_t * e);
  34:Middlewares/lvgl/src/widgets/lv_img.c **** static void draw_img(lv_event_t * e);
  35:Middlewares/lvgl/src/widgets/lv_img.c **** 
  36:Middlewares/lvgl/src/widgets/lv_img.c **** /**********************
  37:Middlewares/lvgl/src/widgets/lv_img.c ****  *  STATIC VARIABLES
  38:Middlewares/lvgl/src/widgets/lv_img.c ****  **********************/
  39:Middlewares/lvgl/src/widgets/lv_img.c **** const lv_obj_class_t lv_img_class = {
  40:Middlewares/lvgl/src/widgets/lv_img.c ****          .constructor_cb = lv_img_constructor,
  41:Middlewares/lvgl/src/widgets/lv_img.c ****          .destructor_cb = lv_img_destructor,
  42:Middlewares/lvgl/src/widgets/lv_img.c ****          .event_cb = lv_img_event,
  43:Middlewares/lvgl/src/widgets/lv_img.c ****          .width_def = LV_SIZE_CONTENT,
  44:Middlewares/lvgl/src/widgets/lv_img.c ****          .height_def = LV_SIZE_CONTENT,
  45:Middlewares/lvgl/src/widgets/lv_img.c ****          .instance_size = sizeof(lv_img_t),
  46:Middlewares/lvgl/src/widgets/lv_img.c ****          .base_class = &lv_obj_class
  47:Middlewares/lvgl/src/widgets/lv_img.c ****      };
  48:Middlewares/lvgl/src/widgets/lv_img.c **** 
  49:Middlewares/lvgl/src/widgets/lv_img.c **** /**********************
  50:Middlewares/lvgl/src/widgets/lv_img.c ****  *      MACROS
  51:Middlewares/lvgl/src/widgets/lv_img.c ****  **********************/
  52:Middlewares/lvgl/src/widgets/lv_img.c **** 
  53:Middlewares/lvgl/src/widgets/lv_img.c **** /**********************
  54:Middlewares/lvgl/src/widgets/lv_img.c ****  *   GLOBAL FUNCTIONS
  55:Middlewares/lvgl/src/widgets/lv_img.c ****  **********************/
  56:Middlewares/lvgl/src/widgets/lv_img.c **** 
  57:Middlewares/lvgl/src/widgets/lv_img.c **** lv_obj_t * lv_img_create(lv_obj_t * parent)
  58:Middlewares/lvgl/src/widgets/lv_img.c **** {
  59:Middlewares/lvgl/src/widgets/lv_img.c ****     LV_LOG_INFO("begin")
  60:Middlewares/lvgl/src/widgets/lv_img.c ****     lv_obj_t * obj = lv_obj_class_create_obj(MY_CLASS, parent);
  61:Middlewares/lvgl/src/widgets/lv_img.c ****     lv_obj_class_init_obj(obj);
  62:Middlewares/lvgl/src/widgets/lv_img.c ****     return obj;
  63:Middlewares/lvgl/src/widgets/lv_img.c **** }
  64:Middlewares/lvgl/src/widgets/lv_img.c **** 
  65:Middlewares/lvgl/src/widgets/lv_img.c **** /*=====================
  66:Middlewares/lvgl/src/widgets/lv_img.c ****  * Setter functions
  67:Middlewares/lvgl/src/widgets/lv_img.c ****  *====================*/
  68:Middlewares/lvgl/src/widgets/lv_img.c **** 
  69:Middlewares/lvgl/src/widgets/lv_img.c **** void lv_img_set_src(lv_obj_t * obj, const void * src)
  70:Middlewares/lvgl/src/widgets/lv_img.c **** {
  71:Middlewares/lvgl/src/widgets/lv_img.c ****     LV_ASSERT_OBJ(obj, MY_CLASS);
  72:Middlewares/lvgl/src/widgets/lv_img.c **** 
  73:Middlewares/lvgl/src/widgets/lv_img.c ****     lv_obj_invalidate(obj);
  74:Middlewares/lvgl/src/widgets/lv_img.c **** 
  75:Middlewares/lvgl/src/widgets/lv_img.c ****     lv_img_src_t src_type = lv_img_src_get_type(src);
  76:Middlewares/lvgl/src/widgets/lv_img.c ****     lv_img_t * img = (lv_img_t *)obj;
  77:Middlewares/lvgl/src/widgets/lv_img.c **** 
  78:Middlewares/lvgl/src/widgets/lv_img.c **** #if LV_USE_LOG && LV_LOG_LEVEL >= LV_LOG_LEVEL_INFO
  79:Middlewares/lvgl/src/widgets/lv_img.c ****     switch(src_type) {
  80:Middlewares/lvgl/src/widgets/lv_img.c ****         case LV_IMG_SRC_FILE:
  81:Middlewares/lvgl/src/widgets/lv_img.c ****             LV_LOG_TRACE("lv_img_set_src: `LV_IMG_SRC_FILE` type found");
  82:Middlewares/lvgl/src/widgets/lv_img.c ****             break;
  83:Middlewares/lvgl/src/widgets/lv_img.c ****         case LV_IMG_SRC_VARIABLE:
  84:Middlewares/lvgl/src/widgets/lv_img.c ****             LV_LOG_TRACE("lv_img_set_src: `LV_IMG_SRC_VARIABLE` type found");
  85:Middlewares/lvgl/src/widgets/lv_img.c ****             break;
  86:Middlewares/lvgl/src/widgets/lv_img.c ****         case LV_IMG_SRC_SYMBOL:
  87:Middlewares/lvgl/src/widgets/lv_img.c ****             LV_LOG_TRACE("lv_img_set_src: `LV_IMG_SRC_SYMBOL` type found");
  88:Middlewares/lvgl/src/widgets/lv_img.c ****             break;
  89:Middlewares/lvgl/src/widgets/lv_img.c ****         default:
ARM GAS  /tmp/ccTUwwna.s 			page 3


  90:Middlewares/lvgl/src/widgets/lv_img.c ****             LV_LOG_WARN("lv_img_set_src: unknown type");
  91:Middlewares/lvgl/src/widgets/lv_img.c ****     }
  92:Middlewares/lvgl/src/widgets/lv_img.c **** #endif
  93:Middlewares/lvgl/src/widgets/lv_img.c **** 
  94:Middlewares/lvgl/src/widgets/lv_img.c ****     /*If the new source type is unknown free the memories of the old source*/
  95:Middlewares/lvgl/src/widgets/lv_img.c ****     if(src_type == LV_IMG_SRC_UNKNOWN) {
  96:Middlewares/lvgl/src/widgets/lv_img.c ****         LV_LOG_WARN("lv_img_set_src: unknown image type");
  97:Middlewares/lvgl/src/widgets/lv_img.c ****         if(img->src_type == LV_IMG_SRC_SYMBOL || img->src_type == LV_IMG_SRC_FILE) {
  98:Middlewares/lvgl/src/widgets/lv_img.c ****             lv_mem_free((void*)img->src);
  99:Middlewares/lvgl/src/widgets/lv_img.c ****         }
 100:Middlewares/lvgl/src/widgets/lv_img.c ****         img->src      = NULL;
 101:Middlewares/lvgl/src/widgets/lv_img.c ****         img->src_type = LV_IMG_SRC_UNKNOWN;
 102:Middlewares/lvgl/src/widgets/lv_img.c ****         return;
 103:Middlewares/lvgl/src/widgets/lv_img.c ****     }
 104:Middlewares/lvgl/src/widgets/lv_img.c **** 
 105:Middlewares/lvgl/src/widgets/lv_img.c ****     lv_img_header_t header;
 106:Middlewares/lvgl/src/widgets/lv_img.c ****     lv_img_decoder_get_info(src, &header);
 107:Middlewares/lvgl/src/widgets/lv_img.c **** 
 108:Middlewares/lvgl/src/widgets/lv_img.c ****     /*Save the source*/
 109:Middlewares/lvgl/src/widgets/lv_img.c ****     if(src_type == LV_IMG_SRC_VARIABLE) {
 110:Middlewares/lvgl/src/widgets/lv_img.c ****         /*If memory was allocated because of the previous `src_type` then free it*/
 111:Middlewares/lvgl/src/widgets/lv_img.c ****         if(img->src_type == LV_IMG_SRC_FILE || img->src_type == LV_IMG_SRC_SYMBOL) {
 112:Middlewares/lvgl/src/widgets/lv_img.c ****             lv_mem_free((void*)img->src);
 113:Middlewares/lvgl/src/widgets/lv_img.c ****         }
 114:Middlewares/lvgl/src/widgets/lv_img.c ****         img->src = src;
 115:Middlewares/lvgl/src/widgets/lv_img.c ****     }
 116:Middlewares/lvgl/src/widgets/lv_img.c ****     else if(src_type == LV_IMG_SRC_FILE || src_type == LV_IMG_SRC_SYMBOL) {
 117:Middlewares/lvgl/src/widgets/lv_img.c ****         /*If the new and the old src are the same then it was only a refresh.*/
 118:Middlewares/lvgl/src/widgets/lv_img.c ****         if(img->src != src) {
 119:Middlewares/lvgl/src/widgets/lv_img.c ****             const void * old_src = NULL;
 120:Middlewares/lvgl/src/widgets/lv_img.c ****             /*If memory was allocated because of the previous `src_type` then save its pointer and 
 121:Middlewares/lvgl/src/widgets/lv_img.c ****              *It's important to allocate first to be sure the new data will be on a new address.
 122:Middlewares/lvgl/src/widgets/lv_img.c ****              *Else `img_cache` wouldn't see the change in source.*/
 123:Middlewares/lvgl/src/widgets/lv_img.c ****             if(img->src_type == LV_IMG_SRC_FILE || img->src_type == LV_IMG_SRC_SYMBOL) {
 124:Middlewares/lvgl/src/widgets/lv_img.c ****                 old_src = img->src;
 125:Middlewares/lvgl/src/widgets/lv_img.c ****             }
 126:Middlewares/lvgl/src/widgets/lv_img.c ****             char * new_str = lv_mem_alloc(strlen(src) + 1);
 127:Middlewares/lvgl/src/widgets/lv_img.c ****             LV_ASSERT_MALLOC(new_str);
 128:Middlewares/lvgl/src/widgets/lv_img.c ****             if(new_str == NULL) return;
 129:Middlewares/lvgl/src/widgets/lv_img.c ****             strcpy(new_str, src);
 130:Middlewares/lvgl/src/widgets/lv_img.c ****             img->src = new_str;
 131:Middlewares/lvgl/src/widgets/lv_img.c **** 
 132:Middlewares/lvgl/src/widgets/lv_img.c ****             if(old_src) lv_mem_free((void*)old_src);
 133:Middlewares/lvgl/src/widgets/lv_img.c ****         }
 134:Middlewares/lvgl/src/widgets/lv_img.c ****     }
 135:Middlewares/lvgl/src/widgets/lv_img.c **** 
 136:Middlewares/lvgl/src/widgets/lv_img.c ****     if(src_type == LV_IMG_SRC_SYMBOL) {
 137:Middlewares/lvgl/src/widgets/lv_img.c ****         /*`lv_img_dsc_get_info` couldn't set the with and height of a font so set it here*/
 138:Middlewares/lvgl/src/widgets/lv_img.c ****         const lv_font_t * font = lv_obj_get_style_text_font(obj, LV_PART_MAIN);
 139:Middlewares/lvgl/src/widgets/lv_img.c ****         lv_coord_t letter_space = lv_obj_get_style_text_letter_space(obj, LV_PART_MAIN);
 140:Middlewares/lvgl/src/widgets/lv_img.c ****         lv_coord_t line_space = lv_obj_get_style_text_line_space(obj, LV_PART_MAIN);
 141:Middlewares/lvgl/src/widgets/lv_img.c ****         lv_point_t size;
 142:Middlewares/lvgl/src/widgets/lv_img.c ****         lv_txt_get_size(&size, src, font, letter_space, line_space, LV_COORD_MAX, LV_TEXT_FLAG_NONE
 143:Middlewares/lvgl/src/widgets/lv_img.c ****         header.w = size.x;
 144:Middlewares/lvgl/src/widgets/lv_img.c ****         header.h = size.y;
 145:Middlewares/lvgl/src/widgets/lv_img.c ****     }
 146:Middlewares/lvgl/src/widgets/lv_img.c **** 
ARM GAS  /tmp/ccTUwwna.s 			page 4


 147:Middlewares/lvgl/src/widgets/lv_img.c ****     img->src_type = src_type;
 148:Middlewares/lvgl/src/widgets/lv_img.c ****     img->w        = header.w;
 149:Middlewares/lvgl/src/widgets/lv_img.c ****     img->h        = header.h;
 150:Middlewares/lvgl/src/widgets/lv_img.c ****     img->cf       = header.cf;
 151:Middlewares/lvgl/src/widgets/lv_img.c ****     img->pivot.x = header.w / 2;
 152:Middlewares/lvgl/src/widgets/lv_img.c ****     img->pivot.y = header.h / 2;
 153:Middlewares/lvgl/src/widgets/lv_img.c **** 
 154:Middlewares/lvgl/src/widgets/lv_img.c ****     lv_obj_refresh_self_size(obj);
 155:Middlewares/lvgl/src/widgets/lv_img.c **** 
 156:Middlewares/lvgl/src/widgets/lv_img.c ****     /*Provide enough room for the rotated corners*/
 157:Middlewares/lvgl/src/widgets/lv_img.c ****     if(img->angle || img->zoom != LV_IMG_ZOOM_NONE) lv_obj_refresh_ext_draw_size(obj);
 158:Middlewares/lvgl/src/widgets/lv_img.c **** 
 159:Middlewares/lvgl/src/widgets/lv_img.c ****     lv_obj_invalidate(obj);
 160:Middlewares/lvgl/src/widgets/lv_img.c **** }
 161:Middlewares/lvgl/src/widgets/lv_img.c **** 
 162:Middlewares/lvgl/src/widgets/lv_img.c **** void lv_img_set_offset_x(lv_obj_t * obj, lv_coord_t x)
 163:Middlewares/lvgl/src/widgets/lv_img.c **** {
 164:Middlewares/lvgl/src/widgets/lv_img.c ****     LV_ASSERT_OBJ(obj, MY_CLASS);
 165:Middlewares/lvgl/src/widgets/lv_img.c **** 
 166:Middlewares/lvgl/src/widgets/lv_img.c ****    lv_img_t * img = (lv_img_t *)obj;
 167:Middlewares/lvgl/src/widgets/lv_img.c **** 
 168:Middlewares/lvgl/src/widgets/lv_img.c ****     x = x % img->w;
 169:Middlewares/lvgl/src/widgets/lv_img.c **** 
 170:Middlewares/lvgl/src/widgets/lv_img.c ****     img->offset.x = x;
 171:Middlewares/lvgl/src/widgets/lv_img.c ****     lv_obj_invalidate(obj);
 172:Middlewares/lvgl/src/widgets/lv_img.c **** }
 173:Middlewares/lvgl/src/widgets/lv_img.c **** 
 174:Middlewares/lvgl/src/widgets/lv_img.c **** void lv_img_set_offset_y(lv_obj_t * obj, lv_coord_t y)
 175:Middlewares/lvgl/src/widgets/lv_img.c **** {
 176:Middlewares/lvgl/src/widgets/lv_img.c ****     LV_ASSERT_OBJ(obj, MY_CLASS);
 177:Middlewares/lvgl/src/widgets/lv_img.c **** 
 178:Middlewares/lvgl/src/widgets/lv_img.c ****    lv_img_t * img = (lv_img_t *)obj;
 179:Middlewares/lvgl/src/widgets/lv_img.c **** 
 180:Middlewares/lvgl/src/widgets/lv_img.c ****     y = y % img->h;
 181:Middlewares/lvgl/src/widgets/lv_img.c **** 
 182:Middlewares/lvgl/src/widgets/lv_img.c ****     img->offset.y = y;
 183:Middlewares/lvgl/src/widgets/lv_img.c ****     lv_obj_invalidate(obj);
 184:Middlewares/lvgl/src/widgets/lv_img.c **** }
 185:Middlewares/lvgl/src/widgets/lv_img.c **** 
 186:Middlewares/lvgl/src/widgets/lv_img.c **** void lv_img_set_angle(lv_obj_t * obj, int16_t angle)
 187:Middlewares/lvgl/src/widgets/lv_img.c **** {
 188:Middlewares/lvgl/src/widgets/lv_img.c ****     if(angle < 0 || angle >= 3600) angle = angle % 3600;
 189:Middlewares/lvgl/src/widgets/lv_img.c **** 
 190:Middlewares/lvgl/src/widgets/lv_img.c ****    lv_img_t * img = (lv_img_t *)obj;
 191:Middlewares/lvgl/src/widgets/lv_img.c ****     if(angle == img->angle) return;
 192:Middlewares/lvgl/src/widgets/lv_img.c **** 
 193:Middlewares/lvgl/src/widgets/lv_img.c ****     lv_coord_t transf_zoom = lv_obj_get_style_transform_zoom(obj, LV_PART_MAIN);
 194:Middlewares/lvgl/src/widgets/lv_img.c ****     transf_zoom = (transf_zoom * img->zoom) >> 8;
 195:Middlewares/lvgl/src/widgets/lv_img.c **** 
 196:Middlewares/lvgl/src/widgets/lv_img.c ****     lv_coord_t transf_angle = lv_obj_get_style_transform_angle(obj, LV_PART_MAIN);
 197:Middlewares/lvgl/src/widgets/lv_img.c **** 
 198:Middlewares/lvgl/src/widgets/lv_img.c ****     lv_coord_t w = lv_obj_get_width(obj);
 199:Middlewares/lvgl/src/widgets/lv_img.c ****     lv_coord_t h = lv_obj_get_height(obj);
 200:Middlewares/lvgl/src/widgets/lv_img.c ****     lv_area_t a;
 201:Middlewares/lvgl/src/widgets/lv_img.c ****     _lv_img_buf_get_transformed_area(&a, w, h, transf_angle + img->angle, transf_zoom, &img->pivot)
 202:Middlewares/lvgl/src/widgets/lv_img.c ****     a.x1 += obj->coords.x1;
 203:Middlewares/lvgl/src/widgets/lv_img.c ****     a.y1 += obj->coords.y1;
ARM GAS  /tmp/ccTUwwna.s 			page 5


 204:Middlewares/lvgl/src/widgets/lv_img.c ****     a.x2 += obj->coords.x1;
 205:Middlewares/lvgl/src/widgets/lv_img.c ****     a.y2 += obj->coords.y1;
 206:Middlewares/lvgl/src/widgets/lv_img.c ****     lv_obj_invalidate_area(obj, &a);
 207:Middlewares/lvgl/src/widgets/lv_img.c **** 
 208:Middlewares/lvgl/src/widgets/lv_img.c ****     img->angle = angle;
 209:Middlewares/lvgl/src/widgets/lv_img.c ****     lv_obj_refresh_ext_draw_size(obj);
 210:Middlewares/lvgl/src/widgets/lv_img.c **** 
 211:Middlewares/lvgl/src/widgets/lv_img.c ****     _lv_img_buf_get_transformed_area(&a, w, h, transf_angle + img->angle, transf_zoom, &img->pivot)
 212:Middlewares/lvgl/src/widgets/lv_img.c ****     a.x1 += obj->coords.x1;
 213:Middlewares/lvgl/src/widgets/lv_img.c ****     a.y1 += obj->coords.y1;
 214:Middlewares/lvgl/src/widgets/lv_img.c ****     a.x2 += obj->coords.x1;
 215:Middlewares/lvgl/src/widgets/lv_img.c ****     a.y2 += obj->coords.y1;
 216:Middlewares/lvgl/src/widgets/lv_img.c ****     lv_obj_invalidate_area(obj, &a);
 217:Middlewares/lvgl/src/widgets/lv_img.c **** }
 218:Middlewares/lvgl/src/widgets/lv_img.c **** 
 219:Middlewares/lvgl/src/widgets/lv_img.c **** void lv_img_set_pivot(lv_obj_t * obj, lv_coord_t x, lv_coord_t y)
 220:Middlewares/lvgl/src/widgets/lv_img.c **** {
 221:Middlewares/lvgl/src/widgets/lv_img.c ****     lv_img_t * img = (lv_img_t *)obj;
 222:Middlewares/lvgl/src/widgets/lv_img.c ****     if(img->pivot.x == x && img->pivot.y == y) return;
 223:Middlewares/lvgl/src/widgets/lv_img.c **** 
 224:Middlewares/lvgl/src/widgets/lv_img.c ****     lv_coord_t transf_zoom = lv_obj_get_style_transform_zoom(obj, LV_PART_MAIN);
 225:Middlewares/lvgl/src/widgets/lv_img.c ****     transf_zoom = (transf_zoom * img->zoom) >> 8;
 226:Middlewares/lvgl/src/widgets/lv_img.c **** 
 227:Middlewares/lvgl/src/widgets/lv_img.c ****     lv_coord_t transf_angle = lv_obj_get_style_transform_angle(obj, LV_PART_MAIN);
 228:Middlewares/lvgl/src/widgets/lv_img.c ****     transf_angle += img->angle;
 229:Middlewares/lvgl/src/widgets/lv_img.c **** 
 230:Middlewares/lvgl/src/widgets/lv_img.c ****     lv_coord_t w = lv_obj_get_width(obj);
 231:Middlewares/lvgl/src/widgets/lv_img.c ****     lv_coord_t h = lv_obj_get_height(obj);
 232:Middlewares/lvgl/src/widgets/lv_img.c ****     lv_area_t a;
 233:Middlewares/lvgl/src/widgets/lv_img.c ****     _lv_img_buf_get_transformed_area(&a, w, h, transf_angle, transf_zoom, &img->pivot);
 234:Middlewares/lvgl/src/widgets/lv_img.c ****     a.x1 += obj->coords.x1;
 235:Middlewares/lvgl/src/widgets/lv_img.c ****     a.y1 += obj->coords.y1;
 236:Middlewares/lvgl/src/widgets/lv_img.c ****     a.x2 += obj->coords.x1;
 237:Middlewares/lvgl/src/widgets/lv_img.c ****     a.y2 += obj->coords.y1;
 238:Middlewares/lvgl/src/widgets/lv_img.c ****     lv_obj_invalidate_area(obj, &a);
 239:Middlewares/lvgl/src/widgets/lv_img.c **** 
 240:Middlewares/lvgl/src/widgets/lv_img.c ****     img->pivot.x = x;
 241:Middlewares/lvgl/src/widgets/lv_img.c ****     img->pivot.y = y;
 242:Middlewares/lvgl/src/widgets/lv_img.c ****     lv_obj_refresh_ext_draw_size(obj);
 243:Middlewares/lvgl/src/widgets/lv_img.c **** 
 244:Middlewares/lvgl/src/widgets/lv_img.c ****     _lv_img_buf_get_transformed_area(&a, w, h, transf_angle, transf_zoom, &img->pivot);
 245:Middlewares/lvgl/src/widgets/lv_img.c ****     a.x1 += obj->coords.x1;
 246:Middlewares/lvgl/src/widgets/lv_img.c ****     a.y1 += obj->coords.y1;
 247:Middlewares/lvgl/src/widgets/lv_img.c ****     a.x2 += obj->coords.x1;
 248:Middlewares/lvgl/src/widgets/lv_img.c ****     a.y2 += obj->coords.y1;
 249:Middlewares/lvgl/src/widgets/lv_img.c ****     lv_obj_invalidate_area(obj, &a);
 250:Middlewares/lvgl/src/widgets/lv_img.c **** }
 251:Middlewares/lvgl/src/widgets/lv_img.c **** 
 252:Middlewares/lvgl/src/widgets/lv_img.c **** void lv_img_set_zoom(lv_obj_t * obj, uint16_t zoom)
 253:Middlewares/lvgl/src/widgets/lv_img.c **** {
 254:Middlewares/lvgl/src/widgets/lv_img.c ****    lv_img_t * img = (lv_img_t *)obj;
 255:Middlewares/lvgl/src/widgets/lv_img.c ****     if(zoom == img->zoom) return;
 256:Middlewares/lvgl/src/widgets/lv_img.c **** 
 257:Middlewares/lvgl/src/widgets/lv_img.c ****     if(zoom == 0) zoom = 1;
 258:Middlewares/lvgl/src/widgets/lv_img.c **** 
 259:Middlewares/lvgl/src/widgets/lv_img.c ****     lv_coord_t transf_zoom = lv_obj_get_style_transform_zoom(obj, LV_PART_MAIN);
 260:Middlewares/lvgl/src/widgets/lv_img.c **** 
ARM GAS  /tmp/ccTUwwna.s 			page 6


 261:Middlewares/lvgl/src/widgets/lv_img.c ****     lv_coord_t transf_angle = lv_obj_get_style_transform_angle(obj, LV_PART_MAIN);
 262:Middlewares/lvgl/src/widgets/lv_img.c ****     transf_angle += img->angle;
 263:Middlewares/lvgl/src/widgets/lv_img.c **** 
 264:Middlewares/lvgl/src/widgets/lv_img.c ****     lv_coord_t w = lv_obj_get_width(obj);
 265:Middlewares/lvgl/src/widgets/lv_img.c ****     lv_coord_t h = lv_obj_get_height(obj);
 266:Middlewares/lvgl/src/widgets/lv_img.c ****     lv_area_t a;
 267:Middlewares/lvgl/src/widgets/lv_img.c ****     _lv_img_buf_get_transformed_area(&a, w, h, transf_angle, (transf_zoom * img->zoom) >> 8, &img->
 268:Middlewares/lvgl/src/widgets/lv_img.c ****     a.x1 += obj->coords.x1 - 1;
 269:Middlewares/lvgl/src/widgets/lv_img.c ****     a.y1 += obj->coords.y1 - 1;
 270:Middlewares/lvgl/src/widgets/lv_img.c ****     a.x2 += obj->coords.x1 + 1;
 271:Middlewares/lvgl/src/widgets/lv_img.c ****     a.y2 += obj->coords.y1 + 1;
 272:Middlewares/lvgl/src/widgets/lv_img.c ****     lv_obj_invalidate_area(obj, &a);
 273:Middlewares/lvgl/src/widgets/lv_img.c **** 
 274:Middlewares/lvgl/src/widgets/lv_img.c ****     img->zoom = zoom;
 275:Middlewares/lvgl/src/widgets/lv_img.c ****     lv_obj_refresh_ext_draw_size(obj);
 276:Middlewares/lvgl/src/widgets/lv_img.c **** 
 277:Middlewares/lvgl/src/widgets/lv_img.c ****     _lv_img_buf_get_transformed_area(&a, w, h, transf_angle, (transf_zoom * img->zoom) >> 8, &img->
 278:Middlewares/lvgl/src/widgets/lv_img.c ****     a.x1 += obj->coords.x1 - 1;
 279:Middlewares/lvgl/src/widgets/lv_img.c ****     a.y1 += obj->coords.y1 - 1;
 280:Middlewares/lvgl/src/widgets/lv_img.c ****     a.x2 += obj->coords.x1 + 1;
 281:Middlewares/lvgl/src/widgets/lv_img.c ****     a.y2 += obj->coords.y1 + 1;
 282:Middlewares/lvgl/src/widgets/lv_img.c ****     lv_obj_invalidate_area(obj, &a);
 283:Middlewares/lvgl/src/widgets/lv_img.c **** }
 284:Middlewares/lvgl/src/widgets/lv_img.c **** 
 285:Middlewares/lvgl/src/widgets/lv_img.c **** void lv_img_set_antialias(lv_obj_t * obj, bool antialias)
 286:Middlewares/lvgl/src/widgets/lv_img.c **** {
 287:Middlewares/lvgl/src/widgets/lv_img.c ****    lv_img_t * img = (lv_img_t *)obj;
 288:Middlewares/lvgl/src/widgets/lv_img.c ****     if(antialias == img->antialias) return;
 289:Middlewares/lvgl/src/widgets/lv_img.c **** 
 290:Middlewares/lvgl/src/widgets/lv_img.c ****     img->antialias = antialias;
 291:Middlewares/lvgl/src/widgets/lv_img.c ****     lv_obj_invalidate(obj);
 292:Middlewares/lvgl/src/widgets/lv_img.c **** }
 293:Middlewares/lvgl/src/widgets/lv_img.c **** 
 294:Middlewares/lvgl/src/widgets/lv_img.c **** /*=====================
 295:Middlewares/lvgl/src/widgets/lv_img.c ****  * Getter functions
 296:Middlewares/lvgl/src/widgets/lv_img.c ****  *====================*/
 297:Middlewares/lvgl/src/widgets/lv_img.c **** 
 298:Middlewares/lvgl/src/widgets/lv_img.c **** const void * lv_img_get_src(lv_obj_t * obj)
 299:Middlewares/lvgl/src/widgets/lv_img.c **** {
 300:Middlewares/lvgl/src/widgets/lv_img.c ****     LV_ASSERT_OBJ(obj, MY_CLASS);
 301:Middlewares/lvgl/src/widgets/lv_img.c **** 
 302:Middlewares/lvgl/src/widgets/lv_img.c ****    lv_img_t * img = (lv_img_t *)obj;
 303:Middlewares/lvgl/src/widgets/lv_img.c **** 
 304:Middlewares/lvgl/src/widgets/lv_img.c ****     return img->src;
 305:Middlewares/lvgl/src/widgets/lv_img.c **** }
 306:Middlewares/lvgl/src/widgets/lv_img.c **** 
 307:Middlewares/lvgl/src/widgets/lv_img.c **** lv_coord_t lv_img_get_offset_x(lv_obj_t * obj)
 308:Middlewares/lvgl/src/widgets/lv_img.c **** {
 309:Middlewares/lvgl/src/widgets/lv_img.c ****     LV_ASSERT_OBJ(obj, MY_CLASS);
 310:Middlewares/lvgl/src/widgets/lv_img.c **** 
 311:Middlewares/lvgl/src/widgets/lv_img.c ****    lv_img_t * img = (lv_img_t *)obj;
 312:Middlewares/lvgl/src/widgets/lv_img.c **** 
 313:Middlewares/lvgl/src/widgets/lv_img.c ****     return img->offset.x;
 314:Middlewares/lvgl/src/widgets/lv_img.c **** }
 315:Middlewares/lvgl/src/widgets/lv_img.c **** 
 316:Middlewares/lvgl/src/widgets/lv_img.c **** lv_coord_t lv_img_get_offset_y(lv_obj_t * obj)
 317:Middlewares/lvgl/src/widgets/lv_img.c **** {
ARM GAS  /tmp/ccTUwwna.s 			page 7


 318:Middlewares/lvgl/src/widgets/lv_img.c ****     LV_ASSERT_OBJ(obj, MY_CLASS);
 319:Middlewares/lvgl/src/widgets/lv_img.c **** 
 320:Middlewares/lvgl/src/widgets/lv_img.c ****    lv_img_t * img = (lv_img_t *)obj;
 321:Middlewares/lvgl/src/widgets/lv_img.c **** 
 322:Middlewares/lvgl/src/widgets/lv_img.c ****     return img->offset.y;
 323:Middlewares/lvgl/src/widgets/lv_img.c **** }
 324:Middlewares/lvgl/src/widgets/lv_img.c **** 
 325:Middlewares/lvgl/src/widgets/lv_img.c **** uint16_t lv_img_get_angle(lv_obj_t * obj)
 326:Middlewares/lvgl/src/widgets/lv_img.c **** {
 327:Middlewares/lvgl/src/widgets/lv_img.c ****     LV_ASSERT_OBJ(obj, MY_CLASS);
 328:Middlewares/lvgl/src/widgets/lv_img.c **** 
 329:Middlewares/lvgl/src/widgets/lv_img.c ****    lv_img_t * img = (lv_img_t *)obj;
 330:Middlewares/lvgl/src/widgets/lv_img.c **** 
 331:Middlewares/lvgl/src/widgets/lv_img.c ****     return img->angle;
 332:Middlewares/lvgl/src/widgets/lv_img.c **** }
 333:Middlewares/lvgl/src/widgets/lv_img.c **** 
 334:Middlewares/lvgl/src/widgets/lv_img.c **** void lv_img_get_pivot(lv_obj_t * obj, lv_point_t * pivot)
 335:Middlewares/lvgl/src/widgets/lv_img.c **** {
 336:Middlewares/lvgl/src/widgets/lv_img.c ****     LV_ASSERT_OBJ(obj, MY_CLASS);
 337:Middlewares/lvgl/src/widgets/lv_img.c **** 
 338:Middlewares/lvgl/src/widgets/lv_img.c ****    lv_img_t * img = (lv_img_t *)obj;
 339:Middlewares/lvgl/src/widgets/lv_img.c **** 
 340:Middlewares/lvgl/src/widgets/lv_img.c ****     *pivot = img->pivot;
 341:Middlewares/lvgl/src/widgets/lv_img.c **** }
 342:Middlewares/lvgl/src/widgets/lv_img.c **** 
 343:Middlewares/lvgl/src/widgets/lv_img.c **** uint16_t lv_img_get_zoom(lv_obj_t * obj)
 344:Middlewares/lvgl/src/widgets/lv_img.c **** {
 345:Middlewares/lvgl/src/widgets/lv_img.c ****     LV_ASSERT_OBJ(obj, MY_CLASS);
 346:Middlewares/lvgl/src/widgets/lv_img.c **** 
 347:Middlewares/lvgl/src/widgets/lv_img.c ****    lv_img_t * img = (lv_img_t *)obj;
 348:Middlewares/lvgl/src/widgets/lv_img.c **** 
 349:Middlewares/lvgl/src/widgets/lv_img.c ****     return img->zoom;
 350:Middlewares/lvgl/src/widgets/lv_img.c **** }
 351:Middlewares/lvgl/src/widgets/lv_img.c **** 
 352:Middlewares/lvgl/src/widgets/lv_img.c **** bool lv_img_get_antialias(lv_obj_t * obj)
 353:Middlewares/lvgl/src/widgets/lv_img.c **** {
 354:Middlewares/lvgl/src/widgets/lv_img.c ****     LV_ASSERT_OBJ(obj, MY_CLASS);
 355:Middlewares/lvgl/src/widgets/lv_img.c **** 
 356:Middlewares/lvgl/src/widgets/lv_img.c ****    lv_img_t * img = (lv_img_t *)obj;
 357:Middlewares/lvgl/src/widgets/lv_img.c **** 
 358:Middlewares/lvgl/src/widgets/lv_img.c ****     return img->antialias ? true : false;
 359:Middlewares/lvgl/src/widgets/lv_img.c **** }
 360:Middlewares/lvgl/src/widgets/lv_img.c **** 
 361:Middlewares/lvgl/src/widgets/lv_img.c **** /**********************
 362:Middlewares/lvgl/src/widgets/lv_img.c ****  *   STATIC FUNCTIONS
 363:Middlewares/lvgl/src/widgets/lv_img.c ****  **********************/
 364:Middlewares/lvgl/src/widgets/lv_img.c **** 
 365:Middlewares/lvgl/src/widgets/lv_img.c **** static void lv_img_constructor(const lv_obj_class_t * class_p, lv_obj_t * obj)
 366:Middlewares/lvgl/src/widgets/lv_img.c **** {
 367:Middlewares/lvgl/src/widgets/lv_img.c ****     LV_UNUSED(class_p);
 368:Middlewares/lvgl/src/widgets/lv_img.c ****     LV_TRACE_OBJ_CREATE("begin");
 369:Middlewares/lvgl/src/widgets/lv_img.c **** 
 370:Middlewares/lvgl/src/widgets/lv_img.c ****     lv_img_t * img = (lv_img_t *)obj;
 371:Middlewares/lvgl/src/widgets/lv_img.c **** 
 372:Middlewares/lvgl/src/widgets/lv_img.c ****     img->src       = NULL;
 373:Middlewares/lvgl/src/widgets/lv_img.c ****     img->src_type  = LV_IMG_SRC_UNKNOWN;
 374:Middlewares/lvgl/src/widgets/lv_img.c ****     img->cf        = LV_IMG_CF_UNKNOWN;
ARM GAS  /tmp/ccTUwwna.s 			page 8


 375:Middlewares/lvgl/src/widgets/lv_img.c ****     img->w         = lv_obj_get_width(obj);
 376:Middlewares/lvgl/src/widgets/lv_img.c ****     img->h         = lv_obj_get_height(obj);
 377:Middlewares/lvgl/src/widgets/lv_img.c ****     img->angle = 0;
 378:Middlewares/lvgl/src/widgets/lv_img.c ****     img->zoom = LV_IMG_ZOOM_NONE;
 379:Middlewares/lvgl/src/widgets/lv_img.c ****     img->antialias = LV_COLOR_DEPTH > 8 ? 1 : 0;
 380:Middlewares/lvgl/src/widgets/lv_img.c ****     img->offset.x  = 0;
 381:Middlewares/lvgl/src/widgets/lv_img.c ****     img->offset.y  = 0;
 382:Middlewares/lvgl/src/widgets/lv_img.c ****     img->pivot.x = 0;
 383:Middlewares/lvgl/src/widgets/lv_img.c ****     img->pivot.y = 0;
 384:Middlewares/lvgl/src/widgets/lv_img.c **** 
 385:Middlewares/lvgl/src/widgets/lv_img.c ****     lv_obj_clear_flag(obj, LV_OBJ_FLAG_CLICKABLE);
 386:Middlewares/lvgl/src/widgets/lv_img.c ****     lv_obj_add_flag(obj, LV_OBJ_FLAG_ADV_HITTEST);
 387:Middlewares/lvgl/src/widgets/lv_img.c **** 
 388:Middlewares/lvgl/src/widgets/lv_img.c ****     LV_TRACE_OBJ_CREATE("finished");
 389:Middlewares/lvgl/src/widgets/lv_img.c **** }
 390:Middlewares/lvgl/src/widgets/lv_img.c **** 
 391:Middlewares/lvgl/src/widgets/lv_img.c **** static void lv_img_destructor(const lv_obj_class_t * class_p, lv_obj_t * obj)
 392:Middlewares/lvgl/src/widgets/lv_img.c **** {
 393:Middlewares/lvgl/src/widgets/lv_img.c ****     LV_UNUSED(class_p);
 394:Middlewares/lvgl/src/widgets/lv_img.c ****     lv_img_t * img = (lv_img_t *)obj;
 395:Middlewares/lvgl/src/widgets/lv_img.c ****     if(img->src_type == LV_IMG_SRC_FILE || img->src_type == LV_IMG_SRC_SYMBOL) {
 396:Middlewares/lvgl/src/widgets/lv_img.c ****         lv_mem_free((void*)img->src);
 397:Middlewares/lvgl/src/widgets/lv_img.c ****         img->src      = NULL;
 398:Middlewares/lvgl/src/widgets/lv_img.c ****         img->src_type = LV_IMG_SRC_UNKNOWN;
 399:Middlewares/lvgl/src/widgets/lv_img.c ****     }
 400:Middlewares/lvgl/src/widgets/lv_img.c **** }
 401:Middlewares/lvgl/src/widgets/lv_img.c **** 
 402:Middlewares/lvgl/src/widgets/lv_img.c **** static void lv_img_event(const lv_obj_class_t * class_p, lv_event_t * e)
 403:Middlewares/lvgl/src/widgets/lv_img.c **** {
 404:Middlewares/lvgl/src/widgets/lv_img.c ****     LV_UNUSED(class_p);
 405:Middlewares/lvgl/src/widgets/lv_img.c **** 
 406:Middlewares/lvgl/src/widgets/lv_img.c ****     lv_event_code_t code = lv_event_get_code(e);
 407:Middlewares/lvgl/src/widgets/lv_img.c **** 
 408:Middlewares/lvgl/src/widgets/lv_img.c ****     /*Ancestor events will be called during drawing*/
 409:Middlewares/lvgl/src/widgets/lv_img.c ****     if(code != LV_EVENT_DRAW_MAIN && code != LV_EVENT_DRAW_POST) {
 410:Middlewares/lvgl/src/widgets/lv_img.c ****         /*Call the ancestor's event handler*/
 411:Middlewares/lvgl/src/widgets/lv_img.c ****         lv_res_t res = lv_obj_event_base(MY_CLASS, e);
 412:Middlewares/lvgl/src/widgets/lv_img.c ****         if(res != LV_RES_OK) return;
 413:Middlewares/lvgl/src/widgets/lv_img.c ****     }
 414:Middlewares/lvgl/src/widgets/lv_img.c **** 
 415:Middlewares/lvgl/src/widgets/lv_img.c ****     lv_obj_t * obj = lv_event_get_target(e);
 416:Middlewares/lvgl/src/widgets/lv_img.c ****     lv_img_t * img = (lv_img_t *)obj;
 417:Middlewares/lvgl/src/widgets/lv_img.c **** 
 418:Middlewares/lvgl/src/widgets/lv_img.c ****     if(code == LV_EVENT_STYLE_CHANGED) {
 419:Middlewares/lvgl/src/widgets/lv_img.c ****         /*Refresh the file name to refresh the symbol text size*/
 420:Middlewares/lvgl/src/widgets/lv_img.c ****         if(img->src_type == LV_IMG_SRC_SYMBOL) {
 421:Middlewares/lvgl/src/widgets/lv_img.c ****             lv_img_set_src(obj, img->src);
 422:Middlewares/lvgl/src/widgets/lv_img.c ****         } else {
 423:Middlewares/lvgl/src/widgets/lv_img.c ****             /*With transformation it might change*/
 424:Middlewares/lvgl/src/widgets/lv_img.c ****             lv_obj_refresh_ext_draw_size(obj);
 425:Middlewares/lvgl/src/widgets/lv_img.c ****         }
 426:Middlewares/lvgl/src/widgets/lv_img.c ****     }
 427:Middlewares/lvgl/src/widgets/lv_img.c ****     else if(code == LV_EVENT_REFR_EXT_DRAW_SIZE) {
 428:Middlewares/lvgl/src/widgets/lv_img.c **** 
 429:Middlewares/lvgl/src/widgets/lv_img.c ****         lv_coord_t * s = lv_event_get_param(e);
 430:Middlewares/lvgl/src/widgets/lv_img.c ****         lv_coord_t transf_zoom = lv_obj_get_style_transform_zoom(obj, LV_PART_MAIN);
 431:Middlewares/lvgl/src/widgets/lv_img.c ****         transf_zoom = (transf_zoom * img->zoom) >> 8;
ARM GAS  /tmp/ccTUwwna.s 			page 9


 432:Middlewares/lvgl/src/widgets/lv_img.c **** 
 433:Middlewares/lvgl/src/widgets/lv_img.c ****         lv_coord_t transf_angle = lv_obj_get_style_transform_angle(obj, LV_PART_MAIN);
 434:Middlewares/lvgl/src/widgets/lv_img.c ****         transf_angle += img->angle;
 435:Middlewares/lvgl/src/widgets/lv_img.c **** 
 436:Middlewares/lvgl/src/widgets/lv_img.c ****         /*If the image has angle provide enough room for the rotated corners*/
 437:Middlewares/lvgl/src/widgets/lv_img.c ****         if(transf_angle || transf_zoom != LV_IMG_ZOOM_NONE) {
 438:Middlewares/lvgl/src/widgets/lv_img.c ****             lv_area_t a;
 439:Middlewares/lvgl/src/widgets/lv_img.c ****             lv_coord_t w = lv_obj_get_width(obj);
 440:Middlewares/lvgl/src/widgets/lv_img.c ****             lv_coord_t h = lv_obj_get_height(obj);
 441:Middlewares/lvgl/src/widgets/lv_img.c ****             _lv_img_buf_get_transformed_area(&a, w, h, transf_angle, transf_zoom, &img->pivot);
 442:Middlewares/lvgl/src/widgets/lv_img.c ****             lv_coord_t pad_ori = *s;
 443:Middlewares/lvgl/src/widgets/lv_img.c ****             *s = LV_MAX(*s, pad_ori - a.x1);
 444:Middlewares/lvgl/src/widgets/lv_img.c ****             *s = LV_MAX(*s, pad_ori - a.y1);
 445:Middlewares/lvgl/src/widgets/lv_img.c ****             *s = LV_MAX(*s, pad_ori + a.x2 - w);
 446:Middlewares/lvgl/src/widgets/lv_img.c ****             *s = LV_MAX(*s, pad_ori + a.y2 - h);
 447:Middlewares/lvgl/src/widgets/lv_img.c ****         }
 448:Middlewares/lvgl/src/widgets/lv_img.c ****     }
 449:Middlewares/lvgl/src/widgets/lv_img.c ****     else if(code == LV_EVENT_HIT_TEST) {
 450:Middlewares/lvgl/src/widgets/lv_img.c ****         lv_hit_test_info_t * info = lv_event_get_param(e);
 451:Middlewares/lvgl/src/widgets/lv_img.c ****         lv_coord_t zoom = lv_obj_get_style_transform_zoom(obj, LV_PART_MAIN);
 452:Middlewares/lvgl/src/widgets/lv_img.c ****         zoom = (zoom * img->zoom) >> 8;
 453:Middlewares/lvgl/src/widgets/lv_img.c **** 
 454:Middlewares/lvgl/src/widgets/lv_img.c ****         lv_coord_t angle = lv_obj_get_style_transform_angle(obj, LV_PART_MAIN);
 455:Middlewares/lvgl/src/widgets/lv_img.c ****         angle += img->angle;
 456:Middlewares/lvgl/src/widgets/lv_img.c **** 
 457:Middlewares/lvgl/src/widgets/lv_img.c ****         /*If the object is exactly image sized (not cropped, not mosaic) and transformed
 458:Middlewares/lvgl/src/widgets/lv_img.c ****          *perform hit test on it's transformed area*/
 459:Middlewares/lvgl/src/widgets/lv_img.c ****         if(img->w == lv_obj_get_width(obj) && img->h == lv_obj_get_height(obj) &&
 460:Middlewares/lvgl/src/widgets/lv_img.c ****                 (zoom != LV_IMG_ZOOM_NONE || angle != 0 || img->pivot.x != img->w / 2 || img->pivot
 461:Middlewares/lvgl/src/widgets/lv_img.c **** 
 462:Middlewares/lvgl/src/widgets/lv_img.c ****             lv_coord_t w = lv_obj_get_width(obj);
 463:Middlewares/lvgl/src/widgets/lv_img.c ****             lv_coord_t h = lv_obj_get_height(obj);
 464:Middlewares/lvgl/src/widgets/lv_img.c ****             lv_area_t coords;
 465:Middlewares/lvgl/src/widgets/lv_img.c ****             _lv_img_buf_get_transformed_area(&coords, w, h, angle, zoom, &img->pivot);
 466:Middlewares/lvgl/src/widgets/lv_img.c ****             coords.x1 += obj->coords.x1;
 467:Middlewares/lvgl/src/widgets/lv_img.c ****             coords.y1 += obj->coords.y1;
 468:Middlewares/lvgl/src/widgets/lv_img.c ****             coords.x2 += obj->coords.x1;
 469:Middlewares/lvgl/src/widgets/lv_img.c ****             coords.y2 += obj->coords.y1;
 470:Middlewares/lvgl/src/widgets/lv_img.c **** 
 471:Middlewares/lvgl/src/widgets/lv_img.c ****             info->res = _lv_area_is_point_on(&coords, info->point, 0);
 472:Middlewares/lvgl/src/widgets/lv_img.c ****         }
 473:Middlewares/lvgl/src/widgets/lv_img.c ****         else {
 474:Middlewares/lvgl/src/widgets/lv_img.c ****             lv_area_t a;
 475:Middlewares/lvgl/src/widgets/lv_img.c ****             lv_obj_get_click_area(obj, &a);
 476:Middlewares/lvgl/src/widgets/lv_img.c ****             info->res = _lv_area_is_point_on(&a, info->point, 0);
 477:Middlewares/lvgl/src/widgets/lv_img.c ****         }
 478:Middlewares/lvgl/src/widgets/lv_img.c ****     }
 479:Middlewares/lvgl/src/widgets/lv_img.c ****     else if(code == LV_EVENT_GET_SELF_SIZE) {
 480:Middlewares/lvgl/src/widgets/lv_img.c ****         lv_point_t * p = lv_event_get_param(e);;
 481:Middlewares/lvgl/src/widgets/lv_img.c ****         p->x = img->w;
 482:Middlewares/lvgl/src/widgets/lv_img.c ****         p->y = img->h;
 483:Middlewares/lvgl/src/widgets/lv_img.c ****     }
 484:Middlewares/lvgl/src/widgets/lv_img.c ****     else if(code == LV_EVENT_DRAW_MAIN || code == LV_EVENT_DRAW_POST || code == LV_EVENT_COVER_CHEC
 485:Middlewares/lvgl/src/widgets/lv_img.c ****         draw_img(e);
 486:Middlewares/lvgl/src/widgets/lv_img.c ****     }
 487:Middlewares/lvgl/src/widgets/lv_img.c **** }
 488:Middlewares/lvgl/src/widgets/lv_img.c **** 
ARM GAS  /tmp/ccTUwwna.s 			page 10


 489:Middlewares/lvgl/src/widgets/lv_img.c **** static void draw_img(lv_event_t * e)
 490:Middlewares/lvgl/src/widgets/lv_img.c **** {
  27              		.loc 1 490 1 view -0
  28              		.cfi_startproc
  29              		@ args = 0, pretend = 0, frame = 112
  30              		@ frame_needed = 0, uses_anonymous_args = 0
  31              		.loc 1 490 1 is_stmt 0 view .LVU1
  32 0000 2DE9F04F 		push	{r4, r5, r6, r7, r8, r9, r10, fp, lr}
  33              	.LCFI0:
  34              		.cfi_def_cfa_offset 36
  35              		.cfi_offset 4, -36
  36              		.cfi_offset 5, -32
  37              		.cfi_offset 6, -28
  38              		.cfi_offset 7, -24
  39              		.cfi_offset 8, -20
  40              		.cfi_offset 9, -16
  41              		.cfi_offset 10, -12
  42              		.cfi_offset 11, -8
  43              		.cfi_offset 14, -4
  44 0004 9FB0     		sub	sp, sp, #124
  45              	.LCFI1:
  46              		.cfi_def_cfa_offset 160
  47 0006 0646     		mov	r6, r0
 491:Middlewares/lvgl/src/widgets/lv_img.c ****     lv_event_code_t code = lv_event_get_code(e);
  48              		.loc 1 491 5 is_stmt 1 view .LVU2
  49              		.loc 1 491 28 is_stmt 0 view .LVU3
  50 0008 FFF7FEFF 		bl	lv_event_get_code
  51              	.LVL1:
  52              		.loc 1 491 28 view .LVU4
  53 000c 0546     		mov	r5, r0
  54              	.LVL2:
 492:Middlewares/lvgl/src/widgets/lv_img.c ****     lv_obj_t * obj = lv_event_get_target(e);
  55              		.loc 1 492 5 is_stmt 1 view .LVU5
  56              		.loc 1 492 22 is_stmt 0 view .LVU6
  57 000e 3046     		mov	r0, r6
  58 0010 FFF7FEFF 		bl	lv_event_get_target
  59              	.LVL3:
  60 0014 0446     		mov	r4, r0
  61              	.LVL4:
 493:Middlewares/lvgl/src/widgets/lv_img.c ****     lv_img_t * img = (lv_img_t *)obj;
  62              		.loc 1 493 5 is_stmt 1 view .LVU7
 494:Middlewares/lvgl/src/widgets/lv_img.c ****     if(code == LV_EVENT_COVER_CHECK) {
  63              		.loc 1 494 5 view .LVU8
  64              		.loc 1 494 7 is_stmt 0 view .LVU9
  65 0016 122D     		cmp	r5, #18
  66 0018 08D0     		beq	.L24
 495:Middlewares/lvgl/src/widgets/lv_img.c ****         lv_cover_check_info_t * info = lv_event_get_param(e);
 496:Middlewares/lvgl/src/widgets/lv_img.c ****         if(info->res == LV_COVER_RES_MASKED) return;
 497:Middlewares/lvgl/src/widgets/lv_img.c ****         if(img->src_type == LV_IMG_SRC_UNKNOWN || img->src_type == LV_IMG_SRC_SYMBOL) {
 498:Middlewares/lvgl/src/widgets/lv_img.c ****             info->res = LV_COVER_RES_NOT_COVER;
 499:Middlewares/lvgl/src/widgets/lv_img.c ****             return;
 500:Middlewares/lvgl/src/widgets/lv_img.c ****         }
 501:Middlewares/lvgl/src/widgets/lv_img.c **** 
 502:Middlewares/lvgl/src/widgets/lv_img.c ****         /*Non true color format might have "holes"*/
 503:Middlewares/lvgl/src/widgets/lv_img.c ****         if(img->cf != LV_IMG_CF_TRUE_COLOR && img->cf != LV_IMG_CF_RAW) {
 504:Middlewares/lvgl/src/widgets/lv_img.c ****             info->res = LV_COVER_RES_NOT_COVER;
 505:Middlewares/lvgl/src/widgets/lv_img.c ****             return;
ARM GAS  /tmp/ccTUwwna.s 			page 11


 506:Middlewares/lvgl/src/widgets/lv_img.c ****         }
 507:Middlewares/lvgl/src/widgets/lv_img.c **** 
 508:Middlewares/lvgl/src/widgets/lv_img.c ****         /*With not LV_OPA_COVER images can't cover an area */
 509:Middlewares/lvgl/src/widgets/lv_img.c ****         if(lv_obj_get_style_img_opa(obj, LV_PART_MAIN) != LV_OPA_COVER) {
 510:Middlewares/lvgl/src/widgets/lv_img.c ****             info->res = LV_COVER_RES_NOT_COVER;
 511:Middlewares/lvgl/src/widgets/lv_img.c ****             return;
 512:Middlewares/lvgl/src/widgets/lv_img.c ****         }
 513:Middlewares/lvgl/src/widgets/lv_img.c **** 
 514:Middlewares/lvgl/src/widgets/lv_img.c ****         int32_t angle_final = lv_obj_get_style_transform_angle(obj, LV_PART_MAIN);
 515:Middlewares/lvgl/src/widgets/lv_img.c ****         angle_final += img->angle;
 516:Middlewares/lvgl/src/widgets/lv_img.c **** 
 517:Middlewares/lvgl/src/widgets/lv_img.c ****         if(angle_final != 0) {
 518:Middlewares/lvgl/src/widgets/lv_img.c ****             info->res = LV_COVER_RES_NOT_COVER;
 519:Middlewares/lvgl/src/widgets/lv_img.c ****             return;
 520:Middlewares/lvgl/src/widgets/lv_img.c ****         }
 521:Middlewares/lvgl/src/widgets/lv_img.c **** 
 522:Middlewares/lvgl/src/widgets/lv_img.c ****         int32_t zoom_final = lv_obj_get_style_transform_zoom(obj, LV_PART_MAIN);
 523:Middlewares/lvgl/src/widgets/lv_img.c ****         zoom_final = (zoom_final * img->zoom) >> 8;
 524:Middlewares/lvgl/src/widgets/lv_img.c **** 
 525:Middlewares/lvgl/src/widgets/lv_img.c ****         const lv_area_t * clip_area = lv_event_get_param(e);
 526:Middlewares/lvgl/src/widgets/lv_img.c ****         if(zoom_final == LV_IMG_ZOOM_NONE) {
 527:Middlewares/lvgl/src/widgets/lv_img.c ****             if(_lv_area_is_in(clip_area, &obj->coords, 0) == false) {
 528:Middlewares/lvgl/src/widgets/lv_img.c ****                 info->res = LV_COVER_RES_NOT_COVER;
 529:Middlewares/lvgl/src/widgets/lv_img.c ****                 return;
 530:Middlewares/lvgl/src/widgets/lv_img.c ****             }
 531:Middlewares/lvgl/src/widgets/lv_img.c ****         }
 532:Middlewares/lvgl/src/widgets/lv_img.c ****         else {
 533:Middlewares/lvgl/src/widgets/lv_img.c ****             lv_area_t a;
 534:Middlewares/lvgl/src/widgets/lv_img.c ****             _lv_img_buf_get_transformed_area(&a, lv_obj_get_width(obj), lv_obj_get_height(obj), 0, 
 535:Middlewares/lvgl/src/widgets/lv_img.c ****             a.x1 += obj->coords.x1;
 536:Middlewares/lvgl/src/widgets/lv_img.c ****             a.y1 += obj->coords.y1;
 537:Middlewares/lvgl/src/widgets/lv_img.c ****             a.x2 += obj->coords.x1;
 538:Middlewares/lvgl/src/widgets/lv_img.c ****             a.y2 += obj->coords.y1;
 539:Middlewares/lvgl/src/widgets/lv_img.c **** 
 540:Middlewares/lvgl/src/widgets/lv_img.c ****             if(_lv_area_is_in(clip_area, &a, 0) == false) {
 541:Middlewares/lvgl/src/widgets/lv_img.c ****                 info->res = LV_COVER_RES_NOT_COVER;
 542:Middlewares/lvgl/src/widgets/lv_img.c ****                 return;
 543:Middlewares/lvgl/src/widgets/lv_img.c ****             }
 544:Middlewares/lvgl/src/widgets/lv_img.c ****         }
 545:Middlewares/lvgl/src/widgets/lv_img.c ****     }
 546:Middlewares/lvgl/src/widgets/lv_img.c ****     else if(code == LV_EVENT_DRAW_MAIN || code == LV_EVENT_DRAW_POST) {
  67              		.loc 1 546 10 is_stmt 1 view .LVU10
  68              		.loc 1 546 12 is_stmt 0 view .LVU11
  69 001a 152D     		cmp	r5, #21
  70 001c 00F08480 		beq	.L10
  71              		.loc 1 546 40 discriminator 1 view .LVU12
  72 0020 182D     		cmp	r5, #24
  73 0022 00F08180 		beq	.L10
  74              	.LVL5:
  75              	.L1:
 547:Middlewares/lvgl/src/widgets/lv_img.c **** 
 548:Middlewares/lvgl/src/widgets/lv_img.c ****         int32_t zoom_final = lv_obj_get_style_transform_zoom(obj, LV_PART_MAIN);
 549:Middlewares/lvgl/src/widgets/lv_img.c ****         zoom_final = (zoom_final * img->zoom) >> 8;
 550:Middlewares/lvgl/src/widgets/lv_img.c **** 
 551:Middlewares/lvgl/src/widgets/lv_img.c ****         int32_t angle_final = lv_obj_get_style_transform_angle(obj, LV_PART_MAIN);
 552:Middlewares/lvgl/src/widgets/lv_img.c ****         angle_final += img->angle;
 553:Middlewares/lvgl/src/widgets/lv_img.c **** 
ARM GAS  /tmp/ccTUwwna.s 			page 12


 554:Middlewares/lvgl/src/widgets/lv_img.c ****         lv_coord_t obj_w = lv_obj_get_width(obj);
 555:Middlewares/lvgl/src/widgets/lv_img.c ****         lv_coord_t obj_h = lv_obj_get_height(obj);
 556:Middlewares/lvgl/src/widgets/lv_img.c **** 
 557:Middlewares/lvgl/src/widgets/lv_img.c ****         lv_coord_t border_width = lv_obj_get_style_border_width(obj, LV_PART_MAIN);
 558:Middlewares/lvgl/src/widgets/lv_img.c ****         lv_coord_t pleft = lv_obj_get_style_pad_left(obj, LV_PART_MAIN) + border_width;
 559:Middlewares/lvgl/src/widgets/lv_img.c ****         lv_coord_t pright = lv_obj_get_style_pad_right(obj, LV_PART_MAIN) + border_width;
 560:Middlewares/lvgl/src/widgets/lv_img.c ****         lv_coord_t ptop = lv_obj_get_style_pad_top(obj, LV_PART_MAIN) + border_width;
 561:Middlewares/lvgl/src/widgets/lv_img.c ****         lv_coord_t pbottom = lv_obj_get_style_pad_bottom(obj, LV_PART_MAIN) + border_width;
 562:Middlewares/lvgl/src/widgets/lv_img.c **** 
 563:Middlewares/lvgl/src/widgets/lv_img.c ****         lv_point_t bg_pivot;
 564:Middlewares/lvgl/src/widgets/lv_img.c ****         bg_pivot.x = img->pivot.x + pleft;
 565:Middlewares/lvgl/src/widgets/lv_img.c ****         bg_pivot.y = img->pivot.y + ptop;
 566:Middlewares/lvgl/src/widgets/lv_img.c ****         lv_area_t bg_coords;
 567:Middlewares/lvgl/src/widgets/lv_img.c ****         _lv_img_buf_get_transformed_area(&bg_coords, obj_w, obj_h,
 568:Middlewares/lvgl/src/widgets/lv_img.c ****                 angle_final, zoom_final, &bg_pivot);
 569:Middlewares/lvgl/src/widgets/lv_img.c **** 
 570:Middlewares/lvgl/src/widgets/lv_img.c ****         /*Modify the coordinates to draw the background for the rotated and scaled coordinates*/
 571:Middlewares/lvgl/src/widgets/lv_img.c ****         bg_coords.x1 += obj->coords.x1;
 572:Middlewares/lvgl/src/widgets/lv_img.c ****         bg_coords.y1 += obj->coords.y1;
 573:Middlewares/lvgl/src/widgets/lv_img.c ****         bg_coords.x2 += obj->coords.x1;
 574:Middlewares/lvgl/src/widgets/lv_img.c ****         bg_coords.y2 += obj->coords.y1;
 575:Middlewares/lvgl/src/widgets/lv_img.c **** 
 576:Middlewares/lvgl/src/widgets/lv_img.c ****         lv_area_t ori_coords;
 577:Middlewares/lvgl/src/widgets/lv_img.c ****         lv_area_copy(&ori_coords, &obj->coords);
 578:Middlewares/lvgl/src/widgets/lv_img.c ****         lv_area_copy(&obj->coords, &bg_coords);
 579:Middlewares/lvgl/src/widgets/lv_img.c **** 
 580:Middlewares/lvgl/src/widgets/lv_img.c ****         lv_res_t res = lv_obj_event_base(MY_CLASS, e);
 581:Middlewares/lvgl/src/widgets/lv_img.c ****         if(res != LV_RES_OK) return;
 582:Middlewares/lvgl/src/widgets/lv_img.c **** 
 583:Middlewares/lvgl/src/widgets/lv_img.c ****         lv_area_copy(&obj->coords, &ori_coords);
 584:Middlewares/lvgl/src/widgets/lv_img.c **** 
 585:Middlewares/lvgl/src/widgets/lv_img.c ****         if(code == LV_EVENT_DRAW_MAIN) {
 586:Middlewares/lvgl/src/widgets/lv_img.c ****             if(img->h == 0 || img->w == 0) return;
 587:Middlewares/lvgl/src/widgets/lv_img.c ****             if(zoom_final == 0) return;
 588:Middlewares/lvgl/src/widgets/lv_img.c **** 
 589:Middlewares/lvgl/src/widgets/lv_img.c ****             const lv_area_t * clip_area = lv_event_get_param(e);
 590:Middlewares/lvgl/src/widgets/lv_img.c **** 
 591:Middlewares/lvgl/src/widgets/lv_img.c ****             lv_area_t img_max_area;
 592:Middlewares/lvgl/src/widgets/lv_img.c ****             lv_area_copy(&img_max_area, &obj->coords);
 593:Middlewares/lvgl/src/widgets/lv_img.c ****             img_max_area.x1 += pleft;
 594:Middlewares/lvgl/src/widgets/lv_img.c ****             img_max_area.y1 += ptop;
 595:Middlewares/lvgl/src/widgets/lv_img.c ****             img_max_area.x2 -= pright;
 596:Middlewares/lvgl/src/widgets/lv_img.c ****             img_max_area.y2 -= pbottom;
 597:Middlewares/lvgl/src/widgets/lv_img.c **** 
 598:Middlewares/lvgl/src/widgets/lv_img.c ****             if(img->src_type == LV_IMG_SRC_FILE || img->src_type == LV_IMG_SRC_VARIABLE) {
 599:Middlewares/lvgl/src/widgets/lv_img.c ****                 lv_draw_img_dsc_t img_dsc;
 600:Middlewares/lvgl/src/widgets/lv_img.c ****                 lv_draw_img_dsc_init(&img_dsc);
 601:Middlewares/lvgl/src/widgets/lv_img.c ****                 lv_obj_init_draw_img_dsc(obj, LV_PART_MAIN, &img_dsc);
 602:Middlewares/lvgl/src/widgets/lv_img.c **** 
 603:Middlewares/lvgl/src/widgets/lv_img.c ****                 img_dsc.zoom = zoom_final;
 604:Middlewares/lvgl/src/widgets/lv_img.c ****                 img_dsc.angle = angle_final;
 605:Middlewares/lvgl/src/widgets/lv_img.c ****                 img_dsc.pivot.x = img->pivot.x;
 606:Middlewares/lvgl/src/widgets/lv_img.c ****                 img_dsc.pivot.y = img->pivot.y;
 607:Middlewares/lvgl/src/widgets/lv_img.c ****                 img_dsc.antialias = img->antialias;
 608:Middlewares/lvgl/src/widgets/lv_img.c **** 
 609:Middlewares/lvgl/src/widgets/lv_img.c ****                 lv_area_t img_clip_area;
 610:Middlewares/lvgl/src/widgets/lv_img.c ****                 img_clip_area.x1 = bg_coords.x1 + pleft;
ARM GAS  /tmp/ccTUwwna.s 			page 13


 611:Middlewares/lvgl/src/widgets/lv_img.c ****                 img_clip_area.y1 = bg_coords.y1 + ptop;
 612:Middlewares/lvgl/src/widgets/lv_img.c ****                 img_clip_area.x2 = bg_coords.x2 - pright;
 613:Middlewares/lvgl/src/widgets/lv_img.c ****                 img_clip_area.y2 = bg_coords.y2 - pbottom;
 614:Middlewares/lvgl/src/widgets/lv_img.c **** 
 615:Middlewares/lvgl/src/widgets/lv_img.c ****                 _lv_area_intersect(&img_clip_area, clip_area, &img_clip_area);
 616:Middlewares/lvgl/src/widgets/lv_img.c **** 
 617:Middlewares/lvgl/src/widgets/lv_img.c ****                 lv_area_t coords_tmp;
 618:Middlewares/lvgl/src/widgets/lv_img.c ****                 coords_tmp.y1 = img_max_area.y1 + img->offset.y;
 619:Middlewares/lvgl/src/widgets/lv_img.c ****                 if(coords_tmp.y1 > img_max_area.y1) coords_tmp.y1 -= img->h;
 620:Middlewares/lvgl/src/widgets/lv_img.c ****                 coords_tmp.y2 = coords_tmp.y1 + img->h - 1;
 621:Middlewares/lvgl/src/widgets/lv_img.c **** 
 622:Middlewares/lvgl/src/widgets/lv_img.c ****                 for(; coords_tmp.y1 < img_max_area.y2; coords_tmp.y1 += img->h, coords_tmp.y2 += im
 623:Middlewares/lvgl/src/widgets/lv_img.c ****                     coords_tmp.x1 = img_max_area.x1 + img->offset.x;
 624:Middlewares/lvgl/src/widgets/lv_img.c ****                     if(coords_tmp.x1 > img_max_area.x1) coords_tmp.x1 -= img->w;
 625:Middlewares/lvgl/src/widgets/lv_img.c ****                     coords_tmp.x2 = coords_tmp.x1 + img->w - 1;
 626:Middlewares/lvgl/src/widgets/lv_img.c **** 
 627:Middlewares/lvgl/src/widgets/lv_img.c ****                     for(; coords_tmp.x1 < img_max_area.x2; coords_tmp.x1 += img->w, coords_tmp.x2 +
 628:Middlewares/lvgl/src/widgets/lv_img.c ****                         lv_draw_img(&coords_tmp, &img_clip_area, img->src, &img_dsc);
 629:Middlewares/lvgl/src/widgets/lv_img.c ****                     }
 630:Middlewares/lvgl/src/widgets/lv_img.c ****                 }
 631:Middlewares/lvgl/src/widgets/lv_img.c ****             }
 632:Middlewares/lvgl/src/widgets/lv_img.c ****             else if(img->src_type == LV_IMG_SRC_SYMBOL) {
 633:Middlewares/lvgl/src/widgets/lv_img.c ****                 lv_draw_label_dsc_t label_dsc;
 634:Middlewares/lvgl/src/widgets/lv_img.c ****                 lv_draw_label_dsc_init(&label_dsc);
 635:Middlewares/lvgl/src/widgets/lv_img.c ****                 lv_obj_init_draw_label_dsc(obj, LV_PART_MAIN, &label_dsc);
 636:Middlewares/lvgl/src/widgets/lv_img.c **** 
 637:Middlewares/lvgl/src/widgets/lv_img.c ****                 lv_draw_label(&obj->coords, clip_area, &label_dsc, img->src, NULL);
 638:Middlewares/lvgl/src/widgets/lv_img.c ****             }
 639:Middlewares/lvgl/src/widgets/lv_img.c ****             else {
 640:Middlewares/lvgl/src/widgets/lv_img.c ****                 /*Trigger the error handler of image draw*/
 641:Middlewares/lvgl/src/widgets/lv_img.c ****                 LV_LOG_WARN("draw_img: image source type is unknown");
 642:Middlewares/lvgl/src/widgets/lv_img.c ****                 lv_draw_img(&obj->coords, clip_area, NULL, NULL);
 643:Middlewares/lvgl/src/widgets/lv_img.c ****             }
 644:Middlewares/lvgl/src/widgets/lv_img.c ****         }
 645:Middlewares/lvgl/src/widgets/lv_img.c ****     }
 646:Middlewares/lvgl/src/widgets/lv_img.c **** }
  76              		.loc 1 646 1 view .LVU13
  77 0026 1FB0     		add	sp, sp, #124
  78              	.LCFI2:
  79              		.cfi_remember_state
  80              		.cfi_def_cfa_offset 36
  81              		@ sp needed
  82 0028 BDE8F08F 		pop	{r4, r5, r6, r7, r8, r9, r10, fp, pc}
  83              	.LVL6:
  84              	.L24:
  85              	.LCFI3:
  86              		.cfi_restore_state
  87              	.LBB71:
 495:Middlewares/lvgl/src/widgets/lv_img.c ****         lv_cover_check_info_t * info = lv_event_get_param(e);
  88              		.loc 1 495 9 is_stmt 1 view .LVU14
 495:Middlewares/lvgl/src/widgets/lv_img.c ****         lv_cover_check_info_t * info = lv_event_get_param(e);
  89              		.loc 1 495 40 is_stmt 0 view .LVU15
  90 002c 3046     		mov	r0, r6
  91              	.LVL7:
 495:Middlewares/lvgl/src/widgets/lv_img.c ****         lv_cover_check_info_t * info = lv_event_get_param(e);
  92              		.loc 1 495 40 view .LVU16
  93 002e FFF7FEFF 		bl	lv_event_get_param
ARM GAS  /tmp/ccTUwwna.s 			page 14


  94              	.LVL8:
  95 0032 0546     		mov	r5, r0
  96              	.LVL9:
 496:Middlewares/lvgl/src/widgets/lv_img.c ****         if(img->src_type == LV_IMG_SRC_UNKNOWN || img->src_type == LV_IMG_SRC_SYMBOL) {
  97              		.loc 1 496 9 is_stmt 1 view .LVU17
 496:Middlewares/lvgl/src/widgets/lv_img.c ****         if(img->src_type == LV_IMG_SRC_UNKNOWN || img->src_type == LV_IMG_SRC_SYMBOL) {
  98              		.loc 1 496 16 is_stmt 0 view .LVU18
  99 0034 0378     		ldrb	r3, [r0]	@ zero_extendqisi2
 496:Middlewares/lvgl/src/widgets/lv_img.c ****         if(img->src_type == LV_IMG_SRC_UNKNOWN || img->src_type == LV_IMG_SRC_SYMBOL) {
 100              		.loc 1 496 11 view .LVU19
 101 0036 022B     		cmp	r3, #2
 102 0038 F5D0     		beq	.L1
 497:Middlewares/lvgl/src/widgets/lv_img.c ****             info->res = LV_COVER_RES_NOT_COVER;
 103              		.loc 1 497 9 is_stmt 1 view .LVU20
 497:Middlewares/lvgl/src/widgets/lv_img.c ****             info->res = LV_COVER_RES_NOT_COVER;
 104              		.loc 1 497 26 is_stmt 0 view .LVU21
 105 003a 94F83830 		ldrb	r3, [r4, #56]	@ zero_extendqisi2
 497:Middlewares/lvgl/src/widgets/lv_img.c ****             info->res = LV_COVER_RES_NOT_COVER;
 106              		.loc 1 497 11 view .LVU22
 107 003e 13F0020F 		tst	r3, #2
 108 0042 08D1     		bne	.L25
 503:Middlewares/lvgl/src/widgets/lv_img.c ****             info->res = LV_COVER_RES_NOT_COVER;
 109              		.loc 1 503 9 is_stmt 1 view .LVU23
 503:Middlewares/lvgl/src/widgets/lv_img.c ****             info->res = LV_COVER_RES_NOT_COVER;
 110              		.loc 1 503 20 is_stmt 0 view .LVU24
 111 0044 03F07C03 		and	r3, r3, #124
 503:Middlewares/lvgl/src/widgets/lv_img.c ****             info->res = LV_COVER_RES_NOT_COVER;
 112              		.loc 1 503 11 view .LVU25
 113 0048 102B     		cmp	r3, #16
 114 004a 07D0     		beq	.L5
 503:Middlewares/lvgl/src/widgets/lv_img.c ****             info->res = LV_COVER_RES_NOT_COVER;
 115              		.loc 1 503 44 discriminator 1 view .LVU26
 116 004c 042B     		cmp	r3, #4
 117 004e 05D0     		beq	.L5
 504:Middlewares/lvgl/src/widgets/lv_img.c ****             return;
 118              		.loc 1 504 13 is_stmt 1 view .LVU27
 504:Middlewares/lvgl/src/widgets/lv_img.c ****             return;
 119              		.loc 1 504 23 is_stmt 0 view .LVU28
 120 0050 0123     		movs	r3, #1
 121 0052 0370     		strb	r3, [r0]
 505:Middlewares/lvgl/src/widgets/lv_img.c ****         }
 122              		.loc 1 505 13 is_stmt 1 view .LVU29
 123 0054 E7E7     		b	.L1
 124              	.L25:
 498:Middlewares/lvgl/src/widgets/lv_img.c ****             return;
 125              		.loc 1 498 13 view .LVU30
 498:Middlewares/lvgl/src/widgets/lv_img.c ****             return;
 126              		.loc 1 498 23 is_stmt 0 view .LVU31
 127 0056 0123     		movs	r3, #1
 128 0058 0370     		strb	r3, [r0]
 499:Middlewares/lvgl/src/widgets/lv_img.c ****         }
 129              		.loc 1 499 13 is_stmt 1 view .LVU32
 130 005a E4E7     		b	.L1
 131              	.L5:
 509:Middlewares/lvgl/src/widgets/lv_img.c ****             info->res = LV_COVER_RES_NOT_COVER;
 132              		.loc 1 509 9 view .LVU33
 133              	.LVL10:
ARM GAS  /tmp/ccTUwwna.s 			page 15


 134              	.LBB72:
 135              	.LBI72:
 136              		.file 2 "Middlewares/lvgl/src/widgets/../core/lv_obj_style_gen.h"
   1:Middlewares/lvgl/src/widgets/../core/lv_obj_style_gen.h **** static inline lv_coord_t lv_obj_get_style_width(const struct _lv_obj_t * obj, uint32_t part)
   2:Middlewares/lvgl/src/widgets/../core/lv_obj_style_gen.h **** {
   3:Middlewares/lvgl/src/widgets/../core/lv_obj_style_gen.h ****     lv_style_value_t v = lv_obj_get_style_prop(obj, part, LV_STYLE_WIDTH);
   4:Middlewares/lvgl/src/widgets/../core/lv_obj_style_gen.h ****     return (lv_coord_t)v.num;
   5:Middlewares/lvgl/src/widgets/../core/lv_obj_style_gen.h **** }
   6:Middlewares/lvgl/src/widgets/../core/lv_obj_style_gen.h **** 
   7:Middlewares/lvgl/src/widgets/../core/lv_obj_style_gen.h **** static inline lv_coord_t lv_obj_get_style_min_width(const struct _lv_obj_t * obj, uint32_t part)
   8:Middlewares/lvgl/src/widgets/../core/lv_obj_style_gen.h **** {
   9:Middlewares/lvgl/src/widgets/../core/lv_obj_style_gen.h ****     lv_style_value_t v = lv_obj_get_style_prop(obj, part, LV_STYLE_MIN_WIDTH);
  10:Middlewares/lvgl/src/widgets/../core/lv_obj_style_gen.h ****     return (lv_coord_t)v.num;
  11:Middlewares/lvgl/src/widgets/../core/lv_obj_style_gen.h **** }
  12:Middlewares/lvgl/src/widgets/../core/lv_obj_style_gen.h **** 
  13:Middlewares/lvgl/src/widgets/../core/lv_obj_style_gen.h **** static inline lv_coord_t lv_obj_get_style_max_width(const struct _lv_obj_t * obj, uint32_t part)
  14:Middlewares/lvgl/src/widgets/../core/lv_obj_style_gen.h **** {
  15:Middlewares/lvgl/src/widgets/../core/lv_obj_style_gen.h ****     lv_style_value_t v = lv_obj_get_style_prop(obj, part, LV_STYLE_MAX_WIDTH);
  16:Middlewares/lvgl/src/widgets/../core/lv_obj_style_gen.h ****     return (lv_coord_t)v.num;
  17:Middlewares/lvgl/src/widgets/../core/lv_obj_style_gen.h **** }
  18:Middlewares/lvgl/src/widgets/../core/lv_obj_style_gen.h **** 
  19:Middlewares/lvgl/src/widgets/../core/lv_obj_style_gen.h **** static inline lv_coord_t lv_obj_get_style_height(const struct _lv_obj_t * obj, uint32_t part)
  20:Middlewares/lvgl/src/widgets/../core/lv_obj_style_gen.h **** {
  21:Middlewares/lvgl/src/widgets/../core/lv_obj_style_gen.h ****     lv_style_value_t v = lv_obj_get_style_prop(obj, part, LV_STYLE_HEIGHT);
  22:Middlewares/lvgl/src/widgets/../core/lv_obj_style_gen.h ****     return (lv_coord_t)v.num;
  23:Middlewares/lvgl/src/widgets/../core/lv_obj_style_gen.h **** }
  24:Middlewares/lvgl/src/widgets/../core/lv_obj_style_gen.h **** 
  25:Middlewares/lvgl/src/widgets/../core/lv_obj_style_gen.h **** static inline lv_coord_t lv_obj_get_style_min_height(const struct _lv_obj_t * obj, uint32_t part)
  26:Middlewares/lvgl/src/widgets/../core/lv_obj_style_gen.h **** {
  27:Middlewares/lvgl/src/widgets/../core/lv_obj_style_gen.h ****     lv_style_value_t v = lv_obj_get_style_prop(obj, part, LV_STYLE_MIN_HEIGHT);
  28:Middlewares/lvgl/src/widgets/../core/lv_obj_style_gen.h ****     return (lv_coord_t)v.num;
  29:Middlewares/lvgl/src/widgets/../core/lv_obj_style_gen.h **** }
  30:Middlewares/lvgl/src/widgets/../core/lv_obj_style_gen.h **** 
  31:Middlewares/lvgl/src/widgets/../core/lv_obj_style_gen.h **** static inline lv_coord_t lv_obj_get_style_max_height(const struct _lv_obj_t * obj, uint32_t part)
  32:Middlewares/lvgl/src/widgets/../core/lv_obj_style_gen.h **** {
  33:Middlewares/lvgl/src/widgets/../core/lv_obj_style_gen.h ****     lv_style_value_t v = lv_obj_get_style_prop(obj, part, LV_STYLE_MAX_HEIGHT);
  34:Middlewares/lvgl/src/widgets/../core/lv_obj_style_gen.h ****     return (lv_coord_t)v.num;
  35:Middlewares/lvgl/src/widgets/../core/lv_obj_style_gen.h **** }
  36:Middlewares/lvgl/src/widgets/../core/lv_obj_style_gen.h **** 
  37:Middlewares/lvgl/src/widgets/../core/lv_obj_style_gen.h **** static inline lv_coord_t lv_obj_get_style_x(const struct _lv_obj_t * obj, uint32_t part)
  38:Middlewares/lvgl/src/widgets/../core/lv_obj_style_gen.h **** {
  39:Middlewares/lvgl/src/widgets/../core/lv_obj_style_gen.h ****     lv_style_value_t v = lv_obj_get_style_prop(obj, part, LV_STYLE_X);
  40:Middlewares/lvgl/src/widgets/../core/lv_obj_style_gen.h ****     return (lv_coord_t)v.num;
  41:Middlewares/lvgl/src/widgets/../core/lv_obj_style_gen.h **** }
  42:Middlewares/lvgl/src/widgets/../core/lv_obj_style_gen.h **** 
  43:Middlewares/lvgl/src/widgets/../core/lv_obj_style_gen.h **** static inline lv_coord_t lv_obj_get_style_y(const struct _lv_obj_t * obj, uint32_t part)
  44:Middlewares/lvgl/src/widgets/../core/lv_obj_style_gen.h **** {
  45:Middlewares/lvgl/src/widgets/../core/lv_obj_style_gen.h ****     lv_style_value_t v = lv_obj_get_style_prop(obj, part, LV_STYLE_Y);
  46:Middlewares/lvgl/src/widgets/../core/lv_obj_style_gen.h ****     return (lv_coord_t)v.num;
  47:Middlewares/lvgl/src/widgets/../core/lv_obj_style_gen.h **** }
  48:Middlewares/lvgl/src/widgets/../core/lv_obj_style_gen.h **** 
  49:Middlewares/lvgl/src/widgets/../core/lv_obj_style_gen.h **** static inline lv_align_t lv_obj_get_style_align(const struct _lv_obj_t * obj, uint32_t part)
  50:Middlewares/lvgl/src/widgets/../core/lv_obj_style_gen.h **** {
  51:Middlewares/lvgl/src/widgets/../core/lv_obj_style_gen.h ****     lv_style_value_t v = lv_obj_get_style_prop(obj, part, LV_STYLE_ALIGN);
  52:Middlewares/lvgl/src/widgets/../core/lv_obj_style_gen.h ****     return (lv_align_t)v.num;
  53:Middlewares/lvgl/src/widgets/../core/lv_obj_style_gen.h **** }
  54:Middlewares/lvgl/src/widgets/../core/lv_obj_style_gen.h **** 
ARM GAS  /tmp/ccTUwwna.s 			page 16


  55:Middlewares/lvgl/src/widgets/../core/lv_obj_style_gen.h **** static inline lv_coord_t lv_obj_get_style_transform_width(const struct _lv_obj_t * obj, uint32_t pa
  56:Middlewares/lvgl/src/widgets/../core/lv_obj_style_gen.h **** {
  57:Middlewares/lvgl/src/widgets/../core/lv_obj_style_gen.h ****     lv_style_value_t v = lv_obj_get_style_prop(obj, part, LV_STYLE_TRANSFORM_WIDTH);
  58:Middlewares/lvgl/src/widgets/../core/lv_obj_style_gen.h ****     return (lv_coord_t)v.num;
  59:Middlewares/lvgl/src/widgets/../core/lv_obj_style_gen.h **** }
  60:Middlewares/lvgl/src/widgets/../core/lv_obj_style_gen.h **** 
  61:Middlewares/lvgl/src/widgets/../core/lv_obj_style_gen.h **** static inline lv_coord_t lv_obj_get_style_transform_height(const struct _lv_obj_t * obj, uint32_t p
  62:Middlewares/lvgl/src/widgets/../core/lv_obj_style_gen.h **** {
  63:Middlewares/lvgl/src/widgets/../core/lv_obj_style_gen.h ****     lv_style_value_t v = lv_obj_get_style_prop(obj, part, LV_STYLE_TRANSFORM_HEIGHT);
  64:Middlewares/lvgl/src/widgets/../core/lv_obj_style_gen.h ****     return (lv_coord_t)v.num;
  65:Middlewares/lvgl/src/widgets/../core/lv_obj_style_gen.h **** }
  66:Middlewares/lvgl/src/widgets/../core/lv_obj_style_gen.h **** 
  67:Middlewares/lvgl/src/widgets/../core/lv_obj_style_gen.h **** static inline lv_coord_t lv_obj_get_style_translate_x(const struct _lv_obj_t * obj, uint32_t part)
  68:Middlewares/lvgl/src/widgets/../core/lv_obj_style_gen.h **** {
  69:Middlewares/lvgl/src/widgets/../core/lv_obj_style_gen.h ****     lv_style_value_t v = lv_obj_get_style_prop(obj, part, LV_STYLE_TRANSLATE_X);
  70:Middlewares/lvgl/src/widgets/../core/lv_obj_style_gen.h ****     return (lv_coord_t)v.num;
  71:Middlewares/lvgl/src/widgets/../core/lv_obj_style_gen.h **** }
  72:Middlewares/lvgl/src/widgets/../core/lv_obj_style_gen.h **** 
  73:Middlewares/lvgl/src/widgets/../core/lv_obj_style_gen.h **** static inline lv_coord_t lv_obj_get_style_translate_y(const struct _lv_obj_t * obj, uint32_t part)
  74:Middlewares/lvgl/src/widgets/../core/lv_obj_style_gen.h **** {
  75:Middlewares/lvgl/src/widgets/../core/lv_obj_style_gen.h ****     lv_style_value_t v = lv_obj_get_style_prop(obj, part, LV_STYLE_TRANSLATE_Y);
  76:Middlewares/lvgl/src/widgets/../core/lv_obj_style_gen.h ****     return (lv_coord_t)v.num;
  77:Middlewares/lvgl/src/widgets/../core/lv_obj_style_gen.h **** }
  78:Middlewares/lvgl/src/widgets/../core/lv_obj_style_gen.h **** 
  79:Middlewares/lvgl/src/widgets/../core/lv_obj_style_gen.h **** static inline lv_coord_t lv_obj_get_style_transform_zoom(const struct _lv_obj_t * obj, uint32_t par
  80:Middlewares/lvgl/src/widgets/../core/lv_obj_style_gen.h **** {
  81:Middlewares/lvgl/src/widgets/../core/lv_obj_style_gen.h ****     lv_style_value_t v = lv_obj_get_style_prop(obj, part, LV_STYLE_TRANSFORM_ZOOM);
  82:Middlewares/lvgl/src/widgets/../core/lv_obj_style_gen.h ****     return (lv_coord_t)v.num;
  83:Middlewares/lvgl/src/widgets/../core/lv_obj_style_gen.h **** }
  84:Middlewares/lvgl/src/widgets/../core/lv_obj_style_gen.h **** 
  85:Middlewares/lvgl/src/widgets/../core/lv_obj_style_gen.h **** static inline lv_coord_t lv_obj_get_style_transform_angle(const struct _lv_obj_t * obj, uint32_t pa
  86:Middlewares/lvgl/src/widgets/../core/lv_obj_style_gen.h **** {
  87:Middlewares/lvgl/src/widgets/../core/lv_obj_style_gen.h ****     lv_style_value_t v = lv_obj_get_style_prop(obj, part, LV_STYLE_TRANSFORM_ANGLE);
  88:Middlewares/lvgl/src/widgets/../core/lv_obj_style_gen.h ****     return (lv_coord_t)v.num;
  89:Middlewares/lvgl/src/widgets/../core/lv_obj_style_gen.h **** }
  90:Middlewares/lvgl/src/widgets/../core/lv_obj_style_gen.h **** 
  91:Middlewares/lvgl/src/widgets/../core/lv_obj_style_gen.h **** static inline lv_coord_t lv_obj_get_style_pad_top(const struct _lv_obj_t * obj, uint32_t part)
  92:Middlewares/lvgl/src/widgets/../core/lv_obj_style_gen.h **** {
  93:Middlewares/lvgl/src/widgets/../core/lv_obj_style_gen.h ****     lv_style_value_t v = lv_obj_get_style_prop(obj, part, LV_STYLE_PAD_TOP);
  94:Middlewares/lvgl/src/widgets/../core/lv_obj_style_gen.h ****     return (lv_coord_t)v.num;
  95:Middlewares/lvgl/src/widgets/../core/lv_obj_style_gen.h **** }
  96:Middlewares/lvgl/src/widgets/../core/lv_obj_style_gen.h **** 
  97:Middlewares/lvgl/src/widgets/../core/lv_obj_style_gen.h **** static inline lv_coord_t lv_obj_get_style_pad_bottom(const struct _lv_obj_t * obj, uint32_t part)
  98:Middlewares/lvgl/src/widgets/../core/lv_obj_style_gen.h **** {
  99:Middlewares/lvgl/src/widgets/../core/lv_obj_style_gen.h ****     lv_style_value_t v = lv_obj_get_style_prop(obj, part, LV_STYLE_PAD_BOTTOM);
 100:Middlewares/lvgl/src/widgets/../core/lv_obj_style_gen.h ****     return (lv_coord_t)v.num;
 101:Middlewares/lvgl/src/widgets/../core/lv_obj_style_gen.h **** }
 102:Middlewares/lvgl/src/widgets/../core/lv_obj_style_gen.h **** 
 103:Middlewares/lvgl/src/widgets/../core/lv_obj_style_gen.h **** static inline lv_coord_t lv_obj_get_style_pad_left(const struct _lv_obj_t * obj, uint32_t part)
 104:Middlewares/lvgl/src/widgets/../core/lv_obj_style_gen.h **** {
 105:Middlewares/lvgl/src/widgets/../core/lv_obj_style_gen.h ****     lv_style_value_t v = lv_obj_get_style_prop(obj, part, LV_STYLE_PAD_LEFT);
 106:Middlewares/lvgl/src/widgets/../core/lv_obj_style_gen.h ****     return (lv_coord_t)v.num;
 107:Middlewares/lvgl/src/widgets/../core/lv_obj_style_gen.h **** }
 108:Middlewares/lvgl/src/widgets/../core/lv_obj_style_gen.h **** 
 109:Middlewares/lvgl/src/widgets/../core/lv_obj_style_gen.h **** static inline lv_coord_t lv_obj_get_style_pad_right(const struct _lv_obj_t * obj, uint32_t part)
 110:Middlewares/lvgl/src/widgets/../core/lv_obj_style_gen.h **** {
 111:Middlewares/lvgl/src/widgets/../core/lv_obj_style_gen.h ****     lv_style_value_t v = lv_obj_get_style_prop(obj, part, LV_STYLE_PAD_RIGHT);
ARM GAS  /tmp/ccTUwwna.s 			page 17


 112:Middlewares/lvgl/src/widgets/../core/lv_obj_style_gen.h ****     return (lv_coord_t)v.num;
 113:Middlewares/lvgl/src/widgets/../core/lv_obj_style_gen.h **** }
 114:Middlewares/lvgl/src/widgets/../core/lv_obj_style_gen.h **** 
 115:Middlewares/lvgl/src/widgets/../core/lv_obj_style_gen.h **** static inline lv_coord_t lv_obj_get_style_pad_row(const struct _lv_obj_t * obj, uint32_t part)
 116:Middlewares/lvgl/src/widgets/../core/lv_obj_style_gen.h **** {
 117:Middlewares/lvgl/src/widgets/../core/lv_obj_style_gen.h ****     lv_style_value_t v = lv_obj_get_style_prop(obj, part, LV_STYLE_PAD_ROW);
 118:Middlewares/lvgl/src/widgets/../core/lv_obj_style_gen.h ****     return (lv_coord_t)v.num;
 119:Middlewares/lvgl/src/widgets/../core/lv_obj_style_gen.h **** }
 120:Middlewares/lvgl/src/widgets/../core/lv_obj_style_gen.h **** 
 121:Middlewares/lvgl/src/widgets/../core/lv_obj_style_gen.h **** static inline lv_coord_t lv_obj_get_style_pad_column(const struct _lv_obj_t * obj, uint32_t part)
 122:Middlewares/lvgl/src/widgets/../core/lv_obj_style_gen.h **** {
 123:Middlewares/lvgl/src/widgets/../core/lv_obj_style_gen.h ****     lv_style_value_t v = lv_obj_get_style_prop(obj, part, LV_STYLE_PAD_COLUMN);
 124:Middlewares/lvgl/src/widgets/../core/lv_obj_style_gen.h ****     return (lv_coord_t)v.num;
 125:Middlewares/lvgl/src/widgets/../core/lv_obj_style_gen.h **** }
 126:Middlewares/lvgl/src/widgets/../core/lv_obj_style_gen.h **** 
 127:Middlewares/lvgl/src/widgets/../core/lv_obj_style_gen.h **** static inline lv_coord_t lv_obj_get_style_radius(const struct _lv_obj_t * obj, uint32_t part)
 128:Middlewares/lvgl/src/widgets/../core/lv_obj_style_gen.h **** {
 129:Middlewares/lvgl/src/widgets/../core/lv_obj_style_gen.h ****     lv_style_value_t v = lv_obj_get_style_prop(obj, part, LV_STYLE_RADIUS);
 130:Middlewares/lvgl/src/widgets/../core/lv_obj_style_gen.h ****     return (lv_coord_t)v.num;
 131:Middlewares/lvgl/src/widgets/../core/lv_obj_style_gen.h **** }
 132:Middlewares/lvgl/src/widgets/../core/lv_obj_style_gen.h **** 
 133:Middlewares/lvgl/src/widgets/../core/lv_obj_style_gen.h **** static inline bool lv_obj_get_style_clip_corner(const struct _lv_obj_t * obj, uint32_t part)
 134:Middlewares/lvgl/src/widgets/../core/lv_obj_style_gen.h **** {
 135:Middlewares/lvgl/src/widgets/../core/lv_obj_style_gen.h ****     lv_style_value_t v = lv_obj_get_style_prop(obj, part, LV_STYLE_CLIP_CORNER);
 136:Middlewares/lvgl/src/widgets/../core/lv_obj_style_gen.h ****     return (bool)v.num;
 137:Middlewares/lvgl/src/widgets/../core/lv_obj_style_gen.h **** }
 138:Middlewares/lvgl/src/widgets/../core/lv_obj_style_gen.h **** 
 139:Middlewares/lvgl/src/widgets/../core/lv_obj_style_gen.h **** static inline lv_opa_t lv_obj_get_style_opa(const struct _lv_obj_t * obj, uint32_t part)
 140:Middlewares/lvgl/src/widgets/../core/lv_obj_style_gen.h **** {
 141:Middlewares/lvgl/src/widgets/../core/lv_obj_style_gen.h ****     lv_style_value_t v = lv_obj_get_style_prop(obj, part, LV_STYLE_OPA);
 142:Middlewares/lvgl/src/widgets/../core/lv_obj_style_gen.h ****     return (lv_opa_t)v.num;
 143:Middlewares/lvgl/src/widgets/../core/lv_obj_style_gen.h **** }
 144:Middlewares/lvgl/src/widgets/../core/lv_obj_style_gen.h **** 
 145:Middlewares/lvgl/src/widgets/../core/lv_obj_style_gen.h **** static inline const lv_color_filter_dsc_t * lv_obj_get_style_color_filter_dsc(const struct _lv_obj_
 146:Middlewares/lvgl/src/widgets/../core/lv_obj_style_gen.h **** {
 147:Middlewares/lvgl/src/widgets/../core/lv_obj_style_gen.h ****     lv_style_value_t v = lv_obj_get_style_prop(obj, part, LV_STYLE_COLOR_FILTER_DSC);
 148:Middlewares/lvgl/src/widgets/../core/lv_obj_style_gen.h ****     return (const lv_color_filter_dsc_t *)v.ptr;
 149:Middlewares/lvgl/src/widgets/../core/lv_obj_style_gen.h **** }
 150:Middlewares/lvgl/src/widgets/../core/lv_obj_style_gen.h **** 
 151:Middlewares/lvgl/src/widgets/../core/lv_obj_style_gen.h **** static inline lv_opa_t lv_obj_get_style_color_filter_opa(const struct _lv_obj_t * obj, uint32_t par
 152:Middlewares/lvgl/src/widgets/../core/lv_obj_style_gen.h **** {
 153:Middlewares/lvgl/src/widgets/../core/lv_obj_style_gen.h ****     lv_style_value_t v = lv_obj_get_style_prop(obj, part, LV_STYLE_COLOR_FILTER_OPA);
 154:Middlewares/lvgl/src/widgets/../core/lv_obj_style_gen.h ****     return (lv_opa_t)v.num;
 155:Middlewares/lvgl/src/widgets/../core/lv_obj_style_gen.h **** }
 156:Middlewares/lvgl/src/widgets/../core/lv_obj_style_gen.h **** 
 157:Middlewares/lvgl/src/widgets/../core/lv_obj_style_gen.h **** static inline uint32_t lv_obj_get_style_anim_time(const struct _lv_obj_t * obj, uint32_t part)
 158:Middlewares/lvgl/src/widgets/../core/lv_obj_style_gen.h **** {
 159:Middlewares/lvgl/src/widgets/../core/lv_obj_style_gen.h ****     lv_style_value_t v = lv_obj_get_style_prop(obj, part, LV_STYLE_ANIM_TIME);
 160:Middlewares/lvgl/src/widgets/../core/lv_obj_style_gen.h ****     return (uint32_t)v.num;
 161:Middlewares/lvgl/src/widgets/../core/lv_obj_style_gen.h **** }
 162:Middlewares/lvgl/src/widgets/../core/lv_obj_style_gen.h **** 
 163:Middlewares/lvgl/src/widgets/../core/lv_obj_style_gen.h **** static inline uint32_t lv_obj_get_style_anim_speed(const struct _lv_obj_t * obj, uint32_t part)
 164:Middlewares/lvgl/src/widgets/../core/lv_obj_style_gen.h **** {
 165:Middlewares/lvgl/src/widgets/../core/lv_obj_style_gen.h ****     lv_style_value_t v = lv_obj_get_style_prop(obj, part, LV_STYLE_ANIM_SPEED);
 166:Middlewares/lvgl/src/widgets/../core/lv_obj_style_gen.h ****     return (uint32_t)v.num;
 167:Middlewares/lvgl/src/widgets/../core/lv_obj_style_gen.h **** }
 168:Middlewares/lvgl/src/widgets/../core/lv_obj_style_gen.h **** 
ARM GAS  /tmp/ccTUwwna.s 			page 18


 169:Middlewares/lvgl/src/widgets/../core/lv_obj_style_gen.h **** static inline const lv_style_transition_dsc_t * lv_obj_get_style_transition(const struct _lv_obj_t 
 170:Middlewares/lvgl/src/widgets/../core/lv_obj_style_gen.h **** {
 171:Middlewares/lvgl/src/widgets/../core/lv_obj_style_gen.h ****     lv_style_value_t v = lv_obj_get_style_prop(obj, part, LV_STYLE_TRANSITION);
 172:Middlewares/lvgl/src/widgets/../core/lv_obj_style_gen.h ****     return (const lv_style_transition_dsc_t *)v.ptr;
 173:Middlewares/lvgl/src/widgets/../core/lv_obj_style_gen.h **** }
 174:Middlewares/lvgl/src/widgets/../core/lv_obj_style_gen.h **** 
 175:Middlewares/lvgl/src/widgets/../core/lv_obj_style_gen.h **** static inline lv_blend_mode_t lv_obj_get_style_blend_mode(const struct _lv_obj_t * obj, uint32_t pa
 176:Middlewares/lvgl/src/widgets/../core/lv_obj_style_gen.h **** {
 177:Middlewares/lvgl/src/widgets/../core/lv_obj_style_gen.h ****     lv_style_value_t v = lv_obj_get_style_prop(obj, part, LV_STYLE_BLEND_MODE);
 178:Middlewares/lvgl/src/widgets/../core/lv_obj_style_gen.h ****     return (lv_blend_mode_t)v.num;
 179:Middlewares/lvgl/src/widgets/../core/lv_obj_style_gen.h **** }
 180:Middlewares/lvgl/src/widgets/../core/lv_obj_style_gen.h **** 
 181:Middlewares/lvgl/src/widgets/../core/lv_obj_style_gen.h **** static inline uint16_t lv_obj_get_style_layout(const struct _lv_obj_t * obj, uint32_t part)
 182:Middlewares/lvgl/src/widgets/../core/lv_obj_style_gen.h **** {
 183:Middlewares/lvgl/src/widgets/../core/lv_obj_style_gen.h ****     lv_style_value_t v = lv_obj_get_style_prop(obj, part, LV_STYLE_LAYOUT);
 184:Middlewares/lvgl/src/widgets/../core/lv_obj_style_gen.h ****     return (uint16_t)v.num;
 185:Middlewares/lvgl/src/widgets/../core/lv_obj_style_gen.h **** }
 186:Middlewares/lvgl/src/widgets/../core/lv_obj_style_gen.h **** 
 187:Middlewares/lvgl/src/widgets/../core/lv_obj_style_gen.h **** static inline lv_base_dir_t lv_obj_get_style_base_dir(const struct _lv_obj_t * obj, uint32_t part)
 188:Middlewares/lvgl/src/widgets/../core/lv_obj_style_gen.h **** {
 189:Middlewares/lvgl/src/widgets/../core/lv_obj_style_gen.h ****     lv_style_value_t v = lv_obj_get_style_prop(obj, part, LV_STYLE_BASE_DIR);
 190:Middlewares/lvgl/src/widgets/../core/lv_obj_style_gen.h ****     return (lv_base_dir_t)v.num;
 191:Middlewares/lvgl/src/widgets/../core/lv_obj_style_gen.h **** }
 192:Middlewares/lvgl/src/widgets/../core/lv_obj_style_gen.h **** 
 193:Middlewares/lvgl/src/widgets/../core/lv_obj_style_gen.h **** static inline lv_color_t lv_obj_get_style_bg_color(const struct _lv_obj_t * obj, uint32_t part)
 194:Middlewares/lvgl/src/widgets/../core/lv_obj_style_gen.h **** {
 195:Middlewares/lvgl/src/widgets/../core/lv_obj_style_gen.h ****     lv_style_value_t v = lv_obj_get_style_prop(obj, part, LV_STYLE_BG_COLOR);
 196:Middlewares/lvgl/src/widgets/../core/lv_obj_style_gen.h ****     return v.color;
 197:Middlewares/lvgl/src/widgets/../core/lv_obj_style_gen.h **** }
 198:Middlewares/lvgl/src/widgets/../core/lv_obj_style_gen.h **** 
 199:Middlewares/lvgl/src/widgets/../core/lv_obj_style_gen.h **** static inline lv_color_t lv_obj_get_style_bg_color_filtered(const struct _lv_obj_t * obj, uint32_t 
 200:Middlewares/lvgl/src/widgets/../core/lv_obj_style_gen.h **** {
 201:Middlewares/lvgl/src/widgets/../core/lv_obj_style_gen.h ****     lv_style_value_t v = lv_obj_get_style_prop(obj, part, LV_STYLE_BG_COLOR_FILTERED);
 202:Middlewares/lvgl/src/widgets/../core/lv_obj_style_gen.h ****     return v.color;
 203:Middlewares/lvgl/src/widgets/../core/lv_obj_style_gen.h **** }
 204:Middlewares/lvgl/src/widgets/../core/lv_obj_style_gen.h **** 
 205:Middlewares/lvgl/src/widgets/../core/lv_obj_style_gen.h **** static inline lv_opa_t lv_obj_get_style_bg_opa(const struct _lv_obj_t * obj, uint32_t part)
 206:Middlewares/lvgl/src/widgets/../core/lv_obj_style_gen.h **** {
 207:Middlewares/lvgl/src/widgets/../core/lv_obj_style_gen.h ****     lv_style_value_t v = lv_obj_get_style_prop(obj, part, LV_STYLE_BG_OPA);
 208:Middlewares/lvgl/src/widgets/../core/lv_obj_style_gen.h ****     return (lv_opa_t)v.num;
 209:Middlewares/lvgl/src/widgets/../core/lv_obj_style_gen.h **** }
 210:Middlewares/lvgl/src/widgets/../core/lv_obj_style_gen.h **** 
 211:Middlewares/lvgl/src/widgets/../core/lv_obj_style_gen.h **** static inline lv_color_t lv_obj_get_style_bg_grad_color(const struct _lv_obj_t * obj, uint32_t part
 212:Middlewares/lvgl/src/widgets/../core/lv_obj_style_gen.h **** {
 213:Middlewares/lvgl/src/widgets/../core/lv_obj_style_gen.h ****     lv_style_value_t v = lv_obj_get_style_prop(obj, part, LV_STYLE_BG_GRAD_COLOR);
 214:Middlewares/lvgl/src/widgets/../core/lv_obj_style_gen.h ****     return v.color;
 215:Middlewares/lvgl/src/widgets/../core/lv_obj_style_gen.h **** }
 216:Middlewares/lvgl/src/widgets/../core/lv_obj_style_gen.h **** 
 217:Middlewares/lvgl/src/widgets/../core/lv_obj_style_gen.h **** static inline lv_color_t lv_obj_get_style_bg_grad_color_filtered(const struct _lv_obj_t * obj, uint
 218:Middlewares/lvgl/src/widgets/../core/lv_obj_style_gen.h **** {
 219:Middlewares/lvgl/src/widgets/../core/lv_obj_style_gen.h ****     lv_style_value_t v = lv_obj_get_style_prop(obj, part, LV_STYLE_BG_GRAD_COLOR_FILTERED);
 220:Middlewares/lvgl/src/widgets/../core/lv_obj_style_gen.h ****     return v.color;
 221:Middlewares/lvgl/src/widgets/../core/lv_obj_style_gen.h **** }
 222:Middlewares/lvgl/src/widgets/../core/lv_obj_style_gen.h **** 
 223:Middlewares/lvgl/src/widgets/../core/lv_obj_style_gen.h **** static inline lv_grad_dir_t lv_obj_get_style_bg_grad_dir(const struct _lv_obj_t * obj, uint32_t par
 224:Middlewares/lvgl/src/widgets/../core/lv_obj_style_gen.h **** {
 225:Middlewares/lvgl/src/widgets/../core/lv_obj_style_gen.h ****     lv_style_value_t v = lv_obj_get_style_prop(obj, part, LV_STYLE_BG_GRAD_DIR);
ARM GAS  /tmp/ccTUwwna.s 			page 19


 226:Middlewares/lvgl/src/widgets/../core/lv_obj_style_gen.h ****     return (lv_grad_dir_t)v.num;
 227:Middlewares/lvgl/src/widgets/../core/lv_obj_style_gen.h **** }
 228:Middlewares/lvgl/src/widgets/../core/lv_obj_style_gen.h **** 
 229:Middlewares/lvgl/src/widgets/../core/lv_obj_style_gen.h **** static inline lv_coord_t lv_obj_get_style_bg_main_stop(const struct _lv_obj_t * obj, uint32_t part)
 230:Middlewares/lvgl/src/widgets/../core/lv_obj_style_gen.h **** {
 231:Middlewares/lvgl/src/widgets/../core/lv_obj_style_gen.h ****     lv_style_value_t v = lv_obj_get_style_prop(obj, part, LV_STYLE_BG_MAIN_STOP);
 232:Middlewares/lvgl/src/widgets/../core/lv_obj_style_gen.h ****     return (lv_coord_t)v.num;
 233:Middlewares/lvgl/src/widgets/../core/lv_obj_style_gen.h **** }
 234:Middlewares/lvgl/src/widgets/../core/lv_obj_style_gen.h **** 
 235:Middlewares/lvgl/src/widgets/../core/lv_obj_style_gen.h **** static inline lv_coord_t lv_obj_get_style_bg_grad_stop(const struct _lv_obj_t * obj, uint32_t part)
 236:Middlewares/lvgl/src/widgets/../core/lv_obj_style_gen.h **** {
 237:Middlewares/lvgl/src/widgets/../core/lv_obj_style_gen.h ****     lv_style_value_t v = lv_obj_get_style_prop(obj, part, LV_STYLE_BG_GRAD_STOP);
 238:Middlewares/lvgl/src/widgets/../core/lv_obj_style_gen.h ****     return (lv_coord_t)v.num;
 239:Middlewares/lvgl/src/widgets/../core/lv_obj_style_gen.h **** }
 240:Middlewares/lvgl/src/widgets/../core/lv_obj_style_gen.h **** 
 241:Middlewares/lvgl/src/widgets/../core/lv_obj_style_gen.h **** static inline const void * lv_obj_get_style_bg_img_src(const struct _lv_obj_t * obj, uint32_t part)
 242:Middlewares/lvgl/src/widgets/../core/lv_obj_style_gen.h **** {
 243:Middlewares/lvgl/src/widgets/../core/lv_obj_style_gen.h ****     lv_style_value_t v = lv_obj_get_style_prop(obj, part, LV_STYLE_BG_IMG_SRC);
 244:Middlewares/lvgl/src/widgets/../core/lv_obj_style_gen.h ****     return (const void *)v.ptr;
 245:Middlewares/lvgl/src/widgets/../core/lv_obj_style_gen.h **** }
 246:Middlewares/lvgl/src/widgets/../core/lv_obj_style_gen.h **** 
 247:Middlewares/lvgl/src/widgets/../core/lv_obj_style_gen.h **** static inline lv_opa_t lv_obj_get_style_bg_img_opa(const struct _lv_obj_t * obj, uint32_t part)
 248:Middlewares/lvgl/src/widgets/../core/lv_obj_style_gen.h **** {
 249:Middlewares/lvgl/src/widgets/../core/lv_obj_style_gen.h ****     lv_style_value_t v = lv_obj_get_style_prop(obj, part, LV_STYLE_BG_IMG_OPA);
 250:Middlewares/lvgl/src/widgets/../core/lv_obj_style_gen.h ****     return (lv_opa_t)v.num;
 251:Middlewares/lvgl/src/widgets/../core/lv_obj_style_gen.h **** }
 252:Middlewares/lvgl/src/widgets/../core/lv_obj_style_gen.h **** 
 253:Middlewares/lvgl/src/widgets/../core/lv_obj_style_gen.h **** static inline lv_color_t lv_obj_get_style_bg_img_recolor(const struct _lv_obj_t * obj, uint32_t par
 254:Middlewares/lvgl/src/widgets/../core/lv_obj_style_gen.h **** {
 255:Middlewares/lvgl/src/widgets/../core/lv_obj_style_gen.h ****     lv_style_value_t v = lv_obj_get_style_prop(obj, part, LV_STYLE_BG_IMG_RECOLOR);
 256:Middlewares/lvgl/src/widgets/../core/lv_obj_style_gen.h ****     return v.color;
 257:Middlewares/lvgl/src/widgets/../core/lv_obj_style_gen.h **** }
 258:Middlewares/lvgl/src/widgets/../core/lv_obj_style_gen.h **** 
 259:Middlewares/lvgl/src/widgets/../core/lv_obj_style_gen.h **** static inline lv_color_t lv_obj_get_style_bg_img_recolor_filtered(const struct _lv_obj_t * obj, uin
 260:Middlewares/lvgl/src/widgets/../core/lv_obj_style_gen.h **** {
 261:Middlewares/lvgl/src/widgets/../core/lv_obj_style_gen.h ****     lv_style_value_t v = lv_obj_get_style_prop(obj, part, LV_STYLE_BG_IMG_RECOLOR_FILTERED);
 262:Middlewares/lvgl/src/widgets/../core/lv_obj_style_gen.h ****     return v.color;
 263:Middlewares/lvgl/src/widgets/../core/lv_obj_style_gen.h **** }
 264:Middlewares/lvgl/src/widgets/../core/lv_obj_style_gen.h **** 
 265:Middlewares/lvgl/src/widgets/../core/lv_obj_style_gen.h **** static inline lv_opa_t lv_obj_get_style_bg_img_recolor_opa(const struct _lv_obj_t * obj, uint32_t p
 266:Middlewares/lvgl/src/widgets/../core/lv_obj_style_gen.h **** {
 267:Middlewares/lvgl/src/widgets/../core/lv_obj_style_gen.h ****     lv_style_value_t v = lv_obj_get_style_prop(obj, part, LV_STYLE_BG_IMG_RECOLOR_OPA);
 268:Middlewares/lvgl/src/widgets/../core/lv_obj_style_gen.h ****     return (lv_opa_t)v.num;
 269:Middlewares/lvgl/src/widgets/../core/lv_obj_style_gen.h **** }
 270:Middlewares/lvgl/src/widgets/../core/lv_obj_style_gen.h **** 
 271:Middlewares/lvgl/src/widgets/../core/lv_obj_style_gen.h **** static inline bool lv_obj_get_style_bg_img_tiled(const struct _lv_obj_t * obj, uint32_t part)
 272:Middlewares/lvgl/src/widgets/../core/lv_obj_style_gen.h **** {
 273:Middlewares/lvgl/src/widgets/../core/lv_obj_style_gen.h ****     lv_style_value_t v = lv_obj_get_style_prop(obj, part, LV_STYLE_BG_IMG_TILED);
 274:Middlewares/lvgl/src/widgets/../core/lv_obj_style_gen.h ****     return (bool)v.num;
 275:Middlewares/lvgl/src/widgets/../core/lv_obj_style_gen.h **** }
 276:Middlewares/lvgl/src/widgets/../core/lv_obj_style_gen.h **** 
 277:Middlewares/lvgl/src/widgets/../core/lv_obj_style_gen.h **** static inline lv_color_t lv_obj_get_style_border_color(const struct _lv_obj_t * obj, uint32_t part)
 278:Middlewares/lvgl/src/widgets/../core/lv_obj_style_gen.h **** {
 279:Middlewares/lvgl/src/widgets/../core/lv_obj_style_gen.h ****     lv_style_value_t v = lv_obj_get_style_prop(obj, part, LV_STYLE_BORDER_COLOR);
 280:Middlewares/lvgl/src/widgets/../core/lv_obj_style_gen.h ****     return v.color;
 281:Middlewares/lvgl/src/widgets/../core/lv_obj_style_gen.h **** }
 282:Middlewares/lvgl/src/widgets/../core/lv_obj_style_gen.h **** 
ARM GAS  /tmp/ccTUwwna.s 			page 20


 283:Middlewares/lvgl/src/widgets/../core/lv_obj_style_gen.h **** static inline lv_color_t lv_obj_get_style_border_color_filtered(const struct _lv_obj_t * obj, uint3
 284:Middlewares/lvgl/src/widgets/../core/lv_obj_style_gen.h **** {
 285:Middlewares/lvgl/src/widgets/../core/lv_obj_style_gen.h ****     lv_style_value_t v = lv_obj_get_style_prop(obj, part, LV_STYLE_BORDER_COLOR_FILTERED);
 286:Middlewares/lvgl/src/widgets/../core/lv_obj_style_gen.h ****     return v.color;
 287:Middlewares/lvgl/src/widgets/../core/lv_obj_style_gen.h **** }
 288:Middlewares/lvgl/src/widgets/../core/lv_obj_style_gen.h **** 
 289:Middlewares/lvgl/src/widgets/../core/lv_obj_style_gen.h **** static inline lv_opa_t lv_obj_get_style_border_opa(const struct _lv_obj_t * obj, uint32_t part)
 290:Middlewares/lvgl/src/widgets/../core/lv_obj_style_gen.h **** {
 291:Middlewares/lvgl/src/widgets/../core/lv_obj_style_gen.h ****     lv_style_value_t v = lv_obj_get_style_prop(obj, part, LV_STYLE_BORDER_OPA);
 292:Middlewares/lvgl/src/widgets/../core/lv_obj_style_gen.h ****     return (lv_opa_t)v.num;
 293:Middlewares/lvgl/src/widgets/../core/lv_obj_style_gen.h **** }
 294:Middlewares/lvgl/src/widgets/../core/lv_obj_style_gen.h **** 
 295:Middlewares/lvgl/src/widgets/../core/lv_obj_style_gen.h **** static inline lv_coord_t lv_obj_get_style_border_width(const struct _lv_obj_t * obj, uint32_t part)
 296:Middlewares/lvgl/src/widgets/../core/lv_obj_style_gen.h **** {
 297:Middlewares/lvgl/src/widgets/../core/lv_obj_style_gen.h ****     lv_style_value_t v = lv_obj_get_style_prop(obj, part, LV_STYLE_BORDER_WIDTH);
 298:Middlewares/lvgl/src/widgets/../core/lv_obj_style_gen.h ****     return (lv_coord_t)v.num;
 299:Middlewares/lvgl/src/widgets/../core/lv_obj_style_gen.h **** }
 300:Middlewares/lvgl/src/widgets/../core/lv_obj_style_gen.h **** 
 301:Middlewares/lvgl/src/widgets/../core/lv_obj_style_gen.h **** static inline lv_border_side_t lv_obj_get_style_border_side(const struct _lv_obj_t * obj, uint32_t 
 302:Middlewares/lvgl/src/widgets/../core/lv_obj_style_gen.h **** {
 303:Middlewares/lvgl/src/widgets/../core/lv_obj_style_gen.h ****     lv_style_value_t v = lv_obj_get_style_prop(obj, part, LV_STYLE_BORDER_SIDE);
 304:Middlewares/lvgl/src/widgets/../core/lv_obj_style_gen.h ****     return (lv_border_side_t)v.num;
 305:Middlewares/lvgl/src/widgets/../core/lv_obj_style_gen.h **** }
 306:Middlewares/lvgl/src/widgets/../core/lv_obj_style_gen.h **** 
 307:Middlewares/lvgl/src/widgets/../core/lv_obj_style_gen.h **** static inline bool lv_obj_get_style_border_post(const struct _lv_obj_t * obj, uint32_t part)
 308:Middlewares/lvgl/src/widgets/../core/lv_obj_style_gen.h **** {
 309:Middlewares/lvgl/src/widgets/../core/lv_obj_style_gen.h ****     lv_style_value_t v = lv_obj_get_style_prop(obj, part, LV_STYLE_BORDER_POST);
 310:Middlewares/lvgl/src/widgets/../core/lv_obj_style_gen.h ****     return (bool)v.num;
 311:Middlewares/lvgl/src/widgets/../core/lv_obj_style_gen.h **** }
 312:Middlewares/lvgl/src/widgets/../core/lv_obj_style_gen.h **** 
 313:Middlewares/lvgl/src/widgets/../core/lv_obj_style_gen.h **** static inline lv_color_t lv_obj_get_style_text_color(const struct _lv_obj_t * obj, uint32_t part)
 314:Middlewares/lvgl/src/widgets/../core/lv_obj_style_gen.h **** {
 315:Middlewares/lvgl/src/widgets/../core/lv_obj_style_gen.h ****     lv_style_value_t v = lv_obj_get_style_prop(obj, part, LV_STYLE_TEXT_COLOR);
 316:Middlewares/lvgl/src/widgets/../core/lv_obj_style_gen.h ****     return v.color;
 317:Middlewares/lvgl/src/widgets/../core/lv_obj_style_gen.h **** }
 318:Middlewares/lvgl/src/widgets/../core/lv_obj_style_gen.h **** 
 319:Middlewares/lvgl/src/widgets/../core/lv_obj_style_gen.h **** static inline lv_color_t lv_obj_get_style_text_color_filtered(const struct _lv_obj_t * obj, uint32_
 320:Middlewares/lvgl/src/widgets/../core/lv_obj_style_gen.h **** {
 321:Middlewares/lvgl/src/widgets/../core/lv_obj_style_gen.h ****     lv_style_value_t v = lv_obj_get_style_prop(obj, part, LV_STYLE_TEXT_COLOR_FILTERED);
 322:Middlewares/lvgl/src/widgets/../core/lv_obj_style_gen.h ****     return v.color;
 323:Middlewares/lvgl/src/widgets/../core/lv_obj_style_gen.h **** }
 324:Middlewares/lvgl/src/widgets/../core/lv_obj_style_gen.h **** 
 325:Middlewares/lvgl/src/widgets/../core/lv_obj_style_gen.h **** static inline lv_opa_t lv_obj_get_style_text_opa(const struct _lv_obj_t * obj, uint32_t part)
 326:Middlewares/lvgl/src/widgets/../core/lv_obj_style_gen.h **** {
 327:Middlewares/lvgl/src/widgets/../core/lv_obj_style_gen.h ****     lv_style_value_t v = lv_obj_get_style_prop(obj, part, LV_STYLE_TEXT_OPA);
 328:Middlewares/lvgl/src/widgets/../core/lv_obj_style_gen.h ****     return (lv_opa_t)v.num;
 329:Middlewares/lvgl/src/widgets/../core/lv_obj_style_gen.h **** }
 330:Middlewares/lvgl/src/widgets/../core/lv_obj_style_gen.h **** 
 331:Middlewares/lvgl/src/widgets/../core/lv_obj_style_gen.h **** static inline const lv_font_t * lv_obj_get_style_text_font(const struct _lv_obj_t * obj, uint32_t p
 332:Middlewares/lvgl/src/widgets/../core/lv_obj_style_gen.h **** {
 333:Middlewares/lvgl/src/widgets/../core/lv_obj_style_gen.h ****     lv_style_value_t v = lv_obj_get_style_prop(obj, part, LV_STYLE_TEXT_FONT);
 334:Middlewares/lvgl/src/widgets/../core/lv_obj_style_gen.h ****     return (const lv_font_t *)v.ptr;
 335:Middlewares/lvgl/src/widgets/../core/lv_obj_style_gen.h **** }
 336:Middlewares/lvgl/src/widgets/../core/lv_obj_style_gen.h **** 
 337:Middlewares/lvgl/src/widgets/../core/lv_obj_style_gen.h **** static inline lv_coord_t lv_obj_get_style_text_letter_space(const struct _lv_obj_t * obj, uint32_t 
 338:Middlewares/lvgl/src/widgets/../core/lv_obj_style_gen.h **** {
 339:Middlewares/lvgl/src/widgets/../core/lv_obj_style_gen.h ****     lv_style_value_t v = lv_obj_get_style_prop(obj, part, LV_STYLE_TEXT_LETTER_SPACE);
ARM GAS  /tmp/ccTUwwna.s 			page 21


 340:Middlewares/lvgl/src/widgets/../core/lv_obj_style_gen.h ****     return (lv_coord_t)v.num;
 341:Middlewares/lvgl/src/widgets/../core/lv_obj_style_gen.h **** }
 342:Middlewares/lvgl/src/widgets/../core/lv_obj_style_gen.h **** 
 343:Middlewares/lvgl/src/widgets/../core/lv_obj_style_gen.h **** static inline lv_coord_t lv_obj_get_style_text_line_space(const struct _lv_obj_t * obj, uint32_t pa
 344:Middlewares/lvgl/src/widgets/../core/lv_obj_style_gen.h **** {
 345:Middlewares/lvgl/src/widgets/../core/lv_obj_style_gen.h ****     lv_style_value_t v = lv_obj_get_style_prop(obj, part, LV_STYLE_TEXT_LINE_SPACE);
 346:Middlewares/lvgl/src/widgets/../core/lv_obj_style_gen.h ****     return (lv_coord_t)v.num;
 347:Middlewares/lvgl/src/widgets/../core/lv_obj_style_gen.h **** }
 348:Middlewares/lvgl/src/widgets/../core/lv_obj_style_gen.h **** 
 349:Middlewares/lvgl/src/widgets/../core/lv_obj_style_gen.h **** static inline lv_text_decor_t lv_obj_get_style_text_decor(const struct _lv_obj_t * obj, uint32_t pa
 350:Middlewares/lvgl/src/widgets/../core/lv_obj_style_gen.h **** {
 351:Middlewares/lvgl/src/widgets/../core/lv_obj_style_gen.h ****     lv_style_value_t v = lv_obj_get_style_prop(obj, part, LV_STYLE_TEXT_DECOR);
 352:Middlewares/lvgl/src/widgets/../core/lv_obj_style_gen.h ****     return (lv_text_decor_t)v.num;
 353:Middlewares/lvgl/src/widgets/../core/lv_obj_style_gen.h **** }
 354:Middlewares/lvgl/src/widgets/../core/lv_obj_style_gen.h **** 
 355:Middlewares/lvgl/src/widgets/../core/lv_obj_style_gen.h **** static inline lv_text_align_t lv_obj_get_style_text_align(const struct _lv_obj_t * obj, uint32_t pa
 356:Middlewares/lvgl/src/widgets/../core/lv_obj_style_gen.h **** {
 357:Middlewares/lvgl/src/widgets/../core/lv_obj_style_gen.h ****     lv_style_value_t v = lv_obj_get_style_prop(obj, part, LV_STYLE_TEXT_ALIGN);
 358:Middlewares/lvgl/src/widgets/../core/lv_obj_style_gen.h ****     return (lv_text_align_t)v.num;
 359:Middlewares/lvgl/src/widgets/../core/lv_obj_style_gen.h **** }
 360:Middlewares/lvgl/src/widgets/../core/lv_obj_style_gen.h **** 
 361:Middlewares/lvgl/src/widgets/../core/lv_obj_style_gen.h **** static inline lv_opa_t lv_obj_get_style_img_opa(const struct _lv_obj_t * obj, uint32_t part)
 137              		.loc 2 361 24 view .LVU34
 138              	.LBB73:
 362:Middlewares/lvgl/src/widgets/../core/lv_obj_style_gen.h **** {
 363:Middlewares/lvgl/src/widgets/../core/lv_obj_style_gen.h ****     lv_style_value_t v = lv_obj_get_style_prop(obj, part, LV_STYLE_IMG_OPA);
 139              		.loc 2 363 5 view .LVU35
 140              		.loc 2 363 26 is_stmt 0 view .LVU36
 141 005c 4622     		movs	r2, #70
 142 005e 0021     		movs	r1, #0
 143 0060 2046     		mov	r0, r4
 144              	.LVL11:
 145              		.loc 2 363 26 view .LVU37
 146 0062 FFF7FEFF 		bl	lv_obj_get_style_prop
 147              	.LVL12:
 364:Middlewares/lvgl/src/widgets/../core/lv_obj_style_gen.h ****     return (lv_opa_t)v.num;
 148              		.loc 2 364 5 is_stmt 1 view .LVU38
 149              		.loc 2 364 12 is_stmt 0 view .LVU39
 150 0066 C0B2     		uxtb	r0, r0
 151              	.LVL13:
 152              		.loc 2 364 12 view .LVU40
 153              	.LBE73:
 154              	.LBE72:
 509:Middlewares/lvgl/src/widgets/lv_img.c ****             info->res = LV_COVER_RES_NOT_COVER;
 155              		.loc 1 509 11 view .LVU41
 156 0068 FF28     		cmp	r0, #255
 157 006a 02D0     		beq	.L6
 510:Middlewares/lvgl/src/widgets/lv_img.c ****             return;
 158              		.loc 1 510 13 is_stmt 1 view .LVU42
 510:Middlewares/lvgl/src/widgets/lv_img.c ****             return;
 159              		.loc 1 510 23 is_stmt 0 view .LVU43
 160 006c 0123     		movs	r3, #1
 161 006e 2B70     		strb	r3, [r5]
 511:Middlewares/lvgl/src/widgets/lv_img.c ****         }
 162              		.loc 1 511 13 is_stmt 1 view .LVU44
 163 0070 D9E7     		b	.L1
 164              	.L6:
ARM GAS  /tmp/ccTUwwna.s 			page 22


 514:Middlewares/lvgl/src/widgets/lv_img.c ****         angle_final += img->angle;
 165              		.loc 1 514 9 view .LVU45
 166              	.LVL14:
 167              	.LBB74:
 168              	.LBI74:
  85:Middlewares/lvgl/src/widgets/../core/lv_obj_style_gen.h **** {
 169              		.loc 2 85 26 view .LVU46
 170              	.LBB75:
  87:Middlewares/lvgl/src/widgets/../core/lv_obj_style_gen.h ****     return (lv_coord_t)v.num;
 171              		.loc 2 87 5 view .LVU47
  87:Middlewares/lvgl/src/widgets/../core/lv_obj_style_gen.h ****     return (lv_coord_t)v.num;
 172              		.loc 2 87 26 is_stmt 0 view .LVU48
 173 0072 40F60F02 		movw	r2, #2063
 174 0076 0021     		movs	r1, #0
 175 0078 2046     		mov	r0, r4
 176 007a FFF7FEFF 		bl	lv_obj_get_style_prop
 177              	.LVL15:
  88:Middlewares/lvgl/src/widgets/../core/lv_obj_style_gen.h **** }
 178              		.loc 2 88 5 is_stmt 1 view .LVU49
  88:Middlewares/lvgl/src/widgets/../core/lv_obj_style_gen.h **** }
 179              		.loc 2 88 12 is_stmt 0 view .LVU50
 180 007e 00B2     		sxth	r0, r0
 181              	.LVL16:
  88:Middlewares/lvgl/src/widgets/../core/lv_obj_style_gen.h **** }
 182              		.loc 2 88 12 view .LVU51
 183              	.LBE75:
 184              	.LBE74:
 515:Middlewares/lvgl/src/widgets/lv_img.c **** 
 185              		.loc 1 515 9 is_stmt 1 view .LVU52
 515:Middlewares/lvgl/src/widgets/lv_img.c **** 
 186              		.loc 1 515 27 is_stmt 0 view .LVU53
 187 0080 238E     		ldrh	r3, [r4, #48]
 188              	.LVL17:
 517:Middlewares/lvgl/src/widgets/lv_img.c ****             info->res = LV_COVER_RES_NOT_COVER;
 189              		.loc 1 517 9 is_stmt 1 view .LVU54
 517:Middlewares/lvgl/src/widgets/lv_img.c ****             info->res = LV_COVER_RES_NOT_COVER;
 190              		.loc 1 517 11 is_stmt 0 view .LVU55
 191 0082 C342     		cmn	r3, r0
 192 0084 02D0     		beq	.L7
 518:Middlewares/lvgl/src/widgets/lv_img.c ****             return;
 193              		.loc 1 518 13 is_stmt 1 view .LVU56
 518:Middlewares/lvgl/src/widgets/lv_img.c ****             return;
 194              		.loc 1 518 23 is_stmt 0 view .LVU57
 195 0086 0123     		movs	r3, #1
 196              	.LVL18:
 518:Middlewares/lvgl/src/widgets/lv_img.c ****             return;
 197              		.loc 1 518 23 view .LVU58
 198 0088 2B70     		strb	r3, [r5]
 199              	.LVL19:
 519:Middlewares/lvgl/src/widgets/lv_img.c ****         }
 200              		.loc 1 519 13 is_stmt 1 view .LVU59
 201 008a CCE7     		b	.L1
 202              	.LVL20:
 203              	.L7:
 522:Middlewares/lvgl/src/widgets/lv_img.c ****         zoom_final = (zoom_final * img->zoom) >> 8;
 204              		.loc 1 522 9 view .LVU60
 205              	.LBB76:
ARM GAS  /tmp/ccTUwwna.s 			page 23


 206              	.LBI76:
  79:Middlewares/lvgl/src/widgets/../core/lv_obj_style_gen.h **** {
 207              		.loc 2 79 26 view .LVU61
 208              	.LBB77:
  81:Middlewares/lvgl/src/widgets/../core/lv_obj_style_gen.h ****     return (lv_coord_t)v.num;
 209              		.loc 2 81 5 view .LVU62
  81:Middlewares/lvgl/src/widgets/../core/lv_obj_style_gen.h ****     return (lv_coord_t)v.num;
 210              		.loc 2 81 26 is_stmt 0 view .LVU63
 211 008c 40F60E02 		movw	r2, #2062
 212 0090 0021     		movs	r1, #0
 213 0092 2046     		mov	r0, r4
 214              	.LVL21:
  81:Middlewares/lvgl/src/widgets/../core/lv_obj_style_gen.h ****     return (lv_coord_t)v.num;
 215              		.loc 2 81 26 view .LVU64
 216 0094 FFF7FEFF 		bl	lv_obj_get_style_prop
 217              	.LVL22:
  82:Middlewares/lvgl/src/widgets/../core/lv_obj_style_gen.h **** }
 218              		.loc 2 82 5 is_stmt 1 view .LVU65
  82:Middlewares/lvgl/src/widgets/../core/lv_obj_style_gen.h **** }
 219              		.loc 2 82 12 is_stmt 0 view .LVU66
 220 0098 03B2     		sxth	r3, r0
 221              	.LVL23:
  82:Middlewares/lvgl/src/widgets/../core/lv_obj_style_gen.h **** }
 222              		.loc 2 82 12 view .LVU67
 223              	.LBE77:
 224              	.LBE76:
 523:Middlewares/lvgl/src/widgets/lv_img.c **** 
 225              		.loc 1 523 9 is_stmt 1 view .LVU68
 523:Middlewares/lvgl/src/widgets/lv_img.c **** 
 226              		.loc 1 523 39 is_stmt 0 view .LVU69
 227 009a E78E     		ldrh	r7, [r4, #54]
 523:Middlewares/lvgl/src/widgets/lv_img.c **** 
 228              		.loc 1 523 34 view .LVU70
 229 009c 03FB07F7 		mul	r7, r3, r7
 523:Middlewares/lvgl/src/widgets/lv_img.c **** 
 230              		.loc 1 523 20 view .LVU71
 231 00a0 3F12     		asrs	r7, r7, #8
 232              	.LVL24:
 525:Middlewares/lvgl/src/widgets/lv_img.c ****         if(zoom_final == LV_IMG_ZOOM_NONE) {
 233              		.loc 1 525 9 is_stmt 1 view .LVU72
 525:Middlewares/lvgl/src/widgets/lv_img.c ****         if(zoom_final == LV_IMG_ZOOM_NONE) {
 234              		.loc 1 525 39 is_stmt 0 view .LVU73
 235 00a2 3046     		mov	r0, r6
 236 00a4 FFF7FEFF 		bl	lv_event_get_param
 237              	.LVL25:
 238 00a8 0646     		mov	r6, r0
 239              	.LVL26:
 526:Middlewares/lvgl/src/widgets/lv_img.c ****             if(_lv_area_is_in(clip_area, &obj->coords, 0) == false) {
 240              		.loc 1 526 9 is_stmt 1 view .LVU74
 526:Middlewares/lvgl/src/widgets/lv_img.c ****             if(_lv_area_is_in(clip_area, &obj->coords, 0) == false) {
 241              		.loc 1 526 11 is_stmt 0 view .LVU75
 242 00aa B7F5807F 		cmp	r7, #256
 243 00ae 31D0     		beq	.L26
 244              	.LBB78:
 533:Middlewares/lvgl/src/widgets/lv_img.c ****             _lv_img_buf_get_transformed_area(&a, lv_obj_get_width(obj), lv_obj_get_height(obj), 0, 
 245              		.loc 1 533 13 is_stmt 1 view .LVU76
 534:Middlewares/lvgl/src/widgets/lv_img.c ****             a.x1 += obj->coords.x1;
ARM GAS  /tmp/ccTUwwna.s 			page 24


 246              		.loc 1 534 13 view .LVU77
 247 00b0 2046     		mov	r0, r4
 248              	.LVL27:
 534:Middlewares/lvgl/src/widgets/lv_img.c ****             a.x1 += obj->coords.x1;
 249              		.loc 1 534 13 is_stmt 0 view .LVU78
 250 00b2 FFF7FEFF 		bl	lv_obj_get_width
 251              	.LVL28:
 252 00b6 8046     		mov	r8, r0
 253 00b8 2046     		mov	r0, r4
 254 00ba FFF7FEFF 		bl	lv_obj_get_height
 255              	.LVL29:
 256 00be 0246     		mov	r2, r0
 534:Middlewares/lvgl/src/widgets/lv_img.c ****             a.x1 += obj->coords.x1;
 257              		.loc 1 534 112 view .LVU79
 258 00c0 04F13203 		add	r3, r4, #50
 534:Middlewares/lvgl/src/widgets/lv_img.c ****             a.x1 += obj->coords.x1;
 259              		.loc 1 534 13 view .LVU80
 260 00c4 0193     		str	r3, [sp, #4]
 261 00c6 BFB2     		uxth	r7, r7
 262              	.LVL30:
 534:Middlewares/lvgl/src/widgets/lv_img.c ****             a.x1 += obj->coords.x1;
 263              		.loc 1 534 13 view .LVU81
 264 00c8 0097     		str	r7, [sp]
 265 00ca 0023     		movs	r3, #0
 266 00cc 4146     		mov	r1, r8
 267 00ce 16A8     		add	r0, sp, #88
 268 00d0 FFF7FEFF 		bl	_lv_img_buf_get_transformed_area
 269              	.LVL31:
 535:Middlewares/lvgl/src/widgets/lv_img.c ****             a.y1 += obj->coords.y1;
 270              		.loc 1 535 13 is_stmt 1 view .LVU82
 535:Middlewares/lvgl/src/widgets/lv_img.c ****             a.y1 += obj->coords.y1;
 271              		.loc 1 535 32 is_stmt 0 view .LVU83
 272 00d4 A28A     		ldrh	r2, [r4, #20]
 535:Middlewares/lvgl/src/widgets/lv_img.c ****             a.y1 += obj->coords.y1;
 273              		.loc 1 535 18 view .LVU84
 274 00d6 BDF85830 		ldrh	r3, [sp, #88]
 275 00da 1344     		add	r3, r3, r2
 276 00dc ADF85830 		strh	r3, [sp, #88]	@ movhi
 536:Middlewares/lvgl/src/widgets/lv_img.c ****             a.x2 += obj->coords.x1;
 277              		.loc 1 536 13 is_stmt 1 view .LVU85
 536:Middlewares/lvgl/src/widgets/lv_img.c ****             a.x2 += obj->coords.x1;
 278              		.loc 1 536 32 is_stmt 0 view .LVU86
 279 00e0 E38A     		ldrh	r3, [r4, #22]
 536:Middlewares/lvgl/src/widgets/lv_img.c ****             a.x2 += obj->coords.x1;
 280              		.loc 1 536 18 view .LVU87
 281 00e2 BDF85A10 		ldrh	r1, [sp, #90]
 282 00e6 1944     		add	r1, r1, r3
 283 00e8 ADF85A10 		strh	r1, [sp, #90]	@ movhi
 537:Middlewares/lvgl/src/widgets/lv_img.c ****             a.y2 += obj->coords.y1;
 284              		.loc 1 537 13 is_stmt 1 view .LVU88
 537:Middlewares/lvgl/src/widgets/lv_img.c ****             a.y2 += obj->coords.y1;
 285              		.loc 1 537 18 is_stmt 0 view .LVU89
 286 00ec BDF85C10 		ldrh	r1, [sp, #92]
 287 00f0 0A44     		add	r2, r2, r1
 288 00f2 ADF85C20 		strh	r2, [sp, #92]	@ movhi
 538:Middlewares/lvgl/src/widgets/lv_img.c **** 
 289              		.loc 1 538 13 is_stmt 1 view .LVU90
ARM GAS  /tmp/ccTUwwna.s 			page 25


 538:Middlewares/lvgl/src/widgets/lv_img.c **** 
 290              		.loc 1 538 18 is_stmt 0 view .LVU91
 291 00f6 BDF85E20 		ldrh	r2, [sp, #94]
 292 00fa 1344     		add	r3, r3, r2
 293 00fc ADF85E30 		strh	r3, [sp, #94]	@ movhi
 540:Middlewares/lvgl/src/widgets/lv_img.c ****                 info->res = LV_COVER_RES_NOT_COVER;
 294              		.loc 1 540 13 is_stmt 1 view .LVU92
 540:Middlewares/lvgl/src/widgets/lv_img.c ****                 info->res = LV_COVER_RES_NOT_COVER;
 295              		.loc 1 540 16 is_stmt 0 view .LVU93
 296 0100 0022     		movs	r2, #0
 297 0102 16A9     		add	r1, sp, #88
 298 0104 3046     		mov	r0, r6
 299 0106 FFF7FEFF 		bl	_lv_area_is_in
 300              	.LVL32:
 540:Middlewares/lvgl/src/widgets/lv_img.c ****                 info->res = LV_COVER_RES_NOT_COVER;
 301              		.loc 1 540 15 view .LVU94
 302 010a 0028     		cmp	r0, #0
 303 010c 8BD1     		bne	.L1
 541:Middlewares/lvgl/src/widgets/lv_img.c ****                 return;
 304              		.loc 1 541 17 is_stmt 1 view .LVU95
 541:Middlewares/lvgl/src/widgets/lv_img.c ****                 return;
 305              		.loc 1 541 27 is_stmt 0 view .LVU96
 306 010e 0123     		movs	r3, #1
 307 0110 2B70     		strb	r3, [r5]
 542:Middlewares/lvgl/src/widgets/lv_img.c ****             }
 308              		.loc 1 542 17 is_stmt 1 view .LVU97
 309 0112 88E7     		b	.L1
 310              	.LVL33:
 311              	.L26:
 542:Middlewares/lvgl/src/widgets/lv_img.c ****             }
 312              		.loc 1 542 17 is_stmt 0 view .LVU98
 313              	.LBE78:
 527:Middlewares/lvgl/src/widgets/lv_img.c ****                 info->res = LV_COVER_RES_NOT_COVER;
 314              		.loc 1 527 13 is_stmt 1 view .LVU99
 527:Middlewares/lvgl/src/widgets/lv_img.c ****                 info->res = LV_COVER_RES_NOT_COVER;
 315              		.loc 1 527 16 is_stmt 0 view .LVU100
 316 0114 0022     		movs	r2, #0
 317 0116 04F11401 		add	r1, r4, #20
 318 011a FFF7FEFF 		bl	_lv_area_is_in
 319              	.LVL34:
 527:Middlewares/lvgl/src/widgets/lv_img.c ****                 info->res = LV_COVER_RES_NOT_COVER;
 320              		.loc 1 527 15 view .LVU101
 321 011e 0028     		cmp	r0, #0
 322 0120 81D1     		bne	.L1
 528:Middlewares/lvgl/src/widgets/lv_img.c ****                 return;
 323              		.loc 1 528 17 is_stmt 1 view .LVU102
 528:Middlewares/lvgl/src/widgets/lv_img.c ****                 return;
 324              		.loc 1 528 27 is_stmt 0 view .LVU103
 325 0122 0123     		movs	r3, #1
 326 0124 2B70     		strb	r3, [r5]
 529:Middlewares/lvgl/src/widgets/lv_img.c ****             }
 327              		.loc 1 529 17 is_stmt 1 view .LVU104
 328 0126 7EE7     		b	.L1
 329              	.LVL35:
 330              	.L10:
 529:Middlewares/lvgl/src/widgets/lv_img.c ****             }
 331              		.loc 1 529 17 is_stmt 0 view .LVU105
ARM GAS  /tmp/ccTUwwna.s 			page 26


 332              	.LBE71:
 333              	.LBB79:
 548:Middlewares/lvgl/src/widgets/lv_img.c ****         zoom_final = (zoom_final * img->zoom) >> 8;
 334              		.loc 1 548 9 is_stmt 1 view .LVU106
 335              	.LBB80:
 336              	.LBI80:
  79:Middlewares/lvgl/src/widgets/../core/lv_obj_style_gen.h **** {
 337              		.loc 2 79 26 view .LVU107
 338              	.LBB81:
  81:Middlewares/lvgl/src/widgets/../core/lv_obj_style_gen.h ****     return (lv_coord_t)v.num;
 339              		.loc 2 81 5 view .LVU108
  81:Middlewares/lvgl/src/widgets/../core/lv_obj_style_gen.h ****     return (lv_coord_t)v.num;
 340              		.loc 2 81 26 is_stmt 0 view .LVU109
 341 0128 40F60E02 		movw	r2, #2062
 342 012c 0021     		movs	r1, #0
 343 012e 2046     		mov	r0, r4
 344              	.LVL36:
  81:Middlewares/lvgl/src/widgets/../core/lv_obj_style_gen.h ****     return (lv_coord_t)v.num;
 345              		.loc 2 81 26 view .LVU110
 346 0130 FFF7FEFF 		bl	lv_obj_get_style_prop
 347              	.LVL37:
  82:Middlewares/lvgl/src/widgets/../core/lv_obj_style_gen.h **** }
 348              		.loc 2 82 5 is_stmt 1 view .LVU111
  82:Middlewares/lvgl/src/widgets/../core/lv_obj_style_gen.h **** }
 349              		.loc 2 82 12 is_stmt 0 view .LVU112
 350 0134 03B2     		sxth	r3, r0
 351              	.LVL38:
  82:Middlewares/lvgl/src/widgets/../core/lv_obj_style_gen.h **** }
 352              		.loc 2 82 12 view .LVU113
 353              	.LBE81:
 354              	.LBE80:
 549:Middlewares/lvgl/src/widgets/lv_img.c **** 
 355              		.loc 1 549 9 is_stmt 1 view .LVU114
 549:Middlewares/lvgl/src/widgets/lv_img.c **** 
 356              		.loc 1 549 39 is_stmt 0 view .LVU115
 357 0136 E08E     		ldrh	r0, [r4, #54]
 549:Middlewares/lvgl/src/widgets/lv_img.c **** 
 358              		.loc 1 549 34 view .LVU116
 359 0138 03FB00F0 		mul	r0, r3, r0
 549:Middlewares/lvgl/src/widgets/lv_img.c **** 
 360              		.loc 1 549 20 view .LVU117
 361 013c 0312     		asrs	r3, r0, #8
 362              	.LVL39:
 549:Middlewares/lvgl/src/widgets/lv_img.c **** 
 363              		.loc 1 549 20 view .LVU118
 364 013e 0393     		str	r3, [sp, #12]
 365              	.LVL40:
 551:Middlewares/lvgl/src/widgets/lv_img.c ****         angle_final += img->angle;
 366              		.loc 1 551 9 is_stmt 1 view .LVU119
 367              	.LBB82:
 368              	.LBI82:
  85:Middlewares/lvgl/src/widgets/../core/lv_obj_style_gen.h **** {
 369              		.loc 2 85 26 view .LVU120
 370              	.LBB83:
  87:Middlewares/lvgl/src/widgets/../core/lv_obj_style_gen.h ****     return (lv_coord_t)v.num;
 371              		.loc 2 87 5 view .LVU121
  87:Middlewares/lvgl/src/widgets/../core/lv_obj_style_gen.h ****     return (lv_coord_t)v.num;
ARM GAS  /tmp/ccTUwwna.s 			page 27


 372              		.loc 2 87 26 is_stmt 0 view .LVU122
 373 0140 40F60F02 		movw	r2, #2063
 374 0144 0021     		movs	r1, #0
 375 0146 2046     		mov	r0, r4
 376 0148 FFF7FEFF 		bl	lv_obj_get_style_prop
 377              	.LVL41:
  88:Middlewares/lvgl/src/widgets/../core/lv_obj_style_gen.h **** }
 378              		.loc 2 88 5 is_stmt 1 view .LVU123
  88:Middlewares/lvgl/src/widgets/../core/lv_obj_style_gen.h **** }
 379              		.loc 2 88 12 is_stmt 0 view .LVU124
 380 014c 00B2     		sxth	r0, r0
 381              	.LVL42:
  88:Middlewares/lvgl/src/widgets/../core/lv_obj_style_gen.h **** }
 382              		.loc 2 88 12 view .LVU125
 383              	.LBE83:
 384              	.LBE82:
 552:Middlewares/lvgl/src/widgets/lv_img.c **** 
 385              		.loc 1 552 9 is_stmt 1 view .LVU126
 552:Middlewares/lvgl/src/widgets/lv_img.c **** 
 386              		.loc 1 552 27 is_stmt 0 view .LVU127
 387 014e 238E     		ldrh	r3, [r4, #48]
 552:Middlewares/lvgl/src/widgets/lv_img.c **** 
 388              		.loc 1 552 21 view .LVU128
 389 0150 1A18     		adds	r2, r3, r0
 390 0152 0492     		str	r2, [sp, #16]
 391              	.LVL43:
 554:Middlewares/lvgl/src/widgets/lv_img.c ****         lv_coord_t obj_h = lv_obj_get_height(obj);
 392              		.loc 1 554 9 is_stmt 1 view .LVU129
 554:Middlewares/lvgl/src/widgets/lv_img.c ****         lv_coord_t obj_h = lv_obj_get_height(obj);
 393              		.loc 1 554 28 is_stmt 0 view .LVU130
 394 0154 2046     		mov	r0, r4
 395 0156 FFF7FEFF 		bl	lv_obj_get_width
 396              	.LVL44:
 554:Middlewares/lvgl/src/widgets/lv_img.c ****         lv_coord_t obj_h = lv_obj_get_height(obj);
 397              		.loc 1 554 28 view .LVU131
 398 015a 0746     		mov	r7, r0
 399              	.LVL45:
 555:Middlewares/lvgl/src/widgets/lv_img.c **** 
 400              		.loc 1 555 9 is_stmt 1 view .LVU132
 555:Middlewares/lvgl/src/widgets/lv_img.c **** 
 401              		.loc 1 555 28 is_stmt 0 view .LVU133
 402 015c 2046     		mov	r0, r4
 403 015e FFF7FEFF 		bl	lv_obj_get_height
 404              	.LVL46:
 405 0162 8046     		mov	r8, r0
 406              	.LVL47:
 557:Middlewares/lvgl/src/widgets/lv_img.c ****         lv_coord_t pleft = lv_obj_get_style_pad_left(obj, LV_PART_MAIN) + border_width;
 407              		.loc 1 557 9 is_stmt 1 view .LVU134
 408              	.LBB84:
 409              	.LBI84:
 295:Middlewares/lvgl/src/widgets/../core/lv_obj_style_gen.h **** {
 410              		.loc 2 295 26 view .LVU135
 411              	.LBB85:
 297:Middlewares/lvgl/src/widgets/../core/lv_obj_style_gen.h ****     return (lv_coord_t)v.num;
 412              		.loc 2 297 5 view .LVU136
 297:Middlewares/lvgl/src/widgets/../core/lv_obj_style_gen.h ****     return (lv_coord_t)v.num;
 413              		.loc 2 297 26 is_stmt 0 view .LVU137
ARM GAS  /tmp/ccTUwwna.s 			page 28


 414 0164 41F23202 		movw	r2, #4146
 415 0168 0021     		movs	r1, #0
 416 016a 2046     		mov	r0, r4
 417 016c FFF7FEFF 		bl	lv_obj_get_style_prop
 418              	.LVL48:
 419 0170 8146     		mov	r9, r0
 420              	.LVL49:
 298:Middlewares/lvgl/src/widgets/../core/lv_obj_style_gen.h **** }
 421              		.loc 2 298 5 is_stmt 1 view .LVU138
 298:Middlewares/lvgl/src/widgets/../core/lv_obj_style_gen.h **** }
 422              		.loc 2 298 5 is_stmt 0 view .LVU139
 423              	.LBE85:
 424              	.LBE84:
 558:Middlewares/lvgl/src/widgets/lv_img.c ****         lv_coord_t pright = lv_obj_get_style_pad_right(obj, LV_PART_MAIN) + border_width;
 425              		.loc 1 558 9 is_stmt 1 view .LVU140
 426              	.LBB86:
 427              	.LBI86:
 103:Middlewares/lvgl/src/widgets/../core/lv_obj_style_gen.h **** {
 428              		.loc 2 103 26 view .LVU141
 429              	.LBB87:
 105:Middlewares/lvgl/src/widgets/../core/lv_obj_style_gen.h ****     return (lv_coord_t)v.num;
 430              		.loc 2 105 5 view .LVU142
 105:Middlewares/lvgl/src/widgets/../core/lv_obj_style_gen.h ****     return (lv_coord_t)v.num;
 431              		.loc 2 105 26 is_stmt 0 view .LVU143
 432 0172 41F21202 		movw	r2, #4114
 433 0176 0021     		movs	r1, #0
 434 0178 2046     		mov	r0, r4
 435 017a FFF7FEFF 		bl	lv_obj_get_style_prop
 436              	.LVL50:
 106:Middlewares/lvgl/src/widgets/../core/lv_obj_style_gen.h **** }
 437              		.loc 2 106 5 is_stmt 1 view .LVU144
 106:Middlewares/lvgl/src/widgets/../core/lv_obj_style_gen.h **** }
 438              		.loc 2 106 5 is_stmt 0 view .LVU145
 439              	.LBE87:
 440              	.LBE86:
 558:Middlewares/lvgl/src/widgets/lv_img.c ****         lv_coord_t pright = lv_obj_get_style_pad_right(obj, LV_PART_MAIN) + border_width;
 441              		.loc 1 558 28 view .LVU146
 442 017e 80B2     		uxth	r0, r0
 558:Middlewares/lvgl/src/widgets/lv_img.c ****         lv_coord_t pright = lv_obj_get_style_pad_right(obj, LV_PART_MAIN) + border_width;
 443              		.loc 1 558 73 view .LVU147
 444 0180 1FFA89F9 		uxth	r9, r9
 558:Middlewares/lvgl/src/widgets/lv_img.c ****         lv_coord_t pright = lv_obj_get_style_pad_right(obj, LV_PART_MAIN) + border_width;
 445              		.loc 1 558 73 view .LVU148
 446 0184 4844     		add	r0, r0, r9
 447 0186 1FFA80FA 		uxth	r10, r0
 448 018a CDF814A0 		str	r10, [sp, #20]
 449              	.LVL51:
 559:Middlewares/lvgl/src/widgets/lv_img.c ****         lv_coord_t ptop = lv_obj_get_style_pad_top(obj, LV_PART_MAIN) + border_width;
 450              		.loc 1 559 9 is_stmt 1 view .LVU149
 451              	.LBB88:
 452              	.LBI88:
 109:Middlewares/lvgl/src/widgets/../core/lv_obj_style_gen.h **** {
 453              		.loc 2 109 26 view .LVU150
 454              	.LBB89:
 111:Middlewares/lvgl/src/widgets/../core/lv_obj_style_gen.h ****     return (lv_coord_t)v.num;
 455              		.loc 2 111 5 view .LVU151
 111:Middlewares/lvgl/src/widgets/../core/lv_obj_style_gen.h ****     return (lv_coord_t)v.num;
ARM GAS  /tmp/ccTUwwna.s 			page 29


 456              		.loc 2 111 26 is_stmt 0 view .LVU152
 457 018e 41F21302 		movw	r2, #4115
 458 0192 0021     		movs	r1, #0
 459 0194 2046     		mov	r0, r4
 460 0196 FFF7FEFF 		bl	lv_obj_get_style_prop
 461              	.LVL52:
 112:Middlewares/lvgl/src/widgets/../core/lv_obj_style_gen.h **** }
 462              		.loc 2 112 5 is_stmt 1 view .LVU153
 112:Middlewares/lvgl/src/widgets/../core/lv_obj_style_gen.h **** }
 463              		.loc 2 112 5 is_stmt 0 view .LVU154
 464              	.LBE89:
 465              	.LBE88:
 559:Middlewares/lvgl/src/widgets/lv_img.c ****         lv_coord_t ptop = lv_obj_get_style_pad_top(obj, LV_PART_MAIN) + border_width;
 466              		.loc 1 559 29 view .LVU155
 467 019a 80B2     		uxth	r0, r0
 559:Middlewares/lvgl/src/widgets/lv_img.c ****         lv_coord_t ptop = lv_obj_get_style_pad_top(obj, LV_PART_MAIN) + border_width;
 468              		.loc 1 559 75 view .LVU156
 469 019c 4844     		add	r0, r0, r9
 470 019e 81B2     		uxth	r1, r0
 471 01a0 0691     		str	r1, [sp, #24]
 472              	.LVL53:
 560:Middlewares/lvgl/src/widgets/lv_img.c ****         lv_coord_t pbottom = lv_obj_get_style_pad_bottom(obj, LV_PART_MAIN) + border_width;
 473              		.loc 1 560 9 is_stmt 1 view .LVU157
 474              	.LBB90:
 475              	.LBI90:
  91:Middlewares/lvgl/src/widgets/../core/lv_obj_style_gen.h **** {
 476              		.loc 2 91 26 view .LVU158
 477              	.LBB91:
  93:Middlewares/lvgl/src/widgets/../core/lv_obj_style_gen.h ****     return (lv_coord_t)v.num;
 478              		.loc 2 93 5 view .LVU159
  93:Middlewares/lvgl/src/widgets/../core/lv_obj_style_gen.h ****     return (lv_coord_t)v.num;
 479              		.loc 2 93 26 is_stmt 0 view .LVU160
 480 01a2 41F21002 		movw	r2, #4112
 481 01a6 0021     		movs	r1, #0
 482 01a8 2046     		mov	r0, r4
 483 01aa FFF7FEFF 		bl	lv_obj_get_style_prop
 484              	.LVL54:
  94:Middlewares/lvgl/src/widgets/../core/lv_obj_style_gen.h **** }
 485              		.loc 2 94 5 is_stmt 1 view .LVU161
  94:Middlewares/lvgl/src/widgets/../core/lv_obj_style_gen.h **** }
 486              		.loc 2 94 5 is_stmt 0 view .LVU162
 487              	.LBE91:
 488              	.LBE90:
 560:Middlewares/lvgl/src/widgets/lv_img.c ****         lv_coord_t pbottom = lv_obj_get_style_pad_bottom(obj, LV_PART_MAIN) + border_width;
 489              		.loc 1 560 27 view .LVU163
 490 01ae 80B2     		uxth	r0, r0
 560:Middlewares/lvgl/src/widgets/lv_img.c ****         lv_coord_t pbottom = lv_obj_get_style_pad_bottom(obj, LV_PART_MAIN) + border_width;
 491              		.loc 1 560 71 view .LVU164
 492 01b0 4844     		add	r0, r0, r9
 493 01b2 1FFA80FB 		uxth	fp, r0
 494              	.LVL55:
 561:Middlewares/lvgl/src/widgets/lv_img.c **** 
 495              		.loc 1 561 9 is_stmt 1 view .LVU165
 496              	.LBB92:
 497              	.LBI92:
  97:Middlewares/lvgl/src/widgets/../core/lv_obj_style_gen.h **** {
 498              		.loc 2 97 26 view .LVU166
ARM GAS  /tmp/ccTUwwna.s 			page 30


 499              	.LBB93:
  99:Middlewares/lvgl/src/widgets/../core/lv_obj_style_gen.h ****     return (lv_coord_t)v.num;
 500              		.loc 2 99 5 view .LVU167
  99:Middlewares/lvgl/src/widgets/../core/lv_obj_style_gen.h ****     return (lv_coord_t)v.num;
 501              		.loc 2 99 26 is_stmt 0 view .LVU168
 502 01b6 41F21102 		movw	r2, #4113
 503 01ba 0021     		movs	r1, #0
 504 01bc 2046     		mov	r0, r4
 505 01be FFF7FEFF 		bl	lv_obj_get_style_prop
 506              	.LVL56:
 100:Middlewares/lvgl/src/widgets/../core/lv_obj_style_gen.h **** }
 507              		.loc 2 100 5 is_stmt 1 view .LVU169
 100:Middlewares/lvgl/src/widgets/../core/lv_obj_style_gen.h **** }
 508              		.loc 2 100 5 is_stmt 0 view .LVU170
 509              	.LBE93:
 510              	.LBE92:
 561:Middlewares/lvgl/src/widgets/lv_img.c **** 
 511              		.loc 1 561 30 view .LVU171
 512 01c2 80B2     		uxth	r0, r0
 561:Middlewares/lvgl/src/widgets/lv_img.c **** 
 513              		.loc 1 561 77 view .LVU172
 514 01c4 8144     		add	r9, r9, r0
 515              	.LVL57:
 561:Middlewares/lvgl/src/widgets/lv_img.c **** 
 516              		.loc 1 561 77 view .LVU173
 517 01c6 1FFA89F1 		uxth	r1, r9
 518 01ca 0791     		str	r1, [sp, #28]
 519              	.LVL58:
 563:Middlewares/lvgl/src/widgets/lv_img.c ****         bg_pivot.x = img->pivot.x + pleft;
 520              		.loc 1 563 9 is_stmt 1 view .LVU174
 564:Middlewares/lvgl/src/widgets/lv_img.c ****         bg_pivot.y = img->pivot.y + ptop;
 521              		.loc 1 564 9 view .LVU175
 564:Middlewares/lvgl/src/widgets/lv_img.c ****         bg_pivot.y = img->pivot.y + ptop;
 522              		.loc 1 564 32 is_stmt 0 view .LVU176
 523 01cc 638E     		ldrh	r3, [r4, #50]
 564:Middlewares/lvgl/src/widgets/lv_img.c ****         bg_pivot.y = img->pivot.y + ptop;
 524              		.loc 1 564 35 view .LVU177
 525 01ce 5344     		add	r3, r3, r10
 564:Middlewares/lvgl/src/widgets/lv_img.c ****         bg_pivot.y = img->pivot.y + ptop;
 526              		.loc 1 564 20 view .LVU178
 527 01d0 ADF82C30 		strh	r3, [sp, #44]	@ movhi
 565:Middlewares/lvgl/src/widgets/lv_img.c ****         lv_area_t bg_coords;
 528              		.loc 1 565 9 is_stmt 1 view .LVU179
 565:Middlewares/lvgl/src/widgets/lv_img.c ****         lv_area_t bg_coords;
 529              		.loc 1 565 32 is_stmt 0 view .LVU180
 530 01d4 A38E     		ldrh	r3, [r4, #52]
 565:Middlewares/lvgl/src/widgets/lv_img.c ****         lv_area_t bg_coords;
 531              		.loc 1 565 35 view .LVU181
 532 01d6 5B44     		add	r3, r3, fp
 565:Middlewares/lvgl/src/widgets/lv_img.c ****         lv_area_t bg_coords;
 533              		.loc 1 565 20 view .LVU182
 534 01d8 ADF82E30 		strh	r3, [sp, #46]	@ movhi
 566:Middlewares/lvgl/src/widgets/lv_img.c ****         _lv_img_buf_get_transformed_area(&bg_coords, obj_w, obj_h,
 535              		.loc 1 566 9 is_stmt 1 view .LVU183
 567:Middlewares/lvgl/src/widgets/lv_img.c ****                 angle_final, zoom_final, &bg_pivot);
 536              		.loc 1 567 9 view .LVU184
 537 01dc BDF80C30 		ldrh	r3, [sp, #12]
ARM GAS  /tmp/ccTUwwna.s 			page 31


 538 01e0 1946     		mov	r1, r3
 539 01e2 0993     		str	r3, [sp, #36]
 540 01e4 0BAB     		add	r3, sp, #44
 541 01e6 0193     		str	r3, [sp, #4]
 542 01e8 0091     		str	r1, [sp]
 543 01ea BDF91030 		ldrsh	r3, [sp, #16]
 544 01ee 4246     		mov	r2, r8
 545 01f0 3946     		mov	r1, r7
 546 01f2 0CA8     		add	r0, sp, #48
 547 01f4 FFF7FEFF 		bl	_lv_img_buf_get_transformed_area
 548              	.LVL59:
 571:Middlewares/lvgl/src/widgets/lv_img.c ****         bg_coords.y1 += obj->coords.y1;
 549              		.loc 1 571 9 view .LVU185
 571:Middlewares/lvgl/src/widgets/lv_img.c ****         bg_coords.y1 += obj->coords.y1;
 550              		.loc 1 571 36 is_stmt 0 view .LVU186
 551 01f8 B4F91480 		ldrsh	r8, [r4, #20]
 552              	.LVL60:
 571:Middlewares/lvgl/src/widgets/lv_img.c ****         bg_coords.y1 += obj->coords.y1;
 553              		.loc 1 571 36 view .LVU187
 554 01fc 1FFA88F2 		uxth	r2, r8
 571:Middlewares/lvgl/src/widgets/lv_img.c ****         bg_coords.y1 += obj->coords.y1;
 555              		.loc 1 571 22 view .LVU188
 556 0200 BDF83000 		ldrh	r0, [sp, #48]
 557 0204 1044     		add	r0, r0, r2
 558 0206 00B2     		sxth	r0, r0
 559 0208 ADF83000 		strh	r0, [sp, #48]	@ movhi
 572:Middlewares/lvgl/src/widgets/lv_img.c ****         bg_coords.x2 += obj->coords.x1;
 560              		.loc 1 572 9 is_stmt 1 view .LVU189
 572:Middlewares/lvgl/src/widgets/lv_img.c ****         bg_coords.x2 += obj->coords.x1;
 561              		.loc 1 572 36 is_stmt 0 view .LVU190
 562 020c B4F91670 		ldrsh	r7, [r4, #22]
 563              	.LVL61:
 572:Middlewares/lvgl/src/widgets/lv_img.c ****         bg_coords.x2 += obj->coords.x1;
 564              		.loc 1 572 36 view .LVU191
 565 0210 BBB2     		uxth	r3, r7
 572:Middlewares/lvgl/src/widgets/lv_img.c ****         bg_coords.x2 += obj->coords.x1;
 566              		.loc 1 572 22 view .LVU192
 567 0212 BDF83210 		ldrh	r1, [sp, #50]
 568 0216 1944     		add	r1, r1, r3
 569 0218 09B2     		sxth	r1, r1
 570 021a ADF83210 		strh	r1, [sp, #50]	@ movhi
 573:Middlewares/lvgl/src/widgets/lv_img.c ****         bg_coords.y2 += obj->coords.y1;
 571              		.loc 1 573 9 is_stmt 1 view .LVU193
 573:Middlewares/lvgl/src/widgets/lv_img.c ****         bg_coords.y2 += obj->coords.y1;
 572              		.loc 1 573 22 is_stmt 0 view .LVU194
 573 021e BDF834C0 		ldrh	ip, [sp, #52]
 574 0222 6244     		add	r2, r2, ip
 575 0224 12B2     		sxth	r2, r2
 576 0226 ADF83420 		strh	r2, [sp, #52]	@ movhi
 574:Middlewares/lvgl/src/widgets/lv_img.c **** 
 577              		.loc 1 574 9 is_stmt 1 view .LVU195
 574:Middlewares/lvgl/src/widgets/lv_img.c **** 
 578              		.loc 1 574 22 is_stmt 0 view .LVU196
 579 022a BDF836C0 		ldrh	ip, [sp, #54]
 580 022e 6344     		add	r3, r3, ip
 581 0230 1BB2     		sxth	r3, r3
 582 0232 ADF83630 		strh	r3, [sp, #54]	@ movhi
ARM GAS  /tmp/ccTUwwna.s 			page 32


 576:Middlewares/lvgl/src/widgets/lv_img.c ****         lv_area_copy(&ori_coords, &obj->coords);
 583              		.loc 1 576 9 is_stmt 1 view .LVU197
 577:Middlewares/lvgl/src/widgets/lv_img.c ****         lv_area_copy(&obj->coords, &bg_coords);
 584              		.loc 1 577 9 view .LVU198
 585              	.LVL62:
 586              	.LBB94:
 587              	.LBI94:
 588              		.file 3 "Middlewares/lvgl/src/widgets/../core/../misc/../font/../misc/lv_area.h"
   1:Middlewares/lvgl/src/widgets/../core/../misc/../font/../misc/lv_area.h **** /**
   2:Middlewares/lvgl/src/widgets/../core/../misc/../font/../misc/lv_area.h ****  * @file lv_area.h
   3:Middlewares/lvgl/src/widgets/../core/../misc/../font/../misc/lv_area.h ****  *
   4:Middlewares/lvgl/src/widgets/../core/../misc/../font/../misc/lv_area.h ****  */
   5:Middlewares/lvgl/src/widgets/../core/../misc/../font/../misc/lv_area.h **** 
   6:Middlewares/lvgl/src/widgets/../core/../misc/../font/../misc/lv_area.h **** #ifndef LV_AREA_H
   7:Middlewares/lvgl/src/widgets/../core/../misc/../font/../misc/lv_area.h **** #define LV_AREA_H
   8:Middlewares/lvgl/src/widgets/../core/../misc/../font/../misc/lv_area.h **** 
   9:Middlewares/lvgl/src/widgets/../core/../misc/../font/../misc/lv_area.h **** #ifdef __cplusplus
  10:Middlewares/lvgl/src/widgets/../core/../misc/../font/../misc/lv_area.h **** extern "C" {
  11:Middlewares/lvgl/src/widgets/../core/../misc/../font/../misc/lv_area.h **** #endif
  12:Middlewares/lvgl/src/widgets/../core/../misc/../font/../misc/lv_area.h **** 
  13:Middlewares/lvgl/src/widgets/../core/../misc/../font/../misc/lv_area.h **** /*********************
  14:Middlewares/lvgl/src/widgets/../core/../misc/../font/../misc/lv_area.h ****  *      INCLUDES
  15:Middlewares/lvgl/src/widgets/../core/../misc/../font/../misc/lv_area.h ****  *********************/
  16:Middlewares/lvgl/src/widgets/../core/../misc/../font/../misc/lv_area.h **** #include "../lv_conf_internal.h"
  17:Middlewares/lvgl/src/widgets/../core/../misc/../font/../misc/lv_area.h **** #include <string.h>
  18:Middlewares/lvgl/src/widgets/../core/../misc/../font/../misc/lv_area.h **** #include <stdbool.h>
  19:Middlewares/lvgl/src/widgets/../core/../misc/../font/../misc/lv_area.h **** #include <stdint.h>
  20:Middlewares/lvgl/src/widgets/../core/../misc/../font/../misc/lv_area.h **** 
  21:Middlewares/lvgl/src/widgets/../core/../misc/../font/../misc/lv_area.h **** /*********************
  22:Middlewares/lvgl/src/widgets/../core/../misc/../font/../misc/lv_area.h ****  *      DEFINES
  23:Middlewares/lvgl/src/widgets/../core/../misc/../font/../misc/lv_area.h ****  *********************/
  24:Middlewares/lvgl/src/widgets/../core/../misc/../font/../misc/lv_area.h **** 
  25:Middlewares/lvgl/src/widgets/../core/../misc/../font/../misc/lv_area.h **** #define _LV_COORD_MAX_REDUCE    8192
  26:Middlewares/lvgl/src/widgets/../core/../misc/../font/../misc/lv_area.h **** 
  27:Middlewares/lvgl/src/widgets/../core/../misc/../font/../misc/lv_area.h **** #if LV_USE_LARGE_COORD
  28:Middlewares/lvgl/src/widgets/../core/../misc/../font/../misc/lv_area.h **** typedef int32_t lv_coord_t;
  29:Middlewares/lvgl/src/widgets/../core/../misc/../font/../misc/lv_area.h **** #else
  30:Middlewares/lvgl/src/widgets/../core/../misc/../font/../misc/lv_area.h **** typedef int16_t lv_coord_t;
  31:Middlewares/lvgl/src/widgets/../core/../misc/../font/../misc/lv_area.h **** #endif
  32:Middlewares/lvgl/src/widgets/../core/../misc/../font/../misc/lv_area.h **** 
  33:Middlewares/lvgl/src/widgets/../core/../misc/../font/../misc/lv_area.h **** /*To allow some special values in the end reduce the max value*/
  34:Middlewares/lvgl/src/widgets/../core/../misc/../font/../misc/lv_area.h **** #define LV_COORD_MAX ((lv_coord_t)((uint32_t)((uint32_t)1 << (8 * sizeof(lv_coord_t) - 1)) - _LV_CO
  35:Middlewares/lvgl/src/widgets/../core/../misc/../font/../misc/lv_area.h **** #define LV_COORD_MIN (-LV_COORD_MAX)
  36:Middlewares/lvgl/src/widgets/../core/../misc/../font/../misc/lv_area.h **** 
  37:Middlewares/lvgl/src/widgets/../core/../misc/../font/../misc/lv_area.h **** LV_EXPORT_CONST_INT(LV_COORD_MAX);
  38:Middlewares/lvgl/src/widgets/../core/../misc/../font/../misc/lv_area.h **** LV_EXPORT_CONST_INT(LV_COORD_MIN);
  39:Middlewares/lvgl/src/widgets/../core/../misc/../font/../misc/lv_area.h **** 
  40:Middlewares/lvgl/src/widgets/../core/../misc/../font/../misc/lv_area.h **** /**********************
  41:Middlewares/lvgl/src/widgets/../core/../misc/../font/../misc/lv_area.h ****  *      TYPEDEFS
  42:Middlewares/lvgl/src/widgets/../core/../misc/../font/../misc/lv_area.h ****  **********************/
  43:Middlewares/lvgl/src/widgets/../core/../misc/../font/../misc/lv_area.h **** 
  44:Middlewares/lvgl/src/widgets/../core/../misc/../font/../misc/lv_area.h **** /**
  45:Middlewares/lvgl/src/widgets/../core/../misc/../font/../misc/lv_area.h ****  * Represents a point on the screen.
  46:Middlewares/lvgl/src/widgets/../core/../misc/../font/../misc/lv_area.h ****  */
  47:Middlewares/lvgl/src/widgets/../core/../misc/../font/../misc/lv_area.h **** typedef struct {
  48:Middlewares/lvgl/src/widgets/../core/../misc/../font/../misc/lv_area.h ****     lv_coord_t x;
  49:Middlewares/lvgl/src/widgets/../core/../misc/../font/../misc/lv_area.h ****     lv_coord_t y;
ARM GAS  /tmp/ccTUwwna.s 			page 33


  50:Middlewares/lvgl/src/widgets/../core/../misc/../font/../misc/lv_area.h **** } lv_point_t;
  51:Middlewares/lvgl/src/widgets/../core/../misc/../font/../misc/lv_area.h **** 
  52:Middlewares/lvgl/src/widgets/../core/../misc/../font/../misc/lv_area.h **** /** Represents an area of the screen.*/
  53:Middlewares/lvgl/src/widgets/../core/../misc/../font/../misc/lv_area.h **** typedef struct {
  54:Middlewares/lvgl/src/widgets/../core/../misc/../font/../misc/lv_area.h ****     lv_coord_t x1;
  55:Middlewares/lvgl/src/widgets/../core/../misc/../font/../misc/lv_area.h ****     lv_coord_t y1;
  56:Middlewares/lvgl/src/widgets/../core/../misc/../font/../misc/lv_area.h ****     lv_coord_t x2;
  57:Middlewares/lvgl/src/widgets/../core/../misc/../font/../misc/lv_area.h ****     lv_coord_t y2;
  58:Middlewares/lvgl/src/widgets/../core/../misc/../font/../misc/lv_area.h **** } lv_area_t;
  59:Middlewares/lvgl/src/widgets/../core/../misc/../font/../misc/lv_area.h **** 
  60:Middlewares/lvgl/src/widgets/../core/../misc/../font/../misc/lv_area.h **** /** Alignments*/
  61:Middlewares/lvgl/src/widgets/../core/../misc/../font/../misc/lv_area.h **** enum {
  62:Middlewares/lvgl/src/widgets/../core/../misc/../font/../misc/lv_area.h ****     LV_ALIGN_DEFAULT = 0,
  63:Middlewares/lvgl/src/widgets/../core/../misc/../font/../misc/lv_area.h ****     LV_ALIGN_TOP_LEFT,
  64:Middlewares/lvgl/src/widgets/../core/../misc/../font/../misc/lv_area.h ****     LV_ALIGN_TOP_MID,
  65:Middlewares/lvgl/src/widgets/../core/../misc/../font/../misc/lv_area.h ****     LV_ALIGN_TOP_RIGHT,
  66:Middlewares/lvgl/src/widgets/../core/../misc/../font/../misc/lv_area.h ****     LV_ALIGN_BOTTOM_LEFT,
  67:Middlewares/lvgl/src/widgets/../core/../misc/../font/../misc/lv_area.h ****     LV_ALIGN_BOTTOM_MID,
  68:Middlewares/lvgl/src/widgets/../core/../misc/../font/../misc/lv_area.h ****     LV_ALIGN_BOTTOM_RIGHT,
  69:Middlewares/lvgl/src/widgets/../core/../misc/../font/../misc/lv_area.h ****     LV_ALIGN_LEFT_MID,
  70:Middlewares/lvgl/src/widgets/../core/../misc/../font/../misc/lv_area.h ****     LV_ALIGN_RIGHT_MID,
  71:Middlewares/lvgl/src/widgets/../core/../misc/../font/../misc/lv_area.h ****     LV_ALIGN_CENTER,
  72:Middlewares/lvgl/src/widgets/../core/../misc/../font/../misc/lv_area.h **** 
  73:Middlewares/lvgl/src/widgets/../core/../misc/../font/../misc/lv_area.h ****     LV_ALIGN_OUT_TOP_LEFT,
  74:Middlewares/lvgl/src/widgets/../core/../misc/../font/../misc/lv_area.h ****     LV_ALIGN_OUT_TOP_MID,
  75:Middlewares/lvgl/src/widgets/../core/../misc/../font/../misc/lv_area.h ****     LV_ALIGN_OUT_TOP_RIGHT,
  76:Middlewares/lvgl/src/widgets/../core/../misc/../font/../misc/lv_area.h ****     LV_ALIGN_OUT_BOTTOM_LEFT,
  77:Middlewares/lvgl/src/widgets/../core/../misc/../font/../misc/lv_area.h ****     LV_ALIGN_OUT_BOTTOM_MID,
  78:Middlewares/lvgl/src/widgets/../core/../misc/../font/../misc/lv_area.h ****     LV_ALIGN_OUT_BOTTOM_RIGHT,
  79:Middlewares/lvgl/src/widgets/../core/../misc/../font/../misc/lv_area.h ****     LV_ALIGN_OUT_LEFT_TOP,
  80:Middlewares/lvgl/src/widgets/../core/../misc/../font/../misc/lv_area.h ****     LV_ALIGN_OUT_LEFT_MID,
  81:Middlewares/lvgl/src/widgets/../core/../misc/../font/../misc/lv_area.h ****     LV_ALIGN_OUT_LEFT_BOTTOM,
  82:Middlewares/lvgl/src/widgets/../core/../misc/../font/../misc/lv_area.h ****     LV_ALIGN_OUT_RIGHT_TOP,
  83:Middlewares/lvgl/src/widgets/../core/../misc/../font/../misc/lv_area.h ****     LV_ALIGN_OUT_RIGHT_MID,
  84:Middlewares/lvgl/src/widgets/../core/../misc/../font/../misc/lv_area.h ****     LV_ALIGN_OUT_RIGHT_BOTTOM,
  85:Middlewares/lvgl/src/widgets/../core/../misc/../font/../misc/lv_area.h **** };
  86:Middlewares/lvgl/src/widgets/../core/../misc/../font/../misc/lv_area.h **** typedef uint8_t lv_align_t;
  87:Middlewares/lvgl/src/widgets/../core/../misc/../font/../misc/lv_area.h **** 
  88:Middlewares/lvgl/src/widgets/../core/../misc/../font/../misc/lv_area.h **** enum {
  89:Middlewares/lvgl/src/widgets/../core/../misc/../font/../misc/lv_area.h ****     LV_DIR_NONE     = 0x00,
  90:Middlewares/lvgl/src/widgets/../core/../misc/../font/../misc/lv_area.h ****     LV_DIR_LEFT     = (1 << 0),
  91:Middlewares/lvgl/src/widgets/../core/../misc/../font/../misc/lv_area.h ****     LV_DIR_RIGHT    = (1 << 1),
  92:Middlewares/lvgl/src/widgets/../core/../misc/../font/../misc/lv_area.h ****     LV_DIR_TOP      = (1 << 2),
  93:Middlewares/lvgl/src/widgets/../core/../misc/../font/../misc/lv_area.h ****     LV_DIR_BOTTOM   = (1 << 3),
  94:Middlewares/lvgl/src/widgets/../core/../misc/../font/../misc/lv_area.h ****     LV_DIR_HOR      = LV_DIR_LEFT | LV_DIR_RIGHT,
  95:Middlewares/lvgl/src/widgets/../core/../misc/../font/../misc/lv_area.h ****     LV_DIR_VER      = LV_DIR_TOP | LV_DIR_BOTTOM,
  96:Middlewares/lvgl/src/widgets/../core/../misc/../font/../misc/lv_area.h ****     LV_DIR_ALL      = LV_DIR_HOR | LV_DIR_VER,
  97:Middlewares/lvgl/src/widgets/../core/../misc/../font/../misc/lv_area.h **** };
  98:Middlewares/lvgl/src/widgets/../core/../misc/../font/../misc/lv_area.h **** 
  99:Middlewares/lvgl/src/widgets/../core/../misc/../font/../misc/lv_area.h **** typedef uint8_t lv_dir_t;
 100:Middlewares/lvgl/src/widgets/../core/../misc/../font/../misc/lv_area.h **** 
 101:Middlewares/lvgl/src/widgets/../core/../misc/../font/../misc/lv_area.h **** /**********************
 102:Middlewares/lvgl/src/widgets/../core/../misc/../font/../misc/lv_area.h ****  * GLOBAL PROTOTYPES
 103:Middlewares/lvgl/src/widgets/../core/../misc/../font/../misc/lv_area.h ****  **********************/
 104:Middlewares/lvgl/src/widgets/../core/../misc/../font/../misc/lv_area.h **** 
 105:Middlewares/lvgl/src/widgets/../core/../misc/../font/../misc/lv_area.h **** /**
 106:Middlewares/lvgl/src/widgets/../core/../misc/../font/../misc/lv_area.h ****  * Initialize an area
ARM GAS  /tmp/ccTUwwna.s 			page 34


 107:Middlewares/lvgl/src/widgets/../core/../misc/../font/../misc/lv_area.h ****  * @param area_p pointer to an area
 108:Middlewares/lvgl/src/widgets/../core/../misc/../font/../misc/lv_area.h ****  * @param x1 left coordinate of the area
 109:Middlewares/lvgl/src/widgets/../core/../misc/../font/../misc/lv_area.h ****  * @param y1 top coordinate of the area
 110:Middlewares/lvgl/src/widgets/../core/../misc/../font/../misc/lv_area.h ****  * @param x2 right coordinate of the area
 111:Middlewares/lvgl/src/widgets/../core/../misc/../font/../misc/lv_area.h ****  * @param y2 bottom coordinate of the area
 112:Middlewares/lvgl/src/widgets/../core/../misc/../font/../misc/lv_area.h ****  */
 113:Middlewares/lvgl/src/widgets/../core/../misc/../font/../misc/lv_area.h **** void lv_area_set(lv_area_t * area_p, lv_coord_t x1, lv_coord_t y1, lv_coord_t x2, lv_coord_t y2);
 114:Middlewares/lvgl/src/widgets/../core/../misc/../font/../misc/lv_area.h **** 
 115:Middlewares/lvgl/src/widgets/../core/../misc/../font/../misc/lv_area.h **** /**
 116:Middlewares/lvgl/src/widgets/../core/../misc/../font/../misc/lv_area.h ****  * Copy an area
 117:Middlewares/lvgl/src/widgets/../core/../misc/../font/../misc/lv_area.h ****  * @param dest pointer to the destination area
 118:Middlewares/lvgl/src/widgets/../core/../misc/../font/../misc/lv_area.h ****  * @param src pointer to the source area
 119:Middlewares/lvgl/src/widgets/../core/../misc/../font/../misc/lv_area.h ****  */
 120:Middlewares/lvgl/src/widgets/../core/../misc/../font/../misc/lv_area.h **** inline static void lv_area_copy(lv_area_t * dest, const lv_area_t * src)
 589              		.loc 3 120 20 view .LVU199
 590              	.LBB95:
 121:Middlewares/lvgl/src/widgets/../core/../misc/../font/../misc/lv_area.h **** {
 122:Middlewares/lvgl/src/widgets/../core/../misc/../font/../misc/lv_area.h ****     dest->x1 = src->x1;
 591              		.loc 3 122 5 view .LVU200
 592              		.loc 3 122 14 is_stmt 0 view .LVU201
 593 0236 ADF83880 		strh	r8, [sp, #56]	@ movhi
 123:Middlewares/lvgl/src/widgets/../core/../misc/../font/../misc/lv_area.h ****     dest->y1 = src->y1;
 594              		.loc 3 123 5 is_stmt 1 view .LVU202
 595              		.loc 3 123 14 is_stmt 0 view .LVU203
 596 023a ADF83A70 		strh	r7, [sp, #58]	@ movhi
 124:Middlewares/lvgl/src/widgets/../core/../misc/../font/../misc/lv_area.h ****     dest->x2 = src->x2;
 597              		.loc 3 124 5 is_stmt 1 view .LVU204
 598              		.loc 3 124 19 is_stmt 0 view .LVU205
 599 023e B4F918A0 		ldrsh	r10, [r4, #24]
 600              	.LVL63:
 601              		.loc 3 124 14 view .LVU206
 602 0242 ADF83CA0 		strh	r10, [sp, #60]	@ movhi
 125:Middlewares/lvgl/src/widgets/../core/../misc/../font/../misc/lv_area.h ****     dest->y2 = src->y2;
 603              		.loc 3 125 5 is_stmt 1 view .LVU207
 604              		.loc 3 125 19 is_stmt 0 view .LVU208
 605 0246 B4F91A90 		ldrsh	r9, [r4, #26]
 606              		.loc 3 125 14 view .LVU209
 607 024a ADF83E90 		strh	r9, [sp, #62]	@ movhi
 608              	.LVL64:
 609              		.loc 3 125 14 view .LVU210
 610              	.LBE95:
 611              	.LBE94:
 578:Middlewares/lvgl/src/widgets/lv_img.c **** 
 612              		.loc 1 578 9 is_stmt 1 view .LVU211
 613 024e 04F1140C 		add	ip, r4, #20
 614 0252 CDF820C0 		str	ip, [sp, #32]
 615              	.LVL65:
 616              	.LBB96:
 617              	.LBI96:
 120:Middlewares/lvgl/src/widgets/../core/../misc/../font/../misc/lv_area.h **** {
 618              		.loc 3 120 20 view .LVU212
 619              	.LBB97:
 122:Middlewares/lvgl/src/widgets/../core/../misc/../font/../misc/lv_area.h ****     dest->y1 = src->y1;
 620              		.loc 3 122 5 view .LVU213
 122:Middlewares/lvgl/src/widgets/../core/../misc/../font/../misc/lv_area.h ****     dest->y1 = src->y1;
 621              		.loc 3 122 14 is_stmt 0 view .LVU214
 622 0256 A082     		strh	r0, [r4, #20]	@ movhi
ARM GAS  /tmp/ccTUwwna.s 			page 35


 123:Middlewares/lvgl/src/widgets/../core/../misc/../font/../misc/lv_area.h ****     dest->x2 = src->x2;
 623              		.loc 3 123 5 is_stmt 1 view .LVU215
 123:Middlewares/lvgl/src/widgets/../core/../misc/../font/../misc/lv_area.h ****     dest->x2 = src->x2;
 624              		.loc 3 123 14 is_stmt 0 view .LVU216
 625 0258 E182     		strh	r1, [r4, #22]	@ movhi
 124:Middlewares/lvgl/src/widgets/../core/../misc/../font/../misc/lv_area.h ****     dest->y2 = src->y2;
 626              		.loc 3 124 5 is_stmt 1 view .LVU217
 124:Middlewares/lvgl/src/widgets/../core/../misc/../font/../misc/lv_area.h ****     dest->y2 = src->y2;
 627              		.loc 3 124 14 is_stmt 0 view .LVU218
 628 025a 2283     		strh	r2, [r4, #24]	@ movhi
 629              		.loc 3 125 5 is_stmt 1 view .LVU219
 630              		.loc 3 125 14 is_stmt 0 view .LVU220
 631 025c 6383     		strh	r3, [r4, #26]	@ movhi
 632              	.LVL66:
 633              		.loc 3 125 14 view .LVU221
 634              	.LBE97:
 635              	.LBE96:
 580:Middlewares/lvgl/src/widgets/lv_img.c ****         if(res != LV_RES_OK) return;
 636              		.loc 1 580 9 is_stmt 1 view .LVU222
 580:Middlewares/lvgl/src/widgets/lv_img.c ****         if(res != LV_RES_OK) return;
 637              		.loc 1 580 24 is_stmt 0 view .LVU223
 638 025e 3146     		mov	r1, r6
 639 0260 7A48     		ldr	r0, .L30
 640 0262 FFF7FEFF 		bl	lv_obj_event_base
 641              	.LVL67:
 581:Middlewares/lvgl/src/widgets/lv_img.c **** 
 642              		.loc 1 581 9 is_stmt 1 view .LVU224
 581:Middlewares/lvgl/src/widgets/lv_img.c **** 
 643              		.loc 1 581 11 is_stmt 0 view .LVU225
 644 0266 0128     		cmp	r0, #1
 645 0268 7FF4DDAE 		bne	.L1
 583:Middlewares/lvgl/src/widgets/lv_img.c **** 
 646              		.loc 1 583 9 is_stmt 1 view .LVU226
 647              	.LVL68:
 648              	.LBB98:
 649              	.LBI98:
 120:Middlewares/lvgl/src/widgets/../core/../misc/../font/../misc/lv_area.h **** {
 650              		.loc 3 120 20 view .LVU227
 651              	.LBB99:
 122:Middlewares/lvgl/src/widgets/../core/../misc/../font/../misc/lv_area.h ****     dest->y1 = src->y1;
 652              		.loc 3 122 5 view .LVU228
 122:Middlewares/lvgl/src/widgets/../core/../misc/../font/../misc/lv_area.h ****     dest->y1 = src->y1;
 653              		.loc 3 122 14 is_stmt 0 view .LVU229
 654 026c A4F81480 		strh	r8, [r4, #20]	@ movhi
 123:Middlewares/lvgl/src/widgets/../core/../misc/../font/../misc/lv_area.h ****     dest->x2 = src->x2;
 655              		.loc 3 123 5 is_stmt 1 view .LVU230
 123:Middlewares/lvgl/src/widgets/../core/../misc/../font/../misc/lv_area.h ****     dest->x2 = src->x2;
 656              		.loc 3 123 14 is_stmt 0 view .LVU231
 657 0270 E782     		strh	r7, [r4, #22]	@ movhi
 124:Middlewares/lvgl/src/widgets/../core/../misc/../font/../misc/lv_area.h ****     dest->y2 = src->y2;
 658              		.loc 3 124 5 is_stmt 1 view .LVU232
 124:Middlewares/lvgl/src/widgets/../core/../misc/../font/../misc/lv_area.h ****     dest->y2 = src->y2;
 659              		.loc 3 124 14 is_stmt 0 view .LVU233
 660 0272 A4F818A0 		strh	r10, [r4, #24]	@ movhi
 661              		.loc 3 125 5 is_stmt 1 view .LVU234
 662              		.loc 3 125 14 is_stmt 0 view .LVU235
 663 0276 A4F81A90 		strh	r9, [r4, #26]	@ movhi
ARM GAS  /tmp/ccTUwwna.s 			page 36


 664              	.LVL69:
 665              		.loc 3 125 14 view .LVU236
 666              	.LBE99:
 667              	.LBE98:
 585:Middlewares/lvgl/src/widgets/lv_img.c ****             if(img->h == 0 || img->w == 0) return;
 668              		.loc 1 585 9 is_stmt 1 view .LVU237
 585:Middlewares/lvgl/src/widgets/lv_img.c ****             if(img->h == 0 || img->w == 0) return;
 669              		.loc 1 585 11 is_stmt 0 view .LVU238
 670 027a 152D     		cmp	r5, #21
 671 027c 7FF4D3AE 		bne	.L1
 672              	.LBB100:
 586:Middlewares/lvgl/src/widgets/lv_img.c ****             if(zoom_final == 0) return;
 673              		.loc 1 586 13 is_stmt 1 view .LVU239
 586:Middlewares/lvgl/src/widgets/lv_img.c ****             if(zoom_final == 0) return;
 674              		.loc 1 586 19 is_stmt 0 view .LVU240
 675 0280 B4F92E30 		ldrsh	r3, [r4, #46]
 586:Middlewares/lvgl/src/widgets/lv_img.c ****             if(zoom_final == 0) return;
 676              		.loc 1 586 15 view .LVU241
 677 0284 002B     		cmp	r3, #0
 678 0286 3FF4CEAE 		beq	.L1
 586:Middlewares/lvgl/src/widgets/lv_img.c ****             if(zoom_final == 0) return;
 679              		.loc 1 586 34 discriminator 2 view .LVU242
 680 028a B4F92C30 		ldrsh	r3, [r4, #44]
 586:Middlewares/lvgl/src/widgets/lv_img.c ****             if(zoom_final == 0) return;
 681              		.loc 1 586 28 discriminator 2 view .LVU243
 682 028e 002B     		cmp	r3, #0
 683 0290 3FF4C9AE 		beq	.L1
 587:Middlewares/lvgl/src/widgets/lv_img.c **** 
 684              		.loc 1 587 13 is_stmt 1 view .LVU244
 587:Middlewares/lvgl/src/widgets/lv_img.c **** 
 685              		.loc 1 587 15 is_stmt 0 view .LVU245
 686 0294 039B     		ldr	r3, [sp, #12]
 687 0296 002B     		cmp	r3, #0
 688 0298 3FF4C5AE 		beq	.L1
 589:Middlewares/lvgl/src/widgets/lv_img.c **** 
 689              		.loc 1 589 13 is_stmt 1 view .LVU246
 589:Middlewares/lvgl/src/widgets/lv_img.c **** 
 690              		.loc 1 589 43 is_stmt 0 view .LVU247
 691 029c 3046     		mov	r0, r6
 692              	.LVL70:
 589:Middlewares/lvgl/src/widgets/lv_img.c **** 
 693              		.loc 1 589 43 view .LVU248
 694 029e FFF7FEFF 		bl	lv_event_get_param
 695              	.LVL71:
 696 02a2 0390     		str	r0, [sp, #12]
 697              	.LVL72:
 591:Middlewares/lvgl/src/widgets/lv_img.c ****             lv_area_copy(&img_max_area, &obj->coords);
 698              		.loc 1 591 13 is_stmt 1 view .LVU249
 592:Middlewares/lvgl/src/widgets/lv_img.c ****             img_max_area.x1 += pleft;
 699              		.loc 1 592 13 view .LVU250
 700              	.LBB101:
 701              	.LBI101:
 120:Middlewares/lvgl/src/widgets/../core/../misc/../font/../misc/lv_area.h **** {
 702              		.loc 3 120 20 view .LVU251
 703              	.LBB102:
 122:Middlewares/lvgl/src/widgets/../core/../misc/../font/../misc/lv_area.h ****     dest->y1 = src->y1;
 704              		.loc 3 122 5 view .LVU252
ARM GAS  /tmp/ccTUwwna.s 			page 37


 122:Middlewares/lvgl/src/widgets/../core/../misc/../font/../misc/lv_area.h ****     dest->y1 = src->y1;
 705              		.loc 3 122 19 is_stmt 0 view .LVU253
 706 02a4 B4F91470 		ldrsh	r7, [r4, #20]
 122:Middlewares/lvgl/src/widgets/../core/../misc/../font/../misc/lv_area.h ****     dest->y1 = src->y1;
 707              		.loc 3 122 14 view .LVU254
 708 02a8 ADF84070 		strh	r7, [sp, #64]	@ movhi
 123:Middlewares/lvgl/src/widgets/../core/../misc/../font/../misc/lv_area.h ****     dest->x2 = src->x2;
 709              		.loc 3 123 5 is_stmt 1 view .LVU255
 123:Middlewares/lvgl/src/widgets/../core/../misc/../font/../misc/lv_area.h ****     dest->x2 = src->x2;
 710              		.loc 3 123 19 is_stmt 0 view .LVU256
 711 02ac B4F91690 		ldrsh	r9, [r4, #22]
 123:Middlewares/lvgl/src/widgets/../core/../misc/../font/../misc/lv_area.h ****     dest->x2 = src->x2;
 712              		.loc 3 123 14 view .LVU257
 713 02b0 ADF84290 		strh	r9, [sp, #66]	@ movhi
 124:Middlewares/lvgl/src/widgets/../core/../misc/../font/../misc/lv_area.h ****     dest->y2 = src->y2;
 714              		.loc 3 124 5 is_stmt 1 view .LVU258
 124:Middlewares/lvgl/src/widgets/../core/../misc/../font/../misc/lv_area.h ****     dest->y2 = src->y2;
 715              		.loc 3 124 19 is_stmt 0 view .LVU259
 716 02b4 B4F91820 		ldrsh	r2, [r4, #24]
 124:Middlewares/lvgl/src/widgets/../core/../misc/../font/../misc/lv_area.h ****     dest->y2 = src->y2;
 717              		.loc 3 124 14 view .LVU260
 718 02b8 ADF84420 		strh	r2, [sp, #68]	@ movhi
 719              		.loc 3 125 5 is_stmt 1 view .LVU261
 720              		.loc 3 125 19 is_stmt 0 view .LVU262
 721 02bc B4F91A30 		ldrsh	r3, [r4, #26]
 722              		.loc 3 125 14 view .LVU263
 723 02c0 ADF84630 		strh	r3, [sp, #70]	@ movhi
 724              	.LVL73:
 725              		.loc 3 125 14 view .LVU264
 726              	.LBE102:
 727              	.LBE101:
 593:Middlewares/lvgl/src/widgets/lv_img.c ****             img_max_area.y1 += ptop;
 728              		.loc 1 593 13 is_stmt 1 view .LVU265
 593:Middlewares/lvgl/src/widgets/lv_img.c ****             img_max_area.y1 += ptop;
 729              		.loc 1 593 29 is_stmt 0 view .LVU266
 730 02c4 0599     		ldr	r1, [sp, #20]
 731 02c6 0F44     		add	r7, r7, r1
 732 02c8 1FFA87F8 		uxth	r8, r7
 733 02cc 3FB2     		sxth	r7, r7
 734 02ce ADF84070 		strh	r7, [sp, #64]	@ movhi
 594:Middlewares/lvgl/src/widgets/lv_img.c ****             img_max_area.x2 -= pright;
 735              		.loc 1 594 13 is_stmt 1 view .LVU267
 594:Middlewares/lvgl/src/widgets/lv_img.c ****             img_max_area.x2 -= pright;
 736              		.loc 1 594 29 is_stmt 0 view .LVU268
 737 02d2 D944     		add	r9, r9, fp
 738 02d4 1FFA89FA 		uxth	r10, r9
 739 02d8 0FFA89F9 		sxth	r9, r9
 740 02dc ADF84290 		strh	r9, [sp, #66]	@ movhi
 595:Middlewares/lvgl/src/widgets/lv_img.c ****             img_max_area.y2 -= pbottom;
 741              		.loc 1 595 13 is_stmt 1 view .LVU269
 595:Middlewares/lvgl/src/widgets/lv_img.c ****             img_max_area.y2 -= pbottom;
 742              		.loc 1 595 29 is_stmt 0 view .LVU270
 743 02e0 0699     		ldr	r1, [sp, #24]
 744 02e2 521A     		subs	r2, r2, r1
 745 02e4 15B2     		sxth	r5, r2
 746              	.LVL74:
 595:Middlewares/lvgl/src/widgets/lv_img.c ****             img_max_area.y2 -= pbottom;
ARM GAS  /tmp/ccTUwwna.s 			page 38


 747              		.loc 1 595 29 view .LVU271
 748 02e6 ADF84450 		strh	r5, [sp, #68]	@ movhi
 596:Middlewares/lvgl/src/widgets/lv_img.c **** 
 749              		.loc 1 596 13 is_stmt 1 view .LVU272
 596:Middlewares/lvgl/src/widgets/lv_img.c **** 
 750              		.loc 1 596 29 is_stmt 0 view .LVU273
 751 02ea 079A     		ldr	r2, [sp, #28]
 752 02ec 9B1A     		subs	r3, r3, r2
 753 02ee 1EB2     		sxth	r6, r3
 754              	.LVL75:
 596:Middlewares/lvgl/src/widgets/lv_img.c **** 
 755              		.loc 1 596 29 view .LVU274
 756 02f0 ADF84660 		strh	r6, [sp, #70]	@ movhi
 598:Middlewares/lvgl/src/widgets/lv_img.c ****                 lv_draw_img_dsc_t img_dsc;
 757              		.loc 1 598 13 is_stmt 1 view .LVU275
 598:Middlewares/lvgl/src/widgets/lv_img.c ****                 lv_draw_img_dsc_t img_dsc;
 758              		.loc 1 598 30 is_stmt 0 view .LVU276
 759 02f4 94F83830 		ldrb	r3, [r4, #56]	@ zero_extendqisi2
 598:Middlewares/lvgl/src/widgets/lv_img.c ****                 lv_draw_img_dsc_t img_dsc;
 760              		.loc 1 598 15 view .LVU277
 761 02f8 13F0020F 		tst	r3, #2
 762 02fc 0BD0     		beq	.L27
 632:Middlewares/lvgl/src/widgets/lv_img.c ****                 lv_draw_label_dsc_t label_dsc;
 763              		.loc 1 632 18 is_stmt 1 view .LVU278
 632:Middlewares/lvgl/src/widgets/lv_img.c ****                 lv_draw_label_dsc_t label_dsc;
 764              		.loc 1 632 35 is_stmt 0 view .LVU279
 765 02fe 03F00303 		and	r3, r3, #3
 632:Middlewares/lvgl/src/widgets/lv_img.c ****                 lv_draw_label_dsc_t label_dsc;
 766              		.loc 1 632 20 view .LVU280
 767 0302 022B     		cmp	r3, #2
 768 0304 00F09180 		beq	.L28
 641:Middlewares/lvgl/src/widgets/lv_img.c ****                 lv_draw_img(&obj->coords, clip_area, NULL, NULL);
 769              		.loc 1 641 70 is_stmt 1 view .LVU281
 642:Middlewares/lvgl/src/widgets/lv_img.c ****             }
 770              		.loc 1 642 17 view .LVU282
 771 0308 0023     		movs	r3, #0
 772 030a 1A46     		mov	r2, r3
 773 030c 0399     		ldr	r1, [sp, #12]
 774 030e 0898     		ldr	r0, [sp, #32]
 775              	.LVL76:
 642:Middlewares/lvgl/src/widgets/lv_img.c ****             }
 776              		.loc 1 642 17 is_stmt 0 view .LVU283
 777 0310 FFF7FEFF 		bl	lv_draw_img
 778              	.LVL77:
 642:Middlewares/lvgl/src/widgets/lv_img.c ****             }
 779              		.loc 1 642 17 view .LVU284
 780 0314 87E6     		b	.L1
 781              	.LVL78:
 782              	.L27:
 783              	.LBB103:
 599:Middlewares/lvgl/src/widgets/lv_img.c ****                 lv_draw_img_dsc_init(&img_dsc);
 784              		.loc 1 599 17 is_stmt 1 view .LVU285
 600:Middlewares/lvgl/src/widgets/lv_img.c ****                 lv_obj_init_draw_img_dsc(obj, LV_PART_MAIN, &img_dsc);
 785              		.loc 1 600 17 view .LVU286
 786 0316 16A8     		add	r0, sp, #88
 787              	.LVL79:
 600:Middlewares/lvgl/src/widgets/lv_img.c ****                 lv_obj_init_draw_img_dsc(obj, LV_PART_MAIN, &img_dsc);
ARM GAS  /tmp/ccTUwwna.s 			page 39


 788              		.loc 1 600 17 is_stmt 0 view .LVU287
 789 0318 FFF7FEFF 		bl	lv_draw_img_dsc_init
 790              	.LVL80:
 601:Middlewares/lvgl/src/widgets/lv_img.c **** 
 791              		.loc 1 601 17 is_stmt 1 view .LVU288
 792 031c 16AA     		add	r2, sp, #88
 793 031e 0021     		movs	r1, #0
 794 0320 2046     		mov	r0, r4
 795 0322 FFF7FEFF 		bl	lv_obj_init_draw_img_dsc
 796              	.LVL81:
 603:Middlewares/lvgl/src/widgets/lv_img.c ****                 img_dsc.angle = angle_final;
 797              		.loc 1 603 17 view .LVU289
 603:Middlewares/lvgl/src/widgets/lv_img.c ****                 img_dsc.angle = angle_final;
 798              		.loc 1 603 30 is_stmt 0 view .LVU290
 799 0326 099B     		ldr	r3, [sp, #36]
 800 0328 ADF85A30 		strh	r3, [sp, #90]	@ movhi
 604:Middlewares/lvgl/src/widgets/lv_img.c ****                 img_dsc.pivot.x = img->pivot.x;
 801              		.loc 1 604 17 is_stmt 1 view .LVU291
 604:Middlewares/lvgl/src/widgets/lv_img.c ****                 img_dsc.pivot.x = img->pivot.x;
 802              		.loc 1 604 31 is_stmt 0 view .LVU292
 803 032c 049B     		ldr	r3, [sp, #16]
 804 032e ADF85830 		strh	r3, [sp, #88]	@ movhi
 605:Middlewares/lvgl/src/widgets/lv_img.c ****                 img_dsc.pivot.y = img->pivot.y;
 805              		.loc 1 605 17 is_stmt 1 view .LVU293
 605:Middlewares/lvgl/src/widgets/lv_img.c ****                 img_dsc.pivot.y = img->pivot.y;
 806              		.loc 1 605 45 is_stmt 0 view .LVU294
 807 0332 B4F93230 		ldrsh	r3, [r4, #50]
 605:Middlewares/lvgl/src/widgets/lv_img.c ****                 img_dsc.pivot.y = img->pivot.y;
 808              		.loc 1 605 33 view .LVU295
 809 0336 ADF85C30 		strh	r3, [sp, #92]	@ movhi
 606:Middlewares/lvgl/src/widgets/lv_img.c ****                 img_dsc.antialias = img->antialias;
 810              		.loc 1 606 17 is_stmt 1 view .LVU296
 606:Middlewares/lvgl/src/widgets/lv_img.c ****                 img_dsc.antialias = img->antialias;
 811              		.loc 1 606 45 is_stmt 0 view .LVU297
 812 033a B4F93430 		ldrsh	r3, [r4, #52]
 606:Middlewares/lvgl/src/widgets/lv_img.c ****                 img_dsc.antialias = img->antialias;
 813              		.loc 1 606 33 view .LVU298
 814 033e ADF85E30 		strh	r3, [sp, #94]	@ movhi
 607:Middlewares/lvgl/src/widgets/lv_img.c **** 
 815              		.loc 1 607 17 is_stmt 1 view .LVU299
 607:Middlewares/lvgl/src/widgets/lv_img.c **** 
 816              		.loc 1 607 40 is_stmt 0 view .LVU300
 817 0342 94F83830 		ldrb	r3, [r4, #56]	@ zero_extendqisi2
 818 0346 DB09     		lsrs	r3, r3, #7
 607:Middlewares/lvgl/src/widgets/lv_img.c **** 
 819              		.loc 1 607 35 view .LVU301
 820 0348 9DF86C20 		ldrb	r2, [sp, #108]	@ zero_extendqisi2
 821 034c 63F30002 		bfi	r2, r3, #0, #1
 822 0350 8DF86C20 		strb	r2, [sp, #108]
 609:Middlewares/lvgl/src/widgets/lv_img.c ****                 img_clip_area.x1 = bg_coords.x1 + pleft;
 823              		.loc 1 609 17 is_stmt 1 view .LVU302
 610:Middlewares/lvgl/src/widgets/lv_img.c ****                 img_clip_area.y1 = bg_coords.y1 + ptop;
 824              		.loc 1 610 17 view .LVU303
 610:Middlewares/lvgl/src/widgets/lv_img.c ****                 img_clip_area.y1 = bg_coords.y1 + ptop;
 825              		.loc 1 610 45 is_stmt 0 view .LVU304
 826 0354 BDF83030 		ldrh	r3, [sp, #48]
 610:Middlewares/lvgl/src/widgets/lv_img.c ****                 img_clip_area.y1 = bg_coords.y1 + ptop;
ARM GAS  /tmp/ccTUwwna.s 			page 40


 827              		.loc 1 610 49 view .LVU305
 828 0358 059A     		ldr	r2, [sp, #20]
 829 035a 1A44     		add	r2, r2, r3
 610:Middlewares/lvgl/src/widgets/lv_img.c ****                 img_clip_area.y1 = bg_coords.y1 + ptop;
 830              		.loc 1 610 34 view .LVU306
 831 035c ADF84820 		strh	r2, [sp, #72]	@ movhi
 611:Middlewares/lvgl/src/widgets/lv_img.c ****                 img_clip_area.x2 = bg_coords.x2 - pright;
 832              		.loc 1 611 17 is_stmt 1 view .LVU307
 611:Middlewares/lvgl/src/widgets/lv_img.c ****                 img_clip_area.x2 = bg_coords.x2 - pright;
 833              		.loc 1 611 45 is_stmt 0 view .LVU308
 834 0360 BDF83230 		ldrh	r3, [sp, #50]
 611:Middlewares/lvgl/src/widgets/lv_img.c ****                 img_clip_area.x2 = bg_coords.x2 - pright;
 835              		.loc 1 611 49 view .LVU309
 836 0364 5B44     		add	r3, r3, fp
 611:Middlewares/lvgl/src/widgets/lv_img.c ****                 img_clip_area.x2 = bg_coords.x2 - pright;
 837              		.loc 1 611 34 view .LVU310
 838 0366 ADF84A30 		strh	r3, [sp, #74]	@ movhi
 612:Middlewares/lvgl/src/widgets/lv_img.c ****                 img_clip_area.y2 = bg_coords.y2 - pbottom;
 839              		.loc 1 612 17 is_stmt 1 view .LVU311
 612:Middlewares/lvgl/src/widgets/lv_img.c ****                 img_clip_area.y2 = bg_coords.y2 - pbottom;
 840              		.loc 1 612 45 is_stmt 0 view .LVU312
 841 036a BDF83430 		ldrh	r3, [sp, #52]
 612:Middlewares/lvgl/src/widgets/lv_img.c ****                 img_clip_area.y2 = bg_coords.y2 - pbottom;
 842              		.loc 1 612 49 view .LVU313
 843 036e 069A     		ldr	r2, [sp, #24]
 844 0370 9B1A     		subs	r3, r3, r2
 612:Middlewares/lvgl/src/widgets/lv_img.c ****                 img_clip_area.y2 = bg_coords.y2 - pbottom;
 845              		.loc 1 612 34 view .LVU314
 846 0372 ADF84C30 		strh	r3, [sp, #76]	@ movhi
 613:Middlewares/lvgl/src/widgets/lv_img.c **** 
 847              		.loc 1 613 17 is_stmt 1 view .LVU315
 613:Middlewares/lvgl/src/widgets/lv_img.c **** 
 848              		.loc 1 613 45 is_stmt 0 view .LVU316
 849 0376 BDF83630 		ldrh	r3, [sp, #54]
 613:Middlewares/lvgl/src/widgets/lv_img.c **** 
 850              		.loc 1 613 49 view .LVU317
 851 037a 079A     		ldr	r2, [sp, #28]
 852 037c 9B1A     		subs	r3, r3, r2
 613:Middlewares/lvgl/src/widgets/lv_img.c **** 
 853              		.loc 1 613 34 view .LVU318
 854 037e ADF84E30 		strh	r3, [sp, #78]	@ movhi
 615:Middlewares/lvgl/src/widgets/lv_img.c **** 
 855              		.loc 1 615 17 is_stmt 1 view .LVU319
 856 0382 12AA     		add	r2, sp, #72
 857 0384 0399     		ldr	r1, [sp, #12]
 858 0386 1046     		mov	r0, r2
 859 0388 FFF7FEFF 		bl	_lv_area_intersect
 860              	.LVL82:
 617:Middlewares/lvgl/src/widgets/lv_img.c ****                 coords_tmp.y1 = img_max_area.y1 + img->offset.y;
 861              		.loc 1 617 17 view .LVU320
 618:Middlewares/lvgl/src/widgets/lv_img.c ****                 if(coords_tmp.y1 > img_max_area.y1) coords_tmp.y1 -= img->h;
 862              		.loc 1 618 17 view .LVU321
 618:Middlewares/lvgl/src/widgets/lv_img.c ****                 if(coords_tmp.y1 > img_max_area.y1) coords_tmp.y1 -= img->h;
 863              		.loc 1 618 62 is_stmt 0 view .LVU322
 864 038c 638D     		ldrh	r3, [r4, #42]
 618:Middlewares/lvgl/src/widgets/lv_img.c ****                 if(coords_tmp.y1 > img_max_area.y1) coords_tmp.y1 -= img->h;
 865              		.loc 1 618 49 view .LVU323
ARM GAS  /tmp/ccTUwwna.s 			page 41


 866 038e 5344     		add	r3, r3, r10
 867 0390 9AB2     		uxth	r2, r3
 868 0392 1BB2     		sxth	r3, r3
 618:Middlewares/lvgl/src/widgets/lv_img.c ****                 if(coords_tmp.y1 > img_max_area.y1) coords_tmp.y1 -= img->h;
 869              		.loc 1 618 31 view .LVU324
 870 0394 ADF85230 		strh	r3, [sp, #82]	@ movhi
 619:Middlewares/lvgl/src/widgets/lv_img.c ****                 coords_tmp.y2 = coords_tmp.y1 + img->h - 1;
 871              		.loc 1 619 17 is_stmt 1 view .LVU325
 619:Middlewares/lvgl/src/widgets/lv_img.c ****                 coords_tmp.y2 = coords_tmp.y1 + img->h - 1;
 872              		.loc 1 619 19 is_stmt 0 view .LVU326
 873 0398 9945     		cmp	r9, r3
 874 039a 03DA     		bge	.L15
 619:Middlewares/lvgl/src/widgets/lv_img.c ****                 coords_tmp.y2 = coords_tmp.y1 + img->h - 1;
 875              		.loc 1 619 53 is_stmt 1 discriminator 1 view .LVU327
 619:Middlewares/lvgl/src/widgets/lv_img.c ****                 coords_tmp.y2 = coords_tmp.y1 + img->h - 1;
 876              		.loc 1 619 73 is_stmt 0 discriminator 1 view .LVU328
 877 039c E38D     		ldrh	r3, [r4, #46]
 619:Middlewares/lvgl/src/widgets/lv_img.c ****                 coords_tmp.y2 = coords_tmp.y1 + img->h - 1;
 878              		.loc 1 619 67 discriminator 1 view .LVU329
 879 039e D21A     		subs	r2, r2, r3
 880 03a0 ADF85220 		strh	r2, [sp, #82]	@ movhi
 881              	.L15:
 620:Middlewares/lvgl/src/widgets/lv_img.c **** 
 882              		.loc 1 620 17 is_stmt 1 view .LVU330
 620:Middlewares/lvgl/src/widgets/lv_img.c **** 
 883              		.loc 1 620 43 is_stmt 0 view .LVU331
 884 03a4 BDF85230 		ldrh	r3, [sp, #82]
 620:Middlewares/lvgl/src/widgets/lv_img.c **** 
 885              		.loc 1 620 52 view .LVU332
 886 03a8 E28D     		ldrh	r2, [r4, #46]
 620:Middlewares/lvgl/src/widgets/lv_img.c **** 
 887              		.loc 1 620 47 view .LVU333
 888 03aa 1344     		add	r3, r3, r2
 889 03ac 9BB2     		uxth	r3, r3
 620:Middlewares/lvgl/src/widgets/lv_img.c **** 
 890              		.loc 1 620 56 view .LVU334
 891 03ae 013B     		subs	r3, r3, #1
 620:Middlewares/lvgl/src/widgets/lv_img.c **** 
 892              		.loc 1 620 31 view .LVU335
 893 03b0 ADF85630 		strh	r3, [sp, #86]	@ movhi
 622:Middlewares/lvgl/src/widgets/lv_img.c ****                     coords_tmp.x1 = img_max_area.x1 + img->offset.x;
 894              		.loc 1 622 17 is_stmt 1 view .LVU336
 895 03b4 0AE0     		b	.L16
 896              	.L29:
 622:Middlewares/lvgl/src/widgets/lv_img.c ****                     coords_tmp.x1 = img_max_area.x1 + img->offset.x;
 897              		.loc 1 622 56 view .LVU337
 622:Middlewares/lvgl/src/widgets/lv_img.c ****                     coords_tmp.x1 = img_max_area.x1 + img->offset.x;
 898              		.loc 1 622 76 is_stmt 0 view .LVU338
 899 03b6 E38D     		ldrh	r3, [r4, #46]
 622:Middlewares/lvgl/src/widgets/lv_img.c ****                     coords_tmp.x1 = img_max_area.x1 + img->offset.x;
 900              		.loc 1 622 70 view .LVU339
 901 03b8 BDF85220 		ldrh	r2, [sp, #82]
 902 03bc 1A44     		add	r2, r2, r3
 903 03be ADF85220 		strh	r2, [sp, #82]	@ movhi
 622:Middlewares/lvgl/src/widgets/lv_img.c ****                     coords_tmp.x1 = img_max_area.x1 + img->offset.x;
 904              		.loc 1 622 95 view .LVU340
 905 03c2 BDF85620 		ldrh	r2, [sp, #86]
ARM GAS  /tmp/ccTUwwna.s 			page 42


 906 03c6 1344     		add	r3, r3, r2
 907 03c8 ADF85630 		strh	r3, [sp, #86]	@ movhi
 908              	.L16:
 622:Middlewares/lvgl/src/widgets/lv_img.c ****                     coords_tmp.x1 = img_max_area.x1 + img->offset.x;
 909              		.loc 1 622 23 is_stmt 1 discriminator 1 view .LVU341
 622:Middlewares/lvgl/src/widgets/lv_img.c ****                     coords_tmp.x1 = img_max_area.x1 + img->offset.x;
 910              		.loc 1 622 33 is_stmt 0 discriminator 1 view .LVU342
 911 03cc BDF95230 		ldrsh	r3, [sp, #82]
 622:Middlewares/lvgl/src/widgets/lv_img.c ****                     coords_tmp.x1 = img_max_area.x1 + img->offset.x;
 912              		.loc 1 622 17 discriminator 1 view .LVU343
 913 03d0 9E42     		cmp	r6, r3
 914 03d2 7FF728AE 		ble	.L1
 623:Middlewares/lvgl/src/widgets/lv_img.c ****                     if(coords_tmp.x1 > img_max_area.x1) coords_tmp.x1 -= img->w;
 915              		.loc 1 623 21 is_stmt 1 view .LVU344
 623:Middlewares/lvgl/src/widgets/lv_img.c ****                     if(coords_tmp.x1 > img_max_area.x1) coords_tmp.x1 -= img->w;
 916              		.loc 1 623 66 is_stmt 0 view .LVU345
 917 03d6 238D     		ldrh	r3, [r4, #40]
 623:Middlewares/lvgl/src/widgets/lv_img.c ****                     if(coords_tmp.x1 > img_max_area.x1) coords_tmp.x1 -= img->w;
 918              		.loc 1 623 53 view .LVU346
 919 03d8 4344     		add	r3, r3, r8
 920 03da 9AB2     		uxth	r2, r3
 921 03dc 1BB2     		sxth	r3, r3
 623:Middlewares/lvgl/src/widgets/lv_img.c ****                     if(coords_tmp.x1 > img_max_area.x1) coords_tmp.x1 -= img->w;
 922              		.loc 1 623 35 view .LVU347
 923 03de ADF85030 		strh	r3, [sp, #80]	@ movhi
 624:Middlewares/lvgl/src/widgets/lv_img.c ****                     coords_tmp.x2 = coords_tmp.x1 + img->w - 1;
 924              		.loc 1 624 21 is_stmt 1 view .LVU348
 624:Middlewares/lvgl/src/widgets/lv_img.c ****                     coords_tmp.x2 = coords_tmp.x1 + img->w - 1;
 925              		.loc 1 624 23 is_stmt 0 view .LVU349
 926 03e2 9F42     		cmp	r7, r3
 927 03e4 03DA     		bge	.L17
 624:Middlewares/lvgl/src/widgets/lv_img.c ****                     coords_tmp.x2 = coords_tmp.x1 + img->w - 1;
 928              		.loc 1 624 57 is_stmt 1 discriminator 1 view .LVU350
 624:Middlewares/lvgl/src/widgets/lv_img.c ****                     coords_tmp.x2 = coords_tmp.x1 + img->w - 1;
 929              		.loc 1 624 77 is_stmt 0 discriminator 1 view .LVU351
 930 03e6 A38D     		ldrh	r3, [r4, #44]
 624:Middlewares/lvgl/src/widgets/lv_img.c ****                     coords_tmp.x2 = coords_tmp.x1 + img->w - 1;
 931              		.loc 1 624 71 discriminator 1 view .LVU352
 932 03e8 D21A     		subs	r2, r2, r3
 933 03ea ADF85020 		strh	r2, [sp, #80]	@ movhi
 934              	.L17:
 625:Middlewares/lvgl/src/widgets/lv_img.c **** 
 935              		.loc 1 625 21 is_stmt 1 view .LVU353
 625:Middlewares/lvgl/src/widgets/lv_img.c **** 
 936              		.loc 1 625 47 is_stmt 0 view .LVU354
 937 03ee BDF85030 		ldrh	r3, [sp, #80]
 625:Middlewares/lvgl/src/widgets/lv_img.c **** 
 938              		.loc 1 625 56 view .LVU355
 939 03f2 A28D     		ldrh	r2, [r4, #44]
 625:Middlewares/lvgl/src/widgets/lv_img.c **** 
 940              		.loc 1 625 51 view .LVU356
 941 03f4 1344     		add	r3, r3, r2
 942 03f6 9BB2     		uxth	r3, r3
 625:Middlewares/lvgl/src/widgets/lv_img.c **** 
 943              		.loc 1 625 60 view .LVU357
 944 03f8 013B     		subs	r3, r3, #1
 625:Middlewares/lvgl/src/widgets/lv_img.c **** 
ARM GAS  /tmp/ccTUwwna.s 			page 43


 945              		.loc 1 625 35 view .LVU358
 946 03fa ADF85430 		strh	r3, [sp, #84]	@ movhi
 627:Middlewares/lvgl/src/widgets/lv_img.c ****                         lv_draw_img(&coords_tmp, &img_clip_area, img->src, &img_dsc);
 947              		.loc 1 627 21 is_stmt 1 view .LVU359
 948              	.L18:
 627:Middlewares/lvgl/src/widgets/lv_img.c ****                         lv_draw_img(&coords_tmp, &img_clip_area, img->src, &img_dsc);
 949              		.loc 1 627 27 discriminator 1 view .LVU360
 627:Middlewares/lvgl/src/widgets/lv_img.c ****                         lv_draw_img(&coords_tmp, &img_clip_area, img->src, &img_dsc);
 950              		.loc 1 627 37 is_stmt 0 discriminator 1 view .LVU361
 951 03fe BDF95030 		ldrsh	r3, [sp, #80]
 627:Middlewares/lvgl/src/widgets/lv_img.c ****                         lv_draw_img(&coords_tmp, &img_clip_area, img->src, &img_dsc);
 952              		.loc 1 627 21 discriminator 1 view .LVU362
 953 0402 9D42     		cmp	r5, r3
 954 0404 D7DD     		ble	.L29
 628:Middlewares/lvgl/src/widgets/lv_img.c ****                     }
 955              		.loc 1 628 25 is_stmt 1 discriminator 2 view .LVU363
 956 0406 16AB     		add	r3, sp, #88
 957 0408 626A     		ldr	r2, [r4, #36]
 958 040a 12A9     		add	r1, sp, #72
 959 040c 14A8     		add	r0, sp, #80
 960 040e FFF7FEFF 		bl	lv_draw_img
 961              	.LVL83:
 627:Middlewares/lvgl/src/widgets/lv_img.c ****                         lv_draw_img(&coords_tmp, &img_clip_area, img->src, &img_dsc);
 962              		.loc 1 627 60 discriminator 2 view .LVU364
 627:Middlewares/lvgl/src/widgets/lv_img.c ****                         lv_draw_img(&coords_tmp, &img_clip_area, img->src, &img_dsc);
 963              		.loc 1 627 80 is_stmt 0 discriminator 2 view .LVU365
 964 0412 A38D     		ldrh	r3, [r4, #44]
 627:Middlewares/lvgl/src/widgets/lv_img.c ****                         lv_draw_img(&coords_tmp, &img_clip_area, img->src, &img_dsc);
 965              		.loc 1 627 74 discriminator 2 view .LVU366
 966 0414 BDF85020 		ldrh	r2, [sp, #80]
 967 0418 1A44     		add	r2, r2, r3
 968 041a ADF85020 		strh	r2, [sp, #80]	@ movhi
 627:Middlewares/lvgl/src/widgets/lv_img.c ****                         lv_draw_img(&coords_tmp, &img_clip_area, img->src, &img_dsc);
 969              		.loc 1 627 99 discriminator 2 view .LVU367
 970 041e BDF85420 		ldrh	r2, [sp, #84]
 971 0422 1344     		add	r3, r3, r2
 972 0424 ADF85430 		strh	r3, [sp, #84]	@ movhi
 973 0428 E9E7     		b	.L18
 974              	.LVL84:
 975              	.L28:
 627:Middlewares/lvgl/src/widgets/lv_img.c ****                         lv_draw_img(&coords_tmp, &img_clip_area, img->src, &img_dsc);
 976              		.loc 1 627 99 discriminator 2 view .LVU368
 977              	.LBE103:
 978              	.LBB104:
 633:Middlewares/lvgl/src/widgets/lv_img.c ****                 lv_draw_label_dsc_init(&label_dsc);
 979              		.loc 1 633 17 is_stmt 1 discriminator 4 view .LVU369
 634:Middlewares/lvgl/src/widgets/lv_img.c ****                 lv_obj_init_draw_label_dsc(obj, LV_PART_MAIN, &label_dsc);
 980              		.loc 1 634 17 discriminator 4 view .LVU370
 981 042a 16A8     		add	r0, sp, #88
 982              	.LVL85:
 634:Middlewares/lvgl/src/widgets/lv_img.c ****                 lv_obj_init_draw_label_dsc(obj, LV_PART_MAIN, &label_dsc);
 983              		.loc 1 634 17 is_stmt 0 discriminator 4 view .LVU371
 984 042c FFF7FEFF 		bl	lv_draw_label_dsc_init
 985              	.LVL86:
 635:Middlewares/lvgl/src/widgets/lv_img.c **** 
 986              		.loc 1 635 17 is_stmt 1 discriminator 4 view .LVU372
 987 0430 16AA     		add	r2, sp, #88
ARM GAS  /tmp/ccTUwwna.s 			page 44


 988 0432 0021     		movs	r1, #0
 989 0434 2046     		mov	r0, r4
 990 0436 FFF7FEFF 		bl	lv_obj_init_draw_label_dsc
 991              	.LVL87:
 637:Middlewares/lvgl/src/widgets/lv_img.c ****             }
 992              		.loc 1 637 17 discriminator 4 view .LVU373
 637:Middlewares/lvgl/src/widgets/lv_img.c ****             }
 993              		.loc 1 637 71 is_stmt 0 discriminator 4 view .LVU374
 994 043a 636A     		ldr	r3, [r4, #36]
 637:Middlewares/lvgl/src/widgets/lv_img.c ****             }
 995              		.loc 1 637 17 discriminator 4 view .LVU375
 996 043c 0022     		movs	r2, #0
 997 043e 0092     		str	r2, [sp]
 998 0440 16AA     		add	r2, sp, #88
 999 0442 0399     		ldr	r1, [sp, #12]
 1000 0444 0898     		ldr	r0, [sp, #32]
 1001 0446 FFF7FEFF 		bl	lv_draw_label
 1002              	.LVL88:
 1003              	.LBE104:
 1004 044a ECE5     		b	.L1
 1005              	.L31:
 1006              		.align	2
 1007              	.L30:
 1008 044c 00000000 		.word	.LANCHOR0
 1009              	.LBE100:
 1010              	.LBE79:
 1011              		.cfi_endproc
 1012              	.LFE165:
 1014              		.section	.text.lv_img_destructor,"ax",%progbits
 1015              		.align	1
 1016              		.syntax unified
 1017              		.thumb
 1018              		.thumb_func
 1019              		.fpu softvfp
 1021              	lv_img_destructor:
 1022              	.LVL89:
 1023              	.LFB163:
 392:Middlewares/lvgl/src/widgets/lv_img.c ****     LV_UNUSED(class_p);
 1024              		.loc 1 392 1 is_stmt 1 view -0
 1025              		.cfi_startproc
 1026              		@ args = 0, pretend = 0, frame = 0
 1027              		@ frame_needed = 0, uses_anonymous_args = 0
 393:Middlewares/lvgl/src/widgets/lv_img.c ****     lv_img_t * img = (lv_img_t *)obj;
 1028              		.loc 1 393 5 view .LVU377
 394:Middlewares/lvgl/src/widgets/lv_img.c ****     if(img->src_type == LV_IMG_SRC_FILE || img->src_type == LV_IMG_SRC_SYMBOL) {
 1029              		.loc 1 394 5 view .LVU378
 395:Middlewares/lvgl/src/widgets/lv_img.c ****         lv_mem_free((void*)img->src);
 1030              		.loc 1 395 5 view .LVU379
 395:Middlewares/lvgl/src/widgets/lv_img.c ****         lv_mem_free((void*)img->src);
 1031              		.loc 1 395 22 is_stmt 0 view .LVU380
 1032 0000 91F83830 		ldrb	r3, [r1, #56]	@ zero_extendqisi2
 395:Middlewares/lvgl/src/widgets/lv_img.c ****         lv_mem_free((void*)img->src);
 1033              		.loc 1 395 41 view .LVU381
 1034 0004 03F00303 		and	r3, r3, #3
 1035 0008 013B     		subs	r3, r3, #1
 1036 000a DBB2     		uxtb	r3, r3
 395:Middlewares/lvgl/src/widgets/lv_img.c ****         lv_mem_free((void*)img->src);
ARM GAS  /tmp/ccTUwwna.s 			page 45


 1037              		.loc 1 395 7 view .LVU382
 1038 000c 012B     		cmp	r3, #1
 1039 000e 00D9     		bls	.L38
 1040 0010 7047     		bx	lr
 1041              	.L38:
 392:Middlewares/lvgl/src/widgets/lv_img.c ****     LV_UNUSED(class_p);
 1042              		.loc 1 392 1 view .LVU383
 1043 0012 10B5     		push	{r4, lr}
 1044              	.LCFI4:
 1045              		.cfi_def_cfa_offset 8
 1046              		.cfi_offset 4, -8
 1047              		.cfi_offset 14, -4
 1048 0014 0C46     		mov	r4, r1
 396:Middlewares/lvgl/src/widgets/lv_img.c ****         img->src      = NULL;
 1049              		.loc 1 396 9 is_stmt 1 view .LVU384
 1050 0016 486A     		ldr	r0, [r1, #36]
 1051              	.LVL90:
 396:Middlewares/lvgl/src/widgets/lv_img.c ****         img->src      = NULL;
 1052              		.loc 1 396 9 is_stmt 0 view .LVU385
 1053 0018 FFF7FEFF 		bl	lv_mem_free
 1054              	.LVL91:
 397:Middlewares/lvgl/src/widgets/lv_img.c ****         img->src_type = LV_IMG_SRC_UNKNOWN;
 1055              		.loc 1 397 9 is_stmt 1 view .LVU386
 397:Middlewares/lvgl/src/widgets/lv_img.c ****         img->src_type = LV_IMG_SRC_UNKNOWN;
 1056              		.loc 1 397 23 is_stmt 0 view .LVU387
 1057 001c 0023     		movs	r3, #0
 1058 001e 6362     		str	r3, [r4, #36]
 398:Middlewares/lvgl/src/widgets/lv_img.c ****     }
 1059              		.loc 1 398 9 is_stmt 1 view .LVU388
 398:Middlewares/lvgl/src/widgets/lv_img.c ****     }
 1060              		.loc 1 398 23 is_stmt 0 view .LVU389
 1061 0020 94F83830 		ldrb	r3, [r4, #56]	@ zero_extendqisi2
 1062 0024 43F00303 		orr	r3, r3, #3
 1063 0028 84F83830 		strb	r3, [r4, #56]
 400:Middlewares/lvgl/src/widgets/lv_img.c **** 
 1064              		.loc 1 400 1 view .LVU390
 1065 002c 10BD     		pop	{r4, pc}
 400:Middlewares/lvgl/src/widgets/lv_img.c **** 
 1066              		.loc 1 400 1 view .LVU391
 1067              		.cfi_endproc
 1068              	.LFE163:
 1070              		.section	.text.lv_img_constructor,"ax",%progbits
 1071              		.align	1
 1072              		.syntax unified
 1073              		.thumb
 1074              		.thumb_func
 1075              		.fpu softvfp
 1077              	lv_img_constructor:
 1078              	.LVL92:
 1079              	.LFB162:
 366:Middlewares/lvgl/src/widgets/lv_img.c ****     LV_UNUSED(class_p);
 1080              		.loc 1 366 1 is_stmt 1 view -0
 1081              		.cfi_startproc
 1082              		@ args = 0, pretend = 0, frame = 0
 1083              		@ frame_needed = 0, uses_anonymous_args = 0
 366:Middlewares/lvgl/src/widgets/lv_img.c ****     LV_UNUSED(class_p);
 1084              		.loc 1 366 1 is_stmt 0 view .LVU393
ARM GAS  /tmp/ccTUwwna.s 			page 46


 1085 0000 38B5     		push	{r3, r4, r5, lr}
 1086              	.LCFI5:
 1087              		.cfi_def_cfa_offset 16
 1088              		.cfi_offset 3, -16
 1089              		.cfi_offset 4, -12
 1090              		.cfi_offset 5, -8
 1091              		.cfi_offset 14, -4
 1092 0002 0C46     		mov	r4, r1
 367:Middlewares/lvgl/src/widgets/lv_img.c ****     LV_TRACE_OBJ_CREATE("begin");
 1093              		.loc 1 367 5 is_stmt 1 view .LVU394
 368:Middlewares/lvgl/src/widgets/lv_img.c **** 
 1094              		.loc 1 368 33 view .LVU395
 370:Middlewares/lvgl/src/widgets/lv_img.c **** 
 1095              		.loc 1 370 5 view .LVU396
 1096              	.LVL93:
 372:Middlewares/lvgl/src/widgets/lv_img.c ****     img->src_type  = LV_IMG_SRC_UNKNOWN;
 1097              		.loc 1 372 5 view .LVU397
 372:Middlewares/lvgl/src/widgets/lv_img.c ****     img->src_type  = LV_IMG_SRC_UNKNOWN;
 1098              		.loc 1 372 20 is_stmt 0 view .LVU398
 1099 0004 0025     		movs	r5, #0
 1100 0006 4D62     		str	r5, [r1, #36]
 373:Middlewares/lvgl/src/widgets/lv_img.c ****     img->cf        = LV_IMG_CF_UNKNOWN;
 1101              		.loc 1 373 5 is_stmt 1 view .LVU399
 373:Middlewares/lvgl/src/widgets/lv_img.c ****     img->cf        = LV_IMG_CF_UNKNOWN;
 1102              		.loc 1 373 20 is_stmt 0 view .LVU400
 1103 0008 91F83830 		ldrb	r3, [r1, #56]	@ zero_extendqisi2
 1104 000c 43F00303 		orr	r3, r3, #3
 1105 0010 81F83830 		strb	r3, [r1, #56]
 374:Middlewares/lvgl/src/widgets/lv_img.c ****     img->w         = lv_obj_get_width(obj);
 1106              		.loc 1 374 5 is_stmt 1 view .LVU401
 374:Middlewares/lvgl/src/widgets/lv_img.c ****     img->w         = lv_obj_get_width(obj);
 1107              		.loc 1 374 20 is_stmt 0 view .LVU402
 1108 0014 DBB2     		uxtb	r3, r3
 1109 0016 65F38603 		bfi	r3, r5, #2, #5
 1110 001a 81F83830 		strb	r3, [r1, #56]
 375:Middlewares/lvgl/src/widgets/lv_img.c ****     img->h         = lv_obj_get_height(obj);
 1111              		.loc 1 375 5 is_stmt 1 view .LVU403
 375:Middlewares/lvgl/src/widgets/lv_img.c ****     img->h         = lv_obj_get_height(obj);
 1112              		.loc 1 375 22 is_stmt 0 view .LVU404
 1113 001e 0846     		mov	r0, r1
 1114              	.LVL94:
 375:Middlewares/lvgl/src/widgets/lv_img.c ****     img->h         = lv_obj_get_height(obj);
 1115              		.loc 1 375 22 view .LVU405
 1116 0020 FFF7FEFF 		bl	lv_obj_get_width
 1117              	.LVL95:
 375:Middlewares/lvgl/src/widgets/lv_img.c ****     img->h         = lv_obj_get_height(obj);
 1118              		.loc 1 375 20 view .LVU406
 1119 0024 A085     		strh	r0, [r4, #44]	@ movhi
 376:Middlewares/lvgl/src/widgets/lv_img.c ****     img->angle = 0;
 1120              		.loc 1 376 5 is_stmt 1 view .LVU407
 376:Middlewares/lvgl/src/widgets/lv_img.c ****     img->angle = 0;
 1121              		.loc 1 376 22 is_stmt 0 view .LVU408
 1122 0026 2046     		mov	r0, r4
 1123 0028 FFF7FEFF 		bl	lv_obj_get_height
 1124              	.LVL96:
 376:Middlewares/lvgl/src/widgets/lv_img.c ****     img->angle = 0;
 1125              		.loc 1 376 20 view .LVU409
ARM GAS  /tmp/ccTUwwna.s 			page 47


 1126 002c E085     		strh	r0, [r4, #46]	@ movhi
 377:Middlewares/lvgl/src/widgets/lv_img.c ****     img->zoom = LV_IMG_ZOOM_NONE;
 1127              		.loc 1 377 5 is_stmt 1 view .LVU410
 377:Middlewares/lvgl/src/widgets/lv_img.c ****     img->zoom = LV_IMG_ZOOM_NONE;
 1128              		.loc 1 377 16 is_stmt 0 view .LVU411
 1129 002e 2586     		strh	r5, [r4, #48]	@ movhi
 378:Middlewares/lvgl/src/widgets/lv_img.c ****     img->antialias = LV_COLOR_DEPTH > 8 ? 1 : 0;
 1130              		.loc 1 378 5 is_stmt 1 view .LVU412
 378:Middlewares/lvgl/src/widgets/lv_img.c ****     img->antialias = LV_COLOR_DEPTH > 8 ? 1 : 0;
 1131              		.loc 1 378 15 is_stmt 0 view .LVU413
 1132 0030 4FF48073 		mov	r3, #256
 1133 0034 E386     		strh	r3, [r4, #54]	@ movhi
 379:Middlewares/lvgl/src/widgets/lv_img.c ****     img->offset.x  = 0;
 1134              		.loc 1 379 5 is_stmt 1 view .LVU414
 379:Middlewares/lvgl/src/widgets/lv_img.c ****     img->offset.x  = 0;
 1135              		.loc 1 379 20 is_stmt 0 view .LVU415
 1136 0036 94F83830 		ldrb	r3, [r4, #56]	@ zero_extendqisi2
 1137 003a 43F08003 		orr	r3, r3, #128
 1138 003e 84F83830 		strb	r3, [r4, #56]
 380:Middlewares/lvgl/src/widgets/lv_img.c ****     img->offset.y  = 0;
 1139              		.loc 1 380 5 is_stmt 1 view .LVU416
 380:Middlewares/lvgl/src/widgets/lv_img.c ****     img->offset.y  = 0;
 1140              		.loc 1 380 20 is_stmt 0 view .LVU417
 1141 0042 2585     		strh	r5, [r4, #40]	@ movhi
 381:Middlewares/lvgl/src/widgets/lv_img.c ****     img->pivot.x = 0;
 1142              		.loc 1 381 5 is_stmt 1 view .LVU418
 381:Middlewares/lvgl/src/widgets/lv_img.c ****     img->pivot.x = 0;
 1143              		.loc 1 381 20 is_stmt 0 view .LVU419
 1144 0044 6585     		strh	r5, [r4, #42]	@ movhi
 382:Middlewares/lvgl/src/widgets/lv_img.c ****     img->pivot.y = 0;
 1145              		.loc 1 382 5 is_stmt 1 view .LVU420
 382:Middlewares/lvgl/src/widgets/lv_img.c ****     img->pivot.y = 0;
 1146              		.loc 1 382 18 is_stmt 0 view .LVU421
 1147 0046 6586     		strh	r5, [r4, #50]	@ movhi
 383:Middlewares/lvgl/src/widgets/lv_img.c **** 
 1148              		.loc 1 383 5 is_stmt 1 view .LVU422
 383:Middlewares/lvgl/src/widgets/lv_img.c **** 
 1149              		.loc 1 383 18 is_stmt 0 view .LVU423
 1150 0048 A586     		strh	r5, [r4, #52]	@ movhi
 385:Middlewares/lvgl/src/widgets/lv_img.c ****     lv_obj_add_flag(obj, LV_OBJ_FLAG_ADV_HITTEST);
 1151              		.loc 1 385 5 is_stmt 1 view .LVU424
 1152 004a 0221     		movs	r1, #2
 1153 004c 2046     		mov	r0, r4
 1154 004e FFF7FEFF 		bl	lv_obj_clear_flag
 1155              	.LVL97:
 386:Middlewares/lvgl/src/widgets/lv_img.c **** 
 1156              		.loc 1 386 5 view .LVU425
 1157 0052 4FF48041 		mov	r1, #16384
 1158 0056 2046     		mov	r0, r4
 1159 0058 FFF7FEFF 		bl	lv_obj_add_flag
 1160              	.LVL98:
 388:Middlewares/lvgl/src/widgets/lv_img.c **** }
 1161              		.loc 1 388 36 view .LVU426
 389:Middlewares/lvgl/src/widgets/lv_img.c **** 
 1162              		.loc 1 389 1 is_stmt 0 view .LVU427
 1163 005c 38BD     		pop	{r3, r4, r5, pc}
 389:Middlewares/lvgl/src/widgets/lv_img.c **** 
ARM GAS  /tmp/ccTUwwna.s 			page 48


 1164              		.loc 1 389 1 view .LVU428
 1165              		.cfi_endproc
 1166              	.LFE162:
 1168              		.section	.text.lv_img_create,"ax",%progbits
 1169              		.align	1
 1170              		.global	lv_img_create
 1171              		.syntax unified
 1172              		.thumb
 1173              		.thumb_func
 1174              		.fpu softvfp
 1176              	lv_img_create:
 1177              	.LVL99:
 1178              	.LFB147:
  58:Middlewares/lvgl/src/widgets/lv_img.c ****     LV_LOG_INFO("begin")
 1179              		.loc 1 58 1 is_stmt 1 view -0
 1180              		.cfi_startproc
 1181              		@ args = 0, pretend = 0, frame = 0
 1182              		@ frame_needed = 0, uses_anonymous_args = 0
  58:Middlewares/lvgl/src/widgets/lv_img.c ****     LV_LOG_INFO("begin")
 1183              		.loc 1 58 1 is_stmt 0 view .LVU430
 1184 0000 10B5     		push	{r4, lr}
 1185              	.LCFI6:
 1186              		.cfi_def_cfa_offset 8
 1187              		.cfi_offset 4, -8
 1188              		.cfi_offset 14, -4
 1189 0002 0146     		mov	r1, r0
  60:Middlewares/lvgl/src/widgets/lv_img.c ****     lv_obj_class_init_obj(obj);
 1190              		.loc 1 60 5 is_stmt 1 view .LVU431
  60:Middlewares/lvgl/src/widgets/lv_img.c ****     lv_obj_class_init_obj(obj);
 1191              		.loc 1 60 22 is_stmt 0 view .LVU432
 1192 0004 0348     		ldr	r0, .L43
 1193              	.LVL100:
  60:Middlewares/lvgl/src/widgets/lv_img.c ****     lv_obj_class_init_obj(obj);
 1194              		.loc 1 60 22 view .LVU433
 1195 0006 FFF7FEFF 		bl	lv_obj_class_create_obj
 1196              	.LVL101:
  60:Middlewares/lvgl/src/widgets/lv_img.c ****     lv_obj_class_init_obj(obj);
 1197              		.loc 1 60 22 view .LVU434
 1198 000a 0446     		mov	r4, r0
 1199              	.LVL102:
  61:Middlewares/lvgl/src/widgets/lv_img.c ****     return obj;
 1200              		.loc 1 61 5 is_stmt 1 view .LVU435
 1201 000c FFF7FEFF 		bl	lv_obj_class_init_obj
 1202              	.LVL103:
  62:Middlewares/lvgl/src/widgets/lv_img.c **** }
 1203              		.loc 1 62 5 view .LVU436
  63:Middlewares/lvgl/src/widgets/lv_img.c **** 
 1204              		.loc 1 63 1 is_stmt 0 view .LVU437
 1205 0010 2046     		mov	r0, r4
 1206 0012 10BD     		pop	{r4, pc}
 1207              	.LVL104:
 1208              	.L44:
  63:Middlewares/lvgl/src/widgets/lv_img.c **** 
 1209              		.loc 1 63 1 view .LVU438
 1210              		.align	2
 1211              	.L43:
 1212 0014 00000000 		.word	.LANCHOR0
ARM GAS  /tmp/ccTUwwna.s 			page 49


 1213              		.cfi_endproc
 1214              	.LFE147:
 1216              		.section	.text.lv_img_set_src,"ax",%progbits
 1217              		.align	1
 1218              		.global	lv_img_set_src
 1219              		.syntax unified
 1220              		.thumb
 1221              		.thumb_func
 1222              		.fpu softvfp
 1224              	lv_img_set_src:
 1225              	.LVL105:
 1226              	.LFB148:
  70:Middlewares/lvgl/src/widgets/lv_img.c ****     LV_ASSERT_OBJ(obj, MY_CLASS);
 1227              		.loc 1 70 1 is_stmt 1 view -0
 1228              		.cfi_startproc
 1229              		@ args = 0, pretend = 0, frame = 8
 1230              		@ frame_needed = 0, uses_anonymous_args = 0
  70:Middlewares/lvgl/src/widgets/lv_img.c ****     LV_ASSERT_OBJ(obj, MY_CLASS);
 1231              		.loc 1 70 1 is_stmt 0 view .LVU440
 1232 0000 2DE9F041 		push	{r4, r5, r6, r7, r8, lr}
 1233              	.LCFI7:
 1234              		.cfi_def_cfa_offset 24
 1235              		.cfi_offset 4, -24
 1236              		.cfi_offset 5, -20
 1237              		.cfi_offset 6, -16
 1238              		.cfi_offset 7, -12
 1239              		.cfi_offset 8, -8
 1240              		.cfi_offset 14, -4
 1241 0004 86B0     		sub	sp, sp, #24
 1242              	.LCFI8:
 1243              		.cfi_def_cfa_offset 48
 1244 0006 0446     		mov	r4, r0
 1245 0008 0E46     		mov	r6, r1
  71:Middlewares/lvgl/src/widgets/lv_img.c **** 
 1246              		.loc 1 71 5 is_stmt 1 view .LVU441
  71:Middlewares/lvgl/src/widgets/lv_img.c **** 
 1247              		.loc 1 71 5 view .LVU442
  71:Middlewares/lvgl/src/widgets/lv_img.c **** 
 1248              		.loc 1 71 5 view .LVU443
  73:Middlewares/lvgl/src/widgets/lv_img.c **** 
 1249              		.loc 1 73 5 view .LVU444
 1250 000a FFF7FEFF 		bl	lv_obj_invalidate
 1251              	.LVL106:
  75:Middlewares/lvgl/src/widgets/lv_img.c ****     lv_img_t * img = (lv_img_t *)obj;
 1252              		.loc 1 75 5 view .LVU445
  75:Middlewares/lvgl/src/widgets/lv_img.c ****     lv_img_t * img = (lv_img_t *)obj;
 1253              		.loc 1 75 29 is_stmt 0 view .LVU446
 1254 000e 3046     		mov	r0, r6
 1255 0010 FFF7FEFF 		bl	lv_img_src_get_type
 1256              	.LVL107:
  76:Middlewares/lvgl/src/widgets/lv_img.c **** 
 1257              		.loc 1 76 5 is_stmt 1 view .LVU447
  95:Middlewares/lvgl/src/widgets/lv_img.c ****         LV_LOG_WARN("lv_img_set_src: unknown image type");
 1258              		.loc 1 95 5 view .LVU448
  95:Middlewares/lvgl/src/widgets/lv_img.c ****         LV_LOG_WARN("lv_img_set_src: unknown image type");
 1259              		.loc 1 95 7 is_stmt 0 view .LVU449
 1260 0014 0328     		cmp	r0, #3
ARM GAS  /tmp/ccTUwwna.s 			page 50


 1261 0016 40D0     		beq	.L59
 1262 0018 0546     		mov	r5, r0
 105:Middlewares/lvgl/src/widgets/lv_img.c ****     lv_img_decoder_get_info(src, &header);
 1263              		.loc 1 105 5 is_stmt 1 view .LVU450
 106:Middlewares/lvgl/src/widgets/lv_img.c **** 
 1264              		.loc 1 106 5 view .LVU451
 1265 001a 05A9     		add	r1, sp, #20
 1266 001c 3046     		mov	r0, r6
 1267              	.LVL108:
 106:Middlewares/lvgl/src/widgets/lv_img.c **** 
 1268              		.loc 1 106 5 is_stmt 0 view .LVU452
 1269 001e FFF7FEFF 		bl	lv_img_decoder_get_info
 1270              	.LVL109:
 109:Middlewares/lvgl/src/widgets/lv_img.c ****         /*If memory was allocated because of the previous `src_type` then free it*/
 1271              		.loc 1 109 5 is_stmt 1 view .LVU453
 109:Middlewares/lvgl/src/widgets/lv_img.c ****         /*If memory was allocated because of the previous `src_type` then free it*/
 1272              		.loc 1 109 7 is_stmt 0 view .LVU454
 1273 0022 002D     		cmp	r5, #0
 1274 0024 52D1     		bne	.L49
 111:Middlewares/lvgl/src/widgets/lv_img.c ****             lv_mem_free((void*)img->src);
 1275              		.loc 1 111 9 is_stmt 1 view .LVU455
 111:Middlewares/lvgl/src/widgets/lv_img.c ****             lv_mem_free((void*)img->src);
 1276              		.loc 1 111 26 is_stmt 0 view .LVU456
 1277 0026 94F83830 		ldrb	r3, [r4, #56]	@ zero_extendqisi2
 111:Middlewares/lvgl/src/widgets/lv_img.c ****             lv_mem_free((void*)img->src);
 1278              		.loc 1 111 45 view .LVU457
 1279 002a 03F00303 		and	r3, r3, #3
 1280 002e 013B     		subs	r3, r3, #1
 1281 0030 DBB2     		uxtb	r3, r3
 111:Middlewares/lvgl/src/widgets/lv_img.c ****             lv_mem_free((void*)img->src);
 1282              		.loc 1 111 11 view .LVU458
 1283 0032 012B     		cmp	r3, #1
 1284 0034 46D9     		bls	.L60
 1285              	.L50:
 114:Middlewares/lvgl/src/widgets/lv_img.c ****     }
 1286              		.loc 1 114 9 is_stmt 1 view .LVU459
 114:Middlewares/lvgl/src/widgets/lv_img.c ****     }
 1287              		.loc 1 114 18 is_stmt 0 view .LVU460
 1288 0036 6662     		str	r6, [r4, #36]
 1289              	.L51:
 136:Middlewares/lvgl/src/widgets/lv_img.c ****         /*`lv_img_dsc_get_info` couldn't set the with and height of a font so set it here*/
 1290              		.loc 1 136 5 is_stmt 1 view .LVU461
 136:Middlewares/lvgl/src/widgets/lv_img.c ****         /*`lv_img_dsc_get_info` couldn't set the with and height of a font so set it here*/
 1291              		.loc 1 136 7 is_stmt 0 view .LVU462
 1292 0038 022D     		cmp	r5, #2
 1293 003a 6BD0     		beq	.L61
 1294              	.LVL110:
 1295              	.L55:
 147:Middlewares/lvgl/src/widgets/lv_img.c ****     img->w        = header.w;
 1296              		.loc 1 147 5 is_stmt 1 view .LVU463
 147:Middlewares/lvgl/src/widgets/lv_img.c ****     img->w        = header.w;
 1297              		.loc 1 147 19 is_stmt 0 view .LVU464
 1298 003c 94F83830 		ldrb	r3, [r4, #56]	@ zero_extendqisi2
 1299 0040 65F30103 		bfi	r3, r5, #0, #2
 1300 0044 84F83830 		strb	r3, [r4, #56]
 148:Middlewares/lvgl/src/widgets/lv_img.c ****     img->h        = header.h;
 1301              		.loc 1 148 5 is_stmt 1 view .LVU465
ARM GAS  /tmp/ccTUwwna.s 			page 51


 148:Middlewares/lvgl/src/widgets/lv_img.c ****     img->h        = header.h;
 1302              		.loc 1 148 27 is_stmt 0 view .LVU466
 1303 0048 059A     		ldr	r2, [sp, #20]
 1304 004a C2F38A23 		ubfx	r3, r2, #10, #11
 148:Middlewares/lvgl/src/widgets/lv_img.c ****     img->h        = header.h;
 1305              		.loc 1 148 19 view .LVU467
 1306 004e A385     		strh	r3, [r4, #44]	@ movhi
 149:Middlewares/lvgl/src/widgets/lv_img.c ****     img->cf       = header.cf;
 1307              		.loc 1 149 5 is_stmt 1 view .LVU468
 149:Middlewares/lvgl/src/widgets/lv_img.c ****     img->cf       = header.cf;
 1308              		.loc 1 149 27 is_stmt 0 view .LVU469
 1309 0050 BDF81630 		ldrh	r3, [sp, #22]
 1310 0054 C3F34A11 		ubfx	r1, r3, #5, #11
 149:Middlewares/lvgl/src/widgets/lv_img.c ****     img->cf       = header.cf;
 1311              		.loc 1 149 19 view .LVU470
 1312 0058 E185     		strh	r1, [r4, #46]	@ movhi
 150:Middlewares/lvgl/src/widgets/lv_img.c ****     img->pivot.x = header.w / 2;
 1313              		.loc 1 150 5 is_stmt 1 view .LVU471
 150:Middlewares/lvgl/src/widgets/lv_img.c ****     img->pivot.x = header.w / 2;
 1314              		.loc 1 150 27 is_stmt 0 view .LVU472
 1315 005a 9DF81400 		ldrb	r0, [sp, #20]	@ zero_extendqisi2
 150:Middlewares/lvgl/src/widgets/lv_img.c ****     img->pivot.x = header.w / 2;
 1316              		.loc 1 150 19 view .LVU473
 1317 005e 94F83810 		ldrb	r1, [r4, #56]	@ zero_extendqisi2
 1318 0062 60F38601 		bfi	r1, r0, #2, #5
 1319 0066 84F83810 		strb	r1, [r4, #56]
 151:Middlewares/lvgl/src/widgets/lv_img.c ****     img->pivot.y = header.h / 2;
 1320              		.loc 1 151 5 is_stmt 1 view .LVU474
 151:Middlewares/lvgl/src/widgets/lv_img.c ****     img->pivot.y = header.h / 2;
 1321              		.loc 1 151 29 is_stmt 0 view .LVU475
 1322 006a C2F3C922 		ubfx	r2, r2, #11, #10
 151:Middlewares/lvgl/src/widgets/lv_img.c ****     img->pivot.y = header.h / 2;
 1323              		.loc 1 151 18 view .LVU476
 1324 006e 6286     		strh	r2, [r4, #50]	@ movhi
 152:Middlewares/lvgl/src/widgets/lv_img.c **** 
 1325              		.loc 1 152 5 is_stmt 1 view .LVU477
 152:Middlewares/lvgl/src/widgets/lv_img.c **** 
 1326              		.loc 1 152 29 is_stmt 0 view .LVU478
 1327 0070 C3F38913 		ubfx	r3, r3, #6, #10
 152:Middlewares/lvgl/src/widgets/lv_img.c **** 
 1328              		.loc 1 152 18 view .LVU479
 1329 0074 A386     		strh	r3, [r4, #52]	@ movhi
 154:Middlewares/lvgl/src/widgets/lv_img.c **** 
 1330              		.loc 1 154 5 is_stmt 1 view .LVU480
 1331 0076 2046     		mov	r0, r4
 1332 0078 FFF7FEFF 		bl	lv_obj_refresh_self_size
 1333              	.LVL111:
 157:Middlewares/lvgl/src/widgets/lv_img.c **** 
 1334              		.loc 1 157 5 view .LVU481
 157:Middlewares/lvgl/src/widgets/lv_img.c **** 
 1335              		.loc 1 157 11 is_stmt 0 view .LVU482
 1336 007c 238E     		ldrh	r3, [r4, #48]
 157:Middlewares/lvgl/src/widgets/lv_img.c **** 
 1337              		.loc 1 157 7 view .LVU483
 1338 007e 1BB9     		cbnz	r3, .L56
 157:Middlewares/lvgl/src/widgets/lv_img.c **** 
 1339              		.loc 1 157 25 discriminator 2 view .LVU484
ARM GAS  /tmp/ccTUwwna.s 			page 52


 1340 0080 E38E     		ldrh	r3, [r4, #54]
 157:Middlewares/lvgl/src/widgets/lv_img.c **** 
 1341              		.loc 1 157 19 discriminator 2 view .LVU485
 1342 0082 B3F5807F 		cmp	r3, #256
 1343 0086 02D0     		beq	.L57
 1344              	.L56:
 157:Middlewares/lvgl/src/widgets/lv_img.c **** 
 1345              		.loc 1 157 53 is_stmt 1 discriminator 3 view .LVU486
 1346 0088 2046     		mov	r0, r4
 1347 008a FFF7FEFF 		bl	lv_obj_refresh_ext_draw_size
 1348              	.LVL112:
 1349              	.L57:
 159:Middlewares/lvgl/src/widgets/lv_img.c **** }
 1350              		.loc 1 159 5 view .LVU487
 1351 008e 2046     		mov	r0, r4
 1352 0090 FFF7FEFF 		bl	lv_obj_invalidate
 1353              	.LVL113:
 1354              	.L45:
 160:Middlewares/lvgl/src/widgets/lv_img.c **** 
 1355              		.loc 1 160 1 is_stmt 0 view .LVU488
 1356 0094 06B0     		add	sp, sp, #24
 1357              	.LCFI9:
 1358              		.cfi_remember_state
 1359              		.cfi_def_cfa_offset 24
 1360              		@ sp needed
 1361 0096 BDE8F081 		pop	{r4, r5, r6, r7, r8, pc}
 1362              	.LVL114:
 1363              	.L59:
 1364              	.LCFI10:
 1365              		.cfi_restore_state
  96:Middlewares/lvgl/src/widgets/lv_img.c ****         if(img->src_type == LV_IMG_SRC_SYMBOL || img->src_type == LV_IMG_SRC_FILE) {
 1366              		.loc 1 96 58 is_stmt 1 view .LVU489
  97:Middlewares/lvgl/src/widgets/lv_img.c ****             lv_mem_free((void*)img->src);
 1367              		.loc 1 97 9 view .LVU490
  97:Middlewares/lvgl/src/widgets/lv_img.c ****             lv_mem_free((void*)img->src);
 1368              		.loc 1 97 26 is_stmt 0 view .LVU491
 1369 009a 94F83830 		ldrb	r3, [r4, #56]	@ zero_extendqisi2
  97:Middlewares/lvgl/src/widgets/lv_img.c ****             lv_mem_free((void*)img->src);
 1370              		.loc 1 97 47 view .LVU492
 1371 009e 03F00303 		and	r3, r3, #3
 1372 00a2 013B     		subs	r3, r3, #1
 1373 00a4 DBB2     		uxtb	r3, r3
  97:Middlewares/lvgl/src/widgets/lv_img.c ****             lv_mem_free((void*)img->src);
 1374              		.loc 1 97 11 view .LVU493
 1375 00a6 012B     		cmp	r3, #1
 1376 00a8 08D9     		bls	.L62
 1377              	.LVL115:
 1378              	.L47:
 100:Middlewares/lvgl/src/widgets/lv_img.c ****         img->src_type = LV_IMG_SRC_UNKNOWN;
 1379              		.loc 1 100 9 is_stmt 1 view .LVU494
 100:Middlewares/lvgl/src/widgets/lv_img.c ****         img->src_type = LV_IMG_SRC_UNKNOWN;
 1380              		.loc 1 100 23 is_stmt 0 view .LVU495
 1381 00aa 0023     		movs	r3, #0
 1382 00ac 6362     		str	r3, [r4, #36]
 101:Middlewares/lvgl/src/widgets/lv_img.c ****         return;
 1383              		.loc 1 101 9 is_stmt 1 view .LVU496
 101:Middlewares/lvgl/src/widgets/lv_img.c ****         return;
ARM GAS  /tmp/ccTUwwna.s 			page 53


 1384              		.loc 1 101 23 is_stmt 0 view .LVU497
 1385 00ae 94F83830 		ldrb	r3, [r4, #56]	@ zero_extendqisi2
 1386 00b2 43F00303 		orr	r3, r3, #3
 1387 00b6 84F83830 		strb	r3, [r4, #56]
 102:Middlewares/lvgl/src/widgets/lv_img.c ****     }
 1388              		.loc 1 102 9 is_stmt 1 view .LVU498
 1389 00ba EBE7     		b	.L45
 1390              	.LVL116:
 1391              	.L62:
  98:Middlewares/lvgl/src/widgets/lv_img.c ****         }
 1392              		.loc 1 98 13 view .LVU499
 1393 00bc 606A     		ldr	r0, [r4, #36]
 1394              	.LVL117:
  98:Middlewares/lvgl/src/widgets/lv_img.c ****         }
 1395              		.loc 1 98 13 is_stmt 0 view .LVU500
 1396 00be FFF7FEFF 		bl	lv_mem_free
 1397              	.LVL118:
 1398 00c2 F2E7     		b	.L47
 1399              	.L60:
 112:Middlewares/lvgl/src/widgets/lv_img.c ****         }
 1400              		.loc 1 112 13 is_stmt 1 view .LVU501
 1401 00c4 606A     		ldr	r0, [r4, #36]
 1402 00c6 FFF7FEFF 		bl	lv_mem_free
 1403              	.LVL119:
 1404 00ca B4E7     		b	.L50
 1405              	.L49:
 116:Middlewares/lvgl/src/widgets/lv_img.c ****         /*If the new and the old src are the same then it was only a refresh.*/
 1406              		.loc 1 116 10 view .LVU502
 116:Middlewares/lvgl/src/widgets/lv_img.c ****         /*If the new and the old src are the same then it was only a refresh.*/
 1407              		.loc 1 116 41 is_stmt 0 view .LVU503
 1408 00cc 6B1E     		subs	r3, r5, #1
 1409 00ce DBB2     		uxtb	r3, r3
 116:Middlewares/lvgl/src/widgets/lv_img.c ****         /*If the new and the old src are the same then it was only a refresh.*/
 1410              		.loc 1 116 12 view .LVU504
 1411 00d0 012B     		cmp	r3, #1
 1412 00d2 B1D8     		bhi	.L51
 118:Middlewares/lvgl/src/widgets/lv_img.c ****             const void * old_src = NULL;
 1413              		.loc 1 118 9 is_stmt 1 view .LVU505
 118:Middlewares/lvgl/src/widgets/lv_img.c ****             const void * old_src = NULL;
 1414              		.loc 1 118 15 is_stmt 0 view .LVU506
 1415 00d4 676A     		ldr	r7, [r4, #36]
 118:Middlewares/lvgl/src/widgets/lv_img.c ****             const void * old_src = NULL;
 1416              		.loc 1 118 11 view .LVU507
 1417 00d6 B742     		cmp	r7, r6
 1418 00d8 AED0     		beq	.L51
 1419              	.LBB105:
 119:Middlewares/lvgl/src/widgets/lv_img.c ****             /*If memory was allocated because of the previous `src_type` then save its pointer and 
 1420              		.loc 1 119 13 is_stmt 1 view .LVU508
 1421              	.LVL120:
 123:Middlewares/lvgl/src/widgets/lv_img.c ****                 old_src = img->src;
 1422              		.loc 1 123 13 view .LVU509
 123:Middlewares/lvgl/src/widgets/lv_img.c ****                 old_src = img->src;
 1423              		.loc 1 123 30 is_stmt 0 view .LVU510
 1424 00da 94F83830 		ldrb	r3, [r4, #56]	@ zero_extendqisi2
 123:Middlewares/lvgl/src/widgets/lv_img.c ****                 old_src = img->src;
 1425              		.loc 1 123 49 view .LVU511
 1426 00de 03F00303 		and	r3, r3, #3
ARM GAS  /tmp/ccTUwwna.s 			page 54


 1427 00e2 013B     		subs	r3, r3, #1
 1428 00e4 DBB2     		uxtb	r3, r3
 123:Middlewares/lvgl/src/widgets/lv_img.c ****                 old_src = img->src;
 1429              		.loc 1 123 15 view .LVU512
 1430 00e6 012B     		cmp	r3, #1
 1431 00e8 00D9     		bls	.L52
 119:Middlewares/lvgl/src/widgets/lv_img.c ****             /*If memory was allocated because of the previous `src_type` then save its pointer and 
 1432              		.loc 1 119 26 view .LVU513
 1433 00ea 0027     		movs	r7, #0
 1434              	.L52:
 1435              	.LVL121:
 126:Middlewares/lvgl/src/widgets/lv_img.c ****             LV_ASSERT_MALLOC(new_str);
 1436              		.loc 1 126 13 is_stmt 1 view .LVU514
 126:Middlewares/lvgl/src/widgets/lv_img.c ****             LV_ASSERT_MALLOC(new_str);
 1437              		.loc 1 126 43 is_stmt 0 view .LVU515
 1438 00ec 3046     		mov	r0, r6
 1439 00ee FFF7FEFF 		bl	strlen
 1440              	.LVL122:
 126:Middlewares/lvgl/src/widgets/lv_img.c ****             LV_ASSERT_MALLOC(new_str);
 1441              		.loc 1 126 30 view .LVU516
 1442 00f2 0130     		adds	r0, r0, #1
 1443 00f4 FFF7FEFF 		bl	lv_mem_alloc
 1444              	.LVL123:
 127:Middlewares/lvgl/src/widgets/lv_img.c ****             if(new_str == NULL) return;
 1445              		.loc 1 127 13 is_stmt 1 view .LVU517
 127:Middlewares/lvgl/src/widgets/lv_img.c ****             if(new_str == NULL) return;
 1446              		.loc 1 127 13 view .LVU518
 1447 00f8 8046     		mov	r8, r0
 1448 00fa 50B1     		cbz	r0, .L54
 127:Middlewares/lvgl/src/widgets/lv_img.c ****             if(new_str == NULL) return;
 1449              		.loc 1 127 13 view .LVU519
 127:Middlewares/lvgl/src/widgets/lv_img.c ****             if(new_str == NULL) return;
 1450              		.loc 1 127 38 view .LVU520
 128:Middlewares/lvgl/src/widgets/lv_img.c ****             strcpy(new_str, src);
 1451              		.loc 1 128 13 view .LVU521
 129:Middlewares/lvgl/src/widgets/lv_img.c ****             img->src = new_str;
 1452              		.loc 1 129 13 view .LVU522
 1453 00fc 3146     		mov	r1, r6
 1454 00fe FFF7FEFF 		bl	strcpy
 1455              	.LVL124:
 130:Middlewares/lvgl/src/widgets/lv_img.c **** 
 1456              		.loc 1 130 13 view .LVU523
 130:Middlewares/lvgl/src/widgets/lv_img.c **** 
 1457              		.loc 1 130 22 is_stmt 0 view .LVU524
 1458 0102 C4F82480 		str	r8, [r4, #36]
 132:Middlewares/lvgl/src/widgets/lv_img.c ****         }
 1459              		.loc 1 132 13 is_stmt 1 view .LVU525
 132:Middlewares/lvgl/src/widgets/lv_img.c ****         }
 1460              		.loc 1 132 15 is_stmt 0 view .LVU526
 1461 0106 002F     		cmp	r7, #0
 1462 0108 96D0     		beq	.L51
 132:Middlewares/lvgl/src/widgets/lv_img.c ****         }
 1463              		.loc 1 132 25 is_stmt 1 discriminator 1 view .LVU527
 1464 010a 3846     		mov	r0, r7
 1465 010c FFF7FEFF 		bl	lv_mem_free
 1466              	.LVL125:
 1467 0110 92E7     		b	.L51
ARM GAS  /tmp/ccTUwwna.s 			page 55


 1468              	.LVL126:
 1469              	.L54:
 127:Middlewares/lvgl/src/widgets/lv_img.c ****             if(new_str == NULL) return;
 1470              		.loc 1 127 13 discriminator 1 view .LVU528
 127:Middlewares/lvgl/src/widgets/lv_img.c ****             if(new_str == NULL) return;
 1471              		.loc 1 127 13 discriminator 1 view .LVU529
 127:Middlewares/lvgl/src/widgets/lv_img.c ****             if(new_str == NULL) return;
 1472              		.loc 1 127 13 discriminator 1 view .LVU530
 127:Middlewares/lvgl/src/widgets/lv_img.c ****             if(new_str == NULL) return;
 1473              		.loc 1 127 13 discriminator 1 view .LVU531
 1474 0112 FEE7     		b	.L54
 1475              	.LVL127:
 1476              	.L61:
 127:Middlewares/lvgl/src/widgets/lv_img.c ****             if(new_str == NULL) return;
 1477              		.loc 1 127 13 is_stmt 0 discriminator 1 view .LVU532
 1478              	.LBE105:
 1479              	.LBB106:
 138:Middlewares/lvgl/src/widgets/lv_img.c ****         lv_coord_t letter_space = lv_obj_get_style_text_letter_space(obj, LV_PART_MAIN);
 1480              		.loc 1 138 9 is_stmt 1 view .LVU533
 1481              	.LBB107:
 1482              	.LBI107:
 331:Middlewares/lvgl/src/widgets/../core/lv_obj_style_gen.h **** {
 1483              		.loc 2 331 33 view .LVU534
 1484              	.LBB108:
 333:Middlewares/lvgl/src/widgets/../core/lv_obj_style_gen.h ****     return (const lv_font_t *)v.ptr;
 1485              		.loc 2 333 5 view .LVU535
 333:Middlewares/lvgl/src/widgets/../core/lv_obj_style_gen.h ****     return (const lv_font_t *)v.ptr;
 1486              		.loc 2 333 26 is_stmt 0 view .LVU536
 1487 0114 41F25942 		movw	r2, #5209
 1488 0118 0021     		movs	r1, #0
 1489 011a 2046     		mov	r0, r4
 1490 011c FFF7FEFF 		bl	lv_obj_get_style_prop
 1491              	.LVL128:
 1492 0120 0746     		mov	r7, r0
 334:Middlewares/lvgl/src/widgets/../core/lv_obj_style_gen.h **** }
 1493              		.loc 2 334 5 is_stmt 1 view .LVU537
 1494              	.LVL129:
 334:Middlewares/lvgl/src/widgets/../core/lv_obj_style_gen.h **** }
 1495              		.loc 2 334 5 is_stmt 0 view .LVU538
 1496              	.LBE108:
 1497              	.LBE107:
 139:Middlewares/lvgl/src/widgets/lv_img.c ****         lv_coord_t line_space = lv_obj_get_style_text_line_space(obj, LV_PART_MAIN);
 1498              		.loc 1 139 9 is_stmt 1 view .LVU539
 1499              	.LBB109:
 1500              	.LBI109:
 337:Middlewares/lvgl/src/widgets/../core/lv_obj_style_gen.h **** {
 1501              		.loc 2 337 26 view .LVU540
 1502              	.LBB110:
 339:Middlewares/lvgl/src/widgets/../core/lv_obj_style_gen.h ****     return (lv_coord_t)v.num;
 1503              		.loc 2 339 5 view .LVU541
 339:Middlewares/lvgl/src/widgets/../core/lv_obj_style_gen.h ****     return (lv_coord_t)v.num;
 1504              		.loc 2 339 26 is_stmt 0 view .LVU542
 1505 0122 41F25A42 		movw	r2, #5210
 1506 0126 0021     		movs	r1, #0
 1507 0128 2046     		mov	r0, r4
 1508              	.LVL130:
 339:Middlewares/lvgl/src/widgets/../core/lv_obj_style_gen.h ****     return (lv_coord_t)v.num;
ARM GAS  /tmp/ccTUwwna.s 			page 56


 1509              		.loc 2 339 26 view .LVU543
 1510 012a FFF7FEFF 		bl	lv_obj_get_style_prop
 1511              	.LVL131:
 340:Middlewares/lvgl/src/widgets/../core/lv_obj_style_gen.h **** }
 1512              		.loc 2 340 5 is_stmt 1 view .LVU544
 340:Middlewares/lvgl/src/widgets/../core/lv_obj_style_gen.h **** }
 1513              		.loc 2 340 12 is_stmt 0 view .LVU545
 1514 012e 0FFA80F8 		sxth	r8, r0
 1515              	.LVL132:
 340:Middlewares/lvgl/src/widgets/../core/lv_obj_style_gen.h **** }
 1516              		.loc 2 340 12 view .LVU546
 1517              	.LBE110:
 1518              	.LBE109:
 140:Middlewares/lvgl/src/widgets/lv_img.c ****         lv_point_t size;
 1519              		.loc 1 140 9 is_stmt 1 view .LVU547
 1520              	.LBB111:
 1521              	.LBI111:
 343:Middlewares/lvgl/src/widgets/../core/lv_obj_style_gen.h **** {
 1522              		.loc 2 343 26 view .LVU548
 1523              	.LBB112:
 345:Middlewares/lvgl/src/widgets/../core/lv_obj_style_gen.h ****     return (lv_coord_t)v.num;
 1524              		.loc 2 345 5 view .LVU549
 345:Middlewares/lvgl/src/widgets/../core/lv_obj_style_gen.h ****     return (lv_coord_t)v.num;
 1525              		.loc 2 345 26 is_stmt 0 view .LVU550
 1526 0132 41F25B42 		movw	r2, #5211
 1527 0136 0021     		movs	r1, #0
 1528 0138 2046     		mov	r0, r4
 1529 013a FFF7FEFF 		bl	lv_obj_get_style_prop
 1530              	.LVL133:
 346:Middlewares/lvgl/src/widgets/../core/lv_obj_style_gen.h **** }
 1531              		.loc 2 346 5 is_stmt 1 view .LVU551
 346:Middlewares/lvgl/src/widgets/../core/lv_obj_style_gen.h **** }
 1532              		.loc 2 346 12 is_stmt 0 view .LVU552
 1533 013e 00B2     		sxth	r0, r0
 1534              	.LVL134:
 346:Middlewares/lvgl/src/widgets/../core/lv_obj_style_gen.h **** }
 1535              		.loc 2 346 12 view .LVU553
 1536              	.LBE112:
 1537              	.LBE111:
 141:Middlewares/lvgl/src/widgets/lv_img.c ****         lv_txt_get_size(&size, src, font, letter_space, line_space, LV_COORD_MAX, LV_TEXT_FLAG_NONE
 1538              		.loc 1 141 9 is_stmt 1 view .LVU554
 142:Middlewares/lvgl/src/widgets/lv_img.c ****         header.w = size.x;
 1539              		.loc 1 142 9 view .LVU555
 1540 0140 0023     		movs	r3, #0
 1541 0142 0293     		str	r3, [sp, #8]
 1542 0144 4FF4C043 		mov	r3, #24576
 1543 0148 0193     		str	r3, [sp, #4]
 1544 014a 0090     		str	r0, [sp]
 1545 014c 4346     		mov	r3, r8
 1546 014e 3A46     		mov	r2, r7
 1547 0150 3146     		mov	r1, r6
 1548 0152 04A8     		add	r0, sp, #16
 1549              	.LVL135:
 142:Middlewares/lvgl/src/widgets/lv_img.c ****         header.w = size.x;
 1550              		.loc 1 142 9 is_stmt 0 view .LVU556
 1551 0154 FFF7FEFF 		bl	lv_txt_get_size
 1552              	.LVL136:
ARM GAS  /tmp/ccTUwwna.s 			page 57


 143:Middlewares/lvgl/src/widgets/lv_img.c ****         header.h = size.y;
 1553              		.loc 1 143 9 is_stmt 1 view .LVU557
 143:Middlewares/lvgl/src/widgets/lv_img.c ****         header.h = size.y;
 1554              		.loc 1 143 24 is_stmt 0 view .LVU558
 1555 0158 BDF81020 		ldrh	r2, [sp, #16]
 143:Middlewares/lvgl/src/widgets/lv_img.c ****         header.h = size.y;
 1556              		.loc 1 143 18 view .LVU559
 1557 015c 059B     		ldr	r3, [sp, #20]
 1558 015e 62F39423 		bfi	r3, r2, #10, #11
 1559 0162 0593     		str	r3, [sp, #20]
 144:Middlewares/lvgl/src/widgets/lv_img.c ****     }
 1560              		.loc 1 144 9 is_stmt 1 view .LVU560
 144:Middlewares/lvgl/src/widgets/lv_img.c ****     }
 1561              		.loc 1 144 24 is_stmt 0 view .LVU561
 1562 0164 BDF81220 		ldrh	r2, [sp, #18]
 144:Middlewares/lvgl/src/widgets/lv_img.c ****     }
 1563              		.loc 1 144 18 view .LVU562
 1564 0168 BDF81630 		ldrh	r3, [sp, #22]
 1565 016c 62F34F13 		bfi	r3, r2, #5, #11
 1566 0170 ADF81630 		strh	r3, [sp, #22]	@ movhi
 1567 0174 62E7     		b	.L55
 1568              	.LBE106:
 1569              		.cfi_endproc
 1570              	.LFE148:
 1572              		.section	.text.lv_img_event,"ax",%progbits
 1573              		.align	1
 1574              		.syntax unified
 1575              		.thumb
 1576              		.thumb_func
 1577              		.fpu softvfp
 1579              	lv_img_event:
 1580              	.LVL137:
 1581              	.LFB164:
 403:Middlewares/lvgl/src/widgets/lv_img.c ****     LV_UNUSED(class_p);
 1582              		.loc 1 403 1 is_stmt 1 view -0
 1583              		.cfi_startproc
 1584              		@ args = 0, pretend = 0, frame = 8
 1585              		@ frame_needed = 0, uses_anonymous_args = 0
 403:Middlewares/lvgl/src/widgets/lv_img.c ****     LV_UNUSED(class_p);
 1586              		.loc 1 403 1 is_stmt 0 view .LVU564
 1587 0000 2DE9F043 		push	{r4, r5, r6, r7, r8, r9, lr}
 1588              	.LCFI11:
 1589              		.cfi_def_cfa_offset 28
 1590              		.cfi_offset 4, -28
 1591              		.cfi_offset 5, -24
 1592              		.cfi_offset 6, -20
 1593              		.cfi_offset 7, -16
 1594              		.cfi_offset 8, -12
 1595              		.cfi_offset 9, -8
 1596              		.cfi_offset 14, -4
 1597 0004 85B0     		sub	sp, sp, #20
 1598              	.LCFI12:
 1599              		.cfi_def_cfa_offset 48
 1600 0006 0D46     		mov	r5, r1
 404:Middlewares/lvgl/src/widgets/lv_img.c **** 
 1601              		.loc 1 404 5 is_stmt 1 view .LVU565
 406:Middlewares/lvgl/src/widgets/lv_img.c **** 
ARM GAS  /tmp/ccTUwwna.s 			page 58


 1602              		.loc 1 406 5 view .LVU566
 406:Middlewares/lvgl/src/widgets/lv_img.c **** 
 1603              		.loc 1 406 28 is_stmt 0 view .LVU567
 1604 0008 0846     		mov	r0, r1
 1605              	.LVL138:
 406:Middlewares/lvgl/src/widgets/lv_img.c **** 
 1606              		.loc 1 406 28 view .LVU568
 1607 000a FFF7FEFF 		bl	lv_event_get_code
 1608              	.LVL139:
 406:Middlewares/lvgl/src/widgets/lv_img.c **** 
 1609              		.loc 1 406 28 view .LVU569
 1610 000e 0446     		mov	r4, r0
 1611              	.LVL140:
 409:Middlewares/lvgl/src/widgets/lv_img.c ****         /*Call the ancestor's event handler*/
 1612              		.loc 1 409 5 is_stmt 1 view .LVU570
 409:Middlewares/lvgl/src/widgets/lv_img.c ****         /*Call the ancestor's event handler*/
 1613              		.loc 1 409 7 is_stmt 0 view .LVU571
 1614 0010 1528     		cmp	r0, #21
 1615 0012 01D0     		beq	.L64
 409:Middlewares/lvgl/src/widgets/lv_img.c ****         /*Call the ancestor's event handler*/
 1616              		.loc 1 409 35 discriminator 1 view .LVU572
 1617 0014 1828     		cmp	r0, #24
 1618 0016 16D1     		bne	.L76
 1619              	.LVL141:
 1620              	.L64:
 415:Middlewares/lvgl/src/widgets/lv_img.c ****     lv_img_t * img = (lv_img_t *)obj;
 1621              		.loc 1 415 5 is_stmt 1 view .LVU573
 415:Middlewares/lvgl/src/widgets/lv_img.c ****     lv_img_t * img = (lv_img_t *)obj;
 1622              		.loc 1 415 22 is_stmt 0 view .LVU574
 1623 0018 2846     		mov	r0, r5
 1624 001a FFF7FEFF 		bl	lv_event_get_target
 1625              	.LVL142:
 1626 001e 0646     		mov	r6, r0
 1627              	.LVL143:
 416:Middlewares/lvgl/src/widgets/lv_img.c **** 
 1628              		.loc 1 416 5 is_stmt 1 view .LVU575
 418:Middlewares/lvgl/src/widgets/lv_img.c ****         /*Refresh the file name to refresh the symbol text size*/
 1629              		.loc 1 418 5 view .LVU576
 418:Middlewares/lvgl/src/widgets/lv_img.c ****         /*Refresh the file name to refresh the symbol text size*/
 1630              		.loc 1 418 7 is_stmt 0 view .LVU577
 1631 0020 242C     		cmp	r4, #36
 1632 0022 19D0     		beq	.L77
 427:Middlewares/lvgl/src/widgets/lv_img.c **** 
 1633              		.loc 1 427 10 is_stmt 1 view .LVU578
 427:Middlewares/lvgl/src/widgets/lv_img.c **** 
 1634              		.loc 1 427 12 is_stmt 0 view .LVU579
 1635 0024 132C     		cmp	r4, #19
 1636 0026 24D0     		beq	.L78
 449:Middlewares/lvgl/src/widgets/lv_img.c ****         lv_hit_test_info_t * info = lv_event_get_param(e);
 1637              		.loc 1 449 10 is_stmt 1 view .LVU580
 449:Middlewares/lvgl/src/widgets/lv_img.c ****         lv_hit_test_info_t * info = lv_event_get_param(e);
 1638              		.loc 1 449 12 is_stmt 0 view .LVU581
 1639 0028 112C     		cmp	r4, #17
 1640 002a 7CD0     		beq	.L79
 479:Middlewares/lvgl/src/widgets/lv_img.c ****         lv_point_t * p = lv_event_get_param(e);;
 1641              		.loc 1 479 10 is_stmt 1 view .LVU582
 479:Middlewares/lvgl/src/widgets/lv_img.c ****         lv_point_t * p = lv_event_get_param(e);;
ARM GAS  /tmp/ccTUwwna.s 			page 59


 1642              		.loc 1 479 12 is_stmt 0 view .LVU583
 1643 002c 262C     		cmp	r4, #38
 1644 002e 00F0F580 		beq	.L80
 484:Middlewares/lvgl/src/widgets/lv_img.c ****         draw_img(e);
 1645              		.loc 1 484 10 is_stmt 1 view .LVU584
 484:Middlewares/lvgl/src/widgets/lv_img.c ****         draw_img(e);
 1646              		.loc 1 484 12 is_stmt 0 view .LVU585
 1647 0032 152C     		cmp	r4, #21
 1648 0034 03D0     		beq	.L74
 484:Middlewares/lvgl/src/widgets/lv_img.c ****         draw_img(e);
 1649              		.loc 1 484 40 discriminator 1 view .LVU586
 1650 0036 182C     		cmp	r4, #24
 1651 0038 01D0     		beq	.L74
 484:Middlewares/lvgl/src/widgets/lv_img.c ****         draw_img(e);
 1652              		.loc 1 484 70 discriminator 2 view .LVU587
 1653 003a 122C     		cmp	r4, #18
 1654 003c 09D1     		bne	.L63
 1655              	.L74:
 485:Middlewares/lvgl/src/widgets/lv_img.c ****     }
 1656              		.loc 1 485 9 is_stmt 1 view .LVU588
 1657 003e 2846     		mov	r0, r5
 1658              	.LVL144:
 485:Middlewares/lvgl/src/widgets/lv_img.c ****     }
 1659              		.loc 1 485 9 is_stmt 0 view .LVU589
 1660 0040 FFF7FEFF 		bl	draw_img
 1661              	.LVL145:
 1662 0044 05E0     		b	.L63
 1663              	.LVL146:
 1664              	.L76:
 1665              	.LBB113:
 411:Middlewares/lvgl/src/widgets/lv_img.c ****         if(res != LV_RES_OK) return;
 1666              		.loc 1 411 9 is_stmt 1 view .LVU590
 411:Middlewares/lvgl/src/widgets/lv_img.c ****         if(res != LV_RES_OK) return;
 1667              		.loc 1 411 24 is_stmt 0 view .LVU591
 1668 0046 2946     		mov	r1, r5
 1669 0048 7948     		ldr	r0, .L84
 1670              	.LVL147:
 411:Middlewares/lvgl/src/widgets/lv_img.c ****         if(res != LV_RES_OK) return;
 1671              		.loc 1 411 24 view .LVU592
 1672 004a FFF7FEFF 		bl	lv_obj_event_base
 1673              	.LVL148:
 412:Middlewares/lvgl/src/widgets/lv_img.c ****     }
 1674              		.loc 1 412 9 is_stmt 1 view .LVU593
 412:Middlewares/lvgl/src/widgets/lv_img.c ****     }
 1675              		.loc 1 412 11 is_stmt 0 view .LVU594
 1676 004e 0128     		cmp	r0, #1
 1677 0050 E2D0     		beq	.L64
 1678              	.LVL149:
 1679              	.L63:
 412:Middlewares/lvgl/src/widgets/lv_img.c ****     }
 1680              		.loc 1 412 11 view .LVU595
 1681              	.LBE113:
 487:Middlewares/lvgl/src/widgets/lv_img.c **** 
 1682              		.loc 1 487 1 view .LVU596
 1683 0052 05B0     		add	sp, sp, #20
 1684              	.LCFI13:
 1685              		.cfi_remember_state
ARM GAS  /tmp/ccTUwwna.s 			page 60


 1686              		.cfi_def_cfa_offset 28
 1687              		@ sp needed
 1688 0054 BDE8F083 		pop	{r4, r5, r6, r7, r8, r9, pc}
 1689              	.LVL150:
 1690              	.L77:
 1691              	.LCFI14:
 1692              		.cfi_restore_state
 420:Middlewares/lvgl/src/widgets/lv_img.c ****             lv_img_set_src(obj, img->src);
 1693              		.loc 1 420 9 is_stmt 1 view .LVU597
 420:Middlewares/lvgl/src/widgets/lv_img.c ****             lv_img_set_src(obj, img->src);
 1694              		.loc 1 420 26 is_stmt 0 view .LVU598
 1695 0058 90F83830 		ldrb	r3, [r0, #56]	@ zero_extendqisi2
 1696 005c 03F00303 		and	r3, r3, #3
 420:Middlewares/lvgl/src/widgets/lv_img.c ****             lv_img_set_src(obj, img->src);
 1697              		.loc 1 420 11 view .LVU599
 1698 0060 022B     		cmp	r3, #2
 1699 0062 02D0     		beq	.L81
 424:Middlewares/lvgl/src/widgets/lv_img.c ****         }
 1700              		.loc 1 424 13 is_stmt 1 view .LVU600
 1701 0064 FFF7FEFF 		bl	lv_obj_refresh_ext_draw_size
 1702              	.LVL151:
 424:Middlewares/lvgl/src/widgets/lv_img.c ****         }
 1703              		.loc 1 424 13 is_stmt 0 view .LVU601
 1704 0068 F3E7     		b	.L63
 1705              	.LVL152:
 1706              	.L81:
 421:Middlewares/lvgl/src/widgets/lv_img.c ****         } else {
 1707              		.loc 1 421 13 is_stmt 1 view .LVU602
 1708 006a 416A     		ldr	r1, [r0, #36]
 1709 006c FFF7FEFF 		bl	lv_img_set_src
 1710              	.LVL153:
 421:Middlewares/lvgl/src/widgets/lv_img.c ****         } else {
 1711              		.loc 1 421 13 is_stmt 0 view .LVU603
 1712 0070 EFE7     		b	.L63
 1713              	.LVL154:
 1714              	.L78:
 1715              	.LBB114:
 429:Middlewares/lvgl/src/widgets/lv_img.c ****         lv_coord_t transf_zoom = lv_obj_get_style_transform_zoom(obj, LV_PART_MAIN);
 1716              		.loc 1 429 9 is_stmt 1 view .LVU604
 429:Middlewares/lvgl/src/widgets/lv_img.c ****         lv_coord_t transf_zoom = lv_obj_get_style_transform_zoom(obj, LV_PART_MAIN);
 1717              		.loc 1 429 26 is_stmt 0 view .LVU605
 1718 0072 2846     		mov	r0, r5
 1719              	.LVL155:
 429:Middlewares/lvgl/src/widgets/lv_img.c ****         lv_coord_t transf_zoom = lv_obj_get_style_transform_zoom(obj, LV_PART_MAIN);
 1720              		.loc 1 429 26 view .LVU606
 1721 0074 FFF7FEFF 		bl	lv_event_get_param
 1722              	.LVL156:
 1723 0078 0446     		mov	r4, r0
 1724              	.LVL157:
 430:Middlewares/lvgl/src/widgets/lv_img.c ****         transf_zoom = (transf_zoom * img->zoom) >> 8;
 1725              		.loc 1 430 9 is_stmt 1 view .LVU607
 1726              	.LBB115:
 1727              	.LBI115:
  79:Middlewares/lvgl/src/widgets/../core/lv_obj_style_gen.h **** {
 1728              		.loc 2 79 26 view .LVU608
 1729              	.LBB116:
  81:Middlewares/lvgl/src/widgets/../core/lv_obj_style_gen.h ****     return (lv_coord_t)v.num;
ARM GAS  /tmp/ccTUwwna.s 			page 61


 1730              		.loc 2 81 5 view .LVU609
  81:Middlewares/lvgl/src/widgets/../core/lv_obj_style_gen.h ****     return (lv_coord_t)v.num;
 1731              		.loc 2 81 26 is_stmt 0 view .LVU610
 1732 007a 40F60E02 		movw	r2, #2062
 1733 007e 0021     		movs	r1, #0
 1734 0080 3046     		mov	r0, r6
 1735              	.LVL158:
  81:Middlewares/lvgl/src/widgets/../core/lv_obj_style_gen.h ****     return (lv_coord_t)v.num;
 1736              		.loc 2 81 26 view .LVU611
 1737 0082 FFF7FEFF 		bl	lv_obj_get_style_prop
 1738              	.LVL159:
  82:Middlewares/lvgl/src/widgets/../core/lv_obj_style_gen.h **** }
 1739              		.loc 2 82 5 is_stmt 1 view .LVU612
  82:Middlewares/lvgl/src/widgets/../core/lv_obj_style_gen.h **** }
 1740              		.loc 2 82 12 is_stmt 0 view .LVU613
 1741 0086 03B2     		sxth	r3, r0
 1742              	.LVL160:
  82:Middlewares/lvgl/src/widgets/../core/lv_obj_style_gen.h **** }
 1743              		.loc 2 82 12 view .LVU614
 1744              	.LBE116:
 1745              	.LBE115:
 431:Middlewares/lvgl/src/widgets/lv_img.c **** 
 1746              		.loc 1 431 9 is_stmt 1 view .LVU615
 431:Middlewares/lvgl/src/widgets/lv_img.c **** 
 1747              		.loc 1 431 41 is_stmt 0 view .LVU616
 1748 0088 F08E     		ldrh	r0, [r6, #54]
 431:Middlewares/lvgl/src/widgets/lv_img.c **** 
 1749              		.loc 1 431 36 view .LVU617
 1750 008a 00FB03F3 		mul	r3, r0, r3
 1751              	.LVL161:
 431:Middlewares/lvgl/src/widgets/lv_img.c **** 
 1752              		.loc 1 431 49 view .LVU618
 1753 008e 4FEA2329 		asr	r9, r3, #8
 431:Middlewares/lvgl/src/widgets/lv_img.c **** 
 1754              		.loc 1 431 21 view .LVU619
 1755 0092 43F30F25 		sbfx	r5, r3, #8, #16
 1756              	.LVL162:
 433:Middlewares/lvgl/src/widgets/lv_img.c ****         transf_angle += img->angle;
 1757              		.loc 1 433 9 is_stmt 1 view .LVU620
 1758              	.LBB117:
 1759              	.LBI117:
  85:Middlewares/lvgl/src/widgets/../core/lv_obj_style_gen.h **** {
 1760              		.loc 2 85 26 view .LVU621
 1761              	.LBB118:
  87:Middlewares/lvgl/src/widgets/../core/lv_obj_style_gen.h ****     return (lv_coord_t)v.num;
 1762              		.loc 2 87 5 view .LVU622
  87:Middlewares/lvgl/src/widgets/../core/lv_obj_style_gen.h ****     return (lv_coord_t)v.num;
 1763              		.loc 2 87 26 is_stmt 0 view .LVU623
 1764 0096 40F60F02 		movw	r2, #2063
 1765 009a 0021     		movs	r1, #0
 1766 009c 3046     		mov	r0, r6
 1767 009e FFF7FEFF 		bl	lv_obj_get_style_prop
 1768              	.LVL163:
  88:Middlewares/lvgl/src/widgets/../core/lv_obj_style_gen.h **** }
 1769              		.loc 2 88 5 is_stmt 1 view .LVU624
  88:Middlewares/lvgl/src/widgets/../core/lv_obj_style_gen.h **** }
 1770              		.loc 2 88 5 is_stmt 0 view .LVU625
ARM GAS  /tmp/ccTUwwna.s 			page 62


 1771              	.LBE118:
 1772              	.LBE117:
 434:Middlewares/lvgl/src/widgets/lv_img.c **** 
 1773              		.loc 1 434 9 is_stmt 1 view .LVU626
 434:Middlewares/lvgl/src/widgets/lv_img.c **** 
 1774              		.loc 1 434 28 is_stmt 0 view .LVU627
 1775 00a2 B6F83080 		ldrh	r8, [r6, #48]
 434:Middlewares/lvgl/src/widgets/lv_img.c **** 
 1776              		.loc 1 434 22 view .LVU628
 1777 00a6 8044     		add	r8, r8, r0
 1778 00a8 0FFA88F8 		sxth	r8, r8
 1779              	.LVL164:
 437:Middlewares/lvgl/src/widgets/lv_img.c ****             lv_area_t a;
 1780              		.loc 1 437 9 is_stmt 1 view .LVU629
 437:Middlewares/lvgl/src/widgets/lv_img.c ****             lv_area_t a;
 1781              		.loc 1 437 11 is_stmt 0 view .LVU630
 1782 00ac B8F1000F 		cmp	r8, #0
 1783 00b0 02D1     		bne	.L69
 437:Middlewares/lvgl/src/widgets/lv_img.c ****             lv_area_t a;
 1784              		.loc 1 437 25 discriminator 1 view .LVU631
 1785 00b2 B5F5807F 		cmp	r5, #256
 1786 00b6 CCD0     		beq	.L63
 1787              	.L69:
 1788              	.LBB119:
 438:Middlewares/lvgl/src/widgets/lv_img.c ****             lv_coord_t w = lv_obj_get_width(obj);
 1789              		.loc 1 438 13 is_stmt 1 view .LVU632
 439:Middlewares/lvgl/src/widgets/lv_img.c ****             lv_coord_t h = lv_obj_get_height(obj);
 1790              		.loc 1 439 13 view .LVU633
 439:Middlewares/lvgl/src/widgets/lv_img.c ****             lv_coord_t h = lv_obj_get_height(obj);
 1791              		.loc 1 439 28 is_stmt 0 view .LVU634
 1792 00b8 3046     		mov	r0, r6
 1793 00ba FFF7FEFF 		bl	lv_obj_get_width
 1794              	.LVL165:
 1795 00be 0746     		mov	r7, r0
 1796              	.LVL166:
 440:Middlewares/lvgl/src/widgets/lv_img.c ****             _lv_img_buf_get_transformed_area(&a, w, h, transf_angle, transf_zoom, &img->pivot);
 1797              		.loc 1 440 13 is_stmt 1 view .LVU635
 440:Middlewares/lvgl/src/widgets/lv_img.c ****             _lv_img_buf_get_transformed_area(&a, w, h, transf_angle, transf_zoom, &img->pivot);
 1798              		.loc 1 440 28 is_stmt 0 view .LVU636
 1799 00c0 3046     		mov	r0, r6
 1800 00c2 FFF7FEFF 		bl	lv_obj_get_height
 1801              	.LVL167:
 1802 00c6 0546     		mov	r5, r0
 1803              	.LVL168:
 441:Middlewares/lvgl/src/widgets/lv_img.c ****             lv_coord_t pad_ori = *s;
 1804              		.loc 1 441 13 is_stmt 1 view .LVU637
 441:Middlewares/lvgl/src/widgets/lv_img.c ****             lv_coord_t pad_ori = *s;
 1805              		.loc 1 441 83 is_stmt 0 view .LVU638
 1806 00c8 3236     		adds	r6, r6, #50
 1807              	.LVL169:
 441:Middlewares/lvgl/src/widgets/lv_img.c ****             lv_coord_t pad_ori = *s;
 1808              		.loc 1 441 13 view .LVU639
 1809 00ca 0196     		str	r6, [sp, #4]
 1810 00cc 1FFA89F3 		uxth	r3, r9
 1811 00d0 0093     		str	r3, [sp]
 1812 00d2 4346     		mov	r3, r8
 1813 00d4 0246     		mov	r2, r0
ARM GAS  /tmp/ccTUwwna.s 			page 63


 1814 00d6 3946     		mov	r1, r7
 1815 00d8 02A8     		add	r0, sp, #8
 1816              	.LVL170:
 441:Middlewares/lvgl/src/widgets/lv_img.c ****             lv_coord_t pad_ori = *s;
 1817              		.loc 1 441 13 view .LVU640
 1818 00da FFF7FEFF 		bl	_lv_img_buf_get_transformed_area
 1819              	.LVL171:
 442:Middlewares/lvgl/src/widgets/lv_img.c ****             *s = LV_MAX(*s, pad_ori - a.x1);
 1820              		.loc 1 442 13 is_stmt 1 view .LVU641
 442:Middlewares/lvgl/src/widgets/lv_img.c ****             *s = LV_MAX(*s, pad_ori - a.x1);
 1821              		.loc 1 442 24 is_stmt 0 view .LVU642
 1822 00de B4F90030 		ldrsh	r3, [r4]
 1823              	.LVL172:
 443:Middlewares/lvgl/src/widgets/lv_img.c ****             *s = LV_MAX(*s, pad_ori - a.y1);
 1824              		.loc 1 443 13 is_stmt 1 view .LVU643
 443:Middlewares/lvgl/src/widgets/lv_img.c ****             *s = LV_MAX(*s, pad_ori - a.y1);
 1825              		.loc 1 443 18 is_stmt 0 view .LVU644
 1826 00e2 BDF90860 		ldrsh	r6, [sp, #8]
 1827              	.LVL173:
 443:Middlewares/lvgl/src/widgets/lv_img.c ****             *s = LV_MAX(*s, pad_ori - a.y1);
 1828              		.loc 1 443 18 view .LVU645
 1829 00e6 9E1B     		subs	r6, r3, r6
 1830 00e8 9E42     		cmp	r6, r3
 1831 00ea B8BF     		it	lt
 1832 00ec 1E46     		movlt	r6, r3
 443:Middlewares/lvgl/src/widgets/lv_img.c ****             *s = LV_MAX(*s, pad_ori - a.y1);
 1833              		.loc 1 443 16 view .LVU646
 1834 00ee 36B2     		sxth	r6, r6
 1835 00f0 2680     		strh	r6, [r4]	@ movhi
 444:Middlewares/lvgl/src/widgets/lv_img.c ****             *s = LV_MAX(*s, pad_ori + a.x2 - w);
 1836              		.loc 1 444 13 is_stmt 1 view .LVU647
 444:Middlewares/lvgl/src/widgets/lv_img.c ****             *s = LV_MAX(*s, pad_ori + a.x2 - w);
 1837              		.loc 1 444 18 is_stmt 0 view .LVU648
 1838 00f2 BDF90A20 		ldrsh	r2, [sp, #10]
 1839 00f6 991A     		subs	r1, r3, r2
 1840 00f8 B142     		cmp	r1, r6
 1841 00fa B8BF     		it	lt
 1842 00fc 3146     		movlt	r1, r6
 444:Middlewares/lvgl/src/widgets/lv_img.c ****             *s = LV_MAX(*s, pad_ori + a.x2 - w);
 1843              		.loc 1 444 16 view .LVU649
 1844 00fe 0EB2     		sxth	r6, r1
 1845 0100 2680     		strh	r6, [r4]	@ movhi
 445:Middlewares/lvgl/src/widgets/lv_img.c ****             *s = LV_MAX(*s, pad_ori + a.y2 - h);
 1846              		.loc 1 445 13 is_stmt 1 view .LVU650
 445:Middlewares/lvgl/src/widgets/lv_img.c ****             *s = LV_MAX(*s, pad_ori + a.y2 - h);
 1847              		.loc 1 445 18 is_stmt 0 view .LVU651
 1848 0102 BDF90C20 		ldrsh	r2, [sp, #12]
 1849 0106 1A44     		add	r2, r2, r3
 1850 0108 D11B     		subs	r1, r2, r7
 1851 010a B142     		cmp	r1, r6
 1852 010c B8BF     		it	lt
 1853 010e 3146     		movlt	r1, r6
 445:Middlewares/lvgl/src/widgets/lv_img.c ****             *s = LV_MAX(*s, pad_ori + a.y2 - h);
 1854              		.loc 1 445 16 view .LVU652
 1855 0110 09B2     		sxth	r1, r1
 1856 0112 2180     		strh	r1, [r4]	@ movhi
 446:Middlewares/lvgl/src/widgets/lv_img.c ****         }
ARM GAS  /tmp/ccTUwwna.s 			page 64


 1857              		.loc 1 446 13 is_stmt 1 view .LVU653
 446:Middlewares/lvgl/src/widgets/lv_img.c ****         }
 1858              		.loc 1 446 18 is_stmt 0 view .LVU654
 1859 0114 BDF90E20 		ldrsh	r2, [sp, #14]
 1860 0118 1344     		add	r3, r3, r2
 1861              	.LVL174:
 446:Middlewares/lvgl/src/widgets/lv_img.c ****         }
 1862              		.loc 1 446 18 view .LVU655
 1863 011a 5B1B     		subs	r3, r3, r5
 1864 011c 8B42     		cmp	r3, r1
 1865 011e B8BF     		it	lt
 1866 0120 0B46     		movlt	r3, r1
 446:Middlewares/lvgl/src/widgets/lv_img.c ****         }
 1867              		.loc 1 446 16 view .LVU656
 1868 0122 2380     		strh	r3, [r4]	@ movhi
 1869 0124 95E7     		b	.L63
 1870              	.LVL175:
 1871              	.L79:
 446:Middlewares/lvgl/src/widgets/lv_img.c ****         }
 1872              		.loc 1 446 16 view .LVU657
 1873              	.LBE119:
 1874              	.LBE114:
 1875              	.LBB120:
 450:Middlewares/lvgl/src/widgets/lv_img.c ****         lv_coord_t zoom = lv_obj_get_style_transform_zoom(obj, LV_PART_MAIN);
 1876              		.loc 1 450 9 is_stmt 1 view .LVU658
 450:Middlewares/lvgl/src/widgets/lv_img.c ****         lv_coord_t zoom = lv_obj_get_style_transform_zoom(obj, LV_PART_MAIN);
 1877              		.loc 1 450 37 is_stmt 0 view .LVU659
 1878 0126 2846     		mov	r0, r5
 1879              	.LVL176:
 450:Middlewares/lvgl/src/widgets/lv_img.c ****         lv_coord_t zoom = lv_obj_get_style_transform_zoom(obj, LV_PART_MAIN);
 1880              		.loc 1 450 37 view .LVU660
 1881 0128 FFF7FEFF 		bl	lv_event_get_param
 1882              	.LVL177:
 1883 012c 0546     		mov	r5, r0
 1884              	.LVL178:
 451:Middlewares/lvgl/src/widgets/lv_img.c ****         zoom = (zoom * img->zoom) >> 8;
 1885              		.loc 1 451 9 is_stmt 1 view .LVU661
 1886              	.LBB121:
 1887              	.LBI121:
  79:Middlewares/lvgl/src/widgets/../core/lv_obj_style_gen.h **** {
 1888              		.loc 2 79 26 view .LVU662
 1889              	.LBB122:
  81:Middlewares/lvgl/src/widgets/../core/lv_obj_style_gen.h ****     return (lv_coord_t)v.num;
 1890              		.loc 2 81 5 view .LVU663
  81:Middlewares/lvgl/src/widgets/../core/lv_obj_style_gen.h ****     return (lv_coord_t)v.num;
 1891              		.loc 2 81 26 is_stmt 0 view .LVU664
 1892 012e 40F60E02 		movw	r2, #2062
 1893 0132 0021     		movs	r1, #0
 1894 0134 3046     		mov	r0, r6
 1895              	.LVL179:
  81:Middlewares/lvgl/src/widgets/../core/lv_obj_style_gen.h ****     return (lv_coord_t)v.num;
 1896              		.loc 2 81 26 view .LVU665
 1897 0136 FFF7FEFF 		bl	lv_obj_get_style_prop
 1898              	.LVL180:
  82:Middlewares/lvgl/src/widgets/../core/lv_obj_style_gen.h **** }
 1899              		.loc 2 82 5 is_stmt 1 view .LVU666
  82:Middlewares/lvgl/src/widgets/../core/lv_obj_style_gen.h **** }
ARM GAS  /tmp/ccTUwwna.s 			page 65


 1900              		.loc 2 82 12 is_stmt 0 view .LVU667
 1901 013a 03B2     		sxth	r3, r0
 1902              	.LVL181:
  82:Middlewares/lvgl/src/widgets/../core/lv_obj_style_gen.h **** }
 1903              		.loc 2 82 12 view .LVU668
 1904              	.LBE122:
 1905              	.LBE121:
 452:Middlewares/lvgl/src/widgets/lv_img.c **** 
 1906              		.loc 1 452 9 is_stmt 1 view .LVU669
 452:Middlewares/lvgl/src/widgets/lv_img.c **** 
 1907              		.loc 1 452 27 is_stmt 0 view .LVU670
 1908 013c F08E     		ldrh	r0, [r6, #54]
 452:Middlewares/lvgl/src/widgets/lv_img.c **** 
 1909              		.loc 1 452 22 view .LVU671
 1910 013e 00FB03F3 		mul	r3, r0, r3
 1911              	.LVL182:
 452:Middlewares/lvgl/src/widgets/lv_img.c **** 
 1912              		.loc 1 452 35 view .LVU672
 1913 0142 4FEA2328 		asr	r8, r3, #8
 452:Middlewares/lvgl/src/widgets/lv_img.c **** 
 1914              		.loc 1 452 14 view .LVU673
 1915 0146 43F30F24 		sbfx	r4, r3, #8, #16
 1916              	.LVL183:
 454:Middlewares/lvgl/src/widgets/lv_img.c ****         angle += img->angle;
 1917              		.loc 1 454 9 is_stmt 1 view .LVU674
 1918              	.LBB123:
 1919              	.LBI123:
  85:Middlewares/lvgl/src/widgets/../core/lv_obj_style_gen.h **** {
 1920              		.loc 2 85 26 view .LVU675
 1921              	.LBB124:
  87:Middlewares/lvgl/src/widgets/../core/lv_obj_style_gen.h ****     return (lv_coord_t)v.num;
 1922              		.loc 2 87 5 view .LVU676
  87:Middlewares/lvgl/src/widgets/../core/lv_obj_style_gen.h ****     return (lv_coord_t)v.num;
 1923              		.loc 2 87 26 is_stmt 0 view .LVU677
 1924 014a 40F60F02 		movw	r2, #2063
 1925 014e 0021     		movs	r1, #0
 1926 0150 3046     		mov	r0, r6
 1927 0152 FFF7FEFF 		bl	lv_obj_get_style_prop
 1928              	.LVL184:
  88:Middlewares/lvgl/src/widgets/../core/lv_obj_style_gen.h **** }
 1929              		.loc 2 88 5 is_stmt 1 view .LVU678
  88:Middlewares/lvgl/src/widgets/../core/lv_obj_style_gen.h **** }
 1930              		.loc 2 88 5 is_stmt 0 view .LVU679
 1931              	.LBE124:
 1932              	.LBE123:
 455:Middlewares/lvgl/src/widgets/lv_img.c **** 
 1933              		.loc 1 455 9 is_stmt 1 view .LVU680
 455:Middlewares/lvgl/src/widgets/lv_img.c **** 
 1934              		.loc 1 455 21 is_stmt 0 view .LVU681
 1935 0156 338E     		ldrh	r3, [r6, #48]
 455:Middlewares/lvgl/src/widgets/lv_img.c **** 
 1936              		.loc 1 455 15 view .LVU682
 1937 0158 0344     		add	r3, r3, r0
 1938 015a 1FB2     		sxth	r7, r3
 1939              	.LVL185:
 459:Middlewares/lvgl/src/widgets/lv_img.c ****                 (zoom != LV_IMG_ZOOM_NONE || angle != 0 || img->pivot.x != img->w / 2 || img->pivot
 1940              		.loc 1 459 9 is_stmt 1 view .LVU683
ARM GAS  /tmp/ccTUwwna.s 			page 66


 459:Middlewares/lvgl/src/widgets/lv_img.c ****                 (zoom != LV_IMG_ZOOM_NONE || angle != 0 || img->pivot.x != img->w / 2 || img->pivot
 1941              		.loc 1 459 15 is_stmt 0 view .LVU684
 1942 015c B6F92C90 		ldrsh	r9, [r6, #44]
 459:Middlewares/lvgl/src/widgets/lv_img.c ****                 (zoom != LV_IMG_ZOOM_NONE || angle != 0 || img->pivot.x != img->w / 2 || img->pivot
 1943              		.loc 1 459 22 view .LVU685
 1944 0160 3046     		mov	r0, r6
 1945 0162 FFF7FEFF 		bl	lv_obj_get_width
 1946              	.LVL186:
 459:Middlewares/lvgl/src/widgets/lv_img.c ****                 (zoom != LV_IMG_ZOOM_NONE || angle != 0 || img->pivot.x != img->w / 2 || img->pivot
 1947              		.loc 1 459 11 view .LVU686
 1948 0166 8145     		cmp	r9, r0
 1949 0168 0AD0     		beq	.L82
 1950              	.L71:
 1951              	.LBB125:
 474:Middlewares/lvgl/src/widgets/lv_img.c ****             lv_obj_get_click_area(obj, &a);
 1952              		.loc 1 474 13 is_stmt 1 discriminator 5 view .LVU687
 475:Middlewares/lvgl/src/widgets/lv_img.c ****             info->res = _lv_area_is_point_on(&a, info->point, 0);
 1953              		.loc 1 475 13 discriminator 5 view .LVU688
 1954 016a 02A9     		add	r1, sp, #8
 1955 016c 3046     		mov	r0, r6
 1956 016e FFF7FEFF 		bl	lv_obj_get_click_area
 1957              	.LVL187:
 476:Middlewares/lvgl/src/widgets/lv_img.c ****         }
 1958              		.loc 1 476 13 discriminator 5 view .LVU689
 476:Middlewares/lvgl/src/widgets/lv_img.c ****         }
 1959              		.loc 1 476 25 is_stmt 0 discriminator 5 view .LVU690
 1960 0172 0022     		movs	r2, #0
 1961 0174 2968     		ldr	r1, [r5]
 1962 0176 02A8     		add	r0, sp, #8
 1963 0178 FFF7FEFF 		bl	_lv_area_is_point_on
 1964              	.LVL188:
 476:Middlewares/lvgl/src/widgets/lv_img.c ****         }
 1965              		.loc 1 476 23 discriminator 5 view .LVU691
 1966 017c 2871     		strb	r0, [r5, #4]
 1967 017e 68E7     		b	.L63
 1968              	.L82:
 476:Middlewares/lvgl/src/widgets/lv_img.c ****         }
 1969              		.loc 1 476 23 discriminator 5 view .LVU692
 1970              	.LBE125:
 459:Middlewares/lvgl/src/widgets/lv_img.c ****                 (zoom != LV_IMG_ZOOM_NONE || angle != 0 || img->pivot.x != img->w / 2 || img->pivot
 1971              		.loc 1 459 50 discriminator 1 view .LVU693
 1972 0180 B6F92E90 		ldrsh	r9, [r6, #46]
 459:Middlewares/lvgl/src/widgets/lv_img.c ****                 (zoom != LV_IMG_ZOOM_NONE || angle != 0 || img->pivot.x != img->w / 2 || img->pivot
 1973              		.loc 1 459 57 discriminator 1 view .LVU694
 1974 0184 3046     		mov	r0, r6
 1975 0186 FFF7FEFF 		bl	lv_obj_get_height
 1976              	.LVL189:
 459:Middlewares/lvgl/src/widgets/lv_img.c ****                 (zoom != LV_IMG_ZOOM_NONE || angle != 0 || img->pivot.x != img->w / 2 || img->pivot
 1977              		.loc 1 459 44 discriminator 1 view .LVU695
 1978 018a 8145     		cmp	r9, r0
 1979 018c EDD1     		bne	.L71
 459:Middlewares/lvgl/src/widgets/lv_img.c ****                 (zoom != LV_IMG_ZOOM_NONE || angle != 0 || img->pivot.x != img->w / 2 || img->pivot
 1980              		.loc 1 459 80 discriminator 2 view .LVU696
 1981 018e B4F5807F 		cmp	r4, #256
 1982 0192 09D1     		bne	.L72
 460:Middlewares/lvgl/src/widgets/lv_img.c **** 
 1983              		.loc 1 460 43 view .LVU697
ARM GAS  /tmp/ccTUwwna.s 			page 67


 1984 0194 47B9     		cbnz	r7, .L72
 460:Middlewares/lvgl/src/widgets/lv_img.c **** 
 1985              		.loc 1 460 70 discriminator 1 view .LVU698
 1986 0196 B6F93220 		ldrsh	r2, [r6, #50]
 460:Middlewares/lvgl/src/widgets/lv_img.c **** 
 1987              		.loc 1 460 79 discriminator 1 view .LVU699
 1988 019a B6F92C30 		ldrsh	r3, [r6, #44]
 460:Middlewares/lvgl/src/widgets/lv_img.c **** 
 1989              		.loc 1 460 73 discriminator 1 view .LVU700
 1990 019e 03EBD373 		add	r3, r3, r3, lsr #31
 460:Middlewares/lvgl/src/widgets/lv_img.c **** 
 1991              		.loc 1 460 57 discriminator 1 view .LVU701
 1992 01a2 B2EB630F 		cmp	r2, r3, asr #1
 1993 01a6 2FD0     		beq	.L83
 1994              	.L72:
 1995              	.LBB126:
 462:Middlewares/lvgl/src/widgets/lv_img.c ****             lv_coord_t h = lv_obj_get_height(obj);
 1996              		.loc 1 462 13 is_stmt 1 view .LVU702
 462:Middlewares/lvgl/src/widgets/lv_img.c ****             lv_coord_t h = lv_obj_get_height(obj);
 1997              		.loc 1 462 28 is_stmt 0 view .LVU703
 1998 01a8 3046     		mov	r0, r6
 1999 01aa FFF7FEFF 		bl	lv_obj_get_width
 2000              	.LVL190:
 2001 01ae 0446     		mov	r4, r0
 2002              	.LVL191:
 463:Middlewares/lvgl/src/widgets/lv_img.c ****             lv_area_t coords;
 2003              		.loc 1 463 13 is_stmt 1 view .LVU704
 463:Middlewares/lvgl/src/widgets/lv_img.c ****             lv_area_t coords;
 2004              		.loc 1 463 28 is_stmt 0 view .LVU705
 2005 01b0 3046     		mov	r0, r6
 2006 01b2 FFF7FEFF 		bl	lv_obj_get_height
 2007              	.LVL192:
 2008 01b6 0246     		mov	r2, r0
 2009              	.LVL193:
 464:Middlewares/lvgl/src/widgets/lv_img.c ****             _lv_img_buf_get_transformed_area(&coords, w, h, angle, zoom, &img->pivot);
 2010              		.loc 1 464 13 is_stmt 1 view .LVU706
 465:Middlewares/lvgl/src/widgets/lv_img.c ****             coords.x1 += obj->coords.x1;
 2011              		.loc 1 465 13 view .LVU707
 465:Middlewares/lvgl/src/widgets/lv_img.c ****             coords.x1 += obj->coords.x1;
 2012              		.loc 1 465 74 is_stmt 0 view .LVU708
 2013 01b8 06F13203 		add	r3, r6, #50
 465:Middlewares/lvgl/src/widgets/lv_img.c ****             coords.x1 += obj->coords.x1;
 2014              		.loc 1 465 13 view .LVU709
 2015 01bc 0193     		str	r3, [sp, #4]
 2016 01be 1FFA88F3 		uxth	r3, r8
 2017 01c2 0093     		str	r3, [sp]
 2018 01c4 3B46     		mov	r3, r7
 2019 01c6 2146     		mov	r1, r4
 2020 01c8 02A8     		add	r0, sp, #8
 2021 01ca FFF7FEFF 		bl	_lv_img_buf_get_transformed_area
 2022              	.LVL194:
 466:Middlewares/lvgl/src/widgets/lv_img.c ****             coords.y1 += obj->coords.y1;
 2023              		.loc 1 466 13 is_stmt 1 view .LVU710
 466:Middlewares/lvgl/src/widgets/lv_img.c ****             coords.y1 += obj->coords.y1;
 2024              		.loc 1 466 37 is_stmt 0 view .LVU711
 2025 01ce B28A     		ldrh	r2, [r6, #20]
 466:Middlewares/lvgl/src/widgets/lv_img.c ****             coords.y1 += obj->coords.y1;
ARM GAS  /tmp/ccTUwwna.s 			page 68


 2026              		.loc 1 466 23 view .LVU712
 2027 01d0 BDF80830 		ldrh	r3, [sp, #8]
 2028 01d4 1344     		add	r3, r3, r2
 2029 01d6 ADF80830 		strh	r3, [sp, #8]	@ movhi
 467:Middlewares/lvgl/src/widgets/lv_img.c ****             coords.x2 += obj->coords.x1;
 2030              		.loc 1 467 13 is_stmt 1 view .LVU713
 467:Middlewares/lvgl/src/widgets/lv_img.c ****             coords.x2 += obj->coords.x1;
 2031              		.loc 1 467 37 is_stmt 0 view .LVU714
 2032 01da F38A     		ldrh	r3, [r6, #22]
 467:Middlewares/lvgl/src/widgets/lv_img.c ****             coords.x2 += obj->coords.x1;
 2033              		.loc 1 467 23 view .LVU715
 2034 01dc BDF80A10 		ldrh	r1, [sp, #10]
 2035 01e0 1944     		add	r1, r1, r3
 2036 01e2 ADF80A10 		strh	r1, [sp, #10]	@ movhi
 468:Middlewares/lvgl/src/widgets/lv_img.c ****             coords.y2 += obj->coords.y1;
 2037              		.loc 1 468 13 is_stmt 1 view .LVU716
 468:Middlewares/lvgl/src/widgets/lv_img.c ****             coords.y2 += obj->coords.y1;
 2038              		.loc 1 468 23 is_stmt 0 view .LVU717
 2039 01e6 BDF80C10 		ldrh	r1, [sp, #12]
 2040 01ea 0A44     		add	r2, r2, r1
 2041 01ec ADF80C20 		strh	r2, [sp, #12]	@ movhi
 469:Middlewares/lvgl/src/widgets/lv_img.c **** 
 2042              		.loc 1 469 13 is_stmt 1 view .LVU718
 469:Middlewares/lvgl/src/widgets/lv_img.c **** 
 2043              		.loc 1 469 23 is_stmt 0 view .LVU719
 2044 01f0 BDF80E20 		ldrh	r2, [sp, #14]
 2045 01f4 1344     		add	r3, r3, r2
 2046 01f6 ADF80E30 		strh	r3, [sp, #14]	@ movhi
 471:Middlewares/lvgl/src/widgets/lv_img.c ****         }
 2047              		.loc 1 471 13 is_stmt 1 view .LVU720
 471:Middlewares/lvgl/src/widgets/lv_img.c ****         }
 2048              		.loc 1 471 25 is_stmt 0 view .LVU721
 2049 01fa 0022     		movs	r2, #0
 2050 01fc 2968     		ldr	r1, [r5]
 2051 01fe 02A8     		add	r0, sp, #8
 2052 0200 FFF7FEFF 		bl	_lv_area_is_point_on
 2053              	.LVL195:
 471:Middlewares/lvgl/src/widgets/lv_img.c ****         }
 2054              		.loc 1 471 23 view .LVU722
 2055 0204 2871     		strb	r0, [r5, #4]
 2056              	.LBE126:
 460:Middlewares/lvgl/src/widgets/lv_img.c **** 
 2057              		.loc 1 460 119 view .LVU723
 2058 0206 24E7     		b	.L63
 2059              	.LVL196:
 2060              	.L83:
 460:Middlewares/lvgl/src/widgets/lv_img.c **** 
 2061              		.loc 1 460 100 discriminator 2 view .LVU724
 2062 0208 B6F93420 		ldrsh	r2, [r6, #52]
 460:Middlewares/lvgl/src/widgets/lv_img.c **** 
 2063              		.loc 1 460 109 discriminator 2 view .LVU725
 2064 020c B6F92E30 		ldrsh	r3, [r6, #46]
 460:Middlewares/lvgl/src/widgets/lv_img.c **** 
 2065              		.loc 1 460 103 discriminator 2 view .LVU726
 2066 0210 03EBD373 		add	r3, r3, r3, lsr #31
 460:Middlewares/lvgl/src/widgets/lv_img.c **** 
 2067              		.loc 1 460 87 discriminator 2 view .LVU727
ARM GAS  /tmp/ccTUwwna.s 			page 69


 2068 0214 B2EB630F 		cmp	r2, r3, asr #1
 2069 0218 C6D1     		bne	.L72
 2070 021a A6E7     		b	.L71
 2071              	.LVL197:
 2072              	.L80:
 460:Middlewares/lvgl/src/widgets/lv_img.c **** 
 2073              		.loc 1 460 87 discriminator 2 view .LVU728
 2074              	.LBE120:
 2075              	.LBB127:
 480:Middlewares/lvgl/src/widgets/lv_img.c ****         p->x = img->w;
 2076              		.loc 1 480 9 is_stmt 1 view .LVU729
 480:Middlewares/lvgl/src/widgets/lv_img.c ****         p->x = img->w;
 2077              		.loc 1 480 26 is_stmt 0 view .LVU730
 2078 021c 2846     		mov	r0, r5
 2079              	.LVL198:
 480:Middlewares/lvgl/src/widgets/lv_img.c ****         p->x = img->w;
 2080              		.loc 1 480 26 view .LVU731
 2081 021e FFF7FEFF 		bl	lv_event_get_param
 2082              	.LVL199:
 480:Middlewares/lvgl/src/widgets/lv_img.c ****         p->x = img->w;
 2083              		.loc 1 480 48 is_stmt 1 view .LVU732
 481:Middlewares/lvgl/src/widgets/lv_img.c ****         p->y = img->h;
 2084              		.loc 1 481 9 view .LVU733
 481:Middlewares/lvgl/src/widgets/lv_img.c ****         p->y = img->h;
 2085              		.loc 1 481 19 is_stmt 0 view .LVU734
 2086 0222 B6F92C30 		ldrsh	r3, [r6, #44]
 481:Middlewares/lvgl/src/widgets/lv_img.c ****         p->y = img->h;
 2087              		.loc 1 481 14 view .LVU735
 2088 0226 0380     		strh	r3, [r0]	@ movhi
 482:Middlewares/lvgl/src/widgets/lv_img.c ****     }
 2089              		.loc 1 482 9 is_stmt 1 view .LVU736
 482:Middlewares/lvgl/src/widgets/lv_img.c ****     }
 2090              		.loc 1 482 19 is_stmt 0 view .LVU737
 2091 0228 B6F92E30 		ldrsh	r3, [r6, #46]
 482:Middlewares/lvgl/src/widgets/lv_img.c ****     }
 2092              		.loc 1 482 14 view .LVU738
 2093 022c 4380     		strh	r3, [r0, #2]	@ movhi
 2094              	.LBE127:
 2095 022e 10E7     		b	.L63
 2096              	.L85:
 2097              		.align	2
 2098              	.L84:
 2099 0230 00000000 		.word	.LANCHOR0
 2100              		.cfi_endproc
 2101              	.LFE164:
 2103              		.section	.text.lv_img_set_offset_x,"ax",%progbits
 2104              		.align	1
 2105              		.global	lv_img_set_offset_x
 2106              		.syntax unified
 2107              		.thumb
 2108              		.thumb_func
 2109              		.fpu softvfp
 2111              	lv_img_set_offset_x:
 2112              	.LVL200:
 2113              	.LFB149:
 163:Middlewares/lvgl/src/widgets/lv_img.c ****     LV_ASSERT_OBJ(obj, MY_CLASS);
