ARM GAS  /tmp/ccHFiCt0.s 			page 1


   1              		.cpu cortex-m3
   2              		.eabi_attribute 20, 1
   3              		.eabi_attribute 21, 1
   4              		.eabi_attribute 23, 3
   5              		.eabi_attribute 24, 1
   6              		.eabi_attribute 25, 1
   7              		.eabi_attribute 26, 1
   8              		.eabi_attribute 30, 1
   9              		.eabi_attribute 34, 1
  10              		.eabi_attribute 18, 4
  11              		.file	"lv_indev_scroll.c"
  12              		.text
  13              	.Ltext0:
  14              		.cfi_sections	.debug_frame
  15              		.section	.text.scroll_limit_diff,"ax",%progbits
  16              		.align	1
  17              		.arch armv7-m
  18              		.syntax unified
  19              		.thumb
  20              		.thumb_func
  21              		.fpu softvfp
  23              	scroll_limit_diff:
  24              	.LVL0:
  25              	.LFB155:
  26              		.file 1 "Middlewares/lvgl/src/core/lv_indev_scroll.c"
   1:Middlewares/lvgl/src/core/lv_indev_scroll.c **** /**
   2:Middlewares/lvgl/src/core/lv_indev_scroll.c ****  * @file lv_indev_scroll.c
   3:Middlewares/lvgl/src/core/lv_indev_scroll.c ****  *
   4:Middlewares/lvgl/src/core/lv_indev_scroll.c ****  */
   5:Middlewares/lvgl/src/core/lv_indev_scroll.c **** 
   6:Middlewares/lvgl/src/core/lv_indev_scroll.c **** /*********************
   7:Middlewares/lvgl/src/core/lv_indev_scroll.c ****  *      INCLUDES
   8:Middlewares/lvgl/src/core/lv_indev_scroll.c ****  *********************/
   9:Middlewares/lvgl/src/core/lv_indev_scroll.c **** #include "lv_indev.h"
  10:Middlewares/lvgl/src/core/lv_indev_scroll.c **** #include "lv_indev_scroll.h"
  11:Middlewares/lvgl/src/core/lv_indev_scroll.c **** 
  12:Middlewares/lvgl/src/core/lv_indev_scroll.c **** /*********************
  13:Middlewares/lvgl/src/core/lv_indev_scroll.c ****  *      DEFINES
  14:Middlewares/lvgl/src/core/lv_indev_scroll.c ****  *********************/
  15:Middlewares/lvgl/src/core/lv_indev_scroll.c **** #define ELASTIC_SLOWNESS_FACTOR 4   /*Scrolling on elastic parts are slower by this factor*/
  16:Middlewares/lvgl/src/core/lv_indev_scroll.c **** 
  17:Middlewares/lvgl/src/core/lv_indev_scroll.c **** /**********************
  18:Middlewares/lvgl/src/core/lv_indev_scroll.c ****  *      TYPEDEFS
  19:Middlewares/lvgl/src/core/lv_indev_scroll.c ****  **********************/
  20:Middlewares/lvgl/src/core/lv_indev_scroll.c **** 
  21:Middlewares/lvgl/src/core/lv_indev_scroll.c **** /**********************
  22:Middlewares/lvgl/src/core/lv_indev_scroll.c ****  *  STATIC PROTOTYPES
  23:Middlewares/lvgl/src/core/lv_indev_scroll.c ****  **********************/
  24:Middlewares/lvgl/src/core/lv_indev_scroll.c **** static lv_obj_t * find_scroll_obj(_lv_indev_proc_t * proc);
  25:Middlewares/lvgl/src/core/lv_indev_scroll.c **** static void init_scroll_limits(_lv_indev_proc_t * proc);
  26:Middlewares/lvgl/src/core/lv_indev_scroll.c **** static lv_coord_t find_snap_point_x(const lv_obj_t * obj, lv_coord_t min, lv_coord_t max, lv_coord_
  27:Middlewares/lvgl/src/core/lv_indev_scroll.c **** static lv_coord_t find_snap_point_y(const lv_obj_t * obj, lv_coord_t min, lv_coord_t max, lv_coord_
  28:Middlewares/lvgl/src/core/lv_indev_scroll.c **** static void scroll_limit_diff(_lv_indev_proc_t * proc, lv_coord_t * diff_x, lv_coord_t * diff_y);
  29:Middlewares/lvgl/src/core/lv_indev_scroll.c **** static lv_coord_t scroll_throw_predict_y(_lv_indev_proc_t * proc);
  30:Middlewares/lvgl/src/core/lv_indev_scroll.c **** static lv_coord_t scroll_throw_predict_x(_lv_indev_proc_t * proc);
  31:Middlewares/lvgl/src/core/lv_indev_scroll.c **** static lv_coord_t elastic_diff(lv_obj_t * scroll_obj, lv_coord_t diff, lv_coord_t scroll_start, lv_
  32:Middlewares/lvgl/src/core/lv_indev_scroll.c **** 
ARM GAS  /tmp/ccHFiCt0.s 			page 2


  33:Middlewares/lvgl/src/core/lv_indev_scroll.c **** /**********************
  34:Middlewares/lvgl/src/core/lv_indev_scroll.c ****  *  STATIC VARIABLES
  35:Middlewares/lvgl/src/core/lv_indev_scroll.c ****  **********************/
  36:Middlewares/lvgl/src/core/lv_indev_scroll.c **** 
  37:Middlewares/lvgl/src/core/lv_indev_scroll.c **** /**********************
  38:Middlewares/lvgl/src/core/lv_indev_scroll.c ****  *      MACROS
  39:Middlewares/lvgl/src/core/lv_indev_scroll.c ****  **********************/
  40:Middlewares/lvgl/src/core/lv_indev_scroll.c **** 
  41:Middlewares/lvgl/src/core/lv_indev_scroll.c **** /**********************
  42:Middlewares/lvgl/src/core/lv_indev_scroll.c ****  *   GLOBAL FUNCTIONS
  43:Middlewares/lvgl/src/core/lv_indev_scroll.c ****  **********************/
  44:Middlewares/lvgl/src/core/lv_indev_scroll.c **** 
  45:Middlewares/lvgl/src/core/lv_indev_scroll.c **** void _lv_indev_scroll_handler(_lv_indev_proc_t * proc)
  46:Middlewares/lvgl/src/core/lv_indev_scroll.c **** {
  47:Middlewares/lvgl/src/core/lv_indev_scroll.c ****     lv_obj_t * scroll_obj = proc->types.pointer.scroll_obj;
  48:Middlewares/lvgl/src/core/lv_indev_scroll.c ****     /*If there is no scroll object yet try to find one*/
  49:Middlewares/lvgl/src/core/lv_indev_scroll.c ****     if(scroll_obj == NULL) {
  50:Middlewares/lvgl/src/core/lv_indev_scroll.c ****         proc->types.pointer.scroll_sum.x += proc->types.pointer.vect.x;
  51:Middlewares/lvgl/src/core/lv_indev_scroll.c ****         proc->types.pointer.scroll_sum.y += proc->types.pointer.vect.y;
  52:Middlewares/lvgl/src/core/lv_indev_scroll.c **** 
  53:Middlewares/lvgl/src/core/lv_indev_scroll.c ****         scroll_obj = find_scroll_obj(proc);
  54:Middlewares/lvgl/src/core/lv_indev_scroll.c ****         if(scroll_obj == NULL) return;
  55:Middlewares/lvgl/src/core/lv_indev_scroll.c **** 
  56:Middlewares/lvgl/src/core/lv_indev_scroll.c ****         init_scroll_limits(proc);
  57:Middlewares/lvgl/src/core/lv_indev_scroll.c **** 
  58:Middlewares/lvgl/src/core/lv_indev_scroll.c ****         lv_event_send(scroll_obj, LV_EVENT_SCROLL_BEGIN, NULL);
  59:Middlewares/lvgl/src/core/lv_indev_scroll.c ****         if(proc->reset_query) return;
  60:Middlewares/lvgl/src/core/lv_indev_scroll.c ****     }
  61:Middlewares/lvgl/src/core/lv_indev_scroll.c **** 
  62:Middlewares/lvgl/src/core/lv_indev_scroll.c ****     /*Set new position or scroll if the vector is not zero*/
  63:Middlewares/lvgl/src/core/lv_indev_scroll.c ****     if(proc->types.pointer.vect.x != 0 || proc->types.pointer.vect.y != 0) {
  64:Middlewares/lvgl/src/core/lv_indev_scroll.c ****         lv_coord_t diff_x = 0;
  65:Middlewares/lvgl/src/core/lv_indev_scroll.c ****         lv_coord_t diff_y = 0;
  66:Middlewares/lvgl/src/core/lv_indev_scroll.c **** 
  67:Middlewares/lvgl/src/core/lv_indev_scroll.c ****         if(proc->types.pointer.scroll_dir == LV_DIR_HOR) {
  68:Middlewares/lvgl/src/core/lv_indev_scroll.c ****             lv_coord_t sr = lv_obj_get_scroll_right(scroll_obj);
  69:Middlewares/lvgl/src/core/lv_indev_scroll.c ****             lv_coord_t sl = lv_obj_get_scroll_left(scroll_obj);
  70:Middlewares/lvgl/src/core/lv_indev_scroll.c ****             diff_x = elastic_diff(scroll_obj, proc->types.pointer.vect.x, sl, sr, LV_DIR_HOR);
  71:Middlewares/lvgl/src/core/lv_indev_scroll.c ****         } else {
  72:Middlewares/lvgl/src/core/lv_indev_scroll.c ****             lv_coord_t st = lv_obj_get_scroll_top(scroll_obj);
  73:Middlewares/lvgl/src/core/lv_indev_scroll.c ****             lv_coord_t sb = lv_obj_get_scroll_bottom(scroll_obj);
  74:Middlewares/lvgl/src/core/lv_indev_scroll.c ****             diff_y = elastic_diff(scroll_obj, proc->types.pointer.vect.y, st, sb, LV_DIR_VER);
  75:Middlewares/lvgl/src/core/lv_indev_scroll.c ****         }
  76:Middlewares/lvgl/src/core/lv_indev_scroll.c **** 
  77:Middlewares/lvgl/src/core/lv_indev_scroll.c ****         lv_dir_t scroll_dir = lv_obj_get_scroll_dir(scroll_obj);
  78:Middlewares/lvgl/src/core/lv_indev_scroll.c ****         if((scroll_dir & LV_DIR_LEFT)   == 0 && diff_x > 0) diff_x = 0;
  79:Middlewares/lvgl/src/core/lv_indev_scroll.c ****         if((scroll_dir & LV_DIR_RIGHT)  == 0 && diff_x < 0) diff_x = 0;
  80:Middlewares/lvgl/src/core/lv_indev_scroll.c ****         if((scroll_dir & LV_DIR_TOP)    == 0 && diff_y > 0) diff_y = 0;
  81:Middlewares/lvgl/src/core/lv_indev_scroll.c ****         if((scroll_dir & LV_DIR_BOTTOM) == 0 && diff_y < 0) diff_y = 0;
  82:Middlewares/lvgl/src/core/lv_indev_scroll.c **** 
  83:Middlewares/lvgl/src/core/lv_indev_scroll.c ****         /*Respect the scroll limit area*/
  84:Middlewares/lvgl/src/core/lv_indev_scroll.c ****         scroll_limit_diff(proc, &diff_x, &diff_y);
  85:Middlewares/lvgl/src/core/lv_indev_scroll.c **** 
  86:Middlewares/lvgl/src/core/lv_indev_scroll.c ****         lv_obj_scroll_by(scroll_obj, diff_x, diff_y, LV_ANIM_OFF);
  87:Middlewares/lvgl/src/core/lv_indev_scroll.c ****         proc->types.pointer.scroll_sum.x += diff_x;
  88:Middlewares/lvgl/src/core/lv_indev_scroll.c ****         proc->types.pointer.scroll_sum.y += diff_y;
  89:Middlewares/lvgl/src/core/lv_indev_scroll.c ****     }
ARM GAS  /tmp/ccHFiCt0.s 			page 3


  90:Middlewares/lvgl/src/core/lv_indev_scroll.c **** }
  91:Middlewares/lvgl/src/core/lv_indev_scroll.c **** 
  92:Middlewares/lvgl/src/core/lv_indev_scroll.c **** 
  93:Middlewares/lvgl/src/core/lv_indev_scroll.c **** void _lv_indev_scroll_throw_handler(_lv_indev_proc_t * proc)
  94:Middlewares/lvgl/src/core/lv_indev_scroll.c **** {
  95:Middlewares/lvgl/src/core/lv_indev_scroll.c ****     lv_obj_t * scroll_obj = proc->types.pointer.scroll_obj;
  96:Middlewares/lvgl/src/core/lv_indev_scroll.c ****     if(scroll_obj == NULL) return;
  97:Middlewares/lvgl/src/core/lv_indev_scroll.c ****     if(proc->types.pointer.scroll_dir == LV_DIR_NONE) return;
  98:Middlewares/lvgl/src/core/lv_indev_scroll.c **** 
  99:Middlewares/lvgl/src/core/lv_indev_scroll.c **** 
 100:Middlewares/lvgl/src/core/lv_indev_scroll.c ****     lv_indev_t * indev_act = lv_indev_get_act();
 101:Middlewares/lvgl/src/core/lv_indev_scroll.c ****     lv_coord_t scroll_throw =  indev_act->driver->scroll_throw;
 102:Middlewares/lvgl/src/core/lv_indev_scroll.c **** 
 103:Middlewares/lvgl/src/core/lv_indev_scroll.c ****     if(lv_obj_has_flag(scroll_obj, LV_OBJ_FLAG_SCROLL_MOMENTUM) == false) {
 104:Middlewares/lvgl/src/core/lv_indev_scroll.c ****         proc->types.pointer.scroll_throw_vect.y = 0;
 105:Middlewares/lvgl/src/core/lv_indev_scroll.c ****         proc->types.pointer.scroll_throw_vect.x = 0;
 106:Middlewares/lvgl/src/core/lv_indev_scroll.c ****     }
 107:Middlewares/lvgl/src/core/lv_indev_scroll.c **** 
 108:Middlewares/lvgl/src/core/lv_indev_scroll.c ****     lv_scroll_snap_t align_x = lv_obj_get_scroll_snap_x(scroll_obj);
 109:Middlewares/lvgl/src/core/lv_indev_scroll.c ****     lv_scroll_snap_t align_y = lv_obj_get_scroll_snap_y(scroll_obj);
 110:Middlewares/lvgl/src/core/lv_indev_scroll.c **** 
 111:Middlewares/lvgl/src/core/lv_indev_scroll.c ****     if(proc->types.pointer.scroll_dir == LV_DIR_VER) {
 112:Middlewares/lvgl/src/core/lv_indev_scroll.c ****         proc->types.pointer.scroll_throw_vect.x = 0;
 113:Middlewares/lvgl/src/core/lv_indev_scroll.c ****         /*If no snapping "throw"*/
 114:Middlewares/lvgl/src/core/lv_indev_scroll.c ****         if(align_y == LV_SCROLL_SNAP_NONE) {
 115:Middlewares/lvgl/src/core/lv_indev_scroll.c ****             proc->types.pointer.scroll_throw_vect.y =
 116:Middlewares/lvgl/src/core/lv_indev_scroll.c ****                     proc->types.pointer.scroll_throw_vect.y * (100 - scroll_throw) / 100;
 117:Middlewares/lvgl/src/core/lv_indev_scroll.c **** 
 118:Middlewares/lvgl/src/core/lv_indev_scroll.c ****             lv_coord_t sb = lv_obj_get_scroll_bottom(scroll_obj);
 119:Middlewares/lvgl/src/core/lv_indev_scroll.c ****             lv_coord_t st = lv_obj_get_scroll_top(scroll_obj);
 120:Middlewares/lvgl/src/core/lv_indev_scroll.c **** 
 121:Middlewares/lvgl/src/core/lv_indev_scroll.c ****              proc->types.pointer.scroll_throw_vect.y = elastic_diff(scroll_obj, proc->types.pointer
 122:Middlewares/lvgl/src/core/lv_indev_scroll.c **** 
 123:Middlewares/lvgl/src/core/lv_indev_scroll.c ****             lv_obj_scroll_by(scroll_obj, 0, proc->types.pointer.scroll_throw_vect.y, LV_ANIM_OFF);
 124:Middlewares/lvgl/src/core/lv_indev_scroll.c ****         }
 125:Middlewares/lvgl/src/core/lv_indev_scroll.c ****         /*With snapping find the nearest snap point and scroll there*/
 126:Middlewares/lvgl/src/core/lv_indev_scroll.c ****         else {
 127:Middlewares/lvgl/src/core/lv_indev_scroll.c ****             lv_coord_t diff_y = scroll_throw_predict_y(proc);
 128:Middlewares/lvgl/src/core/lv_indev_scroll.c ****             proc->types.pointer.scroll_throw_vect.y = 0;
 129:Middlewares/lvgl/src/core/lv_indev_scroll.c ****             scroll_limit_diff(proc, NULL, &diff_y);
 130:Middlewares/lvgl/src/core/lv_indev_scroll.c ****             lv_coord_t y = find_snap_point_y(scroll_obj, LV_COORD_MIN, LV_COORD_MAX, diff_y);
 131:Middlewares/lvgl/src/core/lv_indev_scroll.c ****             lv_obj_scroll_by(scroll_obj, 0, diff_y + y, LV_ANIM_ON);
 132:Middlewares/lvgl/src/core/lv_indev_scroll.c ****         }
 133:Middlewares/lvgl/src/core/lv_indev_scroll.c ****     }
 134:Middlewares/lvgl/src/core/lv_indev_scroll.c ****     else if(proc->types.pointer.scroll_dir == LV_DIR_HOR) {
 135:Middlewares/lvgl/src/core/lv_indev_scroll.c ****         proc->types.pointer.scroll_throw_vect.y = 0;
 136:Middlewares/lvgl/src/core/lv_indev_scroll.c ****         /*If no snapping "throw"*/
 137:Middlewares/lvgl/src/core/lv_indev_scroll.c ****         if(align_x == LV_SCROLL_SNAP_NONE) {
 138:Middlewares/lvgl/src/core/lv_indev_scroll.c ****             proc->types.pointer.scroll_throw_vect.x =
 139:Middlewares/lvgl/src/core/lv_indev_scroll.c ****                     proc->types.pointer.scroll_throw_vect.x * (100 - scroll_throw) / 100;
 140:Middlewares/lvgl/src/core/lv_indev_scroll.c **** 
 141:Middlewares/lvgl/src/core/lv_indev_scroll.c ****             lv_coord_t sl = lv_obj_get_scroll_left(scroll_obj);
 142:Middlewares/lvgl/src/core/lv_indev_scroll.c ****             lv_coord_t sr = lv_obj_get_scroll_right(scroll_obj);
 143:Middlewares/lvgl/src/core/lv_indev_scroll.c **** 
 144:Middlewares/lvgl/src/core/lv_indev_scroll.c ****             proc->types.pointer.scroll_throw_vect.x = elastic_diff(scroll_obj, proc->types.pointer.
 145:Middlewares/lvgl/src/core/lv_indev_scroll.c **** 
 146:Middlewares/lvgl/src/core/lv_indev_scroll.c ****             lv_obj_scroll_by(scroll_obj, proc->types.pointer.scroll_throw_vect.x, 0, LV_ANIM_OFF);
ARM GAS  /tmp/ccHFiCt0.s 			page 4


 147:Middlewares/lvgl/src/core/lv_indev_scroll.c ****         }
 148:Middlewares/lvgl/src/core/lv_indev_scroll.c ****         /*With snapping find the nearest snap point and scroll there*/
 149:Middlewares/lvgl/src/core/lv_indev_scroll.c ****         else {
 150:Middlewares/lvgl/src/core/lv_indev_scroll.c ****             lv_coord_t diff_x = scroll_throw_predict_x(proc);
 151:Middlewares/lvgl/src/core/lv_indev_scroll.c ****             proc->types.pointer.scroll_throw_vect.x = 0;
 152:Middlewares/lvgl/src/core/lv_indev_scroll.c ****             scroll_limit_diff(proc, &diff_x, NULL);
 153:Middlewares/lvgl/src/core/lv_indev_scroll.c ****             lv_coord_t x = find_snap_point_x(scroll_obj, LV_COORD_MIN, LV_COORD_MAX, diff_x);
 154:Middlewares/lvgl/src/core/lv_indev_scroll.c ****             lv_obj_scroll_by(scroll_obj, x + diff_x, 0, LV_ANIM_ON);
 155:Middlewares/lvgl/src/core/lv_indev_scroll.c ****         }
 156:Middlewares/lvgl/src/core/lv_indev_scroll.c ****     }
 157:Middlewares/lvgl/src/core/lv_indev_scroll.c **** 
 158:Middlewares/lvgl/src/core/lv_indev_scroll.c ****     /*Check if the scroll has finished*/
 159:Middlewares/lvgl/src/core/lv_indev_scroll.c ****     if(proc->types.pointer.scroll_throw_vect.x == 0 && proc->types.pointer.scroll_throw_vect.y == 0
 160:Middlewares/lvgl/src/core/lv_indev_scroll.c ****         /*Revert if scrolled in*/
 161:Middlewares/lvgl/src/core/lv_indev_scroll.c ****         /*If vertically scrollable and not controlled by snap*/
 162:Middlewares/lvgl/src/core/lv_indev_scroll.c ****         if(align_y == LV_SCROLL_SNAP_NONE) {
 163:Middlewares/lvgl/src/core/lv_indev_scroll.c ****             lv_coord_t st = lv_obj_get_scroll_top(scroll_obj);
 164:Middlewares/lvgl/src/core/lv_indev_scroll.c ****             lv_coord_t sb = lv_obj_get_scroll_bottom(scroll_obj);
 165:Middlewares/lvgl/src/core/lv_indev_scroll.c ****             if(st > 0 || sb > 0) {
 166:Middlewares/lvgl/src/core/lv_indev_scroll.c ****                 if(st < 0) {
 167:Middlewares/lvgl/src/core/lv_indev_scroll.c ****                     lv_obj_scroll_by(scroll_obj, 0, st, LV_ANIM_ON);
 168:Middlewares/lvgl/src/core/lv_indev_scroll.c ****                 }
 169:Middlewares/lvgl/src/core/lv_indev_scroll.c ****                 else if(sb < 0) {
 170:Middlewares/lvgl/src/core/lv_indev_scroll.c ****                     lv_obj_scroll_by(scroll_obj, 0, -sb, LV_ANIM_ON);
 171:Middlewares/lvgl/src/core/lv_indev_scroll.c ****                 }
 172:Middlewares/lvgl/src/core/lv_indev_scroll.c ****             }
 173:Middlewares/lvgl/src/core/lv_indev_scroll.c ****         }
 174:Middlewares/lvgl/src/core/lv_indev_scroll.c **** 
 175:Middlewares/lvgl/src/core/lv_indev_scroll.c ****         /*If horizontally scrollable and not controlled by snap*/
 176:Middlewares/lvgl/src/core/lv_indev_scroll.c ****         if(align_x == LV_SCROLL_SNAP_NONE) {
 177:Middlewares/lvgl/src/core/lv_indev_scroll.c ****             lv_coord_t sl = lv_obj_get_scroll_left(scroll_obj);
 178:Middlewares/lvgl/src/core/lv_indev_scroll.c ****             lv_coord_t sr = lv_obj_get_scroll_right(scroll_obj);
 179:Middlewares/lvgl/src/core/lv_indev_scroll.c ****             if (sl > 0 || sr > 0) {
 180:Middlewares/lvgl/src/core/lv_indev_scroll.c ****                 if(sl < 0) {
 181:Middlewares/lvgl/src/core/lv_indev_scroll.c ****                     lv_obj_scroll_by(scroll_obj, sl, 0, LV_ANIM_ON);
 182:Middlewares/lvgl/src/core/lv_indev_scroll.c ****                 }
 183:Middlewares/lvgl/src/core/lv_indev_scroll.c ****                 else if(sr < 0) {
 184:Middlewares/lvgl/src/core/lv_indev_scroll.c ****                     lv_obj_scroll_by(scroll_obj, -sr, 0, LV_ANIM_ON);
 185:Middlewares/lvgl/src/core/lv_indev_scroll.c ****                 }
 186:Middlewares/lvgl/src/core/lv_indev_scroll.c ****             }
 187:Middlewares/lvgl/src/core/lv_indev_scroll.c ****         }
 188:Middlewares/lvgl/src/core/lv_indev_scroll.c **** 
 189:Middlewares/lvgl/src/core/lv_indev_scroll.c ****         lv_event_send(scroll_obj, LV_EVENT_SCROLL_END, indev_act);
 190:Middlewares/lvgl/src/core/lv_indev_scroll.c ****         if(proc->reset_query) return;
 191:Middlewares/lvgl/src/core/lv_indev_scroll.c **** 
 192:Middlewares/lvgl/src/core/lv_indev_scroll.c ****         proc->types.pointer.scroll_dir = LV_DIR_NONE;
 193:Middlewares/lvgl/src/core/lv_indev_scroll.c ****         proc->types.pointer.scroll_obj = NULL;
 194:Middlewares/lvgl/src/core/lv_indev_scroll.c ****     }
 195:Middlewares/lvgl/src/core/lv_indev_scroll.c **** }
 196:Middlewares/lvgl/src/core/lv_indev_scroll.c **** 
 197:Middlewares/lvgl/src/core/lv_indev_scroll.c **** /**
 198:Middlewares/lvgl/src/core/lv_indev_scroll.c ****  * Predict where would a scroll throw end
 199:Middlewares/lvgl/src/core/lv_indev_scroll.c ****  * @param indev pointer to an input device
 200:Middlewares/lvgl/src/core/lv_indev_scroll.c ****  * @param dir `LV_DIR_VER` or `LV_DIR_HOR`
 201:Middlewares/lvgl/src/core/lv_indev_scroll.c ****  * @return the difference compared to the current position when the throw would be finished
 202:Middlewares/lvgl/src/core/lv_indev_scroll.c ****  */
 203:Middlewares/lvgl/src/core/lv_indev_scroll.c **** lv_coord_t lv_indev_scroll_throw_predict(lv_indev_t * indev, lv_dir_t dir)
ARM GAS  /tmp/ccHFiCt0.s 			page 5


 204:Middlewares/lvgl/src/core/lv_indev_scroll.c **** {
 205:Middlewares/lvgl/src/core/lv_indev_scroll.c ****     if(indev == NULL) return 0;
 206:Middlewares/lvgl/src/core/lv_indev_scroll.c ****     lv_coord_t v;
 207:Middlewares/lvgl/src/core/lv_indev_scroll.c ****     switch(dir) {
 208:Middlewares/lvgl/src/core/lv_indev_scroll.c ****     case LV_DIR_VER:
 209:Middlewares/lvgl/src/core/lv_indev_scroll.c ****         v = indev->proc.types.pointer.scroll_throw_vect_ori.y;
 210:Middlewares/lvgl/src/core/lv_indev_scroll.c ****         break;
 211:Middlewares/lvgl/src/core/lv_indev_scroll.c ****     case LV_DIR_HOR:
 212:Middlewares/lvgl/src/core/lv_indev_scroll.c ****         v = indev->proc.types.pointer.scroll_throw_vect_ori.x;
 213:Middlewares/lvgl/src/core/lv_indev_scroll.c ****         break;
 214:Middlewares/lvgl/src/core/lv_indev_scroll.c ****     default:
 215:Middlewares/lvgl/src/core/lv_indev_scroll.c ****         return 0;
 216:Middlewares/lvgl/src/core/lv_indev_scroll.c ****     }
 217:Middlewares/lvgl/src/core/lv_indev_scroll.c **** 
 218:Middlewares/lvgl/src/core/lv_indev_scroll.c ****     lv_coord_t scroll_throw = indev->driver->scroll_throw;
 219:Middlewares/lvgl/src/core/lv_indev_scroll.c ****     lv_coord_t sum = 0;
 220:Middlewares/lvgl/src/core/lv_indev_scroll.c ****     while(v) {
 221:Middlewares/lvgl/src/core/lv_indev_scroll.c ****         sum += v;
 222:Middlewares/lvgl/src/core/lv_indev_scroll.c ****         v = v * (100 - scroll_throw) / 100;
 223:Middlewares/lvgl/src/core/lv_indev_scroll.c ****     }
 224:Middlewares/lvgl/src/core/lv_indev_scroll.c **** 
 225:Middlewares/lvgl/src/core/lv_indev_scroll.c ****     return sum;
 226:Middlewares/lvgl/src/core/lv_indev_scroll.c **** }
 227:Middlewares/lvgl/src/core/lv_indev_scroll.c **** 
 228:Middlewares/lvgl/src/core/lv_indev_scroll.c **** void lv_indev_scroll_get_snap_dist(lv_obj_t * obj, lv_point_t * p)
 229:Middlewares/lvgl/src/core/lv_indev_scroll.c **** {
 230:Middlewares/lvgl/src/core/lv_indev_scroll.c ****     p->x = find_snap_point_x(obj, obj->coords.x1, obj->coords.x2, 0);
 231:Middlewares/lvgl/src/core/lv_indev_scroll.c ****     p->y = find_snap_point_y(obj, obj->coords.y1, obj->coords.y2, 0);
 232:Middlewares/lvgl/src/core/lv_indev_scroll.c **** }
 233:Middlewares/lvgl/src/core/lv_indev_scroll.c **** 
 234:Middlewares/lvgl/src/core/lv_indev_scroll.c **** /**********************
 235:Middlewares/lvgl/src/core/lv_indev_scroll.c ****  *   STATIC FUNCTIONS
 236:Middlewares/lvgl/src/core/lv_indev_scroll.c ****  **********************/
 237:Middlewares/lvgl/src/core/lv_indev_scroll.c **** 
 238:Middlewares/lvgl/src/core/lv_indev_scroll.c **** static lv_obj_t * find_scroll_obj(_lv_indev_proc_t * proc)
 239:Middlewares/lvgl/src/core/lv_indev_scroll.c **** {
 240:Middlewares/lvgl/src/core/lv_indev_scroll.c ****     lv_obj_t * obj_candidate = NULL;
 241:Middlewares/lvgl/src/core/lv_indev_scroll.c ****     lv_dir_t dir_candidate = LV_DIR_NONE;
 242:Middlewares/lvgl/src/core/lv_indev_scroll.c ****     lv_indev_t * indev_act = lv_indev_get_act();
 243:Middlewares/lvgl/src/core/lv_indev_scroll.c ****     lv_coord_t scroll_limit =  indev_act->driver->scroll_limit;
 244:Middlewares/lvgl/src/core/lv_indev_scroll.c **** 
 245:Middlewares/lvgl/src/core/lv_indev_scroll.c ****     /*Go until find an scrollable object in the current direction
 246:Middlewares/lvgl/src/core/lv_indev_scroll.c ****      *More precisely:
 247:Middlewares/lvgl/src/core/lv_indev_scroll.c ****      * 1. Check the pressed object and all of its ancestors and try to find an object which is scro
 248:Middlewares/lvgl/src/core/lv_indev_scroll.c ****      * 2. Scrollable means it has some content out of it's area
 249:Middlewares/lvgl/src/core/lv_indev_scroll.c ****      * 3. If an object can be scrolled into the current direction then use it ("real match"")
 250:Middlewares/lvgl/src/core/lv_indev_scroll.c ****      * 4. If can be scrolled on the current axis (hor/ver) save it as candidate (at least show an e
 251:Middlewares/lvgl/src/core/lv_indev_scroll.c ****      * 5. Use the last candidate. Always the "deepest" parent or the object from point 3*/
 252:Middlewares/lvgl/src/core/lv_indev_scroll.c ****     lv_obj_t * obj_act = proc->types.pointer.act_obj;
 253:Middlewares/lvgl/src/core/lv_indev_scroll.c ****     while(obj_act) {
 254:Middlewares/lvgl/src/core/lv_indev_scroll.c ****         if(lv_obj_has_flag(obj_act, LV_OBJ_FLAG_SCROLLABLE) == false) {
 255:Middlewares/lvgl/src/core/lv_indev_scroll.c ****             /*If this object don't want to chain the scroll ot the parent stop searching*/
 256:Middlewares/lvgl/src/core/lv_indev_scroll.c ****             if(lv_obj_has_flag(obj_act, LV_OBJ_FLAG_SCROLL_CHAIN) == false) break;
 257:Middlewares/lvgl/src/core/lv_indev_scroll.c ****             obj_act = lv_obj_get_parent(obj_act);
 258:Middlewares/lvgl/src/core/lv_indev_scroll.c ****             continue;
 259:Middlewares/lvgl/src/core/lv_indev_scroll.c ****         }
 260:Middlewares/lvgl/src/core/lv_indev_scroll.c **** 
ARM GAS  /tmp/ccHFiCt0.s 			page 6


 261:Middlewares/lvgl/src/core/lv_indev_scroll.c ****         /*Decide if it's a horizontal or vertical scroll*/
 262:Middlewares/lvgl/src/core/lv_indev_scroll.c ****         bool hor_en = false;
 263:Middlewares/lvgl/src/core/lv_indev_scroll.c ****         bool ver_en = false;
 264:Middlewares/lvgl/src/core/lv_indev_scroll.c ****         if(LV_ABS(proc->types.pointer.scroll_sum.x) > LV_ABS(proc->types.pointer.scroll_sum.y)) {
 265:Middlewares/lvgl/src/core/lv_indev_scroll.c ****             hor_en = true;
 266:Middlewares/lvgl/src/core/lv_indev_scroll.c ****         }
 267:Middlewares/lvgl/src/core/lv_indev_scroll.c ****         else {
 268:Middlewares/lvgl/src/core/lv_indev_scroll.c ****             ver_en = true;
 269:Middlewares/lvgl/src/core/lv_indev_scroll.c ****         }
 270:Middlewares/lvgl/src/core/lv_indev_scroll.c **** 
 271:Middlewares/lvgl/src/core/lv_indev_scroll.c ****         /*Consider both up-down or left/right scrollable according to the current direction*/
 272:Middlewares/lvgl/src/core/lv_indev_scroll.c ****         bool up_en = ver_en;
 273:Middlewares/lvgl/src/core/lv_indev_scroll.c ****         bool down_en = ver_en;
 274:Middlewares/lvgl/src/core/lv_indev_scroll.c ****         bool left_en = hor_en;
 275:Middlewares/lvgl/src/core/lv_indev_scroll.c ****         bool right_en = hor_en;
 276:Middlewares/lvgl/src/core/lv_indev_scroll.c **** 
 277:Middlewares/lvgl/src/core/lv_indev_scroll.c ****         /*The object might have disabled some directions.*/
 278:Middlewares/lvgl/src/core/lv_indev_scroll.c ****         lv_dir_t scroll_dir = lv_obj_get_scroll_dir(obj_act);
 279:Middlewares/lvgl/src/core/lv_indev_scroll.c ****         if((scroll_dir & LV_DIR_LEFT) == 0) left_en = false;
 280:Middlewares/lvgl/src/core/lv_indev_scroll.c ****         if((scroll_dir & LV_DIR_RIGHT) == 0) right_en = false;
 281:Middlewares/lvgl/src/core/lv_indev_scroll.c ****         if((scroll_dir & LV_DIR_TOP) == 0) up_en = false;
 282:Middlewares/lvgl/src/core/lv_indev_scroll.c ****         if((scroll_dir & LV_DIR_BOTTOM) == 0) down_en = false;
 283:Middlewares/lvgl/src/core/lv_indev_scroll.c **** 
 284:Middlewares/lvgl/src/core/lv_indev_scroll.c ****         /*The object is scrollable to a direction if its content overflow in that direction.*/
 285:Middlewares/lvgl/src/core/lv_indev_scroll.c ****         lv_coord_t st = lv_obj_get_scroll_top(obj_act);
 286:Middlewares/lvgl/src/core/lv_indev_scroll.c ****         lv_coord_t sb = lv_obj_get_scroll_bottom(obj_act);
 287:Middlewares/lvgl/src/core/lv_indev_scroll.c ****         lv_coord_t sl = lv_obj_get_scroll_left(obj_act);
 288:Middlewares/lvgl/src/core/lv_indev_scroll.c ****         lv_coord_t sr = lv_obj_get_scroll_right(obj_act);
 289:Middlewares/lvgl/src/core/lv_indev_scroll.c **** 
 290:Middlewares/lvgl/src/core/lv_indev_scroll.c ****         /*If this object is scrollable into the current scroll direction then save it as a candidat
 291:Middlewares/lvgl/src/core/lv_indev_scroll.c ****          *It's important only to be scrollable on the current axis (hor/ver) because if the scroll
 292:Middlewares/lvgl/src/core/lv_indev_scroll.c ****          *is propagated to this object it can show at least elastic scroll effect.
 293:Middlewares/lvgl/src/core/lv_indev_scroll.c ****          *But if not hor/ver scrollable do not scroll it at all (so it's not a good candidate)*/
 294:Middlewares/lvgl/src/core/lv_indev_scroll.c ****         if((st > 0 || sb > 0)  &&
 295:Middlewares/lvgl/src/core/lv_indev_scroll.c ****                 ((up_en    && proc->types.pointer.scroll_sum.y >= scroll_limit) ||
 296:Middlewares/lvgl/src/core/lv_indev_scroll.c ****                         (down_en  && proc->types.pointer.scroll_sum.y <= - scroll_limit)))
 297:Middlewares/lvgl/src/core/lv_indev_scroll.c ****         {
 298:Middlewares/lvgl/src/core/lv_indev_scroll.c ****             obj_candidate = obj_act;
 299:Middlewares/lvgl/src/core/lv_indev_scroll.c ****             dir_candidate = LV_DIR_VER;
 300:Middlewares/lvgl/src/core/lv_indev_scroll.c ****         }
 301:Middlewares/lvgl/src/core/lv_indev_scroll.c **** 
 302:Middlewares/lvgl/src/core/lv_indev_scroll.c ****         if((sl > 0 || sr > 0)  &&
 303:Middlewares/lvgl/src/core/lv_indev_scroll.c ****                 ((left_en    && proc->types.pointer.scroll_sum.x >=  scroll_limit) ||
 304:Middlewares/lvgl/src/core/lv_indev_scroll.c ****                         (right_en  && proc->types.pointer.scroll_sum.x <= - scroll_limit)))
 305:Middlewares/lvgl/src/core/lv_indev_scroll.c ****         {
 306:Middlewares/lvgl/src/core/lv_indev_scroll.c ****             obj_candidate = obj_act;
 307:Middlewares/lvgl/src/core/lv_indev_scroll.c ****             dir_candidate = LV_DIR_HOR;
 308:Middlewares/lvgl/src/core/lv_indev_scroll.c ****         }
 309:Middlewares/lvgl/src/core/lv_indev_scroll.c **** 
 310:Middlewares/lvgl/src/core/lv_indev_scroll.c ****         if(st <= 0) up_en = false;
 311:Middlewares/lvgl/src/core/lv_indev_scroll.c ****         if(sb <= 0) down_en = false;
 312:Middlewares/lvgl/src/core/lv_indev_scroll.c ****         if(sl <= 0) left_en = false;
 313:Middlewares/lvgl/src/core/lv_indev_scroll.c ****         if(sr <= 0) right_en = false;
 314:Middlewares/lvgl/src/core/lv_indev_scroll.c **** 
 315:Middlewares/lvgl/src/core/lv_indev_scroll.c ****         /*If the object really can be scrolled into the current direction the use it.*/
 316:Middlewares/lvgl/src/core/lv_indev_scroll.c ****         if((left_en  && proc->types.pointer.scroll_sum.x >=   scroll_limit) ||
 317:Middlewares/lvgl/src/core/lv_indev_scroll.c ****                 (right_en && proc->types.pointer.scroll_sum.x <= - scroll_limit) ||
ARM GAS  /tmp/ccHFiCt0.s 			page 7


 318:Middlewares/lvgl/src/core/lv_indev_scroll.c ****                 (up_en    && proc->types.pointer.scroll_sum.y >=   scroll_limit) ||
 319:Middlewares/lvgl/src/core/lv_indev_scroll.c ****                 (down_en  && proc->types.pointer.scroll_sum.y <= - scroll_limit))
 320:Middlewares/lvgl/src/core/lv_indev_scroll.c ****         {
 321:Middlewares/lvgl/src/core/lv_indev_scroll.c ****             proc->types.pointer.scroll_dir = hor_en ? LV_DIR_HOR : LV_DIR_VER;
 322:Middlewares/lvgl/src/core/lv_indev_scroll.c ****             break;
 323:Middlewares/lvgl/src/core/lv_indev_scroll.c ****         }
 324:Middlewares/lvgl/src/core/lv_indev_scroll.c **** 
 325:Middlewares/lvgl/src/core/lv_indev_scroll.c ****         /*If this object don't want to chain the scroll ot the parent stop searching*/
 326:Middlewares/lvgl/src/core/lv_indev_scroll.c ****         if(lv_obj_has_flag(obj_act, LV_OBJ_FLAG_SCROLL_CHAIN) == false) break;
 327:Middlewares/lvgl/src/core/lv_indev_scroll.c **** 
 328:Middlewares/lvgl/src/core/lv_indev_scroll.c ****         /*Try the parent*/
 329:Middlewares/lvgl/src/core/lv_indev_scroll.c ****         obj_act = lv_obj_get_parent(obj_act);
 330:Middlewares/lvgl/src/core/lv_indev_scroll.c ****     }
 331:Middlewares/lvgl/src/core/lv_indev_scroll.c **** 
 332:Middlewares/lvgl/src/core/lv_indev_scroll.c ****     /*Use the last candidate*/
 333:Middlewares/lvgl/src/core/lv_indev_scroll.c ****     if(obj_candidate) {
 334:Middlewares/lvgl/src/core/lv_indev_scroll.c ****         proc->types.pointer.scroll_dir = dir_candidate;
 335:Middlewares/lvgl/src/core/lv_indev_scroll.c ****         proc->types.pointer.scroll_obj = obj_candidate;
 336:Middlewares/lvgl/src/core/lv_indev_scroll.c ****         proc->types.pointer.scroll_sum.x = 0;
 337:Middlewares/lvgl/src/core/lv_indev_scroll.c ****         proc->types.pointer.scroll_sum.y = 0;
 338:Middlewares/lvgl/src/core/lv_indev_scroll.c ****     }
 339:Middlewares/lvgl/src/core/lv_indev_scroll.c **** 
 340:Middlewares/lvgl/src/core/lv_indev_scroll.c ****     return obj_candidate;
 341:Middlewares/lvgl/src/core/lv_indev_scroll.c **** }
 342:Middlewares/lvgl/src/core/lv_indev_scroll.c **** 
 343:Middlewares/lvgl/src/core/lv_indev_scroll.c **** static void init_scroll_limits(_lv_indev_proc_t * proc)
 344:Middlewares/lvgl/src/core/lv_indev_scroll.c **** {
 345:Middlewares/lvgl/src/core/lv_indev_scroll.c ****     lv_obj_t * obj = proc->types.pointer.scroll_obj;
 346:Middlewares/lvgl/src/core/lv_indev_scroll.c ****     /*If there no STOP allow scrolling anywhere*/
 347:Middlewares/lvgl/src/core/lv_indev_scroll.c ****     if(lv_obj_has_flag(obj, LV_OBJ_FLAG_SCROLL_ONE) == false) {
 348:Middlewares/lvgl/src/core/lv_indev_scroll.c ****         lv_area_set(&proc->types.pointer.scroll_area, LV_COORD_MIN, LV_COORD_MIN, LV_COORD_MAX, LV_
 349:Middlewares/lvgl/src/core/lv_indev_scroll.c ****     }
 350:Middlewares/lvgl/src/core/lv_indev_scroll.c ****     /*With STOP limit the scrolling to the perv and next snap point*/
 351:Middlewares/lvgl/src/core/lv_indev_scroll.c ****     else {
 352:Middlewares/lvgl/src/core/lv_indev_scroll.c ****         switch(lv_obj_get_scroll_snap_y(obj)) {
 353:Middlewares/lvgl/src/core/lv_indev_scroll.c ****         case LV_SCROLL_SNAP_START:
 354:Middlewares/lvgl/src/core/lv_indev_scroll.c ****             proc->types.pointer.scroll_area.y1 = find_snap_point_y(obj, obj->coords.y1 + 1, LV_COOR
 355:Middlewares/lvgl/src/core/lv_indev_scroll.c ****             proc->types.pointer.scroll_area.y2 = find_snap_point_y(obj, LV_COORD_MIN, obj->coords.y
 356:Middlewares/lvgl/src/core/lv_indev_scroll.c ****             break;
 357:Middlewares/lvgl/src/core/lv_indev_scroll.c ****         case LV_SCROLL_SNAP_END:
 358:Middlewares/lvgl/src/core/lv_indev_scroll.c ****             proc->types.pointer.scroll_area.y1 = find_snap_point_y(obj, obj->coords.y2, LV_COORD_MA
 359:Middlewares/lvgl/src/core/lv_indev_scroll.c ****             proc->types.pointer.scroll_area.y2 = find_snap_point_y(obj, LV_COORD_MIN, obj->coords.y
 360:Middlewares/lvgl/src/core/lv_indev_scroll.c ****             break;
 361:Middlewares/lvgl/src/core/lv_indev_scroll.c ****         case LV_SCROLL_SNAP_CENTER: {
 362:Middlewares/lvgl/src/core/lv_indev_scroll.c ****             lv_coord_t y_mid = obj->coords.y1 + lv_area_get_height(&obj->coords) / 2;
 363:Middlewares/lvgl/src/core/lv_indev_scroll.c ****             proc->types.pointer.scroll_area.y1 = find_snap_point_y(obj, y_mid + 1, LV_COORD_MAX, 0)
 364:Middlewares/lvgl/src/core/lv_indev_scroll.c ****             proc->types.pointer.scroll_area.y2 = find_snap_point_y(obj, LV_COORD_MIN, y_mid - 1, 0)
 365:Middlewares/lvgl/src/core/lv_indev_scroll.c ****             break;
 366:Middlewares/lvgl/src/core/lv_indev_scroll.c ****         }
 367:Middlewares/lvgl/src/core/lv_indev_scroll.c ****         default:
 368:Middlewares/lvgl/src/core/lv_indev_scroll.c ****             proc->types.pointer.scroll_area.y1 = LV_COORD_MIN;
 369:Middlewares/lvgl/src/core/lv_indev_scroll.c ****             proc->types.pointer.scroll_area.y2 = LV_COORD_MAX;
 370:Middlewares/lvgl/src/core/lv_indev_scroll.c ****             break;
 371:Middlewares/lvgl/src/core/lv_indev_scroll.c ****         }
 372:Middlewares/lvgl/src/core/lv_indev_scroll.c **** 
 373:Middlewares/lvgl/src/core/lv_indev_scroll.c ****         switch(lv_obj_get_scroll_snap_x(obj)) {
 374:Middlewares/lvgl/src/core/lv_indev_scroll.c ****         case LV_SCROLL_SNAP_START:
ARM GAS  /tmp/ccHFiCt0.s 			page 8


 375:Middlewares/lvgl/src/core/lv_indev_scroll.c ****             proc->types.pointer.scroll_area.x1 = find_snap_point_x(obj, obj->coords.x1, LV_COORD_MA
 376:Middlewares/lvgl/src/core/lv_indev_scroll.c ****             proc->types.pointer.scroll_area.x2 = find_snap_point_x(obj, LV_COORD_MIN, obj->coords.x
 377:Middlewares/lvgl/src/core/lv_indev_scroll.c ****             break;
 378:Middlewares/lvgl/src/core/lv_indev_scroll.c ****         case LV_SCROLL_SNAP_END:
 379:Middlewares/lvgl/src/core/lv_indev_scroll.c ****             proc->types.pointer.scroll_area.x1 = find_snap_point_x(obj, obj->coords.x2, LV_COORD_MA
 380:Middlewares/lvgl/src/core/lv_indev_scroll.c ****             proc->types.pointer.scroll_area.x2 = find_snap_point_x(obj, LV_COORD_MIN, obj->coords.x
 381:Middlewares/lvgl/src/core/lv_indev_scroll.c ****             break;
 382:Middlewares/lvgl/src/core/lv_indev_scroll.c ****         case LV_SCROLL_SNAP_CENTER: {
 383:Middlewares/lvgl/src/core/lv_indev_scroll.c ****             lv_coord_t x_mid = obj->coords.x1 + lv_area_get_width(&obj->coords) / 2;
 384:Middlewares/lvgl/src/core/lv_indev_scroll.c ****             proc->types.pointer.scroll_area.x1 = find_snap_point_x(obj, x_mid + 1, LV_COORD_MAX, 0)
 385:Middlewares/lvgl/src/core/lv_indev_scroll.c ****             proc->types.pointer.scroll_area.x2 = find_snap_point_x(obj, LV_COORD_MIN, x_mid - 1, 0)
 386:Middlewares/lvgl/src/core/lv_indev_scroll.c ****             break;
 387:Middlewares/lvgl/src/core/lv_indev_scroll.c ****         }
 388:Middlewares/lvgl/src/core/lv_indev_scroll.c ****         default:
 389:Middlewares/lvgl/src/core/lv_indev_scroll.c ****             proc->types.pointer.scroll_area.x1 = LV_COORD_MIN;
 390:Middlewares/lvgl/src/core/lv_indev_scroll.c ****             proc->types.pointer.scroll_area.x2 = LV_COORD_MAX;
 391:Middlewares/lvgl/src/core/lv_indev_scroll.c ****             break;
 392:Middlewares/lvgl/src/core/lv_indev_scroll.c ****         }
 393:Middlewares/lvgl/src/core/lv_indev_scroll.c ****     }
 394:Middlewares/lvgl/src/core/lv_indev_scroll.c **** 
 395:Middlewares/lvgl/src/core/lv_indev_scroll.c ****     /*Allow scrolling on the edges. It will be reverted to the edge due to snapping anyway*/
 396:Middlewares/lvgl/src/core/lv_indev_scroll.c ****     if(proc->types.pointer.scroll_area.x1 == 0) proc->types.pointer.scroll_area.x1 = LV_COORD_MIN;
 397:Middlewares/lvgl/src/core/lv_indev_scroll.c ****     if(proc->types.pointer.scroll_area.x2 == 0) proc->types.pointer.scroll_area.x2 = LV_COORD_MAX;
 398:Middlewares/lvgl/src/core/lv_indev_scroll.c ****     if(proc->types.pointer.scroll_area.y1 == 0) proc->types.pointer.scroll_area.y1 = LV_COORD_MIN;
 399:Middlewares/lvgl/src/core/lv_indev_scroll.c ****     if(proc->types.pointer.scroll_area.y2 == 0) proc->types.pointer.scroll_area.y2 = LV_COORD_MAX;
 400:Middlewares/lvgl/src/core/lv_indev_scroll.c **** }
 401:Middlewares/lvgl/src/core/lv_indev_scroll.c **** 
 402:Middlewares/lvgl/src/core/lv_indev_scroll.c **** /**
 403:Middlewares/lvgl/src/core/lv_indev_scroll.c ****  * Search for snap point in the `min` - `max` range.
 404:Middlewares/lvgl/src/core/lv_indev_scroll.c ****  * @param obj the object on which snap point should be found
 405:Middlewares/lvgl/src/core/lv_indev_scroll.c ****  * @param min ignore snap points smaller then this. (Absolute coordinate)
 406:Middlewares/lvgl/src/core/lv_indev_scroll.c ****  * @param max ignore snap points greater then this. (Absolute coordinate)
 407:Middlewares/lvgl/src/core/lv_indev_scroll.c ****  * @param ofs offset to snap points. Useful the get a snap point in an imagined case
 408:Middlewares/lvgl/src/core/lv_indev_scroll.c ****  *            what if children are already moved by this value
 409:Middlewares/lvgl/src/core/lv_indev_scroll.c ****  * @return the distance of the snap point.
 410:Middlewares/lvgl/src/core/lv_indev_scroll.c ****  */
 411:Middlewares/lvgl/src/core/lv_indev_scroll.c **** static lv_coord_t find_snap_point_x(const lv_obj_t * obj, lv_coord_t min, lv_coord_t max, lv_coord_
 412:Middlewares/lvgl/src/core/lv_indev_scroll.c **** {
 413:Middlewares/lvgl/src/core/lv_indev_scroll.c ****     lv_scroll_snap_t align = lv_obj_get_scroll_snap_x(obj);
 414:Middlewares/lvgl/src/core/lv_indev_scroll.c ****     if(align == LV_SCROLL_SNAP_NONE) return 0;
 415:Middlewares/lvgl/src/core/lv_indev_scroll.c **** 
 416:Middlewares/lvgl/src/core/lv_indev_scroll.c ****     lv_coord_t dist = LV_COORD_MAX;
 417:Middlewares/lvgl/src/core/lv_indev_scroll.c **** 
 418:Middlewares/lvgl/src/core/lv_indev_scroll.c ****     lv_coord_t pad_left = lv_obj_get_style_pad_left(obj, LV_PART_MAIN);
 419:Middlewares/lvgl/src/core/lv_indev_scroll.c ****     lv_coord_t pad_right = lv_obj_get_style_pad_right(obj, LV_PART_MAIN);
 420:Middlewares/lvgl/src/core/lv_indev_scroll.c **** 
 421:Middlewares/lvgl/src/core/lv_indev_scroll.c ****     uint32_t i;
 422:Middlewares/lvgl/src/core/lv_indev_scroll.c ****     uint32_t child_cnt = lv_obj_get_child_cnt(obj);
 423:Middlewares/lvgl/src/core/lv_indev_scroll.c ****     for(i = 0; i < child_cnt; i++) {
 424:Middlewares/lvgl/src/core/lv_indev_scroll.c ****         lv_obj_t * child = lv_obj_get_child(obj, i);
 425:Middlewares/lvgl/src/core/lv_indev_scroll.c ****         if(lv_obj_has_flag_any(child, LV_OBJ_FLAG_HIDDEN | LV_OBJ_FLAG_FLOATING)) continue;
 426:Middlewares/lvgl/src/core/lv_indev_scroll.c ****         if(lv_obj_has_flag(child, LV_OBJ_FLAG_SNAPPABLE)) {
 427:Middlewares/lvgl/src/core/lv_indev_scroll.c ****             lv_coord_t x_child = 0;
 428:Middlewares/lvgl/src/core/lv_indev_scroll.c ****             lv_coord_t x_parent = 0;
 429:Middlewares/lvgl/src/core/lv_indev_scroll.c ****             switch(align) {
 430:Middlewares/lvgl/src/core/lv_indev_scroll.c ****             case LV_SCROLL_SNAP_START:
 431:Middlewares/lvgl/src/core/lv_indev_scroll.c ****                 x_child = child->coords.x1;
ARM GAS  /tmp/ccHFiCt0.s 			page 9


 432:Middlewares/lvgl/src/core/lv_indev_scroll.c ****                 x_parent = obj->coords.x1 + pad_left;
 433:Middlewares/lvgl/src/core/lv_indev_scroll.c ****                 break;
 434:Middlewares/lvgl/src/core/lv_indev_scroll.c ****             case LV_SCROLL_SNAP_END:
 435:Middlewares/lvgl/src/core/lv_indev_scroll.c ****                 x_child = child->coords.x2;
 436:Middlewares/lvgl/src/core/lv_indev_scroll.c ****                 x_parent = obj->coords.x2 - pad_right;
 437:Middlewares/lvgl/src/core/lv_indev_scroll.c ****                 break;
 438:Middlewares/lvgl/src/core/lv_indev_scroll.c ****             case LV_SCROLL_SNAP_CENTER:
 439:Middlewares/lvgl/src/core/lv_indev_scroll.c ****                 x_child = child->coords.x1 + lv_area_get_width(&child->coords) / 2;
 440:Middlewares/lvgl/src/core/lv_indev_scroll.c ****                 x_parent = obj->coords.x1 + pad_left + (lv_area_get_width(&obj->coords) - pad_left 
 441:Middlewares/lvgl/src/core/lv_indev_scroll.c ****                 break;
 442:Middlewares/lvgl/src/core/lv_indev_scroll.c ****             default:
 443:Middlewares/lvgl/src/core/lv_indev_scroll.c ****                 continue;
 444:Middlewares/lvgl/src/core/lv_indev_scroll.c ****             }
 445:Middlewares/lvgl/src/core/lv_indev_scroll.c **** 
 446:Middlewares/lvgl/src/core/lv_indev_scroll.c ****             x_child += ofs;
 447:Middlewares/lvgl/src/core/lv_indev_scroll.c ****             if(x_child >= min && x_child <= max) {
 448:Middlewares/lvgl/src/core/lv_indev_scroll.c ****                 lv_coord_t x = x_child -  x_parent;
 449:Middlewares/lvgl/src/core/lv_indev_scroll.c ****                 if(LV_ABS(x) < LV_ABS(dist)) dist = x;
 450:Middlewares/lvgl/src/core/lv_indev_scroll.c ****             }
 451:Middlewares/lvgl/src/core/lv_indev_scroll.c ****         }
 452:Middlewares/lvgl/src/core/lv_indev_scroll.c ****     }
 453:Middlewares/lvgl/src/core/lv_indev_scroll.c **** 
 454:Middlewares/lvgl/src/core/lv_indev_scroll.c ****     return dist == LV_COORD_MAX ? 0: -dist;
 455:Middlewares/lvgl/src/core/lv_indev_scroll.c **** }
 456:Middlewares/lvgl/src/core/lv_indev_scroll.c **** 
 457:Middlewares/lvgl/src/core/lv_indev_scroll.c **** /**
 458:Middlewares/lvgl/src/core/lv_indev_scroll.c ****  * Search for snap point in the `min` - `max` range.
 459:Middlewares/lvgl/src/core/lv_indev_scroll.c ****  * @param obj the object on which snap point should be found
 460:Middlewares/lvgl/src/core/lv_indev_scroll.c ****  * @param min ignore snap points smaller then this. (Absolute coordinate)
 461:Middlewares/lvgl/src/core/lv_indev_scroll.c ****  * @param max ignore snap points greater then this. (Absolute coordinate)
 462:Middlewares/lvgl/src/core/lv_indev_scroll.c ****  * @param ofs offset to snap points. Useful the get a snap point in an imagined case
 463:Middlewares/lvgl/src/core/lv_indev_scroll.c ****  *            what if children are already moved by this value
 464:Middlewares/lvgl/src/core/lv_indev_scroll.c ****  * @return the distance of the snap point.
 465:Middlewares/lvgl/src/core/lv_indev_scroll.c ****  */
 466:Middlewares/lvgl/src/core/lv_indev_scroll.c **** static lv_coord_t find_snap_point_y(const lv_obj_t * obj, lv_coord_t min, lv_coord_t max, lv_coord_
 467:Middlewares/lvgl/src/core/lv_indev_scroll.c **** {
 468:Middlewares/lvgl/src/core/lv_indev_scroll.c ****     lv_scroll_snap_t align = lv_obj_get_scroll_snap_y(obj);
 469:Middlewares/lvgl/src/core/lv_indev_scroll.c ****     if(align == LV_SCROLL_SNAP_NONE) return 0;
 470:Middlewares/lvgl/src/core/lv_indev_scroll.c **** 
 471:Middlewares/lvgl/src/core/lv_indev_scroll.c ****     lv_coord_t dist = LV_COORD_MAX;
 472:Middlewares/lvgl/src/core/lv_indev_scroll.c **** 
 473:Middlewares/lvgl/src/core/lv_indev_scroll.c ****     lv_coord_t pad_top = lv_obj_get_style_pad_top(obj, LV_PART_MAIN);
 474:Middlewares/lvgl/src/core/lv_indev_scroll.c ****     lv_coord_t pad_bottom = lv_obj_get_style_pad_bottom(obj, LV_PART_MAIN);
 475:Middlewares/lvgl/src/core/lv_indev_scroll.c **** 
 476:Middlewares/lvgl/src/core/lv_indev_scroll.c ****     uint32_t i;
 477:Middlewares/lvgl/src/core/lv_indev_scroll.c ****     uint32_t child_cnt = lv_obj_get_child_cnt(obj);
 478:Middlewares/lvgl/src/core/lv_indev_scroll.c ****     for(i = 0; i < child_cnt; i++) {
 479:Middlewares/lvgl/src/core/lv_indev_scroll.c ****         lv_obj_t * child = lv_obj_get_child(obj, i);
 480:Middlewares/lvgl/src/core/lv_indev_scroll.c ****         if(lv_obj_has_flag_any(child, LV_OBJ_FLAG_HIDDEN | LV_OBJ_FLAG_FLOATING)) continue;
 481:Middlewares/lvgl/src/core/lv_indev_scroll.c ****         if(lv_obj_has_flag(child, LV_OBJ_FLAG_SNAPPABLE)) {
 482:Middlewares/lvgl/src/core/lv_indev_scroll.c ****             lv_coord_t y_child = 0;
 483:Middlewares/lvgl/src/core/lv_indev_scroll.c ****             lv_coord_t y_parent = 0;
 484:Middlewares/lvgl/src/core/lv_indev_scroll.c ****             switch(align) {
 485:Middlewares/lvgl/src/core/lv_indev_scroll.c ****             case LV_SCROLL_SNAP_START:
 486:Middlewares/lvgl/src/core/lv_indev_scroll.c ****                 y_child = child->coords.y1;
 487:Middlewares/lvgl/src/core/lv_indev_scroll.c ****                 y_parent = obj->coords.y1 + pad_top;
 488:Middlewares/lvgl/src/core/lv_indev_scroll.c ****                 break;
ARM GAS  /tmp/ccHFiCt0.s 			page 10


 489:Middlewares/lvgl/src/core/lv_indev_scroll.c ****             case LV_SCROLL_SNAP_END:
 490:Middlewares/lvgl/src/core/lv_indev_scroll.c ****                 y_child = child->coords.y2;
 491:Middlewares/lvgl/src/core/lv_indev_scroll.c ****                 y_parent = obj->coords.y2 - pad_bottom;
 492:Middlewares/lvgl/src/core/lv_indev_scroll.c ****                 break;
 493:Middlewares/lvgl/src/core/lv_indev_scroll.c ****             case LV_SCROLL_SNAP_CENTER:
 494:Middlewares/lvgl/src/core/lv_indev_scroll.c ****                 y_child = child->coords.y1 + lv_area_get_height(&child->coords) / 2;
 495:Middlewares/lvgl/src/core/lv_indev_scroll.c ****                 y_parent = obj->coords.y1 + pad_top + (lv_area_get_height(&obj->coords) - pad_top -
 496:Middlewares/lvgl/src/core/lv_indev_scroll.c ****                 break;
 497:Middlewares/lvgl/src/core/lv_indev_scroll.c ****             default:
 498:Middlewares/lvgl/src/core/lv_indev_scroll.c ****                 continue;
 499:Middlewares/lvgl/src/core/lv_indev_scroll.c ****             }
 500:Middlewares/lvgl/src/core/lv_indev_scroll.c **** 
 501:Middlewares/lvgl/src/core/lv_indev_scroll.c ****             y_child += ofs;
 502:Middlewares/lvgl/src/core/lv_indev_scroll.c ****             if(y_child >= min && y_child <= max) {
 503:Middlewares/lvgl/src/core/lv_indev_scroll.c ****                 lv_coord_t y = y_child -  y_parent;
 504:Middlewares/lvgl/src/core/lv_indev_scroll.c ****                 if(LV_ABS(y) < LV_ABS(dist)) dist = y;
 505:Middlewares/lvgl/src/core/lv_indev_scroll.c ****             }
 506:Middlewares/lvgl/src/core/lv_indev_scroll.c ****         }
 507:Middlewares/lvgl/src/core/lv_indev_scroll.c ****     }
 508:Middlewares/lvgl/src/core/lv_indev_scroll.c **** 
 509:Middlewares/lvgl/src/core/lv_indev_scroll.c ****     return dist == LV_COORD_MAX ? 0 : -dist;
 510:Middlewares/lvgl/src/core/lv_indev_scroll.c **** }
 511:Middlewares/lvgl/src/core/lv_indev_scroll.c **** 
 512:Middlewares/lvgl/src/core/lv_indev_scroll.c **** static void scroll_limit_diff(_lv_indev_proc_t * proc, lv_coord_t * diff_x, lv_coord_t * diff_y)
 513:Middlewares/lvgl/src/core/lv_indev_scroll.c **** {
  27              		.loc 1 513 1 view -0
  28              		.cfi_startproc
  29              		@ args = 0, pretend = 0, frame = 0
  30              		@ frame_needed = 0, uses_anonymous_args = 0
  31              		.loc 1 513 1 is_stmt 0 view .LVU1
  32 0000 00B5     		push	{lr}
  33              	.LCFI0:
  34              		.cfi_def_cfa_offset 4
  35              		.cfi_offset 14, -4
 514:Middlewares/lvgl/src/core/lv_indev_scroll.c ****     if(diff_y) {
  36              		.loc 1 514 5 is_stmt 1 view .LVU2
  37              		.loc 1 514 7 is_stmt 0 view .LVU3
  38 0002 02B3     		cbz	r2, .L2
  39 0004 9446     		mov	ip, r2
 515:Middlewares/lvgl/src/core/lv_indev_scroll.c ****         if(proc->types.pointer.scroll_sum.y + *diff_y < proc->types.pointer.scroll_area.y1) {
  40              		.loc 1 515 9 is_stmt 1 view .LVU4
  41              		.loc 1 515 42 is_stmt 0 view .LVU5
  42 0006 B0F916E0 		ldrsh	lr, [r0, #22]
  43              		.loc 1 515 47 view .LVU6
  44 000a B2F90020 		ldrsh	r2, [r2]
  45              	.LVL1:
  46              		.loc 1 515 45 view .LVU7
  47 000e 7244     		add	r2, r2, lr
  48              		.loc 1 515 88 view .LVU8
  49 0010 B0F93230 		ldrsh	r3, [r0, #50]
  50              		.loc 1 515 11 view .LVU9
  51 0014 9A42     		cmp	r2, r3
  52 0016 06DA     		bge	.L3
 516:Middlewares/lvgl/src/core/lv_indev_scroll.c ****            *diff_y = proc->types.pointer.scroll_area.y1 - proc->types.pointer.scroll_sum.y;
  53              		.loc 1 516 12 is_stmt 1 view .LVU10
  54              		.loc 1 516 53 is_stmt 0 view .LVU11
  55 0018 9BB2     		uxth	r3, r3
ARM GAS  /tmp/ccHFiCt0.s 			page 11


  56              		.loc 1 516 89 view .LVU12
  57 001a 1FFA8EFE 		uxth	lr, lr
  58              		.loc 1 516 57 view .LVU13
  59 001e A3EB0E03 		sub	r3, r3, lr
  60              		.loc 1 516 20 view .LVU14
  61 0022 ACF80030 		strh	r3, [ip]	@ movhi
  62              	.L3:
 517:Middlewares/lvgl/src/core/lv_indev_scroll.c ****         }
 518:Middlewares/lvgl/src/core/lv_indev_scroll.c **** 
 519:Middlewares/lvgl/src/core/lv_indev_scroll.c ****         if(proc->types.pointer.scroll_sum.y + *diff_y > proc->types.pointer.scroll_area.y2) {
  63              		.loc 1 519 9 is_stmt 1 view .LVU15
  64              		.loc 1 519 42 is_stmt 0 view .LVU16
  65 0026 B0F916E0 		ldrsh	lr, [r0, #22]
  66              		.loc 1 519 47 view .LVU17
  67 002a BCF90020 		ldrsh	r2, [ip]
  68              		.loc 1 519 45 view .LVU18
  69 002e 7244     		add	r2, r2, lr
  70              		.loc 1 519 88 view .LVU19
  71 0030 B0F93630 		ldrsh	r3, [r0, #54]
  72              		.loc 1 519 11 view .LVU20
  73 0034 9A42     		cmp	r2, r3
  74 0036 06DD     		ble	.L2
 520:Middlewares/lvgl/src/core/lv_indev_scroll.c ****             *diff_y = proc->types.pointer.scroll_area.y2 - proc->types.pointer.scroll_sum.y;
  75              		.loc 1 520 13 is_stmt 1 view .LVU21
  76              		.loc 1 520 54 is_stmt 0 view .LVU22
  77 0038 9BB2     		uxth	r3, r3
  78              		.loc 1 520 90 view .LVU23
  79 003a 1FFA8EFE 		uxth	lr, lr
  80              		.loc 1 520 58 view .LVU24
  81 003e A3EB0E03 		sub	r3, r3, lr
  82              		.loc 1 520 21 view .LVU25
  83 0042 ACF80030 		strh	r3, [ip]	@ movhi
  84              	.LVL2:
  85              	.L2:
 521:Middlewares/lvgl/src/core/lv_indev_scroll.c ****         }
 522:Middlewares/lvgl/src/core/lv_indev_scroll.c ****     }
 523:Middlewares/lvgl/src/core/lv_indev_scroll.c **** 
 524:Middlewares/lvgl/src/core/lv_indev_scroll.c ****     if(diff_x) {
  86              		.loc 1 524 5 is_stmt 1 view .LVU26
  87              		.loc 1 524 7 is_stmt 0 view .LVU27
  88 0046 E9B1     		cbz	r1, .L1
 525:Middlewares/lvgl/src/core/lv_indev_scroll.c ****         if(proc->types.pointer.scroll_sum.x + *diff_x < proc->types.pointer.scroll_area.x1) {
  89              		.loc 1 525 9 is_stmt 1 view .LVU28
  90              		.loc 1 525 42 is_stmt 0 view .LVU29
  91 0048 B0F914C0 		ldrsh	ip, [r0, #20]
  92              		.loc 1 525 47 view .LVU30
  93 004c B1F90020 		ldrsh	r2, [r1]
  94              		.loc 1 525 45 view .LVU31
  95 0050 6244     		add	r2, r2, ip
  96              		.loc 1 525 88 view .LVU32
  97 0052 B0F93030 		ldrsh	r3, [r0, #48]
  98              		.loc 1 525 11 view .LVU33
  99 0056 9A42     		cmp	r2, r3
 100 0058 05DA     		bge	.L5
 526:Middlewares/lvgl/src/core/lv_indev_scroll.c ****             *diff_x = proc->types.pointer.scroll_area.x1 - proc->types.pointer.scroll_sum.x;
 101              		.loc 1 526 13 is_stmt 1 view .LVU34
 102              		.loc 1 526 54 is_stmt 0 view .LVU35
ARM GAS  /tmp/ccHFiCt0.s 			page 12


 103 005a 9BB2     		uxth	r3, r3
 104              		.loc 1 526 90 view .LVU36
 105 005c 1FFA8CFC 		uxth	ip, ip
 106              		.loc 1 526 58 view .LVU37
 107 0060 A3EB0C03 		sub	r3, r3, ip
 108              		.loc 1 526 21 view .LVU38
 109 0064 0B80     		strh	r3, [r1]	@ movhi
 110              	.L5:
 527:Middlewares/lvgl/src/core/lv_indev_scroll.c ****         }
 528:Middlewares/lvgl/src/core/lv_indev_scroll.c **** 
 529:Middlewares/lvgl/src/core/lv_indev_scroll.c ****         if(proc->types.pointer.scroll_sum.x + *diff_x > proc->types.pointer.scroll_area.x2) {
 111              		.loc 1 529 9 is_stmt 1 view .LVU39
 112              		.loc 1 529 42 is_stmt 0 view .LVU40
 113 0066 B0F914C0 		ldrsh	ip, [r0, #20]
 114              		.loc 1 529 47 view .LVU41
 115 006a B1F90020 		ldrsh	r2, [r1]
 116              		.loc 1 529 45 view .LVU42
 117 006e 6244     		add	r2, r2, ip
 118              		.loc 1 529 88 view .LVU43
 119 0070 B0F93430 		ldrsh	r3, [r0, #52]
 120              		.loc 1 529 11 view .LVU44
 121 0074 9A42     		cmp	r2, r3
 122 0076 05DD     		ble	.L1
 530:Middlewares/lvgl/src/core/lv_indev_scroll.c ****             *diff_x = proc->types.pointer.scroll_area.x2 - proc->types.pointer.scroll_sum.x;
 123              		.loc 1 530 13 is_stmt 1 view .LVU45
 124              		.loc 1 530 54 is_stmt 0 view .LVU46
 125 0078 9BB2     		uxth	r3, r3
 126              		.loc 1 530 90 view .LVU47
 127 007a 1FFA8CFC 		uxth	ip, ip
 128              		.loc 1 530 58 view .LVU48
 129 007e A3EB0C03 		sub	r3, r3, ip
 130              		.loc 1 530 21 view .LVU49
 131 0082 0B80     		strh	r3, [r1]	@ movhi
 132              	.L1:
 531:Middlewares/lvgl/src/core/lv_indev_scroll.c ****         }
 532:Middlewares/lvgl/src/core/lv_indev_scroll.c ****     }
 533:Middlewares/lvgl/src/core/lv_indev_scroll.c **** }
 133              		.loc 1 533 1 view .LVU50
 134 0084 5DF804FB 		ldr	pc, [sp], #4
 135              		.cfi_endproc
 136              	.LFE155:
 138              		.section	.text.scroll_throw_predict_y,"ax",%progbits
 139              		.align	1
 140              		.syntax unified
 141              		.thumb
 142              		.thumb_func
 143              		.fpu softvfp
 145              	scroll_throw_predict_y:
 146              	.LVL3:
 147              	.LFB156:
 534:Middlewares/lvgl/src/core/lv_indev_scroll.c **** 
 535:Middlewares/lvgl/src/core/lv_indev_scroll.c **** 
 536:Middlewares/lvgl/src/core/lv_indev_scroll.c **** 
 537:Middlewares/lvgl/src/core/lv_indev_scroll.c **** static lv_coord_t scroll_throw_predict_y(_lv_indev_proc_t * proc)
 538:Middlewares/lvgl/src/core/lv_indev_scroll.c **** {
 148              		.loc 1 538 1 is_stmt 1 view -0
 149              		.cfi_startproc
ARM GAS  /tmp/ccHFiCt0.s 			page 13


 150              		@ args = 0, pretend = 0, frame = 0
 151              		@ frame_needed = 0, uses_anonymous_args = 0
 152              		.loc 1 538 1 is_stmt 0 view .LVU52
 153 0000 10B5     		push	{r4, lr}
 154              	.LCFI1:
 155              		.cfi_def_cfa_offset 8
 156              		.cfi_offset 4, -8
 157              		.cfi_offset 14, -4
 539:Middlewares/lvgl/src/core/lv_indev_scroll.c ****     lv_coord_t y =  proc->types.pointer.scroll_throw_vect.y;
 158              		.loc 1 539 5 is_stmt 1 view .LVU53
 159              		.loc 1 539 16 is_stmt 0 view .LVU54
 160 0002 B0F91A40 		ldrsh	r4, [r0, #26]
 161              	.LVL4:
 540:Middlewares/lvgl/src/core/lv_indev_scroll.c ****     lv_coord_t move = 0;
 162              		.loc 1 540 5 is_stmt 1 view .LVU55
 541:Middlewares/lvgl/src/core/lv_indev_scroll.c **** 
 542:Middlewares/lvgl/src/core/lv_indev_scroll.c ****     lv_indev_t * indev_act = lv_indev_get_act();
 163              		.loc 1 542 5 view .LVU56
 164              		.loc 1 542 30 is_stmt 0 view .LVU57
 165 0006 FFF7FEFF 		bl	lv_indev_get_act
 166              	.LVL5:
 543:Middlewares/lvgl/src/core/lv_indev_scroll.c ****     lv_coord_t scroll_throw =  indev_act->driver->scroll_throw;
 167              		.loc 1 543 5 is_stmt 1 view .LVU58
 168              		.loc 1 543 41 is_stmt 0 view .LVU59
 169 000a 0368     		ldr	r3, [r0]
 170              		.loc 1 543 49 view .LVU60
 171 000c 5A7E     		ldrb	r2, [r3, #25]	@ zero_extendqisi2
 172              	.LVL6:
 544:Middlewares/lvgl/src/core/lv_indev_scroll.c **** 
 545:Middlewares/lvgl/src/core/lv_indev_scroll.c ****     while(y) {
 173              		.loc 1 545 5 is_stmt 1 view .LVU61
 540:Middlewares/lvgl/src/core/lv_indev_scroll.c **** 
 174              		.loc 1 540 16 is_stmt 0 view .LVU62
 175 000e 0020     		movs	r0, #0
 176              	.LVL7:
 177              		.loc 1 545 10 view .LVU63
 178 0010 0CE0     		b	.L8
 179              	.LVL8:
 180              	.L9:
 546:Middlewares/lvgl/src/core/lv_indev_scroll.c ****         move += y;
 181              		.loc 1 546 9 is_stmt 1 view .LVU64
 182              		.loc 1 546 14 is_stmt 0 view .LVU65
 183 0012 2044     		add	r0, r0, r4
 184              	.LVL9:
 185              		.loc 1 546 14 view .LVU66
 186 0014 00B2     		sxth	r0, r0
 187              	.LVL10:
 547:Middlewares/lvgl/src/core/lv_indev_scroll.c ****         y = y * (100 - scroll_throw) / 100;
 188              		.loc 1 547 9 is_stmt 1 view .LVU67
 189              		.loc 1 547 22 is_stmt 0 view .LVU68
 190 0016 C2F16403 		rsb	r3, r2, #100
 191              		.loc 1 547 15 view .LVU69
 192 001a 03FB04F4 		mul	r4, r3, r4
 193              	.LVL11:
 194              		.loc 1 547 38 view .LVU70
 195 001e 054B     		ldr	r3, .L11
 196 0020 83FB0413 		smull	r1, r3, r3, r4
ARM GAS  /tmp/ccHFiCt0.s 			page 14


 197 0024 E417     		asrs	r4, r4, #31
 198 0026 C4EB6314 		rsb	r4, r4, r3, asr #5
 199              		.loc 1 547 11 view .LVU71
 200 002a 24B2     		sxth	r4, r4
 201              	.LVL12:
 202              	.L8:
 545:Middlewares/lvgl/src/core/lv_indev_scroll.c ****         move += y;
 203              		.loc 1 545 10 is_stmt 1 view .LVU72
 204 002c 002C     		cmp	r4, #0
 205 002e F0D1     		bne	.L9
 548:Middlewares/lvgl/src/core/lv_indev_scroll.c ****     }
 549:Middlewares/lvgl/src/core/lv_indev_scroll.c ****     return move;
 206              		.loc 1 549 5 view .LVU73
 550:Middlewares/lvgl/src/core/lv_indev_scroll.c **** }
 207              		.loc 1 550 1 is_stmt 0 view .LVU74
 208 0030 10BD     		pop	{r4, pc}
 209              	.LVL13:
 210              	.L12:
 211              		.loc 1 550 1 view .LVU75
 212 0032 00BF     		.align	2
 213              	.L11:
 214 0034 1F85EB51 		.word	1374389535
 215              		.cfi_endproc
 216              	.LFE156:
 218              		.section	.text.scroll_throw_predict_x,"ax",%progbits
 219              		.align	1
 220              		.syntax unified
 221              		.thumb
 222              		.thumb_func
 223              		.fpu softvfp
 225              	scroll_throw_predict_x:
 226              	.LVL14:
 227              	.LFB157:
 551:Middlewares/lvgl/src/core/lv_indev_scroll.c **** 
 552:Middlewares/lvgl/src/core/lv_indev_scroll.c **** 
 553:Middlewares/lvgl/src/core/lv_indev_scroll.c **** static lv_coord_t scroll_throw_predict_x(_lv_indev_proc_t * proc)
 554:Middlewares/lvgl/src/core/lv_indev_scroll.c **** {
 228              		.loc 1 554 1 is_stmt 1 view -0
 229              		.cfi_startproc
 230              		@ args = 0, pretend = 0, frame = 0
 231              		@ frame_needed = 0, uses_anonymous_args = 0
 232              		.loc 1 554 1 is_stmt 0 view .LVU77
 233 0000 10B5     		push	{r4, lr}
 234              	.LCFI2:
 235              		.cfi_def_cfa_offset 8
 236              		.cfi_offset 4, -8
 237              		.cfi_offset 14, -4
 555:Middlewares/lvgl/src/core/lv_indev_scroll.c ****     lv_coord_t x =  proc->types.pointer.scroll_throw_vect.x;
 238              		.loc 1 555 5 is_stmt 1 view .LVU78
 239              		.loc 1 555 16 is_stmt 0 view .LVU79
 240 0002 B0F91840 		ldrsh	r4, [r0, #24]
 241              	.LVL15:
 556:Middlewares/lvgl/src/core/lv_indev_scroll.c ****     lv_coord_t move = 0;
 242              		.loc 1 556 5 is_stmt 1 view .LVU80
 557:Middlewares/lvgl/src/core/lv_indev_scroll.c **** 
 558:Middlewares/lvgl/src/core/lv_indev_scroll.c ****     lv_indev_t * indev_act = lv_indev_get_act();
 243              		.loc 1 558 5 view .LVU81
ARM GAS  /tmp/ccHFiCt0.s 			page 15


 244              		.loc 1 558 30 is_stmt 0 view .LVU82
 245 0006 FFF7FEFF 		bl	lv_indev_get_act
 246              	.LVL16:
 559:Middlewares/lvgl/src/core/lv_indev_scroll.c ****     lv_coord_t scroll_throw =  indev_act->driver->scroll_throw;
 247              		.loc 1 559 5 is_stmt 1 view .LVU83
 248              		.loc 1 559 41 is_stmt 0 view .LVU84
 249 000a 0368     		ldr	r3, [r0]
 250              		.loc 1 559 49 view .LVU85
 251 000c 5A7E     		ldrb	r2, [r3, #25]	@ zero_extendqisi2
 252              	.LVL17:
 560:Middlewares/lvgl/src/core/lv_indev_scroll.c **** 
 561:Middlewares/lvgl/src/core/lv_indev_scroll.c ****     while(x) {
 253              		.loc 1 561 5 is_stmt 1 view .LVU86
 556:Middlewares/lvgl/src/core/lv_indev_scroll.c **** 
 254              		.loc 1 556 16 is_stmt 0 view .LVU87
 255 000e 0020     		movs	r0, #0
 256              	.LVL18:
 257              		.loc 1 561 10 view .LVU88
 258 0010 0CE0     		b	.L14
 259              	.LVL19:
 260              	.L15:
 562:Middlewares/lvgl/src/core/lv_indev_scroll.c ****         move += x;
 261              		.loc 1 562 9 is_stmt 1 view .LVU89
 262              		.loc 1 562 14 is_stmt 0 view .LVU90
 263 0012 2044     		add	r0, r0, r4
 264              	.LVL20:
 265              		.loc 1 562 14 view .LVU91
 266 0014 00B2     		sxth	r0, r0
 267              	.LVL21:
 563:Middlewares/lvgl/src/core/lv_indev_scroll.c ****         x = x * (100 - scroll_throw) / 100;
 268              		.loc 1 563 9 is_stmt 1 view .LVU92
 269              		.loc 1 563 22 is_stmt 0 view .LVU93
 270 0016 C2F16403 		rsb	r3, r2, #100
 271              		.loc 1 563 15 view .LVU94
 272 001a 03FB04F4 		mul	r4, r3, r4
 273              	.LVL22:
 274              		.loc 1 563 38 view .LVU95
 275 001e 054B     		ldr	r3, .L17
 276 0020 83FB0413 		smull	r1, r3, r3, r4
 277 0024 E417     		asrs	r4, r4, #31
 278 0026 C4EB6314 		rsb	r4, r4, r3, asr #5
 279              		.loc 1 563 11 view .LVU96
 280 002a 24B2     		sxth	r4, r4
 281              	.LVL23:
 282              	.L14:
 561:Middlewares/lvgl/src/core/lv_indev_scroll.c ****         move += x;
 283              		.loc 1 561 10 is_stmt 1 view .LVU97
 284 002c 002C     		cmp	r4, #0
 285 002e F0D1     		bne	.L15
 564:Middlewares/lvgl/src/core/lv_indev_scroll.c ****     }
 565:Middlewares/lvgl/src/core/lv_indev_scroll.c ****     return move;
 286              		.loc 1 565 5 view .LVU98
 566:Middlewares/lvgl/src/core/lv_indev_scroll.c **** }
 287              		.loc 1 566 1 is_stmt 0 view .LVU99
 288 0030 10BD     		pop	{r4, pc}
 289              	.LVL24:
 290              	.L18:
ARM GAS  /tmp/ccHFiCt0.s 			page 16


 291              		.loc 1 566 1 view .LVU100
 292 0032 00BF     		.align	2
 293              	.L17:
 294 0034 1F85EB51 		.word	1374389535
 295              		.cfi_endproc
 296              	.LFE157:
 298              		.section	.text.find_scroll_obj,"ax",%progbits
 299              		.align	1
 300              		.syntax unified
 301              		.thumb
 302              		.thumb_func
 303              		.fpu softvfp
 305              	find_scroll_obj:
 306              	.LVL25:
 307              	.LFB151:
 239:Middlewares/lvgl/src/core/lv_indev_scroll.c ****     lv_obj_t * obj_candidate = NULL;
 308              		.loc 1 239 1 is_stmt 1 view -0
 309              		.cfi_startproc
 310              		@ args = 0, pretend = 0, frame = 24
 311              		@ frame_needed = 0, uses_anonymous_args = 0
 239:Middlewares/lvgl/src/core/lv_indev_scroll.c ****     lv_obj_t * obj_candidate = NULL;
 312              		.loc 1 239 1 is_stmt 0 view .LVU102
 313 0000 2DE9F04F 		push	{r4, r5, r6, r7, r8, r9, r10, fp, lr}
 314              	.LCFI3:
 315              		.cfi_def_cfa_offset 36
 316              		.cfi_offset 4, -36
 317              		.cfi_offset 5, -32
 318              		.cfi_offset 6, -28
 319              		.cfi_offset 7, -24
 320              		.cfi_offset 8, -20
 321              		.cfi_offset 9, -16
 322              		.cfi_offset 10, -12
 323              		.cfi_offset 11, -8
 324              		.cfi_offset 14, -4
 325 0004 87B0     		sub	sp, sp, #28
 326              	.LCFI4:
 327              		.cfi_def_cfa_offset 64
 328 0006 8046     		mov	r8, r0
 240:Middlewares/lvgl/src/core/lv_indev_scroll.c ****     lv_dir_t dir_candidate = LV_DIR_NONE;
 329              		.loc 1 240 5 is_stmt 1 view .LVU103
 330              	.LVL26:
 241:Middlewares/lvgl/src/core/lv_indev_scroll.c ****     lv_indev_t * indev_act = lv_indev_get_act();
 331              		.loc 1 241 5 view .LVU104
 242:Middlewares/lvgl/src/core/lv_indev_scroll.c ****     lv_coord_t scroll_limit =  indev_act->driver->scroll_limit;
 332              		.loc 1 242 5 view .LVU105
 242:Middlewares/lvgl/src/core/lv_indev_scroll.c ****     lv_coord_t scroll_limit =  indev_act->driver->scroll_limit;
 333              		.loc 1 242 30 is_stmt 0 view .LVU106
 334 0008 FFF7FEFF 		bl	lv_indev_get_act
 335              	.LVL27:
 243:Middlewares/lvgl/src/core/lv_indev_scroll.c **** 
 336              		.loc 1 243 5 is_stmt 1 view .LVU107
 243:Middlewares/lvgl/src/core/lv_indev_scroll.c **** 
 337              		.loc 1 243 41 is_stmt 0 view .LVU108
 338 000c 0368     		ldr	r3, [r0]
 243:Middlewares/lvgl/src/core/lv_indev_scroll.c **** 
 339              		.loc 1 243 49 view .LVU109
 340 000e 93F818A0 		ldrb	r10, [r3, #24]	@ zero_extendqisi2
ARM GAS  /tmp/ccHFiCt0.s 			page 17


 243:Middlewares/lvgl/src/core/lv_indev_scroll.c **** 
 341              		.loc 1 243 16 view .LVU110
 342 0012 0FFA8AFB 		sxth	fp, r10
 343              	.LVL28:
 252:Middlewares/lvgl/src/core/lv_indev_scroll.c ****     while(obj_act) {
 344              		.loc 1 252 5 is_stmt 1 view .LVU111
 252:Middlewares/lvgl/src/core/lv_indev_scroll.c ****     while(obj_act) {
 345              		.loc 1 252 16 is_stmt 0 view .LVU112
 346 0016 D8F82040 		ldr	r4, [r8, #32]
 347              	.LVL29:
 253:Middlewares/lvgl/src/core/lv_indev_scroll.c ****         if(lv_obj_has_flag(obj_act, LV_OBJ_FLAG_SCROLLABLE) == false) {
 348              		.loc 1 253 5 is_stmt 1 view .LVU113
 241:Middlewares/lvgl/src/core/lv_indev_scroll.c ****     lv_indev_t * indev_act = lv_indev_get_act();
 349              		.loc 1 241 14 is_stmt 0 view .LVU114
 350 001a 0023     		movs	r3, #0
 351 001c 0593     		str	r3, [sp, #20]
 240:Middlewares/lvgl/src/core/lv_indev_scroll.c ****     lv_dir_t dir_candidate = LV_DIR_NONE;
 352              		.loc 1 240 16 view .LVU115
 353 001e 0393     		str	r3, [sp, #12]
 253:Middlewares/lvgl/src/core/lv_indev_scroll.c ****         if(lv_obj_has_flag(obj_act, LV_OBJ_FLAG_SCROLLABLE) == false) {
 354              		.loc 1 253 10 view .LVU116
 355 0020 7AE0     		b	.L20
 356              	.LVL30:
 357              	.L70:
 358              	.LBB49:
 256:Middlewares/lvgl/src/core/lv_indev_scroll.c ****             obj_act = lv_obj_get_parent(obj_act);
 359              		.loc 1 256 13 is_stmt 1 view .LVU117
 256:Middlewares/lvgl/src/core/lv_indev_scroll.c ****             obj_act = lv_obj_get_parent(obj_act);
 360              		.loc 1 256 16 is_stmt 0 view .LVU118
 361 0022 4FF48071 		mov	r1, #256
 362 0026 2046     		mov	r0, r4
 363 0028 FFF7FEFF 		bl	lv_obj_has_flag
 364              	.LVL31:
 256:Middlewares/lvgl/src/core/lv_indev_scroll.c ****             obj_act = lv_obj_get_parent(obj_act);
 365              		.loc 1 256 15 view .LVU119
 366 002c 98B9     		cbnz	r0, .L64
 367              	.L22:
 256:Middlewares/lvgl/src/core/lv_indev_scroll.c ****             obj_act = lv_obj_get_parent(obj_act);
 368              		.loc 1 256 15 view .LVU120
 369              	.LBE49:
 333:Middlewares/lvgl/src/core/lv_indev_scroll.c ****         proc->types.pointer.scroll_dir = dir_candidate;
 370              		.loc 1 333 5 is_stmt 1 view .LVU121
 333:Middlewares/lvgl/src/core/lv_indev_scroll.c ****         proc->types.pointer.scroll_dir = dir_candidate;
 371              		.loc 1 333 7 is_stmt 0 view .LVU122
 372 002e 039A     		ldr	r2, [sp, #12]
 373 0030 6AB1     		cbz	r2, .L19
 334:Middlewares/lvgl/src/core/lv_indev_scroll.c ****         proc->types.pointer.scroll_obj = obj_candidate;
 374              		.loc 1 334 9 is_stmt 1 view .LVU123
 334:Middlewares/lvgl/src/core/lv_indev_scroll.c ****         proc->types.pointer.scroll_obj = obj_candidate;
 375              		.loc 1 334 40 is_stmt 0 view .LVU124
 376 0032 98F83C30 		ldrb	r3, [r8, #60]	@ zero_extendqisi2
 377 0036 0599     		ldr	r1, [sp, #20]
 378 0038 61F30303 		bfi	r3, r1, #0, #4
 379 003c 88F83C30 		strb	r3, [r8, #60]
 335:Middlewares/lvgl/src/core/lv_indev_scroll.c ****         proc->types.pointer.scroll_sum.x = 0;
 380              		.loc 1 335 9 is_stmt 1 view .LVU125
 335:Middlewares/lvgl/src/core/lv_indev_scroll.c ****         proc->types.pointer.scroll_sum.x = 0;
ARM GAS  /tmp/ccHFiCt0.s 			page 18


 381              		.loc 1 335 40 is_stmt 0 view .LVU126
 382 0040 C8F82820 		str	r2, [r8, #40]
 336:Middlewares/lvgl/src/core/lv_indev_scroll.c ****         proc->types.pointer.scroll_sum.y = 0;
 383              		.loc 1 336 9 is_stmt 1 view .LVU127
 336:Middlewares/lvgl/src/core/lv_indev_scroll.c ****         proc->types.pointer.scroll_sum.y = 0;
 384              		.loc 1 336 42 is_stmt 0 view .LVU128
 385 0044 0023     		movs	r3, #0
 386 0046 A8F81430 		strh	r3, [r8, #20]	@ movhi
 337:Middlewares/lvgl/src/core/lv_indev_scroll.c ****     }
 387              		.loc 1 337 9 is_stmt 1 view .LVU129
 337:Middlewares/lvgl/src/core/lv_indev_scroll.c ****     }
 388              		.loc 1 337 42 is_stmt 0 view .LVU130
 389 004a A8F81630 		strh	r3, [r8, #22]	@ movhi
 340:Middlewares/lvgl/src/core/lv_indev_scroll.c **** }
 390              		.loc 1 340 5 is_stmt 1 view .LVU131
 391              	.LVL32:
 392              	.L19:
 341:Middlewares/lvgl/src/core/lv_indev_scroll.c **** 
 393              		.loc 1 341 1 is_stmt 0 view .LVU132
 394 004e 0398     		ldr	r0, [sp, #12]
 395 0050 07B0     		add	sp, sp, #28
 396              	.LCFI5:
 397              		.cfi_remember_state
 398              		.cfi_def_cfa_offset 36
 399              		@ sp needed
 400 0052 BDE8F08F 		pop	{r4, r5, r6, r7, r8, r9, r10, fp, pc}
 401              	.LVL33:
 402              	.L64:
 403              	.LCFI6:
 404              		.cfi_restore_state
 405              	.LBB50:
 257:Middlewares/lvgl/src/core/lv_indev_scroll.c ****             continue;
 406              		.loc 1 257 13 is_stmt 1 view .LVU133
 257:Middlewares/lvgl/src/core/lv_indev_scroll.c ****             continue;
 407              		.loc 1 257 23 is_stmt 0 view .LVU134
 408 0056 2046     		mov	r0, r4
 409 0058 FFF7FEFF 		bl	lv_obj_get_parent
 410              	.LVL34:
 411 005c 0446     		mov	r4, r0
 412              	.LVL35:
 258:Middlewares/lvgl/src/core/lv_indev_scroll.c ****         }
 413              		.loc 1 258 13 is_stmt 1 view .LVU135
 414 005e 5BE0     		b	.L20
 415              	.LVL36:
 416              	.L47:
 262:Middlewares/lvgl/src/core/lv_indev_scroll.c ****         bool ver_en = false;
 417              		.loc 1 262 14 is_stmt 0 view .LVU136
 418 0060 0023     		movs	r3, #0
 419 0062 0493     		str	r3, [sp, #16]
 420 0064 72E0     		b	.L24
 421              	.LVL37:
 422              	.L48:
 279:Middlewares/lvgl/src/core/lv_indev_scroll.c ****         if((scroll_dir & LV_DIR_RIGHT) == 0) right_en = false;
 423              		.loc 1 279 53 view .LVU137
 424 0066 0027     		movs	r7, #0
 425 0068 77E0     		b	.L25
 426              	.LVL38:
ARM GAS  /tmp/ccHFiCt0.s 			page 19


 427              	.L49:
 280:Middlewares/lvgl/src/core/lv_indev_scroll.c ****         if((scroll_dir & LV_DIR_TOP) == 0) up_en = false;
 428              		.loc 1 280 55 view .LVU138
 429 006a 0026     		movs	r6, #0
 430 006c 79E0     		b	.L26
 431              	.LVL39:
 432              	.L50:
 281:Middlewares/lvgl/src/core/lv_indev_scroll.c ****         if((scroll_dir & LV_DIR_BOTTOM) == 0) down_en = false;
 433              		.loc 1 281 50 view .LVU139
 434 006e 0023     		movs	r3, #0
 435 0070 0093     		str	r3, [sp]
 436 0072 7AE0     		b	.L27
 437              	.LVL40:
 438              	.L71:
 294:Middlewares/lvgl/src/core/lv_indev_scroll.c ****                 ((up_en    && proc->types.pointer.scroll_sum.y >= scroll_limit) ||
 439              		.loc 1 294 20 discriminator 2 view .LVU140
 440 0074 029B     		ldr	r3, [sp, #8]
 441 0076 002B     		cmp	r3, #0
 442 0078 00F38E80 		bgt	.L29
 443 007c 02E0     		b	.L30
 444              	.L52:
 298:Middlewares/lvgl/src/core/lv_indev_scroll.c ****             dir_candidate = LV_DIR_VER;
 445              		.loc 1 298 27 view .LVU141
 446 007e 0394     		str	r4, [sp, #12]
 447              	.LVL41:
 299:Middlewares/lvgl/src/core/lv_indev_scroll.c ****         }
 448              		.loc 1 299 27 view .LVU142
 449 0080 0C23     		movs	r3, #12
 450 0082 0593     		str	r3, [sp, #20]
 451              	.LVL42:
 452              	.L30:
 302:Middlewares/lvgl/src/core/lv_indev_scroll.c ****                 ((left_en    && proc->types.pointer.scroll_sum.x >=  scroll_limit) ||
 453              		.loc 1 302 9 is_stmt 1 view .LVU143
 302:Middlewares/lvgl/src/core/lv_indev_scroll.c ****                 ((left_en    && proc->types.pointer.scroll_sum.x >=  scroll_limit) ||
 454              		.loc 1 302 11 is_stmt 0 view .LVU144
 455 0084 B9F1000F 		cmp	r9, #0
 456 0088 0FDD     		ble	.L65
 457              	.L32:
 302:Middlewares/lvgl/src/core/lv_indev_scroll.c ****                 ((left_en    && proc->types.pointer.scroll_sum.x >=  scroll_limit) ||
 458              		.loc 1 302 32 discriminator 3 view .LVU145
 459 008a 1FB1     		cbz	r7, .L34
 303:Middlewares/lvgl/src/core/lv_indev_scroll.c ****                         (right_en  && proc->types.pointer.scroll_sum.x <= - scroll_limit)))
 460              		.loc 1 303 63 view .LVU146
 461 008c B8F91430 		ldrsh	r3, [r8, #20]
 303:Middlewares/lvgl/src/core/lv_indev_scroll.c ****                         (right_en  && proc->types.pointer.scroll_sum.x <= - scroll_limit)))
 462              		.loc 1 303 30 view .LVU147
 463 0090 5B45     		cmp	r3, fp
 464 0092 0DDA     		bge	.L54
 465              	.L34:
 303:Middlewares/lvgl/src/core/lv_indev_scroll.c ****                         (right_en  && proc->types.pointer.scroll_sum.x <= - scroll_limit)))
 466              		.loc 1 303 84 discriminator 1 view .LVU148
 467 0094 7EB1     		cbz	r6, .L33
 304:Middlewares/lvgl/src/core/lv_indev_scroll.c ****         {
 468              		.loc 1 304 69 view .LVU149
 469 0096 B8F91420 		ldrsh	r2, [r8, #20]
 304:Middlewares/lvgl/src/core/lv_indev_scroll.c ****         {
 470              		.loc 1 304 75 view .LVU150
ARM GAS  /tmp/ccHFiCt0.s 			page 20


 471 009a CAF10003 		rsb	r3, r10, #0
 304:Middlewares/lvgl/src/core/lv_indev_scroll.c ****         {
 472              		.loc 1 304 36 view .LVU151
 473 009e 9A42     		cmp	r2, r3
 474 00a0 09DC     		bgt	.L33
 306:Middlewares/lvgl/src/core/lv_indev_scroll.c ****             dir_candidate = LV_DIR_HOR;
 475              		.loc 1 306 27 view .LVU152
 476 00a2 0394     		str	r4, [sp, #12]
 477              	.LVL43:
 307:Middlewares/lvgl/src/core/lv_indev_scroll.c ****         }
 478              		.loc 1 307 27 view .LVU153
 479 00a4 0323     		movs	r3, #3
 480 00a6 0593     		str	r3, [sp, #20]
 481              	.LVL44:
 307:Middlewares/lvgl/src/core/lv_indev_scroll.c ****         }
 482              		.loc 1 307 27 view .LVU154
 483 00a8 05E0     		b	.L33
 484              	.LVL45:
 485              	.L65:
 302:Middlewares/lvgl/src/core/lv_indev_scroll.c ****                 ((left_en    && proc->types.pointer.scroll_sum.x >=  scroll_limit) ||
 486              		.loc 1 302 20 discriminator 2 view .LVU155
 487 00aa 0028     		cmp	r0, #0
 488 00ac EDDC     		bgt	.L32
 489 00ae 02E0     		b	.L33
 490              	.L54:
 306:Middlewares/lvgl/src/core/lv_indev_scroll.c ****             dir_candidate = LV_DIR_HOR;
 491              		.loc 1 306 27 view .LVU156
 492 00b0 0394     		str	r4, [sp, #12]
 493              	.LVL46:
 307:Middlewares/lvgl/src/core/lv_indev_scroll.c ****         }
 494              		.loc 1 307 27 view .LVU157
 495 00b2 0323     		movs	r3, #3
 496 00b4 0593     		str	r3, [sp, #20]
 497              	.LVL47:
 498              	.L33:
 310:Middlewares/lvgl/src/core/lv_indev_scroll.c ****         if(sb <= 0) down_en = false;
 499              		.loc 1 310 9 is_stmt 1 view .LVU158
 310:Middlewares/lvgl/src/core/lv_indev_scroll.c ****         if(sb <= 0) down_en = false;
 500              		.loc 1 310 11 is_stmt 0 view .LVU159
 501 00b6 019B     		ldr	r3, [sp, #4]
 502 00b8 002B     		cmp	r3, #0
 503 00ba 40F38280 		ble	.L66
 504              	.LVL48:
 505              	.L35:
 311:Middlewares/lvgl/src/core/lv_indev_scroll.c ****         if(sl <= 0) left_en = false;
 506              		.loc 1 311 9 is_stmt 1 view .LVU160
 311:Middlewares/lvgl/src/core/lv_indev_scroll.c ****         if(sl <= 0) left_en = false;
 507              		.loc 1 311 11 is_stmt 0 view .LVU161
 508 00be 029B     		ldr	r3, [sp, #8]
 509 00c0 002B     		cmp	r3, #0
 510 00c2 40F38180 		ble	.L67
 511              	.LVL49:
 512              	.L36:
 312:Middlewares/lvgl/src/core/lv_indev_scroll.c ****         if(sr <= 0) right_en = false;
 513              		.loc 1 312 9 is_stmt 1 view .LVU162
 312:Middlewares/lvgl/src/core/lv_indev_scroll.c ****         if(sr <= 0) right_en = false;
 514              		.loc 1 312 11 is_stmt 0 view .LVU163
ARM GAS  /tmp/ccHFiCt0.s 			page 21


 515 00c6 B9F1000F 		cmp	r9, #0
 516 00ca 7FDD     		ble	.L68
 517              	.LVL50:
 518              	.L37:
 313:Middlewares/lvgl/src/core/lv_indev_scroll.c **** 
 519              		.loc 1 313 9 is_stmt 1 view .LVU164
 313:Middlewares/lvgl/src/core/lv_indev_scroll.c **** 
 520              		.loc 1 313 11 is_stmt 0 view .LVU165
 521 00cc 0028     		cmp	r0, #0
 522 00ce 7FDD     		ble	.L69
 523              	.LVL51:
 524              	.L38:
 316:Middlewares/lvgl/src/core/lv_indev_scroll.c ****                 (right_en && proc->types.pointer.scroll_sum.x <= - scroll_limit) ||
 525              		.loc 1 316 9 is_stmt 1 view .LVU166
 316:Middlewares/lvgl/src/core/lv_indev_scroll.c ****                 (right_en && proc->types.pointer.scroll_sum.x <= - scroll_limit) ||
 526              		.loc 1 316 11 is_stmt 0 view .LVU167
 527 00d0 1FB1     		cbz	r7, .L39
 316:Middlewares/lvgl/src/core/lv_indev_scroll.c ****                 (right_en && proc->types.pointer.scroll_sum.x <= - scroll_limit) ||
 528              		.loc 1 316 55 discriminator 1 view .LVU168
 529 00d2 B8F91430 		ldrsh	r3, [r8, #20]
 316:Middlewares/lvgl/src/core/lv_indev_scroll.c ****                 (right_en && proc->types.pointer.scroll_sum.x <= - scroll_limit) ||
 530              		.loc 1 316 22 discriminator 1 view .LVU169
 531 00d6 5B45     		cmp	r3, fp
 532 00d8 7CDA     		bge	.L40
 533              	.L39:
 316:Middlewares/lvgl/src/core/lv_indev_scroll.c ****                 (right_en && proc->types.pointer.scroll_sum.x <= - scroll_limit) ||
 534              		.loc 1 316 77 discriminator 3 view .LVU170
 535 00da 2EB1     		cbz	r6, .L41
 317:Middlewares/lvgl/src/core/lv_indev_scroll.c ****                 (up_en    && proc->types.pointer.scroll_sum.y >=   scroll_limit) ||
 536              		.loc 1 317 60 view .LVU171
 537 00dc B8F91420 		ldrsh	r2, [r8, #20]
 317:Middlewares/lvgl/src/core/lv_indev_scroll.c ****                 (up_en    && proc->types.pointer.scroll_sum.y >=   scroll_limit) ||
 538              		.loc 1 317 66 view .LVU172
 539 00e0 CAF10003 		rsb	r3, r10, #0
 317:Middlewares/lvgl/src/core/lv_indev_scroll.c ****                 (up_en    && proc->types.pointer.scroll_sum.y >=   scroll_limit) ||
 540              		.loc 1 317 27 view .LVU173
 541 00e4 9A42     		cmp	r2, r3
 542 00e6 75DD     		ble	.L40
 543              	.L41:
 317:Middlewares/lvgl/src/core/lv_indev_scroll.c ****                 (up_en    && proc->types.pointer.scroll_sum.y >=   scroll_limit) ||
 544              		.loc 1 317 82 discriminator 1 view .LVU174
 545 00e8 009B     		ldr	r3, [sp]
 546 00ea 1BB1     		cbz	r3, .L42
 318:Middlewares/lvgl/src/core/lv_indev_scroll.c ****                 (down_en  && proc->types.pointer.scroll_sum.y <= - scroll_limit))
 547              		.loc 1 318 60 view .LVU175
 548 00ec B8F91630 		ldrsh	r3, [r8, #22]
 318:Middlewares/lvgl/src/core/lv_indev_scroll.c ****                 (down_en  && proc->types.pointer.scroll_sum.y <= - scroll_limit))
 549              		.loc 1 318 27 view .LVU176
 550 00f0 5B45     		cmp	r3, fp
 551 00f2 6FDA     		bge	.L40
 552              	.L42:
 318:Middlewares/lvgl/src/core/lv_indev_scroll.c ****                 (down_en  && proc->types.pointer.scroll_sum.y <= - scroll_limit))
 553              		.loc 1 318 82 discriminator 1 view .LVU177
 554 00f4 2DB1     		cbz	r5, .L43
 319:Middlewares/lvgl/src/core/lv_indev_scroll.c ****         {
 555              		.loc 1 319 60 view .LVU178
 556 00f6 B8F91620 		ldrsh	r2, [r8, #22]
ARM GAS  /tmp/ccHFiCt0.s 			page 22


 319:Middlewares/lvgl/src/core/lv_indev_scroll.c ****         {
 557              		.loc 1 319 66 view .LVU179
 558 00fa CAF10003 		rsb	r3, r10, #0
 319:Middlewares/lvgl/src/core/lv_indev_scroll.c ****         {
 559              		.loc 1 319 27 view .LVU180
 560 00fe 9A42     		cmp	r2, r3
 561 0100 68DD     		ble	.L40
 562              	.L43:
 326:Middlewares/lvgl/src/core/lv_indev_scroll.c **** 
 563              		.loc 1 326 9 is_stmt 1 view .LVU181
 326:Middlewares/lvgl/src/core/lv_indev_scroll.c **** 
 564              		.loc 1 326 12 is_stmt 0 view .LVU182
 565 0102 4FF48071 		mov	r1, #256
 566 0106 2046     		mov	r0, r4
 567              	.LVL52:
 326:Middlewares/lvgl/src/core/lv_indev_scroll.c **** 
 568              		.loc 1 326 12 view .LVU183
 569 0108 FFF7FEFF 		bl	lv_obj_has_flag
 570              	.LVL53:
 326:Middlewares/lvgl/src/core/lv_indev_scroll.c **** 
 571              		.loc 1 326 11 view .LVU184
 572 010c 0028     		cmp	r0, #0
 573 010e 8ED0     		beq	.L22
 329:Middlewares/lvgl/src/core/lv_indev_scroll.c ****     }
 574              		.loc 1 329 9 is_stmt 1 view .LVU185
 329:Middlewares/lvgl/src/core/lv_indev_scroll.c ****     }
 575              		.loc 1 329 19 is_stmt 0 view .LVU186
 576 0110 2046     		mov	r0, r4
 577 0112 FFF7FEFF 		bl	lv_obj_get_parent
 578              	.LVL54:
 579 0116 0446     		mov	r4, r0
 580              	.LVL55:
 581              	.L20:
 329:Middlewares/lvgl/src/core/lv_indev_scroll.c ****     }
 582              		.loc 1 329 19 view .LVU187
 583              	.LBE50:
 253:Middlewares/lvgl/src/core/lv_indev_scroll.c ****         if(lv_obj_has_flag(obj_act, LV_OBJ_FLAG_SCROLLABLE) == false) {
 584              		.loc 1 253 10 is_stmt 1 view .LVU188
 585 0118 002C     		cmp	r4, #0
 586 011a 88D0     		beq	.L22
 587              	.LBB51:
 254:Middlewares/lvgl/src/core/lv_indev_scroll.c ****             /*If this object don't want to chain the scroll ot the parent stop searching*/
 588              		.loc 1 254 9 view .LVU189
 254:Middlewares/lvgl/src/core/lv_indev_scroll.c ****             /*If this object don't want to chain the scroll ot the parent stop searching*/
 589              		.loc 1 254 12 is_stmt 0 view .LVU190
 590 011c 1021     		movs	r1, #16
 591 011e 2046     		mov	r0, r4
 592 0120 FFF7FEFF 		bl	lv_obj_has_flag
 593              	.LVL56:
 254:Middlewares/lvgl/src/core/lv_indev_scroll.c ****             /*If this object don't want to chain the scroll ot the parent stop searching*/
 594              		.loc 1 254 11 view .LVU191
 595 0124 0546     		mov	r5, r0
 596 0126 0028     		cmp	r0, #0
 597 0128 3FF47BAF 		beq	.L70
 262:Middlewares/lvgl/src/core/lv_indev_scroll.c ****         bool ver_en = false;
 598              		.loc 1 262 9 is_stmt 1 view .LVU192
 599              	.LVL57:
ARM GAS  /tmp/ccHFiCt0.s 			page 23


 263:Middlewares/lvgl/src/core/lv_indev_scroll.c ****         if(LV_ABS(proc->types.pointer.scroll_sum.x) > LV_ABS(proc->types.pointer.scroll_sum.y)) {
 600              		.loc 1 263 9 view .LVU193
 264:Middlewares/lvgl/src/core/lv_indev_scroll.c ****             hor_en = true;
 601              		.loc 1 264 9 view .LVU194
 264:Middlewares/lvgl/src/core/lv_indev_scroll.c ****             hor_en = true;
 602              		.loc 1 264 12 is_stmt 0 view .LVU195
 603 012c B8F91420 		ldrsh	r2, [r8, #20]
 604 0130 002A     		cmp	r2, #0
 605 0132 B8BF     		it	lt
 606 0134 5242     		rsblt	r2, r2, #0
 607 0136 92B2     		uxth	r2, r2
 264:Middlewares/lvgl/src/core/lv_indev_scroll.c ****             hor_en = true;
 608              		.loc 1 264 55 view .LVU196
 609 0138 B8F91630 		ldrsh	r3, [r8, #22]
 610 013c 002B     		cmp	r3, #0
 611 013e B8BF     		it	lt
 612 0140 5B42     		rsblt	r3, r3, #0
 613 0142 9BB2     		uxth	r3, r3
 264:Middlewares/lvgl/src/core/lv_indev_scroll.c ****             hor_en = true;
 614              		.loc 1 264 11 view .LVU197
 615 0144 9A42     		cmp	r2, r3
 616 0146 8BD9     		bls	.L47
 265:Middlewares/lvgl/src/core/lv_indev_scroll.c ****         }
 617              		.loc 1 265 20 view .LVU198
 618 0148 0490     		str	r0, [sp, #16]
 263:Middlewares/lvgl/src/core/lv_indev_scroll.c ****         if(LV_ABS(proc->types.pointer.scroll_sum.x) > LV_ABS(proc->types.pointer.scroll_sum.y)) {
 619              		.loc 1 263 14 view .LVU199
 620 014a 0025     		movs	r5, #0
 621              	.L24:
 622              	.LVL58:
 272:Middlewares/lvgl/src/core/lv_indev_scroll.c ****         bool down_en = ver_en;
 623              		.loc 1 272 9 is_stmt 1 view .LVU200
 273:Middlewares/lvgl/src/core/lv_indev_scroll.c ****         bool left_en = hor_en;
 624              		.loc 1 273 9 view .LVU201
 274:Middlewares/lvgl/src/core/lv_indev_scroll.c ****         bool right_en = hor_en;
 625              		.loc 1 274 9 view .LVU202
 275:Middlewares/lvgl/src/core/lv_indev_scroll.c **** 
 626              		.loc 1 275 9 view .LVU203
 278:Middlewares/lvgl/src/core/lv_indev_scroll.c ****         if((scroll_dir & LV_DIR_LEFT) == 0) left_en = false;
 627              		.loc 1 278 9 view .LVU204
 278:Middlewares/lvgl/src/core/lv_indev_scroll.c ****         if((scroll_dir & LV_DIR_LEFT) == 0) left_en = false;
 628              		.loc 1 278 31 is_stmt 0 view .LVU205
 629 014c 2046     		mov	r0, r4
 630 014e FFF7FEFF 		bl	lv_obj_get_scroll_dir
 631              	.LVL59:
 279:Middlewares/lvgl/src/core/lv_indev_scroll.c ****         if((scroll_dir & LV_DIR_RIGHT) == 0) right_en = false;
 632              		.loc 1 279 9 is_stmt 1 view .LVU206
 279:Middlewares/lvgl/src/core/lv_indev_scroll.c ****         if((scroll_dir & LV_DIR_RIGHT) == 0) right_en = false;
 633              		.loc 1 279 11 is_stmt 0 view .LVU207
 634 0152 10F0010F 		tst	r0, #1
 635 0156 86D0     		beq	.L48
 274:Middlewares/lvgl/src/core/lv_indev_scroll.c ****         bool right_en = hor_en;
 636              		.loc 1 274 14 view .LVU208
 637 0158 049F     		ldr	r7, [sp, #16]
 638              	.L25:
 639              	.LVL60:
 280:Middlewares/lvgl/src/core/lv_indev_scroll.c ****         if((scroll_dir & LV_DIR_TOP) == 0) up_en = false;
ARM GAS  /tmp/ccHFiCt0.s 			page 24


 640              		.loc 1 280 9 is_stmt 1 view .LVU209
 280:Middlewares/lvgl/src/core/lv_indev_scroll.c ****         if((scroll_dir & LV_DIR_TOP) == 0) up_en = false;
 641              		.loc 1 280 11 is_stmt 0 view .LVU210
 642 015a 10F0020F 		tst	r0, #2
 643 015e 84D0     		beq	.L49
 275:Middlewares/lvgl/src/core/lv_indev_scroll.c **** 
 644              		.loc 1 275 14 view .LVU211
 645 0160 049E     		ldr	r6, [sp, #16]
 646              	.L26:
 647              	.LVL61:
 281:Middlewares/lvgl/src/core/lv_indev_scroll.c ****         if((scroll_dir & LV_DIR_BOTTOM) == 0) down_en = false;
 648              		.loc 1 281 9 is_stmt 1 view .LVU212
 281:Middlewares/lvgl/src/core/lv_indev_scroll.c ****         if((scroll_dir & LV_DIR_BOTTOM) == 0) down_en = false;
 649              		.loc 1 281 11 is_stmt 0 view .LVU213
 650 0162 10F0040F 		tst	r0, #4
 651 0166 82D0     		beq	.L50
 272:Middlewares/lvgl/src/core/lv_indev_scroll.c ****         bool down_en = ver_en;
 652              		.loc 1 272 14 view .LVU214
 653 0168 0095     		str	r5, [sp]
 654              	.L27:
 655              	.LVL62:
 282:Middlewares/lvgl/src/core/lv_indev_scroll.c **** 
 656              		.loc 1 282 9 is_stmt 1 view .LVU215
 282:Middlewares/lvgl/src/core/lv_indev_scroll.c **** 
 657              		.loc 1 282 11 is_stmt 0 view .LVU216
 658 016a 10F0080F 		tst	r0, #8
 659 016e 00D1     		bne	.L28
 282:Middlewares/lvgl/src/core/lv_indev_scroll.c **** 
 660              		.loc 1 282 55 view .LVU217
 661 0170 0025     		movs	r5, #0
 662              	.LVL63:
 663              	.L28:
 285:Middlewares/lvgl/src/core/lv_indev_scroll.c ****         lv_coord_t sb = lv_obj_get_scroll_bottom(obj_act);
 664              		.loc 1 285 9 is_stmt 1 view .LVU218
 285:Middlewares/lvgl/src/core/lv_indev_scroll.c ****         lv_coord_t sb = lv_obj_get_scroll_bottom(obj_act);
 665              		.loc 1 285 25 is_stmt 0 view .LVU219
 666 0172 2046     		mov	r0, r4
 667              	.LVL64:
 285:Middlewares/lvgl/src/core/lv_indev_scroll.c ****         lv_coord_t sb = lv_obj_get_scroll_bottom(obj_act);
 668              		.loc 1 285 25 view .LVU220
 669 0174 FFF7FEFF 		bl	lv_obj_get_scroll_top
 670              	.LVL65:
 671 0178 0190     		str	r0, [sp, #4]
 672              	.LVL66:
 286:Middlewares/lvgl/src/core/lv_indev_scroll.c ****         lv_coord_t sl = lv_obj_get_scroll_left(obj_act);
 673              		.loc 1 286 9 is_stmt 1 view .LVU221
 286:Middlewares/lvgl/src/core/lv_indev_scroll.c ****         lv_coord_t sl = lv_obj_get_scroll_left(obj_act);
 674              		.loc 1 286 25 is_stmt 0 view .LVU222
 675 017a 2046     		mov	r0, r4
 676 017c FFF7FEFF 		bl	lv_obj_get_scroll_bottom
 677              	.LVL67:
 678 0180 0290     		str	r0, [sp, #8]
 679              	.LVL68:
 287:Middlewares/lvgl/src/core/lv_indev_scroll.c ****         lv_coord_t sr = lv_obj_get_scroll_right(obj_act);
 680              		.loc 1 287 9 is_stmt 1 view .LVU223
 287:Middlewares/lvgl/src/core/lv_indev_scroll.c ****         lv_coord_t sr = lv_obj_get_scroll_right(obj_act);
 681              		.loc 1 287 25 is_stmt 0 view .LVU224
ARM GAS  /tmp/ccHFiCt0.s 			page 25


 682 0182 2046     		mov	r0, r4
 683 0184 FFF7FEFF 		bl	lv_obj_get_scroll_left
 684              	.LVL69:
 685 0188 8146     		mov	r9, r0
 686              	.LVL70:
 288:Middlewares/lvgl/src/core/lv_indev_scroll.c **** 
 687              		.loc 1 288 9 is_stmt 1 view .LVU225
 288:Middlewares/lvgl/src/core/lv_indev_scroll.c **** 
 688              		.loc 1 288 25 is_stmt 0 view .LVU226
 689 018a 2046     		mov	r0, r4
 690 018c FFF7FEFF 		bl	lv_obj_get_scroll_right
 691              	.LVL71:
 294:Middlewares/lvgl/src/core/lv_indev_scroll.c ****                 ((up_en    && proc->types.pointer.scroll_sum.y >= scroll_limit) ||
 692              		.loc 1 294 9 is_stmt 1 view .LVU227
 294:Middlewares/lvgl/src/core/lv_indev_scroll.c ****                 ((up_en    && proc->types.pointer.scroll_sum.y >= scroll_limit) ||
 693              		.loc 1 294 11 is_stmt 0 view .LVU228
 694 0190 019B     		ldr	r3, [sp, #4]
 695 0192 002B     		cmp	r3, #0
 696 0194 7FF76EAF 		ble	.L71
 697              	.L29:
 294:Middlewares/lvgl/src/core/lv_indev_scroll.c ****                 ((up_en    && proc->types.pointer.scroll_sum.y >= scroll_limit) ||
 698              		.loc 1 294 32 discriminator 3 view .LVU229
 699 0198 009B     		ldr	r3, [sp]
 700 019a 23B1     		cbz	r3, .L31
 295:Middlewares/lvgl/src/core/lv_indev_scroll.c ****                         (down_en  && proc->types.pointer.scroll_sum.y <= - scroll_limit)))
 701              		.loc 1 295 61 view .LVU230
 702 019c B8F91630 		ldrsh	r3, [r8, #22]
 295:Middlewares/lvgl/src/core/lv_indev_scroll.c ****                         (down_en  && proc->types.pointer.scroll_sum.y <= - scroll_limit)))
 703              		.loc 1 295 28 view .LVU231
 704 01a0 5B45     		cmp	r3, fp
 705 01a2 BFF66CAF 		bge	.L52
 706              	.L31:
 295:Middlewares/lvgl/src/core/lv_indev_scroll.c ****                         (down_en  && proc->types.pointer.scroll_sum.y <= - scroll_limit)))
 707              		.loc 1 295 81 discriminator 1 view .LVU232
 708 01a6 002D     		cmp	r5, #0
 709 01a8 3FF46CAF 		beq	.L30
 296:Middlewares/lvgl/src/core/lv_indev_scroll.c ****         {
 710              		.loc 1 296 68 view .LVU233
 711 01ac B8F91620 		ldrsh	r2, [r8, #22]
 296:Middlewares/lvgl/src/core/lv_indev_scroll.c ****         {
 712              		.loc 1 296 74 view .LVU234
 713 01b0 CAF10003 		rsb	r3, r10, #0
 296:Middlewares/lvgl/src/core/lv_indev_scroll.c ****         {
 714              		.loc 1 296 35 view .LVU235
 715 01b4 9A42     		cmp	r2, r3
 716 01b6 3FF765AF 		bgt	.L30
 298:Middlewares/lvgl/src/core/lv_indev_scroll.c ****             dir_candidate = LV_DIR_VER;
 717              		.loc 1 298 27 view .LVU236
 718 01ba 0394     		str	r4, [sp, #12]
 719              	.LVL72:
 299:Middlewares/lvgl/src/core/lv_indev_scroll.c ****         }
 720              		.loc 1 299 27 view .LVU237
 721 01bc 0C23     		movs	r3, #12
 722 01be 0593     		str	r3, [sp, #20]
 723              	.LVL73:
 299:Middlewares/lvgl/src/core/lv_indev_scroll.c ****         }
 724              		.loc 1 299 27 view .LVU238
ARM GAS  /tmp/ccHFiCt0.s 			page 26


 725 01c0 60E7     		b	.L30
 726              	.LVL74:
 727              	.L66:
 310:Middlewares/lvgl/src/core/lv_indev_scroll.c ****         if(sb <= 0) down_en = false;
 728              		.loc 1 310 27 view .LVU239
 729 01c2 0023     		movs	r3, #0
 730 01c4 0093     		str	r3, [sp]
 731              	.LVL75:
 310:Middlewares/lvgl/src/core/lv_indev_scroll.c ****         if(sb <= 0) down_en = false;
 732              		.loc 1 310 27 view .LVU240
 733 01c6 7AE7     		b	.L35
 734              	.LVL76:
 735              	.L67:
 311:Middlewares/lvgl/src/core/lv_indev_scroll.c ****         if(sl <= 0) left_en = false;
 736              		.loc 1 311 29 view .LVU241
 737 01c8 0025     		movs	r5, #0
 738              	.LVL77:
 311:Middlewares/lvgl/src/core/lv_indev_scroll.c ****         if(sl <= 0) left_en = false;
 739              		.loc 1 311 29 view .LVU242
 740 01ca 7CE7     		b	.L36
 741              	.LVL78:
 742              	.L68:
 312:Middlewares/lvgl/src/core/lv_indev_scroll.c ****         if(sr <= 0) right_en = false;
 743              		.loc 1 312 29 view .LVU243
 744 01cc 0027     		movs	r7, #0
 745              	.LVL79:
 312:Middlewares/lvgl/src/core/lv_indev_scroll.c ****         if(sr <= 0) right_en = false;
 746              		.loc 1 312 29 view .LVU244
 747 01ce 7DE7     		b	.L37
 748              	.LVL80:
 749              	.L69:
 313:Middlewares/lvgl/src/core/lv_indev_scroll.c **** 
 750              		.loc 1 313 30 view .LVU245
 751 01d0 0026     		movs	r6, #0
 752              	.LVL81:
 313:Middlewares/lvgl/src/core/lv_indev_scroll.c **** 
 753              		.loc 1 313 30 view .LVU246
 754 01d2 7DE7     		b	.L38
 755              	.LVL82:
 756              	.L40:
 321:Middlewares/lvgl/src/core/lv_indev_scroll.c ****             break;
 757              		.loc 1 321 13 is_stmt 1 view .LVU247
 321:Middlewares/lvgl/src/core/lv_indev_scroll.c ****             break;
 758              		.loc 1 321 66 is_stmt 0 view .LVU248
 759 01d4 049B     		ldr	r3, [sp, #16]
 760 01d6 3BB1     		cbz	r3, .L60
 761 01d8 0322     		movs	r2, #3
 762              	.L44:
 321:Middlewares/lvgl/src/core/lv_indev_scroll.c ****             break;
 763              		.loc 1 321 44 discriminator 4 view .LVU249
 764 01da 98F83C30 		ldrb	r3, [r8, #60]	@ zero_extendqisi2
 765 01de 62F30303 		bfi	r3, r2, #0, #4
 766 01e2 88F83C30 		strb	r3, [r8, #60]
 322:Middlewares/lvgl/src/core/lv_indev_scroll.c ****         }
 767              		.loc 1 322 13 is_stmt 1 discriminator 4 view .LVU250
 768 01e6 22E7     		b	.L22
 769              	.L60:
ARM GAS  /tmp/ccHFiCt0.s 			page 27


 321:Middlewares/lvgl/src/core/lv_indev_scroll.c ****             break;
 770              		.loc 1 321 66 is_stmt 0 view .LVU251
 771 01e8 0C22     		movs	r2, #12
 772 01ea F6E7     		b	.L44
 773              	.LBE51:
 774              		.cfi_endproc
 775              	.LFE151:
 777              		.section	.text.find_snap_point_y,"ax",%progbits
 778              		.align	1
 779              		.syntax unified
 780              		.thumb
 781              		.thumb_func
 782              		.fpu softvfp
 784              	find_snap_point_y:
 785              	.LVL83:
 786              	.LFB154:
 467:Middlewares/lvgl/src/core/lv_indev_scroll.c ****     lv_scroll_snap_t align = lv_obj_get_scroll_snap_y(obj);
 787              		.loc 1 467 1 is_stmt 1 view -0
 788              		.cfi_startproc
 789              		@ args = 0, pretend = 0, frame = 24
 790              		@ frame_needed = 0, uses_anonymous_args = 0
 467:Middlewares/lvgl/src/core/lv_indev_scroll.c ****     lv_scroll_snap_t align = lv_obj_get_scroll_snap_y(obj);
 791              		.loc 1 467 1 is_stmt 0 view .LVU253
 792 0000 2DE9F04F 		push	{r4, r5, r6, r7, r8, r9, r10, fp, lr}
 793              	.LCFI7:
 794              		.cfi_def_cfa_offset 36
 795              		.cfi_offset 4, -36
 796              		.cfi_offset 5, -32
 797              		.cfi_offset 6, -28
 798              		.cfi_offset 7, -24
 799              		.cfi_offset 8, -20
 800              		.cfi_offset 9, -16
 801              		.cfi_offset 10, -12
 802              		.cfi_offset 11, -8
 803              		.cfi_offset 14, -4
 804 0004 87B0     		sub	sp, sp, #28
 805              	.LCFI8:
 806              		.cfi_def_cfa_offset 64
 807 0006 0646     		mov	r6, r0
 808 0008 8A46     		mov	r10, r1
 809 000a 0192     		str	r2, [sp, #4]
 810 000c 9B46     		mov	fp, r3
 468:Middlewares/lvgl/src/core/lv_indev_scroll.c ****     if(align == LV_SCROLL_SNAP_NONE) return 0;
 811              		.loc 1 468 5 is_stmt 1 view .LVU254
 468:Middlewares/lvgl/src/core/lv_indev_scroll.c ****     if(align == LV_SCROLL_SNAP_NONE) return 0;
 812              		.loc 1 468 30 is_stmt 0 view .LVU255
 813 000e FFF7FEFF 		bl	lv_obj_get_scroll_snap_y
 814              	.LVL84:
 469:Middlewares/lvgl/src/core/lv_indev_scroll.c **** 
 815              		.loc 1 469 5 is_stmt 1 view .LVU256
 469:Middlewares/lvgl/src/core/lv_indev_scroll.c **** 
 816              		.loc 1 469 7 is_stmt 0 view .LVU257
 817 0012 18B9     		cbnz	r0, .L84
 469:Middlewares/lvgl/src/core/lv_indev_scroll.c **** 
 818              		.loc 1 469 45 view .LVU258
 819 0014 0020     		movs	r0, #0
 820              	.LVL85:
ARM GAS  /tmp/ccHFiCt0.s 			page 28


 821              	.L73:
 510:Middlewares/lvgl/src/core/lv_indev_scroll.c **** 
 822              		.loc 1 510 1 view .LVU259
 823 0016 07B0     		add	sp, sp, #28
 824              	.LCFI9:
 825              		.cfi_remember_state
 826              		.cfi_def_cfa_offset 36
 827              		@ sp needed
 828 0018 BDE8F08F 		pop	{r4, r5, r6, r7, r8, r9, r10, fp, pc}
 829              	.LVL86:
 830              	.L84:
 831              	.LCFI10:
 832              		.cfi_restore_state
 510:Middlewares/lvgl/src/core/lv_indev_scroll.c **** 
 833              		.loc 1 510 1 view .LVU260
 834 001c 8146     		mov	r9, r0
 471:Middlewares/lvgl/src/core/lv_indev_scroll.c **** 
 835              		.loc 1 471 5 is_stmt 1 view .LVU261
 836              	.LVL87:
 473:Middlewares/lvgl/src/core/lv_indev_scroll.c ****     lv_coord_t pad_bottom = lv_obj_get_style_pad_bottom(obj, LV_PART_MAIN);
 837              		.loc 1 473 5 view .LVU262
 838              	.LBB52:
 839              	.LBI52:
 840              		.file 2 "Middlewares/lvgl/src/core/lv_obj_style_gen.h"
   1:Middlewares/lvgl/src/core/lv_obj_style_gen.h **** static inline lv_coord_t lv_obj_get_style_width(const struct _lv_obj_t * obj, uint32_t part)
   2:Middlewares/lvgl/src/core/lv_obj_style_gen.h **** {
   3:Middlewares/lvgl/src/core/lv_obj_style_gen.h ****     lv_style_value_t v = lv_obj_get_style_prop(obj, part, LV_STYLE_WIDTH);
   4:Middlewares/lvgl/src/core/lv_obj_style_gen.h ****     return (lv_coord_t)v.num;
   5:Middlewares/lvgl/src/core/lv_obj_style_gen.h **** }
   6:Middlewares/lvgl/src/core/lv_obj_style_gen.h **** 
   7:Middlewares/lvgl/src/core/lv_obj_style_gen.h **** static inline lv_coord_t lv_obj_get_style_min_width(const struct _lv_obj_t * obj, uint32_t part)
   8:Middlewares/lvgl/src/core/lv_obj_style_gen.h **** {
   9:Middlewares/lvgl/src/core/lv_obj_style_gen.h ****     lv_style_value_t v = lv_obj_get_style_prop(obj, part, LV_STYLE_MIN_WIDTH);
  10:Middlewares/lvgl/src/core/lv_obj_style_gen.h ****     return (lv_coord_t)v.num;
  11:Middlewares/lvgl/src/core/lv_obj_style_gen.h **** }
  12:Middlewares/lvgl/src/core/lv_obj_style_gen.h **** 
  13:Middlewares/lvgl/src/core/lv_obj_style_gen.h **** static inline lv_coord_t lv_obj_get_style_max_width(const struct _lv_obj_t * obj, uint32_t part)
  14:Middlewares/lvgl/src/core/lv_obj_style_gen.h **** {
  15:Middlewares/lvgl/src/core/lv_obj_style_gen.h ****     lv_style_value_t v = lv_obj_get_style_prop(obj, part, LV_STYLE_MAX_WIDTH);
  16:Middlewares/lvgl/src/core/lv_obj_style_gen.h ****     return (lv_coord_t)v.num;
  17:Middlewares/lvgl/src/core/lv_obj_style_gen.h **** }
  18:Middlewares/lvgl/src/core/lv_obj_style_gen.h **** 
  19:Middlewares/lvgl/src/core/lv_obj_style_gen.h **** static inline lv_coord_t lv_obj_get_style_height(const struct _lv_obj_t * obj, uint32_t part)
  20:Middlewares/lvgl/src/core/lv_obj_style_gen.h **** {
  21:Middlewares/lvgl/src/core/lv_obj_style_gen.h ****     lv_style_value_t v = lv_obj_get_style_prop(obj, part, LV_STYLE_HEIGHT);
  22:Middlewares/lvgl/src/core/lv_obj_style_gen.h ****     return (lv_coord_t)v.num;
  23:Middlewares/lvgl/src/core/lv_obj_style_gen.h **** }
  24:Middlewares/lvgl/src/core/lv_obj_style_gen.h **** 
  25:Middlewares/lvgl/src/core/lv_obj_style_gen.h **** static inline lv_coord_t lv_obj_get_style_min_height(const struct _lv_obj_t * obj, uint32_t part)
  26:Middlewares/lvgl/src/core/lv_obj_style_gen.h **** {
  27:Middlewares/lvgl/src/core/lv_obj_style_gen.h ****     lv_style_value_t v = lv_obj_get_style_prop(obj, part, LV_STYLE_MIN_HEIGHT);
  28:Middlewares/lvgl/src/core/lv_obj_style_gen.h ****     return (lv_coord_t)v.num;
  29:Middlewares/lvgl/src/core/lv_obj_style_gen.h **** }
  30:Middlewares/lvgl/src/core/lv_obj_style_gen.h **** 
  31:Middlewares/lvgl/src/core/lv_obj_style_gen.h **** static inline lv_coord_t lv_obj_get_style_max_height(const struct _lv_obj_t * obj, uint32_t part)
  32:Middlewares/lvgl/src/core/lv_obj_style_gen.h **** {
  33:Middlewares/lvgl/src/core/lv_obj_style_gen.h ****     lv_style_value_t v = lv_obj_get_style_prop(obj, part, LV_STYLE_MAX_HEIGHT);
ARM GAS  /tmp/ccHFiCt0.s 			page 29


  34:Middlewares/lvgl/src/core/lv_obj_style_gen.h ****     return (lv_coord_t)v.num;
  35:Middlewares/lvgl/src/core/lv_obj_style_gen.h **** }
  36:Middlewares/lvgl/src/core/lv_obj_style_gen.h **** 
  37:Middlewares/lvgl/src/core/lv_obj_style_gen.h **** static inline lv_coord_t lv_obj_get_style_x(const struct _lv_obj_t * obj, uint32_t part)
  38:Middlewares/lvgl/src/core/lv_obj_style_gen.h **** {
  39:Middlewares/lvgl/src/core/lv_obj_style_gen.h ****     lv_style_value_t v = lv_obj_get_style_prop(obj, part, LV_STYLE_X);
  40:Middlewares/lvgl/src/core/lv_obj_style_gen.h ****     return (lv_coord_t)v.num;
  41:Middlewares/lvgl/src/core/lv_obj_style_gen.h **** }
  42:Middlewares/lvgl/src/core/lv_obj_style_gen.h **** 
  43:Middlewares/lvgl/src/core/lv_obj_style_gen.h **** static inline lv_coord_t lv_obj_get_style_y(const struct _lv_obj_t * obj, uint32_t part)
  44:Middlewares/lvgl/src/core/lv_obj_style_gen.h **** {
  45:Middlewares/lvgl/src/core/lv_obj_style_gen.h ****     lv_style_value_t v = lv_obj_get_style_prop(obj, part, LV_STYLE_Y);
  46:Middlewares/lvgl/src/core/lv_obj_style_gen.h ****     return (lv_coord_t)v.num;
  47:Middlewares/lvgl/src/core/lv_obj_style_gen.h **** }
  48:Middlewares/lvgl/src/core/lv_obj_style_gen.h **** 
  49:Middlewares/lvgl/src/core/lv_obj_style_gen.h **** static inline lv_align_t lv_obj_get_style_align(const struct _lv_obj_t * obj, uint32_t part)
  50:Middlewares/lvgl/src/core/lv_obj_style_gen.h **** {
  51:Middlewares/lvgl/src/core/lv_obj_style_gen.h ****     lv_style_value_t v = lv_obj_get_style_prop(obj, part, LV_STYLE_ALIGN);
  52:Middlewares/lvgl/src/core/lv_obj_style_gen.h ****     return (lv_align_t)v.num;
  53:Middlewares/lvgl/src/core/lv_obj_style_gen.h **** }
  54:Middlewares/lvgl/src/core/lv_obj_style_gen.h **** 
  55:Middlewares/lvgl/src/core/lv_obj_style_gen.h **** static inline lv_coord_t lv_obj_get_style_transform_width(const struct _lv_obj_t * obj, uint32_t pa
  56:Middlewares/lvgl/src/core/lv_obj_style_gen.h **** {
  57:Middlewares/lvgl/src/core/lv_obj_style_gen.h ****     lv_style_value_t v = lv_obj_get_style_prop(obj, part, LV_STYLE_TRANSFORM_WIDTH);
  58:Middlewares/lvgl/src/core/lv_obj_style_gen.h ****     return (lv_coord_t)v.num;
  59:Middlewares/lvgl/src/core/lv_obj_style_gen.h **** }
  60:Middlewares/lvgl/src/core/lv_obj_style_gen.h **** 
  61:Middlewares/lvgl/src/core/lv_obj_style_gen.h **** static inline lv_coord_t lv_obj_get_style_transform_height(const struct _lv_obj_t * obj, uint32_t p
  62:Middlewares/lvgl/src/core/lv_obj_style_gen.h **** {
  63:Middlewares/lvgl/src/core/lv_obj_style_gen.h ****     lv_style_value_t v = lv_obj_get_style_prop(obj, part, LV_STYLE_TRANSFORM_HEIGHT);
  64:Middlewares/lvgl/src/core/lv_obj_style_gen.h ****     return (lv_coord_t)v.num;
  65:Middlewares/lvgl/src/core/lv_obj_style_gen.h **** }
  66:Middlewares/lvgl/src/core/lv_obj_style_gen.h **** 
  67:Middlewares/lvgl/src/core/lv_obj_style_gen.h **** static inline lv_coord_t lv_obj_get_style_translate_x(const struct _lv_obj_t * obj, uint32_t part)
  68:Middlewares/lvgl/src/core/lv_obj_style_gen.h **** {
  69:Middlewares/lvgl/src/core/lv_obj_style_gen.h ****     lv_style_value_t v = lv_obj_get_style_prop(obj, part, LV_STYLE_TRANSLATE_X);
  70:Middlewares/lvgl/src/core/lv_obj_style_gen.h ****     return (lv_coord_t)v.num;
  71:Middlewares/lvgl/src/core/lv_obj_style_gen.h **** }
  72:Middlewares/lvgl/src/core/lv_obj_style_gen.h **** 
  73:Middlewares/lvgl/src/core/lv_obj_style_gen.h **** static inline lv_coord_t lv_obj_get_style_translate_y(const struct _lv_obj_t * obj, uint32_t part)
  74:Middlewares/lvgl/src/core/lv_obj_style_gen.h **** {
  75:Middlewares/lvgl/src/core/lv_obj_style_gen.h ****     lv_style_value_t v = lv_obj_get_style_prop(obj, part, LV_STYLE_TRANSLATE_Y);
  76:Middlewares/lvgl/src/core/lv_obj_style_gen.h ****     return (lv_coord_t)v.num;
  77:Middlewares/lvgl/src/core/lv_obj_style_gen.h **** }
  78:Middlewares/lvgl/src/core/lv_obj_style_gen.h **** 
  79:Middlewares/lvgl/src/core/lv_obj_style_gen.h **** static inline lv_coord_t lv_obj_get_style_transform_zoom(const struct _lv_obj_t * obj, uint32_t par
  80:Middlewares/lvgl/src/core/lv_obj_style_gen.h **** {
  81:Middlewares/lvgl/src/core/lv_obj_style_gen.h ****     lv_style_value_t v = lv_obj_get_style_prop(obj, part, LV_STYLE_TRANSFORM_ZOOM);
  82:Middlewares/lvgl/src/core/lv_obj_style_gen.h ****     return (lv_coord_t)v.num;
  83:Middlewares/lvgl/src/core/lv_obj_style_gen.h **** }
  84:Middlewares/lvgl/src/core/lv_obj_style_gen.h **** 
  85:Middlewares/lvgl/src/core/lv_obj_style_gen.h **** static inline lv_coord_t lv_obj_get_style_transform_angle(const struct _lv_obj_t * obj, uint32_t pa
  86:Middlewares/lvgl/src/core/lv_obj_style_gen.h **** {
  87:Middlewares/lvgl/src/core/lv_obj_style_gen.h ****     lv_style_value_t v = lv_obj_get_style_prop(obj, part, LV_STYLE_TRANSFORM_ANGLE);
  88:Middlewares/lvgl/src/core/lv_obj_style_gen.h ****     return (lv_coord_t)v.num;
  89:Middlewares/lvgl/src/core/lv_obj_style_gen.h **** }
  90:Middlewares/lvgl/src/core/lv_obj_style_gen.h **** 
ARM GAS  /tmp/ccHFiCt0.s 			page 30


  91:Middlewares/lvgl/src/core/lv_obj_style_gen.h **** static inline lv_coord_t lv_obj_get_style_pad_top(const struct _lv_obj_t * obj, uint32_t part)
 841              		.loc 2 91 26 view .LVU263
 842              	.LBB53:
  92:Middlewares/lvgl/src/core/lv_obj_style_gen.h **** {
  93:Middlewares/lvgl/src/core/lv_obj_style_gen.h ****     lv_style_value_t v = lv_obj_get_style_prop(obj, part, LV_STYLE_PAD_TOP);
 843              		.loc 2 93 5 view .LVU264
 844              		.loc 2 93 26 is_stmt 0 view .LVU265
 845 001e 41F21002 		movw	r2, #4112
 846 0022 0021     		movs	r1, #0
 847 0024 3046     		mov	r0, r6
 848              	.LVL88:
 849              		.loc 2 93 26 view .LVU266
 850 0026 FFF7FEFF 		bl	lv_obj_get_style_prop
 851              	.LVL89:
 852 002a 0290     		str	r0, [sp, #8]
  94:Middlewares/lvgl/src/core/lv_obj_style_gen.h ****     return (lv_coord_t)v.num;
 853              		.loc 2 94 5 is_stmt 1 view .LVU267
 854              		.loc 2 94 12 is_stmt 0 view .LVU268
 855 002c 03B2     		sxth	r3, r0
 856 002e 0593     		str	r3, [sp, #20]
 857              	.LVL90:
 858              		.loc 2 94 12 view .LVU269
 859              	.LBE53:
 860              	.LBE52:
 474:Middlewares/lvgl/src/core/lv_indev_scroll.c **** 
 861              		.loc 1 474 5 is_stmt 1 view .LVU270
 862              	.LBB54:
 863              	.LBI54:
  95:Middlewares/lvgl/src/core/lv_obj_style_gen.h **** }
  96:Middlewares/lvgl/src/core/lv_obj_style_gen.h **** 
  97:Middlewares/lvgl/src/core/lv_obj_style_gen.h **** static inline lv_coord_t lv_obj_get_style_pad_bottom(const struct _lv_obj_t * obj, uint32_t part)
 864              		.loc 2 97 26 view .LVU271
 865              	.LBB55:
  98:Middlewares/lvgl/src/core/lv_obj_style_gen.h **** {
  99:Middlewares/lvgl/src/core/lv_obj_style_gen.h ****     lv_style_value_t v = lv_obj_get_style_prop(obj, part, LV_STYLE_PAD_BOTTOM);
 866              		.loc 2 99 5 view .LVU272
 867              		.loc 2 99 26 is_stmt 0 view .LVU273
 868 0030 41F21102 		movw	r2, #4113
 869 0034 0021     		movs	r1, #0
 870 0036 3046     		mov	r0, r6
 871 0038 FFF7FEFF 		bl	lv_obj_get_style_prop
 872              	.LVL91:
 873 003c 0490     		str	r0, [sp, #16]
 100:Middlewares/lvgl/src/core/lv_obj_style_gen.h ****     return (lv_coord_t)v.num;
 874              		.loc 2 100 5 is_stmt 1 view .LVU274
 875              		.loc 2 100 12 is_stmt 0 view .LVU275
 876 003e 03B2     		sxth	r3, r0
 877 0040 0393     		str	r3, [sp, #12]
 878              	.LVL92:
 879              		.loc 2 100 12 view .LVU276
 880              	.LBE55:
 881              	.LBE54:
 476:Middlewares/lvgl/src/core/lv_indev_scroll.c ****     uint32_t child_cnt = lv_obj_get_child_cnt(obj);
 882              		.loc 1 476 5 is_stmt 1 view .LVU277
 477:Middlewares/lvgl/src/core/lv_indev_scroll.c ****     for(i = 0; i < child_cnt; i++) {
 883              		.loc 1 477 5 view .LVU278
 477:Middlewares/lvgl/src/core/lv_indev_scroll.c ****     for(i = 0; i < child_cnt; i++) {
ARM GAS  /tmp/ccHFiCt0.s 			page 31


 884              		.loc 1 477 26 is_stmt 0 view .LVU279
 885 0042 3046     		mov	r0, r6
 886 0044 FFF7FEFF 		bl	lv_obj_get_child_cnt
 887              	.LVL93:
 888 0048 0746     		mov	r7, r0
 889              	.LVL94:
 478:Middlewares/lvgl/src/core/lv_indev_scroll.c ****         lv_obj_t * child = lv_obj_get_child(obj, i);
 890              		.loc 1 478 5 is_stmt 1 view .LVU280
 478:Middlewares/lvgl/src/core/lv_indev_scroll.c ****         lv_obj_t * child = lv_obj_get_child(obj, i);
 891              		.loc 1 478 11 is_stmt 0 view .LVU281
 892 004a 0024     		movs	r4, #0
 471:Middlewares/lvgl/src/core/lv_indev_scroll.c **** 
 893              		.loc 1 471 16 view .LVU282
 894 004c 4FF4C048 		mov	r8, #24576
 478:Middlewares/lvgl/src/core/lv_indev_scroll.c ****         lv_obj_t * child = lv_obj_get_child(obj, i);
 895              		.loc 1 478 5 view .LVU283
 896 0050 26E0     		b	.L74
 897              	.LVL95:
 898              	.L76:
 899              	.LBB56:
 900              	.LBB57:
 490:Middlewares/lvgl/src/core/lv_indev_scroll.c ****                 y_parent = obj->coords.y2 - pad_bottom;
 901              		.loc 1 490 17 is_stmt 1 view .LVU284
 490:Middlewares/lvgl/src/core/lv_indev_scroll.c ****                 y_parent = obj->coords.y2 - pad_bottom;
 902              		.loc 1 490 25 is_stmt 0 view .LVU285
 903 0052 B5F91A30 		ldrsh	r3, [r5, #26]
 904              	.LVL96:
 491:Middlewares/lvgl/src/core/lv_indev_scroll.c ****                 break;
 905              		.loc 1 491 17 is_stmt 1 view .LVU286
 491:Middlewares/lvgl/src/core/lv_indev_scroll.c ****                 break;
 906              		.loc 1 491 39 is_stmt 0 view .LVU287
 907 0056 718B     		ldrh	r1, [r6, #26]
 491:Middlewares/lvgl/src/core/lv_indev_scroll.c ****                 break;
 908              		.loc 1 491 43 view .LVU288
 909 0058 049A     		ldr	r2, [sp, #16]
 910 005a 891A     		subs	r1, r1, r2
 491:Middlewares/lvgl/src/core/lv_indev_scroll.c ****                 break;
 911              		.loc 1 491 26 view .LVU289
 912 005c 09B2     		sxth	r1, r1
 913              	.LVL97:
 492:Middlewares/lvgl/src/core/lv_indev_scroll.c ****             case LV_SCROLL_SNAP_CENTER:
 914              		.loc 1 492 17 is_stmt 1 view .LVU290
 915 005e 42E0     		b	.L78
 916              	.LVL98:
 917              	.L77:
 494:Middlewares/lvgl/src/core/lv_indev_scroll.c ****                 y_parent = obj->coords.y1 + pad_top + (lv_area_get_height(&obj->coords) - pad_top -
 918              		.loc 1 494 17 view .LVU291
 494:Middlewares/lvgl/src/core/lv_indev_scroll.c ****                 y_parent = obj->coords.y1 + pad_top + (lv_area_get_height(&obj->coords) - pad_top -
 919              		.loc 1 494 40 is_stmt 0 view .LVU292
 920 0060 EB8A     		ldrh	r3, [r5, #22]
 921              	.LVL99:
 922              	.LBB58:
 923              	.LBI58:
 924              		.file 3 "Middlewares/lvgl/src/core/../misc/../font/../misc/lv_area.h"
   1:Middlewares/lvgl/src/core/../misc/../font/../misc/lv_area.h **** /**
   2:Middlewares/lvgl/src/core/../misc/../font/../misc/lv_area.h ****  * @file lv_area.h
   3:Middlewares/lvgl/src/core/../misc/../font/../misc/lv_area.h ****  *
ARM GAS  /tmp/ccHFiCt0.s 			page 32


   4:Middlewares/lvgl/src/core/../misc/../font/../misc/lv_area.h ****  */
   5:Middlewares/lvgl/src/core/../misc/../font/../misc/lv_area.h **** 
   6:Middlewares/lvgl/src/core/../misc/../font/../misc/lv_area.h **** #ifndef LV_AREA_H
   7:Middlewares/lvgl/src/core/../misc/../font/../misc/lv_area.h **** #define LV_AREA_H
   8:Middlewares/lvgl/src/core/../misc/../font/../misc/lv_area.h **** 
   9:Middlewares/lvgl/src/core/../misc/../font/../misc/lv_area.h **** #ifdef __cplusplus
  10:Middlewares/lvgl/src/core/../misc/../font/../misc/lv_area.h **** extern "C" {
  11:Middlewares/lvgl/src/core/../misc/../font/../misc/lv_area.h **** #endif
  12:Middlewares/lvgl/src/core/../misc/../font/../misc/lv_area.h **** 
  13:Middlewares/lvgl/src/core/../misc/../font/../misc/lv_area.h **** /*********************
  14:Middlewares/lvgl/src/core/../misc/../font/../misc/lv_area.h ****  *      INCLUDES
  15:Middlewares/lvgl/src/core/../misc/../font/../misc/lv_area.h ****  *********************/
  16:Middlewares/lvgl/src/core/../misc/../font/../misc/lv_area.h **** #include "../lv_conf_internal.h"
  17:Middlewares/lvgl/src/core/../misc/../font/../misc/lv_area.h **** #include <string.h>
  18:Middlewares/lvgl/src/core/../misc/../font/../misc/lv_area.h **** #include <stdbool.h>
  19:Middlewares/lvgl/src/core/../misc/../font/../misc/lv_area.h **** #include <stdint.h>
  20:Middlewares/lvgl/src/core/../misc/../font/../misc/lv_area.h **** 
  21:Middlewares/lvgl/src/core/../misc/../font/../misc/lv_area.h **** /*********************
  22:Middlewares/lvgl/src/core/../misc/../font/../misc/lv_area.h ****  *      DEFINES
  23:Middlewares/lvgl/src/core/../misc/../font/../misc/lv_area.h ****  *********************/
  24:Middlewares/lvgl/src/core/../misc/../font/../misc/lv_area.h **** 
  25:Middlewares/lvgl/src/core/../misc/../font/../misc/lv_area.h **** #define _LV_COORD_MAX_REDUCE    8192
  26:Middlewares/lvgl/src/core/../misc/../font/../misc/lv_area.h **** 
  27:Middlewares/lvgl/src/core/../misc/../font/../misc/lv_area.h **** #if LV_USE_LARGE_COORD
  28:Middlewares/lvgl/src/core/../misc/../font/../misc/lv_area.h **** typedef int32_t lv_coord_t;
  29:Middlewares/lvgl/src/core/../misc/../font/../misc/lv_area.h **** #else
  30:Middlewares/lvgl/src/core/../misc/../font/../misc/lv_area.h **** typedef int16_t lv_coord_t;
  31:Middlewares/lvgl/src/core/../misc/../font/../misc/lv_area.h **** #endif
  32:Middlewares/lvgl/src/core/../misc/../font/../misc/lv_area.h **** 
  33:Middlewares/lvgl/src/core/../misc/../font/../misc/lv_area.h **** /*To allow some special values in the end reduce the max value*/
  34:Middlewares/lvgl/src/core/../misc/../font/../misc/lv_area.h **** #define LV_COORD_MAX ((lv_coord_t)((uint32_t)((uint32_t)1 << (8 * sizeof(lv_coord_t) - 1)) - _LV_CO
  35:Middlewares/lvgl/src/core/../misc/../font/../misc/lv_area.h **** #define LV_COORD_MIN (-LV_COORD_MAX)
  36:Middlewares/lvgl/src/core/../misc/../font/../misc/lv_area.h **** 
  37:Middlewares/lvgl/src/core/../misc/../font/../misc/lv_area.h **** LV_EXPORT_CONST_INT(LV_COORD_MAX);
  38:Middlewares/lvgl/src/core/../misc/../font/../misc/lv_area.h **** LV_EXPORT_CONST_INT(LV_COORD_MIN);
  39:Middlewares/lvgl/src/core/../misc/../font/../misc/lv_area.h **** 
  40:Middlewares/lvgl/src/core/../misc/../font/../misc/lv_area.h **** /**********************
  41:Middlewares/lvgl/src/core/../misc/../font/../misc/lv_area.h ****  *      TYPEDEFS
  42:Middlewares/lvgl/src/core/../misc/../font/../misc/lv_area.h ****  **********************/
  43:Middlewares/lvgl/src/core/../misc/../font/../misc/lv_area.h **** 
  44:Middlewares/lvgl/src/core/../misc/../font/../misc/lv_area.h **** /**
  45:Middlewares/lvgl/src/core/../misc/../font/../misc/lv_area.h ****  * Represents a point on the screen.
  46:Middlewares/lvgl/src/core/../misc/../font/../misc/lv_area.h ****  */
  47:Middlewares/lvgl/src/core/../misc/../font/../misc/lv_area.h **** typedef struct {
  48:Middlewares/lvgl/src/core/../misc/../font/../misc/lv_area.h ****     lv_coord_t x;
  49:Middlewares/lvgl/src/core/../misc/../font/../misc/lv_area.h ****     lv_coord_t y;
  50:Middlewares/lvgl/src/core/../misc/../font/../misc/lv_area.h **** } lv_point_t;
  51:Middlewares/lvgl/src/core/../misc/../font/../misc/lv_area.h **** 
  52:Middlewares/lvgl/src/core/../misc/../font/../misc/lv_area.h **** /** Represents an area of the screen.*/
  53:Middlewares/lvgl/src/core/../misc/../font/../misc/lv_area.h **** typedef struct {
  54:Middlewares/lvgl/src/core/../misc/../font/../misc/lv_area.h ****     lv_coord_t x1;
  55:Middlewares/lvgl/src/core/../misc/../font/../misc/lv_area.h ****     lv_coord_t y1;
  56:Middlewares/lvgl/src/core/../misc/../font/../misc/lv_area.h ****     lv_coord_t x2;
  57:Middlewares/lvgl/src/core/../misc/../font/../misc/lv_area.h ****     lv_coord_t y2;
  58:Middlewares/lvgl/src/core/../misc/../font/../misc/lv_area.h **** } lv_area_t;
  59:Middlewares/lvgl/src/core/../misc/../font/../misc/lv_area.h **** 
  60:Middlewares/lvgl/src/core/../misc/../font/../misc/lv_area.h **** /** Alignments*/
ARM GAS  /tmp/ccHFiCt0.s 			page 33


  61:Middlewares/lvgl/src/core/../misc/../font/../misc/lv_area.h **** enum {
  62:Middlewares/lvgl/src/core/../misc/../font/../misc/lv_area.h ****     LV_ALIGN_DEFAULT = 0,
  63:Middlewares/lvgl/src/core/../misc/../font/../misc/lv_area.h ****     LV_ALIGN_TOP_LEFT,
  64:Middlewares/lvgl/src/core/../misc/../font/../misc/lv_area.h ****     LV_ALIGN_TOP_MID,
  65:Middlewares/lvgl/src/core/../misc/../font/../misc/lv_area.h ****     LV_ALIGN_TOP_RIGHT,
  66:Middlewares/lvgl/src/core/../misc/../font/../misc/lv_area.h ****     LV_ALIGN_BOTTOM_LEFT,
  67:Middlewares/lvgl/src/core/../misc/../font/../misc/lv_area.h ****     LV_ALIGN_BOTTOM_MID,
  68:Middlewares/lvgl/src/core/../misc/../font/../misc/lv_area.h ****     LV_ALIGN_BOTTOM_RIGHT,
  69:Middlewares/lvgl/src/core/../misc/../font/../misc/lv_area.h ****     LV_ALIGN_LEFT_MID,
  70:Middlewares/lvgl/src/core/../misc/../font/../misc/lv_area.h ****     LV_ALIGN_RIGHT_MID,
  71:Middlewares/lvgl/src/core/../misc/../font/../misc/lv_area.h ****     LV_ALIGN_CENTER,
  72:Middlewares/lvgl/src/core/../misc/../font/../misc/lv_area.h **** 
  73:Middlewares/lvgl/src/core/../misc/../font/../misc/lv_area.h ****     LV_ALIGN_OUT_TOP_LEFT,
  74:Middlewares/lvgl/src/core/../misc/../font/../misc/lv_area.h ****     LV_ALIGN_OUT_TOP_MID,
  75:Middlewares/lvgl/src/core/../misc/../font/../misc/lv_area.h ****     LV_ALIGN_OUT_TOP_RIGHT,
  76:Middlewares/lvgl/src/core/../misc/../font/../misc/lv_area.h ****     LV_ALIGN_OUT_BOTTOM_LEFT,
  77:Middlewares/lvgl/src/core/../misc/../font/../misc/lv_area.h ****     LV_ALIGN_OUT_BOTTOM_MID,
  78:Middlewares/lvgl/src/core/../misc/../font/../misc/lv_area.h ****     LV_ALIGN_OUT_BOTTOM_RIGHT,
  79:Middlewares/lvgl/src/core/../misc/../font/../misc/lv_area.h ****     LV_ALIGN_OUT_LEFT_TOP,
  80:Middlewares/lvgl/src/core/../misc/../font/../misc/lv_area.h ****     LV_ALIGN_OUT_LEFT_MID,
  81:Middlewares/lvgl/src/core/../misc/../font/../misc/lv_area.h ****     LV_ALIGN_OUT_LEFT_BOTTOM,
  82:Middlewares/lvgl/src/core/../misc/../font/../misc/lv_area.h ****     LV_ALIGN_OUT_RIGHT_TOP,
  83:Middlewares/lvgl/src/core/../misc/../font/../misc/lv_area.h ****     LV_ALIGN_OUT_RIGHT_MID,
  84:Middlewares/lvgl/src/core/../misc/../font/../misc/lv_area.h ****     LV_ALIGN_OUT_RIGHT_BOTTOM,
  85:Middlewares/lvgl/src/core/../misc/../font/../misc/lv_area.h **** };
  86:Middlewares/lvgl/src/core/../misc/../font/../misc/lv_area.h **** typedef uint8_t lv_align_t;
  87:Middlewares/lvgl/src/core/../misc/../font/../misc/lv_area.h **** 
  88:Middlewares/lvgl/src/core/../misc/../font/../misc/lv_area.h **** enum {
  89:Middlewares/lvgl/src/core/../misc/../font/../misc/lv_area.h ****     LV_DIR_NONE     = 0x00,
  90:Middlewares/lvgl/src/core/../misc/../font/../misc/lv_area.h ****     LV_DIR_LEFT     = (1 << 0),
  91:Middlewares/lvgl/src/core/../misc/../font/../misc/lv_area.h ****     LV_DIR_RIGHT    = (1 << 1),
  92:Middlewares/lvgl/src/core/../misc/../font/../misc/lv_area.h ****     LV_DIR_TOP      = (1 << 2),
  93:Middlewares/lvgl/src/core/../misc/../font/../misc/lv_area.h ****     LV_DIR_BOTTOM   = (1 << 3),
  94:Middlewares/lvgl/src/core/../misc/../font/../misc/lv_area.h ****     LV_DIR_HOR      = LV_DIR_LEFT | LV_DIR_RIGHT,
  95:Middlewares/lvgl/src/core/../misc/../font/../misc/lv_area.h ****     LV_DIR_VER      = LV_DIR_TOP | LV_DIR_BOTTOM,
  96:Middlewares/lvgl/src/core/../misc/../font/../misc/lv_area.h ****     LV_DIR_ALL      = LV_DIR_HOR | LV_DIR_VER,
  97:Middlewares/lvgl/src/core/../misc/../font/../misc/lv_area.h **** };
  98:Middlewares/lvgl/src/core/../misc/../font/../misc/lv_area.h **** 
  99:Middlewares/lvgl/src/core/../misc/../font/../misc/lv_area.h **** typedef uint8_t lv_dir_t;
 100:Middlewares/lvgl/src/core/../misc/../font/../misc/lv_area.h **** 
 101:Middlewares/lvgl/src/core/../misc/../font/../misc/lv_area.h **** /**********************
 102:Middlewares/lvgl/src/core/../misc/../font/../misc/lv_area.h ****  * GLOBAL PROTOTYPES
 103:Middlewares/lvgl/src/core/../misc/../font/../misc/lv_area.h ****  **********************/
 104:Middlewares/lvgl/src/core/../misc/../font/../misc/lv_area.h **** 
 105:Middlewares/lvgl/src/core/../misc/../font/../misc/lv_area.h **** /**
 106:Middlewares/lvgl/src/core/../misc/../font/../misc/lv_area.h ****  * Initialize an area
 107:Middlewares/lvgl/src/core/../misc/../font/../misc/lv_area.h ****  * @param area_p pointer to an area
 108:Middlewares/lvgl/src/core/../misc/../font/../misc/lv_area.h ****  * @param x1 left coordinate of the area
 109:Middlewares/lvgl/src/core/../misc/../font/../misc/lv_area.h ****  * @param y1 top coordinate of the area
 110:Middlewares/lvgl/src/core/../misc/../font/../misc/lv_area.h ****  * @param x2 right coordinate of the area
 111:Middlewares/lvgl/src/core/../misc/../font/../misc/lv_area.h ****  * @param y2 bottom coordinate of the area
 112:Middlewares/lvgl/src/core/../misc/../font/../misc/lv_area.h ****  */
 113:Middlewares/lvgl/src/core/../misc/../font/../misc/lv_area.h **** void lv_area_set(lv_area_t * area_p, lv_coord_t x1, lv_coord_t y1, lv_coord_t x2, lv_coord_t y2);
 114:Middlewares/lvgl/src/core/../misc/../font/../misc/lv_area.h **** 
 115:Middlewares/lvgl/src/core/../misc/../font/../misc/lv_area.h **** /**
 116:Middlewares/lvgl/src/core/../misc/../font/../misc/lv_area.h ****  * Copy an area
 117:Middlewares/lvgl/src/core/../misc/../font/../misc/lv_area.h ****  * @param dest pointer to the destination area
ARM GAS  /tmp/ccHFiCt0.s 			page 34


 118:Middlewares/lvgl/src/core/../misc/../font/../misc/lv_area.h ****  * @param src pointer to the source area
 119:Middlewares/lvgl/src/core/../misc/../font/../misc/lv_area.h ****  */
 120:Middlewares/lvgl/src/core/../misc/../font/../misc/lv_area.h **** inline static void lv_area_copy(lv_area_t * dest, const lv_area_t * src)
 121:Middlewares/lvgl/src/core/../misc/../font/../misc/lv_area.h **** {
 122:Middlewares/lvgl/src/core/../misc/../font/../misc/lv_area.h ****     dest->x1 = src->x1;
 123:Middlewares/lvgl/src/core/../misc/../font/../misc/lv_area.h ****     dest->y1 = src->y1;
 124:Middlewares/lvgl/src/core/../misc/../font/../misc/lv_area.h ****     dest->x2 = src->x2;
 125:Middlewares/lvgl/src/core/../misc/../font/../misc/lv_area.h ****     dest->y2 = src->y2;
 126:Middlewares/lvgl/src/core/../misc/../font/../misc/lv_area.h **** }
 127:Middlewares/lvgl/src/core/../misc/../font/../misc/lv_area.h **** 
 128:Middlewares/lvgl/src/core/../misc/../font/../misc/lv_area.h **** /**
 129:Middlewares/lvgl/src/core/../misc/../font/../misc/lv_area.h ****  * Get the width of an area
 130:Middlewares/lvgl/src/core/../misc/../font/../misc/lv_area.h ****  * @param area_p pointer to an area
 131:Middlewares/lvgl/src/core/../misc/../font/../misc/lv_area.h ****  * @return the width of the area (if x1 == x2 -> width = 1)
 132:Middlewares/lvgl/src/core/../misc/../font/../misc/lv_area.h ****  */
 133:Middlewares/lvgl/src/core/../misc/../font/../misc/lv_area.h **** static inline lv_coord_t lv_area_get_width(const lv_area_t * area_p)
 134:Middlewares/lvgl/src/core/../misc/../font/../misc/lv_area.h **** {
 135:Middlewares/lvgl/src/core/../misc/../font/../misc/lv_area.h ****     return (lv_coord_t)(area_p->x2 - area_p->x1 + 1);
 136:Middlewares/lvgl/src/core/../misc/../font/../misc/lv_area.h **** }
 137:Middlewares/lvgl/src/core/../misc/../font/../misc/lv_area.h **** 
 138:Middlewares/lvgl/src/core/../misc/../font/../misc/lv_area.h **** /**
 139:Middlewares/lvgl/src/core/../misc/../font/../misc/lv_area.h ****  * Get the height of an area
 140:Middlewares/lvgl/src/core/../misc/../font/../misc/lv_area.h ****  * @param area_p pointer to an area
 141:Middlewares/lvgl/src/core/../misc/../font/../misc/lv_area.h ****  * @return the height of the area (if y1 == y2 -> height = 1)
 142:Middlewares/lvgl/src/core/../misc/../font/../misc/lv_area.h ****  */
 143:Middlewares/lvgl/src/core/../misc/../font/../misc/lv_area.h **** static inline lv_coord_t lv_area_get_height(const lv_area_t * area_p)
 925              		.loc 3 143 26 is_stmt 1 view .LVU293
 926              	.LBB59:
 144:Middlewares/lvgl/src/core/../misc/../font/../misc/lv_area.h **** {
 145:Middlewares/lvgl/src/core/../misc/../font/../misc/lv_area.h ****     return (lv_coord_t)(area_p->y2 - area_p->y1 + 1);
 927              		.loc 3 145 5 view .LVU294
 928              		.loc 3 145 31 is_stmt 0 view .LVU295
 929 0062 6A8B     		ldrh	r2, [r5, #26]
 930              		.loc 3 145 36 view .LVU296
 931 0064 D21A     		subs	r2, r2, r3
 932 0066 92B2     		uxth	r2, r2
 933              		.loc 3 145 49 view .LVU297
 934 0068 0132     		adds	r2, r2, #1
 935              		.loc 3 145 12 view .LVU298
 936 006a 11B2     		sxth	r1, r2
 937              	.LVL100:
 938              		.loc 3 145 12 view .LVU299
 939              	.LBE59:
 940              	.LBE58:
 494:Middlewares/lvgl/src/core/lv_indev_scroll.c ****                 y_parent = obj->coords.y1 + pad_top + (lv_area_get_height(&obj->coords) - pad_top -
 941              		.loc 1 494 44 view .LVU300
 942 006c C2F3C032 		ubfx	r2, r2, #15, #1
 943 0070 0A44     		add	r2, r2, r1
 944 0072 03EB6203 		add	r3, r3, r2, asr #1
 494:Middlewares/lvgl/src/core/lv_indev_scroll.c ****                 y_parent = obj->coords.y1 + pad_top + (lv_area_get_height(&obj->coords) - pad_top -
 945              		.loc 1 494 25 view .LVU301
 946 0076 1BB2     		sxth	r3, r3
 947              	.LVL101:
 495:Middlewares/lvgl/src/core/lv_indev_scroll.c ****                 break;
 948              		.loc 1 495 17 is_stmt 1 view .LVU302
 495:Middlewares/lvgl/src/core/lv_indev_scroll.c ****                 break;
 949              		.loc 1 495 39 is_stmt 0 view .LVU303
ARM GAS  /tmp/ccHFiCt0.s 			page 35


 950 0078 F08A     		ldrh	r0, [r6, #22]
 495:Middlewares/lvgl/src/core/lv_indev_scroll.c ****                 break;
 951              		.loc 1 495 43 view .LVU304
 952 007a 029A     		ldr	r2, [sp, #8]
 953 007c 8218     		adds	r2, r0, r2
 954 007e 92B2     		uxth	r2, r2
 955              	.LVL102:
 956              	.LBB60:
 957              	.LBI60:
 143:Middlewares/lvgl/src/core/../misc/../font/../misc/lv_area.h **** {
 958              		.loc 3 143 26 is_stmt 1 view .LVU305
 959              	.LBB61:
 960              		.loc 3 145 5 view .LVU306
 961              		.loc 3 145 31 is_stmt 0 view .LVU307
 962 0080 718B     		ldrh	r1, [r6, #26]
 963              		.loc 3 145 36 view .LVU308
 964 0082 091A     		subs	r1, r1, r0
 965 0084 89B2     		uxth	r1, r1
 966              		.loc 3 145 49 view .LVU309
 967 0086 0131     		adds	r1, r1, #1
 968              		.loc 3 145 12 view .LVU310
 969 0088 09B2     		sxth	r1, r1
 970              	.LVL103:
 971              		.loc 3 145 12 view .LVU311
 972              	.LBE61:
 973              	.LBE60:
 495:Middlewares/lvgl/src/core/lv_indev_scroll.c ****                 break;
 974              		.loc 1 495 89 view .LVU312
 975 008a 0598     		ldr	r0, [sp, #20]
 976 008c 091A     		subs	r1, r1, r0
 495:Middlewares/lvgl/src/core/lv_indev_scroll.c ****                 break;
 977              		.loc 1 495 99 view .LVU313
 978 008e 0398     		ldr	r0, [sp, #12]
 979 0090 091A     		subs	r1, r1, r0
 495:Middlewares/lvgl/src/core/lv_indev_scroll.c ****                 break;
 980              		.loc 1 495 113 view .LVU314
 981 0092 01EBD171 		add	r1, r1, r1, lsr #31
 495:Middlewares/lvgl/src/core/lv_indev_scroll.c ****                 break;
 982              		.loc 1 495 53 view .LVU315
 983 0096 02EB6101 		add	r1, r2, r1, asr #1
 495:Middlewares/lvgl/src/core/lv_indev_scroll.c ****                 break;
 984              		.loc 1 495 26 view .LVU316
 985 009a 09B2     		sxth	r1, r1
 986              	.LVL104:
 496:Middlewares/lvgl/src/core/lv_indev_scroll.c ****             default:
 987              		.loc 1 496 17 is_stmt 1 view .LVU317
 988 009c 23E0     		b	.L78
 989              	.LVL105:
 990              	.L75:
 496:Middlewares/lvgl/src/core/lv_indev_scroll.c ****             default:
 991              		.loc 1 496 17 is_stmt 0 view .LVU318
 992              	.LBE57:
 993              	.LBE56:
 478:Middlewares/lvgl/src/core/lv_indev_scroll.c ****         lv_obj_t * child = lv_obj_get_child(obj, i);
 994              		.loc 1 478 31 is_stmt 1 discriminator 2 view .LVU319
 478:Middlewares/lvgl/src/core/lv_indev_scroll.c ****         lv_obj_t * child = lv_obj_get_child(obj, i);
 995              		.loc 1 478 32 is_stmt 0 discriminator 2 view .LVU320
ARM GAS  /tmp/ccHFiCt0.s 			page 36


 996 009e 0134     		adds	r4, r4, #1
 997              	.LVL106:
 998              	.L74:
 478:Middlewares/lvgl/src/core/lv_indev_scroll.c ****         lv_obj_t * child = lv_obj_get_child(obj, i);
 999              		.loc 1 478 16 is_stmt 1 discriminator 1 view .LVU321
 478:Middlewares/lvgl/src/core/lv_indev_scroll.c ****         lv_obj_t * child = lv_obj_get_child(obj, i);
 1000              		.loc 1 478 5 is_stmt 0 discriminator 1 view .LVU322
 1001 00a0 BC42     		cmp	r4, r7
 1002 00a2 38D2     		bcs	.L85
 1003              	.LBB64:
 479:Middlewares/lvgl/src/core/lv_indev_scroll.c ****         if(lv_obj_has_flag_any(child, LV_OBJ_FLAG_HIDDEN | LV_OBJ_FLAG_FLOATING)) continue;
 1004              		.loc 1 479 9 is_stmt 1 view .LVU323
 479:Middlewares/lvgl/src/core/lv_indev_scroll.c ****         if(lv_obj_has_flag_any(child, LV_OBJ_FLAG_HIDDEN | LV_OBJ_FLAG_FLOATING)) continue;
 1005              		.loc 1 479 28 is_stmt 0 view .LVU324
 1006 00a4 2146     		mov	r1, r4
 1007 00a6 3046     		mov	r0, r6
 1008 00a8 FFF7FEFF 		bl	lv_obj_get_child
 1009              	.LVL107:
 1010 00ac 0546     		mov	r5, r0
 1011              	.LVL108:
 480:Middlewares/lvgl/src/core/lv_indev_scroll.c ****         if(lv_obj_has_flag(child, LV_OBJ_FLAG_SNAPPABLE)) {
 1012              		.loc 1 480 9 is_stmt 1 view .LVU325
 480:Middlewares/lvgl/src/core/lv_indev_scroll.c ****         if(lv_obj_has_flag(child, LV_OBJ_FLAG_SNAPPABLE)) {
 1013              		.loc 1 480 12 is_stmt 0 view .LVU326
 1014 00ae 4FF00111 		mov	r1, #65537
 1015 00b2 FFF7FEFF 		bl	lv_obj_has_flag_any
 1016              	.LVL109:
 480:Middlewares/lvgl/src/core/lv_indev_scroll.c ****         if(lv_obj_has_flag(child, LV_OBJ_FLAG_SNAPPABLE)) {
 1017              		.loc 1 480 11 view .LVU327
 1018 00b6 0028     		cmp	r0, #0
 1019 00b8 F1D1     		bne	.L75
 481:Middlewares/lvgl/src/core/lv_indev_scroll.c ****             lv_coord_t y_child = 0;
 1020              		.loc 1 481 9 is_stmt 1 view .LVU328
 481:Middlewares/lvgl/src/core/lv_indev_scroll.c ****             lv_coord_t y_child = 0;
 1021              		.loc 1 481 12 is_stmt 0 view .LVU329
 1022 00ba 4FF48061 		mov	r1, #1024
 1023 00be 2846     		mov	r0, r5
 1024 00c0 FFF7FEFF 		bl	lv_obj_has_flag
 1025              	.LVL110:
 481:Middlewares/lvgl/src/core/lv_indev_scroll.c ****             lv_coord_t y_child = 0;
 1026              		.loc 1 481 11 view .LVU330
 1027 00c4 0028     		cmp	r0, #0
 1028 00c6 EAD0     		beq	.L75
 1029              	.LBB63:
 482:Middlewares/lvgl/src/core/lv_indev_scroll.c ****             lv_coord_t y_parent = 0;
 1030              		.loc 1 482 13 is_stmt 1 view .LVU331
 1031              	.LVL111:
 483:Middlewares/lvgl/src/core/lv_indev_scroll.c ****             switch(align) {
 1032              		.loc 1 483 13 view .LVU332
 484:Middlewares/lvgl/src/core/lv_indev_scroll.c ****             case LV_SCROLL_SNAP_START:
 1033              		.loc 1 484 13 view .LVU333
 1034 00c8 B9F1020F 		cmp	r9, #2
 1035 00cc C1D0     		beq	.L76
 1036 00ce B9F1030F 		cmp	r9, #3
 1037 00d2 C5D0     		beq	.L77
 1038 00d4 B9F1010F 		cmp	r9, #1
 1039 00d8 E1D1     		bne	.L75
ARM GAS  /tmp/ccHFiCt0.s 			page 37


 486:Middlewares/lvgl/src/core/lv_indev_scroll.c ****                 y_parent = obj->coords.y1 + pad_top;
 1040              		.loc 1 486 17 view .LVU334
 486:Middlewares/lvgl/src/core/lv_indev_scroll.c ****                 y_parent = obj->coords.y1 + pad_top;
 1041              		.loc 1 486 25 is_stmt 0 view .LVU335
 1042 00da B5F91630 		ldrsh	r3, [r5, #22]
 1043              	.LVL112:
 487:Middlewares/lvgl/src/core/lv_indev_scroll.c ****                 break;
 1044              		.loc 1 487 17 is_stmt 1 view .LVU336
 487:Middlewares/lvgl/src/core/lv_indev_scroll.c ****                 break;
 1045              		.loc 1 487 39 is_stmt 0 view .LVU337
 1046 00de F18A     		ldrh	r1, [r6, #22]
 487:Middlewares/lvgl/src/core/lv_indev_scroll.c ****                 break;
 1047              		.loc 1 487 43 view .LVU338
 1048 00e0 029A     		ldr	r2, [sp, #8]
 1049 00e2 1144     		add	r1, r1, r2
 487:Middlewares/lvgl/src/core/lv_indev_scroll.c ****                 break;
 1050              		.loc 1 487 26 view .LVU339
 1051 00e4 09B2     		sxth	r1, r1
 1052              	.LVL113:
 488:Middlewares/lvgl/src/core/lv_indev_scroll.c ****             case LV_SCROLL_SNAP_END:
 1053              		.loc 1 488 17 is_stmt 1 view .LVU340
 1054              	.L78:
 501:Middlewares/lvgl/src/core/lv_indev_scroll.c ****             if(y_child >= min && y_child <= max) {
 1055              		.loc 1 501 13 view .LVU341
 501:Middlewares/lvgl/src/core/lv_indev_scroll.c ****             if(y_child >= min && y_child <= max) {
 1056              		.loc 1 501 21 is_stmt 0 view .LVU342
 1057 00e6 5B44     		add	r3, r3, fp
 1058              	.LVL114:
 501:Middlewares/lvgl/src/core/lv_indev_scroll.c ****             if(y_child >= min && y_child <= max) {
 1059              		.loc 1 501 21 view .LVU343
 1060 00e8 9AB2     		uxth	r2, r3
 1061 00ea 1BB2     		sxth	r3, r3
 1062              	.LVL115:
 502:Middlewares/lvgl/src/core/lv_indev_scroll.c ****                 lv_coord_t y = y_child -  y_parent;
 1063              		.loc 1 502 13 is_stmt 1 view .LVU344
 502:Middlewares/lvgl/src/core/lv_indev_scroll.c ****                 lv_coord_t y = y_child -  y_parent;
 1064              		.loc 1 502 15 is_stmt 0 view .LVU345
 1065 00ec 5345     		cmp	r3, r10
 1066 00ee D6DB     		blt	.L75
 502:Middlewares/lvgl/src/core/lv_indev_scroll.c ****                 lv_coord_t y = y_child -  y_parent;
 1067              		.loc 1 502 31 discriminator 1 view .LVU346
 1068 00f0 0198     		ldr	r0, [sp, #4]
 1069 00f2 8342     		cmp	r3, r0
 1070 00f4 D3DC     		bgt	.L75
 1071              	.LBB62:
 503:Middlewares/lvgl/src/core/lv_indev_scroll.c ****                 if(LV_ABS(y) < LV_ABS(dist)) dist = y;
 1072              		.loc 1 503 17 is_stmt 1 view .LVU347
 503:Middlewares/lvgl/src/core/lv_indev_scroll.c ****                 if(LV_ABS(y) < LV_ABS(dist)) dist = y;
 1073              		.loc 1 503 40 is_stmt 0 view .LVU348
 1074 00f6 521A     		subs	r2, r2, r1
 503:Middlewares/lvgl/src/core/lv_indev_scroll.c ****                 if(LV_ABS(y) < LV_ABS(dist)) dist = y;
 1075              		.loc 1 503 28 view .LVU349
 1076 00f8 12B2     		sxth	r2, r2
 1077              	.LVL116:
 504:Middlewares/lvgl/src/core/lv_indev_scroll.c ****             }
 1078              		.loc 1 504 17 is_stmt 1 view .LVU350
 504:Middlewares/lvgl/src/core/lv_indev_scroll.c ****             }
ARM GAS  /tmp/ccHFiCt0.s 			page 38


 1079              		.loc 1 504 20 is_stmt 0 view .LVU351
 1080 00fa 82EAE271 		eor	r1, r2, r2, asr #31
 1081              	.LVL117:
 504:Middlewares/lvgl/src/core/lv_indev_scroll.c ****             }
 1082              		.loc 1 504 20 view .LVU352
 1083 00fe A1EBE271 		sub	r1, r1, r2, asr #31
 1084 0102 89B2     		uxth	r1, r1
 504:Middlewares/lvgl/src/core/lv_indev_scroll.c ****             }
 1085              		.loc 1 504 32 view .LVU353
 1086 0104 88EAE873 		eor	r3, r8, r8, asr #31
 1087              	.LVL118:
 504:Middlewares/lvgl/src/core/lv_indev_scroll.c ****             }
 1088              		.loc 1 504 32 view .LVU354
 1089 0108 A3EBE873 		sub	r3, r3, r8, asr #31
 1090 010c 9BB2     		uxth	r3, r3
 504:Middlewares/lvgl/src/core/lv_indev_scroll.c ****             }
 1091              		.loc 1 504 19 view .LVU355
 1092 010e 9942     		cmp	r1, r3
 1093 0110 C5D2     		bcs	.L75
 504:Middlewares/lvgl/src/core/lv_indev_scroll.c ****             }
 1094              		.loc 1 504 51 view .LVU356
 1095 0112 9046     		mov	r8, r2
 1096              	.LVL119:
 504:Middlewares/lvgl/src/core/lv_indev_scroll.c ****             }
 1097              		.loc 1 504 51 view .LVU357
 1098 0114 C3E7     		b	.L75
 1099              	.LVL120:
 1100              	.L85:
 504:Middlewares/lvgl/src/core/lv_indev_scroll.c ****             }
 1101              		.loc 1 504 51 view .LVU358
 1102              	.LBE62:
 1103              	.LBE63:
 1104              	.LBE64:
 509:Middlewares/lvgl/src/core/lv_indev_scroll.c **** }
 1105              		.loc 1 509 5 is_stmt 1 view .LVU359
 509:Middlewares/lvgl/src/core/lv_indev_scroll.c **** }
 1106              		.loc 1 509 37 is_stmt 0 view .LVU360
 1107 0116 B8F5C04F 		cmp	r8, #24576
 1108 011a 03D0     		beq	.L82
 509:Middlewares/lvgl/src/core/lv_indev_scroll.c **** }
 1109              		.loc 1 509 37 discriminator 1 view .LVU361
 1110 011c C8F10000 		rsb	r0, r8, #0
 1111 0120 00B2     		sxth	r0, r0
 1112 0122 78E7     		b	.L73
 1113              	.L82:
 509:Middlewares/lvgl/src/core/lv_indev_scroll.c **** }
 1114              		.loc 1 509 37 view .LVU362
 1115 0124 0020     		movs	r0, #0
 1116 0126 76E7     		b	.L73
 1117              		.cfi_endproc
 1118              	.LFE154:
 1120              		.section	.text.find_snap_point_x,"ax",%progbits
 1121              		.align	1
 1122              		.syntax unified
 1123              		.thumb
 1124              		.thumb_func
 1125              		.fpu softvfp
ARM GAS  /tmp/ccHFiCt0.s 			page 39


 1127              	find_snap_point_x:
 1128              	.LVL121:
 1129              	.LFB153:
 412:Middlewares/lvgl/src/core/lv_indev_scroll.c ****     lv_scroll_snap_t align = lv_obj_get_scroll_snap_x(obj);
 1130              		.loc 1 412 1 is_stmt 1 view -0
 1131              		.cfi_startproc
 1132              		@ args = 0, pretend = 0, frame = 24
 1133              		@ frame_needed = 0, uses_anonymous_args = 0
 412:Middlewares/lvgl/src/core/lv_indev_scroll.c ****     lv_scroll_snap_t align = lv_obj_get_scroll_snap_x(obj);
 1134              		.loc 1 412 1 is_stmt 0 view .LVU364
 1135 0000 2DE9F04F 		push	{r4, r5, r6, r7, r8, r9, r10, fp, lr}
 1136              	.LCFI11:
 1137              		.cfi_def_cfa_offset 36
 1138              		.cfi_offset 4, -36
 1139              		.cfi_offset 5, -32
 1140              		.cfi_offset 6, -28
 1141              		.cfi_offset 7, -24
 1142              		.cfi_offset 8, -20
 1143              		.cfi_offset 9, -16
 1144              		.cfi_offset 10, -12
 1145              		.cfi_offset 11, -8
 1146              		.cfi_offset 14, -4
 1147 0004 87B0     		sub	sp, sp, #28
 1148              	.LCFI12:
 1149              		.cfi_def_cfa_offset 64
 1150 0006 0646     		mov	r6, r0
 1151 0008 8A46     		mov	r10, r1
 1152 000a 0192     		str	r2, [sp, #4]
 1153 000c 9B46     		mov	fp, r3
 413:Middlewares/lvgl/src/core/lv_indev_scroll.c ****     if(align == LV_SCROLL_SNAP_NONE) return 0;
 1154              		.loc 1 413 5 is_stmt 1 view .LVU365
 413:Middlewares/lvgl/src/core/lv_indev_scroll.c ****     if(align == LV_SCROLL_SNAP_NONE) return 0;
 1155              		.loc 1 413 30 is_stmt 0 view .LVU366
 1156 000e FFF7FEFF 		bl	lv_obj_get_scroll_snap_x
 1157              	.LVL122:
 414:Middlewares/lvgl/src/core/lv_indev_scroll.c **** 
 1158              		.loc 1 414 5 is_stmt 1 view .LVU367
 414:Middlewares/lvgl/src/core/lv_indev_scroll.c **** 
 1159              		.loc 1 414 7 is_stmt 0 view .LVU368
 1160 0012 18B9     		cbnz	r0, .L98
 414:Middlewares/lvgl/src/core/lv_indev_scroll.c **** 
 1161              		.loc 1 414 45 view .LVU369
 1162 0014 0020     		movs	r0, #0
 1163              	.LVL123:
 1164              	.L87:
 455:Middlewares/lvgl/src/core/lv_indev_scroll.c **** 
 1165              		.loc 1 455 1 view .LVU370
 1166 0016 07B0     		add	sp, sp, #28
 1167              	.LCFI13:
 1168              		.cfi_remember_state
 1169              		.cfi_def_cfa_offset 36
 1170              		@ sp needed
 1171 0018 BDE8F08F 		pop	{r4, r5, r6, r7, r8, r9, r10, fp, pc}
 1172              	.LVL124:
 1173              	.L98:
 1174              	.LCFI14:
 1175              		.cfi_restore_state
ARM GAS  /tmp/ccHFiCt0.s 			page 40


 455:Middlewares/lvgl/src/core/lv_indev_scroll.c **** 
 1176              		.loc 1 455 1 view .LVU371
 1177 001c 8146     		mov	r9, r0
 416:Middlewares/lvgl/src/core/lv_indev_scroll.c **** 
 1178              		.loc 1 416 5 is_stmt 1 view .LVU372
 1179              	.LVL125:
 418:Middlewares/lvgl/src/core/lv_indev_scroll.c ****     lv_coord_t pad_right = lv_obj_get_style_pad_right(obj, LV_PART_MAIN);
 1180              		.loc 1 418 5 view .LVU373
 1181              	.LBB65:
 1182              	.LBI65:
 101:Middlewares/lvgl/src/core/lv_obj_style_gen.h **** }
 102:Middlewares/lvgl/src/core/lv_obj_style_gen.h **** 
 103:Middlewares/lvgl/src/core/lv_obj_style_gen.h **** static inline lv_coord_t lv_obj_get_style_pad_left(const struct _lv_obj_t * obj, uint32_t part)
 1183              		.loc 2 103 26 view .LVU374
 1184              	.LBB66:
 104:Middlewares/lvgl/src/core/lv_obj_style_gen.h **** {
 105:Middlewares/lvgl/src/core/lv_obj_style_gen.h ****     lv_style_value_t v = lv_obj_get_style_prop(obj, part, LV_STYLE_PAD_LEFT);
 1185              		.loc 2 105 5 view .LVU375
 1186              		.loc 2 105 26 is_stmt 0 view .LVU376
 1187 001e 41F21202 		movw	r2, #4114
 1188 0022 0021     		movs	r1, #0
 1189 0024 3046     		mov	r0, r6
 1190              	.LVL126:
 1191              		.loc 2 105 26 view .LVU377
 1192 0026 FFF7FEFF 		bl	lv_obj_get_style_prop
 1193              	.LVL127:
 1194 002a 0290     		str	r0, [sp, #8]
 106:Middlewares/lvgl/src/core/lv_obj_style_gen.h ****     return (lv_coord_t)v.num;
 1195              		.loc 2 106 5 is_stmt 1 view .LVU378
 1196              		.loc 2 106 12 is_stmt 0 view .LVU379
 1197 002c 03B2     		sxth	r3, r0
 1198 002e 0593     		str	r3, [sp, #20]
 1199              	.LVL128:
 1200              		.loc 2 106 12 view .LVU380
 1201              	.LBE66:
 1202              	.LBE65:
 419:Middlewares/lvgl/src/core/lv_indev_scroll.c **** 
 1203              		.loc 1 419 5 is_stmt 1 view .LVU381
 1204              	.LBB67:
 1205              	.LBI67:
 107:Middlewares/lvgl/src/core/lv_obj_style_gen.h **** }
 108:Middlewares/lvgl/src/core/lv_obj_style_gen.h **** 
 109:Middlewares/lvgl/src/core/lv_obj_style_gen.h **** static inline lv_coord_t lv_obj_get_style_pad_right(const struct _lv_obj_t * obj, uint32_t part)
 1206              		.loc 2 109 26 view .LVU382
 1207              	.LBB68:
 110:Middlewares/lvgl/src/core/lv_obj_style_gen.h **** {
 111:Middlewares/lvgl/src/core/lv_obj_style_gen.h ****     lv_style_value_t v = lv_obj_get_style_prop(obj, part, LV_STYLE_PAD_RIGHT);
 1208              		.loc 2 111 5 view .LVU383
 1209              		.loc 2 111 26 is_stmt 0 view .LVU384
 1210 0030 41F21302 		movw	r2, #4115
 1211 0034 0021     		movs	r1, #0
 1212 0036 3046     		mov	r0, r6
 1213 0038 FFF7FEFF 		bl	lv_obj_get_style_prop
 1214              	.LVL129:
 1215 003c 0490     		str	r0, [sp, #16]
 112:Middlewares/lvgl/src/core/lv_obj_style_gen.h ****     return (lv_coord_t)v.num;
 1216              		.loc 2 112 5 is_stmt 1 view .LVU385
ARM GAS  /tmp/ccHFiCt0.s 			page 41


 1217              		.loc 2 112 12 is_stmt 0 view .LVU386
 1218 003e 03B2     		sxth	r3, r0
 1219 0040 0393     		str	r3, [sp, #12]
 1220              	.LVL130:
 1221              		.loc 2 112 12 view .LVU387
 1222              	.LBE68:
 1223              	.LBE67:
 421:Middlewares/lvgl/src/core/lv_indev_scroll.c ****     uint32_t child_cnt = lv_obj_get_child_cnt(obj);
 1224              		.loc 1 421 5 is_stmt 1 view .LVU388
 422:Middlewares/lvgl/src/core/lv_indev_scroll.c ****     for(i = 0; i < child_cnt; i++) {
 1225              		.loc 1 422 5 view .LVU389
 422:Middlewares/lvgl/src/core/lv_indev_scroll.c ****     for(i = 0; i < child_cnt; i++) {
 1226              		.loc 1 422 26 is_stmt 0 view .LVU390
 1227 0042 3046     		mov	r0, r6
 1228 0044 FFF7FEFF 		bl	lv_obj_get_child_cnt
 1229              	.LVL131:
 1230 0048 0746     		mov	r7, r0
 1231              	.LVL132:
 423:Middlewares/lvgl/src/core/lv_indev_scroll.c ****         lv_obj_t * child = lv_obj_get_child(obj, i);
 1232              		.loc 1 423 5 is_stmt 1 view .LVU391
 423:Middlewares/lvgl/src/core/lv_indev_scroll.c ****         lv_obj_t * child = lv_obj_get_child(obj, i);
 1233              		.loc 1 423 11 is_stmt 0 view .LVU392
 1234 004a 0024     		movs	r4, #0
 416:Middlewares/lvgl/src/core/lv_indev_scroll.c **** 
 1235              		.loc 1 416 16 view .LVU393
 1236 004c 4FF4C048 		mov	r8, #24576
 423:Middlewares/lvgl/src/core/lv_indev_scroll.c ****         lv_obj_t * child = lv_obj_get_child(obj, i);
 1237              		.loc 1 423 5 view .LVU394
 1238 0050 26E0     		b	.L88
 1239              	.LVL133:
 1240              	.L90:
 1241              	.LBB69:
 1242              	.LBB70:
 435:Middlewares/lvgl/src/core/lv_indev_scroll.c ****                 x_parent = obj->coords.x2 - pad_right;
 1243              		.loc 1 435 17 is_stmt 1 view .LVU395
 435:Middlewares/lvgl/src/core/lv_indev_scroll.c ****                 x_parent = obj->coords.x2 - pad_right;
 1244              		.loc 1 435 25 is_stmt 0 view .LVU396
 1245 0052 B5F91830 		ldrsh	r3, [r5, #24]
 1246              	.LVL134:
 436:Middlewares/lvgl/src/core/lv_indev_scroll.c ****                 break;
 1247              		.loc 1 436 17 is_stmt 1 view .LVU397
 436:Middlewares/lvgl/src/core/lv_indev_scroll.c ****                 break;
 1248              		.loc 1 436 39 is_stmt 0 view .LVU398
 1249 0056 318B     		ldrh	r1, [r6, #24]
 436:Middlewares/lvgl/src/core/lv_indev_scroll.c ****                 break;
 1250              		.loc 1 436 43 view .LVU399
 1251 0058 049A     		ldr	r2, [sp, #16]
 1252 005a 891A     		subs	r1, r1, r2
 436:Middlewares/lvgl/src/core/lv_indev_scroll.c ****                 break;
 1253              		.loc 1 436 26 view .LVU400
 1254 005c 09B2     		sxth	r1, r1
 1255              	.LVL135:
 437:Middlewares/lvgl/src/core/lv_indev_scroll.c ****             case LV_SCROLL_SNAP_CENTER:
 1256              		.loc 1 437 17 is_stmt 1 view .LVU401
 1257 005e 42E0     		b	.L92
 1258              	.LVL136:
 1259              	.L91:
ARM GAS  /tmp/ccHFiCt0.s 			page 42


 439:Middlewares/lvgl/src/core/lv_indev_scroll.c ****                 x_parent = obj->coords.x1 + pad_left + (lv_area_get_width(&obj->coords) - pad_left 
 1260              		.loc 1 439 17 view .LVU402
 439:Middlewares/lvgl/src/core/lv_indev_scroll.c ****                 x_parent = obj->coords.x1 + pad_left + (lv_area_get_width(&obj->coords) - pad_left 
 1261              		.loc 1 439 40 is_stmt 0 view .LVU403
 1262 0060 AB8A     		ldrh	r3, [r5, #20]
 1263              	.LVL137:
 1264              	.LBB71:
 1265              	.LBI71:
 133:Middlewares/lvgl/src/core/../misc/../font/../misc/lv_area.h **** {
 1266              		.loc 3 133 26 is_stmt 1 view .LVU404
 1267              	.LBB72:
 135:Middlewares/lvgl/src/core/../misc/../font/../misc/lv_area.h **** }
 1268              		.loc 3 135 5 view .LVU405
 135:Middlewares/lvgl/src/core/../misc/../font/../misc/lv_area.h **** }
 1269              		.loc 3 135 31 is_stmt 0 view .LVU406
 1270 0062 2A8B     		ldrh	r2, [r5, #24]
 135:Middlewares/lvgl/src/core/../misc/../font/../misc/lv_area.h **** }
 1271              		.loc 3 135 36 view .LVU407
 1272 0064 D21A     		subs	r2, r2, r3
 1273 0066 92B2     		uxth	r2, r2
 135:Middlewares/lvgl/src/core/../misc/../font/../misc/lv_area.h **** }
 1274              		.loc 3 135 49 view .LVU408
 1275 0068 0132     		adds	r2, r2, #1
 135:Middlewares/lvgl/src/core/../misc/../font/../misc/lv_area.h **** }
 1276              		.loc 3 135 12 view .LVU409
 1277 006a 11B2     		sxth	r1, r2
 1278              	.LVL138:
 135:Middlewares/lvgl/src/core/../misc/../font/../misc/lv_area.h **** }
 1279              		.loc 3 135 12 view .LVU410
 1280              	.LBE72:
 1281              	.LBE71:
 439:Middlewares/lvgl/src/core/lv_indev_scroll.c ****                 x_parent = obj->coords.x1 + pad_left + (lv_area_get_width(&obj->coords) - pad_left 
 1282              		.loc 1 439 44 view .LVU411
 1283 006c C2F3C032 		ubfx	r2, r2, #15, #1
 1284 0070 0A44     		add	r2, r2, r1
 1285 0072 03EB6203 		add	r3, r3, r2, asr #1
 439:Middlewares/lvgl/src/core/lv_indev_scroll.c ****                 x_parent = obj->coords.x1 + pad_left + (lv_area_get_width(&obj->coords) - pad_left 
 1286              		.loc 1 439 25 view .LVU412
 1287 0076 1BB2     		sxth	r3, r3
 1288              	.LVL139:
 440:Middlewares/lvgl/src/core/lv_indev_scroll.c ****                 break;
 1289              		.loc 1 440 17 is_stmt 1 view .LVU413
 440:Middlewares/lvgl/src/core/lv_indev_scroll.c ****                 break;
 1290              		.loc 1 440 39 is_stmt 0 view .LVU414
 1291 0078 B08A     		ldrh	r0, [r6, #20]
 440:Middlewares/lvgl/src/core/lv_indev_scroll.c ****                 break;
 1292              		.loc 1 440 43 view .LVU415
 1293 007a 029A     		ldr	r2, [sp, #8]
 1294 007c 8218     		adds	r2, r0, r2
 1295 007e 92B2     		uxth	r2, r2
 1296              	.LVL140:
 1297              	.LBB73:
 1298              	.LBI73:
 133:Middlewares/lvgl/src/core/../misc/../font/../misc/lv_area.h **** {
 1299              		.loc 3 133 26 is_stmt 1 view .LVU416
 1300              	.LBB74:
 135:Middlewares/lvgl/src/core/../misc/../font/../misc/lv_area.h **** }
ARM GAS  /tmp/ccHFiCt0.s 			page 43


 1301              		.loc 3 135 5 view .LVU417
 135:Middlewares/lvgl/src/core/../misc/../font/../misc/lv_area.h **** }
 1302              		.loc 3 135 31 is_stmt 0 view .LVU418
 1303 0080 318B     		ldrh	r1, [r6, #24]
 135:Middlewares/lvgl/src/core/../misc/../font/../misc/lv_area.h **** }
 1304              		.loc 3 135 36 view .LVU419
 1305 0082 091A     		subs	r1, r1, r0
 1306 0084 89B2     		uxth	r1, r1
 135:Middlewares/lvgl/src/core/../misc/../font/../misc/lv_area.h **** }
 1307              		.loc 3 135 49 view .LVU420
 1308 0086 0131     		adds	r1, r1, #1
 135:Middlewares/lvgl/src/core/../misc/../font/../misc/lv_area.h **** }
 1309              		.loc 3 135 12 view .LVU421
 1310 0088 09B2     		sxth	r1, r1
 1311              	.LVL141:
 135:Middlewares/lvgl/src/core/../misc/../font/../misc/lv_area.h **** }
 1312              		.loc 3 135 12 view .LVU422
 1313              	.LBE74:
 1314              	.LBE73:
 440:Middlewares/lvgl/src/core/lv_indev_scroll.c ****                 break;
 1315              		.loc 1 440 89 view .LVU423
 1316 008a 0598     		ldr	r0, [sp, #20]
 1317 008c 091A     		subs	r1, r1, r0
 440:Middlewares/lvgl/src/core/lv_indev_scroll.c ****                 break;
 1318              		.loc 1 440 100 view .LVU424
 1319 008e 0398     		ldr	r0, [sp, #12]
 1320 0090 091A     		subs	r1, r1, r0
 440:Middlewares/lvgl/src/core/lv_indev_scroll.c ****                 break;
 1321              		.loc 1 440 113 view .LVU425
 1322 0092 01EBD171 		add	r1, r1, r1, lsr #31
 440:Middlewares/lvgl/src/core/lv_indev_scroll.c ****                 break;
 1323              		.loc 1 440 54 view .LVU426
 1324 0096 02EB6101 		add	r1, r2, r1, asr #1
 440:Middlewares/lvgl/src/core/lv_indev_scroll.c ****                 break;
 1325              		.loc 1 440 26 view .LVU427
 1326 009a 09B2     		sxth	r1, r1
 1327              	.LVL142:
 441:Middlewares/lvgl/src/core/lv_indev_scroll.c ****             default:
 1328              		.loc 1 441 17 is_stmt 1 view .LVU428
 1329 009c 23E0     		b	.L92
 1330              	.LVL143:
 1331              	.L89:
 441:Middlewares/lvgl/src/core/lv_indev_scroll.c ****             default:
 1332              		.loc 1 441 17 is_stmt 0 view .LVU429
 1333              	.LBE70:
 1334              	.LBE69:
 423:Middlewares/lvgl/src/core/lv_indev_scroll.c ****         lv_obj_t * child = lv_obj_get_child(obj, i);
 1335              		.loc 1 423 31 is_stmt 1 discriminator 2 view .LVU430
 423:Middlewares/lvgl/src/core/lv_indev_scroll.c ****         lv_obj_t * child = lv_obj_get_child(obj, i);
 1336              		.loc 1 423 32 is_stmt 0 discriminator 2 view .LVU431
 1337 009e 0134     		adds	r4, r4, #1
 1338              	.LVL144:
 1339              	.L88:
 423:Middlewares/lvgl/src/core/lv_indev_scroll.c ****         lv_obj_t * child = lv_obj_get_child(obj, i);
 1340              		.loc 1 423 16 is_stmt 1 discriminator 1 view .LVU432
 423:Middlewares/lvgl/src/core/lv_indev_scroll.c ****         lv_obj_t * child = lv_obj_get_child(obj, i);
 1341              		.loc 1 423 5 is_stmt 0 discriminator 1 view .LVU433
ARM GAS  /tmp/ccHFiCt0.s 			page 44


 1342 00a0 BC42     		cmp	r4, r7
 1343 00a2 38D2     		bcs	.L99
 1344              	.LBB77:
 424:Middlewares/lvgl/src/core/lv_indev_scroll.c ****         if(lv_obj_has_flag_any(child, LV_OBJ_FLAG_HIDDEN | LV_OBJ_FLAG_FLOATING)) continue;
 1345              		.loc 1 424 9 is_stmt 1 view .LVU434
 424:Middlewares/lvgl/src/core/lv_indev_scroll.c ****         if(lv_obj_has_flag_any(child, LV_OBJ_FLAG_HIDDEN | LV_OBJ_FLAG_FLOATING)) continue;
 1346              		.loc 1 424 28 is_stmt 0 view .LVU435
 1347 00a4 2146     		mov	r1, r4
 1348 00a6 3046     		mov	r0, r6
 1349 00a8 FFF7FEFF 		bl	lv_obj_get_child
 1350              	.LVL145:
 1351 00ac 0546     		mov	r5, r0
 1352              	.LVL146:
 425:Middlewares/lvgl/src/core/lv_indev_scroll.c ****         if(lv_obj_has_flag(child, LV_OBJ_FLAG_SNAPPABLE)) {
 1353              		.loc 1 425 9 is_stmt 1 view .LVU436
 425:Middlewares/lvgl/src/core/lv_indev_scroll.c ****         if(lv_obj_has_flag(child, LV_OBJ_FLAG_SNAPPABLE)) {
 1354              		.loc 1 425 12 is_stmt 0 view .LVU437
 1355 00ae 4FF00111 		mov	r1, #65537
 1356 00b2 FFF7FEFF 		bl	lv_obj_has_flag_any
 1357              	.LVL147:
 425:Middlewares/lvgl/src/core/lv_indev_scroll.c ****         if(lv_obj_has_flag(child, LV_OBJ_FLAG_SNAPPABLE)) {
 1358              		.loc 1 425 11 view .LVU438
 1359 00b6 0028     		cmp	r0, #0
 1360 00b8 F1D1     		bne	.L89
 426:Middlewares/lvgl/src/core/lv_indev_scroll.c ****             lv_coord_t x_child = 0;
 1361              		.loc 1 426 9 is_stmt 1 view .LVU439
 426:Middlewares/lvgl/src/core/lv_indev_scroll.c ****             lv_coord_t x_child = 0;
 1362              		.loc 1 426 12 is_stmt 0 view .LVU440
 1363 00ba 4FF48061 		mov	r1, #1024
 1364 00be 2846     		mov	r0, r5
 1365 00c0 FFF7FEFF 		bl	lv_obj_has_flag
 1366              	.LVL148:
 426:Middlewares/lvgl/src/core/lv_indev_scroll.c ****             lv_coord_t x_child = 0;
 1367              		.loc 1 426 11 view .LVU441
 1368 00c4 0028     		cmp	r0, #0
 1369 00c6 EAD0     		beq	.L89
 1370              	.LBB76:
 427:Middlewares/lvgl/src/core/lv_indev_scroll.c ****             lv_coord_t x_parent = 0;
 1371              		.loc 1 427 13 is_stmt 1 view .LVU442
 1372              	.LVL149:
 428:Middlewares/lvgl/src/core/lv_indev_scroll.c ****             switch(align) {
 1373              		.loc 1 428 13 view .LVU443
 429:Middlewares/lvgl/src/core/lv_indev_scroll.c ****             case LV_SCROLL_SNAP_START:
 1374              		.loc 1 429 13 view .LVU444
 1375 00c8 B9F1020F 		cmp	r9, #2
 1376 00cc C1D0     		beq	.L90
 1377 00ce B9F1030F 		cmp	r9, #3
 1378 00d2 C5D0     		beq	.L91
 1379 00d4 B9F1010F 		cmp	r9, #1
 1380 00d8 E1D1     		bne	.L89
 431:Middlewares/lvgl/src/core/lv_indev_scroll.c ****                 x_parent = obj->coords.x1 + pad_left;
 1381              		.loc 1 431 17 view .LVU445
 431:Middlewares/lvgl/src/core/lv_indev_scroll.c ****                 x_parent = obj->coords.x1 + pad_left;
 1382              		.loc 1 431 25 is_stmt 0 view .LVU446
 1383 00da B5F91430 		ldrsh	r3, [r5, #20]
 1384              	.LVL150:
 432:Middlewares/lvgl/src/core/lv_indev_scroll.c ****                 break;
ARM GAS  /tmp/ccHFiCt0.s 			page 45


 1385              		.loc 1 432 17 is_stmt 1 view .LVU447
 432:Middlewares/lvgl/src/core/lv_indev_scroll.c ****                 break;
 1386              		.loc 1 432 39 is_stmt 0 view .LVU448
 1387 00de B18A     		ldrh	r1, [r6, #20]
 432:Middlewares/lvgl/src/core/lv_indev_scroll.c ****                 break;
 1388              		.loc 1 432 43 view .LVU449
 1389 00e0 029A     		ldr	r2, [sp, #8]
 1390 00e2 1144     		add	r1, r1, r2
 432:Middlewares/lvgl/src/core/lv_indev_scroll.c ****                 break;
 1391              		.loc 1 432 26 view .LVU450
 1392 00e4 09B2     		sxth	r1, r1
 1393              	.LVL151:
 433:Middlewares/lvgl/src/core/lv_indev_scroll.c ****             case LV_SCROLL_SNAP_END:
 1394              		.loc 1 433 17 is_stmt 1 view .LVU451
 1395              	.L92:
 446:Middlewares/lvgl/src/core/lv_indev_scroll.c ****             if(x_child >= min && x_child <= max) {
 1396              		.loc 1 446 13 view .LVU452
 446:Middlewares/lvgl/src/core/lv_indev_scroll.c ****             if(x_child >= min && x_child <= max) {
 1397              		.loc 1 446 21 is_stmt 0 view .LVU453
 1398 00e6 5B44     		add	r3, r3, fp
 1399              	.LVL152:
 446:Middlewares/lvgl/src/core/lv_indev_scroll.c ****             if(x_child >= min && x_child <= max) {
 1400              		.loc 1 446 21 view .LVU454
 1401 00e8 9AB2     		uxth	r2, r3
 1402 00ea 1BB2     		sxth	r3, r3
 1403              	.LVL153:
 447:Middlewares/lvgl/src/core/lv_indev_scroll.c ****                 lv_coord_t x = x_child -  x_parent;
 1404              		.loc 1 447 13 is_stmt 1 view .LVU455
 447:Middlewares/lvgl/src/core/lv_indev_scroll.c ****                 lv_coord_t x = x_child -  x_parent;
 1405              		.loc 1 447 15 is_stmt 0 view .LVU456
 1406 00ec 5345     		cmp	r3, r10
 1407 00ee D6DB     		blt	.L89
 447:Middlewares/lvgl/src/core/lv_indev_scroll.c ****                 lv_coord_t x = x_child -  x_parent;
 1408              		.loc 1 447 31 discriminator 1 view .LVU457
 1409 00f0 0198     		ldr	r0, [sp, #4]
 1410 00f2 8342     		cmp	r3, r0
 1411 00f4 D3DC     		bgt	.L89
 1412              	.LBB75:
 448:Middlewares/lvgl/src/core/lv_indev_scroll.c ****                 if(LV_ABS(x) < LV_ABS(dist)) dist = x;
 1413              		.loc 1 448 17 is_stmt 1 view .LVU458
 448:Middlewares/lvgl/src/core/lv_indev_scroll.c ****                 if(LV_ABS(x) < LV_ABS(dist)) dist = x;
 1414              		.loc 1 448 40 is_stmt 0 view .LVU459
 1415 00f6 521A     		subs	r2, r2, r1
 448:Middlewares/lvgl/src/core/lv_indev_scroll.c ****                 if(LV_ABS(x) < LV_ABS(dist)) dist = x;
 1416              		.loc 1 448 28 view .LVU460
 1417 00f8 12B2     		sxth	r2, r2
 1418              	.LVL154:
 449:Middlewares/lvgl/src/core/lv_indev_scroll.c ****             }
 1419              		.loc 1 449 17 is_stmt 1 view .LVU461
 449:Middlewares/lvgl/src/core/lv_indev_scroll.c ****             }
 1420              		.loc 1 449 20 is_stmt 0 view .LVU462
 1421 00fa 82EAE271 		eor	r1, r2, r2, asr #31
 1422              	.LVL155:
 449:Middlewares/lvgl/src/core/lv_indev_scroll.c ****             }
 1423              		.loc 1 449 20 view .LVU463
 1424 00fe A1EBE271 		sub	r1, r1, r2, asr #31
 1425 0102 89B2     		uxth	r1, r1
ARM GAS  /tmp/ccHFiCt0.s 			page 46


 449:Middlewares/lvgl/src/core/lv_indev_scroll.c ****             }
 1426              		.loc 1 449 32 view .LVU464
 1427 0104 88EAE873 		eor	r3, r8, r8, asr #31
 1428              	.LVL156:
 449:Middlewares/lvgl/src/core/lv_indev_scroll.c ****             }
 1429              		.loc 1 449 32 view .LVU465
 1430 0108 A3EBE873 		sub	r3, r3, r8, asr #31
 1431 010c 9BB2     		uxth	r3, r3
 449:Middlewares/lvgl/src/core/lv_indev_scroll.c ****             }
 1432              		.loc 1 449 19 view .LVU466
 1433 010e 9942     		cmp	r1, r3
 1434 0110 C5D2     		bcs	.L89
 449:Middlewares/lvgl/src/core/lv_indev_scroll.c ****             }
 1435              		.loc 1 449 51 view .LVU467
 1436 0112 9046     		mov	r8, r2
 1437              	.LVL157:
 449:Middlewares/lvgl/src/core/lv_indev_scroll.c ****             }
 1438              		.loc 1 449 51 view .LVU468
 1439 0114 C3E7     		b	.L89
 1440              	.LVL158:
 1441              	.L99:
 449:Middlewares/lvgl/src/core/lv_indev_scroll.c ****             }
 1442              		.loc 1 449 51 view .LVU469
 1443              	.LBE75:
 1444              	.LBE76:
 1445              	.LBE77:
 454:Middlewares/lvgl/src/core/lv_indev_scroll.c **** }
 1446              		.loc 1 454 5 is_stmt 1 view .LVU470
 454:Middlewares/lvgl/src/core/lv_indev_scroll.c **** }
 1447              		.loc 1 454 36 is_stmt 0 view .LVU471
 1448 0116 B8F5C04F 		cmp	r8, #24576
 1449 011a 03D0     		beq	.L96
 454:Middlewares/lvgl/src/core/lv_indev_scroll.c **** }
 1450              		.loc 1 454 36 discriminator 1 view .LVU472
 1451 011c C8F10000 		rsb	r0, r8, #0
 1452 0120 00B2     		sxth	r0, r0
 1453 0122 78E7     		b	.L87
 1454              	.L96:
 454:Middlewares/lvgl/src/core/lv_indev_scroll.c **** }
 1455              		.loc 1 454 36 view .LVU473
 1456 0124 0020     		movs	r0, #0
 1457 0126 76E7     		b	.L87
 1458              		.cfi_endproc
 1459              	.LFE153:
 1461              		.section	.text.init_scroll_limits,"ax",%progbits
 1462              		.align	1
 1463              		.syntax unified
 1464              		.thumb
 1465              		.thumb_func
 1466              		.fpu softvfp
 1468              	init_scroll_limits:
 1469              	.LVL159:
 1470              	.LFB152:
 344:Middlewares/lvgl/src/core/lv_indev_scroll.c ****     lv_obj_t * obj = proc->types.pointer.scroll_obj;
 1471              		.loc 1 344 1 is_stmt 1 view -0
 1472              		.cfi_startproc
 1473              		@ args = 0, pretend = 0, frame = 0
ARM GAS  /tmp/ccHFiCt0.s 			page 47


 1474              		@ frame_needed = 0, uses_anonymous_args = 0
 344:Middlewares/lvgl/src/core/lv_indev_scroll.c ****     lv_obj_t * obj = proc->types.pointer.scroll_obj;
 1475              		.loc 1 344 1 is_stmt 0 view .LVU475
 1476 0000 70B5     		push	{r4, r5, r6, lr}
 1477              	.LCFI15:
 1478              		.cfi_def_cfa_offset 16
 1479              		.cfi_offset 4, -16
 1480              		.cfi_offset 5, -12
 1481              		.cfi_offset 6, -8
 1482              		.cfi_offset 14, -4
 1483 0002 82B0     		sub	sp, sp, #8
 1484              	.LCFI16:
 1485              		.cfi_def_cfa_offset 24
 1486 0004 0446     		mov	r4, r0
 345:Middlewares/lvgl/src/core/lv_indev_scroll.c ****     /*If there no STOP allow scrolling anywhere*/
 1487              		.loc 1 345 5 is_stmt 1 view .LVU476
 345:Middlewares/lvgl/src/core/lv_indev_scroll.c ****     /*If there no STOP allow scrolling anywhere*/
 1488              		.loc 1 345 16 is_stmt 0 view .LVU477
 1489 0006 856A     		ldr	r5, [r0, #40]
 1490              	.LVL160:
 347:Middlewares/lvgl/src/core/lv_indev_scroll.c ****         lv_area_set(&proc->types.pointer.scroll_area, LV_COORD_MIN, LV_COORD_MIN, LV_COORD_MAX, LV_
 1491              		.loc 1 347 5 is_stmt 1 view .LVU478
 347:Middlewares/lvgl/src/core/lv_indev_scroll.c ****         lv_area_set(&proc->types.pointer.scroll_area, LV_COORD_MIN, LV_COORD_MIN, LV_COORD_MAX, LV_
 1492              		.loc 1 347 8 is_stmt 0 view .LVU479
 1493 0008 8021     		movs	r1, #128
 1494 000a 2846     		mov	r0, r5
 1495              	.LVL161:
 347:Middlewares/lvgl/src/core/lv_indev_scroll.c ****         lv_area_set(&proc->types.pointer.scroll_area, LV_COORD_MIN, LV_COORD_MIN, LV_COORD_MAX, LV_
 1496              		.loc 1 347 8 view .LVU480
 1497 000c FFF7FEFF 		bl	lv_obj_has_flag
 1498              	.LVL162:
 347:Middlewares/lvgl/src/core/lv_indev_scroll.c ****         lv_area_set(&proc->types.pointer.scroll_area, LV_COORD_MIN, LV_COORD_MIN, LV_COORD_MAX, LV_
 1499              		.loc 1 347 7 view .LVU481
 1500 0010 10BB     		cbnz	r0, .L101
 348:Middlewares/lvgl/src/core/lv_indev_scroll.c ****     }
 1501              		.loc 1 348 9 is_stmt 1 view .LVU482
 1502 0012 6449     		ldr	r1, .L117
 1503 0014 4FF4C043 		mov	r3, #24576
 1504 0018 0093     		str	r3, [sp]
 1505 001a 0A46     		mov	r2, r1
 1506 001c 04F13000 		add	r0, r4, #48
 1507 0020 FFF7FEFF 		bl	lv_area_set
 1508              	.LVL163:
 1509              	.L102:
 396:Middlewares/lvgl/src/core/lv_indev_scroll.c ****     if(proc->types.pointer.scroll_area.x2 == 0) proc->types.pointer.scroll_area.x2 = LV_COORD_MAX;
 1510              		.loc 1 396 5 view .LVU483
 396:Middlewares/lvgl/src/core/lv_indev_scroll.c ****     if(proc->types.pointer.scroll_area.x2 == 0) proc->types.pointer.scroll_area.x2 = LV_COORD_MAX;
 1511              		.loc 1 396 39 is_stmt 0 view .LVU484
 1512 0024 B4F93030 		ldrsh	r3, [r4, #48]
 396:Middlewares/lvgl/src/core/lv_indev_scroll.c ****     if(proc->types.pointer.scroll_area.x2 == 0) proc->types.pointer.scroll_area.x2 = LV_COORD_MAX;
 1513              		.loc 1 396 7 view .LVU485
 1514 0028 13B9     		cbnz	r3, .L110
 396:Middlewares/lvgl/src/core/lv_indev_scroll.c ****     if(proc->types.pointer.scroll_area.x2 == 0) proc->types.pointer.scroll_area.x2 = LV_COORD_MAX;
 1515              		.loc 1 396 49 is_stmt 1 discriminator 1 view .LVU486
 396:Middlewares/lvgl/src/core/lv_indev_scroll.c ****     if(proc->types.pointer.scroll_area.x2 == 0) proc->types.pointer.scroll_area.x2 = LV_COORD_MAX;
 1516              		.loc 1 396 84 is_stmt 0 discriminator 1 view .LVU487
 1517 002a 4FF42043 		mov	r3, #40960
ARM GAS  /tmp/ccHFiCt0.s 			page 48


 1518 002e 2386     		strh	r3, [r4, #48]	@ movhi
 1519              	.L110:
 397:Middlewares/lvgl/src/core/lv_indev_scroll.c ****     if(proc->types.pointer.scroll_area.y1 == 0) proc->types.pointer.scroll_area.y1 = LV_COORD_MIN;
 1520              		.loc 1 397 5 is_stmt 1 view .LVU488
 397:Middlewares/lvgl/src/core/lv_indev_scroll.c ****     if(proc->types.pointer.scroll_area.y1 == 0) proc->types.pointer.scroll_area.y1 = LV_COORD_MIN;
 1521              		.loc 1 397 39 is_stmt 0 view .LVU489
 1522 0030 B4F93430 		ldrsh	r3, [r4, #52]
 397:Middlewares/lvgl/src/core/lv_indev_scroll.c ****     if(proc->types.pointer.scroll_area.y1 == 0) proc->types.pointer.scroll_area.y1 = LV_COORD_MIN;
 1523              		.loc 1 397 7 view .LVU490
 1524 0034 13B9     		cbnz	r3, .L111
 397:Middlewares/lvgl/src/core/lv_indev_scroll.c ****     if(proc->types.pointer.scroll_area.y1 == 0) proc->types.pointer.scroll_area.y1 = LV_COORD_MIN;
 1525              		.loc 1 397 49 is_stmt 1 discriminator 1 view .LVU491
 397:Middlewares/lvgl/src/core/lv_indev_scroll.c ****     if(proc->types.pointer.scroll_area.y1 == 0) proc->types.pointer.scroll_area.y1 = LV_COORD_MIN;
 1526              		.loc 1 397 84 is_stmt 0 discriminator 1 view .LVU492
 1527 0036 4FF4C043 		mov	r3, #24576
 1528 003a A386     		strh	r3, [r4, #52]	@ movhi
 1529              	.L111:
 398:Middlewares/lvgl/src/core/lv_indev_scroll.c ****     if(proc->types.pointer.scroll_area.y2 == 0) proc->types.pointer.scroll_area.y2 = LV_COORD_MAX;
 1530              		.loc 1 398 5 is_stmt 1 view .LVU493
 398:Middlewares/lvgl/src/core/lv_indev_scroll.c ****     if(proc->types.pointer.scroll_area.y2 == 0) proc->types.pointer.scroll_area.y2 = LV_COORD_MAX;
 1531              		.loc 1 398 39 is_stmt 0 view .LVU494
 1532 003c B4F93230 		ldrsh	r3, [r4, #50]
 398:Middlewares/lvgl/src/core/lv_indev_scroll.c ****     if(proc->types.pointer.scroll_area.y2 == 0) proc->types.pointer.scroll_area.y2 = LV_COORD_MAX;
 1533              		.loc 1 398 7 view .LVU495
 1534 0040 13B9     		cbnz	r3, .L112
 398:Middlewares/lvgl/src/core/lv_indev_scroll.c ****     if(proc->types.pointer.scroll_area.y2 == 0) proc->types.pointer.scroll_area.y2 = LV_COORD_MAX;
 1535              		.loc 1 398 49 is_stmt 1 discriminator 1 view .LVU496
 398:Middlewares/lvgl/src/core/lv_indev_scroll.c ****     if(proc->types.pointer.scroll_area.y2 == 0) proc->types.pointer.scroll_area.y2 = LV_COORD_MAX;
 1536              		.loc 1 398 84 is_stmt 0 discriminator 1 view .LVU497
 1537 0042 4FF42043 		mov	r3, #40960
 1538 0046 6386     		strh	r3, [r4, #50]	@ movhi
 1539              	.L112:
 399:Middlewares/lvgl/src/core/lv_indev_scroll.c **** }
 1540              		.loc 1 399 5 is_stmt 1 view .LVU498
 399:Middlewares/lvgl/src/core/lv_indev_scroll.c **** }
 1541              		.loc 1 399 39 is_stmt 0 view .LVU499
 1542 0048 B4F93630 		ldrsh	r3, [r4, #54]
 399:Middlewares/lvgl/src/core/lv_indev_scroll.c **** }
 1543              		.loc 1 399 7 view .LVU500
 1544 004c 13B9     		cbnz	r3, .L100
 399:Middlewares/lvgl/src/core/lv_indev_scroll.c **** }
 1545              		.loc 1 399 49 is_stmt 1 discriminator 1 view .LVU501
 399:Middlewares/lvgl/src/core/lv_indev_scroll.c **** }
 1546              		.loc 1 399 84 is_stmt 0 discriminator 1 view .LVU502
 1547 004e 4FF4C043 		mov	r3, #24576
 1548 0052 E386     		strh	r3, [r4, #54]	@ movhi
 1549              	.L100:
 400:Middlewares/lvgl/src/core/lv_indev_scroll.c **** 
 1550              		.loc 1 400 1 view .LVU503
 1551 0054 02B0     		add	sp, sp, #8
 1552              	.LCFI17:
 1553              		.cfi_remember_state
 1554              		.cfi_def_cfa_offset 16
 1555              		@ sp needed
 1556 0056 70BD     		pop	{r4, r5, r6, pc}
 1557              	.LVL164:
 1558              	.L101:
ARM GAS  /tmp/ccHFiCt0.s 			page 49


 1559              	.LCFI18:
 1560              		.cfi_restore_state
 352:Middlewares/lvgl/src/core/lv_indev_scroll.c ****         case LV_SCROLL_SNAP_START:
 1561              		.loc 1 352 9 is_stmt 1 view .LVU504
 352:Middlewares/lvgl/src/core/lv_indev_scroll.c ****         case LV_SCROLL_SNAP_START:
 1562              		.loc 1 352 16 is_stmt 0 view .LVU505
 1563 0058 2846     		mov	r0, r5
 1564 005a FFF7FEFF 		bl	lv_obj_get_scroll_snap_y
 1565              	.LVL165:
 352:Middlewares/lvgl/src/core/lv_indev_scroll.c ****         case LV_SCROLL_SNAP_START:
 1566              		.loc 1 352 9 view .LVU506
 1567 005e 0228     		cmp	r0, #2
 1568 0060 2DD0     		beq	.L103
 1569 0062 0328     		cmp	r0, #3
 1570 0064 3DD0     		beq	.L104
 1571 0066 0128     		cmp	r0, #1
 1572 0068 06D0     		beq	.L115
 368:Middlewares/lvgl/src/core/lv_indev_scroll.c ****             proc->types.pointer.scroll_area.y2 = LV_COORD_MAX;
 1573              		.loc 1 368 13 is_stmt 1 view .LVU507
 368:Middlewares/lvgl/src/core/lv_indev_scroll.c ****             proc->types.pointer.scroll_area.y2 = LV_COORD_MAX;
 1574              		.loc 1 368 48 is_stmt 0 view .LVU508
 1575 006a 4FF42043 		mov	r3, #40960
 1576 006e 6386     		strh	r3, [r4, #50]	@ movhi
 369:Middlewares/lvgl/src/core/lv_indev_scroll.c ****             break;
 1577              		.loc 1 369 13 is_stmt 1 view .LVU509
 369:Middlewares/lvgl/src/core/lv_indev_scroll.c ****             break;
 1578              		.loc 1 369 48 is_stmt 0 view .LVU510
 1579 0070 4FF4C043 		mov	r3, #24576
 1580 0074 E386     		strh	r3, [r4, #54]	@ movhi
 370:Middlewares/lvgl/src/core/lv_indev_scroll.c ****         }
 1581              		.loc 1 370 13 is_stmt 1 view .LVU511
 1582 0076 12E0     		b	.L106
 1583              	.L115:
 354:Middlewares/lvgl/src/core/lv_indev_scroll.c ****             proc->types.pointer.scroll_area.y2 = find_snap_point_y(obj, LV_COORD_MIN, obj->coords.y
 1584              		.loc 1 354 13 view .LVU512
 354:Middlewares/lvgl/src/core/lv_indev_scroll.c ****             proc->types.pointer.scroll_area.y2 = find_snap_point_y(obj, LV_COORD_MIN, obj->coords.y
 1585              		.loc 1 354 84 is_stmt 0 view .LVU513
 1586 0078 E98A     		ldrh	r1, [r5, #22]
 354:Middlewares/lvgl/src/core/lv_indev_scroll.c ****             proc->types.pointer.scroll_area.y2 = find_snap_point_y(obj, LV_COORD_MIN, obj->coords.y
 1587              		.loc 1 354 88 view .LVU514
 1588 007a 0131     		adds	r1, r1, #1
 354:Middlewares/lvgl/src/core/lv_indev_scroll.c ****             proc->types.pointer.scroll_area.y2 = find_snap_point_y(obj, LV_COORD_MIN, obj->coords.y
 1589              		.loc 1 354 50 view .LVU515
 1590 007c 0023     		movs	r3, #0
 1591 007e 4FF4C042 		mov	r2, #24576
 1592 0082 09B2     		sxth	r1, r1
 1593 0084 2846     		mov	r0, r5
 1594 0086 FFF7FEFF 		bl	find_snap_point_y
 1595              	.LVL166:
 354:Middlewares/lvgl/src/core/lv_indev_scroll.c ****             proc->types.pointer.scroll_area.y2 = find_snap_point_y(obj, LV_COORD_MIN, obj->coords.y
 1596              		.loc 1 354 48 view .LVU516
 1597 008a 6086     		strh	r0, [r4, #50]	@ movhi
 355:Middlewares/lvgl/src/core/lv_indev_scroll.c ****             break;
 1598              		.loc 1 355 13 is_stmt 1 view .LVU517
 355:Middlewares/lvgl/src/core/lv_indev_scroll.c ****             break;
 1599              		.loc 1 355 98 is_stmt 0 view .LVU518
 1600 008c EA8A     		ldrh	r2, [r5, #22]
ARM GAS  /tmp/ccHFiCt0.s 			page 50


 355:Middlewares/lvgl/src/core/lv_indev_scroll.c ****             break;
 1601              		.loc 1 355 102 view .LVU519
 1602 008e 013A     		subs	r2, r2, #1
 355:Middlewares/lvgl/src/core/lv_indev_scroll.c ****             break;
 1603              		.loc 1 355 50 view .LVU520
 1604 0090 0023     		movs	r3, #0
 1605 0092 12B2     		sxth	r2, r2
 1606 0094 4349     		ldr	r1, .L117
 1607 0096 2846     		mov	r0, r5
 1608 0098 FFF7FEFF 		bl	find_snap_point_y
 1609              	.LVL167:
 355:Middlewares/lvgl/src/core/lv_indev_scroll.c ****             break;
 1610              		.loc 1 355 48 view .LVU521
 1611 009c E086     		strh	r0, [r4, #54]	@ movhi
 356:Middlewares/lvgl/src/core/lv_indev_scroll.c ****         case LV_SCROLL_SNAP_END:
 1612              		.loc 1 356 13 is_stmt 1 view .LVU522
 1613              	.L106:
 373:Middlewares/lvgl/src/core/lv_indev_scroll.c ****         case LV_SCROLL_SNAP_START:
 1614              		.loc 1 373 9 view .LVU523
 373:Middlewares/lvgl/src/core/lv_indev_scroll.c ****         case LV_SCROLL_SNAP_START:
 1615              		.loc 1 373 16 is_stmt 0 view .LVU524
 1616 009e 2846     		mov	r0, r5
 1617 00a0 FFF7FEFF 		bl	lv_obj_get_scroll_snap_x
 1618              	.LVL168:
 373:Middlewares/lvgl/src/core/lv_indev_scroll.c ****         case LV_SCROLL_SNAP_START:
 1619              		.loc 1 373 9 view .LVU525
 1620 00a4 0228     		cmp	r0, #2
 1621 00a6 4CD0     		beq	.L107
 1622 00a8 0328     		cmp	r0, #3
 1623 00aa 5CD0     		beq	.L108
 1624 00ac 0128     		cmp	r0, #1
 1625 00ae 36D0     		beq	.L116
 389:Middlewares/lvgl/src/core/lv_indev_scroll.c ****             proc->types.pointer.scroll_area.x2 = LV_COORD_MAX;
 1626              		.loc 1 389 13 is_stmt 1 view .LVU526
 389:Middlewares/lvgl/src/core/lv_indev_scroll.c ****             proc->types.pointer.scroll_area.x2 = LV_COORD_MAX;
 1627              		.loc 1 389 48 is_stmt 0 view .LVU527
 1628 00b0 4FF42043 		mov	r3, #40960
 1629 00b4 2386     		strh	r3, [r4, #48]	@ movhi
 390:Middlewares/lvgl/src/core/lv_indev_scroll.c ****             break;
 1630              		.loc 1 390 13 is_stmt 1 view .LVU528
 390:Middlewares/lvgl/src/core/lv_indev_scroll.c ****             break;
 1631              		.loc 1 390 48 is_stmt 0 view .LVU529
 1632 00b6 4FF4C043 		mov	r3, #24576
 1633 00ba A386     		strh	r3, [r4, #52]	@ movhi
 391:Middlewares/lvgl/src/core/lv_indev_scroll.c ****         }
 1634              		.loc 1 391 13 is_stmt 1 view .LVU530
 1635 00bc B2E7     		b	.L102
 1636              	.L103:
 358:Middlewares/lvgl/src/core/lv_indev_scroll.c ****             proc->types.pointer.scroll_area.y2 = find_snap_point_y(obj, LV_COORD_MIN, obj->coords.y
 1637              		.loc 1 358 13 view .LVU531
 358:Middlewares/lvgl/src/core/lv_indev_scroll.c ****             proc->types.pointer.scroll_area.y2 = find_snap_point_y(obj, LV_COORD_MIN, obj->coords.y
 1638              		.loc 1 358 50 is_stmt 0 view .LVU532
 1639 00be 0023     		movs	r3, #0
 1640 00c0 4FF4C042 		mov	r2, #24576
 1641 00c4 B5F91A10 		ldrsh	r1, [r5, #26]
 1642 00c8 2846     		mov	r0, r5
 1643 00ca FFF7FEFF 		bl	find_snap_point_y
ARM GAS  /tmp/ccHFiCt0.s 			page 51


 1644              	.LVL169:
 358:Middlewares/lvgl/src/core/lv_indev_scroll.c ****             proc->types.pointer.scroll_area.y2 = find_snap_point_y(obj, LV_COORD_MIN, obj->coords.y
 1645              		.loc 1 358 48 view .LVU533
 1646 00ce 6086     		strh	r0, [r4, #50]	@ movhi
 359:Middlewares/lvgl/src/core/lv_indev_scroll.c ****             break;
 1647              		.loc 1 359 13 is_stmt 1 view .LVU534
 359:Middlewares/lvgl/src/core/lv_indev_scroll.c ****             break;
 1648              		.loc 1 359 50 is_stmt 0 view .LVU535
 1649 00d0 0023     		movs	r3, #0
 1650 00d2 B5F91A20 		ldrsh	r2, [r5, #26]
 1651 00d6 3349     		ldr	r1, .L117
 1652 00d8 2846     		mov	r0, r5
 1653 00da FFF7FEFF 		bl	find_snap_point_y
 1654              	.LVL170:
 359:Middlewares/lvgl/src/core/lv_indev_scroll.c ****             break;
 1655              		.loc 1 359 48 view .LVU536
 1656 00de E086     		strh	r0, [r4, #54]	@ movhi
 360:Middlewares/lvgl/src/core/lv_indev_scroll.c ****         case LV_SCROLL_SNAP_CENTER: {
 1657              		.loc 1 360 13 is_stmt 1 view .LVU537
 1658 00e0 DDE7     		b	.L106
 1659              	.L104:
 1660              	.LBB78:
 362:Middlewares/lvgl/src/core/lv_indev_scroll.c ****             proc->types.pointer.scroll_area.y1 = find_snap_point_y(obj, y_mid + 1, LV_COORD_MAX, 0)
 1661              		.loc 1 362 13 view .LVU538
 362:Middlewares/lvgl/src/core/lv_indev_scroll.c ****             proc->types.pointer.scroll_area.y1 = find_snap_point_y(obj, y_mid + 1, LV_COORD_MAX, 0)
 1662              		.loc 1 362 43 is_stmt 0 view .LVU539
 1663 00e2 EE8A     		ldrh	r6, [r5, #22]
 1664              	.LVL171:
 1665              	.LBB79:
 1666              	.LBI79:
 143:Middlewares/lvgl/src/core/../misc/../font/../misc/lv_area.h **** {
 1667              		.loc 3 143 26 is_stmt 1 view .LVU540
 1668              	.LBB80:
 1669              		.loc 3 145 5 view .LVU541
 1670              		.loc 3 145 31 is_stmt 0 view .LVU542
 1671 00e4 6B8B     		ldrh	r3, [r5, #26]
 1672              		.loc 3 145 36 view .LVU543
 1673 00e6 9B1B     		subs	r3, r3, r6
 1674 00e8 9BB2     		uxth	r3, r3
 1675              		.loc 3 145 49 view .LVU544
 1676 00ea 0133     		adds	r3, r3, #1
 1677              		.loc 3 145 12 view .LVU545
 1678 00ec 1AB2     		sxth	r2, r3
 1679              	.LVL172:
 1680              		.loc 3 145 12 view .LVU546
 1681              	.LBE80:
 1682              	.LBE79:
 362:Middlewares/lvgl/src/core/lv_indev_scroll.c ****             proc->types.pointer.scroll_area.y1 = find_snap_point_y(obj, y_mid + 1, LV_COORD_MAX, 0)
 1683              		.loc 1 362 47 view .LVU547
 1684 00ee C3F3C033 		ubfx	r3, r3, #15, #1
 1685 00f2 1344     		add	r3, r3, r2
 1686 00f4 06EB6306 		add	r6, r6, r3, asr #1
 1687 00f8 B6B2     		uxth	r6, r6
 1688              	.LVL173:
 363:Middlewares/lvgl/src/core/lv_indev_scroll.c ****             proc->types.pointer.scroll_area.y2 = find_snap_point_y(obj, LV_COORD_MIN, y_mid - 1, 0)
 1689              		.loc 1 363 13 is_stmt 1 view .LVU548
 363:Middlewares/lvgl/src/core/lv_indev_scroll.c ****             proc->types.pointer.scroll_area.y2 = find_snap_point_y(obj, LV_COORD_MIN, y_mid - 1, 0)
ARM GAS  /tmp/ccHFiCt0.s 			page 52


 1690              		.loc 1 363 79 is_stmt 0 view .LVU549
 1691 00fa 711C     		adds	r1, r6, #1
 363:Middlewares/lvgl/src/core/lv_indev_scroll.c ****             proc->types.pointer.scroll_area.y2 = find_snap_point_y(obj, LV_COORD_MIN, y_mid - 1, 0)
 1692              		.loc 1 363 50 view .LVU550
 1693 00fc 0023     		movs	r3, #0
 1694 00fe 4FF4C042 		mov	r2, #24576
 1695 0102 09B2     		sxth	r1, r1
 1696 0104 2846     		mov	r0, r5
 1697 0106 FFF7FEFF 		bl	find_snap_point_y
 1698              	.LVL174:
 363:Middlewares/lvgl/src/core/lv_indev_scroll.c ****             proc->types.pointer.scroll_area.y2 = find_snap_point_y(obj, LV_COORD_MIN, y_mid - 1, 0)
 1699              		.loc 1 363 48 view .LVU551
 1700 010a 6086     		strh	r0, [r4, #50]	@ movhi
 364:Middlewares/lvgl/src/core/lv_indev_scroll.c ****             break;
 1701              		.loc 1 364 13 is_stmt 1 view .LVU552
 364:Middlewares/lvgl/src/core/lv_indev_scroll.c ****             break;
 1702              		.loc 1 364 93 is_stmt 0 view .LVU553
 1703 010c 721E     		subs	r2, r6, #1
 364:Middlewares/lvgl/src/core/lv_indev_scroll.c ****             break;
 1704              		.loc 1 364 50 view .LVU554
 1705 010e 0023     		movs	r3, #0
 1706 0110 12B2     		sxth	r2, r2
 1707 0112 2449     		ldr	r1, .L117
 1708 0114 2846     		mov	r0, r5
 1709 0116 FFF7FEFF 		bl	find_snap_point_y
 1710              	.LVL175:
 364:Middlewares/lvgl/src/core/lv_indev_scroll.c ****             break;
 1711              		.loc 1 364 48 view .LVU555
 1712 011a E086     		strh	r0, [r4, #54]	@ movhi
 365:Middlewares/lvgl/src/core/lv_indev_scroll.c ****         }
 1713              		.loc 1 365 13 is_stmt 1 view .LVU556
 1714 011c BFE7     		b	.L106
 1715              	.LVL176:
 1716              	.L116:
 365:Middlewares/lvgl/src/core/lv_indev_scroll.c ****         }
 1717              		.loc 1 365 13 is_stmt 0 view .LVU557
 1718              	.LBE78:
 375:Middlewares/lvgl/src/core/lv_indev_scroll.c ****             proc->types.pointer.scroll_area.x2 = find_snap_point_x(obj, LV_COORD_MIN, obj->coords.x
 1719              		.loc 1 375 13 is_stmt 1 view .LVU558
 375:Middlewares/lvgl/src/core/lv_indev_scroll.c ****             proc->types.pointer.scroll_area.x2 = find_snap_point_x(obj, LV_COORD_MIN, obj->coords.x
 1720              		.loc 1 375 50 is_stmt 0 view .LVU559
 1721 011e 0023     		movs	r3, #0
 1722 0120 4FF4C042 		mov	r2, #24576
 1723 0124 B5F91410 		ldrsh	r1, [r5, #20]
 1724 0128 2846     		mov	r0, r5
 1725 012a FFF7FEFF 		bl	find_snap_point_x
 1726              	.LVL177:
 375:Middlewares/lvgl/src/core/lv_indev_scroll.c ****             proc->types.pointer.scroll_area.x2 = find_snap_point_x(obj, LV_COORD_MIN, obj->coords.x
 1727              		.loc 1 375 48 view .LVU560
 1728 012e 2086     		strh	r0, [r4, #48]	@ movhi
 376:Middlewares/lvgl/src/core/lv_indev_scroll.c ****             break;
 1729              		.loc 1 376 13 is_stmt 1 view .LVU561
 376:Middlewares/lvgl/src/core/lv_indev_scroll.c ****             break;
 1730              		.loc 1 376 50 is_stmt 0 view .LVU562
 1731 0130 0023     		movs	r3, #0
 1732 0132 B5F91420 		ldrsh	r2, [r5, #20]
 1733 0136 1B49     		ldr	r1, .L117
ARM GAS  /tmp/ccHFiCt0.s 			page 53


 1734 0138 2846     		mov	r0, r5
 1735 013a FFF7FEFF 		bl	find_snap_point_x
 1736              	.LVL178:
 376:Middlewares/lvgl/src/core/lv_indev_scroll.c ****             break;
 1737              		.loc 1 376 48 view .LVU563
 1738 013e A086     		strh	r0, [r4, #52]	@ movhi
 377:Middlewares/lvgl/src/core/lv_indev_scroll.c ****         case LV_SCROLL_SNAP_END:
 1739              		.loc 1 377 13 is_stmt 1 view .LVU564
 1740 0140 70E7     		b	.L102
 1741              	.L107:
 379:Middlewares/lvgl/src/core/lv_indev_scroll.c ****             proc->types.pointer.scroll_area.x2 = find_snap_point_x(obj, LV_COORD_MIN, obj->coords.x
 1742              		.loc 1 379 13 view .LVU565
 379:Middlewares/lvgl/src/core/lv_indev_scroll.c ****             proc->types.pointer.scroll_area.x2 = find_snap_point_x(obj, LV_COORD_MIN, obj->coords.x
 1743              		.loc 1 379 50 is_stmt 0 view .LVU566
 1744 0142 0023     		movs	r3, #0
 1745 0144 4FF4C042 		mov	r2, #24576
 1746 0148 B5F91810 		ldrsh	r1, [r5, #24]
 1747 014c 2846     		mov	r0, r5
 1748 014e FFF7FEFF 		bl	find_snap_point_x
 1749              	.LVL179:
 379:Middlewares/lvgl/src/core/lv_indev_scroll.c ****             proc->types.pointer.scroll_area.x2 = find_snap_point_x(obj, LV_COORD_MIN, obj->coords.x
 1750              		.loc 1 379 48 view .LVU567
 1751 0152 2086     		strh	r0, [r4, #48]	@ movhi
 380:Middlewares/lvgl/src/core/lv_indev_scroll.c ****             break;
 1752              		.loc 1 380 13 is_stmt 1 view .LVU568
 380:Middlewares/lvgl/src/core/lv_indev_scroll.c ****             break;
 1753              		.loc 1 380 50 is_stmt 0 view .LVU569
 1754 0154 0023     		movs	r3, #0
 1755 0156 B5F91820 		ldrsh	r2, [r5, #24]
 1756 015a 1249     		ldr	r1, .L117
 1757 015c 2846     		mov	r0, r5
 1758 015e FFF7FEFF 		bl	find_snap_point_x
 1759              	.LVL180:
 380:Middlewares/lvgl/src/core/lv_indev_scroll.c ****             break;
 1760              		.loc 1 380 48 view .LVU570
 1761 0162 A086     		strh	r0, [r4, #52]	@ movhi
 381:Middlewares/lvgl/src/core/lv_indev_scroll.c ****         case LV_SCROLL_SNAP_CENTER: {
 1762              		.loc 1 381 13 is_stmt 1 view .LVU571
 1763 0164 5EE7     		b	.L102
 1764              	.L108:
 1765              	.LBB81:
 383:Middlewares/lvgl/src/core/lv_indev_scroll.c ****             proc->types.pointer.scroll_area.x1 = find_snap_point_x(obj, x_mid + 1, LV_COORD_MAX, 0)
 1766              		.loc 1 383 13 view .LVU572
 383:Middlewares/lvgl/src/core/lv_indev_scroll.c ****             proc->types.pointer.scroll_area.x1 = find_snap_point_x(obj, x_mid + 1, LV_COORD_MAX, 0)
 1767              		.loc 1 383 43 is_stmt 0 view .LVU573
 1768 0166 AE8A     		ldrh	r6, [r5, #20]
 1769              	.LVL181:
 1770              	.LBB82:
 1771              	.LBI82:
 133:Middlewares/lvgl/src/core/../misc/../font/../misc/lv_area.h **** {
 1772              		.loc 3 133 26 is_stmt 1 view .LVU574
 1773              	.LBB83:
 135:Middlewares/lvgl/src/core/../misc/../font/../misc/lv_area.h **** }
 1774              		.loc 3 135 5 view .LVU575
 135:Middlewares/lvgl/src/core/../misc/../font/../misc/lv_area.h **** }
 1775              		.loc 3 135 31 is_stmt 0 view .LVU576
 1776 0168 2B8B     		ldrh	r3, [r5, #24]
ARM GAS  /tmp/ccHFiCt0.s 			page 54


 135:Middlewares/lvgl/src/core/../misc/../font/../misc/lv_area.h **** }
 1777              		.loc 3 135 36 view .LVU577
 1778 016a 9B1B     		subs	r3, r3, r6
 1779 016c 9BB2     		uxth	r3, r3
 135:Middlewares/lvgl/src/core/../misc/../font/../misc/lv_area.h **** }
 1780              		.loc 3 135 49 view .LVU578
 1781 016e 0133     		adds	r3, r3, #1
 135:Middlewares/lvgl/src/core/../misc/../font/../misc/lv_area.h **** }
 1782              		.loc 3 135 12 view .LVU579
 1783 0170 1AB2     		sxth	r2, r3
 1784              	.LVL182:
 135:Middlewares/lvgl/src/core/../misc/../font/../misc/lv_area.h **** }
 1785              		.loc 3 135 12 view .LVU580
 1786              	.LBE83:
 1787              	.LBE82:
 383:Middlewares/lvgl/src/core/lv_indev_scroll.c ****             proc->types.pointer.scroll_area.x1 = find_snap_point_x(obj, x_mid + 1, LV_COORD_MAX, 0)
 1788              		.loc 1 383 47 view .LVU581
 1789 0172 C3F3C033 		ubfx	r3, r3, #15, #1
 1790 0176 1344     		add	r3, r3, r2
 1791 0178 06EB6306 		add	r6, r6, r3, asr #1
 1792 017c B6B2     		uxth	r6, r6
 1793              	.LVL183:
 384:Middlewares/lvgl/src/core/lv_indev_scroll.c ****             proc->types.pointer.scroll_area.x2 = find_snap_point_x(obj, LV_COORD_MIN, x_mid - 1, 0)
 1794              		.loc 1 384 13 is_stmt 1 view .LVU582
 384:Middlewares/lvgl/src/core/lv_indev_scroll.c ****             proc->types.pointer.scroll_area.x2 = find_snap_point_x(obj, LV_COORD_MIN, x_mid - 1, 0)
 1795              		.loc 1 384 79 is_stmt 0 view .LVU583
 1796 017e 711C     		adds	r1, r6, #1
 384:Middlewares/lvgl/src/core/lv_indev_scroll.c ****             proc->types.pointer.scroll_area.x2 = find_snap_point_x(obj, LV_COORD_MIN, x_mid - 1, 0)
 1797              		.loc 1 384 50 view .LVU584
 1798 0180 0023     		movs	r3, #0
 1799 0182 4FF4C042 		mov	r2, #24576
 1800 0186 09B2     		sxth	r1, r1
 1801 0188 2846     		mov	r0, r5
 1802 018a FFF7FEFF 		bl	find_snap_point_x
 1803              	.LVL184:
 384:Middlewares/lvgl/src/core/lv_indev_scroll.c ****             proc->types.pointer.scroll_area.x2 = find_snap_point_x(obj, LV_COORD_MIN, x_mid - 1, 0)
 1804              		.loc 1 384 48 view .LVU585
 1805 018e 2086     		strh	r0, [r4, #48]	@ movhi
 385:Middlewares/lvgl/src/core/lv_indev_scroll.c ****             break;
 1806              		.loc 1 385 13 is_stmt 1 view .LVU586
 385:Middlewares/lvgl/src/core/lv_indev_scroll.c ****             break;
 1807              		.loc 1 385 93 is_stmt 0 view .LVU587
 1808 0190 721E     		subs	r2, r6, #1
 385:Middlewares/lvgl/src/core/lv_indev_scroll.c ****             break;
 1809              		.loc 1 385 50 view .LVU588
 1810 0192 0023     		movs	r3, #0
 1811 0194 12B2     		sxth	r2, r2
 1812 0196 0349     		ldr	r1, .L117
 1813 0198 2846     		mov	r0, r5
 1814 019a FFF7FEFF 		bl	find_snap_point_x
 1815              	.LVL185:
 385:Middlewares/lvgl/src/core/lv_indev_scroll.c ****             break;
 1816              		.loc 1 385 48 view .LVU589
 1817 019e A086     		strh	r0, [r4, #52]	@ movhi
 386:Middlewares/lvgl/src/core/lv_indev_scroll.c ****         }
 1818              		.loc 1 386 13 is_stmt 1 view .LVU590
 1819 01a0 40E7     		b	.L102
ARM GAS  /tmp/ccHFiCt0.s 			page 55


 1820              	.L118:
 1821 01a2 00BF     		.align	2
 1822              	.L117:
 1823 01a4 00A0FFFF 		.word	-24576
 1824              	.LBE81:
 1825              		.cfi_endproc
 1826              	.LFE152:
 1828              		.section	.text.elastic_diff,"ax",%progbits
 1829              		.align	1
 1830              		.syntax unified
 1831              		.thumb
 1832              		.thumb_func
 1833              		.fpu softvfp
 1835              	elastic_diff:
 1836              	.LVL186:
 1837              	.LFB158:
 567:Middlewares/lvgl/src/core/lv_indev_scroll.c **** 
 568:Middlewares/lvgl/src/core/lv_indev_scroll.c **** static lv_coord_t elastic_diff(lv_obj_t * scroll_obj, lv_coord_t diff, lv_coord_t scroll_start, lv_
 569:Middlewares/lvgl/src/core/lv_indev_scroll.c **** {
 1838              		.loc 1 569 1 view -0
 1839              		.cfi_startproc
 1840              		@ args = 4, pretend = 0, frame = 0
 1841              		@ frame_needed = 0, uses_anonymous_args = 0
 1842              		.loc 1 569 1 is_stmt 0 view .LVU592
 1843 0000 2DE9F84F 		push	{r3, r4, r5, r6, r7, r8, r9, r10, fp, lr}
 1844              	.LCFI19:
 1845              		.cfi_def_cfa_offset 40
 1846              		.cfi_offset 3, -40
 1847              		.cfi_offset 4, -36
 1848              		.cfi_offset 5, -32
 1849              		.cfi_offset 6, -28
 1850              		.cfi_offset 7, -24
 1851              		.cfi_offset 8, -20
 1852              		.cfi_offset 9, -16
 1853              		.cfi_offset 10, -12
 1854              		.cfi_offset 11, -8
 1855              		.cfi_offset 14, -4
 1856 0004 0546     		mov	r5, r0
 1857 0006 0C46     		mov	r4, r1
 1858 0008 9046     		mov	r8, r2
 1859 000a 1E46     		mov	r6, r3
 1860 000c 9DF82890 		ldrb	r9, [sp, #40]	@ zero_extendqisi2
 570:Middlewares/lvgl/src/core/lv_indev_scroll.c ****     if(lv_obj_has_flag(scroll_obj, LV_OBJ_FLAG_SCROLL_ELASTIC)) {
 1861              		.loc 1 570 5 is_stmt 1 view .LVU593
 1862              		.loc 1 570 8 is_stmt 0 view .LVU594
 1863 0010 2021     		movs	r1, #32
 1864              	.LVL187:
 1865              		.loc 1 570 8 view .LVU595
 1866 0012 FFF7FEFF 		bl	lv_obj_has_flag
 1867              	.LVL188:
 1868              		.loc 1 570 7 view .LVU596
 1869 0016 0028     		cmp	r0, #0
 1870 0018 00F0CD80 		beq	.L120
 1871              	.LBB84:
 571:Middlewares/lvgl/src/core/lv_indev_scroll.c ****         /*If there is snapping in the current direction don't use the elastic factor because
 572:Middlewares/lvgl/src/core/lv_indev_scroll.c ****          *it's natural that the first and last items are scrolled (snapped) in.*/
 573:Middlewares/lvgl/src/core/lv_indev_scroll.c ****         lv_scroll_snap_t snap;
ARM GAS  /tmp/ccHFiCt0.s 			page 56


 1872              		.loc 1 573 9 is_stmt 1 view .LVU597
 574:Middlewares/lvgl/src/core/lv_indev_scroll.c ****         snap = dir == LV_DIR_HOR ? lv_obj_get_scroll_snap_x(scroll_obj) : lv_obj_get_scroll_snap_y(
 1873              		.loc 1 574 9 view .LVU598
 1874              		.loc 1 574 14 is_stmt 0 view .LVU599
 1875 001c B9F1030F 		cmp	r9, #3
 1876 0020 2AD0     		beq	.L147
 1877              		.loc 1 574 75 discriminator 2 view .LVU600
 1878 0022 2846     		mov	r0, r5
 1879 0024 FFF7FEFF 		bl	lv_obj_get_scroll_snap_y
 1880              	.LVL189:
 1881 0028 0746     		mov	r7, r0
 1882              	.L122:
 1883              	.LVL190:
 575:Middlewares/lvgl/src/core/lv_indev_scroll.c **** 
 576:Middlewares/lvgl/src/core/lv_indev_scroll.c ****         lv_obj_t * act_obj = lv_indev_get_obj_act();
 1884              		.loc 1 576 9 is_stmt 1 discriminator 4 view .LVU601
 1885              		.loc 1 576 30 is_stmt 0 discriminator 4 view .LVU602
 1886 002a FFF7FEFF 		bl	lv_indev_get_obj_act
 1887              	.LVL191:
 1888 002e 8246     		mov	r10, r0
 1889              	.LVL192:
 577:Middlewares/lvgl/src/core/lv_indev_scroll.c ****         lv_coord_t snap_point = 0;
 1890              		.loc 1 577 9 is_stmt 1 discriminator 4 view .LVU603
 578:Middlewares/lvgl/src/core/lv_indev_scroll.c ****         lv_coord_t act_obj_point = 0;
 1891              		.loc 1 578 9 discriminator 4 view .LVU604
 579:Middlewares/lvgl/src/core/lv_indev_scroll.c **** 
 580:Middlewares/lvgl/src/core/lv_indev_scroll.c ****         if(dir == LV_DIR_HOR) {
 1892              		.loc 1 580 9 discriminator 4 view .LVU605
 1893              		.loc 1 580 11 is_stmt 0 discriminator 4 view .LVU606
 1894 0030 B9F1030F 		cmp	r9, #3
 1895 0034 25D0     		beq	.L148
 1896              	.LBB85:
 581:Middlewares/lvgl/src/core/lv_indev_scroll.c ****             lv_coord_t pad_left = lv_obj_get_style_pad_left(scroll_obj, LV_PART_MAIN);
 582:Middlewares/lvgl/src/core/lv_indev_scroll.c ****             lv_coord_t pad_right = lv_obj_get_style_pad_right(scroll_obj, LV_PART_MAIN);
 583:Middlewares/lvgl/src/core/lv_indev_scroll.c **** 
 584:Middlewares/lvgl/src/core/lv_indev_scroll.c ****             switch(snap) {
 585:Middlewares/lvgl/src/core/lv_indev_scroll.c ****             case LV_SCROLL_SNAP_CENTER:
 586:Middlewares/lvgl/src/core/lv_indev_scroll.c ****                 snap_point = pad_left + (lv_area_get_width(&scroll_obj->coords) - pad_left - pad_ri
 587:Middlewares/lvgl/src/core/lv_indev_scroll.c ****                 act_obj_point = lv_area_get_width(&act_obj->coords) / 2 + act_obj->coords.x1;
 588:Middlewares/lvgl/src/core/lv_indev_scroll.c ****                 break;
 589:Middlewares/lvgl/src/core/lv_indev_scroll.c ****             case LV_SCROLL_SNAP_START:
 590:Middlewares/lvgl/src/core/lv_indev_scroll.c ****                 snap_point = scroll_obj->coords.x1 + pad_left;
 591:Middlewares/lvgl/src/core/lv_indev_scroll.c ****                 act_obj_point = act_obj->coords.x1;
 592:Middlewares/lvgl/src/core/lv_indev_scroll.c ****                 break;
 593:Middlewares/lvgl/src/core/lv_indev_scroll.c ****             case LV_SCROLL_SNAP_END:
 594:Middlewares/lvgl/src/core/lv_indev_scroll.c ****                 snap_point = scroll_obj->coords.x2 - pad_right;
 595:Middlewares/lvgl/src/core/lv_indev_scroll.c ****                 act_obj_point = act_obj->coords.x2;
 596:Middlewares/lvgl/src/core/lv_indev_scroll.c ****                 break;
 597:Middlewares/lvgl/src/core/lv_indev_scroll.c ****             }
 598:Middlewares/lvgl/src/core/lv_indev_scroll.c ****         } else {
 599:Middlewares/lvgl/src/core/lv_indev_scroll.c ****             lv_coord_t pad_top = lv_obj_get_style_pad_top(scroll_obj, LV_PART_MAIN);
 1897              		.loc 1 599 13 is_stmt 1 view .LVU607
 1898              	.LVL193:
 1899              	.LBB86:
 1900              	.LBI86:
  91:Middlewares/lvgl/src/core/lv_obj_style_gen.h **** {
 1901              		.loc 2 91 26 view .LVU608
ARM GAS  /tmp/ccHFiCt0.s 			page 57


 1902              	.LBB87:
  93:Middlewares/lvgl/src/core/lv_obj_style_gen.h ****     return (lv_coord_t)v.num;
 1903              		.loc 2 93 5 view .LVU609
  93:Middlewares/lvgl/src/core/lv_obj_style_gen.h ****     return (lv_coord_t)v.num;
 1904              		.loc 2 93 26 is_stmt 0 view .LVU610
 1905 0036 41F21002 		movw	r2, #4112
 1906 003a 0021     		movs	r1, #0
 1907 003c 2846     		mov	r0, r5
 1908              	.LVL194:
  93:Middlewares/lvgl/src/core/lv_obj_style_gen.h ****     return (lv_coord_t)v.num;
 1909              		.loc 2 93 26 view .LVU611
 1910 003e FFF7FEFF 		bl	lv_obj_get_style_prop
 1911              	.LVL195:
 1912 0042 8146     		mov	r9, r0
  94:Middlewares/lvgl/src/core/lv_obj_style_gen.h **** }
 1913              		.loc 2 94 5 is_stmt 1 view .LVU612
  94:Middlewares/lvgl/src/core/lv_obj_style_gen.h **** }
 1914              		.loc 2 94 12 is_stmt 0 view .LVU613
 1915 0044 0FFA80FB 		sxth	fp, r0
 1916              	.LVL196:
  94:Middlewares/lvgl/src/core/lv_obj_style_gen.h **** }
 1917              		.loc 2 94 12 view .LVU614
 1918              	.LBE87:
 1919              	.LBE86:
 600:Middlewares/lvgl/src/core/lv_indev_scroll.c ****             lv_coord_t pad_bottom = lv_obj_get_style_pad_bottom(scroll_obj, LV_PART_MAIN);
 1920              		.loc 1 600 13 is_stmt 1 view .LVU615
 1921              	.LBB88:
 1922              	.LBI88:
  97:Middlewares/lvgl/src/core/lv_obj_style_gen.h **** {
 1923              		.loc 2 97 26 view .LVU616
 1924              	.LBB89:
  99:Middlewares/lvgl/src/core/lv_obj_style_gen.h ****     return (lv_coord_t)v.num;
 1925              		.loc 2 99 5 view .LVU617
  99:Middlewares/lvgl/src/core/lv_obj_style_gen.h ****     return (lv_coord_t)v.num;
 1926              		.loc 2 99 26 is_stmt 0 view .LVU618
 1927 0048 41F21102 		movw	r2, #4113
 1928 004c 0021     		movs	r1, #0
 1929 004e 2846     		mov	r0, r5
 1930 0050 FFF7FEFF 		bl	lv_obj_get_style_prop
 1931              	.LVL197:
 100:Middlewares/lvgl/src/core/lv_obj_style_gen.h **** }
 1932              		.loc 2 100 5 is_stmt 1 view .LVU619
 100:Middlewares/lvgl/src/core/lv_obj_style_gen.h **** }
 1933              		.loc 2 100 12 is_stmt 0 view .LVU620
 1934 0054 0FFA80FC 		sxth	ip, r0
 1935              	.LVL198:
 100:Middlewares/lvgl/src/core/lv_obj_style_gen.h **** }
 1936              		.loc 2 100 12 view .LVU621
 1937              	.LBE89:
 1938              	.LBE88:
 601:Middlewares/lvgl/src/core/lv_indev_scroll.c **** 
 602:Middlewares/lvgl/src/core/lv_indev_scroll.c ****             switch(snap) {
 1939              		.loc 1 602 13 is_stmt 1 view .LVU622
 1940 0058 022F     		cmp	r7, #2
 1941 005a 7ED0     		beq	.L128
 1942 005c 032F     		cmp	r7, #3
 1943 005e 56D0     		beq	.L129
ARM GAS  /tmp/ccHFiCt0.s 			page 58


 1944 0060 012F     		cmp	r7, #1
 1945 0062 74D0     		beq	.L130
 1946 0064 0023     		movs	r3, #0
 1947 0066 1946     		mov	r1, r3
 1948              	.LVL199:
 1949              	.L127:
 1950              		.loc 1 602 13 is_stmt 0 view .LVU623
 1951              	.LBE85:
 603:Middlewares/lvgl/src/core/lv_indev_scroll.c ****             case LV_SCROLL_SNAP_CENTER:
 604:Middlewares/lvgl/src/core/lv_indev_scroll.c ****                 snap_point = pad_top + (lv_area_get_height(&scroll_obj->coords) - pad_top - pad_bot
 605:Middlewares/lvgl/src/core/lv_indev_scroll.c ****                 act_obj_point = lv_area_get_height(&act_obj->coords) / 2 + act_obj->coords.y1;
 606:Middlewares/lvgl/src/core/lv_indev_scroll.c ****                 break;
 607:Middlewares/lvgl/src/core/lv_indev_scroll.c ****             case LV_SCROLL_SNAP_START:
 608:Middlewares/lvgl/src/core/lv_indev_scroll.c ****                 snap_point = scroll_obj->coords.y1 + pad_top;
 609:Middlewares/lvgl/src/core/lv_indev_scroll.c ****                 act_obj_point = act_obj->coords.y1;
 610:Middlewares/lvgl/src/core/lv_indev_scroll.c ****                 break;
 611:Middlewares/lvgl/src/core/lv_indev_scroll.c ****             case LV_SCROLL_SNAP_END:
 612:Middlewares/lvgl/src/core/lv_indev_scroll.c ****                 snap_point = scroll_obj->coords.y2 - pad_bottom;
 613:Middlewares/lvgl/src/core/lv_indev_scroll.c ****                 act_obj_point = act_obj->coords.y2;
 614:Middlewares/lvgl/src/core/lv_indev_scroll.c ****                 break;
 615:Middlewares/lvgl/src/core/lv_indev_scroll.c ****             }
 616:Middlewares/lvgl/src/core/lv_indev_scroll.c ****         }
 617:Middlewares/lvgl/src/core/lv_indev_scroll.c **** 
 618:Middlewares/lvgl/src/core/lv_indev_scroll.c ****         if(scroll_end < 0) {
 1952              		.loc 1 618 9 is_stmt 1 view .LVU624
 1953              		.loc 1 618 11 is_stmt 0 view .LVU625
 1954 0068 002E     		cmp	r6, #0
 1955 006a 7CDB     		blt	.L149
 619:Middlewares/lvgl/src/core/lv_indev_scroll.c ****             if(snap != LV_SCROLL_SNAP_NONE && act_obj_point > snap_point) return diff;
 620:Middlewares/lvgl/src/core/lv_indev_scroll.c **** 
 621:Middlewares/lvgl/src/core/lv_indev_scroll.c ****             /*Rounding*/
 622:Middlewares/lvgl/src/core/lv_indev_scroll.c ****             if(diff < 0) diff -= ELASTIC_SLOWNESS_FACTOR / 2;
 623:Middlewares/lvgl/src/core/lv_indev_scroll.c ****             if(diff > 0) diff += ELASTIC_SLOWNESS_FACTOR / 2;
 624:Middlewares/lvgl/src/core/lv_indev_scroll.c ****             return diff / ELASTIC_SLOWNESS_FACTOR;
 625:Middlewares/lvgl/src/core/lv_indev_scroll.c ****         }
 626:Middlewares/lvgl/src/core/lv_indev_scroll.c ****         else if(scroll_start < 0) {
 1956              		.loc 1 626 14 is_stmt 1 view .LVU626
 1957              		.loc 1 626 16 is_stmt 0 view .LVU627
 1958 006c B8F1000F 		cmp	r8, #0
 1959 0070 C0F28D80 		blt	.L150
 1960 0074 2046     		mov	r0, r4
 1961 0076 A5E0     		b	.L133
 1962              	.LVL200:
 1963              	.L147:
 574:Middlewares/lvgl/src/core/lv_indev_scroll.c **** 
 1964              		.loc 1 574 36 discriminator 1 view .LVU628
 1965 0078 2846     		mov	r0, r5
 1966 007a FFF7FEFF 		bl	lv_obj_get_scroll_snap_x
 1967              	.LVL201:
 1968 007e 0746     		mov	r7, r0
 1969 0080 D3E7     		b	.L122
 1970              	.LVL202:
 1971              	.L148:
 1972              	.LBB94:
 581:Middlewares/lvgl/src/core/lv_indev_scroll.c ****             lv_coord_t pad_right = lv_obj_get_style_pad_right(scroll_obj, LV_PART_MAIN);
 1973              		.loc 1 581 13 is_stmt 1 view .LVU629
 1974              	.LBB95:
ARM GAS  /tmp/ccHFiCt0.s 			page 59


 1975              	.LBI95:
 103:Middlewares/lvgl/src/core/lv_obj_style_gen.h **** {
 1976              		.loc 2 103 26 view .LVU630
 1977              	.LBB96:
 105:Middlewares/lvgl/src/core/lv_obj_style_gen.h ****     return (lv_coord_t)v.num;
 1978              		.loc 2 105 5 view .LVU631
 105:Middlewares/lvgl/src/core/lv_obj_style_gen.h ****     return (lv_coord_t)v.num;
 1979              		.loc 2 105 26 is_stmt 0 view .LVU632
 1980 0082 41F21202 		movw	r2, #4114
 1981 0086 0021     		movs	r1, #0
 1982 0088 2846     		mov	r0, r5
 1983              	.LVL203:
 105:Middlewares/lvgl/src/core/lv_obj_style_gen.h ****     return (lv_coord_t)v.num;
 1984              		.loc 2 105 26 view .LVU633
 1985 008a FFF7FEFF 		bl	lv_obj_get_style_prop
 1986              	.LVL204:
 1987 008e 8146     		mov	r9, r0
 106:Middlewares/lvgl/src/core/lv_obj_style_gen.h **** }
 1988              		.loc 2 106 5 is_stmt 1 view .LVU634
 106:Middlewares/lvgl/src/core/lv_obj_style_gen.h **** }
 1989              		.loc 2 106 12 is_stmt 0 view .LVU635
 1990 0090 0FFA80FB 		sxth	fp, r0
 1991              	.LVL205:
 106:Middlewares/lvgl/src/core/lv_obj_style_gen.h **** }
 1992              		.loc 2 106 12 view .LVU636
 1993              	.LBE96:
 1994              	.LBE95:
 582:Middlewares/lvgl/src/core/lv_indev_scroll.c **** 
 1995              		.loc 1 582 13 is_stmt 1 view .LVU637
 1996              	.LBB97:
 1997              	.LBI97:
 109:Middlewares/lvgl/src/core/lv_obj_style_gen.h **** {
 1998              		.loc 2 109 26 view .LVU638
 1999              	.LBB98:
 111:Middlewares/lvgl/src/core/lv_obj_style_gen.h ****     return (lv_coord_t)v.num;
 2000              		.loc 2 111 5 view .LVU639
 111:Middlewares/lvgl/src/core/lv_obj_style_gen.h ****     return (lv_coord_t)v.num;
 2001              		.loc 2 111 26 is_stmt 0 view .LVU640
 2002 0094 41F21302 		movw	r2, #4115
 2003 0098 0021     		movs	r1, #0
 2004 009a 2846     		mov	r0, r5
 2005 009c FFF7FEFF 		bl	lv_obj_get_style_prop
 2006              	.LVL206:
 2007              		.loc 2 112 5 is_stmt 1 view .LVU641
 2008              		.loc 2 112 12 is_stmt 0 view .LVU642
 2009 00a0 0FFA80FC 		sxth	ip, r0
 2010              	.LVL207:
 2011              		.loc 2 112 12 view .LVU643
 2012              	.LBE98:
 2013              	.LBE97:
 584:Middlewares/lvgl/src/core/lv_indev_scroll.c ****             case LV_SCROLL_SNAP_CENTER:
 2014              		.loc 1 584 13 is_stmt 1 view .LVU644
 2015 00a4 022F     		cmp	r7, #2
 2016 00a6 2CD0     		beq	.L124
 2017 00a8 032F     		cmp	r7, #3
 2018 00aa 04D0     		beq	.L125
 2019 00ac 012F     		cmp	r7, #1
ARM GAS  /tmp/ccHFiCt0.s 			page 60


 2020 00ae 22D0     		beq	.L126
 2021 00b0 0023     		movs	r3, #0
 2022 00b2 1946     		mov	r1, r3
 2023 00b4 D8E7     		b	.L127
 2024              	.L125:
 586:Middlewares/lvgl/src/core/lv_indev_scroll.c ****                 act_obj_point = lv_area_get_width(&act_obj->coords) / 2 + act_obj->coords.x1;
 2025              		.loc 1 586 17 view .LVU645
 2026              	.LVL208:
 2027              	.LBB99:
 2028              	.LBI99:
 133:Middlewares/lvgl/src/core/../misc/../font/../misc/lv_area.h **** {
 2029              		.loc 3 133 26 view .LVU646
 2030              	.LBB100:
 135:Middlewares/lvgl/src/core/../misc/../font/../misc/lv_area.h **** }
 2031              		.loc 3 135 5 view .LVU647
 135:Middlewares/lvgl/src/core/../misc/../font/../misc/lv_area.h **** }
 2032              		.loc 3 135 31 is_stmt 0 view .LVU648
 2033 00b6 2B8B     		ldrh	r3, [r5, #24]
 135:Middlewares/lvgl/src/core/../misc/../font/../misc/lv_area.h **** }
 2034              		.loc 3 135 44 view .LVU649
 2035 00b8 AA8A     		ldrh	r2, [r5, #20]
 135:Middlewares/lvgl/src/core/../misc/../font/../misc/lv_area.h **** }
 2036              		.loc 3 135 36 view .LVU650
 2037 00ba 9B1A     		subs	r3, r3, r2
 2038 00bc 9BB2     		uxth	r3, r3
 135:Middlewares/lvgl/src/core/../misc/../font/../misc/lv_area.h **** }
 2039              		.loc 3 135 49 view .LVU651
 2040 00be 0133     		adds	r3, r3, #1
 135:Middlewares/lvgl/src/core/../misc/../font/../misc/lv_area.h **** }
 2041              		.loc 3 135 12 view .LVU652
 2042 00c0 1BB2     		sxth	r3, r3
 2043              	.LVL209:
 135:Middlewares/lvgl/src/core/../misc/../font/../misc/lv_area.h **** }
 2044              		.loc 3 135 12 view .LVU653
 2045              	.LBE100:
 2046              	.LBE99:
 586:Middlewares/lvgl/src/core/lv_indev_scroll.c ****                 act_obj_point = lv_area_get_width(&act_obj->coords) / 2 + act_obj->coords.x1;
 2047              		.loc 1 586 81 view .LVU654
 2048 00c2 A3EB0B03 		sub	r3, r3, fp
 586:Middlewares/lvgl/src/core/lv_indev_scroll.c ****                 act_obj_point = lv_area_get_width(&act_obj->coords) / 2 + act_obj->coords.x1;
 2049              		.loc 1 586 92 view .LVU655
 2050 00c6 A3EB0C03 		sub	r3, r3, ip
 586:Middlewares/lvgl/src/core/lv_indev_scroll.c ****                 act_obj_point = lv_area_get_width(&act_obj->coords) / 2 + act_obj->coords.x1;
 2051              		.loc 1 586 105 view .LVU656
 2052 00ca 03EBD373 		add	r3, r3, r3, lsr #31
 586:Middlewares/lvgl/src/core/lv_indev_scroll.c ****                 act_obj_point = lv_area_get_width(&act_obj->coords) / 2 + act_obj->coords.x1;
 2053              		.loc 1 586 39 view .LVU657
 2054 00ce 09EB6301 		add	r1, r9, r3, asr #1
 2055 00d2 89B2     		uxth	r1, r1
 586:Middlewares/lvgl/src/core/lv_indev_scroll.c ****                 act_obj_point = lv_area_get_width(&act_obj->coords) / 2 + act_obj->coords.x1;
 2056              		.loc 1 586 109 view .LVU658
 2057 00d4 1144     		add	r1, r1, r2
 586:Middlewares/lvgl/src/core/lv_indev_scroll.c ****                 act_obj_point = lv_area_get_width(&act_obj->coords) / 2 + act_obj->coords.x1;
 2058              		.loc 1 586 28 view .LVU659
 2059 00d6 09B2     		sxth	r1, r1
 2060              	.LVL210:
 587:Middlewares/lvgl/src/core/lv_indev_scroll.c ****                 break;
ARM GAS  /tmp/ccHFiCt0.s 			page 61


 2061              		.loc 1 587 17 is_stmt 1 view .LVU660
 2062              	.LBB101:
 2063              	.LBI101:
 133:Middlewares/lvgl/src/core/../misc/../font/../misc/lv_area.h **** {
 2064              		.loc 3 133 26 view .LVU661
 2065              	.LBB102:
 135:Middlewares/lvgl/src/core/../misc/../font/../misc/lv_area.h **** }
 2066              		.loc 3 135 5 view .LVU662
 135:Middlewares/lvgl/src/core/../misc/../font/../misc/lv_area.h **** }
 2067              		.loc 3 135 31 is_stmt 0 view .LVU663
 2068 00d8 BAF81820 		ldrh	r2, [r10, #24]
 135:Middlewares/lvgl/src/core/../misc/../font/../misc/lv_area.h **** }
 2069              		.loc 3 135 44 view .LVU664
 2070 00dc BAF81430 		ldrh	r3, [r10, #20]
 135:Middlewares/lvgl/src/core/../misc/../font/../misc/lv_area.h **** }
 2071              		.loc 3 135 36 view .LVU665
 2072 00e0 D21A     		subs	r2, r2, r3
 2073 00e2 92B2     		uxth	r2, r2
 135:Middlewares/lvgl/src/core/../misc/../font/../misc/lv_area.h **** }
 2074              		.loc 3 135 49 view .LVU666
 2075 00e4 0132     		adds	r2, r2, #1
 135:Middlewares/lvgl/src/core/../misc/../font/../misc/lv_area.h **** }
 2076              		.loc 3 135 12 view .LVU667
 2077 00e6 10B2     		sxth	r0, r2
 2078              	.LVL211:
 135:Middlewares/lvgl/src/core/../misc/../font/../misc/lv_area.h **** }
 2079              		.loc 3 135 12 view .LVU668
 2080              	.LBE102:
 2081              	.LBE101:
 587:Middlewares/lvgl/src/core/lv_indev_scroll.c ****                 break;
 2082              		.loc 1 587 73 view .LVU669
 2083 00e8 C2F3C032 		ubfx	r2, r2, #15, #1
 2084 00ec 0244     		add	r2, r2, r0
 2085 00ee 03EB6203 		add	r3, r3, r2, asr #1
 587:Middlewares/lvgl/src/core/lv_indev_scroll.c ****                 break;
 2086              		.loc 1 587 31 view .LVU670
 2087 00f2 1BB2     		sxth	r3, r3
 2088              	.LVL212:
 588:Middlewares/lvgl/src/core/lv_indev_scroll.c ****             case LV_SCROLL_SNAP_START:
 2089              		.loc 1 588 17 is_stmt 1 view .LVU671
 2090 00f4 B8E7     		b	.L127
 2091              	.LVL213:
 2092              	.L126:
 590:Middlewares/lvgl/src/core/lv_indev_scroll.c ****                 act_obj_point = act_obj->coords.x1;
 2093              		.loc 1 590 17 view .LVU672
 590:Middlewares/lvgl/src/core/lv_indev_scroll.c ****                 act_obj_point = act_obj->coords.x1;
 2094              		.loc 1 590 48 is_stmt 0 view .LVU673
 2095 00f6 A98A     		ldrh	r1, [r5, #20]
 590:Middlewares/lvgl/src/core/lv_indev_scroll.c ****                 act_obj_point = act_obj->coords.x1;
 2096              		.loc 1 590 52 view .LVU674
 2097 00f8 4944     		add	r1, r1, r9
 590:Middlewares/lvgl/src/core/lv_indev_scroll.c ****                 act_obj_point = act_obj->coords.x1;
 2098              		.loc 1 590 28 view .LVU675
 2099 00fa 09B2     		sxth	r1, r1
 2100              	.LVL214:
 591:Middlewares/lvgl/src/core/lv_indev_scroll.c ****                 break;
 2101              		.loc 1 591 17 is_stmt 1 view .LVU676
ARM GAS  /tmp/ccHFiCt0.s 			page 62


 591:Middlewares/lvgl/src/core/lv_indev_scroll.c ****                 break;
 2102              		.loc 1 591 31 is_stmt 0 view .LVU677
 2103 00fc BAF91430 		ldrsh	r3, [r10, #20]
 2104              	.LVL215:
 592:Middlewares/lvgl/src/core/lv_indev_scroll.c ****             case LV_SCROLL_SNAP_END:
 2105              		.loc 1 592 17 is_stmt 1 view .LVU678
 2106 0100 B2E7     		b	.L127
 2107              	.LVL216:
 2108              	.L124:
 594:Middlewares/lvgl/src/core/lv_indev_scroll.c ****                 act_obj_point = act_obj->coords.x2;
 2109              		.loc 1 594 17 view .LVU679
 594:Middlewares/lvgl/src/core/lv_indev_scroll.c ****                 act_obj_point = act_obj->coords.x2;
 2110              		.loc 1 594 48 is_stmt 0 view .LVU680
 2111 0102 298B     		ldrh	r1, [r5, #24]
 594:Middlewares/lvgl/src/core/lv_indev_scroll.c ****                 act_obj_point = act_obj->coords.x2;
 2112              		.loc 1 594 52 view .LVU681
 2113 0104 091A     		subs	r1, r1, r0
 594:Middlewares/lvgl/src/core/lv_indev_scroll.c ****                 act_obj_point = act_obj->coords.x2;
 2114              		.loc 1 594 28 view .LVU682
 2115 0106 09B2     		sxth	r1, r1
 2116              	.LVL217:
 595:Middlewares/lvgl/src/core/lv_indev_scroll.c ****                 break;
 2117              		.loc 1 595 17 is_stmt 1 view .LVU683
 595:Middlewares/lvgl/src/core/lv_indev_scroll.c ****                 break;
 2118              		.loc 1 595 31 is_stmt 0 view .LVU684
 2119 0108 BAF91830 		ldrsh	r3, [r10, #24]
 2120              	.LVL218:
 596:Middlewares/lvgl/src/core/lv_indev_scroll.c ****             }
 2121              		.loc 1 596 17 is_stmt 1 view .LVU685
 2122 010c ACE7     		b	.L127
 2123              	.LVL219:
 2124              	.L129:
 596:Middlewares/lvgl/src/core/lv_indev_scroll.c ****             }
 2125              		.loc 1 596 17 is_stmt 0 view .LVU686
 2126              	.LBE94:
 2127              	.LBB103:
 604:Middlewares/lvgl/src/core/lv_indev_scroll.c ****                 act_obj_point = lv_area_get_height(&act_obj->coords) / 2 + act_obj->coords.y1;
 2128              		.loc 1 604 17 is_stmt 1 view .LVU687
 2129              	.LBB90:
 2130              	.LBI90:
 143:Middlewares/lvgl/src/core/../misc/../font/../misc/lv_area.h **** {
 2131              		.loc 3 143 26 view .LVU688
 2132              	.LBB91:
 2133              		.loc 3 145 5 view .LVU689
 2134              		.loc 3 145 31 is_stmt 0 view .LVU690
 2135 010e 6B8B     		ldrh	r3, [r5, #26]
 2136              		.loc 3 145 44 view .LVU691
 2137 0110 EA8A     		ldrh	r2, [r5, #22]
 2138              		.loc 3 145 36 view .LVU692
 2139 0112 9B1A     		subs	r3, r3, r2
 2140 0114 9BB2     		uxth	r3, r3
 2141              		.loc 3 145 49 view .LVU693
 2142 0116 0133     		adds	r3, r3, #1
 2143              		.loc 3 145 12 view .LVU694
 2144 0118 1BB2     		sxth	r3, r3
 2145              	.LVL220:
 2146              		.loc 3 145 12 view .LVU695
ARM GAS  /tmp/ccHFiCt0.s 			page 63


 2147              	.LBE91:
 2148              	.LBE90:
 604:Middlewares/lvgl/src/core/lv_indev_scroll.c ****                 act_obj_point = lv_area_get_height(&act_obj->coords) / 2 + act_obj->coords.y1;
 2149              		.loc 1 604 81 view .LVU696
 2150 011a A3EB0B03 		sub	r3, r3, fp
 604:Middlewares/lvgl/src/core/lv_indev_scroll.c ****                 act_obj_point = lv_area_get_height(&act_obj->coords) / 2 + act_obj->coords.y1;
 2151              		.loc 1 604 91 view .LVU697
 2152 011e A3EB0C03 		sub	r3, r3, ip
 604:Middlewares/lvgl/src/core/lv_indev_scroll.c ****                 act_obj_point = lv_area_get_height(&act_obj->coords) / 2 + act_obj->coords.y1;
 2153              		.loc 1 604 105 view .LVU698
 2154 0122 03EBD371 		add	r1, r3, r3, lsr #31
 604:Middlewares/lvgl/src/core/lv_indev_scroll.c ****                 act_obj_point = lv_area_get_height(&act_obj->coords) / 2 + act_obj->coords.y1;
 2155              		.loc 1 604 38 view .LVU699
 2156 0126 09EB6101 		add	r1, r9, r1, asr #1
 2157 012a 89B2     		uxth	r1, r1
 604:Middlewares/lvgl/src/core/lv_indev_scroll.c ****                 act_obj_point = lv_area_get_height(&act_obj->coords) / 2 + act_obj->coords.y1;
 2158              		.loc 1 604 109 view .LVU700
 2159 012c 1144     		add	r1, r1, r2
 604:Middlewares/lvgl/src/core/lv_indev_scroll.c ****                 act_obj_point = lv_area_get_height(&act_obj->coords) / 2 + act_obj->coords.y1;
 2160              		.loc 1 604 28 view .LVU701
 2161 012e 09B2     		sxth	r1, r1
 2162              	.LVL221:
 605:Middlewares/lvgl/src/core/lv_indev_scroll.c ****                 break;
 2163              		.loc 1 605 17 is_stmt 1 view .LVU702
 2164              	.LBB92:
 2165              	.LBI92:
 143:Middlewares/lvgl/src/core/../misc/../font/../misc/lv_area.h **** {
 2166              		.loc 3 143 26 view .LVU703
 2167              	.LBB93:
 2168              		.loc 3 145 5 view .LVU704
 2169              		.loc 3 145 31 is_stmt 0 view .LVU705
 2170 0130 BAF81A20 		ldrh	r2, [r10, #26]
 2171              		.loc 3 145 44 view .LVU706
 2172 0134 BAF81630 		ldrh	r3, [r10, #22]
 2173              		.loc 3 145 36 view .LVU707
 2174 0138 D21A     		subs	r2, r2, r3
 2175 013a 92B2     		uxth	r2, r2
 2176              		.loc 3 145 49 view .LVU708
 2177 013c 0132     		adds	r2, r2, #1
 2178              		.loc 3 145 12 view .LVU709
 2179 013e 10B2     		sxth	r0, r2
 2180              	.LVL222:
 2181              		.loc 3 145 12 view .LVU710
 2182              	.LBE93:
 2183              	.LBE92:
 605:Middlewares/lvgl/src/core/lv_indev_scroll.c ****                 break;
 2184              		.loc 1 605 74 view .LVU711
 2185 0140 C2F3C032 		ubfx	r2, r2, #15, #1
 2186 0144 0244     		add	r2, r2, r0
 2187 0146 03EB6203 		add	r3, r3, r2, asr #1
 605:Middlewares/lvgl/src/core/lv_indev_scroll.c ****                 break;
 2188              		.loc 1 605 31 view .LVU712
 2189 014a 1BB2     		sxth	r3, r3
 2190              	.LVL223:
 606:Middlewares/lvgl/src/core/lv_indev_scroll.c ****             case LV_SCROLL_SNAP_START:
 2191              		.loc 1 606 17 is_stmt 1 view .LVU713
 2192 014c 8CE7     		b	.L127
ARM GAS  /tmp/ccHFiCt0.s 			page 64


 2193              	.LVL224:
 2194              	.L130:
 608:Middlewares/lvgl/src/core/lv_indev_scroll.c ****                 act_obj_point = act_obj->coords.y1;
 2195              		.loc 1 608 17 view .LVU714
 608:Middlewares/lvgl/src/core/lv_indev_scroll.c ****                 act_obj_point = act_obj->coords.y1;
 2196              		.loc 1 608 48 is_stmt 0 view .LVU715
 2197 014e E98A     		ldrh	r1, [r5, #22]
 608:Middlewares/lvgl/src/core/lv_indev_scroll.c ****                 act_obj_point = act_obj->coords.y1;
 2198              		.loc 1 608 52 view .LVU716
 2199 0150 4944     		add	r1, r1, r9
 608:Middlewares/lvgl/src/core/lv_indev_scroll.c ****                 act_obj_point = act_obj->coords.y1;
 2200              		.loc 1 608 28 view .LVU717
 2201 0152 09B2     		sxth	r1, r1
 2202              	.LVL225:
 609:Middlewares/lvgl/src/core/lv_indev_scroll.c ****                 break;
 2203              		.loc 1 609 17 is_stmt 1 view .LVU718
 609:Middlewares/lvgl/src/core/lv_indev_scroll.c ****                 break;
 2204              		.loc 1 609 31 is_stmt 0 view .LVU719
 2205 0154 BAF91630 		ldrsh	r3, [r10, #22]
 2206              	.LVL226:
 610:Middlewares/lvgl/src/core/lv_indev_scroll.c ****             case LV_SCROLL_SNAP_END:
 2207              		.loc 1 610 17 is_stmt 1 view .LVU720
 2208 0158 86E7     		b	.L127
 2209              	.LVL227:
 2210              	.L128:
 612:Middlewares/lvgl/src/core/lv_indev_scroll.c ****                 act_obj_point = act_obj->coords.y2;
 2211              		.loc 1 612 17 view .LVU721
 612:Middlewares/lvgl/src/core/lv_indev_scroll.c ****                 act_obj_point = act_obj->coords.y2;
 2212              		.loc 1 612 48 is_stmt 0 view .LVU722
 2213 015a 698B     		ldrh	r1, [r5, #26]
 612:Middlewares/lvgl/src/core/lv_indev_scroll.c ****                 act_obj_point = act_obj->coords.y2;
 2214              		.loc 1 612 52 view .LVU723
 2215 015c 081A     		subs	r0, r1, r0
 612:Middlewares/lvgl/src/core/lv_indev_scroll.c ****                 act_obj_point = act_obj->coords.y2;
 2216              		.loc 1 612 28 view .LVU724
 2217 015e 01B2     		sxth	r1, r0
 2218              	.LVL228:
 613:Middlewares/lvgl/src/core/lv_indev_scroll.c ****                 break;
 2219              		.loc 1 613 17 is_stmt 1 view .LVU725
 613:Middlewares/lvgl/src/core/lv_indev_scroll.c ****                 break;
 2220              		.loc 1 613 31 is_stmt 0 view .LVU726
 2221 0160 BAF91A30 		ldrsh	r3, [r10, #26]
 2222              	.LVL229:
 614:Middlewares/lvgl/src/core/lv_indev_scroll.c ****             }
 2223              		.loc 1 614 17 is_stmt 1 view .LVU727
 2224 0164 80E7     		b	.L127
 2225              	.LVL230:
 2226              	.L149:
 614:Middlewares/lvgl/src/core/lv_indev_scroll.c ****             }
 2227              		.loc 1 614 17 is_stmt 0 view .LVU728
 2228              	.LBE103:
 619:Middlewares/lvgl/src/core/lv_indev_scroll.c **** 
 2229              		.loc 1 619 13 is_stmt 1 view .LVU729
 619:Middlewares/lvgl/src/core/lv_indev_scroll.c **** 
 2230              		.loc 1 619 15 is_stmt 0 view .LVU730
 2231 0166 0FB1     		cbz	r7, .L132
 619:Middlewares/lvgl/src/core/lv_indev_scroll.c **** 
ARM GAS  /tmp/ccHFiCt0.s 			page 65


 2232              		.loc 1 619 44 discriminator 1 view .LVU731
 2233 0168 9942     		cmp	r1, r3
 2234 016a 30DB     		blt	.L142
 2235              	.L132:
 622:Middlewares/lvgl/src/core/lv_indev_scroll.c ****             if(diff > 0) diff += ELASTIC_SLOWNESS_FACTOR / 2;
 2236              		.loc 1 622 13 is_stmt 1 view .LVU732
 622:Middlewares/lvgl/src/core/lv_indev_scroll.c ****             if(diff > 0) diff += ELASTIC_SLOWNESS_FACTOR / 2;
 2237              		.loc 1 622 15 is_stmt 0 view .LVU733
 2238 016c 002C     		cmp	r4, #0
 2239 016e 09DB     		blt	.L151
 2240              	.LVL231:
 2241              	.L134:
 623:Middlewares/lvgl/src/core/lv_indev_scroll.c ****             return diff / ELASTIC_SLOWNESS_FACTOR;
 2242              		.loc 1 623 13 is_stmt 1 view .LVU734
 623:Middlewares/lvgl/src/core/lv_indev_scroll.c ****             return diff / ELASTIC_SLOWNESS_FACTOR;
 2243              		.loc 1 623 15 is_stmt 0 view .LVU735
 2244 0170 002C     		cmp	r4, #0
 2245 0172 01DD     		ble	.L135
 623:Middlewares/lvgl/src/core/lv_indev_scroll.c ****             return diff / ELASTIC_SLOWNESS_FACTOR;
 2246              		.loc 1 623 26 is_stmt 1 discriminator 1 view .LVU736
 623:Middlewares/lvgl/src/core/lv_indev_scroll.c ****             return diff / ELASTIC_SLOWNESS_FACTOR;
 2247              		.loc 1 623 31 is_stmt 0 discriminator 1 view .LVU737
 2248 0174 A01C     		adds	r0, r4, #2
 2249 0176 04B2     		sxth	r4, r0
 2250              	.LVL232:
 2251              	.L135:
 624:Middlewares/lvgl/src/core/lv_indev_scroll.c ****         }
 2252              		.loc 1 624 13 is_stmt 1 view .LVU738
 624:Middlewares/lvgl/src/core/lv_indev_scroll.c ****         }
 2253              		.loc 1 624 25 is_stmt 0 view .LVU739
 2254 0178 2046     		mov	r0, r4
 2255 017a 002C     		cmp	r4, #0
 2256 017c 05DB     		blt	.L152
 2257              	.L136:
 624:Middlewares/lvgl/src/core/lv_indev_scroll.c ****         }
 2258              		.loc 1 624 25 view .LVU740
 2259 017e 40F38F00 		sbfx	r0, r0, #2, #16
 2260 0182 1FE0     		b	.L133
 2261              	.LVL233:
 2262              	.L151:
 622:Middlewares/lvgl/src/core/lv_indev_scroll.c ****             if(diff > 0) diff += ELASTIC_SLOWNESS_FACTOR / 2;
 2263              		.loc 1 622 26 is_stmt 1 discriminator 1 view .LVU741
 622:Middlewares/lvgl/src/core/lv_indev_scroll.c ****             if(diff > 0) diff += ELASTIC_SLOWNESS_FACTOR / 2;
 2264              		.loc 1 622 31 is_stmt 0 discriminator 1 view .LVU742
 2265 0184 A01E     		subs	r0, r4, #2
 2266 0186 04B2     		sxth	r4, r0
 2267              	.LVL234:
 622:Middlewares/lvgl/src/core/lv_indev_scroll.c ****             if(diff > 0) diff += ELASTIC_SLOWNESS_FACTOR / 2;
 2268              		.loc 1 622 31 discriminator 1 view .LVU743
 2269 0188 F2E7     		b	.L134
 2270              	.L152:
 624:Middlewares/lvgl/src/core/lv_indev_scroll.c ****         }
 2271              		.loc 1 624 25 view .LVU744
 2272 018a E01C     		adds	r0, r4, #3
 2273 018c F7E7     		b	.L136
 2274              	.LVL235:
 2275              	.L150:
ARM GAS  /tmp/ccHFiCt0.s 			page 66


 627:Middlewares/lvgl/src/core/lv_indev_scroll.c ****             if(snap != LV_SCROLL_SNAP_NONE && act_obj_point < snap_point) return diff;
 2276              		.loc 1 627 13 is_stmt 1 view .LVU745
 2277              		.loc 1 627 15 is_stmt 0 view .LVU746
 2278 018e 0FB1     		cbz	r7, .L137
 2279              		.loc 1 627 44 discriminator 1 view .LVU747
 2280 0190 9942     		cmp	r1, r3
 2281 0192 1EDC     		bgt	.L144
 2282              	.L137:
 628:Middlewares/lvgl/src/core/lv_indev_scroll.c **** 
 629:Middlewares/lvgl/src/core/lv_indev_scroll.c ****             /*Rounding*/
 630:Middlewares/lvgl/src/core/lv_indev_scroll.c ****             if(diff < 0) diff -= ELASTIC_SLOWNESS_FACTOR / 2;
 2283              		.loc 1 630 13 is_stmt 1 view .LVU748
 2284              		.loc 1 630 15 is_stmt 0 view .LVU749
 2285 0194 002C     		cmp	r4, #0
 2286 0196 09DB     		blt	.L153
 2287              	.LVL236:
 2288              	.L138:
 631:Middlewares/lvgl/src/core/lv_indev_scroll.c ****             if(diff > 0) diff += ELASTIC_SLOWNESS_FACTOR / 2;
 2289              		.loc 1 631 13 is_stmt 1 view .LVU750
 2290              		.loc 1 631 15 is_stmt 0 view .LVU751
 2291 0198 002C     		cmp	r4, #0
 2292 019a 01DD     		ble	.L139
 2293              		.loc 1 631 26 is_stmt 1 discriminator 1 view .LVU752
 2294              		.loc 1 631 31 is_stmt 0 discriminator 1 view .LVU753
 2295 019c A01C     		adds	r0, r4, #2
 2296 019e 04B2     		sxth	r4, r0
 2297              	.LVL237:
 2298              	.L139:
 632:Middlewares/lvgl/src/core/lv_indev_scroll.c ****             return diff / ELASTIC_SLOWNESS_FACTOR;
 2299              		.loc 1 632 13 is_stmt 1 view .LVU754
 2300              		.loc 1 632 25 is_stmt 0 view .LVU755
 2301 01a0 2046     		mov	r0, r4
 2302 01a2 002C     		cmp	r4, #0
 2303 01a4 05DB     		blt	.L154
 2304              	.L140:
 2305              		.loc 1 632 25 view .LVU756
 2306 01a6 40F38F00 		sbfx	r0, r0, #2, #16
 2307 01aa 0BE0     		b	.L133
 2308              	.LVL238:
 2309              	.L153:
 630:Middlewares/lvgl/src/core/lv_indev_scroll.c ****             if(diff > 0) diff += ELASTIC_SLOWNESS_FACTOR / 2;
 2310              		.loc 1 630 26 is_stmt 1 discriminator 1 view .LVU757
 630:Middlewares/lvgl/src/core/lv_indev_scroll.c ****             if(diff > 0) diff += ELASTIC_SLOWNESS_FACTOR / 2;
 2311              		.loc 1 630 31 is_stmt 0 discriminator 1 view .LVU758
 2312 01ac A01E     		subs	r0, r4, #2
 2313 01ae 04B2     		sxth	r4, r0
 2314              	.LVL239:
 630:Middlewares/lvgl/src/core/lv_indev_scroll.c ****             if(diff > 0) diff += ELASTIC_SLOWNESS_FACTOR / 2;
 2315              		.loc 1 630 31 discriminator 1 view .LVU759
 2316 01b0 F2E7     		b	.L138
 2317              	.L154:
 2318              		.loc 1 632 25 view .LVU760
 2319 01b2 E01C     		adds	r0, r4, #3
 2320 01b4 F7E7     		b	.L140
 2321              	.LVL240:
 2322              	.L120:
 2323              		.loc 1 632 25 view .LVU761
ARM GAS  /tmp/ccHFiCt0.s 			page 67


 2324              	.LBE84:
 633:Middlewares/lvgl/src/core/lv_indev_scroll.c ****         }
 634:Middlewares/lvgl/src/core/lv_indev_scroll.c ****     } else {
 635:Middlewares/lvgl/src/core/lv_indev_scroll.c ****         /*Scroll back to the boundary if required*/
 636:Middlewares/lvgl/src/core/lv_indev_scroll.c ****         if(scroll_end + diff < 0) diff = - scroll_end;
 2325              		.loc 1 636 9 is_stmt 1 view .LVU762
 2326              		.loc 1 636 11 is_stmt 0 view .LVU763
 2327 01b6 E642     		cmn	r6, r4
 2328 01b8 06D4     		bmi	.L155
 2329              	.LVL241:
 2330              	.L141:
 637:Middlewares/lvgl/src/core/lv_indev_scroll.c ****         if(scroll_start - diff < 0) diff = scroll_start;
 2331              		.loc 1 637 9 is_stmt 1 view .LVU764
 2332              		.loc 1 637 25 is_stmt 0 view .LVU765
 2333 01ba A8EB0403 		sub	r3, r8, r4
 2334              		.loc 1 637 11 view .LVU766
 2335 01be 002B     		cmp	r3, #0
 2336 01c0 09DB     		blt	.L145
 2337 01c2 2046     		mov	r0, r4
 2338              	.LVL242:
 2339              	.L133:
 638:Middlewares/lvgl/src/core/lv_indev_scroll.c ****     }
 639:Middlewares/lvgl/src/core/lv_indev_scroll.c **** 
 640:Middlewares/lvgl/src/core/lv_indev_scroll.c ****     return diff;
 641:Middlewares/lvgl/src/core/lv_indev_scroll.c **** }
 2340              		.loc 1 641 1 view .LVU767
 2341 01c4 BDE8F88F 		pop	{r3, r4, r5, r6, r7, r8, r9, r10, fp, pc}
 2342              	.LVL243:
 2343              	.L155:
 636:Middlewares/lvgl/src/core/lv_indev_scroll.c ****         if(scroll_start - diff < 0) diff = scroll_start;
 2344              		.loc 1 636 35 is_stmt 1 discriminator 1 view .LVU768
 636:Middlewares/lvgl/src/core/lv_indev_scroll.c ****         if(scroll_start - diff < 0) diff = scroll_start;
 2345              		.loc 1 636 40 is_stmt 0 discriminator 1 view .LVU769
 2346 01c8 7642     		rsbs	r6, r6, #0
 2347 01ca 34B2     		sxth	r4, r6
 2348              	.LVL244:
 636:Middlewares/lvgl/src/core/lv_indev_scroll.c ****         if(scroll_start - diff < 0) diff = scroll_start;
 2349              		.loc 1 636 40 discriminator 1 view .LVU770
 2350 01cc F5E7     		b	.L141
 2351              	.LVL245:
 2352              	.L142:
 2353              	.LBB104:
 619:Middlewares/lvgl/src/core/lv_indev_scroll.c **** 
 2354              		.loc 1 619 82 view .LVU771
 2355 01ce 2046     		mov	r0, r4
 2356 01d0 F8E7     		b	.L133
 2357              	.L144:
 627:Middlewares/lvgl/src/core/lv_indev_scroll.c **** 
 2358              		.loc 1 627 82 view .LVU772
 2359 01d2 2046     		mov	r0, r4
 2360 01d4 F6E7     		b	.L133
 2361              	.LVL246:
 2362              	.L145:
 627:Middlewares/lvgl/src/core/lv_indev_scroll.c **** 
 2363              		.loc 1 627 82 view .LVU773
 2364              	.LBE104:
 637:Middlewares/lvgl/src/core/lv_indev_scroll.c ****     }
ARM GAS  /tmp/ccHFiCt0.s 			page 68


 2365              		.loc 1 637 42 view .LVU774
 2366 01d6 4046     		mov	r0, r8
 2367 01d8 F4E7     		b	.L133
 2368              		.cfi_endproc
 2369              	.LFE158:
 2371              		.section	.text._lv_indev_scroll_handler,"ax",%progbits
 2372              		.align	1
 2373              		.global	_lv_indev_scroll_handler
 2374              		.syntax unified
 2375              		.thumb
 2376              		.thumb_func
 2377              		.fpu softvfp
 2379              	_lv_indev_scroll_handler:
 2380              	.LVL247:
 2381              	.LFB147:
  46:Middlewares/lvgl/src/core/lv_indev_scroll.c ****     lv_obj_t * scroll_obj = proc->types.pointer.scroll_obj;
 2382              		.loc 1 46 1 is_stmt 1 view -0
 2383              		.cfi_startproc
 2384              		@ args = 0, pretend = 0, frame = 8
 2385              		@ frame_needed = 0, uses_anonymous_args = 0
  46:Middlewares/lvgl/src/core/lv_indev_scroll.c ****     lv_obj_t * scroll_obj = proc->types.pointer.scroll_obj;
 2386              		.loc 1 46 1 is_stmt 0 view .LVU776
 2387 0000 70B5     		push	{r4, r5, r6, lr}
 2388              	.LCFI20:
 2389              		.cfi_def_cfa_offset 16
 2390              		.cfi_offset 4, -16
 2391              		.cfi_offset 5, -12
 2392              		.cfi_offset 6, -8
 2393              		.cfi_offset 14, -4
 2394 0002 84B0     		sub	sp, sp, #16
 2395              	.LCFI21:
 2396              		.cfi_def_cfa_offset 32
 2397 0004 0446     		mov	r4, r0
  47:Middlewares/lvgl/src/core/lv_indev_scroll.c ****     /*If there is no scroll object yet try to find one*/
 2398              		.loc 1 47 5 is_stmt 1 view .LVU777
  47:Middlewares/lvgl/src/core/lv_indev_scroll.c ****     /*If there is no scroll object yet try to find one*/
 2399              		.loc 1 47 16 is_stmt 0 view .LVU778
 2400 0006 856A     		ldr	r5, [r0, #40]
 2401              	.LVL248:
  49:Middlewares/lvgl/src/core/lv_indev_scroll.c ****         proc->types.pointer.scroll_sum.x += proc->types.pointer.vect.x;
 2402              		.loc 1 49 5 is_stmt 1 view .LVU779
  49:Middlewares/lvgl/src/core/lv_indev_scroll.c ****         proc->types.pointer.scroll_sum.x += proc->types.pointer.vect.x;
 2403              		.loc 1 49 7 is_stmt 0 view .LVU780
 2404 0008 002D     		cmp	r5, #0
 2405 000a 5ED0     		beq	.L166
 2406              	.LVL249:
 2407              	.L157:
  63:Middlewares/lvgl/src/core/lv_indev_scroll.c ****         lv_coord_t diff_x = 0;
 2408              		.loc 1 63 5 is_stmt 1 view .LVU781
  63:Middlewares/lvgl/src/core/lv_indev_scroll.c ****         lv_coord_t diff_x = 0;
 2409              		.loc 1 63 40 is_stmt 0 view .LVU782
 2410 000c 2369     		ldr	r3, [r4, #16]
  63:Middlewares/lvgl/src/core/lv_indev_scroll.c ****         lv_coord_t diff_x = 0;
 2411              		.loc 1 63 7 view .LVU783
 2412 000e 002B     		cmp	r3, #0
 2413 0010 59D0     		beq	.L156
 2414              	.LBB105:
ARM GAS  /tmp/ccHFiCt0.s 			page 69


  64:Middlewares/lvgl/src/core/lv_indev_scroll.c ****         lv_coord_t diff_y = 0;
 2415              		.loc 1 64 9 is_stmt 1 view .LVU784
  64:Middlewares/lvgl/src/core/lv_indev_scroll.c ****         lv_coord_t diff_y = 0;
 2416              		.loc 1 64 20 is_stmt 0 view .LVU785
 2417 0012 0023     		movs	r3, #0
 2418 0014 ADF80C30 		strh	r3, [sp, #12]	@ movhi
  65:Middlewares/lvgl/src/core/lv_indev_scroll.c **** 
 2419              		.loc 1 65 9 is_stmt 1 view .LVU786
  65:Middlewares/lvgl/src/core/lv_indev_scroll.c **** 
 2420              		.loc 1 65 20 is_stmt 0 view .LVU787
 2421 0018 ADF80E30 		strh	r3, [sp, #14]	@ movhi
  67:Middlewares/lvgl/src/core/lv_indev_scroll.c ****             lv_coord_t sr = lv_obj_get_scroll_right(scroll_obj);
 2422              		.loc 1 67 9 is_stmt 1 view .LVU788
  67:Middlewares/lvgl/src/core/lv_indev_scroll.c ****             lv_coord_t sr = lv_obj_get_scroll_right(scroll_obj);
 2423              		.loc 1 67 43 is_stmt 0 view .LVU789
 2424 001c 94F83C30 		ldrb	r3, [r4, #60]	@ zero_extendqisi2
 2425 0020 03F00F03 		and	r3, r3, #15
  67:Middlewares/lvgl/src/core/lv_indev_scroll.c ****             lv_coord_t sr = lv_obj_get_scroll_right(scroll_obj);
 2426              		.loc 1 67 11 view .LVU790
 2427 0024 032B     		cmp	r3, #3
 2428 0026 6AD0     		beq	.L167
 2429              	.LBB106:
  72:Middlewares/lvgl/src/core/lv_indev_scroll.c ****             lv_coord_t sb = lv_obj_get_scroll_bottom(scroll_obj);
 2430              		.loc 1 72 13 is_stmt 1 view .LVU791
  72:Middlewares/lvgl/src/core/lv_indev_scroll.c ****             lv_coord_t sb = lv_obj_get_scroll_bottom(scroll_obj);
 2431              		.loc 1 72 29 is_stmt 0 view .LVU792
 2432 0028 2846     		mov	r0, r5
 2433 002a FFF7FEFF 		bl	lv_obj_get_scroll_top
 2434              	.LVL250:
 2435 002e 0646     		mov	r6, r0
 2436              	.LVL251:
  73:Middlewares/lvgl/src/core/lv_indev_scroll.c ****             diff_y = elastic_diff(scroll_obj, proc->types.pointer.vect.y, st, sb, LV_DIR_VER);
 2437              		.loc 1 73 13 is_stmt 1 view .LVU793
  73:Middlewares/lvgl/src/core/lv_indev_scroll.c ****             diff_y = elastic_diff(scroll_obj, proc->types.pointer.vect.y, st, sb, LV_DIR_VER);
 2438              		.loc 1 73 29 is_stmt 0 view .LVU794
 2439 0030 2846     		mov	r0, r5
 2440 0032 FFF7FEFF 		bl	lv_obj_get_scroll_bottom
 2441              	.LVL252:
 2442 0036 0346     		mov	r3, r0
 2443              	.LVL253:
  74:Middlewares/lvgl/src/core/lv_indev_scroll.c ****         }
 2444              		.loc 1 74 13 is_stmt 1 view .LVU795
  74:Middlewares/lvgl/src/core/lv_indev_scroll.c ****         }
 2445              		.loc 1 74 22 is_stmt 0 view .LVU796
 2446 0038 0C22     		movs	r2, #12
 2447 003a 0092     		str	r2, [sp]
 2448 003c 3246     		mov	r2, r6
 2449 003e B4F91210 		ldrsh	r1, [r4, #18]
 2450 0042 2846     		mov	r0, r5
 2451 0044 FFF7FEFF 		bl	elastic_diff
 2452              	.LVL254:
  74:Middlewares/lvgl/src/core/lv_indev_scroll.c ****         }
 2453              		.loc 1 74 20 view .LVU797
 2454 0048 ADF80E00 		strh	r0, [sp, #14]	@ movhi
 2455              	.LVL255:
 2456              	.L160:
  74:Middlewares/lvgl/src/core/lv_indev_scroll.c ****         }
ARM GAS  /tmp/ccHFiCt0.s 			page 70


 2457              		.loc 1 74 20 view .LVU798
 2458              	.LBE106:
  77:Middlewares/lvgl/src/core/lv_indev_scroll.c ****         if((scroll_dir & LV_DIR_LEFT)   == 0 && diff_x > 0) diff_x = 0;
 2459              		.loc 1 77 9 is_stmt 1 view .LVU799
  77:Middlewares/lvgl/src/core/lv_indev_scroll.c ****         if((scroll_dir & LV_DIR_LEFT)   == 0 && diff_x > 0) diff_x = 0;
 2460              		.loc 1 77 31 is_stmt 0 view .LVU800
 2461 004c 2846     		mov	r0, r5
 2462 004e FFF7FEFF 		bl	lv_obj_get_scroll_dir
 2463              	.LVL256:
  78:Middlewares/lvgl/src/core/lv_indev_scroll.c ****         if((scroll_dir & LV_DIR_RIGHT)  == 0 && diff_x < 0) diff_x = 0;
 2464              		.loc 1 78 9 is_stmt 1 view .LVU801
  78:Middlewares/lvgl/src/core/lv_indev_scroll.c ****         if((scroll_dir & LV_DIR_RIGHT)  == 0 && diff_x < 0) diff_x = 0;
 2465              		.loc 1 78 11 is_stmt 0 view .LVU802
 2466 0052 10F0010F 		tst	r0, #1
 2467 0056 06D1     		bne	.L161
  78:Middlewares/lvgl/src/core/lv_indev_scroll.c ****         if((scroll_dir & LV_DIR_RIGHT)  == 0 && diff_x < 0) diff_x = 0;
 2468              		.loc 1 78 56 discriminator 1 view .LVU803
 2469 0058 BDF90C30 		ldrsh	r3, [sp, #12]
  78:Middlewares/lvgl/src/core/lv_indev_scroll.c ****         if((scroll_dir & LV_DIR_RIGHT)  == 0 && diff_x < 0) diff_x = 0;
 2470              		.loc 1 78 46 discriminator 1 view .LVU804
 2471 005c 002B     		cmp	r3, #0
 2472 005e 02DD     		ble	.L161
  78:Middlewares/lvgl/src/core/lv_indev_scroll.c ****         if((scroll_dir & LV_DIR_RIGHT)  == 0 && diff_x < 0) diff_x = 0;
 2473              		.loc 1 78 61 is_stmt 1 discriminator 2 view .LVU805
  78:Middlewares/lvgl/src/core/lv_indev_scroll.c ****         if((scroll_dir & LV_DIR_RIGHT)  == 0 && diff_x < 0) diff_x = 0;
 2474              		.loc 1 78 68 is_stmt 0 discriminator 2 view .LVU806
 2475 0060 0023     		movs	r3, #0
 2476 0062 ADF80C30 		strh	r3, [sp, #12]	@ movhi
 2477              	.L161:
  79:Middlewares/lvgl/src/core/lv_indev_scroll.c ****         if((scroll_dir & LV_DIR_TOP)    == 0 && diff_y > 0) diff_y = 0;
 2478              		.loc 1 79 9 is_stmt 1 view .LVU807
  79:Middlewares/lvgl/src/core/lv_indev_scroll.c ****         if((scroll_dir & LV_DIR_TOP)    == 0 && diff_y > 0) diff_y = 0;
 2479              		.loc 1 79 11 is_stmt 0 view .LVU808
 2480 0066 10F0020F 		tst	r0, #2
 2481 006a 03D1     		bne	.L162
  79:Middlewares/lvgl/src/core/lv_indev_scroll.c ****         if((scroll_dir & LV_DIR_TOP)    == 0 && diff_y > 0) diff_y = 0;
 2482              		.loc 1 79 56 discriminator 1 view .LVU809
 2483 006c BDF90C30 		ldrsh	r3, [sp, #12]
  79:Middlewares/lvgl/src/core/lv_indev_scroll.c ****         if((scroll_dir & LV_DIR_TOP)    == 0 && diff_y > 0) diff_y = 0;
 2484              		.loc 1 79 46 discriminator 1 view .LVU810
 2485 0070 002B     		cmp	r3, #0
 2486 0072 57DB     		blt	.L168
 2487              	.L162:
  80:Middlewares/lvgl/src/core/lv_indev_scroll.c ****         if((scroll_dir & LV_DIR_BOTTOM) == 0 && diff_y < 0) diff_y = 0;
 2488              		.loc 1 80 9 is_stmt 1 view .LVU811
  80:Middlewares/lvgl/src/core/lv_indev_scroll.c ****         if((scroll_dir & LV_DIR_BOTTOM) == 0 && diff_y < 0) diff_y = 0;
 2489              		.loc 1 80 11 is_stmt 0 view .LVU812
 2490 0074 10F0040F 		tst	r0, #4
 2491 0078 06D1     		bne	.L163
  80:Middlewares/lvgl/src/core/lv_indev_scroll.c ****         if((scroll_dir & LV_DIR_BOTTOM) == 0 && diff_y < 0) diff_y = 0;
 2492              		.loc 1 80 56 discriminator 1 view .LVU813
 2493 007a BDF90E30 		ldrsh	r3, [sp, #14]
  80:Middlewares/lvgl/src/core/lv_indev_scroll.c ****         if((scroll_dir & LV_DIR_BOTTOM) == 0 && diff_y < 0) diff_y = 0;
 2494              		.loc 1 80 46 discriminator 1 view .LVU814
 2495 007e 002B     		cmp	r3, #0
 2496 0080 02DD     		ble	.L163
  80:Middlewares/lvgl/src/core/lv_indev_scroll.c ****         if((scroll_dir & LV_DIR_BOTTOM) == 0 && diff_y < 0) diff_y = 0;
ARM GAS  /tmp/ccHFiCt0.s 			page 71


 2497              		.loc 1 80 61 is_stmt 1 discriminator 2 view .LVU815
  80:Middlewares/lvgl/src/core/lv_indev_scroll.c ****         if((scroll_dir & LV_DIR_BOTTOM) == 0 && diff_y < 0) diff_y = 0;
 2498              		.loc 1 80 68 is_stmt 0 discriminator 2 view .LVU816
 2499 0082 0023     		movs	r3, #0
 2500 0084 ADF80E30 		strh	r3, [sp, #14]	@ movhi
 2501              	.L163:
  81:Middlewares/lvgl/src/core/lv_indev_scroll.c **** 
 2502              		.loc 1 81 9 is_stmt 1 view .LVU817
  81:Middlewares/lvgl/src/core/lv_indev_scroll.c **** 
 2503              		.loc 1 81 11 is_stmt 0 view .LVU818
 2504 0088 10F0080F 		tst	r0, #8
 2505 008c 03D1     		bne	.L164
  81:Middlewares/lvgl/src/core/lv_indev_scroll.c **** 
 2506              		.loc 1 81 56 discriminator 1 view .LVU819
 2507 008e BDF90E30 		ldrsh	r3, [sp, #14]
  81:Middlewares/lvgl/src/core/lv_indev_scroll.c **** 
 2508              		.loc 1 81 46 discriminator 1 view .LVU820
 2509 0092 002B     		cmp	r3, #0
 2510 0094 4ADB     		blt	.L169
 2511              	.L164:
  84:Middlewares/lvgl/src/core/lv_indev_scroll.c **** 
 2512              		.loc 1 84 9 is_stmt 1 view .LVU821
 2513 0096 0DF10E02 		add	r2, sp, #14
 2514 009a 03A9     		add	r1, sp, #12
 2515 009c 2046     		mov	r0, r4
 2516              	.LVL257:
  84:Middlewares/lvgl/src/core/lv_indev_scroll.c **** 
 2517              		.loc 1 84 9 is_stmt 0 view .LVU822
 2518 009e FFF7FEFF 		bl	scroll_limit_diff
 2519              	.LVL258:
  86:Middlewares/lvgl/src/core/lv_indev_scroll.c ****         proc->types.pointer.scroll_sum.x += diff_x;
 2520              		.loc 1 86 9 is_stmt 1 view .LVU823
 2521 00a2 0023     		movs	r3, #0
 2522 00a4 BDF90E20 		ldrsh	r2, [sp, #14]
 2523 00a8 BDF90C10 		ldrsh	r1, [sp, #12]
 2524 00ac 2846     		mov	r0, r5
 2525 00ae FFF7FEFF 		bl	lv_obj_scroll_by
 2526              	.LVL259:
  87:Middlewares/lvgl/src/core/lv_indev_scroll.c ****         proc->types.pointer.scroll_sum.y += diff_y;
 2527              		.loc 1 87 9 view .LVU824
  87:Middlewares/lvgl/src/core/lv_indev_scroll.c ****         proc->types.pointer.scroll_sum.y += diff_y;
 2528              		.loc 1 87 42 is_stmt 0 view .LVU825
 2529 00b2 A38A     		ldrh	r3, [r4, #20]
 2530 00b4 BDF80C20 		ldrh	r2, [sp, #12]
 2531 00b8 1344     		add	r3, r3, r2
 2532 00ba A382     		strh	r3, [r4, #20]	@ movhi
  88:Middlewares/lvgl/src/core/lv_indev_scroll.c ****     }
 2533              		.loc 1 88 9 is_stmt 1 view .LVU826
  88:Middlewares/lvgl/src/core/lv_indev_scroll.c ****     }
 2534              		.loc 1 88 42 is_stmt 0 view .LVU827
 2535 00bc E38A     		ldrh	r3, [r4, #22]
 2536 00be BDF80E20 		ldrh	r2, [sp, #14]
 2537 00c2 1344     		add	r3, r3, r2
 2538 00c4 E382     		strh	r3, [r4, #22]	@ movhi
 2539              	.L156:
  88:Middlewares/lvgl/src/core/lv_indev_scroll.c ****     }
 2540              		.loc 1 88 42 view .LVU828
ARM GAS  /tmp/ccHFiCt0.s 			page 72


 2541              	.LBE105:
  90:Middlewares/lvgl/src/core/lv_indev_scroll.c **** 
 2542              		.loc 1 90 1 view .LVU829
 2543 00c6 04B0     		add	sp, sp, #16
 2544              	.LCFI22:
 2545              		.cfi_remember_state
 2546              		.cfi_def_cfa_offset 16
 2547              		@ sp needed
 2548 00c8 70BD     		pop	{r4, r5, r6, pc}
 2549              	.LVL260:
 2550              	.L166:
 2551              	.LCFI23:
 2552              		.cfi_restore_state
  50:Middlewares/lvgl/src/core/lv_indev_scroll.c ****         proc->types.pointer.scroll_sum.y += proc->types.pointer.vect.y;
 2553              		.loc 1 50 9 is_stmt 1 view .LVU830
  50:Middlewares/lvgl/src/core/lv_indev_scroll.c ****         proc->types.pointer.scroll_sum.y += proc->types.pointer.vect.y;
 2554              		.loc 1 50 69 is_stmt 0 view .LVU831
 2555 00ca 038A     		ldrh	r3, [r0, #16]
  50:Middlewares/lvgl/src/core/lv_indev_scroll.c ****         proc->types.pointer.scroll_sum.y += proc->types.pointer.vect.y;
 2556              		.loc 1 50 42 view .LVU832
 2557 00cc 828A     		ldrh	r2, [r0, #20]
 2558 00ce 1344     		add	r3, r3, r2
 2559 00d0 8382     		strh	r3, [r0, #20]	@ movhi
  51:Middlewares/lvgl/src/core/lv_indev_scroll.c **** 
