ARM GAS  /tmp/ccL9JfjK.s 			page 1


   1              		.cpu cortex-m3
   2              		.eabi_attribute 20, 1
   3              		.eabi_attribute 21, 1
   4              		.eabi_attribute 23, 3
   5              		.eabi_attribute 24, 1
   6              		.eabi_attribute 25, 1
   7              		.eabi_attribute 26, 1
   8              		.eabi_attribute 30, 1
   9              		.eabi_attribute 34, 1
  10              		.eabi_attribute 18, 4
  11              		.file	"lv_obj_draw.c"
  12              		.text
  13              	.Ltext0:
  14              		.cfi_sections	.debug_frame
  15              		.section	.text.lv_obj_init_draw_rect_dsc,"ax",%progbits
  16              		.align	1
  17              		.global	lv_obj_init_draw_rect_dsc
  18              		.arch armv7-m
  19              		.syntax unified
  20              		.thumb
  21              		.thumb_func
  22              		.fpu softvfp
  24              	lv_obj_init_draw_rect_dsc:
  25              	.LVL0:
  26              	.LFB153:
  27              		.file 1 "Middlewares/lvgl/src/core/lv_obj_draw.c"
   1:Middlewares/lvgl/src/core/lv_obj_draw.c **** /**
   2:Middlewares/lvgl/src/core/lv_obj_draw.c ****  * @file lv_obj_draw.c
   3:Middlewares/lvgl/src/core/lv_obj_draw.c ****  *
   4:Middlewares/lvgl/src/core/lv_obj_draw.c ****  */
   5:Middlewares/lvgl/src/core/lv_obj_draw.c **** 
   6:Middlewares/lvgl/src/core/lv_obj_draw.c **** /*********************
   7:Middlewares/lvgl/src/core/lv_obj_draw.c ****  *      INCLUDES
   8:Middlewares/lvgl/src/core/lv_obj_draw.c ****  *********************/
   9:Middlewares/lvgl/src/core/lv_obj_draw.c **** #include "lv_obj_draw.h"
  10:Middlewares/lvgl/src/core/lv_obj_draw.c **** #include "lv_obj.h"
  11:Middlewares/lvgl/src/core/lv_obj_draw.c **** #include "lv_disp.h"
  12:Middlewares/lvgl/src/core/lv_obj_draw.c **** #include "lv_indev.h"
  13:Middlewares/lvgl/src/core/lv_obj_draw.c **** 
  14:Middlewares/lvgl/src/core/lv_obj_draw.c **** /*********************
  15:Middlewares/lvgl/src/core/lv_obj_draw.c ****  *      DEFINES
  16:Middlewares/lvgl/src/core/lv_obj_draw.c ****  *********************/
  17:Middlewares/lvgl/src/core/lv_obj_draw.c **** #define MY_CLASS &lv_obj_class
  18:Middlewares/lvgl/src/core/lv_obj_draw.c **** 
  19:Middlewares/lvgl/src/core/lv_obj_draw.c **** /**********************
  20:Middlewares/lvgl/src/core/lv_obj_draw.c ****  *      TYPEDEFS
  21:Middlewares/lvgl/src/core/lv_obj_draw.c ****  **********************/
  22:Middlewares/lvgl/src/core/lv_obj_draw.c **** 
  23:Middlewares/lvgl/src/core/lv_obj_draw.c **** /**********************
  24:Middlewares/lvgl/src/core/lv_obj_draw.c ****  *  STATIC PROTOTYPES
  25:Middlewares/lvgl/src/core/lv_obj_draw.c ****  **********************/
  26:Middlewares/lvgl/src/core/lv_obj_draw.c **** 
  27:Middlewares/lvgl/src/core/lv_obj_draw.c **** /**********************
  28:Middlewares/lvgl/src/core/lv_obj_draw.c ****  *  STATIC VARIABLES
  29:Middlewares/lvgl/src/core/lv_obj_draw.c ****  **********************/
  30:Middlewares/lvgl/src/core/lv_obj_draw.c **** 
  31:Middlewares/lvgl/src/core/lv_obj_draw.c **** /**********************
ARM GAS  /tmp/ccL9JfjK.s 			page 2


  32:Middlewares/lvgl/src/core/lv_obj_draw.c ****  *      MACROS
  33:Middlewares/lvgl/src/core/lv_obj_draw.c ****  **********************/
  34:Middlewares/lvgl/src/core/lv_obj_draw.c **** 
  35:Middlewares/lvgl/src/core/lv_obj_draw.c **** /**********************
  36:Middlewares/lvgl/src/core/lv_obj_draw.c ****  *   GLOBAL FUNCTIONS
  37:Middlewares/lvgl/src/core/lv_obj_draw.c ****  **********************/
  38:Middlewares/lvgl/src/core/lv_obj_draw.c **** 
  39:Middlewares/lvgl/src/core/lv_obj_draw.c **** void lv_obj_init_draw_rect_dsc(lv_obj_t * obj, uint32_t part, lv_draw_rect_dsc_t * draw_dsc)
  40:Middlewares/lvgl/src/core/lv_obj_draw.c **** {
  28              		.loc 1 40 1 view -0
  29              		.cfi_startproc
  30              		@ args = 0, pretend = 0, frame = 0
  31              		@ frame_needed = 0, uses_anonymous_args = 0
  32              		.loc 1 40 1 is_stmt 0 view .LVU1
  33 0000 2DE9F041 		push	{r4, r5, r6, r7, r8, lr}
  34              	.LCFI0:
  35              		.cfi_def_cfa_offset 24
  36              		.cfi_offset 4, -24
  37              		.cfi_offset 5, -20
  38              		.cfi_offset 6, -16
  39              		.cfi_offset 7, -12
  40              		.cfi_offset 8, -8
  41              		.cfi_offset 14, -4
  42 0004 0646     		mov	r6, r0
  43 0006 0D46     		mov	r5, r1
  44 0008 1446     		mov	r4, r2
  41:Middlewares/lvgl/src/core/lv_obj_draw.c **** 
  42:Middlewares/lvgl/src/core/lv_obj_draw.c **** #if LV_DRAW_COMPLEX
  43:Middlewares/lvgl/src/core/lv_obj_draw.c ****     draw_dsc->radius = lv_obj_get_style_radius(obj, part);
  45              		.loc 1 43 5 is_stmt 1 view .LVU2
  46              	.LVL1:
  47              	.LBB150:
  48              	.LBI150:
  49              		.file 2 "Middlewares/lvgl/src/core/lv_obj_style_gen.h"
   1:Middlewares/lvgl/src/core/lv_obj_style_gen.h **** static inline lv_coord_t lv_obj_get_style_width(const struct _lv_obj_t * obj, uint32_t part)
   2:Middlewares/lvgl/src/core/lv_obj_style_gen.h **** {
   3:Middlewares/lvgl/src/core/lv_obj_style_gen.h ****     lv_style_value_t v = lv_obj_get_style_prop(obj, part, LV_STYLE_WIDTH);
   4:Middlewares/lvgl/src/core/lv_obj_style_gen.h ****     return (lv_coord_t)v.num;
   5:Middlewares/lvgl/src/core/lv_obj_style_gen.h **** }
   6:Middlewares/lvgl/src/core/lv_obj_style_gen.h **** 
   7:Middlewares/lvgl/src/core/lv_obj_style_gen.h **** static inline lv_coord_t lv_obj_get_style_min_width(const struct _lv_obj_t * obj, uint32_t part)
   8:Middlewares/lvgl/src/core/lv_obj_style_gen.h **** {
   9:Middlewares/lvgl/src/core/lv_obj_style_gen.h ****     lv_style_value_t v = lv_obj_get_style_prop(obj, part, LV_STYLE_MIN_WIDTH);
  10:Middlewares/lvgl/src/core/lv_obj_style_gen.h ****     return (lv_coord_t)v.num;
  11:Middlewares/lvgl/src/core/lv_obj_style_gen.h **** }
  12:Middlewares/lvgl/src/core/lv_obj_style_gen.h **** 
  13:Middlewares/lvgl/src/core/lv_obj_style_gen.h **** static inline lv_coord_t lv_obj_get_style_max_width(const struct _lv_obj_t * obj, uint32_t part)
  14:Middlewares/lvgl/src/core/lv_obj_style_gen.h **** {
  15:Middlewares/lvgl/src/core/lv_obj_style_gen.h ****     lv_style_value_t v = lv_obj_get_style_prop(obj, part, LV_STYLE_MAX_WIDTH);
  16:Middlewares/lvgl/src/core/lv_obj_style_gen.h ****     return (lv_coord_t)v.num;
  17:Middlewares/lvgl/src/core/lv_obj_style_gen.h **** }
  18:Middlewares/lvgl/src/core/lv_obj_style_gen.h **** 
  19:Middlewares/lvgl/src/core/lv_obj_style_gen.h **** static inline lv_coord_t lv_obj_get_style_height(const struct _lv_obj_t * obj, uint32_t part)
  20:Middlewares/lvgl/src/core/lv_obj_style_gen.h **** {
  21:Middlewares/lvgl/src/core/lv_obj_style_gen.h ****     lv_style_value_t v = lv_obj_get_style_prop(obj, part, LV_STYLE_HEIGHT);
  22:Middlewares/lvgl/src/core/lv_obj_style_gen.h ****     return (lv_coord_t)v.num;
  23:Middlewares/lvgl/src/core/lv_obj_style_gen.h **** }
ARM GAS  /tmp/ccL9JfjK.s 			page 3


  24:Middlewares/lvgl/src/core/lv_obj_style_gen.h **** 
  25:Middlewares/lvgl/src/core/lv_obj_style_gen.h **** static inline lv_coord_t lv_obj_get_style_min_height(const struct _lv_obj_t * obj, uint32_t part)
  26:Middlewares/lvgl/src/core/lv_obj_style_gen.h **** {
  27:Middlewares/lvgl/src/core/lv_obj_style_gen.h ****     lv_style_value_t v = lv_obj_get_style_prop(obj, part, LV_STYLE_MIN_HEIGHT);
  28:Middlewares/lvgl/src/core/lv_obj_style_gen.h ****     return (lv_coord_t)v.num;
  29:Middlewares/lvgl/src/core/lv_obj_style_gen.h **** }
  30:Middlewares/lvgl/src/core/lv_obj_style_gen.h **** 
  31:Middlewares/lvgl/src/core/lv_obj_style_gen.h **** static inline lv_coord_t lv_obj_get_style_max_height(const struct _lv_obj_t * obj, uint32_t part)
  32:Middlewares/lvgl/src/core/lv_obj_style_gen.h **** {
  33:Middlewares/lvgl/src/core/lv_obj_style_gen.h ****     lv_style_value_t v = lv_obj_get_style_prop(obj, part, LV_STYLE_MAX_HEIGHT);
  34:Middlewares/lvgl/src/core/lv_obj_style_gen.h ****     return (lv_coord_t)v.num;
  35:Middlewares/lvgl/src/core/lv_obj_style_gen.h **** }
  36:Middlewares/lvgl/src/core/lv_obj_style_gen.h **** 
  37:Middlewares/lvgl/src/core/lv_obj_style_gen.h **** static inline lv_coord_t lv_obj_get_style_x(const struct _lv_obj_t * obj, uint32_t part)
  38:Middlewares/lvgl/src/core/lv_obj_style_gen.h **** {
  39:Middlewares/lvgl/src/core/lv_obj_style_gen.h ****     lv_style_value_t v = lv_obj_get_style_prop(obj, part, LV_STYLE_X);
  40:Middlewares/lvgl/src/core/lv_obj_style_gen.h ****     return (lv_coord_t)v.num;
  41:Middlewares/lvgl/src/core/lv_obj_style_gen.h **** }
  42:Middlewares/lvgl/src/core/lv_obj_style_gen.h **** 
  43:Middlewares/lvgl/src/core/lv_obj_style_gen.h **** static inline lv_coord_t lv_obj_get_style_y(const struct _lv_obj_t * obj, uint32_t part)
  44:Middlewares/lvgl/src/core/lv_obj_style_gen.h **** {
  45:Middlewares/lvgl/src/core/lv_obj_style_gen.h ****     lv_style_value_t v = lv_obj_get_style_prop(obj, part, LV_STYLE_Y);
  46:Middlewares/lvgl/src/core/lv_obj_style_gen.h ****     return (lv_coord_t)v.num;
  47:Middlewares/lvgl/src/core/lv_obj_style_gen.h **** }
  48:Middlewares/lvgl/src/core/lv_obj_style_gen.h **** 
  49:Middlewares/lvgl/src/core/lv_obj_style_gen.h **** static inline lv_align_t lv_obj_get_style_align(const struct _lv_obj_t * obj, uint32_t part)
  50:Middlewares/lvgl/src/core/lv_obj_style_gen.h **** {
  51:Middlewares/lvgl/src/core/lv_obj_style_gen.h ****     lv_style_value_t v = lv_obj_get_style_prop(obj, part, LV_STYLE_ALIGN);
  52:Middlewares/lvgl/src/core/lv_obj_style_gen.h ****     return (lv_align_t)v.num;
  53:Middlewares/lvgl/src/core/lv_obj_style_gen.h **** }
  54:Middlewares/lvgl/src/core/lv_obj_style_gen.h **** 
  55:Middlewares/lvgl/src/core/lv_obj_style_gen.h **** static inline lv_coord_t lv_obj_get_style_transform_width(const struct _lv_obj_t * obj, uint32_t pa
  56:Middlewares/lvgl/src/core/lv_obj_style_gen.h **** {
  57:Middlewares/lvgl/src/core/lv_obj_style_gen.h ****     lv_style_value_t v = lv_obj_get_style_prop(obj, part, LV_STYLE_TRANSFORM_WIDTH);
  58:Middlewares/lvgl/src/core/lv_obj_style_gen.h ****     return (lv_coord_t)v.num;
  59:Middlewares/lvgl/src/core/lv_obj_style_gen.h **** }
  60:Middlewares/lvgl/src/core/lv_obj_style_gen.h **** 
  61:Middlewares/lvgl/src/core/lv_obj_style_gen.h **** static inline lv_coord_t lv_obj_get_style_transform_height(const struct _lv_obj_t * obj, uint32_t p
  62:Middlewares/lvgl/src/core/lv_obj_style_gen.h **** {
  63:Middlewares/lvgl/src/core/lv_obj_style_gen.h ****     lv_style_value_t v = lv_obj_get_style_prop(obj, part, LV_STYLE_TRANSFORM_HEIGHT);
  64:Middlewares/lvgl/src/core/lv_obj_style_gen.h ****     return (lv_coord_t)v.num;
  65:Middlewares/lvgl/src/core/lv_obj_style_gen.h **** }
  66:Middlewares/lvgl/src/core/lv_obj_style_gen.h **** 
  67:Middlewares/lvgl/src/core/lv_obj_style_gen.h **** static inline lv_coord_t lv_obj_get_style_translate_x(const struct _lv_obj_t * obj, uint32_t part)
  68:Middlewares/lvgl/src/core/lv_obj_style_gen.h **** {
  69:Middlewares/lvgl/src/core/lv_obj_style_gen.h ****     lv_style_value_t v = lv_obj_get_style_prop(obj, part, LV_STYLE_TRANSLATE_X);
  70:Middlewares/lvgl/src/core/lv_obj_style_gen.h ****     return (lv_coord_t)v.num;
  71:Middlewares/lvgl/src/core/lv_obj_style_gen.h **** }
  72:Middlewares/lvgl/src/core/lv_obj_style_gen.h **** 
  73:Middlewares/lvgl/src/core/lv_obj_style_gen.h **** static inline lv_coord_t lv_obj_get_style_translate_y(const struct _lv_obj_t * obj, uint32_t part)
  74:Middlewares/lvgl/src/core/lv_obj_style_gen.h **** {
  75:Middlewares/lvgl/src/core/lv_obj_style_gen.h ****     lv_style_value_t v = lv_obj_get_style_prop(obj, part, LV_STYLE_TRANSLATE_Y);
  76:Middlewares/lvgl/src/core/lv_obj_style_gen.h ****     return (lv_coord_t)v.num;
  77:Middlewares/lvgl/src/core/lv_obj_style_gen.h **** }
  78:Middlewares/lvgl/src/core/lv_obj_style_gen.h **** 
  79:Middlewares/lvgl/src/core/lv_obj_style_gen.h **** static inline lv_coord_t lv_obj_get_style_transform_zoom(const struct _lv_obj_t * obj, uint32_t par
  80:Middlewares/lvgl/src/core/lv_obj_style_gen.h **** {
ARM GAS  /tmp/ccL9JfjK.s 			page 4


  81:Middlewares/lvgl/src/core/lv_obj_style_gen.h ****     lv_style_value_t v = lv_obj_get_style_prop(obj, part, LV_STYLE_TRANSFORM_ZOOM);
  82:Middlewares/lvgl/src/core/lv_obj_style_gen.h ****     return (lv_coord_t)v.num;
  83:Middlewares/lvgl/src/core/lv_obj_style_gen.h **** }
  84:Middlewares/lvgl/src/core/lv_obj_style_gen.h **** 
  85:Middlewares/lvgl/src/core/lv_obj_style_gen.h **** static inline lv_coord_t lv_obj_get_style_transform_angle(const struct _lv_obj_t * obj, uint32_t pa
  86:Middlewares/lvgl/src/core/lv_obj_style_gen.h **** {
  87:Middlewares/lvgl/src/core/lv_obj_style_gen.h ****     lv_style_value_t v = lv_obj_get_style_prop(obj, part, LV_STYLE_TRANSFORM_ANGLE);
  88:Middlewares/lvgl/src/core/lv_obj_style_gen.h ****     return (lv_coord_t)v.num;
  89:Middlewares/lvgl/src/core/lv_obj_style_gen.h **** }
  90:Middlewares/lvgl/src/core/lv_obj_style_gen.h **** 
  91:Middlewares/lvgl/src/core/lv_obj_style_gen.h **** static inline lv_coord_t lv_obj_get_style_pad_top(const struct _lv_obj_t * obj, uint32_t part)
  92:Middlewares/lvgl/src/core/lv_obj_style_gen.h **** {
  93:Middlewares/lvgl/src/core/lv_obj_style_gen.h ****     lv_style_value_t v = lv_obj_get_style_prop(obj, part, LV_STYLE_PAD_TOP);
  94:Middlewares/lvgl/src/core/lv_obj_style_gen.h ****     return (lv_coord_t)v.num;
  95:Middlewares/lvgl/src/core/lv_obj_style_gen.h **** }
  96:Middlewares/lvgl/src/core/lv_obj_style_gen.h **** 
  97:Middlewares/lvgl/src/core/lv_obj_style_gen.h **** static inline lv_coord_t lv_obj_get_style_pad_bottom(const struct _lv_obj_t * obj, uint32_t part)
  98:Middlewares/lvgl/src/core/lv_obj_style_gen.h **** {
  99:Middlewares/lvgl/src/core/lv_obj_style_gen.h ****     lv_style_value_t v = lv_obj_get_style_prop(obj, part, LV_STYLE_PAD_BOTTOM);
 100:Middlewares/lvgl/src/core/lv_obj_style_gen.h ****     return (lv_coord_t)v.num;
 101:Middlewares/lvgl/src/core/lv_obj_style_gen.h **** }
 102:Middlewares/lvgl/src/core/lv_obj_style_gen.h **** 
 103:Middlewares/lvgl/src/core/lv_obj_style_gen.h **** static inline lv_coord_t lv_obj_get_style_pad_left(const struct _lv_obj_t * obj, uint32_t part)
 104:Middlewares/lvgl/src/core/lv_obj_style_gen.h **** {
 105:Middlewares/lvgl/src/core/lv_obj_style_gen.h ****     lv_style_value_t v = lv_obj_get_style_prop(obj, part, LV_STYLE_PAD_LEFT);
 106:Middlewares/lvgl/src/core/lv_obj_style_gen.h ****     return (lv_coord_t)v.num;
 107:Middlewares/lvgl/src/core/lv_obj_style_gen.h **** }
 108:Middlewares/lvgl/src/core/lv_obj_style_gen.h **** 
 109:Middlewares/lvgl/src/core/lv_obj_style_gen.h **** static inline lv_coord_t lv_obj_get_style_pad_right(const struct _lv_obj_t * obj, uint32_t part)
 110:Middlewares/lvgl/src/core/lv_obj_style_gen.h **** {
 111:Middlewares/lvgl/src/core/lv_obj_style_gen.h ****     lv_style_value_t v = lv_obj_get_style_prop(obj, part, LV_STYLE_PAD_RIGHT);
 112:Middlewares/lvgl/src/core/lv_obj_style_gen.h ****     return (lv_coord_t)v.num;
 113:Middlewares/lvgl/src/core/lv_obj_style_gen.h **** }
 114:Middlewares/lvgl/src/core/lv_obj_style_gen.h **** 
 115:Middlewares/lvgl/src/core/lv_obj_style_gen.h **** static inline lv_coord_t lv_obj_get_style_pad_row(const struct _lv_obj_t * obj, uint32_t part)
 116:Middlewares/lvgl/src/core/lv_obj_style_gen.h **** {
 117:Middlewares/lvgl/src/core/lv_obj_style_gen.h ****     lv_style_value_t v = lv_obj_get_style_prop(obj, part, LV_STYLE_PAD_ROW);
 118:Middlewares/lvgl/src/core/lv_obj_style_gen.h ****     return (lv_coord_t)v.num;
 119:Middlewares/lvgl/src/core/lv_obj_style_gen.h **** }
 120:Middlewares/lvgl/src/core/lv_obj_style_gen.h **** 
 121:Middlewares/lvgl/src/core/lv_obj_style_gen.h **** static inline lv_coord_t lv_obj_get_style_pad_column(const struct _lv_obj_t * obj, uint32_t part)
 122:Middlewares/lvgl/src/core/lv_obj_style_gen.h **** {
 123:Middlewares/lvgl/src/core/lv_obj_style_gen.h ****     lv_style_value_t v = lv_obj_get_style_prop(obj, part, LV_STYLE_PAD_COLUMN);
 124:Middlewares/lvgl/src/core/lv_obj_style_gen.h ****     return (lv_coord_t)v.num;
 125:Middlewares/lvgl/src/core/lv_obj_style_gen.h **** }
 126:Middlewares/lvgl/src/core/lv_obj_style_gen.h **** 
 127:Middlewares/lvgl/src/core/lv_obj_style_gen.h **** static inline lv_coord_t lv_obj_get_style_radius(const struct _lv_obj_t * obj, uint32_t part)
  50              		.loc 2 127 26 view .LVU3
  51              	.LBB151:
 128:Middlewares/lvgl/src/core/lv_obj_style_gen.h **** {
 129:Middlewares/lvgl/src/core/lv_obj_style_gen.h ****     lv_style_value_t v = lv_obj_get_style_prop(obj, part, LV_STYLE_RADIUS);
  52              		.loc 2 129 5 view .LVU4
  53              		.loc 2 129 26 is_stmt 0 view .LVU5
  54 000a 6022     		movs	r2, #96
  55              	.LVL2:
  56              		.loc 2 129 26 view .LVU6
  57 000c FFF7FEFF 		bl	lv_obj_get_style_prop
ARM GAS  /tmp/ccL9JfjK.s 			page 5


  58              	.LVL3:
 130:Middlewares/lvgl/src/core/lv_obj_style_gen.h ****     return (lv_coord_t)v.num;
  59              		.loc 2 130 5 is_stmt 1 view .LVU7
  60              		.loc 2 130 5 is_stmt 0 view .LVU8
  61              	.LBE151:
  62              	.LBE150:
  63              		.loc 1 43 22 view .LVU9
  64 0010 2080     		strh	r0, [r4]	@ movhi
  44:Middlewares/lvgl/src/core/lv_obj_draw.c **** 
  45:Middlewares/lvgl/src/core/lv_obj_draw.c ****     lv_opa_t main_opa = part != LV_PART_MAIN ? lv_obj_get_style_opa(obj, part) : LV_OPA_COVER;
  65              		.loc 1 45 5 is_stmt 1 view .LVU10
  66              		.loc 1 45 14 is_stmt 0 view .LVU11
  67 0012 B5B9     		cbnz	r5, .L15
  68 0014 4FF0FF08 		mov	r8, #255
  69              	.L2:
  70              	.LVL4:
  46:Middlewares/lvgl/src/core/lv_obj_draw.c ****     lv_opa_t opa = lv_obj_get_style_opa(obj, part);
  71              		.loc 1 46 5 is_stmt 1 discriminator 4 view .LVU12
  72              	.LBB152:
  73              	.LBI152:
 131:Middlewares/lvgl/src/core/lv_obj_style_gen.h **** }
 132:Middlewares/lvgl/src/core/lv_obj_style_gen.h **** 
 133:Middlewares/lvgl/src/core/lv_obj_style_gen.h **** static inline bool lv_obj_get_style_clip_corner(const struct _lv_obj_t * obj, uint32_t part)
 134:Middlewares/lvgl/src/core/lv_obj_style_gen.h **** {
 135:Middlewares/lvgl/src/core/lv_obj_style_gen.h ****     lv_style_value_t v = lv_obj_get_style_prop(obj, part, LV_STYLE_CLIP_CORNER);
 136:Middlewares/lvgl/src/core/lv_obj_style_gen.h ****     return (bool)v.num;
 137:Middlewares/lvgl/src/core/lv_obj_style_gen.h **** }
 138:Middlewares/lvgl/src/core/lv_obj_style_gen.h **** 
 139:Middlewares/lvgl/src/core/lv_obj_style_gen.h **** static inline lv_opa_t lv_obj_get_style_opa(const struct _lv_obj_t * obj, uint32_t part)
  74              		.loc 2 139 24 discriminator 4 view .LVU13
  75              	.LBB153:
 140:Middlewares/lvgl/src/core/lv_obj_style_gen.h **** {
 141:Middlewares/lvgl/src/core/lv_obj_style_gen.h ****     lv_style_value_t v = lv_obj_get_style_prop(obj, part, LV_STYLE_OPA);
  76              		.loc 2 141 5 discriminator 4 view .LVU14
  77              		.loc 2 141 26 is_stmt 0 discriminator 4 view .LVU15
  78 0018 40F26242 		movw	r2, #1122
  79 001c 2946     		mov	r1, r5
  80 001e 3046     		mov	r0, r6
  81 0020 FFF7FEFF 		bl	lv_obj_get_style_prop
  82              	.LVL5:
 142:Middlewares/lvgl/src/core/lv_obj_style_gen.h ****     return (lv_opa_t)v.num;
  83              		.loc 2 142 5 is_stmt 1 discriminator 4 view .LVU16
  84              		.loc 2 142 12 is_stmt 0 discriminator 4 view .LVU17
  85 0024 C7B2     		uxtb	r7, r0
  86              	.LVL6:
  87              		.loc 2 142 12 discriminator 4 view .LVU18
  88              	.LBE153:
  89              	.LBE152:
  47:Middlewares/lvgl/src/core/lv_obj_draw.c ****     if(opa <= LV_OPA_MIN || main_opa <= LV_OPA_MIN) {
  90              		.loc 1 47 5 is_stmt 1 discriminator 4 view .LVU19
  91              		.loc 1 47 7 is_stmt 0 discriminator 4 view .LVU20
  92 0026 022F     		cmp	r7, #2
  93 0028 02D9     		bls	.L3
  94              		.loc 1 47 26 discriminator 1 view .LVU21
  95 002a B8F1020F 		cmp	r8, #2
  96 002e 11D8     		bhi	.L4
  97              	.L3:
ARM GAS  /tmp/ccL9JfjK.s 			page 6


  48:Middlewares/lvgl/src/core/lv_obj_draw.c ****         draw_dsc->bg_opa = LV_OPA_TRANSP;
  98              		.loc 1 48 9 is_stmt 1 view .LVU22
  99              		.loc 1 48 26 is_stmt 0 view .LVU23
 100 0030 0023     		movs	r3, #0
 101 0032 A372     		strb	r3, [r4, #10]
  49:Middlewares/lvgl/src/core/lv_obj_draw.c ****         draw_dsc->border_opa = LV_OPA_TRANSP;
 102              		.loc 1 49 9 is_stmt 1 view .LVU24
 103              		.loc 1 49 30 is_stmt 0 view .LVU25
 104 0034 A377     		strb	r3, [r4, #30]
  50:Middlewares/lvgl/src/core/lv_obj_draw.c ****         draw_dsc->shadow_opa = LV_OPA_TRANSP;
 105              		.loc 1 50 9 is_stmt 1 view .LVU26
 106              		.loc 1 50 30 is_stmt 0 view .LVU27
 107 0036 84F83230 		strb	r3, [r4, #50]
  51:Middlewares/lvgl/src/core/lv_obj_draw.c ****         draw_dsc->outline_opa = LV_OPA_TRANSP;
 108              		.loc 1 51 9 is_stmt 1 view .LVU28
 109              		.loc 1 51 31 is_stmt 0 view .LVU29
 110 003a 84F82630 		strb	r3, [r4, #38]
  52:Middlewares/lvgl/src/core/lv_obj_draw.c ****         return;
 111              		.loc 1 52 9 is_stmt 1 view .LVU30
 112              	.LVL7:
 113              	.L1:
  53:Middlewares/lvgl/src/core/lv_obj_draw.c ****     }
  54:Middlewares/lvgl/src/core/lv_obj_draw.c **** 
  55:Middlewares/lvgl/src/core/lv_obj_draw.c ****     draw_dsc->blend_mode = lv_obj_get_style_blend_mode(obj, part);
  56:Middlewares/lvgl/src/core/lv_obj_draw.c **** 
  57:Middlewares/lvgl/src/core/lv_obj_draw.c ****     if(draw_dsc->bg_opa != LV_OPA_TRANSP) {
  58:Middlewares/lvgl/src/core/lv_obj_draw.c ****         draw_dsc->bg_opa = lv_obj_get_style_bg_opa(obj, part);
  59:Middlewares/lvgl/src/core/lv_obj_draw.c ****         if(draw_dsc->bg_opa > LV_OPA_MIN) {
  60:Middlewares/lvgl/src/core/lv_obj_draw.c ****             draw_dsc->bg_color = lv_obj_get_style_bg_color_filtered(obj, part);
  61:Middlewares/lvgl/src/core/lv_obj_draw.c ****             draw_dsc->bg_grad_dir =  lv_obj_get_style_bg_grad_dir(obj, part);
  62:Middlewares/lvgl/src/core/lv_obj_draw.c ****             if(draw_dsc->bg_grad_dir != LV_GRAD_DIR_NONE) {
  63:Middlewares/lvgl/src/core/lv_obj_draw.c ****                 draw_dsc->bg_grad_color = lv_obj_get_style_bg_grad_color_filtered(obj, part);
  64:Middlewares/lvgl/src/core/lv_obj_draw.c ****                 draw_dsc->bg_main_color_stop =  lv_obj_get_style_bg_main_stop(obj, part);
  65:Middlewares/lvgl/src/core/lv_obj_draw.c ****                 draw_dsc->bg_grad_color_stop =  lv_obj_get_style_bg_grad_stop(obj, part);
  66:Middlewares/lvgl/src/core/lv_obj_draw.c ****             }
  67:Middlewares/lvgl/src/core/lv_obj_draw.c ****         }
  68:Middlewares/lvgl/src/core/lv_obj_draw.c ****     }
  69:Middlewares/lvgl/src/core/lv_obj_draw.c **** 
  70:Middlewares/lvgl/src/core/lv_obj_draw.c ****     draw_dsc->border_width = lv_obj_get_style_border_width(obj, part);
  71:Middlewares/lvgl/src/core/lv_obj_draw.c ****     if(draw_dsc->border_width) {
  72:Middlewares/lvgl/src/core/lv_obj_draw.c ****         if(draw_dsc->border_opa != LV_OPA_TRANSP) {
  73:Middlewares/lvgl/src/core/lv_obj_draw.c ****             draw_dsc->border_opa = lv_obj_get_style_border_opa(obj, part);
  74:Middlewares/lvgl/src/core/lv_obj_draw.c ****             if(draw_dsc->border_opa > LV_OPA_MIN) {
  75:Middlewares/lvgl/src/core/lv_obj_draw.c ****                 draw_dsc->border_side = lv_obj_get_style_border_side(obj, part);
  76:Middlewares/lvgl/src/core/lv_obj_draw.c ****                 draw_dsc->border_color = lv_obj_get_style_border_color_filtered(obj, part);
  77:Middlewares/lvgl/src/core/lv_obj_draw.c ****             }
  78:Middlewares/lvgl/src/core/lv_obj_draw.c ****         }
  79:Middlewares/lvgl/src/core/lv_obj_draw.c ****     }
  80:Middlewares/lvgl/src/core/lv_obj_draw.c **** 
  81:Middlewares/lvgl/src/core/lv_obj_draw.c ****     draw_dsc->outline_width = lv_obj_get_style_outline_width(obj, part);
  82:Middlewares/lvgl/src/core/lv_obj_draw.c ****     if(draw_dsc->outline_width) {
  83:Middlewares/lvgl/src/core/lv_obj_draw.c ****         if(draw_dsc->outline_opa != LV_OPA_TRANSP) {
  84:Middlewares/lvgl/src/core/lv_obj_draw.c ****             draw_dsc->outline_opa = lv_obj_get_style_outline_opa(obj, part);
  85:Middlewares/lvgl/src/core/lv_obj_draw.c ****             if(draw_dsc->outline_opa > LV_OPA_MIN) {
  86:Middlewares/lvgl/src/core/lv_obj_draw.c ****                 draw_dsc->outline_pad = lv_obj_get_style_outline_pad(obj, part);
  87:Middlewares/lvgl/src/core/lv_obj_draw.c ****                 draw_dsc->outline_color = lv_obj_get_style_outline_color(obj, part);
  88:Middlewares/lvgl/src/core/lv_obj_draw.c ****             }
ARM GAS  /tmp/ccL9JfjK.s 			page 7


  89:Middlewares/lvgl/src/core/lv_obj_draw.c ****         }
  90:Middlewares/lvgl/src/core/lv_obj_draw.c ****     }
  91:Middlewares/lvgl/src/core/lv_obj_draw.c **** 
  92:Middlewares/lvgl/src/core/lv_obj_draw.c ****     if(draw_dsc->bg_img_opa != LV_OPA_TRANSP) {
  93:Middlewares/lvgl/src/core/lv_obj_draw.c ****         draw_dsc->bg_img_src = lv_obj_get_style_bg_img_src(obj, part);
  94:Middlewares/lvgl/src/core/lv_obj_draw.c ****         if(draw_dsc->bg_img_src) {
  95:Middlewares/lvgl/src/core/lv_obj_draw.c ****             draw_dsc->bg_img_opa = lv_obj_get_style_bg_img_opa(obj, part);
  96:Middlewares/lvgl/src/core/lv_obj_draw.c ****             if(draw_dsc->bg_img_opa > LV_OPA_MIN) {
  97:Middlewares/lvgl/src/core/lv_obj_draw.c ****                 if(lv_img_src_get_type(draw_dsc->bg_img_src) == LV_IMG_SRC_SYMBOL) {
  98:Middlewares/lvgl/src/core/lv_obj_draw.c ****                     draw_dsc->bg_img_symbol_font= lv_obj_get_style_text_font(obj, part);
  99:Middlewares/lvgl/src/core/lv_obj_draw.c ****                     draw_dsc->bg_img_recolor = lv_obj_get_style_text_color(obj, part);
 100:Middlewares/lvgl/src/core/lv_obj_draw.c ****                 } else {
 101:Middlewares/lvgl/src/core/lv_obj_draw.c ****                     draw_dsc->bg_img_recolor = lv_obj_get_style_bg_img_recolor(obj, part);
 102:Middlewares/lvgl/src/core/lv_obj_draw.c ****                     draw_dsc->bg_img_recolor_opa = lv_obj_get_style_bg_img_recolor_opa(obj, part);
 103:Middlewares/lvgl/src/core/lv_obj_draw.c ****                     draw_dsc->bg_img_tiled = lv_obj_get_style_bg_img_tiled(obj, part);
 104:Middlewares/lvgl/src/core/lv_obj_draw.c ****                 }
 105:Middlewares/lvgl/src/core/lv_obj_draw.c ****             }
 106:Middlewares/lvgl/src/core/lv_obj_draw.c ****         }
 107:Middlewares/lvgl/src/core/lv_obj_draw.c ****     }
 108:Middlewares/lvgl/src/core/lv_obj_draw.c **** 
 109:Middlewares/lvgl/src/core/lv_obj_draw.c ****     if(draw_dsc->shadow_opa) {
 110:Middlewares/lvgl/src/core/lv_obj_draw.c ****         draw_dsc->shadow_width = lv_obj_get_style_shadow_width(obj, part);
 111:Middlewares/lvgl/src/core/lv_obj_draw.c ****         if(draw_dsc->shadow_width) {
 112:Middlewares/lvgl/src/core/lv_obj_draw.c ****             if(draw_dsc->shadow_opa > LV_OPA_MIN) {
 113:Middlewares/lvgl/src/core/lv_obj_draw.c ****                 draw_dsc->shadow_opa = lv_obj_get_style_shadow_opa(obj, part);
 114:Middlewares/lvgl/src/core/lv_obj_draw.c ****                 if(draw_dsc->shadow_opa > LV_OPA_MIN) {
 115:Middlewares/lvgl/src/core/lv_obj_draw.c ****                     draw_dsc->shadow_ofs_x = lv_obj_get_style_shadow_ofs_x(obj, part);
 116:Middlewares/lvgl/src/core/lv_obj_draw.c ****                     draw_dsc->shadow_ofs_y = lv_obj_get_style_shadow_ofs_y(obj, part);
 117:Middlewares/lvgl/src/core/lv_obj_draw.c ****                     draw_dsc->shadow_spread = lv_obj_get_style_shadow_spread(obj, part);
 118:Middlewares/lvgl/src/core/lv_obj_draw.c ****                     draw_dsc->shadow_color = lv_obj_get_style_shadow_color_filtered(obj, part);
 119:Middlewares/lvgl/src/core/lv_obj_draw.c ****                 }
 120:Middlewares/lvgl/src/core/lv_obj_draw.c ****             }
 121:Middlewares/lvgl/src/core/lv_obj_draw.c ****         }
 122:Middlewares/lvgl/src/core/lv_obj_draw.c ****     }
 123:Middlewares/lvgl/src/core/lv_obj_draw.c **** 
 124:Middlewares/lvgl/src/core/lv_obj_draw.c ****     if(main_opa < LV_OPA_MAX) {
 125:Middlewares/lvgl/src/core/lv_obj_draw.c ****         opa = (uint16_t)((uint16_t) main_opa * opa) >> 8;
 126:Middlewares/lvgl/src/core/lv_obj_draw.c ****     }
 127:Middlewares/lvgl/src/core/lv_obj_draw.c **** 
 128:Middlewares/lvgl/src/core/lv_obj_draw.c ****     if(opa < LV_OPA_MAX) {
 129:Middlewares/lvgl/src/core/lv_obj_draw.c ****         draw_dsc->bg_opa = (uint16_t)((uint16_t)draw_dsc->bg_opa * opa) >> 8;
 130:Middlewares/lvgl/src/core/lv_obj_draw.c ****         draw_dsc->border_opa = (uint16_t)((uint16_t)draw_dsc->border_opa * opa) >> 8;
 131:Middlewares/lvgl/src/core/lv_obj_draw.c ****         draw_dsc->shadow_opa = (uint16_t)((uint16_t)draw_dsc->shadow_opa * opa) >> 8;
 132:Middlewares/lvgl/src/core/lv_obj_draw.c ****         draw_dsc->outline_opa = (uint16_t)((uint16_t)draw_dsc->outline_opa * opa) >> 8;
 133:Middlewares/lvgl/src/core/lv_obj_draw.c ****     }
 134:Middlewares/lvgl/src/core/lv_obj_draw.c **** #else /*LV_DRAW_COMPLEX*/
 135:Middlewares/lvgl/src/core/lv_obj_draw.c ****     if(draw_dsc->bg_opa != LV_OPA_TRANSP) {
 136:Middlewares/lvgl/src/core/lv_obj_draw.c ****         draw_dsc->bg_opa = lv_obj_get_style_bg_opa(obj, part);
 137:Middlewares/lvgl/src/core/lv_obj_draw.c ****         if(draw_dsc->bg_opa > LV_OPA_MIN) {
 138:Middlewares/lvgl/src/core/lv_obj_draw.c ****             draw_dsc->bg_color = lv_obj_get_style_bg_color_filtered(obj, part);
 139:Middlewares/lvgl/src/core/lv_obj_draw.c ****         }
 140:Middlewares/lvgl/src/core/lv_obj_draw.c ****     }
 141:Middlewares/lvgl/src/core/lv_obj_draw.c **** 
 142:Middlewares/lvgl/src/core/lv_obj_draw.c ****     draw_dsc->border_width = lv_obj_get_style_border_width(obj, part);
 143:Middlewares/lvgl/src/core/lv_obj_draw.c ****     if(draw_dsc->border_width) {
 144:Middlewares/lvgl/src/core/lv_obj_draw.c ****         if(draw_dsc->border_opa != LV_OPA_TRANSP) {
 145:Middlewares/lvgl/src/core/lv_obj_draw.c ****             draw_dsc->border_opa = lv_obj_get_style_border_opa(obj, part);
ARM GAS  /tmp/ccL9JfjK.s 			page 8


 146:Middlewares/lvgl/src/core/lv_obj_draw.c ****             if(draw_dsc->border_opa > LV_OPA_MIN) {
 147:Middlewares/lvgl/src/core/lv_obj_draw.c ****                 draw_dsc->border_color = lv_obj_get_style_border_color_filtered(obj, part);
 148:Middlewares/lvgl/src/core/lv_obj_draw.c ****                 draw_dsc->border_side = lv_obj_get_style_border_side(obj, part);
 149:Middlewares/lvgl/src/core/lv_obj_draw.c ****             }
 150:Middlewares/lvgl/src/core/lv_obj_draw.c ****         }
 151:Middlewares/lvgl/src/core/lv_obj_draw.c ****     }
 152:Middlewares/lvgl/src/core/lv_obj_draw.c **** 
 153:Middlewares/lvgl/src/core/lv_obj_draw.c ****     draw_dsc->outline_width = lv_obj_get_style_outline_width(obj, part);
 154:Middlewares/lvgl/src/core/lv_obj_draw.c ****     if(draw_dsc->outline_width) {
 155:Middlewares/lvgl/src/core/lv_obj_draw.c ****         if(draw_dsc->outline_opa != LV_OPA_TRANSP) {
 156:Middlewares/lvgl/src/core/lv_obj_draw.c ****             draw_dsc->outline_opa = lv_obj_get_style_outline_opa(obj, part);
 157:Middlewares/lvgl/src/core/lv_obj_draw.c ****             if(draw_dsc->outline_opa > LV_OPA_MIN) {
 158:Middlewares/lvgl/src/core/lv_obj_draw.c ****                 draw_dsc->outline_pad = lv_obj_get_style_outline_pad(obj, part);
 159:Middlewares/lvgl/src/core/lv_obj_draw.c ****                 draw_dsc->outline_color = lv_obj_get_style_outline_color(obj, part);
 160:Middlewares/lvgl/src/core/lv_obj_draw.c ****             }
 161:Middlewares/lvgl/src/core/lv_obj_draw.c ****         }
 162:Middlewares/lvgl/src/core/lv_obj_draw.c ****     }
 163:Middlewares/lvgl/src/core/lv_obj_draw.c **** 
 164:Middlewares/lvgl/src/core/lv_obj_draw.c ****     if(draw_dsc->bg_img_opa != LV_OPA_TRANSP) {
 165:Middlewares/lvgl/src/core/lv_obj_draw.c ****         draw_dsc->bg_img_src = lv_obj_get_style_bg_img_src(obj, part);
 166:Middlewares/lvgl/src/core/lv_obj_draw.c ****         if(draw_dsc->bg_img_src) {
 167:Middlewares/lvgl/src/core/lv_obj_draw.c ****             draw_dsc->bg_img_opa = lv_obj_get_style_bg_img_opa(obj, part);
 168:Middlewares/lvgl/src/core/lv_obj_draw.c ****             if(draw_dsc->bg_img_opa > LV_OPA_MIN) {
 169:Middlewares/lvgl/src/core/lv_obj_draw.c ****                 if(lv_img_src_get_type(draw_dsc->bg_img_src) == LV_IMG_SRC_SYMBOL) {
 170:Middlewares/lvgl/src/core/lv_obj_draw.c ****                    draw_dsc->bg_img_symbol_font= lv_obj_get_style_text_font(obj, part);
 171:Middlewares/lvgl/src/core/lv_obj_draw.c ****                    draw_dsc->bg_img_recolor = lv_obj_get_style_text_color(obj, part);
 172:Middlewares/lvgl/src/core/lv_obj_draw.c ****                } else {
 173:Middlewares/lvgl/src/core/lv_obj_draw.c ****                    draw_dsc->bg_img_recolor = lv_obj_get_style_bg_img_recolor(obj, part);
 174:Middlewares/lvgl/src/core/lv_obj_draw.c ****                    draw_dsc->bg_img_recolor_opa = lv_obj_get_style_bg_img_recolor_opa(obj, part);
 175:Middlewares/lvgl/src/core/lv_obj_draw.c ****                    draw_dsc->bg_img_tiled = lv_obj_get_style_bg_img_tiled(obj, part);
 176:Middlewares/lvgl/src/core/lv_obj_draw.c ****                }
 177:Middlewares/lvgl/src/core/lv_obj_draw.c ****             }
 178:Middlewares/lvgl/src/core/lv_obj_draw.c ****         }
 179:Middlewares/lvgl/src/core/lv_obj_draw.c ****     }
 180:Middlewares/lvgl/src/core/lv_obj_draw.c **** #endif
 181:Middlewares/lvgl/src/core/lv_obj_draw.c **** }
 114              		.loc 1 181 1 is_stmt 0 view .LVU31
 115 003e BDE8F081 		pop	{r4, r5, r6, r7, r8, pc}
 116              	.LVL8:
 117              	.L15:
 118              	.LBB154:
 119              	.LBI154:
 139:Middlewares/lvgl/src/core/lv_obj_style_gen.h **** {
 120              		.loc 2 139 24 is_stmt 1 view .LVU32
 121              	.LBB155:
 141:Middlewares/lvgl/src/core/lv_obj_style_gen.h ****     return (lv_opa_t)v.num;
 122              		.loc 2 141 5 view .LVU33
 141:Middlewares/lvgl/src/core/lv_obj_style_gen.h ****     return (lv_opa_t)v.num;
 123              		.loc 2 141 26 is_stmt 0 view .LVU34
 124 0042 40F26242 		movw	r2, #1122
 125 0046 2946     		mov	r1, r5
 126 0048 3046     		mov	r0, r6
 127 004a FFF7FEFF 		bl	lv_obj_get_style_prop
 128              	.LVL9:
 129              		.loc 2 142 5 is_stmt 1 view .LVU35
 130              		.loc 2 142 12 is_stmt 0 view .LVU36
 131 004e 5FFA80F8 		uxtb	r8, r0
ARM GAS  /tmp/ccL9JfjK.s 			page 9


 132              	.LVL10:
 133              		.loc 2 142 12 view .LVU37
 134              	.LBE155:
 135              	.LBE154:
 136 0052 E1E7     		b	.L2
 137              	.LVL11:
 138              	.L4:
  55:Middlewares/lvgl/src/core/lv_obj_draw.c **** 
 139              		.loc 1 55 5 is_stmt 1 view .LVU38
 140              	.LBB156:
 141              	.LBI156:
 143:Middlewares/lvgl/src/core/lv_obj_style_gen.h **** }
 144:Middlewares/lvgl/src/core/lv_obj_style_gen.h **** 
 145:Middlewares/lvgl/src/core/lv_obj_style_gen.h **** static inline const lv_color_filter_dsc_t * lv_obj_get_style_color_filter_dsc(const struct _lv_obj_
 146:Middlewares/lvgl/src/core/lv_obj_style_gen.h **** {
 147:Middlewares/lvgl/src/core/lv_obj_style_gen.h ****     lv_style_value_t v = lv_obj_get_style_prop(obj, part, LV_STYLE_COLOR_FILTER_DSC);
 148:Middlewares/lvgl/src/core/lv_obj_style_gen.h ****     return (const lv_color_filter_dsc_t *)v.ptr;
 149:Middlewares/lvgl/src/core/lv_obj_style_gen.h **** }
 150:Middlewares/lvgl/src/core/lv_obj_style_gen.h **** 
 151:Middlewares/lvgl/src/core/lv_obj_style_gen.h **** static inline lv_opa_t lv_obj_get_style_color_filter_opa(const struct _lv_obj_t * obj, uint32_t par
 152:Middlewares/lvgl/src/core/lv_obj_style_gen.h **** {
 153:Middlewares/lvgl/src/core/lv_obj_style_gen.h ****     lv_style_value_t v = lv_obj_get_style_prop(obj, part, LV_STYLE_COLOR_FILTER_OPA);
 154:Middlewares/lvgl/src/core/lv_obj_style_gen.h ****     return (lv_opa_t)v.num;
 155:Middlewares/lvgl/src/core/lv_obj_style_gen.h **** }
 156:Middlewares/lvgl/src/core/lv_obj_style_gen.h **** 
 157:Middlewares/lvgl/src/core/lv_obj_style_gen.h **** static inline uint32_t lv_obj_get_style_anim_time(const struct _lv_obj_t * obj, uint32_t part)
 158:Middlewares/lvgl/src/core/lv_obj_style_gen.h **** {
 159:Middlewares/lvgl/src/core/lv_obj_style_gen.h ****     lv_style_value_t v = lv_obj_get_style_prop(obj, part, LV_STYLE_ANIM_TIME);
 160:Middlewares/lvgl/src/core/lv_obj_style_gen.h ****     return (uint32_t)v.num;
 161:Middlewares/lvgl/src/core/lv_obj_style_gen.h **** }
 162:Middlewares/lvgl/src/core/lv_obj_style_gen.h **** 
 163:Middlewares/lvgl/src/core/lv_obj_style_gen.h **** static inline uint32_t lv_obj_get_style_anim_speed(const struct _lv_obj_t * obj, uint32_t part)
 164:Middlewares/lvgl/src/core/lv_obj_style_gen.h **** {
 165:Middlewares/lvgl/src/core/lv_obj_style_gen.h ****     lv_style_value_t v = lv_obj_get_style_prop(obj, part, LV_STYLE_ANIM_SPEED);
 166:Middlewares/lvgl/src/core/lv_obj_style_gen.h ****     return (uint32_t)v.num;
 167:Middlewares/lvgl/src/core/lv_obj_style_gen.h **** }
 168:Middlewares/lvgl/src/core/lv_obj_style_gen.h **** 
 169:Middlewares/lvgl/src/core/lv_obj_style_gen.h **** static inline const lv_style_transition_dsc_t * lv_obj_get_style_transition(const struct _lv_obj_t 
 170:Middlewares/lvgl/src/core/lv_obj_style_gen.h **** {
 171:Middlewares/lvgl/src/core/lv_obj_style_gen.h ****     lv_style_value_t v = lv_obj_get_style_prop(obj, part, LV_STYLE_TRANSITION);
 172:Middlewares/lvgl/src/core/lv_obj_style_gen.h ****     return (const lv_style_transition_dsc_t *)v.ptr;
 173:Middlewares/lvgl/src/core/lv_obj_style_gen.h **** }
 174:Middlewares/lvgl/src/core/lv_obj_style_gen.h **** 
 175:Middlewares/lvgl/src/core/lv_obj_style_gen.h **** static inline lv_blend_mode_t lv_obj_get_style_blend_mode(const struct _lv_obj_t * obj, uint32_t pa
 142              		.loc 2 175 31 view .LVU39
 143              	.LBB157:
 176:Middlewares/lvgl/src/core/lv_obj_style_gen.h **** {
 177:Middlewares/lvgl/src/core/lv_obj_style_gen.h ****     lv_style_value_t v = lv_obj_get_style_prop(obj, part, LV_STYLE_BLEND_MODE);
 144              		.loc 2 177 5 view .LVU40
 145              		.loc 2 177 26 is_stmt 0 view .LVU41
 146 0054 6822     		movs	r2, #104
 147 0056 2946     		mov	r1, r5
 148 0058 3046     		mov	r0, r6
 149 005a FFF7FEFF 		bl	lv_obj_get_style_prop
 150              	.LVL12:
 178:Middlewares/lvgl/src/core/lv_obj_style_gen.h ****     return (lv_blend_mode_t)v.num;
 151              		.loc 2 178 5 is_stmt 1 view .LVU42
ARM GAS  /tmp/ccL9JfjK.s 			page 10


 152              		.loc 2 178 5 is_stmt 0 view .LVU43
 153              	.LBE157:
 154              	.LBE156:
  55:Middlewares/lvgl/src/core/lv_obj_draw.c **** 
 155              		.loc 1 55 26 view .LVU44
 156 005e A070     		strb	r0, [r4, #2]
  57:Middlewares/lvgl/src/core/lv_obj_draw.c ****         draw_dsc->bg_opa = lv_obj_get_style_bg_opa(obj, part);
 157              		.loc 1 57 5 is_stmt 1 view .LVU45
  57:Middlewares/lvgl/src/core/lv_obj_draw.c ****         draw_dsc->bg_opa = lv_obj_get_style_bg_opa(obj, part);
 158              		.loc 1 57 16 is_stmt 0 view .LVU46
 159 0060 A37A     		ldrb	r3, [r4, #10]	@ zero_extendqisi2
  57:Middlewares/lvgl/src/core/lv_obj_draw.c ****         draw_dsc->bg_opa = lv_obj_get_style_bg_opa(obj, part);
 160              		.loc 1 57 7 view .LVU47
 161 0062 002B     		cmp	r3, #0
 162 0064 43D1     		bne	.L16
 163              	.L6:
  70:Middlewares/lvgl/src/core/lv_obj_draw.c ****     if(draw_dsc->border_width) {
 164              		.loc 1 70 5 is_stmt 1 view .LVU48
 165              	.LVL13:
 166              	.LBB158:
 167              	.LBI158:
 179:Middlewares/lvgl/src/core/lv_obj_style_gen.h **** }
 180:Middlewares/lvgl/src/core/lv_obj_style_gen.h **** 
 181:Middlewares/lvgl/src/core/lv_obj_style_gen.h **** static inline uint16_t lv_obj_get_style_layout(const struct _lv_obj_t * obj, uint32_t part)
 182:Middlewares/lvgl/src/core/lv_obj_style_gen.h **** {
 183:Middlewares/lvgl/src/core/lv_obj_style_gen.h ****     lv_style_value_t v = lv_obj_get_style_prop(obj, part, LV_STYLE_LAYOUT);
 184:Middlewares/lvgl/src/core/lv_obj_style_gen.h ****     return (uint16_t)v.num;
 185:Middlewares/lvgl/src/core/lv_obj_style_gen.h **** }
 186:Middlewares/lvgl/src/core/lv_obj_style_gen.h **** 
 187:Middlewares/lvgl/src/core/lv_obj_style_gen.h **** static inline lv_base_dir_t lv_obj_get_style_base_dir(const struct _lv_obj_t * obj, uint32_t part)
 188:Middlewares/lvgl/src/core/lv_obj_style_gen.h **** {
 189:Middlewares/lvgl/src/core/lv_obj_style_gen.h ****     lv_style_value_t v = lv_obj_get_style_prop(obj, part, LV_STYLE_BASE_DIR);
 190:Middlewares/lvgl/src/core/lv_obj_style_gen.h ****     return (lv_base_dir_t)v.num;
 191:Middlewares/lvgl/src/core/lv_obj_style_gen.h **** }
 192:Middlewares/lvgl/src/core/lv_obj_style_gen.h **** 
 193:Middlewares/lvgl/src/core/lv_obj_style_gen.h **** static inline lv_color_t lv_obj_get_style_bg_color(const struct _lv_obj_t * obj, uint32_t part)
 194:Middlewares/lvgl/src/core/lv_obj_style_gen.h **** {
 195:Middlewares/lvgl/src/core/lv_obj_style_gen.h ****     lv_style_value_t v = lv_obj_get_style_prop(obj, part, LV_STYLE_BG_COLOR);
 196:Middlewares/lvgl/src/core/lv_obj_style_gen.h ****     return v.color;
 197:Middlewares/lvgl/src/core/lv_obj_style_gen.h **** }
 198:Middlewares/lvgl/src/core/lv_obj_style_gen.h **** 
 199:Middlewares/lvgl/src/core/lv_obj_style_gen.h **** static inline lv_color_t lv_obj_get_style_bg_color_filtered(const struct _lv_obj_t * obj, uint32_t 
 200:Middlewares/lvgl/src/core/lv_obj_style_gen.h **** {
 201:Middlewares/lvgl/src/core/lv_obj_style_gen.h ****     lv_style_value_t v = lv_obj_get_style_prop(obj, part, LV_STYLE_BG_COLOR_FILTERED);
 202:Middlewares/lvgl/src/core/lv_obj_style_gen.h ****     return v.color;
 203:Middlewares/lvgl/src/core/lv_obj_style_gen.h **** }
 204:Middlewares/lvgl/src/core/lv_obj_style_gen.h **** 
 205:Middlewares/lvgl/src/core/lv_obj_style_gen.h **** static inline lv_opa_t lv_obj_get_style_bg_opa(const struct _lv_obj_t * obj, uint32_t part)
 206:Middlewares/lvgl/src/core/lv_obj_style_gen.h **** {
 207:Middlewares/lvgl/src/core/lv_obj_style_gen.h ****     lv_style_value_t v = lv_obj_get_style_prop(obj, part, LV_STYLE_BG_OPA);
 208:Middlewares/lvgl/src/core/lv_obj_style_gen.h ****     return (lv_opa_t)v.num;
 209:Middlewares/lvgl/src/core/lv_obj_style_gen.h **** }
 210:Middlewares/lvgl/src/core/lv_obj_style_gen.h **** 
 211:Middlewares/lvgl/src/core/lv_obj_style_gen.h **** static inline lv_color_t lv_obj_get_style_bg_grad_color(const struct _lv_obj_t * obj, uint32_t part
 212:Middlewares/lvgl/src/core/lv_obj_style_gen.h **** {
 213:Middlewares/lvgl/src/core/lv_obj_style_gen.h ****     lv_style_value_t v = lv_obj_get_style_prop(obj, part, LV_STYLE_BG_GRAD_COLOR);
 214:Middlewares/lvgl/src/core/lv_obj_style_gen.h ****     return v.color;
ARM GAS  /tmp/ccL9JfjK.s 			page 11


 215:Middlewares/lvgl/src/core/lv_obj_style_gen.h **** }
 216:Middlewares/lvgl/src/core/lv_obj_style_gen.h **** 
 217:Middlewares/lvgl/src/core/lv_obj_style_gen.h **** static inline lv_color_t lv_obj_get_style_bg_grad_color_filtered(const struct _lv_obj_t * obj, uint
 218:Middlewares/lvgl/src/core/lv_obj_style_gen.h **** {
 219:Middlewares/lvgl/src/core/lv_obj_style_gen.h ****     lv_style_value_t v = lv_obj_get_style_prop(obj, part, LV_STYLE_BG_GRAD_COLOR_FILTERED);
 220:Middlewares/lvgl/src/core/lv_obj_style_gen.h ****     return v.color;
 221:Middlewares/lvgl/src/core/lv_obj_style_gen.h **** }
 222:Middlewares/lvgl/src/core/lv_obj_style_gen.h **** 
 223:Middlewares/lvgl/src/core/lv_obj_style_gen.h **** static inline lv_grad_dir_t lv_obj_get_style_bg_grad_dir(const struct _lv_obj_t * obj, uint32_t par
 224:Middlewares/lvgl/src/core/lv_obj_style_gen.h **** {
 225:Middlewares/lvgl/src/core/lv_obj_style_gen.h ****     lv_style_value_t v = lv_obj_get_style_prop(obj, part, LV_STYLE_BG_GRAD_DIR);
 226:Middlewares/lvgl/src/core/lv_obj_style_gen.h ****     return (lv_grad_dir_t)v.num;
 227:Middlewares/lvgl/src/core/lv_obj_style_gen.h **** }
 228:Middlewares/lvgl/src/core/lv_obj_style_gen.h **** 
 229:Middlewares/lvgl/src/core/lv_obj_style_gen.h **** static inline lv_coord_t lv_obj_get_style_bg_main_stop(const struct _lv_obj_t * obj, uint32_t part)
 230:Middlewares/lvgl/src/core/lv_obj_style_gen.h **** {
 231:Middlewares/lvgl/src/core/lv_obj_style_gen.h ****     lv_style_value_t v = lv_obj_get_style_prop(obj, part, LV_STYLE_BG_MAIN_STOP);
 232:Middlewares/lvgl/src/core/lv_obj_style_gen.h ****     return (lv_coord_t)v.num;
 233:Middlewares/lvgl/src/core/lv_obj_style_gen.h **** }
 234:Middlewares/lvgl/src/core/lv_obj_style_gen.h **** 
 235:Middlewares/lvgl/src/core/lv_obj_style_gen.h **** static inline lv_coord_t lv_obj_get_style_bg_grad_stop(const struct _lv_obj_t * obj, uint32_t part)
 236:Middlewares/lvgl/src/core/lv_obj_style_gen.h **** {
 237:Middlewares/lvgl/src/core/lv_obj_style_gen.h ****     lv_style_value_t v = lv_obj_get_style_prop(obj, part, LV_STYLE_BG_GRAD_STOP);
 238:Middlewares/lvgl/src/core/lv_obj_style_gen.h ****     return (lv_coord_t)v.num;
 239:Middlewares/lvgl/src/core/lv_obj_style_gen.h **** }
 240:Middlewares/lvgl/src/core/lv_obj_style_gen.h **** 
 241:Middlewares/lvgl/src/core/lv_obj_style_gen.h **** static inline const void * lv_obj_get_style_bg_img_src(const struct _lv_obj_t * obj, uint32_t part)
 242:Middlewares/lvgl/src/core/lv_obj_style_gen.h **** {
 243:Middlewares/lvgl/src/core/lv_obj_style_gen.h ****     lv_style_value_t v = lv_obj_get_style_prop(obj, part, LV_STYLE_BG_IMG_SRC);
 244:Middlewares/lvgl/src/core/lv_obj_style_gen.h ****     return (const void *)v.ptr;
 245:Middlewares/lvgl/src/core/lv_obj_style_gen.h **** }
 246:Middlewares/lvgl/src/core/lv_obj_style_gen.h **** 
 247:Middlewares/lvgl/src/core/lv_obj_style_gen.h **** static inline lv_opa_t lv_obj_get_style_bg_img_opa(const struct _lv_obj_t * obj, uint32_t part)
 248:Middlewares/lvgl/src/core/lv_obj_style_gen.h **** {
 249:Middlewares/lvgl/src/core/lv_obj_style_gen.h ****     lv_style_value_t v = lv_obj_get_style_prop(obj, part, LV_STYLE_BG_IMG_OPA);
 250:Middlewares/lvgl/src/core/lv_obj_style_gen.h ****     return (lv_opa_t)v.num;
 251:Middlewares/lvgl/src/core/lv_obj_style_gen.h **** }
 252:Middlewares/lvgl/src/core/lv_obj_style_gen.h **** 
 253:Middlewares/lvgl/src/core/lv_obj_style_gen.h **** static inline lv_color_t lv_obj_get_style_bg_img_recolor(const struct _lv_obj_t * obj, uint32_t par
 254:Middlewares/lvgl/src/core/lv_obj_style_gen.h **** {
 255:Middlewares/lvgl/src/core/lv_obj_style_gen.h ****     lv_style_value_t v = lv_obj_get_style_prop(obj, part, LV_STYLE_BG_IMG_RECOLOR);
 256:Middlewares/lvgl/src/core/lv_obj_style_gen.h ****     return v.color;
 257:Middlewares/lvgl/src/core/lv_obj_style_gen.h **** }
 258:Middlewares/lvgl/src/core/lv_obj_style_gen.h **** 
 259:Middlewares/lvgl/src/core/lv_obj_style_gen.h **** static inline lv_color_t lv_obj_get_style_bg_img_recolor_filtered(const struct _lv_obj_t * obj, uin
 260:Middlewares/lvgl/src/core/lv_obj_style_gen.h **** {
 261:Middlewares/lvgl/src/core/lv_obj_style_gen.h ****     lv_style_value_t v = lv_obj_get_style_prop(obj, part, LV_STYLE_BG_IMG_RECOLOR_FILTERED);
 262:Middlewares/lvgl/src/core/lv_obj_style_gen.h ****     return v.color;
 263:Middlewares/lvgl/src/core/lv_obj_style_gen.h **** }
 264:Middlewares/lvgl/src/core/lv_obj_style_gen.h **** 
 265:Middlewares/lvgl/src/core/lv_obj_style_gen.h **** static inline lv_opa_t lv_obj_get_style_bg_img_recolor_opa(const struct _lv_obj_t * obj, uint32_t p
 266:Middlewares/lvgl/src/core/lv_obj_style_gen.h **** {
 267:Middlewares/lvgl/src/core/lv_obj_style_gen.h ****     lv_style_value_t v = lv_obj_get_style_prop(obj, part, LV_STYLE_BG_IMG_RECOLOR_OPA);
 268:Middlewares/lvgl/src/core/lv_obj_style_gen.h ****     return (lv_opa_t)v.num;
 269:Middlewares/lvgl/src/core/lv_obj_style_gen.h **** }
 270:Middlewares/lvgl/src/core/lv_obj_style_gen.h **** 
 271:Middlewares/lvgl/src/core/lv_obj_style_gen.h **** static inline bool lv_obj_get_style_bg_img_tiled(const struct _lv_obj_t * obj, uint32_t part)
ARM GAS  /tmp/ccL9JfjK.s 			page 12


 272:Middlewares/lvgl/src/core/lv_obj_style_gen.h **** {
 273:Middlewares/lvgl/src/core/lv_obj_style_gen.h ****     lv_style_value_t v = lv_obj_get_style_prop(obj, part, LV_STYLE_BG_IMG_TILED);
 274:Middlewares/lvgl/src/core/lv_obj_style_gen.h ****     return (bool)v.num;
 275:Middlewares/lvgl/src/core/lv_obj_style_gen.h **** }
 276:Middlewares/lvgl/src/core/lv_obj_style_gen.h **** 
 277:Middlewares/lvgl/src/core/lv_obj_style_gen.h **** static inline lv_color_t lv_obj_get_style_border_color(const struct _lv_obj_t * obj, uint32_t part)
 278:Middlewares/lvgl/src/core/lv_obj_style_gen.h **** {
 279:Middlewares/lvgl/src/core/lv_obj_style_gen.h ****     lv_style_value_t v = lv_obj_get_style_prop(obj, part, LV_STYLE_BORDER_COLOR);
 280:Middlewares/lvgl/src/core/lv_obj_style_gen.h ****     return v.color;
 281:Middlewares/lvgl/src/core/lv_obj_style_gen.h **** }
 282:Middlewares/lvgl/src/core/lv_obj_style_gen.h **** 
 283:Middlewares/lvgl/src/core/lv_obj_style_gen.h **** static inline lv_color_t lv_obj_get_style_border_color_filtered(const struct _lv_obj_t * obj, uint3
 284:Middlewares/lvgl/src/core/lv_obj_style_gen.h **** {
 285:Middlewares/lvgl/src/core/lv_obj_style_gen.h ****     lv_style_value_t v = lv_obj_get_style_prop(obj, part, LV_STYLE_BORDER_COLOR_FILTERED);
 286:Middlewares/lvgl/src/core/lv_obj_style_gen.h ****     return v.color;
 287:Middlewares/lvgl/src/core/lv_obj_style_gen.h **** }
 288:Middlewares/lvgl/src/core/lv_obj_style_gen.h **** 
 289:Middlewares/lvgl/src/core/lv_obj_style_gen.h **** static inline lv_opa_t lv_obj_get_style_border_opa(const struct _lv_obj_t * obj, uint32_t part)
 290:Middlewares/lvgl/src/core/lv_obj_style_gen.h **** {
 291:Middlewares/lvgl/src/core/lv_obj_style_gen.h ****     lv_style_value_t v = lv_obj_get_style_prop(obj, part, LV_STYLE_BORDER_OPA);
 292:Middlewares/lvgl/src/core/lv_obj_style_gen.h ****     return (lv_opa_t)v.num;
 293:Middlewares/lvgl/src/core/lv_obj_style_gen.h **** }
 294:Middlewares/lvgl/src/core/lv_obj_style_gen.h **** 
 295:Middlewares/lvgl/src/core/lv_obj_style_gen.h **** static inline lv_coord_t lv_obj_get_style_border_width(const struct _lv_obj_t * obj, uint32_t part)
 168              		.loc 2 295 26 view .LVU49
 169              	.LBB159:
 296:Middlewares/lvgl/src/core/lv_obj_style_gen.h **** {
 297:Middlewares/lvgl/src/core/lv_obj_style_gen.h ****     lv_style_value_t v = lv_obj_get_style_prop(obj, part, LV_STYLE_BORDER_WIDTH);
 170              		.loc 2 297 5 view .LVU50
 171              		.loc 2 297 26 is_stmt 0 view .LVU51
 172 0066 41F23202 		movw	r2, #4146
 173 006a 2946     		mov	r1, r5
 174 006c 3046     		mov	r0, r6
 175 006e FFF7FEFF 		bl	lv_obj_get_style_prop
 176              	.LVL14:
 298:Middlewares/lvgl/src/core/lv_obj_style_gen.h ****     return (lv_coord_t)v.num;
 177              		.loc 2 298 5 is_stmt 1 view .LVU52
 178              		.loc 2 298 12 is_stmt 0 view .LVU53
 179 0072 00B2     		sxth	r0, r0
 180              	.LVL15:
 181              		.loc 2 298 12 view .LVU54
 182              	.LBE159:
 183              	.LBE158:
  70:Middlewares/lvgl/src/core/lv_obj_draw.c ****     if(draw_dsc->border_width) {
 184              		.loc 1 70 28 view .LVU55
 185 0074 A083     		strh	r0, [r4, #28]	@ movhi
  71:Middlewares/lvgl/src/core/lv_obj_draw.c ****         if(draw_dsc->border_opa != LV_OPA_TRANSP) {
 186              		.loc 1 71 5 is_stmt 1 view .LVU56
  71:Middlewares/lvgl/src/core/lv_obj_draw.c ****         if(draw_dsc->border_opa != LV_OPA_TRANSP) {
 187              		.loc 1 71 7 is_stmt 0 view .LVU57
 188 0076 10B1     		cbz	r0, .L7
  72:Middlewares/lvgl/src/core/lv_obj_draw.c ****             draw_dsc->border_opa = lv_obj_get_style_border_opa(obj, part);
 189              		.loc 1 72 9 is_stmt 1 view .LVU58
  72:Middlewares/lvgl/src/core/lv_obj_draw.c ****             draw_dsc->border_opa = lv_obj_get_style_border_opa(obj, part);
 190              		.loc 1 72 20 is_stmt 0 view .LVU59
 191 0078 A37F     		ldrb	r3, [r4, #30]	@ zero_extendqisi2
  72:Middlewares/lvgl/src/core/lv_obj_draw.c ****             draw_dsc->border_opa = lv_obj_get_style_border_opa(obj, part);
ARM GAS  /tmp/ccL9JfjK.s 			page 13


 192              		.loc 1 72 11 view .LVU60
 193 007a 002B     		cmp	r3, #0
 194 007c 68D1     		bne	.L17
 195              	.L7:
  81:Middlewares/lvgl/src/core/lv_obj_draw.c ****     if(draw_dsc->outline_width) {
 196              		.loc 1 81 5 is_stmt 1 view .LVU61
 197              	.LVL16:
 198              	.LBB160:
 199              	.LBI160:
 299:Middlewares/lvgl/src/core/lv_obj_style_gen.h **** }
 300:Middlewares/lvgl/src/core/lv_obj_style_gen.h **** 
 301:Middlewares/lvgl/src/core/lv_obj_style_gen.h **** static inline lv_border_side_t lv_obj_get_style_border_side(const struct _lv_obj_t * obj, uint32_t 
 302:Middlewares/lvgl/src/core/lv_obj_style_gen.h **** {
 303:Middlewares/lvgl/src/core/lv_obj_style_gen.h ****     lv_style_value_t v = lv_obj_get_style_prop(obj, part, LV_STYLE_BORDER_SIDE);
 304:Middlewares/lvgl/src/core/lv_obj_style_gen.h ****     return (lv_border_side_t)v.num;
 305:Middlewares/lvgl/src/core/lv_obj_style_gen.h **** }
 306:Middlewares/lvgl/src/core/lv_obj_style_gen.h **** 
 307:Middlewares/lvgl/src/core/lv_obj_style_gen.h **** static inline bool lv_obj_get_style_border_post(const struct _lv_obj_t * obj, uint32_t part)
 308:Middlewares/lvgl/src/core/lv_obj_style_gen.h **** {
 309:Middlewares/lvgl/src/core/lv_obj_style_gen.h ****     lv_style_value_t v = lv_obj_get_style_prop(obj, part, LV_STYLE_BORDER_POST);
 310:Middlewares/lvgl/src/core/lv_obj_style_gen.h ****     return (bool)v.num;
 311:Middlewares/lvgl/src/core/lv_obj_style_gen.h **** }
 312:Middlewares/lvgl/src/core/lv_obj_style_gen.h **** 
 313:Middlewares/lvgl/src/core/lv_obj_style_gen.h **** static inline lv_color_t lv_obj_get_style_text_color(const struct _lv_obj_t * obj, uint32_t part)
 314:Middlewares/lvgl/src/core/lv_obj_style_gen.h **** {
 315:Middlewares/lvgl/src/core/lv_obj_style_gen.h ****     lv_style_value_t v = lv_obj_get_style_prop(obj, part, LV_STYLE_TEXT_COLOR);
 316:Middlewares/lvgl/src/core/lv_obj_style_gen.h ****     return v.color;
 317:Middlewares/lvgl/src/core/lv_obj_style_gen.h **** }
 318:Middlewares/lvgl/src/core/lv_obj_style_gen.h **** 
 319:Middlewares/lvgl/src/core/lv_obj_style_gen.h **** static inline lv_color_t lv_obj_get_style_text_color_filtered(const struct _lv_obj_t * obj, uint32_
 320:Middlewares/lvgl/src/core/lv_obj_style_gen.h **** {
 321:Middlewares/lvgl/src/core/lv_obj_style_gen.h ****     lv_style_value_t v = lv_obj_get_style_prop(obj, part, LV_STYLE_TEXT_COLOR_FILTERED);
 322:Middlewares/lvgl/src/core/lv_obj_style_gen.h ****     return v.color;
 323:Middlewares/lvgl/src/core/lv_obj_style_gen.h **** }
 324:Middlewares/lvgl/src/core/lv_obj_style_gen.h **** 
 325:Middlewares/lvgl/src/core/lv_obj_style_gen.h **** static inline lv_opa_t lv_obj_get_style_text_opa(const struct _lv_obj_t * obj, uint32_t part)
 326:Middlewares/lvgl/src/core/lv_obj_style_gen.h **** {
 327:Middlewares/lvgl/src/core/lv_obj_style_gen.h ****     lv_style_value_t v = lv_obj_get_style_prop(obj, part, LV_STYLE_TEXT_OPA);
 328:Middlewares/lvgl/src/core/lv_obj_style_gen.h ****     return (lv_opa_t)v.num;
 329:Middlewares/lvgl/src/core/lv_obj_style_gen.h **** }
 330:Middlewares/lvgl/src/core/lv_obj_style_gen.h **** 
 331:Middlewares/lvgl/src/core/lv_obj_style_gen.h **** static inline const lv_font_t * lv_obj_get_style_text_font(const struct _lv_obj_t * obj, uint32_t p
 332:Middlewares/lvgl/src/core/lv_obj_style_gen.h **** {
 333:Middlewares/lvgl/src/core/lv_obj_style_gen.h ****     lv_style_value_t v = lv_obj_get_style_prop(obj, part, LV_STYLE_TEXT_FONT);
 334:Middlewares/lvgl/src/core/lv_obj_style_gen.h ****     return (const lv_font_t *)v.ptr;
 335:Middlewares/lvgl/src/core/lv_obj_style_gen.h **** }
 336:Middlewares/lvgl/src/core/lv_obj_style_gen.h **** 
 337:Middlewares/lvgl/src/core/lv_obj_style_gen.h **** static inline lv_coord_t lv_obj_get_style_text_letter_space(const struct _lv_obj_t * obj, uint32_t 
 338:Middlewares/lvgl/src/core/lv_obj_style_gen.h **** {
 339:Middlewares/lvgl/src/core/lv_obj_style_gen.h ****     lv_style_value_t v = lv_obj_get_style_prop(obj, part, LV_STYLE_TEXT_LETTER_SPACE);
 340:Middlewares/lvgl/src/core/lv_obj_style_gen.h ****     return (lv_coord_t)v.num;
 341:Middlewares/lvgl/src/core/lv_obj_style_gen.h **** }
 342:Middlewares/lvgl/src/core/lv_obj_style_gen.h **** 
 343:Middlewares/lvgl/src/core/lv_obj_style_gen.h **** static inline lv_coord_t lv_obj_get_style_text_line_space(const struct _lv_obj_t * obj, uint32_t pa
 344:Middlewares/lvgl/src/core/lv_obj_style_gen.h **** {
 345:Middlewares/lvgl/src/core/lv_obj_style_gen.h ****     lv_style_value_t v = lv_obj_get_style_prop(obj, part, LV_STYLE_TEXT_LINE_SPACE);
 346:Middlewares/lvgl/src/core/lv_obj_style_gen.h ****     return (lv_coord_t)v.num;
ARM GAS  /tmp/ccL9JfjK.s 			page 14


 347:Middlewares/lvgl/src/core/lv_obj_style_gen.h **** }
 348:Middlewares/lvgl/src/core/lv_obj_style_gen.h **** 
 349:Middlewares/lvgl/src/core/lv_obj_style_gen.h **** static inline lv_text_decor_t lv_obj_get_style_text_decor(const struct _lv_obj_t * obj, uint32_t pa
 350:Middlewares/lvgl/src/core/lv_obj_style_gen.h **** {
 351:Middlewares/lvgl/src/core/lv_obj_style_gen.h ****     lv_style_value_t v = lv_obj_get_style_prop(obj, part, LV_STYLE_TEXT_DECOR);
 352:Middlewares/lvgl/src/core/lv_obj_style_gen.h ****     return (lv_text_decor_t)v.num;
 353:Middlewares/lvgl/src/core/lv_obj_style_gen.h **** }
 354:Middlewares/lvgl/src/core/lv_obj_style_gen.h **** 
 355:Middlewares/lvgl/src/core/lv_obj_style_gen.h **** static inline lv_text_align_t lv_obj_get_style_text_align(const struct _lv_obj_t * obj, uint32_t pa
 356:Middlewares/lvgl/src/core/lv_obj_style_gen.h **** {
 357:Middlewares/lvgl/src/core/lv_obj_style_gen.h ****     lv_style_value_t v = lv_obj_get_style_prop(obj, part, LV_STYLE_TEXT_ALIGN);
 358:Middlewares/lvgl/src/core/lv_obj_style_gen.h ****     return (lv_text_align_t)v.num;
 359:Middlewares/lvgl/src/core/lv_obj_style_gen.h **** }
 360:Middlewares/lvgl/src/core/lv_obj_style_gen.h **** 
 361:Middlewares/lvgl/src/core/lv_obj_style_gen.h **** static inline lv_opa_t lv_obj_get_style_img_opa(const struct _lv_obj_t * obj, uint32_t part)
 362:Middlewares/lvgl/src/core/lv_obj_style_gen.h **** {
 363:Middlewares/lvgl/src/core/lv_obj_style_gen.h ****     lv_style_value_t v = lv_obj_get_style_prop(obj, part, LV_STYLE_IMG_OPA);
 364:Middlewares/lvgl/src/core/lv_obj_style_gen.h ****     return (lv_opa_t)v.num;
 365:Middlewares/lvgl/src/core/lv_obj_style_gen.h **** }
 366:Middlewares/lvgl/src/core/lv_obj_style_gen.h **** 
 367:Middlewares/lvgl/src/core/lv_obj_style_gen.h **** static inline lv_color_t lv_obj_get_style_img_recolor(const struct _lv_obj_t * obj, uint32_t part)
 368:Middlewares/lvgl/src/core/lv_obj_style_gen.h **** {
 369:Middlewares/lvgl/src/core/lv_obj_style_gen.h ****     lv_style_value_t v = lv_obj_get_style_prop(obj, part, LV_STYLE_IMG_RECOLOR);
 370:Middlewares/lvgl/src/core/lv_obj_style_gen.h ****     return v.color;
 371:Middlewares/lvgl/src/core/lv_obj_style_gen.h **** }
 372:Middlewares/lvgl/src/core/lv_obj_style_gen.h **** 
 373:Middlewares/lvgl/src/core/lv_obj_style_gen.h **** static inline lv_color_t lv_obj_get_style_img_recolor_filtered(const struct _lv_obj_t * obj, uint32
 374:Middlewares/lvgl/src/core/lv_obj_style_gen.h **** {
 375:Middlewares/lvgl/src/core/lv_obj_style_gen.h ****     lv_style_value_t v = lv_obj_get_style_prop(obj, part, LV_STYLE_IMG_RECOLOR_FILTERED);
 376:Middlewares/lvgl/src/core/lv_obj_style_gen.h ****     return v.color;
 377:Middlewares/lvgl/src/core/lv_obj_style_gen.h **** }
 378:Middlewares/lvgl/src/core/lv_obj_style_gen.h **** 
 379:Middlewares/lvgl/src/core/lv_obj_style_gen.h **** static inline lv_opa_t lv_obj_get_style_img_recolor_opa(const struct _lv_obj_t * obj, uint32_t part
 380:Middlewares/lvgl/src/core/lv_obj_style_gen.h **** {
 381:Middlewares/lvgl/src/core/lv_obj_style_gen.h ****     lv_style_value_t v = lv_obj_get_style_prop(obj, part, LV_STYLE_IMG_RECOLOR_OPA);
 382:Middlewares/lvgl/src/core/lv_obj_style_gen.h ****     return (lv_opa_t)v.num;
 383:Middlewares/lvgl/src/core/lv_obj_style_gen.h **** }
 384:Middlewares/lvgl/src/core/lv_obj_style_gen.h **** 
 385:Middlewares/lvgl/src/core/lv_obj_style_gen.h **** static inline lv_coord_t lv_obj_get_style_outline_width(const struct _lv_obj_t * obj, uint32_t part
 200              		.loc 2 385 26 view .LVU62
 201              	.LBB161:
 386:Middlewares/lvgl/src/core/lv_obj_style_gen.h **** {
 387:Middlewares/lvgl/src/core/lv_obj_style_gen.h ****     lv_style_value_t v = lv_obj_get_style_prop(obj, part, LV_STYLE_OUTLINE_WIDTH);
 202              		.loc 2 387 5 view .LVU63
 203              		.loc 2 387 26 is_stmt 0 view .LVU64
 204 007e 40F63A02 		movw	r2, #2106
 205 0082 2946     		mov	r1, r5
 206 0084 3046     		mov	r0, r6
 207 0086 FFF7FEFF 		bl	lv_obj_get_style_prop
 208              	.LVL17:
 388:Middlewares/lvgl/src/core/lv_obj_style_gen.h ****     return (lv_coord_t)v.num;
 209              		.loc 2 388 5 is_stmt 1 view .LVU65
 210              		.loc 2 388 12 is_stmt 0 view .LVU66
 211 008a 00B2     		sxth	r0, r0
 212              	.LVL18:
 213              		.loc 2 388 12 view .LVU67
 214              	.LBE161:
ARM GAS  /tmp/ccL9JfjK.s 			page 15


 215              	.LBE160:
  81:Middlewares/lvgl/src/core/lv_obj_draw.c ****     if(draw_dsc->outline_width) {
 216              		.loc 1 81 29 view .LVU68
 217 008c 6084     		strh	r0, [r4, #34]	@ movhi
  82:Middlewares/lvgl/src/core/lv_obj_draw.c ****         if(draw_dsc->outline_opa != LV_OPA_TRANSP) {
 218              		.loc 1 82 5 is_stmt 1 view .LVU69
  82:Middlewares/lvgl/src/core/lv_obj_draw.c ****         if(draw_dsc->outline_opa != LV_OPA_TRANSP) {
 219              		.loc 1 82 7 is_stmt 0 view .LVU70
 220 008e 18B1     		cbz	r0, .L8
  83:Middlewares/lvgl/src/core/lv_obj_draw.c ****             draw_dsc->outline_opa = lv_obj_get_style_outline_opa(obj, part);
 221              		.loc 1 83 9 is_stmt 1 view .LVU71
  83:Middlewares/lvgl/src/core/lv_obj_draw.c ****             draw_dsc->outline_opa = lv_obj_get_style_outline_opa(obj, part);
 222              		.loc 1 83 20 is_stmt 0 view .LVU72
 223 0090 94F82630 		ldrb	r3, [r4, #38]	@ zero_extendqisi2
  83:Middlewares/lvgl/src/core/lv_obj_draw.c ****             draw_dsc->outline_opa = lv_obj_get_style_outline_opa(obj, part);
 224              		.loc 1 83 11 view .LVU73
 225 0094 002B     		cmp	r3, #0
 226 0096 75D1     		bne	.L18
 227              	.L8:
  92:Middlewares/lvgl/src/core/lv_obj_draw.c ****         draw_dsc->bg_img_src = lv_obj_get_style_bg_img_src(obj, part);
 228              		.loc 1 92 5 is_stmt 1 view .LVU74
  92:Middlewares/lvgl/src/core/lv_obj_draw.c ****         draw_dsc->bg_img_src = lv_obj_get_style_bg_img_src(obj, part);
 229              		.loc 1 92 16 is_stmt 0 view .LVU75
 230 0098 A37D     		ldrb	r3, [r4, #22]	@ zero_extendqisi2
  92:Middlewares/lvgl/src/core/lv_obj_draw.c ****         draw_dsc->bg_img_src = lv_obj_get_style_bg_img_src(obj, part);
 231              		.loc 1 92 7 view .LVU76
 232 009a 002B     		cmp	r3, #0
 233 009c 40F08C80 		bne	.L19
 234              	.LVL19:
 235              	.L9:
 109:Middlewares/lvgl/src/core/lv_obj_draw.c ****         draw_dsc->shadow_width = lv_obj_get_style_shadow_width(obj, part);
 236              		.loc 1 109 5 is_stmt 1 view .LVU77
 109:Middlewares/lvgl/src/core/lv_obj_draw.c ****         draw_dsc->shadow_width = lv_obj_get_style_shadow_width(obj, part);
 237              		.loc 1 109 16 is_stmt 0 view .LVU78
 238 00a0 94F83230 		ldrb	r3, [r4, #50]	@ zero_extendqisi2
 109:Middlewares/lvgl/src/core/lv_obj_draw.c ****         draw_dsc->shadow_width = lv_obj_get_style_shadow_width(obj, part);
 239              		.loc 1 109 7 view .LVU79
 240 00a4 002B     		cmp	r3, #0
 241 00a6 40F0C480 		bne	.L20
 242              	.L11:
 124:Middlewares/lvgl/src/core/lv_obj_draw.c ****         opa = (uint16_t)((uint16_t) main_opa * opa) >> 8;
 243              		.loc 1 124 5 is_stmt 1 view .LVU80
 124:Middlewares/lvgl/src/core/lv_obj_draw.c ****         opa = (uint16_t)((uint16_t) main_opa * opa) >> 8;
 244              		.loc 1 124 7 is_stmt 0 view .LVU81
 245 00aa B8F1FC0F 		cmp	r8, #252
 246 00ae 03D8     		bhi	.L12
 125:Middlewares/lvgl/src/core/lv_obj_draw.c ****     }
 247              		.loc 1 125 9 is_stmt 1 view .LVU82
 125:Middlewares/lvgl/src/core/lv_obj_draw.c ****     }
 248              		.loc 1 125 15 is_stmt 0 view .LVU83
 249 00b0 08FB07F7 		mul	r7, r8, r7
 250              	.LVL20:
 125:Middlewares/lvgl/src/core/lv_obj_draw.c ****     }
 251              		.loc 1 125 13 view .LVU84
 252 00b4 C7F30727 		ubfx	r7, r7, #8, #8
 253              	.LVL21:
 254              	.L12:
ARM GAS  /tmp/ccL9JfjK.s 			page 16


 128:Middlewares/lvgl/src/core/lv_obj_draw.c ****         draw_dsc->bg_opa = (uint16_t)((uint16_t)draw_dsc->bg_opa * opa) >> 8;
 255              		.loc 1 128 5 is_stmt 1 view .LVU85
 128:Middlewares/lvgl/src/core/lv_obj_draw.c ****         draw_dsc->bg_opa = (uint16_t)((uint16_t)draw_dsc->bg_opa * opa) >> 8;
 256              		.loc 1 128 7 is_stmt 0 view .LVU86
 257 00b8 FC2F     		cmp	r7, #252
 258 00ba C0D8     		bhi	.L1
 129:Middlewares/lvgl/src/core/lv_obj_draw.c ****         draw_dsc->border_opa = (uint16_t)((uint16_t)draw_dsc->border_opa * opa) >> 8;
 259              		.loc 1 129 9 is_stmt 1 view .LVU87
 129:Middlewares/lvgl/src/core/lv_obj_draw.c ****         draw_dsc->border_opa = (uint16_t)((uint16_t)draw_dsc->border_opa * opa) >> 8;
 260              		.loc 1 129 57 is_stmt 0 view .LVU88
 261 00bc A37A     		ldrb	r3, [r4, #10]	@ zero_extendqisi2
 129:Middlewares/lvgl/src/core/lv_obj_draw.c ****         draw_dsc->border_opa = (uint16_t)((uint16_t)draw_dsc->border_opa * opa) >> 8;
 262              		.loc 1 129 28 view .LVU89
 263 00be 07FB03F3 		mul	r3, r7, r3
 129:Middlewares/lvgl/src/core/lv_obj_draw.c ****         draw_dsc->border_opa = (uint16_t)((uint16_t)draw_dsc->border_opa * opa) >> 8;
 264              		.loc 1 129 26 view .LVU90
 265 00c2 1B0A     		lsrs	r3, r3, #8
 266 00c4 A372     		strb	r3, [r4, #10]
 130:Middlewares/lvgl/src/core/lv_obj_draw.c ****         draw_dsc->shadow_opa = (uint16_t)((uint16_t)draw_dsc->shadow_opa * opa) >> 8;
 267              		.loc 1 130 9 is_stmt 1 view .LVU91
 130:Middlewares/lvgl/src/core/lv_obj_draw.c ****         draw_dsc->shadow_opa = (uint16_t)((uint16_t)draw_dsc->shadow_opa * opa) >> 8;
 268              		.loc 1 130 61 is_stmt 0 view .LVU92
 269 00c6 A37F     		ldrb	r3, [r4, #30]	@ zero_extendqisi2
 130:Middlewares/lvgl/src/core/lv_obj_draw.c ****         draw_dsc->shadow_opa = (uint16_t)((uint16_t)draw_dsc->shadow_opa * opa) >> 8;
 270              		.loc 1 130 32 view .LVU93
 271 00c8 07FB03F3 		mul	r3, r7, r3
 130:Middlewares/lvgl/src/core/lv_obj_draw.c ****         draw_dsc->shadow_opa = (uint16_t)((uint16_t)draw_dsc->shadow_opa * opa) >> 8;
 272              		.loc 1 130 30 view .LVU94
 273 00cc 1B0A     		lsrs	r3, r3, #8
 274 00ce A377     		strb	r3, [r4, #30]
 131:Middlewares/lvgl/src/core/lv_obj_draw.c ****         draw_dsc->outline_opa = (uint16_t)((uint16_t)draw_dsc->outline_opa * opa) >> 8;
 275              		.loc 1 131 9 is_stmt 1 view .LVU95
 131:Middlewares/lvgl/src/core/lv_obj_draw.c ****         draw_dsc->outline_opa = (uint16_t)((uint16_t)draw_dsc->outline_opa * opa) >> 8;
 276              		.loc 1 131 61 is_stmt 0 view .LVU96
 277 00d0 94F83230 		ldrb	r3, [r4, #50]	@ zero_extendqisi2
 131:Middlewares/lvgl/src/core/lv_obj_draw.c ****         draw_dsc->outline_opa = (uint16_t)((uint16_t)draw_dsc->outline_opa * opa) >> 8;
 278              		.loc 1 131 32 view .LVU97
 279 00d4 07FB03F3 		mul	r3, r7, r3
 131:Middlewares/lvgl/src/core/lv_obj_draw.c ****         draw_dsc->outline_opa = (uint16_t)((uint16_t)draw_dsc->outline_opa * opa) >> 8;
 280              		.loc 1 131 30 view .LVU98
 281 00d8 1B0A     		lsrs	r3, r3, #8
 282 00da 84F83230 		strb	r3, [r4, #50]
 132:Middlewares/lvgl/src/core/lv_obj_draw.c ****     }
 283              		.loc 1 132 9 is_stmt 1 view .LVU99
 132:Middlewares/lvgl/src/core/lv_obj_draw.c ****     }
 284              		.loc 1 132 62 is_stmt 0 view .LVU100
 285 00de 94F82600 		ldrb	r0, [r4, #38]	@ zero_extendqisi2
 286              	.LVL22:
 132:Middlewares/lvgl/src/core/lv_obj_draw.c ****     }
 287              		.loc 1 132 33 view .LVU101
 288 00e2 00FB07F7 		mul	r7, r0, r7
 289              	.LVL23:
 132:Middlewares/lvgl/src/core/lv_obj_draw.c ****     }
 290              		.loc 1 132 31 view .LVU102
 291 00e6 3F0A     		lsrs	r7, r7, #8
 292 00e8 84F82670 		strb	r7, [r4, #38]
 293 00ec A7E7     		b	.L1
ARM GAS  /tmp/ccL9JfjK.s 			page 17


 294              	.LVL24:
 295              	.L16:
  58:Middlewares/lvgl/src/core/lv_obj_draw.c ****         if(draw_dsc->bg_opa > LV_OPA_MIN) {
 296              		.loc 1 58 9 is_stmt 1 view .LVU103
 297              	.LBB162:
 298              	.LBI162:
 205:Middlewares/lvgl/src/core/lv_obj_style_gen.h **** {
 299              		.loc 2 205 24 view .LVU104
 300              	.LBB163:
 207:Middlewares/lvgl/src/core/lv_obj_style_gen.h ****     return (lv_opa_t)v.num;
 301              		.loc 2 207 5 view .LVU105
 207:Middlewares/lvgl/src/core/lv_obj_style_gen.h ****     return (lv_opa_t)v.num;
 302              		.loc 2 207 26 is_stmt 0 view .LVU106
 303 00ee 2122     		movs	r2, #33
 304 00f0 2946     		mov	r1, r5
 305 00f2 3046     		mov	r0, r6
 306 00f4 FFF7FEFF 		bl	lv_obj_get_style_prop
 307              	.LVL25:
 208:Middlewares/lvgl/src/core/lv_obj_style_gen.h **** }
 308              		.loc 2 208 5 is_stmt 1 view .LVU107
 208:Middlewares/lvgl/src/core/lv_obj_style_gen.h **** }
 309              		.loc 2 208 12 is_stmt 0 view .LVU108
 310 00f8 C0B2     		uxtb	r0, r0
 311              	.LVL26:
 208:Middlewares/lvgl/src/core/lv_obj_style_gen.h **** }
 312              		.loc 2 208 12 view .LVU109
 313              	.LBE163:
 314              	.LBE162:
  58:Middlewares/lvgl/src/core/lv_obj_draw.c ****         if(draw_dsc->bg_opa > LV_OPA_MIN) {
 315              		.loc 1 58 26 view .LVU110
 316 00fa A072     		strb	r0, [r4, #10]
  59:Middlewares/lvgl/src/core/lv_obj_draw.c ****             draw_dsc->bg_color = lv_obj_get_style_bg_color_filtered(obj, part);
 317              		.loc 1 59 9 is_stmt 1 view .LVU111
  59:Middlewares/lvgl/src/core/lv_obj_draw.c ****             draw_dsc->bg_color = lv_obj_get_style_bg_color_filtered(obj, part);
 318              		.loc 1 59 11 is_stmt 0 view .LVU112
 319 00fc 0228     		cmp	r0, #2
 320 00fe B2D9     		bls	.L6
  60:Middlewares/lvgl/src/core/lv_obj_draw.c ****             draw_dsc->bg_grad_dir =  lv_obj_get_style_bg_grad_dir(obj, part);
 321              		.loc 1 60 13 is_stmt 1 view .LVU113
 322              	.LVL27:
 323              	.LBB164:
 324              	.LBI164:
 199:Middlewares/lvgl/src/core/lv_obj_style_gen.h **** {
 325              		.loc 2 199 26 view .LVU114
 326              	.LBB165:
 201:Middlewares/lvgl/src/core/lv_obj_style_gen.h ****     return v.color;
 327              		.loc 2 201 5 view .LVU115
 201:Middlewares/lvgl/src/core/lv_obj_style_gen.h ****     return v.color;
 328              		.loc 2 201 26 is_stmt 0 view .LVU116
 329 0100 44F22002 		movw	r2, #16416
 330 0104 2946     		mov	r1, r5
 331 0106 3046     		mov	r0, r6
 332 0108 FFF7FEFF 		bl	lv_obj_get_style_prop
 333              	.LVL28:
 202:Middlewares/lvgl/src/core/lv_obj_style_gen.h **** }
 334              		.loc 2 202 5 is_stmt 1 view .LVU117
 202:Middlewares/lvgl/src/core/lv_obj_style_gen.h **** }
ARM GAS  /tmp/ccL9JfjK.s 			page 18


 335              		.loc 2 202 5 is_stmt 0 view .LVU118
 336              	.LBE165:
 337              	.LBE164:
  60:Middlewares/lvgl/src/core/lv_obj_draw.c ****             draw_dsc->bg_grad_dir =  lv_obj_get_style_bg_grad_dir(obj, part);
 338              		.loc 1 60 34 view .LVU119
 339 010c A080     		strh	r0, [r4, #4]	@ movhi
  61:Middlewares/lvgl/src/core/lv_obj_draw.c ****             if(draw_dsc->bg_grad_dir != LV_GRAD_DIR_NONE) {
 340              		.loc 1 61 13 is_stmt 1 view .LVU120
 341              	.LVL29:
 342              	.LBB166:
 343              	.LBI166:
 223:Middlewares/lvgl/src/core/lv_obj_style_gen.h **** {
 344              		.loc 2 223 29 view .LVU121
 345              	.LBB167:
 225:Middlewares/lvgl/src/core/lv_obj_style_gen.h ****     return (lv_grad_dir_t)v.num;
 346              		.loc 2 225 5 view .LVU122
 225:Middlewares/lvgl/src/core/lv_obj_style_gen.h ****     return (lv_grad_dir_t)v.num;
 347              		.loc 2 225 26 is_stmt 0 view .LVU123
 348 010e 2322     		movs	r2, #35
 349 0110 2946     		mov	r1, r5
 350 0112 3046     		mov	r0, r6
 351 0114 FFF7FEFF 		bl	lv_obj_get_style_prop
 352              	.LVL30:
 226:Middlewares/lvgl/src/core/lv_obj_style_gen.h **** }
 353              		.loc 2 226 5 is_stmt 1 view .LVU124
 226:Middlewares/lvgl/src/core/lv_obj_style_gen.h **** }
 354              		.loc 2 226 5 is_stmt 0 view .LVU125
 355              	.LBE167:
 356              	.LBE166:
  61:Middlewares/lvgl/src/core/lv_obj_draw.c ****             if(draw_dsc->bg_grad_dir != LV_GRAD_DIR_NONE) {
 357              		.loc 1 61 35 view .LVU126
 358 0118 E37A     		ldrb	r3, [r4, #11]	@ zero_extendqisi2
 359 011a 60F30203 		bfi	r3, r0, #0, #3
 360 011e E372     		strb	r3, [r4, #11]
  62:Middlewares/lvgl/src/core/lv_obj_draw.c ****                 draw_dsc->bg_grad_color = lv_obj_get_style_bg_grad_color_filtered(obj, part);
 361              		.loc 1 62 13 is_stmt 1 view .LVU127
  62:Middlewares/lvgl/src/core/lv_obj_draw.c ****                 draw_dsc->bg_grad_color = lv_obj_get_style_bg_grad_color_filtered(obj, part);
 362              		.loc 1 62 38 is_stmt 0 view .LVU128
 363 0120 DBB2     		uxtb	r3, r3
  62:Middlewares/lvgl/src/core/lv_obj_draw.c ****                 draw_dsc->bg_grad_color = lv_obj_get_style_bg_grad_color_filtered(obj, part);
 364              		.loc 1 62 15 view .LVU129
 365 0122 13F0070F 		tst	r3, #7
 366 0126 9ED0     		beq	.L6
  63:Middlewares/lvgl/src/core/lv_obj_draw.c ****                 draw_dsc->bg_main_color_stop =  lv_obj_get_style_bg_main_stop(obj, part);
 367              		.loc 1 63 17 is_stmt 1 view .LVU130
 368              	.LVL31:
 369              	.LBB168:
 370              	.LBI168:
 217:Middlewares/lvgl/src/core/lv_obj_style_gen.h **** {
 371              		.loc 2 217 26 view .LVU131
 372              	.LBB169:
 219:Middlewares/lvgl/src/core/lv_obj_style_gen.h ****     return v.color;
 373              		.loc 2 219 5 view .LVU132
 219:Middlewares/lvgl/src/core/lv_obj_style_gen.h ****     return v.color;
 374              		.loc 2 219 26 is_stmt 0 view .LVU133
 375 0128 44F22202 		movw	r2, #16418
 376 012c 2946     		mov	r1, r5
ARM GAS  /tmp/ccL9JfjK.s 			page 19


 377 012e 3046     		mov	r0, r6
 378 0130 FFF7FEFF 		bl	lv_obj_get_style_prop
 379              	.LVL32:
 220:Middlewares/lvgl/src/core/lv_obj_style_gen.h **** }
 380              		.loc 2 220 5 is_stmt 1 view .LVU134
 220:Middlewares/lvgl/src/core/lv_obj_style_gen.h **** }
 381              		.loc 2 220 5 is_stmt 0 view .LVU135
 382              	.LBE169:
 383              	.LBE168:
  63:Middlewares/lvgl/src/core/lv_obj_draw.c ****                 draw_dsc->bg_main_color_stop =  lv_obj_get_style_bg_main_stop(obj, part);
 384              		.loc 1 63 43 view .LVU136
 385 0134 E080     		strh	r0, [r4, #6]	@ movhi
  64:Middlewares/lvgl/src/core/lv_obj_draw.c ****                 draw_dsc->bg_grad_color_stop =  lv_obj_get_style_bg_grad_stop(obj, part);
 386              		.loc 1 64 17 is_stmt 1 view .LVU137
 387              	.LVL33:
 388              	.LBB170:
 389              	.LBI170:
 229:Middlewares/lvgl/src/core/lv_obj_style_gen.h **** {
 390              		.loc 2 229 26 view .LVU138
 391              	.LBB171:
 231:Middlewares/lvgl/src/core/lv_obj_style_gen.h ****     return (lv_coord_t)v.num;
 392              		.loc 2 231 5 view .LVU139
 231:Middlewares/lvgl/src/core/lv_obj_style_gen.h ****     return (lv_coord_t)v.num;
 393              		.loc 2 231 26 is_stmt 0 view .LVU140
 394 0136 2422     		movs	r2, #36
 395 0138 2946     		mov	r1, r5
 396 013a 3046     		mov	r0, r6
 397 013c FFF7FEFF 		bl	lv_obj_get_style_prop
 398              	.LVL34:
 232:Middlewares/lvgl/src/core/lv_obj_style_gen.h **** }
 399              		.loc 2 232 5 is_stmt 1 view .LVU141
 232:Middlewares/lvgl/src/core/lv_obj_style_gen.h **** }
 400              		.loc 2 232 5 is_stmt 0 view .LVU142
 401              	.LBE171:
 402              	.LBE170:
  64:Middlewares/lvgl/src/core/lv_obj_draw.c ****                 draw_dsc->bg_grad_color_stop =  lv_obj_get_style_bg_grad_stop(obj, part);
 403              		.loc 1 64 46 view .LVU143
 404 0140 2072     		strb	r0, [r4, #8]
  65:Middlewares/lvgl/src/core/lv_obj_draw.c ****             }
 405              		.loc 1 65 17 is_stmt 1 view .LVU144
 406              	.LVL35:
 407              	.LBB172:
 408              	.LBI172:
 235:Middlewares/lvgl/src/core/lv_obj_style_gen.h **** {
 409              		.loc 2 235 26 view .LVU145
 410              	.LBB173:
 237:Middlewares/lvgl/src/core/lv_obj_style_gen.h ****     return (lv_coord_t)v.num;
 411              		.loc 2 237 5 view .LVU146
 237:Middlewares/lvgl/src/core/lv_obj_style_gen.h ****     return (lv_coord_t)v.num;
 412              		.loc 2 237 26 is_stmt 0 view .LVU147
 413 0142 2522     		movs	r2, #37
 414 0144 2946     		mov	r1, r5
 415 0146 3046     		mov	r0, r6
 416 0148 FFF7FEFF 		bl	lv_obj_get_style_prop
 417              	.LVL36:
 238:Middlewares/lvgl/src/core/lv_obj_style_gen.h **** }
 418              		.loc 2 238 5 is_stmt 1 view .LVU148
ARM GAS  /tmp/ccL9JfjK.s 			page 20


 238:Middlewares/lvgl/src/core/lv_obj_style_gen.h **** }
 419              		.loc 2 238 5 is_stmt 0 view .LVU149
 420              	.LBE173:
 421              	.LBE172:
  65:Middlewares/lvgl/src/core/lv_obj_draw.c ****             }
 422              		.loc 1 65 46 view .LVU150
 423 014c 6072     		strb	r0, [r4, #9]
 424 014e 8AE7     		b	.L6
 425              	.L17:
  73:Middlewares/lvgl/src/core/lv_obj_draw.c ****             if(draw_dsc->border_opa > LV_OPA_MIN) {
 426              		.loc 1 73 13 is_stmt 1 view .LVU151
 427              	.LVL37:
 428              	.LBB174:
 429              	.LBI174:
 289:Middlewares/lvgl/src/core/lv_obj_style_gen.h **** {
 430              		.loc 2 289 24 view .LVU152
 431              	.LBB175:
 291:Middlewares/lvgl/src/core/lv_obj_style_gen.h ****     return (lv_opa_t)v.num;
 432              		.loc 2 291 5 view .LVU153
 291:Middlewares/lvgl/src/core/lv_obj_style_gen.h ****     return (lv_opa_t)v.num;
 433              		.loc 2 291 26 is_stmt 0 view .LVU154
 434 0150 3122     		movs	r2, #49
 435 0152 2946     		mov	r1, r5
 436 0154 3046     		mov	r0, r6
 437 0156 FFF7FEFF 		bl	lv_obj_get_style_prop
 438              	.LVL38:
 292:Middlewares/lvgl/src/core/lv_obj_style_gen.h **** }
 439              		.loc 2 292 5 is_stmt 1 view .LVU155
 292:Middlewares/lvgl/src/core/lv_obj_style_gen.h **** }
 440              		.loc 2 292 12 is_stmt 0 view .LVU156
 441 015a C0B2     		uxtb	r0, r0
 442              	.LVL39:
 292:Middlewares/lvgl/src/core/lv_obj_style_gen.h **** }
 443              		.loc 2 292 12 view .LVU157
 444              	.LBE175:
 445              	.LBE174:
  73:Middlewares/lvgl/src/core/lv_obj_draw.c ****             if(draw_dsc->border_opa > LV_OPA_MIN) {
 446              		.loc 1 73 34 view .LVU158
 447 015c A077     		strb	r0, [r4, #30]
  74:Middlewares/lvgl/src/core/lv_obj_draw.c ****                 draw_dsc->border_side = lv_obj_get_style_border_side(obj, part);
 448              		.loc 1 74 13 is_stmt 1 view .LVU159
  74:Middlewares/lvgl/src/core/lv_obj_draw.c ****                 draw_dsc->border_side = lv_obj_get_style_border_side(obj, part);
 449              		.loc 1 74 15 is_stmt 0 view .LVU160
 450 015e 0228     		cmp	r0, #2
 451 0160 8DD9     		bls	.L7
  75:Middlewares/lvgl/src/core/lv_obj_draw.c ****                 draw_dsc->border_color = lv_obj_get_style_border_color_filtered(obj, part);
 452              		.loc 1 75 17 is_stmt 1 view .LVU161
 453              	.LVL40:
 454              	.LBB176:
 455              	.LBI176:
 301:Middlewares/lvgl/src/core/lv_obj_style_gen.h **** {
 456              		.loc 2 301 32 view .LVU162
 457              	.LBB177:
 303:Middlewares/lvgl/src/core/lv_obj_style_gen.h ****     return (lv_border_side_t)v.num;
 458              		.loc 2 303 5 view .LVU163
 303:Middlewares/lvgl/src/core/lv_obj_style_gen.h ****     return (lv_border_side_t)v.num;
 459              		.loc 2 303 26 is_stmt 0 view .LVU164
ARM GAS  /tmp/ccL9JfjK.s 			page 21


 460 0162 3322     		movs	r2, #51
 461 0164 2946     		mov	r1, r5
 462 0166 3046     		mov	r0, r6
 463 0168 FFF7FEFF 		bl	lv_obj_get_style_prop
 464              	.LVL41:
 304:Middlewares/lvgl/src/core/lv_obj_style_gen.h **** }
 465              		.loc 2 304 5 is_stmt 1 view .LVU165
 304:Middlewares/lvgl/src/core/lv_obj_style_gen.h **** }
 466              		.loc 2 304 5 is_stmt 0 view .LVU166
 467              	.LBE177:
 468              	.LBE176:
  75:Middlewares/lvgl/src/core/lv_obj_draw.c ****                 draw_dsc->border_color = lv_obj_get_style_border_color_filtered(obj, part);
 469              		.loc 1 75 39 view .LVU167
 470 016c E37F     		ldrb	r3, [r4, #31]	@ zero_extendqisi2
 471 016e 60F34503 		bfi	r3, r0, #1, #5
 472 0172 E377     		strb	r3, [r4, #31]
  76:Middlewares/lvgl/src/core/lv_obj_draw.c ****             }
 473              		.loc 1 76 17 is_stmt 1 view .LVU168
 474              	.LVL42:
 475              	.LBB178:
 476              	.LBI178:
 283:Middlewares/lvgl/src/core/lv_obj_style_gen.h **** {
 477              		.loc 2 283 26 view .LVU169
 478              	.LBB179:
 285:Middlewares/lvgl/src/core/lv_obj_style_gen.h ****     return v.color;
 479              		.loc 2 285 5 view .LVU170
 285:Middlewares/lvgl/src/core/lv_obj_style_gen.h ****     return v.color;
 480              		.loc 2 285 26 is_stmt 0 view .LVU171
 481 0174 44F23002 		movw	r2, #16432
 482 0178 2946     		mov	r1, r5
 483 017a 3046     		mov	r0, r6
 484 017c FFF7FEFF 		bl	lv_obj_get_style_prop
 485              	.LVL43:
 286:Middlewares/lvgl/src/core/lv_obj_style_gen.h **** }
 486              		.loc 2 286 5 is_stmt 1 view .LVU172
 286:Middlewares/lvgl/src/core/lv_obj_style_gen.h **** }
 487              		.loc 2 286 5 is_stmt 0 view .LVU173
 488              	.LBE179:
 489              	.LBE178:
  76:Middlewares/lvgl/src/core/lv_obj_draw.c ****             }
 490              		.loc 1 76 42 view .LVU174
 491 0180 6083     		strh	r0, [r4, #26]	@ movhi
 492 0182 7CE7     		b	.L7
 493              	.L18:
  84:Middlewares/lvgl/src/core/lv_obj_draw.c ****             if(draw_dsc->outline_opa > LV_OPA_MIN) {
 494              		.loc 1 84 13 is_stmt 1 view .LVU175
 495              	.LVL44:
 496              	.LBB180:
 497              	.LBI180:
 389:Middlewares/lvgl/src/core/lv_obj_style_gen.h **** }
 390:Middlewares/lvgl/src/core/lv_obj_style_gen.h **** 
 391:Middlewares/lvgl/src/core/lv_obj_style_gen.h **** static inline lv_color_t lv_obj_get_style_outline_color(const struct _lv_obj_t * obj, uint32_t part
 392:Middlewares/lvgl/src/core/lv_obj_style_gen.h **** {
 393:Middlewares/lvgl/src/core/lv_obj_style_gen.h ****     lv_style_value_t v = lv_obj_get_style_prop(obj, part, LV_STYLE_OUTLINE_COLOR);
 394:Middlewares/lvgl/src/core/lv_obj_style_gen.h ****     return v.color;
 395:Middlewares/lvgl/src/core/lv_obj_style_gen.h **** }
 396:Middlewares/lvgl/src/core/lv_obj_style_gen.h **** 
ARM GAS  /tmp/ccL9JfjK.s 			page 22


 397:Middlewares/lvgl/src/core/lv_obj_style_gen.h **** static inline lv_color_t lv_obj_get_style_outline_color_filtered(const struct _lv_obj_t * obj, uint
 398:Middlewares/lvgl/src/core/lv_obj_style_gen.h **** {
 399:Middlewares/lvgl/src/core/lv_obj_style_gen.h ****     lv_style_value_t v = lv_obj_get_style_prop(obj, part, LV_STYLE_OUTLINE_COLOR_FILTERED);
 400:Middlewares/lvgl/src/core/lv_obj_style_gen.h ****     return v.color;
 401:Middlewares/lvgl/src/core/lv_obj_style_gen.h **** }
 402:Middlewares/lvgl/src/core/lv_obj_style_gen.h **** 
 403:Middlewares/lvgl/src/core/lv_obj_style_gen.h **** static inline lv_opa_t lv_obj_get_style_outline_opa(const struct _lv_obj_t * obj, uint32_t part)
 498              		.loc 2 403 24 view .LVU176
 499              	.LBB181:
 404:Middlewares/lvgl/src/core/lv_obj_style_gen.h **** {
 405:Middlewares/lvgl/src/core/lv_obj_style_gen.h ****     lv_style_value_t v = lv_obj_get_style_prop(obj, part, LV_STYLE_OUTLINE_OPA);
 500              		.loc 2 405 5 view .LVU177
 501              		.loc 2 405 26 is_stmt 0 view .LVU178
 502 0184 40F63C02 		movw	r2, #2108
 503 0188 2946     		mov	r1, r5
 504 018a 3046     		mov	r0, r6
 505 018c FFF7FEFF 		bl	lv_obj_get_style_prop
 506              	.LVL45:
 406:Middlewares/lvgl/src/core/lv_obj_style_gen.h ****     return (lv_opa_t)v.num;
 507              		.loc 2 406 5 is_stmt 1 view .LVU179
 508              		.loc 2 406 12 is_stmt 0 view .LVU180
 509 0190 C0B2     		uxtb	r0, r0
 510              	.LVL46:
 511              		.loc 2 406 12 view .LVU181
 512              	.LBE181:
 513              	.LBE180:
  84:Middlewares/lvgl/src/core/lv_obj_draw.c ****             if(draw_dsc->outline_opa > LV_OPA_MIN) {
 514              		.loc 1 84 35 view .LVU182
 515 0192 84F82600 		strb	r0, [r4, #38]
  85:Middlewares/lvgl/src/core/lv_obj_draw.c ****                 draw_dsc->outline_pad = lv_obj_get_style_outline_pad(obj, part);
 516              		.loc 1 85 13 is_stmt 1 view .LVU183
  85:Middlewares/lvgl/src/core/lv_obj_draw.c ****                 draw_dsc->outline_pad = lv_obj_get_style_outline_pad(obj, part);
 517              		.loc 1 85 15 is_stmt 0 view .LVU184
 518 0196 0228     		cmp	r0, #2
 519 0198 7FF67EAF 		bls	.L8
  86:Middlewares/lvgl/src/core/lv_obj_draw.c ****                 draw_dsc->outline_color = lv_obj_get_style_outline_color(obj, part);
 520              		.loc 1 86 17 is_stmt 1 view .LVU185
 521              	.LVL47:
 522              	.LBB182:
 523              	.LBI182:
 407:Middlewares/lvgl/src/core/lv_obj_style_gen.h **** }
 408:Middlewares/lvgl/src/core/lv_obj_style_gen.h **** 
 409:Middlewares/lvgl/src/core/lv_obj_style_gen.h **** static inline lv_coord_t lv_obj_get_style_outline_pad(const struct _lv_obj_t * obj, uint32_t part)
 524              		.loc 2 409 26 view .LVU186
 525              	.LBB183:
 410:Middlewares/lvgl/src/core/lv_obj_style_gen.h **** {
 411:Middlewares/lvgl/src/core/lv_obj_style_gen.h ****     lv_style_value_t v = lv_obj_get_style_prop(obj, part, LV_STYLE_OUTLINE_PAD);
 526              		.loc 2 411 5 view .LVU187
 527              		.loc 2 411 26 is_stmt 0 view .LVU188
 528 019c 40F63D02 		movw	r2, #2109
 529 01a0 2946     		mov	r1, r5
 530 01a2 3046     		mov	r0, r6
 531 01a4 FFF7FEFF 		bl	lv_obj_get_style_prop
 532              	.LVL48:
 412:Middlewares/lvgl/src/core/lv_obj_style_gen.h ****     return (lv_coord_t)v.num;
 533              		.loc 2 412 5 is_stmt 1 view .LVU189
 534              		.loc 2 412 5 is_stmt 0 view .LVU190
ARM GAS  /tmp/ccL9JfjK.s 			page 23


 535              	.LBE183:
 536              	.LBE182:
  86:Middlewares/lvgl/src/core/lv_obj_draw.c ****                 draw_dsc->outline_color = lv_obj_get_style_outline_color(obj, part);
 537              		.loc 1 86 39 view .LVU191
 538 01a8 A084     		strh	r0, [r4, #36]	@ movhi
  87:Middlewares/lvgl/src/core/lv_obj_draw.c ****             }
 539              		.loc 1 87 17 is_stmt 1 view .LVU192
 540              	.LVL49:
 541              	.LBB184:
 542              	.LBI184:
 391:Middlewares/lvgl/src/core/lv_obj_style_gen.h **** {
 543              		.loc 2 391 26 view .LVU193
 544              	.LBB185:
 393:Middlewares/lvgl/src/core/lv_obj_style_gen.h ****     return v.color;
 545              		.loc 2 393 5 view .LVU194
 393:Middlewares/lvgl/src/core/lv_obj_style_gen.h ****     return v.color;
 546              		.loc 2 393 26 is_stmt 0 view .LVU195
 547 01aa 3B22     		movs	r2, #59
 548 01ac 2946     		mov	r1, r5
 549 01ae 3046     		mov	r0, r6
 550 01b0 FFF7FEFF 		bl	lv_obj_get_style_prop
 551              	.LVL50:
 394:Middlewares/lvgl/src/core/lv_obj_style_gen.h **** }
 552              		.loc 2 394 5 is_stmt 1 view .LVU196
 394:Middlewares/lvgl/src/core/lv_obj_style_gen.h **** }
 553              		.loc 2 394 5 is_stmt 0 view .LVU197
 554              	.LBE185:
 555              	.LBE184:
  87:Middlewares/lvgl/src/core/lv_obj_draw.c ****             }
 556              		.loc 1 87 43 view .LVU198
 557 01b4 2084     		strh	r0, [r4, #32]	@ movhi
 558 01b6 6FE7     		b	.L8
 559              	.L19:
  93:Middlewares/lvgl/src/core/lv_obj_draw.c ****         if(draw_dsc->bg_img_src) {
 560              		.loc 1 93 9 is_stmt 1 view .LVU199
 561              	.LVL51:
 562              	.LBB186:
 563              	.LBI186:
 241:Middlewares/lvgl/src/core/lv_obj_style_gen.h **** {
 564              		.loc 2 241 28 view .LVU200
 565              	.LBB187:
 243:Middlewares/lvgl/src/core/lv_obj_style_gen.h ****     return (const void *)v.ptr;
 566              		.loc 2 243 5 view .LVU201
 243:Middlewares/lvgl/src/core/lv_obj_style_gen.h ****     return (const void *)v.ptr;
 567              		.loc 2 243 26 is_stmt 0 view .LVU202
 568 01b8 2622     		movs	r2, #38
 569 01ba 2946     		mov	r1, r5
 570 01bc 3046     		mov	r0, r6
 571 01be FFF7FEFF 		bl	lv_obj_get_style_prop
 572              	.LVL52:
 244:Middlewares/lvgl/src/core/lv_obj_style_gen.h **** }
 573              		.loc 2 244 5 is_stmt 1 view .LVU203
 244:Middlewares/lvgl/src/core/lv_obj_style_gen.h **** }
 574              		.loc 2 244 5 is_stmt 0 view .LVU204
 575              	.LBE187:
 576              	.LBE186:
  93:Middlewares/lvgl/src/core/lv_obj_draw.c ****         if(draw_dsc->bg_img_src) {
ARM GAS  /tmp/ccL9JfjK.s 			page 24


 577              		.loc 1 93 30 view .LVU205
 578 01c2 E060     		str	r0, [r4, #12]
  94:Middlewares/lvgl/src/core/lv_obj_draw.c ****             draw_dsc->bg_img_opa = lv_obj_get_style_bg_img_opa(obj, part);
 579              		.loc 1 94 9 is_stmt 1 view .LVU206
  94:Middlewares/lvgl/src/core/lv_obj_draw.c ****             draw_dsc->bg_img_opa = lv_obj_get_style_bg_img_opa(obj, part);
 580              		.loc 1 94 11 is_stmt 0 view .LVU207
 581 01c4 0028     		cmp	r0, #0
 582 01c6 3FF46BAF 		beq	.L9
  95:Middlewares/lvgl/src/core/lv_obj_draw.c ****             if(draw_dsc->bg_img_opa > LV_OPA_MIN) {
 583              		.loc 1 95 13 is_stmt 1 view .LVU208
 584              	.LVL53:
 585              	.LBB188:
 586              	.LBI188:
 247:Middlewares/lvgl/src/core/lv_obj_style_gen.h **** {
 587              		.loc 2 247 24 view .LVU209
 588              	.LBB189:
 249:Middlewares/lvgl/src/core/lv_obj_style_gen.h ****     return (lv_opa_t)v.num;
 589              		.loc 2 249 5 view .LVU210
 249:Middlewares/lvgl/src/core/lv_obj_style_gen.h ****     return (lv_opa_t)v.num;
 590              		.loc 2 249 26 is_stmt 0 view .LVU211
 591 01ca 2722     		movs	r2, #39
 592 01cc 2946     		mov	r1, r5
 593 01ce 3046     		mov	r0, r6
 594              	.LVL54:
 249:Middlewares/lvgl/src/core/lv_obj_style_gen.h ****     return (lv_opa_t)v.num;
 595              		.loc 2 249 26 view .LVU212
 596 01d0 FFF7FEFF 		bl	lv_obj_get_style_prop
 597              	.LVL55:
 250:Middlewares/lvgl/src/core/lv_obj_style_gen.h **** }
 598              		.loc 2 250 5 is_stmt 1 view .LVU213
 250:Middlewares/lvgl/src/core/lv_obj_style_gen.h **** }
 599              		.loc 2 250 12 is_stmt 0 view .LVU214
 600 01d4 C0B2     		uxtb	r0, r0
 601              	.LVL56:
 250:Middlewares/lvgl/src/core/lv_obj_style_gen.h **** }
 602              		.loc 2 250 12 view .LVU215
 603              	.LBE189:
 604              	.LBE188:
  95:Middlewares/lvgl/src/core/lv_obj_draw.c ****             if(draw_dsc->bg_img_opa > LV_OPA_MIN) {
 605              		.loc 1 95 34 view .LVU216
 606 01d6 A075     		strb	r0, [r4, #22]
  96:Middlewares/lvgl/src/core/lv_obj_draw.c ****                 if(lv_img_src_get_type(draw_dsc->bg_img_src) == LV_IMG_SRC_SYMBOL) {
 607              		.loc 1 96 13 is_stmt 1 view .LVU217
  96:Middlewares/lvgl/src/core/lv_obj_draw.c ****                 if(lv_img_src_get_type(draw_dsc->bg_img_src) == LV_IMG_SRC_SYMBOL) {
 608              		.loc 1 96 15 is_stmt 0 view .LVU218
 609 01d8 0228     		cmp	r0, #2
 610 01da 7FF661AF 		bls	.L9
  97:Middlewares/lvgl/src/core/lv_obj_draw.c ****                     draw_dsc->bg_img_symbol_font= lv_obj_get_style_text_font(obj, part);
 611              		.loc 1 97 17 is_stmt 1 view .LVU219
  97:Middlewares/lvgl/src/core/lv_obj_draw.c ****                     draw_dsc->bg_img_symbol_font= lv_obj_get_style_text_font(obj, part);
 612              		.loc 1 97 20 is_stmt 0 view .LVU220
 613 01de E068     		ldr	r0, [r4, #12]
 614 01e0 FFF7FEFF 		bl	lv_img_src_get_type
 615              	.LVL57:
  97:Middlewares/lvgl/src/core/lv_obj_draw.c ****                     draw_dsc->bg_img_symbol_font= lv_obj_get_style_text_font(obj, part);
 616              		.loc 1 97 19 view .LVU221
 617 01e4 0228     		cmp	r0, #2
ARM GAS  /tmp/ccL9JfjK.s 			page 25


 618 01e6 15D0     		beq	.L21
 101:Middlewares/lvgl/src/core/lv_obj_draw.c ****                     draw_dsc->bg_img_recolor_opa = lv_obj_get_style_bg_img_recolor_opa(obj, part);
 619              		.loc 1 101 21 is_stmt 1 view .LVU222
 620              	.LVL58:
 621              	.LBB190:
 622              	.LBI190:
 253:Middlewares/lvgl/src/core/lv_obj_style_gen.h **** {
 623              		.loc 2 253 26 view .LVU223
 624              	.LBB191:
 255:Middlewares/lvgl/src/core/lv_obj_style_gen.h ****     return v.color;
 625              		.loc 2 255 5 view .LVU224
 255:Middlewares/lvgl/src/core/lv_obj_style_gen.h ****     return v.color;
 626              		.loc 2 255 26 is_stmt 0 view .LVU225
 627 01e8 2822     		movs	r2, #40
 628 01ea 2946     		mov	r1, r5
 629 01ec 3046     		mov	r0, r6
 630 01ee FFF7FEFF 		bl	lv_obj_get_style_prop
 631              	.LVL59:
 256:Middlewares/lvgl/src/core/lv_obj_style_gen.h **** }
 632              		.loc 2 256 5 is_stmt 1 view .LVU226
 256:Middlewares/lvgl/src/core/lv_obj_style_gen.h **** }
 633              		.loc 2 256 5 is_stmt 0 view .LVU227
 634              	.LBE191:
 635              	.LBE190:
 101:Middlewares/lvgl/src/core/lv_obj_draw.c ****                     draw_dsc->bg_img_recolor_opa = lv_obj_get_style_bg_img_recolor_opa(obj, part);
 636              		.loc 1 101 48 view .LVU228
 637 01f2 A082     		strh	r0, [r4, #20]	@ movhi
 102:Middlewares/lvgl/src/core/lv_obj_draw.c ****                     draw_dsc->bg_img_tiled = lv_obj_get_style_bg_img_tiled(obj, part);
 638              		.loc 1 102 21 is_stmt 1 view .LVU229
 639              	.LVL60:
 640              	.LBB192:
 641              	.LBI192:
 265:Middlewares/lvgl/src/core/lv_obj_style_gen.h **** {
 642              		.loc 2 265 24 view .LVU230
 643              	.LBB193:
 267:Middlewares/lvgl/src/core/lv_obj_style_gen.h ****     return (lv_opa_t)v.num;
 644              		.loc 2 267 5 view .LVU231
 267:Middlewares/lvgl/src/core/lv_obj_style_gen.h ****     return (lv_opa_t)v.num;
 645              		.loc 2 267 26 is_stmt 0 view .LVU232
 646 01f4 2922     		movs	r2, #41
 647 01f6 2946     		mov	r1, r5
 648 01f8 3046     		mov	r0, r6
 649 01fa FFF7FEFF 		bl	lv_obj_get_style_prop
 650              	.LVL61:
 268:Middlewares/lvgl/src/core/lv_obj_style_gen.h **** }
 651              		.loc 2 268 5 is_stmt 1 view .LVU233
 268:Middlewares/lvgl/src/core/lv_obj_style_gen.h **** }
 652              		.loc 2 268 5 is_stmt 0 view .LVU234
 653              	.LBE193:
 654              	.LBE192:
 102:Middlewares/lvgl/src/core/lv_obj_draw.c ****                     draw_dsc->bg_img_tiled = lv_obj_get_style_bg_img_tiled(obj, part);
 655              		.loc 1 102 50 view .LVU235
 656 01fe E075     		strb	r0, [r4, #23]
 103:Middlewares/lvgl/src/core/lv_obj_draw.c ****                 }
 657              		.loc 1 103 21 is_stmt 1 view .LVU236
 658              	.LVL62:
 659              	.LBB194:
ARM GAS  /tmp/ccL9JfjK.s 			page 26


 660              	.LBI194:
 271:Middlewares/lvgl/src/core/lv_obj_style_gen.h **** {
 661              		.loc 2 271 20 view .LVU237
 662              	.LBB195:
 273:Middlewares/lvgl/src/core/lv_obj_style_gen.h ****     return (bool)v.num;
 663              		.loc 2 273 5 view .LVU238
 273:Middlewares/lvgl/src/core/lv_obj_style_gen.h ****     return (bool)v.num;
 664              		.loc 2 273 26 is_stmt 0 view .LVU239
 665 0200 2A22     		movs	r2, #42
 666 0202 2946     		mov	r1, r5
 667 0204 3046     		mov	r0, r6
 668 0206 FFF7FEFF 		bl	lv_obj_get_style_prop
 669              	.LVL63:
 274:Middlewares/lvgl/src/core/lv_obj_style_gen.h **** }
 670              		.loc 2 274 5 is_stmt 1 view .LVU240
 274:Middlewares/lvgl/src/core/lv_obj_style_gen.h **** }
 671              		.loc 2 274 12 is_stmt 0 view .LVU241
 672 020a 031E     		subs	r3, r0, #0
 673 020c 18BF     		it	ne
 674 020e 0123     		movne	r3, #1
 675              	.LVL64:
 274:Middlewares/lvgl/src/core/lv_obj_style_gen.h **** }
 676              		.loc 2 274 12 view .LVU242
 677              	.LBE195:
 678              	.LBE194:
 103:Middlewares/lvgl/src/core/lv_obj_draw.c ****                 }
 679              		.loc 1 103 44 view .LVU243
 680 0210 2376     		strb	r3, [r4, #24]
 681 0212 45E7     		b	.L9
 682              	.L21:
  98:Middlewares/lvgl/src/core/lv_obj_draw.c ****                     draw_dsc->bg_img_recolor = lv_obj_get_style_text_color(obj, part);
 683              		.loc 1 98 21 is_stmt 1 view .LVU244
 684              	.LVL65:
 685              	.LBB196:
 686              	.LBI196:
 331:Middlewares/lvgl/src/core/lv_obj_style_gen.h **** {
 687              		.loc 2 331 33 view .LVU245
 688              	.LBB197:
 333:Middlewares/lvgl/src/core/lv_obj_style_gen.h ****     return (const lv_font_t *)v.ptr;
 689              		.loc 2 333 5 view .LVU246
 333:Middlewares/lvgl/src/core/lv_obj_style_gen.h ****     return (const lv_font_t *)v.ptr;
 690              		.loc 2 333 26 is_stmt 0 view .LVU247
 691 0214 41F25942 		movw	r2, #5209
 692 0218 2946     		mov	r1, r5
 693 021a 3046     		mov	r0, r6
 694 021c FFF7FEFF 		bl	lv_obj_get_style_prop
 695              	.LVL66:
 334:Middlewares/lvgl/src/core/lv_obj_style_gen.h **** }
 696              		.loc 2 334 5 is_stmt 1 view .LVU248
 334:Middlewares/lvgl/src/core/lv_obj_style_gen.h **** }
 697              		.loc 2 334 5 is_stmt 0 view .LVU249
 698              	.LBE197:
 699              	.LBE196:
  98:Middlewares/lvgl/src/core/lv_obj_draw.c ****                     draw_dsc->bg_img_recolor = lv_obj_get_style_text_color(obj, part);
 700              		.loc 1 98 49 view .LVU250
 701 0220 2061     		str	r0, [r4, #16]
  99:Middlewares/lvgl/src/core/lv_obj_draw.c ****                 } else {
ARM GAS  /tmp/ccL9JfjK.s 			page 27


 702              		.loc 1 99 21 is_stmt 1 view .LVU251
 703              	.LVL67:
 704              	.LBB198:
 705              	.LBI198:
 313:Middlewares/lvgl/src/core/lv_obj_style_gen.h **** {
 706              		.loc 2 313 26 view .LVU252
 707              	.LBB199:
 315:Middlewares/lvgl/src/core/lv_obj_style_gen.h ****     return v.color;
 708              		.loc 2 315 5 view .LVU253
 315:Middlewares/lvgl/src/core/lv_obj_style_gen.h ****     return v.color;
 709              		.loc 2 315 26 is_stmt 0 view .LVU254
 710 0222 40F25742 		movw	r2, #1111
 711 0226 2946     		mov	r1, r5
 712 0228 3046     		mov	r0, r6
 713 022a FFF7FEFF 		bl	lv_obj_get_style_prop
 714              	.LVL68:
 316:Middlewares/lvgl/src/core/lv_obj_style_gen.h **** }
 715              		.loc 2 316 5 is_stmt 1 view .LVU255
 316:Middlewares/lvgl/src/core/lv_obj_style_gen.h **** }
 716              		.loc 2 316 5 is_stmt 0 view .LVU256
 717              	.LBE199:
 718              	.LBE198:
  99:Middlewares/lvgl/src/core/lv_obj_draw.c ****                 } else {
 719              		.loc 1 99 48 view .LVU257
 720 022e A082     		strh	r0, [r4, #20]	@ movhi
 721 0230 36E7     		b	.L9
 722              	.LVL69:
 723              	.L20:
 110:Middlewares/lvgl/src/core/lv_obj_draw.c ****         if(draw_dsc->shadow_width) {
 724              		.loc 1 110 9 is_stmt 1 view .LVU258
 725              	.LBB200:
 726              	.LBI200:
 413:Middlewares/lvgl/src/core/lv_obj_style_gen.h **** }
 414:Middlewares/lvgl/src/core/lv_obj_style_gen.h **** 
 415:Middlewares/lvgl/src/core/lv_obj_style_gen.h **** static inline lv_coord_t lv_obj_get_style_shadow_width(const struct _lv_obj_t * obj, uint32_t part)
 727              		.loc 2 415 26 view .LVU259
 728              	.LBB201:
 416:Middlewares/lvgl/src/core/lv_obj_style_gen.h **** {
 417:Middlewares/lvgl/src/core/lv_obj_style_gen.h ****     lv_style_value_t v = lv_obj_get_style_prop(obj, part, LV_STYLE_SHADOW_WIDTH);
 729              		.loc 2 417 5 view .LVU260
 730              		.loc 2 417 26 is_stmt 0 view .LVU261
 731 0232 4FF40462 		mov	r2, #2112
 732 0236 2946     		mov	r1, r5
 733 0238 3046     		mov	r0, r6
 734              	.LVL70:
 735              		.loc 2 417 26 view .LVU262
 736 023a FFF7FEFF 		bl	lv_obj_get_style_prop
 737              	.LVL71:
 418:Middlewares/lvgl/src/core/lv_obj_style_gen.h ****     return (lv_coord_t)v.num;
 738              		.loc 2 418 5 is_stmt 1 view .LVU263
 739              		.loc 2 418 12 is_stmt 0 view .LVU264
 740 023e 00B2     		sxth	r0, r0
 741              	.LVL72:
 742              		.loc 2 418 12 view .LVU265
 743              	.LBE201:
 744              	.LBE200:
 110:Middlewares/lvgl/src/core/lv_obj_draw.c ****         if(draw_dsc->shadow_width) {
ARM GAS  /tmp/ccL9JfjK.s 			page 28


 745              		.loc 1 110 32 view .LVU266
 746 0240 6085     		strh	r0, [r4, #42]	@ movhi
 111:Middlewares/lvgl/src/core/lv_obj_draw.c ****             if(draw_dsc->shadow_opa > LV_OPA_MIN) {
 747              		.loc 1 111 9 is_stmt 1 view .LVU267
 111:Middlewares/lvgl/src/core/lv_obj_draw.c ****             if(draw_dsc->shadow_opa > LV_OPA_MIN) {
 748              		.loc 1 111 11 is_stmt 0 view .LVU268
 749 0242 0028     		cmp	r0, #0
 750 0244 3FF431AF 		beq	.L11
 112:Middlewares/lvgl/src/core/lv_obj_draw.c ****                 draw_dsc->shadow_opa = lv_obj_get_style_shadow_opa(obj, part);
 751              		.loc 1 112 13 is_stmt 1 view .LVU269
 112:Middlewares/lvgl/src/core/lv_obj_draw.c ****                 draw_dsc->shadow_opa = lv_obj_get_style_shadow_opa(obj, part);
 752              		.loc 1 112 24 is_stmt 0 view .LVU270
 753 0248 94F83230 		ldrb	r3, [r4, #50]	@ zero_extendqisi2
 112:Middlewares/lvgl/src/core/lv_obj_draw.c ****                 draw_dsc->shadow_opa = lv_obj_get_style_shadow_opa(obj, part);
 754              		.loc 1 112 15 view .LVU271
 755 024c 022B     		cmp	r3, #2
 756 024e 7FF62CAF 		bls	.L11
 113:Middlewares/lvgl/src/core/lv_obj_draw.c ****                 if(draw_dsc->shadow_opa > LV_OPA_MIN) {
 757              		.loc 1 113 17 is_stmt 1 view .LVU272
 758              	.LVL73:
 759              	.LBB202:
 760              	.LBI202:
 419:Middlewares/lvgl/src/core/lv_obj_style_gen.h **** }
 420:Middlewares/lvgl/src/core/lv_obj_style_gen.h **** 
 421:Middlewares/lvgl/src/core/lv_obj_style_gen.h **** static inline lv_coord_t lv_obj_get_style_shadow_ofs_x(const struct _lv_obj_t * obj, uint32_t part)
 422:Middlewares/lvgl/src/core/lv_obj_style_gen.h **** {
 423:Middlewares/lvgl/src/core/lv_obj_style_gen.h ****     lv_style_value_t v = lv_obj_get_style_prop(obj, part, LV_STYLE_SHADOW_OFS_X);
 424:Middlewares/lvgl/src/core/lv_obj_style_gen.h ****     return (lv_coord_t)v.num;
 425:Middlewares/lvgl/src/core/lv_obj_style_gen.h **** }
 426:Middlewares/lvgl/src/core/lv_obj_style_gen.h **** 
 427:Middlewares/lvgl/src/core/lv_obj_style_gen.h **** static inline lv_coord_t lv_obj_get_style_shadow_ofs_y(const struct _lv_obj_t * obj, uint32_t part)
 428:Middlewares/lvgl/src/core/lv_obj_style_gen.h **** {
 429:Middlewares/lvgl/src/core/lv_obj_style_gen.h ****     lv_style_value_t v = lv_obj_get_style_prop(obj, part, LV_STYLE_SHADOW_OFS_Y);
 430:Middlewares/lvgl/src/core/lv_obj_style_gen.h ****     return (lv_coord_t)v.num;
 431:Middlewares/lvgl/src/core/lv_obj_style_gen.h **** }
 432:Middlewares/lvgl/src/core/lv_obj_style_gen.h **** 
 433:Middlewares/lvgl/src/core/lv_obj_style_gen.h **** static inline lv_coord_t lv_obj_get_style_shadow_spread(const struct _lv_obj_t * obj, uint32_t part
 434:Middlewares/lvgl/src/core/lv_obj_style_gen.h **** {
 435:Middlewares/lvgl/src/core/lv_obj_style_gen.h ****     lv_style_value_t v = lv_obj_get_style_prop(obj, part, LV_STYLE_SHADOW_SPREAD);
 436:Middlewares/lvgl/src/core/lv_obj_style_gen.h ****     return (lv_coord_t)v.num;
 437:Middlewares/lvgl/src/core/lv_obj_style_gen.h **** }
 438:Middlewares/lvgl/src/core/lv_obj_style_gen.h **** 
 439:Middlewares/lvgl/src/core/lv_obj_style_gen.h **** static inline lv_color_t lv_obj_get_style_shadow_color(const struct _lv_obj_t * obj, uint32_t part)
 440:Middlewares/lvgl/src/core/lv_obj_style_gen.h **** {
 441:Middlewares/lvgl/src/core/lv_obj_style_gen.h ****     lv_style_value_t v = lv_obj_get_style_prop(obj, part, LV_STYLE_SHADOW_COLOR);
 442:Middlewares/lvgl/src/core/lv_obj_style_gen.h ****     return v.color;
 443:Middlewares/lvgl/src/core/lv_obj_style_gen.h **** }
 444:Middlewares/lvgl/src/core/lv_obj_style_gen.h **** 
 445:Middlewares/lvgl/src/core/lv_obj_style_gen.h **** static inline lv_color_t lv_obj_get_style_shadow_color_filtered(const struct _lv_obj_t * obj, uint3
 446:Middlewares/lvgl/src/core/lv_obj_style_gen.h **** {
 447:Middlewares/lvgl/src/core/lv_obj_style_gen.h ****     lv_style_value_t v = lv_obj_get_style_prop(obj, part, LV_STYLE_SHADOW_COLOR_FILTERED);
 448:Middlewares/lvgl/src/core/lv_obj_style_gen.h ****     return v.color;
 449:Middlewares/lvgl/src/core/lv_obj_style_gen.h **** }
 450:Middlewares/lvgl/src/core/lv_obj_style_gen.h **** 
 451:Middlewares/lvgl/src/core/lv_obj_style_gen.h **** static inline lv_opa_t lv_obj_get_style_shadow_opa(const struct _lv_obj_t * obj, uint32_t part)
 761              		.loc 2 451 24 view .LVU273
 762              	.LBB203:
ARM GAS  /tmp/ccL9JfjK.s 			page 29


 452:Middlewares/lvgl/src/core/lv_obj_style_gen.h **** {
 453:Middlewares/lvgl/src/core/lv_obj_style_gen.h ****     lv_style_value_t v = lv_obj_get_style_prop(obj, part, LV_STYLE_SHADOW_OPA);
 763              		.loc 2 453 5 view .LVU274
 764              		.loc 2 453 26 is_stmt 0 view .LVU275
 765 0252 40F64502 		movw	r2, #2117
 766 0256 2946     		mov	r1, r5
 767 0258 3046     		mov	r0, r6
 768 025a FFF7FEFF 		bl	lv_obj_get_style_prop
 769              	.LVL74:
 454:Middlewares/lvgl/src/core/lv_obj_style_gen.h ****     return (lv_opa_t)v.num;
 770              		.loc 2 454 5 is_stmt 1 view .LVU276
 771              		.loc 2 454 12 is_stmt 0 view .LVU277
 772 025e C0B2     		uxtb	r0, r0
 773              	.LVL75:
 774              		.loc 2 454 12 view .LVU278
 775              	.LBE203:
 776              	.LBE202:
 113:Middlewares/lvgl/src/core/lv_obj_draw.c ****                 if(draw_dsc->shadow_opa > LV_OPA_MIN) {
 777              		.loc 1 113 38 view .LVU279
 778 0260 84F83200 		strb	r0, [r4, #50]
 114:Middlewares/lvgl/src/core/lv_obj_draw.c ****                     draw_dsc->shadow_ofs_x = lv_obj_get_style_shadow_ofs_x(obj, part);
 779              		.loc 1 114 17 is_stmt 1 view .LVU280
 114:Middlewares/lvgl/src/core/lv_obj_draw.c ****                     draw_dsc->shadow_ofs_x = lv_obj_get_style_shadow_ofs_x(obj, part);
 780              		.loc 1 114 19 is_stmt 0 view .LVU281
 781 0264 0228     		cmp	r0, #2
 782 0266 7FF620AF 		bls	.L11
 115:Middlewares/lvgl/src/core/lv_obj_draw.c ****                     draw_dsc->shadow_ofs_y = lv_obj_get_style_shadow_ofs_y(obj, part);
 783              		.loc 1 115 21 is_stmt 1 view .LVU282
 784              	.LVL76:
 785              	.LBB204:
 786              	.LBI204:
 421:Middlewares/lvgl/src/core/lv_obj_style_gen.h **** {
 787              		.loc 2 421 26 view .LVU283
 788              	.LBB205:
 423:Middlewares/lvgl/src/core/lv_obj_style_gen.h ****     return (lv_coord_t)v.num;
 789              		.loc 2 423 5 view .LVU284
 423:Middlewares/lvgl/src/core/lv_obj_style_gen.h ****     return (lv_coord_t)v.num;
 790              		.loc 2 423 26 is_stmt 0 view .LVU285
 791 026a 40F64102 		movw	r2, #2113
 792 026e 2946     		mov	r1, r5
 793 0270 3046     		mov	r0, r6
 794 0272 FFF7FEFF 		bl	lv_obj_get_style_prop
 795              	.LVL77:
 424:Middlewares/lvgl/src/core/lv_obj_style_gen.h **** }
 796              		.loc 2 424 5 is_stmt 1 view .LVU286
 424:Middlewares/lvgl/src/core/lv_obj_style_gen.h **** }
 797              		.loc 2 424 5 is_stmt 0 view .LVU287
 798              	.LBE205:
 799              	.LBE204:
 115:Middlewares/lvgl/src/core/lv_obj_draw.c ****                     draw_dsc->shadow_ofs_y = lv_obj_get_style_shadow_ofs_y(obj, part);
 800              		.loc 1 115 44 view .LVU288
 801 0276 A085     		strh	r0, [r4, #44]	@ movhi
 116:Middlewares/lvgl/src/core/lv_obj_draw.c ****                     draw_dsc->shadow_spread = lv_obj_get_style_shadow_spread(obj, part);
 802              		.loc 1 116 21 is_stmt 1 view .LVU289
 803              	.LVL78:
 804              	.LBB206:
 805              	.LBI206:
ARM GAS  /tmp/ccL9JfjK.s 			page 30


 427:Middlewares/lvgl/src/core/lv_obj_style_gen.h **** {
 806              		.loc 2 427 26 view .LVU290
 807              	.LBB207:
 429:Middlewares/lvgl/src/core/lv_obj_style_gen.h ****     return (lv_coord_t)v.num;
 808              		.loc 2 429 5 view .LVU291
 429:Middlewares/lvgl/src/core/lv_obj_style_gen.h ****     return (lv_coord_t)v.num;
 809              		.loc 2 429 26 is_stmt 0 view .LVU292
 810 0278 40F64202 		movw	r2, #2114
 811 027c 2946     		mov	r1, r5
 812 027e 3046     		mov	r0, r6
 813 0280 FFF7FEFF 		bl	lv_obj_get_style_prop
 814              	.LVL79:
 430:Middlewares/lvgl/src/core/lv_obj_style_gen.h **** }
 815              		.loc 2 430 5 is_stmt 1 view .LVU293
 430:Middlewares/lvgl/src/core/lv_obj_style_gen.h **** }
 816              		.loc 2 430 5 is_stmt 0 view .LVU294
 817              	.LBE207:
 818              	.LBE206:
 116:Middlewares/lvgl/src/core/lv_obj_draw.c ****                     draw_dsc->shadow_spread = lv_obj_get_style_shadow_spread(obj, part);
 819              		.loc 1 116 44 view .LVU295
 820 0284 E085     		strh	r0, [r4, #46]	@ movhi
 117:Middlewares/lvgl/src/core/lv_obj_draw.c ****                     draw_dsc->shadow_color = lv_obj_get_style_shadow_color_filtered(obj, part);
 821              		.loc 1 117 21 is_stmt 1 view .LVU296
 822              	.LVL80:
 823              	.LBB208:
 824              	.LBI208:
 433:Middlewares/lvgl/src/core/lv_obj_style_gen.h **** {
 825              		.loc 2 433 26 view .LVU297
 826              	.LBB209:
 435:Middlewares/lvgl/src/core/lv_obj_style_gen.h ****     return (lv_coord_t)v.num;
 827              		.loc 2 435 5 view .LVU298
 435:Middlewares/lvgl/src/core/lv_obj_style_gen.h ****     return (lv_coord_t)v.num;
 828              		.loc 2 435 26 is_stmt 0 view .LVU299
 829 0286 40F64302 		movw	r2, #2115
 830 028a 2946     		mov	r1, r5
 831 028c 3046     		mov	r0, r6
 832 028e FFF7FEFF 		bl	lv_obj_get_style_prop
 833              	.LVL81:
 436:Middlewares/lvgl/src/core/lv_obj_style_gen.h **** }
 834              		.loc 2 436 5 is_stmt 1 view .LVU300
 436:Middlewares/lvgl/src/core/lv_obj_style_gen.h **** }
 835              		.loc 2 436 5 is_stmt 0 view .LVU301
 836              	.LBE209:
 837              	.LBE208:
 117:Middlewares/lvgl/src/core/lv_obj_draw.c ****                     draw_dsc->shadow_color = lv_obj_get_style_shadow_color_filtered(obj, part);
 838              		.loc 1 117 45 view .LVU302
 839 0292 2086     		strh	r0, [r4, #48]	@ movhi
 118:Middlewares/lvgl/src/core/lv_obj_draw.c ****                 }
 840              		.loc 1 118 21 is_stmt 1 view .LVU303
 841              	.LVL82:
 842              	.LBB210:
 843              	.LBI210:
 445:Middlewares/lvgl/src/core/lv_obj_style_gen.h **** {
 844              		.loc 2 445 26 view .LVU304
 845              	.LBB211:
 447:Middlewares/lvgl/src/core/lv_obj_style_gen.h ****     return v.color;
 846              		.loc 2 447 5 view .LVU305
ARM GAS  /tmp/ccL9JfjK.s 			page 31


 447:Middlewares/lvgl/src/core/lv_obj_style_gen.h ****     return v.color;
 847              		.loc 2 447 26 is_stmt 0 view .LVU306
 848 0294 44F24402 		movw	r2, #16452
 849 0298 2946     		mov	r1, r5
 850 029a 3046     		mov	r0, r6
 851 029c FFF7FEFF 		bl	lv_obj_get_style_prop
 852              	.LVL83:
 448:Middlewares/lvgl/src/core/lv_obj_style_gen.h **** }
 853              		.loc 2 448 5 is_stmt 1 view .LVU307
 448:Middlewares/lvgl/src/core/lv_obj_style_gen.h **** }
 854              		.loc 2 448 5 is_stmt 0 view .LVU308
 855              	.LBE211:
 856              	.LBE210:
 118:Middlewares/lvgl/src/core/lv_obj_draw.c ****                 }
 857              		.loc 1 118 46 view .LVU309
 858 02a0 2085     		strh	r0, [r4, #40]	@ movhi
 859 02a2 02E7     		b	.L11
 860              		.cfi_endproc
 861              	.LFE153:
 863              		.section	.text.lv_obj_init_draw_label_dsc,"ax",%progbits
 864              		.align	1
 865              		.global	lv_obj_init_draw_label_dsc
 866              		.syntax unified
 867              		.thumb
 868              		.thumb_func
 869              		.fpu softvfp
 871              	lv_obj_init_draw_label_dsc:
 872              	.LVL84:
 873              	.LFB154:
 182:Middlewares/lvgl/src/core/lv_obj_draw.c **** 
 183:Middlewares/lvgl/src/core/lv_obj_draw.c **** void lv_obj_init_draw_label_dsc(lv_obj_t * obj, uint32_t part, lv_draw_label_dsc_t * draw_dsc)
 184:Middlewares/lvgl/src/core/lv_obj_draw.c **** {
 874              		.loc 1 184 1 is_stmt 1 view -0
 875              		.cfi_startproc
 876              		@ args = 0, pretend = 0, frame = 0
 877              		@ frame_needed = 0, uses_anonymous_args = 0
 878              		.loc 1 184 1 is_stmt 0 view .LVU311
 879 0000 70B5     		push	{r4, r5, r6, lr}
 880              	.LCFI1:
 881              		.cfi_def_cfa_offset 16
 882              		.cfi_offset 4, -16
 883              		.cfi_offset 5, -12
 884              		.cfi_offset 6, -8
 885              		.cfi_offset 14, -4
 886 0002 0546     		mov	r5, r0
 887 0004 0E46     		mov	r6, r1
 888 0006 1446     		mov	r4, r2
 185:Middlewares/lvgl/src/core/lv_obj_draw.c ****     draw_dsc->opa = lv_obj_get_style_text_opa(obj, part);
 889              		.loc 1 185 5 is_stmt 1 view .LVU312
 890              	.LVL85:
 891              	.LBB212:
 892              	.LBI212:
 325:Middlewares/lvgl/src/core/lv_obj_style_gen.h **** {
 893              		.loc 2 325 24 view .LVU313
 894              	.LBB213:
 327:Middlewares/lvgl/src/core/lv_obj_style_gen.h ****     return (lv_opa_t)v.num;
 895              		.loc 2 327 5 view .LVU314
ARM GAS  /tmp/ccL9JfjK.s 			page 32


 327:Middlewares/lvgl/src/core/lv_obj_style_gen.h ****     return (lv_opa_t)v.num;
 896              		.loc 2 327 26 is_stmt 0 view .LVU315
 897 0008 4FF48B62 		mov	r2, #1112
 898              	.LVL86:
 327:Middlewares/lvgl/src/core/lv_obj_style_gen.h ****     return (lv_opa_t)v.num;
 899              		.loc 2 327 26 view .LVU316
 900 000c FFF7FEFF 		bl	lv_obj_get_style_prop
 901              	.LVL87:
 328:Middlewares/lvgl/src/core/lv_obj_style_gen.h **** }
 902              		.loc 2 328 5 is_stmt 1 view .LVU317
 328:Middlewares/lvgl/src/core/lv_obj_style_gen.h **** }
 903              		.loc 2 328 12 is_stmt 0 view .LVU318
 904 0010 C3B2     		uxtb	r3, r0
 905              	.LVL88:
 328:Middlewares/lvgl/src/core/lv_obj_style_gen.h **** }
 906              		.loc 2 328 12 view .LVU319
 907              	.LBE213:
 908              	.LBE212:
 909              		.loc 1 185 19 view .LVU320
 910 0012 A376     		strb	r3, [r4, #26]
 186:Middlewares/lvgl/src/core/lv_obj_draw.c ****     if(draw_dsc->opa <= LV_OPA_MIN) return;
 911              		.loc 1 186 5 is_stmt 1 view .LVU321
 912              		.loc 1 186 7 is_stmt 0 view .LVU322
 913 0014 022B     		cmp	r3, #2
 914 0016 00D8     		bhi	.L27
 915              	.L22:
 187:Middlewares/lvgl/src/core/lv_obj_draw.c **** 
 188:Middlewares/lvgl/src/core/lv_obj_draw.c ****     lv_opa_t opa = lv_obj_get_style_opa(obj, part);
 189:Middlewares/lvgl/src/core/lv_obj_draw.c ****     if(opa < LV_OPA_MAX) {
 190:Middlewares/lvgl/src/core/lv_obj_draw.c ****         draw_dsc->opa = (uint16_t)((uint16_t)draw_dsc->opa * opa) >> 8;
 191:Middlewares/lvgl/src/core/lv_obj_draw.c ****     }
 192:Middlewares/lvgl/src/core/lv_obj_draw.c ****     if(draw_dsc->opa <= LV_OPA_MIN) return;
 193:Middlewares/lvgl/src/core/lv_obj_draw.c **** 
 194:Middlewares/lvgl/src/core/lv_obj_draw.c ****     draw_dsc->color = lv_obj_get_style_text_color_filtered(obj, part);
 195:Middlewares/lvgl/src/core/lv_obj_draw.c ****     draw_dsc->letter_space = lv_obj_get_style_text_letter_space(obj, part);
 196:Middlewares/lvgl/src/core/lv_obj_draw.c ****     draw_dsc->line_space = lv_obj_get_style_text_line_space(obj, part);
 197:Middlewares/lvgl/src/core/lv_obj_draw.c ****     draw_dsc->decor = lv_obj_get_style_text_decor(obj, part);
 198:Middlewares/lvgl/src/core/lv_obj_draw.c **** #if LV_DRAW_COMPLEX
 199:Middlewares/lvgl/src/core/lv_obj_draw.c ****     draw_dsc->blend_mode = lv_obj_get_style_blend_mode(obj, part);
 200:Middlewares/lvgl/src/core/lv_obj_draw.c **** #endif
 201:Middlewares/lvgl/src/core/lv_obj_draw.c **** 
 202:Middlewares/lvgl/src/core/lv_obj_draw.c ****     draw_dsc->font = lv_obj_get_style_text_font(obj, part);
 203:Middlewares/lvgl/src/core/lv_obj_draw.c **** 
 204:Middlewares/lvgl/src/core/lv_obj_draw.c **** #if LV_USE_BIDI
 205:Middlewares/lvgl/src/core/lv_obj_draw.c ****     draw_dsc->bidi_dir = lv_obj_get_style_base_dir(obj, LV_PART_MAIN);
 206:Middlewares/lvgl/src/core/lv_obj_draw.c **** #endif
 207:Middlewares/lvgl/src/core/lv_obj_draw.c **** 
 208:Middlewares/lvgl/src/core/lv_obj_draw.c ****     draw_dsc->align = lv_obj_get_style_text_align(obj, part);
 209:Middlewares/lvgl/src/core/lv_obj_draw.c ****     if(draw_dsc->align == LV_TEXT_ALIGN_AUTO) {
 210:Middlewares/lvgl/src/core/lv_obj_draw.c ****         if(draw_dsc->bidi_dir == LV_BASE_DIR_RTL) draw_dsc->align = LV_TEXT_ALIGN_RIGHT;
 211:Middlewares/lvgl/src/core/lv_obj_draw.c ****         else draw_dsc->align = LV_TEXT_ALIGN_LEFT;
 212:Middlewares/lvgl/src/core/lv_obj_draw.c ****     }
 213:Middlewares/lvgl/src/core/lv_obj_draw.c **** }
 916              		.loc 1 213 1 view .LVU323
 917 0018 70BD     		pop	{r4, r5, r6, pc}
 918              	.LVL89:
 919              	.L27:
ARM GAS  /tmp/ccL9JfjK.s 			page 33


 188:Middlewares/lvgl/src/core/lv_obj_draw.c ****     if(opa < LV_OPA_MAX) {
 920              		.loc 1 188 5 is_stmt 1 view .LVU324
 921              	.LBB214:
 922              	.LBI214:
 139:Middlewares/lvgl/src/core/lv_obj_style_gen.h **** {
 923              		.loc 2 139 24 view .LVU325
 924              	.LBB215:
 141:Middlewares/lvgl/src/core/lv_obj_style_gen.h ****     return (lv_opa_t)v.num;
 925              		.loc 2 141 5 view .LVU326
 141:Middlewares/lvgl/src/core/lv_obj_style_gen.h ****     return (lv_opa_t)v.num;
 926              		.loc 2 141 26 is_stmt 0 view .LVU327
 927 001a 40F26242 		movw	r2, #1122
 928 001e 3146     		mov	r1, r6
 929 0020 2846     		mov	r0, r5
 930 0022 FFF7FEFF 		bl	lv_obj_get_style_prop
 931              	.LVL90:
 142:Middlewares/lvgl/src/core/lv_obj_style_gen.h **** }
 932              		.loc 2 142 5 is_stmt 1 view .LVU328
 142:Middlewares/lvgl/src/core/lv_obj_style_gen.h **** }
 933              		.loc 2 142 12 is_stmt 0 view .LVU329
 934 0026 C3B2     		uxtb	r3, r0
 935              	.LVL91:
 142:Middlewares/lvgl/src/core/lv_obj_style_gen.h **** }
 936              		.loc 2 142 12 view .LVU330
 937              	.LBE215:
 938              	.LBE214:
 189:Middlewares/lvgl/src/core/lv_obj_draw.c ****         draw_dsc->opa = (uint16_t)((uint16_t)draw_dsc->opa * opa) >> 8;
 939              		.loc 1 189 5 is_stmt 1 view .LVU331
 189:Middlewares/lvgl/src/core/lv_obj_draw.c ****         draw_dsc->opa = (uint16_t)((uint16_t)draw_dsc->opa * opa) >> 8;
 940              		.loc 1 189 7 is_stmt 0 view .LVU332
 941 0028 FC2B     		cmp	r3, #252
 942 002a 04D8     		bhi	.L24
 190:Middlewares/lvgl/src/core/lv_obj_draw.c ****     }
 943              		.loc 1 190 9 is_stmt 1 view .LVU333
 190:Middlewares/lvgl/src/core/lv_obj_draw.c ****     }
 944              		.loc 1 190 54 is_stmt 0 view .LVU334
 945 002c A07E     		ldrb	r0, [r4, #26]	@ zero_extendqisi2
 190:Middlewares/lvgl/src/core/lv_obj_draw.c ****     }
 946              		.loc 1 190 25 view .LVU335
 947 002e 00FB03F3 		mul	r3, r0, r3
 948              	.LVL92:
 190:Middlewares/lvgl/src/core/lv_obj_draw.c ****     }
 949              		.loc 1 190 23 view .LVU336
 950 0032 1B0A     		lsrs	r3, r3, #8
 951 0034 A376     		strb	r3, [r4, #26]
 952              	.L24:
 192:Middlewares/lvgl/src/core/lv_obj_draw.c **** 
 953              		.loc 1 192 5 is_stmt 1 view .LVU337
 192:Middlewares/lvgl/src/core/lv_obj_draw.c **** 
 954              		.loc 1 192 16 is_stmt 0 view .LVU338
 955 0036 A37E     		ldrb	r3, [r4, #26]	@ zero_extendqisi2
 192:Middlewares/lvgl/src/core/lv_obj_draw.c **** 
 956              		.loc 1 192 7 view .LVU339
 957 0038 022B     		cmp	r3, #2
 958 003a EDD9     		bls	.L22
 194:Middlewares/lvgl/src/core/lv_obj_draw.c ****     draw_dsc->letter_space = lv_obj_get_style_text_letter_space(obj, part);
 959              		.loc 1 194 5 is_stmt 1 view .LVU340
ARM GAS  /tmp/ccL9JfjK.s 			page 34


 960              	.LVL93:
 961              	.LBB216:
 962              	.LBI216:
 319:Middlewares/lvgl/src/core/lv_obj_style_gen.h **** {
 963              		.loc 2 319 26 view .LVU341
 964              	.LBB217:
 321:Middlewares/lvgl/src/core/lv_obj_style_gen.h ****     return v.color;
 965              		.loc 2 321 5 view .LVU342
 321:Middlewares/lvgl/src/core/lv_obj_style_gen.h ****     return v.color;
 966              		.loc 2 321 26 is_stmt 0 view .LVU343
 967 003c 44F25742 		movw	r2, #17495
 968 0040 3146     		mov	r1, r6
 969 0042 2846     		mov	r0, r5
 970 0044 FFF7FEFF 		bl	lv_obj_get_style_prop
 971              	.LVL94:
 322:Middlewares/lvgl/src/core/lv_obj_style_gen.h **** }
 972              		.loc 2 322 5 is_stmt 1 view .LVU344
 322:Middlewares/lvgl/src/core/lv_obj_style_gen.h **** }
 973              		.loc 2 322 5 is_stmt 0 view .LVU345
 974              	.LBE217:
 975              	.LBE216:
 194:Middlewares/lvgl/src/core/lv_obj_draw.c ****     draw_dsc->letter_space = lv_obj_get_style_text_letter_space(obj, part);
 976              		.loc 1 194 23 view .LVU346
 977 0048 A081     		strh	r0, [r4, #12]	@ movhi
 195:Middlewares/lvgl/src/core/lv_obj_draw.c ****     draw_dsc->line_space = lv_obj_get_style_text_line_space(obj, part);
 978              		.loc 1 195 5 is_stmt 1 view .LVU347
 979              	.LVL95:
 980              	.LBB218:
 981              	.LBI218:
 337:Middlewares/lvgl/src/core/lv_obj_style_gen.h **** {
 982              		.loc 2 337 26 view .LVU348
 983              	.LBB219:
 339:Middlewares/lvgl/src/core/lv_obj_style_gen.h ****     return (lv_coord_t)v.num;
 984              		.loc 2 339 5 view .LVU349
 339:Middlewares/lvgl/src/core/lv_obj_style_gen.h ****     return (lv_coord_t)v.num;
 985              		.loc 2 339 26 is_stmt 0 view .LVU350
 986 004a 41F25A42 		movw	r2, #5210
 987 004e 3146     		mov	r1, r6
 988 0050 2846     		mov	r0, r5
 989 0052 FFF7FEFF 		bl	lv_obj_get_style_prop
 990              	.LVL96:
 340:Middlewares/lvgl/src/core/lv_obj_style_gen.h **** }
 991              		.loc 2 340 5 is_stmt 1 view .LVU351
 340:Middlewares/lvgl/src/core/lv_obj_style_gen.h **** }
 992              		.loc 2 340 5 is_stmt 0 view .LVU352
 993              	.LBE219:
 994              	.LBE218:
 195:Middlewares/lvgl/src/core/lv_obj_draw.c ****     draw_dsc->line_space = lv_obj_get_style_text_line_space(obj, part);
 995              		.loc 1 195 28 view .LVU353
 996 0056 A082     		strh	r0, [r4, #20]	@ movhi
 196:Middlewares/lvgl/src/core/lv_obj_draw.c ****     draw_dsc->decor = lv_obj_get_style_text_decor(obj, part);
 997              		.loc 1 196 5 is_stmt 1 view .LVU354
 998              	.LVL97:
 999              	.LBB220:
 1000              	.LBI220:
 343:Middlewares/lvgl/src/core/lv_obj_style_gen.h **** {
 1001              		.loc 2 343 26 view .LVU355
ARM GAS  /tmp/ccL9JfjK.s 			page 35


 1002              	.LBB221:
 345:Middlewares/lvgl/src/core/lv_obj_style_gen.h ****     return (lv_coord_t)v.num;
 1003              		.loc 2 345 5 view .LVU356
 345:Middlewares/lvgl/src/core/lv_obj_style_gen.h ****     return (lv_coord_t)v.num;
 1004              		.loc 2 345 26 is_stmt 0 view .LVU357
 1005 0058 41F25B42 		movw	r2, #5211
 1006 005c 3146     		mov	r1, r6
 1007 005e 2846     		mov	r0, r5
 1008 0060 FFF7FEFF 		bl	lv_obj_get_style_prop
 1009              	.LVL98:
 346:Middlewares/lvgl/src/core/lv_obj_style_gen.h **** }
 1010              		.loc 2 346 5 is_stmt 1 view .LVU358
 346:Middlewares/lvgl/src/core/lv_obj_style_gen.h **** }
 1011              		.loc 2 346 5 is_stmt 0 view .LVU359
 1012              	.LBE221:
 1013              	.LBE220:
 196:Middlewares/lvgl/src/core/lv_obj_draw.c ****     draw_dsc->decor = lv_obj_get_style_text_decor(obj, part);
 1014              		.loc 1 196 26 view .LVU360
 1015 0064 6082     		strh	r0, [r4, #18]	@ movhi
 197:Middlewares/lvgl/src/core/lv_obj_draw.c **** #if LV_DRAW_COMPLEX
 1016              		.loc 1 197 5 is_stmt 1 view .LVU361
 1017              	.LVL99:
 1018              	.LBB222:
 1019              	.LBI222:
 349:Middlewares/lvgl/src/core/lv_obj_style_gen.h **** {
 1020              		.loc 2 349 31 view .LVU362
 1021              	.LBB223:
 351:Middlewares/lvgl/src/core/lv_obj_style_gen.h ****     return (lv_text_decor_t)v.num;
 1022              		.loc 2 351 5 view .LVU363
 351:Middlewares/lvgl/src/core/lv_obj_style_gen.h ****     return (lv_text_decor_t)v.num;
 1023              		.loc 2 351 26 is_stmt 0 view .LVU364
 1024 0066 40F25C42 		movw	r2, #1116
 1025 006a 3146     		mov	r1, r6
 1026 006c 2846     		mov	r0, r5
 1027 006e FFF7FEFF 		bl	lv_obj_get_style_prop
 1028              	.LVL100:
 352:Middlewares/lvgl/src/core/lv_obj_style_gen.h **** }
 1029              		.loc 2 352 5 is_stmt 1 view .LVU365
 352:Middlewares/lvgl/src/core/lv_obj_style_gen.h **** }
 1030              		.loc 2 352 5 is_stmt 0 view .LVU366
 1031              	.LBE223:
 1032              	.LBE222:
 197:Middlewares/lvgl/src/core/lv_obj_draw.c **** #if LV_DRAW_COMPLEX
 1033              		.loc 1 197 21 view .LVU367
 1034 0072 637F     		ldrb	r3, [r4, #29]	@ zero_extendqisi2
 1035 0074 60F38403 		bfi	r3, r0, #2, #3
 1036 0078 6377     		strb	r3, [r4, #29]
 199:Middlewares/lvgl/src/core/lv_obj_draw.c **** #endif
 1037              		.loc 1 199 5 is_stmt 1 view .LVU368
 1038              	.LVL101:
 1039              	.LBB224:
 1040              	.LBI224:
 175:Middlewares/lvgl/src/core/lv_obj_style_gen.h **** {
 1041              		.loc 2 175 31 view .LVU369
 1042              	.LBB225:
 177:Middlewares/lvgl/src/core/lv_obj_style_gen.h ****     return (lv_blend_mode_t)v.num;
 1043              		.loc 2 177 5 view .LVU370
ARM GAS  /tmp/ccL9JfjK.s 			page 36


 177:Middlewares/lvgl/src/core/lv_obj_style_gen.h ****     return (lv_blend_mode_t)v.num;
 1044              		.loc 2 177 26 is_stmt 0 view .LVU371
 1045 007a 6822     		movs	r2, #104
 1046 007c 3146     		mov	r1, r6
 1047 007e 2846     		mov	r0, r5
 1048 0080 FFF7FEFF 		bl	lv_obj_get_style_prop
 1049              	.LVL102:
 178:Middlewares/lvgl/src/core/lv_obj_style_gen.h **** }
 1050              		.loc 2 178 5 is_stmt 1 view .LVU372
 178:Middlewares/lvgl/src/core/lv_obj_style_gen.h **** }
 1051              		.loc 2 178 5 is_stmt 0 view .LVU373
 1052              	.LBE225:
 1053              	.LBE224:
 199:Middlewares/lvgl/src/core/lv_obj_draw.c **** #endif
 1054              		.loc 1 199 26 view .LVU374
 1055 0084 637F     		ldrb	r3, [r4, #29]	@ zero_extendqisi2
 1056 0086 60F34713 		bfi	r3, r0, #5, #3
 1057 008a 6377     		strb	r3, [r4, #29]
 202:Middlewares/lvgl/src/core/lv_obj_draw.c **** 
 1058              		.loc 1 202 5 is_stmt 1 view .LVU375
 1059              	.LVL103:
 1060              	.LBB226:
 1061              	.LBI226:
 331:Middlewares/lvgl/src/core/lv_obj_style_gen.h **** {
 1062              		.loc 2 331 33 view .LVU376
 1063              	.LBB227:
 333:Middlewares/lvgl/src/core/lv_obj_style_gen.h ****     return (const lv_font_t *)v.ptr;
 1064              		.loc 2 333 5 view .LVU377
 333:Middlewares/lvgl/src/core/lv_obj_style_gen.h ****     return (const lv_font_t *)v.ptr;
 1065              		.loc 2 333 26 is_stmt 0 view .LVU378
 1066 008c 41F25942 		movw	r2, #5209
 1067 0090 3146     		mov	r1, r6
 1068 0092 2846     		mov	r0, r5
 1069 0094 FFF7FEFF 		bl	lv_obj_get_style_prop
 1070              	.LVL104:
 334:Middlewares/lvgl/src/core/lv_obj_style_gen.h **** }
 1071              		.loc 2 334 5 is_stmt 1 view .LVU379
 334:Middlewares/lvgl/src/core/lv_obj_style_gen.h **** }
 1072              		.loc 2 334 5 is_stmt 0 view .LVU380
 1073              	.LBE227:
 1074              	.LBE226:
 202:Middlewares/lvgl/src/core/lv_obj_draw.c **** 
 1075              		.loc 1 202 20 view .LVU381
 1076 0098 2060     		str	r0, [r4]
 208:Middlewares/lvgl/src/core/lv_obj_draw.c ****     if(draw_dsc->align == LV_TEXT_ALIGN_AUTO) {
 1077              		.loc 1 208 5 is_stmt 1 view .LVU382
 1078              	.LVL105:
 1079              	.LBB228:
 1080              	.LBI228:
 355:Middlewares/lvgl/src/core/lv_obj_style_gen.h **** {
 1081              		.loc 2 355 31 view .LVU383
 1082              	.LBB229:
 357:Middlewares/lvgl/src/core/lv_obj_style_gen.h ****     return (lv_text_align_t)v.num;
 1083              		.loc 2 357 5 view .LVU384
 357:Middlewares/lvgl/src/core/lv_obj_style_gen.h ****     return (lv_text_align_t)v.num;
 1084              		.loc 2 357 26 is_stmt 0 view .LVU385
 1085 009a 41F25D42 		movw	r2, #5213
ARM GAS  /tmp/ccL9JfjK.s 			page 37


 1086 009e 3146     		mov	r1, r6
 1087 00a0 2846     		mov	r0, r5
 1088 00a2 FFF7FEFF 		bl	lv_obj_get_style_prop
 1089              	.LVL106:
 358:Middlewares/lvgl/src/core/lv_obj_style_gen.h **** }
 1090              		.loc 2 358 5 is_stmt 1 view .LVU386
 358:Middlewares/lvgl/src/core/lv_obj_style_gen.h **** }
 1091              		.loc 2 358 5 is_stmt 0 view .LVU387
 1092              	.LBE229:
 1093              	.LBE228:
 208:Middlewares/lvgl/src/core/lv_obj_draw.c ****     if(draw_dsc->align == LV_TEXT_ALIGN_AUTO) {
 1094              		.loc 1 208 21 view .LVU388
 1095 00a6 637F     		ldrb	r3, [r4, #29]	@ zero_extendqisi2
 1096 00a8 60F30103 		bfi	r3, r0, #0, #2
 1097 00ac 6377     		strb	r3, [r4, #29]
 209:Middlewares/lvgl/src/core/lv_obj_draw.c ****         if(draw_dsc->bidi_dir == LV_BASE_DIR_RTL) draw_dsc->align = LV_TEXT_ALIGN_RIGHT;
 1098              		.loc 1 209 5 is_stmt 1 view .LVU389
 209:Middlewares/lvgl/src/core/lv_obj_draw.c ****         if(draw_dsc->bidi_dir == LV_BASE_DIR_RTL) draw_dsc->align = LV_TEXT_ALIGN_RIGHT;
 1099              		.loc 1 209 24 is_stmt 0 view .LVU390
 1100 00ae DBB2     		uxtb	r3, r3
 209:Middlewares/lvgl/src/core/lv_obj_draw.c ****         if(draw_dsc->bidi_dir == LV_BASE_DIR_RTL) draw_dsc->align = LV_TEXT_ALIGN_RIGHT;
 1101              		.loc 1 209 7 view .LVU391
 1102 00b0 13F0030F 		tst	r3, #3
 1103 00b4 B0D1     		bne	.L22
 210:Middlewares/lvgl/src/core/lv_obj_draw.c ****         else draw_dsc->align = LV_TEXT_ALIGN_LEFT;
 1104              		.loc 1 210 9 is_stmt 1 view .LVU392
 210:Middlewares/lvgl/src/core/lv_obj_draw.c ****         else draw_dsc->align = LV_TEXT_ALIGN_LEFT;
 1105              		.loc 1 210 20 is_stmt 0 view .LVU393
 1106 00b6 E37E     		ldrb	r3, [r4, #27]	@ zero_extendqisi2
 210:Middlewares/lvgl/src/core/lv_obj_draw.c ****         else draw_dsc->align = LV_TEXT_ALIGN_LEFT;
 1107              		.loc 1 210 11 view .LVU394
 1108 00b8 012B     		cmp	r3, #1
 1109 00ba 05D0     		beq	.L28
 211:Middlewares/lvgl/src/core/lv_obj_draw.c ****     }
 1110              		.loc 1 211 14 is_stmt 1 view .LVU395
 211:Middlewares/lvgl/src/core/lv_obj_draw.c ****     }
 1111              		.loc 1 211 30 is_stmt 0 view .LVU396
 1112 00bc 637F     		ldrb	r3, [r4, #29]	@ zero_extendqisi2
 1113 00be 0122     		movs	r2, #1
 1114 00c0 62F30103 		bfi	r3, r2, #0, #2
 1115 00c4 6377     		strb	r3, [r4, #29]
 1116 00c6 A7E7     		b	.L22
 1117              	.L28:
 210:Middlewares/lvgl/src/core/lv_obj_draw.c ****         else draw_dsc->align = LV_TEXT_ALIGN_LEFT;
 1118              		.loc 1 210 51 is_stmt 1 discriminator 1 view .LVU397
 210:Middlewares/lvgl/src/core/lv_obj_draw.c ****         else draw_dsc->align = LV_TEXT_ALIGN_LEFT;
 1119              		.loc 1 210 67 is_stmt 0 discriminator 1 view .LVU398
 1120 00c8 637F     		ldrb	r3, [r4, #29]	@ zero_extendqisi2
 1121 00ca 43F00303 		orr	r3, r3, #3
 1122 00ce 6377     		strb	r3, [r4, #29]
 1123 00d0 A2E7     		b	.L22
 1124              		.cfi_endproc
 1125              	.LFE154:
 1127              		.section	.text.lv_obj_init_draw_img_dsc,"ax",%progbits
 1128              		.align	1
 1129              		.global	lv_obj_init_draw_img_dsc
 1130              		.syntax unified
ARM GAS  /tmp/ccL9JfjK.s 			page 38


 1131              		.thumb
 1132              		.thumb_func
 1133              		.fpu softvfp
 1135              	lv_obj_init_draw_img_dsc:
 1136              	.LVL107:
 1137              	.LFB155:
 214:Middlewares/lvgl/src/core/lv_obj_draw.c **** 
 215:Middlewares/lvgl/src/core/lv_obj_draw.c **** void lv_obj_init_draw_img_dsc(lv_obj_t * obj, uint32_t part, lv_draw_img_dsc_t * draw_dsc)
 216:Middlewares/lvgl/src/core/lv_obj_draw.c **** {
 1138              		.loc 1 216 1 is_stmt 1 view -0
 1139              		.cfi_startproc
 1140              		@ args = 0, pretend = 0, frame = 0
 1141              		@ frame_needed = 0, uses_anonymous_args = 0
 1142              		.loc 1 216 1 is_stmt 0 view .LVU400
 1143 0000 70B5     		push	{r4, r5, r6, lr}
 1144              	.LCFI2:
 1145              		.cfi_def_cfa_offset 16
 1146              		.cfi_offset 4, -16
 1147              		.cfi_offset 5, -12
 1148              		.cfi_offset 6, -8
 1149              		.cfi_offset 14, -4
 1150 0002 0546     		mov	r5, r0
 1151 0004 0E46     		mov	r6, r1
 1152 0006 1446     		mov	r4, r2
 217:Middlewares/lvgl/src/core/lv_obj_draw.c ****     draw_dsc->opa = lv_obj_get_style_img_opa(obj, part);
 1153              		.loc 1 217 5 is_stmt 1 view .LVU401
 1154              	.LVL108:
 1155              	.LBB230:
 1156              	.LBI230:
 361:Middlewares/lvgl/src/core/lv_obj_style_gen.h **** {
 1157              		.loc 2 361 24 view .LVU402
 1158              	.LBB231:
 363:Middlewares/lvgl/src/core/lv_obj_style_gen.h ****     return (lv_opa_t)v.num;
 1159              		.loc 2 363 5 view .LVU403
 363:Middlewares/lvgl/src/core/lv_obj_style_gen.h ****     return (lv_opa_t)v.num;
 1160              		.loc 2 363 26 is_stmt 0 view .LVU404
 1161 0008 4622     		movs	r2, #70
 1162              	.LVL109:
 363:Middlewares/lvgl/src/core/lv_obj_style_gen.h ****     return (lv_opa_t)v.num;
 1163              		.loc 2 363 26 view .LVU405
 1164 000a FFF7FEFF 		bl	lv_obj_get_style_prop
 1165              	.LVL110:
 364:Middlewares/lvgl/src/core/lv_obj_style_gen.h **** }
 1166              		.loc 2 364 5 is_stmt 1 view .LVU406
 364:Middlewares/lvgl/src/core/lv_obj_style_gen.h **** }
 1167              		.loc 2 364 12 is_stmt 0 view .LVU407
 1168 000e C3B2     		uxtb	r3, r0
 1169              	.LVL111:
 364:Middlewares/lvgl/src/core/lv_obj_style_gen.h **** }
 1170              		.loc 2 364 12 view .LVU408
 1171              	.LBE231:
 1172              	.LBE230:
 1173              		.loc 1 217 19 view .LVU409
 1174 0010 E372     		strb	r3, [r4, #11]
 218:Middlewares/lvgl/src/core/lv_obj_draw.c ****     if(draw_dsc->opa <= LV_OPA_MIN)  return;
 1175              		.loc 1 218 5 is_stmt 1 view .LVU410
 1176              		.loc 1 218 7 is_stmt 0 view .LVU411
ARM GAS  /tmp/ccL9JfjK.s 			page 39


 1177 0012 022B     		cmp	r3, #2
 1178 0014 00D8     		bhi	.L34
 1179              	.L29:
 219:Middlewares/lvgl/src/core/lv_obj_draw.c **** 
 220:Middlewares/lvgl/src/core/lv_obj_draw.c ****     lv_opa_t opa_scale = lv_obj_get_style_opa(obj, part);
 221:Middlewares/lvgl/src/core/lv_obj_draw.c ****     if(opa_scale < LV_OPA_MAX) {
 222:Middlewares/lvgl/src/core/lv_obj_draw.c ****         draw_dsc->opa = (uint16_t)((uint16_t)draw_dsc->opa * opa_scale) >> 8;
 223:Middlewares/lvgl/src/core/lv_obj_draw.c ****     }
 224:Middlewares/lvgl/src/core/lv_obj_draw.c ****     if(draw_dsc->opa <= LV_OPA_MIN)  return;
 225:Middlewares/lvgl/src/core/lv_obj_draw.c **** 
 226:Middlewares/lvgl/src/core/lv_obj_draw.c ****     draw_dsc->angle = 0;
 227:Middlewares/lvgl/src/core/lv_obj_draw.c ****     draw_dsc->zoom = LV_IMG_ZOOM_NONE;
 228:Middlewares/lvgl/src/core/lv_obj_draw.c ****     draw_dsc->pivot.x = lv_area_get_width(&obj->coords) / 2;
 229:Middlewares/lvgl/src/core/lv_obj_draw.c ****     draw_dsc->pivot.y = lv_area_get_height(&obj->coords) / 2;
 230:Middlewares/lvgl/src/core/lv_obj_draw.c **** 
 231:Middlewares/lvgl/src/core/lv_obj_draw.c ****     draw_dsc->recolor_opa = lv_obj_get_style_img_recolor_opa(obj, part);
 232:Middlewares/lvgl/src/core/lv_obj_draw.c ****     if(draw_dsc->recolor_opa > 0) {
 233:Middlewares/lvgl/src/core/lv_obj_draw.c ****         draw_dsc->recolor = lv_obj_get_style_img_recolor(obj, part);
 234:Middlewares/lvgl/src/core/lv_obj_draw.c ****     }
 235:Middlewares/lvgl/src/core/lv_obj_draw.c **** #if LV_DRAW_COMPLEX
 236:Middlewares/lvgl/src/core/lv_obj_draw.c ****     draw_dsc->blend_mode = lv_obj_get_style_blend_mode(obj, part);
 237:Middlewares/lvgl/src/core/lv_obj_draw.c **** #endif
 238:Middlewares/lvgl/src/core/lv_obj_draw.c **** }
 1180              		.loc 1 238 1 view .LVU412
 1181 0016 70BD     		pop	{r4, r5, r6, pc}
 1182              	.LVL112:
 1183              	.L34:
 220:Middlewares/lvgl/src/core/lv_obj_draw.c ****     if(opa_scale < LV_OPA_MAX) {
 1184              		.loc 1 220 5 is_stmt 1 view .LVU413
 1185              	.LBB232:
 1186              	.LBI232:
 139:Middlewares/lvgl/src/core/lv_obj_style_gen.h **** {
 1187              		.loc 2 139 24 view .LVU414
 1188              	.LBB233:
 141:Middlewares/lvgl/src/core/lv_obj_style_gen.h ****     return (lv_opa_t)v.num;
 1189              		.loc 2 141 5 view .LVU415
 141:Middlewares/lvgl/src/core/lv_obj_style_gen.h ****     return (lv_opa_t)v.num;
 1190              		.loc 2 141 26 is_stmt 0 view .LVU416
 1191 0018 40F26242 		movw	r2, #1122
 1192 001c 3146     		mov	r1, r6
 1193 001e 2846     		mov	r0, r5
 1194 0020 FFF7FEFF 		bl	lv_obj_get_style_prop
 1195              	.LVL113:
 142:Middlewares/lvgl/src/core/lv_obj_style_gen.h **** }
 1196              		.loc 2 142 5 is_stmt 1 view .LVU417
 142:Middlewares/lvgl/src/core/lv_obj_style_gen.h **** }
 1197              		.loc 2 142 12 is_stmt 0 view .LVU418
 1198 0024 C0B2     		uxtb	r0, r0
 1199              	.LVL114:
 142:Middlewares/lvgl/src/core/lv_obj_style_gen.h **** }
 1200              		.loc 2 142 12 view .LVU419
 1201              	.LBE233:
 1202              	.LBE232:
 221:Middlewares/lvgl/src/core/lv_obj_draw.c ****         draw_dsc->opa = (uint16_t)((uint16_t)draw_dsc->opa * opa_scale) >> 8;
 1203              		.loc 1 221 5 is_stmt 1 view .LVU420
 221:Middlewares/lvgl/src/core/lv_obj_draw.c ****         draw_dsc->opa = (uint16_t)((uint16_t)draw_dsc->opa * opa_scale) >> 8;
 1204              		.loc 1 221 7 is_stmt 0 view .LVU421
ARM GAS  /tmp/ccL9JfjK.s 			page 40


 1205 0026 FC28     		cmp	r0, #252
 1206 0028 04D8     		bhi	.L31
 222:Middlewares/lvgl/src/core/lv_obj_draw.c ****     }
 1207              		.loc 1 222 9 is_stmt 1 view .LVU422
 222:Middlewares/lvgl/src/core/lv_obj_draw.c ****     }
 1208              		.loc 1 222 54 is_stmt 0 view .LVU423
 1209 002a E37A     		ldrb	r3, [r4, #11]	@ zero_extendqisi2
 222:Middlewares/lvgl/src/core/lv_obj_draw.c ****     }
 1210              		.loc 1 222 25 view .LVU424
 1211 002c 03FB00F0 		mul	r0, r3, r0
 1212              	.LVL115:
 222:Middlewares/lvgl/src/core/lv_obj_draw.c ****     }
 1213              		.loc 1 222 23 view .LVU425
 1214 0030 000A     		lsrs	r0, r0, #8
 1215 0032 E072     		strb	r0, [r4, #11]
 1216              	.L31:
 224:Middlewares/lvgl/src/core/lv_obj_draw.c **** 
 1217              		.loc 1 224 5 is_stmt 1 view .LVU426
 224:Middlewares/lvgl/src/core/lv_obj_draw.c **** 
 1218              		.loc 1 224 16 is_stmt 0 view .LVU427
 1219 0034 E37A     		ldrb	r3, [r4, #11]	@ zero_extendqisi2
 224:Middlewares/lvgl/src/core/lv_obj_draw.c **** 
 1220              		.loc 1 224 7 view .LVU428
 1221 0036 022B     		cmp	r3, #2
 1222 0038 EDD9     		bls	.L29
 226:Middlewares/lvgl/src/core/lv_obj_draw.c ****     draw_dsc->zoom = LV_IMG_ZOOM_NONE;
 1223              		.loc 1 226 5 is_stmt 1 view .LVU429
 226:Middlewares/lvgl/src/core/lv_obj_draw.c ****     draw_dsc->zoom = LV_IMG_ZOOM_NONE;
 1224              		.loc 1 226 21 is_stmt 0 view .LVU430
 1225 003a 0023     		movs	r3, #0
 1226 003c 2380     		strh	r3, [r4]	@ movhi
 227:Middlewares/lvgl/src/core/lv_obj_draw.c ****     draw_dsc->pivot.x = lv_area_get_width(&obj->coords) / 2;
 1227              		.loc 1 227 5 is_stmt 1 view .LVU431
 227:Middlewares/lvgl/src/core/lv_obj_draw.c ****     draw_dsc->pivot.x = lv_area_get_width(&obj->coords) / 2;
 1228              		.loc 1 227 20 is_stmt 0 view .LVU432
 1229 003e 4FF48073 		mov	r3, #256
 1230 0042 6380     		strh	r3, [r4, #2]	@ movhi
 228:Middlewares/lvgl/src/core/lv_obj_draw.c ****     draw_dsc->pivot.y = lv_area_get_height(&obj->coords) / 2;
 1231              		.loc 1 228 5 is_stmt 1 view .LVU433
 1232              	.LVL116:
 1233              	.LBB234:
 1234              	.LBI234:
 1235              		.file 3 "Middlewares/lvgl/src/core/../draw/../misc/../font/../misc/lv_area.h"
   1:Middlewares/lvgl/src/core/../draw/../misc/../font/../misc/lv_area.h **** /**
   2:Middlewares/lvgl/src/core/../draw/../misc/../font/../misc/lv_area.h ****  * @file lv_area.h
   3:Middlewares/lvgl/src/core/../draw/../misc/../font/../misc/lv_area.h ****  *
   4:Middlewares/lvgl/src/core/../draw/../misc/../font/../misc/lv_area.h ****  */
   5:Middlewares/lvgl/src/core/../draw/../misc/../font/../misc/lv_area.h **** 
   6:Middlewares/lvgl/src/core/../draw/../misc/../font/../misc/lv_area.h **** #ifndef LV_AREA_H
   7:Middlewares/lvgl/src/core/../draw/../misc/../font/../misc/lv_area.h **** #define LV_AREA_H
   8:Middlewares/lvgl/src/core/../draw/../misc/../font/../misc/lv_area.h **** 
   9:Middlewares/lvgl/src/core/../draw/../misc/../font/../misc/lv_area.h **** #ifdef __cplusplus
  10:Middlewares/lvgl/src/core/../draw/../misc/../font/../misc/lv_area.h **** extern "C" {
  11:Middlewares/lvgl/src/core/../draw/../misc/../font/../misc/lv_area.h **** #endif
  12:Middlewares/lvgl/src/core/../draw/../misc/../font/../misc/lv_area.h **** 
  13:Middlewares/lvgl/src/core/../draw/../misc/../font/../misc/lv_area.h **** /*********************
  14:Middlewares/lvgl/src/core/../draw/../misc/../font/../misc/lv_area.h ****  *      INCLUDES
ARM GAS  /tmp/ccL9JfjK.s 			page 41


  15:Middlewares/lvgl/src/core/../draw/../misc/../font/../misc/lv_area.h ****  *********************/
  16:Middlewares/lvgl/src/core/../draw/../misc/../font/../misc/lv_area.h **** #include "../lv_conf_internal.h"
  17:Middlewares/lvgl/src/core/../draw/../misc/../font/../misc/lv_area.h **** #include <string.h>
  18:Middlewares/lvgl/src/core/../draw/../misc/../font/../misc/lv_area.h **** #include <stdbool.h>
  19:Middlewares/lvgl/src/core/../draw/../misc/../font/../misc/lv_area.h **** #include <stdint.h>
  20:Middlewares/lvgl/src/core/../draw/../misc/../font/../misc/lv_area.h **** 
  21:Middlewares/lvgl/src/core/../draw/../misc/../font/../misc/lv_area.h **** /*********************
  22:Middlewares/lvgl/src/core/../draw/../misc/../font/../misc/lv_area.h ****  *      DEFINES
  23:Middlewares/lvgl/src/core/../draw/../misc/../font/../misc/lv_area.h ****  *********************/
  24:Middlewares/lvgl/src/core/../draw/../misc/../font/../misc/lv_area.h **** 
  25:Middlewares/lvgl/src/core/../draw/../misc/../font/../misc/lv_area.h **** #define _LV_COORD_MAX_REDUCE    8192
  26:Middlewares/lvgl/src/core/../draw/../misc/../font/../misc/lv_area.h **** 
  27:Middlewares/lvgl/src/core/../draw/../misc/../font/../misc/lv_area.h **** #if LV_USE_LARGE_COORD
  28:Middlewares/lvgl/src/core/../draw/../misc/../font/../misc/lv_area.h **** typedef int32_t lv_coord_t;
  29:Middlewares/lvgl/src/core/../draw/../misc/../font/../misc/lv_area.h **** #else
  30:Middlewares/lvgl/src/core/../draw/../misc/../font/../misc/lv_area.h **** typedef int16_t lv_coord_t;
  31:Middlewares/lvgl/src/core/../draw/../misc/../font/../misc/lv_area.h **** #endif
  32:Middlewares/lvgl/src/core/../draw/../misc/../font/../misc/lv_area.h **** 
  33:Middlewares/lvgl/src/core/../draw/../misc/../font/../misc/lv_area.h **** /*To allow some special values in the end reduce the max value*/
  34:Middlewares/lvgl/src/core/../draw/../misc/../font/../misc/lv_area.h **** #define LV_COORD_MAX ((lv_coord_t)((uint32_t)((uint32_t)1 << (8 * sizeof(lv_coord_t) - 1)) - _LV_CO
  35:Middlewares/lvgl/src/core/../draw/../misc/../font/../misc/lv_area.h **** #define LV_COORD_MIN (-LV_COORD_MAX)
  36:Middlewares/lvgl/src/core/../draw/../misc/../font/../misc/lv_area.h **** 
  37:Middlewares/lvgl/src/core/../draw/../misc/../font/../misc/lv_area.h **** LV_EXPORT_CONST_INT(LV_COORD_MAX);
  38:Middlewares/lvgl/src/core/../draw/../misc/../font/../misc/lv_area.h **** LV_EXPORT_CONST_INT(LV_COORD_MIN);
  39:Middlewares/lvgl/src/core/../draw/../misc/../font/../misc/lv_area.h **** 
  40:Middlewares/lvgl/src/core/../draw/../misc/../font/../misc/lv_area.h **** /**********************
  41:Middlewares/lvgl/src/core/../draw/../misc/../font/../misc/lv_area.h ****  *      TYPEDEFS
  42:Middlewares/lvgl/src/core/../draw/../misc/../font/../misc/lv_area.h ****  **********************/
  43:Middlewares/lvgl/src/core/../draw/../misc/../font/../misc/lv_area.h **** 
  44:Middlewares/lvgl/src/core/../draw/../misc/../font/../misc/lv_area.h **** /**
  45:Middlewares/lvgl/src/core/../draw/../misc/../font/../misc/lv_area.h ****  * Represents a point on the screen.
  46:Middlewares/lvgl/src/core/../draw/../misc/../font/../misc/lv_area.h ****  */
  47:Middlewares/lvgl/src/core/../draw/../misc/../font/../misc/lv_area.h **** typedef struct {
  48:Middlewares/lvgl/src/core/../draw/../misc/../font/../misc/lv_area.h ****     lv_coord_t x;
  49:Middlewares/lvgl/src/core/../draw/../misc/../font/../misc/lv_area.h ****     lv_coord_t y;
  50:Middlewares/lvgl/src/core/../draw/../misc/../font/../misc/lv_area.h **** } lv_point_t;
  51:Middlewares/lvgl/src/core/../draw/../misc/../font/../misc/lv_area.h **** 
  52:Middlewares/lvgl/src/core/../draw/../misc/../font/../misc/lv_area.h **** /** Represents an area of the screen.*/
  53:Middlewares/lvgl/src/core/../draw/../misc/../font/../misc/lv_area.h **** typedef struct {
  54:Middlewares/lvgl/src/core/../draw/../misc/../font/../misc/lv_area.h ****     lv_coord_t x1;
  55:Middlewares/lvgl/src/core/../draw/../misc/../font/../misc/lv_area.h ****     lv_coord_t y1;
  56:Middlewares/lvgl/src/core/../draw/../misc/../font/../misc/lv_area.h ****     lv_coord_t x2;
  57:Middlewares/lvgl/src/core/../draw/../misc/../font/../misc/lv_area.h ****     lv_coord_t y2;
  58:Middlewares/lvgl/src/core/../draw/../misc/../font/../misc/lv_area.h **** } lv_area_t;
  59:Middlewares/lvgl/src/core/../draw/../misc/../font/../misc/lv_area.h **** 
  60:Middlewares/lvgl/src/core/../draw/../misc/../font/../misc/lv_area.h **** /** Alignments*/
  61:Middlewares/lvgl/src/core/../draw/../misc/../font/../misc/lv_area.h **** enum {
  62:Middlewares/lvgl/src/core/../draw/../misc/../font/../misc/lv_area.h ****     LV_ALIGN_DEFAULT = 0,
  63:Middlewares/lvgl/src/core/../draw/../misc/../font/../misc/lv_area.h ****     LV_ALIGN_TOP_LEFT,
  64:Middlewares/lvgl/src/core/../draw/../misc/../font/../misc/lv_area.h ****     LV_ALIGN_TOP_MID,
  65:Middlewares/lvgl/src/core/../draw/../misc/../font/../misc/lv_area.h ****     LV_ALIGN_TOP_RIGHT,
  66:Middlewares/lvgl/src/core/../draw/../misc/../font/../misc/lv_area.h ****     LV_ALIGN_BOTTOM_LEFT,
  67:Middlewares/lvgl/src/core/../draw/../misc/../font/../misc/lv_area.h ****     LV_ALIGN_BOTTOM_MID,
  68:Middlewares/lvgl/src/core/../draw/../misc/../font/../misc/lv_area.h ****     LV_ALIGN_BOTTOM_RIGHT,
  69:Middlewares/lvgl/src/core/../draw/../misc/../font/../misc/lv_area.h ****     LV_ALIGN_LEFT_MID,
  70:Middlewares/lvgl/src/core/../draw/../misc/../font/../misc/lv_area.h ****     LV_ALIGN_RIGHT_MID,
  71:Middlewares/lvgl/src/core/../draw/../misc/../font/../misc/lv_area.h ****     LV_ALIGN_CENTER,
ARM GAS  /tmp/ccL9JfjK.s 			page 42


  72:Middlewares/lvgl/src/core/../draw/../misc/../font/../misc/lv_area.h **** 
  73:Middlewares/lvgl/src/core/../draw/../misc/../font/../misc/lv_area.h ****     LV_ALIGN_OUT_TOP_LEFT,
  74:Middlewares/lvgl/src/core/../draw/../misc/../font/../misc/lv_area.h ****     LV_ALIGN_OUT_TOP_MID,
  75:Middlewares/lvgl/src/core/../draw/../misc/../font/../misc/lv_area.h ****     LV_ALIGN_OUT_TOP_RIGHT,
  76:Middlewares/lvgl/src/core/../draw/../misc/../font/../misc/lv_area.h ****     LV_ALIGN_OUT_BOTTOM_LEFT,
  77:Middlewares/lvgl/src/core/../draw/../misc/../font/../misc/lv_area.h ****     LV_ALIGN_OUT_BOTTOM_MID,
  78:Middlewares/lvgl/src/core/../draw/../misc/../font/../misc/lv_area.h ****     LV_ALIGN_OUT_BOTTOM_RIGHT,
  79:Middlewares/lvgl/src/core/../draw/../misc/../font/../misc/lv_area.h ****     LV_ALIGN_OUT_LEFT_TOP,
  80:Middlewares/lvgl/src/core/../draw/../misc/../font/../misc/lv_area.h ****     LV_ALIGN_OUT_LEFT_MID,
  81:Middlewares/lvgl/src/core/../draw/../misc/../font/../misc/lv_area.h ****     LV_ALIGN_OUT_LEFT_BOTTOM,
  82:Middlewares/lvgl/src/core/../draw/../misc/../font/../misc/lv_area.h ****     LV_ALIGN_OUT_RIGHT_TOP,
  83:Middlewares/lvgl/src/core/../draw/../misc/../font/../misc/lv_area.h ****     LV_ALIGN_OUT_RIGHT_MID,
  84:Middlewares/lvgl/src/core/../draw/../misc/../font/../misc/lv_area.h ****     LV_ALIGN_OUT_RIGHT_BOTTOM,
  85:Middlewares/lvgl/src/core/../draw/../misc/../font/../misc/lv_area.h **** };
  86:Middlewares/lvgl/src/core/../draw/../misc/../font/../misc/lv_area.h **** typedef uint8_t lv_align_t;
  87:Middlewares/lvgl/src/core/../draw/../misc/../font/../misc/lv_area.h **** 
  88:Middlewares/lvgl/src/core/../draw/../misc/../font/../misc/lv_area.h **** enum {
  89:Middlewares/lvgl/src/core/../draw/../misc/../font/../misc/lv_area.h ****     LV_DIR_NONE     = 0x00,
  90:Middlewares/lvgl/src/core/../draw/../misc/../font/../misc/lv_area.h ****     LV_DIR_LEFT     = (1 << 0),
  91:Middlewares/lvgl/src/core/../draw/../misc/../font/../misc/lv_area.h ****     LV_DIR_RIGHT    = (1 << 1),
  92:Middlewares/lvgl/src/core/../draw/../misc/../font/../misc/lv_area.h ****     LV_DIR_TOP      = (1 << 2),
  93:Middlewares/lvgl/src/core/../draw/../misc/../font/../misc/lv_area.h ****     LV_DIR_BOTTOM   = (1 << 3),
  94:Middlewares/lvgl/src/core/../draw/../misc/../font/../misc/lv_area.h ****     LV_DIR_HOR      = LV_DIR_LEFT | LV_DIR_RIGHT,
  95:Middlewares/lvgl/src/core/../draw/../misc/../font/../misc/lv_area.h ****     LV_DIR_VER      = LV_DIR_TOP | LV_DIR_BOTTOM,
  96:Middlewares/lvgl/src/core/../draw/../misc/../font/../misc/lv_area.h ****     LV_DIR_ALL      = LV_DIR_HOR | LV_DIR_VER,
  97:Middlewares/lvgl/src/core/../draw/../misc/../font/../misc/lv_area.h **** };
  98:Middlewares/lvgl/src/core/../draw/../misc/../font/../misc/lv_area.h **** 
  99:Middlewares/lvgl/src/core/../draw/../misc/../font/../misc/lv_area.h **** typedef uint8_t lv_dir_t;
 100:Middlewares/lvgl/src/core/../draw/../misc/../font/../misc/lv_area.h **** 
 101:Middlewares/lvgl/src/core/../draw/../misc/../font/../misc/lv_area.h **** /**********************
 102:Middlewares/lvgl/src/core/../draw/../misc/../font/../misc/lv_area.h ****  * GLOBAL PROTOTYPES
 103:Middlewares/lvgl/src/core/../draw/../misc/../font/../misc/lv_area.h ****  **********************/
 104:Middlewares/lvgl/src/core/../draw/../misc/../font/../misc/lv_area.h **** 
 105:Middlewares/lvgl/src/core/../draw/../misc/../font/../misc/lv_area.h **** /**
 106:Middlewares/lvgl/src/core/../draw/../misc/../font/../misc/lv_area.h ****  * Initialize an area
 107:Middlewares/lvgl/src/core/../draw/../misc/../font/../misc/lv_area.h ****  * @param area_p pointer to an area
 108:Middlewares/lvgl/src/core/../draw/../misc/../font/../misc/lv_area.h ****  * @param x1 left coordinate of the area
 109:Middlewares/lvgl/src/core/../draw/../misc/../font/../misc/lv_area.h ****  * @param y1 top coordinate of the area
 110:Middlewares/lvgl/src/core/../draw/../misc/../font/../misc/lv_area.h ****  * @param x2 right coordinate of the area
 111:Middlewares/lvgl/src/core/../draw/../misc/../font/../misc/lv_area.h ****  * @param y2 bottom coordinate of the area
 112:Middlewares/lvgl/src/core/../draw/../misc/../font/../misc/lv_area.h ****  */
 113:Middlewares/lvgl/src/core/../draw/../misc/../font/../misc/lv_area.h **** void lv_area_set(lv_area_t * area_p, lv_coord_t x1, lv_coord_t y1, lv_coord_t x2, lv_coord_t y2);
 114:Middlewares/lvgl/src/core/../draw/../misc/../font/../misc/lv_area.h **** 
 115:Middlewares/lvgl/src/core/../draw/../misc/../font/../misc/lv_area.h **** /**
 116:Middlewares/lvgl/src/core/../draw/../misc/../font/../misc/lv_area.h ****  * Copy an area
 117:Middlewares/lvgl/src/core/../draw/../misc/../font/../misc/lv_area.h ****  * @param dest pointer to the destination area
 118:Middlewares/lvgl/src/core/../draw/../misc/../font/../misc/lv_area.h ****  * @param src pointer to the source area
 119:Middlewares/lvgl/src/core/../draw/../misc/../font/../misc/lv_area.h ****  */
 120:Middlewares/lvgl/src/core/../draw/../misc/../font/../misc/lv_area.h **** inline static void lv_area_copy(lv_area_t * dest, const lv_area_t * src)
 121:Middlewares/lvgl/src/core/../draw/../misc/../font/../misc/lv_area.h **** {
 122:Middlewares/lvgl/src/core/../draw/../misc/../font/../misc/lv_area.h ****     dest->x1 = src->x1;
 123:Middlewares/lvgl/src/core/../draw/../misc/../font/../misc/lv_area.h ****     dest->y1 = src->y1;
 124:Middlewares/lvgl/src/core/../draw/../misc/../font/../misc/lv_area.h ****     dest->x2 = src->x2;
 125:Middlewares/lvgl/src/core/../draw/../misc/../font/../misc/lv_area.h ****     dest->y2 = src->y2;
 126:Middlewares/lvgl/src/core/../draw/../misc/../font/../misc/lv_area.h **** }
 127:Middlewares/lvgl/src/core/../draw/../misc/../font/../misc/lv_area.h **** 
 128:Middlewares/lvgl/src/core/../draw/../misc/../font/../misc/lv_area.h **** /**
ARM GAS  /tmp/ccL9JfjK.s 			page 43


 129:Middlewares/lvgl/src/core/../draw/../misc/../font/../misc/lv_area.h ****  * Get the width of an area
 130:Middlewares/lvgl/src/core/../draw/../misc/../font/../misc/lv_area.h ****  * @param area_p pointer to an area
 131:Middlewares/lvgl/src/core/../draw/../misc/../font/../misc/lv_area.h ****  * @return the width of the area (if x1 == x2 -> width = 1)
 132:Middlewares/lvgl/src/core/../draw/../misc/../font/../misc/lv_area.h ****  */
 133:Middlewares/lvgl/src/core/../draw/../misc/../font/../misc/lv_area.h **** static inline lv_coord_t lv_area_get_width(const lv_area_t * area_p)
 1236              		.loc 3 133 26 view .LVU434
 1237              	.LBB235:
 134:Middlewares/lvgl/src/core/../draw/../misc/../font/../misc/lv_area.h **** {
 135:Middlewares/lvgl/src/core/../draw/../misc/../font/../misc/lv_area.h ****     return (lv_coord_t)(area_p->x2 - area_p->x1 + 1);
 1238              		.loc 3 135 5 view .LVU435
 1239              		.loc 3 135 31 is_stmt 0 view .LVU436
 1240 0044 2B8B     		ldrh	r3, [r5, #24]
 1241              		.loc 3 135 44 view .LVU437
 1242 0046 AA8A     		ldrh	r2, [r5, #20]
 1243              		.loc 3 135 36 view .LVU438
 1244 0048 9B1A     		subs	r3, r3, r2
 1245 004a 9BB2     		uxth	r3, r3
 1246              		.loc 3 135 49 view .LVU439
 1247 004c 0133     		adds	r3, r3, #1
 1248              		.loc 3 135 12 view .LVU440
 1249 004e 1AB2     		sxth	r2, r3
 1250              	.LVL117:
 1251              		.loc 3 135 12 view .LVU441
 1252              	.LBE235:
 1253              	.LBE234:
 228:Middlewares/lvgl/src/core/lv_obj_draw.c ****     draw_dsc->pivot.y = lv_area_get_height(&obj->coords) / 2;
 1254              		.loc 1 228 23 view .LVU442
 1255 0050 C3F3C033 		ubfx	r3, r3, #15, #1
 1256 0054 1344     		add	r3, r3, r2
 1257 0056 5B10     		asrs	r3, r3, #1
 1258 0058 A380     		strh	r3, [r4, #4]	@ movhi
 229:Middlewares/lvgl/src/core/lv_obj_draw.c **** 
 1259              		.loc 1 229 5 is_stmt 1 view .LVU443
 1260              	.LVL118:
 1261              	.LBB236:
 1262              	.LBI236:
 136:Middlewares/lvgl/src/core/../draw/../misc/../font/../misc/lv_area.h **** }
 137:Middlewares/lvgl/src/core/../draw/../misc/../font/../misc/lv_area.h **** 
 138:Middlewares/lvgl/src/core/../draw/../misc/../font/../misc/lv_area.h **** /**
 139:Middlewares/lvgl/src/core/../draw/../misc/../font/../misc/lv_area.h ****  * Get the height of an area
 140:Middlewares/lvgl/src/core/../draw/../misc/../font/../misc/lv_area.h ****  * @param area_p pointer to an area
 141:Middlewares/lvgl/src/core/../draw/../misc/../font/../misc/lv_area.h ****  * @return the height of the area (if y1 == y2 -> height = 1)
 142:Middlewares/lvgl/src/core/../draw/../misc/../font/../misc/lv_area.h ****  */
 143:Middlewares/lvgl/src/core/../draw/../misc/../font/../misc/lv_area.h **** static inline lv_coord_t lv_area_get_height(const lv_area_t * area_p)
 1263              		.loc 3 143 26 view .LVU444
 1264              	.LBB237:
 144:Middlewares/lvgl/src/core/../draw/../misc/../font/../misc/lv_area.h **** {
 145:Middlewares/lvgl/src/core/../draw/../misc/../font/../misc/lv_area.h ****     return (lv_coord_t)(area_p->y2 - area_p->y1 + 1);
 1265              		.loc 3 145 5 view .LVU445
 1266              		.loc 3 145 31 is_stmt 0 view .LVU446
 1267 005a 6B8B     		ldrh	r3, [r5, #26]
 1268              		.loc 3 145 44 view .LVU447
 1269 005c EA8A     		ldrh	r2, [r5, #22]
 1270              		.loc 3 145 36 view .LVU448
 1271 005e 9B1A     		subs	r3, r3, r2
 1272 0060 9BB2     		uxth	r3, r3
 1273              		.loc 3 145 49 view .LVU449
ARM GAS  /tmp/ccL9JfjK.s 			page 44


 1274 0062 0133     		adds	r3, r3, #1
 1275              		.loc 3 145 12 view .LVU450
 1276 0064 1AB2     		sxth	r2, r3
 1277              	.LVL119:
 1278              		.loc 3 145 12 view .LVU451
 1279              	.LBE237:
 1280              	.LBE236:
 229:Middlewares/lvgl/src/core/lv_obj_draw.c **** 
 1281              		.loc 1 229 23 view .LVU452
 1282 0066 C3F3C033 		ubfx	r3, r3, #15, #1
 1283 006a 1344     		add	r3, r3, r2
 1284 006c 5B10     		asrs	r3, r3, #1
 1285 006e E380     		strh	r3, [r4, #6]	@ movhi
 231:Middlewares/lvgl/src/core/lv_obj_draw.c ****     if(draw_dsc->recolor_opa > 0) {
 1286              		.loc 1 231 5 is_stmt 1 view .LVU453
 1287              	.LVL120:
 1288              	.LBB238:
 1289              	.LBI238:
 379:Middlewares/lvgl/src/core/lv_obj_style_gen.h **** {
 1290              		.loc 2 379 24 view .LVU454
 1291              	.LBB239:
 381:Middlewares/lvgl/src/core/lv_obj_style_gen.h ****     return (lv_opa_t)v.num;
 1292              		.loc 2 381 5 view .LVU455
 381:Middlewares/lvgl/src/core/lv_obj_style_gen.h ****     return (lv_opa_t)v.num;
 1293              		.loc 2 381 26 is_stmt 0 view .LVU456
 1294 0070 4822     		movs	r2, #72
 1295 0072 3146     		mov	r1, r6
 1296 0074 2846     		mov	r0, r5
 1297 0076 FFF7FEFF 		bl	lv_obj_get_style_prop
 1298              	.LVL121:
 382:Middlewares/lvgl/src/core/lv_obj_style_gen.h **** }
 1299              		.loc 2 382 5 is_stmt 1 view .LVU457
 382:Middlewares/lvgl/src/core/lv_obj_style_gen.h **** }
 1300              		.loc 2 382 12 is_stmt 0 view .LVU458
 1301 007a C0B2     		uxtb	r0, r0
 1302              	.LVL122:
 382:Middlewares/lvgl/src/core/lv_obj_style_gen.h **** }
 1303              		.loc 2 382 12 view .LVU459
 1304              	.LBE239:
 1305              	.LBE238:
 231:Middlewares/lvgl/src/core/lv_obj_draw.c ****     if(draw_dsc->recolor_opa > 0) {
 1306              		.loc 1 231 27 view .LVU460
 1307 007c A072     		strb	r0, [r4, #10]
 232:Middlewares/lvgl/src/core/lv_obj_draw.c ****         draw_dsc->recolor = lv_obj_get_style_img_recolor(obj, part);
 1308              		.loc 1 232 5 is_stmt 1 view .LVU461
 232:Middlewares/lvgl/src/core/lv_obj_draw.c ****         draw_dsc->recolor = lv_obj_get_style_img_recolor(obj, part);
 1309              		.loc 1 232 7 is_stmt 0 view .LVU462
 1310 007e 48B9     		cbnz	r0, .L35
 1311              	.L32:
 236:Middlewares/lvgl/src/core/lv_obj_draw.c **** #endif
 1312              		.loc 1 236 5 is_stmt 1 view .LVU463
 1313              	.LVL123:
 1314              	.LBB240:
 1315              	.LBI240:
 175:Middlewares/lvgl/src/core/lv_obj_style_gen.h **** {
 1316              		.loc 2 175 31 view .LVU464
 1317              	.LBB241:
ARM GAS  /tmp/ccL9JfjK.s 			page 45


 177:Middlewares/lvgl/src/core/lv_obj_style_gen.h ****     return (lv_blend_mode_t)v.num;
 1318              		.loc 2 177 5 view .LVU465
 177:Middlewares/lvgl/src/core/lv_obj_style_gen.h ****     return (lv_blend_mode_t)v.num;
 1319              		.loc 2 177 26 is_stmt 0 view .LVU466
 1320 0080 6822     		movs	r2, #104
 1321 0082 3146     		mov	r1, r6
 1322 0084 2846     		mov	r0, r5
 1323 0086 FFF7FEFF 		bl	lv_obj_get_style_prop
 1324              	.LVL124:
 178:Middlewares/lvgl/src/core/lv_obj_style_gen.h **** }
 1325              		.loc 2 178 5 is_stmt 1 view .LVU467
 178:Middlewares/lvgl/src/core/lv_obj_style_gen.h **** }
 1326              		.loc 2 178 5 is_stmt 0 view .LVU468
 1327              	.LBE241:
 1328              	.LBE240:
 236:Middlewares/lvgl/src/core/lv_obj_draw.c **** #endif
 1329              		.loc 1 236 26 view .LVU469
 1330 008a 237B     		ldrb	r3, [r4, #12]	@ zero_extendqisi2
 1331 008c 60F30303 		bfi	r3, r0, #0, #4
 1332 0090 2373     		strb	r3, [r4, #12]
 1333 0092 C0E7     		b	.L29
 1334              	.L35:
 233:Middlewares/lvgl/src/core/lv_obj_draw.c ****     }
 1335              		.loc 1 233 9 is_stmt 1 view .LVU470
 1336              	.LVL125:
 1337              	.LBB242:
 1338              	.LBI242:
 367:Middlewares/lvgl/src/core/lv_obj_style_gen.h **** {
 1339              		.loc 2 367 26 view .LVU471
 1340              	.LBB243:
 369:Middlewares/lvgl/src/core/lv_obj_style_gen.h ****     return v.color;
 1341              		.loc 2 369 5 view .LVU472
 369:Middlewares/lvgl/src/core/lv_obj_style_gen.h ****     return v.color;
 1342              		.loc 2 369 26 is_stmt 0 view .LVU473
 1343 0094 4722     		movs	r2, #71
 1344 0096 3146     		mov	r1, r6
 1345 0098 2846     		mov	r0, r5
 1346 009a FFF7FEFF 		bl	lv_obj_get_style_prop
 1347              	.LVL126:
 370:Middlewares/lvgl/src/core/lv_obj_style_gen.h **** }
 1348              		.loc 2 370 5 is_stmt 1 view .LVU474
 370:Middlewares/lvgl/src/core/lv_obj_style_gen.h **** }
 1349              		.loc 2 370 5 is_stmt 0 view .LVU475
 1350              	.LBE243:
 1351              	.LBE242:
 233:Middlewares/lvgl/src/core/lv_obj_draw.c ****     }
 1352              		.loc 1 233 29 view .LVU476
 1353 009e 2081     		strh	r0, [r4, #8]	@ movhi
 1354 00a0 EEE7     		b	.L32
 1355              		.cfi_endproc
 1356              	.LFE155:
 1358              		.section	.text.lv_obj_init_draw_line_dsc,"ax",%progbits
 1359              		.align	1
 1360              		.global	lv_obj_init_draw_line_dsc
 1361              		.syntax unified
 1362              		.thumb
 1363              		.thumb_func
ARM GAS  /tmp/ccL9JfjK.s 			page 46


 1364              		.fpu softvfp
 1366              	lv_obj_init_draw_line_dsc:
 1367              	.LVL127:
 1368              	.LFB156:
 239:Middlewares/lvgl/src/core/lv_obj_draw.c **** 
 240:Middlewares/lvgl/src/core/lv_obj_draw.c **** void lv_obj_init_draw_line_dsc(lv_obj_t * obj, uint32_t part, lv_draw_line_dsc_t * draw_dsc)
 241:Middlewares/lvgl/src/core/lv_obj_draw.c **** {
 1369              		.loc 1 241 1 is_stmt 1 view -0
 1370              		.cfi_startproc
 1371              		@ args = 0, pretend = 0, frame = 0
 1372              		@ frame_needed = 0, uses_anonymous_args = 0
 1373              		.loc 1 241 1 is_stmt 0 view .LVU478
 1374 0000 70B5     		push	{r4, r5, r6, lr}
 1375              	.LCFI3:
 1376              		.cfi_def_cfa_offset 16
 1377              		.cfi_offset 4, -16
 1378              		.cfi_offset 5, -12
 1379              		.cfi_offset 6, -8
 1380              		.cfi_offset 14, -4
 1381 0002 0546     		mov	r5, r0
 1382 0004 0E46     		mov	r6, r1
 1383 0006 1446     		mov	r4, r2
 242:Middlewares/lvgl/src/core/lv_obj_draw.c ****     draw_dsc->width = lv_obj_get_style_line_width(obj, part);
 1384              		.loc 1 242 5 is_stmt 1 view .LVU479
 1385              	.LVL128:
 1386              	.LBB244:
 1387              	.LBI244:
 455:Middlewares/lvgl/src/core/lv_obj_style_gen.h **** }
 456:Middlewares/lvgl/src/core/lv_obj_style_gen.h **** 
 457:Middlewares/lvgl/src/core/lv_obj_style_gen.h **** static inline lv_coord_t lv_obj_get_style_line_width(const struct _lv_obj_t * obj, uint32_t part)
 1388              		.loc 2 457 26 view .LVU480
 1389              	.LBB245:
 458:Middlewares/lvgl/src/core/lv_obj_style_gen.h **** {
 459:Middlewares/lvgl/src/core/lv_obj_style_gen.h ****     lv_style_value_t v = lv_obj_get_style_prop(obj, part, LV_STYLE_LINE_WIDTH);
 1390              		.loc 2 459 5 view .LVU481
 1391              		.loc 2 459 26 is_stmt 0 view .LVU482
 1392 0008 40F64902 		movw	r2, #2121
 1393              	.LVL129:
 1394              		.loc 2 459 26 view .LVU483
 1395 000c FFF7FEFF 		bl	lv_obj_get_style_prop
 1396              	.LVL130:
 460:Middlewares/lvgl/src/core/lv_obj_style_gen.h ****     return (lv_coord_t)v.num;
 1397              		.loc 2 460 5 is_stmt 1 view .LVU484
 1398              		.loc 2 460 12 is_stmt 0 view .LVU485
 1399 0010 00B2     		sxth	r0, r0
 1400              	.LVL131:
 1401              		.loc 2 460 12 view .LVU486
 1402              	.LBE245:
 1403              	.LBE244:
 1404              		.loc 1 242 21 view .LVU487
 1405 0012 6080     		strh	r0, [r4, #2]	@ movhi
 243:Middlewares/lvgl/src/core/lv_obj_draw.c ****     if(draw_dsc->width == 0) return;
 1406              		.loc 1 243 5 is_stmt 1 view .LVU488
 1407              		.loc 1 243 7 is_stmt 0 view .LVU489
 1408 0014 00B9     		cbnz	r0, .L41
 1409              	.L36:
 244:Middlewares/lvgl/src/core/lv_obj_draw.c **** 
ARM GAS  /tmp/ccL9JfjK.s 			page 47


 245:Middlewares/lvgl/src/core/lv_obj_draw.c ****     draw_dsc->opa = lv_obj_get_style_line_opa(obj, part);
 246:Middlewares/lvgl/src/core/lv_obj_draw.c ****     if(draw_dsc->opa <= LV_OPA_MIN)  return;
 247:Middlewares/lvgl/src/core/lv_obj_draw.c **** 
 248:Middlewares/lvgl/src/core/lv_obj_draw.c ****     lv_opa_t opa = lv_obj_get_style_opa(obj, part);
 249:Middlewares/lvgl/src/core/lv_obj_draw.c ****     if(opa < LV_OPA_MAX) {
 250:Middlewares/lvgl/src/core/lv_obj_draw.c ****         draw_dsc->opa = (uint16_t)((uint16_t)draw_dsc->opa * opa) >> 8;
 251:Middlewares/lvgl/src/core/lv_obj_draw.c ****     }
 252:Middlewares/lvgl/src/core/lv_obj_draw.c ****     if(draw_dsc->opa <= LV_OPA_MIN)  return;
 253:Middlewares/lvgl/src/core/lv_obj_draw.c **** 
 254:Middlewares/lvgl/src/core/lv_obj_draw.c ****     draw_dsc->color = lv_obj_get_style_line_color(obj, part);
 255:Middlewares/lvgl/src/core/lv_obj_draw.c **** 
 256:Middlewares/lvgl/src/core/lv_obj_draw.c ****     draw_dsc->dash_width = lv_obj_get_style_line_dash_width(obj, part);
 257:Middlewares/lvgl/src/core/lv_obj_draw.c ****     if(draw_dsc->dash_width) {
 258:Middlewares/lvgl/src/core/lv_obj_draw.c ****         draw_dsc->dash_gap = lv_obj_get_style_line_dash_gap(obj, part);
 259:Middlewares/lvgl/src/core/lv_obj_draw.c ****     }
 260:Middlewares/lvgl/src/core/lv_obj_draw.c **** 
 261:Middlewares/lvgl/src/core/lv_obj_draw.c ****     draw_dsc->round_start = lv_obj_get_style_line_rounded(obj, part);
 262:Middlewares/lvgl/src/core/lv_obj_draw.c ****     draw_dsc->round_end = draw_dsc->round_start;
 263:Middlewares/lvgl/src/core/lv_obj_draw.c **** 
 264:Middlewares/lvgl/src/core/lv_obj_draw.c **** #if LV_DRAW_COMPLEX
 265:Middlewares/lvgl/src/core/lv_obj_draw.c ****     draw_dsc->blend_mode = lv_obj_get_style_blend_mode(obj, part);
 266:Middlewares/lvgl/src/core/lv_obj_draw.c **** #endif
 267:Middlewares/lvgl/src/core/lv_obj_draw.c **** }
 1410              		.loc 1 267 1 view .LVU490
 1411 0016 70BD     		pop	{r4, r5, r6, pc}
 1412              	.LVL132:
 1413              	.L41:
 245:Middlewares/lvgl/src/core/lv_obj_draw.c ****     if(draw_dsc->opa <= LV_OPA_MIN)  return;
 1414              		.loc 1 245 5 is_stmt 1 view .LVU491
 1415              	.LBB246:
 1416              	.LBI246:
 461:Middlewares/lvgl/src/core/lv_obj_style_gen.h **** }
 462:Middlewares/lvgl/src/core/lv_obj_style_gen.h **** 
 463:Middlewares/lvgl/src/core/lv_obj_style_gen.h **** static inline lv_coord_t lv_obj_get_style_line_dash_width(const struct _lv_obj_t * obj, uint32_t pa
 464:Middlewares/lvgl/src/core/lv_obj_style_gen.h **** {
 465:Middlewares/lvgl/src/core/lv_obj_style_gen.h ****     lv_style_value_t v = lv_obj_get_style_prop(obj, part, LV_STYLE_LINE_DASH_WIDTH);
 466:Middlewares/lvgl/src/core/lv_obj_style_gen.h ****     return (lv_coord_t)v.num;
 467:Middlewares/lvgl/src/core/lv_obj_style_gen.h **** }
 468:Middlewares/lvgl/src/core/lv_obj_style_gen.h **** 
 469:Middlewares/lvgl/src/core/lv_obj_style_gen.h **** static inline lv_coord_t lv_obj_get_style_line_dash_gap(const struct _lv_obj_t * obj, uint32_t part
 470:Middlewares/lvgl/src/core/lv_obj_style_gen.h **** {
 471:Middlewares/lvgl/src/core/lv_obj_style_gen.h ****     lv_style_value_t v = lv_obj_get_style_prop(obj, part, LV_STYLE_LINE_DASH_GAP);
 472:Middlewares/lvgl/src/core/lv_obj_style_gen.h ****     return (lv_coord_t)v.num;
 473:Middlewares/lvgl/src/core/lv_obj_style_gen.h **** }
 474:Middlewares/lvgl/src/core/lv_obj_style_gen.h **** 
 475:Middlewares/lvgl/src/core/lv_obj_style_gen.h **** static inline lv_coord_t lv_obj_get_style_line_rounded(const struct _lv_obj_t * obj, uint32_t part)
 476:Middlewares/lvgl/src/core/lv_obj_style_gen.h **** {
 477:Middlewares/lvgl/src/core/lv_obj_style_gen.h ****     lv_style_value_t v = lv_obj_get_style_prop(obj, part, LV_STYLE_LINE_ROUNDED);
 478:Middlewares/lvgl/src/core/lv_obj_style_gen.h ****     return (lv_coord_t)v.num;
 479:Middlewares/lvgl/src/core/lv_obj_style_gen.h **** }
 480:Middlewares/lvgl/src/core/lv_obj_style_gen.h **** 
 481:Middlewares/lvgl/src/core/lv_obj_style_gen.h **** static inline lv_color_t lv_obj_get_style_line_color(const struct _lv_obj_t * obj, uint32_t part)
 482:Middlewares/lvgl/src/core/lv_obj_style_gen.h **** {
 483:Middlewares/lvgl/src/core/lv_obj_style_gen.h ****     lv_style_value_t v = lv_obj_get_style_prop(obj, part, LV_STYLE_LINE_COLOR);
 484:Middlewares/lvgl/src/core/lv_obj_style_gen.h ****     return v.color;
 485:Middlewares/lvgl/src/core/lv_obj_style_gen.h **** }
 486:Middlewares/lvgl/src/core/lv_obj_style_gen.h **** 
ARM GAS  /tmp/ccL9JfjK.s 			page 48


 487:Middlewares/lvgl/src/core/lv_obj_style_gen.h **** static inline lv_color_t lv_obj_get_style_line_color_filtered(const struct _lv_obj_t * obj, uint32_
 488:Middlewares/lvgl/src/core/lv_obj_style_gen.h **** {
 489:Middlewares/lvgl/src/core/lv_obj_style_gen.h ****     lv_style_value_t v = lv_obj_get_style_prop(obj, part, LV_STYLE_LINE_COLOR_FILTERED);
 490:Middlewares/lvgl/src/core/lv_obj_style_gen.h ****     return v.color;
 491:Middlewares/lvgl/src/core/lv_obj_style_gen.h **** }
 492:Middlewares/lvgl/src/core/lv_obj_style_gen.h **** 
 493:Middlewares/lvgl/src/core/lv_obj_style_gen.h **** static inline lv_opa_t lv_obj_get_style_line_opa(const struct _lv_obj_t * obj, uint32_t part)
 1417              		.loc 2 493 24 view .LVU492
 1418              	.LBB247:
 494:Middlewares/lvgl/src/core/lv_obj_style_gen.h **** {
 495:Middlewares/lvgl/src/core/lv_obj_style_gen.h ****     lv_style_value_t v = lv_obj_get_style_prop(obj, part, LV_STYLE_LINE_OPA);
 1419              		.loc 2 495 5 view .LVU493
 1420              		.loc 2 495 26 is_stmt 0 view .LVU494
 1421 0018 4E22     		movs	r2, #78
 1422 001a 3146     		mov	r1, r6
 1423 001c 2846     		mov	r0, r5
 1424 001e FFF7FEFF 		bl	lv_obj_get_style_prop
 1425              	.LVL133:
 496:Middlewares/lvgl/src/core/lv_obj_style_gen.h ****     return (lv_opa_t)v.num;
 1426              		.loc 2 496 5 is_stmt 1 view .LVU495
 1427              		.loc 2 496 12 is_stmt 0 view .LVU496
 1428 0022 C3B2     		uxtb	r3, r0
 1429              	.LVL134:
 1430              		.loc 2 496 12 view .LVU497
 1431              	.LBE247:
 1432              	.LBE246:
 245:Middlewares/lvgl/src/core/lv_obj_draw.c ****     if(draw_dsc->opa <= LV_OPA_MIN)  return;
 1433              		.loc 1 245 19 view .LVU498
 1434 0024 2372     		strb	r3, [r4, #8]
 246:Middlewares/lvgl/src/core/lv_obj_draw.c **** 
 1435              		.loc 1 246 5 is_stmt 1 view .LVU499
 246:Middlewares/lvgl/src/core/lv_obj_draw.c **** 
 1436              		.loc 1 246 7 is_stmt 0 view .LVU500
 1437 0026 022B     		cmp	r3, #2
 1438 0028 F5D9     		bls	.L36
 248:Middlewares/lvgl/src/core/lv_obj_draw.c ****     if(opa < LV_OPA_MAX) {
 1439              		.loc 1 248 5 is_stmt 1 view .LVU501
 1440              	.LVL135:
 1441              	.LBB248:
 1442              	.LBI248:
 139:Middlewares/lvgl/src/core/lv_obj_style_gen.h **** {
 1443              		.loc 2 139 24 view .LVU502
 1444              	.LBB249:
 141:Middlewares/lvgl/src/core/lv_obj_style_gen.h ****     return (lv_opa_t)v.num;
 1445              		.loc 2 141 5 view .LVU503
 141:Middlewares/lvgl/src/core/lv_obj_style_gen.h ****     return (lv_opa_t)v.num;
 1446              		.loc 2 141 26 is_stmt 0 view .LVU504
 1447 002a 40F26242 		movw	r2, #1122
 1448 002e 3146     		mov	r1, r6
 1449 0030 2846     		mov	r0, r5
 1450 0032 FFF7FEFF 		bl	lv_obj_get_style_prop
 1451              	.LVL136:
 142:Middlewares/lvgl/src/core/lv_obj_style_gen.h **** }
 1452              		.loc 2 142 5 is_stmt 1 view .LVU505
 142:Middlewares/lvgl/src/core/lv_obj_style_gen.h **** }
 1453              		.loc 2 142 12 is_stmt 0 view .LVU506
 1454 0036 C0B2     		uxtb	r0, r0
ARM GAS  /tmp/ccL9JfjK.s 			page 49


 1455              	.LVL137:
 142:Middlewares/lvgl/src/core/lv_obj_style_gen.h **** }
 1456              		.loc 2 142 12 view .LVU507
 1457              	.LBE249:
 1458              	.LBE248:
 249:Middlewares/lvgl/src/core/lv_obj_draw.c ****         draw_dsc->opa = (uint16_t)((uint16_t)draw_dsc->opa * opa) >> 8;
 1459              		.loc 1 249 5 is_stmt 1 view .LVU508
 249:Middlewares/lvgl/src/core/lv_obj_draw.c ****         draw_dsc->opa = (uint16_t)((uint16_t)draw_dsc->opa * opa) >> 8;
 1460              		.loc 1 249 7 is_stmt 0 view .LVU509
 1461 0038 FC28     		cmp	r0, #252
 1462 003a 04D8     		bhi	.L38
 250:Middlewares/lvgl/src/core/lv_obj_draw.c ****     }
 1463              		.loc 1 250 9 is_stmt 1 view .LVU510
 250:Middlewares/lvgl/src/core/lv_obj_draw.c ****     }
 1464              		.loc 1 250 54 is_stmt 0 view .LVU511
 1465 003c 237A     		ldrb	r3, [r4, #8]	@ zero_extendqisi2
 250:Middlewares/lvgl/src/core/lv_obj_draw.c ****     }
 1466              		.loc 1 250 25 view .LVU512
 1467 003e 03FB00F0 		mul	r0, r3, r0
 1468              	.LVL138:
 250:Middlewares/lvgl/src/core/lv_obj_draw.c ****     }
 1469              		.loc 1 250 23 view .LVU513
 1470 0042 000A     		lsrs	r0, r0, #8
 1471 0044 2072     		strb	r0, [r4, #8]
 1472              	.L38:
 252:Middlewares/lvgl/src/core/lv_obj_draw.c **** 
 1473              		.loc 1 252 5 is_stmt 1 view .LVU514
 252:Middlewares/lvgl/src/core/lv_obj_draw.c **** 
 1474              		.loc 1 252 16 is_stmt 0 view .LVU515
 1475 0046 237A     		ldrb	r3, [r4, #8]	@ zero_extendqisi2
 252:Middlewares/lvgl/src/core/lv_obj_draw.c **** 
 1476              		.loc 1 252 7 view .LVU516
 1477 0048 022B     		cmp	r3, #2
 1478 004a E4D9     		bls	.L36
 254:Middlewares/lvgl/src/core/lv_obj_draw.c **** 
 1479              		.loc 1 254 5 is_stmt 1 view .LVU517
 1480              	.LVL139:
 1481              	.LBB250:
 1482              	.LBI250:
 481:Middlewares/lvgl/src/core/lv_obj_style_gen.h **** {
 1483              		.loc 2 481 26 view .LVU518
 1484              	.LBB251:
 483:Middlewares/lvgl/src/core/lv_obj_style_gen.h ****     return v.color;
 1485              		.loc 2 483 5 view .LVU519
 483:Middlewares/lvgl/src/core/lv_obj_style_gen.h ****     return v.color;
 1486              		.loc 2 483 26 is_stmt 0 view .LVU520
 1487 004c 4D22     		movs	r2, #77
 1488 004e 3146     		mov	r1, r6
 1489 0050 2846     		mov	r0, r5
 1490 0052 FFF7FEFF 		bl	lv_obj_get_style_prop
 1491              	.LVL140:
 484:Middlewares/lvgl/src/core/lv_obj_style_gen.h **** }
 1492              		.loc 2 484 5 is_stmt 1 view .LVU521
 484:Middlewares/lvgl/src/core/lv_obj_style_gen.h **** }
 1493              		.loc 2 484 5 is_stmt 0 view .LVU522
 1494              	.LBE251:
 1495              	.LBE250:
ARM GAS  /tmp/ccL9JfjK.s 			page 50


 254:Middlewares/lvgl/src/core/lv_obj_draw.c **** 
 1496              		.loc 1 254 23 view .LVU523
 1497 0056 2080     		strh	r0, [r4]	@ movhi
 256:Middlewares/lvgl/src/core/lv_obj_draw.c ****     if(draw_dsc->dash_width) {
 1498              		.loc 1 256 5 is_stmt 1 view .LVU524
 1499              	.LVL141:
 1500              	.LBB252:
 1501              	.LBI252:
 463:Middlewares/lvgl/src/core/lv_obj_style_gen.h **** {
 1502              		.loc 2 463 26 view .LVU525
 1503              	.LBB253:
 465:Middlewares/lvgl/src/core/lv_obj_style_gen.h ****     return (lv_coord_t)v.num;
 1504              		.loc 2 465 5 view .LVU526
 465:Middlewares/lvgl/src/core/lv_obj_style_gen.h ****     return (lv_coord_t)v.num;
 1505              		.loc 2 465 26 is_stmt 0 view .LVU527
 1506 0058 4A22     		movs	r2, #74
 1507 005a 3146     		mov	r1, r6
 1508 005c 2846     		mov	r0, r5
 1509 005e FFF7FEFF 		bl	lv_obj_get_style_prop
 1510              	.LVL142:
 466:Middlewares/lvgl/src/core/lv_obj_style_gen.h **** }
 1511              		.loc 2 466 5 is_stmt 1 view .LVU528
 466:Middlewares/lvgl/src/core/lv_obj_style_gen.h **** }
 1512              		.loc 2 466 12 is_stmt 0 view .LVU529
 1513 0062 00B2     		sxth	r0, r0
 1514              	.LVL143:
 466:Middlewares/lvgl/src/core/lv_obj_style_gen.h **** }
 1515              		.loc 2 466 12 view .LVU530
 1516              	.LBE253:
 1517              	.LBE252:
 256:Middlewares/lvgl/src/core/lv_obj_draw.c ****     if(draw_dsc->dash_width) {
 1518              		.loc 1 256 26 view .LVU531
 1519 0064 A080     		strh	r0, [r4, #4]	@ movhi
 257:Middlewares/lvgl/src/core/lv_obj_draw.c ****         draw_dsc->dash_gap = lv_obj_get_style_line_dash_gap(obj, part);
 1520              		.loc 1 257 5 is_stmt 1 view .LVU532
 257:Middlewares/lvgl/src/core/lv_obj_draw.c ****         draw_dsc->dash_gap = lv_obj_get_style_line_dash_gap(obj, part);
 1521              		.loc 1 257 7 is_stmt 0 view .LVU533
 1522 0066 C0B9     		cbnz	r0, .L42
 1523              	.L39:
 261:Middlewares/lvgl/src/core/lv_obj_draw.c ****     draw_dsc->round_end = draw_dsc->round_start;
 1524              		.loc 1 261 5 is_stmt 1 view .LVU534
 1525              	.LVL144:
 1526              	.LBB254:
 1527              	.LBI254:
 475:Middlewares/lvgl/src/core/lv_obj_style_gen.h **** {
 1528              		.loc 2 475 26 view .LVU535
 1529              	.LBB255:
 477:Middlewares/lvgl/src/core/lv_obj_style_gen.h ****     return (lv_coord_t)v.num;
 1530              		.loc 2 477 5 view .LVU536
 477:Middlewares/lvgl/src/core/lv_obj_style_gen.h ****     return (lv_coord_t)v.num;
 1531              		.loc 2 477 26 is_stmt 0 view .LVU537
 1532 0068 4C22     		movs	r2, #76
 1533 006a 3146     		mov	r1, r6
 1534 006c 2846     		mov	r0, r5
 1535 006e FFF7FEFF 		bl	lv_obj_get_style_prop
 1536              	.LVL145:
 478:Middlewares/lvgl/src/core/lv_obj_style_gen.h **** }
ARM GAS  /tmp/ccL9JfjK.s 			page 51


 1537              		.loc 2 478 5 is_stmt 1 view .LVU538
 478:Middlewares/lvgl/src/core/lv_obj_style_gen.h **** }
 1538              		.loc 2 478 5 is_stmt 0 view .LVU539
 1539              	.LBE255:
 1540              	.LBE254:
 261:Middlewares/lvgl/src/core/lv_obj_draw.c ****     draw_dsc->round_end = draw_dsc->round_start;
 1541              		.loc 1 261 29 view .LVU540
 1542 0072 00F00100 		and	r0, r0, #1
 261:Middlewares/lvgl/src/core/lv_obj_draw.c ****     draw_dsc->round_end = draw_dsc->round_start;
 1543              		.loc 1 261 27 view .LVU541
 1544 0076 637A     		ldrb	r3, [r4, #9]	@ zero_extendqisi2
 1545 0078 60F38203 		bfi	r3, r0, #2, #1
 1546 007c 6372     		strb	r3, [r4, #9]
 262:Middlewares/lvgl/src/core/lv_obj_draw.c **** 
 1547              		.loc 1 262 5 is_stmt 1 view .LVU542
 262:Middlewares/lvgl/src/core/lv_obj_draw.c **** 
 1548              		.loc 1 262 25 is_stmt 0 view .LVU543
 1549 007e DBB2     		uxtb	r3, r3
 1550 0080 60F3C303 		bfi	r3, r0, #3, #1
 1551 0084 6372     		strb	r3, [r4, #9]
 265:Middlewares/lvgl/src/core/lv_obj_draw.c **** #endif
 1552              		.loc 1 265 5 is_stmt 1 view .LVU544
 1553              	.LVL146:
 1554              	.LBB256:
 1555              	.LBI256:
 175:Middlewares/lvgl/src/core/lv_obj_style_gen.h **** {
 1556              		.loc 2 175 31 view .LVU545
 1557              	.LBB257:
 177:Middlewares/lvgl/src/core/lv_obj_style_gen.h ****     return (lv_blend_mode_t)v.num;
 1558              		.loc 2 177 5 view .LVU546
 177:Middlewares/lvgl/src/core/lv_obj_style_gen.h ****     return (lv_blend_mode_t)v.num;
 1559              		.loc 2 177 26 is_stmt 0 view .LVU547
 1560 0086 6822     		movs	r2, #104
 1561 0088 3146     		mov	r1, r6
 1562 008a 2846     		mov	r0, r5
 1563 008c FFF7FEFF 		bl	lv_obj_get_style_prop
 1564              	.LVL147:
 178:Middlewares/lvgl/src/core/lv_obj_style_gen.h **** }
 1565              		.loc 2 178 5 is_stmt 1 view .LVU548
 178:Middlewares/lvgl/src/core/lv_obj_style_gen.h **** }
 1566              		.loc 2 178 5 is_stmt 0 view .LVU549
 1567              	.LBE257:
 1568              	.LBE256:
 265:Middlewares/lvgl/src/core/lv_obj_draw.c **** #endif
 1569              		.loc 1 265 26 view .LVU550
 1570 0090 637A     		ldrb	r3, [r4, #9]	@ zero_extendqisi2
 1571 0092 60F30103 		bfi	r3, r0, #0, #2
 1572 0096 6372     		strb	r3, [r4, #9]
 1573 0098 BDE7     		b	.L36
 1574              	.L42:
 258:Middlewares/lvgl/src/core/lv_obj_draw.c ****     }
 1575              		.loc 1 258 9 is_stmt 1 view .LVU551
 1576              	.LVL148:
 1577              	.LBB258:
 1578              	.LBI258:
 469:Middlewares/lvgl/src/core/lv_obj_style_gen.h **** {
 1579              		.loc 2 469 26 view .LVU552
ARM GAS  /tmp/ccL9JfjK.s 			page 52


 1580              	.LBB259:
 471:Middlewares/lvgl/src/core/lv_obj_style_gen.h ****     return (lv_coord_t)v.num;
 1581              		.loc 2 471 5 view .LVU553
 471:Middlewares/lvgl/src/core/lv_obj_style_gen.h ****     return (lv_coord_t)v.num;
 1582              		.loc 2 471 26 is_stmt 0 view .LVU554
 1583 009a 4B22     		movs	r2, #75
 1584 009c 3146     		mov	r1, r6
 1585 009e 2846     		mov	r0, r5
 1586 00a0 FFF7FEFF 		bl	lv_obj_get_style_prop
 1587              	.LVL149:
 472:Middlewares/lvgl/src/core/lv_obj_style_gen.h **** }
 1588              		.loc 2 472 5 is_stmt 1 view .LVU555
 472:Middlewares/lvgl/src/core/lv_obj_style_gen.h **** }
 1589              		.loc 2 472 5 is_stmt 0 view .LVU556
 1590              	.LBE259:
 1591              	.LBE258:
 258:Middlewares/lvgl/src/core/lv_obj_draw.c ****     }
 1592              		.loc 1 258 28 view .LVU557
 1593 00a4 E080     		strh	r0, [r4, #6]	@ movhi
 1594 00a6 DFE7     		b	.L39
 1595              		.cfi_endproc
 1596              	.LFE156:
 1598              		.section	.text.lv_obj_init_draw_arc_dsc,"ax",%progbits
 1599              		.align	1
 1600              		.global	lv_obj_init_draw_arc_dsc
 1601              		.syntax unified
 1602              		.thumb
 1603              		.thumb_func
 1604              		.fpu softvfp
 1606              	lv_obj_init_draw_arc_dsc:
 1607              	.LVL150:
 1608              	.LFB157:
 268:Middlewares/lvgl/src/core/lv_obj_draw.c **** 
 269:Middlewares/lvgl/src/core/lv_obj_draw.c **** void lv_obj_init_draw_arc_dsc(lv_obj_t * obj, uint32_t part, lv_draw_arc_dsc_t * draw_dsc)
 270:Middlewares/lvgl/src/core/lv_obj_draw.c **** {
 1609              		.loc 1 270 1 is_stmt 1 view -0
 1610              		.cfi_startproc
 1611              		@ args = 0, pretend = 0, frame = 0
 1612              		@ frame_needed = 0, uses_anonymous_args = 0
 1613              		.loc 1 270 1 is_stmt 0 view .LVU559
 1614 0000 70B5     		push	{r4, r5, r6, lr}
 1615              	.LCFI4:
 1616              		.cfi_def_cfa_offset 16
 1617              		.cfi_offset 4, -16
 1618              		.cfi_offset 5, -12
 1619              		.cfi_offset 6, -8
 1620              		.cfi_offset 14, -4
 1621 0002 0546     		mov	r5, r0
 1622 0004 0E46     		mov	r6, r1
 1623 0006 1446     		mov	r4, r2
 271:Middlewares/lvgl/src/core/lv_obj_draw.c ****     draw_dsc->width = lv_obj_get_style_arc_width(obj, part);
 1624              		.loc 1 271 5 is_stmt 1 view .LVU560
 1625              	.LVL151:
 1626              	.LBB260:
 1627              	.LBI260:
 497:Middlewares/lvgl/src/core/lv_obj_style_gen.h **** }
 498:Middlewares/lvgl/src/core/lv_obj_style_gen.h **** 
ARM GAS  /tmp/ccL9JfjK.s 			page 53


 499:Middlewares/lvgl/src/core/lv_obj_style_gen.h **** static inline lv_coord_t lv_obj_get_style_arc_width(const struct _lv_obj_t * obj, uint32_t part)
 1628              		.loc 2 499 26 view .LVU561
 1629              	.LBB261:
 500:Middlewares/lvgl/src/core/lv_obj_style_gen.h **** {
 501:Middlewares/lvgl/src/core/lv_obj_style_gen.h ****     lv_style_value_t v = lv_obj_get_style_prop(obj, part, LV_STYLE_ARC_WIDTH);
 1630              		.loc 2 501 5 view .LVU562
 1631              		.loc 2 501 26 is_stmt 0 view .LVU563
 1632 0008 4FF40562 		mov	r2, #2128
 1633              	.LVL152:
 1634              		.loc 2 501 26 view .LVU564
 1635 000c FFF7FEFF 		bl	lv_obj_get_style_prop
 1636              	.LVL153:
 502:Middlewares/lvgl/src/core/lv_obj_style_gen.h ****     return (lv_coord_t)v.num;
 1637              		.loc 2 502 5 is_stmt 1 view .LVU565
 1638              		.loc 2 502 12 is_stmt 0 view .LVU566
 1639 0010 00B2     		sxth	r0, r0
 1640              	.LVL154:
 1641              		.loc 2 502 12 view .LVU567
 1642              	.LBE261:
 1643              	.LBE260:
 1644              		.loc 1 271 21 view .LVU568
 1645 0012 6080     		strh	r0, [r4, #2]	@ movhi
 272:Middlewares/lvgl/src/core/lv_obj_draw.c ****     if(draw_dsc->width == 0) return;
 1646              		.loc 1 272 5 is_stmt 1 view .LVU569
 1647              		.loc 1 272 7 is_stmt 0 view .LVU570
 1648 0014 00B9     		cbnz	r0, .L47
 1649              	.L43:
 273:Middlewares/lvgl/src/core/lv_obj_draw.c **** 
 274:Middlewares/lvgl/src/core/lv_obj_draw.c ****     draw_dsc->opa = lv_obj_get_style_arc_opa(obj, part);
 275:Middlewares/lvgl/src/core/lv_obj_draw.c ****     if(draw_dsc->opa <= LV_OPA_MIN)  return;
 276:Middlewares/lvgl/src/core/lv_obj_draw.c **** 
 277:Middlewares/lvgl/src/core/lv_obj_draw.c ****     lv_opa_t opa = lv_obj_get_style_opa(obj, part);
 278:Middlewares/lvgl/src/core/lv_obj_draw.c ****     if(opa < LV_OPA_MAX) {
 279:Middlewares/lvgl/src/core/lv_obj_draw.c ****         draw_dsc->opa = (uint16_t)((uint16_t)draw_dsc->opa * opa) >> 8;
 280:Middlewares/lvgl/src/core/lv_obj_draw.c ****     }
 281:Middlewares/lvgl/src/core/lv_obj_draw.c ****     if(draw_dsc->opa <= LV_OPA_MIN)  return;
 282:Middlewares/lvgl/src/core/lv_obj_draw.c **** 
 283:Middlewares/lvgl/src/core/lv_obj_draw.c ****     draw_dsc->color = lv_obj_get_style_arc_color(obj, part);
 284:Middlewares/lvgl/src/core/lv_obj_draw.c ****     draw_dsc->img_src = lv_obj_get_style_arc_img_src(obj, part);
 285:Middlewares/lvgl/src/core/lv_obj_draw.c **** 
 286:Middlewares/lvgl/src/core/lv_obj_draw.c ****     draw_dsc->rounded = lv_obj_get_style_arc_rounded(obj, part);
 287:Middlewares/lvgl/src/core/lv_obj_draw.c **** 
 288:Middlewares/lvgl/src/core/lv_obj_draw.c **** #if LV_DRAW_COMPLEX
 289:Middlewares/lvgl/src/core/lv_obj_draw.c ****     draw_dsc->blend_mode = lv_obj_get_style_blend_mode(obj, part);
 290:Middlewares/lvgl/src/core/lv_obj_draw.c **** #endif
 291:Middlewares/lvgl/src/core/lv_obj_draw.c **** }
 1650              		.loc 1 291 1 view .LVU571
 1651 0016 70BD     		pop	{r4, r5, r6, pc}
 1652              	.LVL155:
 1653              	.L47:
 274:Middlewares/lvgl/src/core/lv_obj_draw.c ****     if(draw_dsc->opa <= LV_OPA_MIN)  return;
 1654              		.loc 1 274 5 is_stmt 1 view .LVU572
 1655              	.LBB262:
 1656              	.LBI262:
 503:Middlewares/lvgl/src/core/lv_obj_style_gen.h **** }
 504:Middlewares/lvgl/src/core/lv_obj_style_gen.h **** 
 505:Middlewares/lvgl/src/core/lv_obj_style_gen.h **** static inline lv_coord_t lv_obj_get_style_arc_rounded(const struct _lv_obj_t * obj, uint32_t part)
ARM GAS  /tmp/ccL9JfjK.s 			page 54


 506:Middlewares/lvgl/src/core/lv_obj_style_gen.h **** {
 507:Middlewares/lvgl/src/core/lv_obj_style_gen.h ****     lv_style_value_t v = lv_obj_get_style_prop(obj, part, LV_STYLE_ARC_ROUNDED);
 508:Middlewares/lvgl/src/core/lv_obj_style_gen.h ****     return (lv_coord_t)v.num;
 509:Middlewares/lvgl/src/core/lv_obj_style_gen.h **** }
 510:Middlewares/lvgl/src/core/lv_obj_style_gen.h **** 
 511:Middlewares/lvgl/src/core/lv_obj_style_gen.h **** static inline lv_color_t lv_obj_get_style_arc_color(const struct _lv_obj_t * obj, uint32_t part)
 512:Middlewares/lvgl/src/core/lv_obj_style_gen.h **** {
 513:Middlewares/lvgl/src/core/lv_obj_style_gen.h ****     lv_style_value_t v = lv_obj_get_style_prop(obj, part, LV_STYLE_ARC_COLOR);
 514:Middlewares/lvgl/src/core/lv_obj_style_gen.h ****     return v.color;
 515:Middlewares/lvgl/src/core/lv_obj_style_gen.h **** }
 516:Middlewares/lvgl/src/core/lv_obj_style_gen.h **** 
 517:Middlewares/lvgl/src/core/lv_obj_style_gen.h **** static inline lv_color_t lv_obj_get_style_arc_color_filtered(const struct _lv_obj_t * obj, uint32_t
 518:Middlewares/lvgl/src/core/lv_obj_style_gen.h **** {
 519:Middlewares/lvgl/src/core/lv_obj_style_gen.h ****     lv_style_value_t v = lv_obj_get_style_prop(obj, part, LV_STYLE_ARC_COLOR_FILTERED);
 520:Middlewares/lvgl/src/core/lv_obj_style_gen.h ****     return v.color;
 521:Middlewares/lvgl/src/core/lv_obj_style_gen.h **** }
 522:Middlewares/lvgl/src/core/lv_obj_style_gen.h **** 
 523:Middlewares/lvgl/src/core/lv_obj_style_gen.h **** static inline lv_opa_t lv_obj_get_style_arc_opa(const struct _lv_obj_t * obj, uint32_t part)
 1657              		.loc 2 523 24 view .LVU573
 1658              	.LBB263:
 524:Middlewares/lvgl/src/core/lv_obj_style_gen.h **** {
 525:Middlewares/lvgl/src/core/lv_obj_style_gen.h ****     lv_style_value_t v = lv_obj_get_style_prop(obj, part, LV_STYLE_ARC_OPA);
 1659              		.loc 2 525 5 view .LVU574
 1660              		.loc 2 525 26 is_stmt 0 view .LVU575
 1661 0018 5322     		movs	r2, #83
 1662 001a 3146     		mov	r1, r6
 1663 001c 2846     		mov	r0, r5
 1664 001e FFF7FEFF 		bl	lv_obj_get_style_prop
 1665              	.LVL156:
 526:Middlewares/lvgl/src/core/lv_obj_style_gen.h ****     return (lv_opa_t)v.num;
 1666              		.loc 2 526 5 is_stmt 1 view .LVU576
 1667              		.loc 2 526 12 is_stmt 0 view .LVU577
 1668 0022 C3B2     		uxtb	r3, r0
 1669              	.LVL157:
 1670              		.loc 2 526 12 view .LVU578
 1671              	.LBE263:
 1672              	.LBE262:
 274:Middlewares/lvgl/src/core/lv_obj_draw.c ****     if(draw_dsc->opa <= LV_OPA_MIN)  return;
 1673              		.loc 1 274 19 view .LVU579
 1674 0024 2372     		strb	r3, [r4, #8]
 275:Middlewares/lvgl/src/core/lv_obj_draw.c **** 
 1675              		.loc 1 275 5 is_stmt 1 view .LVU580
 275:Middlewares/lvgl/src/core/lv_obj_draw.c **** 
 1676              		.loc 1 275 7 is_stmt 0 view .LVU581
 1677 0026 022B     		cmp	r3, #2
 1678 0028 F5D9     		bls	.L43
 277:Middlewares/lvgl/src/core/lv_obj_draw.c ****     if(opa < LV_OPA_MAX) {
 1679              		.loc 1 277 5 is_stmt 1 view .LVU582
 1680              	.LVL158:
 1681              	.LBB264:
 1682              	.LBI264:
 139:Middlewares/lvgl/src/core/lv_obj_style_gen.h **** {
 1683              		.loc 2 139 24 view .LVU583
 1684              	.LBB265:
 141:Middlewares/lvgl/src/core/lv_obj_style_gen.h ****     return (lv_opa_t)v.num;
 1685              		.loc 2 141 5 view .LVU584
 141:Middlewares/lvgl/src/core/lv_obj_style_gen.h ****     return (lv_opa_t)v.num;
ARM GAS  /tmp/ccL9JfjK.s 			page 55


 1686              		.loc 2 141 26 is_stmt 0 view .LVU585
 1687 002a 40F26242 		movw	r2, #1122
 1688 002e 3146     		mov	r1, r6
 1689 0030 2846     		mov	r0, r5
 1690 0032 FFF7FEFF 		bl	lv_obj_get_style_prop
 1691              	.LVL159:
 142:Middlewares/lvgl/src/core/lv_obj_style_gen.h **** }
 1692              		.loc 2 142 5 is_stmt 1 view .LVU586
 142:Middlewares/lvgl/src/core/lv_obj_style_gen.h **** }
 1693              		.loc 2 142 12 is_stmt 0 view .LVU587
 1694 0036 C0B2     		uxtb	r0, r0
 1695              	.LVL160:
 142:Middlewares/lvgl/src/core/lv_obj_style_gen.h **** }
 1696              		.loc 2 142 12 view .LVU588
 1697              	.LBE265:
 1698              	.LBE264:
 278:Middlewares/lvgl/src/core/lv_obj_draw.c ****         draw_dsc->opa = (uint16_t)((uint16_t)draw_dsc->opa * opa) >> 8;
 1699              		.loc 1 278 5 is_stmt 1 view .LVU589
 278:Middlewares/lvgl/src/core/lv_obj_draw.c ****         draw_dsc->opa = (uint16_t)((uint16_t)draw_dsc->opa * opa) >> 8;
 1700              		.loc 1 278 7 is_stmt 0 view .LVU590
 1701 0038 FC28     		cmp	r0, #252
 1702 003a 04D8     		bhi	.L45
 279:Middlewares/lvgl/src/core/lv_obj_draw.c ****     }
 1703              		.loc 1 279 9 is_stmt 1 view .LVU591
 279:Middlewares/lvgl/src/core/lv_obj_draw.c ****     }
 1704              		.loc 1 279 54 is_stmt 0 view .LVU592
 1705 003c 237A     		ldrb	r3, [r4, #8]	@ zero_extendqisi2
 279:Middlewares/lvgl/src/core/lv_obj_draw.c ****     }
 1706              		.loc 1 279 25 view .LVU593
 1707 003e 03FB00F0 		mul	r0, r3, r0
 1708              	.LVL161:
 279:Middlewares/lvgl/src/core/lv_obj_draw.c ****     }
 1709              		.loc 1 279 23 view .LVU594
 1710 0042 000A     		lsrs	r0, r0, #8
 1711 0044 2072     		strb	r0, [r4, #8]
 1712              	.L45:
 281:Middlewares/lvgl/src/core/lv_obj_draw.c **** 
 1713              		.loc 1 281 5 is_stmt 1 view .LVU595
 281:Middlewares/lvgl/src/core/lv_obj_draw.c **** 
 1714              		.loc 1 281 16 is_stmt 0 view .LVU596
 1715 0046 237A     		ldrb	r3, [r4, #8]	@ zero_extendqisi2
 281:Middlewares/lvgl/src/core/lv_obj_draw.c **** 
 1716              		.loc 1 281 7 view .LVU597
 1717 0048 022B     		cmp	r3, #2
 1718 004a E4D9     		bls	.L43
 283:Middlewares/lvgl/src/core/lv_obj_draw.c ****     draw_dsc->img_src = lv_obj_get_style_arc_img_src(obj, part);
 1719              		.loc 1 283 5 is_stmt 1 view .LVU598
 1720              	.LVL162:
 1721              	.LBB266:
 1722              	.LBI266:
 511:Middlewares/lvgl/src/core/lv_obj_style_gen.h **** {
 1723              		.loc 2 511 26 view .LVU599
 1724              	.LBB267:
 513:Middlewares/lvgl/src/core/lv_obj_style_gen.h ****     return v.color;
 1725              		.loc 2 513 5 view .LVU600
 513:Middlewares/lvgl/src/core/lv_obj_style_gen.h ****     return v.color;
 1726              		.loc 2 513 26 is_stmt 0 view .LVU601
ARM GAS  /tmp/ccL9JfjK.s 			page 56


 1727 004c 5222     		movs	r2, #82
 1728 004e 3146     		mov	r1, r6
 1729 0050 2846     		mov	r0, r5
 1730 0052 FFF7FEFF 		bl	lv_obj_get_style_prop
 1731              	.LVL163:
 514:Middlewares/lvgl/src/core/lv_obj_style_gen.h **** }
 1732              		.loc 2 514 5 is_stmt 1 view .LVU602
 514:Middlewares/lvgl/src/core/lv_obj_style_gen.h **** }
 1733              		.loc 2 514 5 is_stmt 0 view .LVU603
 1734              	.LBE267:
 1735              	.LBE266:
 283:Middlewares/lvgl/src/core/lv_obj_draw.c ****     draw_dsc->img_src = lv_obj_get_style_arc_img_src(obj, part);
 1736              		.loc 1 283 23 view .LVU604
 1737 0056 2080     		strh	r0, [r4]	@ movhi
 284:Middlewares/lvgl/src/core/lv_obj_draw.c **** 
 1738              		.loc 1 284 5 is_stmt 1 view .LVU605
 1739              	.LVL164:
 1740              	.LBB268:
 1741              	.LBI268:
 527:Middlewares/lvgl/src/core/lv_obj_style_gen.h **** }
 528:Middlewares/lvgl/src/core/lv_obj_style_gen.h **** 
 529:Middlewares/lvgl/src/core/lv_obj_style_gen.h **** static inline const void * lv_obj_get_style_arc_img_src(const struct _lv_obj_t * obj, uint32_t part
 1742              		.loc 2 529 28 view .LVU606
 1743              	.LBB269:
 530:Middlewares/lvgl/src/core/lv_obj_style_gen.h **** {
 531:Middlewares/lvgl/src/core/lv_obj_style_gen.h ****     lv_style_value_t v = lv_obj_get_style_prop(obj, part, LV_STYLE_ARC_IMG_SRC);
 1744              		.loc 2 531 5 view .LVU607
 1745              		.loc 2 531 26 is_stmt 0 view .LVU608
 1746 0058 5422     		movs	r2, #84
 1747 005a 3146     		mov	r1, r6
 1748 005c 2846     		mov	r0, r5
 1749 005e FFF7FEFF 		bl	lv_obj_get_style_prop
 1750              	.LVL165:
 532:Middlewares/lvgl/src/core/lv_obj_style_gen.h ****     return (const void *)v.ptr;
 1751              		.loc 2 532 5 is_stmt 1 view .LVU609
 1752              		.loc 2 532 5 is_stmt 0 view .LVU610
 1753              	.LBE269:
 1754              	.LBE268:
 284:Middlewares/lvgl/src/core/lv_obj_draw.c **** 
 1755              		.loc 1 284 23 view .LVU611
 1756 0062 6060     		str	r0, [r4, #4]
 286:Middlewares/lvgl/src/core/lv_obj_draw.c **** 
 1757              		.loc 1 286 5 is_stmt 1 view .LVU612
 1758              	.LVL166:
 1759              	.LBB270:
 1760              	.LBI270:
 505:Middlewares/lvgl/src/core/lv_obj_style_gen.h **** {
 1761              		.loc 2 505 26 view .LVU613
 1762              	.LBB271:
 507:Middlewares/lvgl/src/core/lv_obj_style_gen.h ****     return (lv_coord_t)v.num;
 1763              		.loc 2 507 5 view .LVU614
 507:Middlewares/lvgl/src/core/lv_obj_style_gen.h ****     return (lv_coord_t)v.num;
 1764              		.loc 2 507 26 is_stmt 0 view .LVU615
 1765 0064 5122     		movs	r2, #81
 1766 0066 3146     		mov	r1, r6
 1767 0068 2846     		mov	r0, r5
 1768 006a FFF7FEFF 		bl	lv_obj_get_style_prop
ARM GAS  /tmp/ccL9JfjK.s 			page 57


 1769              	.LVL167:
 508:Middlewares/lvgl/src/core/lv_obj_style_gen.h **** }
 1770              		.loc 2 508 5 is_stmt 1 view .LVU616
 508:Middlewares/lvgl/src/core/lv_obj_style_gen.h **** }
 1771              		.loc 2 508 5 is_stmt 0 view .LVU617
 1772              	.LBE271:
 1773              	.LBE270:
 286:Middlewares/lvgl/src/core/lv_obj_draw.c **** 
 1774              		.loc 1 286 23 view .LVU618
 1775 006e 637A     		ldrb	r3, [r4, #9]	@ zero_extendqisi2
 1776 0070 60F38203 		bfi	r3, r0, #2, #1
 1777 0074 6372     		strb	r3, [r4, #9]
 289:Middlewares/lvgl/src/core/lv_obj_draw.c **** #endif
 1778              		.loc 1 289 5 is_stmt 1 view .LVU619
 1779              	.LVL168:
 1780              	.LBB272:
 1781              	.LBI272:
 175:Middlewares/lvgl/src/core/lv_obj_style_gen.h **** {
 1782              		.loc 2 175 31 view .LVU620
 1783              	.LBB273:
 177:Middlewares/lvgl/src/core/lv_obj_style_gen.h ****     return (lv_blend_mode_t)v.num;
 1784              		.loc 2 177 5 view .LVU621
 177:Middlewares/lvgl/src/core/lv_obj_style_gen.h ****     return (lv_blend_mode_t)v.num;
 1785              		.loc 2 177 26 is_stmt 0 view .LVU622
 1786 0076 6822     		movs	r2, #104
 1787 0078 3146     		mov	r1, r6
 1788 007a 2846     		mov	r0, r5
 1789 007c FFF7FEFF 		bl	lv_obj_get_style_prop
 1790              	.LVL169:
 178:Middlewares/lvgl/src/core/lv_obj_style_gen.h **** }
 1791              		.loc 2 178 5 is_stmt 1 view .LVU623
 178:Middlewares/lvgl/src/core/lv_obj_style_gen.h **** }
 1792              		.loc 2 178 5 is_stmt 0 view .LVU624
 1793              	.LBE273:
 1794              	.LBE272:
 289:Middlewares/lvgl/src/core/lv_obj_draw.c **** #endif
 1795              		.loc 1 289 26 view .LVU625
 1796 0080 637A     		ldrb	r3, [r4, #9]	@ zero_extendqisi2
 1797 0082 60F30103 		bfi	r3, r0, #0, #2
 1798 0086 6372     		strb	r3, [r4, #9]
 1799 0088 C5E7     		b	.L43
 1800              		.cfi_endproc
 1801              	.LFE157:
 1803              		.section	.text.lv_obj_calculate_ext_draw_size,"ax",%progbits
 1804              		.align	1
 1805              		.global	lv_obj_calculate_ext_draw_size
 1806              		.syntax unified
 1807              		.thumb
 1808              		.thumb_func
 1809              		.fpu softvfp
 1811              	lv_obj_calculate_ext_draw_size:
 1812              	.LVL170:
 1813              	.LFB158:
 292:Middlewares/lvgl/src/core/lv_obj_draw.c **** 
 293:Middlewares/lvgl/src/core/lv_obj_draw.c **** lv_coord_t lv_obj_calculate_ext_draw_size(lv_obj_t * obj, uint32_t part)
 294:Middlewares/lvgl/src/core/lv_obj_draw.c **** {
 1814              		.loc 1 294 1 is_stmt 1 view -0
ARM GAS  /tmp/ccL9JfjK.s 			page 58


 1815              		.cfi_startproc
 1816              		@ args = 0, pretend = 0, frame = 0
 1817              		@ frame_needed = 0, uses_anonymous_args = 0
 1818              		.loc 1 294 1 is_stmt 0 view .LVU627
 1819 0000 F8B5     		push	{r3, r4, r5, r6, r7, lr}
 1820              	.LCFI5:
 1821              		.cfi_def_cfa_offset 24
 1822              		.cfi_offset 3, -24
 1823              		.cfi_offset 4, -20
 1824              		.cfi_offset 5, -16
 1825              		.cfi_offset 6, -12
 1826              		.cfi_offset 7, -8
 1827              		.cfi_offset 14, -4
 1828 0002 0546     		mov	r5, r0
 1829 0004 0E46     		mov	r6, r1
 295:Middlewares/lvgl/src/core/lv_obj_draw.c ****     lv_coord_t s = 0;
 1830              		.loc 1 295 5 is_stmt 1 view .LVU628
 1831              	.LVL171:
 296:Middlewares/lvgl/src/core/lv_obj_draw.c **** 
 297:Middlewares/lvgl/src/core/lv_obj_draw.c ****     lv_coord_t sh_width = lv_obj_get_style_shadow_width(obj, part);
 1832              		.loc 1 297 5 view .LVU629
 1833              	.LBB274:
 1834              	.LBI274:
 415:Middlewares/lvgl/src/core/lv_obj_style_gen.h **** {
 1835              		.loc 2 415 26 view .LVU630
 1836              	.LBB275:
 417:Middlewares/lvgl/src/core/lv_obj_style_gen.h ****     return (lv_coord_t)v.num;
 1837              		.loc 2 417 5 view .LVU631
 417:Middlewares/lvgl/src/core/lv_obj_style_gen.h ****     return (lv_coord_t)v.num;
 1838              		.loc 2 417 26 is_stmt 0 view .LVU632
 1839 0006 4FF40462 		mov	r2, #2112
 1840 000a FFF7FEFF 		bl	lv_obj_get_style_prop
 1841              	.LVL172:
 418:Middlewares/lvgl/src/core/lv_obj_style_gen.h **** }
 1842              		.loc 2 418 5 is_stmt 1 view .LVU633
 418:Middlewares/lvgl/src/core/lv_obj_style_gen.h **** }
 1843              		.loc 2 418 12 is_stmt 0 view .LVU634
 1844 000e 04B2     		sxth	r4, r0
 1845              	.LVL173:
 418:Middlewares/lvgl/src/core/lv_obj_style_gen.h **** }
 1846              		.loc 2 418 12 view .LVU635
 1847              	.LBE275:
 1848              	.LBE274:
 298:Middlewares/lvgl/src/core/lv_obj_draw.c ****     if(sh_width) {
 1849              		.loc 1 298 5 is_stmt 1 view .LVU636
 1850              		.loc 1 298 7 is_stmt 0 view .LVU637
 1851 0010 FCB9     		cbnz	r4, .L54
 1852              	.LVL174:
 1853              	.L49:
 299:Middlewares/lvgl/src/core/lv_obj_draw.c ****         lv_opa_t sh_opa = lv_obj_get_style_shadow_opa(obj, part);
 300:Middlewares/lvgl/src/core/lv_obj_draw.c ****         if(sh_opa > LV_OPA_MIN) {
 301:Middlewares/lvgl/src/core/lv_obj_draw.c ****             sh_width = sh_width / 2 + 1;    /*The blur adds only half width*/
 302:Middlewares/lvgl/src/core/lv_obj_draw.c ****             sh_width += lv_obj_get_style_shadow_spread(obj, part);
 303:Middlewares/lvgl/src/core/lv_obj_draw.c ****             lv_coord_t sh_ofs_x = lv_obj_get_style_shadow_ofs_x(obj, part);
 304:Middlewares/lvgl/src/core/lv_obj_draw.c ****             lv_coord_t sh_ofs_y = lv_obj_get_style_shadow_ofs_y(obj, part);
 305:Middlewares/lvgl/src/core/lv_obj_draw.c ****             sh_width += LV_MAX(LV_ABS(sh_ofs_x), LV_ABS(sh_ofs_y));
 306:Middlewares/lvgl/src/core/lv_obj_draw.c ****             s = LV_MAX(s, sh_width);
ARM GAS  /tmp/ccL9JfjK.s 			page 59


 307:Middlewares/lvgl/src/core/lv_obj_draw.c ****         }
 308:Middlewares/lvgl/src/core/lv_obj_draw.c ****     }
 309:Middlewares/lvgl/src/core/lv_obj_draw.c **** 
 310:Middlewares/lvgl/src/core/lv_obj_draw.c ****     lv_coord_t outline_width = lv_obj_get_style_outline_width(obj, part);
 1854              		.loc 1 310 5 is_stmt 1 view .LVU638
 1855              	.LBB276:
 1856              	.LBI276:
 385:Middlewares/lvgl/src/core/lv_obj_style_gen.h **** {
 1857              		.loc 2 385 26 view .LVU639
 1858              	.LBB277:
 387:Middlewares/lvgl/src/core/lv_obj_style_gen.h ****     return (lv_coord_t)v.num;
 1859              		.loc 2 387 5 view .LVU640
 387:Middlewares/lvgl/src/core/lv_obj_style_gen.h ****     return (lv_coord_t)v.num;
 1860              		.loc 2 387 26 is_stmt 0 view .LVU641
 1861 0012 40F63A02 		movw	r2, #2106
 1862 0016 3146     		mov	r1, r6
 1863 0018 2846     		mov	r0, r5
 1864 001a FFF7FEFF 		bl	lv_obj_get_style_prop
 1865              	.LVL175:
 388:Middlewares/lvgl/src/core/lv_obj_style_gen.h **** }
 1866              		.loc 2 388 5 is_stmt 1 view .LVU642
 388:Middlewares/lvgl/src/core/lv_obj_style_gen.h **** }
 1867              		.loc 2 388 12 is_stmt 0 view .LVU643
 1868 001e 07B2     		sxth	r7, r0
 1869              	.LVL176:
 388:Middlewares/lvgl/src/core/lv_obj_style_gen.h **** }
 1870              		.loc 2 388 12 view .LVU644
 1871              	.LBE277:
 1872              	.LBE276:
 311:Middlewares/lvgl/src/core/lv_obj_draw.c ****     if(outline_width) {
 1873              		.loc 1 311 5 is_stmt 1 view .LVU645
 1874              		.loc 1 311 7 is_stmt 0 view .LVU646
 1875 0020 002F     		cmp	r7, #0
 1876 0022 4DD1     		bne	.L55
 1877              	.LVL177:
 1878              	.L50:
 312:Middlewares/lvgl/src/core/lv_obj_draw.c ****         lv_opa_t outline_opa = lv_obj_get_style_outline_opa(obj, part);
 313:Middlewares/lvgl/src/core/lv_obj_draw.c ****         if(outline_opa > LV_OPA_MIN) {
 314:Middlewares/lvgl/src/core/lv_obj_draw.c ****             lv_coord_t outline_pad = lv_obj_get_style_outline_pad(obj, part);
 315:Middlewares/lvgl/src/core/lv_obj_draw.c ****             s = LV_MAX(s, outline_pad + outline_width);
 316:Middlewares/lvgl/src/core/lv_obj_draw.c ****         }
 317:Middlewares/lvgl/src/core/lv_obj_draw.c ****     }
 318:Middlewares/lvgl/src/core/lv_obj_draw.c **** 
 319:Middlewares/lvgl/src/core/lv_obj_draw.c ****     lv_coord_t w = lv_obj_get_style_transform_width(obj, part);
 1879              		.loc 1 319 5 is_stmt 1 view .LVU647
 1880              	.LBB278:
 1881              	.LBI278:
  55:Middlewares/lvgl/src/core/lv_obj_style_gen.h **** {
 1882              		.loc 2 55 26 view .LVU648
 1883              	.LBB279:
  57:Middlewares/lvgl/src/core/lv_obj_style_gen.h ****     return (lv_coord_t)v.num;
 1884              		.loc 2 57 5 view .LVU649
  57:Middlewares/lvgl/src/core/lv_obj_style_gen.h ****     return (lv_coord_t)v.num;
 1885              		.loc 2 57 26 is_stmt 0 view .LVU650
 1886 0024 40F60A02 		movw	r2, #2058
 1887 0028 3146     		mov	r1, r6
 1888 002a 2846     		mov	r0, r5
ARM GAS  /tmp/ccL9JfjK.s 			page 60


 1889 002c FFF7FEFF 		bl	lv_obj_get_style_prop
 1890              	.LVL178:
  58:Middlewares/lvgl/src/core/lv_obj_style_gen.h **** }
 1891              		.loc 2 58 5 is_stmt 1 view .LVU651
  58:Middlewares/lvgl/src/core/lv_obj_style_gen.h **** }
 1892              		.loc 2 58 12 is_stmt 0 view .LVU652
 1893 0030 07B2     		sxth	r7, r0
 1894              	.LVL179:
  58:Middlewares/lvgl/src/core/lv_obj_style_gen.h **** }
 1895              		.loc 2 58 12 view .LVU653
 1896              	.LBE279:
 1897              	.LBE278:
 320:Middlewares/lvgl/src/core/lv_obj_draw.c ****     lv_coord_t h = lv_obj_get_style_transform_height(obj, part);
 1898              		.loc 1 320 5 is_stmt 1 view .LVU654
 1899              	.LBB280:
 1900              	.LBI280:
  61:Middlewares/lvgl/src/core/lv_obj_style_gen.h **** {
 1901              		.loc 2 61 26 view .LVU655
 1902              	.LBB281:
  63:Middlewares/lvgl/src/core/lv_obj_style_gen.h ****     return (lv_coord_t)v.num;
 1903              		.loc 2 63 5 view .LVU656
  63:Middlewares/lvgl/src/core/lv_obj_style_gen.h ****     return (lv_coord_t)v.num;
 1904              		.loc 2 63 26 is_stmt 0 view .LVU657
 1905 0032 40F60B02 		movw	r2, #2059
 1906 0036 3146     		mov	r1, r6
 1907 0038 2846     		mov	r0, r5
 1908 003a FFF7FEFF 		bl	lv_obj_get_style_prop
 1909              	.LVL180:
  64:Middlewares/lvgl/src/core/lv_obj_style_gen.h **** }
 1910              		.loc 2 64 5 is_stmt 1 view .LVU658
  64:Middlewares/lvgl/src/core/lv_obj_style_gen.h **** }
 1911              		.loc 2 64 12 is_stmt 0 view .LVU659
 1912 003e 00B2     		sxth	r0, r0
 1913              	.LVL181:
  64:Middlewares/lvgl/src/core/lv_obj_style_gen.h **** }
 1914              		.loc 2 64 12 view .LVU660
 1915              	.LBE281:
 1916              	.LBE280:
 321:Middlewares/lvgl/src/core/lv_obj_draw.c ****     lv_coord_t wh = LV_MAX(w, h);
 1917              		.loc 1 321 5 is_stmt 1 view .LVU661
 1918              		.loc 1 321 16 is_stmt 0 view .LVU662
 1919 0040 B842     		cmp	r0, r7
 1920 0042 B8BF     		it	lt
 1921 0044 3846     		movlt	r0, r7
 1922              	.LVL182:
 322:Middlewares/lvgl/src/core/lv_obj_draw.c ****     if(wh > 0) s += wh;
 1923              		.loc 1 322 5 is_stmt 1 view .LVU663
 1924              		.loc 1 322 7 is_stmt 0 view .LVU664
 1925 0046 0028     		cmp	r0, #0
 1926 0048 01DD     		ble	.L51
 1927              		.loc 1 322 16 is_stmt 1 discriminator 1 view .LVU665
 1928              		.loc 1 322 18 is_stmt 0 discriminator 1 view .LVU666
 1929 004a 0444     		add	r4, r4, r0
 1930              	.LVL183:
 1931              		.loc 1 322 18 discriminator 1 view .LVU667
 1932 004c 24B2     		sxth	r4, r4
 1933              	.LVL184:
ARM GAS  /tmp/ccL9JfjK.s 			page 61


 1934              	.L51:
 323:Middlewares/lvgl/src/core/lv_obj_draw.c **** 
 324:Middlewares/lvgl/src/core/lv_obj_draw.c ****     return s;
 1935              		.loc 1 324 5 is_stmt 1 view .LVU668
 325:Middlewares/lvgl/src/core/lv_obj_draw.c **** }
 1936              		.loc 1 325 1 is_stmt 0 view .LVU669
 1937 004e 2046     		mov	r0, r4
 1938              	.LVL185:
 1939              		.loc 1 325 1 view .LVU670
 1940 0050 F8BD     		pop	{r3, r4, r5, r6, r7, pc}
 1941              	.LVL186:
 1942              	.L54:
 1943              	.LBB282:
 299:Middlewares/lvgl/src/core/lv_obj_draw.c ****         if(sh_opa > LV_OPA_MIN) {
 1944              		.loc 1 299 9 is_stmt 1 view .LVU671
 1945              	.LBB283:
 1946              	.LBI283:
 451:Middlewares/lvgl/src/core/lv_obj_style_gen.h **** {
 1947              		.loc 2 451 24 view .LVU672
 1948              	.LBB284:
 453:Middlewares/lvgl/src/core/lv_obj_style_gen.h ****     return (lv_opa_t)v.num;
 1949              		.loc 2 453 5 view .LVU673
 453:Middlewares/lvgl/src/core/lv_obj_style_gen.h ****     return (lv_opa_t)v.num;
 1950              		.loc 2 453 26 is_stmt 0 view .LVU674
 1951 0052 40F64502 		movw	r2, #2117
 1952 0056 3146     		mov	r1, r6
 1953 0058 2846     		mov	r0, r5
 1954 005a FFF7FEFF 		bl	lv_obj_get_style_prop
 1955              	.LVL187:
 454:Middlewares/lvgl/src/core/lv_obj_style_gen.h **** }
 1956              		.loc 2 454 5 is_stmt 1 view .LVU675
 454:Middlewares/lvgl/src/core/lv_obj_style_gen.h **** }
 1957              		.loc 2 454 12 is_stmt 0 view .LVU676
 1958 005e C0B2     		uxtb	r0, r0
 1959              	.LVL188:
 454:Middlewares/lvgl/src/core/lv_obj_style_gen.h **** }
 1960              		.loc 2 454 12 view .LVU677
 1961              	.LBE284:
 1962              	.LBE283:
 300:Middlewares/lvgl/src/core/lv_obj_draw.c ****             sh_width = sh_width / 2 + 1;    /*The blur adds only half width*/
 1963              		.loc 1 300 9 is_stmt 1 view .LVU678
 300:Middlewares/lvgl/src/core/lv_obj_draw.c ****             sh_width = sh_width / 2 + 1;    /*The blur adds only half width*/
 1964              		.loc 1 300 11 is_stmt 0 view .LVU679
 1965 0060 0228     		cmp	r0, #2
 1966 0062 01D8     		bhi	.L56
 1967              	.LBE282:
 295:Middlewares/lvgl/src/core/lv_obj_draw.c **** 
 1968              		.loc 1 295 16 view .LVU680
 1969 0064 0024     		movs	r4, #0
 1970              	.LVL189:
 295:Middlewares/lvgl/src/core/lv_obj_draw.c **** 
 1971              		.loc 1 295 16 view .LVU681
 1972 0066 D4E7     		b	.L49
 1973              	.LVL190:
 1974              	.L56:
 1975              	.LBB292:
 1976              	.LBB285:
ARM GAS  /tmp/ccL9JfjK.s 			page 62


 301:Middlewares/lvgl/src/core/lv_obj_draw.c ****             sh_width += lv_obj_get_style_shadow_spread(obj, part);
 1977              		.loc 1 301 13 is_stmt 1 view .LVU682
 301:Middlewares/lvgl/src/core/lv_obj_draw.c ****             sh_width += lv_obj_get_style_shadow_spread(obj, part);
 1978              		.loc 1 301 37 is_stmt 0 view .LVU683
 1979 0068 04EBD474 		add	r4, r4, r4, lsr #31
 1980              	.LVL191:
 301:Middlewares/lvgl/src/core/lv_obj_draw.c ****             sh_width += lv_obj_get_style_shadow_spread(obj, part);
 1981              		.loc 1 301 37 view .LVU684
 1982 006c 6410     		asrs	r4, r4, #1
 1983 006e 0134     		adds	r4, r4, #1
 1984 0070 A4B2     		uxth	r4, r4
 1985              	.LVL192:
 302:Middlewares/lvgl/src/core/lv_obj_draw.c ****             lv_coord_t sh_ofs_x = lv_obj_get_style_shadow_ofs_x(obj, part);
 1986              		.loc 1 302 13 is_stmt 1 view .LVU685
 1987              	.LBB286:
 1988              	.LBI286:
 433:Middlewares/lvgl/src/core/lv_obj_style_gen.h **** {
 1989              		.loc 2 433 26 view .LVU686
 1990              	.LBB287:
 435:Middlewares/lvgl/src/core/lv_obj_style_gen.h ****     return (lv_coord_t)v.num;
 1991              		.loc 2 435 5 view .LVU687
 435:Middlewares/lvgl/src/core/lv_obj_style_gen.h ****     return (lv_coord_t)v.num;
 1992              		.loc 2 435 26 is_stmt 0 view .LVU688
 1993 0072 40F64302 		movw	r2, #2115
 1994 0076 3146     		mov	r1, r6
 1995 0078 2846     		mov	r0, r5
 1996              	.LVL193:
 435:Middlewares/lvgl/src/core/lv_obj_style_gen.h ****     return (lv_coord_t)v.num;
 1997              		.loc 2 435 26 view .LVU689
 1998 007a FFF7FEFF 		bl	lv_obj_get_style_prop
 1999              	.LVL194:
 436:Middlewares/lvgl/src/core/lv_obj_style_gen.h **** }
 2000              		.loc 2 436 5 is_stmt 1 view .LVU690
 436:Middlewares/lvgl/src/core/lv_obj_style_gen.h **** }
 2001              		.loc 2 436 5 is_stmt 0 view .LVU691
 2002              	.LBE287:
 2003              	.LBE286:
 302:Middlewares/lvgl/src/core/lv_obj_draw.c ****             lv_coord_t sh_ofs_x = lv_obj_get_style_shadow_ofs_x(obj, part);
 2004              		.loc 1 302 25 view .LVU692
 2005 007e 80B2     		uxth	r0, r0
 302:Middlewares/lvgl/src/core/lv_obj_draw.c ****             lv_coord_t sh_ofs_x = lv_obj_get_style_shadow_ofs_x(obj, part);
 2006              		.loc 1 302 22 view .LVU693
 2007 0080 0444     		add	r4, r4, r0
 2008              	.LVL195:
 302:Middlewares/lvgl/src/core/lv_obj_draw.c ****             lv_coord_t sh_ofs_x = lv_obj_get_style_shadow_ofs_x(obj, part);
 2009              		.loc 1 302 22 view .LVU694
 2010 0082 A4B2     		uxth	r4, r4
 2011              	.LVL196:
 303:Middlewares/lvgl/src/core/lv_obj_draw.c ****             lv_coord_t sh_ofs_y = lv_obj_get_style_shadow_ofs_y(obj, part);
 2012              		.loc 1 303 13 is_stmt 1 view .LVU695
 2013              	.LBB288:
 2014              	.LBI288:
 421:Middlewares/lvgl/src/core/lv_obj_style_gen.h **** {
 2015              		.loc 2 421 26 view .LVU696
 2016              	.LBB289:
 423:Middlewares/lvgl/src/core/lv_obj_style_gen.h ****     return (lv_coord_t)v.num;
 2017              		.loc 2 423 5 view .LVU697
ARM GAS  /tmp/ccL9JfjK.s 			page 63


 423:Middlewares/lvgl/src/core/lv_obj_style_gen.h ****     return (lv_coord_t)v.num;
 2018              		.loc 2 423 26 is_stmt 0 view .LVU698
 2019 0084 40F64102 		movw	r2, #2113
 2020 0088 3146     		mov	r1, r6
 2021 008a 2846     		mov	r0, r5
 2022 008c FFF7FEFF 		bl	lv_obj_get_style_prop
 2023              	.LVL197:
 424:Middlewares/lvgl/src/core/lv_obj_style_gen.h **** }
 2024              		.loc 2 424 5 is_stmt 1 view .LVU699
 424:Middlewares/lvgl/src/core/lv_obj_style_gen.h **** }
 2025              		.loc 2 424 12 is_stmt 0 view .LVU700
 2026 0090 07B2     		sxth	r7, r0
 2027              	.LVL198:
 424:Middlewares/lvgl/src/core/lv_obj_style_gen.h **** }
 2028              		.loc 2 424 12 view .LVU701
 2029              	.LBE289:
 2030              	.LBE288:
 304:Middlewares/lvgl/src/core/lv_obj_draw.c ****             sh_width += LV_MAX(LV_ABS(sh_ofs_x), LV_ABS(sh_ofs_y));
 2031              		.loc 1 304 13 is_stmt 1 view .LVU702
 2032              	.LBB290:
 2033              	.LBI290:
 427:Middlewares/lvgl/src/core/lv_obj_style_gen.h **** {
 2034              		.loc 2 427 26 view .LVU703
 2035              	.LBB291:
 429:Middlewares/lvgl/src/core/lv_obj_style_gen.h ****     return (lv_coord_t)v.num;
 2036              		.loc 2 429 5 view .LVU704
 429:Middlewares/lvgl/src/core/lv_obj_style_gen.h ****     return (lv_coord_t)v.num;
 2037              		.loc 2 429 26 is_stmt 0 view .LVU705
 2038 0092 40F64202 		movw	r2, #2114
 2039 0096 3146     		mov	r1, r6
 2040 0098 2846     		mov	r0, r5
 2041 009a FFF7FEFF 		bl	lv_obj_get_style_prop
 2042              	.LVL199:
 430:Middlewares/lvgl/src/core/lv_obj_style_gen.h **** }
 2043              		.loc 2 430 5 is_stmt 1 view .LVU706
 430:Middlewares/lvgl/src/core/lv_obj_style_gen.h **** }
 2044              		.loc 2 430 12 is_stmt 0 view .LVU707
 2045 009e 03B2     		sxth	r3, r0
 2046              	.LVL200:
 430:Middlewares/lvgl/src/core/lv_obj_style_gen.h **** }
 2047              		.loc 2 430 12 view .LVU708
 2048              	.LBE291:
 2049              	.LBE290:
 305:Middlewares/lvgl/src/core/lv_obj_draw.c ****             s = LV_MAX(s, sh_width);
 2050              		.loc 1 305 13 is_stmt 1 view .LVU709
 305:Middlewares/lvgl/src/core/lv_obj_draw.c ****             s = LV_MAX(s, sh_width);
 2051              		.loc 1 305 25 is_stmt 0 view .LVU710
 2052 00a0 002B     		cmp	r3, #0
 2053 00a2 B8BF     		it	lt
 2054 00a4 5B42     		rsblt	r3, r3, #0
 2055              	.LVL201:
 305:Middlewares/lvgl/src/core/lv_obj_draw.c ****             s = LV_MAX(s, sh_width);
 2056              		.loc 1 305 25 view .LVU711
 2057 00a6 9BB2     		uxth	r3, r3
 2058 00a8 002F     		cmp	r7, #0
 2059 00aa B8BF     		it	lt
 2060 00ac 7F42     		rsblt	r7, r7, #0
ARM GAS  /tmp/ccL9JfjK.s 			page 64


 2061              	.LVL202:
 305:Middlewares/lvgl/src/core/lv_obj_draw.c ****             s = LV_MAX(s, sh_width);
 2062              		.loc 1 305 25 view .LVU712
 2063 00ae BFB2     		uxth	r7, r7
 305:Middlewares/lvgl/src/core/lv_obj_draw.c ****             s = LV_MAX(s, sh_width);
 2064              		.loc 1 305 22 view .LVU713
 2065 00b0 BB42     		cmp	r3, r7
 2066 00b2 2CBF     		ite	cs
 2067 00b4 E418     		addcs	r4, r4, r3
 2068 00b6 E419     		addcc	r4, r4, r7
 2069              	.LVL203:
 305:Middlewares/lvgl/src/core/lv_obj_draw.c ****             s = LV_MAX(s, sh_width);
 2070              		.loc 1 305 22 view .LVU714
 2071 00b8 24B2     		sxth	r4, r4
 2072              	.LVL204:
 306:Middlewares/lvgl/src/core/lv_obj_draw.c ****         }
 2073              		.loc 1 306 13 is_stmt 1 view .LVU715
 306:Middlewares/lvgl/src/core/lv_obj_draw.c ****         }
 2074              		.loc 1 306 15 is_stmt 0 view .LVU716
 2075 00ba 24EAE474 		bic	r4, r4, r4, asr #31
 2076              	.LVL205:
 306:Middlewares/lvgl/src/core/lv_obj_draw.c ****         }
 2077              		.loc 1 306 15 view .LVU717
 2078 00be A8E7     		b	.L49
 2079              	.LVL206:
 2080              	.L55:
 306:Middlewares/lvgl/src/core/lv_obj_draw.c ****         }
 2081              		.loc 1 306 15 view .LVU718
 2082              	.LBE285:
 2083              	.LBE292:
 2084              	.LBB293:
 312:Middlewares/lvgl/src/core/lv_obj_draw.c ****         if(outline_opa > LV_OPA_MIN) {
 2085              		.loc 1 312 9 is_stmt 1 view .LVU719
 2086              	.LBB294:
 2087              	.LBI294:
 403:Middlewares/lvgl/src/core/lv_obj_style_gen.h **** {
 2088              		.loc 2 403 24 view .LVU720
 2089              	.LBB295:
 405:Middlewares/lvgl/src/core/lv_obj_style_gen.h ****     return (lv_opa_t)v.num;
 2090              		.loc 2 405 5 view .LVU721
 405:Middlewares/lvgl/src/core/lv_obj_style_gen.h ****     return (lv_opa_t)v.num;
 2091              		.loc 2 405 26 is_stmt 0 view .LVU722
 2092 00c0 40F63C02 		movw	r2, #2108
 2093 00c4 3146     		mov	r1, r6
 2094 00c6 2846     		mov	r0, r5
 2095 00c8 FFF7FEFF 		bl	lv_obj_get_style_prop
 2096              	.LVL207:
 406:Middlewares/lvgl/src/core/lv_obj_style_gen.h **** }
 2097              		.loc 2 406 5 is_stmt 1 view .LVU723
 406:Middlewares/lvgl/src/core/lv_obj_style_gen.h **** }
 2098              		.loc 2 406 12 is_stmt 0 view .LVU724
 2099 00cc C0B2     		uxtb	r0, r0
 2100              	.LVL208:
 406:Middlewares/lvgl/src/core/lv_obj_style_gen.h **** }
 2101              		.loc 2 406 12 view .LVU725
 2102              	.LBE295:
 2103              	.LBE294:
ARM GAS  /tmp/ccL9JfjK.s 			page 65


 313:Middlewares/lvgl/src/core/lv_obj_draw.c ****             lv_coord_t outline_pad = lv_obj_get_style_outline_pad(obj, part);
 2104              		.loc 1 313 9 is_stmt 1 view .LVU726
 313:Middlewares/lvgl/src/core/lv_obj_draw.c ****             lv_coord_t outline_pad = lv_obj_get_style_outline_pad(obj, part);
 2105              		.loc 1 313 11 is_stmt 0 view .LVU727
 2106 00ce 0228     		cmp	r0, #2
 2107 00d0 A8D9     		bls	.L50
 2108              	.LBB296:
 314:Middlewares/lvgl/src/core/lv_obj_draw.c ****             s = LV_MAX(s, outline_pad + outline_width);
 2109              		.loc 1 314 13 is_stmt 1 view .LVU728
 2110              	.LVL209:
 2111              	.LBB297:
 2112              	.LBI297:
 409:Middlewares/lvgl/src/core/lv_obj_style_gen.h **** {
 2113              		.loc 2 409 26 view .LVU729
 2114              	.LBB298:
 411:Middlewares/lvgl/src/core/lv_obj_style_gen.h ****     return (lv_coord_t)v.num;
 2115              		.loc 2 411 5 view .LVU730
 411:Middlewares/lvgl/src/core/lv_obj_style_gen.h ****     return (lv_coord_t)v.num;
 2116              		.loc 2 411 26 is_stmt 0 view .LVU731
 2117 00d2 40F63D02 		movw	r2, #2109
 2118 00d6 3146     		mov	r1, r6
 2119 00d8 2846     		mov	r0, r5
 2120              	.LVL210:
 411:Middlewares/lvgl/src/core/lv_obj_style_gen.h ****     return (lv_coord_t)v.num;
 2121              		.loc 2 411 26 view .LVU732
 2122 00da FFF7FEFF 		bl	lv_obj_get_style_prop
 2123              	.LVL211:
 412:Middlewares/lvgl/src/core/lv_obj_style_gen.h **** }
 2124              		.loc 2 412 5 is_stmt 1 view .LVU733
 412:Middlewares/lvgl/src/core/lv_obj_style_gen.h **** }
 2125              		.loc 2 412 12 is_stmt 0 view .LVU734
 2126 00de 00B2     		sxth	r0, r0
 2127              	.LVL212:
 412:Middlewares/lvgl/src/core/lv_obj_style_gen.h **** }
 2128              		.loc 2 412 12 view .LVU735
 2129              	.LBE298:
 2130              	.LBE297:
 315:Middlewares/lvgl/src/core/lv_obj_draw.c ****         }
 2131              		.loc 1 315 13 is_stmt 1 view .LVU736
 315:Middlewares/lvgl/src/core/lv_obj_draw.c ****         }
 2132              		.loc 1 315 17 is_stmt 0 view .LVU737
 2133 00e0 0744     		add	r7, r7, r0
 2134              	.LVL213:
 315:Middlewares/lvgl/src/core/lv_obj_draw.c ****         }
 2135              		.loc 1 315 17 view .LVU738
 2136 00e2 BC42     		cmp	r4, r7
 2137 00e4 B8BF     		it	lt
 2138 00e6 3C46     		movlt	r4, r7
 2139              	.LVL214:
 315:Middlewares/lvgl/src/core/lv_obj_draw.c ****         }
 2140              		.loc 1 315 15 view .LVU739
 2141 00e8 24B2     		sxth	r4, r4
 2142              	.LVL215:
 315:Middlewares/lvgl/src/core/lv_obj_draw.c ****         }
 2143              		.loc 1 315 15 view .LVU740
 2144 00ea 9BE7     		b	.L50
 2145              	.LBE296:
ARM GAS  /tmp/ccL9JfjK.s 			page 66


 2146              	.LBE293:
 2147              		.cfi_endproc
 2148              	.LFE158:
 2150              		.section	.text.lv_obj_draw_dsc_init,"ax",%progbits
 2151              		.align	1
 2152              		.global	lv_obj_draw_dsc_init
 2153              		.syntax unified
 2154              		.thumb
 2155              		.thumb_func
 2156              		.fpu softvfp
 2158              	lv_obj_draw_dsc_init:
 2159              	.LVL216:
 2160              	.LFB159:
 326:Middlewares/lvgl/src/core/lv_obj_draw.c **** 
 327:Middlewares/lvgl/src/core/lv_obj_draw.c **** void lv_obj_draw_dsc_init(lv_obj_draw_part_dsc_t * dsc, const lv_area_t * clip_area)
 328:Middlewares/lvgl/src/core/lv_obj_draw.c **** {
 2161              		.loc 1 328 1 is_stmt 1 view -0
 2162              		.cfi_startproc
 2163              		@ args = 0, pretend = 0, frame = 0
 2164              		@ frame_needed = 0, uses_anonymous_args = 0
 2165              		.loc 1 328 1 is_stmt 0 view .LVU742
 2166 0000 38B5     		push	{r3, r4, r5, lr}
 2167              	.LCFI6:
 2168              		.cfi_def_cfa_offset 16
 2169              		.cfi_offset 3, -16
 2170              		.cfi_offset 4, -12
 2171              		.cfi_offset 5, -8
 2172              		.cfi_offset 14, -4
 2173 0002 0446     		mov	r4, r0
 2174 0004 0D46     		mov	r5, r1
 329:Middlewares/lvgl/src/core/lv_obj_draw.c ****     lv_memset_00(dsc, sizeof(lv_obj_draw_part_dsc_t));
 2175              		.loc 1 329 5 is_stmt 1 view .LVU743
 2176 0006 4821     		movs	r1, #72
 2177              	.LVL217:
 2178              		.loc 1 329 5 is_stmt 0 view .LVU744
 2179 0008 FFF7FEFF 		bl	lv_memset_00
 2180              	.LVL218:
 330:Middlewares/lvgl/src/core/lv_obj_draw.c ****     dsc->clip_area = clip_area;
 2181              		.loc 1 330 5 is_stmt 1 view .LVU745
 2182              		.loc 1 330 20 is_stmt 0 view .LVU746
 2183 000c 2560     		str	r5, [r4]
 331:Middlewares/lvgl/src/core/lv_obj_draw.c **** }
 2184              		.loc 1 331 1 view .LVU747
 2185 000e 38BD     		pop	{r3, r4, r5, pc}
 2186              		.loc 1 331 1 view .LVU748
 2187              		.cfi_endproc
 2188              	.LFE159:
 2190              		.section	.text._lv_obj_get_ext_draw_size,"ax",%progbits
 2191              		.align	1
 2192              		.global	_lv_obj_get_ext_draw_size
 2193              		.syntax unified
 2194              		.thumb
 2195              		.thumb_func
 2196              		.fpu softvfp
 2198              	_lv_obj_get_ext_draw_size:
 2199              	.LVL219:
 2200              	.LFB161:
ARM GAS  /tmp/ccL9JfjK.s 			page 67


 332:Middlewares/lvgl/src/core/lv_obj_draw.c **** 
 333:Middlewares/lvgl/src/core/lv_obj_draw.c **** void lv_obj_refresh_ext_draw_size(lv_obj_t * obj)
 334:Middlewares/lvgl/src/core/lv_obj_draw.c **** {
 335:Middlewares/lvgl/src/core/lv_obj_draw.c ****     LV_ASSERT_OBJ(obj, MY_CLASS);
 336:Middlewares/lvgl/src/core/lv_obj_draw.c **** 
 337:Middlewares/lvgl/src/core/lv_obj_draw.c ****     lv_coord_t s_old = _lv_obj_get_ext_draw_size(obj);
 338:Middlewares/lvgl/src/core/lv_obj_draw.c ****     lv_coord_t s_new = 0;
 339:Middlewares/lvgl/src/core/lv_obj_draw.c ****     lv_event_send(obj, LV_EVENT_REFR_EXT_DRAW_SIZE, &s_new);
 340:Middlewares/lvgl/src/core/lv_obj_draw.c **** 
 341:Middlewares/lvgl/src/core/lv_obj_draw.c ****     if(s_new != s_old) lv_obj_invalidate(obj);
 342:Middlewares/lvgl/src/core/lv_obj_draw.c **** 
 343:Middlewares/lvgl/src/core/lv_obj_draw.c ****     /*Store the result if the special attrs already allocated*/
 344:Middlewares/lvgl/src/core/lv_obj_draw.c ****     if(obj->spec_attr) {
 345:Middlewares/lvgl/src/core/lv_obj_draw.c ****         obj->spec_attr->ext_draw_size = s_new;
 346:Middlewares/lvgl/src/core/lv_obj_draw.c ****     }
 347:Middlewares/lvgl/src/core/lv_obj_draw.c ****     /*Allocate spec. attrs. only if the result is not zero.
 348:Middlewares/lvgl/src/core/lv_obj_draw.c ****      *Zero is the default value if the spec. attr. are not defined.*/
 349:Middlewares/lvgl/src/core/lv_obj_draw.c ****     else if(s_new != 0) {
 350:Middlewares/lvgl/src/core/lv_obj_draw.c ****         lv_obj_allocate_spec_attr(obj);
 351:Middlewares/lvgl/src/core/lv_obj_draw.c ****         obj->spec_attr->ext_draw_size = s_new;
 352:Middlewares/lvgl/src/core/lv_obj_draw.c ****     }
 353:Middlewares/lvgl/src/core/lv_obj_draw.c **** 
 354:Middlewares/lvgl/src/core/lv_obj_draw.c ****     if(s_new != s_old) lv_obj_invalidate(obj);
 355:Middlewares/lvgl/src/core/lv_obj_draw.c **** }
 356:Middlewares/lvgl/src/core/lv_obj_draw.c **** 
 357:Middlewares/lvgl/src/core/lv_obj_draw.c **** lv_coord_t _lv_obj_get_ext_draw_size(const lv_obj_t * obj)
 358:Middlewares/lvgl/src/core/lv_obj_draw.c **** {
 2201              		.loc 1 358 1 is_stmt 1 view -0
 2202              		.cfi_startproc
 2203              		@ args = 0, pretend = 0, frame = 0
 2204              		@ frame_needed = 0, uses_anonymous_args = 0
 2205              		@ link register save eliminated.
 359:Middlewares/lvgl/src/core/lv_obj_draw.c ****     if(obj->spec_attr) return obj->spec_attr->ext_draw_size;
 2206              		.loc 1 359 5 view .LVU750
 2207              		.loc 1 359 11 is_stmt 0 view .LVU751
 2208 0000 8368     		ldr	r3, [r0, #8]
 2209              		.loc 1 359 7 view .LVU752
 2210 0002 13B1     		cbz	r3, .L61
 2211              		.loc 1 359 24 is_stmt 1 discriminator 1 view .LVU753
 2212              		.loc 1 359 45 is_stmt 0 discriminator 1 view .LVU754
 2213 0004 B3F91600 		ldrsh	r0, [r3, #22]
 2214              	.LVL220:
 2215              		.loc 1 359 45 discriminator 1 view .LVU755
 2216 0008 7047     		bx	lr
 2217              	.LVL221:
 2218              	.L61:
 360:Middlewares/lvgl/src/core/lv_obj_draw.c ****     else return 0;
 2219              		.loc 1 360 17 view .LVU756
 2220 000a 0020     		movs	r0, #0
 2221              	.LVL222:
 361:Middlewares/lvgl/src/core/lv_obj_draw.c **** }
 2222              		.loc 1 361 1 view .LVU757
 2223 000c 7047     		bx	lr
 2224              		.cfi_endproc
 2225              	.LFE161:
 2227              		.section	.text.lv_obj_refresh_ext_draw_size,"ax",%progbits
 2228              		.align	1
ARM GAS  /tmp/ccL9JfjK.s 			page 68


 2229              		.global	lv_obj_refresh_ext_draw_size
 2230              		.syntax unified
 2231              		.thumb
 2232              		.thumb_func
 2233              		.fpu softvfp
 2235              	lv_obj_refresh_ext_draw_size:
 2236              	.LVL223:
 2237              	.LFB160:
 334:Middlewares/lvgl/src/core/lv_obj_draw.c ****     LV_ASSERT_OBJ(obj, MY_CLASS);
 2238              		.loc 1 334 1 is_stmt 1 view -0
 2239              		.cfi_startproc
 2240              		@ args = 0, pretend = 0, frame = 8
 2241              		@ frame_needed = 0, uses_anonymous_args = 0
 334:Middlewares/lvgl/src/core/lv_obj_draw.c ****     LV_ASSERT_OBJ(obj, MY_CLASS);
 2242              		.loc 1 334 1 is_stmt 0 view .LVU759
 2243 0000 30B5     		push	{r4, r5, lr}
 2244              	.LCFI7:
 2245              		.cfi_def_cfa_offset 12
 2246              		.cfi_offset 4, -12
 2247              		.cfi_offset 5, -8
 2248              		.cfi_offset 14, -4
 2249 0002 83B0     		sub	sp, sp, #12
 2250              	.LCFI8:
 2251              		.cfi_def_cfa_offset 24
 2252 0004 0446     		mov	r4, r0
 335:Middlewares/lvgl/src/core/lv_obj_draw.c **** 
 2253              		.loc 1 335 5 is_stmt 1 view .LVU760
 335:Middlewares/lvgl/src/core/lv_obj_draw.c **** 
 2254              		.loc 1 335 5 view .LVU761
 335:Middlewares/lvgl/src/core/lv_obj_draw.c **** 
 2255              		.loc 1 335 5 view .LVU762
 337:Middlewares/lvgl/src/core/lv_obj_draw.c ****     lv_coord_t s_new = 0;
 2256              		.loc 1 337 5 view .LVU763
 337:Middlewares/lvgl/src/core/lv_obj_draw.c ****     lv_coord_t s_new = 0;
 2257              		.loc 1 337 24 is_stmt 0 view .LVU764
 2258 0006 FFF7FEFF 		bl	_lv_obj_get_ext_draw_size
 2259              	.LVL224:
 337:Middlewares/lvgl/src/core/lv_obj_draw.c ****     lv_coord_t s_new = 0;
 2260              		.loc 1 337 24 view .LVU765
 2261 000a 0546     		mov	r5, r0
 2262              	.LVL225:
 338:Middlewares/lvgl/src/core/lv_obj_draw.c ****     lv_event_send(obj, LV_EVENT_REFR_EXT_DRAW_SIZE, &s_new);
 2263              		.loc 1 338 5 is_stmt 1 view .LVU766
 338:Middlewares/lvgl/src/core/lv_obj_draw.c ****     lv_event_send(obj, LV_EVENT_REFR_EXT_DRAW_SIZE, &s_new);
 2264              		.loc 1 338 16 is_stmt 0 view .LVU767
 2265 000c 0023     		movs	r3, #0
 2266 000e ADF80630 		strh	r3, [sp, #6]	@ movhi
 339:Middlewares/lvgl/src/core/lv_obj_draw.c **** 
 2267              		.loc 1 339 5 is_stmt 1 view .LVU768
 2268 0012 0DF10602 		add	r2, sp, #6
 2269 0016 1321     		movs	r1, #19
 2270 0018 2046     		mov	r0, r4
 2271 001a FFF7FEFF 		bl	lv_event_send
 2272              	.LVL226:
 341:Middlewares/lvgl/src/core/lv_obj_draw.c **** 
 2273              		.loc 1 341 5 view .LVU769
 341:Middlewares/lvgl/src/core/lv_obj_draw.c **** 
ARM GAS  /tmp/ccL9JfjK.s 			page 69


 2274              		.loc 1 341 14 is_stmt 0 view .LVU770
 2275 001e BDF90630 		ldrsh	r3, [sp, #6]
 341:Middlewares/lvgl/src/core/lv_obj_draw.c **** 
 2276              		.loc 1 341 7 view .LVU771
 2277 0022 AB42     		cmp	r3, r5
 2278 0024 0AD1     		bne	.L68
 2279              	.L63:
 344:Middlewares/lvgl/src/core/lv_obj_draw.c ****         obj->spec_attr->ext_draw_size = s_new;
 2280              		.loc 1 344 5 is_stmt 1 view .LVU772
 344:Middlewares/lvgl/src/core/lv_obj_draw.c ****         obj->spec_attr->ext_draw_size = s_new;
 2281              		.loc 1 344 11 is_stmt 0 view .LVU773
 2282 0026 A368     		ldr	r3, [r4, #8]
 344:Middlewares/lvgl/src/core/lv_obj_draw.c ****         obj->spec_attr->ext_draw_size = s_new;
 2283              		.loc 1 344 7 view .LVU774
 2284 0028 63B1     		cbz	r3, .L64
 345:Middlewares/lvgl/src/core/lv_obj_draw.c ****     }
 2285              		.loc 1 345 9 is_stmt 1 view .LVU775
 345:Middlewares/lvgl/src/core/lv_obj_draw.c ****     }
 2286              		.loc 1 345 39 is_stmt 0 view .LVU776
 2287 002a BDF80620 		ldrh	r2, [sp, #6]
 2288 002e DA82     		strh	r2, [r3, #22]	@ movhi
 2289              	.L65:
 354:Middlewares/lvgl/src/core/lv_obj_draw.c **** }
 2290              		.loc 1 354 5 is_stmt 1 view .LVU777
 354:Middlewares/lvgl/src/core/lv_obj_draw.c **** }
 2291              		.loc 1 354 14 is_stmt 0 view .LVU778
 2292 0030 BDF90630 		ldrsh	r3, [sp, #6]
 354:Middlewares/lvgl/src/core/lv_obj_draw.c **** }
 2293              		.loc 1 354 7 view .LVU779
 2294 0034 AB42     		cmp	r3, r5
 2295 0036 11D1     		bne	.L69
 2296              	.L62:
 355:Middlewares/lvgl/src/core/lv_obj_draw.c **** 
 2297              		.loc 1 355 1 view .LVU780
 2298 0038 03B0     		add	sp, sp, #12
 2299              	.LCFI9:
 2300              		.cfi_remember_state
 2301              		.cfi_def_cfa_offset 12
 2302              		@ sp needed
 2303 003a 30BD     		pop	{r4, r5, pc}
 2304              	.LVL227:
 2305              	.L68:
 2306              	.LCFI10:
 2307              		.cfi_restore_state
 341:Middlewares/lvgl/src/core/lv_obj_draw.c **** 
 2308              		.loc 1 341 24 is_stmt 1 discriminator 1 view .LVU781
 2309 003c 2046     		mov	r0, r4
 2310 003e FFF7FEFF 		bl	lv_obj_invalidate
 2311              	.LVL228:
 2312 0042 F0E7     		b	.L63
 2313              	.L64:
 349:Middlewares/lvgl/src/core/lv_obj_draw.c ****         lv_obj_allocate_spec_attr(obj);
 2314              		.loc 1 349 10 view .LVU782
 349:Middlewares/lvgl/src/core/lv_obj_draw.c ****         lv_obj_allocate_spec_attr(obj);
 2315              		.loc 1 349 19 is_stmt 0 view .LVU783
 2316 0044 BDF90630 		ldrsh	r3, [sp, #6]
 349:Middlewares/lvgl/src/core/lv_obj_draw.c ****         lv_obj_allocate_spec_attr(obj);
ARM GAS  /tmp/ccL9JfjK.s 			page 70


 2317              		.loc 1 349 12 view .LVU784
 2318 0048 002B     		cmp	r3, #0
 2319 004a F1D0     		beq	.L65
 350:Middlewares/lvgl/src/core/lv_obj_draw.c ****         obj->spec_attr->ext_draw_size = s_new;
 2320              		.loc 1 350 9 is_stmt 1 view .LVU785
 2321 004c 2046     		mov	r0, r4
 2322 004e FFF7FEFF 		bl	lv_obj_allocate_spec_attr
 2323              	.LVL229:
 351:Middlewares/lvgl/src/core/lv_obj_draw.c ****     }
 2324              		.loc 1 351 9 view .LVU786
 351:Middlewares/lvgl/src/core/lv_obj_draw.c ****     }
 2325              		.loc 1 351 12 is_stmt 0 view .LVU787
 2326 0052 A368     		ldr	r3, [r4, #8]
 351:Middlewares/lvgl/src/core/lv_obj_draw.c ****     }
 2327              		.loc 1 351 39 view .LVU788
 2328 0054 BDF80620 		ldrh	r2, [sp, #6]
 2329 0058 DA82     		strh	r2, [r3, #22]	@ movhi
 2330 005a E9E7     		b	.L65
 2331              	.L69:
 354:Middlewares/lvgl/src/core/lv_obj_draw.c **** }
 2332              		.loc 1 354 24 is_stmt 1 discriminator 1 view .LVU789
 2333 005c 2046     		mov	r0, r4
 2334 005e FFF7FEFF 		bl	lv_obj_invalidate
 2335              	.LVL230:
 355:Middlewares/lvgl/src/core/lv_obj_draw.c **** 
 2336              		.loc 1 355 1 is_stmt 0 discriminator 1 view .LVU790
 2337 0062 E9E7     		b	.L62
 2338              		.cfi_endproc
 2339              	.LFE160:
 2341              		.text
 2342              	.Letext0:
 2343              		.file 4 "/home/akinya/gcc-arm-none-eabi/arm-none-eabi/include/machine/_default_types.h"
 2344              		.file 5 "/home/akinya/gcc-arm-none-eabi/arm-none-eabi/include/sys/_stdint.h"
 2345              		.file 6 "Middlewares/lvgl/src/core/../draw/../misc/../font/lv_font.h"
 2346              		.file 7 "Middlewares/lvgl/src/core/../draw/../misc/lv_color.h"
 2347              		.file 8 "Middlewares/lvgl/src/core/../draw/../misc/lv_txt.h"
 2348              		.file 9 "Middlewares/lvgl/src/core/../draw/../misc/lv_bidi.h"
 2349              		.file 10 "Middlewares/lvgl/src/core/../draw/../misc/lv_style.h"
 2350              		.file 11 "Middlewares/lvgl/src/core/../draw/lv_img_decoder.h"
 2351              		.file 12 "Middlewares/lvgl/src/core/../draw/lv_draw_rect.h"
 2352              		.file 13 "Middlewares/lvgl/src/core/../draw/lv_draw_label.h"
 2353              		.file 14 "Middlewares/lvgl/src/core/../draw/lv_draw_img.h"
 2354              		.file 15 "Middlewares/lvgl/src/core/../draw/lv_draw_line.h"
 2355              		.file 16 "Middlewares/lvgl/src/core/../draw/lv_draw_arc.h"
 2356              		.file 17 "Middlewares/lvgl/src/core/lv_obj_draw.h"
 2357              		.file 18 "Middlewares/lvgl/src/core/../hal/../misc/lv_ll.h"
 2358              		.file 19 "Middlewares/lvgl/src/core/lv_obj.h"
 2359              		.file 20 "Middlewares/lvgl/src/core/lv_group.h"
 2360              		.file 21 "Middlewares/lvgl/src/core/lv_obj_scroll.h"
 2361              		.file 22 "Middlewares/lvgl/src/core/lv_obj_style.h"
 2362              		.file 23 "Middlewares/lvgl/src/core/lv_obj_class.h"
 2363              		.file 24 "Middlewares/lvgl/src/core/lv_event.h"
 2364              		.file 25 "Middlewares/lvgl/src/core/lv_obj_pos.h"
 2365              		.file 26 "Middlewares/lvgl/src/core/../hal/../misc/lv_mem.h"
ARM GAS  /tmp/ccL9JfjK.s 			page 71

