ARM GAS  /tmp/ccgCqJqT.s 			page 1


   1              		.cpu cortex-m3
   2              		.eabi_attribute 20, 1
   3              		.eabi_attribute 21, 1
   4              		.eabi_attribute 23, 3
   5              		.eabi_attribute 24, 1
   6              		.eabi_attribute 25, 1
   7              		.eabi_attribute 26, 1
   8              		.eabi_attribute 30, 1
   9              		.eabi_attribute 34, 1
  10              		.eabi_attribute 18, 4
  11              		.file	"lv_obj_pos.c"
  12              		.text
  13              	.Ltext0:
  14              		.cfi_sections	.debug_frame
  15              		.section	.text.lv_obj_set_width,"ax",%progbits
  16              		.align	1
  17              		.global	lv_obj_set_width
  18              		.arch armv7-m
  19              		.syntax unified
  20              		.thumb
  21              		.thumb_func
  22              		.fpu softvfp
  24              	lv_obj_set_width:
  25              	.LVL0:
  26              	.LFB158:
  27              		.file 1 "Middlewares/lvgl/src/core/lv_obj_pos.c"
   1:Middlewares/lvgl/src/core/lv_obj_pos.c **** /**
   2:Middlewares/lvgl/src/core/lv_obj_pos.c ****  * @file lv_obj_pos.c
   3:Middlewares/lvgl/src/core/lv_obj_pos.c ****  *
   4:Middlewares/lvgl/src/core/lv_obj_pos.c ****  */
   5:Middlewares/lvgl/src/core/lv_obj_pos.c **** 
   6:Middlewares/lvgl/src/core/lv_obj_pos.c **** /*********************
   7:Middlewares/lvgl/src/core/lv_obj_pos.c ****  *      INCLUDES
   8:Middlewares/lvgl/src/core/lv_obj_pos.c ****  *********************/
   9:Middlewares/lvgl/src/core/lv_obj_pos.c **** #include "lv_obj.h"
  10:Middlewares/lvgl/src/core/lv_obj_pos.c **** #include "lv_disp.h"
  11:Middlewares/lvgl/src/core/lv_obj_pos.c **** #include "lv_refr.h"
  12:Middlewares/lvgl/src/core/lv_obj_pos.c **** #include "../misc/lv_gc.h"
  13:Middlewares/lvgl/src/core/lv_obj_pos.c **** 
  14:Middlewares/lvgl/src/core/lv_obj_pos.c **** /*********************
  15:Middlewares/lvgl/src/core/lv_obj_pos.c ****  *      DEFINES
  16:Middlewares/lvgl/src/core/lv_obj_pos.c ****  *********************/
  17:Middlewares/lvgl/src/core/lv_obj_pos.c **** #define MY_CLASS &lv_obj_class
  18:Middlewares/lvgl/src/core/lv_obj_pos.c **** 
  19:Middlewares/lvgl/src/core/lv_obj_pos.c **** /**********************
  20:Middlewares/lvgl/src/core/lv_obj_pos.c ****  *      TYPEDEFS
  21:Middlewares/lvgl/src/core/lv_obj_pos.c ****  **********************/
  22:Middlewares/lvgl/src/core/lv_obj_pos.c **** 
  23:Middlewares/lvgl/src/core/lv_obj_pos.c **** /**********************
  24:Middlewares/lvgl/src/core/lv_obj_pos.c ****  *  STATIC PROTOTYPES
  25:Middlewares/lvgl/src/core/lv_obj_pos.c ****  **********************/
  26:Middlewares/lvgl/src/core/lv_obj_pos.c **** static void calc_auto_size(lv_obj_t * obj, lv_coord_t * w_out, lv_coord_t * h_out);
  27:Middlewares/lvgl/src/core/lv_obj_pos.c **** static void layout_update_core(lv_obj_t * obj);
  28:Middlewares/lvgl/src/core/lv_obj_pos.c **** 
  29:Middlewares/lvgl/src/core/lv_obj_pos.c **** /**********************
  30:Middlewares/lvgl/src/core/lv_obj_pos.c ****  *  STATIC VARIABLES
  31:Middlewares/lvgl/src/core/lv_obj_pos.c ****  **********************/
ARM GAS  /tmp/ccgCqJqT.s 			page 2


  32:Middlewares/lvgl/src/core/lv_obj_pos.c **** static uint32_t layout_cnt;
  33:Middlewares/lvgl/src/core/lv_obj_pos.c **** 
  34:Middlewares/lvgl/src/core/lv_obj_pos.c **** /**********************
  35:Middlewares/lvgl/src/core/lv_obj_pos.c ****  *      MACROS
  36:Middlewares/lvgl/src/core/lv_obj_pos.c ****  **********************/
  37:Middlewares/lvgl/src/core/lv_obj_pos.c **** 
  38:Middlewares/lvgl/src/core/lv_obj_pos.c **** /**********************
  39:Middlewares/lvgl/src/core/lv_obj_pos.c ****  *   GLOBAL FUNCTIONS
  40:Middlewares/lvgl/src/core/lv_obj_pos.c ****  **********************/
  41:Middlewares/lvgl/src/core/lv_obj_pos.c **** 
  42:Middlewares/lvgl/src/core/lv_obj_pos.c **** void lv_obj_set_pos(lv_obj_t * obj, lv_coord_t x, lv_coord_t y)
  43:Middlewares/lvgl/src/core/lv_obj_pos.c **** {
  44:Middlewares/lvgl/src/core/lv_obj_pos.c ****     LV_ASSERT_OBJ(obj, MY_CLASS);
  45:Middlewares/lvgl/src/core/lv_obj_pos.c **** 
  46:Middlewares/lvgl/src/core/lv_obj_pos.c ****     lv_obj_set_x(obj, x);
  47:Middlewares/lvgl/src/core/lv_obj_pos.c ****     lv_obj_set_y(obj, y);
  48:Middlewares/lvgl/src/core/lv_obj_pos.c **** }
  49:Middlewares/lvgl/src/core/lv_obj_pos.c **** 
  50:Middlewares/lvgl/src/core/lv_obj_pos.c **** void lv_obj_set_x(lv_obj_t * obj, lv_coord_t x)
  51:Middlewares/lvgl/src/core/lv_obj_pos.c **** {
  52:Middlewares/lvgl/src/core/lv_obj_pos.c ****     LV_ASSERT_OBJ(obj, MY_CLASS);
  53:Middlewares/lvgl/src/core/lv_obj_pos.c ****     if(lv_obj_is_layout_positioned(obj)) {
  54:Middlewares/lvgl/src/core/lv_obj_pos.c ****         return;
  55:Middlewares/lvgl/src/core/lv_obj_pos.c ****     }
  56:Middlewares/lvgl/src/core/lv_obj_pos.c **** 
  57:Middlewares/lvgl/src/core/lv_obj_pos.c ****     lv_res_t res_x;
  58:Middlewares/lvgl/src/core/lv_obj_pos.c ****     lv_style_value_t v_x;
  59:Middlewares/lvgl/src/core/lv_obj_pos.c **** 
  60:Middlewares/lvgl/src/core/lv_obj_pos.c ****     res_x = lv_obj_get_local_style_prop(obj, LV_STYLE_X, &v_x, 0);
  61:Middlewares/lvgl/src/core/lv_obj_pos.c **** 
  62:Middlewares/lvgl/src/core/lv_obj_pos.c ****     if((res_x == LV_RES_OK && v_x.num != x) || res_x == LV_RES_INV) {
  63:Middlewares/lvgl/src/core/lv_obj_pos.c ****         lv_obj_set_style_x(obj, x, 0);
  64:Middlewares/lvgl/src/core/lv_obj_pos.c ****     }
  65:Middlewares/lvgl/src/core/lv_obj_pos.c **** }
  66:Middlewares/lvgl/src/core/lv_obj_pos.c **** 
  67:Middlewares/lvgl/src/core/lv_obj_pos.c **** void lv_obj_set_y(lv_obj_t * obj, lv_coord_t y)
  68:Middlewares/lvgl/src/core/lv_obj_pos.c **** {
  69:Middlewares/lvgl/src/core/lv_obj_pos.c ****     if(lv_obj_is_layout_positioned(obj)) {
  70:Middlewares/lvgl/src/core/lv_obj_pos.c ****         return;
  71:Middlewares/lvgl/src/core/lv_obj_pos.c ****     }
  72:Middlewares/lvgl/src/core/lv_obj_pos.c ****     LV_ASSERT_OBJ(obj, MY_CLASS);
  73:Middlewares/lvgl/src/core/lv_obj_pos.c **** 
  74:Middlewares/lvgl/src/core/lv_obj_pos.c ****     lv_res_t res_y;
  75:Middlewares/lvgl/src/core/lv_obj_pos.c ****     lv_style_value_t v_y;
  76:Middlewares/lvgl/src/core/lv_obj_pos.c **** 
  77:Middlewares/lvgl/src/core/lv_obj_pos.c ****     res_y = lv_obj_get_local_style_prop(obj, LV_STYLE_Y, &v_y, 0);
  78:Middlewares/lvgl/src/core/lv_obj_pos.c **** 
  79:Middlewares/lvgl/src/core/lv_obj_pos.c ****     if((res_y == LV_RES_OK && v_y.num != y) || res_y == LV_RES_INV) {
  80:Middlewares/lvgl/src/core/lv_obj_pos.c ****         lv_obj_set_style_y(obj, y, 0);
  81:Middlewares/lvgl/src/core/lv_obj_pos.c ****     }
  82:Middlewares/lvgl/src/core/lv_obj_pos.c **** }
  83:Middlewares/lvgl/src/core/lv_obj_pos.c **** 
  84:Middlewares/lvgl/src/core/lv_obj_pos.c **** bool lv_obj_refr_size(lv_obj_t * obj)
  85:Middlewares/lvgl/src/core/lv_obj_pos.c **** {
  86:Middlewares/lvgl/src/core/lv_obj_pos.c ****     LV_ASSERT_OBJ(obj, MY_CLASS);
  87:Middlewares/lvgl/src/core/lv_obj_pos.c **** 
  88:Middlewares/lvgl/src/core/lv_obj_pos.c ****     /*If the width or height is set by a layout do not modify them*/
ARM GAS  /tmp/ccgCqJqT.s 			page 3


  89:Middlewares/lvgl/src/core/lv_obj_pos.c ****     if(obj->w_layout && obj->h_layout) return false;
  90:Middlewares/lvgl/src/core/lv_obj_pos.c **** 
  91:Middlewares/lvgl/src/core/lv_obj_pos.c ****     lv_obj_t * parent = lv_obj_get_parent(obj);
  92:Middlewares/lvgl/src/core/lv_obj_pos.c ****     if(parent == NULL) return false;
  93:Middlewares/lvgl/src/core/lv_obj_pos.c **** 
  94:Middlewares/lvgl/src/core/lv_obj_pos.c ****     lv_coord_t w;
  95:Middlewares/lvgl/src/core/lv_obj_pos.c ****     lv_coord_t sl_ori = lv_obj_get_scroll_left(obj);
  96:Middlewares/lvgl/src/core/lv_obj_pos.c ****     bool w_content = false;
  97:Middlewares/lvgl/src/core/lv_obj_pos.c ****     if(obj->w_layout) {
  98:Middlewares/lvgl/src/core/lv_obj_pos.c ****         w = lv_obj_get_width(obj);
  99:Middlewares/lvgl/src/core/lv_obj_pos.c ****     } else {
 100:Middlewares/lvgl/src/core/lv_obj_pos.c ****         w = lv_obj_get_style_width(obj, LV_PART_MAIN);
 101:Middlewares/lvgl/src/core/lv_obj_pos.c ****         w_content = w == LV_SIZE_CONTENT ? true : false;
 102:Middlewares/lvgl/src/core/lv_obj_pos.c **** 
 103:Middlewares/lvgl/src/core/lv_obj_pos.c ****         /*Be sure the object is not scrolled when it has auto size*/
 104:Middlewares/lvgl/src/core/lv_obj_pos.c ****         if(w_content) {
 105:Middlewares/lvgl/src/core/lv_obj_pos.c ****             lv_obj_scroll_to_x(obj, 0, LV_ANIM_OFF);
 106:Middlewares/lvgl/src/core/lv_obj_pos.c ****             calc_auto_size(obj, &w, NULL);
 107:Middlewares/lvgl/src/core/lv_obj_pos.c ****         }
 108:Middlewares/lvgl/src/core/lv_obj_pos.c **** 
 109:Middlewares/lvgl/src/core/lv_obj_pos.c ****         /*Calculate the sizes in percentage*/
 110:Middlewares/lvgl/src/core/lv_obj_pos.c ****         bool pct_w = LV_COORD_IS_PCT(w) ? true : false;
 111:Middlewares/lvgl/src/core/lv_obj_pos.c **** 
 112:Middlewares/lvgl/src/core/lv_obj_pos.c ****         lv_coord_t parent_w = lv_obj_get_content_width(parent);
 113:Middlewares/lvgl/src/core/lv_obj_pos.c ****         if(pct_w) w = (LV_COORD_GET_PCT(w) * parent_w) / 100;
 114:Middlewares/lvgl/src/core/lv_obj_pos.c **** 
 115:Middlewares/lvgl/src/core/lv_obj_pos.c ****         lv_coord_t minw = lv_obj_get_style_min_width(obj, LV_PART_MAIN);
 116:Middlewares/lvgl/src/core/lv_obj_pos.c ****         lv_coord_t maxw = lv_obj_get_style_max_width(obj, LV_PART_MAIN);
 117:Middlewares/lvgl/src/core/lv_obj_pos.c ****         w = lv_clamp_width(w, minw, maxw, parent_w);
 118:Middlewares/lvgl/src/core/lv_obj_pos.c ****     }
 119:Middlewares/lvgl/src/core/lv_obj_pos.c **** 
 120:Middlewares/lvgl/src/core/lv_obj_pos.c ****     lv_coord_t h;
 121:Middlewares/lvgl/src/core/lv_obj_pos.c ****     lv_coord_t st_ori = lv_obj_get_scroll_top(obj);
 122:Middlewares/lvgl/src/core/lv_obj_pos.c ****     bool h_content = false;
 123:Middlewares/lvgl/src/core/lv_obj_pos.c ****     if(obj->h_layout) {
 124:Middlewares/lvgl/src/core/lv_obj_pos.c ****         h = lv_obj_get_height(obj);
 125:Middlewares/lvgl/src/core/lv_obj_pos.c ****     } else {
 126:Middlewares/lvgl/src/core/lv_obj_pos.c ****         h = lv_obj_get_style_height(obj, LV_PART_MAIN);
 127:Middlewares/lvgl/src/core/lv_obj_pos.c ****         h_content = h == LV_SIZE_CONTENT ? true : false;
 128:Middlewares/lvgl/src/core/lv_obj_pos.c **** 
 129:Middlewares/lvgl/src/core/lv_obj_pos.c ****         /*Be sure the object is not scrolled when it has auto size*/
 130:Middlewares/lvgl/src/core/lv_obj_pos.c ****         if(h_content) {
 131:Middlewares/lvgl/src/core/lv_obj_pos.c ****             lv_obj_scroll_to_y(obj, 0, LV_ANIM_OFF);
 132:Middlewares/lvgl/src/core/lv_obj_pos.c ****             calc_auto_size(obj, NULL, &h);
 133:Middlewares/lvgl/src/core/lv_obj_pos.c ****         }
 134:Middlewares/lvgl/src/core/lv_obj_pos.c **** 
 135:Middlewares/lvgl/src/core/lv_obj_pos.c ****         /*Calculate the sizes in percentage*/
 136:Middlewares/lvgl/src/core/lv_obj_pos.c ****         bool pct_h = LV_COORD_IS_PCT(h) ? true : false;
 137:Middlewares/lvgl/src/core/lv_obj_pos.c ****         lv_coord_t parent_h = lv_obj_get_content_height(parent);
 138:Middlewares/lvgl/src/core/lv_obj_pos.c ****         if(pct_h) h = (LV_COORD_GET_PCT(h) * parent_h) / 100;
 139:Middlewares/lvgl/src/core/lv_obj_pos.c **** 
 140:Middlewares/lvgl/src/core/lv_obj_pos.c ****         lv_coord_t minh = lv_obj_get_style_min_height(obj, LV_PART_MAIN);
 141:Middlewares/lvgl/src/core/lv_obj_pos.c ****         lv_coord_t maxh = lv_obj_get_style_max_height(obj, LV_PART_MAIN);
 142:Middlewares/lvgl/src/core/lv_obj_pos.c ****         h = lv_clamp_height(h, minh, maxh, parent_h);
 143:Middlewares/lvgl/src/core/lv_obj_pos.c ****     }
 144:Middlewares/lvgl/src/core/lv_obj_pos.c **** 
 145:Middlewares/lvgl/src/core/lv_obj_pos.c ****     /*calc_auto_size set the scroll x/y to 0 so revert the original value*/
ARM GAS  /tmp/ccgCqJqT.s 			page 4


 146:Middlewares/lvgl/src/core/lv_obj_pos.c ****     if(w_content || h_content) {
 147:Middlewares/lvgl/src/core/lv_obj_pos.c ****         lv_obj_scroll_to(obj, sl_ori, st_ori, LV_ANIM_OFF);
 148:Middlewares/lvgl/src/core/lv_obj_pos.c ****     }
 149:Middlewares/lvgl/src/core/lv_obj_pos.c **** 
 150:Middlewares/lvgl/src/core/lv_obj_pos.c ****     /*Do nothing if the size is not changed*/
 151:Middlewares/lvgl/src/core/lv_obj_pos.c ****     /*It is very important else recursive resizing can occur without size change*/
 152:Middlewares/lvgl/src/core/lv_obj_pos.c ****     if(lv_obj_get_width(obj) == w && lv_obj_get_height(obj) == h) return false;
 153:Middlewares/lvgl/src/core/lv_obj_pos.c **** 
 154:Middlewares/lvgl/src/core/lv_obj_pos.c ****     /*Invalidate the original area*/
 155:Middlewares/lvgl/src/core/lv_obj_pos.c ****     lv_obj_invalidate(obj);
 156:Middlewares/lvgl/src/core/lv_obj_pos.c **** 
 157:Middlewares/lvgl/src/core/lv_obj_pos.c ****     /*Save the original coordinates*/
 158:Middlewares/lvgl/src/core/lv_obj_pos.c ****     lv_area_t ori;
 159:Middlewares/lvgl/src/core/lv_obj_pos.c ****     lv_obj_get_coords(obj, &ori);
 160:Middlewares/lvgl/src/core/lv_obj_pos.c **** 
 161:Middlewares/lvgl/src/core/lv_obj_pos.c ****     /*Check if the object inside the parent or not*/
 162:Middlewares/lvgl/src/core/lv_obj_pos.c ****     lv_area_t parent_fit_area;
 163:Middlewares/lvgl/src/core/lv_obj_pos.c ****     lv_obj_get_content_coords(parent, &parent_fit_area);
 164:Middlewares/lvgl/src/core/lv_obj_pos.c **** 
 165:Middlewares/lvgl/src/core/lv_obj_pos.c ****     /*If the object is already out of the parent and its position is changes
 166:Middlewares/lvgl/src/core/lv_obj_pos.c ****      *surely the scrollbars also changes so invalidate them*/
 167:Middlewares/lvgl/src/core/lv_obj_pos.c ****     bool on1 = _lv_area_is_in(&ori, &parent_fit_area, 0);
 168:Middlewares/lvgl/src/core/lv_obj_pos.c ****     if(!on1) lv_obj_scrollbar_invalidate(parent);
 169:Middlewares/lvgl/src/core/lv_obj_pos.c **** 
 170:Middlewares/lvgl/src/core/lv_obj_pos.c ****     /*Set the length and height
 171:Middlewares/lvgl/src/core/lv_obj_pos.c ****      *Be sure the content is not scrolled in an invalid position on the new size*/
 172:Middlewares/lvgl/src/core/lv_obj_pos.c ****     obj->coords.y2 = obj->coords.y1 + h - 1;
 173:Middlewares/lvgl/src/core/lv_obj_pos.c ****     if(lv_obj_get_style_base_dir(obj, LV_PART_MAIN) == LV_BASE_DIR_RTL) {
 174:Middlewares/lvgl/src/core/lv_obj_pos.c ****         obj->coords.x1 = obj->coords.x2 - w + 1;
 175:Middlewares/lvgl/src/core/lv_obj_pos.c ****     }
 176:Middlewares/lvgl/src/core/lv_obj_pos.c ****     else {
 177:Middlewares/lvgl/src/core/lv_obj_pos.c ****         obj->coords.x2 = obj->coords.x1 + w - 1;
 178:Middlewares/lvgl/src/core/lv_obj_pos.c ****     }
 179:Middlewares/lvgl/src/core/lv_obj_pos.c **** 
 180:Middlewares/lvgl/src/core/lv_obj_pos.c ****     /*Call the ancestor's event handler to the object with its new coordinates*/
 181:Middlewares/lvgl/src/core/lv_obj_pos.c ****     lv_event_send(obj, LV_EVENT_SIZE_CHANGED, &ori);
 182:Middlewares/lvgl/src/core/lv_obj_pos.c **** 
 183:Middlewares/lvgl/src/core/lv_obj_pos.c ****     /*Call the ancestor's event handler to the parent too*/
 184:Middlewares/lvgl/src/core/lv_obj_pos.c ****     lv_event_send(parent, LV_EVENT_CHILD_CHANGED, obj);
 185:Middlewares/lvgl/src/core/lv_obj_pos.c **** 
 186:Middlewares/lvgl/src/core/lv_obj_pos.c ****     /*Invalidate the new area*/
 187:Middlewares/lvgl/src/core/lv_obj_pos.c ****     lv_obj_invalidate(obj);
 188:Middlewares/lvgl/src/core/lv_obj_pos.c **** 
 189:Middlewares/lvgl/src/core/lv_obj_pos.c ****     lv_obj_readjust_scroll(obj, LV_ANIM_OFF);
 190:Middlewares/lvgl/src/core/lv_obj_pos.c **** 
 191:Middlewares/lvgl/src/core/lv_obj_pos.c ****     /*If the object was out of the parent invalidate the new scrollbar area too.
 192:Middlewares/lvgl/src/core/lv_obj_pos.c ****      *If it wasn't out of the parent but out now, also invalidate the srollbars*/
 193:Middlewares/lvgl/src/core/lv_obj_pos.c ****     bool on2 = _lv_area_is_in(&obj->coords, &parent_fit_area, 0);
 194:Middlewares/lvgl/src/core/lv_obj_pos.c ****     if(on1 || (!on1 && on2)) lv_obj_scrollbar_invalidate(parent);
 195:Middlewares/lvgl/src/core/lv_obj_pos.c **** 
 196:Middlewares/lvgl/src/core/lv_obj_pos.c **** 
 197:Middlewares/lvgl/src/core/lv_obj_pos.c **** 
 198:Middlewares/lvgl/src/core/lv_obj_pos.c **** 
 199:Middlewares/lvgl/src/core/lv_obj_pos.c **** 
 200:Middlewares/lvgl/src/core/lv_obj_pos.c ****     return true;
 201:Middlewares/lvgl/src/core/lv_obj_pos.c **** }
 202:Middlewares/lvgl/src/core/lv_obj_pos.c **** 
ARM GAS  /tmp/ccgCqJqT.s 			page 5


 203:Middlewares/lvgl/src/core/lv_obj_pos.c **** void lv_obj_set_size(lv_obj_t * obj, lv_coord_t w, lv_coord_t h)
 204:Middlewares/lvgl/src/core/lv_obj_pos.c **** {
 205:Middlewares/lvgl/src/core/lv_obj_pos.c ****     LV_ASSERT_OBJ(obj, MY_CLASS);
 206:Middlewares/lvgl/src/core/lv_obj_pos.c **** 
 207:Middlewares/lvgl/src/core/lv_obj_pos.c ****     lv_obj_set_width(obj, w);
 208:Middlewares/lvgl/src/core/lv_obj_pos.c ****     lv_obj_set_height(obj, h);
 209:Middlewares/lvgl/src/core/lv_obj_pos.c **** }
 210:Middlewares/lvgl/src/core/lv_obj_pos.c **** 
 211:Middlewares/lvgl/src/core/lv_obj_pos.c **** void lv_obj_set_width(lv_obj_t * obj, lv_coord_t w)
 212:Middlewares/lvgl/src/core/lv_obj_pos.c **** {
  28              		.loc 1 212 1 view -0
  29              		.cfi_startproc
  30              		@ args = 0, pretend = 0, frame = 8
  31              		@ frame_needed = 0, uses_anonymous_args = 0
  32              		.loc 1 212 1 is_stmt 0 view .LVU1
  33 0000 30B5     		push	{r4, r5, lr}
  34              	.LCFI0:
  35              		.cfi_def_cfa_offset 12
  36              		.cfi_offset 4, -12
  37              		.cfi_offset 5, -8
  38              		.cfi_offset 14, -4
  39 0002 83B0     		sub	sp, sp, #12
  40              	.LCFI1:
  41              		.cfi_def_cfa_offset 24
  42 0004 0546     		mov	r5, r0
  43 0006 0C46     		mov	r4, r1
 213:Middlewares/lvgl/src/core/lv_obj_pos.c ****     LV_ASSERT_OBJ(obj, MY_CLASS);
  44              		.loc 1 213 5 is_stmt 1 view .LVU2
  45              		.loc 1 213 5 view .LVU3
  46              		.loc 1 213 5 view .LVU4
 214:Middlewares/lvgl/src/core/lv_obj_pos.c ****     lv_res_t res_w;
  47              		.loc 1 214 5 view .LVU5
 215:Middlewares/lvgl/src/core/lv_obj_pos.c ****     lv_style_value_t v_w;
  48              		.loc 1 215 5 view .LVU6
 216:Middlewares/lvgl/src/core/lv_obj_pos.c **** 
 217:Middlewares/lvgl/src/core/lv_obj_pos.c ****     res_w = lv_obj_get_local_style_prop(obj, LV_STYLE_WIDTH, &v_w, 0);
  49              		.loc 1 217 5 view .LVU7
  50              		.loc 1 217 13 is_stmt 0 view .LVU8
  51 0008 0023     		movs	r3, #0
  52 000a 01AA     		add	r2, sp, #4
  53 000c 41F20101 		movw	r1, #4097
  54              	.LVL1:
  55              		.loc 1 217 13 view .LVU9
  56 0010 FFF7FEFF 		bl	lv_obj_get_local_style_prop
  57              	.LVL2:
 218:Middlewares/lvgl/src/core/lv_obj_pos.c **** 
 219:Middlewares/lvgl/src/core/lv_obj_pos.c ****     if((res_w == LV_RES_OK && v_w.num != w) || res_w == LV_RES_INV) {
  58              		.loc 1 219 5 is_stmt 1 view .LVU10
  59              		.loc 1 219 7 is_stmt 0 view .LVU11
  60 0014 0128     		cmp	r0, #1
  61 0016 07D0     		beq	.L6
  62              	.L2:
  63              		.loc 1 219 45 discriminator 3 view .LVU12
  64 0018 20B9     		cbnz	r0, .L1
  65              	.L3:
 220:Middlewares/lvgl/src/core/lv_obj_pos.c ****         lv_obj_set_style_width(obj, w, 0);
  66              		.loc 1 220 9 is_stmt 1 view .LVU13
ARM GAS  /tmp/ccgCqJqT.s 			page 6


  67 001a 0022     		movs	r2, #0
  68 001c 2146     		mov	r1, r4
  69 001e 2846     		mov	r0, r5
  70              	.LVL3:
  71              		.loc 1 220 9 is_stmt 0 view .LVU14
  72 0020 FFF7FEFF 		bl	lv_obj_set_style_width
  73              	.LVL4:
  74              	.L1:
 221:Middlewares/lvgl/src/core/lv_obj_pos.c ****     }
 222:Middlewares/lvgl/src/core/lv_obj_pos.c **** }
  75              		.loc 1 222 1 view .LVU15
  76 0024 03B0     		add	sp, sp, #12
  77              	.LCFI2:
  78              		.cfi_remember_state
  79              		.cfi_def_cfa_offset 12
  80              		@ sp needed
  81 0026 30BD     		pop	{r4, r5, pc}
  82              	.LVL5:
  83              	.L6:
  84              	.LCFI3:
  85              		.cfi_restore_state
 219:Middlewares/lvgl/src/core/lv_obj_pos.c ****         lv_obj_set_style_width(obj, w, 0);
  86              		.loc 1 219 34 discriminator 1 view .LVU16
  87 0028 019B     		ldr	r3, [sp, #4]
 219:Middlewares/lvgl/src/core/lv_obj_pos.c ****         lv_obj_set_style_width(obj, w, 0);
  88              		.loc 1 219 28 discriminator 1 view .LVU17
  89 002a A342     		cmp	r3, r4
  90 002c F5D1     		bne	.L3
  91 002e F3E7     		b	.L2
  92              		.cfi_endproc
  93              	.LFE158:
  95              		.section	.text.lv_obj_set_height,"ax",%progbits
  96              		.align	1
  97              		.global	lv_obj_set_height
  98              		.syntax unified
  99              		.thumb
 100              		.thumb_func
 101              		.fpu softvfp
 103              	lv_obj_set_height:
 104              	.LVL6:
 105              	.LFB159:
 223:Middlewares/lvgl/src/core/lv_obj_pos.c **** 
 224:Middlewares/lvgl/src/core/lv_obj_pos.c **** void lv_obj_set_height(lv_obj_t * obj, lv_coord_t h)
 225:Middlewares/lvgl/src/core/lv_obj_pos.c **** {
 106              		.loc 1 225 1 is_stmt 1 view -0
 107              		.cfi_startproc
 108              		@ args = 0, pretend = 0, frame = 8
 109              		@ frame_needed = 0, uses_anonymous_args = 0
 110              		.loc 1 225 1 is_stmt 0 view .LVU19
 111 0000 30B5     		push	{r4, r5, lr}
 112              	.LCFI4:
 113              		.cfi_def_cfa_offset 12
 114              		.cfi_offset 4, -12
 115              		.cfi_offset 5, -8
 116              		.cfi_offset 14, -4
 117 0002 83B0     		sub	sp, sp, #12
 118              	.LCFI5:
ARM GAS  /tmp/ccgCqJqT.s 			page 7


 119              		.cfi_def_cfa_offset 24
 120 0004 0546     		mov	r5, r0
 121 0006 0C46     		mov	r4, r1
 226:Middlewares/lvgl/src/core/lv_obj_pos.c ****     LV_ASSERT_OBJ(obj, MY_CLASS);
 122              		.loc 1 226 5 is_stmt 1 view .LVU20
 123              		.loc 1 226 5 view .LVU21
 124              		.loc 1 226 5 view .LVU22
 227:Middlewares/lvgl/src/core/lv_obj_pos.c ****     lv_res_t res_h;
 125              		.loc 1 227 5 view .LVU23
 228:Middlewares/lvgl/src/core/lv_obj_pos.c ****     lv_style_value_t v_h;
 126              		.loc 1 228 5 view .LVU24
 229:Middlewares/lvgl/src/core/lv_obj_pos.c **** 
 230:Middlewares/lvgl/src/core/lv_obj_pos.c ****     res_h = lv_obj_get_local_style_prop(obj, LV_STYLE_HEIGHT, &v_h, 0);
 127              		.loc 1 230 5 view .LVU25
 128              		.loc 1 230 13 is_stmt 0 view .LVU26
 129 0008 0023     		movs	r3, #0
 130 000a 01AA     		add	r2, sp, #4
 131 000c 41F20401 		movw	r1, #4100
 132              	.LVL7:
 133              		.loc 1 230 13 view .LVU27
 134 0010 FFF7FEFF 		bl	lv_obj_get_local_style_prop
 135              	.LVL8:
 231:Middlewares/lvgl/src/core/lv_obj_pos.c **** 
 232:Middlewares/lvgl/src/core/lv_obj_pos.c ****     if((res_h == LV_RES_OK && v_h.num != h) || res_h == LV_RES_INV) {
 136              		.loc 1 232 5 is_stmt 1 view .LVU28
 137              		.loc 1 232 7 is_stmt 0 view .LVU29
 138 0014 0128     		cmp	r0, #1
 139 0016 07D0     		beq	.L12
 140              	.L8:
 141              		.loc 1 232 45 discriminator 3 view .LVU30
 142 0018 20B9     		cbnz	r0, .L7
 143              	.L9:
 233:Middlewares/lvgl/src/core/lv_obj_pos.c ****         lv_obj_set_style_height(obj, h, 0);
 144              		.loc 1 233 9 is_stmt 1 view .LVU31
 145 001a 0022     		movs	r2, #0
 146 001c 2146     		mov	r1, r4
 147 001e 2846     		mov	r0, r5
 148              	.LVL9:
 149              		.loc 1 233 9 is_stmt 0 view .LVU32
 150 0020 FFF7FEFF 		bl	lv_obj_set_style_height
 151              	.LVL10:
 152              	.L7:
 234:Middlewares/lvgl/src/core/lv_obj_pos.c ****     }
 235:Middlewares/lvgl/src/core/lv_obj_pos.c **** }
 153              		.loc 1 235 1 view .LVU33
 154 0024 03B0     		add	sp, sp, #12
 155              	.LCFI6:
 156              		.cfi_remember_state
 157              		.cfi_def_cfa_offset 12
 158              		@ sp needed
 159 0026 30BD     		pop	{r4, r5, pc}
 160              	.LVL11:
 161              	.L12:
 162              	.LCFI7:
 163              		.cfi_restore_state
 232:Middlewares/lvgl/src/core/lv_obj_pos.c ****         lv_obj_set_style_height(obj, h, 0);
 164              		.loc 1 232 34 discriminator 1 view .LVU34
ARM GAS  /tmp/ccgCqJqT.s 			page 8


 165 0028 019B     		ldr	r3, [sp, #4]
 232:Middlewares/lvgl/src/core/lv_obj_pos.c ****         lv_obj_set_style_height(obj, h, 0);
 166              		.loc 1 232 28 discriminator 1 view .LVU35
 167 002a A342     		cmp	r3, r4
 168 002c F5D1     		bne	.L9
 169 002e F3E7     		b	.L8
 170              		.cfi_endproc
 171              	.LFE159:
 173              		.section	.text.lv_obj_set_size,"ax",%progbits
 174              		.align	1
 175              		.global	lv_obj_set_size
 176              		.syntax unified
 177              		.thumb
 178              		.thumb_func
 179              		.fpu softvfp
 181              	lv_obj_set_size:
 182              	.LVL12:
 183              	.LFB157:
 204:Middlewares/lvgl/src/core/lv_obj_pos.c ****     LV_ASSERT_OBJ(obj, MY_CLASS);
 184              		.loc 1 204 1 is_stmt 1 view -0
 185              		.cfi_startproc
 186              		@ args = 0, pretend = 0, frame = 0
 187              		@ frame_needed = 0, uses_anonymous_args = 0
 204:Middlewares/lvgl/src/core/lv_obj_pos.c ****     LV_ASSERT_OBJ(obj, MY_CLASS);
 188              		.loc 1 204 1 is_stmt 0 view .LVU37
 189 0000 38B5     		push	{r3, r4, r5, lr}
 190              	.LCFI8:
 191              		.cfi_def_cfa_offset 16
 192              		.cfi_offset 3, -16
 193              		.cfi_offset 4, -12
 194              		.cfi_offset 5, -8
 195              		.cfi_offset 14, -4
 196 0002 0446     		mov	r4, r0
 197 0004 1546     		mov	r5, r2
 205:Middlewares/lvgl/src/core/lv_obj_pos.c **** 
 198              		.loc 1 205 5 is_stmt 1 view .LVU38
 205:Middlewares/lvgl/src/core/lv_obj_pos.c **** 
 199              		.loc 1 205 5 view .LVU39
 205:Middlewares/lvgl/src/core/lv_obj_pos.c **** 
 200              		.loc 1 205 5 view .LVU40
 207:Middlewares/lvgl/src/core/lv_obj_pos.c ****     lv_obj_set_height(obj, h);
 201              		.loc 1 207 5 view .LVU41
 202 0006 FFF7FEFF 		bl	lv_obj_set_width
 203              	.LVL13:
 208:Middlewares/lvgl/src/core/lv_obj_pos.c **** }
 204              		.loc 1 208 5 view .LVU42
 205 000a 2946     		mov	r1, r5
 206 000c 2046     		mov	r0, r4
 207 000e FFF7FEFF 		bl	lv_obj_set_height
 208              	.LVL14:
 209:Middlewares/lvgl/src/core/lv_obj_pos.c **** 
 209              		.loc 1 209 1 is_stmt 0 view .LVU43
 210 0012 38BD     		pop	{r3, r4, r5, pc}
 209:Middlewares/lvgl/src/core/lv_obj_pos.c **** 
 211              		.loc 1 209 1 view .LVU44
 212              		.cfi_endproc
 213              	.LFE157:
ARM GAS  /tmp/ccgCqJqT.s 			page 9


 215              		.section	.text.lv_obj_set_content_width,"ax",%progbits
 216              		.align	1
 217              		.global	lv_obj_set_content_width
 218              		.syntax unified
 219              		.thumb
 220              		.thumb_func
 221              		.fpu softvfp
 223              	lv_obj_set_content_width:
 224              	.LVL15:
 225              	.LFB160:
 236:Middlewares/lvgl/src/core/lv_obj_pos.c **** 
 237:Middlewares/lvgl/src/core/lv_obj_pos.c **** void lv_obj_set_content_width(lv_obj_t * obj, lv_coord_t w)
 238:Middlewares/lvgl/src/core/lv_obj_pos.c **** {
 226              		.loc 1 238 1 is_stmt 1 view -0
 227              		.cfi_startproc
 228              		@ args = 0, pretend = 0, frame = 0
 229              		@ frame_needed = 0, uses_anonymous_args = 0
 230              		.loc 1 238 1 is_stmt 0 view .LVU46
 231 0000 F8B5     		push	{r3, r4, r5, r6, r7, lr}
 232              	.LCFI9:
 233              		.cfi_def_cfa_offset 24
 234              		.cfi_offset 3, -24
 235              		.cfi_offset 4, -20
 236              		.cfi_offset 5, -16
 237              		.cfi_offset 6, -12
 238              		.cfi_offset 7, -8
 239              		.cfi_offset 14, -4
 240 0002 0546     		mov	r5, r0
 241 0004 0C46     		mov	r4, r1
 239:Middlewares/lvgl/src/core/lv_obj_pos.c ****     lv_coord_t pleft = lv_obj_get_style_pad_left(obj, LV_PART_MAIN);
 242              		.loc 1 239 5 is_stmt 1 view .LVU47
 243              	.LVL16:
 244              	.LBB121:
 245              	.LBI121:
 246              		.file 2 "Middlewares/lvgl/src/core/lv_obj_style_gen.h"
   1:Middlewares/lvgl/src/core/lv_obj_style_gen.h **** static inline lv_coord_t lv_obj_get_style_width(const struct _lv_obj_t * obj, uint32_t part)
   2:Middlewares/lvgl/src/core/lv_obj_style_gen.h **** {
   3:Middlewares/lvgl/src/core/lv_obj_style_gen.h ****     lv_style_value_t v = lv_obj_get_style_prop(obj, part, LV_STYLE_WIDTH);
   4:Middlewares/lvgl/src/core/lv_obj_style_gen.h ****     return (lv_coord_t)v.num;
   5:Middlewares/lvgl/src/core/lv_obj_style_gen.h **** }
   6:Middlewares/lvgl/src/core/lv_obj_style_gen.h **** 
   7:Middlewares/lvgl/src/core/lv_obj_style_gen.h **** static inline lv_coord_t lv_obj_get_style_min_width(const struct _lv_obj_t * obj, uint32_t part)
   8:Middlewares/lvgl/src/core/lv_obj_style_gen.h **** {
   9:Middlewares/lvgl/src/core/lv_obj_style_gen.h ****     lv_style_value_t v = lv_obj_get_style_prop(obj, part, LV_STYLE_MIN_WIDTH);
  10:Middlewares/lvgl/src/core/lv_obj_style_gen.h ****     return (lv_coord_t)v.num;
  11:Middlewares/lvgl/src/core/lv_obj_style_gen.h **** }
  12:Middlewares/lvgl/src/core/lv_obj_style_gen.h **** 
  13:Middlewares/lvgl/src/core/lv_obj_style_gen.h **** static inline lv_coord_t lv_obj_get_style_max_width(const struct _lv_obj_t * obj, uint32_t part)
  14:Middlewares/lvgl/src/core/lv_obj_style_gen.h **** {
  15:Middlewares/lvgl/src/core/lv_obj_style_gen.h ****     lv_style_value_t v = lv_obj_get_style_prop(obj, part, LV_STYLE_MAX_WIDTH);
  16:Middlewares/lvgl/src/core/lv_obj_style_gen.h ****     return (lv_coord_t)v.num;
  17:Middlewares/lvgl/src/core/lv_obj_style_gen.h **** }
  18:Middlewares/lvgl/src/core/lv_obj_style_gen.h **** 
  19:Middlewares/lvgl/src/core/lv_obj_style_gen.h **** static inline lv_coord_t lv_obj_get_style_height(const struct _lv_obj_t * obj, uint32_t part)
  20:Middlewares/lvgl/src/core/lv_obj_style_gen.h **** {
  21:Middlewares/lvgl/src/core/lv_obj_style_gen.h ****     lv_style_value_t v = lv_obj_get_style_prop(obj, part, LV_STYLE_HEIGHT);
  22:Middlewares/lvgl/src/core/lv_obj_style_gen.h ****     return (lv_coord_t)v.num;
ARM GAS  /tmp/ccgCqJqT.s 			page 10


  23:Middlewares/lvgl/src/core/lv_obj_style_gen.h **** }
  24:Middlewares/lvgl/src/core/lv_obj_style_gen.h **** 
  25:Middlewares/lvgl/src/core/lv_obj_style_gen.h **** static inline lv_coord_t lv_obj_get_style_min_height(const struct _lv_obj_t * obj, uint32_t part)
  26:Middlewares/lvgl/src/core/lv_obj_style_gen.h **** {
  27:Middlewares/lvgl/src/core/lv_obj_style_gen.h ****     lv_style_value_t v = lv_obj_get_style_prop(obj, part, LV_STYLE_MIN_HEIGHT);
  28:Middlewares/lvgl/src/core/lv_obj_style_gen.h ****     return (lv_coord_t)v.num;
  29:Middlewares/lvgl/src/core/lv_obj_style_gen.h **** }
  30:Middlewares/lvgl/src/core/lv_obj_style_gen.h **** 
  31:Middlewares/lvgl/src/core/lv_obj_style_gen.h **** static inline lv_coord_t lv_obj_get_style_max_height(const struct _lv_obj_t * obj, uint32_t part)
  32:Middlewares/lvgl/src/core/lv_obj_style_gen.h **** {
  33:Middlewares/lvgl/src/core/lv_obj_style_gen.h ****     lv_style_value_t v = lv_obj_get_style_prop(obj, part, LV_STYLE_MAX_HEIGHT);
  34:Middlewares/lvgl/src/core/lv_obj_style_gen.h ****     return (lv_coord_t)v.num;
  35:Middlewares/lvgl/src/core/lv_obj_style_gen.h **** }
  36:Middlewares/lvgl/src/core/lv_obj_style_gen.h **** 
  37:Middlewares/lvgl/src/core/lv_obj_style_gen.h **** static inline lv_coord_t lv_obj_get_style_x(const struct _lv_obj_t * obj, uint32_t part)
  38:Middlewares/lvgl/src/core/lv_obj_style_gen.h **** {
  39:Middlewares/lvgl/src/core/lv_obj_style_gen.h ****     lv_style_value_t v = lv_obj_get_style_prop(obj, part, LV_STYLE_X);
  40:Middlewares/lvgl/src/core/lv_obj_style_gen.h ****     return (lv_coord_t)v.num;
  41:Middlewares/lvgl/src/core/lv_obj_style_gen.h **** }
  42:Middlewares/lvgl/src/core/lv_obj_style_gen.h **** 
  43:Middlewares/lvgl/src/core/lv_obj_style_gen.h **** static inline lv_coord_t lv_obj_get_style_y(const struct _lv_obj_t * obj, uint32_t part)
  44:Middlewares/lvgl/src/core/lv_obj_style_gen.h **** {
  45:Middlewares/lvgl/src/core/lv_obj_style_gen.h ****     lv_style_value_t v = lv_obj_get_style_prop(obj, part, LV_STYLE_Y);
  46:Middlewares/lvgl/src/core/lv_obj_style_gen.h ****     return (lv_coord_t)v.num;
  47:Middlewares/lvgl/src/core/lv_obj_style_gen.h **** }
  48:Middlewares/lvgl/src/core/lv_obj_style_gen.h **** 
  49:Middlewares/lvgl/src/core/lv_obj_style_gen.h **** static inline lv_align_t lv_obj_get_style_align(const struct _lv_obj_t * obj, uint32_t part)
  50:Middlewares/lvgl/src/core/lv_obj_style_gen.h **** {
  51:Middlewares/lvgl/src/core/lv_obj_style_gen.h ****     lv_style_value_t v = lv_obj_get_style_prop(obj, part, LV_STYLE_ALIGN);
  52:Middlewares/lvgl/src/core/lv_obj_style_gen.h ****     return (lv_align_t)v.num;
  53:Middlewares/lvgl/src/core/lv_obj_style_gen.h **** }
  54:Middlewares/lvgl/src/core/lv_obj_style_gen.h **** 
  55:Middlewares/lvgl/src/core/lv_obj_style_gen.h **** static inline lv_coord_t lv_obj_get_style_transform_width(const struct _lv_obj_t * obj, uint32_t pa
  56:Middlewares/lvgl/src/core/lv_obj_style_gen.h **** {
  57:Middlewares/lvgl/src/core/lv_obj_style_gen.h ****     lv_style_value_t v = lv_obj_get_style_prop(obj, part, LV_STYLE_TRANSFORM_WIDTH);
  58:Middlewares/lvgl/src/core/lv_obj_style_gen.h ****     return (lv_coord_t)v.num;
  59:Middlewares/lvgl/src/core/lv_obj_style_gen.h **** }
  60:Middlewares/lvgl/src/core/lv_obj_style_gen.h **** 
  61:Middlewares/lvgl/src/core/lv_obj_style_gen.h **** static inline lv_coord_t lv_obj_get_style_transform_height(const struct _lv_obj_t * obj, uint32_t p
  62:Middlewares/lvgl/src/core/lv_obj_style_gen.h **** {
  63:Middlewares/lvgl/src/core/lv_obj_style_gen.h ****     lv_style_value_t v = lv_obj_get_style_prop(obj, part, LV_STYLE_TRANSFORM_HEIGHT);
  64:Middlewares/lvgl/src/core/lv_obj_style_gen.h ****     return (lv_coord_t)v.num;
  65:Middlewares/lvgl/src/core/lv_obj_style_gen.h **** }
  66:Middlewares/lvgl/src/core/lv_obj_style_gen.h **** 
  67:Middlewares/lvgl/src/core/lv_obj_style_gen.h **** static inline lv_coord_t lv_obj_get_style_translate_x(const struct _lv_obj_t * obj, uint32_t part)
  68:Middlewares/lvgl/src/core/lv_obj_style_gen.h **** {
  69:Middlewares/lvgl/src/core/lv_obj_style_gen.h ****     lv_style_value_t v = lv_obj_get_style_prop(obj, part, LV_STYLE_TRANSLATE_X);
  70:Middlewares/lvgl/src/core/lv_obj_style_gen.h ****     return (lv_coord_t)v.num;
  71:Middlewares/lvgl/src/core/lv_obj_style_gen.h **** }
  72:Middlewares/lvgl/src/core/lv_obj_style_gen.h **** 
  73:Middlewares/lvgl/src/core/lv_obj_style_gen.h **** static inline lv_coord_t lv_obj_get_style_translate_y(const struct _lv_obj_t * obj, uint32_t part)
  74:Middlewares/lvgl/src/core/lv_obj_style_gen.h **** {
  75:Middlewares/lvgl/src/core/lv_obj_style_gen.h ****     lv_style_value_t v = lv_obj_get_style_prop(obj, part, LV_STYLE_TRANSLATE_Y);
  76:Middlewares/lvgl/src/core/lv_obj_style_gen.h ****     return (lv_coord_t)v.num;
  77:Middlewares/lvgl/src/core/lv_obj_style_gen.h **** }
  78:Middlewares/lvgl/src/core/lv_obj_style_gen.h **** 
  79:Middlewares/lvgl/src/core/lv_obj_style_gen.h **** static inline lv_coord_t lv_obj_get_style_transform_zoom(const struct _lv_obj_t * obj, uint32_t par
ARM GAS  /tmp/ccgCqJqT.s 			page 11


  80:Middlewares/lvgl/src/core/lv_obj_style_gen.h **** {
  81:Middlewares/lvgl/src/core/lv_obj_style_gen.h ****     lv_style_value_t v = lv_obj_get_style_prop(obj, part, LV_STYLE_TRANSFORM_ZOOM);
  82:Middlewares/lvgl/src/core/lv_obj_style_gen.h ****     return (lv_coord_t)v.num;
  83:Middlewares/lvgl/src/core/lv_obj_style_gen.h **** }
  84:Middlewares/lvgl/src/core/lv_obj_style_gen.h **** 
  85:Middlewares/lvgl/src/core/lv_obj_style_gen.h **** static inline lv_coord_t lv_obj_get_style_transform_angle(const struct _lv_obj_t * obj, uint32_t pa
  86:Middlewares/lvgl/src/core/lv_obj_style_gen.h **** {
  87:Middlewares/lvgl/src/core/lv_obj_style_gen.h ****     lv_style_value_t v = lv_obj_get_style_prop(obj, part, LV_STYLE_TRANSFORM_ANGLE);
  88:Middlewares/lvgl/src/core/lv_obj_style_gen.h ****     return (lv_coord_t)v.num;
  89:Middlewares/lvgl/src/core/lv_obj_style_gen.h **** }
  90:Middlewares/lvgl/src/core/lv_obj_style_gen.h **** 
  91:Middlewares/lvgl/src/core/lv_obj_style_gen.h **** static inline lv_coord_t lv_obj_get_style_pad_top(const struct _lv_obj_t * obj, uint32_t part)
  92:Middlewares/lvgl/src/core/lv_obj_style_gen.h **** {
  93:Middlewares/lvgl/src/core/lv_obj_style_gen.h ****     lv_style_value_t v = lv_obj_get_style_prop(obj, part, LV_STYLE_PAD_TOP);
  94:Middlewares/lvgl/src/core/lv_obj_style_gen.h ****     return (lv_coord_t)v.num;
  95:Middlewares/lvgl/src/core/lv_obj_style_gen.h **** }
  96:Middlewares/lvgl/src/core/lv_obj_style_gen.h **** 
  97:Middlewares/lvgl/src/core/lv_obj_style_gen.h **** static inline lv_coord_t lv_obj_get_style_pad_bottom(const struct _lv_obj_t * obj, uint32_t part)
  98:Middlewares/lvgl/src/core/lv_obj_style_gen.h **** {
  99:Middlewares/lvgl/src/core/lv_obj_style_gen.h ****     lv_style_value_t v = lv_obj_get_style_prop(obj, part, LV_STYLE_PAD_BOTTOM);
 100:Middlewares/lvgl/src/core/lv_obj_style_gen.h ****     return (lv_coord_t)v.num;
 101:Middlewares/lvgl/src/core/lv_obj_style_gen.h **** }
 102:Middlewares/lvgl/src/core/lv_obj_style_gen.h **** 
 103:Middlewares/lvgl/src/core/lv_obj_style_gen.h **** static inline lv_coord_t lv_obj_get_style_pad_left(const struct _lv_obj_t * obj, uint32_t part)
 247              		.loc 2 103 26 view .LVU48
 248              	.LBB122:
 104:Middlewares/lvgl/src/core/lv_obj_style_gen.h **** {
 105:Middlewares/lvgl/src/core/lv_obj_style_gen.h ****     lv_style_value_t v = lv_obj_get_style_prop(obj, part, LV_STYLE_PAD_LEFT);
 249              		.loc 2 105 5 view .LVU49
 250              		.loc 2 105 26 is_stmt 0 view .LVU50
 251 0006 41F21202 		movw	r2, #4114
 252 000a 0021     		movs	r1, #0
 253              	.LVL17:
 254              		.loc 2 105 26 view .LVU51
 255 000c FFF7FEFF 		bl	lv_obj_get_style_prop
 256              	.LVL18:
 257              		.loc 2 105 26 view .LVU52
 258 0010 0746     		mov	r7, r0
 259              	.LVL19:
 106:Middlewares/lvgl/src/core/lv_obj_style_gen.h ****     return (lv_coord_t)v.num;
 260              		.loc 2 106 5 is_stmt 1 view .LVU53
 261              		.loc 2 106 5 is_stmt 0 view .LVU54
 262              	.LBE122:
 263              	.LBE121:
 240:Middlewares/lvgl/src/core/lv_obj_pos.c ****     lv_coord_t pright = lv_obj_get_style_pad_right(obj, LV_PART_MAIN);
 264              		.loc 1 240 5 is_stmt 1 view .LVU55
 265              	.LBB123:
 266              	.LBI123:
 107:Middlewares/lvgl/src/core/lv_obj_style_gen.h **** }
 108:Middlewares/lvgl/src/core/lv_obj_style_gen.h **** 
 109:Middlewares/lvgl/src/core/lv_obj_style_gen.h **** static inline lv_coord_t lv_obj_get_style_pad_right(const struct _lv_obj_t * obj, uint32_t part)
 267              		.loc 2 109 26 view .LVU56
 268              	.LBB124:
 110:Middlewares/lvgl/src/core/lv_obj_style_gen.h **** {
 111:Middlewares/lvgl/src/core/lv_obj_style_gen.h ****     lv_style_value_t v = lv_obj_get_style_prop(obj, part, LV_STYLE_PAD_RIGHT);
 269              		.loc 2 111 5 view .LVU57
 270              		.loc 2 111 26 is_stmt 0 view .LVU58
ARM GAS  /tmp/ccgCqJqT.s 			page 12


 271 0012 41F21302 		movw	r2, #4115
 272 0016 0021     		movs	r1, #0
 273 0018 2846     		mov	r0, r5
 274 001a FFF7FEFF 		bl	lv_obj_get_style_prop
 275              	.LVL20:
 276 001e 0646     		mov	r6, r0
 277              	.LVL21:
 112:Middlewares/lvgl/src/core/lv_obj_style_gen.h ****     return (lv_coord_t)v.num;
 278              		.loc 2 112 5 is_stmt 1 view .LVU59
 279              		.loc 2 112 5 is_stmt 0 view .LVU60
 280              	.LBE124:
 281              	.LBE123:
 241:Middlewares/lvgl/src/core/lv_obj_pos.c ****     lv_coord_t border_width = lv_obj_get_style_border_width(obj, LV_PART_MAIN);
 282              		.loc 1 241 5 is_stmt 1 view .LVU61
 283              	.LBB125:
 284              	.LBI125:
 113:Middlewares/lvgl/src/core/lv_obj_style_gen.h **** }
 114:Middlewares/lvgl/src/core/lv_obj_style_gen.h **** 
 115:Middlewares/lvgl/src/core/lv_obj_style_gen.h **** static inline lv_coord_t lv_obj_get_style_pad_row(const struct _lv_obj_t * obj, uint32_t part)
 116:Middlewares/lvgl/src/core/lv_obj_style_gen.h **** {
 117:Middlewares/lvgl/src/core/lv_obj_style_gen.h ****     lv_style_value_t v = lv_obj_get_style_prop(obj, part, LV_STYLE_PAD_ROW);
 118:Middlewares/lvgl/src/core/lv_obj_style_gen.h ****     return (lv_coord_t)v.num;
 119:Middlewares/lvgl/src/core/lv_obj_style_gen.h **** }
 120:Middlewares/lvgl/src/core/lv_obj_style_gen.h **** 
 121:Middlewares/lvgl/src/core/lv_obj_style_gen.h **** static inline lv_coord_t lv_obj_get_style_pad_column(const struct _lv_obj_t * obj, uint32_t part)
 122:Middlewares/lvgl/src/core/lv_obj_style_gen.h **** {
 123:Middlewares/lvgl/src/core/lv_obj_style_gen.h ****     lv_style_value_t v = lv_obj_get_style_prop(obj, part, LV_STYLE_PAD_COLUMN);
 124:Middlewares/lvgl/src/core/lv_obj_style_gen.h ****     return (lv_coord_t)v.num;
 125:Middlewares/lvgl/src/core/lv_obj_style_gen.h **** }
 126:Middlewares/lvgl/src/core/lv_obj_style_gen.h **** 
 127:Middlewares/lvgl/src/core/lv_obj_style_gen.h **** static inline lv_coord_t lv_obj_get_style_radius(const struct _lv_obj_t * obj, uint32_t part)
 128:Middlewares/lvgl/src/core/lv_obj_style_gen.h **** {
 129:Middlewares/lvgl/src/core/lv_obj_style_gen.h ****     lv_style_value_t v = lv_obj_get_style_prop(obj, part, LV_STYLE_RADIUS);
 130:Middlewares/lvgl/src/core/lv_obj_style_gen.h ****     return (lv_coord_t)v.num;
 131:Middlewares/lvgl/src/core/lv_obj_style_gen.h **** }
 132:Middlewares/lvgl/src/core/lv_obj_style_gen.h **** 
 133:Middlewares/lvgl/src/core/lv_obj_style_gen.h **** static inline bool lv_obj_get_style_clip_corner(const struct _lv_obj_t * obj, uint32_t part)
 134:Middlewares/lvgl/src/core/lv_obj_style_gen.h **** {
 135:Middlewares/lvgl/src/core/lv_obj_style_gen.h ****     lv_style_value_t v = lv_obj_get_style_prop(obj, part, LV_STYLE_CLIP_CORNER);
 136:Middlewares/lvgl/src/core/lv_obj_style_gen.h ****     return (bool)v.num;
 137:Middlewares/lvgl/src/core/lv_obj_style_gen.h **** }
 138:Middlewares/lvgl/src/core/lv_obj_style_gen.h **** 
 139:Middlewares/lvgl/src/core/lv_obj_style_gen.h **** static inline lv_opa_t lv_obj_get_style_opa(const struct _lv_obj_t * obj, uint32_t part)
 140:Middlewares/lvgl/src/core/lv_obj_style_gen.h **** {
 141:Middlewares/lvgl/src/core/lv_obj_style_gen.h ****     lv_style_value_t v = lv_obj_get_style_prop(obj, part, LV_STYLE_OPA);
 142:Middlewares/lvgl/src/core/lv_obj_style_gen.h ****     return (lv_opa_t)v.num;
 143:Middlewares/lvgl/src/core/lv_obj_style_gen.h **** }
 144:Middlewares/lvgl/src/core/lv_obj_style_gen.h **** 
 145:Middlewares/lvgl/src/core/lv_obj_style_gen.h **** static inline const lv_color_filter_dsc_t * lv_obj_get_style_color_filter_dsc(const struct _lv_obj_
 146:Middlewares/lvgl/src/core/lv_obj_style_gen.h **** {
 147:Middlewares/lvgl/src/core/lv_obj_style_gen.h ****     lv_style_value_t v = lv_obj_get_style_prop(obj, part, LV_STYLE_COLOR_FILTER_DSC);
 148:Middlewares/lvgl/src/core/lv_obj_style_gen.h ****     return (const lv_color_filter_dsc_t *)v.ptr;
 149:Middlewares/lvgl/src/core/lv_obj_style_gen.h **** }
 150:Middlewares/lvgl/src/core/lv_obj_style_gen.h **** 
 151:Middlewares/lvgl/src/core/lv_obj_style_gen.h **** static inline lv_opa_t lv_obj_get_style_color_filter_opa(const struct _lv_obj_t * obj, uint32_t par
 152:Middlewares/lvgl/src/core/lv_obj_style_gen.h **** {
 153:Middlewares/lvgl/src/core/lv_obj_style_gen.h ****     lv_style_value_t v = lv_obj_get_style_prop(obj, part, LV_STYLE_COLOR_FILTER_OPA);
ARM GAS  /tmp/ccgCqJqT.s 			page 13


 154:Middlewares/lvgl/src/core/lv_obj_style_gen.h ****     return (lv_opa_t)v.num;
 155:Middlewares/lvgl/src/core/lv_obj_style_gen.h **** }
 156:Middlewares/lvgl/src/core/lv_obj_style_gen.h **** 
 157:Middlewares/lvgl/src/core/lv_obj_style_gen.h **** static inline uint32_t lv_obj_get_style_anim_time(const struct _lv_obj_t * obj, uint32_t part)
 158:Middlewares/lvgl/src/core/lv_obj_style_gen.h **** {
 159:Middlewares/lvgl/src/core/lv_obj_style_gen.h ****     lv_style_value_t v = lv_obj_get_style_prop(obj, part, LV_STYLE_ANIM_TIME);
 160:Middlewares/lvgl/src/core/lv_obj_style_gen.h ****     return (uint32_t)v.num;
 161:Middlewares/lvgl/src/core/lv_obj_style_gen.h **** }
 162:Middlewares/lvgl/src/core/lv_obj_style_gen.h **** 
 163:Middlewares/lvgl/src/core/lv_obj_style_gen.h **** static inline uint32_t lv_obj_get_style_anim_speed(const struct _lv_obj_t * obj, uint32_t part)
 164:Middlewares/lvgl/src/core/lv_obj_style_gen.h **** {
 165:Middlewares/lvgl/src/core/lv_obj_style_gen.h ****     lv_style_value_t v = lv_obj_get_style_prop(obj, part, LV_STYLE_ANIM_SPEED);
 166:Middlewares/lvgl/src/core/lv_obj_style_gen.h ****     return (uint32_t)v.num;
 167:Middlewares/lvgl/src/core/lv_obj_style_gen.h **** }
 168:Middlewares/lvgl/src/core/lv_obj_style_gen.h **** 
 169:Middlewares/lvgl/src/core/lv_obj_style_gen.h **** static inline const lv_style_transition_dsc_t * lv_obj_get_style_transition(const struct _lv_obj_t 
 170:Middlewares/lvgl/src/core/lv_obj_style_gen.h **** {
 171:Middlewares/lvgl/src/core/lv_obj_style_gen.h ****     lv_style_value_t v = lv_obj_get_style_prop(obj, part, LV_STYLE_TRANSITION);
 172:Middlewares/lvgl/src/core/lv_obj_style_gen.h ****     return (const lv_style_transition_dsc_t *)v.ptr;
 173:Middlewares/lvgl/src/core/lv_obj_style_gen.h **** }
 174:Middlewares/lvgl/src/core/lv_obj_style_gen.h **** 
 175:Middlewares/lvgl/src/core/lv_obj_style_gen.h **** static inline lv_blend_mode_t lv_obj_get_style_blend_mode(const struct _lv_obj_t * obj, uint32_t pa
 176:Middlewares/lvgl/src/core/lv_obj_style_gen.h **** {
 177:Middlewares/lvgl/src/core/lv_obj_style_gen.h ****     lv_style_value_t v = lv_obj_get_style_prop(obj, part, LV_STYLE_BLEND_MODE);
 178:Middlewares/lvgl/src/core/lv_obj_style_gen.h ****     return (lv_blend_mode_t)v.num;
 179:Middlewares/lvgl/src/core/lv_obj_style_gen.h **** }
 180:Middlewares/lvgl/src/core/lv_obj_style_gen.h **** 
 181:Middlewares/lvgl/src/core/lv_obj_style_gen.h **** static inline uint16_t lv_obj_get_style_layout(const struct _lv_obj_t * obj, uint32_t part)
 182:Middlewares/lvgl/src/core/lv_obj_style_gen.h **** {
 183:Middlewares/lvgl/src/core/lv_obj_style_gen.h ****     lv_style_value_t v = lv_obj_get_style_prop(obj, part, LV_STYLE_LAYOUT);
 184:Middlewares/lvgl/src/core/lv_obj_style_gen.h ****     return (uint16_t)v.num;
 185:Middlewares/lvgl/src/core/lv_obj_style_gen.h **** }
 186:Middlewares/lvgl/src/core/lv_obj_style_gen.h **** 
 187:Middlewares/lvgl/src/core/lv_obj_style_gen.h **** static inline lv_base_dir_t lv_obj_get_style_base_dir(const struct _lv_obj_t * obj, uint32_t part)
 188:Middlewares/lvgl/src/core/lv_obj_style_gen.h **** {
 189:Middlewares/lvgl/src/core/lv_obj_style_gen.h ****     lv_style_value_t v = lv_obj_get_style_prop(obj, part, LV_STYLE_BASE_DIR);
 190:Middlewares/lvgl/src/core/lv_obj_style_gen.h ****     return (lv_base_dir_t)v.num;
 191:Middlewares/lvgl/src/core/lv_obj_style_gen.h **** }
 192:Middlewares/lvgl/src/core/lv_obj_style_gen.h **** 
 193:Middlewares/lvgl/src/core/lv_obj_style_gen.h **** static inline lv_color_t lv_obj_get_style_bg_color(const struct _lv_obj_t * obj, uint32_t part)
 194:Middlewares/lvgl/src/core/lv_obj_style_gen.h **** {
 195:Middlewares/lvgl/src/core/lv_obj_style_gen.h ****     lv_style_value_t v = lv_obj_get_style_prop(obj, part, LV_STYLE_BG_COLOR);
 196:Middlewares/lvgl/src/core/lv_obj_style_gen.h ****     return v.color;
 197:Middlewares/lvgl/src/core/lv_obj_style_gen.h **** }
 198:Middlewares/lvgl/src/core/lv_obj_style_gen.h **** 
 199:Middlewares/lvgl/src/core/lv_obj_style_gen.h **** static inline lv_color_t lv_obj_get_style_bg_color_filtered(const struct _lv_obj_t * obj, uint32_t 
 200:Middlewares/lvgl/src/core/lv_obj_style_gen.h **** {
 201:Middlewares/lvgl/src/core/lv_obj_style_gen.h ****     lv_style_value_t v = lv_obj_get_style_prop(obj, part, LV_STYLE_BG_COLOR_FILTERED);
 202:Middlewares/lvgl/src/core/lv_obj_style_gen.h ****     return v.color;
 203:Middlewares/lvgl/src/core/lv_obj_style_gen.h **** }
 204:Middlewares/lvgl/src/core/lv_obj_style_gen.h **** 
 205:Middlewares/lvgl/src/core/lv_obj_style_gen.h **** static inline lv_opa_t lv_obj_get_style_bg_opa(const struct _lv_obj_t * obj, uint32_t part)
 206:Middlewares/lvgl/src/core/lv_obj_style_gen.h **** {
 207:Middlewares/lvgl/src/core/lv_obj_style_gen.h ****     lv_style_value_t v = lv_obj_get_style_prop(obj, part, LV_STYLE_BG_OPA);
 208:Middlewares/lvgl/src/core/lv_obj_style_gen.h ****     return (lv_opa_t)v.num;
 209:Middlewares/lvgl/src/core/lv_obj_style_gen.h **** }
 210:Middlewares/lvgl/src/core/lv_obj_style_gen.h **** 
ARM GAS  /tmp/ccgCqJqT.s 			page 14


 211:Middlewares/lvgl/src/core/lv_obj_style_gen.h **** static inline lv_color_t lv_obj_get_style_bg_grad_color(const struct _lv_obj_t * obj, uint32_t part
 212:Middlewares/lvgl/src/core/lv_obj_style_gen.h **** {
 213:Middlewares/lvgl/src/core/lv_obj_style_gen.h ****     lv_style_value_t v = lv_obj_get_style_prop(obj, part, LV_STYLE_BG_GRAD_COLOR);
 214:Middlewares/lvgl/src/core/lv_obj_style_gen.h ****     return v.color;
 215:Middlewares/lvgl/src/core/lv_obj_style_gen.h **** }
 216:Middlewares/lvgl/src/core/lv_obj_style_gen.h **** 
 217:Middlewares/lvgl/src/core/lv_obj_style_gen.h **** static inline lv_color_t lv_obj_get_style_bg_grad_color_filtered(const struct _lv_obj_t * obj, uint
 218:Middlewares/lvgl/src/core/lv_obj_style_gen.h **** {
 219:Middlewares/lvgl/src/core/lv_obj_style_gen.h ****     lv_style_value_t v = lv_obj_get_style_prop(obj, part, LV_STYLE_BG_GRAD_COLOR_FILTERED);
 220:Middlewares/lvgl/src/core/lv_obj_style_gen.h ****     return v.color;
 221:Middlewares/lvgl/src/core/lv_obj_style_gen.h **** }
 222:Middlewares/lvgl/src/core/lv_obj_style_gen.h **** 
 223:Middlewares/lvgl/src/core/lv_obj_style_gen.h **** static inline lv_grad_dir_t lv_obj_get_style_bg_grad_dir(const struct _lv_obj_t * obj, uint32_t par
 224:Middlewares/lvgl/src/core/lv_obj_style_gen.h **** {
 225:Middlewares/lvgl/src/core/lv_obj_style_gen.h ****     lv_style_value_t v = lv_obj_get_style_prop(obj, part, LV_STYLE_BG_GRAD_DIR);
 226:Middlewares/lvgl/src/core/lv_obj_style_gen.h ****     return (lv_grad_dir_t)v.num;
 227:Middlewares/lvgl/src/core/lv_obj_style_gen.h **** }
 228:Middlewares/lvgl/src/core/lv_obj_style_gen.h **** 
 229:Middlewares/lvgl/src/core/lv_obj_style_gen.h **** static inline lv_coord_t lv_obj_get_style_bg_main_stop(const struct _lv_obj_t * obj, uint32_t part)
 230:Middlewares/lvgl/src/core/lv_obj_style_gen.h **** {
 231:Middlewares/lvgl/src/core/lv_obj_style_gen.h ****     lv_style_value_t v = lv_obj_get_style_prop(obj, part, LV_STYLE_BG_MAIN_STOP);
 232:Middlewares/lvgl/src/core/lv_obj_style_gen.h ****     return (lv_coord_t)v.num;
 233:Middlewares/lvgl/src/core/lv_obj_style_gen.h **** }
 234:Middlewares/lvgl/src/core/lv_obj_style_gen.h **** 
 235:Middlewares/lvgl/src/core/lv_obj_style_gen.h **** static inline lv_coord_t lv_obj_get_style_bg_grad_stop(const struct _lv_obj_t * obj, uint32_t part)
 236:Middlewares/lvgl/src/core/lv_obj_style_gen.h **** {
 237:Middlewares/lvgl/src/core/lv_obj_style_gen.h ****     lv_style_value_t v = lv_obj_get_style_prop(obj, part, LV_STYLE_BG_GRAD_STOP);
 238:Middlewares/lvgl/src/core/lv_obj_style_gen.h ****     return (lv_coord_t)v.num;
 239:Middlewares/lvgl/src/core/lv_obj_style_gen.h **** }
 240:Middlewares/lvgl/src/core/lv_obj_style_gen.h **** 
 241:Middlewares/lvgl/src/core/lv_obj_style_gen.h **** static inline const void * lv_obj_get_style_bg_img_src(const struct _lv_obj_t * obj, uint32_t part)
 242:Middlewares/lvgl/src/core/lv_obj_style_gen.h **** {
 243:Middlewares/lvgl/src/core/lv_obj_style_gen.h ****     lv_style_value_t v = lv_obj_get_style_prop(obj, part, LV_STYLE_BG_IMG_SRC);
 244:Middlewares/lvgl/src/core/lv_obj_style_gen.h ****     return (const void *)v.ptr;
 245:Middlewares/lvgl/src/core/lv_obj_style_gen.h **** }
 246:Middlewares/lvgl/src/core/lv_obj_style_gen.h **** 
 247:Middlewares/lvgl/src/core/lv_obj_style_gen.h **** static inline lv_opa_t lv_obj_get_style_bg_img_opa(const struct _lv_obj_t * obj, uint32_t part)
 248:Middlewares/lvgl/src/core/lv_obj_style_gen.h **** {
 249:Middlewares/lvgl/src/core/lv_obj_style_gen.h ****     lv_style_value_t v = lv_obj_get_style_prop(obj, part, LV_STYLE_BG_IMG_OPA);
 250:Middlewares/lvgl/src/core/lv_obj_style_gen.h ****     return (lv_opa_t)v.num;
 251:Middlewares/lvgl/src/core/lv_obj_style_gen.h **** }
 252:Middlewares/lvgl/src/core/lv_obj_style_gen.h **** 
 253:Middlewares/lvgl/src/core/lv_obj_style_gen.h **** static inline lv_color_t lv_obj_get_style_bg_img_recolor(const struct _lv_obj_t * obj, uint32_t par
 254:Middlewares/lvgl/src/core/lv_obj_style_gen.h **** {
 255:Middlewares/lvgl/src/core/lv_obj_style_gen.h ****     lv_style_value_t v = lv_obj_get_style_prop(obj, part, LV_STYLE_BG_IMG_RECOLOR);
 256:Middlewares/lvgl/src/core/lv_obj_style_gen.h ****     return v.color;
 257:Middlewares/lvgl/src/core/lv_obj_style_gen.h **** }
 258:Middlewares/lvgl/src/core/lv_obj_style_gen.h **** 
 259:Middlewares/lvgl/src/core/lv_obj_style_gen.h **** static inline lv_color_t lv_obj_get_style_bg_img_recolor_filtered(const struct _lv_obj_t * obj, uin
 260:Middlewares/lvgl/src/core/lv_obj_style_gen.h **** {
 261:Middlewares/lvgl/src/core/lv_obj_style_gen.h ****     lv_style_value_t v = lv_obj_get_style_prop(obj, part, LV_STYLE_BG_IMG_RECOLOR_FILTERED);
 262:Middlewares/lvgl/src/core/lv_obj_style_gen.h ****     return v.color;
 263:Middlewares/lvgl/src/core/lv_obj_style_gen.h **** }
 264:Middlewares/lvgl/src/core/lv_obj_style_gen.h **** 
 265:Middlewares/lvgl/src/core/lv_obj_style_gen.h **** static inline lv_opa_t lv_obj_get_style_bg_img_recolor_opa(const struct _lv_obj_t * obj, uint32_t p
 266:Middlewares/lvgl/src/core/lv_obj_style_gen.h **** {
 267:Middlewares/lvgl/src/core/lv_obj_style_gen.h ****     lv_style_value_t v = lv_obj_get_style_prop(obj, part, LV_STYLE_BG_IMG_RECOLOR_OPA);
ARM GAS  /tmp/ccgCqJqT.s 			page 15


 268:Middlewares/lvgl/src/core/lv_obj_style_gen.h ****     return (lv_opa_t)v.num;
 269:Middlewares/lvgl/src/core/lv_obj_style_gen.h **** }
 270:Middlewares/lvgl/src/core/lv_obj_style_gen.h **** 
 271:Middlewares/lvgl/src/core/lv_obj_style_gen.h **** static inline bool lv_obj_get_style_bg_img_tiled(const struct _lv_obj_t * obj, uint32_t part)
 272:Middlewares/lvgl/src/core/lv_obj_style_gen.h **** {
 273:Middlewares/lvgl/src/core/lv_obj_style_gen.h ****     lv_style_value_t v = lv_obj_get_style_prop(obj, part, LV_STYLE_BG_IMG_TILED);
 274:Middlewares/lvgl/src/core/lv_obj_style_gen.h ****     return (bool)v.num;
 275:Middlewares/lvgl/src/core/lv_obj_style_gen.h **** }
 276:Middlewares/lvgl/src/core/lv_obj_style_gen.h **** 
 277:Middlewares/lvgl/src/core/lv_obj_style_gen.h **** static inline lv_color_t lv_obj_get_style_border_color(const struct _lv_obj_t * obj, uint32_t part)
 278:Middlewares/lvgl/src/core/lv_obj_style_gen.h **** {
 279:Middlewares/lvgl/src/core/lv_obj_style_gen.h ****     lv_style_value_t v = lv_obj_get_style_prop(obj, part, LV_STYLE_BORDER_COLOR);
 280:Middlewares/lvgl/src/core/lv_obj_style_gen.h ****     return v.color;
 281:Middlewares/lvgl/src/core/lv_obj_style_gen.h **** }
 282:Middlewares/lvgl/src/core/lv_obj_style_gen.h **** 
 283:Middlewares/lvgl/src/core/lv_obj_style_gen.h **** static inline lv_color_t lv_obj_get_style_border_color_filtered(const struct _lv_obj_t * obj, uint3
 284:Middlewares/lvgl/src/core/lv_obj_style_gen.h **** {
 285:Middlewares/lvgl/src/core/lv_obj_style_gen.h ****     lv_style_value_t v = lv_obj_get_style_prop(obj, part, LV_STYLE_BORDER_COLOR_FILTERED);
 286:Middlewares/lvgl/src/core/lv_obj_style_gen.h ****     return v.color;
 287:Middlewares/lvgl/src/core/lv_obj_style_gen.h **** }
 288:Middlewares/lvgl/src/core/lv_obj_style_gen.h **** 
 289:Middlewares/lvgl/src/core/lv_obj_style_gen.h **** static inline lv_opa_t lv_obj_get_style_border_opa(const struct _lv_obj_t * obj, uint32_t part)
 290:Middlewares/lvgl/src/core/lv_obj_style_gen.h **** {
 291:Middlewares/lvgl/src/core/lv_obj_style_gen.h ****     lv_style_value_t v = lv_obj_get_style_prop(obj, part, LV_STYLE_BORDER_OPA);
 292:Middlewares/lvgl/src/core/lv_obj_style_gen.h ****     return (lv_opa_t)v.num;
 293:Middlewares/lvgl/src/core/lv_obj_style_gen.h **** }
 294:Middlewares/lvgl/src/core/lv_obj_style_gen.h **** 
 295:Middlewares/lvgl/src/core/lv_obj_style_gen.h **** static inline lv_coord_t lv_obj_get_style_border_width(const struct _lv_obj_t * obj, uint32_t part)
 285              		.loc 2 295 26 view .LVU62
 286              	.LBB126:
 296:Middlewares/lvgl/src/core/lv_obj_style_gen.h **** {
 297:Middlewares/lvgl/src/core/lv_obj_style_gen.h ****     lv_style_value_t v = lv_obj_get_style_prop(obj, part, LV_STYLE_BORDER_WIDTH);
 287              		.loc 2 297 5 view .LVU63
 288              		.loc 2 297 26 is_stmt 0 view .LVU64
 289 0020 41F23202 		movw	r2, #4146
 290 0024 0021     		movs	r1, #0
 291 0026 2846     		mov	r0, r5
 292 0028 FFF7FEFF 		bl	lv_obj_get_style_prop
 293              	.LVL22:
 298:Middlewares/lvgl/src/core/lv_obj_style_gen.h ****     return (lv_coord_t)v.num;
 294              		.loc 2 298 5 is_stmt 1 view .LVU65
 295              		.loc 2 298 5 is_stmt 0 view .LVU66
 296              	.LBE126:
 297              	.LBE125:
 242:Middlewares/lvgl/src/core/lv_obj_pos.c **** 
 243:Middlewares/lvgl/src/core/lv_obj_pos.c ****     lv_obj_set_width(obj, w + pleft + pright + 2 * border_width);
 298              		.loc 1 243 5 is_stmt 1 view .LVU67
 299              		.loc 1 243 29 is_stmt 0 view .LVU68
 300 002c E119     		adds	r1, r4, r7
 301 002e 89B2     		uxth	r1, r1
 302              		.loc 1 243 37 view .LVU69
 303 0030 3144     		add	r1, r1, r6
 304 0032 89B2     		uxth	r1, r1
 305              		.loc 1 243 50 view .LVU70
 306 0034 4000     		lsls	r0, r0, #1
 307              	.LVL23:
 308              		.loc 1 243 50 view .LVU71
ARM GAS  /tmp/ccgCqJqT.s 			page 16


 309 0036 80B2     		uxth	r0, r0
 310              		.loc 1 243 46 view .LVU72
 311 0038 0144     		add	r1, r1, r0
 312              		.loc 1 243 5 view .LVU73
 313 003a 09B2     		sxth	r1, r1
 314 003c 2846     		mov	r0, r5
 315 003e FFF7FEFF 		bl	lv_obj_set_width
 316              	.LVL24:
 244:Middlewares/lvgl/src/core/lv_obj_pos.c **** }
 317              		.loc 1 244 1 view .LVU74
 318 0042 F8BD     		pop	{r3, r4, r5, r6, r7, pc}
 319              		.loc 1 244 1 view .LVU75
 320              		.cfi_endproc
 321              	.LFE160:
 323              		.section	.text.lv_obj_set_content_height,"ax",%progbits
 324              		.align	1
 325              		.global	lv_obj_set_content_height
 326              		.syntax unified
 327              		.thumb
 328              		.thumb_func
 329              		.fpu softvfp
 331              	lv_obj_set_content_height:
 332              	.LVL25:
 333              	.LFB161:
 245:Middlewares/lvgl/src/core/lv_obj_pos.c **** 
 246:Middlewares/lvgl/src/core/lv_obj_pos.c **** void lv_obj_set_content_height(lv_obj_t * obj, lv_coord_t h)
 247:Middlewares/lvgl/src/core/lv_obj_pos.c **** {
 334              		.loc 1 247 1 is_stmt 1 view -0
 335              		.cfi_startproc
 336              		@ args = 0, pretend = 0, frame = 0
 337              		@ frame_needed = 0, uses_anonymous_args = 0
 338              		.loc 1 247 1 is_stmt 0 view .LVU77
 339 0000 F8B5     		push	{r3, r4, r5, r6, r7, lr}
 340              	.LCFI10:
 341              		.cfi_def_cfa_offset 24
 342              		.cfi_offset 3, -24
 343              		.cfi_offset 4, -20
 344              		.cfi_offset 5, -16
 345              		.cfi_offset 6, -12
 346              		.cfi_offset 7, -8
 347              		.cfi_offset 14, -4
 348 0002 0546     		mov	r5, r0
 349 0004 0C46     		mov	r4, r1
 248:Middlewares/lvgl/src/core/lv_obj_pos.c ****     lv_coord_t ptop = lv_obj_get_style_pad_top(obj, LV_PART_MAIN);
 350              		.loc 1 248 5 is_stmt 1 view .LVU78
 351              	.LVL26:
 352              	.LBB127:
 353              	.LBI127:
  91:Middlewares/lvgl/src/core/lv_obj_style_gen.h **** {
 354              		.loc 2 91 26 view .LVU79
 355              	.LBB128:
  93:Middlewares/lvgl/src/core/lv_obj_style_gen.h ****     return (lv_coord_t)v.num;
 356              		.loc 2 93 5 view .LVU80
  93:Middlewares/lvgl/src/core/lv_obj_style_gen.h ****     return (lv_coord_t)v.num;
 357              		.loc 2 93 26 is_stmt 0 view .LVU81
 358 0006 41F21002 		movw	r2, #4112
 359 000a 0021     		movs	r1, #0
ARM GAS  /tmp/ccgCqJqT.s 			page 17


 360              	.LVL27:
  93:Middlewares/lvgl/src/core/lv_obj_style_gen.h ****     return (lv_coord_t)v.num;
 361              		.loc 2 93 26 view .LVU82
 362 000c FFF7FEFF 		bl	lv_obj_get_style_prop
 363              	.LVL28:
  93:Middlewares/lvgl/src/core/lv_obj_style_gen.h ****     return (lv_coord_t)v.num;
 364              		.loc 2 93 26 view .LVU83
 365 0010 0746     		mov	r7, r0
 366              	.LVL29:
  94:Middlewares/lvgl/src/core/lv_obj_style_gen.h **** }
 367              		.loc 2 94 5 is_stmt 1 view .LVU84
  94:Middlewares/lvgl/src/core/lv_obj_style_gen.h **** }
 368              		.loc 2 94 5 is_stmt 0 view .LVU85
 369              	.LBE128:
 370              	.LBE127:
 249:Middlewares/lvgl/src/core/lv_obj_pos.c ****     lv_coord_t pbottom = lv_obj_get_style_pad_bottom(obj, LV_PART_MAIN);
 371              		.loc 1 249 5 is_stmt 1 view .LVU86
 372              	.LBB129:
 373              	.LBI129:
  97:Middlewares/lvgl/src/core/lv_obj_style_gen.h **** {
 374              		.loc 2 97 26 view .LVU87
 375              	.LBB130:
  99:Middlewares/lvgl/src/core/lv_obj_style_gen.h ****     return (lv_coord_t)v.num;
 376              		.loc 2 99 5 view .LVU88
  99:Middlewares/lvgl/src/core/lv_obj_style_gen.h ****     return (lv_coord_t)v.num;
 377              		.loc 2 99 26 is_stmt 0 view .LVU89
 378 0012 41F21102 		movw	r2, #4113
 379 0016 0021     		movs	r1, #0
 380 0018 2846     		mov	r0, r5
 381 001a FFF7FEFF 		bl	lv_obj_get_style_prop
 382              	.LVL30:
 383 001e 0646     		mov	r6, r0
 384              	.LVL31:
 100:Middlewares/lvgl/src/core/lv_obj_style_gen.h **** }
 385              		.loc 2 100 5 is_stmt 1 view .LVU90
 100:Middlewares/lvgl/src/core/lv_obj_style_gen.h **** }
 386              		.loc 2 100 5 is_stmt 0 view .LVU91
 387              	.LBE130:
 388              	.LBE129:
 250:Middlewares/lvgl/src/core/lv_obj_pos.c ****     lv_coord_t border_width = lv_obj_get_style_border_width(obj, LV_PART_MAIN);
 389              		.loc 1 250 5 is_stmt 1 view .LVU92
 390              	.LBB131:
 391              	.LBI131:
 295:Middlewares/lvgl/src/core/lv_obj_style_gen.h **** {
 392              		.loc 2 295 26 view .LVU93
 393              	.LBB132:
 297:Middlewares/lvgl/src/core/lv_obj_style_gen.h ****     return (lv_coord_t)v.num;
 394              		.loc 2 297 5 view .LVU94
 297:Middlewares/lvgl/src/core/lv_obj_style_gen.h ****     return (lv_coord_t)v.num;
 395              		.loc 2 297 26 is_stmt 0 view .LVU95
 396 0020 41F23202 		movw	r2, #4146
 397 0024 0021     		movs	r1, #0
 398 0026 2846     		mov	r0, r5
 399 0028 FFF7FEFF 		bl	lv_obj_get_style_prop
 400              	.LVL32:
 401              		.loc 2 298 5 is_stmt 1 view .LVU96
 402              		.loc 2 298 5 is_stmt 0 view .LVU97
ARM GAS  /tmp/ccgCqJqT.s 			page 18


 403              	.LBE132:
 404              	.LBE131:
 251:Middlewares/lvgl/src/core/lv_obj_pos.c **** 
 252:Middlewares/lvgl/src/core/lv_obj_pos.c ****     lv_obj_set_height(obj, h + ptop + pbottom + 2 * border_width);
 405              		.loc 1 252 5 is_stmt 1 view .LVU98
 406              		.loc 1 252 30 is_stmt 0 view .LVU99
 407 002c E119     		adds	r1, r4, r7
 408 002e 89B2     		uxth	r1, r1
 409              		.loc 1 252 37 view .LVU100
 410 0030 3144     		add	r1, r1, r6
 411 0032 89B2     		uxth	r1, r1
 412              		.loc 1 252 51 view .LVU101
 413 0034 4000     		lsls	r0, r0, #1
 414              	.LVL33:
 415              		.loc 1 252 51 view .LVU102
 416 0036 80B2     		uxth	r0, r0
 417              		.loc 1 252 47 view .LVU103
 418 0038 0144     		add	r1, r1, r0
 419              		.loc 1 252 5 view .LVU104
 420 003a 09B2     		sxth	r1, r1
 421 003c 2846     		mov	r0, r5
 422 003e FFF7FEFF 		bl	lv_obj_set_height
 423              	.LVL34:
 253:Middlewares/lvgl/src/core/lv_obj_pos.c **** }
 424              		.loc 1 253 1 view .LVU105
 425 0042 F8BD     		pop	{r3, r4, r5, r6, r7, pc}
 426              		.loc 1 253 1 view .LVU106
 427              		.cfi_endproc
 428              	.LFE161:
 430              		.section	.text.lv_obj_is_layout_positioned,"ax",%progbits
 431              		.align	1
 432              		.global	lv_obj_is_layout_positioned
 433              		.syntax unified
 434              		.thumb
 435              		.thumb_func
 436              		.fpu softvfp
 438              	lv_obj_is_layout_positioned:
 439              	.LVL35:
 440              	.LFB163:
 254:Middlewares/lvgl/src/core/lv_obj_pos.c **** 
 255:Middlewares/lvgl/src/core/lv_obj_pos.c **** void lv_obj_set_layout(lv_obj_t * obj, uint32_t layout)
 256:Middlewares/lvgl/src/core/lv_obj_pos.c **** {
 257:Middlewares/lvgl/src/core/lv_obj_pos.c ****     LV_ASSERT_OBJ(obj, MY_CLASS);
 258:Middlewares/lvgl/src/core/lv_obj_pos.c **** 
 259:Middlewares/lvgl/src/core/lv_obj_pos.c ****     lv_obj_set_style_layout(obj, layout, 0);
 260:Middlewares/lvgl/src/core/lv_obj_pos.c **** 
 261:Middlewares/lvgl/src/core/lv_obj_pos.c ****     lv_obj_mark_layout_as_dirty(obj);
 262:Middlewares/lvgl/src/core/lv_obj_pos.c **** }
 263:Middlewares/lvgl/src/core/lv_obj_pos.c **** 
 264:Middlewares/lvgl/src/core/lv_obj_pos.c **** bool lv_obj_is_layout_positioned(const lv_obj_t * obj)
 265:Middlewares/lvgl/src/core/lv_obj_pos.c **** {
 441              		.loc 1 265 1 is_stmt 1 view -0
 442              		.cfi_startproc
 443              		@ args = 0, pretend = 0, frame = 0
 444              		@ frame_needed = 0, uses_anonymous_args = 0
 445              		.loc 1 265 1 is_stmt 0 view .LVU108
 446 0000 38B5     		push	{r3, r4, r5, lr}
ARM GAS  /tmp/ccgCqJqT.s 			page 19


 447              	.LCFI11:
 448              		.cfi_def_cfa_offset 16
 449              		.cfi_offset 3, -16
 450              		.cfi_offset 4, -12
 451              		.cfi_offset 5, -8
 452              		.cfi_offset 14, -4
 453 0002 0446     		mov	r4, r0
 266:Middlewares/lvgl/src/core/lv_obj_pos.c ****     if(lv_obj_has_flag_any(obj, LV_OBJ_FLAG_HIDDEN | LV_OBJ_FLAG_IGNORE_LAYOUT | LV_OBJ_FLAG_FLOATI
 454              		.loc 1 266 5 is_stmt 1 view .LVU109
 455              		.loc 1 266 8 is_stmt 0 view .LVU110
 456 0004 0B49     		ldr	r1, .L24
 457 0006 FFF7FEFF 		bl	lv_obj_has_flag_any
 458              	.LVL36:
 459              		.loc 1 266 7 view .LVU111
 460 000a 10B1     		cbz	r0, .L23
 461              		.loc 1 266 112 view .LVU112
 462 000c 0025     		movs	r5, #0
 463              	.L20:
 267:Middlewares/lvgl/src/core/lv_obj_pos.c **** 
 268:Middlewares/lvgl/src/core/lv_obj_pos.c ****     lv_obj_t * parent = lv_obj_get_parent(obj);
 269:Middlewares/lvgl/src/core/lv_obj_pos.c ****     if(parent == NULL) return false;
 270:Middlewares/lvgl/src/core/lv_obj_pos.c **** 
 271:Middlewares/lvgl/src/core/lv_obj_pos.c ****     uint32_t layout = lv_obj_get_style_layout(parent, LV_PART_MAIN);
 272:Middlewares/lvgl/src/core/lv_obj_pos.c ****     if(layout) return true;
 273:Middlewares/lvgl/src/core/lv_obj_pos.c ****     else return false;
 274:Middlewares/lvgl/src/core/lv_obj_pos.c **** }
 464              		.loc 1 274 1 view .LVU113
 465 000e 2846     		mov	r0, r5
 466 0010 38BD     		pop	{r3, r4, r5, pc}
 467              	.LVL37:
 468              	.L23:
 469              		.loc 1 274 1 view .LVU114
 470 0012 0546     		mov	r5, r0
 268:Middlewares/lvgl/src/core/lv_obj_pos.c ****     if(parent == NULL) return false;
 471              		.loc 1 268 5 is_stmt 1 view .LVU115
 268:Middlewares/lvgl/src/core/lv_obj_pos.c ****     if(parent == NULL) return false;
 472              		.loc 1 268 25 is_stmt 0 view .LVU116
 473 0014 2046     		mov	r0, r4
 474 0016 FFF7FEFF 		bl	lv_obj_get_parent
 475              	.LVL38:
 269:Middlewares/lvgl/src/core/lv_obj_pos.c **** 
 476              		.loc 1 269 5 is_stmt 1 view .LVU117
 269:Middlewares/lvgl/src/core/lv_obj_pos.c **** 
 477              		.loc 1 269 7 is_stmt 0 view .LVU118
 478 001a 0028     		cmp	r0, #0
 479 001c F7D0     		beq	.L20
 271:Middlewares/lvgl/src/core/lv_obj_pos.c ****     if(layout) return true;
 480              		.loc 1 271 5 is_stmt 1 view .LVU119
 481              	.LVL39:
 482              	.LBB133:
 483              	.LBI133:
 181:Middlewares/lvgl/src/core/lv_obj_style_gen.h **** {
 484              		.loc 2 181 24 view .LVU120
 485              	.LBB134:
 183:Middlewares/lvgl/src/core/lv_obj_style_gen.h ****     return (uint16_t)v.num;
 486              		.loc 2 183 5 view .LVU121
 183:Middlewares/lvgl/src/core/lv_obj_style_gen.h ****     return (uint16_t)v.num;
ARM GAS  /tmp/ccgCqJqT.s 			page 20


 487              		.loc 2 183 26 is_stmt 0 view .LVU122
 488 001e 41F26902 		movw	r2, #4201
 489 0022 0021     		movs	r1, #0
 490 0024 FFF7FEFF 		bl	lv_obj_get_style_prop
 491              	.LVL40:
 184:Middlewares/lvgl/src/core/lv_obj_style_gen.h **** }
 492              		.loc 2 184 5 is_stmt 1 view .LVU123
 184:Middlewares/lvgl/src/core/lv_obj_style_gen.h **** }
 493              		.loc 2 184 5 is_stmt 0 view .LVU124
 494              	.LBE134:
 495              	.LBE133:
 272:Middlewares/lvgl/src/core/lv_obj_pos.c ****     else return false;
 496              		.loc 1 272 5 is_stmt 1 view .LVU125
 272:Middlewares/lvgl/src/core/lv_obj_pos.c ****     else return false;
 497              		.loc 1 272 7 is_stmt 0 view .LVU126
 498 0028 80B2     		uxth	r0, r0
 499              	.LVL41:
 272:Middlewares/lvgl/src/core/lv_obj_pos.c ****     else return false;
 500              		.loc 1 272 7 view .LVU127
 501 002a 0028     		cmp	r0, #0
 502 002c EFD0     		beq	.L20
 272:Middlewares/lvgl/src/core/lv_obj_pos.c ****     else return false;
 503              		.loc 1 272 23 view .LVU128
 504 002e 0125     		movs	r5, #1
 505 0030 EDE7     		b	.L20
 506              	.L25:
 507 0032 00BF     		.align	2
 508              	.L24:
 509 0034 01800100 		.word	98305
 510              		.cfi_endproc
 511              	.LFE163:
 513              		.section	.text.lv_obj_set_x,"ax",%progbits
 514              		.align	1
 515              		.global	lv_obj_set_x
 516              		.syntax unified
 517              		.thumb
 518              		.thumb_func
 519              		.fpu softvfp
 521              	lv_obj_set_x:
 522              	.LVL42:
 523              	.LFB154:
  51:Middlewares/lvgl/src/core/lv_obj_pos.c ****     LV_ASSERT_OBJ(obj, MY_CLASS);
 524              		.loc 1 51 1 is_stmt 1 view -0
 525              		.cfi_startproc
 526              		@ args = 0, pretend = 0, frame = 8
 527              		@ frame_needed = 0, uses_anonymous_args = 0
  51:Middlewares/lvgl/src/core/lv_obj_pos.c ****     LV_ASSERT_OBJ(obj, MY_CLASS);
 528              		.loc 1 51 1 is_stmt 0 view .LVU130
 529 0000 30B5     		push	{r4, r5, lr}
 530              	.LCFI12:
 531              		.cfi_def_cfa_offset 12
 532              		.cfi_offset 4, -12
 533              		.cfi_offset 5, -8
 534              		.cfi_offset 14, -4
 535 0002 83B0     		sub	sp, sp, #12
 536              	.LCFI13:
 537              		.cfi_def_cfa_offset 24
ARM GAS  /tmp/ccgCqJqT.s 			page 21


 538 0004 0446     		mov	r4, r0
 539 0006 0D46     		mov	r5, r1
  52:Middlewares/lvgl/src/core/lv_obj_pos.c ****     if(lv_obj_is_layout_positioned(obj)) {
 540              		.loc 1 52 5 is_stmt 1 view .LVU131
  52:Middlewares/lvgl/src/core/lv_obj_pos.c ****     if(lv_obj_is_layout_positioned(obj)) {
 541              		.loc 1 52 5 view .LVU132
  52:Middlewares/lvgl/src/core/lv_obj_pos.c ****     if(lv_obj_is_layout_positioned(obj)) {
 542              		.loc 1 52 5 view .LVU133
  53:Middlewares/lvgl/src/core/lv_obj_pos.c ****         return;
 543              		.loc 1 53 5 view .LVU134
  53:Middlewares/lvgl/src/core/lv_obj_pos.c ****         return;
 544              		.loc 1 53 8 is_stmt 0 view .LVU135
 545 0008 FFF7FEFF 		bl	lv_obj_is_layout_positioned
 546              	.LVL43:
  53:Middlewares/lvgl/src/core/lv_obj_pos.c ****         return;
 547              		.loc 1 53 7 view .LVU136
 548 000c 08B1     		cbz	r0, .L33
 549              	.L26:
  65:Middlewares/lvgl/src/core/lv_obj_pos.c **** 
 550              		.loc 1 65 1 view .LVU137
 551 000e 03B0     		add	sp, sp, #12
 552              	.LCFI14:
 553              		.cfi_remember_state
 554              		.cfi_def_cfa_offset 12
 555              		@ sp needed
 556 0010 30BD     		pop	{r4, r5, pc}
 557              	.LVL44:
 558              	.L33:
 559              	.LCFI15:
 560              		.cfi_restore_state
  57:Middlewares/lvgl/src/core/lv_obj_pos.c ****     lv_style_value_t v_x;
 561              		.loc 1 57 5 is_stmt 1 view .LVU138
  58:Middlewares/lvgl/src/core/lv_obj_pos.c **** 
 562              		.loc 1 58 5 view .LVU139
  60:Middlewares/lvgl/src/core/lv_obj_pos.c **** 
 563              		.loc 1 60 5 view .LVU140
  60:Middlewares/lvgl/src/core/lv_obj_pos.c **** 
 564              		.loc 1 60 13 is_stmt 0 view .LVU141
 565 0012 0023     		movs	r3, #0
 566 0014 01AA     		add	r2, sp, #4
 567 0016 41F20701 		movw	r1, #4103
 568 001a 2046     		mov	r0, r4
 569 001c FFF7FEFF 		bl	lv_obj_get_local_style_prop
 570              	.LVL45:
  62:Middlewares/lvgl/src/core/lv_obj_pos.c ****         lv_obj_set_style_x(obj, x, 0);
 571              		.loc 1 62 5 is_stmt 1 view .LVU142
  62:Middlewares/lvgl/src/core/lv_obj_pos.c ****         lv_obj_set_style_x(obj, x, 0);
 572              		.loc 1 62 7 is_stmt 0 view .LVU143
 573 0020 0128     		cmp	r0, #1
 574 0022 07D0     		beq	.L34
 575              	.L29:
  62:Middlewares/lvgl/src/core/lv_obj_pos.c ****         lv_obj_set_style_x(obj, x, 0);
 576              		.loc 1 62 45 discriminator 3 view .LVU144
 577 0024 0028     		cmp	r0, #0
 578 0026 F2D1     		bne	.L26
 579              	.L30:
  63:Middlewares/lvgl/src/core/lv_obj_pos.c ****     }
ARM GAS  /tmp/ccgCqJqT.s 			page 22


 580              		.loc 1 63 9 is_stmt 1 view .LVU145
 581 0028 0022     		movs	r2, #0
 582 002a 2946     		mov	r1, r5
 583 002c 2046     		mov	r0, r4
 584              	.LVL46:
  63:Middlewares/lvgl/src/core/lv_obj_pos.c ****     }
 585              		.loc 1 63 9 is_stmt 0 view .LVU146
 586 002e FFF7FEFF 		bl	lv_obj_set_style_x
 587              	.LVL47:
 588 0032 ECE7     		b	.L26
 589              	.LVL48:
 590              	.L34:
  62:Middlewares/lvgl/src/core/lv_obj_pos.c ****         lv_obj_set_style_x(obj, x, 0);
 591              		.loc 1 62 34 discriminator 1 view .LVU147
 592 0034 019B     		ldr	r3, [sp, #4]
  62:Middlewares/lvgl/src/core/lv_obj_pos.c ****         lv_obj_set_style_x(obj, x, 0);
 593              		.loc 1 62 28 discriminator 1 view .LVU148
 594 0036 AB42     		cmp	r3, r5
 595 0038 F6D1     		bne	.L30
 596 003a F3E7     		b	.L29
 597              		.cfi_endproc
 598              	.LFE154:
 600              		.section	.text.lv_obj_set_y,"ax",%progbits
 601              		.align	1
 602              		.global	lv_obj_set_y
 603              		.syntax unified
 604              		.thumb
 605              		.thumb_func
 606              		.fpu softvfp
 608              	lv_obj_set_y:
 609              	.LVL49:
 610              	.LFB155:
  68:Middlewares/lvgl/src/core/lv_obj_pos.c ****     if(lv_obj_is_layout_positioned(obj)) {
 611              		.loc 1 68 1 is_stmt 1 view -0
 612              		.cfi_startproc
 613              		@ args = 0, pretend = 0, frame = 8
 614              		@ frame_needed = 0, uses_anonymous_args = 0
  68:Middlewares/lvgl/src/core/lv_obj_pos.c ****     if(lv_obj_is_layout_positioned(obj)) {
 615              		.loc 1 68 1 is_stmt 0 view .LVU150
 616 0000 30B5     		push	{r4, r5, lr}
 617              	.LCFI16:
 618              		.cfi_def_cfa_offset 12
 619              		.cfi_offset 4, -12
 620              		.cfi_offset 5, -8
 621              		.cfi_offset 14, -4
 622 0002 83B0     		sub	sp, sp, #12
 623              	.LCFI17:
 624              		.cfi_def_cfa_offset 24
 625 0004 0446     		mov	r4, r0
 626 0006 0D46     		mov	r5, r1
  69:Middlewares/lvgl/src/core/lv_obj_pos.c ****         return;
 627              		.loc 1 69 5 is_stmt 1 view .LVU151
  69:Middlewares/lvgl/src/core/lv_obj_pos.c ****         return;
 628              		.loc 1 69 8 is_stmt 0 view .LVU152
 629 0008 FFF7FEFF 		bl	lv_obj_is_layout_positioned
 630              	.LVL50:
  69:Middlewares/lvgl/src/core/lv_obj_pos.c ****         return;
ARM GAS  /tmp/ccgCqJqT.s 			page 23


 631              		.loc 1 69 7 view .LVU153
 632 000c 08B1     		cbz	r0, .L42
 633              	.L35:
  82:Middlewares/lvgl/src/core/lv_obj_pos.c **** 
 634              		.loc 1 82 1 view .LVU154
 635 000e 03B0     		add	sp, sp, #12
 636              	.LCFI18:
 637              		.cfi_remember_state
 638              		.cfi_def_cfa_offset 12
 639              		@ sp needed
 640 0010 30BD     		pop	{r4, r5, pc}
 641              	.LVL51:
 642              	.L42:
 643              	.LCFI19:
 644              		.cfi_restore_state
  72:Middlewares/lvgl/src/core/lv_obj_pos.c **** 
 645              		.loc 1 72 5 is_stmt 1 view .LVU155
  72:Middlewares/lvgl/src/core/lv_obj_pos.c **** 
 646              		.loc 1 72 5 view .LVU156
  72:Middlewares/lvgl/src/core/lv_obj_pos.c **** 
 647              		.loc 1 72 5 view .LVU157
  74:Middlewares/lvgl/src/core/lv_obj_pos.c ****     lv_style_value_t v_y;
 648              		.loc 1 74 5 view .LVU158
  75:Middlewares/lvgl/src/core/lv_obj_pos.c **** 
 649              		.loc 1 75 5 view .LVU159
  77:Middlewares/lvgl/src/core/lv_obj_pos.c **** 
 650              		.loc 1 77 5 view .LVU160
  77:Middlewares/lvgl/src/core/lv_obj_pos.c **** 
 651              		.loc 1 77 13 is_stmt 0 view .LVU161
 652 0012 0023     		movs	r3, #0
 653 0014 01AA     		add	r2, sp, #4
 654 0016 41F20801 		movw	r1, #4104
 655 001a 2046     		mov	r0, r4
 656 001c FFF7FEFF 		bl	lv_obj_get_local_style_prop
 657              	.LVL52:
  79:Middlewares/lvgl/src/core/lv_obj_pos.c ****         lv_obj_set_style_y(obj, y, 0);
 658              		.loc 1 79 5 is_stmt 1 view .LVU162
  79:Middlewares/lvgl/src/core/lv_obj_pos.c ****         lv_obj_set_style_y(obj, y, 0);
 659              		.loc 1 79 7 is_stmt 0 view .LVU163
 660 0020 0128     		cmp	r0, #1
 661 0022 07D0     		beq	.L43
 662              	.L38:
  79:Middlewares/lvgl/src/core/lv_obj_pos.c ****         lv_obj_set_style_y(obj, y, 0);
 663              		.loc 1 79 45 discriminator 3 view .LVU164
 664 0024 0028     		cmp	r0, #0
 665 0026 F2D1     		bne	.L35
 666              	.L39:
  80:Middlewares/lvgl/src/core/lv_obj_pos.c ****     }
 667              		.loc 1 80 9 is_stmt 1 view .LVU165
 668 0028 0022     		movs	r2, #0
 669 002a 2946     		mov	r1, r5
 670 002c 2046     		mov	r0, r4
 671              	.LVL53:
  80:Middlewares/lvgl/src/core/lv_obj_pos.c ****     }
 672              		.loc 1 80 9 is_stmt 0 view .LVU166
 673 002e FFF7FEFF 		bl	lv_obj_set_style_y
 674              	.LVL54:
ARM GAS  /tmp/ccgCqJqT.s 			page 24


 675 0032 ECE7     		b	.L35
 676              	.LVL55:
 677              	.L43:
  79:Middlewares/lvgl/src/core/lv_obj_pos.c ****         lv_obj_set_style_y(obj, y, 0);
 678              		.loc 1 79 34 discriminator 1 view .LVU167
 679 0034 019B     		ldr	r3, [sp, #4]
  79:Middlewares/lvgl/src/core/lv_obj_pos.c ****         lv_obj_set_style_y(obj, y, 0);
 680              		.loc 1 79 28 discriminator 1 view .LVU168
 681 0036 AB42     		cmp	r3, r5
 682 0038 F6D1     		bne	.L39
 683 003a F3E7     		b	.L38
 684              		.cfi_endproc
 685              	.LFE155:
 687              		.section	.text.lv_obj_set_pos,"ax",%progbits
 688              		.align	1
 689              		.global	lv_obj_set_pos
 690              		.syntax unified
 691              		.thumb
 692              		.thumb_func
 693              		.fpu softvfp
 695              	lv_obj_set_pos:
 696              	.LVL56:
 697              	.LFB153:
  43:Middlewares/lvgl/src/core/lv_obj_pos.c ****     LV_ASSERT_OBJ(obj, MY_CLASS);
 698              		.loc 1 43 1 is_stmt 1 view -0
 699              		.cfi_startproc
 700              		@ args = 0, pretend = 0, frame = 0
 701              		@ frame_needed = 0, uses_anonymous_args = 0
  43:Middlewares/lvgl/src/core/lv_obj_pos.c ****     LV_ASSERT_OBJ(obj, MY_CLASS);
 702              		.loc 1 43 1 is_stmt 0 view .LVU170
 703 0000 38B5     		push	{r3, r4, r5, lr}
 704              	.LCFI20:
 705              		.cfi_def_cfa_offset 16
 706              		.cfi_offset 3, -16
 707              		.cfi_offset 4, -12
 708              		.cfi_offset 5, -8
 709              		.cfi_offset 14, -4
 710 0002 0446     		mov	r4, r0
 711 0004 1546     		mov	r5, r2
  44:Middlewares/lvgl/src/core/lv_obj_pos.c **** 
 712              		.loc 1 44 5 is_stmt 1 view .LVU171
  44:Middlewares/lvgl/src/core/lv_obj_pos.c **** 
 713              		.loc 1 44 5 view .LVU172
  44:Middlewares/lvgl/src/core/lv_obj_pos.c **** 
 714              		.loc 1 44 5 view .LVU173
  46:Middlewares/lvgl/src/core/lv_obj_pos.c ****     lv_obj_set_y(obj, y);
 715              		.loc 1 46 5 view .LVU174
 716 0006 FFF7FEFF 		bl	lv_obj_set_x
 717              	.LVL57:
  47:Middlewares/lvgl/src/core/lv_obj_pos.c **** }
 718              		.loc 1 47 5 view .LVU175
 719 000a 2946     		mov	r1, r5
 720 000c 2046     		mov	r0, r4
 721 000e FFF7FEFF 		bl	lv_obj_set_y
 722              	.LVL58:
  48:Middlewares/lvgl/src/core/lv_obj_pos.c **** 
 723              		.loc 1 48 1 is_stmt 0 view .LVU176
ARM GAS  /tmp/ccgCqJqT.s 			page 25


 724 0012 38BD     		pop	{r3, r4, r5, pc}
  48:Middlewares/lvgl/src/core/lv_obj_pos.c **** 
 725              		.loc 1 48 1 view .LVU177
 726              		.cfi_endproc
 727              	.LFE153:
 729              		.section	.text.lv_obj_mark_layout_as_dirty,"ax",%progbits
 730              		.align	1
 731              		.global	lv_obj_mark_layout_as_dirty
 732              		.syntax unified
 733              		.thumb
 734              		.thumb_func
 735              		.fpu softvfp
 737              	lv_obj_mark_layout_as_dirty:
 738              	.LVL59:
 739              	.LFB164:
 275:Middlewares/lvgl/src/core/lv_obj_pos.c **** 
 276:Middlewares/lvgl/src/core/lv_obj_pos.c **** void lv_obj_mark_layout_as_dirty(lv_obj_t * obj)
 277:Middlewares/lvgl/src/core/lv_obj_pos.c **** {
 740              		.loc 1 277 1 is_stmt 1 view -0
 741              		.cfi_startproc
 742              		@ args = 0, pretend = 0, frame = 0
 743              		@ frame_needed = 0, uses_anonymous_args = 0
 744              		.loc 1 277 1 is_stmt 0 view .LVU179
 745 0000 08B5     		push	{r3, lr}
 746              	.LCFI21:
 747              		.cfi_def_cfa_offset 8
 748              		.cfi_offset 3, -8
 749              		.cfi_offset 14, -4
 278:Middlewares/lvgl/src/core/lv_obj_pos.c ****     obj->layout_inv = 1;
 750              		.loc 1 278 5 is_stmt 1 view .LVU180
 751              		.loc 1 278 21 is_stmt 0 view .LVU181
 752 0002 90F82220 		ldrb	r2, [r0, #34]	@ zero_extendqisi2
 753 0006 42F00102 		orr	r2, r2, #1
 754 000a 80F82220 		strb	r2, [r0, #34]
 279:Middlewares/lvgl/src/core/lv_obj_pos.c **** 
 280:Middlewares/lvgl/src/core/lv_obj_pos.c ****     /*Mark the screen as dirty too to mark that there is an something to do on this screen*/
 281:Middlewares/lvgl/src/core/lv_obj_pos.c ****     lv_obj_t * scr = lv_obj_get_screen(obj);
 755              		.loc 1 281 5 is_stmt 1 view .LVU182
 756              		.loc 1 281 22 is_stmt 0 view .LVU183
 757 000e FFF7FEFF 		bl	lv_obj_get_screen
 758              	.LVL60:
 282:Middlewares/lvgl/src/core/lv_obj_pos.c ****     scr->scr_layout_inv = 1;
 759              		.loc 1 282 5 is_stmt 1 view .LVU184
 760              		.loc 1 282 25 is_stmt 0 view .LVU185
 761 0012 90F82220 		ldrb	r2, [r0, #34]	@ zero_extendqisi2
 762 0016 42F00202 		orr	r2, r2, #2
 763 001a 80F82220 		strb	r2, [r0, #34]
 283:Middlewares/lvgl/src/core/lv_obj_pos.c **** 
 284:Middlewares/lvgl/src/core/lv_obj_pos.c ****     /*Make the display refreshing*/
 285:Middlewares/lvgl/src/core/lv_obj_pos.c ****     lv_disp_t * disp = lv_obj_get_disp(scr);
 764              		.loc 1 285 5 is_stmt 1 view .LVU186
 765              		.loc 1 285 24 is_stmt 0 view .LVU187
 766 001e FFF7FEFF 		bl	lv_obj_get_disp
 767              	.LVL61:
 286:Middlewares/lvgl/src/core/lv_obj_pos.c ****     lv_timer_resume(disp->refr_timer);
 768              		.loc 1 286 5 is_stmt 1 view .LVU188
 769 0022 4068     		ldr	r0, [r0, #4]
ARM GAS  /tmp/ccgCqJqT.s 			page 26


 770              	.LVL62:
 771              		.loc 1 286 5 is_stmt 0 view .LVU189
 772 0024 FFF7FEFF 		bl	lv_timer_resume
 773              	.LVL63:
 287:Middlewares/lvgl/src/core/lv_obj_pos.c **** }
 774              		.loc 1 287 1 view .LVU190
 775 0028 08BD     		pop	{r3, pc}
 776              		.cfi_endproc
 777              	.LFE164:
 779              		.section	.text.lv_obj_set_layout,"ax",%progbits
 780              		.align	1
 781              		.global	lv_obj_set_layout
 782              		.syntax unified
 783              		.thumb
 784              		.thumb_func
 785              		.fpu softvfp
 787              	lv_obj_set_layout:
 788              	.LVL64:
 789              	.LFB162:
 256:Middlewares/lvgl/src/core/lv_obj_pos.c ****     LV_ASSERT_OBJ(obj, MY_CLASS);
 790              		.loc 1 256 1 is_stmt 1 view -0
 791              		.cfi_startproc
 792              		@ args = 0, pretend = 0, frame = 0
 793              		@ frame_needed = 0, uses_anonymous_args = 0
 256:Middlewares/lvgl/src/core/lv_obj_pos.c ****     LV_ASSERT_OBJ(obj, MY_CLASS);
 794              		.loc 1 256 1 is_stmt 0 view .LVU192
 795 0000 10B5     		push	{r4, lr}
 796              	.LCFI22:
 797              		.cfi_def_cfa_offset 8
 798              		.cfi_offset 4, -8
 799              		.cfi_offset 14, -4
 800 0002 0446     		mov	r4, r0
 257:Middlewares/lvgl/src/core/lv_obj_pos.c **** 
 801              		.loc 1 257 5 is_stmt 1 view .LVU193
 257:Middlewares/lvgl/src/core/lv_obj_pos.c **** 
 802              		.loc 1 257 5 view .LVU194
 257:Middlewares/lvgl/src/core/lv_obj_pos.c **** 
 803              		.loc 1 257 5 view .LVU195
 259:Middlewares/lvgl/src/core/lv_obj_pos.c **** 
 804              		.loc 1 259 5 view .LVU196
 805 0004 0022     		movs	r2, #0
 806 0006 89B2     		uxth	r1, r1
 807              	.LVL65:
 259:Middlewares/lvgl/src/core/lv_obj_pos.c **** 
 808              		.loc 1 259 5 is_stmt 0 view .LVU197
 809 0008 FFF7FEFF 		bl	lv_obj_set_style_layout
 810              	.LVL66:
 261:Middlewares/lvgl/src/core/lv_obj_pos.c **** }
 811              		.loc 1 261 5 is_stmt 1 view .LVU198
 812 000c 2046     		mov	r0, r4
 813 000e FFF7FEFF 		bl	lv_obj_mark_layout_as_dirty
 814              	.LVL67:
 262:Middlewares/lvgl/src/core/lv_obj_pos.c **** 
 815              		.loc 1 262 1 is_stmt 0 view .LVU199
 816 0012 10BD     		pop	{r4, pc}
 262:Middlewares/lvgl/src/core/lv_obj_pos.c **** 
 817              		.loc 1 262 1 view .LVU200
ARM GAS  /tmp/ccgCqJqT.s 			page 27


 818              		.cfi_endproc
 819              	.LFE162:
 821              		.section	.text.lv_layout_register,"ax",%progbits
 822              		.align	1
 823              		.global	lv_layout_register
 824              		.syntax unified
 825              		.thumb
 826              		.thumb_func
 827              		.fpu softvfp
 829              	lv_layout_register:
 830              	.LVL68:
 831              	.LFB166:
 288:Middlewares/lvgl/src/core/lv_obj_pos.c **** 
 289:Middlewares/lvgl/src/core/lv_obj_pos.c **** void lv_obj_update_layout(const lv_obj_t * obj)
 290:Middlewares/lvgl/src/core/lv_obj_pos.c **** {
 291:Middlewares/lvgl/src/core/lv_obj_pos.c ****     static bool mutex = false;
 292:Middlewares/lvgl/src/core/lv_obj_pos.c ****     if(mutex) {
 293:Middlewares/lvgl/src/core/lv_obj_pos.c ****         LV_LOG_TRACE("Already running, returning")
 294:Middlewares/lvgl/src/core/lv_obj_pos.c ****         return;
 295:Middlewares/lvgl/src/core/lv_obj_pos.c ****     }
 296:Middlewares/lvgl/src/core/lv_obj_pos.c ****     mutex = true;
 297:Middlewares/lvgl/src/core/lv_obj_pos.c **** 
 298:Middlewares/lvgl/src/core/lv_obj_pos.c ****     lv_obj_t * scr = lv_obj_get_screen(obj);
 299:Middlewares/lvgl/src/core/lv_obj_pos.c **** 
 300:Middlewares/lvgl/src/core/lv_obj_pos.c ****     /*Repeat until there where layout invalidations*/
 301:Middlewares/lvgl/src/core/lv_obj_pos.c ****     while(scr->scr_layout_inv) {
 302:Middlewares/lvgl/src/core/lv_obj_pos.c ****         LV_LOG_INFO("Layout update begin")
 303:Middlewares/lvgl/src/core/lv_obj_pos.c ****         scr->scr_layout_inv = 0;
 304:Middlewares/lvgl/src/core/lv_obj_pos.c ****         layout_update_core(scr);
 305:Middlewares/lvgl/src/core/lv_obj_pos.c ****         LV_LOG_TRACE("Layout update end")
 306:Middlewares/lvgl/src/core/lv_obj_pos.c ****     }
 307:Middlewares/lvgl/src/core/lv_obj_pos.c **** 
 308:Middlewares/lvgl/src/core/lv_obj_pos.c ****     mutex = false;
 309:Middlewares/lvgl/src/core/lv_obj_pos.c **** }
 310:Middlewares/lvgl/src/core/lv_obj_pos.c **** 
 311:Middlewares/lvgl/src/core/lv_obj_pos.c **** uint32_t lv_layout_register(lv_layout_update_cb_t cb, void * user_data)
 312:Middlewares/lvgl/src/core/lv_obj_pos.c **** {
 832              		.loc 1 312 1 is_stmt 1 view -0
 833              		.cfi_startproc
 834              		@ args = 0, pretend = 0, frame = 0
 835              		@ frame_needed = 0, uses_anonymous_args = 0
 836              		.loc 1 312 1 is_stmt 0 view .LVU202
 837 0000 70B5     		push	{r4, r5, r6, lr}
 838              	.LCFI23:
 839              		.cfi_def_cfa_offset 16
 840              		.cfi_offset 4, -16
 841              		.cfi_offset 5, -12
 842              		.cfi_offset 6, -8
 843              		.cfi_offset 14, -4
 844 0002 0546     		mov	r5, r0
 845 0004 0C46     		mov	r4, r1
 313:Middlewares/lvgl/src/core/lv_obj_pos.c ****     layout_cnt++;
 846              		.loc 1 313 5 is_stmt 1 view .LVU203
 847              		.loc 1 313 15 is_stmt 0 view .LVU204
 848 0006 0D4A     		ldr	r2, .L54
 849 0008 1368     		ldr	r3, [r2]
 850 000a 0133     		adds	r3, r3, #1
ARM GAS  /tmp/ccgCqJqT.s 			page 28


 851 000c 1360     		str	r3, [r2]
 314:Middlewares/lvgl/src/core/lv_obj_pos.c ****     LV_GC_ROOT(_lv_layout_list) = lv_mem_realloc(LV_GC_ROOT(_lv_layout_list), layout_cnt * sizeof(l
 852              		.loc 1 314 5 is_stmt 1 view .LVU205
 853              		.loc 1 314 35 is_stmt 0 view .LVU206
 854 000e 0C4E     		ldr	r6, .L54+4
 855 0010 D900     		lsls	r1, r3, #3
 856              	.LVL69:
 857              		.loc 1 314 35 view .LVU207
 858 0012 3068     		ldr	r0, [r6]
 859              	.LVL70:
 860              		.loc 1 314 35 view .LVU208
 861 0014 FFF7FEFF 		bl	lv_mem_realloc
 862              	.LVL71:
 863              		.loc 1 314 33 view .LVU209
 864 0018 3060     		str	r0, [r6]
 315:Middlewares/lvgl/src/core/lv_obj_pos.c ****     LV_ASSERT_MALLOC(LV_GC_ROOT(_lv_layout_list));
 865              		.loc 1 315 5 is_stmt 1 view .LVU210
 866              		.loc 1 315 5 view .LVU211
 867 001a 68B1     		cbz	r0, .L52
 868 001c 0346     		mov	r3, r0
 869              		.loc 1 315 5 discriminator 2 view .LVU212
 870              		.loc 1 315 50 discriminator 2 view .LVU213
 316:Middlewares/lvgl/src/core/lv_obj_pos.c **** 
 317:Middlewares/lvgl/src/core/lv_obj_pos.c ****     LV_GC_ROOT(_lv_layout_list)[layout_cnt - 1].cb = cb;
 871              		.loc 1 317 5 discriminator 2 view .LVU214
 872              		.loc 1 317 32 is_stmt 0 discriminator 2 view .LVU215
 873 001e 074A     		ldr	r2, .L54
 874 0020 1068     		ldr	r0, [r2]
 875 0022 00F10052 		add	r2, r0, #536870912
 876 0026 013A     		subs	r2, r2, #1
 877              		.loc 1 317 52 discriminator 2 view .LVU216
 878 0028 43F83250 		str	r5, [r3, r2, lsl #3]
 318:Middlewares/lvgl/src/core/lv_obj_pos.c ****     LV_GC_ROOT(_lv_layout_list)[layout_cnt - 1].user_data = user_data;
 879              		.loc 1 318 5 is_stmt 1 discriminator 2 view .LVU217
 880              		.loc 1 318 32 is_stmt 0 discriminator 2 view .LVU218
 881 002c 044B     		ldr	r3, .L54+4
 882 002e 1B68     		ldr	r3, [r3]
 883 0030 03EBC202 		add	r2, r3, r2, lsl #3
 884              		.loc 1 318 59 discriminator 2 view .LVU219
 885 0034 5460     		str	r4, [r2, #4]
 319:Middlewares/lvgl/src/core/lv_obj_pos.c ****     return layout_cnt;  /*No -1 to skip 0th index*/
 886              		.loc 1 319 5 is_stmt 1 discriminator 2 view .LVU220
 320:Middlewares/lvgl/src/core/lv_obj_pos.c **** }
 887              		.loc 1 320 1 is_stmt 0 discriminator 2 view .LVU221
 888 0036 70BD     		pop	{r4, r5, r6, pc}
 889              	.LVL72:
 890              	.L52:
 315:Middlewares/lvgl/src/core/lv_obj_pos.c **** 
 891              		.loc 1 315 5 is_stmt 1 discriminator 1 view .LVU222
 315:Middlewares/lvgl/src/core/lv_obj_pos.c **** 
 892              		.loc 1 315 5 discriminator 1 view .LVU223
 315:Middlewares/lvgl/src/core/lv_obj_pos.c **** 
 893              		.loc 1 315 5 discriminator 1 view .LVU224
 315:Middlewares/lvgl/src/core/lv_obj_pos.c **** 
 894              		.loc 1 315 5 discriminator 1 view .LVU225
 895 0038 FEE7     		b	.L52
 896              	.L55:
ARM GAS  /tmp/ccgCqJqT.s 			page 29


 897 003a 00BF     		.align	2
 898              	.L54:
 899 003c 00000000 		.word	.LANCHOR0
 900 0040 00000000 		.word	_lv_layout_list
 901              		.cfi_endproc
 902              	.LFE166:
 904              		.section	.text.lv_obj_set_align,"ax",%progbits
 905              		.align	1
 906              		.global	lv_obj_set_align
 907              		.syntax unified
 908              		.thumb
 909              		.thumb_func
 910              		.fpu softvfp
 912              	lv_obj_set_align:
 913              	.LVL73:
 914              	.LFB167:
 321:Middlewares/lvgl/src/core/lv_obj_pos.c **** 
 322:Middlewares/lvgl/src/core/lv_obj_pos.c **** void lv_obj_set_align(lv_obj_t * obj, lv_align_t align)
 323:Middlewares/lvgl/src/core/lv_obj_pos.c **** {
 915              		.loc 1 323 1 view -0
 916              		.cfi_startproc
 917              		@ args = 0, pretend = 0, frame = 0
 918              		@ frame_needed = 0, uses_anonymous_args = 0
 919              		.loc 1 323 1 is_stmt 0 view .LVU227
 920 0000 08B5     		push	{r3, lr}
 921              	.LCFI24:
 922              		.cfi_def_cfa_offset 8
 923              		.cfi_offset 3, -8
 924              		.cfi_offset 14, -4
 324:Middlewares/lvgl/src/core/lv_obj_pos.c ****     lv_obj_set_style_align(obj, align, 0);
 925              		.loc 1 324 5 is_stmt 1 view .LVU228
 926 0002 0022     		movs	r2, #0
 927 0004 FFF7FEFF 		bl	lv_obj_set_style_align
 928              	.LVL74:
 325:Middlewares/lvgl/src/core/lv_obj_pos.c **** }
 929              		.loc 1 325 1 is_stmt 0 view .LVU229
 930 0008 08BD     		pop	{r3, pc}
 931              		.cfi_endproc
 932              	.LFE167:
 934              		.section	.text.lv_obj_align,"ax",%progbits
 935              		.align	1
 936              		.global	lv_obj_align
 937              		.syntax unified
 938              		.thumb
 939              		.thumb_func
 940              		.fpu softvfp
 942              	lv_obj_align:
 943              	.LVL75:
 944              	.LFB168:
 326:Middlewares/lvgl/src/core/lv_obj_pos.c **** 
 327:Middlewares/lvgl/src/core/lv_obj_pos.c **** void lv_obj_align(lv_obj_t * obj, lv_align_t align, lv_coord_t x_ofs, lv_coord_t y_ofs)
 328:Middlewares/lvgl/src/core/lv_obj_pos.c **** {
 945              		.loc 1 328 1 is_stmt 1 view -0
 946              		.cfi_startproc
 947              		@ args = 0, pretend = 0, frame = 0
 948              		@ frame_needed = 0, uses_anonymous_args = 0
 949              		.loc 1 328 1 is_stmt 0 view .LVU231
ARM GAS  /tmp/ccgCqJqT.s 			page 30


 950 0000 70B5     		push	{r4, r5, r6, lr}
 951              	.LCFI25:
 952              		.cfi_def_cfa_offset 16
 953              		.cfi_offset 4, -16
 954              		.cfi_offset 5, -12
 955              		.cfi_offset 6, -8
 956              		.cfi_offset 14, -4
 957 0002 0446     		mov	r4, r0
 958 0004 1546     		mov	r5, r2
 959 0006 1E46     		mov	r6, r3
 329:Middlewares/lvgl/src/core/lv_obj_pos.c ****     lv_obj_set_style_align(obj, align, 0);
 960              		.loc 1 329 5 is_stmt 1 view .LVU232
 961 0008 0022     		movs	r2, #0
 962              	.LVL76:
 963              		.loc 1 329 5 is_stmt 0 view .LVU233
 964 000a FFF7FEFF 		bl	lv_obj_set_style_align
 965              	.LVL77:
 330:Middlewares/lvgl/src/core/lv_obj_pos.c ****     lv_obj_set_pos(obj, x_ofs, y_ofs);
 966              		.loc 1 330 5 is_stmt 1 view .LVU234
 967 000e 3246     		mov	r2, r6
 968 0010 2946     		mov	r1, r5
 969 0012 2046     		mov	r0, r4
 970 0014 FFF7FEFF 		bl	lv_obj_set_pos
 971              	.LVL78:
 331:Middlewares/lvgl/src/core/lv_obj_pos.c **** }
 972              		.loc 1 331 1 is_stmt 0 view .LVU235
 973 0018 70BD     		pop	{r4, r5, r6, pc}
 974              		.loc 1 331 1 view .LVU236
 975              		.cfi_endproc
 976              	.LFE168:
 978              		.section	.text.lv_obj_get_coords,"ax",%progbits
 979              		.align	1
 980              		.global	lv_obj_get_coords
 981              		.syntax unified
 982              		.thumb
 983              		.thumb_func
 984              		.fpu softvfp
 986              	lv_obj_get_coords:
 987              	.LVL79:
 988              	.LFB170:
 332:Middlewares/lvgl/src/core/lv_obj_pos.c **** 
 333:Middlewares/lvgl/src/core/lv_obj_pos.c **** void lv_obj_align_to(lv_obj_t * obj, const lv_obj_t * base, lv_align_t align, lv_coord_t x_ofs, lv_
 334:Middlewares/lvgl/src/core/lv_obj_pos.c **** {
 335:Middlewares/lvgl/src/core/lv_obj_pos.c ****     LV_ASSERT_OBJ(obj, MY_CLASS);
 336:Middlewares/lvgl/src/core/lv_obj_pos.c **** 
 337:Middlewares/lvgl/src/core/lv_obj_pos.c ****     lv_obj_update_layout(obj);
 338:Middlewares/lvgl/src/core/lv_obj_pos.c ****     if(base == NULL) base = lv_obj_get_parent(obj);
 339:Middlewares/lvgl/src/core/lv_obj_pos.c **** 
 340:Middlewares/lvgl/src/core/lv_obj_pos.c ****     LV_ASSERT_OBJ(base, MY_CLASS);
 341:Middlewares/lvgl/src/core/lv_obj_pos.c **** 
 342:Middlewares/lvgl/src/core/lv_obj_pos.c ****     lv_coord_t x = 0;
 343:Middlewares/lvgl/src/core/lv_obj_pos.c ****     lv_coord_t y = 0;
 344:Middlewares/lvgl/src/core/lv_obj_pos.c **** 
 345:Middlewares/lvgl/src/core/lv_obj_pos.c ****     lv_obj_t * parent = lv_obj_get_parent(obj);
 346:Middlewares/lvgl/src/core/lv_obj_pos.c ****     lv_coord_t pborder = lv_obj_get_style_border_width(parent, LV_PART_MAIN);
 347:Middlewares/lvgl/src/core/lv_obj_pos.c ****     lv_coord_t pleft = lv_obj_get_style_pad_left(parent, LV_PART_MAIN) + pborder;
 348:Middlewares/lvgl/src/core/lv_obj_pos.c ****     lv_coord_t ptop = lv_obj_get_style_pad_top(parent, LV_PART_MAIN) + pborder;
ARM GAS  /tmp/ccgCqJqT.s 			page 31


 349:Middlewares/lvgl/src/core/lv_obj_pos.c **** 
 350:Middlewares/lvgl/src/core/lv_obj_pos.c ****     lv_coord_t bborder = lv_obj_get_style_border_width(base, LV_PART_MAIN);
 351:Middlewares/lvgl/src/core/lv_obj_pos.c ****     lv_coord_t bleft = lv_obj_get_style_pad_left(base, LV_PART_MAIN) + bborder;
 352:Middlewares/lvgl/src/core/lv_obj_pos.c ****     lv_coord_t btop = lv_obj_get_style_pad_top(base, LV_PART_MAIN) + bborder;
 353:Middlewares/lvgl/src/core/lv_obj_pos.c **** 
 354:Middlewares/lvgl/src/core/lv_obj_pos.c ****     if(align == LV_ALIGN_DEFAULT) {
 355:Middlewares/lvgl/src/core/lv_obj_pos.c ****         if(lv_obj_get_style_base_dir(base, LV_PART_MAIN) == LV_BASE_DIR_RTL) align = LV_ALIGN_TOP_R
 356:Middlewares/lvgl/src/core/lv_obj_pos.c ****         else align = LV_ALIGN_TOP_LEFT;
 357:Middlewares/lvgl/src/core/lv_obj_pos.c ****     }
 358:Middlewares/lvgl/src/core/lv_obj_pos.c **** 
 359:Middlewares/lvgl/src/core/lv_obj_pos.c ****     switch(align) {
 360:Middlewares/lvgl/src/core/lv_obj_pos.c ****     case LV_ALIGN_CENTER:
 361:Middlewares/lvgl/src/core/lv_obj_pos.c ****         x = lv_obj_get_content_width(base) / 2 - lv_obj_get_width(obj) / 2 + bleft;
 362:Middlewares/lvgl/src/core/lv_obj_pos.c ****         y = lv_obj_get_content_height(base) / 2 - lv_obj_get_height(obj) / 2 + btop;
 363:Middlewares/lvgl/src/core/lv_obj_pos.c ****         break;
 364:Middlewares/lvgl/src/core/lv_obj_pos.c ****     case LV_ALIGN_TOP_LEFT:
 365:Middlewares/lvgl/src/core/lv_obj_pos.c ****         x = bleft;
 366:Middlewares/lvgl/src/core/lv_obj_pos.c ****         y = btop;
 367:Middlewares/lvgl/src/core/lv_obj_pos.c ****         break;
 368:Middlewares/lvgl/src/core/lv_obj_pos.c ****     case LV_ALIGN_TOP_MID:
 369:Middlewares/lvgl/src/core/lv_obj_pos.c ****         x = lv_obj_get_content_width(base) / 2 - lv_obj_get_width(obj) / 2 + bleft;
 370:Middlewares/lvgl/src/core/lv_obj_pos.c ****         y = btop;
 371:Middlewares/lvgl/src/core/lv_obj_pos.c ****         break;
 372:Middlewares/lvgl/src/core/lv_obj_pos.c **** 
 373:Middlewares/lvgl/src/core/lv_obj_pos.c ****     case LV_ALIGN_TOP_RIGHT:
 374:Middlewares/lvgl/src/core/lv_obj_pos.c ****         x = lv_obj_get_content_width(base) - lv_obj_get_width(obj) + bleft;
 375:Middlewares/lvgl/src/core/lv_obj_pos.c ****         y = btop;
 376:Middlewares/lvgl/src/core/lv_obj_pos.c ****         break;
 377:Middlewares/lvgl/src/core/lv_obj_pos.c **** 
 378:Middlewares/lvgl/src/core/lv_obj_pos.c ****     case LV_ALIGN_BOTTOM_LEFT:
 379:Middlewares/lvgl/src/core/lv_obj_pos.c ****         x = bleft;
 380:Middlewares/lvgl/src/core/lv_obj_pos.c ****         y = lv_obj_get_content_height(base) - lv_obj_get_height(obj) + btop;
 381:Middlewares/lvgl/src/core/lv_obj_pos.c ****         break;
 382:Middlewares/lvgl/src/core/lv_obj_pos.c ****     case LV_ALIGN_BOTTOM_MID:
 383:Middlewares/lvgl/src/core/lv_obj_pos.c ****         x = lv_obj_get_content_width(base) / 2 - lv_obj_get_width(obj) / 2 + bleft;
 384:Middlewares/lvgl/src/core/lv_obj_pos.c ****         y = lv_obj_get_content_height(base) - lv_obj_get_height(obj) + btop;
 385:Middlewares/lvgl/src/core/lv_obj_pos.c ****         break;
 386:Middlewares/lvgl/src/core/lv_obj_pos.c **** 
 387:Middlewares/lvgl/src/core/lv_obj_pos.c ****     case LV_ALIGN_BOTTOM_RIGHT:
 388:Middlewares/lvgl/src/core/lv_obj_pos.c ****         x = lv_obj_get_content_width(base) - lv_obj_get_width(obj) + bleft;
 389:Middlewares/lvgl/src/core/lv_obj_pos.c ****         y = lv_obj_get_content_height(base) - lv_obj_get_height(obj) + btop;
 390:Middlewares/lvgl/src/core/lv_obj_pos.c ****         break;
 391:Middlewares/lvgl/src/core/lv_obj_pos.c **** 
 392:Middlewares/lvgl/src/core/lv_obj_pos.c ****     case LV_ALIGN_LEFT_MID:
 393:Middlewares/lvgl/src/core/lv_obj_pos.c ****         x = bleft;
 394:Middlewares/lvgl/src/core/lv_obj_pos.c ****         y = lv_obj_get_content_height(base) / 2 - lv_obj_get_height(obj) / 2 + btop;
 395:Middlewares/lvgl/src/core/lv_obj_pos.c ****         break;
 396:Middlewares/lvgl/src/core/lv_obj_pos.c **** 
 397:Middlewares/lvgl/src/core/lv_obj_pos.c ****     case LV_ALIGN_RIGHT_MID:
 398:Middlewares/lvgl/src/core/lv_obj_pos.c ****         x = lv_obj_get_content_width(base) - lv_obj_get_width(obj) + bleft;
 399:Middlewares/lvgl/src/core/lv_obj_pos.c ****         y = lv_obj_get_content_height(base) / 2 - lv_obj_get_height(obj) / 2 + btop;
 400:Middlewares/lvgl/src/core/lv_obj_pos.c ****         break;
 401:Middlewares/lvgl/src/core/lv_obj_pos.c **** 
 402:Middlewares/lvgl/src/core/lv_obj_pos.c ****     case LV_ALIGN_OUT_TOP_LEFT:
 403:Middlewares/lvgl/src/core/lv_obj_pos.c ****         x = 0;
 404:Middlewares/lvgl/src/core/lv_obj_pos.c ****         y = -lv_obj_get_height(obj);
 405:Middlewares/lvgl/src/core/lv_obj_pos.c ****         break;
ARM GAS  /tmp/ccgCqJqT.s 			page 32


 406:Middlewares/lvgl/src/core/lv_obj_pos.c **** 
 407:Middlewares/lvgl/src/core/lv_obj_pos.c ****     case LV_ALIGN_OUT_TOP_MID:
 408:Middlewares/lvgl/src/core/lv_obj_pos.c ****         x = lv_obj_get_width(base) / 2 - lv_obj_get_width(obj) / 2;
 409:Middlewares/lvgl/src/core/lv_obj_pos.c ****         y = -lv_obj_get_height(obj);
 410:Middlewares/lvgl/src/core/lv_obj_pos.c ****         break;
 411:Middlewares/lvgl/src/core/lv_obj_pos.c **** 
 412:Middlewares/lvgl/src/core/lv_obj_pos.c ****     case LV_ALIGN_OUT_TOP_RIGHT:
 413:Middlewares/lvgl/src/core/lv_obj_pos.c ****         x = lv_obj_get_width(base) - lv_obj_get_width(obj);
 414:Middlewares/lvgl/src/core/lv_obj_pos.c ****         y = -lv_obj_get_height(obj);
 415:Middlewares/lvgl/src/core/lv_obj_pos.c ****         break;
 416:Middlewares/lvgl/src/core/lv_obj_pos.c **** 
 417:Middlewares/lvgl/src/core/lv_obj_pos.c ****     case LV_ALIGN_OUT_BOTTOM_LEFT:
 418:Middlewares/lvgl/src/core/lv_obj_pos.c ****         x = 0;
 419:Middlewares/lvgl/src/core/lv_obj_pos.c ****         y = lv_obj_get_height(base);
 420:Middlewares/lvgl/src/core/lv_obj_pos.c ****         break;
 421:Middlewares/lvgl/src/core/lv_obj_pos.c **** 
 422:Middlewares/lvgl/src/core/lv_obj_pos.c ****     case LV_ALIGN_OUT_BOTTOM_MID:
 423:Middlewares/lvgl/src/core/lv_obj_pos.c ****         x = lv_obj_get_width(base) / 2 - lv_obj_get_width(obj) / 2;
 424:Middlewares/lvgl/src/core/lv_obj_pos.c ****         y = lv_obj_get_height(base);
 425:Middlewares/lvgl/src/core/lv_obj_pos.c ****         break;
 426:Middlewares/lvgl/src/core/lv_obj_pos.c **** 
 427:Middlewares/lvgl/src/core/lv_obj_pos.c ****     case LV_ALIGN_OUT_BOTTOM_RIGHT:
 428:Middlewares/lvgl/src/core/lv_obj_pos.c ****         x = lv_obj_get_width(base) - lv_obj_get_width(obj);
 429:Middlewares/lvgl/src/core/lv_obj_pos.c ****         y = lv_obj_get_height(base);
 430:Middlewares/lvgl/src/core/lv_obj_pos.c ****         break;
 431:Middlewares/lvgl/src/core/lv_obj_pos.c **** 
 432:Middlewares/lvgl/src/core/lv_obj_pos.c ****     case LV_ALIGN_OUT_LEFT_TOP:
 433:Middlewares/lvgl/src/core/lv_obj_pos.c ****         x = -lv_obj_get_width(obj);
 434:Middlewares/lvgl/src/core/lv_obj_pos.c ****         y = 0;
 435:Middlewares/lvgl/src/core/lv_obj_pos.c ****         break;
 436:Middlewares/lvgl/src/core/lv_obj_pos.c **** 
 437:Middlewares/lvgl/src/core/lv_obj_pos.c ****     case LV_ALIGN_OUT_LEFT_MID:
 438:Middlewares/lvgl/src/core/lv_obj_pos.c ****         x = -lv_obj_get_width(obj);
 439:Middlewares/lvgl/src/core/lv_obj_pos.c ****         y = lv_obj_get_height(base) / 2 - lv_obj_get_height(obj) / 2;
 440:Middlewares/lvgl/src/core/lv_obj_pos.c ****         break;
 441:Middlewares/lvgl/src/core/lv_obj_pos.c **** 
 442:Middlewares/lvgl/src/core/lv_obj_pos.c ****     case LV_ALIGN_OUT_LEFT_BOTTOM:
 443:Middlewares/lvgl/src/core/lv_obj_pos.c ****         x = -lv_obj_get_width(obj);
 444:Middlewares/lvgl/src/core/lv_obj_pos.c ****         y = lv_obj_get_height(base) - lv_obj_get_height(obj);
 445:Middlewares/lvgl/src/core/lv_obj_pos.c ****         break;
 446:Middlewares/lvgl/src/core/lv_obj_pos.c **** 
 447:Middlewares/lvgl/src/core/lv_obj_pos.c ****     case LV_ALIGN_OUT_RIGHT_TOP:
 448:Middlewares/lvgl/src/core/lv_obj_pos.c ****         x = lv_obj_get_width(base);
 449:Middlewares/lvgl/src/core/lv_obj_pos.c ****         y = 0;
 450:Middlewares/lvgl/src/core/lv_obj_pos.c ****         break;
 451:Middlewares/lvgl/src/core/lv_obj_pos.c **** 
 452:Middlewares/lvgl/src/core/lv_obj_pos.c ****     case LV_ALIGN_OUT_RIGHT_MID:
 453:Middlewares/lvgl/src/core/lv_obj_pos.c ****         x = lv_obj_get_width(base);
 454:Middlewares/lvgl/src/core/lv_obj_pos.c ****         y = lv_obj_get_height(base) / 2 - lv_obj_get_height(obj) / 2;
 455:Middlewares/lvgl/src/core/lv_obj_pos.c ****         break;
 456:Middlewares/lvgl/src/core/lv_obj_pos.c **** 
 457:Middlewares/lvgl/src/core/lv_obj_pos.c ****     case LV_ALIGN_OUT_RIGHT_BOTTOM:
 458:Middlewares/lvgl/src/core/lv_obj_pos.c ****         x = lv_obj_get_width(base);
 459:Middlewares/lvgl/src/core/lv_obj_pos.c ****         y = lv_obj_get_height(base) - lv_obj_get_height(obj);
 460:Middlewares/lvgl/src/core/lv_obj_pos.c ****         break;
 461:Middlewares/lvgl/src/core/lv_obj_pos.c ****     }
 462:Middlewares/lvgl/src/core/lv_obj_pos.c **** 
ARM GAS  /tmp/ccgCqJqT.s 			page 33


 463:Middlewares/lvgl/src/core/lv_obj_pos.c ****     x += x_ofs + base->coords.x1 - parent->coords.x1 + lv_obj_get_scroll_left(parent) - pleft;
 464:Middlewares/lvgl/src/core/lv_obj_pos.c ****     y += y_ofs + base->coords.y1 - parent->coords.y1 + lv_obj_get_scroll_top(parent) - ptop;
 465:Middlewares/lvgl/src/core/lv_obj_pos.c ****     lv_obj_set_style_align(obj, LV_ALIGN_TOP_LEFT, 0);
 466:Middlewares/lvgl/src/core/lv_obj_pos.c ****     lv_obj_set_pos(obj, x, y);
 467:Middlewares/lvgl/src/core/lv_obj_pos.c **** 
 468:Middlewares/lvgl/src/core/lv_obj_pos.c **** }
 469:Middlewares/lvgl/src/core/lv_obj_pos.c **** 
 470:Middlewares/lvgl/src/core/lv_obj_pos.c **** void lv_obj_get_coords(const lv_obj_t * obj, lv_area_t * coords)
 471:Middlewares/lvgl/src/core/lv_obj_pos.c **** {
 989              		.loc 1 471 1 is_stmt 1 view -0
 990              		.cfi_startproc
 991              		@ args = 0, pretend = 0, frame = 0
 992              		@ frame_needed = 0, uses_anonymous_args = 0
 993              		@ link register save eliminated.
 472:Middlewares/lvgl/src/core/lv_obj_pos.c ****     LV_ASSERT_OBJ(obj, MY_CLASS);
 994              		.loc 1 472 5 view .LVU238
 995              		.loc 1 472 5 view .LVU239
 996              		.loc 1 472 5 view .LVU240
 473:Middlewares/lvgl/src/core/lv_obj_pos.c **** 
 474:Middlewares/lvgl/src/core/lv_obj_pos.c ****     lv_area_copy(coords, &obj->coords);
 997              		.loc 1 474 5 view .LVU241
 998              	.LBB135:
 999              	.LBI135:
 1000              		.file 3 "Middlewares/lvgl/src/core/../misc/../font/../misc/lv_area.h"
   1:Middlewares/lvgl/src/core/../misc/../font/../misc/lv_area.h **** /**
   2:Middlewares/lvgl/src/core/../misc/../font/../misc/lv_area.h ****  * @file lv_area.h
   3:Middlewares/lvgl/src/core/../misc/../font/../misc/lv_area.h ****  *
   4:Middlewares/lvgl/src/core/../misc/../font/../misc/lv_area.h ****  */
   5:Middlewares/lvgl/src/core/../misc/../font/../misc/lv_area.h **** 
   6:Middlewares/lvgl/src/core/../misc/../font/../misc/lv_area.h **** #ifndef LV_AREA_H
   7:Middlewares/lvgl/src/core/../misc/../font/../misc/lv_area.h **** #define LV_AREA_H
   8:Middlewares/lvgl/src/core/../misc/../font/../misc/lv_area.h **** 
   9:Middlewares/lvgl/src/core/../misc/../font/../misc/lv_area.h **** #ifdef __cplusplus
  10:Middlewares/lvgl/src/core/../misc/../font/../misc/lv_area.h **** extern "C" {
  11:Middlewares/lvgl/src/core/../misc/../font/../misc/lv_area.h **** #endif
  12:Middlewares/lvgl/src/core/../misc/../font/../misc/lv_area.h **** 
  13:Middlewares/lvgl/src/core/../misc/../font/../misc/lv_area.h **** /*********************
  14:Middlewares/lvgl/src/core/../misc/../font/../misc/lv_area.h ****  *      INCLUDES
  15:Middlewares/lvgl/src/core/../misc/../font/../misc/lv_area.h ****  *********************/
  16:Middlewares/lvgl/src/core/../misc/../font/../misc/lv_area.h **** #include "../lv_conf_internal.h"
  17:Middlewares/lvgl/src/core/../misc/../font/../misc/lv_area.h **** #include <string.h>
  18:Middlewares/lvgl/src/core/../misc/../font/../misc/lv_area.h **** #include <stdbool.h>
  19:Middlewares/lvgl/src/core/../misc/../font/../misc/lv_area.h **** #include <stdint.h>
  20:Middlewares/lvgl/src/core/../misc/../font/../misc/lv_area.h **** 
  21:Middlewares/lvgl/src/core/../misc/../font/../misc/lv_area.h **** /*********************
  22:Middlewares/lvgl/src/core/../misc/../font/../misc/lv_area.h ****  *      DEFINES
  23:Middlewares/lvgl/src/core/../misc/../font/../misc/lv_area.h ****  *********************/
  24:Middlewares/lvgl/src/core/../misc/../font/../misc/lv_area.h **** 
  25:Middlewares/lvgl/src/core/../misc/../font/../misc/lv_area.h **** #define _LV_COORD_MAX_REDUCE    8192
  26:Middlewares/lvgl/src/core/../misc/../font/../misc/lv_area.h **** 
  27:Middlewares/lvgl/src/core/../misc/../font/../misc/lv_area.h **** #if LV_USE_LARGE_COORD
  28:Middlewares/lvgl/src/core/../misc/../font/../misc/lv_area.h **** typedef int32_t lv_coord_t;
  29:Middlewares/lvgl/src/core/../misc/../font/../misc/lv_area.h **** #else
  30:Middlewares/lvgl/src/core/../misc/../font/../misc/lv_area.h **** typedef int16_t lv_coord_t;
  31:Middlewares/lvgl/src/core/../misc/../font/../misc/lv_area.h **** #endif
  32:Middlewares/lvgl/src/core/../misc/../font/../misc/lv_area.h **** 
  33:Middlewares/lvgl/src/core/../misc/../font/../misc/lv_area.h **** /*To allow some special values in the end reduce the max value*/
ARM GAS  /tmp/ccgCqJqT.s 			page 34


  34:Middlewares/lvgl/src/core/../misc/../font/../misc/lv_area.h **** #define LV_COORD_MAX ((lv_coord_t)((uint32_t)((uint32_t)1 << (8 * sizeof(lv_coord_t) - 1)) - _LV_CO
  35:Middlewares/lvgl/src/core/../misc/../font/../misc/lv_area.h **** #define LV_COORD_MIN (-LV_COORD_MAX)
  36:Middlewares/lvgl/src/core/../misc/../font/../misc/lv_area.h **** 
  37:Middlewares/lvgl/src/core/../misc/../font/../misc/lv_area.h **** LV_EXPORT_CONST_INT(LV_COORD_MAX);
  38:Middlewares/lvgl/src/core/../misc/../font/../misc/lv_area.h **** LV_EXPORT_CONST_INT(LV_COORD_MIN);
  39:Middlewares/lvgl/src/core/../misc/../font/../misc/lv_area.h **** 
  40:Middlewares/lvgl/src/core/../misc/../font/../misc/lv_area.h **** /**********************
  41:Middlewares/lvgl/src/core/../misc/../font/../misc/lv_area.h ****  *      TYPEDEFS
  42:Middlewares/lvgl/src/core/../misc/../font/../misc/lv_area.h ****  **********************/
  43:Middlewares/lvgl/src/core/../misc/../font/../misc/lv_area.h **** 
  44:Middlewares/lvgl/src/core/../misc/../font/../misc/lv_area.h **** /**
  45:Middlewares/lvgl/src/core/../misc/../font/../misc/lv_area.h ****  * Represents a point on the screen.
  46:Middlewares/lvgl/src/core/../misc/../font/../misc/lv_area.h ****  */
  47:Middlewares/lvgl/src/core/../misc/../font/../misc/lv_area.h **** typedef struct {
  48:Middlewares/lvgl/src/core/../misc/../font/../misc/lv_area.h ****     lv_coord_t x;
  49:Middlewares/lvgl/src/core/../misc/../font/../misc/lv_area.h ****     lv_coord_t y;
  50:Middlewares/lvgl/src/core/../misc/../font/../misc/lv_area.h **** } lv_point_t;
  51:Middlewares/lvgl/src/core/../misc/../font/../misc/lv_area.h **** 
  52:Middlewares/lvgl/src/core/../misc/../font/../misc/lv_area.h **** /** Represents an area of the screen.*/
  53:Middlewares/lvgl/src/core/../misc/../font/../misc/lv_area.h **** typedef struct {
  54:Middlewares/lvgl/src/core/../misc/../font/../misc/lv_area.h ****     lv_coord_t x1;
  55:Middlewares/lvgl/src/core/../misc/../font/../misc/lv_area.h ****     lv_coord_t y1;
  56:Middlewares/lvgl/src/core/../misc/../font/../misc/lv_area.h ****     lv_coord_t x2;
  57:Middlewares/lvgl/src/core/../misc/../font/../misc/lv_area.h ****     lv_coord_t y2;
  58:Middlewares/lvgl/src/core/../misc/../font/../misc/lv_area.h **** } lv_area_t;
  59:Middlewares/lvgl/src/core/../misc/../font/../misc/lv_area.h **** 
  60:Middlewares/lvgl/src/core/../misc/../font/../misc/lv_area.h **** /** Alignments*/
  61:Middlewares/lvgl/src/core/../misc/../font/../misc/lv_area.h **** enum {
  62:Middlewares/lvgl/src/core/../misc/../font/../misc/lv_area.h ****     LV_ALIGN_DEFAULT = 0,
  63:Middlewares/lvgl/src/core/../misc/../font/../misc/lv_area.h ****     LV_ALIGN_TOP_LEFT,
  64:Middlewares/lvgl/src/core/../misc/../font/../misc/lv_area.h ****     LV_ALIGN_TOP_MID,
  65:Middlewares/lvgl/src/core/../misc/../font/../misc/lv_area.h ****     LV_ALIGN_TOP_RIGHT,
  66:Middlewares/lvgl/src/core/../misc/../font/../misc/lv_area.h ****     LV_ALIGN_BOTTOM_LEFT,
  67:Middlewares/lvgl/src/core/../misc/../font/../misc/lv_area.h ****     LV_ALIGN_BOTTOM_MID,
  68:Middlewares/lvgl/src/core/../misc/../font/../misc/lv_area.h ****     LV_ALIGN_BOTTOM_RIGHT,
  69:Middlewares/lvgl/src/core/../misc/../font/../misc/lv_area.h ****     LV_ALIGN_LEFT_MID,
  70:Middlewares/lvgl/src/core/../misc/../font/../misc/lv_area.h ****     LV_ALIGN_RIGHT_MID,
  71:Middlewares/lvgl/src/core/../misc/../font/../misc/lv_area.h ****     LV_ALIGN_CENTER,
  72:Middlewares/lvgl/src/core/../misc/../font/../misc/lv_area.h **** 
  73:Middlewares/lvgl/src/core/../misc/../font/../misc/lv_area.h ****     LV_ALIGN_OUT_TOP_LEFT,
  74:Middlewares/lvgl/src/core/../misc/../font/../misc/lv_area.h ****     LV_ALIGN_OUT_TOP_MID,
  75:Middlewares/lvgl/src/core/../misc/../font/../misc/lv_area.h ****     LV_ALIGN_OUT_TOP_RIGHT,
  76:Middlewares/lvgl/src/core/../misc/../font/../misc/lv_area.h ****     LV_ALIGN_OUT_BOTTOM_LEFT,
  77:Middlewares/lvgl/src/core/../misc/../font/../misc/lv_area.h ****     LV_ALIGN_OUT_BOTTOM_MID,
  78:Middlewares/lvgl/src/core/../misc/../font/../misc/lv_area.h ****     LV_ALIGN_OUT_BOTTOM_RIGHT,
  79:Middlewares/lvgl/src/core/../misc/../font/../misc/lv_area.h ****     LV_ALIGN_OUT_LEFT_TOP,
  80:Middlewares/lvgl/src/core/../misc/../font/../misc/lv_area.h ****     LV_ALIGN_OUT_LEFT_MID,
  81:Middlewares/lvgl/src/core/../misc/../font/../misc/lv_area.h ****     LV_ALIGN_OUT_LEFT_BOTTOM,
  82:Middlewares/lvgl/src/core/../misc/../font/../misc/lv_area.h ****     LV_ALIGN_OUT_RIGHT_TOP,
  83:Middlewares/lvgl/src/core/../misc/../font/../misc/lv_area.h ****     LV_ALIGN_OUT_RIGHT_MID,
  84:Middlewares/lvgl/src/core/../misc/../font/../misc/lv_area.h ****     LV_ALIGN_OUT_RIGHT_BOTTOM,
  85:Middlewares/lvgl/src/core/../misc/../font/../misc/lv_area.h **** };
  86:Middlewares/lvgl/src/core/../misc/../font/../misc/lv_area.h **** typedef uint8_t lv_align_t;
  87:Middlewares/lvgl/src/core/../misc/../font/../misc/lv_area.h **** 
  88:Middlewares/lvgl/src/core/../misc/../font/../misc/lv_area.h **** enum {
  89:Middlewares/lvgl/src/core/../misc/../font/../misc/lv_area.h ****     LV_DIR_NONE     = 0x00,
  90:Middlewares/lvgl/src/core/../misc/../font/../misc/lv_area.h ****     LV_DIR_LEFT     = (1 << 0),
ARM GAS  /tmp/ccgCqJqT.s 			page 35


  91:Middlewares/lvgl/src/core/../misc/../font/../misc/lv_area.h ****     LV_DIR_RIGHT    = (1 << 1),
  92:Middlewares/lvgl/src/core/../misc/../font/../misc/lv_area.h ****     LV_DIR_TOP      = (1 << 2),
  93:Middlewares/lvgl/src/core/../misc/../font/../misc/lv_area.h ****     LV_DIR_BOTTOM   = (1 << 3),
  94:Middlewares/lvgl/src/core/../misc/../font/../misc/lv_area.h ****     LV_DIR_HOR      = LV_DIR_LEFT | LV_DIR_RIGHT,
  95:Middlewares/lvgl/src/core/../misc/../font/../misc/lv_area.h ****     LV_DIR_VER      = LV_DIR_TOP | LV_DIR_BOTTOM,
  96:Middlewares/lvgl/src/core/../misc/../font/../misc/lv_area.h ****     LV_DIR_ALL      = LV_DIR_HOR | LV_DIR_VER,
  97:Middlewares/lvgl/src/core/../misc/../font/../misc/lv_area.h **** };
  98:Middlewares/lvgl/src/core/../misc/../font/../misc/lv_area.h **** 
  99:Middlewares/lvgl/src/core/../misc/../font/../misc/lv_area.h **** typedef uint8_t lv_dir_t;
 100:Middlewares/lvgl/src/core/../misc/../font/../misc/lv_area.h **** 
 101:Middlewares/lvgl/src/core/../misc/../font/../misc/lv_area.h **** /**********************
 102:Middlewares/lvgl/src/core/../misc/../font/../misc/lv_area.h ****  * GLOBAL PROTOTYPES
 103:Middlewares/lvgl/src/core/../misc/../font/../misc/lv_area.h ****  **********************/
 104:Middlewares/lvgl/src/core/../misc/../font/../misc/lv_area.h **** 
 105:Middlewares/lvgl/src/core/../misc/../font/../misc/lv_area.h **** /**
 106:Middlewares/lvgl/src/core/../misc/../font/../misc/lv_area.h ****  * Initialize an area
 107:Middlewares/lvgl/src/core/../misc/../font/../misc/lv_area.h ****  * @param area_p pointer to an area
 108:Middlewares/lvgl/src/core/../misc/../font/../misc/lv_area.h ****  * @param x1 left coordinate of the area
 109:Middlewares/lvgl/src/core/../misc/../font/../misc/lv_area.h ****  * @param y1 top coordinate of the area
 110:Middlewares/lvgl/src/core/../misc/../font/../misc/lv_area.h ****  * @param x2 right coordinate of the area
 111:Middlewares/lvgl/src/core/../misc/../font/../misc/lv_area.h ****  * @param y2 bottom coordinate of the area
 112:Middlewares/lvgl/src/core/../misc/../font/../misc/lv_area.h ****  */
 113:Middlewares/lvgl/src/core/../misc/../font/../misc/lv_area.h **** void lv_area_set(lv_area_t * area_p, lv_coord_t x1, lv_coord_t y1, lv_coord_t x2, lv_coord_t y2);
 114:Middlewares/lvgl/src/core/../misc/../font/../misc/lv_area.h **** 
 115:Middlewares/lvgl/src/core/../misc/../font/../misc/lv_area.h **** /**
 116:Middlewares/lvgl/src/core/../misc/../font/../misc/lv_area.h ****  * Copy an area
 117:Middlewares/lvgl/src/core/../misc/../font/../misc/lv_area.h ****  * @param dest pointer to the destination area
 118:Middlewares/lvgl/src/core/../misc/../font/../misc/lv_area.h ****  * @param src pointer to the source area
 119:Middlewares/lvgl/src/core/../misc/../font/../misc/lv_area.h ****  */
 120:Middlewares/lvgl/src/core/../misc/../font/../misc/lv_area.h **** inline static void lv_area_copy(lv_area_t * dest, const lv_area_t * src)
 1001              		.loc 3 120 20 view .LVU242
 1002              	.LBB136:
 121:Middlewares/lvgl/src/core/../misc/../font/../misc/lv_area.h **** {
 122:Middlewares/lvgl/src/core/../misc/../font/../misc/lv_area.h ****     dest->x1 = src->x1;
 1003              		.loc 3 122 5 view .LVU243
 1004              		.loc 3 122 19 is_stmt 0 view .LVU244
 1005 0000 B0F91430 		ldrsh	r3, [r0, #20]
 1006              		.loc 3 122 14 view .LVU245
 1007 0004 0B80     		strh	r3, [r1]	@ movhi
 123:Middlewares/lvgl/src/core/../misc/../font/../misc/lv_area.h ****     dest->y1 = src->y1;
 1008              		.loc 3 123 5 is_stmt 1 view .LVU246
 1009              		.loc 3 123 19 is_stmt 0 view .LVU247
 1010 0006 B0F91630 		ldrsh	r3, [r0, #22]
 1011              		.loc 3 123 14 view .LVU248
 1012 000a 4B80     		strh	r3, [r1, #2]	@ movhi
 124:Middlewares/lvgl/src/core/../misc/../font/../misc/lv_area.h ****     dest->x2 = src->x2;
 1013              		.loc 3 124 5 is_stmt 1 view .LVU249
 1014              		.loc 3 124 19 is_stmt 0 view .LVU250
 1015 000c B0F91830 		ldrsh	r3, [r0, #24]
 1016              		.loc 3 124 14 view .LVU251
 1017 0010 8B80     		strh	r3, [r1, #4]	@ movhi
 125:Middlewares/lvgl/src/core/../misc/../font/../misc/lv_area.h ****     dest->y2 = src->y2;
 1018              		.loc 3 125 5 is_stmt 1 view .LVU252
 1019              		.loc 3 125 19 is_stmt 0 view .LVU253
 1020 0012 B0F91A30 		ldrsh	r3, [r0, #26]
 1021              		.loc 3 125 14 view .LVU254
 1022 0016 CB80     		strh	r3, [r1, #6]	@ movhi
ARM GAS  /tmp/ccgCqJqT.s 			page 36


 1023              	.LVL80:
 1024              		.loc 3 125 14 view .LVU255
 1025              	.LBE136:
 1026              	.LBE135:
 475:Middlewares/lvgl/src/core/lv_obj_pos.c **** }
 1027              		.loc 1 475 1 view .LVU256
 1028 0018 7047     		bx	lr
 1029              		.cfi_endproc
 1030              	.LFE170:
 1032              		.section	.text.lv_obj_get_x,"ax",%progbits
 1033              		.align	1
 1034              		.global	lv_obj_get_x
 1035              		.syntax unified
 1036              		.thumb
 1037              		.thumb_func
 1038              		.fpu softvfp
 1040              	lv_obj_get_x:
 1041              	.LVL81:
 1042              	.LFB171:
 476:Middlewares/lvgl/src/core/lv_obj_pos.c **** 
 477:Middlewares/lvgl/src/core/lv_obj_pos.c **** lv_coord_t lv_obj_get_x(const lv_obj_t * obj)
 478:Middlewares/lvgl/src/core/lv_obj_pos.c **** {
 1043              		.loc 1 478 1 is_stmt 1 view -0
 1044              		.cfi_startproc
 1045              		@ args = 0, pretend = 0, frame = 0
 1046              		@ frame_needed = 0, uses_anonymous_args = 0
 1047              		.loc 1 478 1 is_stmt 0 view .LVU258
 1048 0000 38B5     		push	{r3, r4, r5, lr}
 1049              	.LCFI26:
 1050              		.cfi_def_cfa_offset 16
 1051              		.cfi_offset 3, -16
 1052              		.cfi_offset 4, -12
 1053              		.cfi_offset 5, -8
 1054              		.cfi_offset 14, -4
 1055 0002 0446     		mov	r4, r0
 479:Middlewares/lvgl/src/core/lv_obj_pos.c ****     LV_ASSERT_OBJ(obj, MY_CLASS);
 1056              		.loc 1 479 5 is_stmt 1 view .LVU259
 1057              		.loc 1 479 5 view .LVU260
 1058              		.loc 1 479 5 view .LVU261
 480:Middlewares/lvgl/src/core/lv_obj_pos.c **** 
 481:Middlewares/lvgl/src/core/lv_obj_pos.c ****     lv_coord_t rel_x;
 1059              		.loc 1 481 5 view .LVU262
 482:Middlewares/lvgl/src/core/lv_obj_pos.c ****     lv_obj_t * parent = lv_obj_get_parent(obj);
 1060              		.loc 1 482 5 view .LVU263
 1061              		.loc 1 482 25 is_stmt 0 view .LVU264
 1062 0004 FFF7FEFF 		bl	lv_obj_get_parent
 1063              	.LVL82:
 483:Middlewares/lvgl/src/core/lv_obj_pos.c ****     if(parent) {
 1064              		.loc 1 483 5 is_stmt 1 view .LVU265
 1065              		.loc 1 483 7 is_stmt 0 view .LVU266
 1066 0008 E0B1     		cbz	r0, .L62
 1067 000a 0546     		mov	r5, r0
 484:Middlewares/lvgl/src/core/lv_obj_pos.c ****         rel_x  = obj->coords.x1 - parent->coords.x1;
 1068              		.loc 1 484 9 is_stmt 1 view .LVU267
 1069              		.loc 1 484 29 is_stmt 0 view .LVU268
 1070 000c A48A     		ldrh	r4, [r4, #20]
 1071              	.LVL83:
ARM GAS  /tmp/ccgCqJqT.s 			page 37


 1072              		.loc 1 484 49 view .LVU269
 1073 000e 838A     		ldrh	r3, [r0, #20]
 1074              		.loc 1 484 33 view .LVU270
 1075 0010 E41A     		subs	r4, r4, r3
 1076 0012 A4B2     		uxth	r4, r4
 1077              	.LVL84:
 485:Middlewares/lvgl/src/core/lv_obj_pos.c ****         rel_x += lv_obj_get_scroll_x(parent);
 1078              		.loc 1 485 9 is_stmt 1 view .LVU271
 1079              		.loc 1 485 18 is_stmt 0 view .LVU272
 1080 0014 FFF7FEFF 		bl	lv_obj_get_scroll_x
 1081              	.LVL85:
 1082              		.loc 1 485 18 view .LVU273
 1083 0018 80B2     		uxth	r0, r0
 1084              		.loc 1 485 15 view .LVU274
 1085 001a 0444     		add	r4, r4, r0
 1086              	.LVL86:
 1087              		.loc 1 485 15 view .LVU275
 1088 001c A4B2     		uxth	r4, r4
 1089              	.LVL87:
 486:Middlewares/lvgl/src/core/lv_obj_pos.c ****         rel_x -= lv_obj_get_style_pad_left(parent, LV_PART_MAIN);
 1090              		.loc 1 486 9 is_stmt 1 view .LVU276
 1091              	.LBB137:
 1092              	.LBI137:
 103:Middlewares/lvgl/src/core/lv_obj_style_gen.h **** {
 1093              		.loc 2 103 26 view .LVU277
 1094              	.LBB138:
 105:Middlewares/lvgl/src/core/lv_obj_style_gen.h ****     return (lv_coord_t)v.num;
 1095              		.loc 2 105 5 view .LVU278
 105:Middlewares/lvgl/src/core/lv_obj_style_gen.h ****     return (lv_coord_t)v.num;
 1096              		.loc 2 105 26 is_stmt 0 view .LVU279
 1097 001e 41F21202 		movw	r2, #4114
 1098 0022 0021     		movs	r1, #0
 1099 0024 2846     		mov	r0, r5
 1100 0026 FFF7FEFF 		bl	lv_obj_get_style_prop
 1101              	.LVL88:
 106:Middlewares/lvgl/src/core/lv_obj_style_gen.h **** }
 1102              		.loc 2 106 5 is_stmt 1 view .LVU280
 106:Middlewares/lvgl/src/core/lv_obj_style_gen.h **** }
 1103              		.loc 2 106 5 is_stmt 0 view .LVU281
 1104              	.LBE138:
 1105              	.LBE137:
 1106              		.loc 1 486 18 view .LVU282
 1107 002a 80B2     		uxth	r0, r0
 1108              		.loc 1 486 15 view .LVU283
 1109 002c 241A     		subs	r4, r4, r0
 1110              	.LVL89:
 1111              		.loc 1 486 15 view .LVU284
 1112 002e A4B2     		uxth	r4, r4
 1113              	.LVL90:
 487:Middlewares/lvgl/src/core/lv_obj_pos.c ****         rel_x -= lv_obj_get_style_border_width(parent, LV_PART_MAIN);
 1114              		.loc 1 487 9 is_stmt 1 view .LVU285
 1115              	.LBB139:
 1116              	.LBI139:
 295:Middlewares/lvgl/src/core/lv_obj_style_gen.h **** {
 1117              		.loc 2 295 26 view .LVU286
 1118              	.LBB140:
 297:Middlewares/lvgl/src/core/lv_obj_style_gen.h ****     return (lv_coord_t)v.num;
ARM GAS  /tmp/ccgCqJqT.s 			page 38


 1119              		.loc 2 297 5 view .LVU287
 297:Middlewares/lvgl/src/core/lv_obj_style_gen.h ****     return (lv_coord_t)v.num;
 1120              		.loc 2 297 26 is_stmt 0 view .LVU288
 1121 0030 41F23202 		movw	r2, #4146
 1122 0034 0021     		movs	r1, #0
 1123 0036 2846     		mov	r0, r5
 1124 0038 FFF7FEFF 		bl	lv_obj_get_style_prop
 1125              	.LVL91:
 1126              		.loc 2 298 5 is_stmt 1 view .LVU289
 1127              		.loc 2 298 5 is_stmt 0 view .LVU290
 1128              	.LBE140:
 1129              	.LBE139:
 1130              		.loc 1 487 18 view .LVU291
 1131 003c 80B2     		uxth	r0, r0
 1132              		.loc 1 487 15 view .LVU292
 1133 003e 201A     		subs	r0, r4, r0
 1134 0040 00B2     		sxth	r0, r0
 1135              	.LVL92:
 1136              	.L63:
 488:Middlewares/lvgl/src/core/lv_obj_pos.c ****     }
 489:Middlewares/lvgl/src/core/lv_obj_pos.c ****     else {
 490:Middlewares/lvgl/src/core/lv_obj_pos.c ****         rel_x = obj->coords.x1;
 491:Middlewares/lvgl/src/core/lv_obj_pos.c ****     }
 492:Middlewares/lvgl/src/core/lv_obj_pos.c ****     return rel_x;
 1137              		.loc 1 492 5 is_stmt 1 view .LVU293
 493:Middlewares/lvgl/src/core/lv_obj_pos.c **** }
 1138              		.loc 1 493 1 is_stmt 0 view .LVU294
 1139 0042 38BD     		pop	{r3, r4, r5, pc}
 1140              	.LVL93:
 1141              	.L62:
 490:Middlewares/lvgl/src/core/lv_obj_pos.c ****     }
 1142              		.loc 1 490 9 is_stmt 1 view .LVU295
 490:Middlewares/lvgl/src/core/lv_obj_pos.c ****     }
 1143              		.loc 1 490 15 is_stmt 0 view .LVU296
 1144 0044 B4F91400 		ldrsh	r0, [r4, #20]
 1145              	.LVL94:
 490:Middlewares/lvgl/src/core/lv_obj_pos.c ****     }
 1146              		.loc 1 490 15 view .LVU297
 1147 0048 FBE7     		b	.L63
 1148              		.cfi_endproc
 1149              	.LFE171:
 1151              		.section	.text.lv_obj_get_y,"ax",%progbits
 1152              		.align	1
 1153              		.global	lv_obj_get_y
 1154              		.syntax unified
 1155              		.thumb
 1156              		.thumb_func
 1157              		.fpu softvfp
 1159              	lv_obj_get_y:
 1160              	.LVL95:
 1161              	.LFB173:
 494:Middlewares/lvgl/src/core/lv_obj_pos.c **** 
 495:Middlewares/lvgl/src/core/lv_obj_pos.c **** lv_coord_t lv_obj_get_x2(const lv_obj_t * obj)
 496:Middlewares/lvgl/src/core/lv_obj_pos.c **** {
 497:Middlewares/lvgl/src/core/lv_obj_pos.c ****     LV_ASSERT_OBJ(obj, MY_CLASS);
 498:Middlewares/lvgl/src/core/lv_obj_pos.c **** 
 499:Middlewares/lvgl/src/core/lv_obj_pos.c ****     return lv_obj_get_x(obj) + lv_obj_get_width(obj);
ARM GAS  /tmp/ccgCqJqT.s 			page 39


 500:Middlewares/lvgl/src/core/lv_obj_pos.c **** }
 501:Middlewares/lvgl/src/core/lv_obj_pos.c **** 
 502:Middlewares/lvgl/src/core/lv_obj_pos.c **** lv_coord_t lv_obj_get_y(const lv_obj_t * obj)
 503:Middlewares/lvgl/src/core/lv_obj_pos.c **** {
 1162              		.loc 1 503 1 is_stmt 1 view -0
 1163              		.cfi_startproc
 1164              		@ args = 0, pretend = 0, frame = 0
 1165              		@ frame_needed = 0, uses_anonymous_args = 0
 1166              		.loc 1 503 1 is_stmt 0 view .LVU299
 1167 0000 38B5     		push	{r3, r4, r5, lr}
 1168              	.LCFI27:
 1169              		.cfi_def_cfa_offset 16
 1170              		.cfi_offset 3, -16
 1171              		.cfi_offset 4, -12
 1172              		.cfi_offset 5, -8
 1173              		.cfi_offset 14, -4
 1174 0002 0446     		mov	r4, r0
 504:Middlewares/lvgl/src/core/lv_obj_pos.c ****     LV_ASSERT_OBJ(obj, MY_CLASS);
 1175              		.loc 1 504 5 is_stmt 1 view .LVU300
 1176              		.loc 1 504 5 view .LVU301
 1177              		.loc 1 504 5 view .LVU302
 505:Middlewares/lvgl/src/core/lv_obj_pos.c **** 
 506:Middlewares/lvgl/src/core/lv_obj_pos.c ****     lv_coord_t rel_y;
 1178              		.loc 1 506 5 view .LVU303
 507:Middlewares/lvgl/src/core/lv_obj_pos.c ****     lv_obj_t * parent = lv_obj_get_parent(obj);
 1179              		.loc 1 507 5 view .LVU304
 1180              		.loc 1 507 25 is_stmt 0 view .LVU305
 1181 0004 FFF7FEFF 		bl	lv_obj_get_parent
 1182              	.LVL96:
 508:Middlewares/lvgl/src/core/lv_obj_pos.c ****     if(parent) {
 1183              		.loc 1 508 5 is_stmt 1 view .LVU306
 1184              		.loc 1 508 7 is_stmt 0 view .LVU307
 1185 0008 E0B1     		cbz	r0, .L66
 1186 000a 0546     		mov	r5, r0
 509:Middlewares/lvgl/src/core/lv_obj_pos.c ****         rel_y = obj->coords.y1 - parent->coords.y1;
 1187              		.loc 1 509 9 is_stmt 1 view .LVU308
 1188              		.loc 1 509 28 is_stmt 0 view .LVU309
 1189 000c E48A     		ldrh	r4, [r4, #22]
 1190              	.LVL97:
 1191              		.loc 1 509 48 view .LVU310
 1192 000e C38A     		ldrh	r3, [r0, #22]
 1193              		.loc 1 509 32 view .LVU311
 1194 0010 E41A     		subs	r4, r4, r3
 1195 0012 A4B2     		uxth	r4, r4
 1196              	.LVL98:
 510:Middlewares/lvgl/src/core/lv_obj_pos.c ****         rel_y += lv_obj_get_scroll_y(parent);
 1197              		.loc 1 510 9 is_stmt 1 view .LVU312
 1198              		.loc 1 510 18 is_stmt 0 view .LVU313
 1199 0014 FFF7FEFF 		bl	lv_obj_get_scroll_y
 1200              	.LVL99:
 1201              		.loc 1 510 18 view .LVU314
 1202 0018 80B2     		uxth	r0, r0
 1203              		.loc 1 510 15 view .LVU315
 1204 001a 0444     		add	r4, r4, r0
 1205              	.LVL100:
 1206              		.loc 1 510 15 view .LVU316
 1207 001c A4B2     		uxth	r4, r4
ARM GAS  /tmp/ccgCqJqT.s 			page 40


 1208              	.LVL101:
 511:Middlewares/lvgl/src/core/lv_obj_pos.c ****         rel_y -= lv_obj_get_style_pad_top(parent, LV_PART_MAIN);
 1209              		.loc 1 511 9 is_stmt 1 view .LVU317
 1210              	.LBB141:
 1211              	.LBI141:
  91:Middlewares/lvgl/src/core/lv_obj_style_gen.h **** {
 1212              		.loc 2 91 26 view .LVU318
 1213              	.LBB142:
  93:Middlewares/lvgl/src/core/lv_obj_style_gen.h ****     return (lv_coord_t)v.num;
 1214              		.loc 2 93 5 view .LVU319
  93:Middlewares/lvgl/src/core/lv_obj_style_gen.h ****     return (lv_coord_t)v.num;
 1215              		.loc 2 93 26 is_stmt 0 view .LVU320
 1216 001e 41F21002 		movw	r2, #4112
 1217 0022 0021     		movs	r1, #0
 1218 0024 2846     		mov	r0, r5
 1219 0026 FFF7FEFF 		bl	lv_obj_get_style_prop
 1220              	.LVL102:
  94:Middlewares/lvgl/src/core/lv_obj_style_gen.h **** }
 1221              		.loc 2 94 5 is_stmt 1 view .LVU321
  94:Middlewares/lvgl/src/core/lv_obj_style_gen.h **** }
 1222              		.loc 2 94 5 is_stmt 0 view .LVU322
 1223              	.LBE142:
 1224              	.LBE141:
 1225              		.loc 1 511 18 view .LVU323
 1226 002a 80B2     		uxth	r0, r0
 1227              		.loc 1 511 15 view .LVU324
 1228 002c 241A     		subs	r4, r4, r0
 1229              	.LVL103:
 1230              		.loc 1 511 15 view .LVU325
 1231 002e A4B2     		uxth	r4, r4
 1232              	.LVL104:
 512:Middlewares/lvgl/src/core/lv_obj_pos.c ****         rel_y -= lv_obj_get_style_border_width(parent, LV_PART_MAIN);
 1233              		.loc 1 512 9 is_stmt 1 view .LVU326
 1234              	.LBB143:
 1235              	.LBI143:
 295:Middlewares/lvgl/src/core/lv_obj_style_gen.h **** {
 1236              		.loc 2 295 26 view .LVU327
 1237              	.LBB144:
 297:Middlewares/lvgl/src/core/lv_obj_style_gen.h ****     return (lv_coord_t)v.num;
 1238              		.loc 2 297 5 view .LVU328
 297:Middlewares/lvgl/src/core/lv_obj_style_gen.h ****     return (lv_coord_t)v.num;
 1239              		.loc 2 297 26 is_stmt 0 view .LVU329
 1240 0030 41F23202 		movw	r2, #4146
 1241 0034 0021     		movs	r1, #0
 1242 0036 2846     		mov	r0, r5
 1243 0038 FFF7FEFF 		bl	lv_obj_get_style_prop
 1244              	.LVL105:
 1245              		.loc 2 298 5 is_stmt 1 view .LVU330
 1246              		.loc 2 298 5 is_stmt 0 view .LVU331
 1247              	.LBE144:
 1248              	.LBE143:
 1249              		.loc 1 512 18 view .LVU332
 1250 003c 80B2     		uxth	r0, r0
 1251              		.loc 1 512 15 view .LVU333
 1252 003e 201A     		subs	r0, r4, r0
 1253 0040 00B2     		sxth	r0, r0
 1254              	.LVL106:
ARM GAS  /tmp/ccgCqJqT.s 			page 41


 1255              	.L67:
 513:Middlewares/lvgl/src/core/lv_obj_pos.c ****     }
 514:Middlewares/lvgl/src/core/lv_obj_pos.c ****     else {
 515:Middlewares/lvgl/src/core/lv_obj_pos.c ****         rel_y = obj->coords.y1;
 516:Middlewares/lvgl/src/core/lv_obj_pos.c ****     }
 517:Middlewares/lvgl/src/core/lv_obj_pos.c ****     return rel_y;
 1256              		.loc 1 517 5 is_stmt 1 view .LVU334
 518:Middlewares/lvgl/src/core/lv_obj_pos.c **** }
 1257              		.loc 1 518 1 is_stmt 0 view .LVU335
 1258 0042 38BD     		pop	{r3, r4, r5, pc}
 1259              	.LVL107:
 1260              	.L66:
 515:Middlewares/lvgl/src/core/lv_obj_pos.c ****     }
 1261              		.loc 1 515 9 is_stmt 1 view .LVU336
 515:Middlewares/lvgl/src/core/lv_obj_pos.c ****     }
 1262              		.loc 1 515 15 is_stmt 0 view .LVU337
 1263 0044 B4F91600 		ldrsh	r0, [r4, #22]
 1264              	.LVL108:
 515:Middlewares/lvgl/src/core/lv_obj_pos.c ****     }
 1265              		.loc 1 515 15 view .LVU338
 1266 0048 FBE7     		b	.L67
 1267              		.cfi_endproc
 1268              	.LFE173:
 1270              		.section	.text.lv_obj_get_width,"ax",%progbits
 1271              		.align	1
 1272              		.global	lv_obj_get_width
 1273              		.syntax unified
 1274              		.thumb
 1275              		.thumb_func
 1276              		.fpu softvfp
 1278              	lv_obj_get_width:
 1279              	.LVL109:
 1280              	.LFB175:
 519:Middlewares/lvgl/src/core/lv_obj_pos.c **** 
 520:Middlewares/lvgl/src/core/lv_obj_pos.c **** lv_coord_t lv_obj_get_y2(const lv_obj_t * obj)
 521:Middlewares/lvgl/src/core/lv_obj_pos.c **** {
 522:Middlewares/lvgl/src/core/lv_obj_pos.c ****     LV_ASSERT_OBJ(obj, MY_CLASS);
 523:Middlewares/lvgl/src/core/lv_obj_pos.c **** 
 524:Middlewares/lvgl/src/core/lv_obj_pos.c ****     return lv_obj_get_y(obj) + lv_obj_get_height(obj);
 525:Middlewares/lvgl/src/core/lv_obj_pos.c **** }
 526:Middlewares/lvgl/src/core/lv_obj_pos.c **** 
 527:Middlewares/lvgl/src/core/lv_obj_pos.c **** lv_coord_t lv_obj_get_width(const lv_obj_t * obj)
 528:Middlewares/lvgl/src/core/lv_obj_pos.c **** {
 1281              		.loc 1 528 1 is_stmt 1 view -0
 1282              		.cfi_startproc
 1283              		@ args = 0, pretend = 0, frame = 0
 1284              		@ frame_needed = 0, uses_anonymous_args = 0
 1285              		@ link register save eliminated.
 1286              		.loc 1 528 1 is_stmt 0 view .LVU340
 1287 0000 0346     		mov	r3, r0
 529:Middlewares/lvgl/src/core/lv_obj_pos.c ****     LV_ASSERT_OBJ(obj, MY_CLASS);
 1288              		.loc 1 529 5 is_stmt 1 view .LVU341
 1289              		.loc 1 529 5 view .LVU342
 1290              		.loc 1 529 5 view .LVU343
 530:Middlewares/lvgl/src/core/lv_obj_pos.c **** 
 531:Middlewares/lvgl/src/core/lv_obj_pos.c ****     return lv_area_get_width(&obj->coords);
 1291              		.loc 1 531 5 view .LVU344
ARM GAS  /tmp/ccgCqJqT.s 			page 42


 1292              	.LVL110:
 1293              	.LBB145:
 1294              	.LBI145:
 126:Middlewares/lvgl/src/core/../misc/../font/../misc/lv_area.h **** }
 127:Middlewares/lvgl/src/core/../misc/../font/../misc/lv_area.h **** 
 128:Middlewares/lvgl/src/core/../misc/../font/../misc/lv_area.h **** /**
 129:Middlewares/lvgl/src/core/../misc/../font/../misc/lv_area.h ****  * Get the width of an area
 130:Middlewares/lvgl/src/core/../misc/../font/../misc/lv_area.h ****  * @param area_p pointer to an area
 131:Middlewares/lvgl/src/core/../misc/../font/../misc/lv_area.h ****  * @return the width of the area (if x1 == x2 -> width = 1)
 132:Middlewares/lvgl/src/core/../misc/../font/../misc/lv_area.h ****  */
 133:Middlewares/lvgl/src/core/../misc/../font/../misc/lv_area.h **** static inline lv_coord_t lv_area_get_width(const lv_area_t * area_p)
 1295              		.loc 3 133 26 view .LVU345
 1296              	.LBB146:
 134:Middlewares/lvgl/src/core/../misc/../font/../misc/lv_area.h **** {
 135:Middlewares/lvgl/src/core/../misc/../font/../misc/lv_area.h ****     return (lv_coord_t)(area_p->x2 - area_p->x1 + 1);
 1297              		.loc 3 135 5 view .LVU346
 1298              		.loc 3 135 31 is_stmt 0 view .LVU347
 1299 0002 008B     		ldrh	r0, [r0, #24]
 1300              	.LVL111:
 1301              		.loc 3 135 44 view .LVU348
 1302 0004 9B8A     		ldrh	r3, [r3, #20]
 1303              	.LVL112:
 1304              		.loc 3 135 36 view .LVU349
 1305 0006 C01A     		subs	r0, r0, r3
 1306 0008 80B2     		uxth	r0, r0
 1307              		.loc 3 135 49 view .LVU350
 1308 000a 0130     		adds	r0, r0, #1
 1309              	.LVL113:
 1310              		.loc 3 135 49 view .LVU351
 1311              	.LBE146:
 1312              	.LBE145:
 532:Middlewares/lvgl/src/core/lv_obj_pos.c **** }
 1313              		.loc 1 532 1 view .LVU352
 1314 000c 00B2     		sxth	r0, r0
 1315 000e 7047     		bx	lr
 1316              		.cfi_endproc
 1317              	.LFE175:
 1319              		.section	.text.lv_obj_get_x2,"ax",%progbits
 1320              		.align	1
 1321              		.global	lv_obj_get_x2
 1322              		.syntax unified
 1323              		.thumb
 1324              		.thumb_func
 1325              		.fpu softvfp
 1327              	lv_obj_get_x2:
 1328              	.LVL114:
 1329              	.LFB172:
 496:Middlewares/lvgl/src/core/lv_obj_pos.c ****     LV_ASSERT_OBJ(obj, MY_CLASS);
 1330              		.loc 1 496 1 is_stmt 1 view -0
 1331              		.cfi_startproc
 1332              		@ args = 0, pretend = 0, frame = 0
 1333              		@ frame_needed = 0, uses_anonymous_args = 0
 496:Middlewares/lvgl/src/core/lv_obj_pos.c ****     LV_ASSERT_OBJ(obj, MY_CLASS);
 1334              		.loc 1 496 1 is_stmt 0 view .LVU354
 1335 0000 38B5     		push	{r3, r4, r5, lr}
 1336              	.LCFI28:
 1337              		.cfi_def_cfa_offset 16
ARM GAS  /tmp/ccgCqJqT.s 			page 43


 1338              		.cfi_offset 3, -16
 1339              		.cfi_offset 4, -12
 1340              		.cfi_offset 5, -8
 1341              		.cfi_offset 14, -4
 1342 0002 0546     		mov	r5, r0
 497:Middlewares/lvgl/src/core/lv_obj_pos.c **** 
 1343              		.loc 1 497 5 is_stmt 1 view .LVU355
 497:Middlewares/lvgl/src/core/lv_obj_pos.c **** 
 1344              		.loc 1 497 5 view .LVU356
 497:Middlewares/lvgl/src/core/lv_obj_pos.c **** 
 1345              		.loc 1 497 5 view .LVU357
 499:Middlewares/lvgl/src/core/lv_obj_pos.c **** }
 1346              		.loc 1 499 5 view .LVU358
 499:Middlewares/lvgl/src/core/lv_obj_pos.c **** }
 1347              		.loc 1 499 12 is_stmt 0 view .LVU359
 1348 0004 FFF7FEFF 		bl	lv_obj_get_x
 1349              	.LVL115:
 499:Middlewares/lvgl/src/core/lv_obj_pos.c **** }
 1350              		.loc 1 499 12 view .LVU360
 1351 0008 84B2     		uxth	r4, r0
 499:Middlewares/lvgl/src/core/lv_obj_pos.c **** }
 1352              		.loc 1 499 32 view .LVU361
 1353 000a 2846     		mov	r0, r5
 1354 000c FFF7FEFF 		bl	lv_obj_get_width
 1355              	.LVL116:
 1356 0010 80B2     		uxth	r0, r0
 499:Middlewares/lvgl/src/core/lv_obj_pos.c **** }
 1357              		.loc 1 499 30 view .LVU362
 1358 0012 2044     		add	r0, r0, r4
 500:Middlewares/lvgl/src/core/lv_obj_pos.c **** 
 1359              		.loc 1 500 1 view .LVU363
 1360 0014 00B2     		sxth	r0, r0
 1361 0016 38BD     		pop	{r3, r4, r5, pc}
 500:Middlewares/lvgl/src/core/lv_obj_pos.c **** 
 1362              		.loc 1 500 1 view .LVU364
 1363              		.cfi_endproc
 1364              	.LFE172:
 1366              		.section	.text.lv_obj_get_height,"ax",%progbits
 1367              		.align	1
 1368              		.global	lv_obj_get_height
 1369              		.syntax unified
 1370              		.thumb
 1371              		.thumb_func
 1372              		.fpu softvfp
 1374              	lv_obj_get_height:
 1375              	.LVL117:
 1376              	.LFB176:
 533:Middlewares/lvgl/src/core/lv_obj_pos.c **** 
 534:Middlewares/lvgl/src/core/lv_obj_pos.c **** lv_coord_t lv_obj_get_height(const lv_obj_t * obj)
 535:Middlewares/lvgl/src/core/lv_obj_pos.c **** {
 1377              		.loc 1 535 1 is_stmt 1 view -0
 1378              		.cfi_startproc
 1379              		@ args = 0, pretend = 0, frame = 0
 1380              		@ frame_needed = 0, uses_anonymous_args = 0
 1381              		@ link register save eliminated.
 1382              		.loc 1 535 1 is_stmt 0 view .LVU366
 1383 0000 0346     		mov	r3, r0
ARM GAS  /tmp/ccgCqJqT.s 			page 44


 536:Middlewares/lvgl/src/core/lv_obj_pos.c ****     LV_ASSERT_OBJ(obj, MY_CLASS);
 1384              		.loc 1 536 5 is_stmt 1 view .LVU367
 1385              		.loc 1 536 5 view .LVU368
 1386              		.loc 1 536 5 view .LVU369
 537:Middlewares/lvgl/src/core/lv_obj_pos.c **** 
 538:Middlewares/lvgl/src/core/lv_obj_pos.c ****     return lv_area_get_height(&obj->coords);
 1387              		.loc 1 538 5 view .LVU370
 1388              	.LVL118:
 1389              	.LBB147:
 1390              	.LBI147:
 136:Middlewares/lvgl/src/core/../misc/../font/../misc/lv_area.h **** }
 137:Middlewares/lvgl/src/core/../misc/../font/../misc/lv_area.h **** 
 138:Middlewares/lvgl/src/core/../misc/../font/../misc/lv_area.h **** /**
 139:Middlewares/lvgl/src/core/../misc/../font/../misc/lv_area.h ****  * Get the height of an area
 140:Middlewares/lvgl/src/core/../misc/../font/../misc/lv_area.h ****  * @param area_p pointer to an area
 141:Middlewares/lvgl/src/core/../misc/../font/../misc/lv_area.h ****  * @return the height of the area (if y1 == y2 -> height = 1)
 142:Middlewares/lvgl/src/core/../misc/../font/../misc/lv_area.h ****  */
 143:Middlewares/lvgl/src/core/../misc/../font/../misc/lv_area.h **** static inline lv_coord_t lv_area_get_height(const lv_area_t * area_p)
 1391              		.loc 3 143 26 view .LVU371
 1392              	.LBB148:
 144:Middlewares/lvgl/src/core/../misc/../font/../misc/lv_area.h **** {
 145:Middlewares/lvgl/src/core/../misc/../font/../misc/lv_area.h ****     return (lv_coord_t)(area_p->y2 - area_p->y1 + 1);
 1393              		.loc 3 145 5 view .LVU372
 1394              		.loc 3 145 31 is_stmt 0 view .LVU373
 1395 0002 408B     		ldrh	r0, [r0, #26]
 1396              	.LVL119:
 1397              		.loc 3 145 44 view .LVU374
 1398 0004 DB8A     		ldrh	r3, [r3, #22]
 1399              	.LVL120:
 1400              		.loc 3 145 36 view .LVU375
 1401 0006 C01A     		subs	r0, r0, r3
 1402 0008 80B2     		uxth	r0, r0
 1403              		.loc 3 145 49 view .LVU376
 1404 000a 0130     		adds	r0, r0, #1
 1405              	.LVL121:
 1406              		.loc 3 145 49 view .LVU377
 1407              	.LBE148:
 1408              	.LBE147:
 539:Middlewares/lvgl/src/core/lv_obj_pos.c **** }
 1409              		.loc 1 539 1 view .LVU378
 1410 000c 00B2     		sxth	r0, r0
 1411 000e 7047     		bx	lr
 1412              		.cfi_endproc
 1413              	.LFE176:
 1415              		.section	.text.calc_auto_size,"ax",%progbits
 1416              		.align	1
 1417              		.syntax unified
 1418              		.thumb
 1419              		.thumb_func
 1420              		.fpu softvfp
 1422              	calc_auto_size:
 1423              	.LVL122:
 1424              	.LFB195:
 540:Middlewares/lvgl/src/core/lv_obj_pos.c **** 
 541:Middlewares/lvgl/src/core/lv_obj_pos.c **** lv_coord_t lv_obj_get_content_width(const lv_obj_t * obj)
 542:Middlewares/lvgl/src/core/lv_obj_pos.c **** {
 543:Middlewares/lvgl/src/core/lv_obj_pos.c ****     LV_ASSERT_OBJ(obj, MY_CLASS);
ARM GAS  /tmp/ccgCqJqT.s 			page 45


 544:Middlewares/lvgl/src/core/lv_obj_pos.c **** 
 545:Middlewares/lvgl/src/core/lv_obj_pos.c ****     lv_coord_t left = lv_obj_get_style_pad_left(obj, LV_PART_MAIN);
 546:Middlewares/lvgl/src/core/lv_obj_pos.c ****     lv_coord_t right = lv_obj_get_style_pad_right(obj, LV_PART_MAIN);
 547:Middlewares/lvgl/src/core/lv_obj_pos.c ****     lv_coord_t border_width = lv_obj_get_style_border_width(obj, LV_PART_MAIN);
 548:Middlewares/lvgl/src/core/lv_obj_pos.c **** 
 549:Middlewares/lvgl/src/core/lv_obj_pos.c ****     return lv_obj_get_width(obj) - left - right - 2 * border_width;
 550:Middlewares/lvgl/src/core/lv_obj_pos.c **** }
 551:Middlewares/lvgl/src/core/lv_obj_pos.c **** 
 552:Middlewares/lvgl/src/core/lv_obj_pos.c **** lv_coord_t lv_obj_get_content_height(const lv_obj_t * obj)
 553:Middlewares/lvgl/src/core/lv_obj_pos.c **** {
 554:Middlewares/lvgl/src/core/lv_obj_pos.c ****     LV_ASSERT_OBJ(obj, MY_CLASS);
 555:Middlewares/lvgl/src/core/lv_obj_pos.c **** 
 556:Middlewares/lvgl/src/core/lv_obj_pos.c ****     lv_coord_t top = lv_obj_get_style_pad_top(obj, LV_PART_MAIN);
 557:Middlewares/lvgl/src/core/lv_obj_pos.c ****     lv_coord_t bottom =  lv_obj_get_style_pad_bottom(obj, LV_PART_MAIN);
 558:Middlewares/lvgl/src/core/lv_obj_pos.c ****     lv_coord_t border_width = lv_obj_get_style_border_width(obj, LV_PART_MAIN);
 559:Middlewares/lvgl/src/core/lv_obj_pos.c **** 
 560:Middlewares/lvgl/src/core/lv_obj_pos.c ****     return lv_obj_get_height(obj) - top - bottom - 2 * border_width;
 561:Middlewares/lvgl/src/core/lv_obj_pos.c **** }
 562:Middlewares/lvgl/src/core/lv_obj_pos.c **** 
 563:Middlewares/lvgl/src/core/lv_obj_pos.c **** void lv_obj_get_content_coords(const lv_obj_t * obj, lv_area_t * area)
 564:Middlewares/lvgl/src/core/lv_obj_pos.c **** {
 565:Middlewares/lvgl/src/core/lv_obj_pos.c ****     LV_ASSERT_OBJ(obj, MY_CLASS);
 566:Middlewares/lvgl/src/core/lv_obj_pos.c ****     lv_coord_t border_width = lv_obj_get_style_border_width(obj, LV_PART_MAIN);
 567:Middlewares/lvgl/src/core/lv_obj_pos.c **** 
 568:Middlewares/lvgl/src/core/lv_obj_pos.c ****     lv_obj_get_coords(obj, area);
 569:Middlewares/lvgl/src/core/lv_obj_pos.c ****     lv_area_increase(area, -border_width, -border_width);
 570:Middlewares/lvgl/src/core/lv_obj_pos.c ****     area->x1 += lv_obj_get_style_pad_left(obj, LV_PART_MAIN);
 571:Middlewares/lvgl/src/core/lv_obj_pos.c ****     area->x2 -= lv_obj_get_style_pad_right(obj, LV_PART_MAIN);
 572:Middlewares/lvgl/src/core/lv_obj_pos.c ****     area->y1 += lv_obj_get_style_pad_top(obj, LV_PART_MAIN);
 573:Middlewares/lvgl/src/core/lv_obj_pos.c ****     area->y2 -= lv_obj_get_style_pad_bottom(obj, LV_PART_MAIN);
 574:Middlewares/lvgl/src/core/lv_obj_pos.c **** 
 575:Middlewares/lvgl/src/core/lv_obj_pos.c **** }
 576:Middlewares/lvgl/src/core/lv_obj_pos.c **** 
 577:Middlewares/lvgl/src/core/lv_obj_pos.c **** lv_coord_t lv_obj_get_self_width(const lv_obj_t * obj)
 578:Middlewares/lvgl/src/core/lv_obj_pos.c **** {
 579:Middlewares/lvgl/src/core/lv_obj_pos.c ****     lv_point_t p = {0, LV_COORD_MIN};
 580:Middlewares/lvgl/src/core/lv_obj_pos.c ****     lv_event_send((lv_obj_t * )obj, LV_EVENT_GET_SELF_SIZE, &p);
 581:Middlewares/lvgl/src/core/lv_obj_pos.c ****     return p.x;
 582:Middlewares/lvgl/src/core/lv_obj_pos.c **** }
 583:Middlewares/lvgl/src/core/lv_obj_pos.c **** 
 584:Middlewares/lvgl/src/core/lv_obj_pos.c **** lv_coord_t lv_obj_get_self_height(const lv_obj_t * obj)
 585:Middlewares/lvgl/src/core/lv_obj_pos.c **** {
 586:Middlewares/lvgl/src/core/lv_obj_pos.c ****     lv_point_t p = {LV_COORD_MIN, 0};
 587:Middlewares/lvgl/src/core/lv_obj_pos.c ****     lv_event_send((lv_obj_t * )obj, LV_EVENT_GET_SELF_SIZE, &p);
 588:Middlewares/lvgl/src/core/lv_obj_pos.c ****     return p.y;
 589:Middlewares/lvgl/src/core/lv_obj_pos.c **** }
 590:Middlewares/lvgl/src/core/lv_obj_pos.c **** 
 591:Middlewares/lvgl/src/core/lv_obj_pos.c **** bool lv_obj_refresh_self_size(lv_obj_t * obj)
 592:Middlewares/lvgl/src/core/lv_obj_pos.c **** {
 593:Middlewares/lvgl/src/core/lv_obj_pos.c ****     lv_coord_t w_set = lv_obj_get_style_width(obj, LV_PART_MAIN);
 594:Middlewares/lvgl/src/core/lv_obj_pos.c ****     lv_coord_t h_set = lv_obj_get_style_height(obj, LV_PART_MAIN);
 595:Middlewares/lvgl/src/core/lv_obj_pos.c ****     if(w_set != LV_SIZE_CONTENT && h_set != LV_SIZE_CONTENT) return false;
 596:Middlewares/lvgl/src/core/lv_obj_pos.c **** 
 597:Middlewares/lvgl/src/core/lv_obj_pos.c ****     lv_obj_mark_layout_as_dirty(obj);
 598:Middlewares/lvgl/src/core/lv_obj_pos.c ****     return true;
 599:Middlewares/lvgl/src/core/lv_obj_pos.c **** }
 600:Middlewares/lvgl/src/core/lv_obj_pos.c **** 
ARM GAS  /tmp/ccgCqJqT.s 			page 46


 601:Middlewares/lvgl/src/core/lv_obj_pos.c **** void lv_obj_refr_pos(lv_obj_t * obj)
 602:Middlewares/lvgl/src/core/lv_obj_pos.c **** {
 603:Middlewares/lvgl/src/core/lv_obj_pos.c ****     if(lv_obj_is_layout_positioned(obj)) return;
 604:Middlewares/lvgl/src/core/lv_obj_pos.c **** 
 605:Middlewares/lvgl/src/core/lv_obj_pos.c ****     lv_obj_t * parent = lv_obj_get_parent(obj);
 606:Middlewares/lvgl/src/core/lv_obj_pos.c ****     lv_coord_t x = lv_obj_get_style_x(obj, LV_PART_MAIN);
 607:Middlewares/lvgl/src/core/lv_obj_pos.c ****     lv_coord_t y = lv_obj_get_style_y(obj, LV_PART_MAIN);
 608:Middlewares/lvgl/src/core/lv_obj_pos.c **** 
 609:Middlewares/lvgl/src/core/lv_obj_pos.c ****     if(parent == NULL) {
 610:Middlewares/lvgl/src/core/lv_obj_pos.c ****         lv_obj_move_to(obj, x, y);
 611:Middlewares/lvgl/src/core/lv_obj_pos.c ****         return;
 612:Middlewares/lvgl/src/core/lv_obj_pos.c ****     }
 613:Middlewares/lvgl/src/core/lv_obj_pos.c **** 
 614:Middlewares/lvgl/src/core/lv_obj_pos.c ****     /*Handle percentage value*/
 615:Middlewares/lvgl/src/core/lv_obj_pos.c ****     lv_coord_t pw = lv_obj_get_content_width(parent);
 616:Middlewares/lvgl/src/core/lv_obj_pos.c ****     lv_coord_t ph = lv_obj_get_content_height(parent);
 617:Middlewares/lvgl/src/core/lv_obj_pos.c ****     if(LV_COORD_IS_PCT(x)) x = (pw * LV_COORD_GET_PCT(x)) / 100;
 618:Middlewares/lvgl/src/core/lv_obj_pos.c ****     if(LV_COORD_IS_PCT(y)) y = (ph * LV_COORD_GET_PCT(y)) / 100;
 619:Middlewares/lvgl/src/core/lv_obj_pos.c **** 
 620:Middlewares/lvgl/src/core/lv_obj_pos.c ****     /*Handle percentage value of translate*/
 621:Middlewares/lvgl/src/core/lv_obj_pos.c ****     lv_coord_t tr_x = lv_obj_get_style_translate_x(obj, LV_PART_MAIN);
 622:Middlewares/lvgl/src/core/lv_obj_pos.c ****     lv_coord_t tr_y = lv_obj_get_style_translate_y(obj, LV_PART_MAIN);
 623:Middlewares/lvgl/src/core/lv_obj_pos.c ****     lv_coord_t w = lv_obj_get_width(obj);
 624:Middlewares/lvgl/src/core/lv_obj_pos.c ****     lv_coord_t h = lv_obj_get_height(obj);
 625:Middlewares/lvgl/src/core/lv_obj_pos.c ****     if(LV_COORD_IS_PCT(tr_x)) tr_x = (w * LV_COORD_GET_PCT(tr_x)) / 100;
 626:Middlewares/lvgl/src/core/lv_obj_pos.c ****     if(LV_COORD_IS_PCT(tr_y)) tr_y = (h * LV_COORD_GET_PCT(tr_y)) / 100;
 627:Middlewares/lvgl/src/core/lv_obj_pos.c **** 
 628:Middlewares/lvgl/src/core/lv_obj_pos.c ****     /*Use the translation*/
 629:Middlewares/lvgl/src/core/lv_obj_pos.c ****     x += tr_x;
 630:Middlewares/lvgl/src/core/lv_obj_pos.c ****     y += tr_y;
 631:Middlewares/lvgl/src/core/lv_obj_pos.c **** 
 632:Middlewares/lvgl/src/core/lv_obj_pos.c ****     lv_align_t align = lv_obj_get_style_align(obj, LV_PART_MAIN);
 633:Middlewares/lvgl/src/core/lv_obj_pos.c **** 
 634:Middlewares/lvgl/src/core/lv_obj_pos.c ****     if(align == LV_ALIGN_DEFAULT) {
 635:Middlewares/lvgl/src/core/lv_obj_pos.c ****         if(lv_obj_get_style_base_dir(parent, LV_PART_MAIN) == LV_BASE_DIR_RTL) align = LV_ALIGN_TOP
 636:Middlewares/lvgl/src/core/lv_obj_pos.c ****         else align = LV_ALIGN_TOP_LEFT;
 637:Middlewares/lvgl/src/core/lv_obj_pos.c ****     }
 638:Middlewares/lvgl/src/core/lv_obj_pos.c **** 
 639:Middlewares/lvgl/src/core/lv_obj_pos.c ****     if(align == LV_ALIGN_TOP_LEFT) {
 640:Middlewares/lvgl/src/core/lv_obj_pos.c ****         lv_obj_move_to(obj, x, y);
 641:Middlewares/lvgl/src/core/lv_obj_pos.c ****     }
 642:Middlewares/lvgl/src/core/lv_obj_pos.c ****     else {
 643:Middlewares/lvgl/src/core/lv_obj_pos.c **** 
 644:Middlewares/lvgl/src/core/lv_obj_pos.c ****         switch(align) {
 645:Middlewares/lvgl/src/core/lv_obj_pos.c ****         case LV_ALIGN_TOP_MID:
 646:Middlewares/lvgl/src/core/lv_obj_pos.c ****             x += pw / 2 - w / 2;
 647:Middlewares/lvgl/src/core/lv_obj_pos.c ****             break;
 648:Middlewares/lvgl/src/core/lv_obj_pos.c ****         case LV_ALIGN_TOP_RIGHT:
 649:Middlewares/lvgl/src/core/lv_obj_pos.c ****             x += pw - w;
 650:Middlewares/lvgl/src/core/lv_obj_pos.c ****             break;
 651:Middlewares/lvgl/src/core/lv_obj_pos.c ****         case LV_ALIGN_LEFT_MID:
 652:Middlewares/lvgl/src/core/lv_obj_pos.c ****             y += ph / 2 - h / 2;
 653:Middlewares/lvgl/src/core/lv_obj_pos.c ****             break;
 654:Middlewares/lvgl/src/core/lv_obj_pos.c ****         case LV_ALIGN_BOTTOM_LEFT:
 655:Middlewares/lvgl/src/core/lv_obj_pos.c ****             y += ph - h;
 656:Middlewares/lvgl/src/core/lv_obj_pos.c ****             break;
 657:Middlewares/lvgl/src/core/lv_obj_pos.c ****         case LV_ALIGN_BOTTOM_MID:
ARM GAS  /tmp/ccgCqJqT.s 			page 47


 658:Middlewares/lvgl/src/core/lv_obj_pos.c ****             x += pw / 2 - w / 2;
 659:Middlewares/lvgl/src/core/lv_obj_pos.c ****             y += ph - h;
 660:Middlewares/lvgl/src/core/lv_obj_pos.c ****             break;
 661:Middlewares/lvgl/src/core/lv_obj_pos.c ****         case LV_ALIGN_BOTTOM_RIGHT:
 662:Middlewares/lvgl/src/core/lv_obj_pos.c ****             x += pw - w;
 663:Middlewares/lvgl/src/core/lv_obj_pos.c ****             y += ph - h;
 664:Middlewares/lvgl/src/core/lv_obj_pos.c ****             break;
 665:Middlewares/lvgl/src/core/lv_obj_pos.c ****         case LV_ALIGN_RIGHT_MID:
 666:Middlewares/lvgl/src/core/lv_obj_pos.c ****             x += pw - w;
 667:Middlewares/lvgl/src/core/lv_obj_pos.c ****             y += ph / 2 - h / 2;
 668:Middlewares/lvgl/src/core/lv_obj_pos.c ****             break;
 669:Middlewares/lvgl/src/core/lv_obj_pos.c ****         case LV_ALIGN_CENTER:
 670:Middlewares/lvgl/src/core/lv_obj_pos.c ****             x += pw / 2 - w / 2;
 671:Middlewares/lvgl/src/core/lv_obj_pos.c ****             y += ph / 2 - h / 2;
 672:Middlewares/lvgl/src/core/lv_obj_pos.c ****             break;
 673:Middlewares/lvgl/src/core/lv_obj_pos.c ****         default:
 674:Middlewares/lvgl/src/core/lv_obj_pos.c ****             break;
 675:Middlewares/lvgl/src/core/lv_obj_pos.c ****         }
 676:Middlewares/lvgl/src/core/lv_obj_pos.c ****         lv_obj_move_to(obj, x, y);
 677:Middlewares/lvgl/src/core/lv_obj_pos.c ****     }
 678:Middlewares/lvgl/src/core/lv_obj_pos.c **** }
 679:Middlewares/lvgl/src/core/lv_obj_pos.c **** 
 680:Middlewares/lvgl/src/core/lv_obj_pos.c **** void lv_obj_move_to(lv_obj_t * obj, lv_coord_t x, lv_coord_t y)
 681:Middlewares/lvgl/src/core/lv_obj_pos.c **** {
 682:Middlewares/lvgl/src/core/lv_obj_pos.c ****     /*Convert x and y to absolute coordinates*/
 683:Middlewares/lvgl/src/core/lv_obj_pos.c ****     lv_obj_t * parent = obj->parent;
 684:Middlewares/lvgl/src/core/lv_obj_pos.c **** 
 685:Middlewares/lvgl/src/core/lv_obj_pos.c ****     if(parent) {
 686:Middlewares/lvgl/src/core/lv_obj_pos.c ****         lv_coord_t pad_left = lv_obj_get_style_pad_left(parent, LV_PART_MAIN);
 687:Middlewares/lvgl/src/core/lv_obj_pos.c ****         lv_coord_t pad_top = lv_obj_get_style_pad_top(parent, LV_PART_MAIN);
 688:Middlewares/lvgl/src/core/lv_obj_pos.c **** 
 689:Middlewares/lvgl/src/core/lv_obj_pos.c ****         if(lv_obj_has_flag(obj, LV_OBJ_FLAG_FLOATING)) {
 690:Middlewares/lvgl/src/core/lv_obj_pos.c ****             x += pad_left + parent->coords.x1;
 691:Middlewares/lvgl/src/core/lv_obj_pos.c ****             y += pad_top + parent->coords.y1;
 692:Middlewares/lvgl/src/core/lv_obj_pos.c ****         } else {
 693:Middlewares/lvgl/src/core/lv_obj_pos.c ****             x += pad_left + parent->coords.x1 - lv_obj_get_scroll_x(parent);
 694:Middlewares/lvgl/src/core/lv_obj_pos.c ****             y += pad_top + parent->coords.y1 - lv_obj_get_scroll_y(parent);
 695:Middlewares/lvgl/src/core/lv_obj_pos.c ****         }
 696:Middlewares/lvgl/src/core/lv_obj_pos.c **** 
 697:Middlewares/lvgl/src/core/lv_obj_pos.c ****         lv_coord_t border_width = lv_obj_get_style_border_width(parent, LV_PART_MAIN);
 698:Middlewares/lvgl/src/core/lv_obj_pos.c ****         x += border_width;
 699:Middlewares/lvgl/src/core/lv_obj_pos.c ****         y += border_width;
 700:Middlewares/lvgl/src/core/lv_obj_pos.c ****     }
 701:Middlewares/lvgl/src/core/lv_obj_pos.c **** 
 702:Middlewares/lvgl/src/core/lv_obj_pos.c ****     /*Calculate and set the movement*/
 703:Middlewares/lvgl/src/core/lv_obj_pos.c ****     lv_point_t diff;
 704:Middlewares/lvgl/src/core/lv_obj_pos.c ****     diff.x = x - obj->coords.x1;
 705:Middlewares/lvgl/src/core/lv_obj_pos.c ****     diff.y = y - obj->coords.y1;
 706:Middlewares/lvgl/src/core/lv_obj_pos.c **** 
 707:Middlewares/lvgl/src/core/lv_obj_pos.c ****     /*Do nothing if the position is not changed*/
 708:Middlewares/lvgl/src/core/lv_obj_pos.c ****     /*It is very important else recursive positioning can
 709:Middlewares/lvgl/src/core/lv_obj_pos.c ****      *occur without position change*/
 710:Middlewares/lvgl/src/core/lv_obj_pos.c ****     if(diff.x == 0 && diff.y == 0) return;
 711:Middlewares/lvgl/src/core/lv_obj_pos.c **** 
 712:Middlewares/lvgl/src/core/lv_obj_pos.c ****     /*Invalidate the original area*/
 713:Middlewares/lvgl/src/core/lv_obj_pos.c ****     lv_obj_invalidate(obj);
 714:Middlewares/lvgl/src/core/lv_obj_pos.c **** 
ARM GAS  /tmp/ccgCqJqT.s 			page 48


 715:Middlewares/lvgl/src/core/lv_obj_pos.c ****     /*Save the original coordinates*/
 716:Middlewares/lvgl/src/core/lv_obj_pos.c ****     lv_area_t ori;
 717:Middlewares/lvgl/src/core/lv_obj_pos.c ****     lv_obj_get_coords(obj, &ori);
 718:Middlewares/lvgl/src/core/lv_obj_pos.c **** 
 719:Middlewares/lvgl/src/core/lv_obj_pos.c ****     /*Check if the object inside the parent or not*/
 720:Middlewares/lvgl/src/core/lv_obj_pos.c ****     lv_area_t parent_fit_area;
 721:Middlewares/lvgl/src/core/lv_obj_pos.c ****     bool on1 = false;
 722:Middlewares/lvgl/src/core/lv_obj_pos.c ****     if(parent) {
 723:Middlewares/lvgl/src/core/lv_obj_pos.c ****         lv_obj_get_content_coords(parent, &parent_fit_area);
 724:Middlewares/lvgl/src/core/lv_obj_pos.c **** 
 725:Middlewares/lvgl/src/core/lv_obj_pos.c ****         /*If the object is already out of the parent and its position is changes
 726:Middlewares/lvgl/src/core/lv_obj_pos.c ****          *surely the scrollbars also changes so invalidate them*/
 727:Middlewares/lvgl/src/core/lv_obj_pos.c ****         on1 = _lv_area_is_in(&ori, &parent_fit_area, 0);
 728:Middlewares/lvgl/src/core/lv_obj_pos.c ****         if(!on1) lv_obj_scrollbar_invalidate(parent);
 729:Middlewares/lvgl/src/core/lv_obj_pos.c ****     }
 730:Middlewares/lvgl/src/core/lv_obj_pos.c **** 
 731:Middlewares/lvgl/src/core/lv_obj_pos.c ****     obj->coords.x1 += diff.x;
 732:Middlewares/lvgl/src/core/lv_obj_pos.c ****     obj->coords.y1 += diff.y;
 733:Middlewares/lvgl/src/core/lv_obj_pos.c ****     obj->coords.x2 += diff.x;
 734:Middlewares/lvgl/src/core/lv_obj_pos.c ****     obj->coords.y2 += diff.y;
 735:Middlewares/lvgl/src/core/lv_obj_pos.c **** 
 736:Middlewares/lvgl/src/core/lv_obj_pos.c ****     lv_obj_move_children_by(obj, diff.x, diff.y, false);
 737:Middlewares/lvgl/src/core/lv_obj_pos.c **** 
 738:Middlewares/lvgl/src/core/lv_obj_pos.c ****     /*Call the ancestor's event handler to the parent too*/
 739:Middlewares/lvgl/src/core/lv_obj_pos.c ****     if(parent) lv_event_send(parent, LV_EVENT_CHILD_CHANGED, obj);
 740:Middlewares/lvgl/src/core/lv_obj_pos.c **** 
 741:Middlewares/lvgl/src/core/lv_obj_pos.c ****     /*Invalidate the new area*/
 742:Middlewares/lvgl/src/core/lv_obj_pos.c ****     lv_obj_invalidate(obj);
 743:Middlewares/lvgl/src/core/lv_obj_pos.c **** 
 744:Middlewares/lvgl/src/core/lv_obj_pos.c ****     /*If the object was out of the parent invalidate the new scrollbar area too.
 745:Middlewares/lvgl/src/core/lv_obj_pos.c ****      *If it wasn't out of the parent but out now, also invalidate the srollbars*/
 746:Middlewares/lvgl/src/core/lv_obj_pos.c ****     if(parent) {
 747:Middlewares/lvgl/src/core/lv_obj_pos.c ****         bool on2 = _lv_area_is_in(&obj->coords, &parent_fit_area, 0);
 748:Middlewares/lvgl/src/core/lv_obj_pos.c ****         if(on1 || (!on1 && on2)) lv_obj_scrollbar_invalidate(parent);
 749:Middlewares/lvgl/src/core/lv_obj_pos.c ****     }
 750:Middlewares/lvgl/src/core/lv_obj_pos.c **** }
 751:Middlewares/lvgl/src/core/lv_obj_pos.c **** 
 752:Middlewares/lvgl/src/core/lv_obj_pos.c **** void lv_obj_move_children_by(lv_obj_t * obj, lv_coord_t x_diff, lv_coord_t y_diff, bool ignore_floa
 753:Middlewares/lvgl/src/core/lv_obj_pos.c **** {
 754:Middlewares/lvgl/src/core/lv_obj_pos.c ****     uint32_t i;
 755:Middlewares/lvgl/src/core/lv_obj_pos.c ****     uint32_t child_cnt = lv_obj_get_child_cnt(obj);
 756:Middlewares/lvgl/src/core/lv_obj_pos.c ****     for(i = 0; i < child_cnt; i++) {
 757:Middlewares/lvgl/src/core/lv_obj_pos.c ****         lv_obj_t * child = lv_obj_get_child(obj, i);
 758:Middlewares/lvgl/src/core/lv_obj_pos.c ****         if(ignore_floating && lv_obj_has_flag(child, LV_OBJ_FLAG_FLOATING)) continue;
 759:Middlewares/lvgl/src/core/lv_obj_pos.c ****         child->coords.x1 += x_diff;
 760:Middlewares/lvgl/src/core/lv_obj_pos.c ****         child->coords.y1 += y_diff;
 761:Middlewares/lvgl/src/core/lv_obj_pos.c ****         child->coords.x2 += x_diff;
 762:Middlewares/lvgl/src/core/lv_obj_pos.c ****         child->coords.y2 += y_diff;
 763:Middlewares/lvgl/src/core/lv_obj_pos.c **** 
 764:Middlewares/lvgl/src/core/lv_obj_pos.c ****         lv_obj_move_children_by(child, x_diff, y_diff, false);
 765:Middlewares/lvgl/src/core/lv_obj_pos.c ****     }
 766:Middlewares/lvgl/src/core/lv_obj_pos.c **** }
 767:Middlewares/lvgl/src/core/lv_obj_pos.c **** 
 768:Middlewares/lvgl/src/core/lv_obj_pos.c **** 
 769:Middlewares/lvgl/src/core/lv_obj_pos.c **** void lv_obj_invalidate_area(const lv_obj_t * obj, const lv_area_t * area)
 770:Middlewares/lvgl/src/core/lv_obj_pos.c **** {
 771:Middlewares/lvgl/src/core/lv_obj_pos.c ****     LV_ASSERT_OBJ(obj, MY_CLASS);
ARM GAS  /tmp/ccgCqJqT.s 			page 49


 772:Middlewares/lvgl/src/core/lv_obj_pos.c **** 
 773:Middlewares/lvgl/src/core/lv_obj_pos.c ****     lv_area_t area_tmp;
 774:Middlewares/lvgl/src/core/lv_obj_pos.c ****     lv_area_copy(&area_tmp, area);
 775:Middlewares/lvgl/src/core/lv_obj_pos.c ****     bool visible = lv_obj_area_is_visible(obj, &area_tmp);
 776:Middlewares/lvgl/src/core/lv_obj_pos.c **** 
 777:Middlewares/lvgl/src/core/lv_obj_pos.c ****     if(visible) _lv_inv_area(lv_obj_get_disp(obj), &area_tmp);
 778:Middlewares/lvgl/src/core/lv_obj_pos.c **** }
 779:Middlewares/lvgl/src/core/lv_obj_pos.c **** 
 780:Middlewares/lvgl/src/core/lv_obj_pos.c **** void lv_obj_invalidate(const lv_obj_t * obj)
 781:Middlewares/lvgl/src/core/lv_obj_pos.c **** {
 782:Middlewares/lvgl/src/core/lv_obj_pos.c ****     LV_ASSERT_OBJ(obj, MY_CLASS);
 783:Middlewares/lvgl/src/core/lv_obj_pos.c **** 
 784:Middlewares/lvgl/src/core/lv_obj_pos.c ****     /*Truncate the area to the object*/
 785:Middlewares/lvgl/src/core/lv_obj_pos.c ****     lv_area_t obj_coords;
 786:Middlewares/lvgl/src/core/lv_obj_pos.c ****     lv_coord_t ext_size = _lv_obj_get_ext_draw_size(obj);
 787:Middlewares/lvgl/src/core/lv_obj_pos.c ****     lv_area_copy(&obj_coords, &obj->coords);
 788:Middlewares/lvgl/src/core/lv_obj_pos.c ****     obj_coords.x1 -= ext_size;
 789:Middlewares/lvgl/src/core/lv_obj_pos.c ****     obj_coords.y1 -= ext_size;
 790:Middlewares/lvgl/src/core/lv_obj_pos.c ****     obj_coords.x2 += ext_size;
 791:Middlewares/lvgl/src/core/lv_obj_pos.c ****     obj_coords.y2 += ext_size;
 792:Middlewares/lvgl/src/core/lv_obj_pos.c **** 
 793:Middlewares/lvgl/src/core/lv_obj_pos.c ****     lv_obj_invalidate_area(obj, &obj_coords);
 794:Middlewares/lvgl/src/core/lv_obj_pos.c **** 
 795:Middlewares/lvgl/src/core/lv_obj_pos.c **** }
 796:Middlewares/lvgl/src/core/lv_obj_pos.c **** 
 797:Middlewares/lvgl/src/core/lv_obj_pos.c **** bool lv_obj_area_is_visible(const lv_obj_t * obj, lv_area_t * area)
 798:Middlewares/lvgl/src/core/lv_obj_pos.c **** {
 799:Middlewares/lvgl/src/core/lv_obj_pos.c ****     if(lv_obj_has_flag(obj, LV_OBJ_FLAG_HIDDEN)) return false;
 800:Middlewares/lvgl/src/core/lv_obj_pos.c **** 
 801:Middlewares/lvgl/src/core/lv_obj_pos.c ****     /*Invalidate the object only if it belongs to the current or previous'*/
 802:Middlewares/lvgl/src/core/lv_obj_pos.c ****     lv_obj_t * obj_scr = lv_obj_get_screen(obj);
 803:Middlewares/lvgl/src/core/lv_obj_pos.c ****     lv_disp_t * disp   = lv_obj_get_disp(obj_scr);
 804:Middlewares/lvgl/src/core/lv_obj_pos.c ****     if(obj_scr != lv_disp_get_scr_act(disp) &&
 805:Middlewares/lvgl/src/core/lv_obj_pos.c ****        obj_scr != lv_disp_get_scr_prev(disp) &&
 806:Middlewares/lvgl/src/core/lv_obj_pos.c ****        obj_scr != lv_disp_get_layer_top(disp) &&
 807:Middlewares/lvgl/src/core/lv_obj_pos.c ****        obj_scr != lv_disp_get_layer_sys(disp))
 808:Middlewares/lvgl/src/core/lv_obj_pos.c ****     {
 809:Middlewares/lvgl/src/core/lv_obj_pos.c ****         return false;
 810:Middlewares/lvgl/src/core/lv_obj_pos.c ****     }
 811:Middlewares/lvgl/src/core/lv_obj_pos.c **** 
 812:Middlewares/lvgl/src/core/lv_obj_pos.c ****     /*Truncate the area to the object*/
 813:Middlewares/lvgl/src/core/lv_obj_pos.c ****     lv_area_t obj_coords;
 814:Middlewares/lvgl/src/core/lv_obj_pos.c ****     lv_coord_t ext_size = _lv_obj_get_ext_draw_size(obj);
 815:Middlewares/lvgl/src/core/lv_obj_pos.c ****     lv_area_copy(&obj_coords, &obj->coords);
 816:Middlewares/lvgl/src/core/lv_obj_pos.c ****     obj_coords.x1 -= ext_size;
 817:Middlewares/lvgl/src/core/lv_obj_pos.c ****     obj_coords.y1 -= ext_size;
 818:Middlewares/lvgl/src/core/lv_obj_pos.c ****     obj_coords.x2 += ext_size;
 819:Middlewares/lvgl/src/core/lv_obj_pos.c ****     obj_coords.y2 += ext_size;
 820:Middlewares/lvgl/src/core/lv_obj_pos.c **** 
 821:Middlewares/lvgl/src/core/lv_obj_pos.c ****     bool is_common;
 822:Middlewares/lvgl/src/core/lv_obj_pos.c **** 
 823:Middlewares/lvgl/src/core/lv_obj_pos.c ****     is_common = _lv_area_intersect(area, area, &obj_coords);
 824:Middlewares/lvgl/src/core/lv_obj_pos.c ****     if(is_common == false) return false;  /*The area is not on the object*/
 825:Middlewares/lvgl/src/core/lv_obj_pos.c **** 
 826:Middlewares/lvgl/src/core/lv_obj_pos.c ****     /*Truncate recursively to the parents*/
 827:Middlewares/lvgl/src/core/lv_obj_pos.c ****     lv_obj_t * par = lv_obj_get_parent(obj);
 828:Middlewares/lvgl/src/core/lv_obj_pos.c ****     while(par != NULL) {
ARM GAS  /tmp/ccgCqJqT.s 			page 50


 829:Middlewares/lvgl/src/core/lv_obj_pos.c ****         is_common = _lv_area_intersect(area, area, &par->coords);
 830:Middlewares/lvgl/src/core/lv_obj_pos.c ****         if(is_common == false) return false;       /*If no common parts with parent break;*/
 831:Middlewares/lvgl/src/core/lv_obj_pos.c ****         if(lv_obj_has_flag(par, LV_OBJ_FLAG_HIDDEN)) return false; /*If the parent is hidden then t
 832:Middlewares/lvgl/src/core/lv_obj_pos.c **** 
 833:Middlewares/lvgl/src/core/lv_obj_pos.c ****         par = lv_obj_get_parent(par);
 834:Middlewares/lvgl/src/core/lv_obj_pos.c ****     }
 835:Middlewares/lvgl/src/core/lv_obj_pos.c **** 
 836:Middlewares/lvgl/src/core/lv_obj_pos.c ****     return true;
 837:Middlewares/lvgl/src/core/lv_obj_pos.c **** }
 838:Middlewares/lvgl/src/core/lv_obj_pos.c **** 
 839:Middlewares/lvgl/src/core/lv_obj_pos.c **** bool lv_obj_is_visible(const lv_obj_t * obj)
 840:Middlewares/lvgl/src/core/lv_obj_pos.c **** {
 841:Middlewares/lvgl/src/core/lv_obj_pos.c ****     LV_ASSERT_OBJ(obj, MY_CLASS);
 842:Middlewares/lvgl/src/core/lv_obj_pos.c **** 
 843:Middlewares/lvgl/src/core/lv_obj_pos.c ****     lv_area_t obj_coords;
 844:Middlewares/lvgl/src/core/lv_obj_pos.c ****     lv_coord_t ext_size = _lv_obj_get_ext_draw_size(obj);
 845:Middlewares/lvgl/src/core/lv_obj_pos.c ****     lv_area_copy(&obj_coords, &obj->coords);
 846:Middlewares/lvgl/src/core/lv_obj_pos.c ****     obj_coords.x1 -= ext_size;
 847:Middlewares/lvgl/src/core/lv_obj_pos.c ****     obj_coords.y1 -= ext_size;
 848:Middlewares/lvgl/src/core/lv_obj_pos.c ****     obj_coords.x2 += ext_size;
 849:Middlewares/lvgl/src/core/lv_obj_pos.c ****     obj_coords.y2 += ext_size;
 850:Middlewares/lvgl/src/core/lv_obj_pos.c **** 
 851:Middlewares/lvgl/src/core/lv_obj_pos.c ****     return lv_obj_area_is_visible(obj, &obj_coords);
 852:Middlewares/lvgl/src/core/lv_obj_pos.c **** 
 853:Middlewares/lvgl/src/core/lv_obj_pos.c **** }
 854:Middlewares/lvgl/src/core/lv_obj_pos.c **** 
 855:Middlewares/lvgl/src/core/lv_obj_pos.c **** void lv_obj_set_ext_click_area(lv_obj_t * obj, lv_coord_t size)
 856:Middlewares/lvgl/src/core/lv_obj_pos.c **** {
 857:Middlewares/lvgl/src/core/lv_obj_pos.c ****     LV_ASSERT_OBJ(obj, MY_CLASS);
 858:Middlewares/lvgl/src/core/lv_obj_pos.c **** 
 859:Middlewares/lvgl/src/core/lv_obj_pos.c ****     lv_obj_allocate_spec_attr(obj);
 860:Middlewares/lvgl/src/core/lv_obj_pos.c ****     obj->spec_attr->ext_click_pad = size;
 861:Middlewares/lvgl/src/core/lv_obj_pos.c **** }
 862:Middlewares/lvgl/src/core/lv_obj_pos.c **** 
 863:Middlewares/lvgl/src/core/lv_obj_pos.c **** void lv_obj_get_click_area(const lv_obj_t * obj, lv_area_t * area)
 864:Middlewares/lvgl/src/core/lv_obj_pos.c **** {
 865:Middlewares/lvgl/src/core/lv_obj_pos.c ****     lv_area_copy(area, &obj->coords);
 866:Middlewares/lvgl/src/core/lv_obj_pos.c ****     if(obj->spec_attr) {
 867:Middlewares/lvgl/src/core/lv_obj_pos.c ****         area->x1 -= obj->spec_attr->ext_click_pad;
 868:Middlewares/lvgl/src/core/lv_obj_pos.c ****         area->x2 += obj->spec_attr->ext_click_pad;
 869:Middlewares/lvgl/src/core/lv_obj_pos.c ****         area->y1 -= obj->spec_attr->ext_click_pad;
 870:Middlewares/lvgl/src/core/lv_obj_pos.c ****         area->y2 += obj->spec_attr->ext_click_pad;
 871:Middlewares/lvgl/src/core/lv_obj_pos.c ****     }
 872:Middlewares/lvgl/src/core/lv_obj_pos.c **** }
 873:Middlewares/lvgl/src/core/lv_obj_pos.c **** 
 874:Middlewares/lvgl/src/core/lv_obj_pos.c **** bool lv_obj_hit_test(lv_obj_t * obj, const lv_point_t * point)
 875:Middlewares/lvgl/src/core/lv_obj_pos.c **** {
 876:Middlewares/lvgl/src/core/lv_obj_pos.c ****     lv_area_t a;
 877:Middlewares/lvgl/src/core/lv_obj_pos.c ****     lv_obj_get_click_area(obj, &a);
 878:Middlewares/lvgl/src/core/lv_obj_pos.c ****     bool res = _lv_area_is_point_on(&a, point, 0);
 879:Middlewares/lvgl/src/core/lv_obj_pos.c ****     if(res == false) return false;
 880:Middlewares/lvgl/src/core/lv_obj_pos.c **** 
 881:Middlewares/lvgl/src/core/lv_obj_pos.c ****     if(lv_obj_has_flag(obj, LV_OBJ_FLAG_ADV_HITTEST)) {
 882:Middlewares/lvgl/src/core/lv_obj_pos.c ****         lv_hit_test_info_t hit_info;
 883:Middlewares/lvgl/src/core/lv_obj_pos.c ****         hit_info.point = point;
 884:Middlewares/lvgl/src/core/lv_obj_pos.c ****         hit_info.res = true;
 885:Middlewares/lvgl/src/core/lv_obj_pos.c ****         lv_event_send(obj, LV_EVENT_HIT_TEST, &hit_info);
ARM GAS  /tmp/ccgCqJqT.s 			page 51


 886:Middlewares/lvgl/src/core/lv_obj_pos.c ****         return hit_info.res;
 887:Middlewares/lvgl/src/core/lv_obj_pos.c ****     }
 888:Middlewares/lvgl/src/core/lv_obj_pos.c **** 
 889:Middlewares/lvgl/src/core/lv_obj_pos.c ****     return res;
 890:Middlewares/lvgl/src/core/lv_obj_pos.c **** }
 891:Middlewares/lvgl/src/core/lv_obj_pos.c **** 
 892:Middlewares/lvgl/src/core/lv_obj_pos.c **** lv_coord_t lv_clamp_width(lv_coord_t width, lv_coord_t min_width, lv_coord_t max_width, lv_coord_t 
 893:Middlewares/lvgl/src/core/lv_obj_pos.c **** {
 894:Middlewares/lvgl/src/core/lv_obj_pos.c ****     if(LV_COORD_IS_PCT(min_width)) min_width = (ref_width * LV_COORD_GET_PCT(min_width)) / 100;
 895:Middlewares/lvgl/src/core/lv_obj_pos.c ****     if(LV_COORD_IS_PCT(max_width)) max_width = (ref_width * LV_COORD_GET_PCT(max_width)) / 100;
 896:Middlewares/lvgl/src/core/lv_obj_pos.c ****     return LV_CLAMP(min_width, width, max_width);
 897:Middlewares/lvgl/src/core/lv_obj_pos.c **** }
 898:Middlewares/lvgl/src/core/lv_obj_pos.c **** 
 899:Middlewares/lvgl/src/core/lv_obj_pos.c **** lv_coord_t lv_clamp_height(lv_coord_t height, lv_coord_t min_height, lv_coord_t max_height, lv_coor
 900:Middlewares/lvgl/src/core/lv_obj_pos.c **** {
 901:Middlewares/lvgl/src/core/lv_obj_pos.c ****     if(LV_COORD_IS_PCT(min_height)) min_height = (ref_height * LV_COORD_GET_PCT(min_height)) / 100;
 902:Middlewares/lvgl/src/core/lv_obj_pos.c ****     if(LV_COORD_IS_PCT(max_height)) max_height = (ref_height * LV_COORD_GET_PCT(max_height)) / 100;
 903:Middlewares/lvgl/src/core/lv_obj_pos.c ****     return LV_CLAMP(min_height, height, max_height);
 904:Middlewares/lvgl/src/core/lv_obj_pos.c **** }
 905:Middlewares/lvgl/src/core/lv_obj_pos.c **** 
 906:Middlewares/lvgl/src/core/lv_obj_pos.c **** 
 907:Middlewares/lvgl/src/core/lv_obj_pos.c **** 
 908:Middlewares/lvgl/src/core/lv_obj_pos.c **** /**********************
 909:Middlewares/lvgl/src/core/lv_obj_pos.c ****  *   STATIC FUNCTIONS
 910:Middlewares/lvgl/src/core/lv_obj_pos.c ****  **********************/
 911:Middlewares/lvgl/src/core/lv_obj_pos.c **** 
 912:Middlewares/lvgl/src/core/lv_obj_pos.c **** /**
 913:Middlewares/lvgl/src/core/lv_obj_pos.c ****  * Calculate the "auto size". It's `auto_size = max(children_size, self_size)`
 914:Middlewares/lvgl/src/core/lv_obj_pos.c ****  * @param obj pointer to an object
 915:Middlewares/lvgl/src/core/lv_obj_pos.c ****  * @param w_out store the width here. NULL to not calculate width
 916:Middlewares/lvgl/src/core/lv_obj_pos.c ****  * @param h_out store the height here. NULL to not calculate height
 917:Middlewares/lvgl/src/core/lv_obj_pos.c ****  */
 918:Middlewares/lvgl/src/core/lv_obj_pos.c **** static void calc_auto_size(lv_obj_t * obj, lv_coord_t * w_out, lv_coord_t * h_out)
 919:Middlewares/lvgl/src/core/lv_obj_pos.c **** {
 1425              		.loc 1 919 1 is_stmt 1 view -0
 1426              		.cfi_startproc
 1427              		@ args = 0, pretend = 0, frame = 0
 1428              		@ frame_needed = 0, uses_anonymous_args = 0
 1429              		.loc 1 919 1 is_stmt 0 view .LVU380
 1430 0000 2DE9F041 		push	{r4, r5, r6, r7, r8, lr}
 1431              	.LCFI29:
 1432              		.cfi_def_cfa_offset 24
 1433              		.cfi_offset 4, -24
 1434              		.cfi_offset 5, -20
 1435              		.cfi_offset 6, -16
 1436              		.cfi_offset 7, -12
 1437              		.cfi_offset 8, -8
 1438              		.cfi_offset 14, -4
 1439 0004 0446     		mov	r4, r0
 1440 0006 1546     		mov	r5, r2
 920:Middlewares/lvgl/src/core/lv_obj_pos.c ****     if(!w_out && !h_out) return;
 1441              		.loc 1 920 5 is_stmt 1 view .LVU381
 1442              		.loc 1 920 7 is_stmt 0 view .LVU382
 1443 0008 0E46     		mov	r6, r1
 1444 000a 19B3     		cbz	r1, .L78
 1445              	.L74:
 921:Middlewares/lvgl/src/core/lv_obj_pos.c ****     /*Get the bounding box of the children*/
ARM GAS  /tmp/ccgCqJqT.s 			page 52


 922:Middlewares/lvgl/src/core/lv_obj_pos.c ****     if(w_out) {
 1446              		.loc 1 922 5 is_stmt 1 view .LVU383
 1447              		.loc 1 922 7 is_stmt 0 view .LVU384
 1448 000c 7EB1     		cbz	r6, .L76
 1449              	.LBB149:
 923:Middlewares/lvgl/src/core/lv_obj_pos.c ****         lv_coord_t scroll_right = lv_obj_get_scroll_right(obj);
 1450              		.loc 1 923 9 is_stmt 1 view .LVU385
 1451              		.loc 1 923 35 is_stmt 0 view .LVU386
 1452 000e 2046     		mov	r0, r4
 1453              	.LVL123:
 1454              		.loc 1 923 35 view .LVU387
 1455 0010 FFF7FEFF 		bl	lv_obj_get_scroll_right
 1456              	.LVL124:
 1457              		.loc 1 923 35 view .LVU388
 1458 0014 8046     		mov	r8, r0
 1459              	.LVL125:
 924:Middlewares/lvgl/src/core/lv_obj_pos.c ****         lv_coord_t scroll_left = lv_obj_get_scroll_left(obj);
 1460              		.loc 1 924 9 is_stmt 1 view .LVU389
 1461              		.loc 1 924 34 is_stmt 0 view .LVU390
 1462 0016 2046     		mov	r0, r4
 1463 0018 FFF7FEFF 		bl	lv_obj_get_scroll_left
 1464              	.LVL126:
 1465 001c 0746     		mov	r7, r0
 1466              	.LVL127:
 925:Middlewares/lvgl/src/core/lv_obj_pos.c ****         *w_out = lv_obj_get_width(obj) + scroll_right + scroll_left;
 1467              		.loc 1 925 9 is_stmt 1 view .LVU391
 1468              		.loc 1 925 18 is_stmt 0 view .LVU392
 1469 001e 2046     		mov	r0, r4
 1470 0020 FFF7FEFF 		bl	lv_obj_get_width
 1471              	.LVL128:
 1472 0024 83B2     		uxth	r3, r0
 1473              		.loc 1 925 40 view .LVU393
 1474 0026 4344     		add	r3, r3, r8
 1475 0028 9BB2     		uxth	r3, r3
 1476              		.loc 1 925 55 view .LVU394
 1477 002a D819     		adds	r0, r3, r7
 1478              		.loc 1 925 16 view .LVU395
 1479 002c 3080     		strh	r0, [r6]	@ movhi
 1480              	.LVL129:
 1481              	.L76:
 1482              		.loc 1 925 16 view .LVU396
 1483              	.LBE149:
 926:Middlewares/lvgl/src/core/lv_obj_pos.c ****     }
 927:Middlewares/lvgl/src/core/lv_obj_pos.c **** 
 928:Middlewares/lvgl/src/core/lv_obj_pos.c ****     if(h_out) {
 1484              		.loc 1 928 5 is_stmt 1 view .LVU397
 1485              		.loc 1 928 7 is_stmt 0 view .LVU398
 1486 002e 7DB1     		cbz	r5, .L73
 1487              	.LBB150:
 929:Middlewares/lvgl/src/core/lv_obj_pos.c ****         lv_coord_t scroll_bottom = lv_obj_get_scroll_bottom(obj);
 1488              		.loc 1 929 9 is_stmt 1 view .LVU399
 1489              		.loc 1 929 36 is_stmt 0 view .LVU400
 1490 0030 2046     		mov	r0, r4
 1491 0032 FFF7FEFF 		bl	lv_obj_get_scroll_bottom
 1492              	.LVL130:
 1493 0036 0746     		mov	r7, r0
 1494              	.LVL131:
ARM GAS  /tmp/ccgCqJqT.s 			page 53


 930:Middlewares/lvgl/src/core/lv_obj_pos.c ****         lv_coord_t scroll_top = lv_obj_get_scroll_top(obj);
 1495              		.loc 1 930 9 is_stmt 1 view .LVU401
 1496              		.loc 1 930 33 is_stmt 0 view .LVU402
 1497 0038 2046     		mov	r0, r4
 1498 003a FFF7FEFF 		bl	lv_obj_get_scroll_top
 1499              	.LVL132:
 1500 003e 0646     		mov	r6, r0
 1501              	.LVL133:
 931:Middlewares/lvgl/src/core/lv_obj_pos.c ****         *h_out = lv_obj_get_height(obj) + scroll_bottom + scroll_top;
 1502              		.loc 1 931 9 is_stmt 1 view .LVU403
 1503              		.loc 1 931 18 is_stmt 0 view .LVU404
 1504 0040 2046     		mov	r0, r4
 1505 0042 FFF7FEFF 		bl	lv_obj_get_height
 1506              	.LVL134:
 1507 0046 83B2     		uxth	r3, r0
 1508              		.loc 1 931 41 view .LVU405
 1509 0048 3B44     		add	r3, r3, r7
 1510 004a 9BB2     		uxth	r3, r3
 1511              		.loc 1 931 57 view .LVU406
 1512 004c 9819     		adds	r0, r3, r6
 1513              		.loc 1 931 16 view .LVU407
 1514 004e 2880     		strh	r0, [r5]	@ movhi
 1515              	.LVL135:
 1516              	.L73:
 1517              		.loc 1 931 16 view .LVU408
 1518              	.LBE150:
 932:Middlewares/lvgl/src/core/lv_obj_pos.c ****     }
 933:Middlewares/lvgl/src/core/lv_obj_pos.c **** }
 1519              		.loc 1 933 1 view .LVU409
 1520 0050 BDE8F081 		pop	{r4, r5, r6, r7, r8, pc}
 1521              	.LVL136:
 1522              	.L78:
 920:Middlewares/lvgl/src/core/lv_obj_pos.c ****     /*Get the bounding box of the children*/
 1523              		.loc 1 920 15 discriminator 1 view .LVU410
 1524 0054 002A     		cmp	r2, #0
 1525 0056 D9D1     		bne	.L74
 1526 0058 FAE7     		b	.L73
 1527              		.cfi_endproc
 1528              	.LFE195:
 1530              		.section	.text.lv_obj_get_y2,"ax",%progbits
 1531              		.align	1
 1532              		.global	lv_obj_get_y2
 1533              		.syntax unified
 1534              		.thumb
 1535              		.thumb_func
 1536              		.fpu softvfp
 1538              	lv_obj_get_y2:
 1539              	.LVL137:
 1540              	.LFB174:
 521:Middlewares/lvgl/src/core/lv_obj_pos.c ****     LV_ASSERT_OBJ(obj, MY_CLASS);
 1541              		.loc 1 521 1 is_stmt 1 view -0
 1542              		.cfi_startproc
 1543              		@ args = 0, pretend = 0, frame = 0
 1544              		@ frame_needed = 0, uses_anonymous_args = 0
 521:Middlewares/lvgl/src/core/lv_obj_pos.c ****     LV_ASSERT_OBJ(obj, MY_CLASS);
 1545              		.loc 1 521 1 is_stmt 0 view .LVU412
 1546 0000 38B5     		push	{r3, r4, r5, lr}
ARM GAS  /tmp/ccgCqJqT.s 			page 54


 1547              	.LCFI30:
 1548              		.cfi_def_cfa_offset 16
 1549              		.cfi_offset 3, -16
 1550              		.cfi_offset 4, -12
 1551              		.cfi_offset 5, -8
 1552              		.cfi_offset 14, -4
 1553 0002 0546     		mov	r5, r0
 522:Middlewares/lvgl/src/core/lv_obj_pos.c **** 
 1554              		.loc 1 522 5 is_stmt 1 view .LVU413
 522:Middlewares/lvgl/src/core/lv_obj_pos.c **** 
 1555              		.loc 1 522 5 view .LVU414
 522:Middlewares/lvgl/src/core/lv_obj_pos.c **** 
 1556              		.loc 1 522 5 view .LVU415
 524:Middlewares/lvgl/src/core/lv_obj_pos.c **** }
 1557              		.loc 1 524 5 view .LVU416
 524:Middlewares/lvgl/src/core/lv_obj_pos.c **** }
 1558              		.loc 1 524 12 is_stmt 0 view .LVU417
 1559 0004 FFF7FEFF 		bl	lv_obj_get_y
 1560              	.LVL138:
 524:Middlewares/lvgl/src/core/lv_obj_pos.c **** }
 1561              		.loc 1 524 12 view .LVU418
 1562 0008 84B2     		uxth	r4, r0
 524:Middlewares/lvgl/src/core/lv_obj_pos.c **** }
 1563              		.loc 1 524 32 view .LVU419
 1564 000a 2846     		mov	r0, r5
 1565 000c FFF7FEFF 		bl	lv_obj_get_height
 1566              	.LVL139:
 1567 0010 80B2     		uxth	r0, r0
 524:Middlewares/lvgl/src/core/lv_obj_pos.c **** }
 1568              		.loc 1 524 30 view .LVU420
 1569 0012 2044     		add	r0, r0, r4
 525:Middlewares/lvgl/src/core/lv_obj_pos.c **** 
 1570              		.loc 1 525 1 view .LVU421
 1571 0014 00B2     		sxth	r0, r0
 1572 0016 38BD     		pop	{r3, r4, r5, pc}
 525:Middlewares/lvgl/src/core/lv_obj_pos.c **** 
 1573              		.loc 1 525 1 view .LVU422
 1574              		.cfi_endproc
 1575              	.LFE174:
 1577              		.section	.text.lv_obj_get_content_width,"ax",%progbits
 1578              		.align	1
 1579              		.global	lv_obj_get_content_width
 1580              		.syntax unified
 1581              		.thumb
 1582              		.thumb_func
 1583              		.fpu softvfp
 1585              	lv_obj_get_content_width:
 1586              	.LVL140:
 1587              	.LFB177:
 542:Middlewares/lvgl/src/core/lv_obj_pos.c ****     LV_ASSERT_OBJ(obj, MY_CLASS);
 1588              		.loc 1 542 1 is_stmt 1 view -0
 1589              		.cfi_startproc
 1590              		@ args = 0, pretend = 0, frame = 0
 1591              		@ frame_needed = 0, uses_anonymous_args = 0
 542:Middlewares/lvgl/src/core/lv_obj_pos.c ****     LV_ASSERT_OBJ(obj, MY_CLASS);
 1592              		.loc 1 542 1 is_stmt 0 view .LVU424
 1593 0000 F8B5     		push	{r3, r4, r5, r6, r7, lr}
ARM GAS  /tmp/ccgCqJqT.s 			page 55


 1594              	.LCFI31:
 1595              		.cfi_def_cfa_offset 24
 1596              		.cfi_offset 3, -24
 1597              		.cfi_offset 4, -20
 1598              		.cfi_offset 5, -16
 1599              		.cfi_offset 6, -12
 1600              		.cfi_offset 7, -8
 1601              		.cfi_offset 14, -4
 1602 0002 0546     		mov	r5, r0
 543:Middlewares/lvgl/src/core/lv_obj_pos.c **** 
 1603              		.loc 1 543 5 is_stmt 1 view .LVU425
 543:Middlewares/lvgl/src/core/lv_obj_pos.c **** 
 1604              		.loc 1 543 5 view .LVU426
 543:Middlewares/lvgl/src/core/lv_obj_pos.c **** 
 1605              		.loc 1 543 5 view .LVU427
 545:Middlewares/lvgl/src/core/lv_obj_pos.c ****     lv_coord_t right = lv_obj_get_style_pad_right(obj, LV_PART_MAIN);
 1606              		.loc 1 545 5 view .LVU428
 1607              	.LVL141:
 1608              	.LBB151:
 1609              	.LBI151:
 103:Middlewares/lvgl/src/core/lv_obj_style_gen.h **** {
 1610              		.loc 2 103 26 view .LVU429
 1611              	.LBB152:
 105:Middlewares/lvgl/src/core/lv_obj_style_gen.h ****     return (lv_coord_t)v.num;
 1612              		.loc 2 105 5 view .LVU430
 105:Middlewares/lvgl/src/core/lv_obj_style_gen.h ****     return (lv_coord_t)v.num;
 1613              		.loc 2 105 26 is_stmt 0 view .LVU431
 1614 0004 41F21202 		movw	r2, #4114
 1615 0008 0021     		movs	r1, #0
 1616 000a FFF7FEFF 		bl	lv_obj_get_style_prop
 1617              	.LVL142:
 105:Middlewares/lvgl/src/core/lv_obj_style_gen.h ****     return (lv_coord_t)v.num;
 1618              		.loc 2 105 26 view .LVU432
 1619 000e 0746     		mov	r7, r0
 1620              	.LVL143:
 106:Middlewares/lvgl/src/core/lv_obj_style_gen.h **** }
 1621              		.loc 2 106 5 is_stmt 1 view .LVU433
 106:Middlewares/lvgl/src/core/lv_obj_style_gen.h **** }
 1622              		.loc 2 106 5 is_stmt 0 view .LVU434
 1623              	.LBE152:
 1624              	.LBE151:
 546:Middlewares/lvgl/src/core/lv_obj_pos.c ****     lv_coord_t border_width = lv_obj_get_style_border_width(obj, LV_PART_MAIN);
 1625              		.loc 1 546 5 is_stmt 1 view .LVU435
 1626              	.LBB153:
 1627              	.LBI153:
 109:Middlewares/lvgl/src/core/lv_obj_style_gen.h **** {
 1628              		.loc 2 109 26 view .LVU436
 1629              	.LBB154:
 111:Middlewares/lvgl/src/core/lv_obj_style_gen.h ****     return (lv_coord_t)v.num;
 1630              		.loc 2 111 5 view .LVU437
 111:Middlewares/lvgl/src/core/lv_obj_style_gen.h ****     return (lv_coord_t)v.num;
 1631              		.loc 2 111 26 is_stmt 0 view .LVU438
 1632 0010 41F21302 		movw	r2, #4115
 1633 0014 0021     		movs	r1, #0
 1634 0016 2846     		mov	r0, r5
 1635 0018 FFF7FEFF 		bl	lv_obj_get_style_prop
 1636              	.LVL144:
ARM GAS  /tmp/ccgCqJqT.s 			page 56


 1637 001c 0646     		mov	r6, r0
 1638              	.LVL145:
 112:Middlewares/lvgl/src/core/lv_obj_style_gen.h **** }
 1639              		.loc 2 112 5 is_stmt 1 view .LVU439
 112:Middlewares/lvgl/src/core/lv_obj_style_gen.h **** }
 1640              		.loc 2 112 5 is_stmt 0 view .LVU440
 1641              	.LBE154:
 1642              	.LBE153:
 547:Middlewares/lvgl/src/core/lv_obj_pos.c **** 
 1643              		.loc 1 547 5 is_stmt 1 view .LVU441
 1644              	.LBB155:
 1645              	.LBI155:
 295:Middlewares/lvgl/src/core/lv_obj_style_gen.h **** {
 1646              		.loc 2 295 26 view .LVU442
 1647              	.LBB156:
 297:Middlewares/lvgl/src/core/lv_obj_style_gen.h ****     return (lv_coord_t)v.num;
 1648              		.loc 2 297 5 view .LVU443
 297:Middlewares/lvgl/src/core/lv_obj_style_gen.h ****     return (lv_coord_t)v.num;
 1649              		.loc 2 297 26 is_stmt 0 view .LVU444
 1650 001e 41F23202 		movw	r2, #4146
 1651 0022 0021     		movs	r1, #0
 1652 0024 2846     		mov	r0, r5
 1653 0026 FFF7FEFF 		bl	lv_obj_get_style_prop
 1654              	.LVL146:
 1655 002a 0446     		mov	r4, r0
 1656              	.LVL147:
 1657              		.loc 2 298 5 is_stmt 1 view .LVU445
 1658              		.loc 2 298 5 is_stmt 0 view .LVU446
 1659              	.LBE156:
 1660              	.LBE155:
 549:Middlewares/lvgl/src/core/lv_obj_pos.c **** }
 1661              		.loc 1 549 5 is_stmt 1 view .LVU447
 549:Middlewares/lvgl/src/core/lv_obj_pos.c **** }
 1662              		.loc 1 549 12 is_stmt 0 view .LVU448
 1663 002c 2846     		mov	r0, r5
 1664 002e FFF7FEFF 		bl	lv_obj_get_width
 1665              	.LVL148:
 1666 0032 83B2     		uxth	r3, r0
 549:Middlewares/lvgl/src/core/lv_obj_pos.c **** }
 1667              		.loc 1 549 34 view .LVU449
 1668 0034 DB1B     		subs	r3, r3, r7
 1669 0036 9BB2     		uxth	r3, r3
 549:Middlewares/lvgl/src/core/lv_obj_pos.c **** }
 1670              		.loc 1 549 41 view .LVU450
 1671 0038 9B1B     		subs	r3, r3, r6
 1672 003a 9BB2     		uxth	r3, r3
 549:Middlewares/lvgl/src/core/lv_obj_pos.c **** }
 1673              		.loc 1 549 53 view .LVU451
 1674 003c 6000     		lsls	r0, r4, #1
 1675 003e 80B2     		uxth	r0, r0
 549:Middlewares/lvgl/src/core/lv_obj_pos.c **** }
 1676              		.loc 1 549 49 view .LVU452
 1677 0040 181A     		subs	r0, r3, r0
 550:Middlewares/lvgl/src/core/lv_obj_pos.c **** 
 1678              		.loc 1 550 1 view .LVU453
 1679 0042 00B2     		sxth	r0, r0
 1680 0044 F8BD     		pop	{r3, r4, r5, r6, r7, pc}
ARM GAS  /tmp/ccgCqJqT.s 			page 57


 550:Middlewares/lvgl/src/core/lv_obj_pos.c **** 
 1681              		.loc 1 550 1 view .LVU454
 1682              		.cfi_endproc
 1683              	.LFE177:
 1685              		.section	.text.lv_obj_get_content_height,"ax",%progbits
 1686              		.align	1
 1687              		.global	lv_obj_get_content_height
 1688              		.syntax unified
 1689              		.thumb
 1690              		.thumb_func
 1691              		.fpu softvfp
 1693              	lv_obj_get_content_height:
 1694              	.LVL149:
 1695              	.LFB178:
 553:Middlewares/lvgl/src/core/lv_obj_pos.c ****     LV_ASSERT_OBJ(obj, MY_CLASS);
 1696              		.loc 1 553 1 is_stmt 1 view -0
 1697              		.cfi_startproc
 1698              		@ args = 0, pretend = 0, frame = 0
 1699              		@ frame_needed = 0, uses_anonymous_args = 0
 553:Middlewares/lvgl/src/core/lv_obj_pos.c ****     LV_ASSERT_OBJ(obj, MY_CLASS);
 1700              		.loc 1 553 1 is_stmt 0 view .LVU456
 1701 0000 F8B5     		push	{r3, r4, r5, r6, r7, lr}
 1702              	.LCFI32:
 1703              		.cfi_def_cfa_offset 24
 1704              		.cfi_offset 3, -24
 1705              		.cfi_offset 4, -20
 1706              		.cfi_offset 5, -16
 1707              		.cfi_offset 6, -12
 1708              		.cfi_offset 7, -8
 1709              		.cfi_offset 14, -4
 1710 0002 0546     		mov	r5, r0
 554:Middlewares/lvgl/src/core/lv_obj_pos.c **** 
 1711              		.loc 1 554 5 is_stmt 1 view .LVU457
 554:Middlewares/lvgl/src/core/lv_obj_pos.c **** 
 1712              		.loc 1 554 5 view .LVU458
 554:Middlewares/lvgl/src/core/lv_obj_pos.c **** 
 1713              		.loc 1 554 5 view .LVU459
 556:Middlewares/lvgl/src/core/lv_obj_pos.c ****     lv_coord_t bottom =  lv_obj_get_style_pad_bottom(obj, LV_PART_MAIN);
 1714              		.loc 1 556 5 view .LVU460
 1715              	.LVL150:
 1716              	.LBB157:
 1717              	.LBI157:
  91:Middlewares/lvgl/src/core/lv_obj_style_gen.h **** {
 1718              		.loc 2 91 26 view .LVU461
 1719              	.LBB158:
  93:Middlewares/lvgl/src/core/lv_obj_style_gen.h ****     return (lv_coord_t)v.num;
 1720              		.loc 2 93 5 view .LVU462
  93:Middlewares/lvgl/src/core/lv_obj_style_gen.h ****     return (lv_coord_t)v.num;
 1721              		.loc 2 93 26 is_stmt 0 view .LVU463
 1722 0004 41F21002 		movw	r2, #4112
 1723 0008 0021     		movs	r1, #0
 1724 000a FFF7FEFF 		bl	lv_obj_get_style_prop
 1725              	.LVL151:
  93:Middlewares/lvgl/src/core/lv_obj_style_gen.h ****     return (lv_coord_t)v.num;
 1726              		.loc 2 93 26 view .LVU464
 1727 000e 0746     		mov	r7, r0
 1728              	.LVL152:
ARM GAS  /tmp/ccgCqJqT.s 			page 58


  94:Middlewares/lvgl/src/core/lv_obj_style_gen.h **** }
 1729              		.loc 2 94 5 is_stmt 1 view .LVU465
  94:Middlewares/lvgl/src/core/lv_obj_style_gen.h **** }
 1730              		.loc 2 94 5 is_stmt 0 view .LVU466
 1731              	.LBE158:
 1732              	.LBE157:
 557:Middlewares/lvgl/src/core/lv_obj_pos.c ****     lv_coord_t border_width = lv_obj_get_style_border_width(obj, LV_PART_MAIN);
 1733              		.loc 1 557 5 is_stmt 1 view .LVU467
 1734              	.LBB159:
 1735              	.LBI159:
  97:Middlewares/lvgl/src/core/lv_obj_style_gen.h **** {
 1736              		.loc 2 97 26 view .LVU468
 1737              	.LBB160:
  99:Middlewares/lvgl/src/core/lv_obj_style_gen.h ****     return (lv_coord_t)v.num;
 1738              		.loc 2 99 5 view .LVU469
  99:Middlewares/lvgl/src/core/lv_obj_style_gen.h ****     return (lv_coord_t)v.num;
 1739              		.loc 2 99 26 is_stmt 0 view .LVU470
 1740 0010 41F21102 		movw	r2, #4113
 1741 0014 0021     		movs	r1, #0
 1742 0016 2846     		mov	r0, r5
 1743 0018 FFF7FEFF 		bl	lv_obj_get_style_prop
 1744              	.LVL153:
 1745 001c 0646     		mov	r6, r0
 1746              	.LVL154:
 100:Middlewares/lvgl/src/core/lv_obj_style_gen.h **** }
 1747              		.loc 2 100 5 is_stmt 1 view .LVU471
 100:Middlewares/lvgl/src/core/lv_obj_style_gen.h **** }
 1748              		.loc 2 100 5 is_stmt 0 view .LVU472
 1749              	.LBE160:
 1750              	.LBE159:
 558:Middlewares/lvgl/src/core/lv_obj_pos.c **** 
 1751              		.loc 1 558 5 is_stmt 1 view .LVU473
 1752              	.LBB161:
 1753              	.LBI161:
 295:Middlewares/lvgl/src/core/lv_obj_style_gen.h **** {
 1754              		.loc 2 295 26 view .LVU474
 1755              	.LBB162:
 297:Middlewares/lvgl/src/core/lv_obj_style_gen.h ****     return (lv_coord_t)v.num;
 1756              		.loc 2 297 5 view .LVU475
 297:Middlewares/lvgl/src/core/lv_obj_style_gen.h ****     return (lv_coord_t)v.num;
 1757              		.loc 2 297 26 is_stmt 0 view .LVU476
 1758 001e 41F23202 		movw	r2, #4146
 1759 0022 0021     		movs	r1, #0
 1760 0024 2846     		mov	r0, r5
 1761 0026 FFF7FEFF 		bl	lv_obj_get_style_prop
 1762              	.LVL155:
 1763 002a 0446     		mov	r4, r0
 1764              	.LVL156:
 1765              		.loc 2 298 5 is_stmt 1 view .LVU477
 1766              		.loc 2 298 5 is_stmt 0 view .LVU478
 1767              	.LBE162:
 1768              	.LBE161:
 560:Middlewares/lvgl/src/core/lv_obj_pos.c **** }
 1769              		.loc 1 560 5 is_stmt 1 view .LVU479
 560:Middlewares/lvgl/src/core/lv_obj_pos.c **** }
 1770              		.loc 1 560 12 is_stmt 0 view .LVU480
 1771 002c 2846     		mov	r0, r5
ARM GAS  /tmp/ccgCqJqT.s 			page 59


 1772 002e FFF7FEFF 		bl	lv_obj_get_height
 1773              	.LVL157:
 1774 0032 83B2     		uxth	r3, r0
 560:Middlewares/lvgl/src/core/lv_obj_pos.c **** }
 1775              		.loc 1 560 35 view .LVU481
 1776 0034 DB1B     		subs	r3, r3, r7
 1777 0036 9BB2     		uxth	r3, r3
 560:Middlewares/lvgl/src/core/lv_obj_pos.c **** }
 1778              		.loc 1 560 41 view .LVU482
 1779 0038 9B1B     		subs	r3, r3, r6
 1780 003a 9BB2     		uxth	r3, r3
 560:Middlewares/lvgl/src/core/lv_obj_pos.c **** }
 1781              		.loc 1 560 54 view .LVU483
 1782 003c 6000     		lsls	r0, r4, #1
 1783 003e 80B2     		uxth	r0, r0
 560:Middlewares/lvgl/src/core/lv_obj_pos.c **** }
 1784              		.loc 1 560 50 view .LVU484
 1785 0040 181A     		subs	r0, r3, r0
 561:Middlewares/lvgl/src/core/lv_obj_pos.c **** 
 1786              		.loc 1 561 1 view .LVU485
 1787 0042 00B2     		sxth	r0, r0
 1788 0044 F8BD     		pop	{r3, r4, r5, r6, r7, pc}
 561:Middlewares/lvgl/src/core/lv_obj_pos.c **** 
 1789              		.loc 1 561 1 view .LVU486
 1790              		.cfi_endproc
 1791              	.LFE178:
 1793              		.section	.text.lv_obj_get_content_coords,"ax",%progbits
 1794              		.align	1
 1795              		.global	lv_obj_get_content_coords
 1796              		.syntax unified
 1797              		.thumb
 1798              		.thumb_func
 1799              		.fpu softvfp
 1801              	lv_obj_get_content_coords:
 1802              	.LVL158:
 1803              	.LFB179:
 564:Middlewares/lvgl/src/core/lv_obj_pos.c ****     LV_ASSERT_OBJ(obj, MY_CLASS);
 1804              		.loc 1 564 1 is_stmt 1 view -0
 1805              		.cfi_startproc
 1806              		@ args = 0, pretend = 0, frame = 0
 1807              		@ frame_needed = 0, uses_anonymous_args = 0
 564:Middlewares/lvgl/src/core/lv_obj_pos.c ****     LV_ASSERT_OBJ(obj, MY_CLASS);
 1808              		.loc 1 564 1 is_stmt 0 view .LVU488
 1809 0000 70B5     		push	{r4, r5, r6, lr}
 1810              	.LCFI33:
 1811              		.cfi_def_cfa_offset 16
 1812              		.cfi_offset 4, -16
 1813              		.cfi_offset 5, -12
 1814              		.cfi_offset 6, -8
 1815              		.cfi_offset 14, -4
 1816 0002 0646     		mov	r6, r0
 1817 0004 0C46     		mov	r4, r1
 565:Middlewares/lvgl/src/core/lv_obj_pos.c ****     lv_coord_t border_width = lv_obj_get_style_border_width(obj, LV_PART_MAIN);
 1818              		.loc 1 565 5 is_stmt 1 view .LVU489
 565:Middlewares/lvgl/src/core/lv_obj_pos.c ****     lv_coord_t border_width = lv_obj_get_style_border_width(obj, LV_PART_MAIN);
 1819              		.loc 1 565 5 view .LVU490
 565:Middlewares/lvgl/src/core/lv_obj_pos.c ****     lv_coord_t border_width = lv_obj_get_style_border_width(obj, LV_PART_MAIN);
ARM GAS  /tmp/ccgCqJqT.s 			page 60


 1820              		.loc 1 565 5 view .LVU491
 566:Middlewares/lvgl/src/core/lv_obj_pos.c **** 
 1821              		.loc 1 566 5 view .LVU492
 1822              	.LVL159:
 1823              	.LBB163:
 1824              	.LBI163:
 295:Middlewares/lvgl/src/core/lv_obj_style_gen.h **** {
 1825              		.loc 2 295 26 view .LVU493
 1826              	.LBB164:
 297:Middlewares/lvgl/src/core/lv_obj_style_gen.h ****     return (lv_coord_t)v.num;
 1827              		.loc 2 297 5 view .LVU494
 297:Middlewares/lvgl/src/core/lv_obj_style_gen.h ****     return (lv_coord_t)v.num;
 1828              		.loc 2 297 26 is_stmt 0 view .LVU495
 1829 0006 41F23202 		movw	r2, #4146
 1830 000a 0021     		movs	r1, #0
 1831              	.LVL160:
 297:Middlewares/lvgl/src/core/lv_obj_style_gen.h ****     return (lv_coord_t)v.num;
 1832              		.loc 2 297 26 view .LVU496
 1833 000c FFF7FEFF 		bl	lv_obj_get_style_prop
 1834              	.LVL161:
 297:Middlewares/lvgl/src/core/lv_obj_style_gen.h ****     return (lv_coord_t)v.num;
 1835              		.loc 2 297 26 view .LVU497
 1836 0010 0546     		mov	r5, r0
 1837              	.LVL162:
 1838              		.loc 2 298 5 is_stmt 1 view .LVU498
 1839              		.loc 2 298 5 is_stmt 0 view .LVU499
 1840              	.LBE164:
 1841              	.LBE163:
 568:Middlewares/lvgl/src/core/lv_obj_pos.c ****     lv_area_increase(area, -border_width, -border_width);
 1842              		.loc 1 568 5 is_stmt 1 view .LVU500
 1843 0012 2146     		mov	r1, r4
 1844 0014 3046     		mov	r0, r6
 1845 0016 FFF7FEFF 		bl	lv_obj_get_coords
 1846              	.LVL163:
 569:Middlewares/lvgl/src/core/lv_obj_pos.c ****     area->x1 += lv_obj_get_style_pad_left(obj, LV_PART_MAIN);
 1847              		.loc 1 569 5 view .LVU501
 1848 001a 6942     		rsbs	r1, r5, #0
 1849 001c 09B2     		sxth	r1, r1
 1850 001e 0A46     		mov	r2, r1
 1851 0020 2046     		mov	r0, r4
 1852 0022 FFF7FEFF 		bl	lv_area_increase
 1853              	.LVL164:
 570:Middlewares/lvgl/src/core/lv_obj_pos.c ****     area->x2 -= lv_obj_get_style_pad_right(obj, LV_PART_MAIN);
 1854              		.loc 1 570 5 view .LVU502
 1855              	.LBB165:
 1856              	.LBI165:
 103:Middlewares/lvgl/src/core/lv_obj_style_gen.h **** {
 1857              		.loc 2 103 26 view .LVU503
 1858              	.LBB166:
 105:Middlewares/lvgl/src/core/lv_obj_style_gen.h ****     return (lv_coord_t)v.num;
 1859              		.loc 2 105 5 view .LVU504
 105:Middlewares/lvgl/src/core/lv_obj_style_gen.h ****     return (lv_coord_t)v.num;
 1860              		.loc 2 105 26 is_stmt 0 view .LVU505
 1861 0026 41F21202 		movw	r2, #4114
 1862 002a 0021     		movs	r1, #0
 1863 002c 3046     		mov	r0, r6
 1864 002e FFF7FEFF 		bl	lv_obj_get_style_prop
ARM GAS  /tmp/ccgCqJqT.s 			page 61


 1865              	.LVL165:
 106:Middlewares/lvgl/src/core/lv_obj_style_gen.h **** }
 1866              		.loc 2 106 5 is_stmt 1 view .LVU506
 106:Middlewares/lvgl/src/core/lv_obj_style_gen.h **** }
 1867              		.loc 2 106 5 is_stmt 0 view .LVU507
 1868              	.LBE166:
 1869              	.LBE165:
 570:Middlewares/lvgl/src/core/lv_obj_pos.c ****     area->x2 -= lv_obj_get_style_pad_right(obj, LV_PART_MAIN);
 1870              		.loc 1 570 17 view .LVU508
 1871 0032 80B2     		uxth	r0, r0
 570:Middlewares/lvgl/src/core/lv_obj_pos.c ****     area->x2 -= lv_obj_get_style_pad_right(obj, LV_PART_MAIN);
 1872              		.loc 1 570 14 view .LVU509
 1873 0034 2388     		ldrh	r3, [r4]
 1874 0036 1844     		add	r0, r0, r3
 1875 0038 2080     		strh	r0, [r4]	@ movhi
 571:Middlewares/lvgl/src/core/lv_obj_pos.c ****     area->y1 += lv_obj_get_style_pad_top(obj, LV_PART_MAIN);
 1876              		.loc 1 571 5 is_stmt 1 view .LVU510
 1877              	.LVL166:
 1878              	.LBB167:
 1879              	.LBI167:
 109:Middlewares/lvgl/src/core/lv_obj_style_gen.h **** {
 1880              		.loc 2 109 26 view .LVU511
 1881              	.LBB168:
 111:Middlewares/lvgl/src/core/lv_obj_style_gen.h ****     return (lv_coord_t)v.num;
 1882              		.loc 2 111 5 view .LVU512
 111:Middlewares/lvgl/src/core/lv_obj_style_gen.h ****     return (lv_coord_t)v.num;
 1883              		.loc 2 111 26 is_stmt 0 view .LVU513
 1884 003a 41F21302 		movw	r2, #4115
 1885 003e 0021     		movs	r1, #0
 1886 0040 3046     		mov	r0, r6
 1887 0042 FFF7FEFF 		bl	lv_obj_get_style_prop
 1888              	.LVL167:
 112:Middlewares/lvgl/src/core/lv_obj_style_gen.h **** }
 1889              		.loc 2 112 5 is_stmt 1 view .LVU514
 112:Middlewares/lvgl/src/core/lv_obj_style_gen.h **** }
 1890              		.loc 2 112 5 is_stmt 0 view .LVU515
 1891              	.LBE168:
 1892              	.LBE167:
 571:Middlewares/lvgl/src/core/lv_obj_pos.c ****     area->y1 += lv_obj_get_style_pad_top(obj, LV_PART_MAIN);
 1893              		.loc 1 571 17 view .LVU516
 1894 0046 83B2     		uxth	r3, r0
 571:Middlewares/lvgl/src/core/lv_obj_pos.c ****     area->y1 += lv_obj_get_style_pad_top(obj, LV_PART_MAIN);
 1895              		.loc 1 571 14 view .LVU517
 1896 0048 A088     		ldrh	r0, [r4, #4]
 1897 004a C01A     		subs	r0, r0, r3
 1898 004c A080     		strh	r0, [r4, #4]	@ movhi
 572:Middlewares/lvgl/src/core/lv_obj_pos.c ****     area->y2 -= lv_obj_get_style_pad_bottom(obj, LV_PART_MAIN);
 1899              		.loc 1 572 5 is_stmt 1 view .LVU518
 1900              	.LVL168:
 1901              	.LBB169:
 1902              	.LBI169:
  91:Middlewares/lvgl/src/core/lv_obj_style_gen.h **** {
 1903              		.loc 2 91 26 view .LVU519
 1904              	.LBB170:
  93:Middlewares/lvgl/src/core/lv_obj_style_gen.h ****     return (lv_coord_t)v.num;
 1905              		.loc 2 93 5 view .LVU520
  93:Middlewares/lvgl/src/core/lv_obj_style_gen.h ****     return (lv_coord_t)v.num;
ARM GAS  /tmp/ccgCqJqT.s 			page 62


 1906              		.loc 2 93 26 is_stmt 0 view .LVU521
 1907 004e 41F21002 		movw	r2, #4112
 1908 0052 0021     		movs	r1, #0
 1909 0054 3046     		mov	r0, r6
 1910 0056 FFF7FEFF 		bl	lv_obj_get_style_prop
 1911              	.LVL169:
  94:Middlewares/lvgl/src/core/lv_obj_style_gen.h **** }
 1912              		.loc 2 94 5 is_stmt 1 view .LVU522
  94:Middlewares/lvgl/src/core/lv_obj_style_gen.h **** }
 1913              		.loc 2 94 5 is_stmt 0 view .LVU523
 1914              	.LBE170:
 1915              	.LBE169:
 572:Middlewares/lvgl/src/core/lv_obj_pos.c ****     area->y2 -= lv_obj_get_style_pad_bottom(obj, LV_PART_MAIN);
 1916              		.loc 1 572 17 view .LVU524
 1917 005a 80B2     		uxth	r0, r0
 572:Middlewares/lvgl/src/core/lv_obj_pos.c ****     area->y2 -= lv_obj_get_style_pad_bottom(obj, LV_PART_MAIN);
 1918              		.loc 1 572 14 view .LVU525
 1919 005c 6388     		ldrh	r3, [r4, #2]
 1920 005e 1844     		add	r0, r0, r3
 1921 0060 6080     		strh	r0, [r4, #2]	@ movhi
 573:Middlewares/lvgl/src/core/lv_obj_pos.c **** 
 1922              		.loc 1 573 5 is_stmt 1 view .LVU526
 1923              	.LVL170:
 1924              	.LBB171:
 1925              	.LBI171:
  97:Middlewares/lvgl/src/core/lv_obj_style_gen.h **** {
 1926              		.loc 2 97 26 view .LVU527
 1927              	.LBB172:
  99:Middlewares/lvgl/src/core/lv_obj_style_gen.h ****     return (lv_coord_t)v.num;
 1928              		.loc 2 99 5 view .LVU528
  99:Middlewares/lvgl/src/core/lv_obj_style_gen.h ****     return (lv_coord_t)v.num;
 1929              		.loc 2 99 26 is_stmt 0 view .LVU529
 1930 0062 41F21102 		movw	r2, #4113
 1931 0066 0021     		movs	r1, #0
 1932 0068 3046     		mov	r0, r6
 1933 006a FFF7FEFF 		bl	lv_obj_get_style_prop
 1934              	.LVL171:
 100:Middlewares/lvgl/src/core/lv_obj_style_gen.h **** }
 1935              		.loc 2 100 5 is_stmt 1 view .LVU530
 100:Middlewares/lvgl/src/core/lv_obj_style_gen.h **** }
 1936              		.loc 2 100 5 is_stmt 0 view .LVU531
 1937              	.LBE172:
 1938              	.LBE171:
 573:Middlewares/lvgl/src/core/lv_obj_pos.c **** 
 1939              		.loc 1 573 17 view .LVU532
 1940 006e 83B2     		uxth	r3, r0
 573:Middlewares/lvgl/src/core/lv_obj_pos.c **** 
 1941              		.loc 1 573 14 view .LVU533
 1942 0070 E088     		ldrh	r0, [r4, #6]
 1943 0072 C01A     		subs	r0, r0, r3
 1944 0074 E080     		strh	r0, [r4, #6]	@ movhi
 575:Middlewares/lvgl/src/core/lv_obj_pos.c **** 
 1945              		.loc 1 575 1 view .LVU534
 1946 0076 70BD     		pop	{r4, r5, r6, pc}
 575:Middlewares/lvgl/src/core/lv_obj_pos.c **** 
 1947              		.loc 1 575 1 view .LVU535
 1948              		.cfi_endproc
ARM GAS  /tmp/ccgCqJqT.s 			page 63


 1949              	.LFE179:
 1951              		.section	.text.lv_obj_get_self_width,"ax",%progbits
 1952              		.align	1
 1953              		.global	lv_obj_get_self_width
 1954              		.syntax unified
 1955              		.thumb
 1956              		.thumb_func
 1957              		.fpu softvfp
 1959              	lv_obj_get_self_width:
 1960              	.LVL172:
 1961              	.LFB180:
 578:Middlewares/lvgl/src/core/lv_obj_pos.c ****     lv_point_t p = {0, LV_COORD_MIN};
 1962              		.loc 1 578 1 is_stmt 1 view -0
 1963              		.cfi_startproc
 1964              		@ args = 0, pretend = 0, frame = 8
 1965              		@ frame_needed = 0, uses_anonymous_args = 0
 578:Middlewares/lvgl/src/core/lv_obj_pos.c ****     lv_point_t p = {0, LV_COORD_MIN};
 1966              		.loc 1 578 1 is_stmt 0 view .LVU537
 1967 0000 00B5     		push	{lr}
 1968              	.LCFI34:
 1969              		.cfi_def_cfa_offset 4
 1970              		.cfi_offset 14, -4
 1971 0002 83B0     		sub	sp, sp, #12
 1972              	.LCFI35:
 1973              		.cfi_def_cfa_offset 16
 579:Middlewares/lvgl/src/core/lv_obj_pos.c ****     lv_event_send((lv_obj_t * )obj, LV_EVENT_GET_SELF_SIZE, &p);
 1974              		.loc 1 579 5 is_stmt 1 view .LVU538
 579:Middlewares/lvgl/src/core/lv_obj_pos.c ****     lv_event_send((lv_obj_t * )obj, LV_EVENT_GET_SELF_SIZE, &p);
 1975              		.loc 1 579 16 is_stmt 0 view .LVU539
 1976 0004 0023     		movs	r3, #0
 1977 0006 ADF80430 		strh	r3, [sp, #4]	@ movhi
 1978 000a 4FF42043 		mov	r3, #40960
 1979 000e ADF80630 		strh	r3, [sp, #6]	@ movhi
 580:Middlewares/lvgl/src/core/lv_obj_pos.c ****     return p.x;
 1980              		.loc 1 580 5 is_stmt 1 view .LVU540
 1981 0012 01AA     		add	r2, sp, #4
 1982 0014 2621     		movs	r1, #38
 1983 0016 FFF7FEFF 		bl	lv_event_send
 1984              	.LVL173:
 581:Middlewares/lvgl/src/core/lv_obj_pos.c **** }
 1985              		.loc 1 581 5 view .LVU541
 582:Middlewares/lvgl/src/core/lv_obj_pos.c **** 
 1986              		.loc 1 582 1 is_stmt 0 view .LVU542
 1987 001a BDF90400 		ldrsh	r0, [sp, #4]
 1988 001e 03B0     		add	sp, sp, #12
 1989              	.LCFI36:
 1990              		.cfi_def_cfa_offset 4
 1991              		@ sp needed
 1992 0020 5DF804FB 		ldr	pc, [sp], #4
 1993              		.cfi_endproc
 1994              	.LFE180:
 1996              		.section	.text.lv_obj_get_self_height,"ax",%progbits
 1997              		.align	1
 1998              		.global	lv_obj_get_self_height
 1999              		.syntax unified
 2000              		.thumb
 2001              		.thumb_func
ARM GAS  /tmp/ccgCqJqT.s 			page 64


 2002              		.fpu softvfp
 2004              	lv_obj_get_self_height:
 2005              	.LVL174:
 2006              	.LFB181:
 585:Middlewares/lvgl/src/core/lv_obj_pos.c ****     lv_point_t p = {LV_COORD_MIN, 0};
 2007              		.loc 1 585 1 is_stmt 1 view -0
 2008              		.cfi_startproc
 2009              		@ args = 0, pretend = 0, frame = 8
 2010              		@ frame_needed = 0, uses_anonymous_args = 0
 585:Middlewares/lvgl/src/core/lv_obj_pos.c ****     lv_point_t p = {LV_COORD_MIN, 0};
 2011              		.loc 1 585 1 is_stmt 0 view .LVU544
 2012 0000 00B5     		push	{lr}
 2013              	.LCFI37:
 2014              		.cfi_def_cfa_offset 4
 2015              		.cfi_offset 14, -4
 2016 0002 83B0     		sub	sp, sp, #12
 2017              	.LCFI38:
 2018              		.cfi_def_cfa_offset 16
 586:Middlewares/lvgl/src/core/lv_obj_pos.c ****     lv_event_send((lv_obj_t * )obj, LV_EVENT_GET_SELF_SIZE, &p);
 2019              		.loc 1 586 5 is_stmt 1 view .LVU545
 586:Middlewares/lvgl/src/core/lv_obj_pos.c ****     lv_event_send((lv_obj_t * )obj, LV_EVENT_GET_SELF_SIZE, &p);
 2020              		.loc 1 586 16 is_stmt 0 view .LVU546
 2021 0004 4FF42043 		mov	r3, #40960
 2022 0008 ADF80430 		strh	r3, [sp, #4]	@ movhi
 2023 000c 0023     		movs	r3, #0
 2024 000e ADF80630 		strh	r3, [sp, #6]	@ movhi
 587:Middlewares/lvgl/src/core/lv_obj_pos.c ****     return p.y;
 2025              		.loc 1 587 5 is_stmt 1 view .LVU547
 2026 0012 01AA     		add	r2, sp, #4
 2027 0014 2621     		movs	r1, #38
 2028 0016 FFF7FEFF 		bl	lv_event_send
 2029              	.LVL175:
 588:Middlewares/lvgl/src/core/lv_obj_pos.c **** }
 2030              		.loc 1 588 5 view .LVU548
 589:Middlewares/lvgl/src/core/lv_obj_pos.c **** 
 2031              		.loc 1 589 1 is_stmt 0 view .LVU549
 2032 001a BDF90600 		ldrsh	r0, [sp, #6]
 2033 001e 03B0     		add	sp, sp, #12
 2034              	.LCFI39:
 2035              		.cfi_def_cfa_offset 4
 2036              		@ sp needed
 2037 0020 5DF804FB 		ldr	pc, [sp], #4
 2038              		.cfi_endproc
 2039              	.LFE181:
 2041              		.section	.text.lv_obj_refresh_self_size,"ax",%progbits
 2042              		.align	1
 2043              		.global	lv_obj_refresh_self_size
 2044              		.syntax unified
 2045              		.thumb
 2046              		.thumb_func
 2047              		.fpu softvfp
 2049              	lv_obj_refresh_self_size:
 2050              	.LVL176:
 2051              	.LFB182:
 592:Middlewares/lvgl/src/core/lv_obj_pos.c ****     lv_coord_t w_set = lv_obj_get_style_width(obj, LV_PART_MAIN);
 2052              		.loc 1 592 1 is_stmt 1 view -0
 2053              		.cfi_startproc
ARM GAS  /tmp/ccgCqJqT.s 			page 65


 2054              		@ args = 0, pretend = 0, frame = 0
 2055              		@ frame_needed = 0, uses_anonymous_args = 0
 592:Middlewares/lvgl/src/core/lv_obj_pos.c ****     lv_coord_t w_set = lv_obj_get_style_width(obj, LV_PART_MAIN);
 2056              		.loc 1 592 1 is_stmt 0 view .LVU551
 2057 0000 38B5     		push	{r3, r4, r5, lr}
 2058              	.LCFI40:
 2059              		.cfi_def_cfa_offset 16
 2060              		.cfi_offset 3, -16
 2061              		.cfi_offset 4, -12
 2062              		.cfi_offset 5, -8
 2063              		.cfi_offset 14, -4
 2064 0002 0446     		mov	r4, r0
 593:Middlewares/lvgl/src/core/lv_obj_pos.c ****     lv_coord_t h_set = lv_obj_get_style_height(obj, LV_PART_MAIN);
 2065              		.loc 1 593 5 is_stmt 1 view .LVU552
 2066              	.LVL177:
 2067              	.LBB173:
 2068              	.LBI173:
   1:Middlewares/lvgl/src/core/lv_obj_style_gen.h **** {
 2069              		.loc 2 1 26 view .LVU553
 2070              	.LBB174:
   3:Middlewares/lvgl/src/core/lv_obj_style_gen.h ****     return (lv_coord_t)v.num;
 2071              		.loc 2 3 5 view .LVU554
   3:Middlewares/lvgl/src/core/lv_obj_style_gen.h ****     return (lv_coord_t)v.num;
 2072              		.loc 2 3 26 is_stmt 0 view .LVU555
 2073 0004 41F20102 		movw	r2, #4097
 2074 0008 0021     		movs	r1, #0
 2075 000a FFF7FEFF 		bl	lv_obj_get_style_prop
 2076              	.LVL178:
   4:Middlewares/lvgl/src/core/lv_obj_style_gen.h **** }
 2077              		.loc 2 4 5 is_stmt 1 view .LVU556
   4:Middlewares/lvgl/src/core/lv_obj_style_gen.h **** }
 2078              		.loc 2 4 12 is_stmt 0 view .LVU557
 2079 000e 05B2     		sxth	r5, r0
 2080              	.LVL179:
   4:Middlewares/lvgl/src/core/lv_obj_style_gen.h **** }
 2081              		.loc 2 4 12 view .LVU558
 2082              	.LBE174:
 2083              	.LBE173:
 594:Middlewares/lvgl/src/core/lv_obj_pos.c ****     if(w_set != LV_SIZE_CONTENT && h_set != LV_SIZE_CONTENT) return false;
 2084              		.loc 1 594 5 is_stmt 1 view .LVU559
 2085              	.LBB175:
 2086              	.LBI175:
  19:Middlewares/lvgl/src/core/lv_obj_style_gen.h **** {
 2087              		.loc 2 19 26 view .LVU560
 2088              	.LBB176:
  21:Middlewares/lvgl/src/core/lv_obj_style_gen.h ****     return (lv_coord_t)v.num;
 2089              		.loc 2 21 5 view .LVU561
  21:Middlewares/lvgl/src/core/lv_obj_style_gen.h ****     return (lv_coord_t)v.num;
 2090              		.loc 2 21 26 is_stmt 0 view .LVU562
 2091 0010 41F20402 		movw	r2, #4100
 2092 0014 0021     		movs	r1, #0
 2093 0016 2046     		mov	r0, r4
 2094 0018 FFF7FEFF 		bl	lv_obj_get_style_prop
 2095              	.LVL180:
  22:Middlewares/lvgl/src/core/lv_obj_style_gen.h **** }
 2096              		.loc 2 22 5 is_stmt 1 view .LVU563
  22:Middlewares/lvgl/src/core/lv_obj_style_gen.h **** }
ARM GAS  /tmp/ccgCqJqT.s 			page 66


 2097              		.loc 2 22 5 is_stmt 0 view .LVU564
 2098              	.LBE176:
 2099              	.LBE175:
 595:Middlewares/lvgl/src/core/lv_obj_pos.c **** 
 2100              		.loc 1 595 5 is_stmt 1 view .LVU565
 595:Middlewares/lvgl/src/core/lv_obj_pos.c **** 
 2101              		.loc 1 595 7 is_stmt 0 view .LVU566
 2102 001c 42F2D173 		movw	r3, #10193
 2103 0020 9D42     		cmp	r5, r3
 2104 0022 02D0     		beq	.L92
 2105 0024 00B2     		sxth	r0, r0
 595:Middlewares/lvgl/src/core/lv_obj_pos.c **** 
 2106              		.loc 1 595 33 discriminator 1 view .LVU567
 2107 0026 9842     		cmp	r0, r3
 2108 0028 04D1     		bne	.L94
 2109              	.LVL181:
 2110              	.L92:
 597:Middlewares/lvgl/src/core/lv_obj_pos.c ****     return true;
 2111              		.loc 1 597 5 is_stmt 1 view .LVU568
 2112 002a 2046     		mov	r0, r4
 2113 002c FFF7FEFF 		bl	lv_obj_mark_layout_as_dirty
 2114              	.LVL182:
 598:Middlewares/lvgl/src/core/lv_obj_pos.c **** }
 2115              		.loc 1 598 5 view .LVU569
 598:Middlewares/lvgl/src/core/lv_obj_pos.c **** }
 2116              		.loc 1 598 12 is_stmt 0 view .LVU570
 2117 0030 0120     		movs	r0, #1
 2118              	.L93:
 599:Middlewares/lvgl/src/core/lv_obj_pos.c **** 
 2119              		.loc 1 599 1 view .LVU571
 2120 0032 38BD     		pop	{r3, r4, r5, pc}
 2121              	.LVL183:
 2122              	.L94:
 595:Middlewares/lvgl/src/core/lv_obj_pos.c **** 
 2123              		.loc 1 595 69 view .LVU572
 2124 0034 0020     		movs	r0, #0
 2125              	.LVL184:
 595:Middlewares/lvgl/src/core/lv_obj_pos.c **** 
 2126              		.loc 1 595 69 view .LVU573
 2127 0036 FCE7     		b	.L93
 2128              		.cfi_endproc
 2129              	.LFE182:
 2131              		.section	.text.lv_obj_move_children_by,"ax",%progbits
 2132              		.align	1
 2133              		.global	lv_obj_move_children_by
 2134              		.syntax unified
 2135              		.thumb
 2136              		.thumb_func
 2137              		.fpu softvfp
 2139              	lv_obj_move_children_by:
 2140              	.LVL185:
 2141              	.LFB185:
 753:Middlewares/lvgl/src/core/lv_obj_pos.c ****     uint32_t i;
 2142              		.loc 1 753 1 is_stmt 1 view -0
 2143              		.cfi_startproc
 2144              		@ args = 0, pretend = 0, frame = 0
 2145              		@ frame_needed = 0, uses_anonymous_args = 0
ARM GAS  /tmp/ccgCqJqT.s 			page 67


 753:Middlewares/lvgl/src/core/lv_obj_pos.c ****     uint32_t i;
 2146              		.loc 1 753 1 is_stmt 0 view .LVU575
 2147 0000 2DE9F047 		push	{r4, r5, r6, r7, r8, r9, r10, lr}
 2148              	.LCFI41:
 2149              		.cfi_def_cfa_offset 32
 2150              		.cfi_offset 4, -32
 2151              		.cfi_offset 5, -28
 2152              		.cfi_offset 6, -24
 2153              		.cfi_offset 7, -20
 2154              		.cfi_offset 8, -16
 2155              		.cfi_offset 9, -12
 2156              		.cfi_offset 10, -8
 2157              		.cfi_offset 14, -4
 2158 0004 8246     		mov	r10, r0
 2159 0006 0F46     		mov	r7, r1
 2160 0008 1646     		mov	r6, r2
 2161 000a 9946     		mov	r9, r3
 754:Middlewares/lvgl/src/core/lv_obj_pos.c ****     uint32_t child_cnt = lv_obj_get_child_cnt(obj);
 2162              		.loc 1 754 5 is_stmt 1 view .LVU576
 755:Middlewares/lvgl/src/core/lv_obj_pos.c ****     for(i = 0; i < child_cnt; i++) {
 2163              		.loc 1 755 5 view .LVU577
 755:Middlewares/lvgl/src/core/lv_obj_pos.c ****     for(i = 0; i < child_cnt; i++) {
 2164              		.loc 1 755 26 is_stmt 0 view .LVU578
 2165 000c FFF7FEFF 		bl	lv_obj_get_child_cnt
 2166              	.LVL186:
 755:Middlewares/lvgl/src/core/lv_obj_pos.c ****     for(i = 0; i < child_cnt; i++) {
 2167              		.loc 1 755 26 view .LVU579
 2168 0010 8046     		mov	r8, r0
 2169              	.LVL187:
 756:Middlewares/lvgl/src/core/lv_obj_pos.c ****         lv_obj_t * child = lv_obj_get_child(obj, i);
 2170              		.loc 1 756 5 is_stmt 1 view .LVU580
 756:Middlewares/lvgl/src/core/lv_obj_pos.c ****         lv_obj_t * child = lv_obj_get_child(obj, i);
 2171              		.loc 1 756 11 is_stmt 0 view .LVU581
 2172 0012 0025     		movs	r5, #0
 756:Middlewares/lvgl/src/core/lv_obj_pos.c ****         lv_obj_t * child = lv_obj_get_child(obj, i);
 2173              		.loc 1 756 5 view .LVU582
 2174 0014 16E0     		b	.L97
 2175              	.LVL188:
 2176              	.L98:
 2177              	.LBB177:
 759:Middlewares/lvgl/src/core/lv_obj_pos.c ****         child->coords.y1 += y_diff;
 2178              		.loc 1 759 9 is_stmt 1 view .LVU583
 759:Middlewares/lvgl/src/core/lv_obj_pos.c ****         child->coords.y1 += y_diff;
 2179              		.loc 1 759 26 is_stmt 0 view .LVU584
 2180 0016 BBB2     		uxth	r3, r7
 2181 0018 A28A     		ldrh	r2, [r4, #20]
 2182 001a 1A44     		add	r2, r2, r3
 2183 001c A282     		strh	r2, [r4, #20]	@ movhi
 760:Middlewares/lvgl/src/core/lv_obj_pos.c ****         child->coords.x2 += x_diff;
 2184              		.loc 1 760 9 is_stmt 1 view .LVU585
 760:Middlewares/lvgl/src/core/lv_obj_pos.c ****         child->coords.x2 += x_diff;
 2185              		.loc 1 760 26 is_stmt 0 view .LVU586
 2186 001e 1FFA86FC 		uxth	ip, r6
 2187 0022 E28A     		ldrh	r2, [r4, #22]
 2188 0024 6244     		add	r2, r2, ip
 2189 0026 E282     		strh	r2, [r4, #22]	@ movhi
 761:Middlewares/lvgl/src/core/lv_obj_pos.c ****         child->coords.y2 += y_diff;
ARM GAS  /tmp/ccgCqJqT.s 			page 68


 2190              		.loc 1 761 9 is_stmt 1 view .LVU587
 761:Middlewares/lvgl/src/core/lv_obj_pos.c ****         child->coords.y2 += y_diff;
 2191              		.loc 1 761 26 is_stmt 0 view .LVU588
 2192 0028 228B     		ldrh	r2, [r4, #24]
 2193 002a 1344     		add	r3, r3, r2
 2194 002c 2383     		strh	r3, [r4, #24]	@ movhi
 762:Middlewares/lvgl/src/core/lv_obj_pos.c **** 
 2195              		.loc 1 762 9 is_stmt 1 view .LVU589
 762:Middlewares/lvgl/src/core/lv_obj_pos.c **** 
 2196              		.loc 1 762 26 is_stmt 0 view .LVU590
 2197 002e 638B     		ldrh	r3, [r4, #26]
 2198 0030 9C44     		add	ip, ip, r3
 2199 0032 A4F81AC0 		strh	ip, [r4, #26]	@ movhi
 764:Middlewares/lvgl/src/core/lv_obj_pos.c ****     }
 2200              		.loc 1 764 9 is_stmt 1 view .LVU591
 2201 0036 0023     		movs	r3, #0
 2202 0038 3246     		mov	r2, r6
 2203 003a 3946     		mov	r1, r7
 2204 003c 2046     		mov	r0, r4
 2205 003e FFF7FEFF 		bl	lv_obj_move_children_by
 2206              	.LVL189:
 2207              	.L99:
 764:Middlewares/lvgl/src/core/lv_obj_pos.c ****     }
 2208              		.loc 1 764 9 is_stmt 0 view .LVU592
 2209              	.LBE177:
 756:Middlewares/lvgl/src/core/lv_obj_pos.c ****         lv_obj_t * child = lv_obj_get_child(obj, i);
 2210              		.loc 1 756 31 is_stmt 1 discriminator 2 view .LVU593
 756:Middlewares/lvgl/src/core/lv_obj_pos.c ****         lv_obj_t * child = lv_obj_get_child(obj, i);
 2211              		.loc 1 756 32 is_stmt 0 discriminator 2 view .LVU594
 2212 0042 0135     		adds	r5, r5, #1
 2213              	.LVL190:
 2214              	.L97:
 756:Middlewares/lvgl/src/core/lv_obj_pos.c ****         lv_obj_t * child = lv_obj_get_child(obj, i);
 2215              		.loc 1 756 16 is_stmt 1 discriminator 1 view .LVU595
 756:Middlewares/lvgl/src/core/lv_obj_pos.c ****         lv_obj_t * child = lv_obj_get_child(obj, i);
 2216              		.loc 1 756 5 is_stmt 0 discriminator 1 view .LVU596
 2217 0044 4545     		cmp	r5, r8
 2218 0046 0ED2     		bcs	.L102
 2219              	.LBB178:
 757:Middlewares/lvgl/src/core/lv_obj_pos.c ****         if(ignore_floating && lv_obj_has_flag(child, LV_OBJ_FLAG_FLOATING)) continue;
 2220              		.loc 1 757 9 is_stmt 1 view .LVU597
 757:Middlewares/lvgl/src/core/lv_obj_pos.c ****         if(ignore_floating && lv_obj_has_flag(child, LV_OBJ_FLAG_FLOATING)) continue;
 2221              		.loc 1 757 28 is_stmt 0 view .LVU598
 2222 0048 2946     		mov	r1, r5
 2223 004a 5046     		mov	r0, r10
 2224 004c FFF7FEFF 		bl	lv_obj_get_child
 2225              	.LVL191:
 2226 0050 0446     		mov	r4, r0
 2227              	.LVL192:
 758:Middlewares/lvgl/src/core/lv_obj_pos.c ****         child->coords.x1 += x_diff;
 2228              		.loc 1 758 9 is_stmt 1 view .LVU599
 758:Middlewares/lvgl/src/core/lv_obj_pos.c ****         child->coords.x1 += x_diff;
 2229              		.loc 1 758 11 is_stmt 0 view .LVU600
 2230 0052 B9F1000F 		cmp	r9, #0
 2231 0056 DED0     		beq	.L98
 758:Middlewares/lvgl/src/core/lv_obj_pos.c ****         child->coords.x1 += x_diff;
 2232              		.loc 1 758 31 discriminator 1 view .LVU601
ARM GAS  /tmp/ccgCqJqT.s 			page 69


 2233 0058 4FF48031 		mov	r1, #65536
 2234 005c FFF7FEFF 		bl	lv_obj_has_flag
 2235              	.LVL193:
 758:Middlewares/lvgl/src/core/lv_obj_pos.c ****         child->coords.x1 += x_diff;
 2236              		.loc 1 758 28 discriminator 1 view .LVU602
 2237 0060 0028     		cmp	r0, #0
 2238 0062 D8D0     		beq	.L98
 2239 0064 EDE7     		b	.L99
 2240              	.LVL194:
 2241              	.L102:
 758:Middlewares/lvgl/src/core/lv_obj_pos.c ****         child->coords.x1 += x_diff;
 2242              		.loc 1 758 28 discriminator 1 view .LVU603
 2243              	.LBE178:
 766:Middlewares/lvgl/src/core/lv_obj_pos.c **** 
 2244              		.loc 1 766 1 view .LVU604
 2245 0066 BDE8F087 		pop	{r4, r5, r6, r7, r8, r9, r10, pc}
 766:Middlewares/lvgl/src/core/lv_obj_pos.c **** 
 2246              		.loc 1 766 1 view .LVU605
 2247              		.cfi_endproc
 2248              	.LFE185:
 2250              		.section	.text.lv_obj_area_is_visible,"ax",%progbits
 2251              		.align	1
 2252              		.global	lv_obj_area_is_visible
 2253              		.syntax unified
 2254              		.thumb
 2255              		.thumb_func
 2256              		.fpu softvfp
 2258              	lv_obj_area_is_visible:
 2259              	.LVL195:
 2260              	.LFB188:
 798:Middlewares/lvgl/src/core/lv_obj_pos.c ****     if(lv_obj_has_flag(obj, LV_OBJ_FLAG_HIDDEN)) return false;
 2261              		.loc 1 798 1 is_stmt 1 view -0
 2262              		.cfi_startproc
 2263              		@ args = 0, pretend = 0, frame = 8
 2264              		@ frame_needed = 0, uses_anonymous_args = 0
 798:Middlewares/lvgl/src/core/lv_obj_pos.c ****     if(lv_obj_has_flag(obj, LV_OBJ_FLAG_HIDDEN)) return false;
 2265              		.loc 1 798 1 is_stmt 0 view .LVU607
 2266 0000 2DE9F041 		push	{r4, r5, r6, r7, r8, lr}
 2267              	.LCFI42:
 2268              		.cfi_def_cfa_offset 24
 2269              		.cfi_offset 4, -24
 2270              		.cfi_offset 5, -20
 2271              		.cfi_offset 6, -16
 2272              		.cfi_offset 7, -12
 2273              		.cfi_offset 8, -8
 2274              		.cfi_offset 14, -4
 2275 0004 82B0     		sub	sp, sp, #8
 2276              	.LCFI43:
 2277              		.cfi_def_cfa_offset 32
 2278 0006 0446     		mov	r4, r0
 2279 0008 0D46     		mov	r5, r1
 799:Middlewares/lvgl/src/core/lv_obj_pos.c **** 
 2280              		.loc 1 799 5 is_stmt 1 view .LVU608
 799:Middlewares/lvgl/src/core/lv_obj_pos.c **** 
 2281              		.loc 1 799 8 is_stmt 0 view .LVU609
 2282 000a 0121     		movs	r1, #1
 2283              	.LVL196:
ARM GAS  /tmp/ccgCqJqT.s 			page 70


 799:Middlewares/lvgl/src/core/lv_obj_pos.c **** 
 2284              		.loc 1 799 8 view .LVU610
 2285 000c FFF7FEFF 		bl	lv_obj_has_flag
 2286              	.LVL197:
 799:Middlewares/lvgl/src/core/lv_obj_pos.c **** 
 2287              		.loc 1 799 7 view .LVU611
 2288 0010 20B1     		cbz	r0, .L113
 799:Middlewares/lvgl/src/core/lv_obj_pos.c **** 
 2289              		.loc 1 799 57 view .LVU612
 2290 0012 0027     		movs	r7, #0
 2291              	.LVL198:
 2292              	.L104:
 837:Middlewares/lvgl/src/core/lv_obj_pos.c **** 
 2293              		.loc 1 837 1 view .LVU613
 2294 0014 3846     		mov	r0, r7
 2295 0016 02B0     		add	sp, sp, #8
 2296              	.LCFI44:
 2297              		.cfi_remember_state
 2298              		.cfi_def_cfa_offset 24
 2299              		@ sp needed
 2300 0018 BDE8F081 		pop	{r4, r5, r6, r7, r8, pc}
 2301              	.LVL199:
 2302              	.L113:
 2303              	.LCFI45:
 2304              		.cfi_restore_state
 837:Middlewares/lvgl/src/core/lv_obj_pos.c **** 
 2305              		.loc 1 837 1 view .LVU614
 2306 001c 0646     		mov	r6, r0
 802:Middlewares/lvgl/src/core/lv_obj_pos.c ****     lv_disp_t * disp   = lv_obj_get_disp(obj_scr);
 2307              		.loc 1 802 5 is_stmt 1 view .LVU615
 802:Middlewares/lvgl/src/core/lv_obj_pos.c ****     lv_disp_t * disp   = lv_obj_get_disp(obj_scr);
 2308              		.loc 1 802 26 is_stmt 0 view .LVU616
 2309 001e 2046     		mov	r0, r4
 2310 0020 FFF7FEFF 		bl	lv_obj_get_screen
 2311              	.LVL200:
 2312 0024 0746     		mov	r7, r0
 2313              	.LVL201:
 803:Middlewares/lvgl/src/core/lv_obj_pos.c ****     if(obj_scr != lv_disp_get_scr_act(disp) &&
 2314              		.loc 1 803 5 is_stmt 1 view .LVU617
 803:Middlewares/lvgl/src/core/lv_obj_pos.c ****     if(obj_scr != lv_disp_get_scr_act(disp) &&
 2315              		.loc 1 803 26 is_stmt 0 view .LVU618
 2316 0026 FFF7FEFF 		bl	lv_obj_get_disp
 2317              	.LVL202:
 803:Middlewares/lvgl/src/core/lv_obj_pos.c ****     if(obj_scr != lv_disp_get_scr_act(disp) &&
 2318              		.loc 1 803 26 view .LVU619
 2319 002a 8046     		mov	r8, r0
 2320              	.LVL203:
 804:Middlewares/lvgl/src/core/lv_obj_pos.c ****        obj_scr != lv_disp_get_scr_prev(disp) &&
 2321              		.loc 1 804 5 is_stmt 1 view .LVU620
 804:Middlewares/lvgl/src/core/lv_obj_pos.c ****        obj_scr != lv_disp_get_scr_prev(disp) &&
 2322              		.loc 1 804 19 is_stmt 0 view .LVU621
 2323 002c FFF7FEFF 		bl	lv_disp_get_scr_act
 2324              	.LVL204:
 804:Middlewares/lvgl/src/core/lv_obj_pos.c ****        obj_scr != lv_disp_get_scr_prev(disp) &&
 2325              		.loc 1 804 7 view .LVU622
 2326 0030 8742     		cmp	r7, r0
 2327 0032 10D0     		beq	.L105
ARM GAS  /tmp/ccgCqJqT.s 			page 71


 805:Middlewares/lvgl/src/core/lv_obj_pos.c ****        obj_scr != lv_disp_get_layer_top(disp) &&
 2328              		.loc 1 805 19 discriminator 1 view .LVU623
 2329 0034 4046     		mov	r0, r8
 2330 0036 FFF7FEFF 		bl	lv_disp_get_scr_prev
 2331              	.LVL205:
 804:Middlewares/lvgl/src/core/lv_obj_pos.c ****        obj_scr != lv_disp_get_scr_prev(disp) &&
 2332              		.loc 1 804 45 discriminator 1 view .LVU624
 2333 003a 8742     		cmp	r7, r0
 2334 003c 0BD0     		beq	.L105
 806:Middlewares/lvgl/src/core/lv_obj_pos.c ****        obj_scr != lv_disp_get_layer_sys(disp))
 2335              		.loc 1 806 19 view .LVU625
 2336 003e 4046     		mov	r0, r8
 2337 0040 FFF7FEFF 		bl	lv_disp_get_layer_top
 2338              	.LVL206:
 805:Middlewares/lvgl/src/core/lv_obj_pos.c ****        obj_scr != lv_disp_get_layer_top(disp) &&
 2339              		.loc 1 805 46 view .LVU626
 2340 0044 8742     		cmp	r7, r0
 2341 0046 06D0     		beq	.L105
 807:Middlewares/lvgl/src/core/lv_obj_pos.c ****     {
 2342              		.loc 1 807 19 view .LVU627
 2343 0048 4046     		mov	r0, r8
 2344 004a FFF7FEFF 		bl	lv_disp_get_layer_sys
 2345              	.LVL207:
 806:Middlewares/lvgl/src/core/lv_obj_pos.c ****        obj_scr != lv_disp_get_layer_sys(disp))
 2346              		.loc 1 806 47 view .LVU628
 2347 004e 8742     		cmp	r7, r0
 2348 0050 01D0     		beq	.L105
 809:Middlewares/lvgl/src/core/lv_obj_pos.c ****     }
 2349              		.loc 1 809 16 view .LVU629
 2350 0052 3746     		mov	r7, r6
 2351              	.LVL208:
 809:Middlewares/lvgl/src/core/lv_obj_pos.c ****     }
 2352              		.loc 1 809 16 view .LVU630
 2353 0054 DEE7     		b	.L104
 2354              	.LVL209:
 2355              	.L105:
 813:Middlewares/lvgl/src/core/lv_obj_pos.c ****     lv_coord_t ext_size = _lv_obj_get_ext_draw_size(obj);
 2356              		.loc 1 813 5 is_stmt 1 view .LVU631
 814:Middlewares/lvgl/src/core/lv_obj_pos.c ****     lv_area_copy(&obj_coords, &obj->coords);
 2357              		.loc 1 814 5 view .LVU632
 814:Middlewares/lvgl/src/core/lv_obj_pos.c ****     lv_area_copy(&obj_coords, &obj->coords);
 2358              		.loc 1 814 27 is_stmt 0 view .LVU633
 2359 0056 2046     		mov	r0, r4
 2360 0058 FFF7FEFF 		bl	_lv_obj_get_ext_draw_size
 2361              	.LVL210:
 815:Middlewares/lvgl/src/core/lv_obj_pos.c ****     obj_coords.x1 -= ext_size;
 2362              		.loc 1 815 5 is_stmt 1 view .LVU634
 2363              	.LBB179:
 2364              	.LBI179:
 120:Middlewares/lvgl/src/core/../misc/../font/../misc/lv_area.h **** {
 2365              		.loc 3 120 20 view .LVU635
 2366              	.LBB180:
 122:Middlewares/lvgl/src/core/../misc/../font/../misc/lv_area.h ****     dest->y1 = src->y1;
 2367              		.loc 3 122 5 view .LVU636
 122:Middlewares/lvgl/src/core/../misc/../font/../misc/lv_area.h ****     dest->y1 = src->y1;
 2368              		.loc 3 122 19 is_stmt 0 view .LVU637
 2369 005c B4F91410 		ldrsh	r1, [r4, #20]
ARM GAS  /tmp/ccgCqJqT.s 			page 72


 122:Middlewares/lvgl/src/core/../misc/../font/../misc/lv_area.h ****     dest->y1 = src->y1;
 2370              		.loc 3 122 14 view .LVU638
 2371 0060 ADF80010 		strh	r1, [sp]	@ movhi
 123:Middlewares/lvgl/src/core/../misc/../font/../misc/lv_area.h ****     dest->x2 = src->x2;
 2372              		.loc 3 123 5 is_stmt 1 view .LVU639
 123:Middlewares/lvgl/src/core/../misc/../font/../misc/lv_area.h ****     dest->x2 = src->x2;
 2373              		.loc 3 123 19 is_stmt 0 view .LVU640
 2374 0064 B4F91620 		ldrsh	r2, [r4, #22]
 123:Middlewares/lvgl/src/core/../misc/../font/../misc/lv_area.h ****     dest->x2 = src->x2;
 2375              		.loc 3 123 14 view .LVU641
 2376 0068 ADF80220 		strh	r2, [sp, #2]	@ movhi
 124:Middlewares/lvgl/src/core/../misc/../font/../misc/lv_area.h ****     dest->y2 = src->y2;
 2377              		.loc 3 124 5 is_stmt 1 view .LVU642
 124:Middlewares/lvgl/src/core/../misc/../font/../misc/lv_area.h ****     dest->y2 = src->y2;
 2378              		.loc 3 124 19 is_stmt 0 view .LVU643
 2379 006c B4F91830 		ldrsh	r3, [r4, #24]
 124:Middlewares/lvgl/src/core/../misc/../font/../misc/lv_area.h ****     dest->y2 = src->y2;
 2380              		.loc 3 124 14 view .LVU644
 2381 0070 ADF80430 		strh	r3, [sp, #4]	@ movhi
 125:Middlewares/lvgl/src/core/../misc/../font/../misc/lv_area.h **** }
 2382              		.loc 3 125 5 is_stmt 1 view .LVU645
 125:Middlewares/lvgl/src/core/../misc/../font/../misc/lv_area.h **** }
 2383              		.loc 3 125 19 is_stmt 0 view .LVU646
 2384 0074 B4F91A70 		ldrsh	r7, [r4, #26]
 2385              	.LVL211:
 125:Middlewares/lvgl/src/core/../misc/../font/../misc/lv_area.h **** }
 2386              		.loc 3 125 14 view .LVU647
 2387 0078 ADF80670 		strh	r7, [sp, #6]	@ movhi
 2388              	.LVL212:
 125:Middlewares/lvgl/src/core/../misc/../font/../misc/lv_area.h **** }
 2389              		.loc 3 125 14 view .LVU648
 2390              	.LBE180:
 2391              	.LBE179:
 816:Middlewares/lvgl/src/core/lv_obj_pos.c ****     obj_coords.y1 -= ext_size;
 2392              		.loc 1 816 5 is_stmt 1 view .LVU649
 816:Middlewares/lvgl/src/core/lv_obj_pos.c ****     obj_coords.y1 -= ext_size;
 2393              		.loc 1 816 19 is_stmt 0 view .LVU650
 2394 007c 80B2     		uxth	r0, r0
 816:Middlewares/lvgl/src/core/lv_obj_pos.c ****     obj_coords.y1 -= ext_size;
 2395              		.loc 1 816 19 view .LVU651
 2396 007e 091A     		subs	r1, r1, r0
 2397 0080 ADF80010 		strh	r1, [sp]	@ movhi
 817:Middlewares/lvgl/src/core/lv_obj_pos.c ****     obj_coords.x2 += ext_size;
 2398              		.loc 1 817 5 is_stmt 1 view .LVU652
 817:Middlewares/lvgl/src/core/lv_obj_pos.c ****     obj_coords.x2 += ext_size;
 2399              		.loc 1 817 19 is_stmt 0 view .LVU653
 2400 0084 121A     		subs	r2, r2, r0
 2401 0086 ADF80220 		strh	r2, [sp, #2]	@ movhi
 818:Middlewares/lvgl/src/core/lv_obj_pos.c ****     obj_coords.y2 += ext_size;
 2402              		.loc 1 818 5 is_stmt 1 view .LVU654
 818:Middlewares/lvgl/src/core/lv_obj_pos.c ****     obj_coords.y2 += ext_size;
 2403              		.loc 1 818 19 is_stmt 0 view .LVU655
 2404 008a 0344     		add	r3, r3, r0
 2405 008c ADF80430 		strh	r3, [sp, #4]	@ movhi
 819:Middlewares/lvgl/src/core/lv_obj_pos.c **** 
 2406              		.loc 1 819 5 is_stmt 1 view .LVU656
 819:Middlewares/lvgl/src/core/lv_obj_pos.c **** 
ARM GAS  /tmp/ccgCqJqT.s 			page 73


 2407              		.loc 1 819 19 is_stmt 0 view .LVU657
 2408 0090 3844     		add	r0, r0, r7
 2409              	.LVL213:
 819:Middlewares/lvgl/src/core/lv_obj_pos.c **** 
 2410              		.loc 1 819 19 view .LVU658
 2411 0092 ADF80600 		strh	r0, [sp, #6]	@ movhi
 821:Middlewares/lvgl/src/core/lv_obj_pos.c **** 
 2412              		.loc 1 821 5 is_stmt 1 view .LVU659
 823:Middlewares/lvgl/src/core/lv_obj_pos.c ****     if(is_common == false) return false;  /*The area is not on the object*/
 2413              		.loc 1 823 5 view .LVU660
 823:Middlewares/lvgl/src/core/lv_obj_pos.c ****     if(is_common == false) return false;  /*The area is not on the object*/
 2414              		.loc 1 823 17 is_stmt 0 view .LVU661
 2415 0096 6A46     		mov	r2, sp
 2416 0098 2946     		mov	r1, r5
 2417 009a 2846     		mov	r0, r5
 2418 009c FFF7FEFF 		bl	_lv_area_intersect
 2419              	.LVL214:
 824:Middlewares/lvgl/src/core/lv_obj_pos.c **** 
 2420              		.loc 1 824 5 is_stmt 1 view .LVU662
 824:Middlewares/lvgl/src/core/lv_obj_pos.c **** 
 2421              		.loc 1 824 7 is_stmt 0 view .LVU663
 2422 00a0 0746     		mov	r7, r0
 2423 00a2 0028     		cmp	r0, #0
 2424 00a4 B6D0     		beq	.L104
 827:Middlewares/lvgl/src/core/lv_obj_pos.c ****     while(par != NULL) {
 2425              		.loc 1 827 5 is_stmt 1 view .LVU664
 827:Middlewares/lvgl/src/core/lv_obj_pos.c ****     while(par != NULL) {
 2426              		.loc 1 827 22 is_stmt 0 view .LVU665
 2427 00a6 2046     		mov	r0, r4
 2428              	.LVL215:
 827:Middlewares/lvgl/src/core/lv_obj_pos.c ****     while(par != NULL) {
 2429              		.loc 1 827 22 view .LVU666
 2430 00a8 FFF7FEFF 		bl	lv_obj_get_parent
 2431              	.LVL216:
 2432 00ac 0446     		mov	r4, r0
 2433              	.LVL217:
 828:Middlewares/lvgl/src/core/lv_obj_pos.c ****         is_common = _lv_area_intersect(area, area, &par->coords);
 2434              		.loc 1 828 5 is_stmt 1 view .LVU667
 2435              	.L106:
 828:Middlewares/lvgl/src/core/lv_obj_pos.c ****         is_common = _lv_area_intersect(area, area, &par->coords);
 2436              		.loc 1 828 10 view .LVU668
 2437 00ae 002C     		cmp	r4, #0
 2438 00b0 B0D0     		beq	.L104
 829:Middlewares/lvgl/src/core/lv_obj_pos.c ****         if(is_common == false) return false;       /*If no common parts with parent break;*/
 2439              		.loc 1 829 9 view .LVU669
 829:Middlewares/lvgl/src/core/lv_obj_pos.c ****         if(is_common == false) return false;       /*If no common parts with parent break;*/
 2440              		.loc 1 829 21 is_stmt 0 view .LVU670
 2441 00b2 04F11402 		add	r2, r4, #20
 2442 00b6 2946     		mov	r1, r5
 2443 00b8 2846     		mov	r0, r5
 2444              	.LVL218:
 829:Middlewares/lvgl/src/core/lv_obj_pos.c ****         if(is_common == false) return false;       /*If no common parts with parent break;*/
 2445              		.loc 1 829 21 view .LVU671
 2446 00ba FFF7FEFF 		bl	_lv_area_intersect
 2447              	.LVL219:
 830:Middlewares/lvgl/src/core/lv_obj_pos.c ****         if(lv_obj_has_flag(par, LV_OBJ_FLAG_HIDDEN)) return false; /*If the parent is hidden then t
 2448              		.loc 1 830 9 is_stmt 1 view .LVU672
ARM GAS  /tmp/ccgCqJqT.s 			page 74


 830:Middlewares/lvgl/src/core/lv_obj_pos.c ****         if(lv_obj_has_flag(par, LV_OBJ_FLAG_HIDDEN)) return false; /*If the parent is hidden then t
 2449              		.loc 1 830 11 is_stmt 0 view .LVU673
 2450 00be 48B1     		cbz	r0, .L110
 831:Middlewares/lvgl/src/core/lv_obj_pos.c **** 
 2451              		.loc 1 831 9 is_stmt 1 view .LVU674
 831:Middlewares/lvgl/src/core/lv_obj_pos.c **** 
 2452              		.loc 1 831 12 is_stmt 0 view .LVU675
 2453 00c0 0121     		movs	r1, #1
 2454 00c2 2046     		mov	r0, r4
 2455              	.LVL220:
 831:Middlewares/lvgl/src/core/lv_obj_pos.c **** 
 2456              		.loc 1 831 12 view .LVU676
 2457 00c4 FFF7FEFF 		bl	lv_obj_has_flag
 2458              	.LVL221:
 831:Middlewares/lvgl/src/core/lv_obj_pos.c **** 
 2459              		.loc 1 831 11 view .LVU677
 2460 00c8 30B9     		cbnz	r0, .L111
 833:Middlewares/lvgl/src/core/lv_obj_pos.c ****     }
 2461              		.loc 1 833 9 is_stmt 1 view .LVU678
 833:Middlewares/lvgl/src/core/lv_obj_pos.c ****     }
 2462              		.loc 1 833 15 is_stmt 0 view .LVU679
 2463 00ca 2046     		mov	r0, r4
 2464 00cc FFF7FEFF 		bl	lv_obj_get_parent
 2465              	.LVL222:
 2466 00d0 0446     		mov	r4, r0
 2467              	.LVL223:
 833:Middlewares/lvgl/src/core/lv_obj_pos.c ****     }
 2468              		.loc 1 833 15 view .LVU680
 2469 00d2 ECE7     		b	.L106
 2470              	.LVL224:
 2471              	.L110:
 830:Middlewares/lvgl/src/core/lv_obj_pos.c ****         if(lv_obj_has_flag(par, LV_OBJ_FLAG_HIDDEN)) return false; /*If the parent is hidden then t
 2472              		.loc 1 830 39 view .LVU681
 2473 00d4 0746     		mov	r7, r0
 2474 00d6 9DE7     		b	.L104
 2475              	.LVL225:
 2476              	.L111:
 831:Middlewares/lvgl/src/core/lv_obj_pos.c **** 
 2477              		.loc 1 831 61 view .LVU682
 2478 00d8 3746     		mov	r7, r6
 2479 00da 9BE7     		b	.L104
 2480              		.cfi_endproc
 2481              	.LFE188:
 2483              		.section	.text.lv_obj_invalidate_area,"ax",%progbits
 2484              		.align	1
 2485              		.global	lv_obj_invalidate_area
 2486              		.syntax unified
 2487              		.thumb
 2488              		.thumb_func
 2489              		.fpu softvfp
 2491              	lv_obj_invalidate_area:
 2492              	.LVL226:
 2493              	.LFB186:
 770:Middlewares/lvgl/src/core/lv_obj_pos.c ****     LV_ASSERT_OBJ(obj, MY_CLASS);
 2494              		.loc 1 770 1 is_stmt 1 view -0
 2495              		.cfi_startproc
 2496              		@ args = 0, pretend = 0, frame = 8
ARM GAS  /tmp/ccgCqJqT.s 			page 75


 2497              		@ frame_needed = 0, uses_anonymous_args = 0
 770:Middlewares/lvgl/src/core/lv_obj_pos.c ****     LV_ASSERT_OBJ(obj, MY_CLASS);
 2498              		.loc 1 770 1 is_stmt 0 view .LVU684
 2499 0000 10B5     		push	{r4, lr}
 2500              	.LCFI46:
 2501              		.cfi_def_cfa_offset 8
 2502              		.cfi_offset 4, -8
 2503              		.cfi_offset 14, -4
 2504 0002 82B0     		sub	sp, sp, #8
 2505              	.LCFI47:
 2506              		.cfi_def_cfa_offset 16
 2507 0004 0446     		mov	r4, r0
 771:Middlewares/lvgl/src/core/lv_obj_pos.c **** 
 2508              		.loc 1 771 5 is_stmt 1 view .LVU685
 771:Middlewares/lvgl/src/core/lv_obj_pos.c **** 
 2509              		.loc 1 771 5 view .LVU686
 771:Middlewares/lvgl/src/core/lv_obj_pos.c **** 
 2510              		.loc 1 771 5 view .LVU687
 773:Middlewares/lvgl/src/core/lv_obj_pos.c ****     lv_area_copy(&area_tmp, area);
 2511              		.loc 1 773 5 view .LVU688
 774:Middlewares/lvgl/src/core/lv_obj_pos.c ****     bool visible = lv_obj_area_is_visible(obj, &area_tmp);
 2512              		.loc 1 774 5 view .LVU689
 2513              	.LVL227:
 2514              	.LBB181:
 2515              	.LBI181:
 120:Middlewares/lvgl/src/core/../misc/../font/../misc/lv_area.h **** {
 2516              		.loc 3 120 20 view .LVU690
 2517              	.LBB182:
 122:Middlewares/lvgl/src/core/../misc/../font/../misc/lv_area.h ****     dest->y1 = src->y1;
 2518              		.loc 3 122 5 view .LVU691
 122:Middlewares/lvgl/src/core/../misc/../font/../misc/lv_area.h ****     dest->y1 = src->y1;
 2519              		.loc 3 122 19 is_stmt 0 view .LVU692
 2520 0006 B1F90030 		ldrsh	r3, [r1]
 122:Middlewares/lvgl/src/core/../misc/../font/../misc/lv_area.h ****     dest->y1 = src->y1;
 2521              		.loc 3 122 14 view .LVU693
 2522 000a ADF80030 		strh	r3, [sp]	@ movhi
 123:Middlewares/lvgl/src/core/../misc/../font/../misc/lv_area.h ****     dest->x2 = src->x2;
 2523              		.loc 3 123 5 is_stmt 1 view .LVU694
 123:Middlewares/lvgl/src/core/../misc/../font/../misc/lv_area.h ****     dest->x2 = src->x2;
 2524              		.loc 3 123 19 is_stmt 0 view .LVU695
 2525 000e B1F90230 		ldrsh	r3, [r1, #2]
 123:Middlewares/lvgl/src/core/../misc/../font/../misc/lv_area.h ****     dest->x2 = src->x2;
 2526              		.loc 3 123 14 view .LVU696
 2527 0012 ADF80230 		strh	r3, [sp, #2]	@ movhi
 124:Middlewares/lvgl/src/core/../misc/../font/../misc/lv_area.h ****     dest->y2 = src->y2;
 2528              		.loc 3 124 5 is_stmt 1 view .LVU697
 124:Middlewares/lvgl/src/core/../misc/../font/../misc/lv_area.h ****     dest->y2 = src->y2;
 2529              		.loc 3 124 19 is_stmt 0 view .LVU698
 2530 0016 B1F90430 		ldrsh	r3, [r1, #4]
 124:Middlewares/lvgl/src/core/../misc/../font/../misc/lv_area.h ****     dest->y2 = src->y2;
 2531              		.loc 3 124 14 view .LVU699
 2532 001a ADF80430 		strh	r3, [sp, #4]	@ movhi
 125:Middlewares/lvgl/src/core/../misc/../font/../misc/lv_area.h **** }
 2533              		.loc 3 125 5 is_stmt 1 view .LVU700
 125:Middlewares/lvgl/src/core/../misc/../font/../misc/lv_area.h **** }
 2534              		.loc 3 125 19 is_stmt 0 view .LVU701
 2535 001e B1F90630 		ldrsh	r3, [r1, #6]
ARM GAS  /tmp/ccgCqJqT.s 			page 76


 125:Middlewares/lvgl/src/core/../misc/../font/../misc/lv_area.h **** }
 2536              		.loc 3 125 14 view .LVU702
 2537 0022 ADF80630 		strh	r3, [sp, #6]	@ movhi
 2538              	.LVL228:
 125:Middlewares/lvgl/src/core/../misc/../font/../misc/lv_area.h **** }
 2539              		.loc 3 125 14 view .LVU703
 2540              	.LBE182:
 2541              	.LBE181:
 775:Middlewares/lvgl/src/core/lv_obj_pos.c **** 
 2542              		.loc 1 775 5 is_stmt 1 view .LVU704
 775:Middlewares/lvgl/src/core/lv_obj_pos.c **** 
 2543              		.loc 1 775 20 is_stmt 0 view .LVU705
 2544 0026 6946     		mov	r1, sp
 2545              	.LVL229:
 775:Middlewares/lvgl/src/core/lv_obj_pos.c **** 
 2546              		.loc 1 775 20 view .LVU706
 2547 0028 FFF7FEFF 		bl	lv_obj_area_is_visible
 2548              	.LVL230:
 777:Middlewares/lvgl/src/core/lv_obj_pos.c **** }
 2549              		.loc 1 777 5 is_stmt 1 view .LVU707
 777:Middlewares/lvgl/src/core/lv_obj_pos.c **** }
