ARM GAS  /tmp/ccgCqJqT.s 			page 1


   1              		.cpu cortex-m3
   2              		.eabi_attribute 20, 1
   3              		.eabi_attribute 21, 1
   4              		.eabi_attribute 23, 3
   5              		.eabi_attribute 24, 1
   6              		.eabi_attribute 25, 1
   7              		.eabi_attribute 26, 1
   8              		.eabi_attribute 30, 1
   9              		.eabi_attribute 34, 1
  10              		.eabi_attribute 18, 4
  11              		.file	"lv_obj_pos.c"
  12              		.text
  13              	.Ltext0:
  14              		.cfi_sections	.debug_frame
  15              		.section	.text.lv_obj_set_width,"ax",%progbits
  16              		.align	1
  17              		.global	lv_obj_set_width
  18              		.arch armv7-m
  19              		.syntax unified
  20              		.thumb
  21              		.thumb_func
  22              		.fpu softvfp
  24              	lv_obj_set_width:
  25              	.LVL0:
  26              	.LFB158:
  27              		.file 1 "Middlewares/lvgl/src/core/lv_obj_pos.c"
   1:Middlewares/lvgl/src/core/lv_obj_pos.c **** /**
   2:Middlewares/lvgl/src/core/lv_obj_pos.c ****  * @file lv_obj_pos.c
   3:Middlewares/lvgl/src/core/lv_obj_pos.c ****  *
   4:Middlewares/lvgl/src/core/lv_obj_pos.c ****  */
   5:Middlewares/lvgl/src/core/lv_obj_pos.c **** 
   6:Middlewares/lvgl/src/core/lv_obj_pos.c **** /*********************
   7:Middlewares/lvgl/src/core/lv_obj_pos.c ****  *      INCLUDES
   8:Middlewares/lvgl/src/core/lv_obj_pos.c ****  *********************/
   9:Middlewares/lvgl/src/core/lv_obj_pos.c **** #include "lv_obj.h"
  10:Middlewares/lvgl/src/core/lv_obj_pos.c **** #include "lv_disp.h"
  11:Middlewares/lvgl/src/core/lv_obj_pos.c **** #include "lv_refr.h"
  12:Middlewares/lvgl/src/core/lv_obj_pos.c **** #include "../misc/lv_gc.h"
  13:Middlewares/lvgl/src/core/lv_obj_pos.c **** 
  14:Middlewares/lvgl/src/core/lv_obj_pos.c **** /*********************
  15:Middlewares/lvgl/src/core/lv_obj_pos.c ****  *      DEFINES
  16:Middlewares/lvgl/src/core/lv_obj_pos.c ****  *********************/
  17:Middlewares/lvgl/src/core/lv_obj_pos.c **** #define MY_CLASS &lv_obj_class
  18:Middlewares/lvgl/src/core/lv_obj_pos.c **** 
  19:Middlewares/lvgl/src/core/lv_obj_pos.c **** /**********************
  20:Middlewares/lvgl/src/core/lv_obj_pos.c ****  *      TYPEDEFS
  21:Middlewares/lvgl/src/core/lv_obj_pos.c ****  **********************/
  22:Middlewares/lvgl/src/core/lv_obj_pos.c **** 
  23:Middlewares/lvgl/src/core/lv_obj_pos.c **** /**********************
  24:Middlewares/lvgl/src/core/lv_obj_pos.c ****  *  STATIC PROTOTYPES
  25:Middlewares/lvgl/src/core/lv_obj_pos.c ****  **********************/
  26:Middlewares/lvgl/src/core/lv_obj_pos.c **** static void calc_auto_size(lv_obj_t * obj, lv_coord_t * w_out, lv_coord_t * h_out);
  27:Middlewares/lvgl/src/core/lv_obj_pos.c **** static void layout_update_core(lv_obj_t * obj);
  28:Middlewares/lvgl/src/core/lv_obj_pos.c **** 
  29:Middlewares/lvgl/src/core/lv_obj_pos.c **** /**********************
  30:Middlewares/lvgl/src/core/lv_obj_pos.c ****  *  STATIC VARIABLES
  31:Middlewares/lvgl/src/core/lv_obj_pos.c ****  **********************/
ARM GAS  /tmp/ccgCqJqT.s 			page 2


  32:Middlewares/lvgl/src/core/lv_obj_pos.c **** static uint32_t layout_cnt;
  33:Middlewares/lvgl/src/core/lv_obj_pos.c **** 
  34:Middlewares/lvgl/src/core/lv_obj_pos.c **** /**********************
  35:Middlewares/lvgl/src/core/lv_obj_pos.c ****  *      MACROS
  36:Middlewares/lvgl/src/core/lv_obj_pos.c ****  **********************/
  37:Middlewares/lvgl/src/core/lv_obj_pos.c **** 
  38:Middlewares/lvgl/src/core/lv_obj_pos.c **** /**********************
  39:Middlewares/lvgl/src/core/lv_obj_pos.c ****  *   GLOBAL FUNCTIONS
  40:Middlewares/lvgl/src/core/lv_obj_pos.c ****  **********************/
  41:Middlewares/lvgl/src/core/lv_obj_pos.c **** 
  42:Middlewares/lvgl/src/core/lv_obj_pos.c **** void lv_obj_set_pos(lv_obj_t * obj, lv_coord_t x, lv_coord_t y)
  43:Middlewares/lvgl/src/core/lv_obj_pos.c **** {
  44:Middlewares/lvgl/src/core/lv_obj_pos.c ****     LV_ASSERT_OBJ(obj, MY_CLASS);
  45:Middlewares/lvgl/src/core/lv_obj_pos.c **** 
  46:Middlewares/lvgl/src/core/lv_obj_pos.c ****     lv_obj_set_x(obj, x);
  47:Middlewares/lvgl/src/core/lv_obj_pos.c ****     lv_obj_set_y(obj, y);
  48:Middlewares/lvgl/src/core/lv_obj_pos.c **** }
  49:Middlewares/lvgl/src/core/lv_obj_pos.c **** 
  50:Middlewares/lvgl/src/core/lv_obj_pos.c **** void lv_obj_set_x(lv_obj_t * obj, lv_coord_t x)
  51:Middlewares/lvgl/src/core/lv_obj_pos.c **** {
  52:Middlewares/lvgl/src/core/lv_obj_pos.c ****     LV_ASSERT_OBJ(obj, MY_CLASS);
  53:Middlewares/lvgl/src/core/lv_obj_pos.c ****     if(lv_obj_is_layout_positioned(obj)) {
  54:Middlewares/lvgl/src/core/lv_obj_pos.c ****         return;
  55:Middlewares/lvgl/src/core/lv_obj_pos.c ****     }
  56:Middlewares/lvgl/src/core/lv_obj_pos.c **** 
  57:Middlewares/lvgl/src/core/lv_obj_pos.c ****     lv_res_t res_x;
  58:Middlewares/lvgl/src/core/lv_obj_pos.c ****     lv_style_value_t v_x;
  59:Middlewares/lvgl/src/core/lv_obj_pos.c **** 
  60:Middlewares/lvgl/src/core/lv_obj_pos.c ****     res_x = lv_obj_get_local_style_prop(obj, LV_STYLE_X, &v_x, 0);
  61:Middlewares/lvgl/src/core/lv_obj_pos.c **** 
  62:Middlewares/lvgl/src/core/lv_obj_pos.c ****     if((res_x == LV_RES_OK && v_x.num != x) || res_x == LV_RES_INV) {
  63:Middlewares/lvgl/src/core/lv_obj_pos.c ****         lv_obj_set_style_x(obj, x, 0);
  64:Middlewares/lvgl/src/core/lv_obj_pos.c ****     }
  65:Middlewares/lvgl/src/core/lv_obj_pos.c **** }
  66:Middlewares/lvgl/src/core/lv_obj_pos.c **** 
  67:Middlewares/lvgl/src/core/lv_obj_pos.c **** void lv_obj_set_y(lv_obj_t * obj, lv_coord_t y)
  68:Middlewares/lvgl/src/core/lv_obj_pos.c **** {
  69:Middlewares/lvgl/src/core/lv_obj_pos.c ****     if(lv_obj_is_layout_positioned(obj)) {
  70:Middlewares/lvgl/src/core/lv_obj_pos.c ****         return;
  71:Middlewares/lvgl/src/core/lv_obj_pos.c ****     }
  72:Middlewares/lvgl/src/core/lv_obj_pos.c ****     LV_ASSERT_OBJ(obj, MY_CLASS);
  73:Middlewares/lvgl/src/core/lv_obj_pos.c **** 
  74:Middlewares/lvgl/src/core/lv_obj_pos.c ****     lv_res_t res_y;
  75:Middlewares/lvgl/src/core/lv_obj_pos.c ****     lv_style_value_t v_y;
  76:Middlewares/lvgl/src/core/lv_obj_pos.c **** 
  77:Middlewares/lvgl/src/core/lv_obj_pos.c ****     res_y = lv_obj_get_local_style_prop(obj, LV_STYLE_Y, &v_y, 0);
  78:Middlewares/lvgl/src/core/lv_obj_pos.c **** 
  79:Middlewares/lvgl/src/core/lv_obj_pos.c ****     if((res_y == LV_RES_OK && v_y.num != y) || res_y == LV_RES_INV) {
  80:Middlewares/lvgl/src/core/lv_obj_pos.c ****         lv_obj_set_style_y(obj, y, 0);
  81:Middlewares/lvgl/src/core/lv_obj_pos.c ****     }
  82:Middlewares/lvgl/src/core/lv_obj_pos.c **** }
  83:Middlewares/lvgl/src/core/lv_obj_pos.c **** 
  84:Middlewares/lvgl/src/core/lv_obj_pos.c **** bool lv_obj_refr_size(lv_obj_t * obj)
  85:Middlewares/lvgl/src/core/lv_obj_pos.c **** {
  86:Middlewares/lvgl/src/core/lv_obj_pos.c ****     LV_ASSERT_OBJ(obj, MY_CLASS);
  87:Middlewares/lvgl/src/core/lv_obj_pos.c **** 
  88:Middlewares/lvgl/src/core/lv_obj_pos.c ****     /*If the width or height is set by a layout do not modify them*/
ARM GAS  /tmp/ccgCqJqT.s 			page 3


  89:Middlewares/lvgl/src/core/lv_obj_pos.c ****     if(obj->w_layout && obj->h_layout) return false;
  90:Middlewares/lvgl/src/core/lv_obj_pos.c **** 
  91:Middlewares/lvgl/src/core/lv_obj_pos.c ****     lv_obj_t * parent = lv_obj_get_parent(obj);
  92:Middlewares/lvgl/src/core/lv_obj_pos.c ****     if(parent == NULL) return false;
  93:Middlewares/lvgl/src/core/lv_obj_pos.c **** 
  94:Middlewares/lvgl/src/core/lv_obj_pos.c ****     lv_coord_t w;
  95:Middlewares/lvgl/src/core/lv_obj_pos.c ****     lv_coord_t sl_ori = lv_obj_get_scroll_left(obj);
  96:Middlewares/lvgl/src/core/lv_obj_pos.c ****     bool w_content = false;
  97:Middlewares/lvgl/src/core/lv_obj_pos.c ****     if(obj->w_layout) {
  98:Middlewares/lvgl/src/core/lv_obj_pos.c ****         w = lv_obj_get_width(obj);
  99:Middlewares/lvgl/src/core/lv_obj_pos.c ****     } else {
 100:Middlewares/lvgl/src/core/lv_obj_pos.c ****         w = lv_obj_get_style_width(obj, LV_PART_MAIN);
 101:Middlewares/lvgl/src/core/lv_obj_pos.c ****         w_content = w == LV_SIZE_CONTENT ? true : false;
 102:Middlewares/lvgl/src/core/lv_obj_pos.c **** 
 103:Middlewares/lvgl/src/core/lv_obj_pos.c ****         /*Be sure the object is not scrolled when it has auto size*/
 104:Middlewares/lvgl/src/core/lv_obj_pos.c ****         if(w_content) {
 105:Middlewares/lvgl/src/core/lv_obj_pos.c ****             lv_obj_scroll_to_x(obj, 0, LV_ANIM_OFF);
 106:Middlewares/lvgl/src/core/lv_obj_pos.c ****             calc_auto_size(obj, &w, NULL);
 107:Middlewares/lvgl/src/core/lv_obj_pos.c ****         }
 108:Middlewares/lvgl/src/core/lv_obj_pos.c **** 
 109:Middlewares/lvgl/src/core/lv_obj_pos.c ****         /*Calculate the sizes in percentage*/
 110:Middlewares/lvgl/src/core/lv_obj_pos.c ****         bool pct_w = LV_COORD_IS_PCT(w) ? true : false;
 111:Middlewares/lvgl/src/core/lv_obj_pos.c **** 
 112:Middlewares/lvgl/src/core/lv_obj_pos.c ****         lv_coord_t parent_w = lv_obj_get_content_width(parent);
 113:Middlewares/lvgl/src/core/lv_obj_pos.c ****         if(pct_w) w = (LV_COORD_GET_PCT(w) * parent_w) / 100;
 114:Middlewares/lvgl/src/core/lv_obj_pos.c **** 
 115:Middlewares/lvgl/src/core/lv_obj_pos.c ****         lv_coord_t minw = lv_obj_get_style_min_width(obj, LV_PART_MAIN);
 116:Middlewares/lvgl/src/core/lv_obj_pos.c ****         lv_coord_t maxw = lv_obj_get_style_max_width(obj, LV_PART_MAIN);
 117:Middlewares/lvgl/src/core/lv_obj_pos.c ****         w = lv_clamp_width(w, minw, maxw, parent_w);
 118:Middlewares/lvgl/src/core/lv_obj_pos.c ****     }
 119:Middlewares/lvgl/src/core/lv_obj_pos.c **** 
 120:Middlewares/lvgl/src/core/lv_obj_pos.c ****     lv_coord_t h;
 121:Middlewares/lvgl/src/core/lv_obj_pos.c ****     lv_coord_t st_ori = lv_obj_get_scroll_top(obj);
 122:Middlewares/lvgl/src/core/lv_obj_pos.c ****     bool h_content = false;
 123:Middlewares/lvgl/src/core/lv_obj_pos.c ****     if(obj->h_layout) {
 124:Middlewares/lvgl/src/core/lv_obj_pos.c ****         h = lv_obj_get_height(obj);
 125:Middlewares/lvgl/src/core/lv_obj_pos.c ****     } else {
 126:Middlewares/lvgl/src/core/lv_obj_pos.c ****         h = lv_obj_get_style_height(obj, LV_PART_MAIN);
 127:Middlewares/lvgl/src/core/lv_obj_pos.c ****         h_content = h == LV_SIZE_CONTENT ? true : false;
 128:Middlewares/lvgl/src/core/lv_obj_pos.c **** 
 129:Middlewares/lvgl/src/core/lv_obj_pos.c ****         /*Be sure the object is not scrolled when it has auto size*/
 130:Middlewares/lvgl/src/core/lv_obj_pos.c ****         if(h_content) {
 131:Middlewares/lvgl/src/core/lv_obj_pos.c ****             lv_obj_scroll_to_y(obj, 0, LV_ANIM_OFF);
 132:Middlewares/lvgl/src/core/lv_obj_pos.c ****             calc_auto_size(obj, NULL, &h);
 133:Middlewares/lvgl/src/core/lv_obj_pos.c ****         }
 134:Middlewares/lvgl/src/core/lv_obj_pos.c **** 
 135:Middlewares/lvgl/src/core/lv_obj_pos.c ****         /*Calculate the sizes in percentage*/
 136:Middlewares/lvgl/src/core/lv_obj_pos.c ****         bool pct_h = LV_COORD_IS_PCT(h) ? true : false;
 137:Middlewares/lvgl/src/core/lv_obj_pos.c ****         lv_coord_t parent_h = lv_obj_get_content_height(parent);
 138:Middlewares/lvgl/src/core/lv_obj_pos.c ****         if(pct_h) h = (LV_COORD_GET_PCT(h) * parent_h) / 100;
 139:Middlewares/lvgl/src/core/lv_obj_pos.c **** 
 140:Middlewares/lvgl/src/core/lv_obj_pos.c ****         lv_coord_t minh = lv_obj_get_style_min_height(obj, LV_PART_MAIN);
 141:Middlewares/lvgl/src/core/lv_obj_pos.c ****         lv_coord_t maxh = lv_obj_get_style_max_height(obj, LV_PART_MAIN);
 142:Middlewares/lvgl/src/core/lv_obj_pos.c ****         h = lv_clamp_height(h, minh, maxh, parent_h);
 143:Middlewares/lvgl/src/core/lv_obj_pos.c ****     }
 144:Middlewares/lvgl/src/core/lv_obj_pos.c **** 
 145:Middlewares/lvgl/src/core/lv_obj_pos.c ****     /*calc_auto_size set the scroll x/y to 0 so revert the original value*/
ARM GAS  /tmp/ccgCqJqT.s 			page 4


 146:Middlewares/lvgl/src/core/lv_obj_pos.c ****     if(w_content || h_content) {
 147:Middlewares/lvgl/src/core/lv_obj_pos.c ****         lv_obj_scroll_to(obj, sl_ori, st_ori, LV_ANIM_OFF);
 148:Middlewares/lvgl/src/core/lv_obj_pos.c ****     }
 149:Middlewares/lvgl/src/core/lv_obj_pos.c **** 
 150:Middlewares/lvgl/src/core/lv_obj_pos.c ****     /*Do nothing if the size is not changed*/
 151:Middlewares/lvgl/src/core/lv_obj_pos.c ****     /*It is very important else recursive resizing can occur without size change*/
 152:Middlewares/lvgl/src/core/lv_obj_pos.c ****     if(lv_obj_get_width(obj) == w && lv_obj_get_height(obj) == h) return false;
 153:Middlewares/lvgl/src/core/lv_obj_pos.c **** 
 154:Middlewares/lvgl/src/core/lv_obj_pos.c ****     /*Invalidate the original area*/
 155:Middlewares/lvgl/src/core/lv_obj_pos.c ****     lv_obj_invalidate(obj);
 156:Middlewares/lvgl/src/core/lv_obj_pos.c **** 
 157:Middlewares/lvgl/src/core/lv_obj_pos.c ****     /*Save the original coordinates*/
 158:Middlewares/lvgl/src/core/lv_obj_pos.c ****     lv_area_t ori;
 159:Middlewares/lvgl/src/core/lv_obj_pos.c ****     lv_obj_get_coords(obj, &ori);
 160:Middlewares/lvgl/src/core/lv_obj_pos.c **** 
 161:Middlewares/lvgl/src/core/lv_obj_pos.c ****     /*Check if the object inside the parent or not*/
 162:Middlewares/lvgl/src/core/lv_obj_pos.c ****     lv_area_t parent_fit_area;
 163:Middlewares/lvgl/src/core/lv_obj_pos.c ****     lv_obj_get_content_coords(parent, &parent_fit_area);
 164:Middlewares/lvgl/src/core/lv_obj_pos.c **** 
 165:Middlewares/lvgl/src/core/lv_obj_pos.c ****     /*If the object is already out of the parent and its position is changes
 166:Middlewares/lvgl/src/core/lv_obj_pos.c ****      *surely the scrollbars also changes so invalidate them*/
 167:Middlewares/lvgl/src/core/lv_obj_pos.c ****     bool on1 = _lv_area_is_in(&ori, &parent_fit_area, 0);
 168:Middlewares/lvgl/src/core/lv_obj_pos.c ****     if(!on1) lv_obj_scrollbar_invalidate(parent);
 169:Middlewares/lvgl/src/core/lv_obj_pos.c **** 
 170:Middlewares/lvgl/src/core/lv_obj_pos.c ****     /*Set the length and height
 171:Middlewares/lvgl/src/core/lv_obj_pos.c ****      *Be sure the content is not scrolled in an invalid position on the new size*/
 172:Middlewares/lvgl/src/core/lv_obj_pos.c ****     obj->coords.y2 = obj->coords.y1 + h - 1;
 173:Middlewares/lvgl/src/core/lv_obj_pos.c ****     if(lv_obj_get_style_base_dir(obj, LV_PART_MAIN) == LV_BASE_DIR_RTL) {
 174:Middlewares/lvgl/src/core/lv_obj_pos.c ****         obj->coords.x1 = obj->coords.x2 - w + 1;
 175:Middlewares/lvgl/src/core/lv_obj_pos.c ****     }
 176:Middlewares/lvgl/src/core/lv_obj_pos.c ****     else {
 177:Middlewares/lvgl/src/core/lv_obj_pos.c ****         obj->coords.x2 = obj->coords.x1 + w - 1;
 178:Middlewares/lvgl/src/core/lv_obj_pos.c ****     }
 179:Middlewares/lvgl/src/core/lv_obj_pos.c **** 
 180:Middlewares/lvgl/src/core/lv_obj_pos.c ****     /*Call the ancestor's event handler to the object with its new coordinates*/
 181:Middlewares/lvgl/src/core/lv_obj_pos.c ****     lv_event_send(obj, LV_EVENT_SIZE_CHANGED, &ori);
 182:Middlewares/lvgl/src/core/lv_obj_pos.c **** 
 183:Middlewares/lvgl/src/core/lv_obj_pos.c ****     /*Call the ancestor's event handler to the parent too*/
 184:Middlewares/lvgl/src/core/lv_obj_pos.c ****     lv_event_send(parent, LV_EVENT_CHILD_CHANGED, obj);
 185:Middlewares/lvgl/src/core/lv_obj_pos.c **** 
 186:Middlewares/lvgl/src/core/lv_obj_pos.c ****     /*Invalidate the new area*/
 187:Middlewares/lvgl/src/core/lv_obj_pos.c ****     lv_obj_invalidate(obj);
 188:Middlewares/lvgl/src/core/lv_obj_pos.c **** 
 189:Middlewares/lvgl/src/core/lv_obj_pos.c ****     lv_obj_readjust_scroll(obj, LV_ANIM_OFF);
 190:Middlewares/lvgl/src/core/lv_obj_pos.c **** 
 191:Middlewares/lvgl/src/core/lv_obj_pos.c ****     /*If the object was out of the parent invalidate the new scrollbar area too.
 192:Middlewares/lvgl/src/core/lv_obj_pos.c ****      *If it wasn't out of the parent but out now, also invalidate the srollbars*/
 193:Middlewares/lvgl/src/core/lv_obj_pos.c ****     bool on2 = _lv_area_is_in(&obj->coords, &parent_fit_area, 0);
 194:Middlewares/lvgl/src/core/lv_obj_pos.c ****     if(on1 || (!on1 && on2)) lv_obj_scrollbar_invalidate(parent);
 195:Middlewares/lvgl/src/core/lv_obj_pos.c **** 
 196:Middlewares/lvgl/src/core/lv_obj_pos.c **** 
 197:Middlewares/lvgl/src/core/lv_obj_pos.c **** 
 198:Middlewares/lvgl/src/core/lv_obj_pos.c **** 
 199:Middlewares/lvgl/src/core/lv_obj_pos.c **** 
 200:Middlewares/lvgl/src/core/lv_obj_pos.c ****     return true;
 201:Middlewares/lvgl/src/core/lv_obj_pos.c **** }
 202:Middlewares/lvgl/src/core/lv_obj_pos.c **** 
ARM GAS  /tmp/ccgCqJqT.s 			page 5


 203:Middlewares/lvgl/src/core/lv_obj_pos.c **** void lv_obj_set_size(lv_obj_t * obj, lv_coord_t w, lv_coord_t h)
 204:Middlewares/lvgl/src/core/lv_obj_pos.c **** {
 205:Middlewares/lvgl/src/core/lv_obj_pos.c ****     LV_ASSERT_OBJ(obj, MY_CLASS);
 206:Middlewares/lvgl/src/core/lv_obj_pos.c **** 
 207:Middlewares/lvgl/src/core/lv_obj_pos.c ****     lv_obj_set_width(obj, w);
 208:Middlewares/lvgl/src/core/lv_obj_pos.c ****     lv_obj_set_height(obj, h);
 209:Middlewares/lvgl/src/core/lv_obj_pos.c **** }
 210:Middlewares/lvgl/src/core/lv_obj_pos.c **** 
 211:Middlewares/lvgl/src/core/lv_obj_pos.c **** void lv_obj_set_width(lv_obj_t * obj, lv_coord_t w)
 212:Middlewares/lvgl/src/core/lv_obj_pos.c **** {
  28              		.loc 1 212 1 view -0
  29              		.cfi_startproc
  30              		@ args = 0, pretend = 0, frame = 8
  31              		@ frame_needed = 0, uses_anonymous_args = 0
  32              		.loc 1 212 1 is_stmt 0 view .LVU1
  33 0000 30B5     		push	{r4, r5, lr}
  34              	.LCFI0:
  35              		.cfi_def_cfa_offset 12
  36              		.cfi_offset 4, -12
  37              		.cfi_offset 5, -8
  38              		.cfi_offset 14, -4
  39 0002 83B0     		sub	sp, sp, #12
  40              	.LCFI1:
  41              		.cfi_def_cfa_offset 24
  42 0004 0546     		mov	r5, r0
  43 0006 0C46     		mov	r4, r1
 213:Middlewares/lvgl/src/core/lv_obj_pos.c ****     LV_ASSERT_OBJ(obj, MY_CLASS);
  44              		.loc 1 213 5 is_stmt 1 view .LVU2
  45              		.loc 1 213 5 view .LVU3
  46              		.loc 1 213 5 view .LVU4
 214:Middlewares/lvgl/src/core/lv_obj_pos.c ****     lv_res_t res_w;
  47              		.loc 1 214 5 view .LVU5
 215:Middlewares/lvgl/src/core/lv_obj_pos.c ****     lv_style_value_t v_w;
  48              		.loc 1 215 5 view .LVU6
 216:Middlewares/lvgl/src/core/lv_obj_pos.c **** 
 217:Middlewares/lvgl/src/core/lv_obj_pos.c ****     res_w = lv_obj_get_local_style_prop(obj, LV_STYLE_WIDTH, &v_w, 0);
  49              		.loc 1 217 5 view .LVU7
  50              		.loc 1 217 13 is_stmt 0 view .LVU8
  51 0008 0023     		movs	r3, #0
  52 000a 01AA     		add	r2, sp, #4
  53 000c 41F20101 		movw	r1, #4097
  54              	.LVL1:
  55              		.loc 1 217 13 view .LVU9
  56 0010 FFF7FEFF 		bl	lv_obj_get_local_style_prop
  57              	.LVL2:
 218:Middlewares/lvgl/src/core/lv_obj_pos.c **** 
 219:Middlewares/lvgl/src/core/lv_obj_pos.c ****     if((res_w == LV_RES_OK && v_w.num != w) || res_w == LV_RES_INV) {
  58              		.loc 1 219 5 is_stmt 1 view .LVU10
  59              		.loc 1 219 7 is_stmt 0 view .LVU11
  60 0014 0128     		cmp	r0, #1
  61 0016 07D0     		beq	.L6
  62              	.L2:
  63              		.loc 1 219 45 discriminator 3 view .LVU12
  64 0018 20B9     		cbnz	r0, .L1
  65              	.L3:
 220:Middlewares/lvgl/src/core/lv_obj_pos.c ****         lv_obj_set_style_width(obj, w, 0);
  66              		.loc 1 220 9 is_stmt 1 view .LVU13
ARM GAS  /tmp/ccgCqJqT.s 			page 6


  67 001a 0022     		movs	r2, #0
  68 001c 2146     		mov	r1, r4
  69 001e 2846     		mov	r0, r5
  70              	.LVL3:
  71              		.loc 1 220 9 is_stmt 0 view .LVU14
  72 0020 FFF7FEFF 		bl	lv_obj_set_style_width
  73              	.LVL4:
  74              	.L1:
 221:Middlewares/lvgl/src/core/lv_obj_pos.c ****     }
 222:Middlewares/lvgl/src/core/lv_obj_pos.c **** }
  75              		.loc 1 222 1 view .LVU15
  76 0024 03B0     		add	sp, sp, #12
  77              	.LCFI2:
  78              		.cfi_remember_state
  79              		.cfi_def_cfa_offset 12
  80              		@ sp needed
  81 0026 30BD     		pop	{r4, r5, pc}
  82              	.LVL5:
  83              	.L6:
  84              	.LCFI3:
  85              		.cfi_restore_state
 219:Middlewares/lvgl/src/core/lv_obj_pos.c ****         lv_obj_set_style_width(obj, w, 0);
  86              		.loc 1 219 34 discriminator 1 view .LVU16
  87 0028 019B     		ldr	r3, [sp, #4]
 219:Middlewares/lvgl/src/core/lv_obj_pos.c ****         lv_obj_set_style_width(obj, w, 0);
  88              		.loc 1 219 28 discriminator 1 view .LVU17
  89 002a A342     		cmp	r3, r4
  90 002c F5D1     		bne	.L3
  91 002e F3E7     		b	.L2
  92              		.cfi_endproc
  93              	.LFE158:
  95              		.section	.text.lv_obj_set_height,"ax",%progbits
  96              		.align	1
  97              		.global	lv_obj_set_height
  98              		.syntax unified
  99              		.thumb
 100              		.thumb_func
 101              		.fpu softvfp
 103              	lv_obj_set_height:
 104              	.LVL6:
 105              	.LFB159:
 223:Middlewares/lvgl/src/core/lv_obj_pos.c **** 
 224:Middlewares/lvgl/src/core/lv_obj_pos.c **** void lv_obj_set_height(lv_obj_t * obj, lv_coord_t h)
 225:Middlewares/lvgl/src/core/lv_obj_pos.c **** {
 106              		.loc 1 225 1 is_stmt 1 view -0
 107              		.cfi_startproc
 108              		@ args = 0, pretend = 0, frame = 8
 109              		@ frame_needed = 0, uses_anonymous_args = 0
 110              		.loc 1 225 1 is_stmt 0 view .LVU19
 111 0000 30B5     		push	{r4, r5, lr}
 112              	.LCFI4:
 113              		.cfi_def_cfa_offset 12
 114              		.cfi_offset 4, -12
 115              		.cfi_offset 5, -8
 116              		.cfi_offset 14, -4
 117 0002 83B0     		sub	sp, sp, #12
 118              	.LCFI5:
ARM GAS  /tmp/ccgCqJqT.s 			page 7


 119              		.cfi_def_cfa_offset 24
 120 0004 0546     		mov	r5, r0
 121 0006 0C46     		mov	r4, r1
 226:Middlewares/lvgl/src/core/lv_obj_pos.c ****     LV_ASSERT_OBJ(obj, MY_CLASS);
 122              		.loc 1 226 5 is_stmt 1 view .LVU20
 123              		.loc 1 226 5 view .LVU21
 124              		.loc 1 226 5 view .LVU22
 227:Middlewares/lvgl/src/core/lv_obj_pos.c ****     lv_res_t res_h;
 125              		.loc 1 227 5 view .LVU23
 228:Middlewares/lvgl/src/core/lv_obj_pos.c ****     lv_style_value_t v_h;
 126              		.loc 1 228 5 view .LVU24
 229:Middlewares/lvgl/src/core/lv_obj_pos.c **** 
 230:Middlewares/lvgl/src/core/lv_obj_pos.c ****     res_h = lv_obj_get_local_style_prop(obj, LV_STYLE_HEIGHT, &v_h, 0);
 127              		.loc 1 230 5 view .LVU25
 128              		.loc 1 230 13 is_stmt 0 view .LVU26
 129 0008 0023     		movs	r3, #0
 130 000a 01AA     		add	r2, sp, #4
 131 000c 41F20401 		movw	r1, #4100
 132              	.LVL7:
 133              		.loc 1 230 13 view .LVU27
 134 0010 FFF7FEFF 		bl	lv_obj_get_local_style_prop
 135              	.LVL8:
 231:Middlewares/lvgl/src/core/lv_obj_pos.c **** 
 232:Middlewares/lvgl/src/core/lv_obj_pos.c ****     if((res_h == LV_RES_OK && v_h.num != h) || res_h == LV_RES_INV) {
 136              		.loc 1 232 5 is_stmt 1 view .LVU28
 137              		.loc 1 232 7 is_stmt 0 view .LVU29
 138 0014 0128     		cmp	r0, #1
 139 0016 07D0     		beq	.L12
 140              	.L8:
 141              		.loc 1 232 45 discriminator 3 view .LVU30
 142 0018 20B9     		cbnz	r0, .L7
 143              	.L9:
 233:Middlewares/lvgl/src/core/lv_obj_pos.c ****         lv_obj_set_style_height(obj, h, 0);
 144              		.loc 1 233 9 is_stmt 1 view .LVU31
 145 001a 0022     		movs	r2, #0
 146 001c 2146     		mov	r1, r4
 147 001e 2846     		mov	r0, r5
 148              	.LVL9:
 149              		.loc 1 233 9 is_stmt 0 view .LVU32
 150 0020 FFF7FEFF 		bl	lv_obj_set_style_height
 151              	.LVL10:
 152              	.L7:
 234:Middlewares/lvgl/src/core/lv_obj_pos.c ****     }
 235:Middlewares/lvgl/src/core/lv_obj_pos.c **** }
 153              		.loc 1 235 1 view .LVU33
 154 0024 03B0     		add	sp, sp, #12
 155              	.LCFI6:
 156              		.cfi_remember_state
 157              		.cfi_def_cfa_offset 12
 158              		@ sp needed
 159 0026 30BD     		pop	{r4, r5, pc}
 160              	.LVL11:
 161              	.L12:
 162              	.LCFI7:
 163              		.cfi_restore_state
 232:Middlewares/lvgl/src/core/lv_obj_pos.c ****         lv_obj_set_style_height(obj, h, 0);
 164              		.loc 1 232 34 discriminator 1 view .LVU34
ARM GAS  /tmp/ccgCqJqT.s 			page 8


 165 0028 019B     		ldr	r3, [sp, #4]
 232:Middlewares/lvgl/src/core/lv_obj_pos.c ****         lv_obj_set_style_height(obj, h, 0);
 166              		.loc 1 232 28 discriminator 1 view .LVU35
 167 002a A342     		cmp	r3, r4
 168 002c F5D1     		bne	.L9
 169 002e F3E7     		b	.L8
 170              		.cfi_endproc
 171              	.LFE159:
 173              		.section	.text.lv_obj_set_size,"ax",%progbits
 174              		.align	1
 175              		.global	lv_obj_set_size
 176              		.syntax unified
 177              		.thumb
 178              		.thumb_func
 179              		.fpu softvfp
 181              	lv_obj_set_size:
 182              	.LVL12:
 183              	.LFB157:
 204:Middlewares/lvgl/src/core/lv_obj_pos.c ****     LV_ASSERT_OBJ(obj, MY_CLASS);
 184              		.loc 1 204 1 is_stmt 1 view -0
 185              		.cfi_startproc
 186              		@ args = 0, pretend = 0, frame = 0
 187              		@ frame_needed = 0, uses_anonymous_args = 0
 204:Middlewares/lvgl/src/core/lv_obj_pos.c ****     LV_ASSERT_OBJ(obj, MY_CLASS);
 188              		.loc 1 204 1 is_stmt 0 view .LVU37
 189 0000 38B5     		push	{r3, r4, r5, lr}
 190              	.LCFI8:
 191              		.cfi_def_cfa_offset 16
 192              		.cfi_offset 3, -16
 193              		.cfi_offset 4, -12
 194              		.cfi_offset 5, -8
 195              		.cfi_offset 14, -4
 196 0002 0446     		mov	r4, r0
 197 0004 1546     		mov	r5, r2
 205:Middlewares/lvgl/src/core/lv_obj_pos.c **** 
 198              		.loc 1 205 5 is_stmt 1 view .LVU38
 205:Middlewares/lvgl/src/core/lv_obj_pos.c **** 
 199              		.loc 1 205 5 view .LVU39
 205:Middlewares/lvgl/src/core/lv_obj_pos.c **** 
 200              		.loc 1 205 5 view .LVU40
 207:Middlewares/lvgl/src/core/lv_obj_pos.c ****     lv_obj_set_height(obj, h);
 201              		.loc 1 207 5 view .LVU41
 202 0006 FFF7FEFF 		bl	lv_obj_set_width
 203              	.LVL13:
 208:Middlewares/lvgl/src/core/lv_obj_pos.c **** }
 204              		.loc 1 208 5 view .LVU42
 205 000a 2946     		mov	r1, r5
 206 000c 2046     		mov	r0, r4
 207 000e FFF7FEFF 		bl	lv_obj_set_height
 208              	.LVL14:
 209:Middlewares/lvgl/src/core/lv_obj_pos.c **** 
 209              		.loc 1 209 1 is_stmt 0 view .LVU43
 210 0012 38BD     		pop	{r3, r4, r5, pc}
 209:Middlewares/lvgl/src/core/lv_obj_pos.c **** 
 211              		.loc 1 209 1 view .LVU44
 212              		.cfi_endproc
 213              	.LFE157:
ARM GAS  /tmp/ccgCqJqT.s 			page 9


 215              		.section	.text.lv_obj_set_content_width,"ax",%progbits
 216              		.align	1
 217              		.global	lv_obj_set_content_width
 218              		.syntax unified
 219              		.thumb
 220              		.thumb_func
 221              		.fpu softvfp
 223              	lv_obj_set_content_width:
 224              	.LVL15:
 225              	.LFB160:
 236:Middlewares/lvgl/src/core/lv_obj_pos.c **** 
 237:Middlewares/lvgl/src/core/lv_obj_pos.c **** void lv_obj_set_content_width(lv_obj_t * obj, lv_coord_t w)
 238:Middlewares/lvgl/src/core/lv_obj_pos.c **** {
 226              		.loc 1 238 1 is_stmt 1 view -0
 227              		.cfi_startproc
 228              		@ args = 0, pretend = 0, frame = 0
 229              		@ frame_needed = 0, uses_anonymous_args = 0
 230              		.loc 1 238 1 is_stmt 0 view .LVU46
 231 0000 F8B5     		push	{r3, r4, r5, r6, r7, lr}
 232              	.LCFI9:
 233              		.cfi_def_cfa_offset 24
 234              		.cfi_offset 3, -24
 235              		.cfi_offset 4, -20
 236              		.cfi_offset 5, -16
 237              		.cfi_offset 6, -12
 238              		.cfi_offset 7, -8
 239              		.cfi_offset 14, -4
 240 0002 0546     		mov	r5, r0
 241 0004 0C46     		mov	r4, r1
 239:Middlewares/lvgl/src/core/lv_obj_pos.c ****     lv_coord_t pleft = lv_obj_get_style_pad_left(obj, LV_PART_MAIN);
 242              		.loc 1 239 5 is_stmt 1 view .LVU47
 243              	.LVL16:
 244              	.LBB121:
 245              	.LBI121:
 246              		.file 2 "Middlewares/lvgl/src/core/lv_obj_style_gen.h"
   1:Middlewares/lvgl/src/core/lv_obj_style_gen.h **** static inline lv_coord_t lv_obj_get_style_width(const struct _lv_obj_t * obj, uint32_t part)
   2:Middlewares/lvgl/src/core/lv_obj_style_gen.h **** {
   3:Middlewares/lvgl/src/core/lv_obj_style_gen.h ****     lv_style_value_t v = lv_obj_get_style_prop(obj, part, LV_STYLE_WIDTH);
   4:Middlewares/lvgl/src/core/lv_obj_style_gen.h ****     return (lv_coord_t)v.num;
   5:Middlewares/lvgl/src/core/lv_obj_style_gen.h **** }
   6:Middlewares/lvgl/src/core/lv_obj_style_gen.h **** 
   7:Middlewares/lvgl/src/core/lv_obj_style_gen.h **** static inline lv_coord_t lv_obj_get_style_min_width(const struct _lv_obj_t * obj, uint32_t part)
   8:Middlewares/lvgl/src/core/lv_obj_style_gen.h **** {
   9:Middlewares/lvgl/src/core/lv_obj_style_gen.h ****     lv_style_value_t v = lv_obj_get_style_prop(obj, part, LV_STYLE_MIN_WIDTH);
  10:Middlewares/lvgl/src/core/lv_obj_style_gen.h ****     return (lv_coord_t)v.num;
  11:Middlewares/lvgl/src/core/lv_obj_style_gen.h **** }
  12:Middlewares/lvgl/src/core/lv_obj_style_gen.h **** 
  13:Middlewares/lvgl/src/core/lv_obj_style_gen.h **** static inline lv_coord_t lv_obj_get_style_max_width(const struct _lv_obj_t * obj, uint32_t part)
  14:Middlewares/lvgl/src/core/lv_obj_style_gen.h **** {
  15:Middlewares/lvgl/src/core/lv_obj_style_gen.h ****     lv_style_value_t v = lv_obj_get_style_prop(obj, part, LV_STYLE_MAX_WIDTH);
  16:Middlewares/lvgl/src/core/lv_obj_style_gen.h ****     return (lv_coord_t)v.num;
  17:Middlewares/lvgl/src/core/lv_obj_style_gen.h **** }
  18:Middlewares/lvgl/src/core/lv_obj_style_gen.h **** 
  19:Middlewares/lvgl/src/core/lv_obj_style_gen.h **** static inline lv_coord_t lv_obj_get_style_height(const struct _lv_obj_t * obj, uint32_t part)
  20:Middlewares/lvgl/src/core/lv_obj_style_gen.h **** {
  21:Middlewares/lvgl/src/core/lv_obj_style_gen.h ****     lv_style_value_t v = lv_obj_get_style_prop(obj, part, LV_STYLE_HEIGHT);
  22:Middlewares/lvgl/src/core/lv_obj_style_gen.h ****     return (lv_coord_t)v.num;
ARM GAS  /tmp/ccgCqJqT.s 			page 10


  23:Middlewares/lvgl/src/core/lv_obj_style_gen.h **** }
  24:Middlewares/lvgl/src/core/lv_obj_style_gen.h **** 
  25:Middlewares/lvgl/src/core/lv_obj_style_gen.h **** static inline lv_coord_t lv_obj_get_style_min_height(const struct _lv_obj_t * obj, uint32_t part)
  26:Middlewares/lvgl/src/core/lv_obj_style_gen.h **** {
  27:Middlewares/lvgl/src/core/lv_obj_style_gen.h ****     lv_style_value_t v = lv_obj_get_style_prop(obj, part, LV_STYLE_MIN_HEIGHT);
  28:Middlewares/lvgl/src/core/lv_obj_style_gen.h ****     return (lv_coord_t)v.num;
  29:Middlewares/lvgl/src/core/lv_obj_style_gen.h **** }
  30:Middlewares/lvgl/src/core/lv_obj_style_gen.h **** 
  31:Middlewares/lvgl/src/core/lv_obj_style_gen.h **** static inline lv_coord_t lv_obj_get_style_max_height(const struct _lv_obj_t * obj, uint32_t part)
  32:Middlewares/lvgl/src/core/lv_obj_style_gen.h **** {
  33:Middlewares/lvgl/src/core/lv_obj_style_gen.h ****     lv_style_value_t v = lv_obj_get_style_prop(obj, part, LV_STYLE_MAX_HEIGHT);
  34:Middlewares/lvgl/src/core/lv_obj_style_gen.h ****     return (lv_coord_t)v.num;
  35:Middlewares/lvgl/src/core/lv_obj_style_gen.h **** }
  36:Middlewares/lvgl/src/core/lv_obj_style_gen.h **** 
  37:Middlewares/lvgl/src/core/lv_obj_style_gen.h **** static inline lv_coord_t lv_obj_get_style_x(const struct _lv_obj_t * obj, uint32_t part)
  38:Middlewares/lvgl/src/core/lv_obj_style_gen.h **** {
  39:Middlewares/lvgl/src/core/lv_obj_style_gen.h ****     lv_style_value_t v = lv_obj_get_style_prop(obj, part, LV_STYLE_X);
  40:Middlewares/lvgl/src/core/lv_obj_style_gen.h ****     return (lv_coord_t)v.num;
  41:Middlewares/lvgl/src/core/lv_obj_style_gen.h **** }
  42:Middlewares/lvgl/src/core/lv_obj_style_gen.h **** 
  43:Middlewares/lvgl/src/core/lv_obj_style_gen.h **** static inline lv_coord_t lv_obj_get_style_y(const struct _lv_obj_t * obj, uint32_t part)
  44:Middlewares/lvgl/src/core/lv_obj_style_gen.h **** {
  45:Middlewares/lvgl/src/core/lv_obj_style_gen.h ****     lv_style_value_t v = lv_obj_get_style_prop(obj, part, LV_STYLE_Y);
  46:Middlewares/lvgl/src/core/lv_obj_style_gen.h ****     return (lv_coord_t)v.num;
  47:Middlewares/lvgl/src/core/lv_obj_style_gen.h **** }
  48:Middlewares/lvgl/src/core/lv_obj_style_gen.h **** 
  49:Middlewares/lvgl/src/core/lv_obj_style_gen.h **** static inline lv_align_t lv_obj_get_style_align(const struct _lv_obj_t * obj, uint32_t part)
  50:Middlewares/lvgl/src/core/lv_obj_style_gen.h **** {
  51:Middlewares/lvgl/src/core/lv_obj_style_gen.h ****     lv_style_value_t v = lv_obj_get_style_prop(obj, part, LV_STYLE_ALIGN);
  52:Middlewares/lvgl/src/core/lv_obj_style_gen.h ****     return (lv_align_t)v.num;
  53:Middlewares/lvgl/src/core/lv_obj_style_gen.h **** }
  54:Middlewares/lvgl/src/core/lv_obj_style_gen.h **** 
  55:Middlewares/lvgl/src/core/lv_obj_style_gen.h **** static inline lv_coord_t lv_obj_get_style_transform_width(const struct _lv_obj_t * obj, uint32_t pa
  56:Middlewares/lvgl/src/core/lv_obj_style_gen.h **** {
  57:Middlewares/lvgl/src/core/lv_obj_style_gen.h ****     lv_style_value_t v = lv_obj_get_style_prop(obj, part, LV_STYLE_TRANSFORM_WIDTH);
  58:Middlewares/lvgl/src/core/lv_obj_style_gen.h ****     return (lv_coord_t)v.num;
  59:Middlewares/lvgl/src/core/lv_obj_style_gen.h **** }
  60:Middlewares/lvgl/src/core/lv_obj_style_gen.h **** 
  61:Middlewares/lvgl/src/core/lv_obj_style_gen.h **** static inline lv_coord_t lv_obj_get_style_transform_height(const struct _lv_obj_t * obj, uint32_t p
  62:Middlewares/lvgl/src/core/lv_obj_style_gen.h **** {
  63:Middlewares/lvgl/src/core/lv_obj_style_gen.h ****     lv_style_value_t v = lv_obj_get_style_prop(obj, part, LV_STYLE_TRANSFORM_HEIGHT);
  64:Middlewares/lvgl/src/core/lv_obj_style_gen.h ****     return (lv_coord_t)v.num;
  65:Middlewares/lvgl/src/core/lv_obj_style_gen.h **** }
  66:Middlewares/lvgl/src/core/lv_obj_style_gen.h **** 
  67:Middlewares/lvgl/src/core/lv_obj_style_gen.h **** static inline lv_coord_t lv_obj_get_style_translate_x(const struct _lv_obj_t * obj, uint32_t part)
  68:Middlewares/lvgl/src/core/lv_obj_style_gen.h **** {
  69:Middlewares/lvgl/src/core/lv_obj_style_gen.h ****     lv_style_value_t v = lv_obj_get_style_prop(obj, part, LV_STYLE_TRANSLATE_X);
  70:Middlewares/lvgl/src/core/lv_obj_style_gen.h ****     return (lv_coord_t)v.num;
  71:Middlewares/lvgl/src/core/lv_obj_style_gen.h **** }
  72:Middlewares/lvgl/src/core/lv_obj_style_gen.h **** 
  73:Middlewares/lvgl/src/core/lv_obj_style_gen.h **** static inline lv_coord_t lv_obj_get_style_translate_y(const struct _lv_obj_t * obj, uint32_t part)
  74:Middlewares/lvgl/src/core/lv_obj_style_gen.h **** {
  75:Middlewares/lvgl/src/core/lv_obj_style_gen.h ****     lv_style_value_t v = lv_obj_get_style_prop(obj, part, LV_STYLE_TRANSLATE_Y);
  76:Middlewares/lvgl/src/core/lv_obj_style_gen.h ****     return (lv_coord_t)v.num;
  77:Middlewares/lvgl/src/core/lv_obj_style_gen.h **** }
  78:Middlewares/lvgl/src/core/lv_obj_style_gen.h **** 
  79:Middlewares/lvgl/src/core/lv_obj_style_gen.h **** static inline lv_coord_t lv_obj_get_style_transform_zoom(const struct _lv_obj_t * obj, uint32_t par
ARM GAS  /tmp/ccgCqJqT.s 			page 11


  80:Middlewares/lvgl/src/core/lv_obj_style_gen.h **** {
  81:Middlewares/lvgl/src/core/lv_obj_style_gen.h ****     lv_style_value_t v = lv_obj_get_style_prop(obj, part, LV_STYLE_TRANSFORM_ZOOM);
  82:Middlewares/lvgl/src/core/lv_obj_style_gen.h ****     return (lv_coord_t)v.num;
  83:Middlewares/lvgl/src/core/lv_obj_style_gen.h **** }
  84:Middlewares/lvgl/src/core/lv_obj_style_gen.h **** 
  85:Middlewares/lvgl/src/core/lv_obj_style_gen.h **** static inline lv_coord_t lv_obj_get_style_transform_angle(const struct _lv_obj_t * obj, uint32_t pa
  86:Middlewares/lvgl/src/core/lv_obj_style_gen.h **** {
  87:Middlewares/lvgl/src/core/lv_obj_style_gen.h ****     lv_style_value_t v = lv_obj_get_style_prop(obj, part, LV_STYLE_TRANSFORM_ANGLE);
  88:Middlewares/lvgl/src/core/lv_obj_style_gen.h ****     return (lv_coord_t)v.num;
  89:Middlewares/lvgl/src/core/lv_obj_style_gen.h **** }
  90:Middlewares/lvgl/src/core/lv_obj_style_gen.h **** 
  91:Middlewares/lvgl/src/core/lv_obj_style_gen.h **** static inline lv_coord_t lv_obj_get_style_pad_top(const struct _lv_obj_t * obj, uint32_t part)
  92:Middlewares/lvgl/src/core/lv_obj_style_gen.h **** {
  93:Middlewares/lvgl/src/core/lv_obj_style_gen.h ****     lv_style_value_t v = lv_obj_get_style_prop(obj, part, LV_STYLE_PAD_TOP);
  94:Middlewares/lvgl/src/core/lv_obj_style_gen.h ****     return (lv_coord_t)v.num;
  95:Middlewares/lvgl/src/core/lv_obj_style_gen.h **** }
  96:Middlewares/lvgl/src/core/lv_obj_style_gen.h **** 
  97:Middlewares/lvgl/src/core/lv_obj_style_gen.h **** static inline lv_coord_t lv_obj_get_style_pad_bottom(const struct _lv_obj_t * obj, uint32_t part)
  98:Middlewares/lvgl/src/core/lv_obj_style_gen.h **** {
  99:Middlewares/lvgl/src/core/lv_obj_style_gen.h ****     lv_style_value_t v = lv_obj_get_style_prop(obj, part, LV_STYLE_PAD_BOTTOM);
 100:Middlewares/lvgl/src/core/lv_obj_style_gen.h ****     return (lv_coord_t)v.num;
 101:Middlewares/lvgl/src/core/lv_obj_style_gen.h **** }
 102:Middlewares/lvgl/src/core/lv_obj_style_gen.h **** 
 103:Middlewares/lvgl/src/core/lv_obj_style_gen.h **** static inline lv_coord_t lv_obj_get_style_pad_left(const struct _lv_obj_t * obj, uint32_t part)
 247              		.loc 2 103 26 view .LVU48
 248              	.LBB122:
 104:Middlewares/lvgl/src/core/lv_obj_style_gen.h **** {
 105:Middlewares/lvgl/src/core/lv_obj_style_gen.h ****     lv_style_value_t v = lv_obj_get_style_prop(obj, part, LV_STYLE_PAD_LEFT);
 249              		.loc 2 105 5 view .LVU49
 250              		.loc 2 105 26 is_stmt 0 view .LVU50
 251 0006 41F21202 		movw	r2, #4114
 252 000a 0021     		movs	r1, #0
 253              	.LVL17:
 254              		.loc 2 105 26 view .LVU51
 255 000c FFF7FEFF 		bl	lv_obj_get_style_prop
 256              	.LVL18:
 257              		.loc 2 105 26 view .LVU52
 258 0010 0746     		mov	r7, r0
 259              	.LVL19:
 106:Middlewares/lvgl/src/core/lv_obj_style_gen.h ****     return (lv_coord_t)v.num;
 260              		.loc 2 106 5 is_stmt 1 view .LVU53
 261              		.loc 2 106 5 is_stmt 0 view .LVU54
 262              	.LBE122:
 263              	.LBE121:
 240:Middlewares/lvgl/src/core/lv_obj_pos.c ****     lv_coord_t pright = lv_obj_get_style_pad_right(obj, LV_PART_MAIN);
 264              		.loc 1 240 5 is_stmt 1 view .LVU55
 265              	.LBB123:
 266              	.LBI123:
 107:Middlewares/lvgl/src/core/lv_obj_style_gen.h **** }
 108:Middlewares/lvgl/src/core/lv_obj_style_gen.h **** 
 109:Middlewares/lvgl/src/core/lv_obj_style_gen.h **** static inline lv_coord_t lv_obj_get_style_pad_right(const struct _lv_obj_t * obj, uint32_t part)
 267              		.loc 2 109 26 view .LVU56
 268              	.LBB124:
 110:Middlewares/lvgl/src/core/lv_obj_style_gen.h **** {
 111:Middlewares/lvgl/src/core/lv_obj_style_gen.h ****     lv_style_value_t v = lv_obj_get_style_prop(obj, part, LV_STYLE_PAD_RIGHT);
 269              		.loc 2 111 5 view .LVU57
 270              		.loc 2 111 26 is_stmt 0 view .LVU58
ARM GAS  /tmp/ccgCqJqT.s 			page 12


 271 0012 41F21302 		movw	r2, #4115
 272 0016 0021     		movs	r1, #0
 273 0018 2846     		mov	r0, r5
 274 001a FFF7FEFF 		bl	lv_obj_get_style_prop
 275              	.LVL20:
 276 001e 0646     		mov	r6, r0
 277              	.LVL21:
 112:Middlewares/lvgl/src/core/lv_obj_style_gen.h ****     return (lv_coord_t)v.num;
 278              		.loc 2 112 5 is_stmt 1 view .LVU59
 279              		.loc 2 112 5 is_stmt 0 view .LVU60
 280              	.LBE124:
 281              	.LBE123:
 241:Middlewares/lvgl/src/core/lv_obj_pos.c ****     lv_coord_t border_width = lv_obj_get_style_border_width(obj, LV_PART_MAIN);
 282              		.loc 1 241 5 is_stmt 1 view .LVU61
 283              	.LBB125:
 284              	.LBI125:
 113:Middlewares/lvgl/src/core/lv_obj_style_gen.h **** }
 114:Middlewares/lvgl/src/core/lv_obj_style_gen.h **** 
 115:Middlewares/lvgl/src/core/lv_obj_style_gen.h **** static inline lv_coord_t lv_obj_get_style_pad_row(const struct _lv_obj_t * obj, uint32_t part)
 116:Middlewares/lvgl/src/core/lv_obj_style_gen.h **** {
 117:Middlewares/lvgl/src/core/lv_obj_style_gen.h ****     lv_style_value_t v = lv_obj_get_style_prop(obj, part, LV_STYLE_PAD_ROW);
 118:Middlewares/lvgl/src/core/lv_obj_style_gen.h ****     return (lv_coord_t)v.num;
 119:Middlewares/lvgl/src/core/lv_obj_style_gen.h **** }
 120:Middlewares/lvgl/src/core/lv_obj_style_gen.h **** 
 121:Middlewares/lvgl/src/core/lv_obj_style_gen.h **** static inline lv_coord_t lv_obj_get_style_pad_column(const struct _lv_obj_t * obj, uint32_t part)
 122:Middlewares/lvgl/src/core/lv_obj_style_gen.h **** {
 123:Middlewares/lvgl/src/core/lv_obj_style_gen.h ****     lv_style_value_t v = lv_obj_get_style_prop(obj, part, LV_STYLE_PAD_COLUMN);
 124:Middlewares/lvgl/src/core/lv_obj_style_gen.h ****     return (lv_coord_t)v.num;
 125:Middlewares/lvgl/src/core/lv_obj_style_gen.h **** }
 126:Middlewares/lvgl/src/core/lv_obj_style_gen.h **** 
 127:Middlewares/lvgl/src/core/lv_obj_style_gen.h **** static inline lv_coord_t lv_obj_get_style_radius(const struct _lv_obj_t * obj, uint32_t part)
 128:Middlewares/lvgl/src/core/lv_obj_style_gen.h **** {
 129:Middlewares/lvgl/src/core/lv_obj_style_gen.h ****     lv_style_value_t v = lv_obj_get_style_prop(obj, part, LV_STYLE_RADIUS);
 130:Middlewares/lvgl/src/core/lv_obj_style_gen.h ****     return (lv_coord_t)v.num;
 131:Middlewares/lvgl/src/core/lv_obj_style_gen.h **** }
 132:Middlewares/lvgl/src/core/lv_obj_style_gen.h **** 
 133:Middlewares/lvgl/src/core/lv_obj_style_gen.h **** static inline bool lv_obj_get_style_clip_corner(const struct _lv_obj_t * obj, uint32_t part)
 134:Middlewares/lvgl/src/core/lv_obj_style_gen.h **** {
 135:Middlewares/lvgl/src/core/lv_obj_style_gen.h ****     lv_style_value_t v = lv_obj_get_style_prop(obj, part, LV_STYLE_CLIP_CORNER);
 136:Middlewares/lvgl/src/core/lv_obj_style_gen.h ****     return (bool)v.num;
 137:Middlewares/lvgl/src/core/lv_obj_style_gen.h **** }
 138:Middlewares/lvgl/src/core/lv_obj_style_gen.h **** 
 139:Middlewares/lvgl/src/core/lv_obj_style_gen.h **** static inline lv_opa_t lv_obj_get_style_opa(const struct _lv_obj_t * obj, uint32_t part)
 140:Middlewares/lvgl/src/core/lv_obj_style_gen.h **** {
 141:Middlewares/lvgl/src/core/lv_obj_style_gen.h ****     lv_style_value_t v = lv_obj_get_style_prop(obj, part, LV_STYLE_OPA);
 142:Middlewares/lvgl/src/core/lv_obj_style_gen.h ****     return (lv_opa_t)v.num;
 143:Middlewares/lvgl/src/core/lv_obj_style_gen.h **** }
 144:Middlewares/lvgl/src/core/lv_obj_style_gen.h **** 
 145:Middlewares/lvgl/src/core/lv_obj_style_gen.h **** static inline const lv_color_filter_dsc_t * lv_obj_get_style_color_filter_dsc(const struct _lv_obj_
 146:Middlewares/lvgl/src/core/lv_obj_style_gen.h **** {
 147:Middlewares/lvgl/src/core/lv_obj_style_gen.h ****     lv_style_value_t v = lv_obj_get_style_prop(obj, part, LV_STYLE_COLOR_FILTER_DSC);
 148:Middlewares/lvgl/src/core/lv_obj_style_gen.h ****     return (const lv_color_filter_dsc_t *)v.ptr;
 149:Middlewares/lvgl/src/core/lv_obj_style_gen.h **** }
 150:Middlewares/lvgl/src/core/lv_obj_style_gen.h **** 
 151:Middlewares/lvgl/src/core/lv_obj_style_gen.h **** static inline lv_opa_t lv_obj_get_style_color_filter_opa(const struct _lv_obj_t * obj, uint32_t par
 152:Middlewares/lvgl/src/core/lv_obj_style_gen.h **** {
 153:Middlewares/lvgl/src/core/lv_obj_style_gen.h ****     lv_style_value_t v = lv_obj_get_style_prop(obj, part, LV_STYLE_COLOR_FILTER_OPA);
ARM GAS  /tmp/ccgCqJqT.s 			page 13


 154:Middlewares/lvgl/src/core/lv_obj_style_gen.h ****     return (lv_opa_t)v.num;
 155:Middlewares/lvgl/src/core/lv_obj_style_gen.h **** }
 156:Middlewares/lvgl/src/core/lv_obj_style_gen.h **** 
 157:Middlewares/lvgl/src/core/lv_obj_style_gen.h **** static inline uint32_t lv_obj_get_style_anim_time(const struct _lv_obj_t * obj, uint32_t part)
 158:Middlewares/lvgl/src/core/lv_obj_style_gen.h **** {
 159:Middlewares/lvgl/src/core/lv_obj_style_gen.h ****     lv_style_value_t v = lv_obj_get_style_prop(obj, part, LV_STYLE_ANIM_TIME);
 160:Middlewares/lvgl/src/core/lv_obj_style_gen.h ****     return (uint32_t)v.num;
 161:Middlewares/lvgl/src/core/lv_obj_style_gen.h **** }
 162:Middlewares/lvgl/src/core/lv_obj_style_gen.h **** 
 163:Middlewares/lvgl/src/core/lv_obj_style_gen.h **** static inline uint32_t lv_obj_get_style_anim_speed(const struct _lv_obj_t * obj, uint32_t part)
 164:Middlewares/lvgl/src/core/lv_obj_style_gen.h **** {
 165:Middlewares/lvgl/src/core/lv_obj_style_gen.h ****     lv_style_value_t v = lv_obj_get_style_prop(obj, part, LV_STYLE_ANIM_SPEED);
 166:Middlewares/lvgl/src/core/lv_obj_style_gen.h ****     return (uint32_t)v.num;
 167:Middlewares/lvgl/src/core/lv_obj_style_gen.h **** }
 168:Middlewares/lvgl/src/core/lv_obj_style_gen.h **** 
 169:Middlewares/lvgl/src/core/lv_obj_style_gen.h **** static inline const lv_style_transition_dsc_t * lv_obj_get_style_transition(const struct _lv_obj_t 
 170:Middlewares/lvgl/src/core/lv_obj_style_gen.h **** {
 171:Middlewares/lvgl/src/core/lv_obj_style_gen.h ****     lv_style_value_t v = lv_obj_get_style_prop(obj, part, LV_STYLE_TRANSITION);
 172:Middlewares/lvgl/src/core/lv_obj_style_gen.h ****     return (const lv_style_transition_dsc_t *)v.ptr;
 173:Middlewares/lvgl/src/core/lv_obj_style_gen.h **** }
 174:Middlewares/lvgl/src/core/lv_obj_style_gen.h **** 
 175:Middlewares/lvgl/src/core/lv_obj_style_gen.h **** static inline lv_blend_mode_t lv_obj_get_style_blend_mode(const struct _lv_obj_t * obj, uint32_t pa
 176:Middlewares/lvgl/src/core/lv_obj_style_gen.h **** {
 177:Middlewares/lvgl/src/core/lv_obj_style_gen.h ****     lv_style_value_t v = lv_obj_get_style_prop(obj, part, LV_STYLE_BLEND_MODE);
 178:Middlewares/lvgl/src/core/lv_obj_style_gen.h ****     return (lv_blend_mode_t)v.num;
 179:Middlewares/lvgl/src/core/lv_obj_style_gen.h **** }
 180:Middlewares/lvgl/src/core/lv_obj_style_gen.h **** 
 181:Middlewares/lvgl/src/core/lv_obj_style_gen.h **** static inline uint16_t lv_obj_get_style_layout(const struct _lv_obj_t * obj, uint32_t part)
 182:Middlewares/lvgl/src/core/lv_obj_style_gen.h **** {
 183:Middlewares/lvgl/src/core/lv_obj_style_gen.h ****     lv_style_value_t v = lv_obj_get_style_prop(obj, part, LV_STYLE_LAYOUT);
 184:Middlewares/lvgl/src/core/lv_obj_style_gen.h ****     return (uint16_t)v.num;
 185:Middlewares/lvgl/src/core/lv_obj_style_gen.h **** }
 186:Middlewares/lvgl/src/core/lv_obj_style_gen.h **** 
 187:Middlewares/lvgl/src/core/lv_obj_style_gen.h **** static inline lv_base_dir_t lv_obj_get_style_base_dir(const struct _lv_obj_t * obj, uint32_t part)
 188:Middlewares/lvgl/src/core/lv_obj_style_gen.h **** {
 189:Middlewares/lvgl/src/core/lv_obj_style_gen.h ****     lv_style_value_t v = lv_obj_get_style_prop(obj, part, LV_STYLE_BASE_DIR);
 190:Middlewares/lvgl/src/core/lv_obj_style_gen.h ****     return (lv_base_dir_t)v.num;
 191:Middlewares/lvgl/src/core/lv_obj_style_gen.h **** }
 192:Middlewares/lvgl/src/core/lv_obj_style_gen.h **** 
 193:Middlewares/lvgl/src/core/lv_obj_style_gen.h **** static inline lv_color_t lv_obj_get_style_bg_color(const struct _lv_obj_t * obj, uint32_t part)
 194:Middlewares/lvgl/src/core/lv_obj_style_gen.h **** {
 195:Middlewares/lvgl/src/core/lv_obj_style_gen.h ****     lv_style_value_t v = lv_obj_get_style_prop(obj, part, LV_STYLE_BG_COLOR);
 196:Middlewares/lvgl/src/core/lv_obj_style_gen.h ****     return v.color;
 197:Middlewares/lvgl/src/core/lv_obj_style_gen.h **** }
 198:Middlewares/lvgl/src/core/lv_obj_style_gen.h **** 
 199:Middlewares/lvgl/src/core/lv_obj_style_gen.h **** static inline lv_color_t lv_obj_get_style_bg_color_filtered(const struct _lv_obj_t * obj, uint32_t 
 200:Middlewares/lvgl/src/core/lv_obj_style_gen.h **** {
 201:Middlewares/lvgl/src/core/lv_obj_style_gen.h ****     lv_style_value_t v = lv_obj_get_style_prop(obj, part, LV_STYLE_BG_COLOR_FILTERED);
 202:Middlewares/lvgl/src/core/lv_obj_style_gen.h ****     return v.color;
 203:Middlewares/lvgl/src/core/lv_obj_style_gen.h **** }
 204:Middlewares/lvgl/src/core/lv_obj_style_gen.h **** 
 205:Middlewares/lvgl/src/core/lv_obj_style_gen.h **** static inline lv_opa_t lv_obj_get_style_bg_opa(const struct _lv_obj_t * obj, uint32_t part)
 206:Middlewares/lvgl/src/core/lv_obj_style_gen.h **** {
 207:Middlewares/lvgl/src/core/lv_obj_style_gen.h ****     lv_style_value_t v = lv_obj_get_style_prop(obj, part, LV_STYLE_BG_OPA);
 208:Middlewares/lvgl/src/core/lv_obj_style_gen.h ****     return (lv_opa_t)v.num;
 209:Middlewares/lvgl/src/core/lv_obj_style_gen.h **** }
 210:Middlewares/lvgl/src/core/lv_obj_style_gen.h **** 
ARM GAS  /tmp/ccgCqJqT.s 			page 14


 211:Middlewares/lvgl/src/core/lv_obj_style_gen.h **** static inline lv_color_t lv_obj_get_style_bg_grad_color(const struct _lv_obj_t * obj, uint32_t part
 212:Middlewares/lvgl/src/core/lv_obj_style_gen.h **** {
 213:Middlewares/lvgl/src/core/lv_obj_style_gen.h ****     lv_style_value_t v = lv_obj_get_style_prop(obj, part, LV_STYLE_BG_GRAD_COLOR);
 214:Middlewares/lvgl/src/core/lv_obj_style_gen.h ****     return v.color;
 215:Middlewares/lvgl/src/core/lv_obj_style_gen.h **** }
 216:Middlewares/lvgl/src/core/lv_obj_style_gen.h **** 
 217:Middlewares/lvgl/src/core/lv_obj_style_gen.h **** static inline lv_color_t lv_obj_get_style_bg_grad_color_filtered(const struct _lv_obj_t * obj, uint
 218:Middlewares/lvgl/src/core/lv_obj_style_gen.h **** {
 219:Middlewares/lvgl/src/core/lv_obj_style_gen.h ****     lv_style_value_t v = lv_obj_get_style_prop(obj, part, LV_STYLE_BG_GRAD_COLOR_FILTERED);
 220:Middlewares/lvgl/src/core/lv_obj_style_gen.h ****     return v.color;
 221:Middlewares/lvgl/src/core/lv_obj_style_gen.h **** }
 222:Middlewares/lvgl/src/core/lv_obj_style_gen.h **** 
 223:Middlewares/lvgl/src/core/lv_obj_style_gen.h **** static inline lv_grad_dir_t lv_obj_get_style_bg_grad_dir(const struct _lv_obj_t * obj, uint32_t par
 224:Middlewares/lvgl/src/core/lv_obj_style_gen.h **** {
 225:Middlewares/lvgl/src/core/lv_obj_style_gen.h ****     lv_style_value_t v = lv_obj_get_style_prop(obj, part, LV_STYLE_BG_GRAD_DIR);
 226:Middlewares/lvgl/src/core/lv_obj_style_gen.h ****     return (lv_grad_dir_t)v.num;
 227:Middlewares/lvgl/src/core/lv_obj_style_gen.h **** }
 228:Middlewares/lvgl/src/core/lv_obj_style_gen.h **** 
 229:Middlewares/lvgl/src/core/lv_obj_style_gen.h **** static inline lv_coord_t lv_obj_get_style_bg_main_stop(const struct _lv_obj_t * obj, uint32_t part)
 230:Middlewares/lvgl/src/core/lv_obj_style_gen.h **** {
 231:Middlewares/lvgl/src/core/lv_obj_style_gen.h ****     lv_style_value_t v = lv_obj_get_style_prop(obj, part, LV_STYLE_BG_MAIN_STOP);
 232:Middlewares/lvgl/src/core/lv_obj_style_gen.h ****     return (lv_coord_t)v.num;
 233:Middlewares/lvgl/src/core/lv_obj_style_gen.h **** }
 234:Middlewares/lvgl/src/core/lv_obj_style_gen.h **** 
 235:Middlewares/lvgl/src/core/lv_obj_style_gen.h **** static inline lv_coord_t lv_obj_get_style_bg_grad_stop(const struct _lv_obj_t * obj, uint32_t part)
 236:Middlewares/lvgl/src/core/lv_obj_style_gen.h **** {
 237:Middlewares/lvgl/src/core/lv_obj_style_gen.h ****     lv_style_value_t v = lv_obj_get_style_prop(obj, part, LV_STYLE_BG_GRAD_STOP);
 238:Middlewares/lvgl/src/core/lv_obj_style_gen.h ****     return (lv_coord_t)v.num;
 239:Middlewares/lvgl/src/core/lv_obj_style_gen.h **** }
 240:Middlewares/lvgl/src/core/lv_obj_style_gen.h **** 
 241:Middlewares/lvgl/src/core/lv_obj_style_gen.h **** static inline const void * lv_obj_get_style_bg_img_src(const struct _lv_obj_t * obj, uint32_t part)
 242:Middlewares/lvgl/src/core/lv_obj_style_gen.h **** {
 243:Middlewares/lvgl/src/core/lv_obj_style_gen.h ****     lv_style_value_t v = lv_obj_get_style_prop(obj, part, LV_STYLE_BG_IMG_SRC);
 244:Middlewares/lvgl/src/core/lv_obj_style_gen.h ****     return (const void *)v.ptr;
 245:Middlewares/lvgl/src/core/lv_obj_style_gen.h **** }
 246:Middlewares/lvgl/src/core/lv_obj_style_gen.h **** 
 247:Middlewares/lvgl/src/core/lv_obj_style_gen.h **** static inline lv_opa_t lv_obj_get_style_bg_img_opa(const struct _lv_obj_t * obj, uint32_t part)
 248:Middlewares/lvgl/src/core/lv_obj_style_gen.h **** {
 249:Middlewares/lvgl/src/core/lv_obj_style_gen.h ****     lv_style_value_t v = lv_obj_get_style_prop(obj, part, LV_STYLE_BG_IMG_OPA);
 250:Middlewares/lvgl/src/core/lv_obj_style_gen.h ****     return (lv_opa_t)v.num;
 251:Middlewares/lvgl/src/core/lv_obj_style_gen.h **** }
 252:Middlewares/lvgl/src/core/lv_obj_style_gen.h **** 
 253:Middlewares/lvgl/src/core/lv_obj_style_gen.h **** static inline lv_color_t lv_obj_get_style_bg_img_recolor(const struct _lv_obj_t * obj, uint32_t par
 254:Middlewares/lvgl/src/core/lv_obj_style_gen.h **** {
 255:Middlewares/lvgl/src/core/lv_obj_style_gen.h ****     lv_style_value_t v = lv_obj_get_style_prop(obj, part, LV_STYLE_BG_IMG_RECOLOR);
 256:Middlewares/lvgl/src/core/lv_obj_style_gen.h ****     return v.color;
 257:Middlewares/lvgl/src/core/lv_obj_style_gen.h **** }
 258:Middlewares/lvgl/src/core/lv_obj_style_gen.h **** 
 259:Middlewares/lvgl/src/core/lv_obj_style_gen.h **** static inline lv_color_t lv_obj_get_style_bg_img_recolor_filtered(const struct _lv_obj_t * obj, uin
 260:Middlewares/lvgl/src/core/lv_obj_style_gen.h **** {
 261:Middlewares/lvgl/src/core/lv_obj_style_gen.h ****     lv_style_value_t v = lv_obj_get_style_prop(obj, part, LV_STYLE_BG_IMG_RECOLOR_FILTERED);
 262:Middlewares/lvgl/src/core/lv_obj_style_gen.h ****     return v.color;
 263:Middlewares/lvgl/src/core/lv_obj_style_gen.h **** }
 264:Middlewares/lvgl/src/core/lv_obj_style_gen.h **** 
 265:Middlewares/lvgl/src/core/lv_obj_style_gen.h **** static inline lv_opa_t lv_obj_get_style_bg_img_recolor_opa(const struct _lv_obj_t * obj, uint32_t p
 266:Middlewares/lvgl/src/core/lv_obj_style_gen.h **** {
 267:Middlewares/lvgl/src/core/lv_obj_style_gen.h ****     lv_style_value_t v = lv_obj_get_style_prop(obj, part, LV_STYLE_BG_IMG_RECOLOR_OPA);
ARM GAS  /tmp/ccgCqJqT.s 			page 15


 268:Middlewares/lvgl/src/core/lv_obj_style_gen.h ****     return (lv_opa_t)v.num;
 269:Middlewares/lvgl/src/core/lv_obj_style_gen.h **** }
 270:Middlewares/lvgl/src/core/lv_obj_style_gen.h **** 
 271:Middlewares/lvgl/src/core/lv_obj_style_gen.h **** static inline bool lv_obj_get_style_bg_img_tiled(const struct _lv_obj_t * obj, uint32_t part)
 272:Middlewares/lvgl/src/core/lv_obj_style_gen.h **** {
 273:Middlewares/lvgl/src/core/lv_obj_style_gen.h ****     lv_style_value_t v = lv_obj_get_style_prop(obj, part, LV_STYLE_BG_IMG_TILED);
 274:Middlewares/lvgl/src/core/lv_obj_style_gen.h ****     return (bool)v.num;
 275:Middlewares/lvgl/src/core/lv_obj_style_gen.h **** }
 276:Middlewares/lvgl/src/core/lv_obj_style_gen.h **** 
 277:Middlewares/lvgl/src/core/lv_obj_style_gen.h **** static inline lv_color_t lv_obj_get_style_border_color(const struct _lv_obj_t * obj, uint32_t part)
 278:Middlewares/lvgl/src/core/lv_obj_style_gen.h **** {
 279:Middlewares/lvgl/src/core/lv_obj_style_gen.h ****     lv_style_value_t v = lv_obj_get_style_prop(obj, part, LV_STYLE_BORDER_COLOR);
 280:Middlewares/lvgl/src/core/lv_obj_style_gen.h ****     return v.color;
 281:Middlewares/lvgl/src/core/lv_obj_style_gen.h **** }
 282:Middlewares/lvgl/src/core/lv_obj_style_gen.h **** 
 283:Middlewares/lvgl/src/core/lv_obj_style_gen.h **** static inline lv_color_t lv_obj_get_style_border_color_filtered(const struct _lv_obj_t * obj, uint3
 284:Middlewares/lvgl/src/core/lv_obj_style_gen.h **** {
 285:Middlewares/lvgl/src/core/lv_obj_style_gen.h ****     lv_style_value_t v = lv_obj_get_style_prop(obj, part, LV_STYLE_BORDER_COLOR_FILTERED);
 286:Middlewares/lvgl/src/core/lv_obj_style_gen.h ****     return v.color;
 287:Middlewares/lvgl/src/core/lv_obj_style_gen.h **** }
 288:Middlewares/lvgl/src/core/lv_obj_style_gen.h **** 
 289:Middlewares/lvgl/src/core/lv_obj_style_gen.h **** static inline lv_opa_t lv_obj_get_style_border_opa(const struct _lv_obj_t * obj, uint32_t part)
 290:Middlewares/lvgl/src/core/lv_obj_style_gen.h **** {
 291:Middlewares/lvgl/src/core/lv_obj_style_gen.h ****     lv_style_value_t v = lv_obj_get_style_prop(obj, part, LV_STYLE_BORDER_OPA);
 292:Middlewares/lvgl/src/core/lv_obj_style_gen.h ****     return (lv_opa_t)v.num;
 293:Middlewares/lvgl/src/core/lv_obj_style_gen.h **** }
 294:Middlewares/lvgl/src/core/lv_obj_style_gen.h **** 
 295:Middlewares/lvgl/src/core/lv_obj_style_gen.h **** static inline lv_coord_t lv_obj_get_style_border_width(const struct _lv_obj_t * obj, uint32_t part)
 285              		.loc 2 295 26 view .LVU62
 286              	.LBB126:
 296:Middlewares/lvgl/src/core/lv_obj_style_gen.h **** {
 297:Middlewares/lvgl/src/core/lv_obj_style_gen.h ****     lv_style_value_t v = lv_obj_get_style_prop(obj, part, LV_STYLE_BORDER_WIDTH);
 287              		.loc 2 297 5 view .LVU63
 288              		.loc 2 297 26 is_stmt 0 view .LVU64
 289 0020 41F23202 		movw	r2, #4146
 290 0024 0021     		movs	r1, #0
 291 0026 2846     		mov	r0, r5
 292 0028 FFF7FEFF 		bl	lv_obj_get_style_prop
 293              	.LVL22:
 298:Middlewares/lvgl/src/core/lv_obj_style_gen.h ****     return (lv_coord_t)v.num;
 294              		.loc 2 298 5 is_stmt 1 view .LVU65
 295              		.loc 2 298 5 is_stmt 0 view .LVU66
 296              	.LBE126:
 297              	.LBE125:
 242:Middlewares/lvgl/src/core/lv_obj_pos.c **** 
 243:Middlewares/lvgl/src/core/lv_obj_pos.c ****     lv_obj_set_width(obj, w + pleft + pright + 2 * border_width);
 298              		.loc 1 243 5 is_stmt 1 view .LVU67
 299              		.loc 1 243 29 is_stmt 0 view .LVU68
 300 002c E119     		adds	r1, r4, r7
 301 002e 89B2     		uxth	r1, r1
 302              		.loc 1 243 37 view .LVU69
 303 0030 3144     		add	r1, r1, r6
 304 0032 89B2     		uxth	r1, r1
 305              		.loc 1 243 50 view .LVU70
 306 0034 4000     		lsls	r0, r0, #1
 307              	.LVL23:
 308              		.loc 1 243 50 view .LVU71
ARM GAS  /tmp/ccgCqJqT.s 			page 16


 309 0036 80B2     		uxth	r0, r0
 310              		.loc 1 243 46 view .LVU72
 311 0038 0144     		add	r1, r1, r0
 312              		.loc 1 243 5 view .LVU73
 313 003a 09B2     		sxth	r1, r1
 314 003c 2846     		mov	r0, r5
 315 003e FFF7FEFF 		bl	lv_obj_set_width
 316              	.LVL24:
 244:Middlewares/lvgl/src/core/lv_obj_pos.c **** }
 317              		.loc 1 244 1 view .LVU74
 318 0042 F8BD     		pop	{r3, r4, r5, r6, r7, pc}
 319              		.loc 1 244 1 view .LVU75
 320              		.cfi_endproc
 321              	.LFE160:
 323              		.section	.text.lv_obj_set_content_height,"ax",%progbits
 324              		.align	1
 325              		.global	lv_obj_set_content_height
 326              		.syntax unified
 327              		.thumb
 328              		.thumb_func
 329              		.fpu softvfp
 331              	lv_obj_set_content_height:
 332              	.LVL25:
 333              	.LFB161:
 245:Middlewares/lvgl/src/core/lv_obj_pos.c **** 
 246:Middlewares/lvgl/src/core/lv_obj_pos.c **** void lv_obj_set_content_height(lv_obj_t * obj, lv_coord_t h)
 247:Middlewares/lvgl/src/core/lv_obj_pos.c **** {
 334              		.loc 1 247 1 is_stmt 1 view -0
 335              		.cfi_startproc
 336              		@ args = 0, pretend = 0, frame = 0
 337              		@ frame_needed = 0, uses_anonymous_args = 0
 338              		.loc 1 247 1 is_stmt 0 view .LVU77
 339 0000 F8B5     		push	{r3, r4, r5, r6, r7, lr}
 340              	.LCFI10:
 341              		.cfi_def_cfa_offset 24
 342              		.cfi_offset 3, -24
 343              		.cfi_offset 4, -20
 344              		.cfi_offset 5, -16
 345              		.cfi_offset 6, -12
 346              		.cfi_offset 7, -8
 347              		.cfi_offset 14, -4
 348 0002 0546     		mov	r5, r0
 349 0004 0C46     		mov	r4, r1
 248:Middlewares/lvgl/src/core/lv_obj_pos.c ****     lv_coord_t ptop = lv_obj_get_style_pad_top(obj, LV_PART_MAIN);
 350              		.loc 1 248 5 is_stmt 1 view .LVU78
 351              	.LVL26:
 352              	.LBB127:
 353              	.LBI127:
  91:Middlewares/lvgl/src/core/lv_obj_style_gen.h **** {
 354              		.loc 2 91 26 view .LVU79
 355              	.LBB128:
  93:Middlewares/lvgl/src/core/lv_obj_style_gen.h ****     return (lv_coord_t)v.num;
 356              		.loc 2 93 5 view .LVU80
  93:Middlewares/lvgl/src/core/lv_obj_style_gen.h ****     return (lv_coord_t)v.num;
 357              		.loc 2 93 26 is_stmt 0 view .LVU81
 358 0006 41F21002 		movw	r2, #4112
 359 000a 0021     		movs	r1, #0
ARM GAS  /tmp/ccgCqJqT.s 			page 17


 360              	.LVL27:
  93:Middlewares/lvgl/src/core/lv_obj_style_gen.h ****     return (lv_coord_t)v.num;
 361              		.loc 2 93 26 view .LVU82
 362 000c FFF7FEFF 		bl	lv_obj_get_style_prop
 363              	.LVL28:
  93:Middlewares/lvgl/src/core/lv_obj_style_gen.h ****     return (lv_coord_t)v.num;
 364              		.loc 2 93 26 view .LVU83
 365 0010 0746     		mov	r7, r0
 366              	.LVL29:
  94:Middlewares/lvgl/src/core/lv_obj_style_gen.h **** }
 367              		.loc 2 94 5 is_stmt 1 view .LVU84
  94:Middlewares/lvgl/src/core/lv_obj_style_gen.h **** }
 368              		.loc 2 94 5 is_stmt 0 view .LVU85
 369              	.LBE128:
 370              	.LBE127:
 249:Middlewares/lvgl/src/core/lv_obj_pos.c ****     lv_coord_t pbottom = lv_obj_get_style_pad_bottom(obj, LV_PART_MAIN);
 371              		.loc 1 249 5 is_stmt 1 view .LVU86
 372              	.LBB129:
 373              	.LBI129:
  97:Middlewares/lvgl/src/core/lv_obj_style_gen.h **** {
 374              		.loc 2 97 26 view .LVU87
 375              	.LBB130:
  99:Middlewares/lvgl/src/core/lv_obj_style_gen.h ****     return (lv_coord_t)v.num;
 376              		.loc 2 99 5 view .LVU88
  99:Middlewares/lvgl/src/core/lv_obj_style_gen.h ****     return (lv_coord_t)v.num;
 377              		.loc 2 99 26 is_stmt 0 view .LVU89
 378 0012 41F21102 		movw	r2, #4113
 379 0016 0021     		movs	r1, #0
 380 0018 2846     		mov	r0, r5
 381 001a FFF7FEFF 		bl	lv_obj_get_style_prop
 382              	.LVL30:
 383 001e 0646     		mov	r6, r0
 384              	.LVL31:
 100:Middlewares/lvgl/src/core/lv_obj_style_gen.h **** }
 385              		.loc 2 100 5 is_stmt 1 view .LVU90
 100:Middlewares/lvgl/src/core/lv_obj_style_gen.h **** }
 386              		.loc 2 100 5 is_stmt 0 view .LVU91
 387              	.LBE130:
 388              	.LBE129:
 250:Middlewares/lvgl/src/core/lv_obj_pos.c ****     lv_coord_t border_width = lv_obj_get_style_border_width(obj, LV_PART_MAIN);
 389              		.loc 1 250 5 is_stmt 1 view .LVU92
 390              	.LBB131:
 391              	.LBI131:
 295:Middlewares/lvgl/src/core/lv_obj_style_gen.h **** {
 392              		.loc 2 295 26 view .LVU93
 393              	.LBB132:
 297:Middlewares/lvgl/src/core/lv_obj_style_gen.h ****     return (lv_coord_t)v.num;
 394              		.loc 2 297 5 view .LVU94
 297:Middlewares/lvgl/src/core/lv_obj_style_gen.h ****     return (lv_coord_t)v.num;
 395              		.loc 2 297 26 is_stmt 0 view .LVU95
 396 0020 41F23202 		movw	r2, #4146
 397 0024 0021     		movs	r1, #0
 398 0026 2846     		mov	r0, r5
 399 0028 FFF7FEFF 		bl	lv_obj_get_style_prop
 400              	.LVL32:
 401              		.loc 2 298 5 is_stmt 1 view .LVU96
 402              		.loc 2 298 5 is_stmt 0 view .LVU97
ARM GAS  /tmp/ccgCqJqT.s 			page 18


 403              	.LBE132:
 404              	.LBE131:
 251:Middlewares/lvgl/src/core/lv_obj_pos.c **** 
 252:Middlewares/lvgl/src/core/lv_obj_pos.c ****     lv_obj_set_height(obj, h + ptop + pbottom + 2 * border_width);
 405              		.loc 1 252 5 is_stmt 1 view .LVU98
 406              		.loc 1 252 30 is_stmt 0 view .LVU99
 407 002c E119     		adds	r1, r4, r7
 408 002e 89B2     		uxth	r1, r1
 409              		.loc 1 252 37 view .LVU100
 410 0030 3144     		add	r1, r1, r6
 411 0032 89B2     		uxth	r1, r1
 412              		.loc 1 252 51 view .LVU101
 413 0034 4000     		lsls	r0, r0, #1
 414              	.LVL33:
 415              		.loc 1 252 51 view .LVU102
 416 0036 80B2     		uxth	r0, r0
 417              		.loc 1 252 47 view .LVU103
 418 0038 0144     		add	r1, r1, r0
 419              		.loc 1 252 5 view .LVU104
 420 003a 09B2     		sxth	r1, r1
 421 003c 2846     		mov	r0, r5
 422 003e FFF7FEFF 		bl	lv_obj_set_height
 423              	.LVL34:
 253:Middlewares/lvgl/src/core/lv_obj_pos.c **** }
 424              		.loc 1 253 1 view .LVU105
 425 0042 F8BD     		pop	{r3, r4, r5, r6, r7, pc}
 426              		.loc 1 253 1 view .LVU106
 427              		.cfi_endproc
 428              	.LFE161:
 430              		.section	.text.lv_obj_is_layout_positioned,"ax",%progbits
 431              		.align	1
 432              		.global	lv_obj_is_layout_positioned
 433              		.syntax unified
 434              		.thumb
 435              		.thumb_func
 436              		.fpu softvfp
 438              	lv_obj_is_layout_positioned:
 439              	.LVL35:
 440              	.LFB163:
 254:Middlewares/lvgl/src/core/lv_obj_pos.c **** 
 255:Middlewares/lvgl/src/core/lv_obj_pos.c **** void lv_obj_set_layout(lv_obj_t * obj, uint32_t layout)
 256:Middlewares/lvgl/src/core/lv_obj_pos.c **** {
 257:Middlewares/lvgl/src/core/lv_obj_pos.c ****     LV_ASSERT_OBJ(obj, MY_CLASS);
 258:Middlewares/lvgl/src/core/lv_obj_pos.c **** 
 259:Middlewares/lvgl/src/core/lv_obj_pos.c ****     lv_obj_set_style_layout(obj, layout, 0);
 260:Middlewares/lvgl/src/core/lv_obj_pos.c **** 
 261:Middlewares/lvgl/src/core/lv_obj_pos.c ****     lv_obj_mark_layout_as_dirty(obj);
 262:Middlewares/lvgl/src/core/lv_obj_pos.c **** }
 263:Middlewares/lvgl/src/core/lv_obj_pos.c **** 
 264:Middlewares/lvgl/src/core/lv_obj_pos.c **** bool lv_obj_is_layout_positioned(const lv_obj_t * obj)
 265:Middlewares/lvgl/src/core/lv_obj_pos.c **** {
 441              		.loc 1 265 1 is_stmt 1 view -0
 442              		.cfi_startproc
 443              		@ args = 0, pretend = 0, frame = 0
 444              		@ frame_needed = 0, uses_anonymous_args = 0
 445              		.loc 1 265 1 is_stmt 0 view .LVU108
 446 0000 38B5     		push	{r3, r4, r5, lr}
ARM GAS  /tmp/ccgCqJqT.s 			page 19


 447              	.LCFI11:
 448              		.cfi_def_cfa_offset 16
 449              		.cfi_offset 3, -16
 450              		.cfi_offset 4, -12
 451              		.cfi_offset 5, -8
 452              		.cfi_offset 14, -4
 453 0002 0446     		mov	r4, r0
 266:Middlewares/lvgl/src/core/lv_obj_pos.c ****     if(lv_obj_has_flag_any(obj, LV_OBJ_FLAG_HIDDEN | LV_OBJ_FLAG_IGNORE_LAYOUT | LV_OBJ_FLAG_FLOATI
 454              		.loc 1 266 5 is_stmt 1 view .LVU109
 455              		.loc 1 266 8 is_stmt 0 view .LVU110
 456 0004 0B49     		ldr	r1, .L24
 457 0006 FFF7FEFF 		bl	lv_obj_has_flag_any
 458              	.LVL36:
 459              		.loc 1 266 7 view .LVU111
 460 000a 10B1     		cbz	r0, .L23
 461              		.loc 1 266 112 view .LVU112
 462 000c 0025     		movs	r5, #0
 463              	.L20:
 267:Middlewares/lvgl/src/core/lv_obj_pos.c **** 
 268:Middlewares/lvgl/src/core/lv_obj_pos.c ****     lv_obj_t * parent = lv_obj_get_parent(obj);
 269:Middlewares/lvgl/src/core/lv_obj_pos.c ****     if(parent == NULL) return false;
 270:Middlewares/lvgl/src/core/lv_obj_pos.c **** 
 271:Middlewares/lvgl/src/core/lv_obj_pos.c ****     uint32_t layout = lv_obj_get_style_layout(parent, LV_PART_MAIN);
 272:Middlewares/lvgl/src/core/lv_obj_pos.c ****     if(layout) return true;
 273:Middlewares/lvgl/src/core/lv_obj_pos.c ****     else return false;
 274:Middlewares/lvgl/src/core/lv_obj_pos.c **** }
 464              		.loc 1 274 1 view .LVU113
 465 000e 2846     		mov	r0, r5
 466 0010 38BD     		pop	{r3, r4, r5, pc}
 467              	.LVL37:
 468              	.L23:
 469              		.loc 1 274 1 view .LVU114
 470 0012 0546     		mov	r5, r0
 268:Middlewares/lvgl/src/core/lv_obj_pos.c ****     if(parent == NULL) return false;
 471              		.loc 1 268 5 is_stmt 1 view .LVU115
 268:Middlewares/lvgl/src/core/lv_obj_pos.c ****     if(parent == NULL) return false;
 472              		.loc 1 268 25 is_stmt 0 view .LVU116
 473 0014 2046     		mov	r0, r4
 474 0016 FFF7FEFF 		bl	lv_obj_get_parent
 475              	.LVL38:
 269:Middlewares/lvgl/src/core/lv_obj_pos.c **** 
 476              		.loc 1 269 5 is_stmt 1 view .LVU117
 269:Middlewares/lvgl/src/core/lv_obj_pos.c **** 
 477              		.loc 1 269 7 is_stmt 0 view .LVU118
 478 001a 0028     		cmp	r0, #0
 479 001c F7D0     		beq	.L20
 271:Middlewares/lvgl/src/core/lv_obj_pos.c ****     if(layout) return true;
 480              		.loc 1 271 5 is_stmt 1 view .LVU119
 481              	.LVL39:
 482              	.LBB133:
 483              	.LBI133:
 181:Middlewares/lvgl/src/core/lv_obj_style_gen.h **** {
 484              		.loc 2 181 24 view .LVU120
 485              	.LBB134:
 183:Middlewares/lvgl/src/core/lv_obj_style_gen.h ****     return (uint16_t)v.num;
 486              		.loc 2 183 5 view .LVU121
 183:Middlewares/lvgl/src/core/lv_obj_style_gen.h ****     return (uint16_t)v.num;
ARM GAS  /tmp/ccgCqJqT.s 			page 20


 487              		.loc 2 183 26 is_stmt 0 view .LVU122
 488 001e 41F26902 		movw	r2, #4201
 489 0022 0021     		movs	r1, #0
 490 0024 FFF7FEFF 		bl	lv_obj_get_style_prop
 491              	.LVL40:
 184:Middlewares/lvgl/src/core/lv_obj_style_gen.h **** }
 492              		.loc 2 184 5 is_stmt 1 view .LVU123
 184:Middlewares/lvgl/src/core/lv_obj_style_gen.h **** }
 493              		.loc 2 184 5 is_stmt 0 view .LVU124
 494              	.LBE134:
 495              	.LBE133:
 272:Middlewares/lvgl/src/core/lv_obj_pos.c ****     else return false;
 496              		.loc 1 272 5 is_stmt 1 view .LVU125
 272:Middlewares/lvgl/src/core/lv_obj_pos.c ****     else return false;
 497              		.loc 1 272 7 is_stmt 0 view .LVU126
 498 0028 80B2     		uxth	r0, r0
 499              	.LVL41:
 272:Middlewares/lvgl/src/core/lv_obj_pos.c ****     else return false;
 500              		.loc 1 272 7 view .LVU127
 501 002a 0028     		cmp	r0, #0
 502 002c EFD0     		beq	.L20
 272:Middlewares/lvgl/src/core/lv_obj_pos.c ****     else return false;
 503              		.loc 1 272 23 view .LVU128
 504 002e 0125     		movs	r5, #1
 505 0030 EDE7     		b	.L20
 506              	.L25:
 507 0032 00BF     		.align	2
 508              	.L24:
 509 0034 01800100 		.word	98305
 510              		.cfi_endproc
 511              	.LFE163:
 513              		.section	.text.lv_obj_set_x,"ax",%progbits
 514              		.align	1
 515              		.global	lv_obj_set_x
 516              		.syntax unified
 517              		.thumb
 518              		.thumb_func
 519              		.fpu softvfp
 521              	lv_obj_set_x:
 522              	.LVL42:
 523              	.LFB154:
  51:Middlewares/lvgl/src/core/lv_obj_pos.c ****     LV_ASSERT_OBJ(obj, MY_CLASS);
 524              		.loc 1 51 1 is_stmt 1 view -0
 525              		.cfi_startproc
 526              		@ args = 0, pretend = 0, frame = 8
 527              		@ frame_needed = 0, uses_anonymous_args = 0
  51:Middlewares/lvgl/src/core/lv_obj_pos.c ****     LV_ASSERT_OBJ(obj, MY_CLASS);
 528              		.loc 1 51 1 is_stmt 0 view .LVU130
 529 0000 30B5     		push	{r4, r5, lr}
 530              	.LCFI12:
 531              		.cfi_def_cfa_offset 12
 532              		.cfi_offset 4, -12
 533              		.cfi_offset 5, -8
 534              		.cfi_offset 14, -4
 535 0002 83B0     		sub	sp, sp, #12
 536              	.LCFI13:
 537              		.cfi_def_cfa_offset 24
ARM GAS  /tmp/ccgCqJqT.s 			page 21


 538 0004 0446     		mov	r4, r0
 539 0006 0D46     		mov	r5, r1
  52:Middlewares/lvgl/src/core/lv_obj_pos.c ****     if(lv_obj_is_layout_positioned(obj)) {
 540              		.loc 1 52 5 is_stmt 1 view .LVU131
  52:Middlewares/lvgl/src/core/lv_obj_pos.c ****     if(lv_obj_is_layout_positioned(obj)) {
 541              		.loc 1 52 5 view .LVU132
  52:Middlewares/lvgl/src/core/lv_obj_pos.c ****     if(lv_obj_is_layout_positioned(obj)) {
 542              		.loc 1 52 5 view .LVU133
  53:Middlewares/lvgl/src/core/lv_obj_pos.c ****         return;
 543              		.loc 1 53 5 view .LVU134
  53:Middlewares/lvgl/src/core/lv_obj_pos.c ****         return;
 544              		.loc 1 53 8 is_stmt 0 view .LVU135
 545 0008 FFF7FEFF 		bl	lv_obj_is_layout_positioned
 546              	.LVL43:
  53:Middlewares/lvgl/src/core/lv_obj_pos.c ****         return;
 547              		.loc 1 53 7 view .LVU136
 548 000c 08B1     		cbz	r0, .L33
 549              	.L26:
  65:Middlewares/lvgl/src/core/lv_obj_pos.c **** 
 550              		.loc 1 65 1 view .LVU137
 551 000e 03B0     		add	sp, sp, #12
 552              	.LCFI14:
 553              		.cfi_remember_state
 554              		.cfi_def_cfa_offset 12
 555              		@ sp needed
 556 0010 30BD     		pop	{r4, r5, pc}
 557              	.LVL44:
 558              	.L33:
 559              	.LCFI15:
 560              		.cfi_restore_state
  57:Middlewares/lvgl/src/core/lv_obj_pos.c ****     lv_style_value_t v_x;
 561              		.loc 1 57 5 is_stmt 1 view .LVU138
  58:Middlewares/lvgl/src/core/lv_obj_pos.c **** 
 562              		.loc 1 58 5 view .LVU139
  60:Middlewares/lvgl/src/core/lv_obj_pos.c **** 
 563              		.loc 1 60 5 view .LVU140
  60:Middlewares/lvgl/src/core/lv_obj_pos.c **** 
 564              		.loc 1 60 13 is_stmt 0 view .LVU141
 565 0012 0023     		movs	r3, #0
 566 0014 01AA     		add	r2, sp, #4
 567 0016 41F20701 		movw	r1, #4103
 568 001a 2046     		mov	r0, r4
 569 001c FFF7FEFF 		bl	lv_obj_get_local_style_prop
 570              	.LVL45:
  62:Middlewares/lvgl/src/core/lv_obj_pos.c ****         lv_obj_set_style_x(obj, x, 0);
 571              		.loc 1 62 5 is_stmt 1 view .LVU142
  62:Middlewares/lvgl/src/core/lv_obj_pos.c ****         lv_obj_set_style_x(obj, x, 0);
 572              		.loc 1 62 7 is_stmt 0 view .LVU143
 573 0020 0128     		cmp	r0, #1
 574 0022 07D0     		beq	.L34
 575              	.L29:
  62:Middlewares/lvgl/src/core/lv_obj_pos.c ****         lv_obj_set_style_x(obj, x, 0);
 576              		.loc 1 62 45 discriminator 3 view .LVU144
 577 0024 0028     		cmp	r0, #0
 578 0026 F2D1     		bne	.L26
 579              	.L30:
  63:Middlewares/lvgl/src/core/lv_obj_pos.c ****     }
ARM GAS  /tmp/ccgCqJqT.s 			page 22


 580              		.loc 1 63 9 is_stmt 1 view .LVU145
 581 0028 0022     		movs	r2, #0
 582 002a 2946     		mov	r1, r5
 583 002c 2046     		mov	r0, r4
 584              	.LVL46:
  63:Middlewares/lvgl/src/core/lv_obj_pos.c ****     }
 585              		.loc 1 63 9 is_stmt 0 view .LVU146
 586 002e FFF7FEFF 		bl	lv_obj_set_style_x
 587              	.LVL47:
 588 0032 ECE7     		b	.L26
 589              	.LVL48:
 590              	.L34:
  62:Middlewares/lvgl/src/core/lv_obj_pos.c ****         lv_obj_set_style_x(obj, x, 0);
 591              		.loc 1 62 34 discriminator 1 view .LVU147
 592 0034 019B     		ldr	r3, [sp, #4]
  62:Middlewares/lvgl/src/core/lv_obj_pos.c ****         lv_obj_set_style_x(obj, x, 0);
 593              		.loc 1 62 28 discriminator 1 view .LVU148
 594 0036 AB42     		cmp	r3, r5
 595 0038 F6D1     		bne	.L30
 596 003a F3E7     		b	.L29
 597              		.cfi_endproc
 598              	.LFE154:
 600              		.section	.text.lv_obj_set_y,"ax",%progbits
 601              		.align	1
 602              		.global	lv_obj_set_y
 603              		.syntax unified
 604              		.thumb
 605              		.thumb_func
 606              		.fpu softvfp
 608              	lv_obj_set_y:
 609              	.LVL49:
 610              	.LFB155:
  68:Middlewares/lvgl/src/core/lv_obj_pos.c ****     if(lv_obj_is_layout_positioned(obj)) {
 611              		.loc 1 68 1 is_stmt 1 view -0
 612              		.cfi_startproc
 613              		@ args = 0, pretend = 0, frame = 8
 614              		@ frame_needed = 0, uses_anonymous_args = 0
  68:Middlewares/lvgl/src/core/lv_obj_pos.c ****     if(lv_obj_is_layout_positioned(obj)) {
 615              		.loc 1 68 1 is_stmt 0 view .LVU150
 616 0000 30B5     		push	{r4, r5, lr}
 617              	.LCFI16:
 618              		.cfi_def_cfa_offset 12
 619              		.cfi_offset 4, -12
 620              		.cfi_offset 5, -8
 621              		.cfi_offset 14, -4
 622 0002 83B0     		sub	sp, sp, #12
 623              	.LCFI17:
 624              		.cfi_def_cfa_offset 24
 625 0004 0446     		mov	r4, r0
 626 0006 0D46     		mov	r5, r1
  69:Middlewares/lvgl/src/core/lv_obj_pos.c ****         return;
 627              		.loc 1 69 5 is_stmt 1 view .LVU151
  69:Middlewares/lvgl/src/core/lv_obj_pos.c ****         return;
 628              		.loc 1 69 8 is_stmt 0 view .LVU152
 629 0008 FFF7FEFF 		bl	lv_obj_is_layout_positioned
 630              	.LVL50:
  69:Middlewares/lvgl/src/core/lv_obj_pos.c ****         return;
ARM GAS  /tmp/ccgCqJqT.s 			page 23


 631              		.loc 1 69 7 view .LVU153
 632 000c 08B1     		cbz	r0, .L42
 633              	.L35:
  82:Middlewares/lvgl/src/core/lv_obj_pos.c **** 
 634              		.loc 1 82 1 view .LVU154
 635 000e 03B0     		add	sp, sp, #12
 636              	.LCFI18:
 637              		.cfi_remember_state
 638              		.cfi_def_cfa_offset 12
 639              		@ sp needed
 640 0010 30BD     		pop	{r4, r5, pc}
 641              	.LVL51:
 642              	.L42:
 643              	.LCFI19:
 644              		.cfi_restore_state
  72:Middlewares/lvgl/src/core/lv_obj_pos.c **** 
 645              		.loc 1 72 5 is_stmt 1 view .LVU155
  72:Middlewares/lvgl/src/core/lv_obj_pos.c **** 
 646              		.loc 1 72 5 view .LVU156
  72:Middlewares/lvgl/src/core/lv_obj_pos.c **** 
 647              		.loc 1 72 5 view .LVU157
  74:Middlewares/lvgl/src/core/lv_obj_pos.c ****     lv_style_value_t v_y;
 648              		.loc 1 74 5 view .LVU158
  75:Middlewares/lvgl/src/core/lv_obj_pos.c **** 
 649              		.loc 1 75 5 view .LVU159
  77:Middlewares/lvgl/src/core/lv_obj_pos.c **** 
 650              		.loc 1 77 5 view .LVU160
  77:Middlewares/lvgl/src/core/lv_obj_pos.c **** 
 651              		.loc 1 77 13 is_stmt 0 view .LVU161
 652 0012 0023     		movs	r3, #0
 653 0014 01AA     		add	r2, sp, #4
 654 0016 41F20801 		movw	r1, #4104
 655 001a 2046     		mov	r0, r4
 656 001c FFF7FEFF 		bl	lv_obj_get_local_style_prop
 657              	.LVL52:
  79:Middlewares/lvgl/src/core/lv_obj_pos.c ****         lv_obj_set_style_y(obj, y, 0);
 658              		.loc 1 79 5 is_stmt 1 view .LVU162
  79:Middlewares/lvgl/src/core/lv_obj_pos.c ****         lv_obj_set_style_y(obj, y, 0);
 659              		.loc 1 79 7 is_stmt 0 view .LVU163
 660 0020 0128     		cmp	r0, #1
 661 0022 07D0     		beq	.L43
 662              	.L38:
  79:Middlewares/lvgl/src/core/lv_obj_pos.c ****         lv_obj_set_style_y(obj, y, 0);
 663              		.loc 1 79 45 discriminator 3 view .LVU164
 664 0024 0028     		cmp	r0, #0
 665 0026 F2D1     		bne	.L35
 666              	.L39:
  80:Middlewares/lvgl/src/core/lv_obj_pos.c ****     }
 667              		.loc 1 80 9 is_stmt 1 view .LVU165
 668 0028 0022     		movs	r2, #0
 669 002a 2946     		mov	r1, r5
 670 002c 2046     		mov	r0, r4
 671              	.LVL53:
  80:Middlewares/lvgl/src/core/lv_obj_pos.c ****     }
 672              		.loc 1 80 9 is_stmt 0 view .LVU166
 673 002e FFF7FEFF 		bl	lv_obj_set_style_y
 674              	.LVL54:
ARM GAS  /tmp/ccgCqJqT.s 			page 24


 675 0032 ECE7     		b	.L35
 676              	.LVL55:
 677              	.L43:
  79:Middlewares/lvgl/src/core/lv_obj_pos.c ****         lv_obj_set_style_y(obj, y, 0);
 678              		.loc 1 79 34 discriminator 1 view .LVU167
 679 0034 019B     		ldr	r3, [sp, #4]
  79:Middlewares/lvgl/src/core/lv_obj_pos.c ****         lv_obj_set_style_y(obj, y, 0);
 680              		.loc 1 79 28 discriminator 1 view .LVU168
 681 0036 AB42     		cmp	r3, r5
 682 0038 F6D1     		bne	.L39
 683 003a F3E7     		b	.L38
 684              		.cfi_endproc
 685              	.LFE155:
 687              		.section	.text.lv_obj_set_pos,"ax",%progbits
 688              		.align	1
 689              		.global	lv_obj_set_pos
 690              		.syntax unified
 691              		.thumb
 692              		.thumb_func
 693              		.fpu softvfp
 695              	lv_obj_set_pos:
 696              	.LVL56:
 697              	.LFB153:
  43:Middlewares/lvgl/src/core/lv_obj_pos.c ****     LV_ASSERT_OBJ(obj, MY_CLASS);
 698              		.loc 1 43 1 is_stmt 1 view -0
 699              		.cfi_startproc
 700              		@ args = 0, pretend = 0, frame = 0
 701              		@ frame_needed = 0, uses_anonymous_args = 0
  43:Middlewares/lvgl/src/core/lv_obj_pos.c ****     LV_ASSERT_OBJ(obj, MY_CLASS);
 702              		.loc 1 43 1 is_stmt 0 view .LVU170
 703 0000 38B5     		push	{r3, r4, r5, lr}
 704              	.LCFI20:
 705              		.cfi_def_cfa_offset 16
 706              		.cfi_offset 3, -16
 707              		.cfi_offset 4, -12
 708              		.cfi_offset 5, -8
 709              		.cfi_offset 14, -4
 710 0002 0446     		mov	r4, r0
 711 0004 1546     		mov	r5, r2
  44:Middlewares/lvgl/src/core/lv_obj_pos.c **** 
 712              		.loc 1 44 5 is_stmt 1 view .LVU171
  44:Middlewares/lvgl/src/core/lv_obj_pos.c **** 
 713              		.loc 1 44 5 view .LVU172
  44:Middlewares/lvgl/src/core/lv_obj_pos.c **** 
 714              		.loc 1 44 5 view .LVU173
  46:Middlewares/lvgl/src/core/lv_obj_pos.c ****     lv_obj_set_y(obj, y);
 715              		.loc 1 46 5 view .LVU174
 716 0006 FFF7FEFF 		bl	lv_obj_set_x
 717              	.LVL57:
  47:Middlewares/lvgl/src/core/lv_obj_pos.c **** }
 718              		.loc 1 47 5 view .LVU175
 719 000a 2946     		mov	r1, r5
 720 000c 2046     		mov	r0, r4
 721 000e FFF7FEFF 		bl	lv_obj_set_y
 722              	.LVL58:
  48:Middlewares/lvgl/src/core/lv_obj_pos.c **** 
 723              		.loc 1 48 1 is_stmt 0 view .LVU176
ARM GAS  /tmp/ccgCqJqT.s 			page 25


 724 0012 38BD     		pop	{r3, r4, r5, pc}
  48:Middlewares/lvgl/src/core/lv_obj_pos.c **** 
 725              		.loc 1 48 1 view .LVU177
 726              		.cfi_endproc
 727              	.LFE153:
 729              		.section	.text.lv_obj_mark_layout_as_dirty,"ax",%progbits
 730              		.align	1
 731              		.global	lv_obj_mark_layout_as_dirty
 732              		.syntax unified
 733              		.thumb
 734              		.thumb_func
 735              		.fpu softvfp
 737              	lv_obj_mark_layout_as_dirty:
 738              	.LVL59:
 739              	.LFB164:
 275:Middlewares/lvgl/src/core/lv_obj_pos.c **** 
 276:Middlewares/lvgl/src/core/lv_obj_pos.c **** void lv_obj_mark_layout_as_dirty(lv_obj_t * obj)
 277:Middlewares/lvgl/src/core/lv_obj_pos.c **** {
 740              		.loc 1 277 1 is_stmt 1 view -0
 741              		.cfi_startproc
 742              		@ args = 0, pretend = 0, frame = 0
 743              		@ frame_needed = 0, uses_anonymous_args = 0
 744              		.loc 1 277 1 is_stmt 0 view .LVU179
 745 0000 08B5     		push	{r3, lr}
 746              	.LCFI21:
 747              		.cfi_def_cfa_offset 8
 748              		.cfi_offset 3, -8
 749              		.cfi_offset 14, -4
 278:Middlewares/lvgl/src/core/lv_obj_pos.c ****     obj->layout_inv = 1;
 750              		.loc 1 278 5 is_stmt 1 view .LVU180
 751              		.loc 1 278 21 is_stmt 0 view .LVU181
 752 0002 90F82220 		ldrb	r2, [r0, #34]	@ zero_extendqisi2
 753 0006 42F00102 		orr	r2, r2, #1
 754 000a 80F82220 		strb	r2, [r0, #34]
 279:Middlewares/lvgl/src/core/lv_obj_pos.c **** 
 280:Middlewares/lvgl/src/core/lv_obj_pos.c ****     /*Mark the screen as dirty too to mark that there is an something to do on this screen*/
 281:Middlewares/lvgl/src/core/lv_obj_pos.c ****     lv_obj_t * scr = lv_obj_get_screen(obj);
 755              		.loc 1 281 5 is_stmt 1 view .LVU182
 756              		.loc 1 281 22 is_stmt 0 view .LVU183
 757 000e FFF7FEFF 		bl	lv_obj_get_screen
 758              	.LVL60:
 282:Middlewares/lvgl/src/core/lv_obj_pos.c ****     scr->scr_layout_inv = 1;
 759              		.loc 1 282 5 is_stmt 1 view .LVU184
 760              		.loc 1 282 25 is_stmt 0 view .LVU185
 761 0012 90F82220 		ldrb	r2, [r0, #34]	@ zero_extendqisi2
 762 0016 42F00202 		orr	r2, r2, #2
 763 001a 80F82220 		strb	r2, [r0, #34]
 283:Middlewares/lvgl/src/core/lv_obj_pos.c **** 
 284:Middlewares/lvgl/src/core/lv_obj_pos.c ****     /*Make the display refreshing*/
 285:Middlewares/lvgl/src/core/lv_obj_pos.c ****     lv_disp_t * disp = lv_obj_get_disp(scr);
 764              		.loc 1 285 5 is_stmt 1 view .LVU186
 765              		.loc 1 285 24 is_stmt 0 view .LVU187
 766 001e FFF7FEFF 		bl	lv_obj_get_disp
 767              	.LVL61:
 286:Middlewares/lvgl/src/core/lv_obj_pos.c ****     lv_timer_resume(disp->refr_timer);
 768              		.loc 1 286 5 is_stmt 1 view .LVU188
 769 0022 4068     		ldr	r0, [r0, #4]
ARM GAS  /tmp/ccgCqJqT.s 			page 26


 770              	.LVL62:
 771              		.loc 1 286 5 is_stmt 0 view .LVU189
 772 0024 FFF7FEFF 		bl	lv_timer_resume
 773              	.LVL63:
 287:Middlewares/lvgl/src/core/lv_obj_pos.c **** }
 774              		.loc 1 287 1 view .LVU190
 775 0028 08BD     		pop	{r3, pc}
 776              		.cfi_endproc
 777              	.LFE164:
 779              		.section	.text.lv_obj_set_layout,"ax",%progbits
 780              		.align	1
 781              		.global	lv_obj_set_layout
 782              		.syntax unified
 783              		.thumb
 784              		.thumb_func
 785              		.fpu softvfp
 787              	lv_obj_set_layout:
 788              	.LVL64:
 789              	.LFB162:
 256:Middlewares/lvgl/src/core/lv_obj_pos.c ****     LV_ASSERT_OBJ(obj, MY_CLASS);
 790              		.loc 1 256 1 is_stmt 1 view -0
 791              		.cfi_startproc
 792              		@ args = 0, pretend = 0, frame = 0
 793              		@ frame_needed = 0, uses_anonymous_args = 0
 256:Middlewares/lvgl/src/core/lv_obj_pos.c ****     LV_ASSERT_OBJ(obj, MY_CLASS);
 794              		.loc 1 256 1 is_stmt 0 view .LVU192
 795 0000 10B5     		push	{r4, lr}
 796              	.LCFI22:
 797              		.cfi_def_cfa_offset 8
 798              		.cfi_offset 4, -8
 799              		.cfi_offset 14, -4
 800 0002 0446     		mov	r4, r0
 257:Middlewares/lvgl/src/core/lv_obj_pos.c **** 
 801              		.loc 1 257 5 is_stmt 1 view .LVU193
 257:Middlewares/lvgl/src/core/lv_obj_pos.c **** 
 802              		.loc 1 257 5 view .LVU194
 257:Middlewares/lvgl/src/core/lv_obj_pos.c **** 
 803              		.loc 1 257 5 view .LVU195
 259:Middlewares/lvgl/src/core/lv_obj_pos.c **** 
 804              		.loc 1 259 5 view .LVU196
 805 0004 0022     		movs	r2, #0
 806 0006 89B2     		uxth	r1, r1
 807              	.LVL65:
 259:Middlewares/lvgl/src/core/lv_obj_pos.c **** 
 808              		.loc 1 259 5 is_stmt 0 view .LVU197
 809 0008 FFF7FEFF 		bl	lv_obj_set_style_layout
 810              	.LVL66:
 261:Middlewares/lvgl/src/core/lv_obj_pos.c **** }
 811              		.loc 1 261 5 is_stmt 1 view .LVU198
 812 000c 2046     		mov	r0, r4
 813 000e FFF7FEFF 		bl	lv_obj_mark_layout_as_dirty
 814              	.LVL67:
 262:Middlewares/lvgl/src/core/lv_obj_pos.c **** 
 815              		.loc 1 262 1 is_stmt 0 view .LVU199
 816 0012 10BD     		pop	{r4, pc}
 262:Middlewares/lvgl/src/core/lv_obj_pos.c **** 
 817              		.loc 1 262 1 view .LVU200
ARM GAS  /tmp/ccgCqJqT.s 			page 27


 818              		.cfi_endproc
 819              	.LFE162:
 821              		.section	.text.lv_layout_register,"ax",%progbits
 822              		.align	1
 823              		.global	lv_layout_register
 824              		.syntax unified
 825              		.thumb
 826              		.thumb_func
 827              		.fpu softvfp
 829              	lv_layout_register:
 830              	.LVL68:
 831              	.LFB166:
 288:Middlewares/lvgl/src/core/lv_obj_pos.c **** 
 289:Middlewares/lvgl/src/core/lv_obj_pos.c **** void lv_obj_update_layout(const lv_obj_t * obj)
 290:Middlewares/lvgl/src/core/lv_obj_pos.c **** {
 291:Middlewares/lvgl/src/core/lv_obj_pos.c ****     static bool mutex = false;
 292:Middlewares/lvgl/src/core/lv_obj_pos.c ****     if(mutex) {
 293:Middlewares/lvgl/src/core/lv_obj_pos.c ****         LV_LOG_TRACE("Already running, returning")
 294:Middlewares/lvgl/src/core/lv_obj_pos.c ****         return;
 295:Middlewares/lvgl/src/core/lv_obj_pos.c ****     }
 296:Middlewares/lvgl/src/core/lv_obj_pos.c ****     mutex = true;
 297:Middlewares/lvgl/src/core/lv_obj_pos.c **** 
 298:Middlewares/lvgl/src/core/lv_obj_pos.c ****     lv_obj_t * scr = lv_obj_get_screen(obj);
 299:Middlewares/lvgl/src/core/lv_obj_pos.c **** 
 300:Middlewares/lvgl/src/core/lv_obj_pos.c ****     /*Repeat until there where layout invalidations*/
 301:Middlewares/lvgl/src/core/lv_obj_pos.c ****     while(scr->scr_layout_inv) {
 302:Middlewares/lvgl/src/core/lv_obj_pos.c ****         LV_LOG_INFO("Layout update begin")
 303:Middlewares/lvgl/src/core/lv_obj_pos.c ****         scr->scr_layout_inv = 0;
 304:Middlewares/lvgl/src/core/lv_obj_pos.c ****         layout_update_core(scr);
 305:Middlewares/lvgl/src/core/lv_obj_pos.c ****         LV_LOG_TRACE("Layout update end")
 306:Middlewares/lvgl/src/core/lv_obj_pos.c ****     }
 307:Middlewares/lvgl/src/core/lv_obj_pos.c **** 
 308:Middlewares/lvgl/src/core/lv_obj_pos.c ****     mutex = false;
 309:Middlewares/lvgl/src/core/lv_obj_pos.c **** }
 310:Middlewares/lvgl/src/core/lv_obj_pos.c **** 
 311:Middlewares/lvgl/src/core/lv_obj_pos.c **** uint32_t lv_layout_register(lv_layout_update_cb_t cb, void * user_data)
 312:Middlewares/lvgl/src/core/lv_obj_pos.c **** {
 832              		.loc 1 312 1 is_stmt 1 view -0
 833              		.cfi_startproc
 834              		@ args = 0, pretend = 0, frame = 0
 835              		@ frame_needed = 0, uses_anonymous_args = 0
 836              		.loc 1 312 1 is_stmt 0 view .LVU202
 837 0000 70B5     		push	{r4, r5, r6, lr}
 838              	.LCFI23:
 839              		.cfi_def_cfa_offset 16
 840              		.cfi_offset 4, -16
 841              		.cfi_offset 5, -12
 842              		.cfi_offset 6, -8
 843              		.cfi_offset 14, -4
 844 0002 0546     		mov	r5, r0
 845 0004 0C46     		mov	r4, r1
 313:Middlewares/lvgl/src/core/lv_obj_pos.c ****     layout_cnt++;
 846              		.loc 1 313 5 is_stmt 1 view .LVU203
 847              		.loc 1 313 15 is_stmt 0 view .LVU204
 848 0006 0D4A     		ldr	r2, .L54
 849 0008 1368     		ldr	r3, [r2]
 850 000a 0133     		adds	r3, r3, #1
ARM GAS  /tmp/ccgCqJqT.s 			page 28


 851 000c 1360     		str	r3, [r2]
 314:Middlewares/lvgl/src/core/lv_obj_pos.c ****     LV_GC_ROOT(_lv_layout_list) = lv_mem_realloc(LV_GC_ROOT(_lv_layout_list), layout_cnt * sizeof(l
 852              		.loc 1 314 5 is_stmt 1 view .LVU205
 853              		.loc 1 314 35 is_stmt 0 view .LVU206
 854 000e 0C4E     		ldr	r6, .L54+4
 855 0010 D900     		lsls	r1, r3, #3
 856              	.LVL69:
 857              		.loc 1 314 35 view .LVU207
 858 0012 3068     		ldr	r0, [r6]
 859              	.LVL70:
 860              		.loc 1 314 35 view .LVU208
 861 0014 FFF7FEFF 		bl	lv_mem_realloc
 862              	.LVL71:
 863              		.loc 1 314 33 view .LVU209
 864 0018 3060     		str	r0, [r6]
 315:Middlewares/lvgl/src/core/lv_obj_pos.c ****     LV_ASSERT_MALLOC(LV_GC_ROOT(_lv_layout_list));
 865              		.loc 1 315 5 is_stmt 1 view .LVU210
 866              		.loc 1 315 5 view .LVU211
 867 001a 68B1     		cbz	r0, .L52
 868 001c 0346     		mov	r3, r0
 869              		.loc 1 315 5 discriminator 2 view .LVU212
 870              		.loc 1 315 50 discriminator 2 view .LVU213
 316:Middlewares/lvgl/src/core/lv_obj_pos.c **** 
 317:Middlewares/lvgl/src/core/lv_obj_pos.c ****     LV_GC_ROOT(_lv_layout_list)[layout_cnt - 1].cb = cb;
 871              		.loc 1 317 5 discriminator 2 view .LVU214
 872              		.loc 1 317 32 is_stmt 0 discriminator 2 view .LVU215
 873 001e 074A     		ldr	r2, .L54
 874 0020 1068     		ldr	r0, [r2]
 875 0022 00F10052 		add	r2, r0, #536870912
 876 0026 013A     		subs	r2, r2, #1
 877              		.loc 1 317 52 discriminator 2 view .LVU216
 878 0028 43F83250 		str	r5, [r3, r2, lsl #3]
 318:Middlewares/lvgl/src/core/lv_obj_pos.c ****     LV_GC_ROOT(_lv_layout_list)[layout_cnt - 1].user_data = user_data;
 879              		.loc 1 318 5 is_stmt 1 discriminator 2 view .LVU217
 880              		.loc 1 318 32 is_stmt 0 discriminator 2 view .LVU218
 881 002c 044B     		ldr	r3, .L54+4
 882 002e 1B68     		ldr	r3, [r3]
 883 0030 03EBC202 		add	r2, r3, r2, lsl #3
 884              		.loc 1 318 59 discriminator 2 view .LVU219
 885 0034 5460     		str	r4, [r2, #4]
 319:Middlewares/lvgl/src/core/lv_obj_pos.c ****     return layout_cnt;  /*No -1 to skip 0th index*/
 886              		.loc 1 319 5 is_stmt 1 discriminator 2 view .LVU220
 320:Middlewares/lvgl/src/core/lv_obj_pos.c **** }
 887              		.loc 1 320 1 is_stmt 0 discriminator 2 view .LVU221
 888 0036 70BD     		pop	{r4, r5, r6, pc}
 889              	.LVL72:
 890              	.L52:
 315:Middlewares/lvgl/src/core/lv_obj_pos.c **** 
 891              		.loc 1 315 5 is_stmt 1 discriminator 1 view .LVU222
 315:Middlewares/lvgl/src/core/lv_obj_pos.c **** 
 892              		.loc 1 315 5 discriminator 1 view .LVU223
 315:Middlewares/lvgl/src/core/lv_obj_pos.c **** 
 893              		.loc 1 315 5 discriminator 1 view .LVU224
 315:Middlewares/lvgl/src/core/lv_obj_pos.c **** 
 894              		.loc 1 315 5 discriminator 1 view .LVU225
 895 0038 FEE7     		b	.L52
 896              	.L55:
ARM GAS  /tmp/ccgCqJqT.s 			page 29


 897 003a 00BF     		.align	2
 898              	.L54:
 899 003c 00000000 		.word	.LANCHOR0
 900 0040 00000000 		.word	_lv_layout_list
 901              		.cfi_endproc
 902              	.LFE166:
 904              		.section	.text.lv_obj_set_align,"ax",%progbits
 905              		.align	1
 906              		.global	lv_obj_set_align
 907              		.syntax unified
 908              		.thumb
 909              		.thumb_func
 910              		.fpu softvfp
 912              	lv_obj_set_align:
 913              	.LVL73:
 914              	.LFB167:
 321:Middlewares/lvgl/src/core/lv_obj_pos.c **** 
 322:Middlewares/lvgl/src/core/lv_obj_pos.c **** void lv_obj_set_align(lv_obj_t * obj, lv_align_t align)
 323:Middlewares/lvgl/src/core/lv_obj_pos.c **** {
 915              		.loc 1 323 1 view -0
 916              		.cfi_startproc
 917              		@ args = 0, pretend = 0, frame = 0
 918              		@ frame_needed = 0, uses_anonymous_args = 0
 919              		.loc 1 323 1 is_stmt 0 view .LVU227
 920 0000 08B5     		push	{r3, lr}
 921              	.LCFI24:
 922              		.cfi_def_cfa_offset 8
 923              		.cfi_offset 3, -8
 924              		.cfi_offset 14, -4
 324:Middlewares/lvgl/src/core/lv_obj_pos.c ****     lv_obj_set_style_align(obj, align, 0);
 925              		.loc 1 324 5 is_stmt 1 view .LVU228
 926 0002 0022     		movs	r2, #0
 927 0004 FFF7FEFF 		bl	lv_obj_set_style_align
 928              	.LVL74:
 325:Middlewares/lvgl/src/core/lv_obj_pos.c **** }
 929              		.loc 1 325 1 is_stmt 0 view .LVU229
 930 0008 08BD     		pop	{r3, pc}
 931              		.cfi_endproc
 932              	.LFE167:
 934              		.section	.text.lv_obj_align,"ax",%progbits
 935              		.align	1
 936              		.global	lv_obj_align
 937              		.syntax unified
 938              		.thumb
 939              		.thumb_func
 940              		.fpu softvfp
 942              	lv_obj_align:
 943              	.LVL75:
 944              	.LFB168:
 326:Middlewares/lvgl/src/core/lv_obj_pos.c **** 
 327:Middlewares/lvgl/src/core/lv_obj_pos.c **** void lv_obj_align(lv_obj_t * obj, lv_align_t align, lv_coord_t x_ofs, lv_coord_t y_ofs)
 328:Middlewares/lvgl/src/core/lv_obj_pos.c **** {
 945              		.loc 1 328 1 is_stmt 1 view -0
 946              		.cfi_startproc
 947              		@ args = 0, pretend = 0, frame = 0
 948              		@ frame_needed = 0, uses_anonymous_args = 0
 949              		.loc 1 328 1 is_stmt 0 view .LVU231
ARM GAS  /tmp/ccgCqJqT.s 			page 30


 950 0000 70B5     		push	{r4, r5, r6, lr}
 951              	.LCFI25:
 952              		.cfi_def_cfa_offset 16
 953              		.cfi_offset 4, -16
 954              		.cfi_offset 5, -12
 955              		.cfi_offset 6, -8
 956              		.cfi_offset 14, -4
 957 0002 0446     		mov	r4, r0
 958 0004 1546     		mov	r5, r2
 959 0006 1E46     		mov	r6, r3
 329:Middlewares/lvgl/src/core/lv_obj_pos.c ****     lv_obj_set_style_align(obj, align, 0);
 960              		.loc 1 329 5 is_stmt 1 view .LVU232
 961 0008 0022     		movs	r2, #0
 962              	.LVL76:
 963              		.loc 1 329 5 is_stmt 0 view .LVU233
 964 000a FFF7FEFF 		bl	lv_obj_set_style_align
 965              	.LVL77:
 330:Middlewares/lvgl/src/core/lv_obj_pos.c ****     lv_obj_set_pos(obj, x_ofs, y_ofs);
 966              		.loc 1 330 5 is_stmt 1 view .LVU234
 967 000e 3246     		mov	r2, r6
 968 0010 2946     		mov	r1, r5
 969 0012 2046     		mov	r0, r4
 970 0014 FFF7FEFF 		bl	lv_obj_set_pos
 971              	.LVL78:
 331:Middlewares/lvgl/src/core/lv_obj_pos.c **** }
 972              		.loc 1 331 1 is_stmt 0 view .LVU235
 973 0018 70BD     		pop	{r4, r5, r6, pc}
 974              		.loc 1 331 1 view .LVU236
 975              		.cfi_endproc
 976              	.LFE168:
 978              		.section	.text.lv_obj_get_coords,"ax",%progbits
 979              		.align	1
 980              		.global	lv_obj_get_coords
 981              		.syntax unified
 982              		.thumb
 983              		.thumb_func
 984              		.fpu softvfp
 986              	lv_obj_get_coords:
 987              	.LVL79:
 988              	.LFB170:
 332:Middlewares/lvgl/src/core/lv_obj_pos.c **** 
 333:Middlewares/lvgl/src/core/lv_obj_pos.c **** void lv_obj_align_to(lv_obj_t * obj, const lv_obj_t * base, lv_align_t align, lv_coord_t x_ofs, lv_
 334:Middlewares/lvgl/src/core/lv_obj_pos.c **** {
 335:Middlewares/lvgl/src/core/lv_obj_pos.c ****     LV_ASSERT_OBJ(obj, MY_CLASS);
 336:Middlewares/lvgl/src/core/lv_obj_pos.c **** 
 337:Middlewares/lvgl/src/core/lv_obj_pos.c ****     lv_obj_update_layout(obj);
 338:Middlewares/lvgl/src/core/lv_obj_pos.c ****     if(base == NULL) base = lv_obj_get_parent(obj);
 339:Middlewares/lvgl/src/core/lv_obj_pos.c **** 
 340:Middlewares/lvgl/src/core/lv_obj_pos.c ****     LV_ASSERT_OBJ(base, MY_CLASS);
 341:Middlewares/lvgl/src/core/lv_obj_pos.c **** 
 342:Middlewares/lvgl/src/core/lv_obj_pos.c ****     lv_coord_t x = 0;
 343:Middlewares/lvgl/src/core/lv_obj_pos.c ****     lv_coord_t y = 0;
 344:Middlewares/lvgl/src/core/lv_obj_pos.c **** 
 345:Middlewares/lvgl/src/core/lv_obj_pos.c ****     lv_obj_t * parent = lv_obj_get_parent(obj);
 346:Middlewares/lvgl/src/core/lv_obj_pos.c ****     lv_coord_t pborder = lv_obj_get_style_border_width(parent, LV_PART_MAIN);
 347:Middlewares/lvgl/src/core/lv_obj_pos.c ****     lv_coord_t pleft = lv_obj_get_style_pad_left(parent, LV_PART_MAIN) + pborder;
 348:Middlewares/lvgl/src/core/lv_obj_pos.c ****     lv_coord_t ptop = lv_obj_get_style_pad_top(parent, LV_PART_MAIN) + pborder;
ARM GAS  /tmp/ccgCqJqT.s 			page 31


 349:Middlewares/lvgl/src/core/lv_obj_pos.c **** 
 350:Middlewares/lvgl/src/core/lv_obj_pos.c ****     lv_coord_t bborder = lv_obj_get_style_border_width(base, LV_PART_MAIN);
 351:Middlewares/lvgl/src/core/lv_obj_pos.c ****     lv_coord_t bleft = lv_obj_get_style_pad_left(base, LV_PART_MAIN) + bborder;
 352:Middlewares/lvgl/src/core/lv_obj_pos.c ****     lv_coord_t btop = lv_obj_get_style_pad_top(base, LV_PART_MAIN) + bborder;
 353:Middlewares/lvgl/src/core/lv_obj_pos.c **** 
 354:Middlewares/lvgl/src/core/lv_obj_pos.c ****     if(align == LV_ALIGN_DEFAULT) {
 355:Middlewares/lvgl/src/core/lv_obj_pos.c ****         if(lv_obj_get_style_base_dir(base, LV_PART_MAIN) == LV_BASE_DIR_RTL) align = LV_ALIGN_TOP_R
 356:Middlewares/lvgl/src/core/lv_obj_pos.c ****         else align = LV_ALIGN_TOP_LEFT;
 357:Middlewares/lvgl/src/core/lv_obj_pos.c ****     }
 358:Middlewares/lvgl/src/core/lv_obj_pos.c **** 
 359:Middlewares/lvgl/src/core/lv_obj_pos.c ****     switch(align) {
 360:Middlewares/lvgl/src/core/lv_obj_pos.c ****     case LV_ALIGN_CENTER:
 361:Middlewares/lvgl/src/core/lv_obj_pos.c ****         x = lv_obj_get_content_width(base) / 2 - lv_obj_get_width(obj) / 2 + bleft;
 362:Middlewares/lvgl/src/core/lv_obj_pos.c ****         y = lv_obj_get_content_height(base) / 2 - lv_obj_get_height(obj) / 2 + btop;
 363:Middlewares/lvgl/src/core/lv_obj_pos.c ****         break;
 364:Middlewares/lvgl/src/core/lv_obj_pos.c ****     case LV_ALIGN_TOP_LEFT:
 365:Middlewares/lvgl/src/core/lv_obj_pos.c ****         x = bleft;
 366:Middlewares/lvgl/src/core/lv_obj_pos.c ****         y = btop;
 367:Middlewares/lvgl/src/core/lv_obj_pos.c ****         break;
 368:Middlewares/lvgl/src/core/lv_obj_pos.c ****     case LV_ALIGN_TOP_MID:
 369:Middlewares/lvgl/src/core/lv_obj_pos.c ****         x = lv_obj_get_content_width(base) / 2 - lv_obj_get_width(obj) / 2 + bleft;
 370:Middlewares/lvgl/src/core/lv_obj_pos.c ****         y = btop;
 371:Middlewares/lvgl/src/core/lv_obj_pos.c ****         break;
 372:Middlewares/lvgl/src/core/lv_obj_pos.c **** 
 373:Middlewares/lvgl/src/core/lv_obj_pos.c ****     case LV_ALIGN_TOP_RIGHT:
 374:Middlewares/lvgl/src/core/lv_obj_pos.c ****         x = lv_obj_get_content_width(base) - lv_obj_get_width(obj) + bleft;
 375:Middlewares/lvgl/src/core/lv_obj_pos.c ****         y = btop;
 376:Middlewares/lvgl/src/core/lv_obj_pos.c ****         break;
 377:Middlewares/lvgl/src/core/lv_obj_pos.c **** 
 378:Middlewares/lvgl/src/core/lv_obj_pos.c ****     case LV_ALIGN_BOTTOM_LEFT:
 379:Middlewares/lvgl/src/core/lv_obj_pos.c ****         x = bleft;
 380:Middlewares/lvgl/src/core/lv_obj_pos.c ****         y = lv_obj_get_content_height(base) - lv_obj_get_height(obj) + btop;
 381:Middlewares/lvgl/src/core/lv_obj_pos.c ****         break;
 382:Middlewares/lvgl/src/core/lv_obj_pos.c ****     case LV_ALIGN_BOTTOM_MID:
 383:Middlewares/lvgl/src/core/lv_obj_pos.c ****         x = lv_obj_get_content_width(base) / 2 - lv_obj_get_width(obj) / 2 + bleft;
 384:Middlewares/lvgl/src/core/lv_obj_pos.c ****         y = lv_obj_get_content_height(base) - lv_obj_get_height(obj) + btop;
 385:Middlewares/lvgl/src/core/lv_obj_pos.c ****         break;
 386:Middlewares/lvgl/src/core/lv_obj_pos.c **** 
 387:Middlewares/lvgl/src/core/lv_obj_pos.c ****     case LV_ALIGN_BOTTOM_RIGHT:
 388:Middlewares/lvgl/src/core/lv_obj_pos.c ****         x = lv_obj_get_content_width(base) - lv_obj_get_width(obj) + bleft;
 389:Middlewares/lvgl/src/core/lv_obj_pos.c ****         y = lv_obj_get_content_height(base) - lv_obj_get_height(obj) + btop;
 390:Middlewares/lvgl/src/core/lv_obj_pos.c ****         break;
 391:Middlewares/lvgl/src/core/lv_obj_pos.c **** 
 392:Middlewares/lvgl/src/core/lv_obj_pos.c ****     case LV_ALIGN_LEFT_MID:
 393:Middlewares/lvgl/src/core/lv_obj_pos.c ****         x = bleft;
 394:Middlewares/lvgl/src/core/lv_obj_pos.c ****         y = lv_obj_get_content_height(base) / 2 - lv_obj_get_height(obj) / 2 + btop;
 395:Middlewares/lvgl/src/core/lv_obj_pos.c ****         break;
 396:Middlewares/lvgl/src/core/lv_obj_pos.c **** 
 397:Middlewares/lvgl/src/core/lv_obj_pos.c ****     case LV_ALIGN_RIGHT_MID:
 398:Middlewares/lvgl/src/core/lv_obj_pos.c ****         x = lv_obj_get_content_width(base) - lv_obj_get_width(obj) + bleft;
 399:Middlewares/lvgl/src/core/lv_obj_pos.c ****         y = lv_obj_get_content_height(base) / 2 - lv_obj_get_height(obj) / 2 + btop;
 400:Middlewares/lvgl/src/core/lv_obj_pos.c ****         break;
 401:Middlewares/lvgl/src/core/lv_obj_pos.c **** 
 402:Middlewares/lvgl/src/core/lv_obj_pos.c ****     case LV_ALIGN_OUT_TOP_LEFT:
 403:Middlewares/lvgl/src/core/lv_obj_pos.c ****         x = 0;
 404:Middlewares/lvgl/src/core/lv_obj_pos.c ****         y = -lv_obj_get_height(obj);
 405:Middlewares/lvgl/src/core/lv_obj_pos.c ****         break;
ARM GAS  /tmp/ccgCqJqT.s 			page 32


 406:Middlewares/lvgl/src/core/lv_obj_pos.c **** 
 407:Middlewares/lvgl/src/core/lv_obj_pos.c ****     case LV_ALIGN_OUT_TOP_MID:
 408:Middlewares/lvgl/src/core/lv_obj_pos.c ****         x = lv_obj_get_width(base) / 2 - lv_obj_get_width(obj) / 2;
 409:Middlewares/lvgl/src/core/lv_obj_pos.c ****         y = -lv_obj_get_height(obj);
 410:Middlewares/lvgl/src/core/lv_obj_pos.c ****         break;
 411:Middlewares/lvgl/src/core/lv_obj_pos.c **** 
 412:Middlewares/lvgl/src/core/lv_obj_pos.c ****     case LV_ALIGN_OUT_TOP_RIGHT:
 413:Middlewares/lvgl/src/core/lv_obj_pos.c ****         x = lv_obj_get_width(base) - lv_obj_get_width(obj);
 414:Middlewares/lvgl/src/core/lv_obj_pos.c ****         y = -lv_obj_get_height(obj);
 415:Middlewares/lvgl/src/core/lv_obj_pos.c ****         break;
 416:Middlewares/lvgl/src/core/lv_obj_pos.c **** 
 417:Middlewares/lvgl/src/core/lv_obj_pos.c ****     case LV_ALIGN_OUT_BOTTOM_LEFT:
 418:Middlewares/lvgl/src/core/lv_obj_pos.c ****         x = 0;
 419:Middlewares/lvgl/src/core/lv_obj_pos.c ****         y = lv_obj_get_height(base);
 420:Middlewares/lvgl/src/core/lv_obj_pos.c ****         break;
 421:Middlewares/lvgl/src/core/lv_obj_pos.c **** 
 422:Middlewares/lvgl/src/core/lv_obj_pos.c ****     case LV_ALIGN_OUT_BOTTOM_MID:
 423:Middlewares/lvgl/src/core/lv_obj_pos.c ****         x = lv_obj_get_width(base) / 2 - lv_obj_get_width(obj) / 2;
 424:Middlewares/lvgl/src/core/lv_obj_pos.c ****         y = lv_obj_get_height(base);
 425:Middlewares/lvgl/src/core/lv_obj_pos.c ****         break;
 426:Middlewares/lvgl/src/core/lv_obj_pos.c **** 
 427:Middlewares/lvgl/src/core/lv_obj_pos.c ****     case LV_ALIGN_OUT_BOTTOM_RIGHT:
 428:Middlewares/lvgl/src/core/lv_obj_pos.c ****         x = lv_obj_get_width(base) - lv_obj_get_width(obj);
 429:Middlewares/lvgl/src/core/lv_obj_pos.c ****         y = lv_obj_get_height(base);
 430:Middlewares/lvgl/src/core/lv_obj_pos.c ****         break;
 431:Middlewares/lvgl/src/core/lv_obj_pos.c **** 
 432:Middlewares/lvgl/src/core/lv_obj_pos.c ****     case LV_ALIGN_OUT_LEFT_TOP:
 433:Middlewares/lvgl/src/core/lv_obj_pos.c ****         x = -lv_obj_get_width(obj);
 434:Middlewares/lvgl/src/core/lv_obj_pos.c ****         y = 0;
 435:Middlewares/lvgl/src/core/lv_obj_pos.c ****         break;
 436:Middlewares/lvgl/src/core/lv_obj_pos.c **** 
 437:Middlewares/lvgl/src/core/lv_obj_pos.c ****     case LV_ALIGN_OUT_LEFT_MID:
 438:Middlewares/lvgl/src/core/lv_obj_pos.c ****         x = -lv_obj_get_width(obj);
 439:Middlewares/lvgl/src/core/lv_obj_pos.c ****         y = lv_obj_get_height(base) / 2 - lv_obj_get_height(obj) / 2;
 440:Middlewares/lvgl/src/core/lv_obj_pos.c ****         break;
 441:Middlewares/lvgl/src/core/lv_obj_pos.c **** 
 442:Middlewares/lvgl/src/core/lv_obj_pos.c ****     case LV_ALIGN_OUT_LEFT_BOTTOM:
 443:Middlewares/lvgl/src/core/lv_obj_pos.c ****         x = -lv_obj_get_width(obj);
 444:Middlewares/lvgl/src/core/lv_obj_pos.c ****         y = lv_obj_get_height(base) - lv_obj_get_height(obj);
 445:Middlewares/lvgl/src/core/lv_obj_pos.c ****         break;
 446:Middlewares/lvgl/src/core/lv_obj_pos.c **** 
 447:Middlewares/lvgl/src/core/lv_obj_pos.c ****     case LV_ALIGN_OUT_RIGHT_TOP:
 448:Middlewares/lvgl/src/core/lv_obj_pos.c ****         x = lv_obj_get_width(base);
 449:Middlewares/lvgl/src/core/lv_obj_pos.c ****         y = 0;
 450:Middlewares/lvgl/src/core/lv_obj_pos.c ****         break;
 451:Middlewares/lvgl/src/core/lv_obj_pos.c **** 
 452:Middlewares/lvgl/src/core/lv_obj_pos.c ****     case LV_ALIGN_OUT_RIGHT_MID:
 453:Middlewares/lvgl/src/core/lv_obj_pos.c ****         x = lv_obj_get_width(base);
 454:Middlewares/lvgl/src/core/lv_obj_pos.c ****         y = lv_obj_get_height(base) / 2 - lv_obj_get_height(obj) / 2;
 455:Middlewares/lvgl/src/core/lv_obj_pos.c ****         break;
 456:Middlewares/lvgl/src/core/lv_obj_pos.c **** 
 457:Middlewares/lvgl/src/core/lv_obj_pos.c ****     case LV_ALIGN_OUT_RIGHT_BOTTOM:
 458:Middlewares/lvgl/src/core/lv_obj_pos.c ****         x = lv_obj_get_width(base);
 459:Middlewares/lvgl/src/core/lv_obj_pos.c ****         y = lv_obj_get_height(base) - lv_obj_get_height(obj);
 460:Middlewares/lvgl/src/core/lv_obj_pos.c ****         break;
 461:Middlewares/lvgl/src/core/lv_obj_pos.c ****     }
 462:Middlewares/lvgl/src/core/lv_obj_pos.c **** 
ARM GAS  /tmp/ccgCqJqT.s 			page 33


 463:Middlewares/lvgl/src/core/lv_obj_pos.c ****     x += x_ofs + base->coords.x1 - parent->coords.x1 + lv_obj_get_scroll_left(parent) - pleft;
 464:Middlewares/lvgl/src/core/lv_obj_pos.c ****     y += y_ofs + base->coords.y1 - parent->coords.y1 + lv_obj_get_scroll_top(parent) - ptop;
 465:Middlewares/lvgl/src/core/lv_obj_pos.c ****     lv_obj_set_style_align(obj, LV_ALIGN_TOP_LEFT, 0);
 466:Middlewares/lvgl/src/core/lv_obj_pos.c ****     lv_obj_set_pos(obj, x, y);
 467:Middlewares/lvgl/src/core/lv_obj_pos.c **** 
 468:Middlewares/lvgl/src/core/lv_obj_pos.c **** }
 469:Middlewares/lvgl/src/core/lv_obj_pos.c **** 
 470:Middlewares/lvgl/src/core/lv_obj_pos.c **** void lv_obj_get_coords(const lv_obj_t * obj, lv_area_t * coords)
 471:Middlewares/lvgl/src/core/lv_obj_pos.c **** {
 989              		.loc 1 471 1 is_stmt 1 view -0
 990              		.cfi_startproc
 991              		@ args = 0, pretend = 0, frame = 0
 992              		@ frame_needed = 0, uses_anonymous_args = 0
 993              		@ link register save eliminated.
 472:Middlewares/lvgl/src/core/lv_obj_pos.c ****     LV_ASSERT_OBJ(obj, MY_CLASS);
 994              		.loc 1 472 5 view .LVU238
 995              		.loc 1 472 5 view .LVU239
 996              		.loc 1 472 5 view .LVU240
 473:Middlewares/lvgl/src/core/lv_obj_pos.c **** 
 474:Middlewares/lvgl/src/core/lv_obj_pos.c ****     lv_area_copy(coords, &obj->coords);
 997              		.loc 1 474 5 view .LVU241
 998              	.LBB135:
 999              	.LBI135:
 1000              		.file 3 "Middlewares/lvgl/src/core/../misc/../font/../misc/lv_area.h"
   1:Middlewares/lvgl/src/core/../misc/../font/../misc/lv_area.h **** /**
   2:Middlewares/lvgl/src/core/../misc/../font/../misc/lv_area.h ****  * @file lv_area.h
   3:Middlewares/lvgl/src/core/../misc/../font/../misc/lv_area.h ****  *
   4:Middlewares/lvgl/src/core/../misc/../font/../misc/lv_area.h ****  */
   5:Middlewares/lvgl/src/core/../misc/../font/../misc/lv_area.h **** 
   6:Middlewares/lvgl/src/core/../misc/../font/../misc/lv_area.h **** #ifndef LV_AREA_H
   7:Middlewares/lvgl/src/core/../misc/../font/../misc/lv_area.h **** #define LV_AREA_H
   8:Middlewares/lvgl/src/core/../misc/../font/../misc/lv_area.h **** 
   9:Middlewares/lvgl/src/core/../misc/../font/../misc/lv_area.h **** #ifdef __cplusplus
  10:Middlewares/lvgl/src/core/../misc/../font/../misc/lv_area.h **** extern "C" {
  11:Middlewares/lvgl/src/core/../misc/../font/../misc/lv_area.h **** #endif
  12:Middlewares/lvgl/src/core/../misc/../font/../misc/lv_area.h **** 
  13:Middlewares/lvgl/src/core/../misc/../font/../misc/lv_area.h **** /*********************
  14:Middlewares/lvgl/src/core/../misc/../font/../misc/lv_area.h ****  *      INCLUDES
  15:Middlewares/lvgl/src/core/../misc/../font/../misc/lv_area.h ****  *********************/
  16:Middlewares/lvgl/src/core/../misc/../font/../misc/lv_area.h **** #include "../lv_conf_internal.h"
  17:Middlewares/lvgl/src/core/../misc/../font/../misc/lv_area.h **** #include <string.h>
  18:Middlewares/lvgl/src/core/../misc/../font/../misc/lv_area.h **** #include <stdbool.h>
  19:Middlewares/lvgl/src/core/../misc/../font/../misc/lv_area.h **** #include <stdint.h>
  20:Middlewares/lvgl/src/core/../misc/../font/../misc/lv_area.h **** 
  21:Middlewares/lvgl/src/core/../misc/../font/../misc/lv_area.h **** /*********************
  22:Middlewares/lvgl/src/core/../misc/../font/../misc/lv_area.h ****  *      DEFINES
  23:Middlewares/lvgl/src/core/../misc/../font/../misc/lv_area.h ****  *********************/
  24:Middlewares/lvgl/src/core/../misc/../font/../misc/lv_area.h **** 
  25:Middlewares/lvgl/src/core/../misc/../font/../misc/lv_area.h **** #define _LV_COORD_MAX_REDUCE    8192
  26:Middlewares/lvgl/src/core/../misc/../font/../misc/lv_area.h **** 
  27:Middlewares/lvgl/src/core/../misc/../font/../misc/lv_area.h **** #if LV_USE_LARGE_COORD
  28:Middlewares/lvgl/src/core/../misc/../font/../misc/lv_area.h **** typedef int32_t lv_coord_t;
  29:Middlewares/lvgl/src/core/../misc/../font/../misc/lv_area.h **** #else
  30:Middlewares/lvgl/src/core/../misc/../font/../misc/lv_area.h **** typedef int16_t lv_coord_t;
  31:Middlewares/lvgl/src/core/../misc/../font/../misc/lv_area.h **** #endif
  32:Middlewares/lvgl/src/core/../misc/../font/../misc/lv_area.h **** 
  33:Middlewares/lvgl/src/core/../misc/../font/../misc/lv_area.h **** /*To allow some special values in the end reduce the max value*/
ARM GAS  /tmp/ccgCqJqT.s 			page 34


  34:Middlewares/lvgl/src/core/../misc/../font/../misc/lv_area.h **** #define LV_COORD_MAX ((lv_coord_t)((uint32_t)((uint32_t)1 << (8 * sizeof(lv_coord_t) - 1)) - _LV_CO
  35:Middlewares/lvgl/src/core/../misc/../font/../misc/lv_area.h **** #define LV_COORD_MIN (-LV_COORD_MAX)
  36:Middlewares/lvgl/src/core/../misc/../font/../misc/lv_area.h **** 
  37:Middlewares/lvgl/src/core/../misc/../font/../misc/lv_area.h **** LV_EXPORT_CONST_INT(LV_COORD_MAX);
  38:Middlewares/lvgl/src/core/../misc/../font/../misc/lv_area.h **** LV_EXPORT_CONST_INT(LV_COORD_MIN);
  39:Middlewares/lvgl/src/core/../misc/../font/../misc/lv_area.h **** 
  40:Middlewares/lvgl/src/core/../misc/../font/../misc/lv_area.h **** /**********************
  41:Middlewares/lvgl/src/core/../misc/../font/../misc/lv_area.h ****  *      TYPEDEFS
  42:Middlewares/lvgl/src/core/../misc/../font/../misc/lv_area.h ****  **********************/
  43:Middlewares/lvgl/src/core/../misc/../font/../misc/lv_area.h **** 
  44:Middlewares/lvgl/src/core/../misc/../font/../misc/lv_area.h **** /**
  45:Middlewares/lvgl/src/core/../misc/../font/../misc/lv_area.h ****  * Represents a point on the screen.
  46:Middlewares/lvgl/src/core/../misc/../font/../misc/lv_area.h ****  */
  47:Middlewares/lvgl/src/core/../misc/../font/../misc/lv_area.h **** typedef struct {
  48:Middlewares/lvgl/src/core/../misc/../font/../misc/lv_area.h ****     lv_coord_t x;
  49:Middlewares/lvgl/src/core/../misc/../font/../misc/lv_area.h ****     lv_coord_t y;
  50:Middlewares/lvgl/src/core/../misc/../font/../misc/lv_area.h **** } lv_point_t;
  51:Middlewares/lvgl/src/core/../misc/../font/../misc/lv_area.h **** 
  52:Middlewares/lvgl/src/core/../misc/../font/../misc/lv_area.h **** /** Represents an area of the screen.*/
  53:Middlewares/lvgl/src/core/../misc/../font/../misc/lv_area.h **** typedef struct {
  54:Middlewares/lvgl/src/core/../misc/../font/../misc/lv_area.h ****     lv_coord_t x1;
  55:Middlewares/lvgl/src/core/../misc/../font/../misc/lv_area.h ****     lv_coord_t y1;
  56:Middlewares/lvgl/src/core/../misc/../font/../misc/lv_area.h ****     lv_coord_t x2;
  57:Middlewares/lvgl/src/core/../misc/../font/../misc/lv_area.h ****     lv_coord_t y2;
  58:Middlewares/lvgl/src/core/../misc/../font/../misc/lv_area.h **** } lv_area_t;
  59:Middlewares/lvgl/src/core/../misc/../font/../misc/lv_area.h **** 
  60:Middlewares/lvgl/src/core/../misc/../font/../misc/lv_area.h **** /** Alignments*/
  61:Middlewares/lvgl/src/core/../misc/../font/../misc/lv_area.h **** enum {
  62:Middlewares/lvgl/src/core/../misc/../font/../misc/lv_area.h ****     LV_ALIGN_DEFAULT = 0,
  63:Middlewares/lvgl/src/core/../misc/../font/../misc/lv_area.h ****     LV_ALIGN_TOP_LEFT,
  64:Middlewares/lvgl/src/core/../misc/../font/../misc/lv_area.h ****     LV_ALIGN_TOP_MID,
  65:Middlewares/lvgl/src/core/../misc/../font/../misc/lv_area.h ****     LV_ALIGN_TOP_RIGHT,
  66:Middlewares/lvgl/src/core/../misc/../font/../misc/lv_area.h ****     LV_ALIGN_BOTTOM_LEFT,
  67:Middlewares/lvgl/src/core/../misc/../font/../misc/lv_area.h ****     LV_ALIGN_BOTTOM_MID,
  68:Middlewares/lvgl/src/core/../misc/../font/../misc/lv_area.h ****     LV_ALIGN_BOTTOM_RIGHT,
  69:Middlewares/lvgl/src/core/../misc/../font/../misc/lv_area.h ****     LV_ALIGN_LEFT_MID,
  70:Middlewares/lvgl/src/core/../misc/../font/../misc/lv_area.h ****     LV_ALIGN_RIGHT_MID,
  71:Middlewares/lvgl/src/core/../misc/../font/../misc/lv_area.h ****     LV_ALIGN_CENTER,
  72:Middlewares/lvgl/src/core/../misc/../font/../misc/lv_area.h **** 
  73:Middlewares/lvgl/src/core/../misc/../font/../misc/lv_area.h ****     LV_ALIGN_OUT_TOP_LEFT,
  74:Middlewares/lvgl/src/core/../misc/../font/../misc/lv_area.h ****     LV_ALIGN_OUT_TOP_MID,
  75:Middlewares/lvgl/src/core/../misc/../font/../misc/lv_area.h ****     LV_ALIGN_OUT_TOP_RIGHT,
  76:Middlewares/lvgl/src/core/../misc/../font/../misc/lv_area.h ****     LV_ALIGN_OUT_BOTTOM_LEFT,
  77:Middlewares/lvgl/src/core/../misc/../font/../misc/lv_area.h ****     LV_ALIGN_OUT_BOTTOM_MID,
  78:Middlewares/lvgl/src/core/../misc/../font/../misc/lv_area.h ****     LV_ALIGN_OUT_BOTTOM_RIGHT,
  79:Middlewares/lvgl/src/core/../misc/../font/../misc/lv_area.h ****     LV_ALIGN_OUT_LEFT_TOP,
  80:Middlewares/lvgl/src/core/../misc/../font/../misc/lv_area.h ****     LV_ALIGN_OUT_LEFT_MID,
  81:Middlewares/lvgl/src/core/../misc/../font/../misc/lv_area.h ****     LV_ALIGN_OUT_LEFT_BOTTOM,
  82:Middlewares/lvgl/src/core/../misc/../font/../misc/lv_area.h ****     LV_ALIGN_OUT_RIGHT_TOP,
  83:Middlewares/lvgl/src/core/../misc/../font/../misc/lv_area.h ****     LV_ALIGN_OUT_RIGHT_MID,
  84:Middlewares/lvgl/src/core/../misc/../font/../misc/lv_area.h ****     LV_ALIGN_OUT_RIGHT_BOTTOM,
  85:Middlewares/lvgl/src/core/../misc/../font/../misc/lv_area.h **** };
  86:Middlewares/lvgl/src/core/../misc/../font/../misc/lv_area.h **** typedef uint8_t lv_align_t;
  87:Middlewares/lvgl/src/core/../misc/../font/../misc/lv_area.h **** 
  88:Middlewares/lvgl/src/core/../misc/../font/../misc/lv_area.h **** enum {
  89:Middlewares/lvgl/src/core/../misc/../font/../misc/lv_area.h ****     LV_DIR_NONE     = 0x00,
  90:Middlewares/lvgl/src/core/../misc/../font/../misc/lv_area.h ****     LV_DIR_LEFT     = (1 << 0),
ARM GAS  /tmp/ccgCqJqT.s 			page 35


  91:Middlewares/lvgl/src/core/../misc/../font/../misc/lv_area.h ****     LV_DIR_RIGHT    = (1 << 1),
  92:Middlewares/lvgl/src/core/../misc/../font/../misc/lv_area.h ****     LV_DIR_TOP      = (1 << 2),
  93:Middlewares/lvgl/src/core/../misc/../font/../misc/lv_area.h ****     LV_DIR_BOTTOM   = (1 << 3),
  94:Middlewares/lvgl/src/core/../misc/../font/../misc/lv_area.h ****     LV_DIR_HOR      = LV_DIR_LEFT | LV_DIR_RIGHT,
  95:Middlewares/lvgl/src/core/../misc/../font/../misc/lv_area.h ****     LV_DIR_VER      = LV_DIR_TOP | LV_DIR_BOTTOM,
  96:Middlewares/lvgl/src/core/../misc/../font/../misc/lv_area.h ****     LV_DIR_ALL      = LV_DIR_HOR | LV_DIR_VER,
  97:Middlewares/lvgl/src/core/../misc/../font/../misc/lv_area.h **** };
  98:Middlewares/lvgl/src/core/../misc/../font/../misc/lv_area.h **** 
  99:Middlewares/lvgl/src/core/../misc/../font/../misc/lv_area.h **** typedef uint8_t lv_dir_t;
 100:Middlewares/lvgl/src/core/../misc/../font/../misc/lv_area.h **** 
 101:Middlewares/lvgl/src/core/../misc/../font/../misc/lv_area.h **** /**********************
 102:Middlewares/lvgl/src/core/../misc/../font/../misc/lv_area.h ****  * GLOBAL PROTOTYPES
 103:Middlewares/lvgl/src/core/../misc/../font/../misc/lv_area.h ****  **********************/
 104:Middlewares/lvgl/src/core/../misc/../font/../misc/lv_area.h **** 
 105:Middlewares/lvgl/src/core/../misc/../font/../misc/lv_area.h **** /**
 106:Middlewares/lvgl/src/core/../misc/../font/../misc/lv_area.h ****  * Initialize an area
 107:Middlewares/lvgl/src/core/../misc/../font/../misc/lv_area.h ****  * @param area_p pointer to an area
 108:Middlewares/lvgl/src/core/../misc/../font/../misc/lv_area.h ****  * @param x1 left coordinate of the area
 109:Middlewares/lvgl/src/core/../misc/../font/../misc/lv_area.h ****  * @param y1 top coordinate of the area
 110:Middlewares/lvgl/src/core/../misc/../font/../misc/lv_area.h ****  * @param x2 right coordinate of the area
 111:Middlewares/lvgl/src/core/../misc/../font/../misc/lv_area.h ****  * @param y2 bottom coordinate of the area
 112:Middlewares/lvgl/src/core/../misc/../font/../misc/lv_area.h ****  */
 113:Middlewares/lvgl/src/core/../misc/../font/../misc/lv_area.h **** void lv_area_set(lv_area_t * area_p, lv_coord_t x1, lv_coord_t y1, lv_coord_t x2, lv_coord_t y2);
 114:Middlewares/lvgl/src/core/../misc/../font/../misc/lv_area.h **** 
 115:Middlewares/lvgl/src/core/../misc/../font/../misc/lv_area.h **** /**
 116:Middlewares/lvgl/src/core/../misc/../font/../misc/lv_area.h ****  * Copy an area
 117:Middlewares/lvgl/src/core/../misc/../font/../misc/lv_area.h ****  * @param dest pointer to the destination area
 118:Middlewares/lvgl/src/core/../misc/../font/../misc/lv_area.h ****  * @param src pointer to the source area
 119:Middlewares/lvgl/src/core/../misc/../font/../misc/lv_area.h ****  */
 120:Middlewares/lvgl/src/core/../misc/../font/../misc/lv_area.h **** inline static void lv_area_copy(lv_area_t * dest, const lv_area_t * src)
 1001              		.loc 3 120 20 view .LVU242
 1002              	.LBB136:
 121:Middlewares/lvgl/src/core/../misc/../font/../misc/lv_area.h **** {
 122:Middlewares/lvgl/src/core/../misc/../font/../misc/lv_area.h ****     dest->x1 = src->x1;
 1003              		.loc 3 122 5 view .LVU243
 1004              		.loc 3 122 19 is_stmt 0 view .LVU244
 1005 0000 B0F91430 		ldrsh	r3, [r0, #20]
 1006              		.loc 3 122 14 view .LVU245
 1007 0004 0B80     		strh	r3, [r1]	@ movhi
 123:Middlewares/lvgl/src/core/../misc/../font/../misc/lv_area.h ****     dest->y1 = src->y1;
 1008              		.loc 3 123 5 is_stmt 1 view .LVU246
 1009              		.loc 3 123 19 is_stmt 0 view .LVU247
 1010 0006 B0F91630 		ldrsh	r3, [r0, #22]
 1011              		.loc 3 123 14 view .LVU248
 1012 000a 4B80     		strh	r3, [r1, #2]	@ movhi
 124:Middlewares/lvgl/src/core/../misc/../font/../misc/lv_area.h ****     dest->x2 = src->x2;
 1013              		.loc 3 124 5 is_stmt 1 view .LVU249
 1014              		.loc 3 124 19 is_stmt 0 view .LVU250
 1015 000c B0F91830 		ldrsh	r3, [r0, #24]
 1016              		.loc 3 124 14 view .LVU251
 1017 0010 8B80     		strh	r3, [r1, #4]	@ movhi
 125:Middlewares/lvgl/src/core/../misc/../font/../misc/lv_area.h ****     dest->y2 = src->y2;
 1018              		.loc 3 125 5 is_stmt 1 view .LVU252
 1019              		.loc 3 125 19 is_stmt 0 view .LVU253
 1020 0012 B0F91A30 		ldrsh	r3, [r0, #26]
 1021              		.loc 3 125 14 view .LVU254
 1022 0016 CB80     		strh	r3, [r1, #6]	@ movhi
ARM GAS  /tmp/ccgCqJqT.s 			page 36


 1023              	.LVL80:
 1024              		.loc 3 125 14 view .LVU255
 1025              	.LBE136:
 1026              	.LBE135:
 475:Middlewares/lvgl/src/core/lv_obj_pos.c **** }
 1027              		.loc 1 475 1 view .LVU256
 1028 0018 7047     		bx	lr
 1029              		.cfi_endproc
 1030              	.LFE170:
 1032              		.section	.text.lv_obj_get_x,"ax",%progbits
 1033              		.align	1
 1034              		.global	lv_obj_get_x
 1035              		.syntax unified
 1036              		.thumb
 1037              		.thumb_func
 1038              		.fpu softvfp
 1040              	lv_obj_get_x:
 1041              	.LVL81:
 1042              	.LFB171:
 476:Middlewares/lvgl/src/core/lv_obj_pos.c **** 
 477:Middlewares/lvgl/src/core/lv_obj_pos.c **** lv_coord_t lv_obj_get_x(const lv_obj_t * obj)
 478:Middlewares/lvgl/src/core/lv_obj_pos.c **** {
 1043              		.loc 1 478 1 is_stmt 1 view -0
 1044              		.cfi_startproc
 1045              		@ args = 0, pretend = 0, frame = 0
 1046              		@ frame_needed = 0, uses_anonymous_args = 0
 1047              		.loc 1 478 1 is_stmt 0 view .LVU258
 1048 0000 38B5     		push	{r3, r4, r5, lr}
 1049              	.LCFI26:
 1050              		.cfi_def_cfa_offset 16
 1051              		.cfi_offset 3, -16
 1052              		.cfi_offset 4, -12
 1053              		.cfi_offset 5, -8
 1054              		.cfi_offset 14, -4
 1055 0002 0446     		mov	r4, r0
 479:Middlewares/lvgl/src/core/lv_obj_pos.c ****     LV_ASSERT_OBJ(obj, MY_CLASS);
 1056              		.loc 1 479 5 is_stmt 1 view .LVU259
 1057              		.loc 1 479 5 view .LVU260
 1058              		.loc 1 479 5 view .LVU261
 480:Middlewares/lvgl/src/core/lv_obj_pos.c **** 
 481:Middlewares/lvgl/src/core/lv_obj_pos.c ****     lv_coord_t rel_x;
 1059              		.loc 1 481 5 view .LVU262
 482:Middlewares/lvgl/src/core/lv_obj_pos.c ****     lv_obj_t * parent = lv_obj_get_parent(obj);
 1060              		.loc 1 482 5 view .LVU263
 1061              		.loc 1 482 25 is_stmt 0 view .LVU264
 1062 0004 FFF7FEFF 		bl	lv_obj_get_parent
 1063              	.LVL82:
 483:Middlewares/lvgl/src/core/lv_obj_pos.c ****     if(parent) {
 1064              		.loc 1 483 5 is_stmt 1 view .LVU265
 1065              		.loc 1 483 7 is_stmt 0 view .LVU266
 1066 0008 E0B1     		cbz	r0, .L62
 1067 000a 0546     		mov	r5, r0
 484:Middlewares/lvgl/src/core/lv_obj_pos.c ****         rel_x  = obj->coords.x1 - parent->coords.x1;
 1068              		.loc 1 484 9 is_stmt 1 view .LVU267
 1069              		.loc 1 484 29 is_stmt 0 view .LVU268
 1070 000c A48A     		ldrh	r4, [r4, #20]
 1071              	.LVL83:
ARM GAS  /tmp/ccgCqJqT.s 			page 37


 1072              		.loc 1 484 49 view .LVU269
 1073 000e 838A     		ldrh	r3, [r0, #20]
 1074              		.loc 1 484 33 view .LVU270
 1075 0010 E41A     		subs	r4, r4, r3
 1076 0012 A4B2     		uxth	r4, r4
 1077              	.LVL84:
 485:Middlewares/lvgl/src/core/lv_obj_pos.c ****         rel_x += lv_obj_get_scroll_x(parent);
 1078              		.loc 1 485 9 is_stmt 1 view .LVU271
 1079              		.loc 1 485 18 is_stmt 0 view .LVU272
 1080 0014 FFF7FEFF 		bl	lv_obj_get_scroll_x
 1081              	.LVL85:
 1082              		.loc 1 485 18 view .LVU273
 1083 0018 80B2     		uxth	r0, r0
 1084              		.loc 1 485 15 view .LVU274
 1085 001a 0444     		add	r4, r4, r0
 1086              	.LVL86:
 1087              		.loc 1 485 15 view .LVU275
 1088 001c A4B2     		uxth	r4, r4
 1089              	.LVL87:
 486:Middlewares/lvgl/src/core/lv_obj_pos.c ****         rel_x -= lv_obj_get_style_pad_left(parent, LV_PART_MAIN);
 1090              		.loc 1 486 9 is_stmt 1 view .LVU276
 1091              	.LBB137:
 1092              	.LBI137:
 103:Middlewares/lvgl/src/core/lv_obj_style_gen.h **** {
 1093              		.loc 2 103 26 view .LVU277
 1094              	.LBB138:
 105:Middlewares/lvgl/src/core/lv_obj_style_gen.h ****     return (lv_coord_t)v.num;
 1095              		.loc 2 105 5 view .LVU278
 105:Middlewares/lvgl/src/core/lv_obj_style_gen.h ****     return (lv_coord_t)v.num;
 1096              		.loc 2 105 26 is_stmt 0 view .LVU279
 1097 001e 41F21202 		movw	r2, #4114
 1098 0022 0021     		movs	r1, #0
 1099 0024 2846     		mov	r0, r5
 1100 0026 FFF7FEFF 		bl	lv_obj_get_style_prop
 1101              	.LVL88:
 106:Middlewares/lvgl/src/core/lv_obj_style_gen.h **** }
 1102              		.loc 2 106 5 is_stmt 1 view .LVU280
 106:Middlewares/lvgl/src/core/lv_obj_style_gen.h **** }
 1103              		.loc 2 106 5 is_stmt 0 view .LVU281
 1104              	.LBE138:
 1105              	.LBE137:
 1106              		.loc 1 486 18 view .LVU282
 1107 002a 80B2     		uxth	r0, r0
 1108              		.loc 1 486 15 view .LVU283
 1109 002c 241A     		subs	r4, r4, r0
 1110              	.LVL89:
 1111              		.loc 1 486 15 view .LVU284
 1112 002e A4B2     		uxth	r4, r4
 1113              	.LVL90:
 487:Middlewares/lvgl/src/core/lv_obj_pos.c ****         rel_x -= lv_obj_get_style_border_width(parent, LV_PART_MAIN);
 1114              		.loc 1 487 9 is_stmt 1 view .LVU285
 1115              	.LBB139:
 1116              	.LBI139:
 295:Middlewares/lvgl/src/core/lv_obj_style_gen.h **** {
 1117              		.loc 2 295 26 view .LVU286
 1118              	.LBB140:
 297:Middlewares/lvgl/src/core/lv_obj_style_gen.h ****     return (lv_coord_t)v.num;
ARM GAS  /tmp/ccgCqJqT.s 			page 38


 1119              		.loc 2 297 5 view .LVU287
 297:Middlewares/lvgl/src/core/lv_obj_style_gen.h ****     return (lv_coord_t)v.num;
 1120              		.loc 2 297 26 is_stmt 0 view .LVU288
 1121 0030 41F23202 		movw	r2, #4146
 1122 0034 0021     		movs	r1, #0
 1123 0036 2846     		mov	r0, r5
 1124 0038 FFF7FEFF 		bl	lv_obj_get_style_prop
 1125              	.LVL91:
 1126              		.loc 2 298 5 is_stmt 1 view .LVU289
 1127              		.loc 2 298 5 is_stmt 0 view .LVU290
 1128              	.LBE140:
 1129              	.LBE139:
 1130              		.loc 1 487 18 view .LVU291
 1131 003c 80B2     		uxth	r0, r0
 1132              		.loc 1 487 15 view .LVU292
 1133 003e 201A     		subs	r0, r4, r0
 1134 0040 00B2     		sxth	r0, r0
 1135              	.LVL92:
 1136              	.L63:
 488:Middlewares/lvgl/src/core/lv_obj_pos.c ****     }
 489:Middlewares/lvgl/src/core/lv_obj_pos.c ****     else {
 490:Middlewares/lvgl/src/core/lv_obj_pos.c ****         rel_x = obj->coords.x1;
 491:Middlewares/lvgl/src/core/lv_obj_pos.c ****     }
 492:Middlewares/lvgl/src/core/lv_obj_pos.c ****     return rel_x;
 1137              		.loc 1 492 5 is_stmt 1 view .LVU293
 493:Middlewares/lvgl/src/core/lv_obj_pos.c **** }
 1138              		.loc 1 493 1 is_stmt 0 view .LVU294
 1139 0042 38BD     		pop	{r3, r4, r5, pc}
 1140              	.LVL93:
 1141              	.L62:
 490:Middlewares/lvgl/src/core/lv_obj_pos.c ****     }
 1142              		.loc 1 490 9 is_stmt 1 view .LVU295
 490:Middlewares/lvgl/src/core/lv_obj_pos.c ****     }
 1143              		.loc 1 490 15 is_stmt 0 view .LVU296
 1144 0044 B4F91400 		ldrsh	r0, [r4, #20]
 1145              	.LVL94:
 490:Middlewares/lvgl/src/core/lv_obj_pos.c ****     }
 1146              		.loc 1 490 15 view .LVU297
 1147 0048 FBE7     		b	.L63
 1148              		.cfi_endproc
 1149              	.LFE171:
 1151              		.section	.text.lv_obj_get_y,"ax",%progbits
 1152              		.align	1
 1153              		.global	lv_obj_get_y
 1154              		.syntax unified
 1155              		.thumb
 1156              		.thumb_func
 1157              		.fpu softvfp
 1159              	lv_obj_get_y:
 1160              	.LVL95:
 1161              	.LFB173:
 494:Middlewares/lvgl/src/core/lv_obj_pos.c **** 
 495:Middlewares/lvgl/src/core/lv_obj_pos.c **** lv_coord_t lv_obj_get_x2(const lv_obj_t * obj)
 496:Middlewares/lvgl/src/core/lv_obj_pos.c **** {
 497:Middlewares/lvgl/src/core/lv_obj_pos.c ****     LV_ASSERT_OBJ(obj, MY_CLASS);
 498:Middlewares/lvgl/src/core/lv_obj_pos.c **** 
 499:Middlewares/lvgl/src/core/lv_obj_pos.c ****     return lv_obj_get_x(obj) + lv_obj_get_width(obj);
ARM GAS  /tmp/ccgCqJqT.s 			page 39


 500:Middlewares/lvgl/src/core/lv_obj_pos.c **** }
 501:Middlewares/lvgl/src/core/lv_obj_pos.c **** 
 502:Middlewares/lvgl/src/core/lv_obj_pos.c **** lv_coord_t lv_obj_get_y(const lv_obj_t * obj)
 503:Middlewares/lvgl/src/core/lv_obj_pos.c **** {
 1162              		.loc 1 503 1 is_stmt 1 view -0
 1163              		.cfi_startproc
 1164              		@ args = 0, pretend = 0, frame = 0
 1165              		@ frame_needed = 0, uses_anonymous_args = 0
 1166              		.loc 1 503 1 is_stmt 0 view .LVU299
 1167 0000 38B5     		push	{r3, r4, r5, lr}
 1168              	.LCFI27:
 1169              		.cfi_def_cfa_offset 16
 1170              		.cfi_offset 3, -16
 1171              		.cfi_offset 4, -12
 1172              		.cfi_offset 5, -8
 1173              		.cfi_offset 14, -4
 1174 0002 0446     		mov	r4, r0
 504:Middlewares/lvgl/src/core/lv_obj_pos.c ****     LV_ASSERT_OBJ(obj, MY_CLASS);
 1175              		.loc 1 504 5 is_stmt 1 view .LVU300
 1176              		.loc 1 504 5 view .LVU301
 1177              		.loc 1 504 5 view .LVU302
 505:Middlewares/lvgl/src/core/lv_obj_pos.c **** 
 506:Middlewares/lvgl/src/core/lv_obj_pos.c ****     lv_coord_t rel_y;
 1178              		.loc 1 506 5 view .LVU303
 507:Middlewares/lvgl/src/core/lv_obj_pos.c ****     lv_obj_t * parent = lv_obj_get_parent(obj);
 1179              		.loc 1 507 5 view .LVU304
 1180              		.loc 1 507 25 is_stmt 0 view .LVU305
 1181 0004 FFF7FEFF 		bl	lv_obj_get_parent
 1182              	.LVL96:
 508:Middlewares/lvgl/src/core/lv_obj_pos.c ****     if(parent) {
 1183              		.loc 1 508 5 is_stmt 1 view .LVU306
 1184              		.loc 1 508 7 is_stmt 0 view .LVU307
 1185 0008 E0B1     		cbz	r0, .L66
 1186 000a 0546     		mov	r5, r0
 509:Middlewares/lvgl/src/core/lv_obj_pos.c ****         rel_y = obj->coords.y1 - parent->coords.y1;
 1187              		.loc 1 509 9 is_stmt 1 view .LVU308
 1188              		.loc 1 509 28 is_stmt 0 view .LVU309
 1189 000c E48A     		ldrh	r4, [r4, #22]
 1190              	.LVL97:
 1191              		.loc 1 509 48 view .LVU310
 1192 000e C38A     		ldrh	r3, [r0, #22]
 1193              		.loc 1 509 32 view .LVU311
 1194 0010 E41A     		subs	r4, r4, r3
 1195 0012 A4B2     		uxth	r4, r4
 1196              	.LVL98:
 510:Middlewares/lvgl/src/core/lv_obj_pos.c ****         rel_y += lv_obj_get_scroll_y(parent);
 1197              		.loc 1 510 9 is_stmt 1 view .LVU312
 1198              		.loc 1 510 18 is_stmt 0 view .LVU313
 1199 0014 FFF7FEFF 		bl	lv_obj_get_scroll_y
 1200              	.LVL99:
 1201              		.loc 1 510 18 view .LVU314
 1202 0018 80B2     		uxth	r0, r0
 1203              		.loc 1 510 15 view .LVU315
 1204 001a 0444     		add	r4, r4, r0
 1205              	.LVL100:
 1206              		.loc 1 510 15 view .LVU316
 1207 001c A4B2     		uxth	r4, r4
ARM GAS  /tmp/ccgCqJqT.s 			page 40


 1208              	.LVL101:
 511:Middlewares/lvgl/src/core/lv_obj_pos.c ****         rel_y -= lv_obj_get_style_pad_top(parent, LV_PART_MAIN);
 1209              		.loc 1 511 9 is_stmt 1 view .LVU317
 1210              	.LBB141:
 1211              	.LBI141:
  91:Middlewares/lvgl/src/core/lv_obj_style_gen.h **** {
 1212              		.loc 2 91 26 view .LVU318
 1213              	.LBB142:
  93:Middlewares/lvgl/src/core/lv_obj_style_gen.h ****     return (lv_coord_t)v.num;
 1214              		.loc 2 93 5 view .LVU319
  93:Middlewares/lvgl/src/core/lv_obj_style_gen.h ****     return (lv_coord_t)v.num;
 1215              		.loc 2 93 26 is_stmt 0 view .LVU320
 1216 001e 41F21002 		movw	r2, #4112
 1217 0022 0021     		movs	r1, #0
 1218 0024 2846     		mov	r0, r5
 1219 0026 FFF7FEFF 		bl	lv_obj_get_style_prop
 1220              	.LVL102:
  94:Middlewares/lvgl/src/core/lv_obj_style_gen.h **** }
 1221              		.loc 2 94 5 is_stmt 1 view .LVU321
  94:Middlewares/lvgl/src/core/lv_obj_style_gen.h **** }
 1222              		.loc 2 94 5 is_stmt 0 view .LVU322
 1223              	.LBE142:
 1224              	.LBE141:
 1225              		.loc 1 511 18 view .LVU323
 1226 002a 80B2     		uxth	r0, r0
 1227              		.loc 1 511 15 view .LVU324
 1228 002c 241A     		subs	r4, r4, r0
 1229              	.LVL103:
 1230              		.loc 1 511 15 view .LVU325
 1231 002e A4B2     		uxth	r4, r4
 1232              	.LVL104:
 512:Middlewares/lvgl/src/core/lv_obj_pos.c ****         rel_y -= lv_obj_get_style_border_width(parent, LV_PART_MAIN);
 1233              		.loc 1 512 9 is_stmt 1 view .LVU326
 1234              	.LBB143:
 1235              	.LBI143:
 295:Middlewares/lvgl/src/core/lv_obj_style_gen.h **** {
 1236              		.loc 2 295 26 view .LVU327
 1237              	.LBB144:
 297:Middlewares/lvgl/src/core/lv_obj_style_gen.h ****     return (lv_coord_t)v.num;
 1238              		.loc 2 297 5 view .LVU328
 297:Middlewares/lvgl/src/core/lv_obj_style_gen.h ****     return (lv_coord_t)v.num;
 1239              		.loc 2 297 26 is_stmt 0 view .LVU329
 1240 0030 41F23202 		movw	r2, #4146
 1241 0034 0021     		movs	r1, #0
 1242 0036 2846     		mov	r0, r5
 1243 0038 FFF7FEFF 		bl	lv_obj_get_style_prop
 1244              	.LVL105:
 1245              		.loc 2 298 5 is_stmt 1 view .LVU330
 1246              		.loc 2 298 5 is_stmt 0 view .LVU331
 1247              	.LBE144:
 1248              	.LBE143:
 1249              		.loc 1 512 18 view .LVU332
 1250 003c 80B2     		uxth	r0, r0
 1251              		.loc 1 512 15 view .LVU333
 1252 003e 201A     		subs	r0, r4, r0
 1253 0040 00B2     		sxth	r0, r0
 1254              	.LVL106:
ARM GAS  /tmp/ccgCqJqT.s 			page 41


 1255              	.L67:
 513:Middlewares/lvgl/src/core/lv_obj_pos.c ****     }
 514:Middlewares/lvgl/src/core/lv_obj_pos.c ****     else {
 515:Middlewares/lvgl/src/core/lv_obj_pos.c ****         rel_y = obj->coords.y1;
 516:Middlewares/lvgl/src/core/lv_obj_pos.c ****     }
 517:Middlewares/lvgl/src/core/lv_obj_pos.c ****     return rel_y;
 1256              		.loc 1 517 5 is_stmt 1 view .LVU334
 518:Middlewares/lvgl/src/core/lv_obj_pos.c **** }
 1257              		.loc 1 518 1 is_stmt 0 view .LVU335
 1258 0042 38BD     		pop	{r3, r4, r5, pc}
 1259              	.LVL107:
 1260              	.L66:
 515:Middlewares/lvgl/src/core/lv_obj_pos.c ****     }
 1261              		.loc 1 515 9 is_stmt 1 view .LVU336
 515:Middlewares/lvgl/src/core/lv_obj_pos.c ****     }
 1262              		.loc 1 515 15 is_stmt 0 view .LVU337
 1263 0044 B4F91600 		ldrsh	r0, [r4, #22]
 1264              	.LVL108:
 515:Middlewares/lvgl/src/core/lv_obj_pos.c ****     }
 1265              		.loc 1 515 15 view .LVU338
 1266 0048 FBE7     		b	.L67
 1267              		.cfi_endproc
 1268              	.LFE173:
 1270              		.section	.text.lv_obj_get_width,"ax",%progbits
 1271              		.align	1
 1272              		.global	lv_obj_get_width
 1273              		.syntax unified
 1274              		.thumb
 1275              		.thumb_func
 1276              		.fpu softvfp
 1278              	lv_obj_get_width:
 1279              	.LVL109:
 1280              	.LFB175:
 519:Middlewares/lvgl/src/core/lv_obj_pos.c **** 
 520:Middlewares/lvgl/src/core/lv_obj_pos.c **** lv_coord_t lv_obj_get_y2(const lv_obj_t * obj)
 521:Middlewares/lvgl/src/core/lv_obj_pos.c **** {
 522:Middlewares/lvgl/src/core/lv_obj_pos.c ****     LV_ASSERT_OBJ(obj, MY_CLASS);
 523:Middlewares/lvgl/src/core/lv_obj_pos.c **** 
 524:Middlewares/lvgl/src/core/lv_obj_pos.c ****     return lv_obj_get_y(obj) + lv_obj_get_height(obj);
 525:Middlewares/lvgl/src/core/lv_obj_pos.c **** }
 526:Middlewares/lvgl/src/core/lv_obj_pos.c **** 
 527:Middlewares/lvgl/src/core/lv_obj_pos.c **** lv_coord_t lv_obj_get_width(const lv_obj_t * obj)
 528:Middlewares/lvgl/src/core/lv_obj_pos.c **** {
 1281              		.loc 1 528 1 is_stmt 1 view -0
 1282              		.cfi_startproc
 1283              		@ args = 0, pretend = 0, frame = 0
 1284              		@ frame_needed = 0, uses_anonymous_args = 0
 1285              		@ link register save eliminated.
 1286              		.loc 1 528 1 is_stmt 0 view .LVU340
 1287 0000 0346     		mov	r3, r0
 529:Middlewares/lvgl/src/core/lv_obj_pos.c ****     LV_ASSERT_OBJ(obj, MY_CLASS);
 1288              		.loc 1 529 5 is_stmt 1 view .LVU341
 1289              		.loc 1 529 5 view .LVU342
 1290              		.loc 1 529 5 view .LVU343
 530:Middlewares/lvgl/src/core/lv_obj_pos.c **** 
 531:Middlewares/lvgl/src/core/lv_obj_pos.c ****     return lv_area_get_width(&obj->coords);
 1291              		.loc 1 531 5 view .LVU344
ARM GAS  /tmp/ccgCqJqT.s 			page 42


 1292              	.LVL110:
 1293              	.LBB145:
 1294              	.LBI145:
 126:Middlewares/lvgl/src/core/../misc/../font/../misc/lv_area.h **** }
 127:Middlewares/lvgl/src/core/../misc/../font/../misc/lv_area.h **** 
 128:Middlewares/lvgl/src/core/../misc/../font/../misc/lv_area.h **** /**
 129:Middlewares/lvgl/src/core/../misc/../font/../misc/lv_area.h ****  * Get the width of an area
 130:Middlewares/lvgl/src/core/../misc/../font/../misc/lv_area.h ****  * @param area_p pointer to an area
 131:Middlewares/lvgl/src/core/../misc/../font/../misc/lv_area.h ****  * @return the width of the area (if x1 == x2 -> width = 1)
 132:Middlewares/lvgl/src/core/../misc/../font/../misc/lv_area.h ****  */
 133:Middlewares/lvgl/src/core/../misc/../font/../misc/lv_area.h **** static inline lv_coord_t lv_area_get_width(const lv_area_t * area_p)
 1295              		.loc 3 133 26 view .LVU345
 1296              	.LBB146:
 134:Middlewares/lvgl/src/core/../misc/../font/../misc/lv_area.h **** {
 135:Middlewares/lvgl/src/core/../misc/../font/../misc/lv_area.h ****     return (lv_coord_t)(area_p->x2 - area_p->x1 + 1);
 1297              		.loc 3 135 5 view .LVU346
 1298              		.loc 3 135 31 is_stmt 0 view .LVU347
 1299 0002 008B     		ldrh	r0, [r0, #24]
 1300              	.LVL111:
 1301              		.loc 3 135 44 view .LVU348
 1302 0004 9B8A     		ldrh	r3, [r3, #20]
 1303              	.LVL112:
 1304              		.loc 3 135 36 view .LVU349
 1305 0006 C01A     		subs	r0, r0, r3
 1306 0008 80B2     		uxth	r0, r0
 1307              		.loc 3 135 49 view .LVU350
 1308 000a 0130     		adds	r0, r0, #1
 1309              	.LVL113:
 1310              		.loc 3 135 49 view .LVU351
 1311              	.LBE146:
 1312              	.LBE145:
 532:Middlewares/lvgl/src/core/lv_obj_pos.c **** }
 1313              		.loc 1 532 1 view .LVU352
 1314 000c 00B2     		sxth	r0, r0
 1315 000e 7047     		bx	lr
 1316              		.cfi_endproc
 1317              	.LFE175:
 1319              		.section	.text.lv_obj_get_x2,"ax",%progbits
 1320              		.align	1
 1321              		.global	lv_obj_get_x2
 1322              		.syntax unified
 1323              		.thumb
 1324              		.thumb_func
 1325              		.fpu softvfp
 1327              	lv_obj_get_x2:
 1328              	.LVL114:
 1329              	.LFB172:
 496:Middlewares/lvgl/src/core/lv_obj_pos.c ****     LV_ASSERT_OBJ(obj, MY_CLASS);
 1330              		.loc 1 496 1 is_stmt 1 view -0
 1331              		.cfi_startproc
 1332              		@ args = 0, pretend = 0, frame = 0
 1333              		@ frame_needed = 0, uses_anonymous_args = 0
 496:Middlewares/lvgl/src/core/lv_obj_pos.c ****     LV_ASSERT_OBJ(obj, MY_CLASS);
 1334              		.loc 1 496 1 is_stmt 0 view .LVU354
 1335 0000 38B5     		push	{r3, r4, r5, lr}
 1336              	.LCFI28:
 1337              		.cfi_def_cfa_offset 16
ARM GAS  /tmp/ccgCqJqT.s 			page 43


 1338              		.cfi_offset 3, -16
 1339              		.cfi_offset 4, -12
 1340              		.cfi_offset 5, -8
 1341              		.cfi_offset 14, -4
 1342 0002 0546     		mov	r5, r0
 497:Middlewares/lvgl/src/core/lv_obj_pos.c **** 
 1343              		.loc 1 497 5 is_stmt 1 view .LVU355
 497:Middlewares/lvgl/src/core/lv_obj_pos.c **** 
 1344              		.loc 1 497 5 view .LVU356
 497:Middlewares/lvgl/src/core/lv_obj_pos.c **** 
 1345              		.loc 1 497 5 view .LVU357
 499:Middlewares/lvgl/src/core/lv_obj_pos.c **** }
 1346              		.loc 1 499 5 view .LVU358
 499:Middlewares/lvgl/src/core/lv_obj_pos.c **** }
 1347              		.loc 1 499 12 is_stmt 0 view .LVU359
 1348 0004 FFF7FEFF 		bl	lv_obj_get_x
 1349              	.LVL115:
 499:Middlewares/lvgl/src/core/lv_obj_pos.c **** }
 1350              		.loc 1 499 12 view .LVU360
 1351 0008 84B2     		uxth	r4, r0
 499:Middlewares/lvgl/src/core/lv_obj_pos.c **** }
 1352              		.loc 1 499 32 view .LVU361
 1353 000a 2846     		mov	r0, r5
 1354 000c FFF7FEFF 		bl	lv_obj_get_width
 1355              	.LVL116:
 1356 0010 80B2     		uxth	r0, r0
 499:Middlewares/lvgl/src/core/lv_obj_pos.c **** }
 1357              		.loc 1 499 30 view .LVU362
 1358 0012 2044     		add	r0, r0, r4
 500:Middlewares/lvgl/src/core/lv_obj_pos.c **** 
 1359              		.loc 1 500 1 view .LVU363
 1360 0014 00B2     		sxth	r0, r0
 1361 0016 38BD     		pop	{r3, r4, r5, pc}
 500:Middlewares/lvgl/src/core/lv_obj_pos.c **** 
 1362              		.loc 1 500 1 view .LVU364
 1363              		.cfi_endproc
 1364              	.LFE172:
 1366              		.section	.text.lv_obj_get_height,"ax",%progbits
 1367              		.align	1
 1368              		.global	lv_obj_get_height
 1369              		.syntax unified
 1370              		.thumb
 1371              		.thumb_func
 1372              		.fpu softvfp
 1374              	lv_obj_get_height:
 1375              	.LVL117:
 1376              	.LFB176:
 533:Middlewares/lvgl/src/core/lv_obj_pos.c **** 
 534:Middlewares/lvgl/src/core/lv_obj_pos.c **** lv_coord_t lv_obj_get_height(const lv_obj_t * obj)
 535:Middlewares/lvgl/src/core/lv_obj_pos.c **** {
 1377              		.loc 1 535 1 is_stmt 1 view -0
 1378              		.cfi_startproc
 1379              		@ args = 0, pretend = 0, frame = 0
 1380              		@ frame_needed = 0, uses_anonymous_args = 0
 1381              		@ link register save eliminated.
 1382              		.loc 1 535 1 is_stmt 0 view .LVU366
 1383 0000 0346     		mov	r3, r0
ARM GAS  /tmp/ccgCqJqT.s 			page 44


 536:Middlewares/lvgl/src/core/lv_obj_pos.c ****     LV_ASSERT_OBJ(obj, MY_CLASS);
 1384              		.loc 1 536 5 is_stmt 1 view .LVU367
 1385              		.loc 1 536 5 view .LVU368
 1386              		.loc 1 536 5 view .LVU369
 537:Middlewares/lvgl/src/core/lv_obj_pos.c **** 
 538:Middlewares/lvgl/src/core/lv_obj_pos.c ****     return lv_area_get_height(&obj->coords);
 1387              		.loc 1 538 5 view .LVU370
 1388              	.LVL118:
 1389              	.LBB147:
 1390              	.LBI147:
 136:Middlewares/lvgl/src/core/../misc/../font/../misc/lv_area.h **** }
 137:Middlewares/lvgl/src/core/../misc/../font/../misc/lv_area.h **** 
 138:Middlewares/lvgl/src/core/../misc/../font/../misc/lv_area.h **** /**
 139:Middlewares/lvgl/src/core/../misc/../font/../misc/lv_area.h ****  * Get the height of an area
 140:Middlewares/lvgl/src/core/../misc/../font/../misc/lv_area.h ****  * @param area_p pointer to an area
 141:Middlewares/lvgl/src/core/../misc/../font/../misc/lv_area.h ****  * @return the height of the area (if y1 == y2 -> height = 1)
 142:Middlewares/lvgl/src/core/../misc/../font/../misc/lv_area.h ****  */
 143:Middlewares/lvgl/src/core/../misc/../font/../misc/lv_area.h **** static inline lv_coord_t lv_area_get_height(const lv_area_t * area_p)
 1391              		.loc 3 143 26 view .LVU371
 1392              	.LBB148:
 144:Middlewares/lvgl/src/core/../misc/../font/../misc/lv_area.h **** {
 145:Middlewares/lvgl/src/core/../misc/../font/../misc/lv_area.h ****     return (lv_coord_t)(area_p->y2 - area_p->y1 + 1);
 1393              		.loc 3 145 5 view .LVU372
 1394              		.loc 3 145 31 is_stmt 0 view .LVU373
 1395 0002 408B     		ldrh	r0, [r0, #26]
 1396              	.LVL119:
 1397              		.loc 3 145 44 view .LVU374
 1398 0004 DB8A     		ldrh	r3, [r3, #22]
 1399              	.LVL120:
 1400              		.loc 3 145 36 view .LVU375
 1401 0006 C01A     		subs	r0, r0, r3
 1402 0008 80B2     		uxth	r0, r0
 1403              		.loc 3 145 49 view .LVU376
 1404 000a 0130     		adds	r0, r0, #1
 1405              	.LVL121:
 1406              		.loc 3 145 49 view .LVU377
 1407              	.LBE148:
 1408              	.LBE147:
 539:Middlewares/lvgl/src/core/lv_obj_pos.c **** }
 1409              		.loc 1 539 1 view .LVU378
 1410 000c 00B2     		sxth	r0, r0
 1411 000e 7047     		bx	lr
 1412              		.cfi_endproc
 1413              	.LFE176:
 1415              		.section	.text.calc_auto_size,"ax",%progbits
 1416              		.align	1
 1417              		.syntax unified
 1418              		.thumb
 1419              		.thumb_func
 1420              		.fpu softvfp
 1422              	calc_auto_size:
 1423              	.LVL122:
 1424              	.LFB195:
 540:Middlewares/lvgl/src/core/lv_obj_pos.c **** 
 541:Middlewares/lvgl/src/core/lv_obj_pos.c **** lv_coord_t lv_obj_get_content_width(const lv_obj_t * obj)
 542:Middlewares/lvgl/src/core/lv_obj_pos.c **** {
 543:Middlewares/lvgl/src/core/lv_obj_pos.c ****     LV_ASSERT_OBJ(obj, MY_CLASS);
ARM GAS  /tmp/ccgCqJqT.s 			page 45


 544:Middlewares/lvgl/src/core/lv_obj_pos.c **** 
 545:Middlewares/lvgl/src/core/lv_obj_pos.c ****     lv_coord_t left = lv_obj_get_style_pad_left(obj, LV_PART_MAIN);
 546:Middlewares/lvgl/src/core/lv_obj_pos.c ****     lv_coord_t right = lv_obj_get_style_pad_right(obj, LV_PART_MAIN);
 547:Middlewares/lvgl/src/core/lv_obj_pos.c ****     lv_coord_t border_width = lv_obj_get_style_border_width(obj, LV_PART_MAIN);
 548:Middlewares/lvgl/src/core/lv_obj_pos.c **** 
 549:Middlewares/lvgl/src/core/lv_obj_pos.c ****     return lv_obj_get_width(obj) - left - right - 2 * border_width;
 550:Middlewares/lvgl/src/core/lv_obj_pos.c **** }
 551:Middlewares/lvgl/src/core/lv_obj_pos.c **** 
 552:Middlewares/lvgl/src/core/lv_obj_pos.c **** lv_coord_t lv_obj_get_content_height(const lv_obj_t * obj)
 553:Middlewares/lvgl/src/core/lv_obj_pos.c **** {
 554:Middlewares/lvgl/src/core/lv_obj_pos.c ****     LV_ASSERT_OBJ(obj, MY_CLASS);
 555:Middlewares/lvgl/src/core/lv_obj_pos.c **** 
 556:Middlewares/lvgl/src/core/lv_obj_pos.c ****     lv_coord_t top = lv_obj_get_style_pad_top(obj, LV_PART_MAIN);
 557:Middlewares/lvgl/src/core/lv_obj_pos.c ****     lv_coord_t bottom =  lv_obj_get_style_pad_bottom(obj, LV_PART_MAIN);
 558:Middlewares/lvgl/src/core/lv_obj_pos.c ****     lv_coord_t border_width = lv_obj_get_style_border_width(obj, LV_PART_MAIN);
 559:Middlewares/lvgl/src/core/lv_obj_pos.c **** 
 560:Middlewares/lvgl/src/core/lv_obj_pos.c ****     return lv_obj_get_height(obj) - top - bottom - 2 * border_width;
 561:Middlewares/lvgl/src/core/lv_obj_pos.c **** }
 562:Middlewares/lvgl/src/core/lv_obj_pos.c **** 
 563:Middlewares/lvgl/src/core/lv_obj_pos.c **** void lv_obj_get_content_coords(const lv_obj_t * obj, lv_area_t * area)
 564:Middlewares/lvgl/src/core/lv_obj_pos.c **** {
 565:Middlewares/lvgl/src/core/lv_obj_pos.c ****     LV_ASSERT_OBJ(obj, MY_CLASS);
 566:Middlewares/lvgl/src/core/lv_obj_pos.c ****     lv_coord_t border_width = lv_obj_get_style_border_width(obj, LV_PART_MAIN);
 567:Middlewares/lvgl/src/core/lv_obj_pos.c **** 
 568:Middlewares/lvgl/src/core/lv_obj_pos.c ****     lv_obj_get_coords(obj, area);
 569:Middlewares/lvgl/src/core/lv_obj_pos.c ****     lv_area_increase(area, -border_width, -border_width);
 570:Middlewares/lvgl/src/core/lv_obj_pos.c ****     area->x1 += lv_obj_get_style_pad_left(obj, LV_PART_MAIN);
 571:Middlewares/lvgl/src/core/lv_obj_pos.c ****     area->x2 -= lv_obj_get_style_pad_right(obj, LV_PART_MAIN);
 572:Middlewares/lvgl/src/core/lv_obj_pos.c ****     area->y1 += lv_obj_get_style_pad_top(obj, LV_PART_MAIN);
 573:Middlewares/lvgl/src/core/lv_obj_pos.c ****     area->y2 -= lv_obj_get_style_pad_bottom(obj, LV_PART_MAIN);
 574:Middlewares/lvgl/src/core/lv_obj_pos.c **** 
 575:Middlewares/lvgl/src/core/lv_obj_pos.c **** }
 576:Middlewares/lvgl/src/core/lv_obj_pos.c **** 
 577:Middlewares/lvgl/src/core/lv_obj_pos.c **** lv_coord_t lv_obj_get_self_width(const lv_obj_t * obj)
 578:Middlewares/lvgl/src/core/lv_obj_pos.c **** {
 579:Middlewares/lvgl/src/core/lv_obj_pos.c ****     lv_point_t p = {0, LV_COORD_MIN};
 580:Middlewares/lvgl/src/core/lv_obj_pos.c ****     lv_event_send((lv_obj_t * )obj, LV_EVENT_GET_SELF_SIZE, &p);
 581:Middlewares/lvgl/src/core/lv_obj_pos.c ****     return p.x;
 582:Middlewares/lvgl/src/core/lv_obj_pos.c **** }
 583:Middlewares/lvgl/src/core/lv_obj_pos.c **** 
 584:Middlewares/lvgl/src/core/lv_obj_pos.c **** lv_coord_t lv_obj_get_self_height(const lv_obj_t * obj)
 585:Middlewares/lvgl/src/core/lv_obj_pos.c **** {
 586:Middlewares/lvgl/src/core/lv_obj_pos.c ****     lv_point_t p = {LV_COORD_MIN, 0};
 587:Middlewares/lvgl/src/core/lv_obj_pos.c ****     lv_event_send((lv_obj_t * )obj, LV_EVENT_GET_SELF_SIZE, &p);
 588:Middlewares/lvgl/src/core/lv_obj_pos.c ****     return p.y;
 589:Middlewares/lvgl/src/core/lv_obj_pos.c **** }
 590:Middlewares/lvgl/src/core/lv_obj_pos.c **** 
 591:Middlewares/lvgl/src/core/lv_obj_pos.c **** bool lv_obj_refresh_self_size(lv_obj_t * obj)
 592:Middlewares/lvgl/src/core/lv_obj_pos.c **** {
 593:Middlewares/lvgl/src/core/lv_obj_pos.c ****     lv_coord_t w_set = lv_obj_get_style_width(obj, LV_PART_MAIN);
 594:Middlewares/lvgl/src/core/lv_obj_pos.c ****     lv_coord_t h_set = lv_obj_get_style_height(obj, LV_PART_MAIN);
 595:Middlewares/lvgl/src/core/lv_obj_pos.c ****     if(w_set != LV_SIZE_CONTENT && h_set != LV_SIZE_CONTENT) return false;
 596:Middlewares/lvgl/src/core/lv_obj_pos.c **** 
 597:Middlewares/lvgl/src/core/lv_obj_pos.c ****     lv_obj_mark_layout_as_dirty(obj);
 598:Middlewares/lvgl/src/core/lv_obj_pos.c ****     return true;
 599:Middlewares/lvgl/src/core/lv_obj_pos.c **** }
 600:Middlewares/lvgl/src/core/lv_obj_pos.c **** 
ARM GAS  /tmp/ccgCqJqT.s 			page 46


 601:Middlewares/lvgl/src/core/lv_obj_pos.c **** void lv_obj_refr_pos(lv_obj_t * obj)
 602:Middlewares/lvgl/src/core/lv_obj_pos.c **** {
 603:Middlewares/lvgl/src/core/lv_obj_pos.c ****     if(lv_obj_is_layout_positioned(obj)) return;
 604:Middlewares/lvgl/src/core/lv_obj_pos.c **** 
 605:Middlewares/lvgl/src/core/lv_obj_pos.c ****     lv_obj_t * parent = lv_obj_get_parent(obj);
 606:Middlewares/lvgl/src/core/lv_obj_pos.c ****     lv_coord_t x = lv_obj_get_style_x(obj, LV_PART_MAIN);
 607:Middlewares/lvgl/src/core/lv_obj_pos.c ****     lv_coord_t y = lv_obj_get_style_y(obj, LV_PART_MAIN);
 608:Middlewares/lvgl/src/core/lv_obj_pos.c **** 
 609:Middlewares/lvgl/src/core/lv_obj_pos.c ****     if(parent == NULL) {
 610:Middlewares/lvgl/src/core/lv_obj_pos.c ****         lv_obj_move_to(obj, x, y);
 611:Middlewares/lvgl/src/core/lv_obj_pos.c ****         return;
 612:Middlewares/lvgl/src/core/lv_obj_pos.c ****     }
 613:Middlewares/lvgl/src/core/lv_obj_pos.c **** 
 614:Middlewares/lvgl/src/core/lv_obj_pos.c ****     /*Handle percentage value*/
 615:Middlewares/lvgl/src/core/lv_obj_pos.c ****     lv_coord_t pw = lv_obj_get_content_width(parent);
 616:Middlewares/lvgl/src/core/lv_obj_pos.c ****     lv_coord_t ph = lv_obj_get_content_height(parent);
 617:Middlewares/lvgl/src/core/lv_obj_pos.c ****     if(LV_COORD_IS_PCT(x)) x = (pw * LV_COORD_GET_PCT(x)) / 100;
 618:Middlewares/lvgl/src/core/lv_obj_pos.c ****     if(LV_COORD_IS_PCT(y)) y = (ph * LV_COORD_GET_PCT(y)) / 100;
 619:Middlewares/lvgl/src/core/lv_obj_pos.c **** 
 620:Middlewares/lvgl/src/core/lv_obj_pos.c ****     /*Handle percentage value of translate*/
 621:Middlewares/lvgl/src/core/lv_obj_pos.c ****     lv_coord_t tr_x = lv_obj_get_style_translate_x(obj, LV_PART_MAIN);
 622:Middlewares/lvgl/src/core/lv_obj_pos.c ****     lv_coord_t tr_y = lv_obj_get_style_translate_y(obj, LV_PART_MAIN);
 623:Middlewares/lvgl/src/core/lv_obj_pos.c ****     lv_coord_t w = lv_obj_get_width(obj);
 624:Middlewares/lvgl/src/core/lv_obj_pos.c ****     lv_coord_t h = lv_obj_get_height(obj);
 625:Middlewares/lvgl/src/core/lv_obj_pos.c ****     if(LV_COORD_IS_PCT(tr_x)) tr_x = (w * LV_COORD_GET_PCT(tr_x)) / 100;
 626:Middlewares/lvgl/src/core/lv_obj_pos.c ****     if(LV_COORD_IS_PCT(tr_y)) tr_y = (h * LV_COORD_GET_PCT(tr_y)) / 100;
 627:Middlewares/lvgl/src/core/lv_obj_pos.c **** 
 628:Middlewares/lvgl/src/core/lv_obj_pos.c ****     /*Use the translation*/
 629:Middlewares/lvgl/src/core/lv_obj_pos.c ****     x += tr_x;
 630:Middlewares/lvgl/src/core/lv_obj_pos.c ****     y += tr_y;
 631:Middlewares/lvgl/src/core/lv_obj_pos.c **** 
 632:Middlewares/lvgl/src/core/lv_obj_pos.c ****     lv_align_t align = lv_obj_get_style_align(obj, LV_PART_MAIN);
 633:Middlewares/lvgl/src/core/lv_obj_pos.c **** 
 634:Middlewares/lvgl/src/core/lv_obj_pos.c ****     if(align == LV_ALIGN_DEFAULT) {
 635:Middlewares/lvgl/src/core/lv_obj_pos.c ****         if(lv_obj_get_style_base_dir(parent, LV_PART_MAIN) == LV_BASE_DIR_RTL) align = LV_ALIGN_TOP
 636:Middlewares/lvgl/src/core/lv_obj_pos.c ****         else align = LV_ALIGN_TOP_LEFT;
 637:Middlewares/lvgl/src/core/lv_obj_pos.c ****     }
 638:Middlewares/lvgl/src/core/lv_obj_pos.c **** 
 639:Middlewares/lvgl/src/core/lv_obj_pos.c ****     if(align == LV_ALIGN_TOP_LEFT) {
 640:Middlewares/lvgl/src/core/lv_obj_pos.c ****         lv_obj_move_to(obj, x, y);
 641:Middlewares/lvgl/src/core/lv_obj_pos.c ****     }
 642:Middlewares/lvgl/src/core/lv_obj_pos.c ****     else {
 643:Middlewares/lvgl/src/core/lv_obj_pos.c **** 
 644:Middlewares/lvgl/src/core/lv_obj_pos.c ****         switch(align) {
 645:Middlewares/lvgl/src/core/lv_obj_pos.c ****         case LV_ALIGN_TOP_MID:
 646:Middlewares/lvgl/src/core/lv_obj_pos.c ****             x += pw / 2 - w / 2;
 647:Middlewares/lvgl/src/core/lv_obj_pos.c ****             break;
 648:Middlewares/lvgl/src/core/lv_obj_pos.c ****         case LV_ALIGN_TOP_RIGHT:
 649:Middlewares/lvgl/src/core/lv_obj_pos.c ****             x += pw - w;
 650:Middlewares/lvgl/src/core/lv_obj_pos.c ****             break;
 651:Middlewares/lvgl/src/core/lv_obj_pos.c ****         case LV_ALIGN_LEFT_MID:
 652:Middlewares/lvgl/src/core/lv_obj_pos.c ****             y += ph / 2 - h / 2;
 653:Middlewares/lvgl/src/core/lv_obj_pos.c ****             break;
 654:Middlewares/lvgl/src/core/lv_obj_pos.c ****         case LV_ALIGN_BOTTOM_LEFT:
 655:Middlewares/lvgl/src/core/lv_obj_pos.c ****             y += ph - h;
 656:Middlewares/lvgl/src/core/lv_obj_pos.c ****             break;
 657:Middlewares/lvgl/src/core/lv_obj_pos.c ****         case LV_ALIGN_BOTTOM_MID:
ARM GAS  /tmp/ccgCqJqT.s 			page 47


 658:Middlewares/lvgl/src/core/lv_obj_pos.c ****             x += pw / 2 - w / 2;
 659:Middlewares/lvgl/src/core/lv_obj_pos.c ****             y += ph - h;
 660:Middlewares/lvgl/src/core/lv_obj_pos.c ****             break;
 661:Middlewares/lvgl/src/core/lv_obj_pos.c ****         case LV_ALIGN_BOTTOM_RIGHT:
 662:Middlewares/lvgl/src/core/lv_obj_pos.c ****             x += pw - w;
 663:Middlewares/lvgl/src/core/lv_obj_pos.c ****             y += ph - h;
 664:Middlewares/lvgl/src/core/lv_obj_pos.c ****             break;
 665:Middlewares/lvgl/src/core/lv_obj_pos.c ****         case LV_ALIGN_RIGHT_MID:
 666:Middlewares/lvgl/src/core/lv_obj_pos.c ****             x += pw - w;
 667:Middlewares/lvgl/src/core/lv_obj_pos.c ****             y += ph / 2 - h / 2;
 668:Middlewares/lvgl/src/core/lv_obj_pos.c ****             break;
 669:Middlewares/lvgl/src/core/lv_obj_pos.c ****         case LV_ALIGN_CENTER:
 670:Middlewares/lvgl/src/core/lv_obj_pos.c ****             x += pw / 2 - w / 2;
 671:Middlewares/lvgl/src/core/lv_obj_pos.c ****             y += ph / 2 - h / 2;
 672:Middlewares/lvgl/src/core/lv_obj_pos.c ****             break;
 673:Middlewares/lvgl/src/core/lv_obj_pos.c ****         default:
 674:Middlewares/lvgl/src/core/lv_obj_pos.c ****             break;
 675:Middlewares/lvgl/src/core/lv_obj_pos.c ****         }
 676:Middlewares/lvgl/src/core/lv_obj_pos.c ****         lv_obj_move_to(obj, x, y);
 677:Middlewares/lvgl/src/core/lv_obj_pos.c ****     }
 678:Middlewares/lvgl/src/core/lv_obj_pos.c **** }
 679:Middlewares/lvgl/src/core/lv_obj_pos.c **** 
 680:Middlewares/lvgl/src/core/lv_obj_pos.c **** void lv_obj_move_to(lv_obj_t * obj, lv_coord_t x, lv_coord_t y)
 681:Middlewares/lvgl/src/core/lv_obj_pos.c **** {
 682:Middlewares/lvgl/src/core/lv_obj_pos.c ****     /*Convert x and y to absolute coordinates*/
 683:Middlewares/lvgl/src/core/lv_obj_pos.c ****     lv_obj_t * parent = obj->parent;
 684:Middlewares/lvgl/src/core/lv_obj_pos.c **** 
 685:Middlewares/lvgl/src/core/lv_obj_pos.c ****     if(parent) {
 686:Middlewares/lvgl/src/core/lv_obj_pos.c ****         lv_coord_t pad_left = lv_obj_get_style_pad_left(parent, LV_PART_MAIN);
 687:Middlewares/lvgl/src/core/lv_obj_pos.c ****         lv_coord_t pad_top = lv_obj_get_style_pad_top(parent, LV_PART_MAIN);
 688:Middlewares/lvgl/src/core/lv_obj_pos.c **** 
 689:Middlewares/lvgl/src/core/lv_obj_pos.c ****         if(lv_obj_has_flag(obj, LV_OBJ_FLAG_FLOATING)) {
 690:Middlewares/lvgl/src/core/lv_obj_pos.c ****             x += pad_left + parent->coords.x1;
 691:Middlewares/lvgl/src/core/lv_obj_pos.c ****             y += pad_top + parent->coords.y1;
 692:Middlewares/lvgl/src/core/lv_obj_pos.c ****         } else {
 693:Middlewares/lvgl/src/core/lv_obj_pos.c ****             x += pad_left + parent->coords.x1 - lv_obj_get_scroll_x(parent);
 694:Middlewares/lvgl/src/core/lv_obj_pos.c ****             y += pad_top + parent->coords.y1 - lv_obj_get_scroll_y(parent);
 695:Middlewares/lvgl/src/core/lv_obj_pos.c ****         }
 696:Middlewares/lvgl/src/core/lv_obj_pos.c **** 
 697:Middlewares/lvgl/src/core/lv_obj_pos.c ****         lv_coord_t border_width = lv_obj_get_style_border_width(parent, LV_PART_MAIN);
 698:Middlewares/lvgl/src/core/lv_obj_pos.c ****         x += border_width;
 699:Middlewares/lvgl/src/core/lv_obj_pos.c ****         y += border_width;
 700:Middlewares/lvgl/src/core/lv_obj_pos.c ****     }
 701:Middlewares/lvgl/src/core/lv_obj_pos.c **** 
 702:Middlewares/lvgl/src/core/lv_obj_pos.c ****     /*Calculate and set the movement*/
 703:Middlewares/lvgl/src/core/lv_obj_pos.c ****     lv_point_t diff;
 704:Middlewares/lvgl/src/core/lv_obj_pos.c ****     diff.x = x - obj->coords.x1;
 705:Middlewares/lvgl/src/core/lv_obj_pos.c ****     diff.y = y - obj->coords.y1;
 706:Middlewares/lvgl/src/core/lv_obj_pos.c **** 
 707:Middlewares/lvgl/src/core/lv_obj_pos.c ****     /*Do nothing if the position is not changed*/
 708:Middlewares/lvgl/src/core/lv_obj_pos.c ****     /*It is very important else recursive positioning can
 709:Middlewares/lvgl/src/core/lv_obj_pos.c ****      *occur without position change*/
 710:Middlewares/lvgl/src/core/lv_obj_pos.c ****     if(diff.x == 0 && diff.y == 0) return;
 711:Middlewares/lvgl/src/core/lv_obj_pos.c **** 
 712:Middlewares/lvgl/src/core/lv_obj_pos.c ****     /*Invalidate the original area*/
 713:Middlewares/lvgl/src/core/lv_obj_pos.c ****     lv_obj_invalidate(obj);
 714:Middlewares/lvgl/src/core/lv_obj_pos.c **** 
ARM GAS  /tmp/ccgCqJqT.s 			page 48


 715:Middlewares/lvgl/src/core/lv_obj_pos.c ****     /*Save the original coordinates*/
 716:Middlewares/lvgl/src/core/lv_obj_pos.c ****     lv_area_t ori;
 717:Middlewares/lvgl/src/core/lv_obj_pos.c ****     lv_obj_get_coords(obj, &ori);
 718:Middlewares/lvgl/src/core/lv_obj_pos.c **** 
 719:Middlewares/lvgl/src/core/lv_obj_pos.c ****     /*Check if the object inside the parent or not*/
 720:Middlewares/lvgl/src/core/lv_obj_pos.c ****     lv_area_t parent_fit_area;
 721:Middlewares/lvgl/src/core/lv_obj_pos.c ****     bool on1 = false;
 722:Middlewares/lvgl/src/core/lv_obj_pos.c ****     if(parent) {
 723:Middlewares/lvgl/src/core/lv_obj_pos.c ****         lv_obj_get_content_coords(parent, &parent_fit_area);
 724:Middlewares/lvgl/src/core/lv_obj_pos.c **** 
 725:Middlewares/lvgl/src/core/lv_obj_pos.c ****         /*If the object is already out of the parent and its position is changes
 726:Middlewares/lvgl/src/core/lv_obj_pos.c ****          *surely the scrollbars also changes so invalidate them*/
 727:Middlewares/lvgl/src/core/lv_obj_pos.c ****         on1 = _lv_area_is_in(&ori, &parent_fit_area, 0);
 728:Middlewares/lvgl/src/core/lv_obj_pos.c ****         if(!on1) lv_obj_scrollbar_invalidate(parent);
 729:Middlewares/lvgl/src/core/lv_obj_pos.c ****     }
 730:Middlewares/lvgl/src/core/lv_obj_pos.c **** 
 731:Middlewares/lvgl/src/core/lv_obj_pos.c ****     obj->coords.x1 += diff.x;
 732:Middlewares/lvgl/src/core/lv_obj_pos.c ****     obj->coords.y1 += diff.y;
 733:Middlewares/lvgl/src/core/lv_obj_pos.c ****     obj->coords.x2 += diff.x;
 734:Middlewares/lvgl/src/core/lv_obj_pos.c ****     obj->coords.y2 += diff.y;
 735:Middlewares/lvgl/src/core/lv_obj_pos.c **** 
 736:Middlewares/lvgl/src/core/lv_obj_pos.c ****     lv_obj_move_children_by(obj, diff.x, diff.y, false);
 737:Middlewares/lvgl/src/core/lv_obj_pos.c **** 
 738:Middlewares/lvgl/src/core/lv_obj_pos.c ****     /*Call the ancestor's event handler to the parent too*/
 739:Middlewares/lvgl/src/core/lv_obj_pos.c ****     if(parent) lv_event_send(parent, LV_EVENT_CHILD_CHANGED, obj);
 740:Middlewares/lvgl/src/core/lv_obj_pos.c **** 
 741:Middlewares/lvgl/src/core/lv_obj_pos.c ****     /*Invalidate the new area*/
 742:Middlewares/lvgl/src/core/lv_obj_pos.c ****     lv_obj_invalidate(obj);
 743:Middlewares/lvgl/src/core/lv_obj_pos.c **** 
 744:Middlewares/lvgl/src/core/lv_obj_pos.c ****     /*If the object was out of the parent invalidate the new scrollbar area too.
 745:Middlewares/lvgl/src/core/lv_obj_pos.c ****      *If it wasn't out of the parent but out now, also invalidate the srollbars*/
 746:Middlewares/lvgl/src/core/lv_obj_pos.c ****     if(parent) {
 747:Middlewares/lvgl/src/core/lv_obj_pos.c ****         bool on2 = _lv_area_is_in(&obj->coords, &parent_fit_area, 0);
 748:Middlewares/lvgl/src/core/lv_obj_pos.c ****         if(on1 || (!on1 && on2)) lv_obj_scrollbar_invalidate(parent);
 749:Middlewares/lvgl/src/core/lv_obj_pos.c ****     }
 750:Middlewares/lvgl/src/core/lv_obj_pos.c **** }
 751:Middlewares/lvgl/src/core/lv_obj_pos.c **** 
 752:Middlewares/lvgl/src/core/lv_obj_pos.c **** void lv_obj_move_children_by(lv_obj_t * obj, lv_coord_t x_diff, lv_coord_t y_diff, bool ignore_floa
 753:Middlewares/lvgl/src/core/lv_obj_pos.c **** {
 754:Middlewares/lvgl/src/core/lv_obj_pos.c ****     uint32_t i;
 755:Middlewares/lvgl/src/core/lv_obj_pos.c ****     uint32_t child_cnt = lv_obj_get_child_cnt(obj);
 756:Middlewares/lvgl/src/core/lv_obj_pos.c ****     for(i = 0; i < child_cnt; i++) {
 757:Middlewares/lvgl/src/core/lv_obj_pos.c ****         lv_obj_t * child = lv_obj_get_child(obj, i);
 758:Middlewares/lvgl/src/core/lv_obj_pos.c ****         if(ignore_floating && lv_obj_has_flag(child, LV_OBJ_FLAG_FLOATING)) continue;
 759:Middlewares/lvgl/src/core/lv_obj_pos.c ****         child->coords.x1 += x_diff;
 760:Middlewares/lvgl/src/core/lv_obj_pos.c ****         child->coords.y1 += y_diff;
 761:Middlewares/lvgl/src/core/lv_obj_pos.c ****         child->coords.x2 += x_diff;
 762:Middlewares/lvgl/src/core/lv_obj_pos.c ****         child->coords.y2 += y_diff;
 763:Middlewares/lvgl/src/core/lv_obj_pos.c **** 
 764:Middlewares/lvgl/src/core/lv_obj_pos.c ****         lv_obj_move_children_by(child, x_diff, y_diff, false);
 765:Middlewares/lvgl/src/core/lv_obj_pos.c ****     }
 766:Middlewares/lvgl/src/core/lv_obj_pos.c **** }
 767:Middlewares/lvgl/src/core/lv_obj_pos.c **** 
 768:Middlewares/lvgl/src/core/lv_obj_pos.c **** 
 769:Middlewares/lvgl/src/core/lv_obj_pos.c **** void lv_obj_invalidate_area(const lv_obj_t * obj, const lv_area_t * area)
 770:Middlewares/lvgl/src/core/lv_obj_pos.c **** {
 771:Middlewares/lvgl/src/core/lv_obj_pos.c ****     LV_ASSERT_OBJ(obj, MY_CLASS);
ARM GAS  /tmp/ccgCqJqT.s 			page 49


 772:Middlewares/lvgl/src/core/lv_obj_pos.c **** 
 773:Middlewares/lvgl/src/core/lv_obj_pos.c ****     lv_area_t area_tmp;
 774:Middlewares/lvgl/src/core/lv_obj_pos.c ****     lv_area_copy(&area_tmp, area);
 775:Middlewares/lvgl/src/core/lv_obj_pos.c ****     bool visible = lv_obj_area_is_visible(obj, &area_tmp);
 776:Middlewares/lvgl/src/core/lv_obj_pos.c **** 
 777:Middlewares/lvgl/src/core/lv_obj_pos.c ****     if(visible) _lv_inv_area(lv_obj_get_disp(obj), &area_tmp);
 778:Middlewares/lvgl/src/core/lv_obj_pos.c **** }
 779:Middlewares/lvgl/src/core/lv_obj_pos.c **** 
 780:Middlewares/lvgl/src/core/lv_obj_pos.c **** void lv_obj_invalidate(const lv_obj_t * obj)
 781:Middlewares/lvgl/src/core/lv_obj_pos.c **** {
 782:Middlewares/lvgl/src/core/lv_obj_pos.c ****     LV_ASSERT_OBJ(obj, MY_CLASS);
 783:Middlewares/lvgl/src/core/lv_obj_pos.c **** 
 784:Middlewares/lvgl/src/core/lv_obj_pos.c ****     /*Truncate the area to the object*/
 785:Middlewares/lvgl/src/core/lv_obj_pos.c ****     lv_area_t obj_coords;
 786:Middlewares/lvgl/src/core/lv_obj_pos.c ****     lv_coord_t ext_size = _lv_obj_get_ext_draw_size(obj);
 787:Middlewares/lvgl/src/core/lv_obj_pos.c ****     lv_area_copy(&obj_coords, &obj->coords);
 788:Middlewares/lvgl/src/core/lv_obj_pos.c ****     obj_coords.x1 -= ext_size;
 789:Middlewares/lvgl/src/core/lv_obj_pos.c ****     obj_coords.y1 -= ext_size;
 790:Middlewares/lvgl/src/core/lv_obj_pos.c ****     obj_coords.x2 += ext_size;
 791:Middlewares/lvgl/src/core/lv_obj_pos.c ****     obj_coords.y2 += ext_size;
 792:Middlewares/lvgl/src/core/lv_obj_pos.c **** 
 793:Middlewares/lvgl/src/core/lv_obj_pos.c ****     lv_obj_invalidate_area(obj, &obj_coords);
 794:Middlewares/lvgl/src/core/lv_obj_pos.c **** 
 795:Middlewares/lvgl/src/core/lv_obj_pos.c **** }
 796:Middlewares/lvgl/src/core/lv_obj_pos.c **** 
 797:Middlewares/lvgl/src/core/lv_obj_pos.c **** bool lv_obj_area_is_visible(const lv_obj_t * obj, lv_area_t * area)
 798:Middlewares/lvgl/src/core/lv_obj_pos.c **** {
 799:Middlewares/lvgl/src/core/lv_obj_pos.c ****     if(lv_obj_has_flag(obj, LV_OBJ_FLAG_HIDDEN)) return false;
 800:Middlewares/lvgl/src/core/lv_obj_pos.c **** 
 801:Middlewares/lvgl/src/core/lv_obj_pos.c ****     /*Invalidate the object only if it belongs to the current or previous'*/
 802:Middlewares/lvgl/src/core/lv_obj_pos.c ****     lv_obj_t * obj_scr = lv_obj_get_screen(obj);
 803:Middlewares/lvgl/src/core/lv_obj_pos.c ****     lv_disp_t * disp   = lv_obj_get_disp(obj_scr);
 804:Middlewares/lvgl/src/core/lv_obj_pos.c ****     if(obj_scr != lv_disp_get_scr_act(disp) &&
 805:Middlewares/lvgl/src/core/lv_obj_pos.c ****        obj_scr != lv_disp_get_scr_prev(disp) &&
 806:Middlewares/lvgl/src/core/lv_obj_pos.c ****        obj_scr != lv_disp_get_layer_top(disp) &&
 807:Middlewares/lvgl/src/core/lv_obj_pos.c ****        obj_scr != lv_disp_get_layer_sys(disp))
 808:Middlewares/lvgl/src/core/lv_obj_pos.c ****     {
 809:Middlewares/lvgl/src/core/lv_obj_pos.c ****         return false;
 810:Middlewares/lvgl/src/core/lv_obj_pos.c ****     }
 811:Middlewares/lvgl/src/core/lv_obj_pos.c **** 
 812:Middlewares/lvgl/src/core/lv_obj_pos.c ****     /*Truncate the area to the object*/
 813:Middlewares/lvgl/src/core/lv_obj_pos.c ****     lv_area_t obj_coords;
 814:Middlewares/lvgl/src/core/lv_obj_pos.c ****     lv_coord_t ext_size = _lv_obj_get_ext_draw_size(obj);
 815:Middlewares/lvgl/src/core/lv_obj_pos.c ****     lv_area_copy(&obj_coords, &obj->coords);
 816:Middlewares/lvgl/src/core/lv_obj_pos.c ****     obj_coords.x1 -= ext_size;
 817:Middlewares/lvgl/src/core/lv_obj_pos.c ****     obj_coords.y1 -= ext_size;
 818:Middlewares/lvgl/src/core/lv_obj_pos.c ****     obj_coords.x2 += ext_size;
 819:Middlewares/lvgl/src/core/lv_obj_pos.c ****     obj_coords.y2 += ext_size;
 820:Middlewares/lvgl/src/core/lv_obj_pos.c **** 
 821:Middlewares/lvgl/src/core/lv_obj_pos.c ****     bool is_common;
 822:Middlewares/lvgl/src/core/lv_obj_pos.c **** 
 823:Middlewares/lvgl/src/core/lv_obj_pos.c ****     is_common = _lv_area_intersect(area, area, &obj_coords);
 824:Middlewares/lvgl/src/core/lv_obj_pos.c ****     if(is_common == false) return false;  /*The area is not on the object*/
 825:Middlewares/lvgl/src/core/lv_obj_pos.c **** 
 826:Middlewares/lvgl/src/core/lv_obj_pos.c ****     /*Truncate recursively to the parents*/
 827:Middlewares/lvgl/src/core/lv_obj_pos.c ****     lv_obj_t * par = lv_obj_get_parent(obj);
 828:Middlewares/lvgl/src/core/lv_obj_pos.c ****     while(par != NULL) {
ARM GAS  /tmp/ccgCqJqT.s 			page 50


 829:Middlewares/lvgl/src/core/lv_obj_pos.c ****         is_common = _lv_area_intersect(area, area, &par->coords);
 830:Middlewares/lvgl/src/core/lv_obj_pos.c ****         if(is_common == false) return false;       /*If no common parts with parent break;*/
 831:Middlewares/lvgl/src/core/lv_obj_pos.c ****         if(lv_obj_has_flag(par, LV_OBJ_FLAG_HIDDEN)) return false; /*If the parent is hidden then t
 832:Middlewares/lvgl/src/core/lv_obj_pos.c **** 
 833:Middlewares/lvgl/src/core/lv_obj_pos.c ****         par = lv_obj_get_parent(par);
 834:Middlewares/lvgl/src/core/lv_obj_pos.c ****     }
 835:Middlewares/lvgl/src/core/lv_obj_pos.c **** 
 836:Middlewares/lvgl/src/core/lv_obj_pos.c ****     return true;
 837:Middlewares/lvgl/src/core/lv_obj_pos.c **** }
 838:Middlewares/lvgl/src/core/lv_obj_pos.c **** 
 839:Middlewares/lvgl/src/core/lv_obj_pos.c **** bool lv_obj_is_visible(const lv_obj_t * obj)
 840:Middlewares/lvgl/src/core/lv_obj_pos.c **** {
 841:Middlewares/lvgl/src/core/lv_obj_pos.c ****     LV_ASSERT_OBJ(obj, MY_CLASS);
 842:Middlewares/lvgl/src/core/lv_obj_pos.c **** 
 843:Middlewares/lvgl/src/core/lv_obj_pos.c ****     lv_area_t obj_coords;
 844:Middlewares/lvgl/src/core/lv_obj_pos.c ****     lv_coord_t ext_size = _lv_obj_get_ext_draw_size(obj);
 845:Middlewares/lvgl/src/core/lv_obj_pos.c ****     lv_area_copy(&obj_coords, &obj->coords);
 846:Middlewares/lvgl/src/core/lv_obj_pos.c ****     obj_coords.x1 -= ext_size;
 847:Middlewares/lvgl/src/core/lv_obj_pos.c ****     obj_coords.y1 -= ext_size;
 848:Middlewares/lvgl/src/core/lv_obj_pos.c ****     obj_coords.x2 += ext_size;
 849:Middlewares/lvgl/src/core/lv_obj_pos.c ****     obj_coords.y2 += ext_size;
 850:Middlewares/lvgl/src/core/lv_obj_pos.c **** 
 851:Middlewares/lvgl/src/core/lv_obj_pos.c ****     return lv_obj_area_is_visible(obj, &obj_coords);
 852:Middlewares/lvgl/src/core/lv_obj_pos.c **** 
 853:Middlewares/lvgl/src/core/lv_obj_pos.c **** }
 854:Middlewares/lvgl/src/core/lv_obj_pos.c **** 
 855:Middlewares/lvgl/src/core/lv_obj_pos.c **** void lv_obj_set_ext_click_area(lv_obj_t * obj, lv_coord_t size)
 856:Middlewares/lvgl/src/core/lv_obj_pos.c **** {
 857:Middlewares/lvgl/src/core/lv_obj_pos.c ****     LV_ASSERT_OBJ(obj, MY_CLASS);
 858:Middlewares/lvgl/src/core/lv_obj_pos.c **** 
 859:Middlewares/lvgl/src/core/lv_obj_pos.c ****     lv_obj_allocate_spec_attr(obj);
 860:Middlewares/lvgl/src/core/lv_obj_pos.c ****     obj->spec_attr->ext_click_pad = size;
 861:Middlewares/lvgl/src/core/lv_obj_pos.c **** }
 862:Middlewares/lvgl/src/core/lv_obj_pos.c **** 
 863:Middlewares/lvgl/src/core/lv_obj_pos.c **** void lv_obj_get_click_area(const lv_obj_t * obj, lv_area_t * area)
 864:Middlewares/lvgl/src/core/lv_obj_pos.c **** {
 865:Middlewares/lvgl/src/core/lv_obj_pos.c ****     lv_area_copy(area, &obj->coords);
 866:Middlewares/lvgl/src/core/lv_obj_pos.c ****     if(obj->spec_attr) {
 867:Middlewares/lvgl/src/core/lv_obj_pos.c ****         area->x1 -= obj->spec_attr->ext_click_pad;
 868:Middlewares/lvgl/src/core/lv_obj_pos.c ****         area->x2 += obj->spec_attr->ext_click_pad;
 869:Middlewares/lvgl/src/core/lv_obj_pos.c ****         area->y1 -= obj->spec_attr->ext_click_pad;
 870:Middlewares/lvgl/src/core/lv_obj_pos.c ****         area->y2 += obj->spec_attr->ext_click_pad;
 871:Middlewares/lvgl/src/core/lv_obj_pos.c ****     }
 872:Middlewares/lvgl/src/core/lv_obj_pos.c **** }
 873:Middlewares/lvgl/src/core/lv_obj_pos.c **** 
 874:Middlewares/lvgl/src/core/lv_obj_pos.c **** bool lv_obj_hit_test(lv_obj_t * obj, const lv_point_t * point)
 875:Middlewares/lvgl/src/core/lv_obj_pos.c **** {
 876:Middlewares/lvgl/src/core/lv_obj_pos.c ****     lv_area_t a;
 877:Middlewares/lvgl/src/core/lv_obj_pos.c ****     lv_obj_get_click_area(obj, &a);
 878:Middlewares/lvgl/src/core/lv_obj_pos.c ****     bool res = _lv_area_is_point_on(&a, point, 0);
 879:Middlewares/lvgl/src/core/lv_obj_pos.c ****     if(res == false) return false;
 880:Middlewares/lvgl/src/core/lv_obj_pos.c **** 
 881:Middlewares/lvgl/src/core/lv_obj_pos.c ****     if(lv_obj_has_flag(obj, LV_OBJ_FLAG_ADV_HITTEST)) {
 882:Middlewares/lvgl/src/core/lv_obj_pos.c ****         lv_hit_test_info_t hit_info;
 883:Middlewares/lvgl/src/core/lv_obj_pos.c ****         hit_info.point = point;
 884:Middlewares/lvgl/src/core/lv_obj_pos.c ****         hit_info.res = true;
 885:Middlewares/lvgl/src/core/lv_obj_pos.c ****         lv_event_send(obj, LV_EVENT_HIT_TEST, &hit_info);
ARM GAS  /tmp/ccgCqJqT.s 			page 51


 886:Middlewares/lvgl/src/core/lv_obj_pos.c ****         return hit_info.res;
 887:Middlewares/lvgl/src/core/lv_obj_pos.c ****     }
 888:Middlewares/lvgl/src/core/lv_obj_pos.c **** 
 889:Middlewares/lvgl/src/core/lv_obj_pos.c ****     return res;
 890:Middlewares/lvgl/src/core/lv_obj_pos.c **** }
 891:Middlewares/lvgl/src/core/lv_obj_pos.c **** 
 892:Middlewares/lvgl/src/core/lv_obj_pos.c **** lv_coord_t lv_clamp_width(lv_coord_t width, lv_coord_t min_width, lv_coord_t max_width, lv_coord_t 
 893:Middlewares/lvgl/src/core/lv_obj_pos.c **** {
 894:Middlewares/lvgl/src/core/lv_obj_pos.c ****     if(LV_COORD_IS_PCT(min_width)) min_width = (ref_width * LV_COORD_GET_PCT(min_width)) / 100;
 895:Middlewares/lvgl/src/core/lv_obj_pos.c ****     if(LV_COORD_IS_PCT(max_width)) max_width = (ref_width * LV_COORD_GET_PCT(max_width)) / 100;
 896:Middlewares/lvgl/src/core/lv_obj_pos.c ****     return LV_CLAMP(min_width, width, max_width);
 897:Middlewares/lvgl/src/core/lv_obj_pos.c **** }
 898:Middlewares/lvgl/src/core/lv_obj_pos.c **** 
 899:Middlewares/lvgl/src/core/lv_obj_pos.c **** lv_coord_t lv_clamp_height(lv_coord_t height, lv_coord_t min_height, lv_coord_t max_height, lv_coor
 900:Middlewares/lvgl/src/core/lv_obj_pos.c **** {
 901:Middlewares/lvgl/src/core/lv_obj_pos.c ****     if(LV_COORD_IS_PCT(min_height)) min_height = (ref_height * LV_COORD_GET_PCT(min_height)) / 100;
 902:Middlewares/lvgl/src/core/lv_obj_pos.c ****     if(LV_COORD_IS_PCT(max_height)) max_height = (ref_height * LV_COORD_GET_PCT(max_height)) / 100;
 903:Middlewares/lvgl/src/core/lv_obj_pos.c ****     return LV_CLAMP(min_height, height, max_height);
 904:Middlewares/lvgl/src/core/lv_obj_pos.c **** }
 905:Middlewares/lvgl/src/core/lv_obj_pos.c **** 
 906:Middlewares/lvgl/src/core/lv_obj_pos.c **** 
 907:Middlewares/lvgl/src/core/lv_obj_pos.c **** 
 908:Middlewares/lvgl/src/core/lv_obj_pos.c **** /**********************
 909:Middlewares/lvgl/src/core/lv_obj_pos.c ****  *   STATIC FUNCTIONS
 910:Middlewares/lvgl/src/core/lv_obj_pos.c ****  **********************/
 911:Middlewares/lvgl/src/core/lv_obj_pos.c **** 
 912:Middlewares/lvgl/src/core/lv_obj_pos.c **** /**
 913:Middlewares/lvgl/src/core/lv_obj_pos.c ****  * Calculate the "auto size". It's `auto_size = max(children_size, self_size)`
 914:Middlewares/lvgl/src/core/lv_obj_pos.c ****  * @param obj pointer to an object
 915:Middlewares/lvgl/src/core/lv_obj_pos.c ****  * @param w_out store the width here. NULL to not calculate width
 916:Middlewares/lvgl/src/core/lv_obj_pos.c ****  * @param h_out store the height here. NULL to not calculate height
 917:Middlewares/lvgl/src/core/lv_obj_pos.c ****  */
 918:Middlewares/lvgl/src/core/lv_obj_pos.c **** static void calc_auto_size(lv_obj_t * obj, lv_coord_t * w_out, lv_coord_t * h_out)
 919:Middlewares/lvgl/src/core/lv_obj_pos.c **** {
 1425              		.loc 1 919 1 is_stmt 1 view -0
 1426              		.cfi_startproc
 1427              		@ args = 0, pretend = 0, frame = 0
 1428              		@ frame_needed = 0, uses_anonymous_args = 0
 1429              		.loc 1 919 1 is_stmt 0 view .LVU380
 1430 0000 2DE9F041 		push	{r4, r5, r6, r7, r8, lr}
 1431              	.LCFI29:
 1432              		.cfi_def_cfa_offset 24
 1433              		.cfi_offset 4, -24
 1434              		.cfi_offset 5, -20
 1435              		.cfi_offset 6, -16
 1436              		.cfi_offset 7, -12
 1437              		.cfi_offset 8, -8
 1438              		.cfi_offset 14, -4
 1439 0004 0446     		mov	r4, r0
 1440 0006 1546     		mov	r5, r2
 920:Middlewares/lvgl/src/core/lv_obj_pos.c ****     if(!w_out && !h_out) return;
 1441              		.loc 1 920 5 is_stmt 1 view .LVU381
 1442              		.loc 1 920 7 is_stmt 0 view .LVU382
 1443 0008 0E46     		mov	r6, r1
 1444 000a 19B3     		cbz	r1, .L78
 1445              	.L74:
 921:Middlewares/lvgl/src/core/lv_obj_pos.c ****     /*Get the bounding box of the children*/
ARM GAS  /tmp/ccgCqJqT.s 			page 52


 922:Middlewares/lvgl/src/core/lv_obj_pos.c ****     if(w_out) {
 1446              		.loc 1 922 5 is_stmt 1 view .LVU383
 1447              		.loc 1 922 7 is_stmt 0 view .LVU384
 1448 000c 7EB1     		cbz	r6, .L76
 1449              	.LBB149:
 923:Middlewares/lvgl/src/core/lv_obj_pos.c ****         lv_coord_t scroll_right = lv_obj_get_scroll_right(obj);
 1450              		.loc 1 923 9 is_stmt 1 view .LVU385
 1451              		.loc 1 923 35 is_stmt 0 view .LVU386
 1452 000e 2046     		mov	r0, r4
 1453              	.LVL123:
 1454              		.loc 1 923 35 view .LVU387
 1455 0010 FFF7FEFF 		bl	lv_obj_get_scroll_right
 1456              	.LVL124:
 1457              		.loc 1 923 35 view .LVU388
 1458 0014 8046     		mov	r8, r0
 1459              	.LVL125:
 924:Middlewares/lvgl/src/core/lv_obj_pos.c ****         lv_coord_t scroll_left = lv_obj_get_scroll_left(obj);
 1460              		.loc 1 924 9 is_stmt 1 view .LVU389
 1461              		.loc 1 924 34 is_stmt 0 view .LVU390
 1462 0016 2046     		mov	r0, r4
 1463 0018 FFF7FEFF 		bl	lv_obj_get_scroll_left
 1464              	.LVL126:
 1465 001c 0746     		mov	r7, r0
 1466              	.LVL127:
 925:Middlewares/lvgl/src/core/lv_obj_pos.c ****         *w_out = lv_obj_get_width(obj) + scroll_right + scroll_left;
 1467              		.loc 1 925 9 is_stmt 1 view .LVU391
 1468              		.loc 1 925 18 is_stmt 0 view .LVU392
 1469 001e 2046     		mov	r0, r4
 1470 0020 FFF7FEFF 		bl	lv_obj_get_width
 1471              	.LVL128:
 1472 0024 83B2     		uxth	r3, r0
 1473              		.loc 1 925 40 view .LVU393
 1474 0026 4344     		add	r3, r3, r8
 1475 0028 9BB2     		uxth	r3, r3
 1476              		.loc 1 925 55 view .LVU394
 1477 002a D819     		adds	r0, r3, r7
 1478              		.loc 1 925 16 view .LVU395
 1479 002c 3080     		strh	r0, [r6]	@ movhi
 1480              	.LVL129:
 1481              	.L76:
 1482              		.loc 1 925 16 view .LVU396
 1483              	.LBE149:
 926:Middlewares/lvgl/src/core/lv_obj_pos.c ****     }
 927:Middlewares/lvgl/src/core/lv_obj_pos.c **** 
 928:Middlewares/lvgl/src/core/lv_obj_pos.c ****     if(h_out) {
 1484              		.loc 1 928 5 is_stmt 1 view .LVU397
 1485              		.loc 1 928 7 is_stmt 0 view .LVU398
 1486 002e 7DB1     		cbz	r5, .L73
 1487              	.LBB150:
 929:Middlewares/lvgl/src/core/lv_obj_pos.c ****         lv_coord_t scroll_bottom = lv_obj_get_scroll_bottom(obj);
 1488              		.loc 1 929 9 is_stmt 1 view .LVU399
 1489              		.loc 1 929 36 is_stmt 0 view .LVU400
 1490 0030 2046     		mov	r0, r4
 1491 0032 FFF7FEFF 		bl	lv_obj_get_scroll_bottom
 1492              	.LVL130:
 1493 0036 0746     		mov	r7, r0
 1494              	.LVL131:
ARM GAS  /tmp/ccgCqJqT.s 			page 53


 930:Middlewares/lvgl/src/core/lv_obj_pos.c ****         lv_coord_t scroll_top = lv_obj_get_scroll_top(obj);
 1495              		.loc 1 930 9 is_stmt 1 view .LVU401
 1496              		.loc 1 930 33 is_stmt 0 view .LVU402
 1497 0038 2046     		mov	r0, r4
 1498 003a FFF7FEFF 		bl	lv_obj_get_scroll_top
 1499              	.LVL132:
 1500 003e 0646     		mov	r6, r0
 1501              	.LVL133:
 931:Middlewares/lvgl/src/core/lv_obj_pos.c ****         *h_out = lv_obj_get_height(obj) + scroll_bottom + scroll_top;
 1502              		.loc 1 931 9 is_stmt 1 view .LVU403
 1503              		.loc 1 931 18 is_stmt 0 view .LVU404
 1504 0040 2046     		mov	r0, r4
 1505 0042 FFF7FEFF 		bl	lv_obj_get_height
 1506              	.LVL134:
 1507 0046 83B2     		uxth	r3, r0
 1508              		.loc 1 931 41 view .LVU405
 1509 0048 3B44     		add	r3, r3, r7
 1510 004a 9BB2     		uxth	r3, r3
 1511              		.loc 1 931 57 view .LVU406
 1512 004c 9819     		adds	r0, r3, r6
 1513              		.loc 1 931 16 view .LVU407
 1514 004e 2880     		strh	r0, [r5]	@ movhi
 1515              	.LVL135:
 1516              	.L73:
 1517              		.loc 1 931 16 view .LVU408
 1518              	.LBE150:
 932:Middlewares/lvgl/src/core/lv_obj_pos.c ****     }
 933:Middlewares/lvgl/src/core/lv_obj_pos.c **** }
 1519              		.loc 1 933 1 view .LVU409
 1520 0050 BDE8F081 		pop	{r4, r5, r6, r7, r8, pc}
 1521              	.LVL136:
 1522              	.L78:
 920:Middlewares/lvgl/src/core/lv_obj_pos.c ****     /*Get the bounding box of the children*/
 1523              		.loc 1 920 15 discriminator 1 view .LVU410
 1524 0054 002A     		cmp	r2, #0
 1525 0056 D9D1     		bne	.L74
 1526 0058 FAE7     		b	.L73
 1527              		.cfi_endproc
 1528              	.LFE195:
 1530              		.section	.text.lv_obj_get_y2,"ax",%progbits
 1531              		.align	1
 1532              		.global	lv_obj_get_y2
 1533              		.syntax unified
 1534              		.thumb
 1535              		.thumb_func
 1536              		.fpu softvfp
 1538              	lv_obj_get_y2:
 1539              	.LVL137:
 1540              	.LFB174:
 521:Middlewares/lvgl/src/core/lv_obj_pos.c ****     LV_ASSERT_OBJ(obj, MY_CLASS);
 1541              		.loc 1 521 1 is_stmt 1 view -0
 1542              		.cfi_startproc
 1543              		@ args = 0, pretend = 0, frame = 0
 1544              		@ frame_needed = 0, uses_anonymous_args = 0
 521:Middlewares/lvgl/src/core/lv_obj_pos.c ****     LV_ASSERT_OBJ(obj, MY_CLASS);
 1545              		.loc 1 521 1 is_stmt 0 view .LVU412
 1546 0000 38B5     		push	{r3, r4, r5, lr}
ARM GAS  /tmp/ccgCqJqT.s 			page 54


 1547              	.LCFI30:
 1548              		.cfi_def_cfa_offset 16
 1549              		.cfi_offset 3, -16
 1550              		.cfi_offset 4, -12
 1551              		.cfi_offset 5, -8
 1552              		.cfi_offset 14, -4
 1553 0002 0546     		mov	r5, r0
 522:Middlewares/lvgl/src/core/lv_obj_pos.c **** 
 1554              		.loc 1 522 5 is_stmt 1 view .LVU413
 522:Middlewares/lvgl/src/core/lv_obj_pos.c **** 
 1555              		.loc 1 522 5 view .LVU414
 522:Middlewares/lvgl/src/core/lv_obj_pos.c **** 
 1556              		.loc 1 522 5 view .LVU415
 524:Middlewares/lvgl/src/core/lv_obj_pos.c **** }
 1557              		.loc 1 524 5 view .LVU416
 524:Middlewares/lvgl/src/core/lv_obj_pos.c **** }
 1558              		.loc 1 524 12 is_stmt 0 view .LVU417
 1559 0004 FFF7FEFF 		bl	lv_obj_get_y
 1560              	.LVL138:
 524:Middlewares/lvgl/src/core/lv_obj_pos.c **** }
 1561              		.loc 1 524 12 view .LVU418
 1562 0008 84B2     		uxth	r4, r0
 524:Middlewares/lvgl/src/core/lv_obj_pos.c **** }
 1563              		.loc 1 524 32 view .LVU419
 1564 000a 2846     		mov	r0, r5
 1565 000c FFF7FEFF 		bl	lv_obj_get_height
 1566              	.LVL139:
 1567 0010 80B2     		uxth	r0, r0
 524:Middlewares/lvgl/src/core/lv_obj_pos.c **** }
 1568              		.loc 1 524 30 view .LVU420
 1569 0012 2044     		add	r0, r0, r4
 525:Middlewares/lvgl/src/core/lv_obj_pos.c **** 
 1570              		.loc 1 525 1 view .LVU421
 1571 0014 00B2     		sxth	r0, r0
 1572 0016 38BD     		pop	{r3, r4, r5, pc}
 525:Middlewares/lvgl/src/core/lv_obj_pos.c **** 
 1573              		.loc 1 525 1 view .LVU422
 1574              		.cfi_endproc
 1575              	.LFE174:
 1577              		.section	.text.lv_obj_get_content_width,"ax",%progbits
 1578              		.align	1
 1579              		.global	lv_obj_get_content_width
 1580              		.syntax unified
 1581              		.thumb
 1582              		.thumb_func
 1583              		.fpu softvfp
 1585              	lv_obj_get_content_width:
 1586              	.LVL140:
 1587              	.LFB177:
 542:Middlewares/lvgl/src/core/lv_obj_pos.c ****     LV_ASSERT_OBJ(obj, MY_CLASS);
 1588              		.loc 1 542 1 is_stmt 1 view -0
 1589              		.cfi_startproc
 1590              		@ args = 0, pretend = 0, frame = 0
 1591              		@ frame_needed = 0, uses_anonymous_args = 0
 542:Middlewares/lvgl/src/core/lv_obj_pos.c ****     LV_ASSERT_OBJ(obj, MY_CLASS);
 1592              		.loc 1 542 1 is_stmt 0 view .LVU424
 1593 0000 F8B5     		push	{r3, r4, r5, r6, r7, lr}
ARM GAS  /tmp/ccgCqJqT.s 			page 55


 1594              	.LCFI31:
 1595              		.cfi_def_cfa_offset 24
 1596              		.cfi_offset 3, -24
 1597              		.cfi_offset 4, -20
 1598              		.cfi_offset 5, -16
 1599              		.cfi_offset 6, -12
 1600              		.cfi_offset 7, -8
 1601              		.cfi_offset 14, -4
 1602 0002 0546     		mov	r5, r0
 543:Middlewares/lvgl/src/core/lv_obj_pos.c **** 
 1603              		.loc 1 543 5 is_stmt 1 view .LVU425
 543:Middlewares/lvgl/src/core/lv_obj_pos.c **** 
 1604              		.loc 1 543 5 view .LVU426
 543:Middlewares/lvgl/src/core/lv_obj_pos.c **** 
 1605              		.loc 1 543 5 view .LVU427
 545:Middlewares/lvgl/src/core/lv_obj_pos.c ****     lv_coord_t right = lv_obj_get_style_pad_right(obj, LV_PART_MAIN);
 1606              		.loc 1 545 5 view .LVU428
 1607              	.LVL141:
 1608              	.LBB151:
 1609              	.LBI151:
 103:Middlewares/lvgl/src/core/lv_obj_style_gen.h **** {
 1610              		.loc 2 103 26 view .LVU429
 1611              	.LBB152:
 105:Middlewares/lvgl/src/core/lv_obj_style_gen.h ****     return (lv_coord_t)v.num;
 1612              		.loc 2 105 5 view .LVU430
 105:Middlewares/lvgl/src/core/lv_obj_style_gen.h ****     return (lv_coord_t)v.num;
 1613              		.loc 2 105 26 is_stmt 0 view .LVU431
 1614 0004 41F21202 		movw	r2, #4114
 1615 0008 0021     		movs	r1, #0
 1616 000a FFF7FEFF 		bl	lv_obj_get_style_prop
 1617              	.LVL142:
 105:Middlewares/lvgl/src/core/lv_obj_style_gen.h ****     return (lv_coord_t)v.num;
 1618              		.loc 2 105 26 view .LVU432
 1619 000e 0746     		mov	r7, r0
 1620              	.LVL143:
 106:Middlewares/lvgl/src/core/lv_obj_style_gen.h **** }
 1621              		.loc 2 106 5 is_stmt 1 view .LVU433
 106:Middlewares/lvgl/src/core/lv_obj_style_gen.h **** }
 1622              		.loc 2 106 5 is_stmt 0 view .LVU434
 1623              	.LBE152:
 1624              	.LBE151:
 546:Middlewares/lvgl/src/core/lv_obj_pos.c ****     lv_coord_t border_width = lv_obj_get_style_border_width(obj, LV_PART_MAIN);
 1625              		.loc 1 546 5 is_stmt 1 view .LVU435
 1626              	.LBB153:
 1627              	.LBI153:
 109:Middlewares/lvgl/src/core/lv_obj_style_gen.h **** {
 1628              		.loc 2 109 26 view .LVU436
 1629              	.LBB154:
 111:Middlewares/lvgl/src/core/lv_obj_style_gen.h ****     return (lv_coord_t)v.num;
 1630              		.loc 2 111 5 view .LVU437
 111:Middlewares/lvgl/src/core/lv_obj_style_gen.h ****     return (lv_coord_t)v.num;
 1631              		.loc 2 111 26 is_stmt 0 view .LVU438
 1632 0010 41F21302 		movw	r2, #4115
 1633 0014 0021     		movs	r1, #0
 1634 0016 2846     		mov	r0, r5
 1635 0018 FFF7FEFF 		bl	lv_obj_get_style_prop
 1636              	.LVL144:
ARM GAS  /tmp/ccgCqJqT.s 			page 56


 1637 001c 0646     		mov	r6, r0
 1638              	.LVL145:
 112:Middlewares/lvgl/src/core/lv_obj_style_gen.h **** }
 1639              		.loc 2 112 5 is_stmt 1 view .LVU439
 112:Middlewares/lvgl/src/core/lv_obj_style_gen.h **** }
 1640              		.loc 2 112 5 is_stmt 0 view .LVU440
 1641              	.LBE154:
 1642              	.LBE153:
 547:Middlewares/lvgl/src/core/lv_obj_pos.c **** 
 1643              		.loc 1 547 5 is_stmt 1 view .LVU441
 1644              	.LBB155:
 1645              	.LBI155:
 295:Middlewares/lvgl/src/core/lv_obj_style_gen.h **** {
 1646              		.loc 2 295 26 view .LVU442
 1647              	.LBB156:
 297:Middlewares/lvgl/src/core/lv_obj_style_gen.h ****     return (lv_coord_t)v.num;
 1648              		.loc 2 297 5 view .LVU443
 297:Middlewares/lvgl/src/core/lv_obj_style_gen.h ****     return (lv_coord_t)v.num;
 1649              		.loc 2 297 26 is_stmt 0 view .LVU444
 1650 001e 41F23202 		movw	r2, #4146
 1651 0022 0021     		movs	r1, #0
 1652 0024 2846     		mov	r0, r5
 1653 0026 FFF7FEFF 		bl	lv_obj_get_style_prop
 1654              	.LVL146:
 1655 002a 0446     		mov	r4, r0
 1656              	.LVL147:
 1657              		.loc 2 298 5 is_stmt 1 view .LVU445
 1658              		.loc 2 298 5 is_stmt 0 view .LVU446
 1659              	.LBE156:
 1660              	.LBE155:
 549:Middlewares/lvgl/src/core/lv_obj_pos.c **** }
 1661              		.loc 1 549 5 is_stmt 1 view .LVU447
 549:Middlewares/lvgl/src/core/lv_obj_pos.c **** }
 1662              		.loc 1 549 12 is_stmt 0 view .LVU448
 1663 002c 2846     		mov	r0, r5
 1664 002e FFF7FEFF 		bl	lv_obj_get_width
 1665              	.LVL148:
 1666 0032 83B2     		uxth	r3, r0
 549:Middlewares/lvgl/src/core/lv_obj_pos.c **** }
 1667              		.loc 1 549 34 view .LVU449
 1668 0034 DB1B     		subs	r3, r3, r7
 1669 0036 9BB2     		uxth	r3, r3
 549:Middlewares/lvgl/src/core/lv_obj_pos.c **** }
 1670              		.loc 1 549 41 view .LVU450
 1671 0038 9B1B     		subs	r3, r3, r6
 1672 003a 9BB2     		uxth	r3, r3
 549:Middlewares/lvgl/src/core/lv_obj_pos.c **** }
 1673              		.loc 1 549 53 view .LVU451
 1674 003c 6000     		lsls	r0, r4, #1
 1675 003e 80B2     		uxth	r0, r0
 549:Middlewares/lvgl/src/core/lv_obj_pos.c **** }
 1676              		.loc 1 549 49 view .LVU452
 1677 0040 181A     		subs	r0, r3, r0
 550:Middlewares/lvgl/src/core/lv_obj_pos.c **** 
 1678              		.loc 1 550 1 view .LVU453
 1679 0042 00B2     		sxth	r0, r0
 1680 0044 F8BD     		pop	{r3, r4, r5, r6, r7, pc}
ARM GAS  /tmp/ccgCqJqT.s 			page 57


 550:Middlewares/lvgl/src/core/lv_obj_pos.c **** 
 1681              		.loc 1 550 1 view .LVU454
 1682              		.cfi_endproc
 1683              	.LFE177:
 1685              		.section	.text.lv_obj_get_content_height,"ax",%progbits
 1686              		.align	1
 1687              		.global	lv_obj_get_content_height
 1688              		.syntax unified
 1689              		.thumb
 1690              		.thumb_func
 1691              		.fpu softvfp
 1693              	lv_obj_get_content_height:
 1694              	.LVL149:
 1695              	.LFB178:
 553:Middlewares/lvgl/src/core/lv_obj_pos.c ****     LV_ASSERT_OBJ(obj, MY_CLASS);
 1696              		.loc 1 553 1 is_stmt 1 view -0
 1697              		.cfi_startproc
 1698              		@ args = 0, pretend = 0, frame = 0
 1699              		@ frame_needed = 0, uses_anonymous_args = 0
 553:Middlewares/lvgl/src/core/lv_obj_pos.c ****     LV_ASSERT_OBJ(obj, MY_CLASS);
 1700              		.loc 1 553 1 is_stmt 0 view .LVU456
 1701 0000 F8B5     		push	{r3, r4, r5, r6, r7, lr}
 1702              	.LCFI32:
 1703              		.cfi_def_cfa_offset 24
 1704              		.cfi_offset 3, -24
 1705              		.cfi_offset 4, -20
 1706              		.cfi_offset 5, -16
 1707              		.cfi_offset 6, -12
 1708              		.cfi_offset 7, -8
 1709              		.cfi_offset 14, -4
 1710 0002 0546     		mov	r5, r0
 554:Middlewares/lvgl/src/core/lv_obj_pos.c **** 
 1711              		.loc 1 554 5 is_stmt 1 view .LVU457
 554:Middlewares/lvgl/src/core/lv_obj_pos.c **** 
 1712              		.loc 1 554 5 view .LVU458
 554:Middlewares/lvgl/src/core/lv_obj_pos.c **** 
 1713              		.loc 1 554 5 view .LVU459
 556:Middlewares/lvgl/src/core/lv_obj_pos.c ****     lv_coord_t bottom =  lv_obj_get_style_pad_bottom(obj, LV_PART_MAIN);
 1714              		.loc 1 556 5 view .LVU460
 1715              	.LVL150:
 1716              	.LBB157:
 1717              	.LBI157:
  91:Middlewares/lvgl/src/core/lv_obj_style_gen.h **** {
 1718              		.loc 2 91 26 view .LVU461
 1719              	.LBB158:
  93:Middlewares/lvgl/src/core/lv_obj_style_gen.h ****     return (lv_coord_t)v.num;
 1720              		.loc 2 93 5 view .LVU462
  93:Middlewares/lvgl/src/core/lv_obj_style_gen.h ****     return (lv_coord_t)v.num;
 1721              		.loc 2 93 26 is_stmt 0 view .LVU463
 1722 0004 41F21002 		movw	r2, #4112
 1723 0008 0021     		movs	r1, #0
 1724 000a FFF7FEFF 		bl	lv_obj_get_style_prop
 1725              	.LVL151:
  93:Middlewares/lvgl/src/core/lv_obj_style_gen.h ****     return (lv_coord_t)v.num;
 1726              		.loc 2 93 26 view .LVU464
 1727 000e 0746     		mov	r7, r0
 1728              	.LVL152:
ARM GAS  /tmp/ccgCqJqT.s 			page 58


  94:Middlewares/lvgl/src/core/lv_obj_style_gen.h **** }
 1729              		.loc 2 94 5 is_stmt 1 view .LVU465
  94:Middlewares/lvgl/src/core/lv_obj_style_gen.h **** }
 1730              		.loc 2 94 5 is_stmt 0 view .LVU466
 1731              	.LBE158:
 1732              	.LBE157:
 557:Middlewares/lvgl/src/core/lv_obj_pos.c ****     lv_coord_t border_width = lv_obj_get_style_border_width(obj, LV_PART_MAIN);
 1733              		.loc 1 557 5 is_stmt 1 view .LVU467
 1734              	.LBB159:
 1735              	.LBI159:
  97:Middlewares/lvgl/src/core/lv_obj_style_gen.h **** {
 1736              		.loc 2 97 26 view .LVU468
 1737              	.LBB160:
  99:Middlewares/lvgl/src/core/lv_obj_style_gen.h ****     return (lv_coord_t)v.num;
 1738              		.loc 2 99 5 view .LVU469
  99:Middlewares/lvgl/src/core/lv_obj_style_gen.h ****     return (lv_coord_t)v.num;
 1739              		.loc 2 99 26 is_stmt 0 view .LVU470
 1740 0010 41F21102 		movw	r2, #4113
 1741 0014 0021     		movs	r1, #0
 1742 0016 2846     		mov	r0, r5
 1743 0018 FFF7FEFF 		bl	lv_obj_get_style_prop
 1744              	.LVL153:
 1745 001c 0646     		mov	r6, r0
 1746              	.LVL154:
 100:Middlewares/lvgl/src/core/lv_obj_style_gen.h **** }
 1747              		.loc 2 100 5 is_stmt 1 view .LVU471
 100:Middlewares/lvgl/src/core/lv_obj_style_gen.h **** }
 1748              		.loc 2 100 5 is_stmt 0 view .LVU472
 1749              	.LBE160:
 1750              	.LBE159:
 558:Middlewares/lvgl/src/core/lv_obj_pos.c **** 
 1751              		.loc 1 558 5 is_stmt 1 view .LVU473
 1752              	.LBB161:
 1753              	.LBI161:
 295:Middlewares/lvgl/src/core/lv_obj_style_gen.h **** {
 1754              		.loc 2 295 26 view .LVU474
 1755              	.LBB162:
 297:Middlewares/lvgl/src/core/lv_obj_style_gen.h ****     return (lv_coord_t)v.num;
 1756              		.loc 2 297 5 view .LVU475
 297:Middlewares/lvgl/src/core/lv_obj_style_gen.h ****     return (lv_coord_t)v.num;
 1757              		.loc 2 297 26 is_stmt 0 view .LVU476
 1758 001e 41F23202 		movw	r2, #4146
 1759 0022 0021     		movs	r1, #0
 1760 0024 2846     		mov	r0, r5
 1761 0026 FFF7FEFF 		bl	lv_obj_get_style_prop
 1762              	.LVL155:
 1763 002a 0446     		mov	r4, r0
 1764              	.LVL156:
 1765              		.loc 2 298 5 is_stmt 1 view .LVU477
 1766              		.loc 2 298 5 is_stmt 0 view .LVU478
 1767              	.LBE162:
 1768              	.LBE161:
 560:Middlewares/lvgl/src/core/lv_obj_pos.c **** }
 1769              		.loc 1 560 5 is_stmt 1 view .LVU479
 560:Middlewares/lvgl/src/core/lv_obj_pos.c **** }
 1770              		.loc 1 560 12 is_stmt 0 view .LVU480
 1771 002c 2846     		mov	r0, r5
ARM GAS  /tmp/ccgCqJqT.s 			page 59


 1772 002e FFF7FEFF 		bl	lv_obj_get_height
 1773              	.LVL157:
 1774 0032 83B2     		uxth	r3, r0
 560:Middlewares/lvgl/src/core/lv_obj_pos.c **** }
 1775              		.loc 1 560 35 view .LVU481
 1776 0034 DB1B     		subs	r3, r3, r7
 1777 0036 9BB2     		uxth	r3, r3
 560:Middlewares/lvgl/src/core/lv_obj_pos.c **** }
 1778              		.loc 1 560 41 view .LVU482
 1779 0038 9B1B     		subs	r3, r3, r6
 1780 003a 9BB2     		uxth	r3, r3
 560:Middlewares/lvgl/src/core/lv_obj_pos.c **** }
 1781              		.loc 1 560 54 view .LVU483
 1782 003c 6000     		lsls	r0, r4, #1
 1783 003e 80B2     		uxth	r0, r0
 560:Middlewares/lvgl/src/core/lv_obj_pos.c **** }
 1784              		.loc 1 560 50 view .LVU484
 1785 0040 181A     		subs	r0, r3, r0
 561:Middlewares/lvgl/src/core/lv_obj_pos.c **** 
 1786              		.loc 1 561 1 view .LVU485
 1787 0042 00B2     		sxth	r0, r0
 1788 0044 F8BD     		pop	{r3, r4, r5, r6, r7, pc}
 561:Middlewares/lvgl/src/core/lv_obj_pos.c **** 
 1789              		.loc 1 561 1 view .LVU486
 1790              		.cfi_endproc
 1791              	.LFE178:
 1793              		.section	.text.lv_obj_get_content_coords,"ax",%progbits
 1794              		.align	1
 1795              		.global	lv_obj_get_content_coords
 1796              		.syntax unified
 1797              		.thumb
 1798              		.thumb_func
 1799              		.fpu softvfp
 1801              	lv_obj_get_content_coords:
 1802              	.LVL158:
 1803              	.LFB179:
 564:Middlewares/lvgl/src/core/lv_obj_pos.c ****     LV_ASSERT_OBJ(obj, MY_CLASS);
 1804              		.loc 1 564 1 is_stmt 1 view -0
 1805              		.cfi_startproc
 1806              		@ args = 0, pretend = 0, frame = 0
 1807              		@ frame_needed = 0, uses_anonymous_args = 0
 564:Middlewares/lvgl/src/core/lv_obj_pos.c ****     LV_ASSERT_OBJ(obj, MY_CLASS);
 1808              		.loc 1 564 1 is_stmt 0 view .LVU488
 1809 0000 70B5     		push	{r4, r5, r6, lr}
 1810              	.LCFI33:
 1811              		.cfi_def_cfa_offset 16
 1812              		.cfi_offset 4, -16
 1813              		.cfi_offset 5, -12
 1814              		.cfi_offset 6, -8
 1815              		.cfi_offset 14, -4
 1816 0002 0646     		mov	r6, r0
 1817 0004 0C46     		mov	r4, r1
 565:Middlewares/lvgl/src/core/lv_obj_pos.c ****     lv_coord_t border_width = lv_obj_get_style_border_width(obj, LV_PART_MAIN);
 1818              		.loc 1 565 5 is_stmt 1 view .LVU489
 565:Middlewares/lvgl/src/core/lv_obj_pos.c ****     lv_coord_t border_width = lv_obj_get_style_border_width(obj, LV_PART_MAIN);
 1819              		.loc 1 565 5 view .LVU490
 565:Middlewares/lvgl/src/core/lv_obj_pos.c ****     lv_coord_t border_width = lv_obj_get_style_border_width(obj, LV_PART_MAIN);
ARM GAS  /tmp/ccgCqJqT.s 			page 60


 1820              		.loc 1 565 5 view .LVU491
 566:Middlewares/lvgl/src/core/lv_obj_pos.c **** 
 1821              		.loc 1 566 5 view .LVU492
 1822              	.LVL159:
 1823              	.LBB163:
 1824              	.LBI163:
 295:Middlewares/lvgl/src/core/lv_obj_style_gen.h **** {
 1825              		.loc 2 295 26 view .LVU493
 1826              	.LBB164:
 297:Middlewares/lvgl/src/core/lv_obj_style_gen.h ****     return (lv_coord_t)v.num;
 1827              		.loc 2 297 5 view .LVU494
 297:Middlewares/lvgl/src/core/lv_obj_style_gen.h ****     return (lv_coord_t)v.num;
 1828              		.loc 2 297 26 is_stmt 0 view .LVU495
 1829 0006 41F23202 		movw	r2, #4146
 1830 000a 0021     		movs	r1, #0
 1831              	.LVL160:
 297:Middlewares/lvgl/src/core/lv_obj_style_gen.h ****     return (lv_coord_t)v.num;
 1832              		.loc 2 297 26 view .LVU496
 1833 000c FFF7FEFF 		bl	lv_obj_get_style_prop
 1834              	.LVL161:
 297:Middlewares/lvgl/src/core/lv_obj_style_gen.h ****     return (lv_coord_t)v.num;
 1835              		.loc 2 297 26 view .LVU497
 1836 0010 0546     		mov	r5, r0
 1837              	.LVL162:
 1838              		.loc 2 298 5 is_stmt 1 view .LVU498
 1839              		.loc 2 298 5 is_stmt 0 view .LVU499
 1840              	.LBE164:
 1841              	.LBE163:
 568:Middlewares/lvgl/src/core/lv_obj_pos.c ****     lv_area_increase(area, -border_width, -border_width);
 1842              		.loc 1 568 5 is_stmt 1 view .LVU500
 1843 0012 2146     		mov	r1, r4
 1844 0014 3046     		mov	r0, r6
 1845 0016 FFF7FEFF 		bl	lv_obj_get_coords
 1846              	.LVL163:
 569:Middlewares/lvgl/src/core/lv_obj_pos.c ****     area->x1 += lv_obj_get_style_pad_left(obj, LV_PART_MAIN);
 1847              		.loc 1 569 5 view .LVU501
 1848 001a 6942     		rsbs	r1, r5, #0
 1849 001c 09B2     		sxth	r1, r1
 1850 001e 0A46     		mov	r2, r1
 1851 0020 2046     		mov	r0, r4
 1852 0022 FFF7FEFF 		bl	lv_area_increase
 1853              	.LVL164:
 570:Middlewares/lvgl/src/core/lv_obj_pos.c ****     area->x2 -= lv_obj_get_style_pad_right(obj, LV_PART_MAIN);
 1854              		.loc 1 570 5 view .LVU502
 1855              	.LBB165:
 1856              	.LBI165:
 103:Middlewares/lvgl/src/core/lv_obj_style_gen.h **** {
 1857              		.loc 2 103 26 view .LVU503
 1858              	.LBB166:
 105:Middlewares/lvgl/src/core/lv_obj_style_gen.h ****     return (lv_coord_t)v.num;
 1859              		.loc 2 105 5 view .LVU504
 105:Middlewares/lvgl/src/core/lv_obj_style_gen.h ****     return (lv_coord_t)v.num;
 1860              		.loc 2 105 26 is_stmt 0 view .LVU505
 1861 0026 41F21202 		movw	r2, #4114
 1862 002a 0021     		movs	r1, #0
 1863 002c 3046     		mov	r0, r6
 1864 002e FFF7FEFF 		bl	lv_obj_get_style_prop
ARM GAS  /tmp/ccgCqJqT.s 			page 61


 1865              	.LVL165:
 106:Middlewares/lvgl/src/core/lv_obj_style_gen.h **** }
 1866              		.loc 2 106 5 is_stmt 1 view .LVU506
 106:Middlewares/lvgl/src/core/lv_obj_style_gen.h **** }
 1867              		.loc 2 106 5 is_stmt 0 view .LVU507
 1868              	.LBE166:
 1869              	.LBE165:
 570:Middlewares/lvgl/src/core/lv_obj_pos.c ****     area->x2 -= lv_obj_get_style_pad_right(obj, LV_PART_MAIN);
 1870              		.loc 1 570 17 view .LVU508
 1871 0032 80B2     		uxth	r0, r0
 570:Middlewares/lvgl/src/core/lv_obj_pos.c ****     area->x2 -= lv_obj_get_style_pad_right(obj, LV_PART_MAIN);
 1872              		.loc 1 570 14 view .LVU509
 1873 0034 2388     		ldrh	r3, [r4]
 1874 0036 1844     		add	r0, r0, r3
 1875 0038 2080     		strh	r0, [r4]	@ movhi
 571:Middlewares/lvgl/src/core/lv_obj_pos.c ****     area->y1 += lv_obj_get_style_pad_top(obj, LV_PART_MAIN);
 1876              		.loc 1 571 5 is_stmt 1 view .LVU510
 1877              	.LVL166:
 1878              	.LBB167:
 1879              	.LBI167:
 109:Middlewares/lvgl/src/core/lv_obj_style_gen.h **** {
 1880              		.loc 2 109 26 view .LVU511
 1881              	.LBB168:
 111:Middlewares/lvgl/src/core/lv_obj_style_gen.h ****     return (lv_coord_t)v.num;
 1882              		.loc 2 111 5 view .LVU512
 111:Middlewares/lvgl/src/core/lv_obj_style_gen.h ****     return (lv_coord_t)v.num;
 1883              		.loc 2 111 26 is_stmt 0 view .LVU513
 1884 003a 41F21302 		movw	r2, #4115
 1885 003e 0021     		movs	r1, #0
 1886 0040 3046     		mov	r0, r6
 1887 0042 FFF7FEFF 		bl	lv_obj_get_style_prop
 1888              	.LVL167:
 112:Middlewares/lvgl/src/core/lv_obj_style_gen.h **** }
 1889              		.loc 2 112 5 is_stmt 1 view .LVU514
 112:Middlewares/lvgl/src/core/lv_obj_style_gen.h **** }
 1890              		.loc 2 112 5 is_stmt 0 view .LVU515
 1891              	.LBE168:
 1892              	.LBE167:
 571:Middlewares/lvgl/src/core/lv_obj_pos.c ****     area->y1 += lv_obj_get_style_pad_top(obj, LV_PART_MAIN);
 1893              		.loc 1 571 17 view .LVU516
 1894 0046 83B2     		uxth	r3, r0
 571:Middlewares/lvgl/src/core/lv_obj_pos.c ****     area->y1 += lv_obj_get_style_pad_top(obj, LV_PART_MAIN);
 1895              		.loc 1 571 14 view .LVU517
 1896 0048 A088     		ldrh	r0, [r4, #4]
 1897 004a C01A     		subs	r0, r0, r3
 1898 004c A080     		strh	r0, [r4, #4]	@ movhi
 572:Middlewares/lvgl/src/core/lv_obj_pos.c ****     area->y2 -= lv_obj_get_style_pad_bottom(obj, LV_PART_MAIN);
 1899              		.loc 1 572 5 is_stmt 1 view .LVU518
 1900              	.LVL168:
 1901              	.LBB169:
 1902              	.LBI169:
  91:Middlewares/lvgl/src/core/lv_obj_style_gen.h **** {
 1903              		.loc 2 91 26 view .LVU519
 1904              	.LBB170:
  93:Middlewares/lvgl/src/core/lv_obj_style_gen.h ****     return (lv_coord_t)v.num;
 1905              		.loc 2 93 5 view .LVU520
  93:Middlewares/lvgl/src/core/lv_obj_style_gen.h ****     return (lv_coord_t)v.num;
ARM GAS  /tmp/ccgCqJqT.s 			page 62


 1906              		.loc 2 93 26 is_stmt 0 view .LVU521
 1907 004e 41F21002 		movw	r2, #4112
 1908 0052 0021     		movs	r1, #0
 1909 0054 3046     		mov	r0, r6
 1910 0056 FFF7FEFF 		bl	lv_obj_get_style_prop
 1911              	.LVL169:
  94:Middlewares/lvgl/src/core/lv_obj_style_gen.h **** }
 1912              		.loc 2 94 5 is_stmt 1 view .LVU522
  94:Middlewares/lvgl/src/core/lv_obj_style_gen.h **** }
 1913              		.loc 2 94 5 is_stmt 0 view .LVU523
 1914              	.LBE170:
 1915              	.LBE169:
 572:Middlewares/lvgl/src/core/lv_obj_pos.c ****     area->y2 -= lv_obj_get_style_pad_bottom(obj, LV_PART_MAIN);
 1916              		.loc 1 572 17 view .LVU524
 1917 005a 80B2     		uxth	r0, r0
 572:Middlewares/lvgl/src/core/lv_obj_pos.c ****     area->y2 -= lv_obj_get_style_pad_bottom(obj, LV_PART_MAIN);
 1918              		.loc 1 572 14 view .LVU525
 1919 005c 6388     		ldrh	r3, [r4, #2]
 1920 005e 1844     		add	r0, r0, r3
 1921 0060 6080     		strh	r0, [r4, #2]	@ movhi
 573:Middlewares/lvgl/src/core/lv_obj_pos.c **** 
 1922              		.loc 1 573 5 is_stmt 1 view .LVU526
 1923              	.LVL170:
 1924              	.LBB171:
 1925              	.LBI171:
  97:Middlewares/lvgl/src/core/lv_obj_style_gen.h **** {
 1926              		.loc 2 97 26 view .LVU527
 1927              	.LBB172:
  99:Middlewares/lvgl/src/core/lv_obj_style_gen.h ****     return (lv_coord_t)v.num;
 1928              		.loc 2 99 5 view .LVU528
  99:Middlewares/lvgl/src/core/lv_obj_style_gen.h ****     return (lv_coord_t)v.num;
 1929              		.loc 2 99 26 is_stmt 0 view .LVU529
 1930 0062 41F21102 		movw	r2, #4113
 1931 0066 0021     		movs	r1, #0
 1932 0068 3046     		mov	r0, r6
 1933 006a FFF7FEFF 		bl	lv_obj_get_style_prop
 1934              	.LVL171:
 100:Middlewares/lvgl/src/core/lv_obj_style_gen.h **** }
 1935              		.loc 2 100 5 is_stmt 1 view .LVU530
 100:Middlewares/lvgl/src/core/lv_obj_style_gen.h **** }
 1936              		.loc 2 100 5 is_stmt 0 view .LVU531
 1937              	.LBE172:
 1938              	.LBE171:
 573:Middlewares/lvgl/src/core/lv_obj_pos.c **** 
 1939              		.loc 1 573 17 view .LVU532
 1940 006e 83B2     		uxth	r3, r0
 573:Middlewares/lvgl/src/core/lv_obj_pos.c **** 
 1941              		.loc 1 573 14 view .LVU533
 1942 0070 E088     		ldrh	r0, [r4, #6]
 1943 0072 C01A     		subs	r0, r0, r3
 1944 0074 E080     		strh	r0, [r4, #6]	@ movhi
 575:Middlewares/lvgl/src/core/lv_obj_pos.c **** 
 1945              		.loc 1 575 1 view .LVU534
 1946 0076 70BD     		pop	{r4, r5, r6, pc}
 575:Middlewares/lvgl/src/core/lv_obj_pos.c **** 
 1947              		.loc 1 575 1 view .LVU535
 1948              		.cfi_endproc
ARM GAS  /tmp/ccgCqJqT.s 			page 63


 1949              	.LFE179:
 1951              		.section	.text.lv_obj_get_self_width,"ax",%progbits
 1952              		.align	1
 1953              		.global	lv_obj_get_self_width
 1954              		.syntax unified
 1955              		.thumb
 1956              		.thumb_func
 1957              		.fpu softvfp
 1959              	lv_obj_get_self_width:
 1960              	.LVL172:
 1961              	.LFB180:
 578:Middlewares/lvgl/src/core/lv_obj_pos.c ****     lv_point_t p = {0, LV_COORD_MIN};
 1962              		.loc 1 578 1 is_stmt 1 view -0
 1963              		.cfi_startproc
 1964              		@ args = 0, pretend = 0, frame = 8
 1965              		@ frame_needed = 0, uses_anonymous_args = 0
 578:Middlewares/lvgl/src/core/lv_obj_pos.c ****     lv_point_t p = {0, LV_COORD_MIN};
 1966              		.loc 1 578 1 is_stmt 0 view .LVU537
 1967 0000 00B5     		push	{lr}
 1968              	.LCFI34:
 1969              		.cfi_def_cfa_offset 4
 1970              		.cfi_offset 14, -4
 1971 0002 83B0     		sub	sp, sp, #12
 1972              	.LCFI35:
 1973              		.cfi_def_cfa_offset 16
 579:Middlewares/lvgl/src/core/lv_obj_pos.c ****     lv_event_send((lv_obj_t * )obj, LV_EVENT_GET_SELF_SIZE, &p);
 1974              		.loc 1 579 5 is_stmt 1 view .LVU538
 579:Middlewares/lvgl/src/core/lv_obj_pos.c ****     lv_event_send((lv_obj_t * )obj, LV_EVENT_GET_SELF_SIZE, &p);
 1975              		.loc 1 579 16 is_stmt 0 view .LVU539
 1976 0004 0023     		movs	r3, #0
 1977 0006 ADF80430 		strh	r3, [sp, #4]	@ movhi
 1978 000a 4FF42043 		mov	r3, #40960
 1979 000e ADF80630 		strh	r3, [sp, #6]	@ movhi
 580:Middlewares/lvgl/src/core/lv_obj_pos.c ****     return p.x;
 1980              		.loc 1 580 5 is_stmt 1 view .LVU540
 1981 0012 01AA     		add	r2, sp, #4
 1982 0014 2621     		movs	r1, #38
 1983 0016 FFF7FEFF 		bl	lv_event_send
 1984              	.LVL173:
 581:Middlewares/lvgl/src/core/lv_obj_pos.c **** }
 1985              		.loc 1 581 5 view .LVU541
 582:Middlewares/lvgl/src/core/lv_obj_pos.c **** 
 1986              		.loc 1 582 1 is_stmt 0 view .LVU542
 1987 001a BDF90400 		ldrsh	r0, [sp, #4]
 1988 001e 03B0     		add	sp, sp, #12
 1989              	.LCFI36:
 1990              		.cfi_def_cfa_offset 4
 1991              		@ sp needed
 1992 0020 5DF804FB 		ldr	pc, [sp], #4
 1993              		.cfi_endproc
 1994              	.LFE180:
 1996              		.section	.text.lv_obj_get_self_height,"ax",%progbits
 1997              		.align	1
 1998              		.global	lv_obj_get_self_height
 1999              		.syntax unified
 2000              		.thumb
 2001              		.thumb_func
ARM GAS  /tmp/ccgCqJqT.s 			page 64


 2002              		.fpu softvfp
 2004              	lv_obj_get_self_height:
 2005              	.LVL174:
 2006              	.LFB181:
 585:Middlewares/lvgl/src/core/lv_obj_pos.c ****     lv_point_t p = {LV_COORD_MIN, 0};
 2007              		.loc 1 585 1 is_stmt 1 view -0
 2008              		.cfi_startproc
 2009              		@ args = 0, pretend = 0, frame = 8
 2010              		@ frame_needed = 0, uses_anonymous_args = 0
 585:Middlewares/lvgl/src/core/lv_obj_pos.c ****     lv_point_t p = {LV_COORD_MIN, 0};
 2011              		.loc 1 585 1 is_stmt 0 view .LVU544
 2012 0000 00B5     		push	{lr}
 2013              	.LCFI37:
 2014              		.cfi_def_cfa_offset 4
 2015              		.cfi_offset 14, -4
 2016 0002 83B0     		sub	sp, sp, #12
 2017              	.LCFI38:
 2018              		.cfi_def_cfa_offset 16
 586:Middlewares/lvgl/src/core/lv_obj_pos.c ****     lv_event_send((lv_obj_t * )obj, LV_EVENT_GET_SELF_SIZE, &p);
 2019              		.loc 1 586 5 is_stmt 1 view .LVU545
 586:Middlewares/lvgl/src/core/lv_obj_pos.c ****     lv_event_send((lv_obj_t * )obj, LV_EVENT_GET_SELF_SIZE, &p);
 2020              		.loc 1 586 16 is_stmt 0 view .LVU546
 2021 0004 4FF42043 		mov	r3, #40960
 2022 0008 ADF80430 		strh	r3, [sp, #4]	@ movhi
 2023 000c 0023     		movs	r3, #0
 2024 000e ADF80630 		strh	r3, [sp, #6]	@ movhi
 587:Middlewares/lvgl/src/core/lv_obj_pos.c ****     return p.y;
 2025              		.loc 1 587 5 is_stmt 1 view .LVU547
 2026 0012 01AA     		add	r2, sp, #4
 2027 0014 2621     		movs	r1, #38
 2028 0016 FFF7FEFF 		bl	lv_event_send
 2029              	.LVL175:
 588:Middlewares/lvgl/src/core/lv_obj_pos.c **** }
 2030              		.loc 1 588 5 view .LVU548
 589:Middlewares/lvgl/src/core/lv_obj_pos.c **** 
 2031              		.loc 1 589 1 is_stmt 0 view .LVU549
 2032 001a BDF90600 		ldrsh	r0, [sp, #6]
 2033 001e 03B0     		add	sp, sp, #12
 2034              	.LCFI39:
 2035              		.cfi_def_cfa_offset 4
 2036              		@ sp needed
 2037 0020 5DF804FB 		ldr	pc, [sp], #4
 2038              		.cfi_endproc
 2039              	.LFE181:
 2041              		.section	.text.lv_obj_refresh_self_size,"ax",%progbits
 2042              		.align	1
 2043              		.global	lv_obj_refresh_self_size
 2044              		.syntax unified
 2045              		.thumb
 2046              		.thumb_func
 2047              		.fpu softvfp
 2049              	lv_obj_refresh_self_size:
 2050              	.LVL176:
 2051              	.LFB182:
 592:Middlewares/lvgl/src/core/lv_obj_pos.c ****     lv_coord_t w_set = lv_obj_get_style_width(obj, LV_PART_MAIN);
 2052              		.loc 1 592 1 is_stmt 1 view -0
 2053              		.cfi_startproc
ARM GAS  /tmp/ccgCqJqT.s 			page 65


 2054              		@ args = 0, pretend = 0, frame = 0
 2055              		@ frame_needed = 0, uses_anonymous_args = 0
 592:Middlewares/lvgl/src/core/lv_obj_pos.c ****     lv_coord_t w_set = lv_obj_get_style_width(obj, LV_PART_MAIN);
 2056              		.loc 1 592 1 is_stmt 0 view .LVU551
 2057 0000 38B5     		push	{r3, r4, r5, lr}
 2058              	.LCFI40:
 2059              		.cfi_def_cfa_offset 16
 2060              		.cfi_offset 3, -16
 2061              		.cfi_offset 4, -12
 2062              		.cfi_offset 5, -8
 2063              		.cfi_offset 14, -4
 2064 0002 0446     		mov	r4, r0
 593:Middlewares/lvgl/src/core/lv_obj_pos.c ****     lv_coord_t h_set = lv_obj_get_style_height(obj, LV_PART_MAIN);
 2065              		.loc 1 593 5 is_stmt 1 view .LVU552
 2066              	.LVL177:
 2067              	.LBB173:
 2068              	.LBI173:
   1:Middlewares/lvgl/src/core/lv_obj_style_gen.h **** {
 2069              		.loc 2 1 26 view .LVU553
 2070              	.LBB174:
   3:Middlewares/lvgl/src/core/lv_obj_style_gen.h ****     return (lv_coord_t)v.num;
 2071              		.loc 2 3 5 view .LVU554
   3:Middlewares/lvgl/src/core/lv_obj_style_gen.h ****     return (lv_coord_t)v.num;
 2072              		.loc 2 3 26 is_stmt 0 view .LVU555
 2073 0004 41F20102 		movw	r2, #4097
 2074 0008 0021     		movs	r1, #0
 2075 000a FFF7FEFF 		bl	lv_obj_get_style_prop
 2076              	.LVL178:
   4:Middlewares/lvgl/src/core/lv_obj_style_gen.h **** }
 2077              		.loc 2 4 5 is_stmt 1 view .LVU556
   4:Middlewares/lvgl/src/core/lv_obj_style_gen.h **** }
 2078              		.loc 2 4 12 is_stmt 0 view .LVU557
 2079 000e 05B2     		sxth	r5, r0
 2080              	.LVL179:
   4:Middlewares/lvgl/src/core/lv_obj_style_gen.h **** }
 2081              		.loc 2 4 12 view .LVU558
 2082              	.LBE174:
 2083              	.LBE173:
 594:Middlewares/lvgl/src/core/lv_obj_pos.c ****     if(w_set != LV_SIZE_CONTENT && h_set != LV_SIZE_CONTENT) return false;
 2084              		.loc 1 594 5 is_stmt 1 view .LVU559
 2085              	.LBB175:
 2086              	.LBI175:
  19:Middlewares/lvgl/src/core/lv_obj_style_gen.h **** {
 2087              		.loc 2 19 26 view .LVU560
 2088              	.LBB176:
  21:Middlewares/lvgl/src/core/lv_obj_style_gen.h ****     return (lv_coord_t)v.num;
 2089              		.loc 2 21 5 view .LVU561
  21:Middlewares/lvgl/src/core/lv_obj_style_gen.h ****     return (lv_coord_t)v.num;
 2090              		.loc 2 21 26 is_stmt 0 view .LVU562
 2091 0010 41F20402 		movw	r2, #4100
 2092 0014 0021     		movs	r1, #0
 2093 0016 2046     		mov	r0, r4
 2094 0018 FFF7FEFF 		bl	lv_obj_get_style_prop
 2095              	.LVL180:
  22:Middlewares/lvgl/src/core/lv_obj_style_gen.h **** }
 2096              		.loc 2 22 5 is_stmt 1 view .LVU563
  22:Middlewares/lvgl/src/core/lv_obj_style_gen.h **** }
ARM GAS  /tmp/ccgCqJqT.s 			page 66


 2097              		.loc 2 22 5 is_stmt 0 view .LVU564
 2098              	.LBE176:
 2099              	.LBE175:
 595:Middlewares/lvgl/src/core/lv_obj_pos.c **** 
 2100              		.loc 1 595 5 is_stmt 1 view .LVU565
 595:Middlewares/lvgl/src/core/lv_obj_pos.c **** 
 2101              		.loc 1 595 7 is_stmt 0 view .LVU566
 2102 001c 42F2D173 		movw	r3, #10193
 2103 0020 9D42     		cmp	r5, r3
 2104 0022 02D0     		beq	.L92
 2105 0024 00B2     		sxth	r0, r0
 595:Middlewares/lvgl/src/core/lv_obj_pos.c **** 
 2106              		.loc 1 595 33 discriminator 1 view .LVU567
 2107 0026 9842     		cmp	r0, r3
 2108 0028 04D1     		bne	.L94
 2109              	.LVL181:
 2110              	.L92:
 597:Middlewares/lvgl/src/core/lv_obj_pos.c ****     return true;
 2111              		.loc 1 597 5 is_stmt 1 view .LVU568
 2112 002a 2046     		mov	r0, r4
 2113 002c FFF7FEFF 		bl	lv_obj_mark_layout_as_dirty
 2114              	.LVL182:
 598:Middlewares/lvgl/src/core/lv_obj_pos.c **** }
 2115              		.loc 1 598 5 view .LVU569
 598:Middlewares/lvgl/src/core/lv_obj_pos.c **** }
 2116              		.loc 1 598 12 is_stmt 0 view .LVU570
 2117 0030 0120     		movs	r0, #1
 2118              	.L93:
 599:Middlewares/lvgl/src/core/lv_obj_pos.c **** 
 2119              		.loc 1 599 1 view .LVU571
 2120 0032 38BD     		pop	{r3, r4, r5, pc}
 2121              	.LVL183:
 2122              	.L94:
 595:Middlewares/lvgl/src/core/lv_obj_pos.c **** 
 2123              		.loc 1 595 69 view .LVU572
 2124 0034 0020     		movs	r0, #0
 2125              	.LVL184:
 595:Middlewares/lvgl/src/core/lv_obj_pos.c **** 
 2126              		.loc 1 595 69 view .LVU573
 2127 0036 FCE7     		b	.L93
 2128              		.cfi_endproc
 2129              	.LFE182:
 2131              		.section	.text.lv_obj_move_children_by,"ax",%progbits
 2132              		.align	1
 2133              		.global	lv_obj_move_children_by
 2134              		.syntax unified
 2135              		.thumb
 2136              		.thumb_func
 2137              		.fpu softvfp
 2139              	lv_obj_move_children_by:
 2140              	.LVL185:
 2141              	.LFB185:
 753:Middlewares/lvgl/src/core/lv_obj_pos.c ****     uint32_t i;
 2142              		.loc 1 753 1 is_stmt 1 view -0
 2143              		.cfi_startproc
 2144              		@ args = 0, pretend = 0, frame = 0
 2145              		@ frame_needed = 0, uses_anonymous_args = 0
ARM GAS  /tmp/ccgCqJqT.s 			page 67


 753:Middlewares/lvgl/src/core/lv_obj_pos.c ****     uint32_t i;
 2146              		.loc 1 753 1 is_stmt 0 view .LVU575
 2147 0000 2DE9F047 		push	{r4, r5, r6, r7, r8, r9, r10, lr}
 2148              	.LCFI41:
 2149              		.cfi_def_cfa_offset 32
 2150              		.cfi_offset 4, -32
 2151              		.cfi_offset 5, -28
 2152              		.cfi_offset 6, -24
 2153              		.cfi_offset 7, -20
 2154              		.cfi_offset 8, -16
 2155              		.cfi_offset 9, -12
 2156              		.cfi_offset 10, -8
 2157              		.cfi_offset 14, -4
 2158 0004 8246     		mov	r10, r0
 2159 0006 0F46     		mov	r7, r1
 2160 0008 1646     		mov	r6, r2
 2161 000a 9946     		mov	r9, r3
 754:Middlewares/lvgl/src/core/lv_obj_pos.c ****     uint32_t child_cnt = lv_obj_get_child_cnt(obj);
 2162              		.loc 1 754 5 is_stmt 1 view .LVU576
 755:Middlewares/lvgl/src/core/lv_obj_pos.c ****     for(i = 0; i < child_cnt; i++) {
 2163              		.loc 1 755 5 view .LVU577
 755:Middlewares/lvgl/src/core/lv_obj_pos.c ****     for(i = 0; i < child_cnt; i++) {
 2164              		.loc 1 755 26 is_stmt 0 view .LVU578
 2165 000c FFF7FEFF 		bl	lv_obj_get_child_cnt
 2166              	.LVL186:
 755:Middlewares/lvgl/src/core/lv_obj_pos.c ****     for(i = 0; i < child_cnt; i++) {
 2167              		.loc 1 755 26 view .LVU579
 2168 0010 8046     		mov	r8, r0
 2169              	.LVL187:
 756:Middlewares/lvgl/src/core/lv_obj_pos.c ****         lv_obj_t * child = lv_obj_get_child(obj, i);
 2170              		.loc 1 756 5 is_stmt 1 view .LVU580
 756:Middlewares/lvgl/src/core/lv_obj_pos.c ****         lv_obj_t * child = lv_obj_get_child(obj, i);
 2171              		.loc 1 756 11 is_stmt 0 view .LVU581
 2172 0012 0025     		movs	r5, #0
 756:Middlewares/lvgl/src/core/lv_obj_pos.c ****         lv_obj_t * child = lv_obj_get_child(obj, i);
 2173              		.loc 1 756 5 view .LVU582
 2174 0014 16E0     		b	.L97
 2175              	.LVL188:
 2176              	.L98:
 2177              	.LBB177:
 759:Middlewares/lvgl/src/core/lv_obj_pos.c ****         child->coords.y1 += y_diff;
 2178              		.loc 1 759 9 is_stmt 1 view .LVU583
 759:Middlewares/lvgl/src/core/lv_obj_pos.c ****         child->coords.y1 += y_diff;
 2179              		.loc 1 759 26 is_stmt 0 view .LVU584
 2180 0016 BBB2     		uxth	r3, r7
 2181 0018 A28A     		ldrh	r2, [r4, #20]
 2182 001a 1A44     		add	r2, r2, r3
 2183 001c A282     		strh	r2, [r4, #20]	@ movhi
 760:Middlewares/lvgl/src/core/lv_obj_pos.c ****         child->coords.x2 += x_diff;
 2184              		.loc 1 760 9 is_stmt 1 view .LVU585
 760:Middlewares/lvgl/src/core/lv_obj_pos.c ****         child->coords.x2 += x_diff;
 2185              		.loc 1 760 26 is_stmt 0 view .LVU586
 2186 001e 1FFA86FC 		uxth	ip, r6
 2187 0022 E28A     		ldrh	r2, [r4, #22]
 2188 0024 6244     		add	r2, r2, ip
 2189 0026 E282     		strh	r2, [r4, #22]	@ movhi
 761:Middlewares/lvgl/src/core/lv_obj_pos.c ****         child->coords.y2 += y_diff;
ARM GAS  /tmp/ccgCqJqT.s 			page 68


 2190              		.loc 1 761 9 is_stmt 1 view .LVU587
 761:Middlewares/lvgl/src/core/lv_obj_pos.c ****         child->coords.y2 += y_diff;
 2191              		.loc 1 761 26 is_stmt 0 view .LVU588
 2192 0028 228B     		ldrh	r2, [r4, #24]
 2193 002a 1344     		add	r3, r3, r2
 2194 002c 2383     		strh	r3, [r4, #24]	@ movhi
 762:Middlewares/lvgl/src/core/lv_obj_pos.c **** 
 2195              		.loc 1 762 9 is_stmt 1 view .LVU589
 762:Middlewares/lvgl/src/core/lv_obj_pos.c **** 
 2196              		.loc 1 762 26 is_stmt 0 view .LVU590
 2197 002e 638B     		ldrh	r3, [r4, #26]
 2198 0030 9C44     		add	ip, ip, r3
 2199 0032 A4F81AC0 		strh	ip, [r4, #26]	@ movhi
 764:Middlewares/lvgl/src/core/lv_obj_pos.c ****     }
 2200              		.loc 1 764 9 is_stmt 1 view .LVU591
 2201 0036 0023     		movs	r3, #0
 2202 0038 3246     		mov	r2, r6
 2203 003a 3946     		mov	r1, r7
 2204 003c 2046     		mov	r0, r4
 2205 003e FFF7FEFF 		bl	lv_obj_move_children_by
 2206              	.LVL189:
 2207              	.L99:
 764:Middlewares/lvgl/src/core/lv_obj_pos.c ****     }
 2208              		.loc 1 764 9 is_stmt 0 view .LVU592
 2209              	.LBE177:
 756:Middlewares/lvgl/src/core/lv_obj_pos.c ****         lv_obj_t * child = lv_obj_get_child(obj, i);
 2210              		.loc 1 756 31 is_stmt 1 discriminator 2 view .LVU593
 756:Middlewares/lvgl/src/core/lv_obj_pos.c ****         lv_obj_t * child = lv_obj_get_child(obj, i);
 2211              		.loc 1 756 32 is_stmt 0 discriminator 2 view .LVU594
 2212 0042 0135     		adds	r5, r5, #1
 2213              	.LVL190:
 2214              	.L97:
 756:Middlewares/lvgl/src/core/lv_obj_pos.c ****         lv_obj_t * child = lv_obj_get_child(obj, i);
 2215              		.loc 1 756 16 is_stmt 1 discriminator 1 view .LVU595
 756:Middlewares/lvgl/src/core/lv_obj_pos.c ****         lv_obj_t * child = lv_obj_get_child(obj, i);
 2216              		.loc 1 756 5 is_stmt 0 discriminator 1 view .LVU596
 2217 0044 4545     		cmp	r5, r8
 2218 0046 0ED2     		bcs	.L102
 2219              	.LBB178:
 757:Middlewares/lvgl/src/core/lv_obj_pos.c ****         if(ignore_floating && lv_obj_has_flag(child, LV_OBJ_FLAG_FLOATING)) continue;
 2220              		.loc 1 757 9 is_stmt 1 view .LVU597
 757:Middlewares/lvgl/src/core/lv_obj_pos.c ****         if(ignore_floating && lv_obj_has_flag(child, LV_OBJ_FLAG_FLOATING)) continue;
 2221              		.loc 1 757 28 is_stmt 0 view .LVU598
 2222 0048 2946     		mov	r1, r5
 2223 004a 5046     		mov	r0, r10
 2224 004c FFF7FEFF 		bl	lv_obj_get_child
 2225              	.LVL191:
 2226 0050 0446     		mov	r4, r0
 2227              	.LVL192:
 758:Middlewares/lvgl/src/core/lv_obj_pos.c ****         child->coords.x1 += x_diff;
 2228              		.loc 1 758 9 is_stmt 1 view .LVU599
 758:Middlewares/lvgl/src/core/lv_obj_pos.c ****         child->coords.x1 += x_diff;
 2229              		.loc 1 758 11 is_stmt 0 view .LVU600
 2230 0052 B9F1000F 		cmp	r9, #0
 2231 0056 DED0     		beq	.L98
 758:Middlewares/lvgl/src/core/lv_obj_pos.c ****         child->coords.x1 += x_diff;
 2232              		.loc 1 758 31 discriminator 1 view .LVU601
ARM GAS  /tmp/ccgCqJqT.s 			page 69


 2233 0058 4FF48031 		mov	r1, #65536
 2234 005c FFF7FEFF 		bl	lv_obj_has_flag
 2235              	.LVL193:
 758:Middlewares/lvgl/src/core/lv_obj_pos.c ****         child->coords.x1 += x_diff;
 2236              		.loc 1 758 28 discriminator 1 view .LVU602
 2237 0060 0028     		cmp	r0, #0
 2238 0062 D8D0     		beq	.L98
 2239 0064 EDE7     		b	.L99
 2240              	.LVL194:
 2241              	.L102:
 758:Middlewares/lvgl/src/core/lv_obj_pos.c ****         child->coords.x1 += x_diff;
 2242              		.loc 1 758 28 discriminator 1 view .LVU603
 2243              	.LBE178:
 766:Middlewares/lvgl/src/core/lv_obj_pos.c **** 
 2244              		.loc 1 766 1 view .LVU604
 2245 0066 BDE8F087 		pop	{r4, r5, r6, r7, r8, r9, r10, pc}
 766:Middlewares/lvgl/src/core/lv_obj_pos.c **** 
 2246              		.loc 1 766 1 view .LVU605
 2247              		.cfi_endproc
 2248              	.LFE185:
 2250              		.section	.text.lv_obj_area_is_visible,"ax",%progbits
 2251              		.align	1
 2252              		.global	lv_obj_area_is_visible
 2253              		.syntax unified
 2254              		.thumb
 2255              		.thumb_func
 2256              		.fpu softvfp
 2258              	lv_obj_area_is_visible:
 2259              	.LVL195:
 2260              	.LFB188:
 798:Middlewares/lvgl/src/core/lv_obj_pos.c ****     if(lv_obj_has_flag(obj, LV_OBJ_FLAG_HIDDEN)) return false;
 2261              		.loc 1 798 1 is_stmt 1 view -0
 2262              		.cfi_startproc
 2263              		@ args = 0, pretend = 0, frame = 8
 2264              		@ frame_needed = 0, uses_anonymous_args = 0
 798:Middlewares/lvgl/src/core/lv_obj_pos.c ****     if(lv_obj_has_flag(obj, LV_OBJ_FLAG_HIDDEN)) return false;
 2265              		.loc 1 798 1 is_stmt 0 view .LVU607
 2266 0000 2DE9F041 		push	{r4, r5, r6, r7, r8, lr}
 2267              	.LCFI42:
 2268              		.cfi_def_cfa_offset 24
 2269              		.cfi_offset 4, -24
 2270              		.cfi_offset 5, -20
 2271              		.cfi_offset 6, -16
 2272              		.cfi_offset 7, -12
 2273              		.cfi_offset 8, -8
 2274              		.cfi_offset 14, -4
 2275 0004 82B0     		sub	sp, sp, #8
 2276              	.LCFI43:
 2277              		.cfi_def_cfa_offset 32
 2278 0006 0446     		mov	r4, r0
 2279 0008 0D46     		mov	r5, r1
 799:Middlewares/lvgl/src/core/lv_obj_pos.c **** 
 2280              		.loc 1 799 5 is_stmt 1 view .LVU608
 799:Middlewares/lvgl/src/core/lv_obj_pos.c **** 
 2281              		.loc 1 799 8 is_stmt 0 view .LVU609
 2282 000a 0121     		movs	r1, #1
 2283              	.LVL196:
ARM GAS  /tmp/ccgCqJqT.s 			page 70


 799:Middlewares/lvgl/src/core/lv_obj_pos.c **** 
 2284              		.loc 1 799 8 view .LVU610
 2285 000c FFF7FEFF 		bl	lv_obj_has_flag
 2286              	.LVL197:
 799:Middlewares/lvgl/src/core/lv_obj_pos.c **** 
 2287              		.loc 1 799 7 view .LVU611
 2288 0010 20B1     		cbz	r0, .L113
 799:Middlewares/lvgl/src/core/lv_obj_pos.c **** 
 2289              		.loc 1 799 57 view .LVU612
 2290 0012 0027     		movs	r7, #0
 2291              	.LVL198:
 2292              	.L104:
 837:Middlewares/lvgl/src/core/lv_obj_pos.c **** 
 2293              		.loc 1 837 1 view .LVU613
 2294 0014 3846     		mov	r0, r7
 2295 0016 02B0     		add	sp, sp, #8
 2296              	.LCFI44:
 2297              		.cfi_remember_state
 2298              		.cfi_def_cfa_offset 24
 2299              		@ sp needed
 2300 0018 BDE8F081 		pop	{r4, r5, r6, r7, r8, pc}
 2301              	.LVL199:
 2302              	.L113:
 2303              	.LCFI45:
 2304              		.cfi_restore_state
 837:Middlewares/lvgl/src/core/lv_obj_pos.c **** 
 2305              		.loc 1 837 1 view .LVU614
 2306 001c 0646     		mov	r6, r0
 802:Middlewares/lvgl/src/core/lv_obj_pos.c ****     lv_disp_t * disp   = lv_obj_get_disp(obj_scr);
 2307              		.loc 1 802 5 is_stmt 1 view .LVU615
 802:Middlewares/lvgl/src/core/lv_obj_pos.c ****     lv_disp_t * disp   = lv_obj_get_disp(obj_scr);
 2308              		.loc 1 802 26 is_stmt 0 view .LVU616
 2309 001e 2046     		mov	r0, r4
 2310 0020 FFF7FEFF 		bl	lv_obj_get_screen
 2311              	.LVL200:
 2312 0024 0746     		mov	r7, r0
 2313              	.LVL201:
 803:Middlewares/lvgl/src/core/lv_obj_pos.c ****     if(obj_scr != lv_disp_get_scr_act(disp) &&
 2314              		.loc 1 803 5 is_stmt 1 view .LVU617
 803:Middlewares/lvgl/src/core/lv_obj_pos.c ****     if(obj_scr != lv_disp_get_scr_act(disp) &&
 2315              		.loc 1 803 26 is_stmt 0 view .LVU618
 2316 0026 FFF7FEFF 		bl	lv_obj_get_disp
 2317              	.LVL202:
 803:Middlewares/lvgl/src/core/lv_obj_pos.c ****     if(obj_scr != lv_disp_get_scr_act(disp) &&
 2318              		.loc 1 803 26 view .LVU619
 2319 002a 8046     		mov	r8, r0
 2320              	.LVL203:
 804:Middlewares/lvgl/src/core/lv_obj_pos.c ****        obj_scr != lv_disp_get_scr_prev(disp) &&
 2321              		.loc 1 804 5 is_stmt 1 view .LVU620
 804:Middlewares/lvgl/src/core/lv_obj_pos.c ****        obj_scr != lv_disp_get_scr_prev(disp) &&
 2322              		.loc 1 804 19 is_stmt 0 view .LVU621
 2323 002c FFF7FEFF 		bl	lv_disp_get_scr_act
 2324              	.LVL204:
 804:Middlewares/lvgl/src/core/lv_obj_pos.c ****        obj_scr != lv_disp_get_scr_prev(disp) &&
 2325              		.loc 1 804 7 view .LVU622
 2326 0030 8742     		cmp	r7, r0
 2327 0032 10D0     		beq	.L105
ARM GAS  /tmp/ccgCqJqT.s 			page 71


 805:Middlewares/lvgl/src/core/lv_obj_pos.c ****        obj_scr != lv_disp_get_layer_top(disp) &&
 2328              		.loc 1 805 19 discriminator 1 view .LVU623
 2329 0034 4046     		mov	r0, r8
 2330 0036 FFF7FEFF 		bl	lv_disp_get_scr_prev
 2331              	.LVL205:
 804:Middlewares/lvgl/src/core/lv_obj_pos.c ****        obj_scr != lv_disp_get_scr_prev(disp) &&
 2332              		.loc 1 804 45 discriminator 1 view .LVU624
 2333 003a 8742     		cmp	r7, r0
 2334 003c 0BD0     		beq	.L105
 806:Middlewares/lvgl/src/core/lv_obj_pos.c ****        obj_scr != lv_disp_get_layer_sys(disp))
 2335              		.loc 1 806 19 view .LVU625
 2336 003e 4046     		mov	r0, r8
 2337 0040 FFF7FEFF 		bl	lv_disp_get_layer_top
 2338              	.LVL206:
 805:Middlewares/lvgl/src/core/lv_obj_pos.c ****        obj_scr != lv_disp_get_layer_top(disp) &&
 2339              		.loc 1 805 46 view .LVU626
 2340 0044 8742     		cmp	r7, r0
 2341 0046 06D0     		beq	.L105
 807:Middlewares/lvgl/src/core/lv_obj_pos.c ****     {
 2342              		.loc 1 807 19 view .LVU627
 2343 0048 4046     		mov	r0, r8
 2344 004a FFF7FEFF 		bl	lv_disp_get_layer_sys
 2345              	.LVL207:
 806:Middlewares/lvgl/src/core/lv_obj_pos.c ****        obj_scr != lv_disp_get_layer_sys(disp))
 2346              		.loc 1 806 47 view .LVU628
 2347 004e 8742     		cmp	r7, r0
 2348 0050 01D0     		beq	.L105
 809:Middlewares/lvgl/src/core/lv_obj_pos.c ****     }
 2349              		.loc 1 809 16 view .LVU629
 2350 0052 3746     		mov	r7, r6
 2351              	.LVL208:
 809:Middlewares/lvgl/src/core/lv_obj_pos.c ****     }
 2352              		.loc 1 809 16 view .LVU630
 2353 0054 DEE7     		b	.L104
 2354              	.LVL209:
 2355              	.L105:
 813:Middlewares/lvgl/src/core/lv_obj_pos.c ****     lv_coord_t ext_size = _lv_obj_get_ext_draw_size(obj);
 2356              		.loc 1 813 5 is_stmt 1 view .LVU631
 814:Middlewares/lvgl/src/core/lv_obj_pos.c ****     lv_area_copy(&obj_coords, &obj->coords);
 2357              		.loc 1 814 5 view .LVU632
 814:Middlewares/lvgl/src/core/lv_obj_pos.c ****     lv_area_copy(&obj_coords, &obj->coords);
 2358              		.loc 1 814 27 is_stmt 0 view .LVU633
 2359 0056 2046     		mov	r0, r4
 2360 0058 FFF7FEFF 		bl	_lv_obj_get_ext_draw_size
 2361              	.LVL210:
 815:Middlewares/lvgl/src/core/lv_obj_pos.c ****     obj_coords.x1 -= ext_size;
 2362              		.loc 1 815 5 is_stmt 1 view .LVU634
 2363              	.LBB179:
 2364              	.LBI179:
 120:Middlewares/lvgl/src/core/../misc/../font/../misc/lv_area.h **** {
 2365              		.loc 3 120 20 view .LVU635
 2366              	.LBB180:
 122:Middlewares/lvgl/src/core/../misc/../font/../misc/lv_area.h ****     dest->y1 = src->y1;
 2367              		.loc 3 122 5 view .LVU636
 122:Middlewares/lvgl/src/core/../misc/../font/../misc/lv_area.h ****     dest->y1 = src->y1;
 2368              		.loc 3 122 19 is_stmt 0 view .LVU637
 2369 005c B4F91410 		ldrsh	r1, [r4, #20]
ARM GAS  /tmp/ccgCqJqT.s 			page 72


 122:Middlewares/lvgl/src/core/../misc/../font/../misc/lv_area.h ****     dest->y1 = src->y1;
 2370              		.loc 3 122 14 view .LVU638
 2371 0060 ADF80010 		strh	r1, [sp]	@ movhi
 123:Middlewares/lvgl/src/core/../misc/../font/../misc/lv_area.h ****     dest->x2 = src->x2;
 2372              		.loc 3 123 5 is_stmt 1 view .LVU639
 123:Middlewares/lvgl/src/core/../misc/../font/../misc/lv_area.h ****     dest->x2 = src->x2;
 2373              		.loc 3 123 19 is_stmt 0 view .LVU640
 2374 0064 B4F91620 		ldrsh	r2, [r4, #22]
 123:Middlewares/lvgl/src/core/../misc/../font/../misc/lv_area.h ****     dest->x2 = src->x2;
 2375              		.loc 3 123 14 view .LVU641
 2376 0068 ADF80220 		strh	r2, [sp, #2]	@ movhi
 124:Middlewares/lvgl/src/core/../misc/../font/../misc/lv_area.h ****     dest->y2 = src->y2;
 2377              		.loc 3 124 5 is_stmt 1 view .LVU642
 124:Middlewares/lvgl/src/core/../misc/../font/../misc/lv_area.h ****     dest->y2 = src->y2;
 2378              		.loc 3 124 19 is_stmt 0 view .LVU643
 2379 006c B4F91830 		ldrsh	r3, [r4, #24]
 124:Middlewares/lvgl/src/core/../misc/../font/../misc/lv_area.h ****     dest->y2 = src->y2;
 2380              		.loc 3 124 14 view .LVU644
 2381 0070 ADF80430 		strh	r3, [sp, #4]	@ movhi
 125:Middlewares/lvgl/src/core/../misc/../font/../misc/lv_area.h **** }
 2382              		.loc 3 125 5 is_stmt 1 view .LVU645
 125:Middlewares/lvgl/src/core/../misc/../font/../misc/lv_area.h **** }
 2383              		.loc 3 125 19 is_stmt 0 view .LVU646
 2384 0074 B4F91A70 		ldrsh	r7, [r4, #26]
 2385              	.LVL211:
 125:Middlewares/lvgl/src/core/../misc/../font/../misc/lv_area.h **** }
 2386              		.loc 3 125 14 view .LVU647
 2387 0078 ADF80670 		strh	r7, [sp, #6]	@ movhi
 2388              	.LVL212:
 125:Middlewares/lvgl/src/core/../misc/../font/../misc/lv_area.h **** }
 2389              		.loc 3 125 14 view .LVU648
 2390              	.LBE180:
 2391              	.LBE179:
 816:Middlewares/lvgl/src/core/lv_obj_pos.c ****     obj_coords.y1 -= ext_size;
 2392              		.loc 1 816 5 is_stmt 1 view .LVU649
 816:Middlewares/lvgl/src/core/lv_obj_pos.c ****     obj_coords.y1 -= ext_size;
 2393              		.loc 1 816 19 is_stmt 0 view .LVU650
 2394 007c 80B2     		uxth	r0, r0
 816:Middlewares/lvgl/src/core/lv_obj_pos.c ****     obj_coords.y1 -= ext_size;
 2395              		.loc 1 816 19 view .LVU651
 2396 007e 091A     		subs	r1, r1, r0
 2397 0080 ADF80010 		strh	r1, [sp]	@ movhi
 817:Middlewares/lvgl/src/core/lv_obj_pos.c ****     obj_coords.x2 += ext_size;
 2398              		.loc 1 817 5 is_stmt 1 view .LVU652
 817:Middlewares/lvgl/src/core/lv_obj_pos.c ****     obj_coords.x2 += ext_size;
 2399              		.loc 1 817 19 is_stmt 0 view .LVU653
 2400 0084 121A     		subs	r2, r2, r0
 2401 0086 ADF80220 		strh	r2, [sp, #2]	@ movhi
 818:Middlewares/lvgl/src/core/lv_obj_pos.c ****     obj_coords.y2 += ext_size;
 2402              		.loc 1 818 5 is_stmt 1 view .LVU654
 818:Middlewares/lvgl/src/core/lv_obj_pos.c ****     obj_coords.y2 += ext_size;
 2403              		.loc 1 818 19 is_stmt 0 view .LVU655
 2404 008a 0344     		add	r3, r3, r0
 2405 008c ADF80430 		strh	r3, [sp, #4]	@ movhi
 819:Middlewares/lvgl/src/core/lv_obj_pos.c **** 
 2406              		.loc 1 819 5 is_stmt 1 view .LVU656
 819:Middlewares/lvgl/src/core/lv_obj_pos.c **** 
ARM GAS  /tmp/ccgCqJqT.s 			page 73


 2407              		.loc 1 819 19 is_stmt 0 view .LVU657
 2408 0090 3844     		add	r0, r0, r7
 2409              	.LVL213:
 819:Middlewares/lvgl/src/core/lv_obj_pos.c **** 
 2410              		.loc 1 819 19 view .LVU658
 2411 0092 ADF80600 		strh	r0, [sp, #6]	@ movhi
 821:Middlewares/lvgl/src/core/lv_obj_pos.c **** 
 2412              		.loc 1 821 5 is_stmt 1 view .LVU659
 823:Middlewares/lvgl/src/core/lv_obj_pos.c ****     if(is_common == false) return false;  /*The area is not on the object*/
 2413              		.loc 1 823 5 view .LVU660
 823:Middlewares/lvgl/src/core/lv_obj_pos.c ****     if(is_common == false) return false;  /*The area is not on the object*/
 2414              		.loc 1 823 17 is_stmt 0 view .LVU661
 2415 0096 6A46     		mov	r2, sp
 2416 0098 2946     		mov	r1, r5
 2417 009a 2846     		mov	r0, r5
 2418 009c FFF7FEFF 		bl	_lv_area_intersect
 2419              	.LVL214:
 824:Middlewares/lvgl/src/core/lv_obj_pos.c **** 
 2420              		.loc 1 824 5 is_stmt 1 view .LVU662
 824:Middlewares/lvgl/src/core/lv_obj_pos.c **** 
 2421              		.loc 1 824 7 is_stmt 0 view .LVU663
 2422 00a0 0746     		mov	r7, r0
 2423 00a2 0028     		cmp	r0, #0
 2424 00a4 B6D0     		beq	.L104
 827:Middlewares/lvgl/src/core/lv_obj_pos.c ****     while(par != NULL) {
 2425              		.loc 1 827 5 is_stmt 1 view .LVU664
 827:Middlewares/lvgl/src/core/lv_obj_pos.c ****     while(par != NULL) {
 2426              		.loc 1 827 22 is_stmt 0 view .LVU665
 2427 00a6 2046     		mov	r0, r4
 2428              	.LVL215:
 827:Middlewares/lvgl/src/core/lv_obj_pos.c ****     while(par != NULL) {
 2429              		.loc 1 827 22 view .LVU666
 2430 00a8 FFF7FEFF 		bl	lv_obj_get_parent
 2431              	.LVL216:
 2432 00ac 0446     		mov	r4, r0
 2433              	.LVL217:
 828:Middlewares/lvgl/src/core/lv_obj_pos.c ****         is_common = _lv_area_intersect(area, area, &par->coords);
 2434              		.loc 1 828 5 is_stmt 1 view .LVU667
 2435              	.L106:
 828:Middlewares/lvgl/src/core/lv_obj_pos.c ****         is_common = _lv_area_intersect(area, area, &par->coords);
 2436              		.loc 1 828 10 view .LVU668
 2437 00ae 002C     		cmp	r4, #0
 2438 00b0 B0D0     		beq	.L104
 829:Middlewares/lvgl/src/core/lv_obj_pos.c ****         if(is_common == false) return false;       /*If no common parts with parent break;*/
 2439              		.loc 1 829 9 view .LVU669
 829:Middlewares/lvgl/src/core/lv_obj_pos.c ****         if(is_common == false) return false;       /*If no common parts with parent break;*/
 2440              		.loc 1 829 21 is_stmt 0 view .LVU670
 2441 00b2 04F11402 		add	r2, r4, #20
 2442 00b6 2946     		mov	r1, r5
 2443 00b8 2846     		mov	r0, r5
 2444              	.LVL218:
 829:Middlewares/lvgl/src/core/lv_obj_pos.c ****         if(is_common == false) return false;       /*If no common parts with parent break;*/
 2445              		.loc 1 829 21 view .LVU671
 2446 00ba FFF7FEFF 		bl	_lv_area_intersect
 2447              	.LVL219:
 830:Middlewares/lvgl/src/core/lv_obj_pos.c ****         if(lv_obj_has_flag(par, LV_OBJ_FLAG_HIDDEN)) return false; /*If the parent is hidden then t
 2448              		.loc 1 830 9 is_stmt 1 view .LVU672
ARM GAS  /tmp/ccgCqJqT.s 			page 74


 830:Middlewares/lvgl/src/core/lv_obj_pos.c ****         if(lv_obj_has_flag(par, LV_OBJ_FLAG_HIDDEN)) return false; /*If the parent is hidden then t
 2449              		.loc 1 830 11 is_stmt 0 view .LVU673
 2450 00be 48B1     		cbz	r0, .L110
 831:Middlewares/lvgl/src/core/lv_obj_pos.c **** 
 2451              		.loc 1 831 9 is_stmt 1 view .LVU674
 831:Middlewares/lvgl/src/core/lv_obj_pos.c **** 
 2452              		.loc 1 831 12 is_stmt 0 view .LVU675
 2453 00c0 0121     		movs	r1, #1
 2454 00c2 2046     		mov	r0, r4
 2455              	.LVL220:
 831:Middlewares/lvgl/src/core/lv_obj_pos.c **** 
 2456              		.loc 1 831 12 view .LVU676
 2457 00c4 FFF7FEFF 		bl	lv_obj_has_flag
 2458              	.LVL221:
 831:Middlewares/lvgl/src/core/lv_obj_pos.c **** 
 2459              		.loc 1 831 11 view .LVU677
 2460 00c8 30B9     		cbnz	r0, .L111
 833:Middlewares/lvgl/src/core/lv_obj_pos.c ****     }
 2461              		.loc 1 833 9 is_stmt 1 view .LVU678
 833:Middlewares/lvgl/src/core/lv_obj_pos.c ****     }
 2462              		.loc 1 833 15 is_stmt 0 view .LVU679
 2463 00ca 2046     		mov	r0, r4
 2464 00cc FFF7FEFF 		bl	lv_obj_get_parent
 2465              	.LVL222:
 2466 00d0 0446     		mov	r4, r0
 2467              	.LVL223:
 833:Middlewares/lvgl/src/core/lv_obj_pos.c ****     }
 2468              		.loc 1 833 15 view .LVU680
 2469 00d2 ECE7     		b	.L106
 2470              	.LVL224:
 2471              	.L110:
 830:Middlewares/lvgl/src/core/lv_obj_pos.c ****         if(lv_obj_has_flag(par, LV_OBJ_FLAG_HIDDEN)) return false; /*If the parent is hidden then t
 2472              		.loc 1 830 39 view .LVU681
 2473 00d4 0746     		mov	r7, r0
 2474 00d6 9DE7     		b	.L104
 2475              	.LVL225:
 2476              	.L111:
 831:Middlewares/lvgl/src/core/lv_obj_pos.c **** 
 2477              		.loc 1 831 61 view .LVU682
 2478 00d8 3746     		mov	r7, r6
 2479 00da 9BE7     		b	.L104
 2480              		.cfi_endproc
 2481              	.LFE188:
 2483              		.section	.text.lv_obj_invalidate_area,"ax",%progbits
 2484              		.align	1
 2485              		.global	lv_obj_invalidate_area
 2486              		.syntax unified
 2487              		.thumb
 2488              		.thumb_func
 2489              		.fpu softvfp
 2491              	lv_obj_invalidate_area:
 2492              	.LVL226:
 2493              	.LFB186:
 770:Middlewares/lvgl/src/core/lv_obj_pos.c ****     LV_ASSERT_OBJ(obj, MY_CLASS);
 2494              		.loc 1 770 1 is_stmt 1 view -0
 2495              		.cfi_startproc
 2496              		@ args = 0, pretend = 0, frame = 8
ARM GAS  /tmp/ccgCqJqT.s 			page 75


 2497              		@ frame_needed = 0, uses_anonymous_args = 0
 770:Middlewares/lvgl/src/core/lv_obj_pos.c ****     LV_ASSERT_OBJ(obj, MY_CLASS);
 2498              		.loc 1 770 1 is_stmt 0 view .LVU684
 2499 0000 10B5     		push	{r4, lr}
 2500              	.LCFI46:
 2501              		.cfi_def_cfa_offset 8
 2502              		.cfi_offset 4, -8
 2503              		.cfi_offset 14, -4
 2504 0002 82B0     		sub	sp, sp, #8
 2505              	.LCFI47:
 2506              		.cfi_def_cfa_offset 16
 2507 0004 0446     		mov	r4, r0
 771:Middlewares/lvgl/src/core/lv_obj_pos.c **** 
 2508              		.loc 1 771 5 is_stmt 1 view .LVU685
 771:Middlewares/lvgl/src/core/lv_obj_pos.c **** 
 2509              		.loc 1 771 5 view .LVU686
 771:Middlewares/lvgl/src/core/lv_obj_pos.c **** 
 2510              		.loc 1 771 5 view .LVU687
 773:Middlewares/lvgl/src/core/lv_obj_pos.c ****     lv_area_copy(&area_tmp, area);
 2511              		.loc 1 773 5 view .LVU688
 774:Middlewares/lvgl/src/core/lv_obj_pos.c ****     bool visible = lv_obj_area_is_visible(obj, &area_tmp);
 2512              		.loc 1 774 5 view .LVU689
 2513              	.LVL227:
 2514              	.LBB181:
 2515              	.LBI181:
 120:Middlewares/lvgl/src/core/../misc/../font/../misc/lv_area.h **** {
 2516              		.loc 3 120 20 view .LVU690
 2517              	.LBB182:
 122:Middlewares/lvgl/src/core/../misc/../font/../misc/lv_area.h ****     dest->y1 = src->y1;
 2518              		.loc 3 122 5 view .LVU691
 122:Middlewares/lvgl/src/core/../misc/../font/../misc/lv_area.h ****     dest->y1 = src->y1;
 2519              		.loc 3 122 19 is_stmt 0 view .LVU692
 2520 0006 B1F90030 		ldrsh	r3, [r1]
 122:Middlewares/lvgl/src/core/../misc/../font/../misc/lv_area.h ****     dest->y1 = src->y1;
 2521              		.loc 3 122 14 view .LVU693
 2522 000a ADF80030 		strh	r3, [sp]	@ movhi
 123:Middlewares/lvgl/src/core/../misc/../font/../misc/lv_area.h ****     dest->x2 = src->x2;
 2523              		.loc 3 123 5 is_stmt 1 view .LVU694
 123:Middlewares/lvgl/src/core/../misc/../font/../misc/lv_area.h ****     dest->x2 = src->x2;
 2524              		.loc 3 123 19 is_stmt 0 view .LVU695
 2525 000e B1F90230 		ldrsh	r3, [r1, #2]
 123:Middlewares/lvgl/src/core/../misc/../font/../misc/lv_area.h ****     dest->x2 = src->x2;
 2526              		.loc 3 123 14 view .LVU696
 2527 0012 ADF80230 		strh	r3, [sp, #2]	@ movhi
 124:Middlewares/lvgl/src/core/../misc/../font/../misc/lv_area.h ****     dest->y2 = src->y2;
 2528              		.loc 3 124 5 is_stmt 1 view .LVU697
 124:Middlewares/lvgl/src/core/../misc/../font/../misc/lv_area.h ****     dest->y2 = src->y2;
 2529              		.loc 3 124 19 is_stmt 0 view .LVU698
 2530 0016 B1F90430 		ldrsh	r3, [r1, #4]
 124:Middlewares/lvgl/src/core/../misc/../font/../misc/lv_area.h ****     dest->y2 = src->y2;
 2531              		.loc 3 124 14 view .LVU699
 2532 001a ADF80430 		strh	r3, [sp, #4]	@ movhi
 125:Middlewares/lvgl/src/core/../misc/../font/../misc/lv_area.h **** }
 2533              		.loc 3 125 5 is_stmt 1 view .LVU700
 125:Middlewares/lvgl/src/core/../misc/../font/../misc/lv_area.h **** }
 2534              		.loc 3 125 19 is_stmt 0 view .LVU701
 2535 001e B1F90630 		ldrsh	r3, [r1, #6]
ARM GAS  /tmp/ccgCqJqT.s 			page 76


 125:Middlewares/lvgl/src/core/../misc/../font/../misc/lv_area.h **** }
 2536              		.loc 3 125 14 view .LVU702
 2537 0022 ADF80630 		strh	r3, [sp, #6]	@ movhi
 2538              	.LVL228:
 125:Middlewares/lvgl/src/core/../misc/../font/../misc/lv_area.h **** }
 2539              		.loc 3 125 14 view .LVU703
 2540              	.LBE182:
 2541              	.LBE181:
 775:Middlewares/lvgl/src/core/lv_obj_pos.c **** 
 2542              		.loc 1 775 5 is_stmt 1 view .LVU704
 775:Middlewares/lvgl/src/core/lv_obj_pos.c **** 
 2543              		.loc 1 775 20 is_stmt 0 view .LVU705
 2544 0026 6946     		mov	r1, sp
 2545              	.LVL229:
 775:Middlewares/lvgl/src/core/lv_obj_pos.c **** 
 2546              		.loc 1 775 20 view .LVU706
 2547 0028 FFF7FEFF 		bl	lv_obj_area_is_visible
 2548              	.LVL230:
 777:Middlewares/lvgl/src/core/lv_obj_pos.c **** }
 2549              		.loc 1 777 5 is_stmt 1 view .LVU707
 777:Middlewares/lvgl/src/core/lv_obj_pos.c **** }
 2550              		.loc 1 777 7 is_stmt 0 view .LVU708
 2551 002c 08B9     		cbnz	r0, .L117
 2552              	.LVL231:
 2553              	.L114:
 778:Middlewares/lvgl/src/core/lv_obj_pos.c **** 
 2554              		.loc 1 778 1 view .LVU709
 2555 002e 02B0     		add	sp, sp, #8
 2556              	.LCFI48:
 2557              		.cfi_remember_state
 2558              		.cfi_def_cfa_offset 8
 2559              		@ sp needed
 2560 0030 10BD     		pop	{r4, pc}
 2561              	.LVL232:
 2562              	.L117:
 2563              	.LCFI49:
 2564              		.cfi_restore_state
 777:Middlewares/lvgl/src/core/lv_obj_pos.c **** }
 2565              		.loc 1 777 17 is_stmt 1 discriminator 1 view .LVU710
 2566 0032 2046     		mov	r0, r4
 2567              	.LVL233:
 777:Middlewares/lvgl/src/core/lv_obj_pos.c **** }
 2568              		.loc 1 777 17 is_stmt 0 discriminator 1 view .LVU711
 2569 0034 FFF7FEFF 		bl	lv_obj_get_disp
 2570              	.LVL234:
 2571 0038 6946     		mov	r1, sp
 2572 003a FFF7FEFF 		bl	_lv_inv_area
 2573              	.LVL235:
 778:Middlewares/lvgl/src/core/lv_obj_pos.c **** 
 2574              		.loc 1 778 1 discriminator 1 view .LVU712
 2575 003e F6E7     		b	.L114
 2576              		.cfi_endproc
 2577              	.LFE186:
 2579              		.section	.text.lv_obj_invalidate,"ax",%progbits
 2580              		.align	1
 2581              		.global	lv_obj_invalidate
 2582              		.syntax unified
ARM GAS  /tmp/ccgCqJqT.s 			page 77


 2583              		.thumb
 2584              		.thumb_func
 2585              		.fpu softvfp
 2587              	lv_obj_invalidate:
 2588              	.LVL236:
 2589              	.LFB187:
 781:Middlewares/lvgl/src/core/lv_obj_pos.c ****     LV_ASSERT_OBJ(obj, MY_CLASS);
 2590              		.loc 1 781 1 is_stmt 1 view -0
 2591              		.cfi_startproc
 2592              		@ args = 0, pretend = 0, frame = 8
 2593              		@ frame_needed = 0, uses_anonymous_args = 0
 781:Middlewares/lvgl/src/core/lv_obj_pos.c ****     LV_ASSERT_OBJ(obj, MY_CLASS);
 2594              		.loc 1 781 1 is_stmt 0 view .LVU714
 2595 0000 10B5     		push	{r4, lr}
 2596              	.LCFI50:
 2597              		.cfi_def_cfa_offset 8
 2598              		.cfi_offset 4, -8
 2599              		.cfi_offset 14, -4
 2600 0002 82B0     		sub	sp, sp, #8
 2601              	.LCFI51:
 2602              		.cfi_def_cfa_offset 16
 2603 0004 0446     		mov	r4, r0
 782:Middlewares/lvgl/src/core/lv_obj_pos.c **** 
 2604              		.loc 1 782 5 is_stmt 1 view .LVU715
 782:Middlewares/lvgl/src/core/lv_obj_pos.c **** 
 2605              		.loc 1 782 5 view .LVU716
 782:Middlewares/lvgl/src/core/lv_obj_pos.c **** 
 2606              		.loc 1 782 5 view .LVU717
 785:Middlewares/lvgl/src/core/lv_obj_pos.c ****     lv_coord_t ext_size = _lv_obj_get_ext_draw_size(obj);
 2607              		.loc 1 785 5 view .LVU718
 786:Middlewares/lvgl/src/core/lv_obj_pos.c ****     lv_area_copy(&obj_coords, &obj->coords);
 2608              		.loc 1 786 5 view .LVU719
 786:Middlewares/lvgl/src/core/lv_obj_pos.c ****     lv_area_copy(&obj_coords, &obj->coords);
 2609              		.loc 1 786 27 is_stmt 0 view .LVU720
 2610 0006 FFF7FEFF 		bl	_lv_obj_get_ext_draw_size
 2611              	.LVL237:
 787:Middlewares/lvgl/src/core/lv_obj_pos.c ****     obj_coords.x1 -= ext_size;
 2612              		.loc 1 787 5 is_stmt 1 view .LVU721
 2613              	.LBB183:
 2614              	.LBI183:
 120:Middlewares/lvgl/src/core/../misc/../font/../misc/lv_area.h **** {
 2615              		.loc 3 120 20 view .LVU722
 2616              	.LBB184:
 122:Middlewares/lvgl/src/core/../misc/../font/../misc/lv_area.h ****     dest->y1 = src->y1;
 2617              		.loc 3 122 5 view .LVU723
 122:Middlewares/lvgl/src/core/../misc/../font/../misc/lv_area.h ****     dest->y1 = src->y1;
 2618              		.loc 3 122 19 is_stmt 0 view .LVU724
 2619 000a B4F914C0 		ldrsh	ip, [r4, #20]
 122:Middlewares/lvgl/src/core/../misc/../font/../misc/lv_area.h ****     dest->y1 = src->y1;
 2620              		.loc 3 122 14 view .LVU725
 2621 000e ADF800C0 		strh	ip, [sp]	@ movhi
 123:Middlewares/lvgl/src/core/../misc/../font/../misc/lv_area.h ****     dest->x2 = src->x2;
 2622              		.loc 3 123 5 is_stmt 1 view .LVU726
 123:Middlewares/lvgl/src/core/../misc/../font/../misc/lv_area.h ****     dest->x2 = src->x2;
 2623              		.loc 3 123 19 is_stmt 0 view .LVU727
 2624 0012 B4F91610 		ldrsh	r1, [r4, #22]
 123:Middlewares/lvgl/src/core/../misc/../font/../misc/lv_area.h ****     dest->x2 = src->x2;
ARM GAS  /tmp/ccgCqJqT.s 			page 78


 2625              		.loc 3 123 14 view .LVU728
 2626 0016 ADF80210 		strh	r1, [sp, #2]	@ movhi
 124:Middlewares/lvgl/src/core/../misc/../font/../misc/lv_area.h ****     dest->y2 = src->y2;
 2627              		.loc 3 124 5 is_stmt 1 view .LVU729
 124:Middlewares/lvgl/src/core/../misc/../font/../misc/lv_area.h ****     dest->y2 = src->y2;
 2628              		.loc 3 124 19 is_stmt 0 view .LVU730
 2629 001a B4F91820 		ldrsh	r2, [r4, #24]
 124:Middlewares/lvgl/src/core/../misc/../font/../misc/lv_area.h ****     dest->y2 = src->y2;
 2630              		.loc 3 124 14 view .LVU731
 2631 001e ADF80420 		strh	r2, [sp, #4]	@ movhi
 125:Middlewares/lvgl/src/core/../misc/../font/../misc/lv_area.h **** }
 2632              		.loc 3 125 5 is_stmt 1 view .LVU732
 125:Middlewares/lvgl/src/core/../misc/../font/../misc/lv_area.h **** }
 2633              		.loc 3 125 19 is_stmt 0 view .LVU733
 2634 0022 B4F91AE0 		ldrsh	lr, [r4, #26]
 125:Middlewares/lvgl/src/core/../misc/../font/../misc/lv_area.h **** }
 2635              		.loc 3 125 14 view .LVU734
 2636 0026 ADF806E0 		strh	lr, [sp, #6]	@ movhi
 2637              	.LVL238:
 125:Middlewares/lvgl/src/core/../misc/../font/../misc/lv_area.h **** }
 2638              		.loc 3 125 14 view .LVU735
 2639              	.LBE184:
 2640              	.LBE183:
 788:Middlewares/lvgl/src/core/lv_obj_pos.c ****     obj_coords.y1 -= ext_size;
 2641              		.loc 1 788 5 is_stmt 1 view .LVU736
 788:Middlewares/lvgl/src/core/lv_obj_pos.c ****     obj_coords.y1 -= ext_size;
 2642              		.loc 1 788 19 is_stmt 0 view .LVU737
 2643 002a 83B2     		uxth	r3, r0
 2644 002c ACEB030C 		sub	ip, ip, r3
 2645 0030 ADF800C0 		strh	ip, [sp]	@ movhi
 789:Middlewares/lvgl/src/core/lv_obj_pos.c ****     obj_coords.x2 += ext_size;
 2646              		.loc 1 789 5 is_stmt 1 view .LVU738
 789:Middlewares/lvgl/src/core/lv_obj_pos.c ****     obj_coords.x2 += ext_size;
 2647              		.loc 1 789 19 is_stmt 0 view .LVU739
 2648 0034 C91A     		subs	r1, r1, r3
 2649 0036 ADF80210 		strh	r1, [sp, #2]	@ movhi
 790:Middlewares/lvgl/src/core/lv_obj_pos.c ****     obj_coords.y2 += ext_size;
 2650              		.loc 1 790 5 is_stmt 1 view .LVU740
 790:Middlewares/lvgl/src/core/lv_obj_pos.c ****     obj_coords.y2 += ext_size;
 2651              		.loc 1 790 19 is_stmt 0 view .LVU741
 2652 003a 1A44     		add	r2, r2, r3
 2653 003c ADF80420 		strh	r2, [sp, #4]	@ movhi
 791:Middlewares/lvgl/src/core/lv_obj_pos.c **** 
 2654              		.loc 1 791 5 is_stmt 1 view .LVU742
 791:Middlewares/lvgl/src/core/lv_obj_pos.c **** 
 2655              		.loc 1 791 19 is_stmt 0 view .LVU743
 2656 0040 7344     		add	r3, r3, lr
 2657 0042 ADF80630 		strh	r3, [sp, #6]	@ movhi
 793:Middlewares/lvgl/src/core/lv_obj_pos.c **** 
 2658              		.loc 1 793 5 is_stmt 1 view .LVU744
 2659 0046 6946     		mov	r1, sp
 2660 0048 2046     		mov	r0, r4
 2661              	.LVL239:
 793:Middlewares/lvgl/src/core/lv_obj_pos.c **** 
 2662              		.loc 1 793 5 is_stmt 0 view .LVU745
 2663 004a FFF7FEFF 		bl	lv_obj_invalidate_area
 2664              	.LVL240:
ARM GAS  /tmp/ccgCqJqT.s 			page 79


 795:Middlewares/lvgl/src/core/lv_obj_pos.c **** 
 2665              		.loc 1 795 1 view .LVU746
 2666 004e 02B0     		add	sp, sp, #8
 2667              	.LCFI52:
 2668              		.cfi_def_cfa_offset 8
 2669              		@ sp needed
 2670 0050 10BD     		pop	{r4, pc}
 795:Middlewares/lvgl/src/core/lv_obj_pos.c **** 
 2671              		.loc 1 795 1 view .LVU747
 2672              		.cfi_endproc
 2673              	.LFE187:
 2675              		.section	.text.lv_obj_move_to,"ax",%progbits
 2676              		.align	1
 2677              		.global	lv_obj_move_to
 2678              		.syntax unified
 2679              		.thumb
 2680              		.thumb_func
 2681              		.fpu softvfp
 2683              	lv_obj_move_to:
 2684              	.LVL241:
 2685              	.LFB184:
 681:Middlewares/lvgl/src/core/lv_obj_pos.c ****     /*Convert x and y to absolute coordinates*/
 2686              		.loc 1 681 1 is_stmt 1 view -0
 2687              		.cfi_startproc
 2688              		@ args = 0, pretend = 0, frame = 24
 2689              		@ frame_needed = 0, uses_anonymous_args = 0
 681:Middlewares/lvgl/src/core/lv_obj_pos.c ****     /*Convert x and y to absolute coordinates*/
 2690              		.loc 1 681 1 is_stmt 0 view .LVU749
 2691 0000 2DE9F04F 		push	{r4, r5, r6, r7, r8, r9, r10, fp, lr}
 2692              	.LCFI53:
 2693              		.cfi_def_cfa_offset 36
 2694              		.cfi_offset 4, -36
 2695              		.cfi_offset 5, -32
 2696              		.cfi_offset 6, -28
 2697              		.cfi_offset 7, -24
 2698              		.cfi_offset 8, -20
 2699              		.cfi_offset 9, -16
 2700              		.cfi_offset 10, -12
 2701              		.cfi_offset 11, -8
 2702              		.cfi_offset 14, -4
 2703 0004 87B0     		sub	sp, sp, #28
 2704              	.LCFI54:
 2705              		.cfi_def_cfa_offset 64
 2706 0006 0446     		mov	r4, r0
 2707 0008 0D46     		mov	r5, r1
 2708 000a 1646     		mov	r6, r2
 683:Middlewares/lvgl/src/core/lv_obj_pos.c **** 
 2709              		.loc 1 683 5 is_stmt 1 view .LVU750
 683:Middlewares/lvgl/src/core/lv_obj_pos.c **** 
 2710              		.loc 1 683 16 is_stmt 0 view .LVU751
 2711 000c 4768     		ldr	r7, [r0, #4]
 2712              	.LVL242:
 685:Middlewares/lvgl/src/core/lv_obj_pos.c ****         lv_coord_t pad_left = lv_obj_get_style_pad_left(parent, LV_PART_MAIN);
 2713              		.loc 1 685 5 is_stmt 1 view .LVU752
 685:Middlewares/lvgl/src/core/lv_obj_pos.c ****         lv_coord_t pad_left = lv_obj_get_style_pad_left(parent, LV_PART_MAIN);
 2714              		.loc 1 685 7 is_stmt 0 view .LVU753
 2715 000e 6FB3     		cbz	r7, .L121
ARM GAS  /tmp/ccgCqJqT.s 			page 80


 2716              	.LBB185:
 686:Middlewares/lvgl/src/core/lv_obj_pos.c ****         lv_coord_t pad_top = lv_obj_get_style_pad_top(parent, LV_PART_MAIN);
 2717              		.loc 1 686 9 is_stmt 1 view .LVU754
 2718              	.LVL243:
 2719              	.LBB186:
 2720              	.LBI186:
 103:Middlewares/lvgl/src/core/lv_obj_style_gen.h **** {
 2721              		.loc 2 103 26 view .LVU755
 2722              	.LBB187:
 105:Middlewares/lvgl/src/core/lv_obj_style_gen.h ****     return (lv_coord_t)v.num;
 2723              		.loc 2 105 5 view .LVU756
 105:Middlewares/lvgl/src/core/lv_obj_style_gen.h ****     return (lv_coord_t)v.num;
 2724              		.loc 2 105 26 is_stmt 0 view .LVU757
 2725 0010 41F21202 		movw	r2, #4114
 2726              	.LVL244:
 105:Middlewares/lvgl/src/core/lv_obj_style_gen.h ****     return (lv_coord_t)v.num;
 2727              		.loc 2 105 26 view .LVU758
 2728 0014 0021     		movs	r1, #0
 2729              	.LVL245:
 105:Middlewares/lvgl/src/core/lv_obj_style_gen.h ****     return (lv_coord_t)v.num;
 2730              		.loc 2 105 26 view .LVU759
 2731 0016 3846     		mov	r0, r7
 2732              	.LVL246:
 105:Middlewares/lvgl/src/core/lv_obj_style_gen.h ****     return (lv_coord_t)v.num;
 2733              		.loc 2 105 26 view .LVU760
 2734 0018 FFF7FEFF 		bl	lv_obj_get_style_prop
 2735              	.LVL247:
 2736 001c 8246     		mov	r10, r0
 106:Middlewares/lvgl/src/core/lv_obj_style_gen.h **** }
 2737              		.loc 2 106 5 is_stmt 1 view .LVU761
 106:Middlewares/lvgl/src/core/lv_obj_style_gen.h **** }
 2738              		.loc 2 106 12 is_stmt 0 view .LVU762
 2739 001e 0FFA80FB 		sxth	fp, r0
 2740              	.LVL248:
 106:Middlewares/lvgl/src/core/lv_obj_style_gen.h **** }
 2741              		.loc 2 106 12 view .LVU763
 2742              	.LBE187:
 2743              	.LBE186:
 687:Middlewares/lvgl/src/core/lv_obj_pos.c **** 
 2744              		.loc 1 687 9 is_stmt 1 view .LVU764
 2745              	.LBB188:
 2746              	.LBI188:
  91:Middlewares/lvgl/src/core/lv_obj_style_gen.h **** {
 2747              		.loc 2 91 26 view .LVU765
 2748              	.LBB189:
  93:Middlewares/lvgl/src/core/lv_obj_style_gen.h ****     return (lv_coord_t)v.num;
 2749              		.loc 2 93 5 view .LVU766
  93:Middlewares/lvgl/src/core/lv_obj_style_gen.h ****     return (lv_coord_t)v.num;
 2750              		.loc 2 93 26 is_stmt 0 view .LVU767
 2751 0022 41F21002 		movw	r2, #4112
 2752 0026 0021     		movs	r1, #0
 2753 0028 3846     		mov	r0, r7
 2754 002a FFF7FEFF 		bl	lv_obj_get_style_prop
 2755              	.LVL249:
 2756 002e 8146     		mov	r9, r0
  94:Middlewares/lvgl/src/core/lv_obj_style_gen.h **** }
 2757              		.loc 2 94 5 is_stmt 1 view .LVU768
ARM GAS  /tmp/ccgCqJqT.s 			page 81


  94:Middlewares/lvgl/src/core/lv_obj_style_gen.h **** }
 2758              		.loc 2 94 12 is_stmt 0 view .LVU769
 2759 0030 0FFA80F8 		sxth	r8, r0
 2760              	.LVL250:
  94:Middlewares/lvgl/src/core/lv_obj_style_gen.h **** }
 2761              		.loc 2 94 12 view .LVU770
 2762              	.LBE189:
 2763              	.LBE188:
 689:Middlewares/lvgl/src/core/lv_obj_pos.c ****             x += pad_left + parent->coords.x1;
 2764              		.loc 1 689 9 is_stmt 1 view .LVU771
 689:Middlewares/lvgl/src/core/lv_obj_pos.c ****             x += pad_left + parent->coords.x1;
 2765              		.loc 1 689 12 is_stmt 0 view .LVU772
 2766 0034 4FF48031 		mov	r1, #65536
 2767 0038 2046     		mov	r0, r4
 2768 003a FFF7FEFF 		bl	lv_obj_has_flag
 2769              	.LVL251:
 689:Middlewares/lvgl/src/core/lv_obj_pos.c ****             x += pad_left + parent->coords.x1;
 2770              		.loc 1 689 11 view .LVU773
 2771 003e 0028     		cmp	r0, #0
 2772 0040 3CD0     		beq	.L122
 690:Middlewares/lvgl/src/core/lv_obj_pos.c ****             y += pad_top + parent->coords.y1;
 2773              		.loc 1 690 13 is_stmt 1 view .LVU774
 690:Middlewares/lvgl/src/core/lv_obj_pos.c ****             y += pad_top + parent->coords.y1;
 2774              		.loc 1 690 43 is_stmt 0 view .LVU775
 2775 0042 B98A     		ldrh	r1, [r7, #20]
 690:Middlewares/lvgl/src/core/lv_obj_pos.c ****             y += pad_top + parent->coords.y1;
 2776              		.loc 1 690 27 view .LVU776
 2777 0044 5144     		add	r1, r1, r10
 2778 0046 89B2     		uxth	r1, r1
 690:Middlewares/lvgl/src/core/lv_obj_pos.c ****             y += pad_top + parent->coords.y1;
 2779              		.loc 1 690 15 view .LVU777
 2780 0048 0D44     		add	r5, r5, r1
 2781 004a 2DB2     		sxth	r5, r5
 2782              	.LVL252:
 691:Middlewares/lvgl/src/core/lv_obj_pos.c ****         } else {
 2783              		.loc 1 691 13 is_stmt 1 view .LVU778
 691:Middlewares/lvgl/src/core/lv_obj_pos.c ****         } else {
 2784              		.loc 1 691 42 is_stmt 0 view .LVU779
 2785 004c FA8A     		ldrh	r2, [r7, #22]
 691:Middlewares/lvgl/src/core/lv_obj_pos.c ****         } else {
 2786              		.loc 1 691 26 view .LVU780
 2787 004e 4A44     		add	r2, r2, r9
 2788 0050 92B2     		uxth	r2, r2
 691:Middlewares/lvgl/src/core/lv_obj_pos.c ****         } else {
 2789              		.loc 1 691 15 view .LVU781
 2790 0052 1644     		add	r6, r6, r2
 2791 0054 36B2     		sxth	r6, r6
 2792              	.LVL253:
 2793              	.L123:
 697:Middlewares/lvgl/src/core/lv_obj_pos.c ****         x += border_width;
 2794              		.loc 1 697 9 is_stmt 1 view .LVU782
 2795              	.LBB190:
 2796              	.LBI190:
 295:Middlewares/lvgl/src/core/lv_obj_style_gen.h **** {
 2797              		.loc 2 295 26 view .LVU783
 2798              	.LBB191:
 297:Middlewares/lvgl/src/core/lv_obj_style_gen.h ****     return (lv_coord_t)v.num;
ARM GAS  /tmp/ccgCqJqT.s 			page 82


 2799              		.loc 2 297 5 view .LVU784
 297:Middlewares/lvgl/src/core/lv_obj_style_gen.h ****     return (lv_coord_t)v.num;
 2800              		.loc 2 297 26 is_stmt 0 view .LVU785
 2801 0056 41F23202 		movw	r2, #4146
 2802 005a 0021     		movs	r1, #0
 2803 005c 3846     		mov	r0, r7
 2804 005e FFF7FEFF 		bl	lv_obj_get_style_prop
 2805              	.LVL254:
 2806              		.loc 2 298 5 is_stmt 1 view .LVU786
 2807              		.loc 2 298 5 is_stmt 0 view .LVU787
 2808              	.LBE191:
 2809              	.LBE190:
 698:Middlewares/lvgl/src/core/lv_obj_pos.c ****         y += border_width;
 2810              		.loc 1 698 9 is_stmt 1 view .LVU788
 698:Middlewares/lvgl/src/core/lv_obj_pos.c ****         y += border_width;
 2811              		.loc 1 698 11 is_stmt 0 view .LVU789
 2812 0062 80B2     		uxth	r0, r0
 698:Middlewares/lvgl/src/core/lv_obj_pos.c ****         y += border_width;
 2813              		.loc 1 698 11 view .LVU790
 2814 0064 0544     		add	r5, r5, r0
 2815              	.LVL255:
 698:Middlewares/lvgl/src/core/lv_obj_pos.c ****         y += border_width;
 2816              		.loc 1 698 11 view .LVU791
 2817 0066 2DB2     		sxth	r5, r5
 2818              	.LVL256:
 699:Middlewares/lvgl/src/core/lv_obj_pos.c ****     }
 2819              		.loc 1 699 9 is_stmt 1 view .LVU792
 699:Middlewares/lvgl/src/core/lv_obj_pos.c ****     }
 2820              		.loc 1 699 11 is_stmt 0 view .LVU793
 2821 0068 0644     		add	r6, r6, r0
 2822              	.LVL257:
 699:Middlewares/lvgl/src/core/lv_obj_pos.c ****     }
 2823              		.loc 1 699 11 view .LVU794
 2824 006a 36B2     		sxth	r6, r6
 2825              	.LVL258:
 2826              	.L121:
 699:Middlewares/lvgl/src/core/lv_obj_pos.c ****     }
 2827              		.loc 1 699 11 view .LVU795
 2828              	.LBE185:
 703:Middlewares/lvgl/src/core/lv_obj_pos.c ****     diff.x = x - obj->coords.x1;
 2829              		.loc 1 703 5 is_stmt 1 view .LVU796
 704:Middlewares/lvgl/src/core/lv_obj_pos.c ****     diff.y = y - obj->coords.y1;
 2830              		.loc 1 704 5 view .LVU797
 704:Middlewares/lvgl/src/core/lv_obj_pos.c ****     diff.y = y - obj->coords.y1;
 2831              		.loc 1 704 29 is_stmt 0 view .LVU798
 2832 006c A18A     		ldrh	r1, [r4, #20]
 704:Middlewares/lvgl/src/core/lv_obj_pos.c ****     diff.y = y - obj->coords.y1;
 2833              		.loc 1 704 16 view .LVU799
 2834 006e 6D1A     		subs	r5, r5, r1
 2835              	.LVL259:
 704:Middlewares/lvgl/src/core/lv_obj_pos.c ****     diff.y = y - obj->coords.y1;
 2836              		.loc 1 704 16 view .LVU800
 2837 0070 1FFA85F8 		uxth	r8, r5
 2838 0074 2DB2     		sxth	r5, r5
 704:Middlewares/lvgl/src/core/lv_obj_pos.c ****     diff.y = y - obj->coords.y1;
 2839              		.loc 1 704 12 view .LVU801
 2840 0076 ADF81450 		strh	r5, [sp, #20]	@ movhi
ARM GAS  /tmp/ccgCqJqT.s 			page 83


 705:Middlewares/lvgl/src/core/lv_obj_pos.c **** 
 2841              		.loc 1 705 5 is_stmt 1 view .LVU802
 705:Middlewares/lvgl/src/core/lv_obj_pos.c **** 
 2842              		.loc 1 705 29 is_stmt 0 view .LVU803
 2843 007a E28A     		ldrh	r2, [r4, #22]
 705:Middlewares/lvgl/src/core/lv_obj_pos.c **** 
 2844              		.loc 1 705 16 view .LVU804
 2845 007c B21A     		subs	r2, r6, r2
 2846 007e 1FFA82F9 		uxth	r9, r2
 2847 0082 16B2     		sxth	r6, r2
 2848              	.LVL260:
 705:Middlewares/lvgl/src/core/lv_obj_pos.c **** 
 2849              		.loc 1 705 12 view .LVU805
 2850 0084 ADF81660 		strh	r6, [sp, #22]	@ movhi
 710:Middlewares/lvgl/src/core/lv_obj_pos.c **** 
 2851              		.loc 1 710 5 is_stmt 1 view .LVU806
 710:Middlewares/lvgl/src/core/lv_obj_pos.c **** 
 2852              		.loc 1 710 7 is_stmt 0 view .LVU807
 2853 0088 0DB9     		cbnz	r5, .L124
 710:Middlewares/lvgl/src/core/lv_obj_pos.c **** 
 2854              		.loc 1 710 20 discriminator 1 view .LVU808
 2855 008a 002E     		cmp	r6, #0
 2856 008c 58D0     		beq	.L120
 2857              	.L124:
 713:Middlewares/lvgl/src/core/lv_obj_pos.c **** 
 2858              		.loc 1 713 5 is_stmt 1 view .LVU809
 2859 008e 2046     		mov	r0, r4
 2860 0090 FFF7FEFF 		bl	lv_obj_invalidate
 2861              	.LVL261:
 716:Middlewares/lvgl/src/core/lv_obj_pos.c ****     lv_obj_get_coords(obj, &ori);
 2862              		.loc 1 716 5 view .LVU810
 717:Middlewares/lvgl/src/core/lv_obj_pos.c **** 
 2863              		.loc 1 717 5 view .LVU811
 2864 0094 03A9     		add	r1, sp, #12
 2865 0096 2046     		mov	r0, r4
 2866 0098 FFF7FEFF 		bl	lv_obj_get_coords
 2867              	.LVL262:
 720:Middlewares/lvgl/src/core/lv_obj_pos.c ****     bool on1 = false;
 2868              		.loc 1 720 5 view .LVU812
 721:Middlewares/lvgl/src/core/lv_obj_pos.c ****     if(parent) {
 2869              		.loc 1 721 5 view .LVU813
 722:Middlewares/lvgl/src/core/lv_obj_pos.c ****         lv_obj_get_content_coords(parent, &parent_fit_area);
 2870              		.loc 1 722 5 view .LVU814
 722:Middlewares/lvgl/src/core/lv_obj_pos.c ****         lv_obj_get_content_coords(parent, &parent_fit_area);
 2871              		.loc 1 722 7 is_stmt 0 view .LVU815
 2872 009c 1FB3     		cbz	r7, .L130
 723:Middlewares/lvgl/src/core/lv_obj_pos.c **** 
 2873              		.loc 1 723 9 is_stmt 1 view .LVU816
 2874 009e 01A9     		add	r1, sp, #4
 2875 00a0 3846     		mov	r0, r7
 2876 00a2 FFF7FEFF 		bl	lv_obj_get_content_coords
 2877              	.LVL263:
 727:Middlewares/lvgl/src/core/lv_obj_pos.c ****         if(!on1) lv_obj_scrollbar_invalidate(parent);
 2878              		.loc 1 727 9 view .LVU817
 727:Middlewares/lvgl/src/core/lv_obj_pos.c ****         if(!on1) lv_obj_scrollbar_invalidate(parent);
 2879              		.loc 1 727 15 is_stmt 0 view .LVU818
 2880 00a6 0022     		movs	r2, #0
ARM GAS  /tmp/ccgCqJqT.s 			page 84


 2881 00a8 01A9     		add	r1, sp, #4
 2882 00aa 03A8     		add	r0, sp, #12
 2883 00ac FFF7FEFF 		bl	_lv_area_is_in
 2884              	.LVL264:
 728:Middlewares/lvgl/src/core/lv_obj_pos.c ****     }
 2885              		.loc 1 728 9 is_stmt 1 view .LVU819
 728:Middlewares/lvgl/src/core/lv_obj_pos.c ****     }
 2886              		.loc 1 728 11 is_stmt 0 view .LVU820
 2887 00b0 8246     		mov	r10, r0
 2888 00b2 D0B9     		cbnz	r0, .L126
 728:Middlewares/lvgl/src/core/lv_obj_pos.c ****     }
 2889              		.loc 1 728 18 is_stmt 1 discriminator 1 view .LVU821
 2890 00b4 3846     		mov	r0, r7
 2891              	.LVL265:
 728:Middlewares/lvgl/src/core/lv_obj_pos.c ****     }
 2892              		.loc 1 728 18 is_stmt 0 discriminator 1 view .LVU822
 2893 00b6 FFF7FEFF 		bl	lv_obj_scrollbar_invalidate
 2894              	.LVL266:
 2895 00ba 16E0     		b	.L126
 2896              	.LVL267:
 2897              	.L122:
 2898              	.LBB192:
 693:Middlewares/lvgl/src/core/lv_obj_pos.c ****             y += pad_top + parent->coords.y1 - lv_obj_get_scroll_y(parent);
 2899              		.loc 1 693 13 is_stmt 1 view .LVU823
 693:Middlewares/lvgl/src/core/lv_obj_pos.c ****             y += pad_top + parent->coords.y1 - lv_obj_get_scroll_y(parent);
 2900              		.loc 1 693 43 is_stmt 0 view .LVU824
 2901 00bc B7F91430 		ldrsh	r3, [r7, #20]
 693:Middlewares/lvgl/src/core/lv_obj_pos.c ****             y += pad_top + parent->coords.y1 - lv_obj_get_scroll_y(parent);
 2902              		.loc 1 693 27 view .LVU825
 2903 00c0 9B44     		add	fp, fp, r3
 2904              	.LVL268:
 693:Middlewares/lvgl/src/core/lv_obj_pos.c ****             y += pad_top + parent->coords.y1 - lv_obj_get_scroll_y(parent);
 2905              		.loc 1 693 49 view .LVU826
 2906 00c2 3846     		mov	r0, r7
 2907 00c4 FFF7FEFF 		bl	lv_obj_get_scroll_x
 2908              	.LVL269:
 693:Middlewares/lvgl/src/core/lv_obj_pos.c ****             y += pad_top + parent->coords.y1 - lv_obj_get_scroll_y(parent);
 2909              		.loc 1 693 47 view .LVU827
 2910 00c8 ABEB000B 		sub	fp, fp, r0
 693:Middlewares/lvgl/src/core/lv_obj_pos.c ****             y += pad_top + parent->coords.y1 - lv_obj_get_scroll_y(parent);
 2911              		.loc 1 693 15 view .LVU828
 2912 00cc 5D44     		add	r5, r5, fp
 2913 00ce 2DB2     		sxth	r5, r5
 2914              	.LVL270:
 694:Middlewares/lvgl/src/core/lv_obj_pos.c ****         }
 2915              		.loc 1 694 13 is_stmt 1 view .LVU829
 694:Middlewares/lvgl/src/core/lv_obj_pos.c ****         }
 2916              		.loc 1 694 42 is_stmt 0 view .LVU830
 2917 00d0 B7F91630 		ldrsh	r3, [r7, #22]
 694:Middlewares/lvgl/src/core/lv_obj_pos.c ****         }
 2918              		.loc 1 694 26 view .LVU831
 2919 00d4 9844     		add	r8, r8, r3
 2920              	.LVL271:
 694:Middlewares/lvgl/src/core/lv_obj_pos.c ****         }
 2921              		.loc 1 694 48 view .LVU832
 2922 00d6 3846     		mov	r0, r7
 2923 00d8 FFF7FEFF 		bl	lv_obj_get_scroll_y
ARM GAS  /tmp/ccgCqJqT.s 			page 85


 2924              	.LVL272:
 694:Middlewares/lvgl/src/core/lv_obj_pos.c ****         }
 2925              		.loc 1 694 46 view .LVU833
 2926 00dc A8EB0008 		sub	r8, r8, r0
 694:Middlewares/lvgl/src/core/lv_obj_pos.c ****         }
 2927              		.loc 1 694 15 view .LVU834
 2928 00e0 4644     		add	r6, r6, r8
 2929 00e2 36B2     		sxth	r6, r6
 2930              	.LVL273:
 694:Middlewares/lvgl/src/core/lv_obj_pos.c ****         }
 2931              		.loc 1 694 15 view .LVU835
 2932 00e4 B7E7     		b	.L123
 2933              	.LVL274:
 2934              	.L130:
 694:Middlewares/lvgl/src/core/lv_obj_pos.c ****         }
 2935              		.loc 1 694 15 view .LVU836
 2936              	.LBE192:
 721:Middlewares/lvgl/src/core/lv_obj_pos.c ****     if(parent) {
 2937              		.loc 1 721 10 view .LVU837
 2938 00e6 4FF0000A 		mov	r10, #0
 2939              	.LVL275:
 2940              	.L126:
 731:Middlewares/lvgl/src/core/lv_obj_pos.c ****     obj->coords.y1 += diff.y;
 2941              		.loc 1 731 5 is_stmt 1 view .LVU838
 731:Middlewares/lvgl/src/core/lv_obj_pos.c ****     obj->coords.y1 += diff.y;
 2942              		.loc 1 731 20 is_stmt 0 view .LVU839
 2943 00ea A38A     		ldrh	r3, [r4, #20]
 2944 00ec 4344     		add	r3, r3, r8
 2945 00ee A382     		strh	r3, [r4, #20]	@ movhi
 732:Middlewares/lvgl/src/core/lv_obj_pos.c ****     obj->coords.x2 += diff.x;
 2946              		.loc 1 732 5 is_stmt 1 view .LVU840
 732:Middlewares/lvgl/src/core/lv_obj_pos.c ****     obj->coords.x2 += diff.x;
 2947              		.loc 1 732 20 is_stmt 0 view .LVU841
 2948 00f0 E38A     		ldrh	r3, [r4, #22]
 2949 00f2 4B44     		add	r3, r3, r9
 2950 00f4 E382     		strh	r3, [r4, #22]	@ movhi
 733:Middlewares/lvgl/src/core/lv_obj_pos.c ****     obj->coords.y2 += diff.y;
 2951              		.loc 1 733 5 is_stmt 1 view .LVU842
 733:Middlewares/lvgl/src/core/lv_obj_pos.c ****     obj->coords.y2 += diff.y;
 2952              		.loc 1 733 20 is_stmt 0 view .LVU843
 2953 00f6 238B     		ldrh	r3, [r4, #24]
 2954 00f8 9844     		add	r8, r8, r3
 2955 00fa A4F81880 		strh	r8, [r4, #24]	@ movhi
 734:Middlewares/lvgl/src/core/lv_obj_pos.c **** 
 2956              		.loc 1 734 5 is_stmt 1 view .LVU844
 734:Middlewares/lvgl/src/core/lv_obj_pos.c **** 
 2957              		.loc 1 734 20 is_stmt 0 view .LVU845
 2958 00fe 638B     		ldrh	r3, [r4, #26]
 2959 0100 9944     		add	r9, r9, r3
 2960 0102 A4F81A90 		strh	r9, [r4, #26]	@ movhi
 736:Middlewares/lvgl/src/core/lv_obj_pos.c **** 
 2961              		.loc 1 736 5 is_stmt 1 view .LVU846
 2962 0106 0023     		movs	r3, #0
 2963 0108 3246     		mov	r2, r6
 2964 010a 2946     		mov	r1, r5
 2965 010c 2046     		mov	r0, r4
 2966 010e FFF7FEFF 		bl	lv_obj_move_children_by
ARM GAS  /tmp/ccgCqJqT.s 			page 86


 2967              	.LVL276:
 739:Middlewares/lvgl/src/core/lv_obj_pos.c **** 
 2968              		.loc 1 739 5 view .LVU847
 739:Middlewares/lvgl/src/core/lv_obj_pos.c **** 
 2969              		.loc 1 739 7 is_stmt 0 view .LVU848
 2970 0112 27B1     		cbz	r7, .L127
 739:Middlewares/lvgl/src/core/lv_obj_pos.c **** 
 2971              		.loc 1 739 16 is_stmt 1 discriminator 1 view .LVU849
 2972 0114 2246     		mov	r2, r4
 2973 0116 2221     		movs	r1, #34
 2974 0118 3846     		mov	r0, r7
 2975 011a FFF7FEFF 		bl	lv_event_send
 2976              	.LVL277:
 2977              	.L127:
 742:Middlewares/lvgl/src/core/lv_obj_pos.c **** 
 2978              		.loc 1 742 5 view .LVU850
 2979 011e 2046     		mov	r0, r4
 2980 0120 FFF7FEFF 		bl	lv_obj_invalidate
 2981              	.LVL278:
 746:Middlewares/lvgl/src/core/lv_obj_pos.c ****         bool on2 = _lv_area_is_in(&obj->coords, &parent_fit_area, 0);
 2982              		.loc 1 746 5 view .LVU851
 746:Middlewares/lvgl/src/core/lv_obj_pos.c ****         bool on2 = _lv_area_is_in(&obj->coords, &parent_fit_area, 0);
 2983              		.loc 1 746 7 is_stmt 0 view .LVU852
 2984 0124 67B1     		cbz	r7, .L120
 2985              	.LBB193:
 747:Middlewares/lvgl/src/core/lv_obj_pos.c ****         if(on1 || (!on1 && on2)) lv_obj_scrollbar_invalidate(parent);
 2986              		.loc 1 747 9 is_stmt 1 view .LVU853
 747:Middlewares/lvgl/src/core/lv_obj_pos.c ****         if(on1 || (!on1 && on2)) lv_obj_scrollbar_invalidate(parent);
 2987              		.loc 1 747 20 is_stmt 0 view .LVU854
 2988 0126 0022     		movs	r2, #0
 2989 0128 01A9     		add	r1, sp, #4
 2990 012a 04F11400 		add	r0, r4, #20
 2991 012e FFF7FEFF 		bl	_lv_area_is_in
 2992              	.LVL279:
 748:Middlewares/lvgl/src/core/lv_obj_pos.c ****     }
 2993              		.loc 1 748 9 is_stmt 1 view .LVU855
 748:Middlewares/lvgl/src/core/lv_obj_pos.c ****     }
 2994              		.loc 1 748 11 is_stmt 0 view .LVU856
 2995 0132 BAF1000F 		cmp	r10, #0
 2996 0136 00D1     		bne	.L129
 748:Middlewares/lvgl/src/core/lv_obj_pos.c ****     }
 2997              		.loc 1 748 25 discriminator 2 view .LVU857
 2998 0138 10B1     		cbz	r0, .L120
 2999              	.L129:
 748:Middlewares/lvgl/src/core/lv_obj_pos.c ****     }
 3000              		.loc 1 748 34 is_stmt 1 discriminator 4 view .LVU858
 3001 013a 3846     		mov	r0, r7
 3002              	.LVL280:
 748:Middlewares/lvgl/src/core/lv_obj_pos.c ****     }
 3003              		.loc 1 748 34 is_stmt 0 discriminator 4 view .LVU859
 3004 013c FFF7FEFF 		bl	lv_obj_scrollbar_invalidate
 3005              	.LVL281:
 3006              	.L120:
 748:Middlewares/lvgl/src/core/lv_obj_pos.c ****     }
 3007              		.loc 1 748 34 discriminator 4 view .LVU860
 3008              	.LBE193:
 750:Middlewares/lvgl/src/core/lv_obj_pos.c **** 
ARM GAS  /tmp/ccgCqJqT.s 			page 87


 3009              		.loc 1 750 1 view .LVU861
 3010 0140 07B0     		add	sp, sp, #28
 3011              	.LCFI55:
 3012              		.cfi_def_cfa_offset 36
 3013              		@ sp needed
 3014 0142 BDE8F08F 		pop	{r4, r5, r6, r7, r8, r9, r10, fp, pc}
 750:Middlewares/lvgl/src/core/lv_obj_pos.c **** 
 3015              		.loc 1 750 1 view .LVU862
 3016              		.cfi_endproc
 3017              	.LFE184:
 3019              		.section	.text.lv_obj_refr_pos,"ax",%progbits
 3020              		.align	1
 3021              		.global	lv_obj_refr_pos
 3022              		.syntax unified
 3023              		.thumb
 3024              		.thumb_func
 3025              		.fpu softvfp
 3027              	lv_obj_refr_pos:
 3028              	.LVL282:
 3029              	.LFB183:
 602:Middlewares/lvgl/src/core/lv_obj_pos.c ****     if(lv_obj_is_layout_positioned(obj)) return;
 3030              		.loc 1 602 1 is_stmt 1 view -0
 3031              		.cfi_startproc
 3032              		@ args = 0, pretend = 0, frame = 16
 3033              		@ frame_needed = 0, uses_anonymous_args = 0
 602:Middlewares/lvgl/src/core/lv_obj_pos.c ****     if(lv_obj_is_layout_positioned(obj)) return;
 3034              		.loc 1 602 1 is_stmt 0 view .LVU864
 3035 0000 2DE9F04F 		push	{r4, r5, r6, r7, r8, r9, r10, fp, lr}
 3036              	.LCFI56:
 3037              		.cfi_def_cfa_offset 36
 3038              		.cfi_offset 4, -36
 3039              		.cfi_offset 5, -32
 3040              		.cfi_offset 6, -28
 3041              		.cfi_offset 7, -24
 3042              		.cfi_offset 8, -20
 3043              		.cfi_offset 9, -16
 3044              		.cfi_offset 10, -12
 3045              		.cfi_offset 11, -8
 3046              		.cfi_offset 14, -4
 3047 0004 85B0     		sub	sp, sp, #20
 3048              	.LCFI57:
 3049              		.cfi_def_cfa_offset 56
 3050 0006 0446     		mov	r4, r0
 603:Middlewares/lvgl/src/core/lv_obj_pos.c **** 
 3051              		.loc 1 603 5 is_stmt 1 view .LVU865
 603:Middlewares/lvgl/src/core/lv_obj_pos.c **** 
 3052              		.loc 1 603 8 is_stmt 0 view .LVU866
 3053 0008 FFF7FEFF 		bl	lv_obj_is_layout_positioned
 3054              	.LVL283:
 603:Middlewares/lvgl/src/core/lv_obj_pos.c **** 
 3055              		.loc 1 603 7 view .LVU867
 3056 000c 10B1     		cbz	r0, .L162
 3057              	.L132:
 678:Middlewares/lvgl/src/core/lv_obj_pos.c **** 
 3058              		.loc 1 678 1 view .LVU868
 3059 000e 05B0     		add	sp, sp, #20
 3060              	.LCFI58:
ARM GAS  /tmp/ccgCqJqT.s 			page 88


 3061              		.cfi_remember_state
 3062              		.cfi_def_cfa_offset 36
 3063              		@ sp needed
 3064 0010 BDE8F08F 		pop	{r4, r5, r6, r7, r8, r9, r10, fp, pc}
 3065              	.LVL284:
 3066              	.L162:
 3067              	.LCFI59:
 3068              		.cfi_restore_state
 605:Middlewares/lvgl/src/core/lv_obj_pos.c ****     lv_coord_t x = lv_obj_get_style_x(obj, LV_PART_MAIN);
 3069              		.loc 1 605 5 is_stmt 1 view .LVU869
 605:Middlewares/lvgl/src/core/lv_obj_pos.c ****     lv_coord_t x = lv_obj_get_style_x(obj, LV_PART_MAIN);
 3070              		.loc 1 605 25 is_stmt 0 view .LVU870
 3071 0014 2046     		mov	r0, r4
 3072 0016 FFF7FEFF 		bl	lv_obj_get_parent
 3073              	.LVL285:
 3074 001a 0746     		mov	r7, r0
 3075              	.LVL286:
 606:Middlewares/lvgl/src/core/lv_obj_pos.c ****     lv_coord_t y = lv_obj_get_style_y(obj, LV_PART_MAIN);
 3076              		.loc 1 606 5 is_stmt 1 view .LVU871
 3077              	.LBB194:
 3078              	.LBI194:
  37:Middlewares/lvgl/src/core/lv_obj_style_gen.h **** {
 3079              		.loc 2 37 26 view .LVU872
 3080              	.LBB195:
  39:Middlewares/lvgl/src/core/lv_obj_style_gen.h ****     return (lv_coord_t)v.num;
 3081              		.loc 2 39 5 view .LVU873
  39:Middlewares/lvgl/src/core/lv_obj_style_gen.h ****     return (lv_coord_t)v.num;
 3082              		.loc 2 39 26 is_stmt 0 view .LVU874
 3083 001c 41F20702 		movw	r2, #4103
 3084 0020 0021     		movs	r1, #0
 3085 0022 2046     		mov	r0, r4
 3086              	.LVL287:
  39:Middlewares/lvgl/src/core/lv_obj_style_gen.h ****     return (lv_coord_t)v.num;
 3087              		.loc 2 39 26 view .LVU875
 3088 0024 FFF7FEFF 		bl	lv_obj_get_style_prop
 3089              	.LVL288:
 3090 0028 8146     		mov	r9, r0
  40:Middlewares/lvgl/src/core/lv_obj_style_gen.h **** }
 3091              		.loc 2 40 5 is_stmt 1 view .LVU876
  40:Middlewares/lvgl/src/core/lv_obj_style_gen.h **** }
 3092              		.loc 2 40 12 is_stmt 0 view .LVU877
 3093 002a 05B2     		sxth	r5, r0
 3094              	.LVL289:
  40:Middlewares/lvgl/src/core/lv_obj_style_gen.h **** }
 3095              		.loc 2 40 12 view .LVU878
 3096              	.LBE195:
 3097              	.LBE194:
 607:Middlewares/lvgl/src/core/lv_obj_pos.c **** 
 3098              		.loc 1 607 5 is_stmt 1 view .LVU879
 3099              	.LBB196:
 3100              	.LBI196:
  43:Middlewares/lvgl/src/core/lv_obj_style_gen.h **** {
 3101              		.loc 2 43 26 view .LVU880
 3102              	.LBB197:
  45:Middlewares/lvgl/src/core/lv_obj_style_gen.h ****     return (lv_coord_t)v.num;
 3103              		.loc 2 45 5 view .LVU881
  45:Middlewares/lvgl/src/core/lv_obj_style_gen.h ****     return (lv_coord_t)v.num;
ARM GAS  /tmp/ccgCqJqT.s 			page 89


 3104              		.loc 2 45 26 is_stmt 0 view .LVU882
 3105 002c 41F20802 		movw	r2, #4104
 3106 0030 0021     		movs	r1, #0
 3107 0032 2046     		mov	r0, r4
 3108 0034 FFF7FEFF 		bl	lv_obj_get_style_prop
 3109              	.LVL290:
 3110 0038 8046     		mov	r8, r0
  46:Middlewares/lvgl/src/core/lv_obj_style_gen.h **** }
 3111              		.loc 2 46 5 is_stmt 1 view .LVU883
  46:Middlewares/lvgl/src/core/lv_obj_style_gen.h **** }
 3112              		.loc 2 46 12 is_stmt 0 view .LVU884
 3113 003a 06B2     		sxth	r6, r0
 3114              	.LVL291:
  46:Middlewares/lvgl/src/core/lv_obj_style_gen.h **** }
 3115              		.loc 2 46 12 view .LVU885
 3116              	.LBE197:
 3117              	.LBE196:
 609:Middlewares/lvgl/src/core/lv_obj_pos.c ****         lv_obj_move_to(obj, x, y);
 3118              		.loc 1 609 5 is_stmt 1 view .LVU886
 609:Middlewares/lvgl/src/core/lv_obj_pos.c ****         lv_obj_move_to(obj, x, y);
 3119              		.loc 1 609 7 is_stmt 0 view .LVU887
 3120 003c 002F     		cmp	r7, #0
 3121 003e 56D0     		beq	.L163
 615:Middlewares/lvgl/src/core/lv_obj_pos.c ****     lv_coord_t ph = lv_obj_get_content_height(parent);
 3122              		.loc 1 615 5 is_stmt 1 view .LVU888
 615:Middlewares/lvgl/src/core/lv_obj_pos.c ****     lv_coord_t ph = lv_obj_get_content_height(parent);
 3123              		.loc 1 615 21 is_stmt 0 view .LVU889
 3124 0040 3846     		mov	r0, r7
 3125 0042 FFF7FEFF 		bl	lv_obj_get_content_width
 3126              	.LVL292:
 3127 0046 0090     		str	r0, [sp]
 3128              	.LVL293:
 616:Middlewares/lvgl/src/core/lv_obj_pos.c ****     if(LV_COORD_IS_PCT(x)) x = (pw * LV_COORD_GET_PCT(x)) / 100;
 3129              		.loc 1 616 5 is_stmt 1 view .LVU890
 616:Middlewares/lvgl/src/core/lv_obj_pos.c ****     if(LV_COORD_IS_PCT(x)) x = (pw * LV_COORD_GET_PCT(x)) / 100;
 3130              		.loc 1 616 21 is_stmt 0 view .LVU891
 3131 0048 3846     		mov	r0, r7
 3132 004a FFF7FEFF 		bl	lv_obj_get_content_height
 3133              	.LVL294:
 3134 004e 0190     		str	r0, [sp, #4]
 3135              	.LVL295:
 617:Middlewares/lvgl/src/core/lv_obj_pos.c ****     if(LV_COORD_IS_PCT(y)) y = (ph * LV_COORD_GET_PCT(y)) / 100;
 3136              		.loc 1 617 5 is_stmt 1 view .LVU892
 617:Middlewares/lvgl/src/core/lv_obj_pos.c ****     if(LV_COORD_IS_PCT(y)) y = (ph * LV_COORD_GET_PCT(y)) / 100;
 3137              		.loc 1 617 8 is_stmt 0 view .LVU893
 3138 0050 09F4C049 		and	r9, r9, #24576
 617:Middlewares/lvgl/src/core/lv_obj_pos.c ****     if(LV_COORD_IS_PCT(y)) y = (ph * LV_COORD_GET_PCT(y)) / 100;
 3139              		.loc 1 617 7 view .LVU894
 3140 0054 B9F5005F 		cmp	r9, #8192
 3141 0058 4FD0     		beq	.L164
 3142              	.L135:
 618:Middlewares/lvgl/src/core/lv_obj_pos.c **** 
 3143              		.loc 1 618 5 is_stmt 1 view .LVU895
 618:Middlewares/lvgl/src/core/lv_obj_pos.c **** 
 3144              		.loc 1 618 8 is_stmt 0 view .LVU896
 3145 005a 08F4C048 		and	r8, r8, #24576
 618:Middlewares/lvgl/src/core/lv_obj_pos.c **** 
ARM GAS  /tmp/ccgCqJqT.s 			page 90


 3146              		.loc 1 618 7 view .LVU897
 3147 005e B8F5005F 		cmp	r8, #8192
 3148 0062 5FD0     		beq	.L165
 3149              	.L138:
 621:Middlewares/lvgl/src/core/lv_obj_pos.c ****     lv_coord_t tr_y = lv_obj_get_style_translate_y(obj, LV_PART_MAIN);
 3150              		.loc 1 621 5 is_stmt 1 view .LVU898
 3151              	.LVL296:
 3152              	.LBB198:
 3153              	.LBI198:
  67:Middlewares/lvgl/src/core/lv_obj_style_gen.h **** {
 3154              		.loc 2 67 26 view .LVU899
 3155              	.LBB199:
  69:Middlewares/lvgl/src/core/lv_obj_style_gen.h ****     return (lv_coord_t)v.num;
 3156              		.loc 2 69 5 view .LVU900
  69:Middlewares/lvgl/src/core/lv_obj_style_gen.h ****     return (lv_coord_t)v.num;
 3157              		.loc 2 69 26 is_stmt 0 view .LVU901
 3158 0064 43F20C02 		movw	r2, #12300
 3159 0068 0021     		movs	r1, #0
 3160 006a 2046     		mov	r0, r4
 3161 006c FFF7FEFF 		bl	lv_obj_get_style_prop
 3162              	.LVL297:
 3163 0070 8146     		mov	r9, r0
 3164              	.LVL298:
  70:Middlewares/lvgl/src/core/lv_obj_style_gen.h **** }
 3165              		.loc 2 70 5 is_stmt 1 view .LVU902
  70:Middlewares/lvgl/src/core/lv_obj_style_gen.h **** }
 3166              		.loc 2 70 12 is_stmt 0 view .LVU903
 3167 0072 0FFA80FB 		sxth	fp, r0
 3168              	.LVL299:
  70:Middlewares/lvgl/src/core/lv_obj_style_gen.h **** }
 3169              		.loc 2 70 12 view .LVU904
 3170              	.LBE199:
 3171              	.LBE198:
 622:Middlewares/lvgl/src/core/lv_obj_pos.c ****     lv_coord_t w = lv_obj_get_width(obj);
 3172              		.loc 1 622 5 is_stmt 1 view .LVU905
 3173              	.LBB200:
 3174              	.LBI200:
  73:Middlewares/lvgl/src/core/lv_obj_style_gen.h **** {
 3175              		.loc 2 73 26 view .LVU906
 3176              	.LBB201:
  75:Middlewares/lvgl/src/core/lv_obj_style_gen.h ****     return (lv_coord_t)v.num;
 3177              		.loc 2 75 5 view .LVU907
  75:Middlewares/lvgl/src/core/lv_obj_style_gen.h ****     return (lv_coord_t)v.num;
 3178              		.loc 2 75 26 is_stmt 0 view .LVU908
 3179 0076 43F20D02 		movw	r2, #12301
 3180 007a 0021     		movs	r1, #0
 3181 007c 2046     		mov	r0, r4
  75:Middlewares/lvgl/src/core/lv_obj_style_gen.h ****     return (lv_coord_t)v.num;
 3182              		.loc 2 75 26 view .LVU909
 3183 007e FFF7FEFF 		bl	lv_obj_get_style_prop
 3184              	.LVL300:
 3185 0082 8046     		mov	r8, r0
  76:Middlewares/lvgl/src/core/lv_obj_style_gen.h **** }
 3186              		.loc 2 76 5 is_stmt 1 view .LVU910
  76:Middlewares/lvgl/src/core/lv_obj_style_gen.h **** }
 3187              		.loc 2 76 12 is_stmt 0 view .LVU911
 3188 0084 0FFA80FA 		sxth	r10, r0
ARM GAS  /tmp/ccgCqJqT.s 			page 91


 3189              	.LVL301:
  76:Middlewares/lvgl/src/core/lv_obj_style_gen.h **** }
 3190              		.loc 2 76 12 view .LVU912
 3191              	.LBE201:
 3192              	.LBE200:
 623:Middlewares/lvgl/src/core/lv_obj_pos.c ****     lv_coord_t h = lv_obj_get_height(obj);
 3193              		.loc 1 623 5 is_stmt 1 view .LVU913
 623:Middlewares/lvgl/src/core/lv_obj_pos.c ****     lv_coord_t h = lv_obj_get_height(obj);
 3194              		.loc 1 623 20 is_stmt 0 view .LVU914
 3195 0088 2046     		mov	r0, r4
 3196 008a FFF7FEFF 		bl	lv_obj_get_width
 3197              	.LVL302:
 3198 008e 0290     		str	r0, [sp, #8]
 3199              	.LVL303:
 624:Middlewares/lvgl/src/core/lv_obj_pos.c ****     if(LV_COORD_IS_PCT(tr_x)) tr_x = (w * LV_COORD_GET_PCT(tr_x)) / 100;
 3200              		.loc 1 624 5 is_stmt 1 view .LVU915
 624:Middlewares/lvgl/src/core/lv_obj_pos.c ****     if(LV_COORD_IS_PCT(tr_x)) tr_x = (w * LV_COORD_GET_PCT(tr_x)) / 100;
 3201              		.loc 1 624 20 is_stmt 0 view .LVU916
 3202 0090 2046     		mov	r0, r4
 3203 0092 FFF7FEFF 		bl	lv_obj_get_height
 3204              	.LVL304:
 3205 0096 0390     		str	r0, [sp, #12]
 3206              	.LVL305:
 625:Middlewares/lvgl/src/core/lv_obj_pos.c ****     if(LV_COORD_IS_PCT(tr_y)) tr_y = (h * LV_COORD_GET_PCT(tr_y)) / 100;
 3207              		.loc 1 625 5 is_stmt 1 view .LVU917
 625:Middlewares/lvgl/src/core/lv_obj_pos.c ****     if(LV_COORD_IS_PCT(tr_y)) tr_y = (h * LV_COORD_GET_PCT(tr_y)) / 100;
 3208              		.loc 1 625 8 is_stmt 0 view .LVU918
 3209 0098 09F4C049 		and	r9, r9, #24576
 3210              	.LVL306:
 625:Middlewares/lvgl/src/core/lv_obj_pos.c ****     if(LV_COORD_IS_PCT(tr_y)) tr_y = (h * LV_COORD_GET_PCT(tr_y)) / 100;
 3211              		.loc 1 625 7 view .LVU919
 3212 009c B9F5005F 		cmp	r9, #8192
 3213 00a0 55D0     		beq	.L166
 3214              	.L141:
 626:Middlewares/lvgl/src/core/lv_obj_pos.c **** 
 3215              		.loc 1 626 5 is_stmt 1 view .LVU920
 626:Middlewares/lvgl/src/core/lv_obj_pos.c **** 
 3216              		.loc 1 626 8 is_stmt 0 view .LVU921
 3217 00a2 08F4C048 		and	r8, r8, #24576
 626:Middlewares/lvgl/src/core/lv_obj_pos.c **** 
 3218              		.loc 1 626 7 view .LVU922
 3219 00a6 B8F5005F 		cmp	r8, #8192
 3220 00aa 67D0     		beq	.L167
 3221              	.L144:
 629:Middlewares/lvgl/src/core/lv_obj_pos.c ****     y += tr_y;
 3222              		.loc 1 629 5 is_stmt 1 view .LVU923
 629:Middlewares/lvgl/src/core/lv_obj_pos.c ****     y += tr_y;
 3223              		.loc 1 629 7 is_stmt 0 view .LVU924
 3224 00ac 5D44     		add	r5, r5, fp
 3225              	.LVL307:
 629:Middlewares/lvgl/src/core/lv_obj_pos.c ****     y += tr_y;
 3226              		.loc 1 629 7 view .LVU925
 3227 00ae 1FFA85F8 		uxth	r8, r5
 3228 00b2 2DB2     		sxth	r5, r5
 3229              	.LVL308:
 630:Middlewares/lvgl/src/core/lv_obj_pos.c **** 
 3230              		.loc 1 630 5 is_stmt 1 view .LVU926
ARM GAS  /tmp/ccgCqJqT.s 			page 92


 630:Middlewares/lvgl/src/core/lv_obj_pos.c **** 
 3231              		.loc 1 630 7 is_stmt 0 view .LVU927
 3232 00b4 5644     		add	r6, r6, r10
 3233              	.LVL309:
 630:Middlewares/lvgl/src/core/lv_obj_pos.c **** 
 3234              		.loc 1 630 7 view .LVU928
 3235 00b6 1FFA86F9 		uxth	r9, r6
 3236 00ba 36B2     		sxth	r6, r6
 3237              	.LVL310:
 632:Middlewares/lvgl/src/core/lv_obj_pos.c **** 
 3238              		.loc 1 632 5 is_stmt 1 view .LVU929
 3239              	.LBB202:
 3240              	.LBI202:
  49:Middlewares/lvgl/src/core/lv_obj_style_gen.h **** {
 3241              		.loc 2 49 26 view .LVU930
 3242              	.LBB203:
  51:Middlewares/lvgl/src/core/lv_obj_style_gen.h ****     return (lv_align_t)v.num;
 3243              		.loc 2 51 5 view .LVU931
  51:Middlewares/lvgl/src/core/lv_obj_style_gen.h ****     return (lv_align_t)v.num;
 3244              		.loc 2 51 26 is_stmt 0 view .LVU932
 3245 00bc 41F20902 		movw	r2, #4105
 3246 00c0 0021     		movs	r1, #0
 3247 00c2 2046     		mov	r0, r4
 3248 00c4 FFF7FEFF 		bl	lv_obj_get_style_prop
 3249              	.LVL311:
  52:Middlewares/lvgl/src/core/lv_obj_style_gen.h **** }
 3250              		.loc 2 52 5 is_stmt 1 view .LVU933
  52:Middlewares/lvgl/src/core/lv_obj_style_gen.h **** }
 3251              		.loc 2 52 5 is_stmt 0 view .LVU934
 3252              	.LBE203:
 3253              	.LBE202:
 634:Middlewares/lvgl/src/core/lv_obj_pos.c ****         if(lv_obj_get_style_base_dir(parent, LV_PART_MAIN) == LV_BASE_DIR_RTL) align = LV_ALIGN_TOP
 3254              		.loc 1 634 5 is_stmt 1 view .LVU935
 634:Middlewares/lvgl/src/core/lv_obj_pos.c ****         if(lv_obj_get_style_base_dir(parent, LV_PART_MAIN) == LV_BASE_DIR_RTL) align = LV_ALIGN_TOP
 3255              		.loc 1 634 7 is_stmt 0 view .LVU936
 3256 00c8 10F0FF00 		ands	r0, r0, #255
 3257              	.LVL312:
 634:Middlewares/lvgl/src/core/lv_obj_pos.c ****         if(lv_obj_get_style_base_dir(parent, LV_PART_MAIN) == LV_BASE_DIR_RTL) align = LV_ALIGN_TOP
 3258              		.loc 1 634 7 view .LVU937
 3259 00cc 6DD0     		beq	.L168
 3260              	.LVL313:
 639:Middlewares/lvgl/src/core/lv_obj_pos.c ****         lv_obj_move_to(obj, x, y);
 3261              		.loc 1 639 5 is_stmt 1 view .LVU938
 639:Middlewares/lvgl/src/core/lv_obj_pos.c ****         lv_obj_move_to(obj, x, y);
 3262              		.loc 1 639 7 is_stmt 0 view .LVU939
 3263 00ce 0128     		cmp	r0, #1
 3264 00d0 74D0     		beq	.L149
 3265              	.LVL314:
 3266              	.L148:
 644:Middlewares/lvgl/src/core/lv_obj_pos.c ****         case LV_ALIGN_TOP_MID:
 3267              		.loc 1 644 9 is_stmt 1 view .LVU940
 3268 00d2 0238     		subs	r0, r0, #2
 3269 00d4 0728     		cmp	r0, #7
 3270 00d6 00F28580 		bhi	.L150
 3271 00da DFE810F0 		tbh	[pc, r0, lsl #1]
 3272              	.L152:
 3273 00de 7700     		.2byte	(.L159-.L152)/2
ARM GAS  /tmp/ccgCqJqT.s 			page 93


 3274 00e0 8900     		.2byte	(.L158-.L152)/2
 3275 00e2 9D00     		.2byte	(.L157-.L152)/2
 3276 00e4 A400     		.2byte	(.L156-.L152)/2
 3277 00e6 B700     		.2byte	(.L155-.L152)/2
 3278 00e8 9000     		.2byte	(.L154-.L152)/2
 3279 00ea C400     		.2byte	(.L153-.L152)/2
 3280 00ec D700     		.2byte	(.L151-.L152)/2
 3281              	.LVL315:
 3282              		.p2align 1
 3283              	.L163:
 610:Middlewares/lvgl/src/core/lv_obj_pos.c ****         return;
 3284              		.loc 1 610 9 view .LVU941
 3285 00ee 3246     		mov	r2, r6
 3286 00f0 2946     		mov	r1, r5
 3287 00f2 2046     		mov	r0, r4
 3288 00f4 FFF7FEFF 		bl	lv_obj_move_to
 3289              	.LVL316:
 611:Middlewares/lvgl/src/core/lv_obj_pos.c ****     }
 3290              		.loc 1 611 9 view .LVU942
 3291 00f8 89E7     		b	.L132
 3292              	.LVL317:
 3293              	.L164:
 617:Middlewares/lvgl/src/core/lv_obj_pos.c ****     if(LV_COORD_IS_PCT(y)) y = (ph * LV_COORD_GET_PCT(y)) / 100;
 3294              		.loc 1 617 8 is_stmt 0 discriminator 1 view .LVU943
 3295 00fa 25F4C043 		bic	r3, r5, #24576
 3296 00fe B3F5FA6F 		cmp	r3, #2000
 3297 0102 AADC     		bgt	.L135
 617:Middlewares/lvgl/src/core/lv_obj_pos.c ****     if(LV_COORD_IS_PCT(y)) y = (ph * LV_COORD_GET_PCT(y)) / 100;
 3298              		.loc 1 617 28 is_stmt 1 discriminator 2 view .LVU944
 617:Middlewares/lvgl/src/core/lv_obj_pos.c ****     if(LV_COORD_IS_PCT(y)) y = (ph * LV_COORD_GET_PCT(y)) / 100;
 3299              		.loc 1 617 38 is_stmt 0 discriminator 2 view .LVU945
 3300 0104 B3F57A7F 		cmp	r3, #1000
 3301 0108 01DD     		ble	.L137
 617:Middlewares/lvgl/src/core/lv_obj_pos.c ****     if(LV_COORD_IS_PCT(y)) y = (ph * LV_COORD_GET_PCT(y)) / 100;
 3302              		.loc 1 617 38 discriminator 3 view .LVU946
 3303 010a C3F57A73 		rsb	r3, r3, #1000
 3304              	.L137:
 617:Middlewares/lvgl/src/core/lv_obj_pos.c ****     if(LV_COORD_IS_PCT(y)) y = (ph * LV_COORD_GET_PCT(y)) / 100;
 3305              		.loc 1 617 36 discriminator 6 view .LVU947
 3306 010e 009A     		ldr	r2, [sp]
 3307 0110 02FB03F3 		mul	r3, r2, r3
 617:Middlewares/lvgl/src/core/lv_obj_pos.c ****     if(LV_COORD_IS_PCT(y)) y = (ph * LV_COORD_GET_PCT(y)) / 100;
 3308              		.loc 1 617 59 discriminator 6 view .LVU948
 3309 0114 6A4A     		ldr	r2, .L170
 3310 0116 82FB0312 		smull	r1, r2, r2, r3
 3311 011a DD17     		asrs	r5, r3, #31
 3312              	.LVL318:
 617:Middlewares/lvgl/src/core/lv_obj_pos.c ****     if(LV_COORD_IS_PCT(y)) y = (ph * LV_COORD_GET_PCT(y)) / 100;
 3313              		.loc 1 617 59 discriminator 6 view .LVU949
 3314 011c C5EB6215 		rsb	r5, r5, r2, asr #5
 617:Middlewares/lvgl/src/core/lv_obj_pos.c ****     if(LV_COORD_IS_PCT(y)) y = (ph * LV_COORD_GET_PCT(y)) / 100;
 3315              		.loc 1 617 30 discriminator 6 view .LVU950
 3316 0120 2DB2     		sxth	r5, r5
 3317              	.LVL319:
 617:Middlewares/lvgl/src/core/lv_obj_pos.c ****     if(LV_COORD_IS_PCT(y)) y = (ph * LV_COORD_GET_PCT(y)) / 100;
 3318              		.loc 1 617 30 discriminator 6 view .LVU951
 3319 0122 9AE7     		b	.L135
ARM GAS  /tmp/ccgCqJqT.s 			page 94


 3320              	.L165:
 618:Middlewares/lvgl/src/core/lv_obj_pos.c **** 
 3321              		.loc 1 618 8 discriminator 1 view .LVU952
 3322 0124 26F4C043 		bic	r3, r6, #24576
 3323 0128 B3F5FA6F 		cmp	r3, #2000
 3324 012c 9ADC     		bgt	.L138
 618:Middlewares/lvgl/src/core/lv_obj_pos.c **** 
 3325              		.loc 1 618 28 is_stmt 1 discriminator 2 view .LVU953
 618:Middlewares/lvgl/src/core/lv_obj_pos.c **** 
 3326              		.loc 1 618 38 is_stmt 0 discriminator 2 view .LVU954
 3327 012e B3F57A7F 		cmp	r3, #1000
 3328 0132 01DD     		ble	.L140
 618:Middlewares/lvgl/src/core/lv_obj_pos.c **** 
 3329              		.loc 1 618 38 discriminator 3 view .LVU955
 3330 0134 C3F57A73 		rsb	r3, r3, #1000
 3331              	.L140:
 618:Middlewares/lvgl/src/core/lv_obj_pos.c **** 
 3332              		.loc 1 618 36 discriminator 6 view .LVU956
 3333 0138 019A     		ldr	r2, [sp, #4]
 3334 013a 02FB03F3 		mul	r3, r2, r3
 618:Middlewares/lvgl/src/core/lv_obj_pos.c **** 
 3335              		.loc 1 618 59 discriminator 6 view .LVU957
 3336 013e 604A     		ldr	r2, .L170
 3337 0140 82FB0312 		smull	r1, r2, r2, r3
 3338 0144 DE17     		asrs	r6, r3, #31
 3339              	.LVL320:
 618:Middlewares/lvgl/src/core/lv_obj_pos.c **** 
 3340              		.loc 1 618 59 discriminator 6 view .LVU958
 3341 0146 C6EB6216 		rsb	r6, r6, r2, asr #5
 618:Middlewares/lvgl/src/core/lv_obj_pos.c **** 
 3342              		.loc 1 618 30 discriminator 6 view .LVU959
 3343 014a 36B2     		sxth	r6, r6
 3344              	.LVL321:
 618:Middlewares/lvgl/src/core/lv_obj_pos.c **** 
 3345              		.loc 1 618 30 discriminator 6 view .LVU960
 3346 014c 8AE7     		b	.L138
 3347              	.LVL322:
 3348              	.L166:
 625:Middlewares/lvgl/src/core/lv_obj_pos.c ****     if(LV_COORD_IS_PCT(tr_y)) tr_y = (h * LV_COORD_GET_PCT(tr_y)) / 100;
 3349              		.loc 1 625 8 discriminator 1 view .LVU961
 3350 014e 2BF4C043 		bic	r3, fp, #24576
 3351 0152 B3F5FA6F 		cmp	r3, #2000
 3352 0156 A4DC     		bgt	.L141
 625:Middlewares/lvgl/src/core/lv_obj_pos.c ****     if(LV_COORD_IS_PCT(tr_y)) tr_y = (h * LV_COORD_GET_PCT(tr_y)) / 100;
 3353              		.loc 1 625 31 is_stmt 1 discriminator 2 view .LVU962
 625:Middlewares/lvgl/src/core/lv_obj_pos.c ****     if(LV_COORD_IS_PCT(tr_y)) tr_y = (h * LV_COORD_GET_PCT(tr_y)) / 100;
 3354              		.loc 1 625 43 is_stmt 0 discriminator 2 view .LVU963
 3355 0158 B3F57A7F 		cmp	r3, #1000
 3356 015c 01DD     		ble	.L143
 625:Middlewares/lvgl/src/core/lv_obj_pos.c ****     if(LV_COORD_IS_PCT(tr_y)) tr_y = (h * LV_COORD_GET_PCT(tr_y)) / 100;
 3357              		.loc 1 625 43 discriminator 3 view .LVU964
 3358 015e C3F57A73 		rsb	r3, r3, #1000
 3359              	.L143:
 625:Middlewares/lvgl/src/core/lv_obj_pos.c ****     if(LV_COORD_IS_PCT(tr_y)) tr_y = (h * LV_COORD_GET_PCT(tr_y)) / 100;
 3360              		.loc 1 625 41 discriminator 6 view .LVU965
 3361 0162 029A     		ldr	r2, [sp, #8]
 3362 0164 02FB03F3 		mul	r3, r2, r3
ARM GAS  /tmp/ccgCqJqT.s 			page 95


 625:Middlewares/lvgl/src/core/lv_obj_pos.c ****     if(LV_COORD_IS_PCT(tr_y)) tr_y = (h * LV_COORD_GET_PCT(tr_y)) / 100;
 3363              		.loc 1 625 67 discriminator 6 view .LVU966
 3364 0168 554A     		ldr	r2, .L170
 3365 016a 82FB0312 		smull	r1, r2, r2, r3
 3366 016e 4FEAE37B 		asr	fp, r3, #31
 3367              	.LVL323:
 625:Middlewares/lvgl/src/core/lv_obj_pos.c ****     if(LV_COORD_IS_PCT(tr_y)) tr_y = (h * LV_COORD_GET_PCT(tr_y)) / 100;
 3368              		.loc 1 625 67 discriminator 6 view .LVU967
 3369 0172 CBEB621B 		rsb	fp, fp, r2, asr #5
 625:Middlewares/lvgl/src/core/lv_obj_pos.c ****     if(LV_COORD_IS_PCT(tr_y)) tr_y = (h * LV_COORD_GET_PCT(tr_y)) / 100;
 3370              		.loc 1 625 36 discriminator 6 view .LVU968
 3371 0176 0FFA8BFB 		sxth	fp, fp
 3372              	.LVL324:
 625:Middlewares/lvgl/src/core/lv_obj_pos.c ****     if(LV_COORD_IS_PCT(tr_y)) tr_y = (h * LV_COORD_GET_PCT(tr_y)) / 100;
 3373              		.loc 1 625 36 discriminator 6 view .LVU969
 3374 017a 92E7     		b	.L141
 3375              	.L167:
 626:Middlewares/lvgl/src/core/lv_obj_pos.c **** 
 3376              		.loc 1 626 8 discriminator 1 view .LVU970
 3377 017c 2AF4C043 		bic	r3, r10, #24576
 3378 0180 B3F5FA6F 		cmp	r3, #2000
 3379 0184 92DC     		bgt	.L144
 626:Middlewares/lvgl/src/core/lv_obj_pos.c **** 
 3380              		.loc 1 626 31 is_stmt 1 discriminator 2 view .LVU971
 626:Middlewares/lvgl/src/core/lv_obj_pos.c **** 
 3381              		.loc 1 626 43 is_stmt 0 discriminator 2 view .LVU972
 3382 0186 B3F57A7F 		cmp	r3, #1000
 3383 018a 01DD     		ble	.L146
 626:Middlewares/lvgl/src/core/lv_obj_pos.c **** 
 3384              		.loc 1 626 43 discriminator 3 view .LVU973
 3385 018c C3F57A73 		rsb	r3, r3, #1000
 3386              	.L146:
 626:Middlewares/lvgl/src/core/lv_obj_pos.c **** 
 3387              		.loc 1 626 41 discriminator 6 view .LVU974
 3388 0190 039A     		ldr	r2, [sp, #12]
 3389 0192 02FB03F3 		mul	r3, r2, r3
 626:Middlewares/lvgl/src/core/lv_obj_pos.c **** 
 3390              		.loc 1 626 67 discriminator 6 view .LVU975
 3391 0196 4A4A     		ldr	r2, .L170
 3392 0198 82FB0312 		smull	r1, r2, r2, r3
 3393 019c 4FEAE37A 		asr	r10, r3, #31
 3394              	.LVL325:
 626:Middlewares/lvgl/src/core/lv_obj_pos.c **** 
 3395              		.loc 1 626 67 discriminator 6 view .LVU976
 3396 01a0 CAEB621A 		rsb	r10, r10, r2, asr #5
 626:Middlewares/lvgl/src/core/lv_obj_pos.c **** 
 3397              		.loc 1 626 36 discriminator 6 view .LVU977
 3398 01a4 0FFA8AFA 		sxth	r10, r10
 3399              	.LVL326:
 626:Middlewares/lvgl/src/core/lv_obj_pos.c **** 
 3400              		.loc 1 626 36 discriminator 6 view .LVU978
 3401 01a8 80E7     		b	.L144
 3402              	.L168:
 635:Middlewares/lvgl/src/core/lv_obj_pos.c ****         else align = LV_ALIGN_TOP_LEFT;
 3403              		.loc 1 635 9 is_stmt 1 view .LVU979
 3404              	.LVL327:
 3405              	.LBB204:
ARM GAS  /tmp/ccgCqJqT.s 			page 96


 3406              	.LBI204:
 187:Middlewares/lvgl/src/core/lv_obj_style_gen.h **** {
 3407              		.loc 2 187 29 view .LVU980
 3408              	.LBB205:
 189:Middlewares/lvgl/src/core/lv_obj_style_gen.h ****     return (lv_base_dir_t)v.num;
 3409              		.loc 2 189 5 view .LVU981
 189:Middlewares/lvgl/src/core/lv_obj_style_gen.h ****     return (lv_base_dir_t)v.num;
 3410              		.loc 2 189 26 is_stmt 0 view .LVU982
 3411 01aa 41F26A42 		movw	r2, #5226
 3412 01ae 0021     		movs	r1, #0
 3413 01b0 3846     		mov	r0, r7
 3414 01b2 FFF7FEFF 		bl	lv_obj_get_style_prop
 3415              	.LVL328:
 190:Middlewares/lvgl/src/core/lv_obj_style_gen.h **** }
 3416              		.loc 2 190 5 is_stmt 1 view .LVU983
 190:Middlewares/lvgl/src/core/lv_obj_style_gen.h **** }
 3417              		.loc 2 190 12 is_stmt 0 view .LVU984
 3418 01b6 C0B2     		uxtb	r0, r0
 3419              	.LVL329:
 190:Middlewares/lvgl/src/core/lv_obj_style_gen.h **** }
 3420              		.loc 2 190 12 view .LVU985
 3421              	.LBE205:
 3422              	.LBE204:
 635:Middlewares/lvgl/src/core/lv_obj_pos.c ****         else align = LV_ALIGN_TOP_LEFT;
 3423              		.loc 1 635 11 view .LVU986
 3424 01b8 0128     		cmp	r0, #1
 3425 01ba 05D0     		beq	.L169
 3426              	.L149:
 640:Middlewares/lvgl/src/core/lv_obj_pos.c ****     }
 3427              		.loc 1 640 9 is_stmt 1 view .LVU987
 3428 01bc 3246     		mov	r2, r6
 3429 01be 2946     		mov	r1, r5
 3430 01c0 2046     		mov	r0, r4
 3431 01c2 FFF7FEFF 		bl	lv_obj_move_to
 3432              	.LVL330:
 3433 01c6 22E7     		b	.L132
 3434              	.L169:
 635:Middlewares/lvgl/src/core/lv_obj_pos.c ****         else align = LV_ALIGN_TOP_LEFT;
 3435              		.loc 1 635 86 is_stmt 0 view .LVU988
 3436 01c8 0320     		movs	r0, #3
 3437 01ca 82E7     		b	.L148
 3438              	.L159:
 646:Middlewares/lvgl/src/core/lv_obj_pos.c ****             break;
 3439              		.loc 1 646 13 is_stmt 1 view .LVU989
 646:Middlewares/lvgl/src/core/lv_obj_pos.c ****             break;
 3440              		.loc 1 646 25 is_stmt 0 view .LVU990
 3441 01cc 009B     		ldr	r3, [sp]
 3442 01ce 03EBD370 		add	r0, r3, r3, lsr #31
 3443 01d2 029B     		ldr	r3, [sp, #8]
 3444 01d4 03EBD375 		add	r5, r3, r3, lsr #31
 3445              	.LVL331:
 646:Middlewares/lvgl/src/core/lv_obj_pos.c ****             break;
 3446              		.loc 1 646 25 view .LVU991
 3447 01d8 6D10     		asrs	r5, r5, #1
 3448 01da C5EB6005 		rsb	r5, r5, r0, asr #1
 3449 01de ADB2     		uxth	r5, r5
 646:Middlewares/lvgl/src/core/lv_obj_pos.c ****             break;
ARM GAS  /tmp/ccgCqJqT.s 			page 97


 3450              		.loc 1 646 15 view .LVU992
 3451 01e0 4544     		add	r5, r5, r8
 3452 01e2 2DB2     		sxth	r5, r5
 3453              	.LVL332:
 647:Middlewares/lvgl/src/core/lv_obj_pos.c ****         case LV_ALIGN_TOP_RIGHT:
 3454              		.loc 1 647 13 is_stmt 1 view .LVU993
 3455              	.L150:
 676:Middlewares/lvgl/src/core/lv_obj_pos.c ****     }
 3456              		.loc 1 676 9 view .LVU994
 3457 01e4 3246     		mov	r2, r6
 3458 01e6 2946     		mov	r1, r5
 3459 01e8 2046     		mov	r0, r4
 3460 01ea FFF7FEFF 		bl	lv_obj_move_to
 3461              	.LVL333:
 3462 01ee 0EE7     		b	.L132
 3463              	.L158:
 649:Middlewares/lvgl/src/core/lv_obj_pos.c ****             break;
 3464              		.loc 1 649 13 view .LVU995
 649:Middlewares/lvgl/src/core/lv_obj_pos.c ****             break;
 3465              		.loc 1 649 21 is_stmt 0 view .LVU996
 3466 01f0 009B     		ldr	r3, [sp]
 3467 01f2 029A     		ldr	r2, [sp, #8]
 3468 01f4 9D1A     		subs	r5, r3, r2
 3469              	.LVL334:
 649:Middlewares/lvgl/src/core/lv_obj_pos.c ****             break;
 3470              		.loc 1 649 21 view .LVU997
 3471 01f6 ADB2     		uxth	r5, r5
 649:Middlewares/lvgl/src/core/lv_obj_pos.c ****             break;
 3472              		.loc 1 649 15 view .LVU998
 3473 01f8 4544     		add	r5, r5, r8
 3474 01fa 2DB2     		sxth	r5, r5
 3475              	.LVL335:
 650:Middlewares/lvgl/src/core/lv_obj_pos.c ****         case LV_ALIGN_LEFT_MID:
 3476              		.loc 1 650 13 is_stmt 1 view .LVU999
 3477 01fc F2E7     		b	.L150
 3478              	.L154:
 652:Middlewares/lvgl/src/core/lv_obj_pos.c ****             break;
 3479              		.loc 1 652 13 view .LVU1000
 652:Middlewares/lvgl/src/core/lv_obj_pos.c ****             break;
 3480              		.loc 1 652 25 is_stmt 0 view .LVU1001
 3481 01fe 019B     		ldr	r3, [sp, #4]
 3482 0200 03EBD370 		add	r0, r3, r3, lsr #31
 3483 0204 039B     		ldr	r3, [sp, #12]
 3484 0206 03EBD376 		add	r6, r3, r3, lsr #31
 3485              	.LVL336:
 652:Middlewares/lvgl/src/core/lv_obj_pos.c ****             break;
 3486              		.loc 1 652 25 view .LVU1002
 3487 020a 7610     		asrs	r6, r6, #1
 3488 020c C6EB6006 		rsb	r6, r6, r0, asr #1
 3489 0210 B6B2     		uxth	r6, r6
 652:Middlewares/lvgl/src/core/lv_obj_pos.c ****             break;
 3490              		.loc 1 652 15 view .LVU1003
 3491 0212 4E44     		add	r6, r6, r9
 3492 0214 36B2     		sxth	r6, r6
 3493              	.LVL337:
 653:Middlewares/lvgl/src/core/lv_obj_pos.c ****         case LV_ALIGN_BOTTOM_LEFT:
 3494              		.loc 1 653 13 is_stmt 1 view .LVU1004
ARM GAS  /tmp/ccgCqJqT.s 			page 98


 3495 0216 E5E7     		b	.L150
 3496              	.L157:
 655:Middlewares/lvgl/src/core/lv_obj_pos.c ****             break;
 3497              		.loc 1 655 13 view .LVU1005
 655:Middlewares/lvgl/src/core/lv_obj_pos.c ****             break;
 3498              		.loc 1 655 21 is_stmt 0 view .LVU1006
 3499 0218 019B     		ldr	r3, [sp, #4]
 3500 021a 039A     		ldr	r2, [sp, #12]
 3501 021c 9E1A     		subs	r6, r3, r2
 3502              	.LVL338:
 655:Middlewares/lvgl/src/core/lv_obj_pos.c ****             break;
 3503              		.loc 1 655 21 view .LVU1007
 3504 021e B6B2     		uxth	r6, r6
 655:Middlewares/lvgl/src/core/lv_obj_pos.c ****             break;
 3505              		.loc 1 655 15 view .LVU1008
 3506 0220 4E44     		add	r6, r6, r9
 3507 0222 36B2     		sxth	r6, r6
 3508              	.LVL339:
 656:Middlewares/lvgl/src/core/lv_obj_pos.c ****         case LV_ALIGN_BOTTOM_MID:
 3509              		.loc 1 656 13 is_stmt 1 view .LVU1009
 3510 0224 DEE7     		b	.L150
 3511              	.L156:
 658:Middlewares/lvgl/src/core/lv_obj_pos.c ****             y += ph - h;
 3512              		.loc 1 658 13 view .LVU1010
 658:Middlewares/lvgl/src/core/lv_obj_pos.c ****             y += ph - h;
 3513              		.loc 1 658 25 is_stmt 0 view .LVU1011
 3514 0226 009B     		ldr	r3, [sp]
 3515 0228 03EBD370 		add	r0, r3, r3, lsr #31
 3516 022c 029B     		ldr	r3, [sp, #8]
 3517 022e 03EBD375 		add	r5, r3, r3, lsr #31
 3518              	.LVL340:
 658:Middlewares/lvgl/src/core/lv_obj_pos.c ****             y += ph - h;
 3519              		.loc 1 658 25 view .LVU1012
 3520 0232 6D10     		asrs	r5, r5, #1
 3521 0234 C5EB6005 		rsb	r5, r5, r0, asr #1
 3522 0238 ADB2     		uxth	r5, r5
 658:Middlewares/lvgl/src/core/lv_obj_pos.c ****             y += ph - h;
 3523              		.loc 1 658 15 view .LVU1013
 3524 023a 4544     		add	r5, r5, r8
 3525 023c 2DB2     		sxth	r5, r5
 3526              	.LVL341:
 659:Middlewares/lvgl/src/core/lv_obj_pos.c ****             break;
 3527              		.loc 1 659 13 is_stmt 1 view .LVU1014
 659:Middlewares/lvgl/src/core/lv_obj_pos.c ****             break;
 3528              		.loc 1 659 21 is_stmt 0 view .LVU1015
 3529 023e 019B     		ldr	r3, [sp, #4]
 3530 0240 039A     		ldr	r2, [sp, #12]
 3531 0242 9E1A     		subs	r6, r3, r2
 3532              	.LVL342:
 659:Middlewares/lvgl/src/core/lv_obj_pos.c ****             break;
 3533              		.loc 1 659 21 view .LVU1016
 3534 0244 B6B2     		uxth	r6, r6
 659:Middlewares/lvgl/src/core/lv_obj_pos.c ****             break;
 3535              		.loc 1 659 15 view .LVU1017
 3536 0246 4E44     		add	r6, r6, r9
 3537 0248 36B2     		sxth	r6, r6
 3538              	.LVL343:
ARM GAS  /tmp/ccgCqJqT.s 			page 99


 660:Middlewares/lvgl/src/core/lv_obj_pos.c ****         case LV_ALIGN_BOTTOM_RIGHT:
 3539              		.loc 1 660 13 is_stmt 1 view .LVU1018
 3540 024a CBE7     		b	.L150
 3541              	.L155:
 662:Middlewares/lvgl/src/core/lv_obj_pos.c ****             y += ph - h;
 3542              		.loc 1 662 13 view .LVU1019
 662:Middlewares/lvgl/src/core/lv_obj_pos.c ****             y += ph - h;
 3543              		.loc 1 662 21 is_stmt 0 view .LVU1020
 3544 024c 009B     		ldr	r3, [sp]
 3545 024e 029A     		ldr	r2, [sp, #8]
 3546 0250 9D1A     		subs	r5, r3, r2
 3547              	.LVL344:
 662:Middlewares/lvgl/src/core/lv_obj_pos.c ****             y += ph - h;
 3548              		.loc 1 662 21 view .LVU1021
 3549 0252 ADB2     		uxth	r5, r5
 662:Middlewares/lvgl/src/core/lv_obj_pos.c ****             y += ph - h;
 3550              		.loc 1 662 15 view .LVU1022
 3551 0254 4544     		add	r5, r5, r8
 3552 0256 2DB2     		sxth	r5, r5
 3553              	.LVL345:
 663:Middlewares/lvgl/src/core/lv_obj_pos.c ****             break;
 3554              		.loc 1 663 13 is_stmt 1 view .LVU1023
 663:Middlewares/lvgl/src/core/lv_obj_pos.c ****             break;
 3555              		.loc 1 663 21 is_stmt 0 view .LVU1024
 3556 0258 019B     		ldr	r3, [sp, #4]
 3557 025a 039A     		ldr	r2, [sp, #12]
 3558 025c 9E1A     		subs	r6, r3, r2
 3559              	.LVL346:
 663:Middlewares/lvgl/src/core/lv_obj_pos.c ****             break;
 3560              		.loc 1 663 21 view .LVU1025
 3561 025e B6B2     		uxth	r6, r6
 663:Middlewares/lvgl/src/core/lv_obj_pos.c ****             break;
 3562              		.loc 1 663 15 view .LVU1026
 3563 0260 4E44     		add	r6, r6, r9
 3564 0262 36B2     		sxth	r6, r6
 3565              	.LVL347:
 664:Middlewares/lvgl/src/core/lv_obj_pos.c ****         case LV_ALIGN_RIGHT_MID:
 3566              		.loc 1 664 13 is_stmt 1 view .LVU1027
 3567 0264 BEE7     		b	.L150
 3568              	.L153:
 666:Middlewares/lvgl/src/core/lv_obj_pos.c ****             y += ph / 2 - h / 2;
 3569              		.loc 1 666 13 view .LVU1028
 666:Middlewares/lvgl/src/core/lv_obj_pos.c ****             y += ph / 2 - h / 2;
 3570              		.loc 1 666 21 is_stmt 0 view .LVU1029
 3571 0266 009B     		ldr	r3, [sp]
 3572 0268 029A     		ldr	r2, [sp, #8]
 3573 026a 9D1A     		subs	r5, r3, r2
 3574              	.LVL348:
 666:Middlewares/lvgl/src/core/lv_obj_pos.c ****             y += ph / 2 - h / 2;
 3575              		.loc 1 666 21 view .LVU1030
 3576 026c ADB2     		uxth	r5, r5
 666:Middlewares/lvgl/src/core/lv_obj_pos.c ****             y += ph / 2 - h / 2;
 3577              		.loc 1 666 15 view .LVU1031
 3578 026e 4544     		add	r5, r5, r8
 3579 0270 2DB2     		sxth	r5, r5
 3580              	.LVL349:
 667:Middlewares/lvgl/src/core/lv_obj_pos.c ****             break;
ARM GAS  /tmp/ccgCqJqT.s 			page 100


 3581              		.loc 1 667 13 is_stmt 1 view .LVU1032
 667:Middlewares/lvgl/src/core/lv_obj_pos.c ****             break;
 3582              		.loc 1 667 25 is_stmt 0 view .LVU1033
 3583 0272 019B     		ldr	r3, [sp, #4]
 3584 0274 03EBD370 		add	r0, r3, r3, lsr #31
 3585 0278 039B     		ldr	r3, [sp, #12]
 3586 027a 03EBD376 		add	r6, r3, r3, lsr #31
 3587              	.LVL350:
 667:Middlewares/lvgl/src/core/lv_obj_pos.c ****             break;
 3588              		.loc 1 667 25 view .LVU1034
 3589 027e 7610     		asrs	r6, r6, #1
 3590 0280 C6EB6006 		rsb	r6, r6, r0, asr #1
 3591 0284 B6B2     		uxth	r6, r6
 667:Middlewares/lvgl/src/core/lv_obj_pos.c ****             break;
 3592              		.loc 1 667 15 view .LVU1035
 3593 0286 4E44     		add	r6, r6, r9
 3594 0288 36B2     		sxth	r6, r6
 3595              	.LVL351:
 668:Middlewares/lvgl/src/core/lv_obj_pos.c ****         case LV_ALIGN_CENTER:
 3596              		.loc 1 668 13 is_stmt 1 view .LVU1036
 3597 028a ABE7     		b	.L150
 3598              	.L151:
 670:Middlewares/lvgl/src/core/lv_obj_pos.c ****             y += ph / 2 - h / 2;
 3599              		.loc 1 670 13 view .LVU1037
 670:Middlewares/lvgl/src/core/lv_obj_pos.c ****             y += ph / 2 - h / 2;
 3600              		.loc 1 670 25 is_stmt 0 view .LVU1038
 3601 028c 009B     		ldr	r3, [sp]
 3602 028e 03EBD370 		add	r0, r3, r3, lsr #31
 3603 0292 029B     		ldr	r3, [sp, #8]
 3604 0294 03EBD375 		add	r5, r3, r3, lsr #31
 3605              	.LVL352:
 670:Middlewares/lvgl/src/core/lv_obj_pos.c ****             y += ph / 2 - h / 2;
 3606              		.loc 1 670 25 view .LVU1039
 3607 0298 6D10     		asrs	r5, r5, #1
 3608 029a C5EB6005 		rsb	r5, r5, r0, asr #1
 3609 029e ADB2     		uxth	r5, r5
 670:Middlewares/lvgl/src/core/lv_obj_pos.c ****             y += ph / 2 - h / 2;
 3610              		.loc 1 670 15 view .LVU1040
 3611 02a0 4544     		add	r5, r5, r8
 3612 02a2 2DB2     		sxth	r5, r5
 3613              	.LVL353:
 671:Middlewares/lvgl/src/core/lv_obj_pos.c ****             break;
 3614              		.loc 1 671 13 is_stmt 1 view .LVU1041
 671:Middlewares/lvgl/src/core/lv_obj_pos.c ****             break;
 3615              		.loc 1 671 25 is_stmt 0 view .LVU1042
 3616 02a4 019B     		ldr	r3, [sp, #4]
 3617 02a6 03EBD370 		add	r0, r3, r3, lsr #31
 3618 02aa 039B     		ldr	r3, [sp, #12]
 3619 02ac 03EBD376 		add	r6, r3, r3, lsr #31
 3620              	.LVL354:
 671:Middlewares/lvgl/src/core/lv_obj_pos.c ****             break;
 3621              		.loc 1 671 25 view .LVU1043
 3622 02b0 7610     		asrs	r6, r6, #1
 3623 02b2 C6EB6006 		rsb	r6, r6, r0, asr #1
 3624 02b6 B6B2     		uxth	r6, r6
 671:Middlewares/lvgl/src/core/lv_obj_pos.c ****             break;
 3625              		.loc 1 671 15 view .LVU1044
ARM GAS  /tmp/ccgCqJqT.s 			page 101


 3626 02b8 4E44     		add	r6, r6, r9
 3627 02ba 36B2     		sxth	r6, r6
 3628              	.LVL355:
 672:Middlewares/lvgl/src/core/lv_obj_pos.c ****         default:
 3629              		.loc 1 672 13 is_stmt 1 view .LVU1045
 3630 02bc 92E7     		b	.L150
 3631              	.L171:
 3632 02be 00BF     		.align	2
 3633              	.L170:
 3634 02c0 1F85EB51 		.word	1374389535
 3635              		.cfi_endproc
 3636              	.LFE183:
 3638              		.section	.text.lv_obj_is_visible,"ax",%progbits
 3639              		.align	1
 3640              		.global	lv_obj_is_visible
 3641              		.syntax unified
 3642              		.thumb
 3643              		.thumb_func
 3644              		.fpu softvfp
 3646              	lv_obj_is_visible:
 3647              	.LVL356:
 3648              	.LFB189:
 840:Middlewares/lvgl/src/core/lv_obj_pos.c ****     LV_ASSERT_OBJ(obj, MY_CLASS);
 3649              		.loc 1 840 1 view -0
 3650              		.cfi_startproc
 3651              		@ args = 0, pretend = 0, frame = 8
 3652              		@ frame_needed = 0, uses_anonymous_args = 0
 840:Middlewares/lvgl/src/core/lv_obj_pos.c ****     LV_ASSERT_OBJ(obj, MY_CLASS);
 3653              		.loc 1 840 1 is_stmt 0 view .LVU1047
 3654 0000 10B5     		push	{r4, lr}
 3655              	.LCFI60:
 3656              		.cfi_def_cfa_offset 8
 3657              		.cfi_offset 4, -8
 3658              		.cfi_offset 14, -4
 3659 0002 82B0     		sub	sp, sp, #8
 3660              	.LCFI61:
 3661              		.cfi_def_cfa_offset 16
 3662 0004 0446     		mov	r4, r0
 841:Middlewares/lvgl/src/core/lv_obj_pos.c **** 
 3663              		.loc 1 841 5 is_stmt 1 view .LVU1048
 841:Middlewares/lvgl/src/core/lv_obj_pos.c **** 
 3664              		.loc 1 841 5 view .LVU1049
 841:Middlewares/lvgl/src/core/lv_obj_pos.c **** 
 3665              		.loc 1 841 5 view .LVU1050
 843:Middlewares/lvgl/src/core/lv_obj_pos.c ****     lv_coord_t ext_size = _lv_obj_get_ext_draw_size(obj);
 3666              		.loc 1 843 5 view .LVU1051
 844:Middlewares/lvgl/src/core/lv_obj_pos.c ****     lv_area_copy(&obj_coords, &obj->coords);
 3667              		.loc 1 844 5 view .LVU1052
 844:Middlewares/lvgl/src/core/lv_obj_pos.c ****     lv_area_copy(&obj_coords, &obj->coords);
 3668              		.loc 1 844 27 is_stmt 0 view .LVU1053
 3669 0006 FFF7FEFF 		bl	_lv_obj_get_ext_draw_size
 3670              	.LVL357:
 845:Middlewares/lvgl/src/core/lv_obj_pos.c ****     obj_coords.x1 -= ext_size;
 3671              		.loc 1 845 5 is_stmt 1 view .LVU1054
 3672              	.LBB206:
 3673              	.LBI206:
 120:Middlewares/lvgl/src/core/../misc/../font/../misc/lv_area.h **** {
ARM GAS  /tmp/ccgCqJqT.s 			page 102


 3674              		.loc 3 120 20 view .LVU1055
 3675              	.LBB207:
 122:Middlewares/lvgl/src/core/../misc/../font/../misc/lv_area.h ****     dest->y1 = src->y1;
 3676              		.loc 3 122 5 view .LVU1056
 122:Middlewares/lvgl/src/core/../misc/../font/../misc/lv_area.h ****     dest->y1 = src->y1;
 3677              		.loc 3 122 19 is_stmt 0 view .LVU1057
 3678 000a B4F914C0 		ldrsh	ip, [r4, #20]
 122:Middlewares/lvgl/src/core/../misc/../font/../misc/lv_area.h ****     dest->y1 = src->y1;
 3679              		.loc 3 122 14 view .LVU1058
 3680 000e ADF800C0 		strh	ip, [sp]	@ movhi
 123:Middlewares/lvgl/src/core/../misc/../font/../misc/lv_area.h ****     dest->x2 = src->x2;
 3681              		.loc 3 123 5 is_stmt 1 view .LVU1059
 123:Middlewares/lvgl/src/core/../misc/../font/../misc/lv_area.h ****     dest->x2 = src->x2;
 3682              		.loc 3 123 19 is_stmt 0 view .LVU1060
 3683 0012 B4F91610 		ldrsh	r1, [r4, #22]
 123:Middlewares/lvgl/src/core/../misc/../font/../misc/lv_area.h ****     dest->x2 = src->x2;
 3684              		.loc 3 123 14 view .LVU1061
 3685 0016 ADF80210 		strh	r1, [sp, #2]	@ movhi
 124:Middlewares/lvgl/src/core/../misc/../font/../misc/lv_area.h ****     dest->y2 = src->y2;
 3686              		.loc 3 124 5 is_stmt 1 view .LVU1062
 124:Middlewares/lvgl/src/core/../misc/../font/../misc/lv_area.h ****     dest->y2 = src->y2;
 3687              		.loc 3 124 19 is_stmt 0 view .LVU1063
 3688 001a B4F91820 		ldrsh	r2, [r4, #24]
 124:Middlewares/lvgl/src/core/../misc/../font/../misc/lv_area.h ****     dest->y2 = src->y2;
 3689              		.loc 3 124 14 view .LVU1064
 3690 001e ADF80420 		strh	r2, [sp, #4]	@ movhi
 125:Middlewares/lvgl/src/core/../misc/../font/../misc/lv_area.h **** }
 3691              		.loc 3 125 5 is_stmt 1 view .LVU1065
 125:Middlewares/lvgl/src/core/../misc/../font/../misc/lv_area.h **** }
 3692              		.loc 3 125 19 is_stmt 0 view .LVU1066
 3693 0022 B4F91AE0 		ldrsh	lr, [r4, #26]
 125:Middlewares/lvgl/src/core/../misc/../font/../misc/lv_area.h **** }
 3694              		.loc 3 125 14 view .LVU1067
 3695 0026 ADF806E0 		strh	lr, [sp, #6]	@ movhi
 3696              	.LVL358:
 125:Middlewares/lvgl/src/core/../misc/../font/../misc/lv_area.h **** }
 3697              		.loc 3 125 14 view .LVU1068
 3698              	.LBE207:
 3699              	.LBE206:
 846:Middlewares/lvgl/src/core/lv_obj_pos.c ****     obj_coords.y1 -= ext_size;
 3700              		.loc 1 846 5 is_stmt 1 view .LVU1069
 846:Middlewares/lvgl/src/core/lv_obj_pos.c ****     obj_coords.y1 -= ext_size;
 3701              		.loc 1 846 19 is_stmt 0 view .LVU1070
 3702 002a 83B2     		uxth	r3, r0
 3703 002c ACEB030C 		sub	ip, ip, r3
 3704 0030 ADF800C0 		strh	ip, [sp]	@ movhi
 847:Middlewares/lvgl/src/core/lv_obj_pos.c ****     obj_coords.x2 += ext_size;
 3705              		.loc 1 847 5 is_stmt 1 view .LVU1071
 847:Middlewares/lvgl/src/core/lv_obj_pos.c ****     obj_coords.x2 += ext_size;
 3706              		.loc 1 847 19 is_stmt 0 view .LVU1072
 3707 0034 C91A     		subs	r1, r1, r3
 3708 0036 ADF80210 		strh	r1, [sp, #2]	@ movhi
 848:Middlewares/lvgl/src/core/lv_obj_pos.c ****     obj_coords.y2 += ext_size;
 3709              		.loc 1 848 5 is_stmt 1 view .LVU1073
 848:Middlewares/lvgl/src/core/lv_obj_pos.c ****     obj_coords.y2 += ext_size;
 3710              		.loc 1 848 19 is_stmt 0 view .LVU1074
 3711 003a 1A44     		add	r2, r2, r3
ARM GAS  /tmp/ccgCqJqT.s 			page 103


 3712 003c ADF80420 		strh	r2, [sp, #4]	@ movhi
 849:Middlewares/lvgl/src/core/lv_obj_pos.c **** 
 3713              		.loc 1 849 5 is_stmt 1 view .LVU1075
 849:Middlewares/lvgl/src/core/lv_obj_pos.c **** 
 3714              		.loc 1 849 19 is_stmt 0 view .LVU1076
 3715 0040 7344     		add	r3, r3, lr
 3716 0042 ADF80630 		strh	r3, [sp, #6]	@ movhi
 851:Middlewares/lvgl/src/core/lv_obj_pos.c **** 
 3717              		.loc 1 851 5 is_stmt 1 view .LVU1077
 851:Middlewares/lvgl/src/core/lv_obj_pos.c **** 
 3718              		.loc 1 851 12 is_stmt 0 view .LVU1078
 3719 0046 6946     		mov	r1, sp
 3720 0048 2046     		mov	r0, r4
 3721              	.LVL359:
 851:Middlewares/lvgl/src/core/lv_obj_pos.c **** 
 3722              		.loc 1 851 12 view .LVU1079
 3723 004a FFF7FEFF 		bl	lv_obj_area_is_visible
 3724              	.LVL360:
 853:Middlewares/lvgl/src/core/lv_obj_pos.c **** 
 3725              		.loc 1 853 1 view .LVU1080
 3726 004e 02B0     		add	sp, sp, #8
 3727              	.LCFI62:
 3728              		.cfi_def_cfa_offset 8
 3729              		@ sp needed
 3730 0050 10BD     		pop	{r4, pc}
 853:Middlewares/lvgl/src/core/lv_obj_pos.c **** 
 3731              		.loc 1 853 1 view .LVU1081
 3732              		.cfi_endproc
 3733              	.LFE189:
 3735              		.section	.text.lv_obj_set_ext_click_area,"ax",%progbits
 3736              		.align	1
 3737              		.global	lv_obj_set_ext_click_area
 3738              		.syntax unified
 3739              		.thumb
 3740              		.thumb_func
 3741              		.fpu softvfp
 3743              	lv_obj_set_ext_click_area:
 3744              	.LVL361:
 3745              	.LFB190:
 856:Middlewares/lvgl/src/core/lv_obj_pos.c ****     LV_ASSERT_OBJ(obj, MY_CLASS);
 3746              		.loc 1 856 1 is_stmt 1 view -0
 3747              		.cfi_startproc
 3748              		@ args = 0, pretend = 0, frame = 0
 3749              		@ frame_needed = 0, uses_anonymous_args = 0
 856:Middlewares/lvgl/src/core/lv_obj_pos.c ****     LV_ASSERT_OBJ(obj, MY_CLASS);
 3750              		.loc 1 856 1 is_stmt 0 view .LVU1083
 3751 0000 38B5     		push	{r3, r4, r5, lr}
 3752              	.LCFI63:
 3753              		.cfi_def_cfa_offset 16
 3754              		.cfi_offset 3, -16
 3755              		.cfi_offset 4, -12
 3756              		.cfi_offset 5, -8
 3757              		.cfi_offset 14, -4
 3758 0002 0546     		mov	r5, r0
 3759 0004 0C46     		mov	r4, r1
 857:Middlewares/lvgl/src/core/lv_obj_pos.c **** 
 3760              		.loc 1 857 5 is_stmt 1 view .LVU1084
ARM GAS  /tmp/ccgCqJqT.s 			page 104


 857:Middlewares/lvgl/src/core/lv_obj_pos.c **** 
 3761              		.loc 1 857 5 view .LVU1085
 857:Middlewares/lvgl/src/core/lv_obj_pos.c **** 
 3762              		.loc 1 857 5 view .LVU1086
 859:Middlewares/lvgl/src/core/lv_obj_pos.c ****     obj->spec_attr->ext_click_pad = size;
 3763              		.loc 1 859 5 view .LVU1087
 3764 0006 FFF7FEFF 		bl	lv_obj_allocate_spec_attr
 3765              	.LVL362:
 860:Middlewares/lvgl/src/core/lv_obj_pos.c **** }
 3766              		.loc 1 860 5 view .LVU1088
 860:Middlewares/lvgl/src/core/lv_obj_pos.c **** }
 3767              		.loc 1 860 8 is_stmt 0 view .LVU1089
 3768 000a AB68     		ldr	r3, [r5, #8]
 860:Middlewares/lvgl/src/core/lv_obj_pos.c **** }
 3769              		.loc 1 860 35 view .LVU1090
 3770 000c 9C82     		strh	r4, [r3, #20]	@ movhi
 861:Middlewares/lvgl/src/core/lv_obj_pos.c **** 
 3771              		.loc 1 861 1 view .LVU1091
 3772 000e 38BD     		pop	{r3, r4, r5, pc}
 861:Middlewares/lvgl/src/core/lv_obj_pos.c **** 
 3773              		.loc 1 861 1 view .LVU1092
 3774              		.cfi_endproc
 3775              	.LFE190:
 3777              		.section	.text.lv_obj_get_click_area,"ax",%progbits
 3778              		.align	1
 3779              		.global	lv_obj_get_click_area
 3780              		.syntax unified
 3781              		.thumb
 3782              		.thumb_func
 3783              		.fpu softvfp
 3785              	lv_obj_get_click_area:
 3786              	.LVL363:
 3787              	.LFB191:
 864:Middlewares/lvgl/src/core/lv_obj_pos.c ****     lv_area_copy(area, &obj->coords);
 3788              		.loc 1 864 1 is_stmt 1 view -0
 3789              		.cfi_startproc
 3790              		@ args = 0, pretend = 0, frame = 0
 3791              		@ frame_needed = 0, uses_anonymous_args = 0
 864:Middlewares/lvgl/src/core/lv_obj_pos.c ****     lv_area_copy(area, &obj->coords);
 3792              		.loc 1 864 1 is_stmt 0 view .LVU1094
 3793 0000 10B5     		push	{r4, lr}
 3794              	.LCFI64:
 3795              		.cfi_def_cfa_offset 8
 3796              		.cfi_offset 4, -8
 3797              		.cfi_offset 14, -4
 865:Middlewares/lvgl/src/core/lv_obj_pos.c ****     if(obj->spec_attr) {
 3798              		.loc 1 865 5 is_stmt 1 view .LVU1095
 3799              	.LVL364:
 3800              	.LBB208:
 3801              	.LBI208:
 120:Middlewares/lvgl/src/core/../misc/../font/../misc/lv_area.h **** {
 3802              		.loc 3 120 20 view .LVU1096
 3803              	.LBB209:
 122:Middlewares/lvgl/src/core/../misc/../font/../misc/lv_area.h ****     dest->y1 = src->y1;
 3804              		.loc 3 122 5 view .LVU1097
 122:Middlewares/lvgl/src/core/../misc/../font/../misc/lv_area.h ****     dest->y1 = src->y1;
 3805              		.loc 3 122 19 is_stmt 0 view .LVU1098
ARM GAS  /tmp/ccgCqJqT.s 			page 105


 3806 0002 B0F91420 		ldrsh	r2, [r0, #20]
 122:Middlewares/lvgl/src/core/../misc/../font/../misc/lv_area.h ****     dest->y1 = src->y1;
 3807              		.loc 3 122 14 view .LVU1099
 3808 0006 0A80     		strh	r2, [r1]	@ movhi
 123:Middlewares/lvgl/src/core/../misc/../font/../misc/lv_area.h ****     dest->x2 = src->x2;
 3809              		.loc 3 123 5 is_stmt 1 view .LVU1100
 123:Middlewares/lvgl/src/core/../misc/../font/../misc/lv_area.h ****     dest->x2 = src->x2;
 3810              		.loc 3 123 19 is_stmt 0 view .LVU1101
 3811 0008 B0F91630 		ldrsh	r3, [r0, #22]
 123:Middlewares/lvgl/src/core/../misc/../font/../misc/lv_area.h ****     dest->x2 = src->x2;
 3812              		.loc 3 123 14 view .LVU1102
 3813 000c 4B80     		strh	r3, [r1, #2]	@ movhi
 124:Middlewares/lvgl/src/core/../misc/../font/../misc/lv_area.h ****     dest->y2 = src->y2;
 3814              		.loc 3 124 5 is_stmt 1 view .LVU1103
 124:Middlewares/lvgl/src/core/../misc/../font/../misc/lv_area.h ****     dest->y2 = src->y2;
 3815              		.loc 3 124 19 is_stmt 0 view .LVU1104
 3816 000e B0F918E0 		ldrsh	lr, [r0, #24]
 124:Middlewares/lvgl/src/core/../misc/../font/../misc/lv_area.h ****     dest->y2 = src->y2;
 3817              		.loc 3 124 14 view .LVU1105
 3818 0012 A1F804E0 		strh	lr, [r1, #4]	@ movhi
 125:Middlewares/lvgl/src/core/../misc/../font/../misc/lv_area.h **** }
 3819              		.loc 3 125 5 is_stmt 1 view .LVU1106
 125:Middlewares/lvgl/src/core/../misc/../font/../misc/lv_area.h **** }
 3820              		.loc 3 125 19 is_stmt 0 view .LVU1107
 3821 0016 B0F91AC0 		ldrsh	ip, [r0, #26]
 125:Middlewares/lvgl/src/core/../misc/../font/../misc/lv_area.h **** }
 3822              		.loc 3 125 14 view .LVU1108
 3823 001a A1F806C0 		strh	ip, [r1, #6]	@ movhi
 3824              	.LVL365:
 125:Middlewares/lvgl/src/core/../misc/../font/../misc/lv_area.h **** }
 3825              		.loc 3 125 14 view .LVU1109
 3826              	.LBE209:
 3827              	.LBE208:
 866:Middlewares/lvgl/src/core/lv_obj_pos.c ****         area->x1 -= obj->spec_attr->ext_click_pad;
 3828              		.loc 1 866 5 is_stmt 1 view .LVU1110
 866:Middlewares/lvgl/src/core/lv_obj_pos.c ****         area->x1 -= obj->spec_attr->ext_click_pad;
 3829              		.loc 1 866 11 is_stmt 0 view .LVU1111
 3830 001e 8468     		ldr	r4, [r0, #8]
 866:Middlewares/lvgl/src/core/lv_obj_pos.c ****         area->x1 -= obj->spec_attr->ext_click_pad;
 3831              		.loc 1 866 7 view .LVU1112
 3832 0020 74B1     		cbz	r4, .L176
 867:Middlewares/lvgl/src/core/lv_obj_pos.c ****         area->x2 += obj->spec_attr->ext_click_pad;
 3833              		.loc 1 867 9 is_stmt 1 view .LVU1113
 867:Middlewares/lvgl/src/core/lv_obj_pos.c ****         area->x2 += obj->spec_attr->ext_click_pad;
 3834              		.loc 1 867 35 is_stmt 0 view .LVU1114
 3835 0022 A48A     		ldrh	r4, [r4, #20]
 867:Middlewares/lvgl/src/core/lv_obj_pos.c ****         area->x2 += obj->spec_attr->ext_click_pad;
 3836              		.loc 1 867 18 view .LVU1115
 3837 0024 121B     		subs	r2, r2, r4
 3838 0026 0A80     		strh	r2, [r1]	@ movhi
 868:Middlewares/lvgl/src/core/lv_obj_pos.c ****         area->y1 -= obj->spec_attr->ext_click_pad;
 3839              		.loc 1 868 9 is_stmt 1 view .LVU1116
 868:Middlewares/lvgl/src/core/lv_obj_pos.c ****         area->y1 -= obj->spec_attr->ext_click_pad;
 3840              		.loc 1 868 24 is_stmt 0 view .LVU1117
 3841 0028 8268     		ldr	r2, [r0, #8]
 868:Middlewares/lvgl/src/core/lv_obj_pos.c ****         area->y1 -= obj->spec_attr->ext_click_pad;
 3842              		.loc 1 868 35 view .LVU1118
ARM GAS  /tmp/ccgCqJqT.s 			page 106


 3843 002a 928A     		ldrh	r2, [r2, #20]
 868:Middlewares/lvgl/src/core/lv_obj_pos.c ****         area->y1 -= obj->spec_attr->ext_click_pad;
 3844              		.loc 1 868 18 view .LVU1119
 3845 002c 7244     		add	r2, r2, lr
 3846 002e 8A80     		strh	r2, [r1, #4]	@ movhi
 869:Middlewares/lvgl/src/core/lv_obj_pos.c ****         area->y2 += obj->spec_attr->ext_click_pad;
 3847              		.loc 1 869 9 is_stmt 1 view .LVU1120
 869:Middlewares/lvgl/src/core/lv_obj_pos.c ****         area->y2 += obj->spec_attr->ext_click_pad;
 3848              		.loc 1 869 24 is_stmt 0 view .LVU1121
 3849 0030 8268     		ldr	r2, [r0, #8]
 869:Middlewares/lvgl/src/core/lv_obj_pos.c ****         area->y2 += obj->spec_attr->ext_click_pad;
 3850              		.loc 1 869 35 view .LVU1122
 3851 0032 928A     		ldrh	r2, [r2, #20]
 869:Middlewares/lvgl/src/core/lv_obj_pos.c ****         area->y2 += obj->spec_attr->ext_click_pad;
 3852              		.loc 1 869 18 view .LVU1123
 3853 0034 9B1A     		subs	r3, r3, r2
 3854 0036 4B80     		strh	r3, [r1, #2]	@ movhi
 870:Middlewares/lvgl/src/core/lv_obj_pos.c ****     }
 3855              		.loc 1 870 9 is_stmt 1 view .LVU1124
 870:Middlewares/lvgl/src/core/lv_obj_pos.c ****     }
 3856              		.loc 1 870 24 is_stmt 0 view .LVU1125
 3857 0038 8368     		ldr	r3, [r0, #8]
 870:Middlewares/lvgl/src/core/lv_obj_pos.c ****     }
 3858              		.loc 1 870 35 view .LVU1126
 3859 003a 9B8A     		ldrh	r3, [r3, #20]
 870:Middlewares/lvgl/src/core/lv_obj_pos.c ****     }
 3860              		.loc 1 870 18 view .LVU1127
 3861 003c 6344     		add	r3, r3, ip
 3862 003e CB80     		strh	r3, [r1, #6]	@ movhi
 3863              	.L176:
 872:Middlewares/lvgl/src/core/lv_obj_pos.c **** 
 3864              		.loc 1 872 1 view .LVU1128
 3865 0040 10BD     		pop	{r4, pc}
 3866              		.cfi_endproc
 3867              	.LFE191:
 3869              		.section	.text.lv_obj_hit_test,"ax",%progbits
 3870              		.align	1
 3871              		.global	lv_obj_hit_test
 3872              		.syntax unified
 3873              		.thumb
 3874              		.thumb_func
 3875              		.fpu softvfp
 3877              	lv_obj_hit_test:
 3878              	.LVL366:
 3879              	.LFB192:
 875:Middlewares/lvgl/src/core/lv_obj_pos.c ****     lv_area_t a;
 3880              		.loc 1 875 1 is_stmt 1 view -0
 3881              		.cfi_startproc
 3882              		@ args = 0, pretend = 0, frame = 16
 3883              		@ frame_needed = 0, uses_anonymous_args = 0
 875:Middlewares/lvgl/src/core/lv_obj_pos.c ****     lv_area_t a;
 3884              		.loc 1 875 1 is_stmt 0 view .LVU1130
 3885 0000 70B5     		push	{r4, r5, r6, lr}
 3886              	.LCFI65:
 3887              		.cfi_def_cfa_offset 16
 3888              		.cfi_offset 4, -16
 3889              		.cfi_offset 5, -12
ARM GAS  /tmp/ccgCqJqT.s 			page 107


 3890              		.cfi_offset 6, -8
 3891              		.cfi_offset 14, -4
 3892 0002 84B0     		sub	sp, sp, #16
 3893              	.LCFI66:
 3894              		.cfi_def_cfa_offset 32
 3895 0004 0546     		mov	r5, r0
 3896 0006 0C46     		mov	r4, r1
 876:Middlewares/lvgl/src/core/lv_obj_pos.c ****     lv_obj_get_click_area(obj, &a);
 3897              		.loc 1 876 5 is_stmt 1 view .LVU1131
 877:Middlewares/lvgl/src/core/lv_obj_pos.c ****     bool res = _lv_area_is_point_on(&a, point, 0);
 3898              		.loc 1 877 5 view .LVU1132
 3899 0008 02A9     		add	r1, sp, #8
 3900              	.LVL367:
 877:Middlewares/lvgl/src/core/lv_obj_pos.c ****     bool res = _lv_area_is_point_on(&a, point, 0);
 3901              		.loc 1 877 5 is_stmt 0 view .LVU1133
 3902 000a FFF7FEFF 		bl	lv_obj_get_click_area
 3903              	.LVL368:
 878:Middlewares/lvgl/src/core/lv_obj_pos.c ****     if(res == false) return false;
 3904              		.loc 1 878 5 is_stmt 1 view .LVU1134
 878:Middlewares/lvgl/src/core/lv_obj_pos.c ****     if(res == false) return false;
 3905              		.loc 1 878 16 is_stmt 0 view .LVU1135
 3906 000e 0022     		movs	r2, #0
 3907 0010 2146     		mov	r1, r4
 3908 0012 02A8     		add	r0, sp, #8
 3909 0014 FFF7FEFF 		bl	_lv_area_is_point_on
 3910              	.LVL369:
 879:Middlewares/lvgl/src/core/lv_obj_pos.c **** 
 3911              		.loc 1 879 5 is_stmt 1 view .LVU1136
 879:Middlewares/lvgl/src/core/lv_obj_pos.c **** 
 3912              		.loc 1 879 7 is_stmt 0 view .LVU1137
 3913 0018 0646     		mov	r6, r0
 3914 001a 10B9     		cbnz	r0, .L182
 3915              	.LVL370:
 3916              	.L180:
 890:Middlewares/lvgl/src/core/lv_obj_pos.c **** 
 3917              		.loc 1 890 1 discriminator 1 view .LVU1138
 3918 001c 3046     		mov	r0, r6
 3919 001e 04B0     		add	sp, sp, #16
 3920              	.LCFI67:
 3921              		.cfi_remember_state
 3922              		.cfi_def_cfa_offset 16
 3923              		@ sp needed
 3924 0020 70BD     		pop	{r4, r5, r6, pc}
 3925              	.LVL371:
 3926              	.L182:
 3927              	.LCFI68:
 3928              		.cfi_restore_state
 881:Middlewares/lvgl/src/core/lv_obj_pos.c ****         lv_hit_test_info_t hit_info;
 3929              		.loc 1 881 5 is_stmt 1 view .LVU1139
 881:Middlewares/lvgl/src/core/lv_obj_pos.c ****         lv_hit_test_info_t hit_info;
 3930              		.loc 1 881 8 is_stmt 0 view .LVU1140
 3931 0022 4FF48041 		mov	r1, #16384
 3932 0026 2846     		mov	r0, r5
 3933              	.LVL372:
 881:Middlewares/lvgl/src/core/lv_obj_pos.c ****         lv_hit_test_info_t hit_info;
 3934              		.loc 1 881 8 view .LVU1141
 3935 0028 FFF7FEFF 		bl	lv_obj_has_flag
ARM GAS  /tmp/ccgCqJqT.s 			page 108


 3936              	.LVL373:
 881:Middlewares/lvgl/src/core/lv_obj_pos.c ****         lv_hit_test_info_t hit_info;
 3937              		.loc 1 881 7 view .LVU1142
 3938 002c 0028     		cmp	r0, #0
 3939 002e F5D0     		beq	.L180
 3940              	.LBB210:
 882:Middlewares/lvgl/src/core/lv_obj_pos.c ****         hit_info.point = point;
 3941              		.loc 1 882 9 is_stmt 1 view .LVU1143
 883:Middlewares/lvgl/src/core/lv_obj_pos.c ****         hit_info.res = true;
 3942              		.loc 1 883 9 view .LVU1144
 883:Middlewares/lvgl/src/core/lv_obj_pos.c ****         hit_info.res = true;
 3943              		.loc 1 883 24 is_stmt 0 view .LVU1145
 3944 0030 0094     		str	r4, [sp]
 884:Middlewares/lvgl/src/core/lv_obj_pos.c ****         lv_event_send(obj, LV_EVENT_HIT_TEST, &hit_info);
 3945              		.loc 1 884 9 is_stmt 1 view .LVU1146
 884:Middlewares/lvgl/src/core/lv_obj_pos.c ****         lv_event_send(obj, LV_EVENT_HIT_TEST, &hit_info);
 3946              		.loc 1 884 22 is_stmt 0 view .LVU1147
 3947 0032 0123     		movs	r3, #1
 3948 0034 8DF80430 		strb	r3, [sp, #4]
 885:Middlewares/lvgl/src/core/lv_obj_pos.c ****         return hit_info.res;
 3949              		.loc 1 885 9 is_stmt 1 view .LVU1148
 3950 0038 6A46     		mov	r2, sp
 3951 003a 1121     		movs	r1, #17
 3952 003c 2846     		mov	r0, r5
 3953 003e FFF7FEFF 		bl	lv_event_send
 3954              	.LVL374:
 886:Middlewares/lvgl/src/core/lv_obj_pos.c ****     }
 3955              		.loc 1 886 9 view .LVU1149
 886:Middlewares/lvgl/src/core/lv_obj_pos.c ****     }
 3956              		.loc 1 886 24 is_stmt 0 view .LVU1150
 3957 0042 9DF80460 		ldrb	r6, [sp, #4]	@ zero_extendqisi2
 3958 0046 E9E7     		b	.L180
 3959              	.LBE210:
 3960              		.cfi_endproc
 3961              	.LFE192:
 3963              		.section	.text.lv_clamp_width,"ax",%progbits
 3964              		.align	1
 3965              		.global	lv_clamp_width
 3966              		.syntax unified
 3967              		.thumb
 3968              		.thumb_func
 3969              		.fpu softvfp
 3971              	lv_clamp_width:
 3972              	.LVL375:
 3973              	.LFB193:
 893:Middlewares/lvgl/src/core/lv_obj_pos.c ****     if(LV_COORD_IS_PCT(min_width)) min_width = (ref_width * LV_COORD_GET_PCT(min_width)) / 100;
 3974              		.loc 1 893 1 is_stmt 1 view -0
 3975              		.cfi_startproc
 3976              		@ args = 0, pretend = 0, frame = 0
 3977              		@ frame_needed = 0, uses_anonymous_args = 0
 893:Middlewares/lvgl/src/core/lv_obj_pos.c ****     if(LV_COORD_IS_PCT(min_width)) min_width = (ref_width * LV_COORD_GET_PCT(min_width)) / 100;
 3978              		.loc 1 893 1 is_stmt 0 view .LVU1152
 3979 0000 00B5     		push	{lr}
 3980              	.LCFI69:
 3981              		.cfi_def_cfa_offset 4
 3982              		.cfi_offset 14, -4
 894:Middlewares/lvgl/src/core/lv_obj_pos.c ****     if(LV_COORD_IS_PCT(max_width)) max_width = (ref_width * LV_COORD_GET_PCT(max_width)) / 100;
ARM GAS  /tmp/ccgCqJqT.s 			page 109


 3983              		.loc 1 894 5 is_stmt 1 view .LVU1153
 894:Middlewares/lvgl/src/core/lv_obj_pos.c ****     if(LV_COORD_IS_PCT(max_width)) max_width = (ref_width * LV_COORD_GET_PCT(max_width)) / 100;
 3984              		.loc 1 894 7 is_stmt 0 view .LVU1154
 3985 0002 01F4C04C 		and	ip, r1, #24576
 3986 0006 BCF5005F 		cmp	ip, #8192
 3987 000a 0CD0     		beq	.L191
 3988              	.L184:
 895:Middlewares/lvgl/src/core/lv_obj_pos.c ****     return LV_CLAMP(min_width, width, max_width);
 3989              		.loc 1 895 5 is_stmt 1 view .LVU1155
 895:Middlewares/lvgl/src/core/lv_obj_pos.c ****     return LV_CLAMP(min_width, width, max_width);
 3990              		.loc 1 895 7 is_stmt 0 view .LVU1156
 3991 000c 02F4C04C 		and	ip, r2, #24576
 3992 0010 BCF5005F 		cmp	ip, #8192
 3993 0014 1CD0     		beq	.L192
 3994              	.LVL376:
 3995              	.L187:
 896:Middlewares/lvgl/src/core/lv_obj_pos.c **** }
 3996              		.loc 1 896 5 is_stmt 1 view .LVU1157
 896:Middlewares/lvgl/src/core/lv_obj_pos.c **** }
 3997              		.loc 1 896 12 is_stmt 0 view .LVU1158
 3998 0016 9042     		cmp	r0, r2
 3999 0018 A8BF     		it	ge
 4000 001a 1046     		movge	r0, r2
 4001              	.LVL377:
 897:Middlewares/lvgl/src/core/lv_obj_pos.c **** 
 4002              		.loc 1 897 1 view .LVU1159
 4003 001c 8842     		cmp	r0, r1
 4004 001e B8BF     		it	lt
 4005 0020 0846     		movlt	r0, r1
 4006 0022 5DF804FB 		ldr	pc, [sp], #4
 4007              	.LVL378:
 4008              	.L191:
 894:Middlewares/lvgl/src/core/lv_obj_pos.c ****     if(LV_COORD_IS_PCT(max_width)) max_width = (ref_width * LV_COORD_GET_PCT(max_width)) / 100;
 4009              		.loc 1 894 8 discriminator 1 view .LVU1160
 4010 0026 21F4C04C 		bic	ip, r1, #24576
 4011 002a BCF5FA6F 		cmp	ip, #2000
 4012 002e EDDC     		bgt	.L184
 894:Middlewares/lvgl/src/core/lv_obj_pos.c ****     if(LV_COORD_IS_PCT(max_width)) max_width = (ref_width * LV_COORD_GET_PCT(max_width)) / 100;
 4013              		.loc 1 894 36 is_stmt 1 discriminator 2 view .LVU1161
 894:Middlewares/lvgl/src/core/lv_obj_pos.c ****     if(LV_COORD_IS_PCT(max_width)) max_width = (ref_width * LV_COORD_GET_PCT(max_width)) / 100;
 4014              		.loc 1 894 61 is_stmt 0 discriminator 2 view .LVU1162
 4015 0030 BCF57A7F 		cmp	ip, #1000
 4016 0034 01DD     		ble	.L186
 894:Middlewares/lvgl/src/core/lv_obj_pos.c ****     if(LV_COORD_IS_PCT(max_width)) max_width = (ref_width * LV_COORD_GET_PCT(max_width)) / 100;
 4017              		.loc 1 894 61 discriminator 3 view .LVU1163
 4018 0036 CCF57A7C 		rsb	ip, ip, #1000
 4019              	.L186:
 894:Middlewares/lvgl/src/core/lv_obj_pos.c ****     if(LV_COORD_IS_PCT(max_width)) max_width = (ref_width * LV_COORD_GET_PCT(max_width)) / 100;
 4020              		.loc 1 894 59 discriminator 6 view .LVU1164
 4021 003a 0CFB03FC 		mul	ip, ip, r3
 894:Middlewares/lvgl/src/core/lv_obj_pos.c ****     if(LV_COORD_IS_PCT(max_width)) max_width = (ref_width * LV_COORD_GET_PCT(max_width)) / 100;
 4022              		.loc 1 894 90 discriminator 6 view .LVU1165
 4023 003e 0E49     		ldr	r1, .L193
 4024              	.LVL379:
 894:Middlewares/lvgl/src/core/lv_obj_pos.c ****     if(LV_COORD_IS_PCT(max_width)) max_width = (ref_width * LV_COORD_GET_PCT(max_width)) / 100;
 4025              		.loc 1 894 90 discriminator 6 view .LVU1166
 4026 0040 81FB0C1E 		smull	r1, lr, r1, ip
ARM GAS  /tmp/ccgCqJqT.s 			page 110


 4027 0044 4FEAEC71 		asr	r1, ip, #31
 4028 0048 C1EB6E11 		rsb	r1, r1, lr, asr #5
 894:Middlewares/lvgl/src/core/lv_obj_pos.c ****     if(LV_COORD_IS_PCT(max_width)) max_width = (ref_width * LV_COORD_GET_PCT(max_width)) / 100;
 4029              		.loc 1 894 46 discriminator 6 view .LVU1167
 4030 004c 09B2     		sxth	r1, r1
 4031              	.LVL380:
 894:Middlewares/lvgl/src/core/lv_obj_pos.c ****     if(LV_COORD_IS_PCT(max_width)) max_width = (ref_width * LV_COORD_GET_PCT(max_width)) / 100;
 4032              		.loc 1 894 46 discriminator 6 view .LVU1168
 4033 004e DDE7     		b	.L184
 4034              	.L192:
 895:Middlewares/lvgl/src/core/lv_obj_pos.c ****     return LV_CLAMP(min_width, width, max_width);
 4035              		.loc 1 895 8 discriminator 1 view .LVU1169
 4036 0050 22F4C04C 		bic	ip, r2, #24576
 4037 0054 BCF5FA6F 		cmp	ip, #2000
 4038 0058 DDDC     		bgt	.L187
 895:Middlewares/lvgl/src/core/lv_obj_pos.c ****     return LV_CLAMP(min_width, width, max_width);
 4039              		.loc 1 895 36 is_stmt 1 discriminator 2 view .LVU1170
 895:Middlewares/lvgl/src/core/lv_obj_pos.c ****     return LV_CLAMP(min_width, width, max_width);
 4040              		.loc 1 895 61 is_stmt 0 discriminator 2 view .LVU1171
 4041 005a BCF57A7F 		cmp	ip, #1000
 4042 005e 01DD     		ble	.L189
 895:Middlewares/lvgl/src/core/lv_obj_pos.c ****     return LV_CLAMP(min_width, width, max_width);
 4043              		.loc 1 895 61 discriminator 3 view .LVU1172
 4044 0060 CCF57A7C 		rsb	ip, ip, #1000
 4045              	.L189:
 895:Middlewares/lvgl/src/core/lv_obj_pos.c ****     return LV_CLAMP(min_width, width, max_width);
 4046              		.loc 1 895 59 discriminator 6 view .LVU1173
 4047 0064 0CFB03F3 		mul	r3, ip, r3
 4048              	.LVL381:
 895:Middlewares/lvgl/src/core/lv_obj_pos.c ****     return LV_CLAMP(min_width, width, max_width);
 4049              		.loc 1 895 90 discriminator 6 view .LVU1174
 4050 0068 034A     		ldr	r2, .L193
 4051              	.LVL382:
 895:Middlewares/lvgl/src/core/lv_obj_pos.c ****     return LV_CLAMP(min_width, width, max_width);
 4052              		.loc 1 895 90 discriminator 6 view .LVU1175
 4053 006a 82FB03C2 		smull	ip, r2, r2, r3
 4054 006e DB17     		asrs	r3, r3, #31
 4055 0070 C3EB6213 		rsb	r3, r3, r2, asr #5
 895:Middlewares/lvgl/src/core/lv_obj_pos.c ****     return LV_CLAMP(min_width, width, max_width);
 4056              		.loc 1 895 46 discriminator 6 view .LVU1176
 4057 0074 1AB2     		sxth	r2, r3
 4058              	.LVL383:
 895:Middlewares/lvgl/src/core/lv_obj_pos.c ****     return LV_CLAMP(min_width, width, max_width);
 4059              		.loc 1 895 46 discriminator 6 view .LVU1177
 4060 0076 CEE7     		b	.L187
 4061              	.L194:
 4062              		.align	2
 4063              	.L193:
 4064 0078 1F85EB51 		.word	1374389535
 4065              		.cfi_endproc
 4066              	.LFE193:
 4068              		.section	.text.lv_clamp_height,"ax",%progbits
 4069              		.align	1
 4070              		.global	lv_clamp_height
 4071              		.syntax unified
 4072              		.thumb
 4073              		.thumb_func
ARM GAS  /tmp/ccgCqJqT.s 			page 111


 4074              		.fpu softvfp
 4076              	lv_clamp_height:
 4077              	.LVL384:
 4078              	.LFB194:
 900:Middlewares/lvgl/src/core/lv_obj_pos.c ****     if(LV_COORD_IS_PCT(min_height)) min_height = (ref_height * LV_COORD_GET_PCT(min_height)) / 100;
 4079              		.loc 1 900 1 is_stmt 1 view -0
 4080              		.cfi_startproc
 4081              		@ args = 0, pretend = 0, frame = 0
 4082              		@ frame_needed = 0, uses_anonymous_args = 0
 900:Middlewares/lvgl/src/core/lv_obj_pos.c ****     if(LV_COORD_IS_PCT(min_height)) min_height = (ref_height * LV_COORD_GET_PCT(min_height)) / 100;
 4083              		.loc 1 900 1 is_stmt 0 view .LVU1179
 4084 0000 00B5     		push	{lr}
 4085              	.LCFI70:
 4086              		.cfi_def_cfa_offset 4
 4087              		.cfi_offset 14, -4
 901:Middlewares/lvgl/src/core/lv_obj_pos.c ****     if(LV_COORD_IS_PCT(max_height)) max_height = (ref_height * LV_COORD_GET_PCT(max_height)) / 100;
 4088              		.loc 1 901 5 is_stmt 1 view .LVU1180
 901:Middlewares/lvgl/src/core/lv_obj_pos.c ****     if(LV_COORD_IS_PCT(max_height)) max_height = (ref_height * LV_COORD_GET_PCT(max_height)) / 100;
 4089              		.loc 1 901 7 is_stmt 0 view .LVU1181
 4090 0002 01F4C04C 		and	ip, r1, #24576
 4091 0006 BCF5005F 		cmp	ip, #8192
 4092 000a 0CD0     		beq	.L203
 4093              	.L196:
 902:Middlewares/lvgl/src/core/lv_obj_pos.c ****     return LV_CLAMP(min_height, height, max_height);
 4094              		.loc 1 902 5 is_stmt 1 view .LVU1182
 902:Middlewares/lvgl/src/core/lv_obj_pos.c ****     return LV_CLAMP(min_height, height, max_height);
 4095              		.loc 1 902 7 is_stmt 0 view .LVU1183
 4096 000c 02F4C04C 		and	ip, r2, #24576
 4097 0010 BCF5005F 		cmp	ip, #8192
 4098 0014 1CD0     		beq	.L204
 4099              	.LVL385:
 4100              	.L199:
 903:Middlewares/lvgl/src/core/lv_obj_pos.c **** }
 4101              		.loc 1 903 5 is_stmt 1 view .LVU1184
 903:Middlewares/lvgl/src/core/lv_obj_pos.c **** }
 4102              		.loc 1 903 12 is_stmt 0 view .LVU1185
 4103 0016 9042     		cmp	r0, r2
 4104 0018 A8BF     		it	ge
 4105 001a 1046     		movge	r0, r2
 4106              	.LVL386:
 904:Middlewares/lvgl/src/core/lv_obj_pos.c **** 
 4107              		.loc 1 904 1 view .LVU1186
 4108 001c 8842     		cmp	r0, r1
 4109 001e B8BF     		it	lt
 4110 0020 0846     		movlt	r0, r1
 4111 0022 5DF804FB 		ldr	pc, [sp], #4
 4112              	.LVL387:
 4113              	.L203:
 901:Middlewares/lvgl/src/core/lv_obj_pos.c ****     if(LV_COORD_IS_PCT(max_height)) max_height = (ref_height * LV_COORD_GET_PCT(max_height)) / 100;
 4114              		.loc 1 901 8 discriminator 1 view .LVU1187
 4115 0026 21F4C04C 		bic	ip, r1, #24576
 4116 002a BCF5FA6F 		cmp	ip, #2000
 4117 002e EDDC     		bgt	.L196
 901:Middlewares/lvgl/src/core/lv_obj_pos.c ****     if(LV_COORD_IS_PCT(max_height)) max_height = (ref_height * LV_COORD_GET_PCT(max_height)) / 100;
 4118              		.loc 1 901 37 is_stmt 1 discriminator 2 view .LVU1188
 901:Middlewares/lvgl/src/core/lv_obj_pos.c ****     if(LV_COORD_IS_PCT(max_height)) max_height = (ref_height * LV_COORD_GET_PCT(max_height)) / 100;
 4119              		.loc 1 901 64 is_stmt 0 discriminator 2 view .LVU1189
ARM GAS  /tmp/ccgCqJqT.s 			page 112


 4120 0030 BCF57A7F 		cmp	ip, #1000
 4121 0034 01DD     		ble	.L198
 901:Middlewares/lvgl/src/core/lv_obj_pos.c ****     if(LV_COORD_IS_PCT(max_height)) max_height = (ref_height * LV_COORD_GET_PCT(max_height)) / 100;
 4122              		.loc 1 901 64 discriminator 3 view .LVU1190
 4123 0036 CCF57A7C 		rsb	ip, ip, #1000
 4124              	.L198:
 901:Middlewares/lvgl/src/core/lv_obj_pos.c ****     if(LV_COORD_IS_PCT(max_height)) max_height = (ref_height * LV_COORD_GET_PCT(max_height)) / 100;
 4125              		.loc 1 901 62 discriminator 6 view .LVU1191
 4126 003a 0CFB03FC 		mul	ip, ip, r3
 901:Middlewares/lvgl/src/core/lv_obj_pos.c ****     if(LV_COORD_IS_PCT(max_height)) max_height = (ref_height * LV_COORD_GET_PCT(max_height)) / 100;
 4127              		.loc 1 901 94 discriminator 6 view .LVU1192
 4128 003e 0E49     		ldr	r1, .L205
 4129              	.LVL388:
 901:Middlewares/lvgl/src/core/lv_obj_pos.c ****     if(LV_COORD_IS_PCT(max_height)) max_height = (ref_height * LV_COORD_GET_PCT(max_height)) / 100;
 4130              		.loc 1 901 94 discriminator 6 view .LVU1193
 4131 0040 81FB0C1E 		smull	r1, lr, r1, ip
 4132 0044 4FEAEC71 		asr	r1, ip, #31
 4133 0048 C1EB6E11 		rsb	r1, r1, lr, asr #5
 901:Middlewares/lvgl/src/core/lv_obj_pos.c ****     if(LV_COORD_IS_PCT(max_height)) max_height = (ref_height * LV_COORD_GET_PCT(max_height)) / 100;
 4134              		.loc 1 901 48 discriminator 6 view .LVU1194
 4135 004c 09B2     		sxth	r1, r1
 4136              	.LVL389:
 901:Middlewares/lvgl/src/core/lv_obj_pos.c ****     if(LV_COORD_IS_PCT(max_height)) max_height = (ref_height * LV_COORD_GET_PCT(max_height)) / 100;
 4137              		.loc 1 901 48 discriminator 6 view .LVU1195
 4138 004e DDE7     		b	.L196
 4139              	.L204:
 902:Middlewares/lvgl/src/core/lv_obj_pos.c ****     return LV_CLAMP(min_height, height, max_height);
 4140              		.loc 1 902 8 discriminator 1 view .LVU1196
 4141 0050 22F4C04C 		bic	ip, r2, #24576
 4142 0054 BCF5FA6F 		cmp	ip, #2000
 4143 0058 DDDC     		bgt	.L199
 902:Middlewares/lvgl/src/core/lv_obj_pos.c ****     return LV_CLAMP(min_height, height, max_height);
 4144              		.loc 1 902 37 is_stmt 1 discriminator 2 view .LVU1197
 902:Middlewares/lvgl/src/core/lv_obj_pos.c ****     return LV_CLAMP(min_height, height, max_height);
 4145              		.loc 1 902 64 is_stmt 0 discriminator 2 view .LVU1198
 4146 005a BCF57A7F 		cmp	ip, #1000
 4147 005e 01DD     		ble	.L201
 902:Middlewares/lvgl/src/core/lv_obj_pos.c ****     return LV_CLAMP(min_height, height, max_height);
 4148              		.loc 1 902 64 discriminator 3 view .LVU1199
 4149 0060 CCF57A7C 		rsb	ip, ip, #1000
 4150              	.L201:
 902:Middlewares/lvgl/src/core/lv_obj_pos.c ****     return LV_CLAMP(min_height, height, max_height);
 4151              		.loc 1 902 62 discriminator 6 view .LVU1200
 4152 0064 0CFB03F3 		mul	r3, ip, r3
 4153              	.LVL390:
 902:Middlewares/lvgl/src/core/lv_obj_pos.c ****     return LV_CLAMP(min_height, height, max_height);
 4154              		.loc 1 902 94 discriminator 6 view .LVU1201
 4155 0068 034A     		ldr	r2, .L205
 4156              	.LVL391:
 902:Middlewares/lvgl/src/core/lv_obj_pos.c ****     return LV_CLAMP(min_height, height, max_height);
 4157              		.loc 1 902 94 discriminator 6 view .LVU1202
 4158 006a 82FB03C2 		smull	ip, r2, r2, r3
 4159 006e DB17     		asrs	r3, r3, #31
 4160 0070 C3EB6213 		rsb	r3, r3, r2, asr #5
 902:Middlewares/lvgl/src/core/lv_obj_pos.c ****     return LV_CLAMP(min_height, height, max_height);
 4161              		.loc 1 902 48 discriminator 6 view .LVU1203
 4162 0074 1AB2     		sxth	r2, r3
ARM GAS  /tmp/ccgCqJqT.s 			page 113


 4163              	.LVL392:
 902:Middlewares/lvgl/src/core/lv_obj_pos.c ****     return LV_CLAMP(min_height, height, max_height);
 4164              		.loc 1 902 48 discriminator 6 view .LVU1204
 4165 0076 CEE7     		b	.L199
 4166              	.L206:
 4167              		.align	2
 4168              	.L205:
 4169 0078 1F85EB51 		.word	1374389535
 4170              		.cfi_endproc
 4171              	.LFE194:
 4173              		.section	.text.lv_obj_refr_size,"ax",%progbits
 4174              		.align	1
 4175              		.global	lv_obj_refr_size
 4176              		.syntax unified
 4177              		.thumb
 4178              		.thumb_func
 4179              		.fpu softvfp
 4181              	lv_obj_refr_size:
 4182              	.LVL393:
 4183              	.LFB156:
  85:Middlewares/lvgl/src/core/lv_obj_pos.c ****     LV_ASSERT_OBJ(obj, MY_CLASS);
 4184              		.loc 1 85 1 is_stmt 1 view -0
 4185              		.cfi_startproc
 4186              		@ args = 0, pretend = 0, frame = 24
 4187              		@ frame_needed = 0, uses_anonymous_args = 0
  86:Middlewares/lvgl/src/core/lv_obj_pos.c **** 
 4188              		.loc 1 86 5 view .LVU1206
  86:Middlewares/lvgl/src/core/lv_obj_pos.c **** 
 4189              		.loc 1 86 5 view .LVU1207
  86:Middlewares/lvgl/src/core/lv_obj_pos.c **** 
 4190              		.loc 1 86 5 view .LVU1208
  89:Middlewares/lvgl/src/core/lv_obj_pos.c **** 
 4191              		.loc 1 89 5 view .LVU1209
  89:Middlewares/lvgl/src/core/lv_obj_pos.c **** 
 4192              		.loc 1 89 22 is_stmt 0 view .LVU1210
 4193 0000 90F82330 		ldrb	r3, [r0, #35]	@ zero_extendqisi2
 4194 0004 03F00603 		and	r3, r3, #6
  89:Middlewares/lvgl/src/core/lv_obj_pos.c **** 
 4195              		.loc 1 89 7 view .LVU1211
 4196 0008 062B     		cmp	r3, #6
 4197 000a 00F06A81 		beq	.L230
  85:Middlewares/lvgl/src/core/lv_obj_pos.c ****     LV_ASSERT_OBJ(obj, MY_CLASS);
 4198              		.loc 1 85 1 view .LVU1212
 4199 000e 2DE9F04F 		push	{r4, r5, r6, r7, r8, r9, r10, fp, lr}
 4200              	.LCFI71:
 4201              		.cfi_def_cfa_offset 36
 4202              		.cfi_offset 4, -36
 4203              		.cfi_offset 5, -32
 4204              		.cfi_offset 6, -28
 4205              		.cfi_offset 7, -24
 4206              		.cfi_offset 8, -20
 4207              		.cfi_offset 9, -16
 4208              		.cfi_offset 10, -12
 4209              		.cfi_offset 11, -8
 4210              		.cfi_offset 14, -4
 4211 0012 87B0     		sub	sp, sp, #28
 4212              	.LCFI72:
ARM GAS  /tmp/ccgCqJqT.s 			page 114


 4213              		.cfi_def_cfa_offset 64
 4214 0014 0446     		mov	r4, r0
  91:Middlewares/lvgl/src/core/lv_obj_pos.c ****     if(parent == NULL) return false;
 4215              		.loc 1 91 5 is_stmt 1 view .LVU1213
  91:Middlewares/lvgl/src/core/lv_obj_pos.c ****     if(parent == NULL) return false;
 4216              		.loc 1 91 25 is_stmt 0 view .LVU1214
 4217 0016 FFF7FEFF 		bl	lv_obj_get_parent
 4218              	.LVL394:
  92:Middlewares/lvgl/src/core/lv_obj_pos.c **** 
 4219              		.loc 1 92 5 is_stmt 1 view .LVU1215
  92:Middlewares/lvgl/src/core/lv_obj_pos.c **** 
 4220              		.loc 1 92 7 is_stmt 0 view .LVU1216
 4221 001a 0546     		mov	r5, r0
 4222 001c 0028     		cmp	r0, #0
 4223 001e 00F06281 		beq	.L231
  94:Middlewares/lvgl/src/core/lv_obj_pos.c ****     lv_coord_t sl_ori = lv_obj_get_scroll_left(obj);
 4224              		.loc 1 94 5 is_stmt 1 view .LVU1217
  95:Middlewares/lvgl/src/core/lv_obj_pos.c ****     bool w_content = false;
 4225              		.loc 1 95 5 view .LVU1218
  95:Middlewares/lvgl/src/core/lv_obj_pos.c ****     bool w_content = false;
 4226              		.loc 1 95 25 is_stmt 0 view .LVU1219
 4227 0022 2046     		mov	r0, r4
 4228              	.LVL395:
  95:Middlewares/lvgl/src/core/lv_obj_pos.c ****     bool w_content = false;
 4229              		.loc 1 95 25 view .LVU1220
 4230 0024 FFF7FEFF 		bl	lv_obj_get_scroll_left
 4231              	.LVL396:
 4232 0028 0646     		mov	r6, r0
 4233              	.LVL397:
  96:Middlewares/lvgl/src/core/lv_obj_pos.c ****     if(obj->w_layout) {
 4234              		.loc 1 96 5 is_stmt 1 view .LVU1221
  97:Middlewares/lvgl/src/core/lv_obj_pos.c ****         w = lv_obj_get_width(obj);
 4235              		.loc 1 97 5 view .LVU1222
  97:Middlewares/lvgl/src/core/lv_obj_pos.c ****         w = lv_obj_get_width(obj);
 4236              		.loc 1 97 8 is_stmt 0 view .LVU1223
 4237 002a 94F82330 		ldrb	r3, [r4, #35]	@ zero_extendqisi2
  97:Middlewares/lvgl/src/core/lv_obj_pos.c ****         w = lv_obj_get_width(obj);
 4238              		.loc 1 97 7 view .LVU1224
 4239 002e 13F0040F 		tst	r3, #4
 4240 0032 00F08180 		beq	.L209
  98:Middlewares/lvgl/src/core/lv_obj_pos.c ****     } else {
 4241              		.loc 1 98 9 is_stmt 1 view .LVU1225
  98:Middlewares/lvgl/src/core/lv_obj_pos.c ****     } else {
 4242              		.loc 1 98 13 is_stmt 0 view .LVU1226
 4243 0036 2046     		mov	r0, r4
 4244 0038 FFF7FEFF 		bl	lv_obj_get_width
 4245              	.LVL398:
  98:Middlewares/lvgl/src/core/lv_obj_pos.c ****     } else {
 4246              		.loc 1 98 11 view .LVU1227
 4247 003c ADF81600 		strh	r0, [sp, #22]	@ movhi
  96:Middlewares/lvgl/src/core/lv_obj_pos.c ****     if(obj->w_layout) {
 4248              		.loc 1 96 10 view .LVU1228
 4249 0040 4FF00008 		mov	r8, #0
 4250              	.LVL399:
 4251              	.L210:
 120:Middlewares/lvgl/src/core/lv_obj_pos.c ****     lv_coord_t st_ori = lv_obj_get_scroll_top(obj);
 4252              		.loc 1 120 5 is_stmt 1 view .LVU1229
ARM GAS  /tmp/ccgCqJqT.s 			page 115


 121:Middlewares/lvgl/src/core/lv_obj_pos.c ****     bool h_content = false;
 4253              		.loc 1 121 5 view .LVU1230
 121:Middlewares/lvgl/src/core/lv_obj_pos.c ****     bool h_content = false;
 4254              		.loc 1 121 25 is_stmt 0 view .LVU1231
 4255 0044 2046     		mov	r0, r4
 4256 0046 FFF7FEFF 		bl	lv_obj_get_scroll_top
 4257              	.LVL400:
 4258 004a 0746     		mov	r7, r0
 4259              	.LVL401:
 122:Middlewares/lvgl/src/core/lv_obj_pos.c ****     if(obj->h_layout) {
 4260              		.loc 1 122 5 is_stmt 1 view .LVU1232
 123:Middlewares/lvgl/src/core/lv_obj_pos.c ****         h = lv_obj_get_height(obj);
 4261              		.loc 1 123 5 view .LVU1233
 123:Middlewares/lvgl/src/core/lv_obj_pos.c ****         h = lv_obj_get_height(obj);
 4262              		.loc 1 123 8 is_stmt 0 view .LVU1234
 4263 004c 94F82330 		ldrb	r3, [r4, #35]	@ zero_extendqisi2
 123:Middlewares/lvgl/src/core/lv_obj_pos.c ****         h = lv_obj_get_height(obj);
 4264              		.loc 1 123 7 view .LVU1235
 4265 0050 13F0020F 		tst	r3, #2
 4266 0054 00F0D580 		beq	.L216
 124:Middlewares/lvgl/src/core/lv_obj_pos.c ****     } else {
 4267              		.loc 1 124 9 is_stmt 1 view .LVU1236
 124:Middlewares/lvgl/src/core/lv_obj_pos.c ****     } else {
 4268              		.loc 1 124 13 is_stmt 0 view .LVU1237
 4269 0058 2046     		mov	r0, r4
 4270 005a FFF7FEFF 		bl	lv_obj_get_height
 4271              	.LVL402:
 124:Middlewares/lvgl/src/core/lv_obj_pos.c ****     } else {
 4272              		.loc 1 124 11 view .LVU1238
 4273 005e ADF81400 		strh	r0, [sp, #20]	@ movhi
 122:Middlewares/lvgl/src/core/lv_obj_pos.c ****     if(obj->h_layout) {
 4274              		.loc 1 122 10 view .LVU1239
 4275 0062 4FF00009 		mov	r9, #0
 4276              	.LVL403:
 4277              	.L217:
 146:Middlewares/lvgl/src/core/lv_obj_pos.c ****         lv_obj_scroll_to(obj, sl_ori, st_ori, LV_ANIM_OFF);
 4278              		.loc 1 146 5 is_stmt 1 view .LVU1240
 146:Middlewares/lvgl/src/core/lv_obj_pos.c ****         lv_obj_scroll_to(obj, sl_ori, st_ori, LV_ANIM_OFF);
 4279              		.loc 1 146 7 is_stmt 0 view .LVU1241
 4280 0066 B8F1000F 		cmp	r8, #0
 4281 006a 02D1     		bne	.L223
 146:Middlewares/lvgl/src/core/lv_obj_pos.c ****         lv_obj_scroll_to(obj, sl_ori, st_ori, LV_ANIM_OFF);
 4282              		.loc 1 146 18 discriminator 1 view .LVU1242
 4283 006c B9F1000F 		cmp	r9, #0
 4284 0070 05D0     		beq	.L224
 4285              	.L223:
 147:Middlewares/lvgl/src/core/lv_obj_pos.c ****     }
 4286              		.loc 1 147 9 is_stmt 1 view .LVU1243
 4287 0072 0023     		movs	r3, #0
 4288 0074 3A46     		mov	r2, r7
 4289 0076 3146     		mov	r1, r6
 4290 0078 2046     		mov	r0, r4
 4291 007a FFF7FEFF 		bl	lv_obj_scroll_to
 4292              	.LVL404:
 4293              	.L224:
 152:Middlewares/lvgl/src/core/lv_obj_pos.c **** 
 4294              		.loc 1 152 5 view .LVU1244
ARM GAS  /tmp/ccgCqJqT.s 			page 116


 152:Middlewares/lvgl/src/core/lv_obj_pos.c **** 
 4295              		.loc 1 152 8 is_stmt 0 view .LVU1245
 4296 007e 2046     		mov	r0, r4
 4297 0080 FFF7FEFF 		bl	lv_obj_get_width
 4298              	.LVL405:
 152:Middlewares/lvgl/src/core/lv_obj_pos.c **** 
 4299              		.loc 1 152 30 view .LVU1246
 4300 0084 BDF91630 		ldrsh	r3, [sp, #22]
 152:Middlewares/lvgl/src/core/lv_obj_pos.c **** 
 4301              		.loc 1 152 7 view .LVU1247
 4302 0088 9842     		cmp	r0, r3
 4303 008a 07D1     		bne	.L225
 152:Middlewares/lvgl/src/core/lv_obj_pos.c **** 
 4304              		.loc 1 152 38 discriminator 1 view .LVU1248
 4305 008c 2046     		mov	r0, r4
 4306 008e FFF7FEFF 		bl	lv_obj_get_height
 4307              	.LVL406:
 152:Middlewares/lvgl/src/core/lv_obj_pos.c **** 
 4308              		.loc 1 152 61 discriminator 1 view .LVU1249
 4309 0092 BDF91430 		ldrsh	r3, [sp, #20]
 152:Middlewares/lvgl/src/core/lv_obj_pos.c **** 
 4310              		.loc 1 152 35 discriminator 1 view .LVU1250
 4311 0096 9842     		cmp	r0, r3
 4312 0098 00F02781 		beq	.L236
 4313              	.L225:
 155:Middlewares/lvgl/src/core/lv_obj_pos.c **** 
 4314              		.loc 1 155 5 is_stmt 1 view .LVU1251
 4315 009c 2046     		mov	r0, r4
 4316 009e FFF7FEFF 		bl	lv_obj_invalidate
 4317              	.LVL407:
 158:Middlewares/lvgl/src/core/lv_obj_pos.c ****     lv_obj_get_coords(obj, &ori);
 4318              		.loc 1 158 5 view .LVU1252
 159:Middlewares/lvgl/src/core/lv_obj_pos.c **** 
 4319              		.loc 1 159 5 view .LVU1253
 4320 00a2 03A9     		add	r1, sp, #12
 4321 00a4 2046     		mov	r0, r4
 4322 00a6 FFF7FEFF 		bl	lv_obj_get_coords
 4323              	.LVL408:
 162:Middlewares/lvgl/src/core/lv_obj_pos.c ****     lv_obj_get_content_coords(parent, &parent_fit_area);
 4324              		.loc 1 162 5 view .LVU1254
 163:Middlewares/lvgl/src/core/lv_obj_pos.c **** 
 4325              		.loc 1 163 5 view .LVU1255
 4326 00aa 01A9     		add	r1, sp, #4
 4327 00ac 2846     		mov	r0, r5
 4328 00ae FFF7FEFF 		bl	lv_obj_get_content_coords
 4329              	.LVL409:
 167:Middlewares/lvgl/src/core/lv_obj_pos.c ****     if(!on1) lv_obj_scrollbar_invalidate(parent);
 4330              		.loc 1 167 5 view .LVU1256
 167:Middlewares/lvgl/src/core/lv_obj_pos.c ****     if(!on1) lv_obj_scrollbar_invalidate(parent);
 4331              		.loc 1 167 16 is_stmt 0 view .LVU1257
 4332 00b2 0022     		movs	r2, #0
 4333 00b4 01A9     		add	r1, sp, #4
 4334 00b6 03A8     		add	r0, sp, #12
 4335 00b8 FFF7FEFF 		bl	_lv_area_is_in
 4336              	.LVL410:
 168:Middlewares/lvgl/src/core/lv_obj_pos.c **** 
 4337              		.loc 1 168 5 is_stmt 1 view .LVU1258
ARM GAS  /tmp/ccgCqJqT.s 			page 117


 168:Middlewares/lvgl/src/core/lv_obj_pos.c **** 
 4338              		.loc 1 168 7 is_stmt 0 view .LVU1259
 4339 00bc 0646     		mov	r6, r0
 4340              	.LVL411:
 168:Middlewares/lvgl/src/core/lv_obj_pos.c **** 
 4341              		.loc 1 168 7 view .LVU1260
 4342 00be 0028     		cmp	r0, #0
 4343 00c0 00F00381 		beq	.L242
 4344              	.LVL412:
 4345              	.L226:
 172:Middlewares/lvgl/src/core/lv_obj_pos.c ****     if(lv_obj_get_style_base_dir(obj, LV_PART_MAIN) == LV_BASE_DIR_RTL) {
 4346              		.loc 1 172 5 is_stmt 1 view .LVU1261
 172:Middlewares/lvgl/src/core/lv_obj_pos.c ****     if(lv_obj_get_style_base_dir(obj, LV_PART_MAIN) == LV_BASE_DIR_RTL) {
 4347              		.loc 1 172 33 is_stmt 0 view .LVU1262
 4348 00c4 E38A     		ldrh	r3, [r4, #22]
 172:Middlewares/lvgl/src/core/lv_obj_pos.c ****     if(lv_obj_get_style_base_dir(obj, LV_PART_MAIN) == LV_BASE_DIR_RTL) {
 4349              		.loc 1 172 37 view .LVU1263
 4350 00c6 BDF81420 		ldrh	r2, [sp, #20]
 4351 00ca 1344     		add	r3, r3, r2
 4352 00cc 9BB2     		uxth	r3, r3
 172:Middlewares/lvgl/src/core/lv_obj_pos.c ****     if(lv_obj_get_style_base_dir(obj, LV_PART_MAIN) == LV_BASE_DIR_RTL) {
 4353              		.loc 1 172 41 view .LVU1264
 4354 00ce 013B     		subs	r3, r3, #1
 172:Middlewares/lvgl/src/core/lv_obj_pos.c ****     if(lv_obj_get_style_base_dir(obj, LV_PART_MAIN) == LV_BASE_DIR_RTL) {
 4355              		.loc 1 172 20 view .LVU1265
 4356 00d0 6383     		strh	r3, [r4, #26]	@ movhi
 173:Middlewares/lvgl/src/core/lv_obj_pos.c ****         obj->coords.x1 = obj->coords.x2 - w + 1;
 4357              		.loc 1 173 5 is_stmt 1 view .LVU1266
 4358              	.LVL413:
 4359              	.LBB211:
 4360              	.LBI211:
 187:Middlewares/lvgl/src/core/lv_obj_style_gen.h **** {
 4361              		.loc 2 187 29 view .LVU1267
 4362              	.LBB212:
 189:Middlewares/lvgl/src/core/lv_obj_style_gen.h ****     return (lv_base_dir_t)v.num;
 4363              		.loc 2 189 5 view .LVU1268
 189:Middlewares/lvgl/src/core/lv_obj_style_gen.h ****     return (lv_base_dir_t)v.num;
 4364              		.loc 2 189 26 is_stmt 0 view .LVU1269
 4365 00d2 41F26A42 		movw	r2, #5226
 4366 00d6 0021     		movs	r1, #0
 4367 00d8 2046     		mov	r0, r4
 4368 00da FFF7FEFF 		bl	lv_obj_get_style_prop
 4369              	.LVL414:
 190:Middlewares/lvgl/src/core/lv_obj_style_gen.h **** }
 4370              		.loc 2 190 5 is_stmt 1 view .LVU1270
 190:Middlewares/lvgl/src/core/lv_obj_style_gen.h **** }
 4371              		.loc 2 190 12 is_stmt 0 view .LVU1271
 4372 00de C0B2     		uxtb	r0, r0
 4373              	.LVL415:
 190:Middlewares/lvgl/src/core/lv_obj_style_gen.h **** }
 4374              		.loc 2 190 12 view .LVU1272
 4375              	.LBE212:
 4376              	.LBE211:
 173:Middlewares/lvgl/src/core/lv_obj_pos.c ****         obj->coords.x1 = obj->coords.x2 - w + 1;
 4377              		.loc 1 173 7 view .LVU1273
 4378 00e0 0128     		cmp	r0, #1
 4379 00e2 00F0F680 		beq	.L243
ARM GAS  /tmp/ccgCqJqT.s 			page 118


 177:Middlewares/lvgl/src/core/lv_obj_pos.c ****     }
 4380              		.loc 1 177 9 is_stmt 1 view .LVU1274
 177:Middlewares/lvgl/src/core/lv_obj_pos.c ****     }
 4381              		.loc 1 177 37 is_stmt 0 view .LVU1275
 4382 00e6 A38A     		ldrh	r3, [r4, #20]
 177:Middlewares/lvgl/src/core/lv_obj_pos.c ****     }
 4383              		.loc 1 177 41 view .LVU1276
 4384 00e8 BDF81620 		ldrh	r2, [sp, #22]
 4385 00ec 1344     		add	r3, r3, r2
 4386 00ee 9BB2     		uxth	r3, r3
 177:Middlewares/lvgl/src/core/lv_obj_pos.c ****     }
 4387              		.loc 1 177 45 view .LVU1277
 4388 00f0 013B     		subs	r3, r3, #1
 177:Middlewares/lvgl/src/core/lv_obj_pos.c ****     }
 4389              		.loc 1 177 24 view .LVU1278
 4390 00f2 2383     		strh	r3, [r4, #24]	@ movhi
 4391              	.L228:
 181:Middlewares/lvgl/src/core/lv_obj_pos.c **** 
 4392              		.loc 1 181 5 is_stmt 1 view .LVU1279
 4393 00f4 03AA     		add	r2, sp, #12
 4394 00f6 2321     		movs	r1, #35
 4395 00f8 2046     		mov	r0, r4
 4396 00fa FFF7FEFF 		bl	lv_event_send
 4397              	.LVL416:
 184:Middlewares/lvgl/src/core/lv_obj_pos.c **** 
 4398              		.loc 1 184 5 view .LVU1280
 4399 00fe 2246     		mov	r2, r4
 4400 0100 2221     		movs	r1, #34
 4401 0102 2846     		mov	r0, r5
 4402 0104 FFF7FEFF 		bl	lv_event_send
 4403              	.LVL417:
 187:Middlewares/lvgl/src/core/lv_obj_pos.c **** 
 4404              		.loc 1 187 5 view .LVU1281
 4405 0108 2046     		mov	r0, r4
 4406 010a FFF7FEFF 		bl	lv_obj_invalidate
 4407              	.LVL418:
 189:Middlewares/lvgl/src/core/lv_obj_pos.c **** 
 4408              		.loc 1 189 5 view .LVU1282
 4409 010e 0021     		movs	r1, #0
 4410 0110 2046     		mov	r0, r4
 4411 0112 FFF7FEFF 		bl	lv_obj_readjust_scroll
 4412              	.LVL419:
 193:Middlewares/lvgl/src/core/lv_obj_pos.c ****     if(on1 || (!on1 && on2)) lv_obj_scrollbar_invalidate(parent);
 4413              		.loc 1 193 5 view .LVU1283
 193:Middlewares/lvgl/src/core/lv_obj_pos.c ****     if(on1 || (!on1 && on2)) lv_obj_scrollbar_invalidate(parent);
 4414              		.loc 1 193 16 is_stmt 0 view .LVU1284
 4415 0116 0022     		movs	r2, #0
 4416 0118 01A9     		add	r1, sp, #4
 4417 011a 04F11400 		add	r0, r4, #20
 4418 011e FFF7FEFF 		bl	_lv_area_is_in
 4419              	.LVL420:
 194:Middlewares/lvgl/src/core/lv_obj_pos.c **** 
 4420              		.loc 1 194 5 is_stmt 1 view .LVU1285
 194:Middlewares/lvgl/src/core/lv_obj_pos.c **** 
 4421              		.loc 1 194 7 is_stmt 0 view .LVU1286
 4422 0122 16B9     		cbnz	r6, .L229
 194:Middlewares/lvgl/src/core/lv_obj_pos.c **** 
ARM GAS  /tmp/ccgCqJqT.s 			page 119


 4423              		.loc 1 194 21 discriminator 3 view .LVU1287
 4424 0124 0028     		cmp	r0, #0
 4425 0126 00F0E280 		beq	.L237
 4426              	.L229:
 194:Middlewares/lvgl/src/core/lv_obj_pos.c **** 
 4427              		.loc 1 194 30 is_stmt 1 discriminator 4 view .LVU1288
 4428 012a 2846     		mov	r0, r5
 4429              	.LVL421:
 194:Middlewares/lvgl/src/core/lv_obj_pos.c **** 
 4430              		.loc 1 194 30 is_stmt 0 discriminator 4 view .LVU1289
 4431 012c FFF7FEFF 		bl	lv_obj_scrollbar_invalidate
 4432              	.LVL422:
 200:Middlewares/lvgl/src/core/lv_obj_pos.c **** }
 4433              		.loc 1 200 12 discriminator 4 view .LVU1290
 4434 0130 0120     		movs	r0, #1
 4435              	.LVL423:
 4436              	.L208:
 201:Middlewares/lvgl/src/core/lv_obj_pos.c **** 
 4437              		.loc 1 201 1 view .LVU1291
 4438 0132 07B0     		add	sp, sp, #28
 4439              	.LCFI73:
 4440              		.cfi_remember_state
 4441              		.cfi_def_cfa_offset 36
 4442              		@ sp needed
 4443 0134 BDE8F08F 		pop	{r4, r5, r6, r7, r8, r9, r10, fp, pc}
 4444              	.LVL424:
 4445              	.L209:
 4446              	.LCFI74:
 4447              		.cfi_restore_state
 4448              	.LBB213:
 100:Middlewares/lvgl/src/core/lv_obj_pos.c ****         w_content = w == LV_SIZE_CONTENT ? true : false;
 4449              		.loc 1 100 9 is_stmt 1 view .LVU1292
 4450              	.LBB214:
 4451              	.LBI214:
   1:Middlewares/lvgl/src/core/lv_obj_style_gen.h **** {
 4452              		.loc 2 1 26 view .LVU1293
 4453              	.LBB215:
   3:Middlewares/lvgl/src/core/lv_obj_style_gen.h ****     return (lv_coord_t)v.num;
 4454              		.loc 2 3 5 view .LVU1294
   3:Middlewares/lvgl/src/core/lv_obj_style_gen.h ****     return (lv_coord_t)v.num;
 4455              		.loc 2 3 26 is_stmt 0 view .LVU1295
 4456 0138 41F20102 		movw	r2, #4097
 4457 013c 0021     		movs	r1, #0
 4458 013e 2046     		mov	r0, r4
 4459 0140 FFF7FEFF 		bl	lv_obj_get_style_prop
 4460              	.LVL425:
   4:Middlewares/lvgl/src/core/lv_obj_style_gen.h **** }
 4461              		.loc 2 4 5 is_stmt 1 view .LVU1296
   4:Middlewares/lvgl/src/core/lv_obj_style_gen.h **** }
 4462              		.loc 2 4 12 is_stmt 0 view .LVU1297
 4463 0144 00B2     		sxth	r0, r0
 4464              	.LVL426:
   4:Middlewares/lvgl/src/core/lv_obj_style_gen.h **** }
 4465              		.loc 2 4 12 view .LVU1298
 4466              	.LBE215:
 4467              	.LBE214:
 100:Middlewares/lvgl/src/core/lv_obj_pos.c ****         w_content = w == LV_SIZE_CONTENT ? true : false;
ARM GAS  /tmp/ccgCqJqT.s 			page 120


 4468              		.loc 1 100 11 view .LVU1299
 4469 0146 ADF81600 		strh	r0, [sp, #22]	@ movhi
 101:Middlewares/lvgl/src/core/lv_obj_pos.c **** 
 4470              		.loc 1 101 9 is_stmt 1 view .LVU1300
 101:Middlewares/lvgl/src/core/lv_obj_pos.c **** 
 4471              		.loc 1 101 19 is_stmt 0 view .LVU1301
 4472 014a 42F2D173 		movw	r3, #10193
 4473 014e 9842     		cmp	r0, r3
 4474 0150 0CBF     		ite	eq
 4475 0152 4FF00108 		moveq	r8, #1
 4476 0156 4FF00008 		movne	r8, #0
 4477              	.LVL427:
 104:Middlewares/lvgl/src/core/lv_obj_pos.c ****             lv_obj_scroll_to_x(obj, 0, LV_ANIM_OFF);
 4478              		.loc 1 104 9 is_stmt 1 view .LVU1302
 104:Middlewares/lvgl/src/core/lv_obj_pos.c ****             lv_obj_scroll_to_x(obj, 0, LV_ANIM_OFF);
 4479              		.loc 1 104 11 is_stmt 0 view .LVU1303
 4480 015a 3BD0     		beq	.L244
 4481              	.L211:
 110:Middlewares/lvgl/src/core/lv_obj_pos.c **** 
 4482              		.loc 1 110 9 is_stmt 1 view .LVU1304
 110:Middlewares/lvgl/src/core/lv_obj_pos.c **** 
 4483              		.loc 1 110 22 is_stmt 0 view .LVU1305
 4484 015c BDF91630 		ldrsh	r3, [sp, #22]
 110:Middlewares/lvgl/src/core/lv_obj_pos.c **** 
 4485              		.loc 1 110 48 view .LVU1306
 4486 0160 03F4C042 		and	r2, r3, #24576
 4487 0164 B2F5005F 		cmp	r2, #8192
 4488 0168 40D0     		beq	.L245
 4489 016a 4FF00009 		mov	r9, #0
 4490              	.L212:
 4491              	.LVL428:
 112:Middlewares/lvgl/src/core/lv_obj_pos.c ****         if(pct_w) w = (LV_COORD_GET_PCT(w) * parent_w) / 100;
 4492              		.loc 1 112 9 is_stmt 1 discriminator 6 view .LVU1307
 112:Middlewares/lvgl/src/core/lv_obj_pos.c ****         if(pct_w) w = (LV_COORD_GET_PCT(w) * parent_w) / 100;
 4493              		.loc 1 112 31 is_stmt 0 discriminator 6 view .LVU1308
 4494 016e 2846     		mov	r0, r5
 4495 0170 FFF7FEFF 		bl	lv_obj_get_content_width
 4496              	.LVL429:
 4497 0174 0746     		mov	r7, r0
 4498              	.LVL430:
 113:Middlewares/lvgl/src/core/lv_obj_pos.c **** 
 4499              		.loc 1 113 9 is_stmt 1 discriminator 6 view .LVU1309
 113:Middlewares/lvgl/src/core/lv_obj_pos.c **** 
 4500              		.loc 1 113 11 is_stmt 0 discriminator 6 view .LVU1310
 4501 0176 B9F1000F 		cmp	r9, #0
 4502 017a 13D0     		beq	.L213
 113:Middlewares/lvgl/src/core/lv_obj_pos.c **** 
 4503              		.loc 1 113 19 is_stmt 1 discriminator 1 view .LVU1311
 113:Middlewares/lvgl/src/core/lv_obj_pos.c **** 
 4504              		.loc 1 113 24 is_stmt 0 discriminator 1 view .LVU1312
 4505 017c BDF81620 		ldrh	r2, [sp, #22]
 4506 0180 22F4C042 		bic	r2, r2, #24576
 4507 0184 12B2     		sxth	r2, r2
 4508 0186 B2F57A7F 		cmp	r2, #1000
 4509 018a 01DD     		ble	.L215
 113:Middlewares/lvgl/src/core/lv_obj_pos.c **** 
 4510              		.loc 1 113 24 discriminator 2 view .LVU1313
ARM GAS  /tmp/ccgCqJqT.s 			page 121


 4511 018c C2F57A72 		rsb	r2, r2, #1000
 4512              	.L215:
 113:Middlewares/lvgl/src/core/lv_obj_pos.c **** 
 4513              		.loc 1 113 44 discriminator 5 view .LVU1314
 4514 0190 07FB02F2 		mul	r2, r7, r2
 113:Middlewares/lvgl/src/core/lv_obj_pos.c **** 
 4515              		.loc 1 113 56 discriminator 5 view .LVU1315
 4516 0194 574B     		ldr	r3, .L248
 4517 0196 83FB0213 		smull	r1, r3, r3, r2
 4518 019a D217     		asrs	r2, r2, #31
 4519 019c C2EB6312 		rsb	r2, r2, r3, asr #5
 113:Middlewares/lvgl/src/core/lv_obj_pos.c **** 
 4520              		.loc 1 113 21 discriminator 5 view .LVU1316
 4521 01a0 ADF81620 		strh	r2, [sp, #22]	@ movhi
 4522              	.L213:
 115:Middlewares/lvgl/src/core/lv_obj_pos.c ****         lv_coord_t maxw = lv_obj_get_style_max_width(obj, LV_PART_MAIN);
 4523              		.loc 1 115 9 is_stmt 1 view .LVU1317
 4524              	.LVL431:
 4525              	.LBB216:
 4526              	.LBI216:
   7:Middlewares/lvgl/src/core/lv_obj_style_gen.h **** {
 4527              		.loc 2 7 26 view .LVU1318
 4528              	.LBB217:
   9:Middlewares/lvgl/src/core/lv_obj_style_gen.h ****     return (lv_coord_t)v.num;
 4529              		.loc 2 9 5 view .LVU1319
   9:Middlewares/lvgl/src/core/lv_obj_style_gen.h ****     return (lv_coord_t)v.num;
 4530              		.loc 2 9 26 is_stmt 0 view .LVU1320
 4531 01a4 41F20202 		movw	r2, #4098
 4532 01a8 0021     		movs	r1, #0
 4533 01aa 2046     		mov	r0, r4
 4534 01ac FFF7FEFF 		bl	lv_obj_get_style_prop
 4535              	.LVL432:
  10:Middlewares/lvgl/src/core/lv_obj_style_gen.h **** }
 4536              		.loc 2 10 5 is_stmt 1 view .LVU1321
  10:Middlewares/lvgl/src/core/lv_obj_style_gen.h **** }
 4537              		.loc 2 10 12 is_stmt 0 view .LVU1322
 4538 01b0 0FFA80F9 		sxth	r9, r0
 4539              	.LVL433:
  10:Middlewares/lvgl/src/core/lv_obj_style_gen.h **** }
 4540              		.loc 2 10 12 view .LVU1323
 4541              	.LBE217:
 4542              	.LBE216:
 116:Middlewares/lvgl/src/core/lv_obj_pos.c ****         w = lv_clamp_width(w, minw, maxw, parent_w);
 4543              		.loc 1 116 9 is_stmt 1 view .LVU1324
 4544              	.LBB218:
 4545              	.LBI218:
  13:Middlewares/lvgl/src/core/lv_obj_style_gen.h **** {
 4546              		.loc 2 13 26 view .LVU1325
 4547              	.LBB219:
  15:Middlewares/lvgl/src/core/lv_obj_style_gen.h ****     return (lv_coord_t)v.num;
 4548              		.loc 2 15 5 view .LVU1326
  15:Middlewares/lvgl/src/core/lv_obj_style_gen.h ****     return (lv_coord_t)v.num;
 4549              		.loc 2 15 26 is_stmt 0 view .LVU1327
 4550 01b4 41F20302 		movw	r2, #4099
 4551 01b8 0021     		movs	r1, #0
 4552 01ba 2046     		mov	r0, r4
 4553 01bc FFF7FEFF 		bl	lv_obj_get_style_prop
ARM GAS  /tmp/ccgCqJqT.s 			page 122


 4554              	.LVL434:
  16:Middlewares/lvgl/src/core/lv_obj_style_gen.h **** }
 4555              		.loc 2 16 5 is_stmt 1 view .LVU1328
  16:Middlewares/lvgl/src/core/lv_obj_style_gen.h **** }
 4556              		.loc 2 16 5 is_stmt 0 view .LVU1329
 4557              	.LBE219:
 4558              	.LBE218:
 117:Middlewares/lvgl/src/core/lv_obj_pos.c ****     }
 4559              		.loc 1 117 9 is_stmt 1 view .LVU1330
 117:Middlewares/lvgl/src/core/lv_obj_pos.c ****     }
 4560              		.loc 1 117 13 is_stmt 0 view .LVU1331
 4561 01c0 3B46     		mov	r3, r7
 4562 01c2 02B2     		sxth	r2, r0
 4563 01c4 4946     		mov	r1, r9
 4564 01c6 BDF91600 		ldrsh	r0, [sp, #22]
 4565              	.LVL435:
 117:Middlewares/lvgl/src/core/lv_obj_pos.c ****     }
 4566              		.loc 1 117 13 view .LVU1332
 4567 01ca FFF7FEFF 		bl	lv_clamp_width
 4568              	.LVL436:
 117:Middlewares/lvgl/src/core/lv_obj_pos.c ****     }
 4569              		.loc 1 117 11 view .LVU1333
 4570 01ce ADF81600 		strh	r0, [sp, #22]	@ movhi
 4571 01d2 37E7     		b	.L210
 4572              	.LVL437:
 4573              	.L244:
 105:Middlewares/lvgl/src/core/lv_obj_pos.c ****             calc_auto_size(obj, &w, NULL);
 4574              		.loc 1 105 13 is_stmt 1 view .LVU1334
 4575 01d4 0022     		movs	r2, #0
 4576 01d6 1146     		mov	r1, r2
 4577 01d8 2046     		mov	r0, r4
 4578 01da FFF7FEFF 		bl	lv_obj_scroll_to_x
 4579              	.LVL438:
 106:Middlewares/lvgl/src/core/lv_obj_pos.c ****         }
 4580              		.loc 1 106 13 view .LVU1335
 4581 01de 0022     		movs	r2, #0
 4582 01e0 0DF11601 		add	r1, sp, #22
 4583 01e4 2046     		mov	r0, r4
 4584 01e6 FFF7FEFF 		bl	calc_auto_size
 4585              	.LVL439:
 4586 01ea B7E7     		b	.L211
 4587              	.L245:
 110:Middlewares/lvgl/src/core/lv_obj_pos.c **** 
 4588              		.loc 1 110 22 is_stmt 0 discriminator 1 view .LVU1336
 4589 01ec 23F4C043 		bic	r3, r3, #24576
 110:Middlewares/lvgl/src/core/lv_obj_pos.c **** 
 4590              		.loc 1 110 48 discriminator 1 view .LVU1337
 4591 01f0 B3F5FA6F 		cmp	r3, #2000
 4592 01f4 02DD     		ble	.L233
 110:Middlewares/lvgl/src/core/lv_obj_pos.c **** 
 4593              		.loc 1 110 48 view .LVU1338
 4594 01f6 4FF00009 		mov	r9, #0
 4595 01fa B8E7     		b	.L212
 4596              	.L233:
 4597 01fc 4FF00109 		mov	r9, #1
 4598 0200 B5E7     		b	.L212
 4599              	.LVL440:
ARM GAS  /tmp/ccgCqJqT.s 			page 123


 4600              	.L216:
 110:Middlewares/lvgl/src/core/lv_obj_pos.c **** 
 4601              		.loc 1 110 48 view .LVU1339
 4602              	.LBE213:
 4603              	.LBB220:
 126:Middlewares/lvgl/src/core/lv_obj_pos.c ****         h_content = h == LV_SIZE_CONTENT ? true : false;
 4604              		.loc 1 126 9 is_stmt 1 view .LVU1340
 4605              	.LBB221:
 4606              	.LBI221:
  19:Middlewares/lvgl/src/core/lv_obj_style_gen.h **** {
 4607              		.loc 2 19 26 view .LVU1341
 4608              	.LBB222:
  21:Middlewares/lvgl/src/core/lv_obj_style_gen.h ****     return (lv_coord_t)v.num;
 4609              		.loc 2 21 5 view .LVU1342
  21:Middlewares/lvgl/src/core/lv_obj_style_gen.h ****     return (lv_coord_t)v.num;
 4610              		.loc 2 21 26 is_stmt 0 view .LVU1343
 4611 0202 41F20402 		movw	r2, #4100
 4612 0206 0021     		movs	r1, #0
 4613 0208 2046     		mov	r0, r4
 4614 020a FFF7FEFF 		bl	lv_obj_get_style_prop
 4615              	.LVL441:
  22:Middlewares/lvgl/src/core/lv_obj_style_gen.h **** }
 4616              		.loc 2 22 5 is_stmt 1 view .LVU1344
  22:Middlewares/lvgl/src/core/lv_obj_style_gen.h **** }
 4617              		.loc 2 22 12 is_stmt 0 view .LVU1345
 4618 020e 00B2     		sxth	r0, r0
 4619              	.LVL442:
  22:Middlewares/lvgl/src/core/lv_obj_style_gen.h **** }
 4620              		.loc 2 22 12 view .LVU1346
 4621              	.LBE222:
 4622              	.LBE221:
 126:Middlewares/lvgl/src/core/lv_obj_pos.c ****         h_content = h == LV_SIZE_CONTENT ? true : false;
 4623              		.loc 1 126 11 view .LVU1347
 4624 0210 ADF81400 		strh	r0, [sp, #20]	@ movhi
 127:Middlewares/lvgl/src/core/lv_obj_pos.c **** 
 4625              		.loc 1 127 9 is_stmt 1 view .LVU1348
 127:Middlewares/lvgl/src/core/lv_obj_pos.c **** 
 4626              		.loc 1 127 19 is_stmt 0 view .LVU1349
 4627 0214 42F2D173 		movw	r3, #10193
 4628 0218 9842     		cmp	r0, r3
 4629 021a 0CBF     		ite	eq
 4630 021c 4FF00109 		moveq	r9, #1
 4631 0220 4FF00009 		movne	r9, #0
 4632              	.LVL443:
 130:Middlewares/lvgl/src/core/lv_obj_pos.c ****             lv_obj_scroll_to_y(obj, 0, LV_ANIM_OFF);
 4633              		.loc 1 130 9 is_stmt 1 view .LVU1350
 130:Middlewares/lvgl/src/core/lv_obj_pos.c ****             lv_obj_scroll_to_y(obj, 0, LV_ANIM_OFF);
 4634              		.loc 1 130 11 is_stmt 0 view .LVU1351
 4635 0224 3BD0     		beq	.L246
 4636              	.L218:
 136:Middlewares/lvgl/src/core/lv_obj_pos.c ****         lv_coord_t parent_h = lv_obj_get_content_height(parent);
 4637              		.loc 1 136 9 is_stmt 1 view .LVU1352
 136:Middlewares/lvgl/src/core/lv_obj_pos.c ****         lv_coord_t parent_h = lv_obj_get_content_height(parent);
 4638              		.loc 1 136 22 is_stmt 0 view .LVU1353
 4639 0226 BDF91430 		ldrsh	r3, [sp, #20]
 136:Middlewares/lvgl/src/core/lv_obj_pos.c ****         lv_coord_t parent_h = lv_obj_get_content_height(parent);
 4640              		.loc 1 136 48 view .LVU1354
ARM GAS  /tmp/ccgCqJqT.s 			page 124


 4641 022a 03F4C042 		and	r2, r3, #24576
 4642 022e B2F5005F 		cmp	r2, #8192
 4643 0232 3FD0     		beq	.L247
 4644 0234 4FF0000B 		mov	fp, #0
 4645              	.L219:
 4646              	.LVL444:
 137:Middlewares/lvgl/src/core/lv_obj_pos.c ****         if(pct_h) h = (LV_COORD_GET_PCT(h) * parent_h) / 100;
 4647              		.loc 1 137 9 is_stmt 1 discriminator 6 view .LVU1355
 137:Middlewares/lvgl/src/core/lv_obj_pos.c ****         if(pct_h) h = (LV_COORD_GET_PCT(h) * parent_h) / 100;
 4648              		.loc 1 137 31 is_stmt 0 discriminator 6 view .LVU1356
 4649 0238 2846     		mov	r0, r5
 4650 023a FFF7FEFF 		bl	lv_obj_get_content_height
 4651              	.LVL445:
 4652 023e 8246     		mov	r10, r0
 4653              	.LVL446:
 138:Middlewares/lvgl/src/core/lv_obj_pos.c **** 
 4654              		.loc 1 138 9 is_stmt 1 discriminator 6 view .LVU1357
 138:Middlewares/lvgl/src/core/lv_obj_pos.c **** 
 4655              		.loc 1 138 11 is_stmt 0 discriminator 6 view .LVU1358
 4656 0240 BBF1000F 		cmp	fp, #0
 4657 0244 13D0     		beq	.L220
 138:Middlewares/lvgl/src/core/lv_obj_pos.c **** 
 4658              		.loc 1 138 19 is_stmt 1 discriminator 1 view .LVU1359
 138:Middlewares/lvgl/src/core/lv_obj_pos.c **** 
 4659              		.loc 1 138 24 is_stmt 0 discriminator 1 view .LVU1360
 4660 0246 BDF81420 		ldrh	r2, [sp, #20]
 4661 024a 22F4C042 		bic	r2, r2, #24576
 4662 024e 12B2     		sxth	r2, r2
 4663 0250 B2F57A7F 		cmp	r2, #1000
 4664 0254 01DD     		ble	.L222
 138:Middlewares/lvgl/src/core/lv_obj_pos.c **** 
 4665              		.loc 1 138 24 discriminator 2 view .LVU1361
 4666 0256 C2F57A72 		rsb	r2, r2, #1000
 4667              	.L222:
 138:Middlewares/lvgl/src/core/lv_obj_pos.c **** 
 4668              		.loc 1 138 44 discriminator 5 view .LVU1362
 4669 025a 02FB0AF2 		mul	r2, r2, r10
 138:Middlewares/lvgl/src/core/lv_obj_pos.c **** 
 4670              		.loc 1 138 56 discriminator 5 view .LVU1363
 4671 025e 254B     		ldr	r3, .L248
 4672 0260 83FB0213 		smull	r1, r3, r3, r2
 4673 0264 D217     		asrs	r2, r2, #31
 4674 0266 C2EB6312 		rsb	r2, r2, r3, asr #5
 138:Middlewares/lvgl/src/core/lv_obj_pos.c **** 
 4675              		.loc 1 138 21 discriminator 5 view .LVU1364
 4676 026a ADF81420 		strh	r2, [sp, #20]	@ movhi
 4677              	.L220:
 140:Middlewares/lvgl/src/core/lv_obj_pos.c ****         lv_coord_t maxh = lv_obj_get_style_max_height(obj, LV_PART_MAIN);
 4678              		.loc 1 140 9 is_stmt 1 view .LVU1365
 4679              	.LVL447:
 4680              	.LBB223:
 4681              	.LBI223:
  25:Middlewares/lvgl/src/core/lv_obj_style_gen.h **** {
 4682              		.loc 2 25 26 view .LVU1366
 4683              	.LBB224:
  27:Middlewares/lvgl/src/core/lv_obj_style_gen.h ****     return (lv_coord_t)v.num;
 4684              		.loc 2 27 5 view .LVU1367
ARM GAS  /tmp/ccgCqJqT.s 			page 125


  27:Middlewares/lvgl/src/core/lv_obj_style_gen.h ****     return (lv_coord_t)v.num;
 4685              		.loc 2 27 26 is_stmt 0 view .LVU1368
 4686 026e 41F20502 		movw	r2, #4101
 4687 0272 0021     		movs	r1, #0
 4688 0274 2046     		mov	r0, r4
 4689 0276 FFF7FEFF 		bl	lv_obj_get_style_prop
 4690              	.LVL448:
  28:Middlewares/lvgl/src/core/lv_obj_style_gen.h **** }
 4691              		.loc 2 28 5 is_stmt 1 view .LVU1369
  28:Middlewares/lvgl/src/core/lv_obj_style_gen.h **** }
 4692              		.loc 2 28 12 is_stmt 0 view .LVU1370
 4693 027a 0FFA80FB 		sxth	fp, r0
 4694              	.LVL449:
  28:Middlewares/lvgl/src/core/lv_obj_style_gen.h **** }
 4695              		.loc 2 28 12 view .LVU1371
 4696              	.LBE224:
 4697              	.LBE223:
 141:Middlewares/lvgl/src/core/lv_obj_pos.c ****         h = lv_clamp_height(h, minh, maxh, parent_h);
 4698              		.loc 1 141 9 is_stmt 1 view .LVU1372
 4699              	.LBB225:
 4700              	.LBI225:
  31:Middlewares/lvgl/src/core/lv_obj_style_gen.h **** {
 4701              		.loc 2 31 26 view .LVU1373
 4702              	.LBB226:
  33:Middlewares/lvgl/src/core/lv_obj_style_gen.h ****     return (lv_coord_t)v.num;
 4703              		.loc 2 33 5 view .LVU1374
  33:Middlewares/lvgl/src/core/lv_obj_style_gen.h ****     return (lv_coord_t)v.num;
 4704              		.loc 2 33 26 is_stmt 0 view .LVU1375
 4705 027e 41F20602 		movw	r2, #4102
 4706 0282 0021     		movs	r1, #0
 4707 0284 2046     		mov	r0, r4
 4708 0286 FFF7FEFF 		bl	lv_obj_get_style_prop
 4709              	.LVL450:
  34:Middlewares/lvgl/src/core/lv_obj_style_gen.h **** }
 4710              		.loc 2 34 5 is_stmt 1 view .LVU1376
  34:Middlewares/lvgl/src/core/lv_obj_style_gen.h **** }
 4711              		.loc 2 34 5 is_stmt 0 view .LVU1377
 4712              	.LBE226:
 4713              	.LBE225:
 142:Middlewares/lvgl/src/core/lv_obj_pos.c ****     }
 4714              		.loc 1 142 9 is_stmt 1 view .LVU1378
 142:Middlewares/lvgl/src/core/lv_obj_pos.c ****     }
 4715              		.loc 1 142 13 is_stmt 0 view .LVU1379
 4716 028a 5346     		mov	r3, r10
 4717 028c 02B2     		sxth	r2, r0
 4718 028e 5946     		mov	r1, fp
 4719 0290 BDF91400 		ldrsh	r0, [sp, #20]
 4720              	.LVL451:
 142:Middlewares/lvgl/src/core/lv_obj_pos.c ****     }
 4721              		.loc 1 142 13 view .LVU1380
 4722 0294 FFF7FEFF 		bl	lv_clamp_height
 4723              	.LVL452:
 142:Middlewares/lvgl/src/core/lv_obj_pos.c ****     }
 4724              		.loc 1 142 11 view .LVU1381
 4725 0298 ADF81400 		strh	r0, [sp, #20]	@ movhi
 4726 029c E3E6     		b	.L217
 4727              	.LVL453:
ARM GAS  /tmp/ccgCqJqT.s 			page 126


 4728              	.L246:
 131:Middlewares/lvgl/src/core/lv_obj_pos.c ****             calc_auto_size(obj, NULL, &h);
 4729              		.loc 1 131 13 is_stmt 1 view .LVU1382
 4730 029e 0022     		movs	r2, #0
 4731 02a0 1146     		mov	r1, r2
 4732 02a2 2046     		mov	r0, r4
 4733 02a4 FFF7FEFF 		bl	lv_obj_scroll_to_y
 4734              	.LVL454:
 132:Middlewares/lvgl/src/core/lv_obj_pos.c ****         }
 4735              		.loc 1 132 13 view .LVU1383
 4736 02a8 05AA     		add	r2, sp, #20
 4737 02aa 0021     		movs	r1, #0
 4738 02ac 2046     		mov	r0, r4
 4739 02ae FFF7FEFF 		bl	calc_auto_size
 4740              	.LVL455:
 4741 02b2 B8E7     		b	.L218
 4742              	.L247:
 136:Middlewares/lvgl/src/core/lv_obj_pos.c ****         lv_coord_t parent_h = lv_obj_get_content_height(parent);
 4743              		.loc 1 136 22 is_stmt 0 discriminator 1 view .LVU1384
 4744 02b4 23F4C043 		bic	r3, r3, #24576
 136:Middlewares/lvgl/src/core/lv_obj_pos.c ****         lv_coord_t parent_h = lv_obj_get_content_height(parent);
 4745              		.loc 1 136 48 discriminator 1 view .LVU1385
 4746 02b8 B3F5FA6F 		cmp	r3, #2000
 4747 02bc 02DD     		ble	.L235
 136:Middlewares/lvgl/src/core/lv_obj_pos.c ****         lv_coord_t parent_h = lv_obj_get_content_height(parent);
 4748              		.loc 1 136 48 view .LVU1386
 4749 02be 4FF0000B 		mov	fp, #0
 4750 02c2 B9E7     		b	.L219
 4751              	.L235:
 4752 02c4 4FF0010B 		mov	fp, #1
 4753 02c8 B6E7     		b	.L219
 4754              	.LVL456:
 4755              	.L242:
 136:Middlewares/lvgl/src/core/lv_obj_pos.c ****         lv_coord_t parent_h = lv_obj_get_content_height(parent);
 4756              		.loc 1 136 48 view .LVU1387
 4757              	.LBE220:
 168:Middlewares/lvgl/src/core/lv_obj_pos.c **** 
 4758              		.loc 1 168 14 is_stmt 1 discriminator 1 view .LVU1388
 4759 02ca 2846     		mov	r0, r5
 4760              	.LVL457:
 168:Middlewares/lvgl/src/core/lv_obj_pos.c **** 
 4761              		.loc 1 168 14 is_stmt 0 discriminator 1 view .LVU1389
 4762 02cc FFF7FEFF 		bl	lv_obj_scrollbar_invalidate
 4763              	.LVL458:
 4764 02d0 F8E6     		b	.L226
 4765              	.L243:
 174:Middlewares/lvgl/src/core/lv_obj_pos.c ****     }
 4766              		.loc 1 174 9 is_stmt 1 view .LVU1390
 174:Middlewares/lvgl/src/core/lv_obj_pos.c ****     }
 4767              		.loc 1 174 37 is_stmt 0 view .LVU1391
 4768 02d2 238B     		ldrh	r3, [r4, #24]
 174:Middlewares/lvgl/src/core/lv_obj_pos.c ****     }
 4769              		.loc 1 174 41 view .LVU1392
 4770 02d4 BDF81620 		ldrh	r2, [sp, #22]
 4771 02d8 9B1A     		subs	r3, r3, r2
 4772 02da 9BB2     		uxth	r3, r3
 174:Middlewares/lvgl/src/core/lv_obj_pos.c ****     }
ARM GAS  /tmp/ccgCqJqT.s 			page 127


 4773              		.loc 1 174 45 view .LVU1393
 4774 02dc 0133     		adds	r3, r3, #1
 174:Middlewares/lvgl/src/core/lv_obj_pos.c ****     }
 4775              		.loc 1 174 24 view .LVU1394
 4776 02de A382     		strh	r3, [r4, #20]	@ movhi
 4777 02e0 08E7     		b	.L228
 4778              	.LVL459:
 4779              	.L230:
 4780              	.LCFI75:
 4781              		.cfi_def_cfa_offset 0
 4782              		.cfi_restore 4
 4783              		.cfi_restore 5
 4784              		.cfi_restore 6
 4785              		.cfi_restore 7
 4786              		.cfi_restore 8
 4787              		.cfi_restore 9
 4788              		.cfi_restore 10
 4789              		.cfi_restore 11
 4790              		.cfi_restore 14
  89:Middlewares/lvgl/src/core/lv_obj_pos.c **** 
 4791              		.loc 1 89 47 view .LVU1395
 4792 02e2 0020     		movs	r0, #0
 4793              	.LVL460:
 201:Middlewares/lvgl/src/core/lv_obj_pos.c **** 
 4794              		.loc 1 201 1 view .LVU1396
 4795 02e4 7047     		bx	lr
 4796              	.LVL461:
 4797              	.L231:
 4798              	.LCFI76:
 4799              		.cfi_def_cfa_offset 64
 4800              		.cfi_offset 4, -36
 4801              		.cfi_offset 5, -32
 4802              		.cfi_offset 6, -28
 4803              		.cfi_offset 7, -24
 4804              		.cfi_offset 8, -20
 4805              		.cfi_offset 9, -16
 4806              		.cfi_offset 10, -12
 4807              		.cfi_offset 11, -8
 4808              		.cfi_offset 14, -4
  92:Middlewares/lvgl/src/core/lv_obj_pos.c **** 
 4809              		.loc 1 92 31 view .LVU1397
 4810 02e6 0020     		movs	r0, #0
 4811              	.LVL462:
  92:Middlewares/lvgl/src/core/lv_obj_pos.c **** 
 4812              		.loc 1 92 31 view .LVU1398
 4813 02e8 23E7     		b	.L208
 4814              	.LVL463:
 4815              	.L236:
 152:Middlewares/lvgl/src/core/lv_obj_pos.c **** 
 4816              		.loc 1 152 74 view .LVU1399
 4817 02ea 0020     		movs	r0, #0
 4818 02ec 21E7     		b	.L208
 4819              	.LVL464:
 4820              	.L237:
 200:Middlewares/lvgl/src/core/lv_obj_pos.c **** }
 4821              		.loc 1 200 12 view .LVU1400
 4822 02ee 0120     		movs	r0, #1
ARM GAS  /tmp/ccgCqJqT.s 			page 128


 4823              	.LVL465:
 200:Middlewares/lvgl/src/core/lv_obj_pos.c **** }
 4824              		.loc 1 200 12 view .LVU1401
 4825 02f0 1FE7     		b	.L208
 4826              	.L249:
 4827 02f2 00BF     		.align	2
 4828              	.L248:
 4829 02f4 1F85EB51 		.word	1374389535
 4830              		.cfi_endproc
 4831              	.LFE156:
 4833              		.section	.text.layout_update_core,"ax",%progbits
 4834              		.align	1
 4835              		.syntax unified
 4836              		.thumb
 4837              		.thumb_func
 4838              		.fpu softvfp
 4840              	layout_update_core:
 4841              	.LVL466:
 4842              	.LFB196:
 934:Middlewares/lvgl/src/core/lv_obj_pos.c **** 
 935:Middlewares/lvgl/src/core/lv_obj_pos.c **** static void layout_update_core(lv_obj_t * obj)
 936:Middlewares/lvgl/src/core/lv_obj_pos.c **** {
 4843              		.loc 1 936 1 is_stmt 1 view -0
 4844              		.cfi_startproc
 4845              		@ args = 0, pretend = 0, frame = 0
 4846              		@ frame_needed = 0, uses_anonymous_args = 0
 4847              		.loc 1 936 1 is_stmt 0 view .LVU1403
 4848 0000 70B5     		push	{r4, r5, r6, lr}
 4849              	.LCFI77:
 4850              		.cfi_def_cfa_offset 16
 4851              		.cfi_offset 4, -16
 4852              		.cfi_offset 5, -12
 4853              		.cfi_offset 6, -8
 4854              		.cfi_offset 14, -4
 4855 0002 0546     		mov	r5, r0
 937:Middlewares/lvgl/src/core/lv_obj_pos.c ****     uint32_t i;
 4856              		.loc 1 937 5 is_stmt 1 view .LVU1404
 938:Middlewares/lvgl/src/core/lv_obj_pos.c ****     uint32_t child_cnt = lv_obj_get_child_cnt(obj);
 4857              		.loc 1 938 5 view .LVU1405
 4858              		.loc 1 938 26 is_stmt 0 view .LVU1406
 4859 0004 FFF7FEFF 		bl	lv_obj_get_child_cnt
 4860              	.LVL467:
 4861              		.loc 1 938 26 view .LVU1407
 4862 0008 0646     		mov	r6, r0
 4863              	.LVL468:
 939:Middlewares/lvgl/src/core/lv_obj_pos.c ****     for(i = 0; i < child_cnt; i++) {
 4864              		.loc 1 939 5 is_stmt 1 view .LVU1408
 4865              		.loc 1 939 11 is_stmt 0 view .LVU1409
 4866 000a 0024     		movs	r4, #0
 4867              		.loc 1 939 5 view .LVU1410
 4868 000c 06E0     		b	.L251
 4869              	.LVL469:
 4870              	.L252:
 4871              	.LBB227:
 940:Middlewares/lvgl/src/core/lv_obj_pos.c ****         lv_obj_t * child = lv_obj_get_child(obj, i);
 4872              		.loc 1 940 9 is_stmt 1 discriminator 3 view .LVU1411
 4873              		.loc 1 940 28 is_stmt 0 discriminator 3 view .LVU1412
ARM GAS  /tmp/ccgCqJqT.s 			page 129


 4874 000e 2146     		mov	r1, r4
 4875 0010 2846     		mov	r0, r5
 4876 0012 FFF7FEFF 		bl	lv_obj_get_child
 4877              	.LVL470:
 941:Middlewares/lvgl/src/core/lv_obj_pos.c ****         layout_update_core(child);
 4878              		.loc 1 941 9 is_stmt 1 discriminator 3 view .LVU1413
 4879 0016 FFF7F3FF 		bl	layout_update_core
 4880              	.LVL471:
 4881              		.loc 1 941 9 is_stmt 0 discriminator 3 view .LVU1414
 4882              	.LBE227:
 939:Middlewares/lvgl/src/core/lv_obj_pos.c ****     for(i = 0; i < child_cnt; i++) {
 4883              		.loc 1 939 31 is_stmt 1 discriminator 3 view .LVU1415
 939:Middlewares/lvgl/src/core/lv_obj_pos.c ****     for(i = 0; i < child_cnt; i++) {
 4884              		.loc 1 939 32 is_stmt 0 discriminator 3 view .LVU1416
 4885 001a 0134     		adds	r4, r4, #1
 4886              	.LVL472:
 4887              	.L251:
 939:Middlewares/lvgl/src/core/lv_obj_pos.c ****     for(i = 0; i < child_cnt; i++) {
 4888              		.loc 1 939 16 is_stmt 1 discriminator 1 view .LVU1417
 939:Middlewares/lvgl/src/core/lv_obj_pos.c ****     for(i = 0; i < child_cnt; i++) {
 4889              		.loc 1 939 5 is_stmt 0 discriminator 1 view .LVU1418
 4890 001c B442     		cmp	r4, r6
 4891 001e F6D3     		bcc	.L252
 942:Middlewares/lvgl/src/core/lv_obj_pos.c ****     }
 943:Middlewares/lvgl/src/core/lv_obj_pos.c **** 
 944:Middlewares/lvgl/src/core/lv_obj_pos.c ****     if(obj->layout_inv == 0) return;
 4892              		.loc 1 944 5 is_stmt 1 view .LVU1419
 4893              		.loc 1 944 24 is_stmt 0 view .LVU1420
 4894 0020 95F82230 		ldrb	r3, [r5, #34]	@ zero_extendqisi2
 4895              		.loc 1 944 7 view .LVU1421
 4896 0024 13F0010F 		tst	r3, #1
 4897 0028 00D1     		bne	.L255
 4898              	.L250:
 945:Middlewares/lvgl/src/core/lv_obj_pos.c **** 
 946:Middlewares/lvgl/src/core/lv_obj_pos.c ****     obj->layout_inv = 0;
 947:Middlewares/lvgl/src/core/lv_obj_pos.c **** 
 948:Middlewares/lvgl/src/core/lv_obj_pos.c ****     lv_obj_refr_size(obj);
 949:Middlewares/lvgl/src/core/lv_obj_pos.c ****     lv_obj_refr_pos(obj);
 950:Middlewares/lvgl/src/core/lv_obj_pos.c **** 
 951:Middlewares/lvgl/src/core/lv_obj_pos.c ****     if(lv_obj_get_child_cnt(obj) > 0) {
 952:Middlewares/lvgl/src/core/lv_obj_pos.c ****         uint32_t layout_id = lv_obj_get_style_layout(obj, LV_PART_MAIN);
 953:Middlewares/lvgl/src/core/lv_obj_pos.c ****         if(layout_id > 0 && layout_id <= layout_cnt) {
 954:Middlewares/lvgl/src/core/lv_obj_pos.c ****             void  * user_data = LV_GC_ROOT(_lv_layout_list)[layout_id -1].user_data;
 955:Middlewares/lvgl/src/core/lv_obj_pos.c ****             LV_GC_ROOT(_lv_layout_list)[layout_id -1].cb(obj, user_data);
 956:Middlewares/lvgl/src/core/lv_obj_pos.c ****         }
 957:Middlewares/lvgl/src/core/lv_obj_pos.c ****     }
 958:Middlewares/lvgl/src/core/lv_obj_pos.c **** }
 4899              		.loc 1 958 1 view .LVU1422
 4900 002a 70BD     		pop	{r4, r5, r6, pc}
 4901              	.LVL473:
 4902              	.L255:
 946:Middlewares/lvgl/src/core/lv_obj_pos.c **** 
 4903              		.loc 1 946 5 is_stmt 1 view .LVU1423
 946:Middlewares/lvgl/src/core/lv_obj_pos.c **** 
 4904              		.loc 1 946 21 is_stmt 0 view .LVU1424
 4905 002c 95F82230 		ldrb	r3, [r5, #34]	@ zero_extendqisi2
 4906 0030 6FF30003 		bfc	r3, #0, #1
ARM GAS  /tmp/ccgCqJqT.s 			page 130


 4907 0034 85F82230 		strb	r3, [r5, #34]
 948:Middlewares/lvgl/src/core/lv_obj_pos.c ****     lv_obj_refr_pos(obj);
 4908              		.loc 1 948 5 is_stmt 1 view .LVU1425
 4909 0038 2846     		mov	r0, r5
 4910 003a FFF7FEFF 		bl	lv_obj_refr_size
 4911              	.LVL474:
 949:Middlewares/lvgl/src/core/lv_obj_pos.c **** 
 4912              		.loc 1 949 5 view .LVU1426
 4913 003e 2846     		mov	r0, r5
 4914 0040 FFF7FEFF 		bl	lv_obj_refr_pos
 4915              	.LVL475:
 951:Middlewares/lvgl/src/core/lv_obj_pos.c ****         uint32_t layout_id = lv_obj_get_style_layout(obj, LV_PART_MAIN);
 4916              		.loc 1 951 5 view .LVU1427
 951:Middlewares/lvgl/src/core/lv_obj_pos.c ****         uint32_t layout_id = lv_obj_get_style_layout(obj, LV_PART_MAIN);
 4917              		.loc 1 951 8 is_stmt 0 view .LVU1428
 4918 0044 2846     		mov	r0, r5
 4919 0046 FFF7FEFF 		bl	lv_obj_get_child_cnt
 4920              	.LVL476:
 951:Middlewares/lvgl/src/core/lv_obj_pos.c ****         uint32_t layout_id = lv_obj_get_style_layout(obj, LV_PART_MAIN);
 4921              		.loc 1 951 7 view .LVU1429
 4922 004a 0028     		cmp	r0, #0
 4923 004c EDD0     		beq	.L250
 4924              	.LBB228:
 952:Middlewares/lvgl/src/core/lv_obj_pos.c ****         if(layout_id > 0 && layout_id <= layout_cnt) {
 4925              		.loc 1 952 9 is_stmt 1 view .LVU1430
 4926              	.LVL477:
 4927              	.LBB229:
 4928              	.LBI229:
 181:Middlewares/lvgl/src/core/lv_obj_style_gen.h **** {
 4929              		.loc 2 181 24 view .LVU1431
 4930              	.LBB230:
 183:Middlewares/lvgl/src/core/lv_obj_style_gen.h ****     return (uint16_t)v.num;
 4931              		.loc 2 183 5 view .LVU1432
 183:Middlewares/lvgl/src/core/lv_obj_style_gen.h ****     return (uint16_t)v.num;
 4932              		.loc 2 183 26 is_stmt 0 view .LVU1433
 4933 004e 41F26902 		movw	r2, #4201
 4934 0052 0021     		movs	r1, #0
 4935 0054 2846     		mov	r0, r5
 4936 0056 FFF7FEFF 		bl	lv_obj_get_style_prop
 4937              	.LVL478:
 184:Middlewares/lvgl/src/core/lv_obj_style_gen.h **** }
 4938              		.loc 2 184 5 is_stmt 1 view .LVU1434
 184:Middlewares/lvgl/src/core/lv_obj_style_gen.h **** }
 4939              		.loc 2 184 5 is_stmt 0 view .LVU1435
 4940              	.LBE230:
 4941              	.LBE229:
 952:Middlewares/lvgl/src/core/lv_obj_pos.c ****         if(layout_id > 0 && layout_id <= layout_cnt) {
 4942              		.loc 1 952 18 view .LVU1436
 4943 005a 80B2     		uxth	r0, r0
 4944              	.LVL479:
 953:Middlewares/lvgl/src/core/lv_obj_pos.c ****             void  * user_data = LV_GC_ROOT(_lv_layout_list)[layout_id -1].user_data;
 4945              		.loc 1 953 9 is_stmt 1 view .LVU1437
 953:Middlewares/lvgl/src/core/lv_obj_pos.c ****             void  * user_data = LV_GC_ROOT(_lv_layout_list)[layout_id -1].user_data;
 4946              		.loc 1 953 11 is_stmt 0 view .LVU1438
 4947 005c 0028     		cmp	r0, #0
 4948 005e E4D0     		beq	.L250
 953:Middlewares/lvgl/src/core/lv_obj_pos.c ****             void  * user_data = LV_GC_ROOT(_lv_layout_list)[layout_id -1].user_data;
ARM GAS  /tmp/ccgCqJqT.s 			page 131


 4949              		.loc 1 953 39 discriminator 1 view .LVU1439
 4950 0060 084B     		ldr	r3, .L256
 4951 0062 1B68     		ldr	r3, [r3]
 953:Middlewares/lvgl/src/core/lv_obj_pos.c ****             void  * user_data = LV_GC_ROOT(_lv_layout_list)[layout_id -1].user_data;
 4952              		.loc 1 953 26 discriminator 1 view .LVU1440
 4953 0064 8342     		cmp	r3, r0
 4954 0066 E0D3     		bcc	.L250
 4955              	.LBB231:
 954:Middlewares/lvgl/src/core/lv_obj_pos.c ****             LV_GC_ROOT(_lv_layout_list)[layout_id -1].cb(obj, user_data);
 4956              		.loc 1 954 13 is_stmt 1 view .LVU1441
 954:Middlewares/lvgl/src/core/lv_obj_pos.c ****             LV_GC_ROOT(_lv_layout_list)[layout_id -1].cb(obj, user_data);
 4957              		.loc 1 954 60 is_stmt 0 view .LVU1442
 4958 0068 00F10050 		add	r0, r0, #536870912
 4959              	.LVL480:
 954:Middlewares/lvgl/src/core/lv_obj_pos.c ****             LV_GC_ROOT(_lv_layout_list)[layout_id -1].cb(obj, user_data);
 4960              		.loc 1 954 60 view .LVU1443
 4961 006c 0138     		subs	r0, r0, #1
 4962              	.LVL481:
 954:Middlewares/lvgl/src/core/lv_obj_pos.c ****             LV_GC_ROOT(_lv_layout_list)[layout_id -1].cb(obj, user_data);
 4963              		.loc 1 954 60 view .LVU1444
 4964 006e 064B     		ldr	r3, .L256+4
 4965 0070 1B68     		ldr	r3, [r3]
 4966 0072 03EBC002 		add	r2, r3, r0, lsl #3
 4967              	.LVL482:
 955:Middlewares/lvgl/src/core/lv_obj_pos.c ****         }
 4968              		.loc 1 955 13 is_stmt 1 view .LVU1445
 955:Middlewares/lvgl/src/core/lv_obj_pos.c ****         }
 4969              		.loc 1 955 54 is_stmt 0 view .LVU1446
 4970 0076 53F83030 		ldr	r3, [r3, r0, lsl #3]
 955:Middlewares/lvgl/src/core/lv_obj_pos.c ****         }
 4971              		.loc 1 955 13 view .LVU1447
 4972 007a 5168     		ldr	r1, [r2, #4]
 4973 007c 2846     		mov	r0, r5
 4974              	.LVL483:
 955:Middlewares/lvgl/src/core/lv_obj_pos.c ****         }
 4975              		.loc 1 955 13 view .LVU1448
 4976 007e 9847     		blx	r3
 4977              	.LVL484:
 955:Middlewares/lvgl/src/core/lv_obj_pos.c ****         }
 4978              		.loc 1 955 13 view .LVU1449
 4979 0080 D3E7     		b	.L250
 4980              	.L257:
 4981 0082 00BF     		.align	2
 4982              	.L256:
 4983 0084 00000000 		.word	.LANCHOR0
 4984 0088 00000000 		.word	_lv_layout_list
 4985              	.LBE231:
 4986              	.LBE228:
 4987              		.cfi_endproc
 4988              	.LFE196:
 4990              		.section	.text.lv_obj_update_layout,"ax",%progbits
 4991              		.align	1
 4992              		.global	lv_obj_update_layout
 4993              		.syntax unified
 4994              		.thumb
 4995              		.thumb_func
 4996              		.fpu softvfp
ARM GAS  /tmp/ccgCqJqT.s 			page 132


 4998              	lv_obj_update_layout:
 4999              	.LVL485:
 5000              	.LFB165:
 290:Middlewares/lvgl/src/core/lv_obj_pos.c ****     static bool mutex = false;
 5001              		.loc 1 290 1 is_stmt 1 view -0
 5002              		.cfi_startproc
 5003              		@ args = 0, pretend = 0, frame = 0
 5004              		@ frame_needed = 0, uses_anonymous_args = 0
 291:Middlewares/lvgl/src/core/lv_obj_pos.c ****     if(mutex) {
 5005              		.loc 1 291 5 view .LVU1451
 292:Middlewares/lvgl/src/core/lv_obj_pos.c ****         LV_LOG_TRACE("Already running, returning")
 5006              		.loc 1 292 5 view .LVU1452
 292:Middlewares/lvgl/src/core/lv_obj_pos.c ****         LV_LOG_TRACE("Already running, returning")
 5007              		.loc 1 292 8 is_stmt 0 view .LVU1453
 5008 0000 0E4B     		ldr	r3, .L267
 5009 0002 1B78     		ldrb	r3, [r3]	@ zero_extendqisi2
 292:Middlewares/lvgl/src/core/lv_obj_pos.c ****         LV_LOG_TRACE("Already running, returning")
 5010              		.loc 1 292 7 view .LVU1454
 5011 0004 03B1     		cbz	r3, .L266
 5012 0006 7047     		bx	lr
 5013              	.L266:
 290:Middlewares/lvgl/src/core/lv_obj_pos.c ****     static bool mutex = false;
 5014              		.loc 1 290 1 view .LVU1455
 5015 0008 10B5     		push	{r4, lr}
 5016              	.LCFI78:
 5017              		.cfi_def_cfa_offset 8
 5018              		.cfi_offset 4, -8
 5019              		.cfi_offset 14, -4
 296:Middlewares/lvgl/src/core/lv_obj_pos.c **** 
 5020              		.loc 1 296 5 is_stmt 1 view .LVU1456
 296:Middlewares/lvgl/src/core/lv_obj_pos.c **** 
 5021              		.loc 1 296 11 is_stmt 0 view .LVU1457
 5022 000a 0C4B     		ldr	r3, .L267
 5023 000c 0122     		movs	r2, #1
 5024 000e 1A70     		strb	r2, [r3]
 298:Middlewares/lvgl/src/core/lv_obj_pos.c **** 
 5025              		.loc 1 298 5 is_stmt 1 view .LVU1458
 298:Middlewares/lvgl/src/core/lv_obj_pos.c **** 
 5026              		.loc 1 298 22 is_stmt 0 view .LVU1459
 5027 0010 FFF7FEFF 		bl	lv_obj_get_screen
 5028              	.LVL486:
 298:Middlewares/lvgl/src/core/lv_obj_pos.c **** 
 5029              		.loc 1 298 22 view .LVU1460
 5030 0014 0446     		mov	r4, r0
 5031              	.LVL487:
 301:Middlewares/lvgl/src/core/lv_obj_pos.c ****         LV_LOG_INFO("Layout update begin")
 5032              		.loc 1 301 5 is_stmt 1 view .LVU1461
 301:Middlewares/lvgl/src/core/lv_obj_pos.c ****         LV_LOG_INFO("Layout update begin")
 5033              		.loc 1 301 10 is_stmt 0 view .LVU1462
 5034 0016 08E0     		b	.L260
 5035              	.LVL488:
 5036              	.L261:
 303:Middlewares/lvgl/src/core/lv_obj_pos.c ****         layout_update_core(scr);
 5037              		.loc 1 303 9 is_stmt 1 view .LVU1463
 303:Middlewares/lvgl/src/core/lv_obj_pos.c ****         layout_update_core(scr);
 5038              		.loc 1 303 29 is_stmt 0 view .LVU1464
 5039 0018 94F82230 		ldrb	r3, [r4, #34]	@ zero_extendqisi2
ARM GAS  /tmp/ccgCqJqT.s 			page 133


 5040 001c 6FF34103 		bfc	r3, #1, #1
 5041 0020 84F82230 		strb	r3, [r4, #34]
 304:Middlewares/lvgl/src/core/lv_obj_pos.c ****         LV_LOG_TRACE("Layout update end")
 5042              		.loc 1 304 9 is_stmt 1 view .LVU1465
 5043 0024 2046     		mov	r0, r4
 5044 0026 FFF7FEFF 		bl	layout_update_core
 5045              	.LVL489:
 5046              	.L260:
 301:Middlewares/lvgl/src/core/lv_obj_pos.c ****         LV_LOG_INFO("Layout update begin")
 5047              		.loc 1 301 10 view .LVU1466
 301:Middlewares/lvgl/src/core/lv_obj_pos.c ****         LV_LOG_INFO("Layout update begin")
 5048              		.loc 1 301 11 is_stmt 0 view .LVU1467
 5049 002a 94F82230 		ldrb	r3, [r4, #34]	@ zero_extendqisi2
 301:Middlewares/lvgl/src/core/lv_obj_pos.c ****         LV_LOG_INFO("Layout update begin")
 5050              		.loc 1 301 10 view .LVU1468
 5051 002e 13F0020F 		tst	r3, #2
 5052 0032 F1D1     		bne	.L261
 308:Middlewares/lvgl/src/core/lv_obj_pos.c **** }
 5053              		.loc 1 308 5 is_stmt 1 view .LVU1469
 308:Middlewares/lvgl/src/core/lv_obj_pos.c **** }
 5054              		.loc 1 308 11 is_stmt 0 view .LVU1470
 5055 0034 014B     		ldr	r3, .L267
 5056 0036 0022     		movs	r2, #0
 5057 0038 1A70     		strb	r2, [r3]
 309:Middlewares/lvgl/src/core/lv_obj_pos.c **** 
 5058              		.loc 1 309 1 view .LVU1471
 5059 003a 10BD     		pop	{r4, pc}
 5060              	.LVL490:
 5061              	.L268:
 309:Middlewares/lvgl/src/core/lv_obj_pos.c **** 
 5062              		.loc 1 309 1 view .LVU1472
 5063              		.align	2
 5064              	.L267:
 5065 003c 00000000 		.word	.LANCHOR1
 5066              		.cfi_endproc
 5067              	.LFE165:
 5069              		.section	.text.lv_obj_align_to,"ax",%progbits
 5070              		.align	1
 5071              		.global	lv_obj_align_to
 5072              		.syntax unified
 5073              		.thumb
 5074              		.thumb_func
 5075              		.fpu softvfp
 5077              	lv_obj_align_to:
 5078              	.LVL491:
 5079              	.LFB169:
 334:Middlewares/lvgl/src/core/lv_obj_pos.c ****     LV_ASSERT_OBJ(obj, MY_CLASS);
 5080              		.loc 1 334 1 is_stmt 1 view -0
 5081              		.cfi_startproc
 5082              		@ args = 4, pretend = 0, frame = 16
 5083              		@ frame_needed = 0, uses_anonymous_args = 0
 334:Middlewares/lvgl/src/core/lv_obj_pos.c ****     LV_ASSERT_OBJ(obj, MY_CLASS);
 5084              		.loc 1 334 1 is_stmt 0 view .LVU1474
 5085 0000 2DE9F04F 		push	{r4, r5, r6, r7, r8, r9, r10, fp, lr}
 5086              	.LCFI79:
 5087              		.cfi_def_cfa_offset 36
 5088              		.cfi_offset 4, -36
ARM GAS  /tmp/ccgCqJqT.s 			page 134


 5089              		.cfi_offset 5, -32
 5090              		.cfi_offset 6, -28
 5091              		.cfi_offset 7, -24
 5092              		.cfi_offset 8, -20
 5093              		.cfi_offset 9, -16
 5094              		.cfi_offset 10, -12
 5095              		.cfi_offset 11, -8
 5096              		.cfi_offset 14, -4
 5097 0004 85B0     		sub	sp, sp, #20
 5098              	.LCFI80:
 5099              		.cfi_def_cfa_offset 56
 5100 0006 8246     		mov	r10, r0
 5101 0008 0F46     		mov	r7, r1
 5102 000a 9346     		mov	fp, r2
 5103 000c 0193     		str	r3, [sp, #4]
 335:Middlewares/lvgl/src/core/lv_obj_pos.c **** 
 5104              		.loc 1 335 5 is_stmt 1 view .LVU1475
 335:Middlewares/lvgl/src/core/lv_obj_pos.c **** 
 5105              		.loc 1 335 5 view .LVU1476
 335:Middlewares/lvgl/src/core/lv_obj_pos.c **** 
 5106              		.loc 1 335 5 view .LVU1477
 337:Middlewares/lvgl/src/core/lv_obj_pos.c ****     if(base == NULL) base = lv_obj_get_parent(obj);
 5107              		.loc 1 337 5 view .LVU1478
 5108 000e FFF7FEFF 		bl	lv_obj_update_layout
 5109              	.LVL492:
 338:Middlewares/lvgl/src/core/lv_obj_pos.c **** 
 5110              		.loc 1 338 5 view .LVU1479
 338:Middlewares/lvgl/src/core/lv_obj_pos.c **** 
 5111              		.loc 1 338 7 is_stmt 0 view .LVU1480
 5112 0012 002F     		cmp	r7, #0
 5113 0014 5AD0     		beq	.L296
 5114              	.L270:
 340:Middlewares/lvgl/src/core/lv_obj_pos.c **** 
 5115              		.loc 1 340 5 is_stmt 1 view .LVU1481
 340:Middlewares/lvgl/src/core/lv_obj_pos.c **** 
 5116              		.loc 1 340 5 view .LVU1482
 340:Middlewares/lvgl/src/core/lv_obj_pos.c **** 
 5117              		.loc 1 340 5 view .LVU1483
 342:Middlewares/lvgl/src/core/lv_obj_pos.c ****     lv_coord_t y = 0;
 5118              		.loc 1 342 5 view .LVU1484
 5119              	.LVL493:
 343:Middlewares/lvgl/src/core/lv_obj_pos.c **** 
 5120              		.loc 1 343 5 view .LVU1485
 345:Middlewares/lvgl/src/core/lv_obj_pos.c ****     lv_coord_t pborder = lv_obj_get_style_border_width(parent, LV_PART_MAIN);
 5121              		.loc 1 345 5 view .LVU1486
 345:Middlewares/lvgl/src/core/lv_obj_pos.c ****     lv_coord_t pborder = lv_obj_get_style_border_width(parent, LV_PART_MAIN);
 5122              		.loc 1 345 25 is_stmt 0 view .LVU1487
 5123 0016 5046     		mov	r0, r10
 5124 0018 FFF7FEFF 		bl	lv_obj_get_parent
 5125              	.LVL494:
 5126 001c 8046     		mov	r8, r0
 5127              	.LVL495:
 346:Middlewares/lvgl/src/core/lv_obj_pos.c ****     lv_coord_t pleft = lv_obj_get_style_pad_left(parent, LV_PART_MAIN) + pborder;
 5128              		.loc 1 346 5 is_stmt 1 view .LVU1488
 5129              	.LBB232:
 5130              	.LBI232:
 295:Middlewares/lvgl/src/core/lv_obj_style_gen.h **** {
ARM GAS  /tmp/ccgCqJqT.s 			page 135


 5131              		.loc 2 295 26 view .LVU1489
 5132              	.LBB233:
 297:Middlewares/lvgl/src/core/lv_obj_style_gen.h ****     return (lv_coord_t)v.num;
 5133              		.loc 2 297 5 view .LVU1490
 297:Middlewares/lvgl/src/core/lv_obj_style_gen.h ****     return (lv_coord_t)v.num;
 5134              		.loc 2 297 26 is_stmt 0 view .LVU1491
 5135 001e 41F23202 		movw	r2, #4146
 5136 0022 0021     		movs	r1, #0
 5137 0024 FFF7FEFF 		bl	lv_obj_get_style_prop
 5138              	.LVL496:
 297:Middlewares/lvgl/src/core/lv_obj_style_gen.h ****     return (lv_coord_t)v.num;
 5139              		.loc 2 297 26 view .LVU1492
 5140 0028 0646     		mov	r6, r0
 5141              	.LVL497:
 5142              		.loc 2 298 5 is_stmt 1 view .LVU1493
 5143              		.loc 2 298 5 is_stmt 0 view .LVU1494
 5144              	.LBE233:
 5145              	.LBE232:
 347:Middlewares/lvgl/src/core/lv_obj_pos.c ****     lv_coord_t ptop = lv_obj_get_style_pad_top(parent, LV_PART_MAIN) + pborder;
 5146              		.loc 1 347 5 is_stmt 1 view .LVU1495
 5147              	.LBB234:
 5148              	.LBI234:
 103:Middlewares/lvgl/src/core/lv_obj_style_gen.h **** {
 5149              		.loc 2 103 26 view .LVU1496
 5150              	.LBB235:
 105:Middlewares/lvgl/src/core/lv_obj_style_gen.h ****     return (lv_coord_t)v.num;
 5151              		.loc 2 105 5 view .LVU1497
 105:Middlewares/lvgl/src/core/lv_obj_style_gen.h ****     return (lv_coord_t)v.num;
 5152              		.loc 2 105 26 is_stmt 0 view .LVU1498
 5153 002a 41F21202 		movw	r2, #4114
 5154 002e 0021     		movs	r1, #0
 5155 0030 4046     		mov	r0, r8
 5156 0032 FFF7FEFF 		bl	lv_obj_get_style_prop
 5157              	.LVL498:
 106:Middlewares/lvgl/src/core/lv_obj_style_gen.h **** }
 5158              		.loc 2 106 5 is_stmt 1 view .LVU1499
 106:Middlewares/lvgl/src/core/lv_obj_style_gen.h **** }
 5159              		.loc 2 106 5 is_stmt 0 view .LVU1500
 5160              	.LBE235:
 5161              	.LBE234:
 347:Middlewares/lvgl/src/core/lv_obj_pos.c ****     lv_coord_t ptop = lv_obj_get_style_pad_top(parent, LV_PART_MAIN) + pborder;
 5162              		.loc 1 347 24 view .LVU1501
 5163 0036 1FFA80F9 		uxth	r9, r0
 347:Middlewares/lvgl/src/core/lv_obj_pos.c ****     lv_coord_t ptop = lv_obj_get_style_pad_top(parent, LV_PART_MAIN) + pborder;
 5164              		.loc 1 347 72 view .LVU1502
 5165 003a B6B2     		uxth	r6, r6
 347:Middlewares/lvgl/src/core/lv_obj_pos.c ****     lv_coord_t ptop = lv_obj_get_style_pad_top(parent, LV_PART_MAIN) + pborder;
 5166              		.loc 1 347 72 view .LVU1503
 5167 003c B144     		add	r9, r9, r6
 347:Middlewares/lvgl/src/core/lv_obj_pos.c ****     lv_coord_t ptop = lv_obj_get_style_pad_top(parent, LV_PART_MAIN) + pborder;
 5168              		.loc 1 347 16 view .LVU1504
 5169 003e 0FFA89F9 		sxth	r9, r9
 5170              	.LVL499:
 348:Middlewares/lvgl/src/core/lv_obj_pos.c **** 
 5171              		.loc 1 348 5 is_stmt 1 view .LVU1505
 5172              	.LBB236:
 5173              	.LBI236:
ARM GAS  /tmp/ccgCqJqT.s 			page 136


  91:Middlewares/lvgl/src/core/lv_obj_style_gen.h **** {
 5174              		.loc 2 91 26 view .LVU1506
 5175              	.LBB237:
  93:Middlewares/lvgl/src/core/lv_obj_style_gen.h ****     return (lv_coord_t)v.num;
 5176              		.loc 2 93 5 view .LVU1507
  93:Middlewares/lvgl/src/core/lv_obj_style_gen.h ****     return (lv_coord_t)v.num;
 5177              		.loc 2 93 26 is_stmt 0 view .LVU1508
 5178 0042 41F21002 		movw	r2, #4112
 5179 0046 0021     		movs	r1, #0
 5180 0048 4046     		mov	r0, r8
 5181 004a FFF7FEFF 		bl	lv_obj_get_style_prop
 5182              	.LVL500:
  94:Middlewares/lvgl/src/core/lv_obj_style_gen.h **** }
 5183              		.loc 2 94 5 is_stmt 1 view .LVU1509
  94:Middlewares/lvgl/src/core/lv_obj_style_gen.h **** }
 5184              		.loc 2 94 5 is_stmt 0 view .LVU1510
 5185              	.LBE237:
 5186              	.LBE236:
 348:Middlewares/lvgl/src/core/lv_obj_pos.c **** 
 5187              		.loc 1 348 23 view .LVU1511
 5188 004e 80B2     		uxth	r0, r0
 348:Middlewares/lvgl/src/core/lv_obj_pos.c **** 
 5189              		.loc 1 348 70 view .LVU1512
 5190 0050 0644     		add	r6, r6, r0
 5191              	.LVL501:
 348:Middlewares/lvgl/src/core/lv_obj_pos.c **** 
 5192              		.loc 1 348 16 view .LVU1513
 5193 0052 36B2     		sxth	r6, r6
 5194              	.LVL502:
 350:Middlewares/lvgl/src/core/lv_obj_pos.c ****     lv_coord_t bleft = lv_obj_get_style_pad_left(base, LV_PART_MAIN) + bborder;
 5195              		.loc 1 350 5 is_stmt 1 view .LVU1514
 5196              	.LBB238:
 5197              	.LBI238:
 295:Middlewares/lvgl/src/core/lv_obj_style_gen.h **** {
 5198              		.loc 2 295 26 view .LVU1515
 5199              	.LBB239:
 297:Middlewares/lvgl/src/core/lv_obj_style_gen.h ****     return (lv_coord_t)v.num;
 5200              		.loc 2 297 5 view .LVU1516
 297:Middlewares/lvgl/src/core/lv_obj_style_gen.h ****     return (lv_coord_t)v.num;
 5201              		.loc 2 297 26 is_stmt 0 view .LVU1517
 5202 0054 41F23202 		movw	r2, #4146
 5203 0058 0021     		movs	r1, #0
 5204 005a 3846     		mov	r0, r7
 5205 005c FFF7FEFF 		bl	lv_obj_get_style_prop
 5206              	.LVL503:
 5207 0060 0446     		mov	r4, r0
 5208              	.LVL504:
 5209              		.loc 2 298 5 is_stmt 1 view .LVU1518
 5210              		.loc 2 298 5 is_stmt 0 view .LVU1519
 5211              	.LBE239:
 5212              	.LBE238:
 351:Middlewares/lvgl/src/core/lv_obj_pos.c ****     lv_coord_t btop = lv_obj_get_style_pad_top(base, LV_PART_MAIN) + bborder;
 5213              		.loc 1 351 5 is_stmt 1 view .LVU1520
 5214              	.LBB240:
 5215              	.LBI240:
 103:Middlewares/lvgl/src/core/lv_obj_style_gen.h **** {
 5216              		.loc 2 103 26 view .LVU1521
ARM GAS  /tmp/ccgCqJqT.s 			page 137


 5217              	.LBB241:
 105:Middlewares/lvgl/src/core/lv_obj_style_gen.h ****     return (lv_coord_t)v.num;
 5218              		.loc 2 105 5 view .LVU1522
 105:Middlewares/lvgl/src/core/lv_obj_style_gen.h ****     return (lv_coord_t)v.num;
 5219              		.loc 2 105 26 is_stmt 0 view .LVU1523
 5220 0062 41F21202 		movw	r2, #4114
 5221 0066 0021     		movs	r1, #0
 5222 0068 3846     		mov	r0, r7
 5223 006a FFF7FEFF 		bl	lv_obj_get_style_prop
 5224              	.LVL505:
 106:Middlewares/lvgl/src/core/lv_obj_style_gen.h **** }
 5225              		.loc 2 106 5 is_stmt 1 view .LVU1524
 106:Middlewares/lvgl/src/core/lv_obj_style_gen.h **** }
 5226              		.loc 2 106 5 is_stmt 0 view .LVU1525
 5227              	.LBE241:
 5228              	.LBE240:
 351:Middlewares/lvgl/src/core/lv_obj_pos.c ****     lv_coord_t btop = lv_obj_get_style_pad_top(base, LV_PART_MAIN) + bborder;
 5229              		.loc 1 351 24 view .LVU1526
 5230 006e 85B2     		uxth	r5, r0
 351:Middlewares/lvgl/src/core/lv_obj_pos.c ****     lv_coord_t btop = lv_obj_get_style_pad_top(base, LV_PART_MAIN) + bborder;
 5231              		.loc 1 351 70 view .LVU1527
 5232 0070 A4B2     		uxth	r4, r4
 351:Middlewares/lvgl/src/core/lv_obj_pos.c ****     lv_coord_t btop = lv_obj_get_style_pad_top(base, LV_PART_MAIN) + bborder;
 5233              		.loc 1 351 70 view .LVU1528
 5234 0072 2544     		add	r5, r5, r4
 5235 0074 ABB2     		uxth	r3, r5
 5236 0076 0293     		str	r3, [sp, #8]
 351:Middlewares/lvgl/src/core/lv_obj_pos.c ****     lv_coord_t btop = lv_obj_get_style_pad_top(base, LV_PART_MAIN) + bborder;
 5237              		.loc 1 351 16 view .LVU1529
 5238 0078 2DB2     		sxth	r5, r5
 5239              	.LVL506:
 352:Middlewares/lvgl/src/core/lv_obj_pos.c **** 
 5240              		.loc 1 352 5 is_stmt 1 view .LVU1530
 5241              	.LBB242:
 5242              	.LBI242:
  91:Middlewares/lvgl/src/core/lv_obj_style_gen.h **** {
 5243              		.loc 2 91 26 view .LVU1531
 5244              	.LBB243:
  93:Middlewares/lvgl/src/core/lv_obj_style_gen.h ****     return (lv_coord_t)v.num;
 5245              		.loc 2 93 5 view .LVU1532
  93:Middlewares/lvgl/src/core/lv_obj_style_gen.h ****     return (lv_coord_t)v.num;
 5246              		.loc 2 93 26 is_stmt 0 view .LVU1533
 5247 007a 41F21002 		movw	r2, #4112
 5248 007e 0021     		movs	r1, #0
 5249 0080 3846     		mov	r0, r7
 5250 0082 FFF7FEFF 		bl	lv_obj_get_style_prop
 5251              	.LVL507:
  94:Middlewares/lvgl/src/core/lv_obj_style_gen.h **** }
 5252              		.loc 2 94 5 is_stmt 1 view .LVU1534
  94:Middlewares/lvgl/src/core/lv_obj_style_gen.h **** }
 5253              		.loc 2 94 5 is_stmt 0 view .LVU1535
 5254              	.LBE243:
 5255              	.LBE242:
 352:Middlewares/lvgl/src/core/lv_obj_pos.c **** 
 5256              		.loc 1 352 23 view .LVU1536
 5257 0086 80B2     		uxth	r0, r0
 352:Middlewares/lvgl/src/core/lv_obj_pos.c **** 
ARM GAS  /tmp/ccgCqJqT.s 			page 138


 5258              		.loc 1 352 68 view .LVU1537
 5259 0088 0444     		add	r4, r4, r0
 5260              	.LVL508:
 352:Middlewares/lvgl/src/core/lv_obj_pos.c **** 
 5261              		.loc 1 352 68 view .LVU1538
 5262 008a A3B2     		uxth	r3, r4
 5263 008c 0393     		str	r3, [sp, #12]
 352:Middlewares/lvgl/src/core/lv_obj_pos.c **** 
 5264              		.loc 1 352 16 view .LVU1539
 5265 008e 24B2     		sxth	r4, r4
 5266              	.LVL509:
 354:Middlewares/lvgl/src/core/lv_obj_pos.c ****         if(lv_obj_get_style_base_dir(base, LV_PART_MAIN) == LV_BASE_DIR_RTL) align = LV_ALIGN_TOP_R
 5267              		.loc 1 354 5 is_stmt 1 view .LVU1540
 354:Middlewares/lvgl/src/core/lv_obj_pos.c ****         if(lv_obj_get_style_base_dir(base, LV_PART_MAIN) == LV_BASE_DIR_RTL) align = LV_ALIGN_TOP_R
 5268              		.loc 1 354 7 is_stmt 0 view .LVU1541
 5269 0090 BBF1000F 		cmp	fp, #0
 5270 0094 1FD0     		beq	.L297
 5271              	.LVL510:
 359:Middlewares/lvgl/src/core/lv_obj_pos.c ****     case LV_ALIGN_CENTER:
 5272              		.loc 1 359 5 is_stmt 1 view .LVU1542
 5273 0096 0BF1FF32 		add	r2, fp, #-1
 5274 009a 142A     		cmp	r2, #20
 5275 009c 51D8     		bhi	.L274
 5276 009e DFE812F0 		tbh	[pc, r2, lsl #1]
 5277              	.L276:
 5278 00a2 2300     		.2byte	(.L273-.L276)/2
 5279 00a4 7800     		.2byte	(.L294-.L276)/2
 5280 00a6 8B00     		.2byte	(.L272-.L276)/2
 5281 00a8 9900     		.2byte	(.L293-.L276)/2
 5282 00aa A700     		.2byte	(.L292-.L276)/2
 5283 00ac C700     		.2byte	(.L291-.L276)/2
 5284 00ae E200     		.2byte	(.L290-.L276)/2
 5285 00b0 F500     		.2byte	(.L289-.L276)/2
 5286 00b2 5300     		.2byte	(.L288-.L276)/2
 5287 00b4 1501     		.2byte	(.L287-.L276)/2
 5288 00b6 1D01     		.2byte	(.L286-.L276)/2
 5289 00b8 3301     		.2byte	(.L285-.L276)/2
 5290 00ba 4401     		.2byte	(.L284-.L276)/2
 5291 00bc 4A01     		.2byte	(.L283-.L276)/2
 5292 00be 5E01     		.2byte	(.L282-.L276)/2
 5293 00c0 6D01     		.2byte	(.L281-.L276)/2
 5294 00c2 7501     		.2byte	(.L280-.L276)/2
 5295 00c4 8B01     		.2byte	(.L279-.L276)/2
 5296 00c6 9C01     		.2byte	(.L278-.L276)/2
 5297 00c8 A201     		.2byte	(.L277-.L276)/2
 5298 00ca B601     		.2byte	(.L275-.L276)/2
 5299              	.LVL511:
 5300              		.p2align 1
 5301              	.L296:
 338:Middlewares/lvgl/src/core/lv_obj_pos.c **** 
 5302              		.loc 1 338 22 discriminator 1 view .LVU1543
 338:Middlewares/lvgl/src/core/lv_obj_pos.c **** 
 5303              		.loc 1 338 29 is_stmt 0 discriminator 1 view .LVU1544
 5304 00cc 5046     		mov	r0, r10
 5305 00ce FFF7FEFF 		bl	lv_obj_get_parent
 5306              	.LVL512:
 5307 00d2 0746     		mov	r7, r0
ARM GAS  /tmp/ccgCqJqT.s 			page 139


 5308              	.LVL513:
 338:Middlewares/lvgl/src/core/lv_obj_pos.c **** 
 5309              		.loc 1 338 29 discriminator 1 view .LVU1545
 5310 00d4 9FE7     		b	.L270
 5311              	.LVL514:
 5312              	.L297:
 355:Middlewares/lvgl/src/core/lv_obj_pos.c ****         else align = LV_ALIGN_TOP_LEFT;
 5313              		.loc 1 355 9 is_stmt 1 view .LVU1546
 5314              	.LBB244:
 5315              	.LBI244:
 187:Middlewares/lvgl/src/core/lv_obj_style_gen.h **** {
 5316              		.loc 2 187 29 view .LVU1547
 5317              	.LBB245:
 189:Middlewares/lvgl/src/core/lv_obj_style_gen.h ****     return (lv_base_dir_t)v.num;
 5318              		.loc 2 189 5 view .LVU1548
 189:Middlewares/lvgl/src/core/lv_obj_style_gen.h ****     return (lv_base_dir_t)v.num;
 5319              		.loc 2 189 26 is_stmt 0 view .LVU1549
 5320 00d6 41F26A42 		movw	r2, #5226
 5321 00da 0021     		movs	r1, #0
 5322 00dc 3846     		mov	r0, r7
 5323 00de FFF7FEFF 		bl	lv_obj_get_style_prop
 5324              	.LVL515:
 190:Middlewares/lvgl/src/core/lv_obj_style_gen.h **** }
 5325              		.loc 2 190 5 is_stmt 1 view .LVU1550
 190:Middlewares/lvgl/src/core/lv_obj_style_gen.h **** }
 5326              		.loc 2 190 12 is_stmt 0 view .LVU1551
 5327 00e2 C0B2     		uxtb	r0, r0
 5328              	.LVL516:
 190:Middlewares/lvgl/src/core/lv_obj_style_gen.h **** }
 5329              		.loc 2 190 12 view .LVU1552
 5330              	.LBE245:
 5331              	.LBE244:
 355:Middlewares/lvgl/src/core/lv_obj_pos.c ****         else align = LV_ALIGN_TOP_LEFT;
 5332              		.loc 1 355 11 view .LVU1553
 5333 00e4 0128     		cmp	r0, #1
 5334 00e6 67D0     		beq	.L272
 5335              	.LVL517:
 5336              	.L273:
 463:Middlewares/lvgl/src/core/lv_obj_pos.c ****     y += y_ofs + base->coords.y1 - parent->coords.y1 + lv_obj_get_scroll_top(parent) - ptop;
 5337              		.loc 1 463 5 is_stmt 1 view .LVU1554
 463:Middlewares/lvgl/src/core/lv_obj_pos.c ****     y += y_ofs + base->coords.y1 - parent->coords.y1 + lv_obj_get_scroll_top(parent) - ptop;
 5338              		.loc 1 463 30 is_stmt 0 view .LVU1555
 5339 00e8 B7F914B0 		ldrsh	fp, [r7, #20]
 463:Middlewares/lvgl/src/core/lv_obj_pos.c ****     y += y_ofs + base->coords.y1 - parent->coords.y1 + lv_obj_get_scroll_top(parent) - ptop;
 5340              		.loc 1 463 16 view .LVU1556
 5341 00ec 019B     		ldr	r3, [sp, #4]
 5342 00ee 5B44     		add	r3, r3, fp
 5343 00f0 9B46     		mov	fp, r3
 463:Middlewares/lvgl/src/core/lv_obj_pos.c ****     y += y_ofs + base->coords.y1 - parent->coords.y1 + lv_obj_get_scroll_top(parent) - ptop;
 5344              		.loc 1 463 50 view .LVU1557
 5345 00f2 B8F91430 		ldrsh	r3, [r8, #20]
 463:Middlewares/lvgl/src/core/lv_obj_pos.c ****     y += y_ofs + base->coords.y1 - parent->coords.y1 + lv_obj_get_scroll_top(parent) - ptop;
 5346              		.loc 1 463 34 view .LVU1558
 5347 00f6 ABEB030B 		sub	fp, fp, r3
 463:Middlewares/lvgl/src/core/lv_obj_pos.c ****     y += y_ofs + base->coords.y1 - parent->coords.y1 + lv_obj_get_scroll_top(parent) - ptop;
 5348              		.loc 1 463 56 view .LVU1559
 5349 00fa 4046     		mov	r0, r8
ARM GAS  /tmp/ccgCqJqT.s 			page 140


 5350 00fc FFF7FEFF 		bl	lv_obj_get_scroll_left
 5351              	.LVL518:
 463:Middlewares/lvgl/src/core/lv_obj_pos.c ****     y += y_ofs + base->coords.y1 - parent->coords.y1 + lv_obj_get_scroll_top(parent) - ptop;
 5352              		.loc 1 463 54 view .LVU1560
 5353 0100 8344     		add	fp, fp, r0
 463:Middlewares/lvgl/src/core/lv_obj_pos.c ****     y += y_ofs + base->coords.y1 - parent->coords.y1 + lv_obj_get_scroll_top(parent) - ptop;
 5354              		.loc 1 463 87 view .LVU1561
 5355 0102 ABEB0909 		sub	r9, fp, r9
 5356              	.LVL519:
 463:Middlewares/lvgl/src/core/lv_obj_pos.c ****     y += y_ofs + base->coords.y1 - parent->coords.y1 + lv_obj_get_scroll_top(parent) - ptop;
 5357              		.loc 1 463 7 view .LVU1562
 5358 0106 4D44     		add	r5, r5, r9
 5359              	.LVL520:
 463:Middlewares/lvgl/src/core/lv_obj_pos.c ****     y += y_ofs + base->coords.y1 - parent->coords.y1 + lv_obj_get_scroll_top(parent) - ptop;
 5360              		.loc 1 463 7 view .LVU1563
 5361 0108 2DB2     		sxth	r5, r5
 5362              	.LVL521:
 464:Middlewares/lvgl/src/core/lv_obj_pos.c ****     lv_obj_set_style_align(obj, LV_ALIGN_TOP_LEFT, 0);
 5363              		.loc 1 464 5 is_stmt 1 view .LVU1564
 464:Middlewares/lvgl/src/core/lv_obj_pos.c ****     lv_obj_set_style_align(obj, LV_ALIGN_TOP_LEFT, 0);
 5364              		.loc 1 464 30 is_stmt 0 view .LVU1565
 5365 010a B7F91630 		ldrsh	r3, [r7, #22]
 464:Middlewares/lvgl/src/core/lv_obj_pos.c ****     lv_obj_set_style_align(obj, LV_ALIGN_TOP_LEFT, 0);
 5366              		.loc 1 464 16 view .LVU1566
 5367 010e BDF93870 		ldrsh	r7, [sp, #56]
 5368              	.LVL522:
 464:Middlewares/lvgl/src/core/lv_obj_pos.c ****     lv_obj_set_style_align(obj, LV_ALIGN_TOP_LEFT, 0);
 5369              		.loc 1 464 16 view .LVU1567
 5370 0112 1F44     		add	r7, r7, r3
 464:Middlewares/lvgl/src/core/lv_obj_pos.c ****     lv_obj_set_style_align(obj, LV_ALIGN_TOP_LEFT, 0);
 5371              		.loc 1 464 50 view .LVU1568
 5372 0114 B8F91630 		ldrsh	r3, [r8, #22]
 464:Middlewares/lvgl/src/core/lv_obj_pos.c ****     lv_obj_set_style_align(obj, LV_ALIGN_TOP_LEFT, 0);
 5373              		.loc 1 464 34 view .LVU1569
 5374 0118 FF1A     		subs	r7, r7, r3
 464:Middlewares/lvgl/src/core/lv_obj_pos.c ****     lv_obj_set_style_align(obj, LV_ALIGN_TOP_LEFT, 0);
 5375              		.loc 1 464 56 view .LVU1570
 5376 011a 4046     		mov	r0, r8
 5377 011c FFF7FEFF 		bl	lv_obj_get_scroll_top
 5378              	.LVL523:
 464:Middlewares/lvgl/src/core/lv_obj_pos.c ****     lv_obj_set_style_align(obj, LV_ALIGN_TOP_LEFT, 0);
 5379              		.loc 1 464 54 view .LVU1571
 5380 0120 0744     		add	r7, r7, r0
 464:Middlewares/lvgl/src/core/lv_obj_pos.c ****     lv_obj_set_style_align(obj, LV_ALIGN_TOP_LEFT, 0);
 5381              		.loc 1 464 86 view .LVU1572
 5382 0122 BE1B     		subs	r6, r7, r6
 5383              	.LVL524:
 464:Middlewares/lvgl/src/core/lv_obj_pos.c ****     lv_obj_set_style_align(obj, LV_ALIGN_TOP_LEFT, 0);
 5384              		.loc 1 464 7 view .LVU1573
 5385 0124 3444     		add	r4, r4, r6
 5386              	.LVL525:
 464:Middlewares/lvgl/src/core/lv_obj_pos.c ****     lv_obj_set_style_align(obj, LV_ALIGN_TOP_LEFT, 0);
 5387              		.loc 1 464 7 view .LVU1574
 5388 0126 24B2     		sxth	r4, r4
 5389              	.LVL526:
 465:Middlewares/lvgl/src/core/lv_obj_pos.c ****     lv_obj_set_pos(obj, x, y);
 5390              		.loc 1 465 5 is_stmt 1 view .LVU1575
ARM GAS  /tmp/ccgCqJqT.s 			page 141


 5391 0128 0022     		movs	r2, #0
 5392 012a 0121     		movs	r1, #1
 5393 012c 5046     		mov	r0, r10
 5394 012e FFF7FEFF 		bl	lv_obj_set_style_align
 5395              	.LVL527:
 466:Middlewares/lvgl/src/core/lv_obj_pos.c **** 
 5396              		.loc 1 466 5 view .LVU1576
 5397 0132 2246     		mov	r2, r4
 5398 0134 2946     		mov	r1, r5
 5399 0136 5046     		mov	r0, r10
 5400 0138 FFF7FEFF 		bl	lv_obj_set_pos
 5401              	.LVL528:
 468:Middlewares/lvgl/src/core/lv_obj_pos.c **** 
 5402              		.loc 1 468 1 is_stmt 0 view .LVU1577
 5403 013c 05B0     		add	sp, sp, #20
 5404              	.LCFI81:
 5405              		.cfi_remember_state
 5406              		.cfi_def_cfa_offset 36
 5407              		@ sp needed
 5408 013e BDE8F08F 		pop	{r4, r5, r6, r7, r8, r9, r10, fp, pc}
 5409              	.LVL529:
 5410              	.L274:
 5411              	.LCFI82:
 5412              		.cfi_restore_state
 354:Middlewares/lvgl/src/core/lv_obj_pos.c ****         if(lv_obj_get_style_base_dir(base, LV_PART_MAIN) == LV_BASE_DIR_RTL) align = LV_ALIGN_TOP_R
 5413              		.loc 1 354 7 view .LVU1578
 5414 0142 0024     		movs	r4, #0
 5415              	.LVL530:
 354:Middlewares/lvgl/src/core/lv_obj_pos.c ****         if(lv_obj_get_style_base_dir(base, LV_PART_MAIN) == LV_BASE_DIR_RTL) align = LV_ALIGN_TOP_R
 5416              		.loc 1 354 7 view .LVU1579
 5417 0144 2546     		mov	r5, r4
 5418              	.LVL531:
 354:Middlewares/lvgl/src/core/lv_obj_pos.c ****         if(lv_obj_get_style_base_dir(base, LV_PART_MAIN) == LV_BASE_DIR_RTL) align = LV_ALIGN_TOP_R
 5419              		.loc 1 354 7 view .LVU1580
 5420 0146 CFE7     		b	.L273
 5421              	.LVL532:
 5422              	.L288:
 361:Middlewares/lvgl/src/core/lv_obj_pos.c ****         y = lv_obj_get_content_height(base) / 2 - lv_obj_get_height(obj) / 2 + btop;
 5423              		.loc 1 361 9 is_stmt 1 view .LVU1581
 361:Middlewares/lvgl/src/core/lv_obj_pos.c ****         y = lv_obj_get_content_height(base) / 2 - lv_obj_get_height(obj) / 2 + btop;
 5424              		.loc 1 361 13 is_stmt 0 view .LVU1582
 5425 0148 3846     		mov	r0, r7
 5426 014a FFF7FEFF 		bl	lv_obj_get_content_width
 5427              	.LVL533:
 5428 014e 0446     		mov	r4, r0
 5429              	.LVL534:
 361:Middlewares/lvgl/src/core/lv_obj_pos.c ****         y = lv_obj_get_content_height(base) / 2 - lv_obj_get_height(obj) / 2 + btop;
 5430              		.loc 1 361 50 view .LVU1583
 5431 0150 5046     		mov	r0, r10
 5432 0152 FFF7FEFF 		bl	lv_obj_get_width
 5433              	.LVL535:
 361:Middlewares/lvgl/src/core/lv_obj_pos.c ****         y = lv_obj_get_content_height(base) / 2 - lv_obj_get_height(obj) / 2 + btop;
 5434              		.loc 1 361 48 view .LVU1584
 5435 0156 04EBD474 		add	r4, r4, r4, lsr #31
 5436 015a 00EBD070 		add	r0, r0, r0, lsr #31
 5437 015e 4510     		asrs	r5, r0, #1
 5438              	.LVL536:
ARM GAS  /tmp/ccgCqJqT.s 			page 142


 361:Middlewares/lvgl/src/core/lv_obj_pos.c ****         y = lv_obj_get_content_height(base) / 2 - lv_obj_get_height(obj) / 2 + btop;
 5439              		.loc 1 361 48 view .LVU1585
 5440 0160 C5EB6405 		rsb	r5, r5, r4, asr #1
 5441 0164 ADB2     		uxth	r5, r5
 361:Middlewares/lvgl/src/core/lv_obj_pos.c ****         y = lv_obj_get_content_height(base) / 2 - lv_obj_get_height(obj) / 2 + btop;
 5442              		.loc 1 361 76 view .LVU1586
 5443 0166 029B     		ldr	r3, [sp, #8]
 5444 0168 2B44     		add	r3, r3, r5
 361:Middlewares/lvgl/src/core/lv_obj_pos.c ****         y = lv_obj_get_content_height(base) / 2 - lv_obj_get_height(obj) / 2 + btop;
 5445              		.loc 1 361 11 view .LVU1587
 5446 016a 1DB2     		sxth	r5, r3
 5447              	.LVL537:
 362:Middlewares/lvgl/src/core/lv_obj_pos.c ****         break;
 5448              		.loc 1 362 9 is_stmt 1 view .LVU1588
 362:Middlewares/lvgl/src/core/lv_obj_pos.c ****         break;
 5449              		.loc 1 362 13 is_stmt 0 view .LVU1589
 5450 016c 3846     		mov	r0, r7
 5451 016e FFF7FEFF 		bl	lv_obj_get_content_height
 5452              	.LVL538:
 5453 0172 0446     		mov	r4, r0
 362:Middlewares/lvgl/src/core/lv_obj_pos.c ****         break;
 5454              		.loc 1 362 51 view .LVU1590
 5455 0174 5046     		mov	r0, r10
 5456 0176 FFF7FEFF 		bl	lv_obj_get_height
 5457              	.LVL539:
 362:Middlewares/lvgl/src/core/lv_obj_pos.c ****         break;
 5458              		.loc 1 362 49 view .LVU1591
 5459 017a 04EBD473 		add	r3, r4, r4, lsr #31
 5460 017e 00EBD070 		add	r0, r0, r0, lsr #31
 5461 0182 4410     		asrs	r4, r0, #1
 5462 0184 C4EB6304 		rsb	r4, r4, r3, asr #1
 5463 0188 A4B2     		uxth	r4, r4
 362:Middlewares/lvgl/src/core/lv_obj_pos.c ****         break;
 5464              		.loc 1 362 78 view .LVU1592
 5465 018a 039B     		ldr	r3, [sp, #12]
 5466 018c 2344     		add	r3, r3, r4
 362:Middlewares/lvgl/src/core/lv_obj_pos.c ****         break;
 5467              		.loc 1 362 11 view .LVU1593
 5468 018e 1CB2     		sxth	r4, r3
 5469              	.LVL540:
 363:Middlewares/lvgl/src/core/lv_obj_pos.c ****     case LV_ALIGN_TOP_LEFT:
 5470              		.loc 1 363 9 is_stmt 1 view .LVU1594
 5471 0190 AAE7     		b	.L273
 5472              	.LVL541:
 5473              	.L294:
 369:Middlewares/lvgl/src/core/lv_obj_pos.c ****         y = btop;
 5474              		.loc 1 369 9 view .LVU1595
 369:Middlewares/lvgl/src/core/lv_obj_pos.c ****         y = btop;
 5475              		.loc 1 369 13 is_stmt 0 view .LVU1596
 5476 0192 3846     		mov	r0, r7
 5477 0194 FFF7FEFF 		bl	lv_obj_get_content_width
 5478              	.LVL542:
 5479 0198 0546     		mov	r5, r0
 5480              	.LVL543:
 369:Middlewares/lvgl/src/core/lv_obj_pos.c ****         y = btop;
 5481              		.loc 1 369 50 view .LVU1597
 5482 019a 5046     		mov	r0, r10
ARM GAS  /tmp/ccgCqJqT.s 			page 143


 5483 019c FFF7FEFF 		bl	lv_obj_get_width
 5484              	.LVL544:
 369:Middlewares/lvgl/src/core/lv_obj_pos.c ****         y = btop;
 5485              		.loc 1 369 48 view .LVU1598
 5486 01a0 05EBD573 		add	r3, r5, r5, lsr #31
 5487 01a4 00EBD070 		add	r0, r0, r0, lsr #31
 5488 01a8 4510     		asrs	r5, r0, #1
 5489 01aa C5EB6305 		rsb	r5, r5, r3, asr #1
 5490 01ae ADB2     		uxth	r5, r5
 369:Middlewares/lvgl/src/core/lv_obj_pos.c ****         y = btop;
 5491              		.loc 1 369 76 view .LVU1599
 5492 01b0 029B     		ldr	r3, [sp, #8]
 5493 01b2 2B44     		add	r3, r3, r5
 369:Middlewares/lvgl/src/core/lv_obj_pos.c ****         y = btop;
 5494              		.loc 1 369 11 view .LVU1600
 5495 01b4 1DB2     		sxth	r5, r3
 5496              	.LVL545:
 370:Middlewares/lvgl/src/core/lv_obj_pos.c ****         break;
 5497              		.loc 1 370 9 is_stmt 1 view .LVU1601
 371:Middlewares/lvgl/src/core/lv_obj_pos.c **** 
 5498              		.loc 1 371 9 view .LVU1602
 5499 01b6 97E7     		b	.L273
 5500              	.LVL546:
 5501              	.L272:
 374:Middlewares/lvgl/src/core/lv_obj_pos.c ****         y = btop;
 5502              		.loc 1 374 9 view .LVU1603
 374:Middlewares/lvgl/src/core/lv_obj_pos.c ****         y = btop;
 5503              		.loc 1 374 13 is_stmt 0 view .LVU1604
 5504 01b8 3846     		mov	r0, r7
 5505 01ba FFF7FEFF 		bl	lv_obj_get_content_width
 5506              	.LVL547:
 5507 01be 85B2     		uxth	r5, r0
 5508              	.LVL548:
 374:Middlewares/lvgl/src/core/lv_obj_pos.c ****         y = btop;
 5509              		.loc 1 374 46 view .LVU1605
 5510 01c0 5046     		mov	r0, r10
 5511 01c2 FFF7FEFF 		bl	lv_obj_get_width
 5512              	.LVL549:
 5513 01c6 80B2     		uxth	r0, r0
 374:Middlewares/lvgl/src/core/lv_obj_pos.c ****         y = btop;
 5514              		.loc 1 374 44 view .LVU1606
 5515 01c8 2D1A     		subs	r5, r5, r0
 5516 01ca ADB2     		uxth	r5, r5
 374:Middlewares/lvgl/src/core/lv_obj_pos.c ****         y = btop;
 5517              		.loc 1 374 68 view .LVU1607
 5518 01cc 029B     		ldr	r3, [sp, #8]
 5519 01ce 2B44     		add	r3, r3, r5
 374:Middlewares/lvgl/src/core/lv_obj_pos.c ****         y = btop;
 5520              		.loc 1 374 11 view .LVU1608
 5521 01d0 1DB2     		sxth	r5, r3
 5522              	.LVL550:
 375:Middlewares/lvgl/src/core/lv_obj_pos.c ****         break;
 5523              		.loc 1 375 9 is_stmt 1 view .LVU1609
 376:Middlewares/lvgl/src/core/lv_obj_pos.c **** 
 5524              		.loc 1 376 9 view .LVU1610
 5525 01d2 89E7     		b	.L273
 5526              	.LVL551:
ARM GAS  /tmp/ccgCqJqT.s 			page 144


 5527              	.L293:
 379:Middlewares/lvgl/src/core/lv_obj_pos.c ****         y = lv_obj_get_content_height(base) - lv_obj_get_height(obj) + btop;
 5528              		.loc 1 379 9 view .LVU1611
 380:Middlewares/lvgl/src/core/lv_obj_pos.c ****         break;
 5529              		.loc 1 380 9 view .LVU1612
 380:Middlewares/lvgl/src/core/lv_obj_pos.c ****         break;
 5530              		.loc 1 380 13 is_stmt 0 view .LVU1613
 5531 01d4 3846     		mov	r0, r7
 5532 01d6 FFF7FEFF 		bl	lv_obj_get_content_height
 5533              	.LVL552:
 5534 01da 84B2     		uxth	r4, r0
 5535              	.LVL553:
 380:Middlewares/lvgl/src/core/lv_obj_pos.c ****         break;
 5536              		.loc 1 380 47 view .LVU1614
 5537 01dc 5046     		mov	r0, r10
 5538 01de FFF7FEFF 		bl	lv_obj_get_height
 5539              	.LVL554:
 5540 01e2 80B2     		uxth	r0, r0
 380:Middlewares/lvgl/src/core/lv_obj_pos.c ****         break;
 5541              		.loc 1 380 45 view .LVU1615
 5542 01e4 241A     		subs	r4, r4, r0
 5543 01e6 A4B2     		uxth	r4, r4
 380:Middlewares/lvgl/src/core/lv_obj_pos.c ****         break;
 5544              		.loc 1 380 70 view .LVU1616
 5545 01e8 039B     		ldr	r3, [sp, #12]
 5546 01ea 2344     		add	r3, r3, r4
 380:Middlewares/lvgl/src/core/lv_obj_pos.c ****         break;
 5547              		.loc 1 380 11 view .LVU1617
 5548 01ec 1CB2     		sxth	r4, r3
 5549              	.LVL555:
 381:Middlewares/lvgl/src/core/lv_obj_pos.c ****     case LV_ALIGN_BOTTOM_MID:
 5550              		.loc 1 381 9 is_stmt 1 view .LVU1618
 5551 01ee 7BE7     		b	.L273
 5552              	.LVL556:
 5553              	.L292:
 383:Middlewares/lvgl/src/core/lv_obj_pos.c ****         y = lv_obj_get_content_height(base) - lv_obj_get_height(obj) + btop;
 5554              		.loc 1 383 9 view .LVU1619
 383:Middlewares/lvgl/src/core/lv_obj_pos.c ****         y = lv_obj_get_content_height(base) - lv_obj_get_height(obj) + btop;
 5555              		.loc 1 383 13 is_stmt 0 view .LVU1620
 5556 01f0 3846     		mov	r0, r7
 5557 01f2 FFF7FEFF 		bl	lv_obj_get_content_width
 5558              	.LVL557:
 5559 01f6 0446     		mov	r4, r0
 5560              	.LVL558:
 383:Middlewares/lvgl/src/core/lv_obj_pos.c ****         y = lv_obj_get_content_height(base) - lv_obj_get_height(obj) + btop;
 5561              		.loc 1 383 50 view .LVU1621
 5562 01f8 5046     		mov	r0, r10
 5563 01fa FFF7FEFF 		bl	lv_obj_get_width
 5564              	.LVL559:
 383:Middlewares/lvgl/src/core/lv_obj_pos.c ****         y = lv_obj_get_content_height(base) - lv_obj_get_height(obj) + btop;
 5565              		.loc 1 383 48 view .LVU1622
 5566 01fe 04EBD474 		add	r4, r4, r4, lsr #31
 5567 0202 00EBD070 		add	r0, r0, r0, lsr #31
 5568 0206 4510     		asrs	r5, r0, #1
 5569              	.LVL560:
 383:Middlewares/lvgl/src/core/lv_obj_pos.c ****         y = lv_obj_get_content_height(base) - lv_obj_get_height(obj) + btop;
 5570              		.loc 1 383 48 view .LVU1623
ARM GAS  /tmp/ccgCqJqT.s 			page 145


 5571 0208 C5EB6405 		rsb	r5, r5, r4, asr #1
 5572 020c ADB2     		uxth	r5, r5
 383:Middlewares/lvgl/src/core/lv_obj_pos.c ****         y = lv_obj_get_content_height(base) - lv_obj_get_height(obj) + btop;
 5573              		.loc 1 383 76 view .LVU1624
 5574 020e 029B     		ldr	r3, [sp, #8]
 5575 0210 2B44     		add	r3, r3, r5
 383:Middlewares/lvgl/src/core/lv_obj_pos.c ****         y = lv_obj_get_content_height(base) - lv_obj_get_height(obj) + btop;
 5576              		.loc 1 383 11 view .LVU1625
 5577 0212 1DB2     		sxth	r5, r3
 5578              	.LVL561:
 384:Middlewares/lvgl/src/core/lv_obj_pos.c ****         break;
 5579              		.loc 1 384 9 is_stmt 1 view .LVU1626
 384:Middlewares/lvgl/src/core/lv_obj_pos.c ****         break;
 5580              		.loc 1 384 13 is_stmt 0 view .LVU1627
 5581 0214 3846     		mov	r0, r7
 5582 0216 FFF7FEFF 		bl	lv_obj_get_content_height
 5583              	.LVL562:
 5584 021a 84B2     		uxth	r4, r0
 384:Middlewares/lvgl/src/core/lv_obj_pos.c ****         break;
 5585              		.loc 1 384 47 view .LVU1628
 5586 021c 5046     		mov	r0, r10
 5587 021e FFF7FEFF 		bl	lv_obj_get_height
 5588              	.LVL563:
 5589 0222 80B2     		uxth	r0, r0
 384:Middlewares/lvgl/src/core/lv_obj_pos.c ****         break;
 5590              		.loc 1 384 45 view .LVU1629
 5591 0224 241A     		subs	r4, r4, r0
 5592 0226 A4B2     		uxth	r4, r4
 384:Middlewares/lvgl/src/core/lv_obj_pos.c ****         break;
 5593              		.loc 1 384 70 view .LVU1630
 5594 0228 039B     		ldr	r3, [sp, #12]
 5595 022a 2344     		add	r3, r3, r4
 384:Middlewares/lvgl/src/core/lv_obj_pos.c ****         break;
 5596              		.loc 1 384 11 view .LVU1631
 5597 022c 1CB2     		sxth	r4, r3
 5598              	.LVL564:
 385:Middlewares/lvgl/src/core/lv_obj_pos.c **** 
 5599              		.loc 1 385 9 is_stmt 1 view .LVU1632
 5600 022e 5BE7     		b	.L273
 5601              	.LVL565:
 5602              	.L291:
 388:Middlewares/lvgl/src/core/lv_obj_pos.c ****         y = lv_obj_get_content_height(base) - lv_obj_get_height(obj) + btop;
 5603              		.loc 1 388 9 view .LVU1633
 388:Middlewares/lvgl/src/core/lv_obj_pos.c ****         y = lv_obj_get_content_height(base) - lv_obj_get_height(obj) + btop;
 5604              		.loc 1 388 13 is_stmt 0 view .LVU1634
 5605 0230 3846     		mov	r0, r7
 5606 0232 FFF7FEFF 		bl	lv_obj_get_content_width
 5607              	.LVL566:
 5608 0236 84B2     		uxth	r4, r0
 5609              	.LVL567:
 388:Middlewares/lvgl/src/core/lv_obj_pos.c ****         y = lv_obj_get_content_height(base) - lv_obj_get_height(obj) + btop;
 5610              		.loc 1 388 46 view .LVU1635
 5611 0238 5046     		mov	r0, r10
 5612 023a FFF7FEFF 		bl	lv_obj_get_width
 5613              	.LVL568:
 5614 023e 85B2     		uxth	r5, r0
 5615              	.LVL569:
ARM GAS  /tmp/ccgCqJqT.s 			page 146


 388:Middlewares/lvgl/src/core/lv_obj_pos.c ****         y = lv_obj_get_content_height(base) - lv_obj_get_height(obj) + btop;
 5616              		.loc 1 388 44 view .LVU1636
 5617 0240 651B     		subs	r5, r4, r5
 5618 0242 ADB2     		uxth	r5, r5
 388:Middlewares/lvgl/src/core/lv_obj_pos.c ****         y = lv_obj_get_content_height(base) - lv_obj_get_height(obj) + btop;
 5619              		.loc 1 388 68 view .LVU1637
 5620 0244 029B     		ldr	r3, [sp, #8]
 5621 0246 2B44     		add	r3, r3, r5
 388:Middlewares/lvgl/src/core/lv_obj_pos.c ****         y = lv_obj_get_content_height(base) - lv_obj_get_height(obj) + btop;
 5622              		.loc 1 388 11 view .LVU1638
 5623 0248 1DB2     		sxth	r5, r3
 5624              	.LVL570:
 389:Middlewares/lvgl/src/core/lv_obj_pos.c ****         break;
 5625              		.loc 1 389 9 is_stmt 1 view .LVU1639
 389:Middlewares/lvgl/src/core/lv_obj_pos.c ****         break;
 5626              		.loc 1 389 13 is_stmt 0 view .LVU1640
 5627 024a 3846     		mov	r0, r7
 5628 024c FFF7FEFF 		bl	lv_obj_get_content_height
 5629              	.LVL571:
 5630 0250 84B2     		uxth	r4, r0
 389:Middlewares/lvgl/src/core/lv_obj_pos.c ****         break;
 5631              		.loc 1 389 47 view .LVU1641
 5632 0252 5046     		mov	r0, r10
 5633 0254 FFF7FEFF 		bl	lv_obj_get_height
 5634              	.LVL572:
 5635 0258 80B2     		uxth	r0, r0
 389:Middlewares/lvgl/src/core/lv_obj_pos.c ****         break;
 5636              		.loc 1 389 45 view .LVU1642
 5637 025a 241A     		subs	r4, r4, r0
 5638 025c A4B2     		uxth	r4, r4
 389:Middlewares/lvgl/src/core/lv_obj_pos.c ****         break;
 5639              		.loc 1 389 70 view .LVU1643
 5640 025e 039B     		ldr	r3, [sp, #12]
 5641 0260 2344     		add	r3, r3, r4
 389:Middlewares/lvgl/src/core/lv_obj_pos.c ****         break;
 5642              		.loc 1 389 11 view .LVU1644
 5643 0262 1CB2     		sxth	r4, r3
 5644              	.LVL573:
 390:Middlewares/lvgl/src/core/lv_obj_pos.c **** 
 5645              		.loc 1 390 9 is_stmt 1 view .LVU1645
 5646 0264 40E7     		b	.L273
 5647              	.LVL574:
 5648              	.L290:
 393:Middlewares/lvgl/src/core/lv_obj_pos.c ****         y = lv_obj_get_content_height(base) / 2 - lv_obj_get_height(obj) / 2 + btop;
 5649              		.loc 1 393 9 view .LVU1646
 394:Middlewares/lvgl/src/core/lv_obj_pos.c ****         break;
 5650              		.loc 1 394 9 view .LVU1647
 394:Middlewares/lvgl/src/core/lv_obj_pos.c ****         break;
 5651              		.loc 1 394 13 is_stmt 0 view .LVU1648
 5652 0266 3846     		mov	r0, r7
 5653 0268 FFF7FEFF 		bl	lv_obj_get_content_height
 5654              	.LVL575:
 5655 026c 0446     		mov	r4, r0
 5656              	.LVL576:
 394:Middlewares/lvgl/src/core/lv_obj_pos.c ****         break;
 5657              		.loc 1 394 51 view .LVU1649
 5658 026e 5046     		mov	r0, r10
ARM GAS  /tmp/ccgCqJqT.s 			page 147


 5659 0270 FFF7FEFF 		bl	lv_obj_get_height
 5660              	.LVL577:
 394:Middlewares/lvgl/src/core/lv_obj_pos.c ****         break;
 5661              		.loc 1 394 49 view .LVU1650
 5662 0274 04EBD473 		add	r3, r4, r4, lsr #31
 5663 0278 00EBD070 		add	r0, r0, r0, lsr #31
 5664 027c 4410     		asrs	r4, r0, #1
 5665 027e C4EB6304 		rsb	r4, r4, r3, asr #1
 5666 0282 A4B2     		uxth	r4, r4
 394:Middlewares/lvgl/src/core/lv_obj_pos.c ****         break;
 5667              		.loc 1 394 78 view .LVU1651
 5668 0284 039B     		ldr	r3, [sp, #12]
 5669 0286 2344     		add	r3, r3, r4
 394:Middlewares/lvgl/src/core/lv_obj_pos.c ****         break;
 5670              		.loc 1 394 11 view .LVU1652
 5671 0288 1CB2     		sxth	r4, r3
 5672              	.LVL578:
 395:Middlewares/lvgl/src/core/lv_obj_pos.c **** 
 5673              		.loc 1 395 9 is_stmt 1 view .LVU1653
 5674 028a 2DE7     		b	.L273
 5675              	.LVL579:
 5676              	.L289:
 398:Middlewares/lvgl/src/core/lv_obj_pos.c ****         y = lv_obj_get_content_height(base) / 2 - lv_obj_get_height(obj) / 2 + btop;
 5677              		.loc 1 398 9 view .LVU1654
 398:Middlewares/lvgl/src/core/lv_obj_pos.c ****         y = lv_obj_get_content_height(base) / 2 - lv_obj_get_height(obj) / 2 + btop;
 5678              		.loc 1 398 13 is_stmt 0 view .LVU1655
 5679 028c 3846     		mov	r0, r7
 5680 028e FFF7FEFF 		bl	lv_obj_get_content_width
 5681              	.LVL580:
 5682 0292 84B2     		uxth	r4, r0
 5683              	.LVL581:
 398:Middlewares/lvgl/src/core/lv_obj_pos.c ****         y = lv_obj_get_content_height(base) / 2 - lv_obj_get_height(obj) / 2 + btop;
 5684              		.loc 1 398 46 view .LVU1656
 5685 0294 5046     		mov	r0, r10
 5686 0296 FFF7FEFF 		bl	lv_obj_get_width
 5687              	.LVL582:
 5688 029a 85B2     		uxth	r5, r0
 5689              	.LVL583:
 398:Middlewares/lvgl/src/core/lv_obj_pos.c ****         y = lv_obj_get_content_height(base) / 2 - lv_obj_get_height(obj) / 2 + btop;
 5690              		.loc 1 398 44 view .LVU1657
 5691 029c 651B     		subs	r5, r4, r5
 5692 029e ADB2     		uxth	r5, r5
 398:Middlewares/lvgl/src/core/lv_obj_pos.c ****         y = lv_obj_get_content_height(base) / 2 - lv_obj_get_height(obj) / 2 + btop;
 5693              		.loc 1 398 68 view .LVU1658
 5694 02a0 029B     		ldr	r3, [sp, #8]
 5695 02a2 2B44     		add	r3, r3, r5
 398:Middlewares/lvgl/src/core/lv_obj_pos.c ****         y = lv_obj_get_content_height(base) / 2 - lv_obj_get_height(obj) / 2 + btop;
 5696              		.loc 1 398 11 view .LVU1659
 5697 02a4 1DB2     		sxth	r5, r3
 5698              	.LVL584:
 399:Middlewares/lvgl/src/core/lv_obj_pos.c ****         break;
 5699              		.loc 1 399 9 is_stmt 1 view .LVU1660
 399:Middlewares/lvgl/src/core/lv_obj_pos.c ****         break;
 5700              		.loc 1 399 13 is_stmt 0 view .LVU1661
 5701 02a6 3846     		mov	r0, r7
 5702 02a8 FFF7FEFF 		bl	lv_obj_get_content_height
 5703              	.LVL585:
ARM GAS  /tmp/ccgCqJqT.s 			page 148


 5704 02ac 0446     		mov	r4, r0
 399:Middlewares/lvgl/src/core/lv_obj_pos.c ****         break;
 5705              		.loc 1 399 51 view .LVU1662
 5706 02ae 5046     		mov	r0, r10
 5707 02b0 FFF7FEFF 		bl	lv_obj_get_height
 5708              	.LVL586:
 399:Middlewares/lvgl/src/core/lv_obj_pos.c ****         break;
 5709              		.loc 1 399 49 view .LVU1663
 5710 02b4 04EBD473 		add	r3, r4, r4, lsr #31
 5711 02b8 00EBD070 		add	r0, r0, r0, lsr #31
 5712 02bc 4410     		asrs	r4, r0, #1
 5713 02be C4EB6304 		rsb	r4, r4, r3, asr #1
 5714 02c2 A4B2     		uxth	r4, r4
 399:Middlewares/lvgl/src/core/lv_obj_pos.c ****         break;
 5715              		.loc 1 399 78 view .LVU1664
 5716 02c4 039B     		ldr	r3, [sp, #12]
 5717 02c6 2344     		add	r3, r3, r4
 399:Middlewares/lvgl/src/core/lv_obj_pos.c ****         break;
 5718              		.loc 1 399 11 view .LVU1665
 5719 02c8 1CB2     		sxth	r4, r3
 5720              	.LVL587:
 400:Middlewares/lvgl/src/core/lv_obj_pos.c **** 
 5721              		.loc 1 400 9 is_stmt 1 view .LVU1666
 5722 02ca 0DE7     		b	.L273
 5723              	.LVL588:
 5724              	.L287:
 403:Middlewares/lvgl/src/core/lv_obj_pos.c ****         y = -lv_obj_get_height(obj);
 5725              		.loc 1 403 9 view .LVU1667
 404:Middlewares/lvgl/src/core/lv_obj_pos.c ****         break;
 5726              		.loc 1 404 9 view .LVU1668
 404:Middlewares/lvgl/src/core/lv_obj_pos.c ****         break;
 5727              		.loc 1 404 14 is_stmt 0 view .LVU1669
 5728 02cc 5046     		mov	r0, r10
 5729 02ce FFF7FEFF 		bl	lv_obj_get_height
 5730              	.LVL589:
 5731 02d2 84B2     		uxth	r4, r0
 5732              	.LVL590:
 404:Middlewares/lvgl/src/core/lv_obj_pos.c ****         break;
 5733              		.loc 1 404 11 view .LVU1670
 5734 02d4 6442     		rsbs	r4, r4, #0
 5735 02d6 24B2     		sxth	r4, r4
 5736              	.LVL591:
 405:Middlewares/lvgl/src/core/lv_obj_pos.c **** 
 5737              		.loc 1 405 9 is_stmt 1 view .LVU1671
 403:Middlewares/lvgl/src/core/lv_obj_pos.c ****         y = -lv_obj_get_height(obj);
 5738              		.loc 1 403 11 is_stmt 0 view .LVU1672
 5739 02d8 0025     		movs	r5, #0
 5740              	.LVL592:
 405:Middlewares/lvgl/src/core/lv_obj_pos.c **** 
 5741              		.loc 1 405 9 view .LVU1673
 5742 02da 05E7     		b	.L273
 5743              	.LVL593:
 5744              	.L286:
 408:Middlewares/lvgl/src/core/lv_obj_pos.c ****         y = -lv_obj_get_height(obj);
 5745              		.loc 1 408 9 is_stmt 1 view .LVU1674
 408:Middlewares/lvgl/src/core/lv_obj_pos.c ****         y = -lv_obj_get_height(obj);
 5746              		.loc 1 408 13 is_stmt 0 view .LVU1675
ARM GAS  /tmp/ccgCqJqT.s 			page 149


 5747 02dc 3846     		mov	r0, r7
 5748 02de FFF7FEFF 		bl	lv_obj_get_width
 5749              	.LVL594:
 5750 02e2 0546     		mov	r5, r0
 5751              	.LVL595:
 408:Middlewares/lvgl/src/core/lv_obj_pos.c ****         y = -lv_obj_get_height(obj);
 5752              		.loc 1 408 42 view .LVU1676
 5753 02e4 5046     		mov	r0, r10
 5754 02e6 FFF7FEFF 		bl	lv_obj_get_width
 5755              	.LVL596:
 408:Middlewares/lvgl/src/core/lv_obj_pos.c ****         y = -lv_obj_get_height(obj);
 5756              		.loc 1 408 40 view .LVU1677
 5757 02ea 05EBD573 		add	r3, r5, r5, lsr #31
 5758 02ee 00EBD070 		add	r0, r0, r0, lsr #31
 5759 02f2 4510     		asrs	r5, r0, #1
 5760 02f4 C5EB6305 		rsb	r5, r5, r3, asr #1
 408:Middlewares/lvgl/src/core/lv_obj_pos.c ****         y = -lv_obj_get_height(obj);
 5761              		.loc 1 408 11 view .LVU1678
 5762 02f8 2DB2     		sxth	r5, r5
 5763              	.LVL597:
 409:Middlewares/lvgl/src/core/lv_obj_pos.c ****         break;
 5764              		.loc 1 409 9 is_stmt 1 view .LVU1679
 409:Middlewares/lvgl/src/core/lv_obj_pos.c ****         break;
 5765              		.loc 1 409 14 is_stmt 0 view .LVU1680
 5766 02fa 5046     		mov	r0, r10
 5767 02fc FFF7FEFF 		bl	lv_obj_get_height
 5768              	.LVL598:
 5769 0300 84B2     		uxth	r4, r0
 5770              	.LVL599:
 409:Middlewares/lvgl/src/core/lv_obj_pos.c ****         break;
 5771              		.loc 1 409 11 view .LVU1681
 5772 0302 6442     		rsbs	r4, r4, #0
 5773 0304 24B2     		sxth	r4, r4
 5774              	.LVL600:
 410:Middlewares/lvgl/src/core/lv_obj_pos.c **** 
 5775              		.loc 1 410 9 is_stmt 1 view .LVU1682
 5776 0306 EFE6     		b	.L273
 5777              	.LVL601:
 5778              	.L285:
 413:Middlewares/lvgl/src/core/lv_obj_pos.c ****         y = -lv_obj_get_height(obj);
 5779              		.loc 1 413 9 view .LVU1683
 413:Middlewares/lvgl/src/core/lv_obj_pos.c ****         y = -lv_obj_get_height(obj);
 5780              		.loc 1 413 13 is_stmt 0 view .LVU1684
 5781 0308 3846     		mov	r0, r7
 5782 030a FFF7FEFF 		bl	lv_obj_get_width
 5783              	.LVL602:
 5784 030e 85B2     		uxth	r5, r0
 5785              	.LVL603:
 413:Middlewares/lvgl/src/core/lv_obj_pos.c ****         y = -lv_obj_get_height(obj);
 5786              		.loc 1 413 38 view .LVU1685
 5787 0310 5046     		mov	r0, r10
 5788 0312 FFF7FEFF 		bl	lv_obj_get_width
 5789              	.LVL604:
 5790 0316 80B2     		uxth	r0, r0
 413:Middlewares/lvgl/src/core/lv_obj_pos.c ****         y = -lv_obj_get_height(obj);
 5791              		.loc 1 413 36 view .LVU1686
 5792 0318 2D1A     		subs	r5, r5, r0
ARM GAS  /tmp/ccgCqJqT.s 			page 150


 413:Middlewares/lvgl/src/core/lv_obj_pos.c ****         y = -lv_obj_get_height(obj);
 5793              		.loc 1 413 11 view .LVU1687
 5794 031a 2DB2     		sxth	r5, r5
 5795              	.LVL605:
 414:Middlewares/lvgl/src/core/lv_obj_pos.c ****         break;
 5796              		.loc 1 414 9 is_stmt 1 view .LVU1688
 414:Middlewares/lvgl/src/core/lv_obj_pos.c ****         break;
 5797              		.loc 1 414 14 is_stmt 0 view .LVU1689
 5798 031c 5046     		mov	r0, r10
 5799 031e FFF7FEFF 		bl	lv_obj_get_height
 5800              	.LVL606:
 5801 0322 84B2     		uxth	r4, r0
 5802              	.LVL607:
 414:Middlewares/lvgl/src/core/lv_obj_pos.c ****         break;
 5803              		.loc 1 414 11 view .LVU1690
 5804 0324 6442     		rsbs	r4, r4, #0
 5805 0326 24B2     		sxth	r4, r4
 5806              	.LVL608:
 415:Middlewares/lvgl/src/core/lv_obj_pos.c **** 
 5807              		.loc 1 415 9 is_stmt 1 view .LVU1691
 5808 0328 DEE6     		b	.L273
 5809              	.LVL609:
 5810              	.L284:
 418:Middlewares/lvgl/src/core/lv_obj_pos.c ****         y = lv_obj_get_height(base);
 5811              		.loc 1 418 9 view .LVU1692
 419:Middlewares/lvgl/src/core/lv_obj_pos.c ****         break;
 5812              		.loc 1 419 9 view .LVU1693
 419:Middlewares/lvgl/src/core/lv_obj_pos.c ****         break;
 5813              		.loc 1 419 13 is_stmt 0 view .LVU1694
 5814 032a 3846     		mov	r0, r7
 5815 032c FFF7FEFF 		bl	lv_obj_get_height
 5816              	.LVL610:
 5817 0330 0446     		mov	r4, r0
 5818              	.LVL611:
 420:Middlewares/lvgl/src/core/lv_obj_pos.c **** 
 5819              		.loc 1 420 9 is_stmt 1 view .LVU1695
 418:Middlewares/lvgl/src/core/lv_obj_pos.c ****         y = lv_obj_get_height(base);
 5820              		.loc 1 418 11 is_stmt 0 view .LVU1696
 5821 0332 0025     		movs	r5, #0
 5822              	.LVL612:
 420:Middlewares/lvgl/src/core/lv_obj_pos.c **** 
 5823              		.loc 1 420 9 view .LVU1697
 5824 0334 D8E6     		b	.L273
 5825              	.LVL613:
 5826              	.L283:
 423:Middlewares/lvgl/src/core/lv_obj_pos.c ****         y = lv_obj_get_height(base);
 5827              		.loc 1 423 9 is_stmt 1 view .LVU1698
 423:Middlewares/lvgl/src/core/lv_obj_pos.c ****         y = lv_obj_get_height(base);
 5828              		.loc 1 423 13 is_stmt 0 view .LVU1699
 5829 0336 3846     		mov	r0, r7
 5830 0338 FFF7FEFF 		bl	lv_obj_get_width
 5831              	.LVL614:
 5832 033c 0546     		mov	r5, r0
 5833              	.LVL615:
 423:Middlewares/lvgl/src/core/lv_obj_pos.c ****         y = lv_obj_get_height(base);
 5834              		.loc 1 423 42 view .LVU1700
 5835 033e 5046     		mov	r0, r10
ARM GAS  /tmp/ccgCqJqT.s 			page 151


 5836 0340 FFF7FEFF 		bl	lv_obj_get_width
 5837              	.LVL616:
 423:Middlewares/lvgl/src/core/lv_obj_pos.c ****         y = lv_obj_get_height(base);
 5838              		.loc 1 423 40 view .LVU1701
 5839 0344 05EBD573 		add	r3, r5, r5, lsr #31
 5840 0348 00EBD070 		add	r0, r0, r0, lsr #31
 5841 034c 4510     		asrs	r5, r0, #1
 5842 034e C5EB6305 		rsb	r5, r5, r3, asr #1
 423:Middlewares/lvgl/src/core/lv_obj_pos.c ****         y = lv_obj_get_height(base);
 5843              		.loc 1 423 11 view .LVU1702
 5844 0352 2DB2     		sxth	r5, r5
 5845              	.LVL617:
 424:Middlewares/lvgl/src/core/lv_obj_pos.c ****         break;
 5846              		.loc 1 424 9 is_stmt 1 view .LVU1703
 424:Middlewares/lvgl/src/core/lv_obj_pos.c ****         break;
 5847              		.loc 1 424 13 is_stmt 0 view .LVU1704
 5848 0354 3846     		mov	r0, r7
 5849 0356 FFF7FEFF 		bl	lv_obj_get_height
 5850              	.LVL618:
 5851 035a 0446     		mov	r4, r0
 5852              	.LVL619:
 425:Middlewares/lvgl/src/core/lv_obj_pos.c **** 
 5853              		.loc 1 425 9 is_stmt 1 view .LVU1705
 5854 035c C4E6     		b	.L273
 5855              	.LVL620:
 5856              	.L282:
 428:Middlewares/lvgl/src/core/lv_obj_pos.c ****         y = lv_obj_get_height(base);
 5857              		.loc 1 428 9 view .LVU1706
 428:Middlewares/lvgl/src/core/lv_obj_pos.c ****         y = lv_obj_get_height(base);
 5858              		.loc 1 428 13 is_stmt 0 view .LVU1707
 5859 035e 3846     		mov	r0, r7
 5860 0360 FFF7FEFF 		bl	lv_obj_get_width
 5861              	.LVL621:
 5862 0364 85B2     		uxth	r5, r0
 5863              	.LVL622:
 428:Middlewares/lvgl/src/core/lv_obj_pos.c ****         y = lv_obj_get_height(base);
 5864              		.loc 1 428 38 view .LVU1708
 5865 0366 5046     		mov	r0, r10
 5866 0368 FFF7FEFF 		bl	lv_obj_get_width
 5867              	.LVL623:
 5868 036c 80B2     		uxth	r0, r0
 428:Middlewares/lvgl/src/core/lv_obj_pos.c ****         y = lv_obj_get_height(base);
 5869              		.loc 1 428 36 view .LVU1709
 5870 036e 2D1A     		subs	r5, r5, r0
 428:Middlewares/lvgl/src/core/lv_obj_pos.c ****         y = lv_obj_get_height(base);
 5871              		.loc 1 428 11 view .LVU1710
 5872 0370 2DB2     		sxth	r5, r5
 5873              	.LVL624:
 429:Middlewares/lvgl/src/core/lv_obj_pos.c ****         break;
 5874              		.loc 1 429 9 is_stmt 1 view .LVU1711
 429:Middlewares/lvgl/src/core/lv_obj_pos.c ****         break;
 5875              		.loc 1 429 13 is_stmt 0 view .LVU1712
 5876 0372 3846     		mov	r0, r7
 5877 0374 FFF7FEFF 		bl	lv_obj_get_height
 5878              	.LVL625:
 5879 0378 0446     		mov	r4, r0
 5880              	.LVL626:
ARM GAS  /tmp/ccgCqJqT.s 			page 152


 430:Middlewares/lvgl/src/core/lv_obj_pos.c **** 
 5881              		.loc 1 430 9 is_stmt 1 view .LVU1713
 5882 037a B5E6     		b	.L273
 5883              	.LVL627:
 5884              	.L281:
 433:Middlewares/lvgl/src/core/lv_obj_pos.c ****         y = 0;
 5885              		.loc 1 433 9 view .LVU1714
 433:Middlewares/lvgl/src/core/lv_obj_pos.c ****         y = 0;
 5886              		.loc 1 433 14 is_stmt 0 view .LVU1715
 5887 037c 5046     		mov	r0, r10
 5888 037e FFF7FEFF 		bl	lv_obj_get_width
 5889              	.LVL628:
 5890 0382 85B2     		uxth	r5, r0
 5891              	.LVL629:
 433:Middlewares/lvgl/src/core/lv_obj_pos.c ****         y = 0;
 5892              		.loc 1 433 11 view .LVU1716
 5893 0384 6D42     		rsbs	r5, r5, #0
 5894 0386 2DB2     		sxth	r5, r5
 5895              	.LVL630:
 434:Middlewares/lvgl/src/core/lv_obj_pos.c ****         break;
 5896              		.loc 1 434 9 is_stmt 1 view .LVU1717
 435:Middlewares/lvgl/src/core/lv_obj_pos.c **** 
 5897              		.loc 1 435 9 view .LVU1718
 434:Middlewares/lvgl/src/core/lv_obj_pos.c ****         break;
 5898              		.loc 1 434 11 is_stmt 0 view .LVU1719
 5899 0388 0024     		movs	r4, #0
 5900              	.LVL631:
 435:Middlewares/lvgl/src/core/lv_obj_pos.c **** 
 5901              		.loc 1 435 9 view .LVU1720
 5902 038a ADE6     		b	.L273
 5903              	.LVL632:
 5904              	.L280:
 438:Middlewares/lvgl/src/core/lv_obj_pos.c ****         y = lv_obj_get_height(base) / 2 - lv_obj_get_height(obj) / 2;
 5905              		.loc 1 438 9 is_stmt 1 view .LVU1721
 438:Middlewares/lvgl/src/core/lv_obj_pos.c ****         y = lv_obj_get_height(base) / 2 - lv_obj_get_height(obj) / 2;
 5906              		.loc 1 438 14 is_stmt 0 view .LVU1722
 5907 038c 5046     		mov	r0, r10
 5908 038e FFF7FEFF 		bl	lv_obj_get_width
 5909              	.LVL633:
 5910 0392 85B2     		uxth	r5, r0
 5911              	.LVL634:
 438:Middlewares/lvgl/src/core/lv_obj_pos.c ****         y = lv_obj_get_height(base) / 2 - lv_obj_get_height(obj) / 2;
 5912              		.loc 1 438 11 view .LVU1723
 5913 0394 6D42     		rsbs	r5, r5, #0
 5914 0396 2DB2     		sxth	r5, r5
 5915              	.LVL635:
 439:Middlewares/lvgl/src/core/lv_obj_pos.c ****         break;
 5916              		.loc 1 439 9 is_stmt 1 view .LVU1724
 439:Middlewares/lvgl/src/core/lv_obj_pos.c ****         break;
 5917              		.loc 1 439 13 is_stmt 0 view .LVU1725
 5918 0398 3846     		mov	r0, r7
 5919 039a FFF7FEFF 		bl	lv_obj_get_height
 5920              	.LVL636:
 5921 039e 0446     		mov	r4, r0
 5922              	.LVL637:
 439:Middlewares/lvgl/src/core/lv_obj_pos.c ****         break;
 5923              		.loc 1 439 43 view .LVU1726
ARM GAS  /tmp/ccgCqJqT.s 			page 153


 5924 03a0 5046     		mov	r0, r10
 5925 03a2 FFF7FEFF 		bl	lv_obj_get_height
 5926              	.LVL638:
 439:Middlewares/lvgl/src/core/lv_obj_pos.c ****         break;
 5927              		.loc 1 439 41 view .LVU1727
 5928 03a6 04EBD474 		add	r4, r4, r4, lsr #31
 5929 03aa 00EBD070 		add	r0, r0, r0, lsr #31
 5930 03ae 4310     		asrs	r3, r0, #1
 5931 03b0 C3EB6404 		rsb	r4, r3, r4, asr #1
 439:Middlewares/lvgl/src/core/lv_obj_pos.c ****         break;
 5932              		.loc 1 439 11 view .LVU1728
 5933 03b4 24B2     		sxth	r4, r4
 5934              	.LVL639:
 440:Middlewares/lvgl/src/core/lv_obj_pos.c **** 
 5935              		.loc 1 440 9 is_stmt 1 view .LVU1729
 5936 03b6 97E6     		b	.L273
 5937              	.LVL640:
 5938              	.L279:
 443:Middlewares/lvgl/src/core/lv_obj_pos.c ****         y = lv_obj_get_height(base) - lv_obj_get_height(obj);
 5939              		.loc 1 443 9 view .LVU1730
 443:Middlewares/lvgl/src/core/lv_obj_pos.c ****         y = lv_obj_get_height(base) - lv_obj_get_height(obj);
 5940              		.loc 1 443 14 is_stmt 0 view .LVU1731
 5941 03b8 5046     		mov	r0, r10
 5942 03ba FFF7FEFF 		bl	lv_obj_get_width
 5943              	.LVL641:
 5944 03be 85B2     		uxth	r5, r0
 5945              	.LVL642:
 443:Middlewares/lvgl/src/core/lv_obj_pos.c ****         y = lv_obj_get_height(base) - lv_obj_get_height(obj);
 5946              		.loc 1 443 11 view .LVU1732
 5947 03c0 6D42     		rsbs	r5, r5, #0
 5948 03c2 2DB2     		sxth	r5, r5
 5949              	.LVL643:
 444:Middlewares/lvgl/src/core/lv_obj_pos.c ****         break;
 5950              		.loc 1 444 9 is_stmt 1 view .LVU1733
 444:Middlewares/lvgl/src/core/lv_obj_pos.c ****         break;
 5951              		.loc 1 444 13 is_stmt 0 view .LVU1734
 5952 03c4 3846     		mov	r0, r7
 5953 03c6 FFF7FEFF 		bl	lv_obj_get_height
 5954              	.LVL644:
 5955 03ca 84B2     		uxth	r4, r0
 5956              	.LVL645:
 444:Middlewares/lvgl/src/core/lv_obj_pos.c ****         break;
 5957              		.loc 1 444 39 view .LVU1735
 5958 03cc 5046     		mov	r0, r10
 5959 03ce FFF7FEFF 		bl	lv_obj_get_height
 5960              	.LVL646:
 5961 03d2 80B2     		uxth	r0, r0
 444:Middlewares/lvgl/src/core/lv_obj_pos.c ****         break;
 5962              		.loc 1 444 37 view .LVU1736
 5963 03d4 241A     		subs	r4, r4, r0
 444:Middlewares/lvgl/src/core/lv_obj_pos.c ****         break;
 5964              		.loc 1 444 11 view .LVU1737
 5965 03d6 24B2     		sxth	r4, r4
 5966              	.LVL647:
 445:Middlewares/lvgl/src/core/lv_obj_pos.c **** 
 5967              		.loc 1 445 9 is_stmt 1 view .LVU1738
 5968 03d8 86E6     		b	.L273
ARM GAS  /tmp/ccgCqJqT.s 			page 154


 5969              	.LVL648:
 5970              	.L278:
 448:Middlewares/lvgl/src/core/lv_obj_pos.c ****         y = 0;
 5971              		.loc 1 448 9 view .LVU1739
 448:Middlewares/lvgl/src/core/lv_obj_pos.c ****         y = 0;
 5972              		.loc 1 448 13 is_stmt 0 view .LVU1740
 5973 03da 3846     		mov	r0, r7
 5974 03dc FFF7FEFF 		bl	lv_obj_get_width
 5975              	.LVL649:
 5976 03e0 0546     		mov	r5, r0
 5977              	.LVL650:
 449:Middlewares/lvgl/src/core/lv_obj_pos.c ****         break;
 5978              		.loc 1 449 9 is_stmt 1 view .LVU1741
 450:Middlewares/lvgl/src/core/lv_obj_pos.c **** 
 5979              		.loc 1 450 9 view .LVU1742
 449:Middlewares/lvgl/src/core/lv_obj_pos.c ****         break;
 5980              		.loc 1 449 11 is_stmt 0 view .LVU1743
 5981 03e2 0024     		movs	r4, #0
 5982              	.LVL651:
 450:Middlewares/lvgl/src/core/lv_obj_pos.c **** 
 5983              		.loc 1 450 9 view .LVU1744
 5984 03e4 80E6     		b	.L273
 5985              	.LVL652:
 5986              	.L277:
 453:Middlewares/lvgl/src/core/lv_obj_pos.c ****         y = lv_obj_get_height(base) / 2 - lv_obj_get_height(obj) / 2;
 5987              		.loc 1 453 9 is_stmt 1 view .LVU1745
 453:Middlewares/lvgl/src/core/lv_obj_pos.c ****         y = lv_obj_get_height(base) / 2 - lv_obj_get_height(obj) / 2;
 5988              		.loc 1 453 13 is_stmt 0 view .LVU1746
 5989 03e6 3846     		mov	r0, r7
 5990 03e8 FFF7FEFF 		bl	lv_obj_get_width
 5991              	.LVL653:
 5992 03ec 0546     		mov	r5, r0
 5993              	.LVL654:
 454:Middlewares/lvgl/src/core/lv_obj_pos.c ****         break;
 5994              		.loc 1 454 9 is_stmt 1 view .LVU1747
 454:Middlewares/lvgl/src/core/lv_obj_pos.c ****         break;
 5995              		.loc 1 454 13 is_stmt 0 view .LVU1748
 5996 03ee 3846     		mov	r0, r7
 5997 03f0 FFF7FEFF 		bl	lv_obj_get_height
 5998              	.LVL655:
 5999 03f4 0446     		mov	r4, r0
 6000              	.LVL656:
 454:Middlewares/lvgl/src/core/lv_obj_pos.c ****         break;
 6001              		.loc 1 454 43 view .LVU1749
 6002 03f6 5046     		mov	r0, r10
 6003 03f8 FFF7FEFF 		bl	lv_obj_get_height
 6004              	.LVL657:
 454:Middlewares/lvgl/src/core/lv_obj_pos.c ****         break;
 6005              		.loc 1 454 41 view .LVU1750
 6006 03fc 04EBD474 		add	r4, r4, r4, lsr #31
 6007 0400 00EBD070 		add	r0, r0, r0, lsr #31
 6008 0404 4310     		asrs	r3, r0, #1
 6009 0406 C3EB6404 		rsb	r4, r3, r4, asr #1
 454:Middlewares/lvgl/src/core/lv_obj_pos.c ****         break;
 6010              		.loc 1 454 11 view .LVU1751
 6011 040a 24B2     		sxth	r4, r4
 6012              	.LVL658:
ARM GAS  /tmp/ccgCqJqT.s 			page 155


 455:Middlewares/lvgl/src/core/lv_obj_pos.c **** 
 6013              		.loc 1 455 9 is_stmt 1 view .LVU1752
 6014 040c 6CE6     		b	.L273
 6015              	.LVL659:
 6016              	.L275:
 458:Middlewares/lvgl/src/core/lv_obj_pos.c ****         y = lv_obj_get_height(base) - lv_obj_get_height(obj);
 6017              		.loc 1 458 9 view .LVU1753
 458:Middlewares/lvgl/src/core/lv_obj_pos.c ****         y = lv_obj_get_height(base) - lv_obj_get_height(obj);
 6018              		.loc 1 458 13 is_stmt 0 view .LVU1754
 6019 040e 3846     		mov	r0, r7
 6020 0410 FFF7FEFF 		bl	lv_obj_get_width
 6021              	.LVL660:
 6022 0414 0546     		mov	r5, r0
 6023              	.LVL661:
 459:Middlewares/lvgl/src/core/lv_obj_pos.c ****         break;
 6024              		.loc 1 459 9 is_stmt 1 view .LVU1755
 459:Middlewares/lvgl/src/core/lv_obj_pos.c ****         break;
 6025              		.loc 1 459 13 is_stmt 0 view .LVU1756
 6026 0416 3846     		mov	r0, r7
 6027 0418 FFF7FEFF 		bl	lv_obj_get_height
 6028              	.LVL662:
 6029 041c 84B2     		uxth	r4, r0
 6030              	.LVL663:
 459:Middlewares/lvgl/src/core/lv_obj_pos.c ****         break;
 6031              		.loc 1 459 39 view .LVU1757
 6032 041e 5046     		mov	r0, r10
 6033 0420 FFF7FEFF 		bl	lv_obj_get_height
 6034              	.LVL664:
 6035 0424 80B2     		uxth	r0, r0
 459:Middlewares/lvgl/src/core/lv_obj_pos.c ****         break;
 6036              		.loc 1 459 37 view .LVU1758
 6037 0426 241A     		subs	r4, r4, r0
 459:Middlewares/lvgl/src/core/lv_obj_pos.c ****         break;
 6038              		.loc 1 459 11 view .LVU1759
 6039 0428 24B2     		sxth	r4, r4
 6040              	.LVL665:
 460:Middlewares/lvgl/src/core/lv_obj_pos.c ****     }
 6041              		.loc 1 460 9 is_stmt 1 view .LVU1760
 6042 042a 5DE6     		b	.L273
 6043              		.cfi_endproc
 6044              	.LFE169:
 6046              		.section	.bss.layout_cnt,"aw",%nobits
 6047              		.align	2
 6048              		.set	.LANCHOR0,. + 0
 6051              	layout_cnt:
 6052 0000 00000000 		.space	4
 6053              		.section	.bss.mutex.0,"aw",%nobits
 6054              		.set	.LANCHOR1,. + 0
 6057              	mutex.0:
 6058 0000 00       		.space	1
 6059              		.text
 6060              	.Letext0:
 6061              		.file 4 "/home/akinya/gcc-arm-none-eabi/arm-none-eabi/include/machine/_default_types.h"
 6062              		.file 5 "/home/akinya/gcc-arm-none-eabi/arm-none-eabi/include/sys/_stdint.h"
 6063              		.file 6 "Middlewares/lvgl/src/core/../misc/../font/lv_font.h"
 6064              		.file 7 "Middlewares/lvgl/src/core/../misc/lv_types.h"
 6065              		.file 8 "Middlewares/lvgl/src/core/../misc/lv_color.h"
ARM GAS  /tmp/ccgCqJqT.s 			page 156


 6066              		.file 9 "Middlewares/lvgl/src/core/../misc/lv_anim.h"
 6067              		.file 10 "Middlewares/lvgl/src/core/../misc/lv_bidi.h"
 6068              		.file 11 "Middlewares/lvgl/src/core/../misc/lv_style.h"
 6069              		.file 12 "Middlewares/lvgl/src/core/../hal/../misc/lv_ll.h"
 6070              		.file 13 "Middlewares/lvgl/src/core/../hal/../misc/lv_timer.h"
 6071              		.file 14 "Middlewares/lvgl/src/core/../hal/lv_hal_disp.h"
 6072              		.file 15 "Middlewares/lvgl/src/core/lv_theme.h"
 6073              		.file 16 "Middlewares/lvgl/src/core/lv_obj.h"
 6074              		.file 17 "Middlewares/lvgl/src/core/lv_group.h"
 6075              		.file 18 "Middlewares/lvgl/src/core/lv_obj_pos.h"
 6076              		.file 19 "Middlewares/lvgl/src/core/lv_obj_scroll.h"
 6077              		.file 20 "Middlewares/lvgl/src/core/lv_obj_style.h"
 6078              		.file 21 "Middlewares/lvgl/src/core/lv_obj_class.h"
 6079              		.file 22 "Middlewares/lvgl/src/core/lv_event.h"
 6080              		.file 23 "Middlewares/lvgl/src/core/../misc/lv_gc.h"
 6081              		.file 24 "Middlewares/lvgl/src/core/lv_obj_tree.h"
 6082              		.file 25 "Middlewares/lvgl/src/core/lv_obj_draw.h"
 6083              		.file 26 "Middlewares/lvgl/src/core/lv_disp.h"
 6084              		.file 27 "Middlewares/lvgl/src/core/lv_refr.h"
 6085              		.file 28 "Middlewares/lvgl/src/core/../hal/../misc/lv_mem.h"
ARM GAS  /tmp/ccgCqJqT.s 			page 157


DEFINED SYMBOLS
                            *ABS*:0000000000000000 lv_obj_pos.c
     /tmp/ccgCqJqT.s:16     .text.lv_obj_set_width:0000000000000000 $t
     /tmp/ccgCqJqT.s:24     .text.lv_obj_set_width:0000000000000000 lv_obj_set_width
     /tmp/ccgCqJqT.s:96     .text.lv_obj_set_height:0000000000000000 $t
     /tmp/ccgCqJqT.s:103    .text.lv_obj_set_height:0000000000000000 lv_obj_set_height
     /tmp/ccgCqJqT.s:174    .text.lv_obj_set_size:0000000000000000 $t
     /tmp/ccgCqJqT.s:181    .text.lv_obj_set_size:0000000000000000 lv_obj_set_size
     /tmp/ccgCqJqT.s:216    .text.lv_obj_set_content_width:0000000000000000 $t
     /tmp/ccgCqJqT.s:223    .text.lv_obj_set_content_width:0000000000000000 lv_obj_set_content_width
     /tmp/ccgCqJqT.s:324    .text.lv_obj_set_content_height:0000000000000000 $t
     /tmp/ccgCqJqT.s:331    .text.lv_obj_set_content_height:0000000000000000 lv_obj_set_content_height
     /tmp/ccgCqJqT.s:431    .text.lv_obj_is_layout_positioned:0000000000000000 $t
     /tmp/ccgCqJqT.s:438    .text.lv_obj_is_layout_positioned:0000000000000000 lv_obj_is_layout_positioned
     /tmp/ccgCqJqT.s:509    .text.lv_obj_is_layout_positioned:0000000000000034 $d
     /tmp/ccgCqJqT.s:514    .text.lv_obj_set_x:0000000000000000 $t
     /tmp/ccgCqJqT.s:521    .text.lv_obj_set_x:0000000000000000 lv_obj_set_x
     /tmp/ccgCqJqT.s:601    .text.lv_obj_set_y:0000000000000000 $t
     /tmp/ccgCqJqT.s:608    .text.lv_obj_set_y:0000000000000000 lv_obj_set_y
     /tmp/ccgCqJqT.s:688    .text.lv_obj_set_pos:0000000000000000 $t
     /tmp/ccgCqJqT.s:695    .text.lv_obj_set_pos:0000000000000000 lv_obj_set_pos
     /tmp/ccgCqJqT.s:730    .text.lv_obj_mark_layout_as_dirty:0000000000000000 $t
     /tmp/ccgCqJqT.s:737    .text.lv_obj_mark_layout_as_dirty:0000000000000000 lv_obj_mark_layout_as_dirty
     /tmp/ccgCqJqT.s:780    .text.lv_obj_set_layout:0000000000000000 $t
     /tmp/ccgCqJqT.s:787    .text.lv_obj_set_layout:0000000000000000 lv_obj_set_layout
     /tmp/ccgCqJqT.s:822    .text.lv_layout_register:0000000000000000 $t
     /tmp/ccgCqJqT.s:829    .text.lv_layout_register:0000000000000000 lv_layout_register
     /tmp/ccgCqJqT.s:899    .text.lv_layout_register:000000000000003c $d
     /tmp/ccgCqJqT.s:905    .text.lv_obj_set_align:0000000000000000 $t
     /tmp/ccgCqJqT.s:912    .text.lv_obj_set_align:0000000000000000 lv_obj_set_align
     /tmp/ccgCqJqT.s:935    .text.lv_obj_align:0000000000000000 $t
     /tmp/ccgCqJqT.s:942    .text.lv_obj_align:0000000000000000 lv_obj_align
     /tmp/ccgCqJqT.s:979    .text.lv_obj_get_coords:0000000000000000 $t
     /tmp/ccgCqJqT.s:986    .text.lv_obj_get_coords:0000000000000000 lv_obj_get_coords
     /tmp/ccgCqJqT.s:1033   .text.lv_obj_get_x:0000000000000000 $t
     /tmp/ccgCqJqT.s:1040   .text.lv_obj_get_x:0000000000000000 lv_obj_get_x
     /tmp/ccgCqJqT.s:1152   .text.lv_obj_get_y:0000000000000000 $t
     /tmp/ccgCqJqT.s:1159   .text.lv_obj_get_y:0000000000000000 lv_obj_get_y
     /tmp/ccgCqJqT.s:1271   .text.lv_obj_get_width:0000000000000000 $t
     /tmp/ccgCqJqT.s:1278   .text.lv_obj_get_width:0000000000000000 lv_obj_get_width
     /tmp/ccgCqJqT.s:1320   .text.lv_obj_get_x2:0000000000000000 $t
     /tmp/ccgCqJqT.s:1327   .text.lv_obj_get_x2:0000000000000000 lv_obj_get_x2
     /tmp/ccgCqJqT.s:1367   .text.lv_obj_get_height:0000000000000000 $t
     /tmp/ccgCqJqT.s:1374   .text.lv_obj_get_height:0000000000000000 lv_obj_get_height
     /tmp/ccgCqJqT.s:1416   .text.calc_auto_size:0000000000000000 $t
     /tmp/ccgCqJqT.s:1422   .text.calc_auto_size:0000000000000000 calc_auto_size
     /tmp/ccgCqJqT.s:1531   .text.lv_obj_get_y2:0000000000000000 $t
     /tmp/ccgCqJqT.s:1538   .text.lv_obj_get_y2:0000000000000000 lv_obj_get_y2
     /tmp/ccgCqJqT.s:1578   .text.lv_obj_get_content_width:0000000000000000 $t
     /tmp/ccgCqJqT.s:1585   .text.lv_obj_get_content_width:0000000000000000 lv_obj_get_content_width
     /tmp/ccgCqJqT.s:1686   .text.lv_obj_get_content_height:0000000000000000 $t
     /tmp/ccgCqJqT.s:1693   .text.lv_obj_get_content_height:0000000000000000 lv_obj_get_content_height
     /tmp/ccgCqJqT.s:1794   .text.lv_obj_get_content_coords:0000000000000000 $t
     /tmp/ccgCqJqT.s:1801   .text.lv_obj_get_content_coords:0000000000000000 lv_obj_get_content_coords
     /tmp/ccgCqJqT.s:1952   .text.lv_obj_get_self_width:0000000000000000 $t
     /tmp/ccgCqJqT.s:1959   .text.lv_obj_get_self_width:0000000000000000 lv_obj_get_self_width
     /tmp/ccgCqJqT.s:1997   .text.lv_obj_get_self_height:0000000000000000 $t
ARM GAS  /tmp/ccgCqJqT.s 			page 158


     /tmp/ccgCqJqT.s:2004   .text.lv_obj_get_self_height:0000000000000000 lv_obj_get_self_height
     /tmp/ccgCqJqT.s:2042   .text.lv_obj_refresh_self_size:0000000000000000 $t
     /tmp/ccgCqJqT.s:2049   .text.lv_obj_refresh_self_size:0000000000000000 lv_obj_refresh_self_size
     /tmp/ccgCqJqT.s:2132   .text.lv_obj_move_children_by:0000000000000000 $t
     /tmp/ccgCqJqT.s:2139   .text.lv_obj_move_children_by:0000000000000000 lv_obj_move_children_by
     /tmp/ccgCqJqT.s:2251   .text.lv_obj_area_is_visible:0000000000000000 $t
     /tmp/ccgCqJqT.s:2258   .text.lv_obj_area_is_visible:0000000000000000 lv_obj_area_is_visible
     /tmp/ccgCqJqT.s:2484   .text.lv_obj_invalidate_area:0000000000000000 $t
     /tmp/ccgCqJqT.s:2491   .text.lv_obj_invalidate_area:0000000000000000 lv_obj_invalidate_area
     /tmp/ccgCqJqT.s:2580   .text.lv_obj_invalidate:0000000000000000 $t
     /tmp/ccgCqJqT.s:2587   .text.lv_obj_invalidate:0000000000000000 lv_obj_invalidate
     /tmp/ccgCqJqT.s:2676   .text.lv_obj_move_to:0000000000000000 $t
     /tmp/ccgCqJqT.s:2683   .text.lv_obj_move_to:0000000000000000 lv_obj_move_to
     /tmp/ccgCqJqT.s:3020   .text.lv_obj_refr_pos:0000000000000000 $t
     /tmp/ccgCqJqT.s:3027   .text.lv_obj_refr_pos:0000000000000000 lv_obj_refr_pos
     /tmp/ccgCqJqT.s:3273   .text.lv_obj_refr_pos:00000000000000de $d
     /tmp/ccgCqJqT.s:3282   .text.lv_obj_refr_pos:00000000000000ee $t
     /tmp/ccgCqJqT.s:3634   .text.lv_obj_refr_pos:00000000000002c0 $d
     /tmp/ccgCqJqT.s:3639   .text.lv_obj_is_visible:0000000000000000 $t
     /tmp/ccgCqJqT.s:3646   .text.lv_obj_is_visible:0000000000000000 lv_obj_is_visible
     /tmp/ccgCqJqT.s:3736   .text.lv_obj_set_ext_click_area:0000000000000000 $t
     /tmp/ccgCqJqT.s:3743   .text.lv_obj_set_ext_click_area:0000000000000000 lv_obj_set_ext_click_area
     /tmp/ccgCqJqT.s:3778   .text.lv_obj_get_click_area:0000000000000000 $t
     /tmp/ccgCqJqT.s:3785   .text.lv_obj_get_click_area:0000000000000000 lv_obj_get_click_area
     /tmp/ccgCqJqT.s:3870   .text.lv_obj_hit_test:0000000000000000 $t
     /tmp/ccgCqJqT.s:3877   .text.lv_obj_hit_test:0000000000000000 lv_obj_hit_test
     /tmp/ccgCqJqT.s:3964   .text.lv_clamp_width:0000000000000000 $t
     /tmp/ccgCqJqT.s:3971   .text.lv_clamp_width:0000000000000000 lv_clamp_width
     /tmp/ccgCqJqT.s:4064   .text.lv_clamp_width:0000000000000078 $d
     /tmp/ccgCqJqT.s:4069   .text.lv_clamp_height:0000000000000000 $t
     /tmp/ccgCqJqT.s:4076   .text.lv_clamp_height:0000000000000000 lv_clamp_height
     /tmp/ccgCqJqT.s:4169   .text.lv_clamp_height:0000000000000078 $d
     /tmp/ccgCqJqT.s:4174   .text.lv_obj_refr_size:0000000000000000 $t
     /tmp/ccgCqJqT.s:4181   .text.lv_obj_refr_size:0000000000000000 lv_obj_refr_size
     /tmp/ccgCqJqT.s:4829   .text.lv_obj_refr_size:00000000000002f4 $d
     /tmp/ccgCqJqT.s:4834   .text.layout_update_core:0000000000000000 $t
     /tmp/ccgCqJqT.s:4840   .text.layout_update_core:0000000000000000 layout_update_core
     /tmp/ccgCqJqT.s:4983   .text.layout_update_core:0000000000000084 $d
     /tmp/ccgCqJqT.s:4991   .text.lv_obj_update_layout:0000000000000000 $t
     /tmp/ccgCqJqT.s:4998   .text.lv_obj_update_layout:0000000000000000 lv_obj_update_layout
     /tmp/ccgCqJqT.s:5065   .text.lv_obj_update_layout:000000000000003c $d
     /tmp/ccgCqJqT.s:5070   .text.lv_obj_align_to:0000000000000000 $t
     /tmp/ccgCqJqT.s:5077   .text.lv_obj_align_to:0000000000000000 lv_obj_align_to
     /tmp/ccgCqJqT.s:5278   .text.lv_obj_align_to:00000000000000a2 $d
     /tmp/ccgCqJqT.s:5300   .text.lv_obj_align_to:00000000000000cc $t
     /tmp/ccgCqJqT.s:6047   .bss.layout_cnt:0000000000000000 $d
     /tmp/ccgCqJqT.s:6051   .bss.layout_cnt:0000000000000000 layout_cnt
     /tmp/ccgCqJqT.s:6057   .bss.mutex.0:0000000000000000 mutex.0
     /tmp/ccgCqJqT.s:6058   .bss.mutex.0:0000000000000000 $d

UNDEFINED SYMBOLS
lv_obj_get_local_style_prop
lv_obj_set_style_width
lv_obj_set_style_height
lv_obj_get_style_prop
lv_obj_has_flag_any
lv_obj_get_parent
ARM GAS  /tmp/ccgCqJqT.s 			page 159


lv_obj_set_style_x
lv_obj_set_style_y
lv_obj_get_screen
lv_obj_get_disp
lv_timer_resume
lv_obj_set_style_layout
lv_mem_realloc
_lv_layout_list
lv_obj_set_style_align
lv_obj_get_scroll_x
lv_obj_get_scroll_y
lv_obj_get_scroll_right
lv_obj_get_scroll_left
lv_obj_get_scroll_bottom
lv_obj_get_scroll_top
lv_area_increase
lv_event_send
lv_obj_get_child_cnt
lv_obj_get_child
lv_obj_has_flag
lv_disp_get_scr_act
lv_disp_get_scr_prev
lv_disp_get_layer_top
lv_disp_get_layer_sys
_lv_obj_get_ext_draw_size
_lv_area_intersect
_lv_inv_area
_lv_area_is_in
lv_obj_scrollbar_invalidate
lv_obj_allocate_spec_attr
_lv_area_is_point_on
lv_obj_scroll_to
lv_obj_readjust_scroll
lv_obj_scroll_to_x
lv_obj_scroll_to_y
