ARM GAS  /tmp/ccDOElG9.s 			page 1


   1              		.cpu cortex-m3
   2              		.eabi_attribute 20, 1
   3              		.eabi_attribute 21, 1
   4              		.eabi_attribute 23, 3
   5              		.eabi_attribute 24, 1
   6              		.eabi_attribute 25, 1
   7              		.eabi_attribute 26, 1
   8              		.eabi_attribute 30, 1
   9              		.eabi_attribute 34, 1
  10              		.eabi_attribute 18, 4
  11              		.file	"lv_style_gen.c"
  12              		.text
  13              	.Ltext0:
  14              		.cfi_sections	.debug_frame
  15              		.section	.text.lv_style_set_width,"ax",%progbits
  16              		.align	1
  17              		.global	lv_style_set_width
  18              		.arch armv7-m
  19              		.syntax unified
  20              		.thumb
  21              		.thumb_func
  22              		.fpu softvfp
  24              	lv_style_set_width:
  25              	.LVL0:
  26              	.LFB47:
  27              		.file 1 "Middlewares/lvgl/src/misc/lv_style_gen.c"
   1:Middlewares/lvgl/src/misc/lv_style_gen.c **** #include "lv_style.h"
   2:Middlewares/lvgl/src/misc/lv_style_gen.c **** #include <stdbool.h>
   3:Middlewares/lvgl/src/misc/lv_style_gen.c **** void lv_style_set_width(lv_style_t * style, lv_coord_t value)
   4:Middlewares/lvgl/src/misc/lv_style_gen.c **** {
  28              		.loc 1 4 1 view -0
  29              		.cfi_startproc
  30              		@ args = 0, pretend = 0, frame = 0
  31              		@ frame_needed = 0, uses_anonymous_args = 0
  32              		.loc 1 4 1 is_stmt 0 view .LVU1
  33 0000 08B5     		push	{r3, lr}
  34              	.LCFI0:
  35              		.cfi_def_cfa_offset 8
  36              		.cfi_offset 3, -8
  37              		.cfi_offset 14, -4
  38 0002 0A46     		mov	r2, r1
   5:Middlewares/lvgl/src/misc/lv_style_gen.c ****     lv_style_value_t v = {
  39              		.loc 1 5 5 is_stmt 1 view .LVU2
   6:Middlewares/lvgl/src/misc/lv_style_gen.c ****         .num = (int32_t)value
   7:Middlewares/lvgl/src/misc/lv_style_gen.c ****     };
   8:Middlewares/lvgl/src/misc/lv_style_gen.c ****     lv_style_set_prop(style, LV_STYLE_WIDTH, v);
  40              		.loc 1 8 5 view .LVU3
  41 0004 41F20101 		movw	r1, #4097
  42              	.LVL1:
  43              		.loc 1 8 5 is_stmt 0 view .LVU4
  44 0008 FFF7FEFF 		bl	lv_style_set_prop
  45              	.LVL2:
   9:Middlewares/lvgl/src/misc/lv_style_gen.c **** }
  46              		.loc 1 9 1 view .LVU5
  47 000c 08BD     		pop	{r3, pc}
  48              		.cfi_endproc
  49              	.LFE47:
ARM GAS  /tmp/ccDOElG9.s 			page 2


  51              		.section	.text.lv_style_set_min_width,"ax",%progbits
  52              		.align	1
  53              		.global	lv_style_set_min_width
  54              		.syntax unified
  55              		.thumb
  56              		.thumb_func
  57              		.fpu softvfp
  59              	lv_style_set_min_width:
  60              	.LVL3:
  61              	.LFB48:
  10:Middlewares/lvgl/src/misc/lv_style_gen.c **** 
  11:Middlewares/lvgl/src/misc/lv_style_gen.c **** void lv_style_set_min_width(lv_style_t * style, lv_coord_t value)
  12:Middlewares/lvgl/src/misc/lv_style_gen.c **** {
  62              		.loc 1 12 1 is_stmt 1 view -0
  63              		.cfi_startproc
  64              		@ args = 0, pretend = 0, frame = 0
  65              		@ frame_needed = 0, uses_anonymous_args = 0
  66              		.loc 1 12 1 is_stmt 0 view .LVU7
  67 0000 08B5     		push	{r3, lr}
  68              	.LCFI1:
  69              		.cfi_def_cfa_offset 8
  70              		.cfi_offset 3, -8
  71              		.cfi_offset 14, -4
  72 0002 0A46     		mov	r2, r1
  13:Middlewares/lvgl/src/misc/lv_style_gen.c ****     lv_style_value_t v = {
  73              		.loc 1 13 5 is_stmt 1 view .LVU8
  14:Middlewares/lvgl/src/misc/lv_style_gen.c ****         .num = (int32_t)value
  15:Middlewares/lvgl/src/misc/lv_style_gen.c ****     };
  16:Middlewares/lvgl/src/misc/lv_style_gen.c ****     lv_style_set_prop(style, LV_STYLE_MIN_WIDTH, v);
  74              		.loc 1 16 5 view .LVU9
  75 0004 41F20201 		movw	r1, #4098
  76              	.LVL4:
  77              		.loc 1 16 5 is_stmt 0 view .LVU10
  78 0008 FFF7FEFF 		bl	lv_style_set_prop
  79              	.LVL5:
  17:Middlewares/lvgl/src/misc/lv_style_gen.c **** }
  80              		.loc 1 17 1 view .LVU11
  81 000c 08BD     		pop	{r3, pc}
  82              		.cfi_endproc
  83              	.LFE48:
  85              		.section	.text.lv_style_set_max_width,"ax",%progbits
  86              		.align	1
  87              		.global	lv_style_set_max_width
  88              		.syntax unified
  89              		.thumb
  90              		.thumb_func
  91              		.fpu softvfp
  93              	lv_style_set_max_width:
  94              	.LVL6:
  95              	.LFB49:
  18:Middlewares/lvgl/src/misc/lv_style_gen.c **** 
  19:Middlewares/lvgl/src/misc/lv_style_gen.c **** void lv_style_set_max_width(lv_style_t * style, lv_coord_t value)
  20:Middlewares/lvgl/src/misc/lv_style_gen.c **** {
  96              		.loc 1 20 1 is_stmt 1 view -0
  97              		.cfi_startproc
  98              		@ args = 0, pretend = 0, frame = 0
  99              		@ frame_needed = 0, uses_anonymous_args = 0
ARM GAS  /tmp/ccDOElG9.s 			page 3


 100              		.loc 1 20 1 is_stmt 0 view .LVU13
 101 0000 08B5     		push	{r3, lr}
 102              	.LCFI2:
 103              		.cfi_def_cfa_offset 8
 104              		.cfi_offset 3, -8
 105              		.cfi_offset 14, -4
 106 0002 0A46     		mov	r2, r1
  21:Middlewares/lvgl/src/misc/lv_style_gen.c ****     lv_style_value_t v = {
 107              		.loc 1 21 5 is_stmt 1 view .LVU14
  22:Middlewares/lvgl/src/misc/lv_style_gen.c ****         .num = (int32_t)value
  23:Middlewares/lvgl/src/misc/lv_style_gen.c ****     };
  24:Middlewares/lvgl/src/misc/lv_style_gen.c ****     lv_style_set_prop(style, LV_STYLE_MAX_WIDTH, v);
 108              		.loc 1 24 5 view .LVU15
 109 0004 41F20301 		movw	r1, #4099
 110              	.LVL7:
 111              		.loc 1 24 5 is_stmt 0 view .LVU16
 112 0008 FFF7FEFF 		bl	lv_style_set_prop
 113              	.LVL8:
  25:Middlewares/lvgl/src/misc/lv_style_gen.c **** }
 114              		.loc 1 25 1 view .LVU17
 115 000c 08BD     		pop	{r3, pc}
 116              		.cfi_endproc
 117              	.LFE49:
 119              		.section	.text.lv_style_set_height,"ax",%progbits
 120              		.align	1
 121              		.global	lv_style_set_height
 122              		.syntax unified
 123              		.thumb
 124              		.thumb_func
 125              		.fpu softvfp
 127              	lv_style_set_height:
 128              	.LVL9:
 129              	.LFB50:
  26:Middlewares/lvgl/src/misc/lv_style_gen.c **** 
  27:Middlewares/lvgl/src/misc/lv_style_gen.c **** void lv_style_set_height(lv_style_t * style, lv_coord_t value)
  28:Middlewares/lvgl/src/misc/lv_style_gen.c **** {
 130              		.loc 1 28 1 is_stmt 1 view -0
 131              		.cfi_startproc
 132              		@ args = 0, pretend = 0, frame = 0
 133              		@ frame_needed = 0, uses_anonymous_args = 0
 134              		.loc 1 28 1 is_stmt 0 view .LVU19
 135 0000 08B5     		push	{r3, lr}
 136              	.LCFI3:
 137              		.cfi_def_cfa_offset 8
 138              		.cfi_offset 3, -8
 139              		.cfi_offset 14, -4
 140 0002 0A46     		mov	r2, r1
  29:Middlewares/lvgl/src/misc/lv_style_gen.c ****     lv_style_value_t v = {
 141              		.loc 1 29 5 is_stmt 1 view .LVU20
  30:Middlewares/lvgl/src/misc/lv_style_gen.c ****         .num = (int32_t)value
  31:Middlewares/lvgl/src/misc/lv_style_gen.c ****     };
  32:Middlewares/lvgl/src/misc/lv_style_gen.c ****     lv_style_set_prop(style, LV_STYLE_HEIGHT, v);
 142              		.loc 1 32 5 view .LVU21
 143 0004 41F20401 		movw	r1, #4100
 144              	.LVL10:
 145              		.loc 1 32 5 is_stmt 0 view .LVU22
 146 0008 FFF7FEFF 		bl	lv_style_set_prop
ARM GAS  /tmp/ccDOElG9.s 			page 4


 147              	.LVL11:
  33:Middlewares/lvgl/src/misc/lv_style_gen.c **** }
 148              		.loc 1 33 1 view .LVU23
 149 000c 08BD     		pop	{r3, pc}
 150              		.cfi_endproc
 151              	.LFE50:
 153              		.section	.text.lv_style_set_min_height,"ax",%progbits
 154              		.align	1
 155              		.global	lv_style_set_min_height
 156              		.syntax unified
 157              		.thumb
 158              		.thumb_func
 159              		.fpu softvfp
 161              	lv_style_set_min_height:
 162              	.LVL12:
 163              	.LFB51:
  34:Middlewares/lvgl/src/misc/lv_style_gen.c **** 
  35:Middlewares/lvgl/src/misc/lv_style_gen.c **** void lv_style_set_min_height(lv_style_t * style, lv_coord_t value)
  36:Middlewares/lvgl/src/misc/lv_style_gen.c **** {
 164              		.loc 1 36 1 is_stmt 1 view -0
 165              		.cfi_startproc
 166              		@ args = 0, pretend = 0, frame = 0
 167              		@ frame_needed = 0, uses_anonymous_args = 0
 168              		.loc 1 36 1 is_stmt 0 view .LVU25
 169 0000 08B5     		push	{r3, lr}
 170              	.LCFI4:
 171              		.cfi_def_cfa_offset 8
 172              		.cfi_offset 3, -8
 173              		.cfi_offset 14, -4
 174 0002 0A46     		mov	r2, r1
  37:Middlewares/lvgl/src/misc/lv_style_gen.c ****     lv_style_value_t v = {
 175              		.loc 1 37 5 is_stmt 1 view .LVU26
  38:Middlewares/lvgl/src/misc/lv_style_gen.c ****         .num = (int32_t)value
  39:Middlewares/lvgl/src/misc/lv_style_gen.c ****     };
  40:Middlewares/lvgl/src/misc/lv_style_gen.c ****     lv_style_set_prop(style, LV_STYLE_MIN_HEIGHT, v);
 176              		.loc 1 40 5 view .LVU27
 177 0004 41F20501 		movw	r1, #4101
 178              	.LVL13:
 179              		.loc 1 40 5 is_stmt 0 view .LVU28
 180 0008 FFF7FEFF 		bl	lv_style_set_prop
 181              	.LVL14:
  41:Middlewares/lvgl/src/misc/lv_style_gen.c **** }
 182              		.loc 1 41 1 view .LVU29
 183 000c 08BD     		pop	{r3, pc}
 184              		.cfi_endproc
 185              	.LFE51:
 187              		.section	.text.lv_style_set_max_height,"ax",%progbits
 188              		.align	1
 189              		.global	lv_style_set_max_height
 190              		.syntax unified
 191              		.thumb
 192              		.thumb_func
 193              		.fpu softvfp
 195              	lv_style_set_max_height:
 196              	.LVL15:
 197              	.LFB52:
  42:Middlewares/lvgl/src/misc/lv_style_gen.c **** 
ARM GAS  /tmp/ccDOElG9.s 			page 5


  43:Middlewares/lvgl/src/misc/lv_style_gen.c **** void lv_style_set_max_height(lv_style_t * style, lv_coord_t value)
  44:Middlewares/lvgl/src/misc/lv_style_gen.c **** {
 198              		.loc 1 44 1 is_stmt 1 view -0
 199              		.cfi_startproc
 200              		@ args = 0, pretend = 0, frame = 0
 201              		@ frame_needed = 0, uses_anonymous_args = 0
 202              		.loc 1 44 1 is_stmt 0 view .LVU31
 203 0000 08B5     		push	{r3, lr}
 204              	.LCFI5:
 205              		.cfi_def_cfa_offset 8
 206              		.cfi_offset 3, -8
 207              		.cfi_offset 14, -4
 208 0002 0A46     		mov	r2, r1
  45:Middlewares/lvgl/src/misc/lv_style_gen.c ****     lv_style_value_t v = {
 209              		.loc 1 45 5 is_stmt 1 view .LVU32
  46:Middlewares/lvgl/src/misc/lv_style_gen.c ****         .num = (int32_t)value
  47:Middlewares/lvgl/src/misc/lv_style_gen.c ****     };
  48:Middlewares/lvgl/src/misc/lv_style_gen.c ****     lv_style_set_prop(style, LV_STYLE_MAX_HEIGHT, v);
 210              		.loc 1 48 5 view .LVU33
 211 0004 41F20601 		movw	r1, #4102
 212              	.LVL16:
 213              		.loc 1 48 5 is_stmt 0 view .LVU34
 214 0008 FFF7FEFF 		bl	lv_style_set_prop
 215              	.LVL17:
  49:Middlewares/lvgl/src/misc/lv_style_gen.c **** }
 216              		.loc 1 49 1 view .LVU35
 217 000c 08BD     		pop	{r3, pc}
 218              		.cfi_endproc
 219              	.LFE52:
 221              		.section	.text.lv_style_set_x,"ax",%progbits
 222              		.align	1
 223              		.global	lv_style_set_x
 224              		.syntax unified
 225              		.thumb
 226              		.thumb_func
 227              		.fpu softvfp
 229              	lv_style_set_x:
 230              	.LVL18:
 231              	.LFB53:
  50:Middlewares/lvgl/src/misc/lv_style_gen.c **** 
  51:Middlewares/lvgl/src/misc/lv_style_gen.c **** void lv_style_set_x(lv_style_t * style, lv_coord_t value)
  52:Middlewares/lvgl/src/misc/lv_style_gen.c **** {
 232              		.loc 1 52 1 is_stmt 1 view -0
 233              		.cfi_startproc
 234              		@ args = 0, pretend = 0, frame = 0
 235              		@ frame_needed = 0, uses_anonymous_args = 0
 236              		.loc 1 52 1 is_stmt 0 view .LVU37
 237 0000 08B5     		push	{r3, lr}
 238              	.LCFI6:
 239              		.cfi_def_cfa_offset 8
 240              		.cfi_offset 3, -8
 241              		.cfi_offset 14, -4
 242 0002 0A46     		mov	r2, r1
  53:Middlewares/lvgl/src/misc/lv_style_gen.c ****     lv_style_value_t v = {
 243              		.loc 1 53 5 is_stmt 1 view .LVU38
  54:Middlewares/lvgl/src/misc/lv_style_gen.c ****         .num = (int32_t)value
  55:Middlewares/lvgl/src/misc/lv_style_gen.c ****     };
ARM GAS  /tmp/ccDOElG9.s 			page 6


  56:Middlewares/lvgl/src/misc/lv_style_gen.c ****     lv_style_set_prop(style, LV_STYLE_X, v);
 244              		.loc 1 56 5 view .LVU39
 245 0004 41F20701 		movw	r1, #4103
 246              	.LVL19:
 247              		.loc 1 56 5 is_stmt 0 view .LVU40
 248 0008 FFF7FEFF 		bl	lv_style_set_prop
 249              	.LVL20:
  57:Middlewares/lvgl/src/misc/lv_style_gen.c **** }
 250              		.loc 1 57 1 view .LVU41
 251 000c 08BD     		pop	{r3, pc}
 252              		.cfi_endproc
 253              	.LFE53:
 255              		.section	.text.lv_style_set_y,"ax",%progbits
 256              		.align	1
 257              		.global	lv_style_set_y
 258              		.syntax unified
 259              		.thumb
 260              		.thumb_func
 261              		.fpu softvfp
 263              	lv_style_set_y:
 264              	.LVL21:
 265              	.LFB54:
  58:Middlewares/lvgl/src/misc/lv_style_gen.c **** 
  59:Middlewares/lvgl/src/misc/lv_style_gen.c **** void lv_style_set_y(lv_style_t * style, lv_coord_t value)
  60:Middlewares/lvgl/src/misc/lv_style_gen.c **** {
 266              		.loc 1 60 1 is_stmt 1 view -0
 267              		.cfi_startproc
 268              		@ args = 0, pretend = 0, frame = 0
 269              		@ frame_needed = 0, uses_anonymous_args = 0
 270              		.loc 1 60 1 is_stmt 0 view .LVU43
 271 0000 08B5     		push	{r3, lr}
 272              	.LCFI7:
 273              		.cfi_def_cfa_offset 8
 274              		.cfi_offset 3, -8
 275              		.cfi_offset 14, -4
 276 0002 0A46     		mov	r2, r1
  61:Middlewares/lvgl/src/misc/lv_style_gen.c ****     lv_style_value_t v = {
 277              		.loc 1 61 5 is_stmt 1 view .LVU44
  62:Middlewares/lvgl/src/misc/lv_style_gen.c ****         .num = (int32_t)value
  63:Middlewares/lvgl/src/misc/lv_style_gen.c ****     };
  64:Middlewares/lvgl/src/misc/lv_style_gen.c ****     lv_style_set_prop(style, LV_STYLE_Y, v);
 278              		.loc 1 64 5 view .LVU45
 279 0004 41F20801 		movw	r1, #4104
 280              	.LVL22:
 281              		.loc 1 64 5 is_stmt 0 view .LVU46
 282 0008 FFF7FEFF 		bl	lv_style_set_prop
 283              	.LVL23:
  65:Middlewares/lvgl/src/misc/lv_style_gen.c **** }
 284              		.loc 1 65 1 view .LVU47
 285 000c 08BD     		pop	{r3, pc}
 286              		.cfi_endproc
 287              	.LFE54:
 289              		.section	.text.lv_style_set_align,"ax",%progbits
 290              		.align	1
 291              		.global	lv_style_set_align
 292              		.syntax unified
 293              		.thumb
ARM GAS  /tmp/ccDOElG9.s 			page 7


 294              		.thumb_func
 295              		.fpu softvfp
 297              	lv_style_set_align:
 298              	.LVL24:
 299              	.LFB55:
  66:Middlewares/lvgl/src/misc/lv_style_gen.c **** 
  67:Middlewares/lvgl/src/misc/lv_style_gen.c **** void lv_style_set_align(lv_style_t * style, lv_align_t value)
  68:Middlewares/lvgl/src/misc/lv_style_gen.c **** {
 300              		.loc 1 68 1 is_stmt 1 view -0
 301              		.cfi_startproc
 302              		@ args = 0, pretend = 0, frame = 0
 303              		@ frame_needed = 0, uses_anonymous_args = 0
 304              		.loc 1 68 1 is_stmt 0 view .LVU49
 305 0000 08B5     		push	{r3, lr}
 306              	.LCFI8:
 307              		.cfi_def_cfa_offset 8
 308              		.cfi_offset 3, -8
 309              		.cfi_offset 14, -4
 310 0002 0A46     		mov	r2, r1
  69:Middlewares/lvgl/src/misc/lv_style_gen.c ****     lv_style_value_t v = {
 311              		.loc 1 69 5 is_stmt 1 view .LVU50
  70:Middlewares/lvgl/src/misc/lv_style_gen.c ****         .num = (int32_t)value
  71:Middlewares/lvgl/src/misc/lv_style_gen.c ****     };
  72:Middlewares/lvgl/src/misc/lv_style_gen.c ****     lv_style_set_prop(style, LV_STYLE_ALIGN, v);
 312              		.loc 1 72 5 view .LVU51
 313 0004 41F20901 		movw	r1, #4105
 314              	.LVL25:
 315              		.loc 1 72 5 is_stmt 0 view .LVU52
 316 0008 FFF7FEFF 		bl	lv_style_set_prop
 317              	.LVL26:
  73:Middlewares/lvgl/src/misc/lv_style_gen.c **** }
 318              		.loc 1 73 1 view .LVU53
 319 000c 08BD     		pop	{r3, pc}
 320              		.cfi_endproc
 321              	.LFE55:
 323              		.section	.text.lv_style_set_transform_width,"ax",%progbits
 324              		.align	1
 325              		.global	lv_style_set_transform_width
 326              		.syntax unified
 327              		.thumb
 328              		.thumb_func
 329              		.fpu softvfp
 331              	lv_style_set_transform_width:
 332              	.LVL27:
 333              	.LFB56:
  74:Middlewares/lvgl/src/misc/lv_style_gen.c **** 
  75:Middlewares/lvgl/src/misc/lv_style_gen.c **** void lv_style_set_transform_width(lv_style_t * style, lv_coord_t value)
  76:Middlewares/lvgl/src/misc/lv_style_gen.c **** {
 334              		.loc 1 76 1 is_stmt 1 view -0
 335              		.cfi_startproc
 336              		@ args = 0, pretend = 0, frame = 0
 337              		@ frame_needed = 0, uses_anonymous_args = 0
 338              		.loc 1 76 1 is_stmt 0 view .LVU55
 339 0000 08B5     		push	{r3, lr}
 340              	.LCFI9:
 341              		.cfi_def_cfa_offset 8
 342              		.cfi_offset 3, -8
ARM GAS  /tmp/ccDOElG9.s 			page 8


 343              		.cfi_offset 14, -4
 344 0002 0A46     		mov	r2, r1
  77:Middlewares/lvgl/src/misc/lv_style_gen.c ****     lv_style_value_t v = {
 345              		.loc 1 77 5 is_stmt 1 view .LVU56
  78:Middlewares/lvgl/src/misc/lv_style_gen.c ****         .num = (int32_t)value
  79:Middlewares/lvgl/src/misc/lv_style_gen.c ****     };
  80:Middlewares/lvgl/src/misc/lv_style_gen.c ****     lv_style_set_prop(style, LV_STYLE_TRANSFORM_WIDTH, v);
 346              		.loc 1 80 5 view .LVU57
 347 0004 40F60A01 		movw	r1, #2058
 348              	.LVL28:
 349              		.loc 1 80 5 is_stmt 0 view .LVU58
 350 0008 FFF7FEFF 		bl	lv_style_set_prop
 351              	.LVL29:
  81:Middlewares/lvgl/src/misc/lv_style_gen.c **** }
 352              		.loc 1 81 1 view .LVU59
 353 000c 08BD     		pop	{r3, pc}
 354              		.cfi_endproc
 355              	.LFE56:
 357              		.section	.text.lv_style_set_transform_height,"ax",%progbits
 358              		.align	1
 359              		.global	lv_style_set_transform_height
 360              		.syntax unified
 361              		.thumb
 362              		.thumb_func
 363              		.fpu softvfp
 365              	lv_style_set_transform_height:
 366              	.LVL30:
 367              	.LFB57:
  82:Middlewares/lvgl/src/misc/lv_style_gen.c **** 
  83:Middlewares/lvgl/src/misc/lv_style_gen.c **** void lv_style_set_transform_height(lv_style_t * style, lv_coord_t value)
  84:Middlewares/lvgl/src/misc/lv_style_gen.c **** {
 368              		.loc 1 84 1 is_stmt 1 view -0
 369              		.cfi_startproc
 370              		@ args = 0, pretend = 0, frame = 0
 371              		@ frame_needed = 0, uses_anonymous_args = 0
 372              		.loc 1 84 1 is_stmt 0 view .LVU61
 373 0000 08B5     		push	{r3, lr}
 374              	.LCFI10:
 375              		.cfi_def_cfa_offset 8
 376              		.cfi_offset 3, -8
 377              		.cfi_offset 14, -4
 378 0002 0A46     		mov	r2, r1
  85:Middlewares/lvgl/src/misc/lv_style_gen.c ****     lv_style_value_t v = {
 379              		.loc 1 85 5 is_stmt 1 view .LVU62
  86:Middlewares/lvgl/src/misc/lv_style_gen.c ****         .num = (int32_t)value
  87:Middlewares/lvgl/src/misc/lv_style_gen.c ****     };
  88:Middlewares/lvgl/src/misc/lv_style_gen.c ****     lv_style_set_prop(style, LV_STYLE_TRANSFORM_HEIGHT, v);
 380              		.loc 1 88 5 view .LVU63
 381 0004 40F60B01 		movw	r1, #2059
 382              	.LVL31:
 383              		.loc 1 88 5 is_stmt 0 view .LVU64
 384 0008 FFF7FEFF 		bl	lv_style_set_prop
 385              	.LVL32:
  89:Middlewares/lvgl/src/misc/lv_style_gen.c **** }
 386              		.loc 1 89 1 view .LVU65
 387 000c 08BD     		pop	{r3, pc}
 388              		.cfi_endproc
ARM GAS  /tmp/ccDOElG9.s 			page 9


 389              	.LFE57:
 391              		.section	.text.lv_style_set_translate_x,"ax",%progbits
 392              		.align	1
 393              		.global	lv_style_set_translate_x
 394              		.syntax unified
 395              		.thumb
 396              		.thumb_func
 397              		.fpu softvfp
 399              	lv_style_set_translate_x:
 400              	.LVL33:
 401              	.LFB58:
  90:Middlewares/lvgl/src/misc/lv_style_gen.c **** 
  91:Middlewares/lvgl/src/misc/lv_style_gen.c **** void lv_style_set_translate_x(lv_style_t * style, lv_coord_t value)
  92:Middlewares/lvgl/src/misc/lv_style_gen.c **** {
 402              		.loc 1 92 1 is_stmt 1 view -0
 403              		.cfi_startproc
 404              		@ args = 0, pretend = 0, frame = 0
 405              		@ frame_needed = 0, uses_anonymous_args = 0
 406              		.loc 1 92 1 is_stmt 0 view .LVU67
 407 0000 08B5     		push	{r3, lr}
 408              	.LCFI11:
 409              		.cfi_def_cfa_offset 8
 410              		.cfi_offset 3, -8
 411              		.cfi_offset 14, -4
 412 0002 0A46     		mov	r2, r1
  93:Middlewares/lvgl/src/misc/lv_style_gen.c ****     lv_style_value_t v = {
 413              		.loc 1 93 5 is_stmt 1 view .LVU68
  94:Middlewares/lvgl/src/misc/lv_style_gen.c ****         .num = (int32_t)value
  95:Middlewares/lvgl/src/misc/lv_style_gen.c ****     };
  96:Middlewares/lvgl/src/misc/lv_style_gen.c ****     lv_style_set_prop(style, LV_STYLE_TRANSLATE_X, v);
 414              		.loc 1 96 5 view .LVU69
 415 0004 43F20C01 		movw	r1, #12300
 416              	.LVL34:
 417              		.loc 1 96 5 is_stmt 0 view .LVU70
 418 0008 FFF7FEFF 		bl	lv_style_set_prop
 419              	.LVL35:
  97:Middlewares/lvgl/src/misc/lv_style_gen.c **** }
 420              		.loc 1 97 1 view .LVU71
 421 000c 08BD     		pop	{r3, pc}
 422              		.cfi_endproc
 423              	.LFE58:
 425              		.section	.text.lv_style_set_translate_y,"ax",%progbits
 426              		.align	1
 427              		.global	lv_style_set_translate_y
 428              		.syntax unified
 429              		.thumb
 430              		.thumb_func
 431              		.fpu softvfp
 433              	lv_style_set_translate_y:
 434              	.LVL36:
 435              	.LFB59:
  98:Middlewares/lvgl/src/misc/lv_style_gen.c **** 
  99:Middlewares/lvgl/src/misc/lv_style_gen.c **** void lv_style_set_translate_y(lv_style_t * style, lv_coord_t value)
 100:Middlewares/lvgl/src/misc/lv_style_gen.c **** {
 436              		.loc 1 100 1 is_stmt 1 view -0
 437              		.cfi_startproc
 438              		@ args = 0, pretend = 0, frame = 0
ARM GAS  /tmp/ccDOElG9.s 			page 10


 439              		@ frame_needed = 0, uses_anonymous_args = 0
 440              		.loc 1 100 1 is_stmt 0 view .LVU73
 441 0000 08B5     		push	{r3, lr}
 442              	.LCFI12:
 443              		.cfi_def_cfa_offset 8
 444              		.cfi_offset 3, -8
 445              		.cfi_offset 14, -4
 446 0002 0A46     		mov	r2, r1
 101:Middlewares/lvgl/src/misc/lv_style_gen.c ****     lv_style_value_t v = {
 447              		.loc 1 101 5 is_stmt 1 view .LVU74
 102:Middlewares/lvgl/src/misc/lv_style_gen.c ****         .num = (int32_t)value
 103:Middlewares/lvgl/src/misc/lv_style_gen.c ****     };
 104:Middlewares/lvgl/src/misc/lv_style_gen.c ****     lv_style_set_prop(style, LV_STYLE_TRANSLATE_Y, v);
 448              		.loc 1 104 5 view .LVU75
 449 0004 43F20D01 		movw	r1, #12301
 450              	.LVL37:
 451              		.loc 1 104 5 is_stmt 0 view .LVU76
 452 0008 FFF7FEFF 		bl	lv_style_set_prop
 453              	.LVL38:
 105:Middlewares/lvgl/src/misc/lv_style_gen.c **** }
 454              		.loc 1 105 1 view .LVU77
 455 000c 08BD     		pop	{r3, pc}
 456              		.cfi_endproc
 457              	.LFE59:
 459              		.section	.text.lv_style_set_transform_zoom,"ax",%progbits
 460              		.align	1
 461              		.global	lv_style_set_transform_zoom
 462              		.syntax unified
 463              		.thumb
 464              		.thumb_func
 465              		.fpu softvfp
 467              	lv_style_set_transform_zoom:
 468              	.LVL39:
 469              	.LFB60:
 106:Middlewares/lvgl/src/misc/lv_style_gen.c **** 
 107:Middlewares/lvgl/src/misc/lv_style_gen.c **** void lv_style_set_transform_zoom(lv_style_t * style, lv_coord_t value)
 108:Middlewares/lvgl/src/misc/lv_style_gen.c **** {
 470              		.loc 1 108 1 is_stmt 1 view -0
 471              		.cfi_startproc
 472              		@ args = 0, pretend = 0, frame = 0
 473              		@ frame_needed = 0, uses_anonymous_args = 0
 474              		.loc 1 108 1 is_stmt 0 view .LVU79
 475 0000 08B5     		push	{r3, lr}
 476              	.LCFI13:
 477              		.cfi_def_cfa_offset 8
 478              		.cfi_offset 3, -8
 479              		.cfi_offset 14, -4
 480 0002 0A46     		mov	r2, r1
 109:Middlewares/lvgl/src/misc/lv_style_gen.c ****     lv_style_value_t v = {
 481              		.loc 1 109 5 is_stmt 1 view .LVU80
 110:Middlewares/lvgl/src/misc/lv_style_gen.c ****         .num = (int32_t)value
 111:Middlewares/lvgl/src/misc/lv_style_gen.c ****     };
 112:Middlewares/lvgl/src/misc/lv_style_gen.c ****     lv_style_set_prop(style, LV_STYLE_TRANSFORM_ZOOM, v);
 482              		.loc 1 112 5 view .LVU81
 483 0004 40F60E01 		movw	r1, #2062
 484              	.LVL40:
 485              		.loc 1 112 5 is_stmt 0 view .LVU82
ARM GAS  /tmp/ccDOElG9.s 			page 11


 486 0008 FFF7FEFF 		bl	lv_style_set_prop
 487              	.LVL41:
 113:Middlewares/lvgl/src/misc/lv_style_gen.c **** }
 488              		.loc 1 113 1 view .LVU83
 489 000c 08BD     		pop	{r3, pc}
 490              		.cfi_endproc
 491              	.LFE60:
 493              		.section	.text.lv_style_set_transform_angle,"ax",%progbits
 494              		.align	1
 495              		.global	lv_style_set_transform_angle
 496              		.syntax unified
 497              		.thumb
 498              		.thumb_func
 499              		.fpu softvfp
 501              	lv_style_set_transform_angle:
 502              	.LVL42:
 503              	.LFB61:
 114:Middlewares/lvgl/src/misc/lv_style_gen.c **** 
 115:Middlewares/lvgl/src/misc/lv_style_gen.c **** void lv_style_set_transform_angle(lv_style_t * style, lv_coord_t value)
 116:Middlewares/lvgl/src/misc/lv_style_gen.c **** {
 504              		.loc 1 116 1 is_stmt 1 view -0
 505              		.cfi_startproc
 506              		@ args = 0, pretend = 0, frame = 0
 507              		@ frame_needed = 0, uses_anonymous_args = 0
 508              		.loc 1 116 1 is_stmt 0 view .LVU85
 509 0000 08B5     		push	{r3, lr}
 510              	.LCFI14:
 511              		.cfi_def_cfa_offset 8
 512              		.cfi_offset 3, -8
 513              		.cfi_offset 14, -4
 514 0002 0A46     		mov	r2, r1
 117:Middlewares/lvgl/src/misc/lv_style_gen.c ****     lv_style_value_t v = {
 515              		.loc 1 117 5 is_stmt 1 view .LVU86
 118:Middlewares/lvgl/src/misc/lv_style_gen.c ****         .num = (int32_t)value
 119:Middlewares/lvgl/src/misc/lv_style_gen.c ****     };
 120:Middlewares/lvgl/src/misc/lv_style_gen.c ****     lv_style_set_prop(style, LV_STYLE_TRANSFORM_ANGLE, v);
 516              		.loc 1 120 5 view .LVU87
 517 0004 40F60F01 		movw	r1, #2063
 518              	.LVL43:
 519              		.loc 1 120 5 is_stmt 0 view .LVU88
 520 0008 FFF7FEFF 		bl	lv_style_set_prop
 521              	.LVL44:
 121:Middlewares/lvgl/src/misc/lv_style_gen.c **** }
 522              		.loc 1 121 1 view .LVU89
 523 000c 08BD     		pop	{r3, pc}
 524              		.cfi_endproc
 525              	.LFE61:
 527              		.section	.text.lv_style_set_pad_top,"ax",%progbits
 528              		.align	1
 529              		.global	lv_style_set_pad_top
 530              		.syntax unified
 531              		.thumb
 532              		.thumb_func
 533              		.fpu softvfp
 535              	lv_style_set_pad_top:
 536              	.LVL45:
 537              	.LFB62:
ARM GAS  /tmp/ccDOElG9.s 			page 12


 122:Middlewares/lvgl/src/misc/lv_style_gen.c **** 
 123:Middlewares/lvgl/src/misc/lv_style_gen.c **** void lv_style_set_pad_top(lv_style_t * style, lv_coord_t value)
 124:Middlewares/lvgl/src/misc/lv_style_gen.c **** {
 538              		.loc 1 124 1 is_stmt 1 view -0
 539              		.cfi_startproc
 540              		@ args = 0, pretend = 0, frame = 0
 541              		@ frame_needed = 0, uses_anonymous_args = 0
 542              		.loc 1 124 1 is_stmt 0 view .LVU91
 543 0000 08B5     		push	{r3, lr}
 544              	.LCFI15:
 545              		.cfi_def_cfa_offset 8
 546              		.cfi_offset 3, -8
 547              		.cfi_offset 14, -4
 548 0002 0A46     		mov	r2, r1
 125:Middlewares/lvgl/src/misc/lv_style_gen.c ****     lv_style_value_t v = {
 549              		.loc 1 125 5 is_stmt 1 view .LVU92
 126:Middlewares/lvgl/src/misc/lv_style_gen.c ****         .num = (int32_t)value
 127:Middlewares/lvgl/src/misc/lv_style_gen.c ****     };
 128:Middlewares/lvgl/src/misc/lv_style_gen.c ****     lv_style_set_prop(style, LV_STYLE_PAD_TOP, v);
 550              		.loc 1 128 5 view .LVU93
 551 0004 41F21001 		movw	r1, #4112
 552              	.LVL46:
 553              		.loc 1 128 5 is_stmt 0 view .LVU94
 554 0008 FFF7FEFF 		bl	lv_style_set_prop
 555              	.LVL47:
 129:Middlewares/lvgl/src/misc/lv_style_gen.c **** }
 556              		.loc 1 129 1 view .LVU95
 557 000c 08BD     		pop	{r3, pc}
 558              		.cfi_endproc
 559              	.LFE62:
 561              		.section	.text.lv_style_set_pad_bottom,"ax",%progbits
 562              		.align	1
 563              		.global	lv_style_set_pad_bottom
 564              		.syntax unified
 565              		.thumb
 566              		.thumb_func
 567              		.fpu softvfp
 569              	lv_style_set_pad_bottom:
 570              	.LVL48:
 571              	.LFB63:
 130:Middlewares/lvgl/src/misc/lv_style_gen.c **** 
 131:Middlewares/lvgl/src/misc/lv_style_gen.c **** void lv_style_set_pad_bottom(lv_style_t * style, lv_coord_t value)
 132:Middlewares/lvgl/src/misc/lv_style_gen.c **** {
 572              		.loc 1 132 1 is_stmt 1 view -0
 573              		.cfi_startproc
 574              		@ args = 0, pretend = 0, frame = 0
 575              		@ frame_needed = 0, uses_anonymous_args = 0
 576              		.loc 1 132 1 is_stmt 0 view .LVU97
 577 0000 08B5     		push	{r3, lr}
 578              	.LCFI16:
 579              		.cfi_def_cfa_offset 8
 580              		.cfi_offset 3, -8
 581              		.cfi_offset 14, -4
 582 0002 0A46     		mov	r2, r1
 133:Middlewares/lvgl/src/misc/lv_style_gen.c ****     lv_style_value_t v = {
 583              		.loc 1 133 5 is_stmt 1 view .LVU98
 134:Middlewares/lvgl/src/misc/lv_style_gen.c ****         .num = (int32_t)value
ARM GAS  /tmp/ccDOElG9.s 			page 13


 135:Middlewares/lvgl/src/misc/lv_style_gen.c ****     };
 136:Middlewares/lvgl/src/misc/lv_style_gen.c ****     lv_style_set_prop(style, LV_STYLE_PAD_BOTTOM, v);
 584              		.loc 1 136 5 view .LVU99
 585 0004 41F21101 		movw	r1, #4113
 586              	.LVL49:
 587              		.loc 1 136 5 is_stmt 0 view .LVU100
 588 0008 FFF7FEFF 		bl	lv_style_set_prop
 589              	.LVL50:
 137:Middlewares/lvgl/src/misc/lv_style_gen.c **** }
 590              		.loc 1 137 1 view .LVU101
 591 000c 08BD     		pop	{r3, pc}
 592              		.cfi_endproc
 593              	.LFE63:
 595              		.section	.text.lv_style_set_pad_left,"ax",%progbits
 596              		.align	1
 597              		.global	lv_style_set_pad_left
 598              		.syntax unified
 599              		.thumb
 600              		.thumb_func
 601              		.fpu softvfp
 603              	lv_style_set_pad_left:
 604              	.LVL51:
 605              	.LFB64:
 138:Middlewares/lvgl/src/misc/lv_style_gen.c **** 
 139:Middlewares/lvgl/src/misc/lv_style_gen.c **** void lv_style_set_pad_left(lv_style_t * style, lv_coord_t value)
 140:Middlewares/lvgl/src/misc/lv_style_gen.c **** {
 606              		.loc 1 140 1 is_stmt 1 view -0
 607              		.cfi_startproc
 608              		@ args = 0, pretend = 0, frame = 0
 609              		@ frame_needed = 0, uses_anonymous_args = 0
 610              		.loc 1 140 1 is_stmt 0 view .LVU103
 611 0000 08B5     		push	{r3, lr}
 612              	.LCFI17:
 613              		.cfi_def_cfa_offset 8
 614              		.cfi_offset 3, -8
 615              		.cfi_offset 14, -4
 616 0002 0A46     		mov	r2, r1
 141:Middlewares/lvgl/src/misc/lv_style_gen.c ****     lv_style_value_t v = {
 617              		.loc 1 141 5 is_stmt 1 view .LVU104
 142:Middlewares/lvgl/src/misc/lv_style_gen.c ****         .num = (int32_t)value
 143:Middlewares/lvgl/src/misc/lv_style_gen.c ****     };
 144:Middlewares/lvgl/src/misc/lv_style_gen.c ****     lv_style_set_prop(style, LV_STYLE_PAD_LEFT, v);
 618              		.loc 1 144 5 view .LVU105
 619 0004 41F21201 		movw	r1, #4114
 620              	.LVL52:
 621              		.loc 1 144 5 is_stmt 0 view .LVU106
 622 0008 FFF7FEFF 		bl	lv_style_set_prop
 623              	.LVL53:
 145:Middlewares/lvgl/src/misc/lv_style_gen.c **** }
 624              		.loc 1 145 1 view .LVU107
 625 000c 08BD     		pop	{r3, pc}
 626              		.cfi_endproc
 627              	.LFE64:
 629              		.section	.text.lv_style_set_pad_right,"ax",%progbits
 630              		.align	1
 631              		.global	lv_style_set_pad_right
 632              		.syntax unified
ARM GAS  /tmp/ccDOElG9.s 			page 14


 633              		.thumb
 634              		.thumb_func
 635              		.fpu softvfp
 637              	lv_style_set_pad_right:
 638              	.LVL54:
 639              	.LFB65:
 146:Middlewares/lvgl/src/misc/lv_style_gen.c **** 
 147:Middlewares/lvgl/src/misc/lv_style_gen.c **** void lv_style_set_pad_right(lv_style_t * style, lv_coord_t value)
 148:Middlewares/lvgl/src/misc/lv_style_gen.c **** {
 640              		.loc 1 148 1 is_stmt 1 view -0
 641              		.cfi_startproc
 642              		@ args = 0, pretend = 0, frame = 0
 643              		@ frame_needed = 0, uses_anonymous_args = 0
 644              		.loc 1 148 1 is_stmt 0 view .LVU109
 645 0000 08B5     		push	{r3, lr}
 646              	.LCFI18:
 647              		.cfi_def_cfa_offset 8
 648              		.cfi_offset 3, -8
 649              		.cfi_offset 14, -4
 650 0002 0A46     		mov	r2, r1
 149:Middlewares/lvgl/src/misc/lv_style_gen.c ****     lv_style_value_t v = {
 651              		.loc 1 149 5 is_stmt 1 view .LVU110
 150:Middlewares/lvgl/src/misc/lv_style_gen.c ****         .num = (int32_t)value
 151:Middlewares/lvgl/src/misc/lv_style_gen.c ****     };
 152:Middlewares/lvgl/src/misc/lv_style_gen.c ****     lv_style_set_prop(style, LV_STYLE_PAD_RIGHT, v);
 652              		.loc 1 152 5 view .LVU111
 653 0004 41F21301 		movw	r1, #4115
 654              	.LVL55:
 655              		.loc 1 152 5 is_stmt 0 view .LVU112
 656 0008 FFF7FEFF 		bl	lv_style_set_prop
 657              	.LVL56:
 153:Middlewares/lvgl/src/misc/lv_style_gen.c **** }
 658              		.loc 1 153 1 view .LVU113
 659 000c 08BD     		pop	{r3, pc}
 660              		.cfi_endproc
 661              	.LFE65:
 663              		.section	.text.lv_style_set_pad_row,"ax",%progbits
 664              		.align	1
 665              		.global	lv_style_set_pad_row
 666              		.syntax unified
 667              		.thumb
 668              		.thumb_func
 669              		.fpu softvfp
 671              	lv_style_set_pad_row:
 672              	.LVL57:
 673              	.LFB66:
 154:Middlewares/lvgl/src/misc/lv_style_gen.c **** 
 155:Middlewares/lvgl/src/misc/lv_style_gen.c **** void lv_style_set_pad_row(lv_style_t * style, lv_coord_t value)
 156:Middlewares/lvgl/src/misc/lv_style_gen.c **** {
 674              		.loc 1 156 1 is_stmt 1 view -0
 675              		.cfi_startproc
 676              		@ args = 0, pretend = 0, frame = 0
 677              		@ frame_needed = 0, uses_anonymous_args = 0
 678              		.loc 1 156 1 is_stmt 0 view .LVU115
 679 0000 08B5     		push	{r3, lr}
 680              	.LCFI19:
 681              		.cfi_def_cfa_offset 8
ARM GAS  /tmp/ccDOElG9.s 			page 15


 682              		.cfi_offset 3, -8
 683              		.cfi_offset 14, -4
 684 0002 0A46     		mov	r2, r1
 157:Middlewares/lvgl/src/misc/lv_style_gen.c ****     lv_style_value_t v = {
 685              		.loc 1 157 5 is_stmt 1 view .LVU116
 158:Middlewares/lvgl/src/misc/lv_style_gen.c ****         .num = (int32_t)value
 159:Middlewares/lvgl/src/misc/lv_style_gen.c ****     };
 160:Middlewares/lvgl/src/misc/lv_style_gen.c ****     lv_style_set_prop(style, LV_STYLE_PAD_ROW, v);
 686              		.loc 1 160 5 view .LVU117
 687 0004 41F21401 		movw	r1, #4116
 688              	.LVL58:
 689              		.loc 1 160 5 is_stmt 0 view .LVU118
 690 0008 FFF7FEFF 		bl	lv_style_set_prop
 691              	.LVL59:
 161:Middlewares/lvgl/src/misc/lv_style_gen.c **** }
 692              		.loc 1 161 1 view .LVU119
 693 000c 08BD     		pop	{r3, pc}
 694              		.cfi_endproc
 695              	.LFE66:
 697              		.section	.text.lv_style_set_pad_column,"ax",%progbits
 698              		.align	1
 699              		.global	lv_style_set_pad_column
 700              		.syntax unified
 701              		.thumb
 702              		.thumb_func
 703              		.fpu softvfp
 705              	lv_style_set_pad_column:
 706              	.LVL60:
 707              	.LFB67:
 162:Middlewares/lvgl/src/misc/lv_style_gen.c **** 
 163:Middlewares/lvgl/src/misc/lv_style_gen.c **** void lv_style_set_pad_column(lv_style_t * style, lv_coord_t value)
 164:Middlewares/lvgl/src/misc/lv_style_gen.c **** {
 708              		.loc 1 164 1 is_stmt 1 view -0
 709              		.cfi_startproc
 710              		@ args = 0, pretend = 0, frame = 0
 711              		@ frame_needed = 0, uses_anonymous_args = 0
 712              		.loc 1 164 1 is_stmt 0 view .LVU121
 713 0000 08B5     		push	{r3, lr}
 714              	.LCFI20:
 715              		.cfi_def_cfa_offset 8
 716              		.cfi_offset 3, -8
 717              		.cfi_offset 14, -4
 718 0002 0A46     		mov	r2, r1
 165:Middlewares/lvgl/src/misc/lv_style_gen.c ****     lv_style_value_t v = {
 719              		.loc 1 165 5 is_stmt 1 view .LVU122
 166:Middlewares/lvgl/src/misc/lv_style_gen.c ****         .num = (int32_t)value
 167:Middlewares/lvgl/src/misc/lv_style_gen.c ****     };
 168:Middlewares/lvgl/src/misc/lv_style_gen.c ****     lv_style_set_prop(style, LV_STYLE_PAD_COLUMN, v);
 720              		.loc 1 168 5 view .LVU123
 721 0004 41F21501 		movw	r1, #4117
 722              	.LVL61:
 723              		.loc 1 168 5 is_stmt 0 view .LVU124
 724 0008 FFF7FEFF 		bl	lv_style_set_prop
 725              	.LVL62:
 169:Middlewares/lvgl/src/misc/lv_style_gen.c **** }
 726              		.loc 1 169 1 view .LVU125
 727 000c 08BD     		pop	{r3, pc}
ARM GAS  /tmp/ccDOElG9.s 			page 16


 728              		.cfi_endproc
 729              	.LFE67:
 731              		.section	.text.lv_style_set_radius,"ax",%progbits
 732              		.align	1
 733              		.global	lv_style_set_radius
 734              		.syntax unified
 735              		.thumb
 736              		.thumb_func
 737              		.fpu softvfp
 739              	lv_style_set_radius:
 740              	.LVL63:
 741              	.LFB68:
 170:Middlewares/lvgl/src/misc/lv_style_gen.c **** 
 171:Middlewares/lvgl/src/misc/lv_style_gen.c **** void lv_style_set_radius(lv_style_t * style, lv_coord_t value)
 172:Middlewares/lvgl/src/misc/lv_style_gen.c **** {
 742              		.loc 1 172 1 is_stmt 1 view -0
 743              		.cfi_startproc
 744              		@ args = 0, pretend = 0, frame = 0
 745              		@ frame_needed = 0, uses_anonymous_args = 0
 746              		.loc 1 172 1 is_stmt 0 view .LVU127
 747 0000 08B5     		push	{r3, lr}
 748              	.LCFI21:
 749              		.cfi_def_cfa_offset 8
 750              		.cfi_offset 3, -8
 751              		.cfi_offset 14, -4
 752 0002 0A46     		mov	r2, r1
 173:Middlewares/lvgl/src/misc/lv_style_gen.c ****     lv_style_value_t v = {
 753              		.loc 1 173 5 is_stmt 1 view .LVU128
 174:Middlewares/lvgl/src/misc/lv_style_gen.c ****         .num = (int32_t)value
 175:Middlewares/lvgl/src/misc/lv_style_gen.c ****     };
 176:Middlewares/lvgl/src/misc/lv_style_gen.c ****     lv_style_set_prop(style, LV_STYLE_RADIUS, v);
 754              		.loc 1 176 5 view .LVU129
 755 0004 6021     		movs	r1, #96
 756              	.LVL64:
 757              		.loc 1 176 5 is_stmt 0 view .LVU130
 758 0006 FFF7FEFF 		bl	lv_style_set_prop
 759              	.LVL65:
 177:Middlewares/lvgl/src/misc/lv_style_gen.c **** }
 760              		.loc 1 177 1 view .LVU131
 761 000a 08BD     		pop	{r3, pc}
 762              		.cfi_endproc
 763              	.LFE68:
 765              		.section	.text.lv_style_set_clip_corner,"ax",%progbits
 766              		.align	1
 767              		.global	lv_style_set_clip_corner
 768              		.syntax unified
 769              		.thumb
 770              		.thumb_func
 771              		.fpu softvfp
 773              	lv_style_set_clip_corner:
 774              	.LVL66:
 775              	.LFB69:
 178:Middlewares/lvgl/src/misc/lv_style_gen.c **** 
 179:Middlewares/lvgl/src/misc/lv_style_gen.c **** void lv_style_set_clip_corner(lv_style_t * style, bool value)
 180:Middlewares/lvgl/src/misc/lv_style_gen.c **** {
 776              		.loc 1 180 1 is_stmt 1 view -0
 777              		.cfi_startproc
ARM GAS  /tmp/ccDOElG9.s 			page 17


 778              		@ args = 0, pretend = 0, frame = 0
 779              		@ frame_needed = 0, uses_anonymous_args = 0
 780              		.loc 1 180 1 is_stmt 0 view .LVU133
 781 0000 08B5     		push	{r3, lr}
 782              	.LCFI22:
 783              		.cfi_def_cfa_offset 8
 784              		.cfi_offset 3, -8
 785              		.cfi_offset 14, -4
 786 0002 0A46     		mov	r2, r1
 181:Middlewares/lvgl/src/misc/lv_style_gen.c ****     lv_style_value_t v = {
 787              		.loc 1 181 5 is_stmt 1 view .LVU134
 182:Middlewares/lvgl/src/misc/lv_style_gen.c ****         .num = (int32_t)value
 183:Middlewares/lvgl/src/misc/lv_style_gen.c ****     };
 184:Middlewares/lvgl/src/misc/lv_style_gen.c ****     lv_style_set_prop(style, LV_STYLE_CLIP_CORNER, v);
 788              		.loc 1 184 5 view .LVU135
 789 0004 6121     		movs	r1, #97
 790              	.LVL67:
 791              		.loc 1 184 5 is_stmt 0 view .LVU136
 792 0006 FFF7FEFF 		bl	lv_style_set_prop
 793              	.LVL68:
 185:Middlewares/lvgl/src/misc/lv_style_gen.c **** }
 794              		.loc 1 185 1 view .LVU137
 795 000a 08BD     		pop	{r3, pc}
 796              		.cfi_endproc
 797              	.LFE69:
 799              		.section	.text.lv_style_set_opa,"ax",%progbits
 800              		.align	1
 801              		.global	lv_style_set_opa
 802              		.syntax unified
 803              		.thumb
 804              		.thumb_func
 805              		.fpu softvfp
 807              	lv_style_set_opa:
 808              	.LVL69:
 809              	.LFB70:
 186:Middlewares/lvgl/src/misc/lv_style_gen.c **** 
 187:Middlewares/lvgl/src/misc/lv_style_gen.c **** void lv_style_set_opa(lv_style_t * style, lv_opa_t value)
 188:Middlewares/lvgl/src/misc/lv_style_gen.c **** {
 810              		.loc 1 188 1 is_stmt 1 view -0
 811              		.cfi_startproc
 812              		@ args = 0, pretend = 0, frame = 0
 813              		@ frame_needed = 0, uses_anonymous_args = 0
 814              		.loc 1 188 1 is_stmt 0 view .LVU139
 815 0000 08B5     		push	{r3, lr}
 816              	.LCFI23:
 817              		.cfi_def_cfa_offset 8
 818              		.cfi_offset 3, -8
 819              		.cfi_offset 14, -4
 820 0002 0A46     		mov	r2, r1
 189:Middlewares/lvgl/src/misc/lv_style_gen.c ****     lv_style_value_t v = {
 821              		.loc 1 189 5 is_stmt 1 view .LVU140
 190:Middlewares/lvgl/src/misc/lv_style_gen.c ****         .num = (int32_t)value
 191:Middlewares/lvgl/src/misc/lv_style_gen.c ****     };
 192:Middlewares/lvgl/src/misc/lv_style_gen.c ****     lv_style_set_prop(style, LV_STYLE_OPA, v);
 822              		.loc 1 192 5 view .LVU141
 823 0004 40F26241 		movw	r1, #1122
 824              	.LVL70:
ARM GAS  /tmp/ccDOElG9.s 			page 18


 825              		.loc 1 192 5 is_stmt 0 view .LVU142
 826 0008 FFF7FEFF 		bl	lv_style_set_prop
 827              	.LVL71:
 193:Middlewares/lvgl/src/misc/lv_style_gen.c **** }
 828              		.loc 1 193 1 view .LVU143
 829 000c 08BD     		pop	{r3, pc}
 830              		.cfi_endproc
 831              	.LFE70:
 833              		.section	.text.lv_style_set_color_filter_dsc,"ax",%progbits
 834              		.align	1
 835              		.global	lv_style_set_color_filter_dsc
 836              		.syntax unified
 837              		.thumb
 838              		.thumb_func
 839              		.fpu softvfp
 841              	lv_style_set_color_filter_dsc:
 842              	.LVL72:
 843              	.LFB71:
 194:Middlewares/lvgl/src/misc/lv_style_gen.c **** 
 195:Middlewares/lvgl/src/misc/lv_style_gen.c **** void lv_style_set_color_filter_dsc(lv_style_t * style, const lv_color_filter_dsc_t * value)
 196:Middlewares/lvgl/src/misc/lv_style_gen.c **** {
 844              		.loc 1 196 1 is_stmt 1 view -0
 845              		.cfi_startproc
 846              		@ args = 0, pretend = 0, frame = 0
 847              		@ frame_needed = 0, uses_anonymous_args = 0
 848              		.loc 1 196 1 is_stmt 0 view .LVU145
 849 0000 08B5     		push	{r3, lr}
 850              	.LCFI24:
 851              		.cfi_def_cfa_offset 8
 852              		.cfi_offset 3, -8
 853              		.cfi_offset 14, -4
 854 0002 0A46     		mov	r2, r1
 197:Middlewares/lvgl/src/misc/lv_style_gen.c ****     lv_style_value_t v = {
 855              		.loc 1 197 5 is_stmt 1 view .LVU146
 198:Middlewares/lvgl/src/misc/lv_style_gen.c ****         .ptr = value
 199:Middlewares/lvgl/src/misc/lv_style_gen.c ****     };
 200:Middlewares/lvgl/src/misc/lv_style_gen.c ****     lv_style_set_prop(style, LV_STYLE_COLOR_FILTER_DSC, v);
 856              		.loc 1 200 5 view .LVU147
 857 0004 6321     		movs	r1, #99
 858              	.LVL73:
 859              		.loc 1 200 5 is_stmt 0 view .LVU148
 860 0006 FFF7FEFF 		bl	lv_style_set_prop
 861              	.LVL74:
 201:Middlewares/lvgl/src/misc/lv_style_gen.c **** }
 862              		.loc 1 201 1 view .LVU149
 863 000a 08BD     		pop	{r3, pc}
 864              		.cfi_endproc
 865              	.LFE71:
 867              		.section	.text.lv_style_set_color_filter_opa,"ax",%progbits
 868              		.align	1
 869              		.global	lv_style_set_color_filter_opa
 870              		.syntax unified
 871              		.thumb
 872              		.thumb_func
 873              		.fpu softvfp
 875              	lv_style_set_color_filter_opa:
 876              	.LVL75:
ARM GAS  /tmp/ccDOElG9.s 			page 19


 877              	.LFB72:
 202:Middlewares/lvgl/src/misc/lv_style_gen.c **** 
 203:Middlewares/lvgl/src/misc/lv_style_gen.c **** void lv_style_set_color_filter_opa(lv_style_t * style, lv_opa_t value)
 204:Middlewares/lvgl/src/misc/lv_style_gen.c **** {
 878              		.loc 1 204 1 is_stmt 1 view -0
 879              		.cfi_startproc
 880              		@ args = 0, pretend = 0, frame = 0
 881              		@ frame_needed = 0, uses_anonymous_args = 0
 882              		.loc 1 204 1 is_stmt 0 view .LVU151
 883 0000 08B5     		push	{r3, lr}
 884              	.LCFI25:
 885              		.cfi_def_cfa_offset 8
 886              		.cfi_offset 3, -8
 887              		.cfi_offset 14, -4
 888 0002 0A46     		mov	r2, r1
 205:Middlewares/lvgl/src/misc/lv_style_gen.c ****     lv_style_value_t v = {
 889              		.loc 1 205 5 is_stmt 1 view .LVU152
 206:Middlewares/lvgl/src/misc/lv_style_gen.c ****         .num = (int32_t)value
 207:Middlewares/lvgl/src/misc/lv_style_gen.c ****     };
 208:Middlewares/lvgl/src/misc/lv_style_gen.c ****     lv_style_set_prop(style, LV_STYLE_COLOR_FILTER_OPA, v);
 890              		.loc 1 208 5 view .LVU153
 891 0004 6421     		movs	r1, #100
 892              	.LVL76:
 893              		.loc 1 208 5 is_stmt 0 view .LVU154
 894 0006 FFF7FEFF 		bl	lv_style_set_prop
 895              	.LVL77:
 209:Middlewares/lvgl/src/misc/lv_style_gen.c **** }
 896              		.loc 1 209 1 view .LVU155
 897 000a 08BD     		pop	{r3, pc}
 898              		.cfi_endproc
 899              	.LFE72:
 901              		.section	.text.lv_style_set_anim_time,"ax",%progbits
 902              		.align	1
 903              		.global	lv_style_set_anim_time
 904              		.syntax unified
 905              		.thumb
 906              		.thumb_func
 907              		.fpu softvfp
 909              	lv_style_set_anim_time:
 910              	.LVL78:
 911              	.LFB73:
 210:Middlewares/lvgl/src/misc/lv_style_gen.c **** 
 211:Middlewares/lvgl/src/misc/lv_style_gen.c **** void lv_style_set_anim_time(lv_style_t * style, uint32_t value)
 212:Middlewares/lvgl/src/misc/lv_style_gen.c **** {
 912              		.loc 1 212 1 is_stmt 1 view -0
 913              		.cfi_startproc
 914              		@ args = 0, pretend = 0, frame = 0
 915              		@ frame_needed = 0, uses_anonymous_args = 0
 916              		.loc 1 212 1 is_stmt 0 view .LVU157
 917 0000 08B5     		push	{r3, lr}
 918              	.LCFI26:
 919              		.cfi_def_cfa_offset 8
 920              		.cfi_offset 3, -8
 921              		.cfi_offset 14, -4
 922 0002 0A46     		mov	r2, r1
 213:Middlewares/lvgl/src/misc/lv_style_gen.c ****     lv_style_value_t v = {
 923              		.loc 1 213 5 is_stmt 1 view .LVU158
ARM GAS  /tmp/ccDOElG9.s 			page 20


 214:Middlewares/lvgl/src/misc/lv_style_gen.c ****         .num = (int32_t)value
 215:Middlewares/lvgl/src/misc/lv_style_gen.c ****     };
 216:Middlewares/lvgl/src/misc/lv_style_gen.c ****     lv_style_set_prop(style, LV_STYLE_ANIM_TIME, v);
 924              		.loc 1 216 5 view .LVU159
 925 0004 6521     		movs	r1, #101
 926              	.LVL79:
 927              		.loc 1 216 5 is_stmt 0 view .LVU160
 928 0006 FFF7FEFF 		bl	lv_style_set_prop
 929              	.LVL80:
 217:Middlewares/lvgl/src/misc/lv_style_gen.c **** }
 930              		.loc 1 217 1 view .LVU161
 931 000a 08BD     		pop	{r3, pc}
 932              		.cfi_endproc
 933              	.LFE73:
 935              		.section	.text.lv_style_set_anim_speed,"ax",%progbits
 936              		.align	1
 937              		.global	lv_style_set_anim_speed
 938              		.syntax unified
 939              		.thumb
 940              		.thumb_func
 941              		.fpu softvfp
 943              	lv_style_set_anim_speed:
 944              	.LVL81:
 945              	.LFB74:
 218:Middlewares/lvgl/src/misc/lv_style_gen.c **** 
 219:Middlewares/lvgl/src/misc/lv_style_gen.c **** void lv_style_set_anim_speed(lv_style_t * style, uint32_t value)
 220:Middlewares/lvgl/src/misc/lv_style_gen.c **** {
 946              		.loc 1 220 1 is_stmt 1 view -0
 947              		.cfi_startproc
 948              		@ args = 0, pretend = 0, frame = 0
 949              		@ frame_needed = 0, uses_anonymous_args = 0
 950              		.loc 1 220 1 is_stmt 0 view .LVU163
 951 0000 08B5     		push	{r3, lr}
 952              	.LCFI27:
 953              		.cfi_def_cfa_offset 8
 954              		.cfi_offset 3, -8
 955              		.cfi_offset 14, -4
 956 0002 0A46     		mov	r2, r1
 221:Middlewares/lvgl/src/misc/lv_style_gen.c ****     lv_style_value_t v = {
 957              		.loc 1 221 5 is_stmt 1 view .LVU164
 222:Middlewares/lvgl/src/misc/lv_style_gen.c ****         .num = (int32_t)value
 223:Middlewares/lvgl/src/misc/lv_style_gen.c ****     };
 224:Middlewares/lvgl/src/misc/lv_style_gen.c ****     lv_style_set_prop(style, LV_STYLE_ANIM_SPEED, v);
 958              		.loc 1 224 5 view .LVU165
 959 0004 6621     		movs	r1, #102
 960              	.LVL82:
 961              		.loc 1 224 5 is_stmt 0 view .LVU166
 962 0006 FFF7FEFF 		bl	lv_style_set_prop
 963              	.LVL83:
 225:Middlewares/lvgl/src/misc/lv_style_gen.c **** }
 964              		.loc 1 225 1 view .LVU167
 965 000a 08BD     		pop	{r3, pc}
 966              		.cfi_endproc
 967              	.LFE74:
 969              		.section	.text.lv_style_set_transition,"ax",%progbits
 970              		.align	1
 971              		.global	lv_style_set_transition
ARM GAS  /tmp/ccDOElG9.s 			page 21


 972              		.syntax unified
 973              		.thumb
 974              		.thumb_func
 975              		.fpu softvfp
 977              	lv_style_set_transition:
 978              	.LVL84:
 979              	.LFB75:
 226:Middlewares/lvgl/src/misc/lv_style_gen.c **** 
 227:Middlewares/lvgl/src/misc/lv_style_gen.c **** void lv_style_set_transition(lv_style_t * style, const lv_style_transition_dsc_t * value)
 228:Middlewares/lvgl/src/misc/lv_style_gen.c **** {
 980              		.loc 1 228 1 is_stmt 1 view -0
 981              		.cfi_startproc
 982              		@ args = 0, pretend = 0, frame = 0
 983              		@ frame_needed = 0, uses_anonymous_args = 0
 984              		.loc 1 228 1 is_stmt 0 view .LVU169
 985 0000 08B5     		push	{r3, lr}
 986              	.LCFI28:
 987              		.cfi_def_cfa_offset 8
 988              		.cfi_offset 3, -8
 989              		.cfi_offset 14, -4
 990 0002 0A46     		mov	r2, r1
 229:Middlewares/lvgl/src/misc/lv_style_gen.c ****     lv_style_value_t v = {
 991              		.loc 1 229 5 is_stmt 1 view .LVU170
 230:Middlewares/lvgl/src/misc/lv_style_gen.c ****         .ptr = value
 231:Middlewares/lvgl/src/misc/lv_style_gen.c ****     };
 232:Middlewares/lvgl/src/misc/lv_style_gen.c ****     lv_style_set_prop(style, LV_STYLE_TRANSITION, v);
 992              		.loc 1 232 5 view .LVU171
 993 0004 6721     		movs	r1, #103
 994              	.LVL85:
 995              		.loc 1 232 5 is_stmt 0 view .LVU172
 996 0006 FFF7FEFF 		bl	lv_style_set_prop
 997              	.LVL86:
 233:Middlewares/lvgl/src/misc/lv_style_gen.c **** }
 998              		.loc 1 233 1 view .LVU173
 999 000a 08BD     		pop	{r3, pc}
 1000              		.cfi_endproc
 1001              	.LFE75:
 1003              		.section	.text.lv_style_set_blend_mode,"ax",%progbits
 1004              		.align	1
 1005              		.global	lv_style_set_blend_mode
 1006              		.syntax unified
 1007              		.thumb
 1008              		.thumb_func
 1009              		.fpu softvfp
 1011              	lv_style_set_blend_mode:
 1012              	.LVL87:
 1013              	.LFB76:
 234:Middlewares/lvgl/src/misc/lv_style_gen.c **** 
 235:Middlewares/lvgl/src/misc/lv_style_gen.c **** void lv_style_set_blend_mode(lv_style_t * style, lv_blend_mode_t value)
 236:Middlewares/lvgl/src/misc/lv_style_gen.c **** {
 1014              		.loc 1 236 1 is_stmt 1 view -0
 1015              		.cfi_startproc
 1016              		@ args = 0, pretend = 0, frame = 0
 1017              		@ frame_needed = 0, uses_anonymous_args = 0
 1018              		.loc 1 236 1 is_stmt 0 view .LVU175
 1019 0000 08B5     		push	{r3, lr}
 1020              	.LCFI29:
ARM GAS  /tmp/ccDOElG9.s 			page 22


 1021              		.cfi_def_cfa_offset 8
 1022              		.cfi_offset 3, -8
 1023              		.cfi_offset 14, -4
 1024 0002 0A46     		mov	r2, r1
 237:Middlewares/lvgl/src/misc/lv_style_gen.c ****     lv_style_value_t v = {
 1025              		.loc 1 237 5 is_stmt 1 view .LVU176
 238:Middlewares/lvgl/src/misc/lv_style_gen.c ****         .num = (int32_t)value
 239:Middlewares/lvgl/src/misc/lv_style_gen.c ****     };
 240:Middlewares/lvgl/src/misc/lv_style_gen.c ****     lv_style_set_prop(style, LV_STYLE_BLEND_MODE, v);
 1026              		.loc 1 240 5 view .LVU177
 1027 0004 6821     		movs	r1, #104
 1028              	.LVL88:
 1029              		.loc 1 240 5 is_stmt 0 view .LVU178
 1030 0006 FFF7FEFF 		bl	lv_style_set_prop
 1031              	.LVL89:
 241:Middlewares/lvgl/src/misc/lv_style_gen.c **** }
 1032              		.loc 1 241 1 view .LVU179
 1033 000a 08BD     		pop	{r3, pc}
 1034              		.cfi_endproc
 1035              	.LFE76:
 1037              		.section	.text.lv_style_set_layout,"ax",%progbits
 1038              		.align	1
 1039              		.global	lv_style_set_layout
 1040              		.syntax unified
 1041              		.thumb
 1042              		.thumb_func
 1043              		.fpu softvfp
 1045              	lv_style_set_layout:
 1046              	.LVL90:
 1047              	.LFB77:
 242:Middlewares/lvgl/src/misc/lv_style_gen.c **** 
 243:Middlewares/lvgl/src/misc/lv_style_gen.c **** void lv_style_set_layout(lv_style_t * style, uint16_t value)
 244:Middlewares/lvgl/src/misc/lv_style_gen.c **** {
 1048              		.loc 1 244 1 is_stmt 1 view -0
 1049              		.cfi_startproc
 1050              		@ args = 0, pretend = 0, frame = 0
 1051              		@ frame_needed = 0, uses_anonymous_args = 0
 1052              		.loc 1 244 1 is_stmt 0 view .LVU181
 1053 0000 08B5     		push	{r3, lr}
 1054              	.LCFI30:
 1055              		.cfi_def_cfa_offset 8
 1056              		.cfi_offset 3, -8
 1057              		.cfi_offset 14, -4
 1058 0002 0A46     		mov	r2, r1
 245:Middlewares/lvgl/src/misc/lv_style_gen.c ****     lv_style_value_t v = {
 1059              		.loc 1 245 5 is_stmt 1 view .LVU182
 246:Middlewares/lvgl/src/misc/lv_style_gen.c ****         .num = (int32_t)value
 247:Middlewares/lvgl/src/misc/lv_style_gen.c ****     };
 248:Middlewares/lvgl/src/misc/lv_style_gen.c ****     lv_style_set_prop(style, LV_STYLE_LAYOUT, v);
 1060              		.loc 1 248 5 view .LVU183
 1061 0004 41F26901 		movw	r1, #4201
 1062              	.LVL91:
 1063              		.loc 1 248 5 is_stmt 0 view .LVU184
 1064 0008 FFF7FEFF 		bl	lv_style_set_prop
 1065              	.LVL92:
 249:Middlewares/lvgl/src/misc/lv_style_gen.c **** }
 1066              		.loc 1 249 1 view .LVU185
ARM GAS  /tmp/ccDOElG9.s 			page 23


 1067 000c 08BD     		pop	{r3, pc}
 1068              		.cfi_endproc
 1069              	.LFE77:
 1071              		.section	.text.lv_style_set_base_dir,"ax",%progbits
 1072              		.align	1
 1073              		.global	lv_style_set_base_dir
 1074              		.syntax unified
 1075              		.thumb
 1076              		.thumb_func
 1077              		.fpu softvfp
 1079              	lv_style_set_base_dir:
 1080              	.LVL93:
 1081              	.LFB78:
 250:Middlewares/lvgl/src/misc/lv_style_gen.c **** 
 251:Middlewares/lvgl/src/misc/lv_style_gen.c **** void lv_style_set_base_dir(lv_style_t * style, lv_base_dir_t value)
 252:Middlewares/lvgl/src/misc/lv_style_gen.c **** {
 1082              		.loc 1 252 1 is_stmt 1 view -0
 1083              		.cfi_startproc
 1084              		@ args = 0, pretend = 0, frame = 0
 1085              		@ frame_needed = 0, uses_anonymous_args = 0
 1086              		.loc 1 252 1 is_stmt 0 view .LVU187
 1087 0000 08B5     		push	{r3, lr}
 1088              	.LCFI31:
 1089              		.cfi_def_cfa_offset 8
 1090              		.cfi_offset 3, -8
 1091              		.cfi_offset 14, -4
 1092 0002 0A46     		mov	r2, r1
 253:Middlewares/lvgl/src/misc/lv_style_gen.c ****     lv_style_value_t v = {
 1093              		.loc 1 253 5 is_stmt 1 view .LVU188
 254:Middlewares/lvgl/src/misc/lv_style_gen.c ****         .num = (int32_t)value
 255:Middlewares/lvgl/src/misc/lv_style_gen.c ****     };
 256:Middlewares/lvgl/src/misc/lv_style_gen.c ****     lv_style_set_prop(style, LV_STYLE_BASE_DIR, v);
 1094              		.loc 1 256 5 view .LVU189
 1095 0004 41F26A41 		movw	r1, #5226
 1096              	.LVL94:
 1097              		.loc 1 256 5 is_stmt 0 view .LVU190
 1098 0008 FFF7FEFF 		bl	lv_style_set_prop
 1099              	.LVL95:
 257:Middlewares/lvgl/src/misc/lv_style_gen.c **** }
 1100              		.loc 1 257 1 view .LVU191
 1101 000c 08BD     		pop	{r3, pc}
 1102              		.cfi_endproc
 1103              	.LFE78:
 1105              		.section	.text.lv_style_set_bg_color,"ax",%progbits
 1106              		.align	1
 1107              		.global	lv_style_set_bg_color
 1108              		.syntax unified
 1109              		.thumb
 1110              		.thumb_func
 1111              		.fpu softvfp
 1113              	lv_style_set_bg_color:
 1114              	.LVL96:
 1115              	.LFB79:
 258:Middlewares/lvgl/src/misc/lv_style_gen.c **** 
 259:Middlewares/lvgl/src/misc/lv_style_gen.c **** void lv_style_set_bg_color(lv_style_t * style, lv_color_t value)
 260:Middlewares/lvgl/src/misc/lv_style_gen.c **** {
 1116              		.loc 1 260 1 is_stmt 1 view -0
ARM GAS  /tmp/ccDOElG9.s 			page 24


 1117              		.cfi_startproc
 1118              		@ args = 0, pretend = 0, frame = 0
 1119              		@ frame_needed = 0, uses_anonymous_args = 0
 1120              		.loc 1 260 1 is_stmt 0 view .LVU193
 1121 0000 08B5     		push	{r3, lr}
 1122              	.LCFI32:
 1123              		.cfi_def_cfa_offset 8
 1124              		.cfi_offset 3, -8
 1125              		.cfi_offset 14, -4
 261:Middlewares/lvgl/src/misc/lv_style_gen.c ****     lv_style_value_t v = {
 1126              		.loc 1 261 5 is_stmt 1 view .LVU194
 262:Middlewares/lvgl/src/misc/lv_style_gen.c ****         .color = value
 263:Middlewares/lvgl/src/misc/lv_style_gen.c ****     };
 264:Middlewares/lvgl/src/misc/lv_style_gen.c ****     lv_style_set_prop(style, LV_STYLE_BG_COLOR, v);
 1127              		.loc 1 264 5 view .LVU195
 1128 0002 8AB2     		uxth	r2, r1
 1129 0004 2021     		movs	r1, #32
 1130              	.LVL97:
 1131              		.loc 1 264 5 is_stmt 0 view .LVU196
 1132 0006 FFF7FEFF 		bl	lv_style_set_prop
 1133              	.LVL98:
 265:Middlewares/lvgl/src/misc/lv_style_gen.c **** }
 1134              		.loc 1 265 1 view .LVU197
 1135 000a 08BD     		pop	{r3, pc}
 1136              		.cfi_endproc
 1137              	.LFE79:
 1139              		.section	.text.lv_style_set_bg_color_filtered,"ax",%progbits
 1140              		.align	1
 1141              		.global	lv_style_set_bg_color_filtered
 1142              		.syntax unified
 1143              		.thumb
 1144              		.thumb_func
 1145              		.fpu softvfp
 1147              	lv_style_set_bg_color_filtered:
 1148              	.LVL99:
 1149              	.LFB80:
 266:Middlewares/lvgl/src/misc/lv_style_gen.c **** 
 267:Middlewares/lvgl/src/misc/lv_style_gen.c **** void lv_style_set_bg_color_filtered(lv_style_t * style, lv_color_t value)
 268:Middlewares/lvgl/src/misc/lv_style_gen.c **** {
 1150              		.loc 1 268 1 is_stmt 1 view -0
 1151              		.cfi_startproc
 1152              		@ args = 0, pretend = 0, frame = 0
 1153              		@ frame_needed = 0, uses_anonymous_args = 0
 1154              		.loc 1 268 1 is_stmt 0 view .LVU199
 1155 0000 08B5     		push	{r3, lr}
 1156              	.LCFI33:
 1157              		.cfi_def_cfa_offset 8
 1158              		.cfi_offset 3, -8
 1159              		.cfi_offset 14, -4
 269:Middlewares/lvgl/src/misc/lv_style_gen.c ****     lv_style_value_t v = {
 1160              		.loc 1 269 5 is_stmt 1 view .LVU200
 270:Middlewares/lvgl/src/misc/lv_style_gen.c ****         .color = value
 271:Middlewares/lvgl/src/misc/lv_style_gen.c ****     };
 272:Middlewares/lvgl/src/misc/lv_style_gen.c ****     lv_style_set_prop(style, LV_STYLE_BG_COLOR_FILTERED, v);
 1161              		.loc 1 272 5 view .LVU201
 1162 0002 8AB2     		uxth	r2, r1
 1163 0004 44F22001 		movw	r1, #16416
ARM GAS  /tmp/ccDOElG9.s 			page 25


 1164              	.LVL100:
 1165              		.loc 1 272 5 is_stmt 0 view .LVU202
 1166 0008 FFF7FEFF 		bl	lv_style_set_prop
 1167              	.LVL101:
 273:Middlewares/lvgl/src/misc/lv_style_gen.c **** }
 1168              		.loc 1 273 1 view .LVU203
 1169 000c 08BD     		pop	{r3, pc}
 1170              		.cfi_endproc
 1171              	.LFE80:
 1173              		.section	.text.lv_style_set_bg_opa,"ax",%progbits
 1174              		.align	1
 1175              		.global	lv_style_set_bg_opa
 1176              		.syntax unified
 1177              		.thumb
 1178              		.thumb_func
 1179              		.fpu softvfp
 1181              	lv_style_set_bg_opa:
 1182              	.LVL102:
 1183              	.LFB81:
 274:Middlewares/lvgl/src/misc/lv_style_gen.c **** 
 275:Middlewares/lvgl/src/misc/lv_style_gen.c **** void lv_style_set_bg_opa(lv_style_t * style, lv_opa_t value)
 276:Middlewares/lvgl/src/misc/lv_style_gen.c **** {
 1184              		.loc 1 276 1 is_stmt 1 view -0
 1185              		.cfi_startproc
 1186              		@ args = 0, pretend = 0, frame = 0
 1187              		@ frame_needed = 0, uses_anonymous_args = 0
 1188              		.loc 1 276 1 is_stmt 0 view .LVU205
 1189 0000 08B5     		push	{r3, lr}
 1190              	.LCFI34:
 1191              		.cfi_def_cfa_offset 8
 1192              		.cfi_offset 3, -8
 1193              		.cfi_offset 14, -4
 1194 0002 0A46     		mov	r2, r1
 277:Middlewares/lvgl/src/misc/lv_style_gen.c ****     lv_style_value_t v = {
 1195              		.loc 1 277 5 is_stmt 1 view .LVU206
 278:Middlewares/lvgl/src/misc/lv_style_gen.c ****         .num = (int32_t)value
 279:Middlewares/lvgl/src/misc/lv_style_gen.c ****     };
 280:Middlewares/lvgl/src/misc/lv_style_gen.c ****     lv_style_set_prop(style, LV_STYLE_BG_OPA, v);
 1196              		.loc 1 280 5 view .LVU207
 1197 0004 2121     		movs	r1, #33
 1198              	.LVL103:
 1199              		.loc 1 280 5 is_stmt 0 view .LVU208
 1200 0006 FFF7FEFF 		bl	lv_style_set_prop
 1201              	.LVL104:
 281:Middlewares/lvgl/src/misc/lv_style_gen.c **** }
 1202              		.loc 1 281 1 view .LVU209
 1203 000a 08BD     		pop	{r3, pc}
 1204              		.cfi_endproc
 1205              	.LFE81:
 1207              		.section	.text.lv_style_set_bg_grad_color,"ax",%progbits
 1208              		.align	1
 1209              		.global	lv_style_set_bg_grad_color
 1210              		.syntax unified
 1211              		.thumb
 1212              		.thumb_func
 1213              		.fpu softvfp
 1215              	lv_style_set_bg_grad_color:
ARM GAS  /tmp/ccDOElG9.s 			page 26


 1216              	.LVL105:
 1217              	.LFB82:
 282:Middlewares/lvgl/src/misc/lv_style_gen.c **** 
 283:Middlewares/lvgl/src/misc/lv_style_gen.c **** void lv_style_set_bg_grad_color(lv_style_t * style, lv_color_t value)
 284:Middlewares/lvgl/src/misc/lv_style_gen.c **** {
 1218              		.loc 1 284 1 is_stmt 1 view -0
 1219              		.cfi_startproc
 1220              		@ args = 0, pretend = 0, frame = 0
 1221              		@ frame_needed = 0, uses_anonymous_args = 0
 1222              		.loc 1 284 1 is_stmt 0 view .LVU211
 1223 0000 08B5     		push	{r3, lr}
 1224              	.LCFI35:
 1225              		.cfi_def_cfa_offset 8
 1226              		.cfi_offset 3, -8
 1227              		.cfi_offset 14, -4
 285:Middlewares/lvgl/src/misc/lv_style_gen.c ****     lv_style_value_t v = {
 1228              		.loc 1 285 5 is_stmt 1 view .LVU212
 286:Middlewares/lvgl/src/misc/lv_style_gen.c ****         .color = value
 287:Middlewares/lvgl/src/misc/lv_style_gen.c ****     };
 288:Middlewares/lvgl/src/misc/lv_style_gen.c ****     lv_style_set_prop(style, LV_STYLE_BG_GRAD_COLOR, v);
 1229              		.loc 1 288 5 view .LVU213
 1230 0002 8AB2     		uxth	r2, r1
 1231 0004 2221     		movs	r1, #34
 1232              	.LVL106:
 1233              		.loc 1 288 5 is_stmt 0 view .LVU214
 1234 0006 FFF7FEFF 		bl	lv_style_set_prop
 1235              	.LVL107:
 289:Middlewares/lvgl/src/misc/lv_style_gen.c **** }
 1236              		.loc 1 289 1 view .LVU215
 1237 000a 08BD     		pop	{r3, pc}
 1238              		.cfi_endproc
 1239              	.LFE82:
 1241              		.section	.text.lv_style_set_bg_grad_color_filtered,"ax",%progbits
 1242              		.align	1
 1243              		.global	lv_style_set_bg_grad_color_filtered
 1244              		.syntax unified
 1245              		.thumb
 1246              		.thumb_func
 1247              		.fpu softvfp
 1249              	lv_style_set_bg_grad_color_filtered:
 1250              	.LVL108:
 1251              	.LFB83:
 290:Middlewares/lvgl/src/misc/lv_style_gen.c **** 
 291:Middlewares/lvgl/src/misc/lv_style_gen.c **** void lv_style_set_bg_grad_color_filtered(lv_style_t * style, lv_color_t value)
 292:Middlewares/lvgl/src/misc/lv_style_gen.c **** {
 1252              		.loc 1 292 1 is_stmt 1 view -0
 1253              		.cfi_startproc
 1254              		@ args = 0, pretend = 0, frame = 0
 1255              		@ frame_needed = 0, uses_anonymous_args = 0
 1256              		.loc 1 292 1 is_stmt 0 view .LVU217
 1257 0000 08B5     		push	{r3, lr}
 1258              	.LCFI36:
 1259              		.cfi_def_cfa_offset 8
 1260              		.cfi_offset 3, -8
 1261              		.cfi_offset 14, -4
 293:Middlewares/lvgl/src/misc/lv_style_gen.c ****     lv_style_value_t v = {
 1262              		.loc 1 293 5 is_stmt 1 view .LVU218
ARM GAS  /tmp/ccDOElG9.s 			page 27


 294:Middlewares/lvgl/src/misc/lv_style_gen.c ****         .color = value
 295:Middlewares/lvgl/src/misc/lv_style_gen.c ****     };
 296:Middlewares/lvgl/src/misc/lv_style_gen.c ****     lv_style_set_prop(style, LV_STYLE_BG_GRAD_COLOR_FILTERED, v);
 1263              		.loc 1 296 5 view .LVU219
 1264 0002 8AB2     		uxth	r2, r1
 1265 0004 44F22201 		movw	r1, #16418
 1266              	.LVL109:
 1267              		.loc 1 296 5 is_stmt 0 view .LVU220
 1268 0008 FFF7FEFF 		bl	lv_style_set_prop
 1269              	.LVL110:
 297:Middlewares/lvgl/src/misc/lv_style_gen.c **** }
 1270              		.loc 1 297 1 view .LVU221
 1271 000c 08BD     		pop	{r3, pc}
 1272              		.cfi_endproc
 1273              	.LFE83:
 1275              		.section	.text.lv_style_set_bg_grad_dir,"ax",%progbits
 1276              		.align	1
 1277              		.global	lv_style_set_bg_grad_dir
 1278              		.syntax unified
 1279              		.thumb
 1280              		.thumb_func
 1281              		.fpu softvfp
 1283              	lv_style_set_bg_grad_dir:
 1284              	.LVL111:
 1285              	.LFB84:
 298:Middlewares/lvgl/src/misc/lv_style_gen.c **** 
 299:Middlewares/lvgl/src/misc/lv_style_gen.c **** void lv_style_set_bg_grad_dir(lv_style_t * style, lv_grad_dir_t value)
 300:Middlewares/lvgl/src/misc/lv_style_gen.c **** {
 1286              		.loc 1 300 1 is_stmt 1 view -0
 1287              		.cfi_startproc
 1288              		@ args = 0, pretend = 0, frame = 0
 1289              		@ frame_needed = 0, uses_anonymous_args = 0
 1290              		.loc 1 300 1 is_stmt 0 view .LVU223
 1291 0000 08B5     		push	{r3, lr}
 1292              	.LCFI37:
 1293              		.cfi_def_cfa_offset 8
 1294              		.cfi_offset 3, -8
 1295              		.cfi_offset 14, -4
 1296 0002 0A46     		mov	r2, r1
 301:Middlewares/lvgl/src/misc/lv_style_gen.c ****     lv_style_value_t v = {
 1297              		.loc 1 301 5 is_stmt 1 view .LVU224
 302:Middlewares/lvgl/src/misc/lv_style_gen.c ****         .num = (int32_t)value
 303:Middlewares/lvgl/src/misc/lv_style_gen.c ****     };
 304:Middlewares/lvgl/src/misc/lv_style_gen.c ****     lv_style_set_prop(style, LV_STYLE_BG_GRAD_DIR, v);
 1298              		.loc 1 304 5 view .LVU225
 1299 0004 2321     		movs	r1, #35
 1300              	.LVL112:
 1301              		.loc 1 304 5 is_stmt 0 view .LVU226
 1302 0006 FFF7FEFF 		bl	lv_style_set_prop
 1303              	.LVL113:
 305:Middlewares/lvgl/src/misc/lv_style_gen.c **** }
 1304              		.loc 1 305 1 view .LVU227
 1305 000a 08BD     		pop	{r3, pc}
 1306              		.cfi_endproc
 1307              	.LFE84:
 1309              		.section	.text.lv_style_set_bg_main_stop,"ax",%progbits
 1310              		.align	1
ARM GAS  /tmp/ccDOElG9.s 			page 28


 1311              		.global	lv_style_set_bg_main_stop
 1312              		.syntax unified
 1313              		.thumb
 1314              		.thumb_func
 1315              		.fpu softvfp
 1317              	lv_style_set_bg_main_stop:
 1318              	.LVL114:
 1319              	.LFB85:
 306:Middlewares/lvgl/src/misc/lv_style_gen.c **** 
 307:Middlewares/lvgl/src/misc/lv_style_gen.c **** void lv_style_set_bg_main_stop(lv_style_t * style, lv_coord_t value)
 308:Middlewares/lvgl/src/misc/lv_style_gen.c **** {
 1320              		.loc 1 308 1 is_stmt 1 view -0
 1321              		.cfi_startproc
 1322              		@ args = 0, pretend = 0, frame = 0
 1323              		@ frame_needed = 0, uses_anonymous_args = 0
 1324              		.loc 1 308 1 is_stmt 0 view .LVU229
 1325 0000 08B5     		push	{r3, lr}
 1326              	.LCFI38:
 1327              		.cfi_def_cfa_offset 8
 1328              		.cfi_offset 3, -8
 1329              		.cfi_offset 14, -4
 1330 0002 0A46     		mov	r2, r1
 309:Middlewares/lvgl/src/misc/lv_style_gen.c ****     lv_style_value_t v = {
 1331              		.loc 1 309 5 is_stmt 1 view .LVU230
 310:Middlewares/lvgl/src/misc/lv_style_gen.c ****         .num = (int32_t)value
 311:Middlewares/lvgl/src/misc/lv_style_gen.c ****     };
 312:Middlewares/lvgl/src/misc/lv_style_gen.c ****     lv_style_set_prop(style, LV_STYLE_BG_MAIN_STOP, v);
 1332              		.loc 1 312 5 view .LVU231
 1333 0004 2421     		movs	r1, #36
 1334              	.LVL115:
 1335              		.loc 1 312 5 is_stmt 0 view .LVU232
 1336 0006 FFF7FEFF 		bl	lv_style_set_prop
 1337              	.LVL116:
 313:Middlewares/lvgl/src/misc/lv_style_gen.c **** }
 1338              		.loc 1 313 1 view .LVU233
 1339 000a 08BD     		pop	{r3, pc}
 1340              		.cfi_endproc
 1341              	.LFE85:
 1343              		.section	.text.lv_style_set_bg_grad_stop,"ax",%progbits
 1344              		.align	1
 1345              		.global	lv_style_set_bg_grad_stop
 1346              		.syntax unified
 1347              		.thumb
 1348              		.thumb_func
 1349              		.fpu softvfp
 1351              	lv_style_set_bg_grad_stop:
 1352              	.LVL117:
 1353              	.LFB86:
 314:Middlewares/lvgl/src/misc/lv_style_gen.c **** 
 315:Middlewares/lvgl/src/misc/lv_style_gen.c **** void lv_style_set_bg_grad_stop(lv_style_t * style, lv_coord_t value)
 316:Middlewares/lvgl/src/misc/lv_style_gen.c **** {
 1354              		.loc 1 316 1 is_stmt 1 view -0
 1355              		.cfi_startproc
 1356              		@ args = 0, pretend = 0, frame = 0
 1357              		@ frame_needed = 0, uses_anonymous_args = 0
 1358              		.loc 1 316 1 is_stmt 0 view .LVU235
 1359 0000 08B5     		push	{r3, lr}
ARM GAS  /tmp/ccDOElG9.s 			page 29


 1360              	.LCFI39:
 1361              		.cfi_def_cfa_offset 8
 1362              		.cfi_offset 3, -8
 1363              		.cfi_offset 14, -4
 1364 0002 0A46     		mov	r2, r1
 317:Middlewares/lvgl/src/misc/lv_style_gen.c ****     lv_style_value_t v = {
 1365              		.loc 1 317 5 is_stmt 1 view .LVU236
 318:Middlewares/lvgl/src/misc/lv_style_gen.c ****         .num = (int32_t)value
 319:Middlewares/lvgl/src/misc/lv_style_gen.c ****     };
 320:Middlewares/lvgl/src/misc/lv_style_gen.c ****     lv_style_set_prop(style, LV_STYLE_BG_GRAD_STOP, v);
 1366              		.loc 1 320 5 view .LVU237
 1367 0004 2521     		movs	r1, #37
 1368              	.LVL118:
 1369              		.loc 1 320 5 is_stmt 0 view .LVU238
 1370 0006 FFF7FEFF 		bl	lv_style_set_prop
 1371              	.LVL119:
 321:Middlewares/lvgl/src/misc/lv_style_gen.c **** }
 1372              		.loc 1 321 1 view .LVU239
 1373 000a 08BD     		pop	{r3, pc}
 1374              		.cfi_endproc
 1375              	.LFE86:
 1377              		.section	.text.lv_style_set_bg_img_src,"ax",%progbits
 1378              		.align	1
 1379              		.global	lv_style_set_bg_img_src
 1380              		.syntax unified
 1381              		.thumb
 1382              		.thumb_func
 1383              		.fpu softvfp
 1385              	lv_style_set_bg_img_src:
 1386              	.LVL120:
 1387              	.LFB87:
 322:Middlewares/lvgl/src/misc/lv_style_gen.c **** 
 323:Middlewares/lvgl/src/misc/lv_style_gen.c **** void lv_style_set_bg_img_src(lv_style_t * style, const void * value)
 324:Middlewares/lvgl/src/misc/lv_style_gen.c **** {
 1388              		.loc 1 324 1 is_stmt 1 view -0
 1389              		.cfi_startproc
 1390              		@ args = 0, pretend = 0, frame = 0
 1391              		@ frame_needed = 0, uses_anonymous_args = 0
 1392              		.loc 1 324 1 is_stmt 0 view .LVU241
 1393 0000 08B5     		push	{r3, lr}
 1394              	.LCFI40:
 1395              		.cfi_def_cfa_offset 8
 1396              		.cfi_offset 3, -8
 1397              		.cfi_offset 14, -4
 1398 0002 0A46     		mov	r2, r1
 325:Middlewares/lvgl/src/misc/lv_style_gen.c ****     lv_style_value_t v = {
 1399              		.loc 1 325 5 is_stmt 1 view .LVU242
 326:Middlewares/lvgl/src/misc/lv_style_gen.c ****         .ptr = value
 327:Middlewares/lvgl/src/misc/lv_style_gen.c ****     };
 328:Middlewares/lvgl/src/misc/lv_style_gen.c ****     lv_style_set_prop(style, LV_STYLE_BG_IMG_SRC, v);
 1400              		.loc 1 328 5 view .LVU243
 1401 0004 2621     		movs	r1, #38
 1402              	.LVL121:
 1403              		.loc 1 328 5 is_stmt 0 view .LVU244
 1404 0006 FFF7FEFF 		bl	lv_style_set_prop
 1405              	.LVL122:
 329:Middlewares/lvgl/src/misc/lv_style_gen.c **** }
ARM GAS  /tmp/ccDOElG9.s 			page 30


 1406              		.loc 1 329 1 view .LVU245
 1407 000a 08BD     		pop	{r3, pc}
 1408              		.cfi_endproc
 1409              	.LFE87:
 1411              		.section	.text.lv_style_set_bg_img_opa,"ax",%progbits
 1412              		.align	1
 1413              		.global	lv_style_set_bg_img_opa
 1414              		.syntax unified
 1415              		.thumb
 1416              		.thumb_func
 1417              		.fpu softvfp
 1419              	lv_style_set_bg_img_opa:
 1420              	.LVL123:
 1421              	.LFB88:
 330:Middlewares/lvgl/src/misc/lv_style_gen.c **** 
 331:Middlewares/lvgl/src/misc/lv_style_gen.c **** void lv_style_set_bg_img_opa(lv_style_t * style, lv_opa_t value)
 332:Middlewares/lvgl/src/misc/lv_style_gen.c **** {
 1422              		.loc 1 332 1 is_stmt 1 view -0
 1423              		.cfi_startproc
 1424              		@ args = 0, pretend = 0, frame = 0
 1425              		@ frame_needed = 0, uses_anonymous_args = 0
 1426              		.loc 1 332 1 is_stmt 0 view .LVU247
 1427 0000 08B5     		push	{r3, lr}
 1428              	.LCFI41:
 1429              		.cfi_def_cfa_offset 8
 1430              		.cfi_offset 3, -8
 1431              		.cfi_offset 14, -4
 1432 0002 0A46     		mov	r2, r1
 333:Middlewares/lvgl/src/misc/lv_style_gen.c ****     lv_style_value_t v = {
 1433              		.loc 1 333 5 is_stmt 1 view .LVU248
 334:Middlewares/lvgl/src/misc/lv_style_gen.c ****         .num = (int32_t)value
 335:Middlewares/lvgl/src/misc/lv_style_gen.c ****     };
 336:Middlewares/lvgl/src/misc/lv_style_gen.c ****     lv_style_set_prop(style, LV_STYLE_BG_IMG_OPA, v);
 1434              		.loc 1 336 5 view .LVU249
 1435 0004 2721     		movs	r1, #39
 1436              	.LVL124:
 1437              		.loc 1 336 5 is_stmt 0 view .LVU250
 1438 0006 FFF7FEFF 		bl	lv_style_set_prop
 1439              	.LVL125:
 337:Middlewares/lvgl/src/misc/lv_style_gen.c **** }
 1440              		.loc 1 337 1 view .LVU251
 1441 000a 08BD     		pop	{r3, pc}
 1442              		.cfi_endproc
 1443              	.LFE88:
 1445              		.section	.text.lv_style_set_bg_img_recolor,"ax",%progbits
 1446              		.align	1
 1447              		.global	lv_style_set_bg_img_recolor
 1448              		.syntax unified
 1449              		.thumb
 1450              		.thumb_func
 1451              		.fpu softvfp
 1453              	lv_style_set_bg_img_recolor:
 1454              	.LVL126:
 1455              	.LFB89:
 338:Middlewares/lvgl/src/misc/lv_style_gen.c **** 
 339:Middlewares/lvgl/src/misc/lv_style_gen.c **** void lv_style_set_bg_img_recolor(lv_style_t * style, lv_color_t value)
 340:Middlewares/lvgl/src/misc/lv_style_gen.c **** {
ARM GAS  /tmp/ccDOElG9.s 			page 31


 1456              		.loc 1 340 1 is_stmt 1 view -0
 1457              		.cfi_startproc
 1458              		@ args = 0, pretend = 0, frame = 0
 1459              		@ frame_needed = 0, uses_anonymous_args = 0
 1460              		.loc 1 340 1 is_stmt 0 view .LVU253
 1461 0000 08B5     		push	{r3, lr}
 1462              	.LCFI42:
 1463              		.cfi_def_cfa_offset 8
 1464              		.cfi_offset 3, -8
 1465              		.cfi_offset 14, -4
 341:Middlewares/lvgl/src/misc/lv_style_gen.c ****     lv_style_value_t v = {
 1466              		.loc 1 341 5 is_stmt 1 view .LVU254
 342:Middlewares/lvgl/src/misc/lv_style_gen.c ****         .color = value
 343:Middlewares/lvgl/src/misc/lv_style_gen.c ****     };
 344:Middlewares/lvgl/src/misc/lv_style_gen.c ****     lv_style_set_prop(style, LV_STYLE_BG_IMG_RECOLOR, v);
 1467              		.loc 1 344 5 view .LVU255
 1468 0002 8AB2     		uxth	r2, r1
 1469 0004 2821     		movs	r1, #40
 1470              	.LVL127:
 1471              		.loc 1 344 5 is_stmt 0 view .LVU256
 1472 0006 FFF7FEFF 		bl	lv_style_set_prop
 1473              	.LVL128:
 345:Middlewares/lvgl/src/misc/lv_style_gen.c **** }
 1474              		.loc 1 345 1 view .LVU257
 1475 000a 08BD     		pop	{r3, pc}
 1476              		.cfi_endproc
 1477              	.LFE89:
 1479              		.section	.text.lv_style_set_bg_img_recolor_filtered,"ax",%progbits
 1480              		.align	1
 1481              		.global	lv_style_set_bg_img_recolor_filtered
 1482              		.syntax unified
 1483              		.thumb
 1484              		.thumb_func
 1485              		.fpu softvfp
 1487              	lv_style_set_bg_img_recolor_filtered:
 1488              	.LVL129:
 1489              	.LFB90:
 346:Middlewares/lvgl/src/misc/lv_style_gen.c **** 
 347:Middlewares/lvgl/src/misc/lv_style_gen.c **** void lv_style_set_bg_img_recolor_filtered(lv_style_t * style, lv_color_t value)
 348:Middlewares/lvgl/src/misc/lv_style_gen.c **** {
 1490              		.loc 1 348 1 is_stmt 1 view -0
 1491              		.cfi_startproc
 1492              		@ args = 0, pretend = 0, frame = 0
 1493              		@ frame_needed = 0, uses_anonymous_args = 0
 1494              		.loc 1 348 1 is_stmt 0 view .LVU259
 1495 0000 08B5     		push	{r3, lr}
 1496              	.LCFI43:
 1497              		.cfi_def_cfa_offset 8
 1498              		.cfi_offset 3, -8
 1499              		.cfi_offset 14, -4
 349:Middlewares/lvgl/src/misc/lv_style_gen.c ****     lv_style_value_t v = {
 1500              		.loc 1 349 5 is_stmt 1 view .LVU260
 350:Middlewares/lvgl/src/misc/lv_style_gen.c ****         .color = value
 351:Middlewares/lvgl/src/misc/lv_style_gen.c ****     };
 352:Middlewares/lvgl/src/misc/lv_style_gen.c ****     lv_style_set_prop(style, LV_STYLE_BG_IMG_RECOLOR_FILTERED, v);
 1501              		.loc 1 352 5 view .LVU261
 1502 0002 8AB2     		uxth	r2, r1
ARM GAS  /tmp/ccDOElG9.s 			page 32


 1503 0004 44F22801 		movw	r1, #16424
 1504              	.LVL130:
 1505              		.loc 1 352 5 is_stmt 0 view .LVU262
 1506 0008 FFF7FEFF 		bl	lv_style_set_prop
 1507              	.LVL131:
 353:Middlewares/lvgl/src/misc/lv_style_gen.c **** }
 1508              		.loc 1 353 1 view .LVU263
 1509 000c 08BD     		pop	{r3, pc}
 1510              		.cfi_endproc
 1511              	.LFE90:
 1513              		.section	.text.lv_style_set_bg_img_recolor_opa,"ax",%progbits
 1514              		.align	1
 1515              		.global	lv_style_set_bg_img_recolor_opa
 1516              		.syntax unified
 1517              		.thumb
 1518              		.thumb_func
 1519              		.fpu softvfp
 1521              	lv_style_set_bg_img_recolor_opa:
 1522              	.LVL132:
 1523              	.LFB91:
 354:Middlewares/lvgl/src/misc/lv_style_gen.c **** 
 355:Middlewares/lvgl/src/misc/lv_style_gen.c **** void lv_style_set_bg_img_recolor_opa(lv_style_t * style, lv_opa_t value)
 356:Middlewares/lvgl/src/misc/lv_style_gen.c **** {
 1524              		.loc 1 356 1 is_stmt 1 view -0
 1525              		.cfi_startproc
 1526              		@ args = 0, pretend = 0, frame = 0
 1527              		@ frame_needed = 0, uses_anonymous_args = 0
 1528              		.loc 1 356 1 is_stmt 0 view .LVU265
 1529 0000 08B5     		push	{r3, lr}
 1530              	.LCFI44:
 1531              		.cfi_def_cfa_offset 8
 1532              		.cfi_offset 3, -8
 1533              		.cfi_offset 14, -4
 1534 0002 0A46     		mov	r2, r1
 357:Middlewares/lvgl/src/misc/lv_style_gen.c ****     lv_style_value_t v = {
 1535              		.loc 1 357 5 is_stmt 1 view .LVU266
 358:Middlewares/lvgl/src/misc/lv_style_gen.c ****         .num = (int32_t)value
 359:Middlewares/lvgl/src/misc/lv_style_gen.c ****     };
 360:Middlewares/lvgl/src/misc/lv_style_gen.c ****     lv_style_set_prop(style, LV_STYLE_BG_IMG_RECOLOR_OPA, v);
 1536              		.loc 1 360 5 view .LVU267
 1537 0004 2921     		movs	r1, #41
 1538              	.LVL133:
 1539              		.loc 1 360 5 is_stmt 0 view .LVU268
 1540 0006 FFF7FEFF 		bl	lv_style_set_prop
 1541              	.LVL134:
 361:Middlewares/lvgl/src/misc/lv_style_gen.c **** }
 1542              		.loc 1 361 1 view .LVU269
 1543 000a 08BD     		pop	{r3, pc}
 1544              		.cfi_endproc
 1545              	.LFE91:
 1547              		.section	.text.lv_style_set_bg_img_tiled,"ax",%progbits
 1548              		.align	1
 1549              		.global	lv_style_set_bg_img_tiled
 1550              		.syntax unified
 1551              		.thumb
 1552              		.thumb_func
 1553              		.fpu softvfp
ARM GAS  /tmp/ccDOElG9.s 			page 33


 1555              	lv_style_set_bg_img_tiled:
 1556              	.LVL135:
 1557              	.LFB92:
 362:Middlewares/lvgl/src/misc/lv_style_gen.c **** 
 363:Middlewares/lvgl/src/misc/lv_style_gen.c **** void lv_style_set_bg_img_tiled(lv_style_t * style, bool value)
 364:Middlewares/lvgl/src/misc/lv_style_gen.c **** {
 1558              		.loc 1 364 1 is_stmt 1 view -0
 1559              		.cfi_startproc
 1560              		@ args = 0, pretend = 0, frame = 0
 1561              		@ frame_needed = 0, uses_anonymous_args = 0
 1562              		.loc 1 364 1 is_stmt 0 view .LVU271
 1563 0000 08B5     		push	{r3, lr}
 1564              	.LCFI45:
 1565              		.cfi_def_cfa_offset 8
 1566              		.cfi_offset 3, -8
 1567              		.cfi_offset 14, -4
 1568 0002 0A46     		mov	r2, r1
 365:Middlewares/lvgl/src/misc/lv_style_gen.c ****     lv_style_value_t v = {
 1569              		.loc 1 365 5 is_stmt 1 view .LVU272
 366:Middlewares/lvgl/src/misc/lv_style_gen.c ****         .num = (int32_t)value
 367:Middlewares/lvgl/src/misc/lv_style_gen.c ****     };
 368:Middlewares/lvgl/src/misc/lv_style_gen.c ****     lv_style_set_prop(style, LV_STYLE_BG_IMG_TILED, v);
 1570              		.loc 1 368 5 view .LVU273
 1571 0004 2A21     		movs	r1, #42
 1572              	.LVL136:
 1573              		.loc 1 368 5 is_stmt 0 view .LVU274
 1574 0006 FFF7FEFF 		bl	lv_style_set_prop
 1575              	.LVL137:
 369:Middlewares/lvgl/src/misc/lv_style_gen.c **** }
 1576              		.loc 1 369 1 view .LVU275
 1577 000a 08BD     		pop	{r3, pc}
 1578              		.cfi_endproc
 1579              	.LFE92:
 1581              		.section	.text.lv_style_set_border_color,"ax",%progbits
 1582              		.align	1
 1583              		.global	lv_style_set_border_color
 1584              		.syntax unified
 1585              		.thumb
 1586              		.thumb_func
 1587              		.fpu softvfp
 1589              	lv_style_set_border_color:
 1590              	.LVL138:
 1591              	.LFB93:
 370:Middlewares/lvgl/src/misc/lv_style_gen.c **** 
 371:Middlewares/lvgl/src/misc/lv_style_gen.c **** void lv_style_set_border_color(lv_style_t * style, lv_color_t value)
 372:Middlewares/lvgl/src/misc/lv_style_gen.c **** {
 1592              		.loc 1 372 1 is_stmt 1 view -0
 1593              		.cfi_startproc
 1594              		@ args = 0, pretend = 0, frame = 0
 1595              		@ frame_needed = 0, uses_anonymous_args = 0
 1596              		.loc 1 372 1 is_stmt 0 view .LVU277
 1597 0000 08B5     		push	{r3, lr}
 1598              	.LCFI46:
 1599              		.cfi_def_cfa_offset 8
 1600              		.cfi_offset 3, -8
 1601              		.cfi_offset 14, -4
 373:Middlewares/lvgl/src/misc/lv_style_gen.c ****     lv_style_value_t v = {
ARM GAS  /tmp/ccDOElG9.s 			page 34


 1602              		.loc 1 373 5 is_stmt 1 view .LVU278
 374:Middlewares/lvgl/src/misc/lv_style_gen.c ****         .color = value
 375:Middlewares/lvgl/src/misc/lv_style_gen.c ****     };
 376:Middlewares/lvgl/src/misc/lv_style_gen.c ****     lv_style_set_prop(style, LV_STYLE_BORDER_COLOR, v);
 1603              		.loc 1 376 5 view .LVU279
 1604 0002 8AB2     		uxth	r2, r1
 1605 0004 3021     		movs	r1, #48
 1606              	.LVL139:
 1607              		.loc 1 376 5 is_stmt 0 view .LVU280
 1608 0006 FFF7FEFF 		bl	lv_style_set_prop
 1609              	.LVL140:
 377:Middlewares/lvgl/src/misc/lv_style_gen.c **** }
 1610              		.loc 1 377 1 view .LVU281
 1611 000a 08BD     		pop	{r3, pc}
 1612              		.cfi_endproc
 1613              	.LFE93:
 1615              		.section	.text.lv_style_set_border_color_filtered,"ax",%progbits
 1616              		.align	1
 1617              		.global	lv_style_set_border_color_filtered
 1618              		.syntax unified
 1619              		.thumb
 1620              		.thumb_func
 1621              		.fpu softvfp
 1623              	lv_style_set_border_color_filtered:
 1624              	.LVL141:
 1625              	.LFB94:
 378:Middlewares/lvgl/src/misc/lv_style_gen.c **** 
 379:Middlewares/lvgl/src/misc/lv_style_gen.c **** void lv_style_set_border_color_filtered(lv_style_t * style, lv_color_t value)
 380:Middlewares/lvgl/src/misc/lv_style_gen.c **** {
 1626              		.loc 1 380 1 is_stmt 1 view -0
 1627              		.cfi_startproc
 1628              		@ args = 0, pretend = 0, frame = 0
 1629              		@ frame_needed = 0, uses_anonymous_args = 0
 1630              		.loc 1 380 1 is_stmt 0 view .LVU283
 1631 0000 08B5     		push	{r3, lr}
 1632              	.LCFI47:
 1633              		.cfi_def_cfa_offset 8
 1634              		.cfi_offset 3, -8
 1635              		.cfi_offset 14, -4
 381:Middlewares/lvgl/src/misc/lv_style_gen.c ****     lv_style_value_t v = {
 1636              		.loc 1 381 5 is_stmt 1 view .LVU284
 382:Middlewares/lvgl/src/misc/lv_style_gen.c ****         .color = value
 383:Middlewares/lvgl/src/misc/lv_style_gen.c ****     };
 384:Middlewares/lvgl/src/misc/lv_style_gen.c ****     lv_style_set_prop(style, LV_STYLE_BORDER_COLOR_FILTERED, v);
 1637              		.loc 1 384 5 view .LVU285
 1638 0002 8AB2     		uxth	r2, r1
 1639 0004 44F23001 		movw	r1, #16432
 1640              	.LVL142:
 1641              		.loc 1 384 5 is_stmt 0 view .LVU286
 1642 0008 FFF7FEFF 		bl	lv_style_set_prop
 1643              	.LVL143:
 385:Middlewares/lvgl/src/misc/lv_style_gen.c **** }
 1644              		.loc 1 385 1 view .LVU287
 1645 000c 08BD     		pop	{r3, pc}
 1646              		.cfi_endproc
 1647              	.LFE94:
 1649              		.section	.text.lv_style_set_border_opa,"ax",%progbits
ARM GAS  /tmp/ccDOElG9.s 			page 35


 1650              		.align	1
 1651              		.global	lv_style_set_border_opa
 1652              		.syntax unified
 1653              		.thumb
 1654              		.thumb_func
 1655              		.fpu softvfp
 1657              	lv_style_set_border_opa:
 1658              	.LVL144:
 1659              	.LFB95:
 386:Middlewares/lvgl/src/misc/lv_style_gen.c **** 
 387:Middlewares/lvgl/src/misc/lv_style_gen.c **** void lv_style_set_border_opa(lv_style_t * style, lv_opa_t value)
 388:Middlewares/lvgl/src/misc/lv_style_gen.c **** {
 1660              		.loc 1 388 1 is_stmt 1 view -0
 1661              		.cfi_startproc
 1662              		@ args = 0, pretend = 0, frame = 0
 1663              		@ frame_needed = 0, uses_anonymous_args = 0
 1664              		.loc 1 388 1 is_stmt 0 view .LVU289
 1665 0000 08B5     		push	{r3, lr}
 1666              	.LCFI48:
 1667              		.cfi_def_cfa_offset 8
 1668              		.cfi_offset 3, -8
 1669              		.cfi_offset 14, -4
 1670 0002 0A46     		mov	r2, r1
 389:Middlewares/lvgl/src/misc/lv_style_gen.c ****     lv_style_value_t v = {
 1671              		.loc 1 389 5 is_stmt 1 view .LVU290
 390:Middlewares/lvgl/src/misc/lv_style_gen.c ****         .num = (int32_t)value
 391:Middlewares/lvgl/src/misc/lv_style_gen.c ****     };
 392:Middlewares/lvgl/src/misc/lv_style_gen.c ****     lv_style_set_prop(style, LV_STYLE_BORDER_OPA, v);
 1672              		.loc 1 392 5 view .LVU291
 1673 0004 3121     		movs	r1, #49
 1674              	.LVL145:
 1675              		.loc 1 392 5 is_stmt 0 view .LVU292
 1676 0006 FFF7FEFF 		bl	lv_style_set_prop
 1677              	.LVL146:
 393:Middlewares/lvgl/src/misc/lv_style_gen.c **** }
 1678              		.loc 1 393 1 view .LVU293
 1679 000a 08BD     		pop	{r3, pc}
 1680              		.cfi_endproc
 1681              	.LFE95:
 1683              		.section	.text.lv_style_set_border_width,"ax",%progbits
 1684              		.align	1
 1685              		.global	lv_style_set_border_width
 1686              		.syntax unified
 1687              		.thumb
 1688              		.thumb_func
 1689              		.fpu softvfp
 1691              	lv_style_set_border_width:
 1692              	.LVL147:
 1693              	.LFB96:
 394:Middlewares/lvgl/src/misc/lv_style_gen.c **** 
 395:Middlewares/lvgl/src/misc/lv_style_gen.c **** void lv_style_set_border_width(lv_style_t * style, lv_coord_t value)
 396:Middlewares/lvgl/src/misc/lv_style_gen.c **** {
 1694              		.loc 1 396 1 is_stmt 1 view -0
 1695              		.cfi_startproc
 1696              		@ args = 0, pretend = 0, frame = 0
 1697              		@ frame_needed = 0, uses_anonymous_args = 0
 1698              		.loc 1 396 1 is_stmt 0 view .LVU295
ARM GAS  /tmp/ccDOElG9.s 			page 36


 1699 0000 08B5     		push	{r3, lr}
 1700              	.LCFI49:
 1701              		.cfi_def_cfa_offset 8
 1702              		.cfi_offset 3, -8
 1703              		.cfi_offset 14, -4
 1704 0002 0A46     		mov	r2, r1
 397:Middlewares/lvgl/src/misc/lv_style_gen.c ****     lv_style_value_t v = {
 1705              		.loc 1 397 5 is_stmt 1 view .LVU296
 398:Middlewares/lvgl/src/misc/lv_style_gen.c ****         .num = (int32_t)value
 399:Middlewares/lvgl/src/misc/lv_style_gen.c ****     };
 400:Middlewares/lvgl/src/misc/lv_style_gen.c ****     lv_style_set_prop(style, LV_STYLE_BORDER_WIDTH, v);
 1706              		.loc 1 400 5 view .LVU297
 1707 0004 41F23201 		movw	r1, #4146
 1708              	.LVL148:
 1709              		.loc 1 400 5 is_stmt 0 view .LVU298
 1710 0008 FFF7FEFF 		bl	lv_style_set_prop
 1711              	.LVL149:
 401:Middlewares/lvgl/src/misc/lv_style_gen.c **** }
 1712              		.loc 1 401 1 view .LVU299
 1713 000c 08BD     		pop	{r3, pc}
 1714              		.cfi_endproc
 1715              	.LFE96:
 1717              		.section	.text.lv_style_set_border_side,"ax",%progbits
 1718              		.align	1
 1719              		.global	lv_style_set_border_side
 1720              		.syntax unified
 1721              		.thumb
 1722              		.thumb_func
 1723              		.fpu softvfp
 1725              	lv_style_set_border_side:
 1726              	.LVL150:
 1727              	.LFB97:
 402:Middlewares/lvgl/src/misc/lv_style_gen.c **** 
 403:Middlewares/lvgl/src/misc/lv_style_gen.c **** void lv_style_set_border_side(lv_style_t * style, lv_border_side_t value)
 404:Middlewares/lvgl/src/misc/lv_style_gen.c **** {
 1728              		.loc 1 404 1 is_stmt 1 view -0
 1729              		.cfi_startproc
 1730              		@ args = 0, pretend = 0, frame = 0
 1731              		@ frame_needed = 0, uses_anonymous_args = 0
 1732              		.loc 1 404 1 is_stmt 0 view .LVU301
 1733 0000 08B5     		push	{r3, lr}
 1734              	.LCFI50:
 1735              		.cfi_def_cfa_offset 8
 1736              		.cfi_offset 3, -8
 1737              		.cfi_offset 14, -4
 1738 0002 0A46     		mov	r2, r1
 405:Middlewares/lvgl/src/misc/lv_style_gen.c ****     lv_style_value_t v = {
 1739              		.loc 1 405 5 is_stmt 1 view .LVU302
 406:Middlewares/lvgl/src/misc/lv_style_gen.c ****         .num = (int32_t)value
 407:Middlewares/lvgl/src/misc/lv_style_gen.c ****     };
 408:Middlewares/lvgl/src/misc/lv_style_gen.c ****     lv_style_set_prop(style, LV_STYLE_BORDER_SIDE, v);
 1740              		.loc 1 408 5 view .LVU303
 1741 0004 3321     		movs	r1, #51
 1742              	.LVL151:
 1743              		.loc 1 408 5 is_stmt 0 view .LVU304
 1744 0006 FFF7FEFF 		bl	lv_style_set_prop
 1745              	.LVL152:
ARM GAS  /tmp/ccDOElG9.s 			page 37


 409:Middlewares/lvgl/src/misc/lv_style_gen.c **** }
 1746              		.loc 1 409 1 view .LVU305
 1747 000a 08BD     		pop	{r3, pc}
 1748              		.cfi_endproc
 1749              	.LFE97:
 1751              		.section	.text.lv_style_set_border_post,"ax",%progbits
 1752              		.align	1
 1753              		.global	lv_style_set_border_post
 1754              		.syntax unified
 1755              		.thumb
 1756              		.thumb_func
 1757              		.fpu softvfp
 1759              	lv_style_set_border_post:
 1760              	.LVL153:
 1761              	.LFB98:
 410:Middlewares/lvgl/src/misc/lv_style_gen.c **** 
 411:Middlewares/lvgl/src/misc/lv_style_gen.c **** void lv_style_set_border_post(lv_style_t * style, bool value)
 412:Middlewares/lvgl/src/misc/lv_style_gen.c **** {
 1762              		.loc 1 412 1 is_stmt 1 view -0
 1763              		.cfi_startproc
 1764              		@ args = 0, pretend = 0, frame = 0
 1765              		@ frame_needed = 0, uses_anonymous_args = 0
 1766              		.loc 1 412 1 is_stmt 0 view .LVU307
 1767 0000 08B5     		push	{r3, lr}
 1768              	.LCFI51:
 1769              		.cfi_def_cfa_offset 8
 1770              		.cfi_offset 3, -8
 1771              		.cfi_offset 14, -4
 1772 0002 0A46     		mov	r2, r1
 413:Middlewares/lvgl/src/misc/lv_style_gen.c ****     lv_style_value_t v = {
 1773              		.loc 1 413 5 is_stmt 1 view .LVU308
 414:Middlewares/lvgl/src/misc/lv_style_gen.c ****         .num = (int32_t)value
 415:Middlewares/lvgl/src/misc/lv_style_gen.c ****     };
 416:Middlewares/lvgl/src/misc/lv_style_gen.c ****     lv_style_set_prop(style, LV_STYLE_BORDER_POST, v);
 1774              		.loc 1 416 5 view .LVU309
 1775 0004 3421     		movs	r1, #52
 1776              	.LVL154:
 1777              		.loc 1 416 5 is_stmt 0 view .LVU310
 1778 0006 FFF7FEFF 		bl	lv_style_set_prop
 1779              	.LVL155:
 417:Middlewares/lvgl/src/misc/lv_style_gen.c **** }
 1780              		.loc 1 417 1 view .LVU311
 1781 000a 08BD     		pop	{r3, pc}
 1782              		.cfi_endproc
 1783              	.LFE98:
 1785              		.section	.text.lv_style_set_text_color,"ax",%progbits
 1786              		.align	1
 1787              		.global	lv_style_set_text_color
 1788              		.syntax unified
 1789              		.thumb
 1790              		.thumb_func
 1791              		.fpu softvfp
 1793              	lv_style_set_text_color:
 1794              	.LVL156:
 1795              	.LFB99:
 418:Middlewares/lvgl/src/misc/lv_style_gen.c **** 
 419:Middlewares/lvgl/src/misc/lv_style_gen.c **** void lv_style_set_text_color(lv_style_t * style, lv_color_t value)
ARM GAS  /tmp/ccDOElG9.s 			page 38


 420:Middlewares/lvgl/src/misc/lv_style_gen.c **** {
 1796              		.loc 1 420 1 is_stmt 1 view -0
 1797              		.cfi_startproc
 1798              		@ args = 0, pretend = 0, frame = 0
 1799              		@ frame_needed = 0, uses_anonymous_args = 0
 1800              		.loc 1 420 1 is_stmt 0 view .LVU313
 1801 0000 08B5     		push	{r3, lr}
 1802              	.LCFI52:
 1803              		.cfi_def_cfa_offset 8
 1804              		.cfi_offset 3, -8
 1805              		.cfi_offset 14, -4
 421:Middlewares/lvgl/src/misc/lv_style_gen.c ****     lv_style_value_t v = {
 1806              		.loc 1 421 5 is_stmt 1 view .LVU314
 422:Middlewares/lvgl/src/misc/lv_style_gen.c ****         .color = value
 423:Middlewares/lvgl/src/misc/lv_style_gen.c ****     };
 424:Middlewares/lvgl/src/misc/lv_style_gen.c ****     lv_style_set_prop(style, LV_STYLE_TEXT_COLOR, v);
 1807              		.loc 1 424 5 view .LVU315
 1808 0002 8AB2     		uxth	r2, r1
 1809 0004 40F25741 		movw	r1, #1111
 1810              	.LVL157:
 1811              		.loc 1 424 5 is_stmt 0 view .LVU316
 1812 0008 FFF7FEFF 		bl	lv_style_set_prop
 1813              	.LVL158:
 425:Middlewares/lvgl/src/misc/lv_style_gen.c **** }
 1814              		.loc 1 425 1 view .LVU317
 1815 000c 08BD     		pop	{r3, pc}
 1816              		.cfi_endproc
 1817              	.LFE99:
 1819              		.section	.text.lv_style_set_text_color_filtered,"ax",%progbits
 1820              		.align	1
 1821              		.global	lv_style_set_text_color_filtered
 1822              		.syntax unified
 1823              		.thumb
 1824              		.thumb_func
 1825              		.fpu softvfp
 1827              	lv_style_set_text_color_filtered:
 1828              	.LVL159:
 1829              	.LFB100:
 426:Middlewares/lvgl/src/misc/lv_style_gen.c **** 
 427:Middlewares/lvgl/src/misc/lv_style_gen.c **** void lv_style_set_text_color_filtered(lv_style_t * style, lv_color_t value)
 428:Middlewares/lvgl/src/misc/lv_style_gen.c **** {
 1830              		.loc 1 428 1 is_stmt 1 view -0
 1831              		.cfi_startproc
 1832              		@ args = 0, pretend = 0, frame = 0
 1833              		@ frame_needed = 0, uses_anonymous_args = 0
 1834              		.loc 1 428 1 is_stmt 0 view .LVU319
 1835 0000 08B5     		push	{r3, lr}
 1836              	.LCFI53:
 1837              		.cfi_def_cfa_offset 8
 1838              		.cfi_offset 3, -8
 1839              		.cfi_offset 14, -4
 429:Middlewares/lvgl/src/misc/lv_style_gen.c ****     lv_style_value_t v = {
 1840              		.loc 1 429 5 is_stmt 1 view .LVU320
 430:Middlewares/lvgl/src/misc/lv_style_gen.c ****         .color = value
 431:Middlewares/lvgl/src/misc/lv_style_gen.c ****     };
 432:Middlewares/lvgl/src/misc/lv_style_gen.c ****     lv_style_set_prop(style, LV_STYLE_TEXT_COLOR_FILTERED, v);
 1841              		.loc 1 432 5 view .LVU321
ARM GAS  /tmp/ccDOElG9.s 			page 39


 1842 0002 8AB2     		uxth	r2, r1
 1843 0004 44F25741 		movw	r1, #17495
 1844              	.LVL160:
 1845              		.loc 1 432 5 is_stmt 0 view .LVU322
 1846 0008 FFF7FEFF 		bl	lv_style_set_prop
 1847              	.LVL161:
 433:Middlewares/lvgl/src/misc/lv_style_gen.c **** }
 1848              		.loc 1 433 1 view .LVU323
 1849 000c 08BD     		pop	{r3, pc}
 1850              		.cfi_endproc
 1851              	.LFE100:
 1853              		.section	.text.lv_style_set_text_opa,"ax",%progbits
 1854              		.align	1
 1855              		.global	lv_style_set_text_opa
 1856              		.syntax unified
 1857              		.thumb
 1858              		.thumb_func
 1859              		.fpu softvfp
 1861              	lv_style_set_text_opa:
 1862              	.LVL162:
 1863              	.LFB101:
 434:Middlewares/lvgl/src/misc/lv_style_gen.c **** 
 435:Middlewares/lvgl/src/misc/lv_style_gen.c **** void lv_style_set_text_opa(lv_style_t * style, lv_opa_t value)
 436:Middlewares/lvgl/src/misc/lv_style_gen.c **** {
 1864              		.loc 1 436 1 is_stmt 1 view -0
 1865              		.cfi_startproc
 1866              		@ args = 0, pretend = 0, frame = 0
 1867              		@ frame_needed = 0, uses_anonymous_args = 0
 1868              		.loc 1 436 1 is_stmt 0 view .LVU325
 1869 0000 08B5     		push	{r3, lr}
 1870              	.LCFI54:
 1871              		.cfi_def_cfa_offset 8
 1872              		.cfi_offset 3, -8
 1873              		.cfi_offset 14, -4
 1874 0002 0A46     		mov	r2, r1
 437:Middlewares/lvgl/src/misc/lv_style_gen.c ****     lv_style_value_t v = {
 1875              		.loc 1 437 5 is_stmt 1 view .LVU326
 438:Middlewares/lvgl/src/misc/lv_style_gen.c ****         .num = (int32_t)value
 439:Middlewares/lvgl/src/misc/lv_style_gen.c ****     };
 440:Middlewares/lvgl/src/misc/lv_style_gen.c ****     lv_style_set_prop(style, LV_STYLE_TEXT_OPA, v);
 1876              		.loc 1 440 5 view .LVU327
 1877 0004 4FF48B61 		mov	r1, #1112
 1878              	.LVL163:
 1879              		.loc 1 440 5 is_stmt 0 view .LVU328
 1880 0008 FFF7FEFF 		bl	lv_style_set_prop
 1881              	.LVL164:
 441:Middlewares/lvgl/src/misc/lv_style_gen.c **** }
 1882              		.loc 1 441 1 view .LVU329
 1883 000c 08BD     		pop	{r3, pc}
 1884              		.cfi_endproc
 1885              	.LFE101:
 1887              		.section	.text.lv_style_set_text_font,"ax",%progbits
 1888              		.align	1
 1889              		.global	lv_style_set_text_font
 1890              		.syntax unified
 1891              		.thumb
 1892              		.thumb_func
ARM GAS  /tmp/ccDOElG9.s 			page 40


 1893              		.fpu softvfp
 1895              	lv_style_set_text_font:
 1896              	.LVL165:
 1897              	.LFB102:
 442:Middlewares/lvgl/src/misc/lv_style_gen.c **** 
 443:Middlewares/lvgl/src/misc/lv_style_gen.c **** void lv_style_set_text_font(lv_style_t * style, const lv_font_t * value)
 444:Middlewares/lvgl/src/misc/lv_style_gen.c **** {
 1898              		.loc 1 444 1 is_stmt 1 view -0
 1899              		.cfi_startproc
 1900              		@ args = 0, pretend = 0, frame = 0
 1901              		@ frame_needed = 0, uses_anonymous_args = 0
 1902              		.loc 1 444 1 is_stmt 0 view .LVU331
 1903 0000 08B5     		push	{r3, lr}
 1904              	.LCFI55:
 1905              		.cfi_def_cfa_offset 8
 1906              		.cfi_offset 3, -8
 1907              		.cfi_offset 14, -4
 1908 0002 0A46     		mov	r2, r1
 445:Middlewares/lvgl/src/misc/lv_style_gen.c ****     lv_style_value_t v = {
 1909              		.loc 1 445 5 is_stmt 1 view .LVU332
 446:Middlewares/lvgl/src/misc/lv_style_gen.c ****         .ptr = value
 447:Middlewares/lvgl/src/misc/lv_style_gen.c ****     };
 448:Middlewares/lvgl/src/misc/lv_style_gen.c ****     lv_style_set_prop(style, LV_STYLE_TEXT_FONT, v);
 1910              		.loc 1 448 5 view .LVU333
 1911 0004 41F25941 		movw	r1, #5209
 1912              	.LVL166:
 1913              		.loc 1 448 5 is_stmt 0 view .LVU334
 1914 0008 FFF7FEFF 		bl	lv_style_set_prop
 1915              	.LVL167:
 449:Middlewares/lvgl/src/misc/lv_style_gen.c **** }
 1916              		.loc 1 449 1 view .LVU335
 1917 000c 08BD     		pop	{r3, pc}
 1918              		.cfi_endproc
 1919              	.LFE102:
 1921              		.section	.text.lv_style_set_text_letter_space,"ax",%progbits
 1922              		.align	1
 1923              		.global	lv_style_set_text_letter_space
 1924              		.syntax unified
 1925              		.thumb
 1926              		.thumb_func
 1927              		.fpu softvfp
 1929              	lv_style_set_text_letter_space:
 1930              	.LVL168:
 1931              	.LFB103:
 450:Middlewares/lvgl/src/misc/lv_style_gen.c **** 
 451:Middlewares/lvgl/src/misc/lv_style_gen.c **** void lv_style_set_text_letter_space(lv_style_t * style, lv_coord_t value)
 452:Middlewares/lvgl/src/misc/lv_style_gen.c **** {
 1932              		.loc 1 452 1 is_stmt 1 view -0
 1933              		.cfi_startproc
 1934              		@ args = 0, pretend = 0, frame = 0
 1935              		@ frame_needed = 0, uses_anonymous_args = 0
 1936              		.loc 1 452 1 is_stmt 0 view .LVU337
 1937 0000 08B5     		push	{r3, lr}
 1938              	.LCFI56:
 1939              		.cfi_def_cfa_offset 8
 1940              		.cfi_offset 3, -8
 1941              		.cfi_offset 14, -4
ARM GAS  /tmp/ccDOElG9.s 			page 41


 1942 0002 0A46     		mov	r2, r1
 453:Middlewares/lvgl/src/misc/lv_style_gen.c ****     lv_style_value_t v = {
 1943              		.loc 1 453 5 is_stmt 1 view .LVU338
 454:Middlewares/lvgl/src/misc/lv_style_gen.c ****         .num = (int32_t)value
 455:Middlewares/lvgl/src/misc/lv_style_gen.c ****     };
 456:Middlewares/lvgl/src/misc/lv_style_gen.c ****     lv_style_set_prop(style, LV_STYLE_TEXT_LETTER_SPACE, v);
 1944              		.loc 1 456 5 view .LVU339
 1945 0004 41F25A41 		movw	r1, #5210
 1946              	.LVL169:
 1947              		.loc 1 456 5 is_stmt 0 view .LVU340
 1948 0008 FFF7FEFF 		bl	lv_style_set_prop
 1949              	.LVL170:
 457:Middlewares/lvgl/src/misc/lv_style_gen.c **** }
 1950              		.loc 1 457 1 view .LVU341
 1951 000c 08BD     		pop	{r3, pc}
 1952              		.cfi_endproc
 1953              	.LFE103:
 1955              		.section	.text.lv_style_set_text_line_space,"ax",%progbits
 1956              		.align	1
 1957              		.global	lv_style_set_text_line_space
 1958              		.syntax unified
 1959              		.thumb
 1960              		.thumb_func
 1961              		.fpu softvfp
 1963              	lv_style_set_text_line_space:
 1964              	.LVL171:
 1965              	.LFB104:
 458:Middlewares/lvgl/src/misc/lv_style_gen.c **** 
 459:Middlewares/lvgl/src/misc/lv_style_gen.c **** void lv_style_set_text_line_space(lv_style_t * style, lv_coord_t value)
 460:Middlewares/lvgl/src/misc/lv_style_gen.c **** {
 1966              		.loc 1 460 1 is_stmt 1 view -0
 1967              		.cfi_startproc
 1968              		@ args = 0, pretend = 0, frame = 0
 1969              		@ frame_needed = 0, uses_anonymous_args = 0
 1970              		.loc 1 460 1 is_stmt 0 view .LVU343
 1971 0000 08B5     		push	{r3, lr}
 1972              	.LCFI57:
 1973              		.cfi_def_cfa_offset 8
 1974              		.cfi_offset 3, -8
 1975              		.cfi_offset 14, -4
 1976 0002 0A46     		mov	r2, r1
 461:Middlewares/lvgl/src/misc/lv_style_gen.c ****     lv_style_value_t v = {
 1977              		.loc 1 461 5 is_stmt 1 view .LVU344
 462:Middlewares/lvgl/src/misc/lv_style_gen.c ****         .num = (int32_t)value
 463:Middlewares/lvgl/src/misc/lv_style_gen.c ****     };
 464:Middlewares/lvgl/src/misc/lv_style_gen.c ****     lv_style_set_prop(style, LV_STYLE_TEXT_LINE_SPACE, v);
 1978              		.loc 1 464 5 view .LVU345
 1979 0004 41F25B41 		movw	r1, #5211
 1980              	.LVL172:
 1981              		.loc 1 464 5 is_stmt 0 view .LVU346
 1982 0008 FFF7FEFF 		bl	lv_style_set_prop
 1983              	.LVL173:
 465:Middlewares/lvgl/src/misc/lv_style_gen.c **** }
 1984              		.loc 1 465 1 view .LVU347
 1985 000c 08BD     		pop	{r3, pc}
 1986              		.cfi_endproc
 1987              	.LFE104:
ARM GAS  /tmp/ccDOElG9.s 			page 42


 1989              		.section	.text.lv_style_set_text_decor,"ax",%progbits
 1990              		.align	1
 1991              		.global	lv_style_set_text_decor
 1992              		.syntax unified
 1993              		.thumb
 1994              		.thumb_func
 1995              		.fpu softvfp
 1997              	lv_style_set_text_decor:
 1998              	.LVL174:
 1999              	.LFB105:
 466:Middlewares/lvgl/src/misc/lv_style_gen.c **** 
 467:Middlewares/lvgl/src/misc/lv_style_gen.c **** void lv_style_set_text_decor(lv_style_t * style, lv_text_decor_t value)
 468:Middlewares/lvgl/src/misc/lv_style_gen.c **** {
 2000              		.loc 1 468 1 is_stmt 1 view -0
 2001              		.cfi_startproc
 2002              		@ args = 0, pretend = 0, frame = 0
 2003              		@ frame_needed = 0, uses_anonymous_args = 0
 2004              		.loc 1 468 1 is_stmt 0 view .LVU349
 2005 0000 08B5     		push	{r3, lr}
 2006              	.LCFI58:
 2007              		.cfi_def_cfa_offset 8
 2008              		.cfi_offset 3, -8
 2009              		.cfi_offset 14, -4
 2010 0002 0A46     		mov	r2, r1
 469:Middlewares/lvgl/src/misc/lv_style_gen.c ****     lv_style_value_t v = {
 2011              		.loc 1 469 5 is_stmt 1 view .LVU350
 470:Middlewares/lvgl/src/misc/lv_style_gen.c ****         .num = (int32_t)value
 471:Middlewares/lvgl/src/misc/lv_style_gen.c ****     };
 472:Middlewares/lvgl/src/misc/lv_style_gen.c ****     lv_style_set_prop(style, LV_STYLE_TEXT_DECOR, v);
 2012              		.loc 1 472 5 view .LVU351
 2013 0004 40F25C41 		movw	r1, #1116
 2014              	.LVL175:
 2015              		.loc 1 472 5 is_stmt 0 view .LVU352
 2016 0008 FFF7FEFF 		bl	lv_style_set_prop
 2017              	.LVL176:
 473:Middlewares/lvgl/src/misc/lv_style_gen.c **** }
 2018              		.loc 1 473 1 view .LVU353
 2019 000c 08BD     		pop	{r3, pc}
 2020              		.cfi_endproc
 2021              	.LFE105:
 2023              		.section	.text.lv_style_set_text_align,"ax",%progbits
 2024              		.align	1
 2025              		.global	lv_style_set_text_align
 2026              		.syntax unified
 2027              		.thumb
 2028              		.thumb_func
 2029              		.fpu softvfp
 2031              	lv_style_set_text_align:
 2032              	.LVL177:
 2033              	.LFB106:
 474:Middlewares/lvgl/src/misc/lv_style_gen.c **** 
 475:Middlewares/lvgl/src/misc/lv_style_gen.c **** void lv_style_set_text_align(lv_style_t * style, lv_text_align_t value)
 476:Middlewares/lvgl/src/misc/lv_style_gen.c **** {
 2034              		.loc 1 476 1 is_stmt 1 view -0
 2035              		.cfi_startproc
 2036              		@ args = 0, pretend = 0, frame = 0
 2037              		@ frame_needed = 0, uses_anonymous_args = 0
ARM GAS  /tmp/ccDOElG9.s 			page 43


 2038              		.loc 1 476 1 is_stmt 0 view .LVU355
 2039 0000 08B5     		push	{r3, lr}
 2040              	.LCFI59:
 2041              		.cfi_def_cfa_offset 8
 2042              		.cfi_offset 3, -8
 2043              		.cfi_offset 14, -4
 2044 0002 0A46     		mov	r2, r1
 477:Middlewares/lvgl/src/misc/lv_style_gen.c ****     lv_style_value_t v = {
 2045              		.loc 1 477 5 is_stmt 1 view .LVU356
 478:Middlewares/lvgl/src/misc/lv_style_gen.c ****         .num = (int32_t)value
 479:Middlewares/lvgl/src/misc/lv_style_gen.c ****     };
 480:Middlewares/lvgl/src/misc/lv_style_gen.c ****     lv_style_set_prop(style, LV_STYLE_TEXT_ALIGN, v);
 2046              		.loc 1 480 5 view .LVU357
 2047 0004 41F25D41 		movw	r1, #5213
 2048              	.LVL178:
 2049              		.loc 1 480 5 is_stmt 0 view .LVU358
 2050 0008 FFF7FEFF 		bl	lv_style_set_prop
 2051              	.LVL179:
 481:Middlewares/lvgl/src/misc/lv_style_gen.c **** }
 2052              		.loc 1 481 1 view .LVU359
 2053 000c 08BD     		pop	{r3, pc}
 2054              		.cfi_endproc
 2055              	.LFE106:
 2057              		.section	.text.lv_style_set_img_opa,"ax",%progbits
 2058              		.align	1
 2059              		.global	lv_style_set_img_opa
 2060              		.syntax unified
 2061              		.thumb
 2062              		.thumb_func
 2063              		.fpu softvfp
 2065              	lv_style_set_img_opa:
 2066              	.LVL180:
 2067              	.LFB107:
 482:Middlewares/lvgl/src/misc/lv_style_gen.c **** 
 483:Middlewares/lvgl/src/misc/lv_style_gen.c **** void lv_style_set_img_opa(lv_style_t * style, lv_opa_t value)
 484:Middlewares/lvgl/src/misc/lv_style_gen.c **** {
 2068              		.loc 1 484 1 is_stmt 1 view -0
 2069              		.cfi_startproc
 2070              		@ args = 0, pretend = 0, frame = 0
 2071              		@ frame_needed = 0, uses_anonymous_args = 0
 2072              		.loc 1 484 1 is_stmt 0 view .LVU361
 2073 0000 08B5     		push	{r3, lr}
 2074              	.LCFI60:
 2075              		.cfi_def_cfa_offset 8
 2076              		.cfi_offset 3, -8
 2077              		.cfi_offset 14, -4
 2078 0002 0A46     		mov	r2, r1
 485:Middlewares/lvgl/src/misc/lv_style_gen.c ****     lv_style_value_t v = {
 2079              		.loc 1 485 5 is_stmt 1 view .LVU362
 486:Middlewares/lvgl/src/misc/lv_style_gen.c ****         .num = (int32_t)value
 487:Middlewares/lvgl/src/misc/lv_style_gen.c ****     };
 488:Middlewares/lvgl/src/misc/lv_style_gen.c ****     lv_style_set_prop(style, LV_STYLE_IMG_OPA, v);
 2080              		.loc 1 488 5 view .LVU363
 2081 0004 4621     		movs	r1, #70
 2082              	.LVL181:
 2083              		.loc 1 488 5 is_stmt 0 view .LVU364
 2084 0006 FFF7FEFF 		bl	lv_style_set_prop
ARM GAS  /tmp/ccDOElG9.s 			page 44


 2085              	.LVL182:
 489:Middlewares/lvgl/src/misc/lv_style_gen.c **** }
 2086              		.loc 1 489 1 view .LVU365
 2087 000a 08BD     		pop	{r3, pc}
 2088              		.cfi_endproc
 2089              	.LFE107:
 2091              		.section	.text.lv_style_set_img_recolor,"ax",%progbits
 2092              		.align	1
 2093              		.global	lv_style_set_img_recolor
 2094              		.syntax unified
 2095              		.thumb
 2096              		.thumb_func
 2097              		.fpu softvfp
 2099              	lv_style_set_img_recolor:
 2100              	.LVL183:
 2101              	.LFB108:
 490:Middlewares/lvgl/src/misc/lv_style_gen.c **** 
 491:Middlewares/lvgl/src/misc/lv_style_gen.c **** void lv_style_set_img_recolor(lv_style_t * style, lv_color_t value)
 492:Middlewares/lvgl/src/misc/lv_style_gen.c **** {
 2102              		.loc 1 492 1 is_stmt 1 view -0
 2103              		.cfi_startproc
 2104              		@ args = 0, pretend = 0, frame = 0
 2105              		@ frame_needed = 0, uses_anonymous_args = 0
 2106              		.loc 1 492 1 is_stmt 0 view .LVU367
 2107 0000 08B5     		push	{r3, lr}
 2108              	.LCFI61:
 2109              		.cfi_def_cfa_offset 8
 2110              		.cfi_offset 3, -8
 2111              		.cfi_offset 14, -4
 493:Middlewares/lvgl/src/misc/lv_style_gen.c ****     lv_style_value_t v = {
 2112              		.loc 1 493 5 is_stmt 1 view .LVU368
 494:Middlewares/lvgl/src/misc/lv_style_gen.c ****         .color = value
 495:Middlewares/lvgl/src/misc/lv_style_gen.c ****     };
 496:Middlewares/lvgl/src/misc/lv_style_gen.c ****     lv_style_set_prop(style, LV_STYLE_IMG_RECOLOR, v);
 2113              		.loc 1 496 5 view .LVU369
 2114 0002 8AB2     		uxth	r2, r1
 2115 0004 4721     		movs	r1, #71
 2116              	.LVL184:
 2117              		.loc 1 496 5 is_stmt 0 view .LVU370
 2118 0006 FFF7FEFF 		bl	lv_style_set_prop
 2119              	.LVL185:
 497:Middlewares/lvgl/src/misc/lv_style_gen.c **** }
 2120              		.loc 1 497 1 view .LVU371
 2121 000a 08BD     		pop	{r3, pc}
 2122              		.cfi_endproc
 2123              	.LFE108:
 2125              		.section	.text.lv_style_set_img_recolor_filtered,"ax",%progbits
 2126              		.align	1
 2127              		.global	lv_style_set_img_recolor_filtered
 2128              		.syntax unified
 2129              		.thumb
 2130              		.thumb_func
 2131              		.fpu softvfp
 2133              	lv_style_set_img_recolor_filtered:
 2134              	.LVL186:
 2135              	.LFB109:
 498:Middlewares/lvgl/src/misc/lv_style_gen.c **** 
ARM GAS  /tmp/ccDOElG9.s 			page 45


 499:Middlewares/lvgl/src/misc/lv_style_gen.c **** void lv_style_set_img_recolor_filtered(lv_style_t * style, lv_color_t value)
 500:Middlewares/lvgl/src/misc/lv_style_gen.c **** {
 2136              		.loc 1 500 1 is_stmt 1 view -0
 2137              		.cfi_startproc
 2138              		@ args = 0, pretend = 0, frame = 0
 2139              		@ frame_needed = 0, uses_anonymous_args = 0
 2140              		.loc 1 500 1 is_stmt 0 view .LVU373
 2141 0000 08B5     		push	{r3, lr}
 2142              	.LCFI62:
 2143              		.cfi_def_cfa_offset 8
 2144              		.cfi_offset 3, -8
 2145              		.cfi_offset 14, -4
 501:Middlewares/lvgl/src/misc/lv_style_gen.c ****     lv_style_value_t v = {
 2146              		.loc 1 501 5 is_stmt 1 view .LVU374
 502:Middlewares/lvgl/src/misc/lv_style_gen.c ****         .color = value
 503:Middlewares/lvgl/src/misc/lv_style_gen.c ****     };
 504:Middlewares/lvgl/src/misc/lv_style_gen.c ****     lv_style_set_prop(style, LV_STYLE_IMG_RECOLOR_FILTERED, v);
 2147              		.loc 1 504 5 view .LVU375
 2148 0002 8AB2     		uxth	r2, r1
 2149 0004 44F24701 		movw	r1, #16455
 2150              	.LVL187:
 2151              		.loc 1 504 5 is_stmt 0 view .LVU376
 2152 0008 FFF7FEFF 		bl	lv_style_set_prop
 2153              	.LVL188:
 505:Middlewares/lvgl/src/misc/lv_style_gen.c **** }
 2154              		.loc 1 505 1 view .LVU377
 2155 000c 08BD     		pop	{r3, pc}
 2156              		.cfi_endproc
 2157              	.LFE109:
 2159              		.section	.text.lv_style_set_img_recolor_opa,"ax",%progbits
 2160              		.align	1
 2161              		.global	lv_style_set_img_recolor_opa
 2162              		.syntax unified
 2163              		.thumb
 2164              		.thumb_func
 2165              		.fpu softvfp
 2167              	lv_style_set_img_recolor_opa:
 2168              	.LVL189:
 2169              	.LFB110:
 506:Middlewares/lvgl/src/misc/lv_style_gen.c **** 
 507:Middlewares/lvgl/src/misc/lv_style_gen.c **** void lv_style_set_img_recolor_opa(lv_style_t * style, lv_opa_t value)
 508:Middlewares/lvgl/src/misc/lv_style_gen.c **** {
 2170              		.loc 1 508 1 is_stmt 1 view -0
 2171              		.cfi_startproc
 2172              		@ args = 0, pretend = 0, frame = 0
 2173              		@ frame_needed = 0, uses_anonymous_args = 0
 2174              		.loc 1 508 1 is_stmt 0 view .LVU379
 2175 0000 08B5     		push	{r3, lr}
 2176              	.LCFI63:
 2177              		.cfi_def_cfa_offset 8
 2178              		.cfi_offset 3, -8
 2179              		.cfi_offset 14, -4
 2180 0002 0A46     		mov	r2, r1
 509:Middlewares/lvgl/src/misc/lv_style_gen.c ****     lv_style_value_t v = {
 2181              		.loc 1 509 5 is_stmt 1 view .LVU380
 510:Middlewares/lvgl/src/misc/lv_style_gen.c ****         .num = (int32_t)value
 511:Middlewares/lvgl/src/misc/lv_style_gen.c ****     };
ARM GAS  /tmp/ccDOElG9.s 			page 46


 512:Middlewares/lvgl/src/misc/lv_style_gen.c ****     lv_style_set_prop(style, LV_STYLE_IMG_RECOLOR_OPA, v);
 2182              		.loc 1 512 5 view .LVU381
 2183 0004 4821     		movs	r1, #72
 2184              	.LVL190:
 2185              		.loc 1 512 5 is_stmt 0 view .LVU382
 2186 0006 FFF7FEFF 		bl	lv_style_set_prop
 2187              	.LVL191:
 513:Middlewares/lvgl/src/misc/lv_style_gen.c **** }
 2188              		.loc 1 513 1 view .LVU383
 2189 000a 08BD     		pop	{r3, pc}
 2190              		.cfi_endproc
 2191              	.LFE110:
 2193              		.section	.text.lv_style_set_outline_width,"ax",%progbits
 2194              		.align	1
 2195              		.global	lv_style_set_outline_width
 2196              		.syntax unified
 2197              		.thumb
 2198              		.thumb_func
 2199              		.fpu softvfp
 2201              	lv_style_set_outline_width:
 2202              	.LVL192:
 2203              	.LFB111:
 514:Middlewares/lvgl/src/misc/lv_style_gen.c **** 
 515:Middlewares/lvgl/src/misc/lv_style_gen.c **** void lv_style_set_outline_width(lv_style_t * style, lv_coord_t value)
 516:Middlewares/lvgl/src/misc/lv_style_gen.c **** {
 2204              		.loc 1 516 1 is_stmt 1 view -0
 2205              		.cfi_startproc
 2206              		@ args = 0, pretend = 0, frame = 0
 2207              		@ frame_needed = 0, uses_anonymous_args = 0
 2208              		.loc 1 516 1 is_stmt 0 view .LVU385
 2209 0000 08B5     		push	{r3, lr}
 2210              	.LCFI64:
 2211              		.cfi_def_cfa_offset 8
 2212              		.cfi_offset 3, -8
 2213              		.cfi_offset 14, -4
 2214 0002 0A46     		mov	r2, r1
 517:Middlewares/lvgl/src/misc/lv_style_gen.c ****     lv_style_value_t v = {
 2215              		.loc 1 517 5 is_stmt 1 view .LVU386
 518:Middlewares/lvgl/src/misc/lv_style_gen.c ****         .num = (int32_t)value
 519:Middlewares/lvgl/src/misc/lv_style_gen.c ****     };
 520:Middlewares/lvgl/src/misc/lv_style_gen.c ****     lv_style_set_prop(style, LV_STYLE_OUTLINE_WIDTH, v);
 2216              		.loc 1 520 5 view .LVU387
 2217 0004 40F63A01 		movw	r1, #2106
 2218              	.LVL193:
 2219              		.loc 1 520 5 is_stmt 0 view .LVU388
 2220 0008 FFF7FEFF 		bl	lv_style_set_prop
 2221              	.LVL194:
 521:Middlewares/lvgl/src/misc/lv_style_gen.c **** }
 2222              		.loc 1 521 1 view .LVU389
 2223 000c 08BD     		pop	{r3, pc}
 2224              		.cfi_endproc
 2225              	.LFE111:
 2227              		.section	.text.lv_style_set_outline_color,"ax",%progbits
 2228              		.align	1
 2229              		.global	lv_style_set_outline_color
 2230              		.syntax unified
 2231              		.thumb
ARM GAS  /tmp/ccDOElG9.s 			page 47


 2232              		.thumb_func
 2233              		.fpu softvfp
 2235              	lv_style_set_outline_color:
 2236              	.LVL195:
 2237              	.LFB112:
 522:Middlewares/lvgl/src/misc/lv_style_gen.c **** 
 523:Middlewares/lvgl/src/misc/lv_style_gen.c **** void lv_style_set_outline_color(lv_style_t * style, lv_color_t value)
 524:Middlewares/lvgl/src/misc/lv_style_gen.c **** {
 2238              		.loc 1 524 1 is_stmt 1 view -0
 2239              		.cfi_startproc
 2240              		@ args = 0, pretend = 0, frame = 0
 2241              		@ frame_needed = 0, uses_anonymous_args = 0
 2242              		.loc 1 524 1 is_stmt 0 view .LVU391
 2243 0000 08B5     		push	{r3, lr}
 2244              	.LCFI65:
 2245              		.cfi_def_cfa_offset 8
 2246              		.cfi_offset 3, -8
 2247              		.cfi_offset 14, -4
 525:Middlewares/lvgl/src/misc/lv_style_gen.c ****     lv_style_value_t v = {
 2248              		.loc 1 525 5 is_stmt 1 view .LVU392
 526:Middlewares/lvgl/src/misc/lv_style_gen.c ****         .color = value
 527:Middlewares/lvgl/src/misc/lv_style_gen.c ****     };
 528:Middlewares/lvgl/src/misc/lv_style_gen.c ****     lv_style_set_prop(style, LV_STYLE_OUTLINE_COLOR, v);
 2249              		.loc 1 528 5 view .LVU393
 2250 0002 8AB2     		uxth	r2, r1
 2251 0004 3B21     		movs	r1, #59
 2252              	.LVL196:
 2253              		.loc 1 528 5 is_stmt 0 view .LVU394
 2254 0006 FFF7FEFF 		bl	lv_style_set_prop
 2255              	.LVL197:
 529:Middlewares/lvgl/src/misc/lv_style_gen.c **** }
 2256              		.loc 1 529 1 view .LVU395
 2257 000a 08BD     		pop	{r3, pc}
 2258              		.cfi_endproc
 2259              	.LFE112:
 2261              		.section	.text.lv_style_set_outline_color_filtered,"ax",%progbits
 2262              		.align	1
 2263              		.global	lv_style_set_outline_color_filtered
 2264              		.syntax unified
 2265              		.thumb
 2266              		.thumb_func
 2267              		.fpu softvfp
 2269              	lv_style_set_outline_color_filtered:
 2270              	.LVL198:
 2271              	.LFB113:
 530:Middlewares/lvgl/src/misc/lv_style_gen.c **** 
 531:Middlewares/lvgl/src/misc/lv_style_gen.c **** void lv_style_set_outline_color_filtered(lv_style_t * style, lv_color_t value)
 532:Middlewares/lvgl/src/misc/lv_style_gen.c **** {
 2272              		.loc 1 532 1 is_stmt 1 view -0
 2273              		.cfi_startproc
 2274              		@ args = 0, pretend = 0, frame = 0
 2275              		@ frame_needed = 0, uses_anonymous_args = 0
 2276              		.loc 1 532 1 is_stmt 0 view .LVU397
 2277 0000 08B5     		push	{r3, lr}
 2278              	.LCFI66:
 2279              		.cfi_def_cfa_offset 8
 2280              		.cfi_offset 3, -8
ARM GAS  /tmp/ccDOElG9.s 			page 48


 2281              		.cfi_offset 14, -4
 533:Middlewares/lvgl/src/misc/lv_style_gen.c ****     lv_style_value_t v = {
 2282              		.loc 1 533 5 is_stmt 1 view .LVU398
 534:Middlewares/lvgl/src/misc/lv_style_gen.c ****         .color = value
 535:Middlewares/lvgl/src/misc/lv_style_gen.c ****     };
 536:Middlewares/lvgl/src/misc/lv_style_gen.c ****     lv_style_set_prop(style, LV_STYLE_OUTLINE_COLOR_FILTERED, v);
 2283              		.loc 1 536 5 view .LVU399
 2284 0002 8AB2     		uxth	r2, r1
 2285 0004 44F23B01 		movw	r1, #16443
 2286              	.LVL199:
 2287              		.loc 1 536 5 is_stmt 0 view .LVU400
 2288 0008 FFF7FEFF 		bl	lv_style_set_prop
 2289              	.LVL200:
 537:Middlewares/lvgl/src/misc/lv_style_gen.c **** }
 2290              		.loc 1 537 1 view .LVU401
 2291 000c 08BD     		pop	{r3, pc}
 2292              		.cfi_endproc
 2293              	.LFE113:
 2295              		.section	.text.lv_style_set_outline_opa,"ax",%progbits
 2296              		.align	1
 2297              		.global	lv_style_set_outline_opa
 2298              		.syntax unified
 2299              		.thumb
 2300              		.thumb_func
 2301              		.fpu softvfp
 2303              	lv_style_set_outline_opa:
 2304              	.LVL201:
 2305              	.LFB114:
 538:Middlewares/lvgl/src/misc/lv_style_gen.c **** 
 539:Middlewares/lvgl/src/misc/lv_style_gen.c **** void lv_style_set_outline_opa(lv_style_t * style, lv_opa_t value)
 540:Middlewares/lvgl/src/misc/lv_style_gen.c **** {
 2306              		.loc 1 540 1 is_stmt 1 view -0
 2307              		.cfi_startproc
 2308              		@ args = 0, pretend = 0, frame = 0
 2309              		@ frame_needed = 0, uses_anonymous_args = 0
 2310              		.loc 1 540 1 is_stmt 0 view .LVU403
 2311 0000 08B5     		push	{r3, lr}
 2312              	.LCFI67:
 2313              		.cfi_def_cfa_offset 8
 2314              		.cfi_offset 3, -8
 2315              		.cfi_offset 14, -4
 2316 0002 0A46     		mov	r2, r1
 541:Middlewares/lvgl/src/misc/lv_style_gen.c ****     lv_style_value_t v = {
 2317              		.loc 1 541 5 is_stmt 1 view .LVU404
 542:Middlewares/lvgl/src/misc/lv_style_gen.c ****         .num = (int32_t)value
 543:Middlewares/lvgl/src/misc/lv_style_gen.c ****     };
 544:Middlewares/lvgl/src/misc/lv_style_gen.c ****     lv_style_set_prop(style, LV_STYLE_OUTLINE_OPA, v);
 2318              		.loc 1 544 5 view .LVU405
 2319 0004 40F63C01 		movw	r1, #2108
 2320              	.LVL202:
 2321              		.loc 1 544 5 is_stmt 0 view .LVU406
 2322 0008 FFF7FEFF 		bl	lv_style_set_prop
 2323              	.LVL203:
 545:Middlewares/lvgl/src/misc/lv_style_gen.c **** }
 2324              		.loc 1 545 1 view .LVU407
 2325 000c 08BD     		pop	{r3, pc}
 2326              		.cfi_endproc
ARM GAS  /tmp/ccDOElG9.s 			page 49


 2327              	.LFE114:
 2329              		.section	.text.lv_style_set_outline_pad,"ax",%progbits
 2330              		.align	1
 2331              		.global	lv_style_set_outline_pad
 2332              		.syntax unified
 2333              		.thumb
 2334              		.thumb_func
 2335              		.fpu softvfp
 2337              	lv_style_set_outline_pad:
 2338              	.LVL204:
 2339              	.LFB115:
 546:Middlewares/lvgl/src/misc/lv_style_gen.c **** 
 547:Middlewares/lvgl/src/misc/lv_style_gen.c **** void lv_style_set_outline_pad(lv_style_t * style, lv_coord_t value)
 548:Middlewares/lvgl/src/misc/lv_style_gen.c **** {
 2340              		.loc 1 548 1 is_stmt 1 view -0
 2341              		.cfi_startproc
 2342              		@ args = 0, pretend = 0, frame = 0
 2343              		@ frame_needed = 0, uses_anonymous_args = 0
 2344              		.loc 1 548 1 is_stmt 0 view .LVU409
 2345 0000 08B5     		push	{r3, lr}
 2346              	.LCFI68:
 2347              		.cfi_def_cfa_offset 8
 2348              		.cfi_offset 3, -8
 2349              		.cfi_offset 14, -4
 2350 0002 0A46     		mov	r2, r1
 549:Middlewares/lvgl/src/misc/lv_style_gen.c ****     lv_style_value_t v = {
 2351              		.loc 1 549 5 is_stmt 1 view .LVU410
 550:Middlewares/lvgl/src/misc/lv_style_gen.c ****         .num = (int32_t)value
 551:Middlewares/lvgl/src/misc/lv_style_gen.c ****     };
 552:Middlewares/lvgl/src/misc/lv_style_gen.c ****     lv_style_set_prop(style, LV_STYLE_OUTLINE_PAD, v);
 2352              		.loc 1 552 5 view .LVU411
 2353 0004 40F63D01 		movw	r1, #2109
 2354              	.LVL205:
 2355              		.loc 1 552 5 is_stmt 0 view .LVU412
 2356 0008 FFF7FEFF 		bl	lv_style_set_prop
 2357              	.LVL206:
 553:Middlewares/lvgl/src/misc/lv_style_gen.c **** }
 2358              		.loc 1 553 1 view .LVU413
 2359 000c 08BD     		pop	{r3, pc}
 2360              		.cfi_endproc
 2361              	.LFE115:
 2363              		.section	.text.lv_style_set_shadow_width,"ax",%progbits
 2364              		.align	1
 2365              		.global	lv_style_set_shadow_width
 2366              		.syntax unified
 2367              		.thumb
 2368              		.thumb_func
 2369              		.fpu softvfp
 2371              	lv_style_set_shadow_width:
 2372              	.LVL207:
 2373              	.LFB116:
 554:Middlewares/lvgl/src/misc/lv_style_gen.c **** 
 555:Middlewares/lvgl/src/misc/lv_style_gen.c **** void lv_style_set_shadow_width(lv_style_t * style, lv_coord_t value)
 556:Middlewares/lvgl/src/misc/lv_style_gen.c **** {
 2374              		.loc 1 556 1 is_stmt 1 view -0
 2375              		.cfi_startproc
 2376              		@ args = 0, pretend = 0, frame = 0
ARM GAS  /tmp/ccDOElG9.s 			page 50


 2377              		@ frame_needed = 0, uses_anonymous_args = 0
 2378              		.loc 1 556 1 is_stmt 0 view .LVU415
 2379 0000 08B5     		push	{r3, lr}
 2380              	.LCFI69:
 2381              		.cfi_def_cfa_offset 8
 2382              		.cfi_offset 3, -8
 2383              		.cfi_offset 14, -4
 2384 0002 0A46     		mov	r2, r1
 557:Middlewares/lvgl/src/misc/lv_style_gen.c ****     lv_style_value_t v = {
 2385              		.loc 1 557 5 is_stmt 1 view .LVU416
 558:Middlewares/lvgl/src/misc/lv_style_gen.c ****         .num = (int32_t)value
 559:Middlewares/lvgl/src/misc/lv_style_gen.c ****     };
 560:Middlewares/lvgl/src/misc/lv_style_gen.c ****     lv_style_set_prop(style, LV_STYLE_SHADOW_WIDTH, v);
 2386              		.loc 1 560 5 view .LVU417
 2387 0004 4FF40461 		mov	r1, #2112
 2388              	.LVL208:
 2389              		.loc 1 560 5 is_stmt 0 view .LVU418
 2390 0008 FFF7FEFF 		bl	lv_style_set_prop
 2391              	.LVL209:
 561:Middlewares/lvgl/src/misc/lv_style_gen.c **** }
 2392              		.loc 1 561 1 view .LVU419
 2393 000c 08BD     		pop	{r3, pc}
 2394              		.cfi_endproc
 2395              	.LFE116:
 2397              		.section	.text.lv_style_set_shadow_ofs_x,"ax",%progbits
 2398              		.align	1
 2399              		.global	lv_style_set_shadow_ofs_x
 2400              		.syntax unified
 2401              		.thumb
 2402              		.thumb_func
 2403              		.fpu softvfp
 2405              	lv_style_set_shadow_ofs_x:
 2406              	.LVL210:
 2407              	.LFB117:
 562:Middlewares/lvgl/src/misc/lv_style_gen.c **** 
 563:Middlewares/lvgl/src/misc/lv_style_gen.c **** void lv_style_set_shadow_ofs_x(lv_style_t * style, lv_coord_t value)
 564:Middlewares/lvgl/src/misc/lv_style_gen.c **** {
 2408              		.loc 1 564 1 is_stmt 1 view -0
 2409              		.cfi_startproc
 2410              		@ args = 0, pretend = 0, frame = 0
 2411              		@ frame_needed = 0, uses_anonymous_args = 0
 2412              		.loc 1 564 1 is_stmt 0 view .LVU421
 2413 0000 08B5     		push	{r3, lr}
 2414              	.LCFI70:
 2415              		.cfi_def_cfa_offset 8
 2416              		.cfi_offset 3, -8
 2417              		.cfi_offset 14, -4
 2418 0002 0A46     		mov	r2, r1
 565:Middlewares/lvgl/src/misc/lv_style_gen.c ****     lv_style_value_t v = {
 2419              		.loc 1 565 5 is_stmt 1 view .LVU422
 566:Middlewares/lvgl/src/misc/lv_style_gen.c ****         .num = (int32_t)value
 567:Middlewares/lvgl/src/misc/lv_style_gen.c ****     };
 568:Middlewares/lvgl/src/misc/lv_style_gen.c ****     lv_style_set_prop(style, LV_STYLE_SHADOW_OFS_X, v);
 2420              		.loc 1 568 5 view .LVU423
 2421 0004 40F64101 		movw	r1, #2113
 2422              	.LVL211:
 2423              		.loc 1 568 5 is_stmt 0 view .LVU424
ARM GAS  /tmp/ccDOElG9.s 			page 51


 2424 0008 FFF7FEFF 		bl	lv_style_set_prop
 2425              	.LVL212:
 569:Middlewares/lvgl/src/misc/lv_style_gen.c **** }
 2426              		.loc 1 569 1 view .LVU425
 2427 000c 08BD     		pop	{r3, pc}
 2428              		.cfi_endproc
 2429              	.LFE117:
 2431              		.section	.text.lv_style_set_shadow_ofs_y,"ax",%progbits
 2432              		.align	1
 2433              		.global	lv_style_set_shadow_ofs_y
 2434              		.syntax unified
 2435              		.thumb
 2436              		.thumb_func
 2437              		.fpu softvfp
 2439              	lv_style_set_shadow_ofs_y:
 2440              	.LVL213:
 2441              	.LFB118:
 570:Middlewares/lvgl/src/misc/lv_style_gen.c **** 
 571:Middlewares/lvgl/src/misc/lv_style_gen.c **** void lv_style_set_shadow_ofs_y(lv_style_t * style, lv_coord_t value)
 572:Middlewares/lvgl/src/misc/lv_style_gen.c **** {
 2442              		.loc 1 572 1 is_stmt 1 view -0
 2443              		.cfi_startproc
 2444              		@ args = 0, pretend = 0, frame = 0
 2445              		@ frame_needed = 0, uses_anonymous_args = 0
 2446              		.loc 1 572 1 is_stmt 0 view .LVU427
 2447 0000 08B5     		push	{r3, lr}
 2448              	.LCFI71:
 2449              		.cfi_def_cfa_offset 8
 2450              		.cfi_offset 3, -8
 2451              		.cfi_offset 14, -4
 2452 0002 0A46     		mov	r2, r1
 573:Middlewares/lvgl/src/misc/lv_style_gen.c ****     lv_style_value_t v = {
 2453              		.loc 1 573 5 is_stmt 1 view .LVU428
 574:Middlewares/lvgl/src/misc/lv_style_gen.c ****         .num = (int32_t)value
 575:Middlewares/lvgl/src/misc/lv_style_gen.c ****     };
 576:Middlewares/lvgl/src/misc/lv_style_gen.c ****     lv_style_set_prop(style, LV_STYLE_SHADOW_OFS_Y, v);
 2454              		.loc 1 576 5 view .LVU429
 2455 0004 40F64201 		movw	r1, #2114
 2456              	.LVL214:
 2457              		.loc 1 576 5 is_stmt 0 view .LVU430
 2458 0008 FFF7FEFF 		bl	lv_style_set_prop
 2459              	.LVL215:
 577:Middlewares/lvgl/src/misc/lv_style_gen.c **** }
 2460              		.loc 1 577 1 view .LVU431
 2461 000c 08BD     		pop	{r3, pc}
 2462              		.cfi_endproc
 2463              	.LFE118:
 2465              		.section	.text.lv_style_set_shadow_spread,"ax",%progbits
 2466              		.align	1
 2467              		.global	lv_style_set_shadow_spread
 2468              		.syntax unified
 2469              		.thumb
 2470              		.thumb_func
 2471              		.fpu softvfp
 2473              	lv_style_set_shadow_spread:
 2474              	.LVL216:
 2475              	.LFB119:
ARM GAS  /tmp/ccDOElG9.s 			page 52


 578:Middlewares/lvgl/src/misc/lv_style_gen.c **** 
 579:Middlewares/lvgl/src/misc/lv_style_gen.c **** void lv_style_set_shadow_spread(lv_style_t * style, lv_coord_t value)
 580:Middlewares/lvgl/src/misc/lv_style_gen.c **** {
 2476              		.loc 1 580 1 is_stmt 1 view -0
 2477              		.cfi_startproc
 2478              		@ args = 0, pretend = 0, frame = 0
 2479              		@ frame_needed = 0, uses_anonymous_args = 0
 2480              		.loc 1 580 1 is_stmt 0 view .LVU433
 2481 0000 08B5     		push	{r3, lr}
 2482              	.LCFI72:
 2483              		.cfi_def_cfa_offset 8
 2484              		.cfi_offset 3, -8
 2485              		.cfi_offset 14, -4
 2486 0002 0A46     		mov	r2, r1
 581:Middlewares/lvgl/src/misc/lv_style_gen.c ****     lv_style_value_t v = {
 2487              		.loc 1 581 5 is_stmt 1 view .LVU434
 582:Middlewares/lvgl/src/misc/lv_style_gen.c ****         .num = (int32_t)value
 583:Middlewares/lvgl/src/misc/lv_style_gen.c ****     };
 584:Middlewares/lvgl/src/misc/lv_style_gen.c ****     lv_style_set_prop(style, LV_STYLE_SHADOW_SPREAD, v);
 2488              		.loc 1 584 5 view .LVU435
 2489 0004 40F64301 		movw	r1, #2115
 2490              	.LVL217:
 2491              		.loc 1 584 5 is_stmt 0 view .LVU436
 2492 0008 FFF7FEFF 		bl	lv_style_set_prop
 2493              	.LVL218:
 585:Middlewares/lvgl/src/misc/lv_style_gen.c **** }
 2494              		.loc 1 585 1 view .LVU437
 2495 000c 08BD     		pop	{r3, pc}
 2496              		.cfi_endproc
 2497              	.LFE119:
 2499              		.section	.text.lv_style_set_shadow_color,"ax",%progbits
 2500              		.align	1
 2501              		.global	lv_style_set_shadow_color
 2502              		.syntax unified
 2503              		.thumb
 2504              		.thumb_func
 2505              		.fpu softvfp
 2507              	lv_style_set_shadow_color:
 2508              	.LVL219:
 2509              	.LFB120:
 586:Middlewares/lvgl/src/misc/lv_style_gen.c **** 
 587:Middlewares/lvgl/src/misc/lv_style_gen.c **** void lv_style_set_shadow_color(lv_style_t * style, lv_color_t value)
 588:Middlewares/lvgl/src/misc/lv_style_gen.c **** {
 2510              		.loc 1 588 1 is_stmt 1 view -0
 2511              		.cfi_startproc
 2512              		@ args = 0, pretend = 0, frame = 0
 2513              		@ frame_needed = 0, uses_anonymous_args = 0
 2514              		.loc 1 588 1 is_stmt 0 view .LVU439
 2515 0000 08B5     		push	{r3, lr}
 2516              	.LCFI73:
 2517              		.cfi_def_cfa_offset 8
 2518              		.cfi_offset 3, -8
 2519              		.cfi_offset 14, -4
 589:Middlewares/lvgl/src/misc/lv_style_gen.c ****     lv_style_value_t v = {
 2520              		.loc 1 589 5 is_stmt 1 view .LVU440
 590:Middlewares/lvgl/src/misc/lv_style_gen.c ****         .color = value
 591:Middlewares/lvgl/src/misc/lv_style_gen.c ****     };
ARM GAS  /tmp/ccDOElG9.s 			page 53


 592:Middlewares/lvgl/src/misc/lv_style_gen.c ****     lv_style_set_prop(style, LV_STYLE_SHADOW_COLOR, v);
 2521              		.loc 1 592 5 view .LVU441
 2522 0002 8AB2     		uxth	r2, r1
 2523 0004 4421     		movs	r1, #68
 2524              	.LVL220:
 2525              		.loc 1 592 5 is_stmt 0 view .LVU442
 2526 0006 FFF7FEFF 		bl	lv_style_set_prop
 2527              	.LVL221:
 593:Middlewares/lvgl/src/misc/lv_style_gen.c **** }
 2528              		.loc 1 593 1 view .LVU443
 2529 000a 08BD     		pop	{r3, pc}
 2530              		.cfi_endproc
 2531              	.LFE120:
 2533              		.section	.text.lv_style_set_shadow_color_filtered,"ax",%progbits
 2534              		.align	1
 2535              		.global	lv_style_set_shadow_color_filtered
 2536              		.syntax unified
 2537              		.thumb
 2538              		.thumb_func
 2539              		.fpu softvfp
 2541              	lv_style_set_shadow_color_filtered:
 2542              	.LVL222:
 2543              	.LFB121:
 594:Middlewares/lvgl/src/misc/lv_style_gen.c **** 
 595:Middlewares/lvgl/src/misc/lv_style_gen.c **** void lv_style_set_shadow_color_filtered(lv_style_t * style, lv_color_t value)
 596:Middlewares/lvgl/src/misc/lv_style_gen.c **** {
 2544              		.loc 1 596 1 is_stmt 1 view -0
 2545              		.cfi_startproc
 2546              		@ args = 0, pretend = 0, frame = 0
 2547              		@ frame_needed = 0, uses_anonymous_args = 0
 2548              		.loc 1 596 1 is_stmt 0 view .LVU445
 2549 0000 08B5     		push	{r3, lr}
 2550              	.LCFI74:
 2551              		.cfi_def_cfa_offset 8
 2552              		.cfi_offset 3, -8
 2553              		.cfi_offset 14, -4
 597:Middlewares/lvgl/src/misc/lv_style_gen.c ****     lv_style_value_t v = {
 2554              		.loc 1 597 5 is_stmt 1 view .LVU446
 598:Middlewares/lvgl/src/misc/lv_style_gen.c ****         .color = value
 599:Middlewares/lvgl/src/misc/lv_style_gen.c ****     };
 600:Middlewares/lvgl/src/misc/lv_style_gen.c ****     lv_style_set_prop(style, LV_STYLE_SHADOW_COLOR_FILTERED, v);
 2555              		.loc 1 600 5 view .LVU447
 2556 0002 8AB2     		uxth	r2, r1
 2557 0004 44F24401 		movw	r1, #16452
 2558              	.LVL223:
 2559              		.loc 1 600 5 is_stmt 0 view .LVU448
 2560 0008 FFF7FEFF 		bl	lv_style_set_prop
 2561              	.LVL224:
 601:Middlewares/lvgl/src/misc/lv_style_gen.c **** }
 2562              		.loc 1 601 1 view .LVU449
 2563 000c 08BD     		pop	{r3, pc}
 2564              		.cfi_endproc
 2565              	.LFE121:
 2567              		.section	.text.lv_style_set_shadow_opa,"ax",%progbits
 2568              		.align	1
 2569              		.global	lv_style_set_shadow_opa
 2570              		.syntax unified
ARM GAS  /tmp/ccDOElG9.s 			page 54


 2571              		.thumb
 2572              		.thumb_func
 2573              		.fpu softvfp
 2575              	lv_style_set_shadow_opa:
 2576              	.LVL225:
 2577              	.LFB122:
 602:Middlewares/lvgl/src/misc/lv_style_gen.c **** 
 603:Middlewares/lvgl/src/misc/lv_style_gen.c **** void lv_style_set_shadow_opa(lv_style_t * style, lv_opa_t value)
 604:Middlewares/lvgl/src/misc/lv_style_gen.c **** {
 2578              		.loc 1 604 1 is_stmt 1 view -0
 2579              		.cfi_startproc
 2580              		@ args = 0, pretend = 0, frame = 0
 2581              		@ frame_needed = 0, uses_anonymous_args = 0
 2582              		.loc 1 604 1 is_stmt 0 view .LVU451
 2583 0000 08B5     		push	{r3, lr}
 2584              	.LCFI75:
 2585              		.cfi_def_cfa_offset 8
 2586              		.cfi_offset 3, -8
 2587              		.cfi_offset 14, -4
 2588 0002 0A46     		mov	r2, r1
 605:Middlewares/lvgl/src/misc/lv_style_gen.c ****     lv_style_value_t v = {
 2589              		.loc 1 605 5 is_stmt 1 view .LVU452
 606:Middlewares/lvgl/src/misc/lv_style_gen.c ****         .num = (int32_t)value
 607:Middlewares/lvgl/src/misc/lv_style_gen.c ****     };
 608:Middlewares/lvgl/src/misc/lv_style_gen.c ****     lv_style_set_prop(style, LV_STYLE_SHADOW_OPA, v);
 2590              		.loc 1 608 5 view .LVU453
 2591 0004 40F64501 		movw	r1, #2117
 2592              	.LVL226:
 2593              		.loc 1 608 5 is_stmt 0 view .LVU454
 2594 0008 FFF7FEFF 		bl	lv_style_set_prop
 2595              	.LVL227:
 609:Middlewares/lvgl/src/misc/lv_style_gen.c **** }
 2596              		.loc 1 609 1 view .LVU455
 2597 000c 08BD     		pop	{r3, pc}
 2598              		.cfi_endproc
 2599              	.LFE122:
 2601              		.section	.text.lv_style_set_line_width,"ax",%progbits
 2602              		.align	1
 2603              		.global	lv_style_set_line_width
 2604              		.syntax unified
 2605              		.thumb
 2606              		.thumb_func
 2607              		.fpu softvfp
 2609              	lv_style_set_line_width:
 2610              	.LVL228:
 2611              	.LFB123:
 610:Middlewares/lvgl/src/misc/lv_style_gen.c **** 
 611:Middlewares/lvgl/src/misc/lv_style_gen.c **** void lv_style_set_line_width(lv_style_t * style, lv_coord_t value)
 612:Middlewares/lvgl/src/misc/lv_style_gen.c **** {
 2612              		.loc 1 612 1 is_stmt 1 view -0
 2613              		.cfi_startproc
 2614              		@ args = 0, pretend = 0, frame = 0
 2615              		@ frame_needed = 0, uses_anonymous_args = 0
 2616              		.loc 1 612 1 is_stmt 0 view .LVU457
 2617 0000 08B5     		push	{r3, lr}
 2618              	.LCFI76:
 2619              		.cfi_def_cfa_offset 8
ARM GAS  /tmp/ccDOElG9.s 			page 55


 2620              		.cfi_offset 3, -8
 2621              		.cfi_offset 14, -4
 2622 0002 0A46     		mov	r2, r1
 613:Middlewares/lvgl/src/misc/lv_style_gen.c ****     lv_style_value_t v = {
 2623              		.loc 1 613 5 is_stmt 1 view .LVU458
 614:Middlewares/lvgl/src/misc/lv_style_gen.c ****         .num = (int32_t)value
 615:Middlewares/lvgl/src/misc/lv_style_gen.c ****     };
 616:Middlewares/lvgl/src/misc/lv_style_gen.c ****     lv_style_set_prop(style, LV_STYLE_LINE_WIDTH, v);
 2624              		.loc 1 616 5 view .LVU459
 2625 0004 40F64901 		movw	r1, #2121
 2626              	.LVL229:
 2627              		.loc 1 616 5 is_stmt 0 view .LVU460
 2628 0008 FFF7FEFF 		bl	lv_style_set_prop
 2629              	.LVL230:
 617:Middlewares/lvgl/src/misc/lv_style_gen.c **** }
 2630              		.loc 1 617 1 view .LVU461
 2631 000c 08BD     		pop	{r3, pc}
 2632              		.cfi_endproc
 2633              	.LFE123:
 2635              		.section	.text.lv_style_set_line_dash_width,"ax",%progbits
 2636              		.align	1
 2637              		.global	lv_style_set_line_dash_width
 2638              		.syntax unified
 2639              		.thumb
 2640              		.thumb_func
 2641              		.fpu softvfp
 2643              	lv_style_set_line_dash_width:
 2644              	.LVL231:
 2645              	.LFB124:
 618:Middlewares/lvgl/src/misc/lv_style_gen.c **** 
 619:Middlewares/lvgl/src/misc/lv_style_gen.c **** void lv_style_set_line_dash_width(lv_style_t * style, lv_coord_t value)
 620:Middlewares/lvgl/src/misc/lv_style_gen.c **** {
 2646              		.loc 1 620 1 is_stmt 1 view -0
 2647              		.cfi_startproc
 2648              		@ args = 0, pretend = 0, frame = 0
 2649              		@ frame_needed = 0, uses_anonymous_args = 0
 2650              		.loc 1 620 1 is_stmt 0 view .LVU463
 2651 0000 08B5     		push	{r3, lr}
 2652              	.LCFI77:
 2653              		.cfi_def_cfa_offset 8
 2654              		.cfi_offset 3, -8
 2655              		.cfi_offset 14, -4
 2656 0002 0A46     		mov	r2, r1
 621:Middlewares/lvgl/src/misc/lv_style_gen.c ****     lv_style_value_t v = {
 2657              		.loc 1 621 5 is_stmt 1 view .LVU464
 622:Middlewares/lvgl/src/misc/lv_style_gen.c ****         .num = (int32_t)value
 623:Middlewares/lvgl/src/misc/lv_style_gen.c ****     };
 624:Middlewares/lvgl/src/misc/lv_style_gen.c ****     lv_style_set_prop(style, LV_STYLE_LINE_DASH_WIDTH, v);
 2658              		.loc 1 624 5 view .LVU465
 2659 0004 4A21     		movs	r1, #74
 2660              	.LVL232:
 2661              		.loc 1 624 5 is_stmt 0 view .LVU466
 2662 0006 FFF7FEFF 		bl	lv_style_set_prop
 2663              	.LVL233:
 625:Middlewares/lvgl/src/misc/lv_style_gen.c **** }
 2664              		.loc 1 625 1 view .LVU467
 2665 000a 08BD     		pop	{r3, pc}
ARM GAS  /tmp/ccDOElG9.s 			page 56


 2666              		.cfi_endproc
 2667              	.LFE124:
 2669              		.section	.text.lv_style_set_line_dash_gap,"ax",%progbits
 2670              		.align	1
 2671              		.global	lv_style_set_line_dash_gap
 2672              		.syntax unified
 2673              		.thumb
 2674              		.thumb_func
 2675              		.fpu softvfp
 2677              	lv_style_set_line_dash_gap:
 2678              	.LVL234:
 2679              	.LFB125:
 626:Middlewares/lvgl/src/misc/lv_style_gen.c **** 
 627:Middlewares/lvgl/src/misc/lv_style_gen.c **** void lv_style_set_line_dash_gap(lv_style_t * style, lv_coord_t value)
 628:Middlewares/lvgl/src/misc/lv_style_gen.c **** {
 2680              		.loc 1 628 1 is_stmt 1 view -0
 2681              		.cfi_startproc
 2682              		@ args = 0, pretend = 0, frame = 0
 2683              		@ frame_needed = 0, uses_anonymous_args = 0
 2684              		.loc 1 628 1 is_stmt 0 view .LVU469
 2685 0000 08B5     		push	{r3, lr}
 2686              	.LCFI78:
 2687              		.cfi_def_cfa_offset 8
 2688              		.cfi_offset 3, -8
 2689              		.cfi_offset 14, -4
 2690 0002 0A46     		mov	r2, r1
 629:Middlewares/lvgl/src/misc/lv_style_gen.c ****     lv_style_value_t v = {
 2691              		.loc 1 629 5 is_stmt 1 view .LVU470
 630:Middlewares/lvgl/src/misc/lv_style_gen.c ****         .num = (int32_t)value
 631:Middlewares/lvgl/src/misc/lv_style_gen.c ****     };
 632:Middlewares/lvgl/src/misc/lv_style_gen.c ****     lv_style_set_prop(style, LV_STYLE_LINE_DASH_GAP, v);
 2692              		.loc 1 632 5 view .LVU471
 2693 0004 4B21     		movs	r1, #75
 2694              	.LVL235:
 2695              		.loc 1 632 5 is_stmt 0 view .LVU472
 2696 0006 FFF7FEFF 		bl	lv_style_set_prop
 2697              	.LVL236:
 633:Middlewares/lvgl/src/misc/lv_style_gen.c **** }
 2698              		.loc 1 633 1 view .LVU473
 2699 000a 08BD     		pop	{r3, pc}
 2700              		.cfi_endproc
 2701              	.LFE125:
 2703              		.section	.text.lv_style_set_line_rounded,"ax",%progbits
 2704              		.align	1
 2705              		.global	lv_style_set_line_rounded
 2706              		.syntax unified
 2707              		.thumb
 2708              		.thumb_func
 2709              		.fpu softvfp
 2711              	lv_style_set_line_rounded:
 2712              	.LVL237:
 2713              	.LFB126:
 634:Middlewares/lvgl/src/misc/lv_style_gen.c **** 
 635:Middlewares/lvgl/src/misc/lv_style_gen.c **** void lv_style_set_line_rounded(lv_style_t * style, lv_coord_t value)
 636:Middlewares/lvgl/src/misc/lv_style_gen.c **** {
 2714              		.loc 1 636 1 is_stmt 1 view -0
 2715              		.cfi_startproc
ARM GAS  /tmp/ccDOElG9.s 			page 57


 2716              		@ args = 0, pretend = 0, frame = 0
 2717              		@ frame_needed = 0, uses_anonymous_args = 0
 2718              		.loc 1 636 1 is_stmt 0 view .LVU475
 2719 0000 08B5     		push	{r3, lr}
 2720              	.LCFI79:
 2721              		.cfi_def_cfa_offset 8
 2722              		.cfi_offset 3, -8
 2723              		.cfi_offset 14, -4
 2724 0002 0A46     		mov	r2, r1
 637:Middlewares/lvgl/src/misc/lv_style_gen.c ****     lv_style_value_t v = {
 2725              		.loc 1 637 5 is_stmt 1 view .LVU476
 638:Middlewares/lvgl/src/misc/lv_style_gen.c ****         .num = (int32_t)value
 639:Middlewares/lvgl/src/misc/lv_style_gen.c ****     };
 640:Middlewares/lvgl/src/misc/lv_style_gen.c ****     lv_style_set_prop(style, LV_STYLE_LINE_ROUNDED, v);
 2726              		.loc 1 640 5 view .LVU477
 2727 0004 4C21     		movs	r1, #76
 2728              	.LVL238:
 2729              		.loc 1 640 5 is_stmt 0 view .LVU478
 2730 0006 FFF7FEFF 		bl	lv_style_set_prop
 2731              	.LVL239:
 641:Middlewares/lvgl/src/misc/lv_style_gen.c **** }
 2732              		.loc 1 641 1 view .LVU479
 2733 000a 08BD     		pop	{r3, pc}
 2734              		.cfi_endproc
 2735              	.LFE126:
 2737              		.section	.text.lv_style_set_line_color,"ax",%progbits
 2738              		.align	1
 2739              		.global	lv_style_set_line_color
 2740              		.syntax unified
 2741              		.thumb
 2742              		.thumb_func
 2743              		.fpu softvfp
 2745              	lv_style_set_line_color:
 2746              	.LVL240:
 2747              	.LFB127:
 642:Middlewares/lvgl/src/misc/lv_style_gen.c **** 
 643:Middlewares/lvgl/src/misc/lv_style_gen.c **** void lv_style_set_line_color(lv_style_t * style, lv_color_t value)
 644:Middlewares/lvgl/src/misc/lv_style_gen.c **** {
 2748              		.loc 1 644 1 is_stmt 1 view -0
 2749              		.cfi_startproc
 2750              		@ args = 0, pretend = 0, frame = 0
 2751              		@ frame_needed = 0, uses_anonymous_args = 0
 2752              		.loc 1 644 1 is_stmt 0 view .LVU481
 2753 0000 08B5     		push	{r3, lr}
 2754              	.LCFI80:
 2755              		.cfi_def_cfa_offset 8
 2756              		.cfi_offset 3, -8
 2757              		.cfi_offset 14, -4
 645:Middlewares/lvgl/src/misc/lv_style_gen.c ****     lv_style_value_t v = {
 2758              		.loc 1 645 5 is_stmt 1 view .LVU482
 646:Middlewares/lvgl/src/misc/lv_style_gen.c ****         .color = value
 647:Middlewares/lvgl/src/misc/lv_style_gen.c ****     };
 648:Middlewares/lvgl/src/misc/lv_style_gen.c ****     lv_style_set_prop(style, LV_STYLE_LINE_COLOR, v);
 2759              		.loc 1 648 5 view .LVU483
 2760 0002 8AB2     		uxth	r2, r1
 2761 0004 4D21     		movs	r1, #77
 2762              	.LVL241:
ARM GAS  /tmp/ccDOElG9.s 			page 58


 2763              		.loc 1 648 5 is_stmt 0 view .LVU484
 2764 0006 FFF7FEFF 		bl	lv_style_set_prop
 2765              	.LVL242:
 649:Middlewares/lvgl/src/misc/lv_style_gen.c **** }
 2766              		.loc 1 649 1 view .LVU485
 2767 000a 08BD     		pop	{r3, pc}
 2768              		.cfi_endproc
 2769              	.LFE127:
 2771              		.section	.text.lv_style_set_line_color_filtered,"ax",%progbits
 2772              		.align	1
 2773              		.global	lv_style_set_line_color_filtered
 2774              		.syntax unified
 2775              		.thumb
 2776              		.thumb_func
 2777              		.fpu softvfp
 2779              	lv_style_set_line_color_filtered:
 2780              	.LVL243:
 2781              	.LFB128:
 650:Middlewares/lvgl/src/misc/lv_style_gen.c **** 
 651:Middlewares/lvgl/src/misc/lv_style_gen.c **** void lv_style_set_line_color_filtered(lv_style_t * style, lv_color_t value)
 652:Middlewares/lvgl/src/misc/lv_style_gen.c **** {
 2782              		.loc 1 652 1 is_stmt 1 view -0
 2783              		.cfi_startproc
 2784              		@ args = 0, pretend = 0, frame = 0
 2785              		@ frame_needed = 0, uses_anonymous_args = 0
 2786              		.loc 1 652 1 is_stmt 0 view .LVU487
 2787 0000 08B5     		push	{r3, lr}
 2788              	.LCFI81:
 2789              		.cfi_def_cfa_offset 8
 2790              		.cfi_offset 3, -8
 2791              		.cfi_offset 14, -4
 653:Middlewares/lvgl/src/misc/lv_style_gen.c ****     lv_style_value_t v = {
 2792              		.loc 1 653 5 is_stmt 1 view .LVU488
 654:Middlewares/lvgl/src/misc/lv_style_gen.c ****         .color = value
 655:Middlewares/lvgl/src/misc/lv_style_gen.c ****     };
 656:Middlewares/lvgl/src/misc/lv_style_gen.c ****     lv_style_set_prop(style, LV_STYLE_LINE_COLOR_FILTERED, v);
 2793              		.loc 1 656 5 view .LVU489
 2794 0002 8AB2     		uxth	r2, r1
 2795 0004 44F24D01 		movw	r1, #16461
 2796              	.LVL244:
 2797              		.loc 1 656 5 is_stmt 0 view .LVU490
 2798 0008 FFF7FEFF 		bl	lv_style_set_prop
 2799              	.LVL245:
 657:Middlewares/lvgl/src/misc/lv_style_gen.c **** }
 2800              		.loc 1 657 1 view .LVU491
 2801 000c 08BD     		pop	{r3, pc}
 2802              		.cfi_endproc
 2803              	.LFE128:
 2805              		.section	.text.lv_style_set_line_opa,"ax",%progbits
 2806              		.align	1
 2807              		.global	lv_style_set_line_opa
 2808              		.syntax unified
 2809              		.thumb
 2810              		.thumb_func
 2811              		.fpu softvfp
 2813              	lv_style_set_line_opa:
 2814              	.LVL246:
ARM GAS  /tmp/ccDOElG9.s 			page 59


 2815              	.LFB129:
 658:Middlewares/lvgl/src/misc/lv_style_gen.c **** 
 659:Middlewares/lvgl/src/misc/lv_style_gen.c **** void lv_style_set_line_opa(lv_style_t * style, lv_opa_t value)
 660:Middlewares/lvgl/src/misc/lv_style_gen.c **** {
 2816              		.loc 1 660 1 is_stmt 1 view -0
 2817              		.cfi_startproc
 2818              		@ args = 0, pretend = 0, frame = 0
 2819              		@ frame_needed = 0, uses_anonymous_args = 0
 2820              		.loc 1 660 1 is_stmt 0 view .LVU493
 2821 0000 08B5     		push	{r3, lr}
 2822              	.LCFI82:
 2823              		.cfi_def_cfa_offset 8
 2824              		.cfi_offset 3, -8
 2825              		.cfi_offset 14, -4
 2826 0002 0A46     		mov	r2, r1
 661:Middlewares/lvgl/src/misc/lv_style_gen.c ****     lv_style_value_t v = {
 2827              		.loc 1 661 5 is_stmt 1 view .LVU494
 662:Middlewares/lvgl/src/misc/lv_style_gen.c ****         .num = (int32_t)value
 663:Middlewares/lvgl/src/misc/lv_style_gen.c ****     };
 664:Middlewares/lvgl/src/misc/lv_style_gen.c ****     lv_style_set_prop(style, LV_STYLE_LINE_OPA, v);
 2828              		.loc 1 664 5 view .LVU495
 2829 0004 4E21     		movs	r1, #78
 2830              	.LVL247:
 2831              		.loc 1 664 5 is_stmt 0 view .LVU496
 2832 0006 FFF7FEFF 		bl	lv_style_set_prop
 2833              	.LVL248:
 665:Middlewares/lvgl/src/misc/lv_style_gen.c **** }
 2834              		.loc 1 665 1 view .LVU497
 2835 000a 08BD     		pop	{r3, pc}
 2836              		.cfi_endproc
 2837              	.LFE129:
 2839              		.section	.text.lv_style_set_arc_width,"ax",%progbits
 2840              		.align	1
 2841              		.global	lv_style_set_arc_width
 2842              		.syntax unified
 2843              		.thumb
 2844              		.thumb_func
 2845              		.fpu softvfp
 2847              	lv_style_set_arc_width:
 2848              	.LVL249:
 2849              	.LFB130:
 666:Middlewares/lvgl/src/misc/lv_style_gen.c **** 
 667:Middlewares/lvgl/src/misc/lv_style_gen.c **** void lv_style_set_arc_width(lv_style_t * style, lv_coord_t value)
 668:Middlewares/lvgl/src/misc/lv_style_gen.c **** {
 2850              		.loc 1 668 1 is_stmt 1 view -0
 2851              		.cfi_startproc
 2852              		@ args = 0, pretend = 0, frame = 0
 2853              		@ frame_needed = 0, uses_anonymous_args = 0
 2854              		.loc 1 668 1 is_stmt 0 view .LVU499
 2855 0000 08B5     		push	{r3, lr}
 2856              	.LCFI83:
 2857              		.cfi_def_cfa_offset 8
 2858              		.cfi_offset 3, -8
 2859              		.cfi_offset 14, -4
 2860 0002 0A46     		mov	r2, r1
 669:Middlewares/lvgl/src/misc/lv_style_gen.c ****     lv_style_value_t v = {
 2861              		.loc 1 669 5 is_stmt 1 view .LVU500
ARM GAS  /tmp/ccDOElG9.s 			page 60


 670:Middlewares/lvgl/src/misc/lv_style_gen.c ****         .num = (int32_t)value
 671:Middlewares/lvgl/src/misc/lv_style_gen.c ****     };
 672:Middlewares/lvgl/src/misc/lv_style_gen.c ****     lv_style_set_prop(style, LV_STYLE_ARC_WIDTH, v);
 2862              		.loc 1 672 5 view .LVU501
 2863 0004 4FF40561 		mov	r1, #2128
 2864              	.LVL250:
 2865              		.loc 1 672 5 is_stmt 0 view .LVU502
 2866 0008 FFF7FEFF 		bl	lv_style_set_prop
 2867              	.LVL251:
 673:Middlewares/lvgl/src/misc/lv_style_gen.c **** }
 2868              		.loc 1 673 1 view .LVU503
 2869 000c 08BD     		pop	{r3, pc}
 2870              		.cfi_endproc
 2871              	.LFE130:
 2873              		.section	.text.lv_style_set_arc_rounded,"ax",%progbits
 2874              		.align	1
 2875              		.global	lv_style_set_arc_rounded
 2876              		.syntax unified
 2877              		.thumb
 2878              		.thumb_func
 2879              		.fpu softvfp
 2881              	lv_style_set_arc_rounded:
 2882              	.LVL252:
 2883              	.LFB131:
 674:Middlewares/lvgl/src/misc/lv_style_gen.c **** 
 675:Middlewares/lvgl/src/misc/lv_style_gen.c **** void lv_style_set_arc_rounded(lv_style_t * style, lv_coord_t value)
 676:Middlewares/lvgl/src/misc/lv_style_gen.c **** {
 2884              		.loc 1 676 1 is_stmt 1 view -0
 2885              		.cfi_startproc
 2886              		@ args = 0, pretend = 0, frame = 0
 2887              		@ frame_needed = 0, uses_anonymous_args = 0
 2888              		.loc 1 676 1 is_stmt 0 view .LVU505
 2889 0000 08B5     		push	{r3, lr}
 2890              	.LCFI84:
 2891              		.cfi_def_cfa_offset 8
 2892              		.cfi_offset 3, -8
 2893              		.cfi_offset 14, -4
 2894 0002 0A46     		mov	r2, r1
 677:Middlewares/lvgl/src/misc/lv_style_gen.c ****     lv_style_value_t v = {
 2895              		.loc 1 677 5 is_stmt 1 view .LVU506
 678:Middlewares/lvgl/src/misc/lv_style_gen.c ****         .num = (int32_t)value
 679:Middlewares/lvgl/src/misc/lv_style_gen.c ****     };
 680:Middlewares/lvgl/src/misc/lv_style_gen.c ****     lv_style_set_prop(style, LV_STYLE_ARC_ROUNDED, v);
 2896              		.loc 1 680 5 view .LVU507
 2897 0004 5121     		movs	r1, #81
 2898              	.LVL253:
 2899              		.loc 1 680 5 is_stmt 0 view .LVU508
 2900 0006 FFF7FEFF 		bl	lv_style_set_prop
 2901              	.LVL254:
 681:Middlewares/lvgl/src/misc/lv_style_gen.c **** }
 2902              		.loc 1 681 1 view .LVU509
 2903 000a 08BD     		pop	{r3, pc}
 2904              		.cfi_endproc
 2905              	.LFE131:
 2907              		.section	.text.lv_style_set_arc_color,"ax",%progbits
 2908              		.align	1
 2909              		.global	lv_style_set_arc_color
ARM GAS  /tmp/ccDOElG9.s 			page 61


 2910              		.syntax unified
 2911              		.thumb
 2912              		.thumb_func
 2913              		.fpu softvfp
 2915              	lv_style_set_arc_color:
 2916              	.LVL255:
 2917              	.LFB132:
 682:Middlewares/lvgl/src/misc/lv_style_gen.c **** 
 683:Middlewares/lvgl/src/misc/lv_style_gen.c **** void lv_style_set_arc_color(lv_style_t * style, lv_color_t value)
 684:Middlewares/lvgl/src/misc/lv_style_gen.c **** {
 2918              		.loc 1 684 1 is_stmt 1 view -0
 2919              		.cfi_startproc
 2920              		@ args = 0, pretend = 0, frame = 0
 2921              		@ frame_needed = 0, uses_anonymous_args = 0
 2922              		.loc 1 684 1 is_stmt 0 view .LVU511
 2923 0000 08B5     		push	{r3, lr}
 2924              	.LCFI85:
 2925              		.cfi_def_cfa_offset 8
 2926              		.cfi_offset 3, -8
 2927              		.cfi_offset 14, -4
 685:Middlewares/lvgl/src/misc/lv_style_gen.c ****     lv_style_value_t v = {
 2928              		.loc 1 685 5 is_stmt 1 view .LVU512
 686:Middlewares/lvgl/src/misc/lv_style_gen.c ****         .color = value
 687:Middlewares/lvgl/src/misc/lv_style_gen.c ****     };
 688:Middlewares/lvgl/src/misc/lv_style_gen.c ****     lv_style_set_prop(style, LV_STYLE_ARC_COLOR, v);
 2929              		.loc 1 688 5 view .LVU513
 2930 0002 8AB2     		uxth	r2, r1
 2931 0004 5221     		movs	r1, #82
 2932              	.LVL256:
 2933              		.loc 1 688 5 is_stmt 0 view .LVU514
 2934 0006 FFF7FEFF 		bl	lv_style_set_prop
 2935              	.LVL257:
 689:Middlewares/lvgl/src/misc/lv_style_gen.c **** }
 2936              		.loc 1 689 1 view .LVU515
 2937 000a 08BD     		pop	{r3, pc}
 2938              		.cfi_endproc
 2939              	.LFE132:
 2941              		.section	.text.lv_style_set_arc_color_filtered,"ax",%progbits
 2942              		.align	1
 2943              		.global	lv_style_set_arc_color_filtered
 2944              		.syntax unified
 2945              		.thumb
 2946              		.thumb_func
 2947              		.fpu softvfp
 2949              	lv_style_set_arc_color_filtered:
 2950              	.LVL258:
 2951              	.LFB133:
 690:Middlewares/lvgl/src/misc/lv_style_gen.c **** 
 691:Middlewares/lvgl/src/misc/lv_style_gen.c **** void lv_style_set_arc_color_filtered(lv_style_t * style, lv_color_t value)
 692:Middlewares/lvgl/src/misc/lv_style_gen.c **** {
 2952              		.loc 1 692 1 is_stmt 1 view -0
 2953              		.cfi_startproc
 2954              		@ args = 0, pretend = 0, frame = 0
 2955              		@ frame_needed = 0, uses_anonymous_args = 0
 2956              		.loc 1 692 1 is_stmt 0 view .LVU517
 2957 0000 08B5     		push	{r3, lr}
 2958              	.LCFI86:
ARM GAS  /tmp/ccDOElG9.s 			page 62


 2959              		.cfi_def_cfa_offset 8
 2960              		.cfi_offset 3, -8
 2961              		.cfi_offset 14, -4
 693:Middlewares/lvgl/src/misc/lv_style_gen.c ****     lv_style_value_t v = {
 2962              		.loc 1 693 5 is_stmt 1 view .LVU518
 694:Middlewares/lvgl/src/misc/lv_style_gen.c ****         .color = value
 695:Middlewares/lvgl/src/misc/lv_style_gen.c ****     };
 696:Middlewares/lvgl/src/misc/lv_style_gen.c ****     lv_style_set_prop(style, LV_STYLE_ARC_COLOR_FILTERED, v);
 2963              		.loc 1 696 5 view .LVU519
 2964 0002 8AB2     		uxth	r2, r1
 2965 0004 44F25201 		movw	r1, #16466
 2966              	.LVL259:
 2967              		.loc 1 696 5 is_stmt 0 view .LVU520
 2968 0008 FFF7FEFF 		bl	lv_style_set_prop
 2969              	.LVL260:
 697:Middlewares/lvgl/src/misc/lv_style_gen.c **** }
 2970              		.loc 1 697 1 view .LVU521
 2971 000c 08BD     		pop	{r3, pc}
 2972              		.cfi_endproc
 2973              	.LFE133:
 2975              		.section	.text.lv_style_set_arc_opa,"ax",%progbits
 2976              		.align	1
 2977              		.global	lv_style_set_arc_opa
 2978              		.syntax unified
 2979              		.thumb
 2980              		.thumb_func
 2981              		.fpu softvfp
 2983              	lv_style_set_arc_opa:
 2984              	.LVL261:
 2985              	.LFB134:
 698:Middlewares/lvgl/src/misc/lv_style_gen.c **** 
 699:Middlewares/lvgl/src/misc/lv_style_gen.c **** void lv_style_set_arc_opa(lv_style_t * style, lv_opa_t value)
 700:Middlewares/lvgl/src/misc/lv_style_gen.c **** {
 2986              		.loc 1 700 1 is_stmt 1 view -0
 2987              		.cfi_startproc
 2988              		@ args = 0, pretend = 0, frame = 0
 2989              		@ frame_needed = 0, uses_anonymous_args = 0
 2990              		.loc 1 700 1 is_stmt 0 view .LVU523
 2991 0000 08B5     		push	{r3, lr}
 2992              	.LCFI87:
 2993              		.cfi_def_cfa_offset 8
 2994              		.cfi_offset 3, -8
 2995              		.cfi_offset 14, -4
 2996 0002 0A46     		mov	r2, r1
 701:Middlewares/lvgl/src/misc/lv_style_gen.c ****     lv_style_value_t v = {
 2997              		.loc 1 701 5 is_stmt 1 view .LVU524
 702:Middlewares/lvgl/src/misc/lv_style_gen.c ****         .num = (int32_t)value
 703:Middlewares/lvgl/src/misc/lv_style_gen.c ****     };
 704:Middlewares/lvgl/src/misc/lv_style_gen.c ****     lv_style_set_prop(style, LV_STYLE_ARC_OPA, v);
 2998              		.loc 1 704 5 view .LVU525
 2999 0004 5321     		movs	r1, #83
 3000              	.LVL262:
 3001              		.loc 1 704 5 is_stmt 0 view .LVU526
 3002 0006 FFF7FEFF 		bl	lv_style_set_prop
 3003              	.LVL263:
 705:Middlewares/lvgl/src/misc/lv_style_gen.c **** }
 3004              		.loc 1 705 1 view .LVU527
ARM GAS  /tmp/ccDOElG9.s 			page 63


 3005 000a 08BD     		pop	{r3, pc}
 3006              		.cfi_endproc
 3007              	.LFE134:
 3009              		.section	.text.lv_style_set_arc_img_src,"ax",%progbits
 3010              		.align	1
 3011              		.global	lv_style_set_arc_img_src
 3012              		.syntax unified
 3013              		.thumb
 3014              		.thumb_func
 3015              		.fpu softvfp
 3017              	lv_style_set_arc_img_src:
 3018              	.LVL264:
 3019              	.LFB135:
 706:Middlewares/lvgl/src/misc/lv_style_gen.c **** 
 707:Middlewares/lvgl/src/misc/lv_style_gen.c **** void lv_style_set_arc_img_src(lv_style_t * style, const void * value)
 708:Middlewares/lvgl/src/misc/lv_style_gen.c **** {
 3020              		.loc 1 708 1 is_stmt 1 view -0
 3021              		.cfi_startproc
 3022              		@ args = 0, pretend = 0, frame = 0
 3023              		@ frame_needed = 0, uses_anonymous_args = 0
 3024              		.loc 1 708 1 is_stmt 0 view .LVU529
 3025 0000 08B5     		push	{r3, lr}
 3026              	.LCFI88:
 3027              		.cfi_def_cfa_offset 8
 3028              		.cfi_offset 3, -8
 3029              		.cfi_offset 14, -4
 3030 0002 0A46     		mov	r2, r1
 709:Middlewares/lvgl/src/misc/lv_style_gen.c ****     lv_style_value_t v = {
 3031              		.loc 1 709 5 is_stmt 1 view .LVU530
 710:Middlewares/lvgl/src/misc/lv_style_gen.c ****         .ptr = value
 711:Middlewares/lvgl/src/misc/lv_style_gen.c ****     };
 712:Middlewares/lvgl/src/misc/lv_style_gen.c ****     lv_style_set_prop(style, LV_STYLE_ARC_IMG_SRC, v);
 3032              		.loc 1 712 5 view .LVU531
 3033 0004 5421     		movs	r1, #84
 3034              	.LVL265:
 3035              		.loc 1 712 5 is_stmt 0 view .LVU532
 3036 0006 FFF7FEFF 		bl	lv_style_set_prop
 3037              	.LVL266:
 713:Middlewares/lvgl/src/misc/lv_style_gen.c **** }
 3038              		.loc 1 713 1 view .LVU533
 3039 000a 08BD     		pop	{r3, pc}
 3040              		.cfi_endproc
 3041              	.LFE135:
 3043              		.text
 3044              	.Letext0:
 3045              		.file 2 "/home/akinya/gcc-arm-none-eabi/arm-none-eabi/include/machine/_default_types.h"
 3046              		.file 3 "/home/akinya/gcc-arm-none-eabi/arm-none-eabi/include/sys/_stdint.h"
 3047              		.file 4 "Middlewares/lvgl/src/misc/../font/../misc/lv_area.h"
 3048              		.file 5 "Middlewares/lvgl/src/misc/../font/lv_font.h"
 3049              		.file 6 "Middlewares/lvgl/src/misc/lv_color.h"
 3050              		.file 7 "Middlewares/lvgl/src/misc/lv_anim.h"
 3051              		.file 8 "Middlewares/lvgl/src/misc/lv_txt.h"
 3052              		.file 9 "Middlewares/lvgl/src/misc/lv_bidi.h"
 3053              		.file 10 "Middlewares/lvgl/src/misc/lv_style.h"
ARM GAS  /tmp/ccDOElG9.s 			page 64

