ARM GAS  /tmp/ccj9m3on.s 			page 1


   1              		.cpu cortex-m3
   2              		.eabi_attribute 20, 1
   3              		.eabi_attribute 21, 1
   4              		.eabi_attribute 23, 3
   5              		.eabi_attribute 24, 1
   6              		.eabi_attribute 25, 1
   7              		.eabi_attribute 26, 1
   8              		.eabi_attribute 30, 1
   9              		.eabi_attribute 34, 1
  10              		.eabi_attribute 18, 4
  11              		.file	"lv_slider.c"
  12              		.text
  13              	.Ltext0:
  14              		.cfi_sections	.debug_frame
  15              		.section	.text.position_knob,"ax",%progbits
  16              		.align	1
  17              		.arch armv7-m
  18              		.syntax unified
  19              		.thumb
  20              		.thumb_func
  21              		.fpu softvfp
  23              	position_knob:
  24              	.LVL0:
  25              	.LFB167:
  26              		.file 1 "Middlewares/lvgl/src/widgets/lv_slider.c"
   1:Middlewares/lvgl/src/widgets/lv_slider.c **** /**
   2:Middlewares/lvgl/src/widgets/lv_slider.c ****  * @file lv_slider.c
   3:Middlewares/lvgl/src/widgets/lv_slider.c ****  *
   4:Middlewares/lvgl/src/widgets/lv_slider.c ****  */
   5:Middlewares/lvgl/src/widgets/lv_slider.c **** 
   6:Middlewares/lvgl/src/widgets/lv_slider.c **** /*********************
   7:Middlewares/lvgl/src/widgets/lv_slider.c ****  *      INCLUDES
   8:Middlewares/lvgl/src/widgets/lv_slider.c ****  *********************/
   9:Middlewares/lvgl/src/widgets/lv_slider.c **** #include "lv_slider.h"
  10:Middlewares/lvgl/src/widgets/lv_slider.c **** #if LV_USE_SLIDER != 0
  11:Middlewares/lvgl/src/widgets/lv_slider.c **** 
  12:Middlewares/lvgl/src/widgets/lv_slider.c **** #include "../misc/lv_assert.h"
  13:Middlewares/lvgl/src/widgets/lv_slider.c **** #include "../core/lv_group.h"
  14:Middlewares/lvgl/src/widgets/lv_slider.c **** #include "../core/lv_indev.h"
  15:Middlewares/lvgl/src/widgets/lv_slider.c **** #include "../draw/lv_draw.h"
  16:Middlewares/lvgl/src/widgets/lv_slider.c **** #include "../misc/lv_math.h"
  17:Middlewares/lvgl/src/widgets/lv_slider.c **** #include "../core/lv_disp.h"
  18:Middlewares/lvgl/src/widgets/lv_slider.c **** #include "lv_img.h"
  19:Middlewares/lvgl/src/widgets/lv_slider.c **** 
  20:Middlewares/lvgl/src/widgets/lv_slider.c **** /*********************
  21:Middlewares/lvgl/src/widgets/lv_slider.c ****  *      DEFINES
  22:Middlewares/lvgl/src/widgets/lv_slider.c ****  *********************/
  23:Middlewares/lvgl/src/widgets/lv_slider.c **** #define MY_CLASS &lv_slider_class
  24:Middlewares/lvgl/src/widgets/lv_slider.c **** 
  25:Middlewares/lvgl/src/widgets/lv_slider.c **** #define LV_SLIDER_KNOB_COORD(hor, is_rtl, area) (hor ? (is_rtl ? area.x1 : area.x2) : (is_rtl ? are
  26:Middlewares/lvgl/src/widgets/lv_slider.c **** 
  27:Middlewares/lvgl/src/widgets/lv_slider.c **** /**********************
  28:Middlewares/lvgl/src/widgets/lv_slider.c ****  *      TYPEDEFS
  29:Middlewares/lvgl/src/widgets/lv_slider.c ****  **********************/
  30:Middlewares/lvgl/src/widgets/lv_slider.c **** 
  31:Middlewares/lvgl/src/widgets/lv_slider.c **** /**********************
  32:Middlewares/lvgl/src/widgets/lv_slider.c ****  *  STATIC PROTOTYPES
ARM GAS  /tmp/ccj9m3on.s 			page 2


  33:Middlewares/lvgl/src/widgets/lv_slider.c ****  **********************/
  34:Middlewares/lvgl/src/widgets/lv_slider.c **** static void lv_slider_constructor(const lv_obj_class_t * class_p, lv_obj_t * obj);
  35:Middlewares/lvgl/src/widgets/lv_slider.c **** static void lv_slider_event(const lv_obj_class_t * class_p, lv_event_t * e);
  36:Middlewares/lvgl/src/widgets/lv_slider.c **** static void position_knob(lv_obj_t * obj, lv_area_t * knob_area, lv_coord_t knob_size, bool hor);
  37:Middlewares/lvgl/src/widgets/lv_slider.c **** static void draw_knob(lv_event_t * e);
  38:Middlewares/lvgl/src/widgets/lv_slider.c **** 
  39:Middlewares/lvgl/src/widgets/lv_slider.c **** /**********************
  40:Middlewares/lvgl/src/widgets/lv_slider.c ****  *  STATIC VARIABLES
  41:Middlewares/lvgl/src/widgets/lv_slider.c ****  **********************/
  42:Middlewares/lvgl/src/widgets/lv_slider.c **** const lv_obj_class_t lv_slider_class = {
  43:Middlewares/lvgl/src/widgets/lv_slider.c ****     .constructor_cb = lv_slider_constructor,
  44:Middlewares/lvgl/src/widgets/lv_slider.c ****     .event_cb = lv_slider_event,
  45:Middlewares/lvgl/src/widgets/lv_slider.c ****     .editable = LV_OBJ_CLASS_EDITABLE_TRUE,
  46:Middlewares/lvgl/src/widgets/lv_slider.c ****     .group_def = LV_OBJ_CLASS_GROUP_DEF_TRUE,
  47:Middlewares/lvgl/src/widgets/lv_slider.c ****     .instance_size = sizeof(lv_slider_t),
  48:Middlewares/lvgl/src/widgets/lv_slider.c ****     .base_class = &lv_bar_class
  49:Middlewares/lvgl/src/widgets/lv_slider.c **** };
  50:Middlewares/lvgl/src/widgets/lv_slider.c **** 
  51:Middlewares/lvgl/src/widgets/lv_slider.c **** /**********************
  52:Middlewares/lvgl/src/widgets/lv_slider.c ****  *      MACROS
  53:Middlewares/lvgl/src/widgets/lv_slider.c ****  **********************/
  54:Middlewares/lvgl/src/widgets/lv_slider.c **** 
  55:Middlewares/lvgl/src/widgets/lv_slider.c **** /**********************
  56:Middlewares/lvgl/src/widgets/lv_slider.c ****  *   GLOBAL FUNCTIONS
  57:Middlewares/lvgl/src/widgets/lv_slider.c ****  **********************/
  58:Middlewares/lvgl/src/widgets/lv_slider.c **** 
  59:Middlewares/lvgl/src/widgets/lv_slider.c **** lv_obj_t * lv_slider_create(lv_obj_t * parent)
  60:Middlewares/lvgl/src/widgets/lv_slider.c **** {
  61:Middlewares/lvgl/src/widgets/lv_slider.c ****     LV_LOG_INFO("begin")
  62:Middlewares/lvgl/src/widgets/lv_slider.c ****     lv_obj_t * obj = lv_obj_class_create_obj(MY_CLASS, parent);
  63:Middlewares/lvgl/src/widgets/lv_slider.c ****     lv_obj_class_init_obj(obj);
  64:Middlewares/lvgl/src/widgets/lv_slider.c ****     return obj;
  65:Middlewares/lvgl/src/widgets/lv_slider.c **** }
  66:Middlewares/lvgl/src/widgets/lv_slider.c **** 
  67:Middlewares/lvgl/src/widgets/lv_slider.c **** bool lv_slider_is_dragged(const lv_obj_t * obj)
  68:Middlewares/lvgl/src/widgets/lv_slider.c **** {
  69:Middlewares/lvgl/src/widgets/lv_slider.c ****     LV_ASSERT_OBJ(obj, MY_CLASS);
  70:Middlewares/lvgl/src/widgets/lv_slider.c ****     lv_slider_t * slider = (lv_slider_t *)obj;
  71:Middlewares/lvgl/src/widgets/lv_slider.c **** 
  72:Middlewares/lvgl/src/widgets/lv_slider.c ****     return slider->dragging ? true : false;
  73:Middlewares/lvgl/src/widgets/lv_slider.c **** }
  74:Middlewares/lvgl/src/widgets/lv_slider.c **** 
  75:Middlewares/lvgl/src/widgets/lv_slider.c **** /**********************
  76:Middlewares/lvgl/src/widgets/lv_slider.c ****  *   STATIC FUNCTIONS
  77:Middlewares/lvgl/src/widgets/lv_slider.c ****  **********************/
  78:Middlewares/lvgl/src/widgets/lv_slider.c **** 
  79:Middlewares/lvgl/src/widgets/lv_slider.c **** static void lv_slider_constructor(const lv_obj_class_t * class_p, lv_obj_t * obj)
  80:Middlewares/lvgl/src/widgets/lv_slider.c **** {
  81:Middlewares/lvgl/src/widgets/lv_slider.c ****     LV_UNUSED(class_p);
  82:Middlewares/lvgl/src/widgets/lv_slider.c ****     lv_slider_t * slider = (lv_slider_t *)obj;
  83:Middlewares/lvgl/src/widgets/lv_slider.c **** 
  84:Middlewares/lvgl/src/widgets/lv_slider.c ****     /*Initialize the allocated 'slider'*/
  85:Middlewares/lvgl/src/widgets/lv_slider.c ****     slider->value_to_set = NULL;
  86:Middlewares/lvgl/src/widgets/lv_slider.c ****     slider->dragging = 0;
  87:Middlewares/lvgl/src/widgets/lv_slider.c ****     slider->left_knob_focus = 0;
  88:Middlewares/lvgl/src/widgets/lv_slider.c **** 
  89:Middlewares/lvgl/src/widgets/lv_slider.c ****     lv_obj_clear_flag(obj, LV_OBJ_FLAG_SCROLL_CHAIN);
ARM GAS  /tmp/ccj9m3on.s 			page 3


  90:Middlewares/lvgl/src/widgets/lv_slider.c ****     lv_obj_clear_flag(obj, LV_OBJ_FLAG_SCROLLABLE);
  91:Middlewares/lvgl/src/widgets/lv_slider.c ****     lv_obj_set_ext_click_area(obj, LV_DPX(8));
  92:Middlewares/lvgl/src/widgets/lv_slider.c **** }
  93:Middlewares/lvgl/src/widgets/lv_slider.c **** 
  94:Middlewares/lvgl/src/widgets/lv_slider.c **** static void lv_slider_event(const lv_obj_class_t * class_p, lv_event_t * e)
  95:Middlewares/lvgl/src/widgets/lv_slider.c **** {
  96:Middlewares/lvgl/src/widgets/lv_slider.c ****     LV_UNUSED(class_p);
  97:Middlewares/lvgl/src/widgets/lv_slider.c **** 
  98:Middlewares/lvgl/src/widgets/lv_slider.c ****     lv_res_t res;
  99:Middlewares/lvgl/src/widgets/lv_slider.c **** 
 100:Middlewares/lvgl/src/widgets/lv_slider.c ****     /*Call the ancestor's event handler*/
 101:Middlewares/lvgl/src/widgets/lv_slider.c ****     res = lv_obj_event_base(MY_CLASS, e);
 102:Middlewares/lvgl/src/widgets/lv_slider.c ****     if(res != LV_RES_OK) return;
 103:Middlewares/lvgl/src/widgets/lv_slider.c **** 
 104:Middlewares/lvgl/src/widgets/lv_slider.c ****     lv_event_code_t code = lv_event_get_code(e);
 105:Middlewares/lvgl/src/widgets/lv_slider.c ****     lv_obj_t * obj = lv_event_get_target(e);
 106:Middlewares/lvgl/src/widgets/lv_slider.c ****     lv_slider_t * slider = (lv_slider_t *)obj;
 107:Middlewares/lvgl/src/widgets/lv_slider.c ****     lv_slider_mode_t type = lv_slider_get_mode(obj);
 108:Middlewares/lvgl/src/widgets/lv_slider.c **** 
 109:Middlewares/lvgl/src/widgets/lv_slider.c ****     /*Advanced hit testing: react only on dragging the knob(s)*/
 110:Middlewares/lvgl/src/widgets/lv_slider.c ****     if(code == LV_EVENT_HIT_TEST) {
 111:Middlewares/lvgl/src/widgets/lv_slider.c ****         lv_hit_test_info_t * info = lv_event_get_param(e);
 112:Middlewares/lvgl/src/widgets/lv_slider.c **** 
 113:Middlewares/lvgl/src/widgets/lv_slider.c ****         /*Ordinary slider: was the knob area hit?*/
 114:Middlewares/lvgl/src/widgets/lv_slider.c ****         info->res = _lv_area_is_point_on(&slider->right_knob_area, info->point, 0);
 115:Middlewares/lvgl/src/widgets/lv_slider.c **** 
 116:Middlewares/lvgl/src/widgets/lv_slider.c ****         /*There's still a change we have a hit, if we have another knob*/
 117:Middlewares/lvgl/src/widgets/lv_slider.c ****         if((info->res == false) && (type == LV_SLIDER_MODE_RANGE)) {
 118:Middlewares/lvgl/src/widgets/lv_slider.c ****             info->res = _lv_area_is_point_on(&slider->left_knob_area, info->point, 0);
 119:Middlewares/lvgl/src/widgets/lv_slider.c ****         }
 120:Middlewares/lvgl/src/widgets/lv_slider.c ****     }
 121:Middlewares/lvgl/src/widgets/lv_slider.c ****     else if(code == LV_EVENT_PRESSED) {
 122:Middlewares/lvgl/src/widgets/lv_slider.c ****         lv_obj_invalidate(obj);
 123:Middlewares/lvgl/src/widgets/lv_slider.c **** 
 124:Middlewares/lvgl/src/widgets/lv_slider.c ****         lv_point_t p;
 125:Middlewares/lvgl/src/widgets/lv_slider.c ****         slider->dragging = true;
 126:Middlewares/lvgl/src/widgets/lv_slider.c ****         if(type == LV_SLIDER_MODE_NORMAL || type == LV_SLIDER_MODE_SYMMETRICAL) {
 127:Middlewares/lvgl/src/widgets/lv_slider.c ****             slider->value_to_set = &slider->bar.cur_value;
 128:Middlewares/lvgl/src/widgets/lv_slider.c ****         }
 129:Middlewares/lvgl/src/widgets/lv_slider.c ****         else if(type == LV_SLIDER_MODE_RANGE) {
 130:Middlewares/lvgl/src/widgets/lv_slider.c ****             lv_indev_get_point(lv_indev_get_act(), &p);
 131:Middlewares/lvgl/src/widgets/lv_slider.c ****             bool hor = lv_obj_get_width(obj) >= lv_obj_get_height(obj);
 132:Middlewares/lvgl/src/widgets/lv_slider.c ****             lv_base_dir_t base_dir = lv_obj_get_style_base_dir(obj, LV_PART_MAIN);
 133:Middlewares/lvgl/src/widgets/lv_slider.c **** 
 134:Middlewares/lvgl/src/widgets/lv_slider.c ****             lv_coord_t dist_left, dist_right;
 135:Middlewares/lvgl/src/widgets/lv_slider.c ****             if(hor) {
 136:Middlewares/lvgl/src/widgets/lv_slider.c ****                 if((base_dir != LV_BASE_DIR_RTL && p.x > slider->right_knob_area.x2) || (base_dir =
 137:Middlewares/lvgl/src/widgets/lv_slider.c ****                                                                                       p.x < slider-
 138:Middlewares/lvgl/src/widgets/lv_slider.c ****                     slider->value_to_set = &slider->bar.cur_value;
 139:Middlewares/lvgl/src/widgets/lv_slider.c ****                 }
 140:Middlewares/lvgl/src/widgets/lv_slider.c ****                 else if((base_dir != LV_BASE_DIR_RTL && p.x < slider->left_knob_area.x1) || (base_d
 141:Middlewares/lvgl/src/widgets/lv_slider.c ****                                                                                           p.x > sli
 142:Middlewares/lvgl/src/widgets/lv_slider.c ****                     slider->value_to_set = &slider->bar.start_value;
 143:Middlewares/lvgl/src/widgets/lv_slider.c ****                 }
 144:Middlewares/lvgl/src/widgets/lv_slider.c ****                 else {
 145:Middlewares/lvgl/src/widgets/lv_slider.c ****                     /*Calculate the distance from each knob*/
 146:Middlewares/lvgl/src/widgets/lv_slider.c ****                     dist_left = LV_ABS((slider->left_knob_area.x1 + (slider->left_knob_area.x2 - sl
ARM GAS  /tmp/ccj9m3on.s 			page 4


 147:Middlewares/lvgl/src/widgets/lv_slider.c ****                     dist_right = LV_ABS((slider->right_knob_area.x1 + (slider->right_knob_area.x2 -
 148:Middlewares/lvgl/src/widgets/lv_slider.c **** 
 149:Middlewares/lvgl/src/widgets/lv_slider.c ****                     /*Use whichever one is closer*/
 150:Middlewares/lvgl/src/widgets/lv_slider.c ****                     if(dist_right < dist_left) {
 151:Middlewares/lvgl/src/widgets/lv_slider.c ****                         slider->value_to_set = &slider->bar.cur_value;
 152:Middlewares/lvgl/src/widgets/lv_slider.c ****                         slider->left_knob_focus = 0;
 153:Middlewares/lvgl/src/widgets/lv_slider.c ****                     }
 154:Middlewares/lvgl/src/widgets/lv_slider.c ****                     else {
 155:Middlewares/lvgl/src/widgets/lv_slider.c ****                         slider->value_to_set = &slider->bar.start_value;
 156:Middlewares/lvgl/src/widgets/lv_slider.c ****                         slider->left_knob_focus = 1;
 157:Middlewares/lvgl/src/widgets/lv_slider.c ****                     }
 158:Middlewares/lvgl/src/widgets/lv_slider.c ****                 }
 159:Middlewares/lvgl/src/widgets/lv_slider.c ****             }
 160:Middlewares/lvgl/src/widgets/lv_slider.c ****             else {
 161:Middlewares/lvgl/src/widgets/lv_slider.c ****                 if(p.y < slider->right_knob_area.y1) {
 162:Middlewares/lvgl/src/widgets/lv_slider.c ****                     slider->value_to_set = &slider->bar.cur_value;
 163:Middlewares/lvgl/src/widgets/lv_slider.c ****                 }
 164:Middlewares/lvgl/src/widgets/lv_slider.c ****                 else if(p.y > slider->left_knob_area.y2) {
 165:Middlewares/lvgl/src/widgets/lv_slider.c ****                     slider->value_to_set = &slider->bar.start_value;
 166:Middlewares/lvgl/src/widgets/lv_slider.c ****                 }
 167:Middlewares/lvgl/src/widgets/lv_slider.c ****                 else {
 168:Middlewares/lvgl/src/widgets/lv_slider.c ****                     /*Calculate the distance from each knob*/
 169:Middlewares/lvgl/src/widgets/lv_slider.c ****                     dist_left = LV_ABS((slider->left_knob_area.y1 + (slider->left_knob_area.y2 - sl
 170:Middlewares/lvgl/src/widgets/lv_slider.c ****                     dist_right = LV_ABS((slider->right_knob_area.y1 + (slider->right_knob_area.y2 -
 171:Middlewares/lvgl/src/widgets/lv_slider.c **** 
 172:Middlewares/lvgl/src/widgets/lv_slider.c ****                     /*Use whichever one is closer*/
 173:Middlewares/lvgl/src/widgets/lv_slider.c ****                     if(dist_right < dist_left) {
 174:Middlewares/lvgl/src/widgets/lv_slider.c ****                         slider->value_to_set = &slider->bar.cur_value;
 175:Middlewares/lvgl/src/widgets/lv_slider.c ****                         slider->left_knob_focus = 0;
 176:Middlewares/lvgl/src/widgets/lv_slider.c ****                     }
 177:Middlewares/lvgl/src/widgets/lv_slider.c ****                     else {
 178:Middlewares/lvgl/src/widgets/lv_slider.c ****                         slider->value_to_set = &slider->bar.start_value;
 179:Middlewares/lvgl/src/widgets/lv_slider.c ****                         slider->left_knob_focus = 1;
 180:Middlewares/lvgl/src/widgets/lv_slider.c ****                     }
 181:Middlewares/lvgl/src/widgets/lv_slider.c ****                 }
 182:Middlewares/lvgl/src/widgets/lv_slider.c ****             }
 183:Middlewares/lvgl/src/widgets/lv_slider.c ****         }
 184:Middlewares/lvgl/src/widgets/lv_slider.c ****     }
 185:Middlewares/lvgl/src/widgets/lv_slider.c ****     else if(code == LV_EVENT_PRESSING && slider->value_to_set != NULL) {
 186:Middlewares/lvgl/src/widgets/lv_slider.c ****         lv_indev_t * indev = lv_indev_get_act();
 187:Middlewares/lvgl/src/widgets/lv_slider.c ****         if(lv_indev_get_type(indev) != LV_INDEV_TYPE_POINTER) return;
 188:Middlewares/lvgl/src/widgets/lv_slider.c **** 
 189:Middlewares/lvgl/src/widgets/lv_slider.c ****         lv_point_t p;
 190:Middlewares/lvgl/src/widgets/lv_slider.c ****         lv_indev_get_point(indev, &p);
 191:Middlewares/lvgl/src/widgets/lv_slider.c ****         lv_base_dir_t base_dir = lv_obj_get_style_base_dir(obj, LV_PART_MAIN);
 192:Middlewares/lvgl/src/widgets/lv_slider.c **** 
 193:Middlewares/lvgl/src/widgets/lv_slider.c ****         lv_coord_t w = lv_obj_get_width(obj);
 194:Middlewares/lvgl/src/widgets/lv_slider.c ****         lv_coord_t h = lv_obj_get_height(obj);
 195:Middlewares/lvgl/src/widgets/lv_slider.c **** 
 196:Middlewares/lvgl/src/widgets/lv_slider.c ****         lv_coord_t bg_left = lv_obj_get_style_pad_left(obj,   LV_PART_MAIN);
 197:Middlewares/lvgl/src/widgets/lv_slider.c ****         lv_coord_t bg_right = lv_obj_get_style_pad_right(obj,  LV_PART_MAIN);
 198:Middlewares/lvgl/src/widgets/lv_slider.c ****         lv_coord_t bg_top = lv_obj_get_style_pad_top(obj,    LV_PART_MAIN);
 199:Middlewares/lvgl/src/widgets/lv_slider.c ****         lv_coord_t bg_bottom = lv_obj_get_style_pad_bottom(obj, LV_PART_MAIN);
 200:Middlewares/lvgl/src/widgets/lv_slider.c **** 
 201:Middlewares/lvgl/src/widgets/lv_slider.c ****         int32_t range = slider->bar.max_value - slider->bar.min_value;
 202:Middlewares/lvgl/src/widgets/lv_slider.c ****         int32_t new_value = 0;
 203:Middlewares/lvgl/src/widgets/lv_slider.c ****         int32_t real_max_value = slider->bar.max_value;
ARM GAS  /tmp/ccj9m3on.s 			page 5


 204:Middlewares/lvgl/src/widgets/lv_slider.c ****         int32_t real_min_value = slider->bar.min_value;
 205:Middlewares/lvgl/src/widgets/lv_slider.c **** 
 206:Middlewares/lvgl/src/widgets/lv_slider.c ****         if(w >= h) {
 207:Middlewares/lvgl/src/widgets/lv_slider.c ****             lv_coord_t indic_w = w - bg_left - bg_right;
 208:Middlewares/lvgl/src/widgets/lv_slider.c ****             if(base_dir == LV_BASE_DIR_RTL) {
 209:Middlewares/lvgl/src/widgets/lv_slider.c ****                 new_value = (obj->coords.x2 - bg_right) - p.x; /*Make the point relative to the ind
 210:Middlewares/lvgl/src/widgets/lv_slider.c ****             }
 211:Middlewares/lvgl/src/widgets/lv_slider.c ****             else {
 212:Middlewares/lvgl/src/widgets/lv_slider.c ****                 new_value = p.x - (obj->coords.x1 + bg_left); /*Make the point relative to the indi
 213:Middlewares/lvgl/src/widgets/lv_slider.c ****             }
 214:Middlewares/lvgl/src/widgets/lv_slider.c ****             new_value = (new_value * range) / indic_w;
 215:Middlewares/lvgl/src/widgets/lv_slider.c ****             new_value += slider->bar.min_value;
 216:Middlewares/lvgl/src/widgets/lv_slider.c ****         }
 217:Middlewares/lvgl/src/widgets/lv_slider.c ****         else {
 218:Middlewares/lvgl/src/widgets/lv_slider.c ****             lv_coord_t indic_h = h - bg_bottom - bg_top;
 219:Middlewares/lvgl/src/widgets/lv_slider.c ****             new_value = p.y - (obj->coords.y2 + bg_bottom); /*Make the point relative to the indica
 220:Middlewares/lvgl/src/widgets/lv_slider.c ****             new_value = (-new_value * range) / indic_h;
 221:Middlewares/lvgl/src/widgets/lv_slider.c ****             new_value += slider->bar.min_value;
 222:Middlewares/lvgl/src/widgets/lv_slider.c **** 
 223:Middlewares/lvgl/src/widgets/lv_slider.c ****         }
 224:Middlewares/lvgl/src/widgets/lv_slider.c **** 
 225:Middlewares/lvgl/src/widgets/lv_slider.c ****         /*Figure out the min. and max. for this mode*/
 226:Middlewares/lvgl/src/widgets/lv_slider.c ****         if(slider->value_to_set == &slider->bar.start_value) {
 227:Middlewares/lvgl/src/widgets/lv_slider.c ****             real_max_value = slider->bar.cur_value;
 228:Middlewares/lvgl/src/widgets/lv_slider.c ****         }
 229:Middlewares/lvgl/src/widgets/lv_slider.c ****         else {
 230:Middlewares/lvgl/src/widgets/lv_slider.c ****             real_min_value = slider->bar.start_value;
 231:Middlewares/lvgl/src/widgets/lv_slider.c ****         }
 232:Middlewares/lvgl/src/widgets/lv_slider.c **** 
 233:Middlewares/lvgl/src/widgets/lv_slider.c ****         if(new_value < real_min_value) new_value = real_min_value;
 234:Middlewares/lvgl/src/widgets/lv_slider.c ****         else if(new_value > real_max_value) new_value = real_max_value;
 235:Middlewares/lvgl/src/widgets/lv_slider.c ****         if(*slider->value_to_set != new_value) {
 236:Middlewares/lvgl/src/widgets/lv_slider.c ****             *slider->value_to_set = new_value;
 237:Middlewares/lvgl/src/widgets/lv_slider.c ****             lv_obj_invalidate(obj);
 238:Middlewares/lvgl/src/widgets/lv_slider.c ****             res = lv_event_send(obj, LV_EVENT_VALUE_CHANGED, NULL);
 239:Middlewares/lvgl/src/widgets/lv_slider.c ****             if(res != LV_RES_OK) return;
 240:Middlewares/lvgl/src/widgets/lv_slider.c ****         }
 241:Middlewares/lvgl/src/widgets/lv_slider.c **** 
 242:Middlewares/lvgl/src/widgets/lv_slider.c ****     }
 243:Middlewares/lvgl/src/widgets/lv_slider.c ****     else if(code == LV_EVENT_RELEASED || code == LV_EVENT_PRESS_LOST) {
 244:Middlewares/lvgl/src/widgets/lv_slider.c ****         slider->dragging = false;
 245:Middlewares/lvgl/src/widgets/lv_slider.c ****         slider->value_to_set = NULL;
 246:Middlewares/lvgl/src/widgets/lv_slider.c **** 
 247:Middlewares/lvgl/src/widgets/lv_slider.c ****         lv_obj_invalidate(obj);
 248:Middlewares/lvgl/src/widgets/lv_slider.c **** 
 249:Middlewares/lvgl/src/widgets/lv_slider.c ****         /*Leave edit mode if released. (No need to wait for LONG_PRESS)*/
 250:Middlewares/lvgl/src/widgets/lv_slider.c ****         lv_group_t * g   = lv_obj_get_group(obj);
 251:Middlewares/lvgl/src/widgets/lv_slider.c ****         bool editing     = lv_group_get_editing(g);
 252:Middlewares/lvgl/src/widgets/lv_slider.c ****         lv_indev_type_t indev_type = lv_indev_get_type(lv_indev_get_act());
 253:Middlewares/lvgl/src/widgets/lv_slider.c ****         if(indev_type == LV_INDEV_TYPE_ENCODER) {
 254:Middlewares/lvgl/src/widgets/lv_slider.c ****             if(editing) {
 255:Middlewares/lvgl/src/widgets/lv_slider.c ****                 if(lv_slider_get_mode(obj) == LV_SLIDER_MODE_RANGE) {
 256:Middlewares/lvgl/src/widgets/lv_slider.c ****                     if(slider->left_knob_focus == 0) slider->left_knob_focus = 1;
 257:Middlewares/lvgl/src/widgets/lv_slider.c ****                     else {
 258:Middlewares/lvgl/src/widgets/lv_slider.c ****                         slider->left_knob_focus = 0;
 259:Middlewares/lvgl/src/widgets/lv_slider.c ****                         lv_group_set_editing(g, false);
 260:Middlewares/lvgl/src/widgets/lv_slider.c ****                     }
ARM GAS  /tmp/ccj9m3on.s 			page 6


 261:Middlewares/lvgl/src/widgets/lv_slider.c ****                 }
 262:Middlewares/lvgl/src/widgets/lv_slider.c ****                 else {
 263:Middlewares/lvgl/src/widgets/lv_slider.c ****                     lv_group_set_editing(g, false);
 264:Middlewares/lvgl/src/widgets/lv_slider.c ****                 }
 265:Middlewares/lvgl/src/widgets/lv_slider.c ****             }
 266:Middlewares/lvgl/src/widgets/lv_slider.c ****         }
 267:Middlewares/lvgl/src/widgets/lv_slider.c **** 
 268:Middlewares/lvgl/src/widgets/lv_slider.c ****     }
 269:Middlewares/lvgl/src/widgets/lv_slider.c ****     else if(code == LV_EVENT_FOCUSED) {
 270:Middlewares/lvgl/src/widgets/lv_slider.c ****         lv_indev_type_t indev_type = lv_indev_get_type(lv_indev_get_act());
 271:Middlewares/lvgl/src/widgets/lv_slider.c ****         if(indev_type == LV_INDEV_TYPE_ENCODER || indev_type == LV_INDEV_TYPE_KEYPAD) {
 272:Middlewares/lvgl/src/widgets/lv_slider.c ****             slider->left_knob_focus = 0;
 273:Middlewares/lvgl/src/widgets/lv_slider.c ****         }
 274:Middlewares/lvgl/src/widgets/lv_slider.c ****     }
 275:Middlewares/lvgl/src/widgets/lv_slider.c ****     else if(code == LV_EVENT_SIZE_CHANGED) {
 276:Middlewares/lvgl/src/widgets/lv_slider.c ****         lv_obj_refresh_ext_draw_size(obj);
 277:Middlewares/lvgl/src/widgets/lv_slider.c ****     }
 278:Middlewares/lvgl/src/widgets/lv_slider.c ****     else if(code == LV_EVENT_REFR_EXT_DRAW_SIZE) {
 279:Middlewares/lvgl/src/widgets/lv_slider.c ****         lv_coord_t knob_left = lv_obj_get_style_pad_left(obj, LV_PART_KNOB);
 280:Middlewares/lvgl/src/widgets/lv_slider.c ****         lv_coord_t knob_right = lv_obj_get_style_pad_right(obj,LV_PART_KNOB);
 281:Middlewares/lvgl/src/widgets/lv_slider.c ****         lv_coord_t knob_top = lv_obj_get_style_pad_top(obj, LV_PART_KNOB);
 282:Middlewares/lvgl/src/widgets/lv_slider.c ****         lv_coord_t knob_bottom = lv_obj_get_style_pad_bottom(obj, LV_PART_KNOB);
 283:Middlewares/lvgl/src/widgets/lv_slider.c **** 
 284:Middlewares/lvgl/src/widgets/lv_slider.c ****         /*The smaller size is the knob diameter*/
 285:Middlewares/lvgl/src/widgets/lv_slider.c ****         lv_coord_t zoom = lv_obj_get_style_transform_zoom(obj, LV_PART_KNOB);
 286:Middlewares/lvgl/src/widgets/lv_slider.c ****         lv_coord_t trans_w = lv_obj_get_style_transform_width(obj, LV_PART_KNOB);
 287:Middlewares/lvgl/src/widgets/lv_slider.c ****         lv_coord_t trans_h = lv_obj_get_style_transform_height(obj, LV_PART_KNOB);
 288:Middlewares/lvgl/src/widgets/lv_slider.c ****         lv_coord_t knob_size = LV_MIN(lv_obj_get_width(obj) + 2 * trans_w, lv_obj_get_height(obj) +
 289:Middlewares/lvgl/src/widgets/lv_slider.c ****         knob_size = (knob_size * zoom) >> 8;
 290:Middlewares/lvgl/src/widgets/lv_slider.c ****         knob_size += LV_MAX(LV_MAX(knob_left, knob_right), LV_MAX(knob_bottom, knob_top));
 291:Middlewares/lvgl/src/widgets/lv_slider.c ****         knob_size += 2;         /*For rounding error*/
 292:Middlewares/lvgl/src/widgets/lv_slider.c ****         knob_size += lv_obj_calculate_ext_draw_size(obj, LV_PART_KNOB);
 293:Middlewares/lvgl/src/widgets/lv_slider.c **** 
 294:Middlewares/lvgl/src/widgets/lv_slider.c ****         /*Indic. size is handled by bar*/
 295:Middlewares/lvgl/src/widgets/lv_slider.c ****         lv_coord_t * s = lv_event_get_param(e);
 296:Middlewares/lvgl/src/widgets/lv_slider.c ****         *s  = LV_MAX(*s, knob_size);
 297:Middlewares/lvgl/src/widgets/lv_slider.c **** 
 298:Middlewares/lvgl/src/widgets/lv_slider.c ****     }
 299:Middlewares/lvgl/src/widgets/lv_slider.c ****     else if(code == LV_EVENT_KEY) {
 300:Middlewares/lvgl/src/widgets/lv_slider.c ****         char c = *((char *)lv_event_get_param(e));
 301:Middlewares/lvgl/src/widgets/lv_slider.c **** 
 302:Middlewares/lvgl/src/widgets/lv_slider.c ****         if(c == LV_KEY_RIGHT || c == LV_KEY_UP) {
 303:Middlewares/lvgl/src/widgets/lv_slider.c ****             if(!slider->left_knob_focus) lv_slider_set_value(obj, lv_slider_get_value(obj) + 1, LV_
 304:Middlewares/lvgl/src/widgets/lv_slider.c ****             else lv_slider_set_left_value(obj, lv_slider_get_left_value(obj) + 1, LV_ANIM_ON);
 305:Middlewares/lvgl/src/widgets/lv_slider.c **** 
 306:Middlewares/lvgl/src/widgets/lv_slider.c ****             res = lv_event_send(obj, LV_EVENT_VALUE_CHANGED, NULL);
 307:Middlewares/lvgl/src/widgets/lv_slider.c ****             if(res != LV_RES_OK) return;
 308:Middlewares/lvgl/src/widgets/lv_slider.c ****         }
 309:Middlewares/lvgl/src/widgets/lv_slider.c ****         else if(c == LV_KEY_LEFT || c == LV_KEY_DOWN) {
 310:Middlewares/lvgl/src/widgets/lv_slider.c ****             if(!slider->left_knob_focus) lv_slider_set_value(obj, lv_slider_get_value(obj) - 1, LV_
 311:Middlewares/lvgl/src/widgets/lv_slider.c ****             else lv_slider_set_left_value(obj, lv_slider_get_left_value(obj) - 1, LV_ANIM_ON);
 312:Middlewares/lvgl/src/widgets/lv_slider.c **** 
 313:Middlewares/lvgl/src/widgets/lv_slider.c ****             res = lv_event_send(obj, LV_EVENT_VALUE_CHANGED, NULL);
 314:Middlewares/lvgl/src/widgets/lv_slider.c ****             if(res != LV_RES_OK) return;
 315:Middlewares/lvgl/src/widgets/lv_slider.c ****         }
 316:Middlewares/lvgl/src/widgets/lv_slider.c ****     } else if(code == LV_EVENT_DRAW_MAIN) {
 317:Middlewares/lvgl/src/widgets/lv_slider.c ****         draw_knob(e);
ARM GAS  /tmp/ccj9m3on.s 			page 7


 318:Middlewares/lvgl/src/widgets/lv_slider.c ****     }
 319:Middlewares/lvgl/src/widgets/lv_slider.c **** }
 320:Middlewares/lvgl/src/widgets/lv_slider.c **** 
 321:Middlewares/lvgl/src/widgets/lv_slider.c **** static void draw_knob(lv_event_t * e)
 322:Middlewares/lvgl/src/widgets/lv_slider.c **** {
 323:Middlewares/lvgl/src/widgets/lv_slider.c ****     lv_obj_t * obj = lv_event_get_target(e);
 324:Middlewares/lvgl/src/widgets/lv_slider.c ****     lv_slider_t * slider = (lv_slider_t *)obj;
 325:Middlewares/lvgl/src/widgets/lv_slider.c ****     const lv_area_t * clip_area = lv_event_get_param(e);
 326:Middlewares/lvgl/src/widgets/lv_slider.c ****     lv_base_dir_t base_dir = lv_obj_get_style_base_dir(obj, LV_PART_MAIN);
 327:Middlewares/lvgl/src/widgets/lv_slider.c **** 
 328:Middlewares/lvgl/src/widgets/lv_slider.c ****     lv_coord_t objw = lv_obj_get_width(obj);
 329:Middlewares/lvgl/src/widgets/lv_slider.c ****     lv_coord_t objh = lv_obj_get_height(obj);
 330:Middlewares/lvgl/src/widgets/lv_slider.c ****     bool hor = objw >= objh ? true : false;
 331:Middlewares/lvgl/src/widgets/lv_slider.c ****     lv_coord_t knob_size = hor ? objh : objw;
 332:Middlewares/lvgl/src/widgets/lv_slider.c ****     bool sym = false;
 333:Middlewares/lvgl/src/widgets/lv_slider.c ****     if(slider->bar.mode == LV_BAR_MODE_SYMMETRICAL && slider->bar.min_value < 0 && slider->bar.max_
 334:Middlewares/lvgl/src/widgets/lv_slider.c **** 
 335:Middlewares/lvgl/src/widgets/lv_slider.c ****     lv_area_t knob_area;
 336:Middlewares/lvgl/src/widgets/lv_slider.c **** 
 337:Middlewares/lvgl/src/widgets/lv_slider.c ****     /*Horizontal*/
 338:Middlewares/lvgl/src/widgets/lv_slider.c ****     if(hor) {
 339:Middlewares/lvgl/src/widgets/lv_slider.c ****         if(!sym) {
 340:Middlewares/lvgl/src/widgets/lv_slider.c ****             knob_area.x1 = LV_SLIDER_KNOB_COORD(hor, base_dir == LV_BASE_DIR_RTL, slider->bar.indic
 341:Middlewares/lvgl/src/widgets/lv_slider.c ****         }
 342:Middlewares/lvgl/src/widgets/lv_slider.c ****         else {
 343:Middlewares/lvgl/src/widgets/lv_slider.c ****             if(slider->bar.cur_value >= 0) {
 344:Middlewares/lvgl/src/widgets/lv_slider.c ****                 knob_area.x1 = LV_SLIDER_KNOB_COORD(hor, base_dir == LV_BASE_DIR_RTL, slider->bar.i
 345:Middlewares/lvgl/src/widgets/lv_slider.c ****             }
 346:Middlewares/lvgl/src/widgets/lv_slider.c ****             else {
 347:Middlewares/lvgl/src/widgets/lv_slider.c ****                 knob_area.x1 = LV_SLIDER_KNOB_COORD(hor, base_dir != LV_BASE_DIR_RTL, slider->bar.i
 348:Middlewares/lvgl/src/widgets/lv_slider.c ****             }
 349:Middlewares/lvgl/src/widgets/lv_slider.c ****         }
 350:Middlewares/lvgl/src/widgets/lv_slider.c ****     }
 351:Middlewares/lvgl/src/widgets/lv_slider.c ****     /*Vertical*/
 352:Middlewares/lvgl/src/widgets/lv_slider.c ****     else {
 353:Middlewares/lvgl/src/widgets/lv_slider.c ****         if(!sym) {
 354:Middlewares/lvgl/src/widgets/lv_slider.c ****             knob_area.y1 = slider->bar.indic_area.y1;
 355:Middlewares/lvgl/src/widgets/lv_slider.c ****         }
 356:Middlewares/lvgl/src/widgets/lv_slider.c ****         else {
 357:Middlewares/lvgl/src/widgets/lv_slider.c ****             if(slider->bar.cur_value >= 0) {
 358:Middlewares/lvgl/src/widgets/lv_slider.c ****                 knob_area.y1 = slider->bar.indic_area.y1;
 359:Middlewares/lvgl/src/widgets/lv_slider.c ****             }
 360:Middlewares/lvgl/src/widgets/lv_slider.c ****             else {
 361:Middlewares/lvgl/src/widgets/lv_slider.c ****                 knob_area.y1 = slider->bar.indic_area.y2;
 362:Middlewares/lvgl/src/widgets/lv_slider.c ****             }
 363:Middlewares/lvgl/src/widgets/lv_slider.c ****         }
 364:Middlewares/lvgl/src/widgets/lv_slider.c ****     }
 365:Middlewares/lvgl/src/widgets/lv_slider.c **** 
 366:Middlewares/lvgl/src/widgets/lv_slider.c ****     lv_draw_rect_dsc_t knob_rect_dsc;
 367:Middlewares/lvgl/src/widgets/lv_slider.c ****     lv_draw_rect_dsc_init(&knob_rect_dsc);
 368:Middlewares/lvgl/src/widgets/lv_slider.c ****     lv_obj_init_draw_rect_dsc(obj, LV_PART_KNOB, &knob_rect_dsc);
 369:Middlewares/lvgl/src/widgets/lv_slider.c **** 
 370:Middlewares/lvgl/src/widgets/lv_slider.c ****     position_knob(obj, &knob_area, knob_size, hor);
 371:Middlewares/lvgl/src/widgets/lv_slider.c ****     lv_area_copy(&slider->right_knob_area, &knob_area);
 372:Middlewares/lvgl/src/widgets/lv_slider.c **** 
 373:Middlewares/lvgl/src/widgets/lv_slider.c ****     lv_obj_draw_part_dsc_t dsc;
 374:Middlewares/lvgl/src/widgets/lv_slider.c ****     lv_obj_draw_dsc_init(&dsc, clip_area);
ARM GAS  /tmp/ccj9m3on.s 			page 8


 375:Middlewares/lvgl/src/widgets/lv_slider.c ****     dsc.part = LV_PART_KNOB;
 376:Middlewares/lvgl/src/widgets/lv_slider.c ****     dsc.id = 0;
 377:Middlewares/lvgl/src/widgets/lv_slider.c ****     dsc.draw_area = &slider->right_knob_area;
 378:Middlewares/lvgl/src/widgets/lv_slider.c ****     dsc.rect_dsc = &knob_rect_dsc;
 379:Middlewares/lvgl/src/widgets/lv_slider.c **** 
 380:Middlewares/lvgl/src/widgets/lv_slider.c ****     if(lv_slider_get_mode(obj) != LV_SLIDER_MODE_RANGE) {
 381:Middlewares/lvgl/src/widgets/lv_slider.c ****         lv_event_send(obj, LV_EVENT_DRAW_PART_BEGIN, &dsc);
 382:Middlewares/lvgl/src/widgets/lv_slider.c ****         lv_draw_rect(&slider->right_knob_area, clip_area, &knob_rect_dsc);
 383:Middlewares/lvgl/src/widgets/lv_slider.c ****         lv_event_send(obj, LV_EVENT_DRAW_PART_END, &dsc);
 384:Middlewares/lvgl/src/widgets/lv_slider.c ****     } else {
 385:Middlewares/lvgl/src/widgets/lv_slider.c ****         /*Save the draw dsc. because it can be modified in the event*/
 386:Middlewares/lvgl/src/widgets/lv_slider.c ****         lv_draw_rect_dsc_t knob_rect_dsc_tmp;
 387:Middlewares/lvgl/src/widgets/lv_slider.c ****         lv_memcpy(&knob_rect_dsc_tmp, &knob_rect_dsc, sizeof(lv_draw_rect_dsc_t));
 388:Middlewares/lvgl/src/widgets/lv_slider.c **** 
 389:Middlewares/lvgl/src/widgets/lv_slider.c ****         lv_event_send(obj, LV_EVENT_DRAW_PART_BEGIN, &dsc);
 390:Middlewares/lvgl/src/widgets/lv_slider.c ****         lv_draw_rect(&slider->right_knob_area, clip_area, &knob_rect_dsc);
 391:Middlewares/lvgl/src/widgets/lv_slider.c ****         lv_event_send(obj, LV_EVENT_DRAW_PART_END, &dsc);
 392:Middlewares/lvgl/src/widgets/lv_slider.c **** 
 393:Middlewares/lvgl/src/widgets/lv_slider.c ****         /*Draw a second knob for the start_value side*/
 394:Middlewares/lvgl/src/widgets/lv_slider.c ****         if(hor) {
 395:Middlewares/lvgl/src/widgets/lv_slider.c ****             knob_area.x1 = LV_SLIDER_KNOB_COORD(hor, base_dir != LV_BASE_DIR_RTL, slider->bar.indic
 396:Middlewares/lvgl/src/widgets/lv_slider.c ****         }
 397:Middlewares/lvgl/src/widgets/lv_slider.c ****         else {
 398:Middlewares/lvgl/src/widgets/lv_slider.c ****             knob_area.y1 = slider->bar.indic_area.y2;
 399:Middlewares/lvgl/src/widgets/lv_slider.c ****         }
 400:Middlewares/lvgl/src/widgets/lv_slider.c ****         position_knob(obj, &knob_area, knob_size, hor);
 401:Middlewares/lvgl/src/widgets/lv_slider.c ****         lv_area_copy(&slider->left_knob_area, &knob_area);
 402:Middlewares/lvgl/src/widgets/lv_slider.c **** 
 403:Middlewares/lvgl/src/widgets/lv_slider.c ****         lv_memcpy(&knob_rect_dsc, &knob_rect_dsc_tmp, sizeof(lv_draw_rect_dsc_t));
 404:Middlewares/lvgl/src/widgets/lv_slider.c ****         dsc.draw_area = &slider->left_knob_area;
 405:Middlewares/lvgl/src/widgets/lv_slider.c ****         dsc.rect_dsc = &knob_rect_dsc;
 406:Middlewares/lvgl/src/widgets/lv_slider.c ****         dsc.id = 1;
 407:Middlewares/lvgl/src/widgets/lv_slider.c **** 
 408:Middlewares/lvgl/src/widgets/lv_slider.c ****         lv_event_send(obj, LV_EVENT_DRAW_PART_BEGIN, &dsc);
 409:Middlewares/lvgl/src/widgets/lv_slider.c ****         lv_draw_rect(&slider->left_knob_area, clip_area, &knob_rect_dsc);
 410:Middlewares/lvgl/src/widgets/lv_slider.c ****         lv_event_send(obj, LV_EVENT_DRAW_PART_END, &dsc);
 411:Middlewares/lvgl/src/widgets/lv_slider.c ****     }
 412:Middlewares/lvgl/src/widgets/lv_slider.c **** }
 413:Middlewares/lvgl/src/widgets/lv_slider.c **** 
 414:Middlewares/lvgl/src/widgets/lv_slider.c **** static void position_knob(lv_obj_t * obj, lv_area_t * knob_area, lv_coord_t knob_size, bool hor)
 415:Middlewares/lvgl/src/widgets/lv_slider.c **** {
  27              		.loc 1 415 1 view -0
  28              		.cfi_startproc
  29              		@ args = 0, pretend = 0, frame = 0
  30              		@ frame_needed = 0, uses_anonymous_args = 0
  31              		.loc 1 415 1 is_stmt 0 view .LVU1
  32 0000 2DE9F047 		push	{r4, r5, r6, r7, r8, r9, r10, lr}
  33              	.LCFI0:
  34              		.cfi_def_cfa_offset 32
  35              		.cfi_offset 4, -32
  36              		.cfi_offset 5, -28
  37              		.cfi_offset 6, -24
  38              		.cfi_offset 7, -20
  39              		.cfi_offset 8, -16
  40              		.cfi_offset 9, -12
  41              		.cfi_offset 10, -8
  42              		.cfi_offset 14, -4
ARM GAS  /tmp/ccj9m3on.s 			page 9


  43 0004 8246     		mov	r10, r0
  44 0006 0C46     		mov	r4, r1
 416:Middlewares/lvgl/src/widgets/lv_slider.c **** 
 417:Middlewares/lvgl/src/widgets/lv_slider.c ****     if(hor) {
  45              		.loc 1 417 5 is_stmt 1 view .LVU2
  46              		.loc 1 417 7 is_stmt 0 view .LVU3
  47 0008 002B     		cmp	r3, #0
  48 000a 58D0     		beq	.L2
 418:Middlewares/lvgl/src/widgets/lv_slider.c ****         knob_area->x1 -= (knob_size >> 1);
  49              		.loc 1 418 9 is_stmt 1 view .LVU4
  50              		.loc 1 418 23 is_stmt 0 view .LVU5
  51 000c 0888     		ldrh	r0, [r1]
  52              	.LVL1:
  53              		.loc 1 418 23 view .LVU6
  54 000e A0EB6200 		sub	r0, r0, r2, asr #1
  55 0012 81B2     		uxth	r1, r0
  56              	.LVL2:
  57              		.loc 1 418 23 view .LVU7
  58 0014 2180     		strh	r1, [r4]	@ movhi
 419:Middlewares/lvgl/src/widgets/lv_slider.c ****         knob_area->x2 = knob_area->x1 + knob_size - 1;
  59              		.loc 1 419 9 is_stmt 1 view .LVU8
  60              		.loc 1 419 39 is_stmt 0 view .LVU9
  61 0016 1144     		add	r1, r1, r2
  62 0018 89B2     		uxth	r1, r1
  63              		.loc 1 419 51 view .LVU10
  64 001a 0139     		subs	r1, r1, #1
  65              		.loc 1 419 23 view .LVU11
  66 001c A180     		strh	r1, [r4, #4]	@ movhi
 420:Middlewares/lvgl/src/widgets/lv_slider.c ****         knob_area->y1 = obj->coords.y1;
  67              		.loc 1 420 9 is_stmt 1 view .LVU12
  68              		.loc 1 420 36 is_stmt 0 view .LVU13
  69 001e BAF91630 		ldrsh	r3, [r10, #22]
  70              	.LVL3:
  71              		.loc 1 420 23 view .LVU14
  72 0022 6380     		strh	r3, [r4, #2]	@ movhi
 421:Middlewares/lvgl/src/widgets/lv_slider.c ****         knob_area->y2 = obj->coords.y2;
  73              		.loc 1 421 9 is_stmt 1 view .LVU15
  74              		.loc 1 421 36 is_stmt 0 view .LVU16
  75 0024 BAF91A30 		ldrsh	r3, [r10, #26]
  76              		.loc 1 421 23 view .LVU17
  77 0028 E380     		strh	r3, [r4, #6]	@ movhi
  78              	.L3:
 422:Middlewares/lvgl/src/widgets/lv_slider.c ****     }
 423:Middlewares/lvgl/src/widgets/lv_slider.c ****     else {
 424:Middlewares/lvgl/src/widgets/lv_slider.c ****         knob_area->y1 -= (knob_size >> 1);
 425:Middlewares/lvgl/src/widgets/lv_slider.c ****         knob_area->y2 = knob_area->y1 + knob_size - 1;
 426:Middlewares/lvgl/src/widgets/lv_slider.c ****         knob_area->x1 = obj->coords.x1;
 427:Middlewares/lvgl/src/widgets/lv_slider.c ****         knob_area->x2 = obj->coords.x2;
 428:Middlewares/lvgl/src/widgets/lv_slider.c ****     }
 429:Middlewares/lvgl/src/widgets/lv_slider.c **** 
 430:Middlewares/lvgl/src/widgets/lv_slider.c ****     lv_coord_t knob_left = lv_obj_get_style_pad_left(obj,   LV_PART_KNOB);
  79              		.loc 1 430 5 is_stmt 1 view .LVU18
  80              	.LVL4:
  81              	.LBB73:
  82              	.LBI73:
  83              		.file 2 "Middlewares/lvgl/src/widgets/../core/lv_obj_style_gen.h"
   1:Middlewares/lvgl/src/widgets/../core/lv_obj_style_gen.h **** static inline lv_coord_t lv_obj_get_style_width(const struct _lv_obj_t * obj, uint32_t part)
ARM GAS  /tmp/ccj9m3on.s 			page 10


   2:Middlewares/lvgl/src/widgets/../core/lv_obj_style_gen.h **** {
   3:Middlewares/lvgl/src/widgets/../core/lv_obj_style_gen.h ****     lv_style_value_t v = lv_obj_get_style_prop(obj, part, LV_STYLE_WIDTH);
   4:Middlewares/lvgl/src/widgets/../core/lv_obj_style_gen.h ****     return (lv_coord_t)v.num;
   5:Middlewares/lvgl/src/widgets/../core/lv_obj_style_gen.h **** }
   6:Middlewares/lvgl/src/widgets/../core/lv_obj_style_gen.h **** 
   7:Middlewares/lvgl/src/widgets/../core/lv_obj_style_gen.h **** static inline lv_coord_t lv_obj_get_style_min_width(const struct _lv_obj_t * obj, uint32_t part)
   8:Middlewares/lvgl/src/widgets/../core/lv_obj_style_gen.h **** {
   9:Middlewares/lvgl/src/widgets/../core/lv_obj_style_gen.h ****     lv_style_value_t v = lv_obj_get_style_prop(obj, part, LV_STYLE_MIN_WIDTH);
  10:Middlewares/lvgl/src/widgets/../core/lv_obj_style_gen.h ****     return (lv_coord_t)v.num;
  11:Middlewares/lvgl/src/widgets/../core/lv_obj_style_gen.h **** }
  12:Middlewares/lvgl/src/widgets/../core/lv_obj_style_gen.h **** 
  13:Middlewares/lvgl/src/widgets/../core/lv_obj_style_gen.h **** static inline lv_coord_t lv_obj_get_style_max_width(const struct _lv_obj_t * obj, uint32_t part)
  14:Middlewares/lvgl/src/widgets/../core/lv_obj_style_gen.h **** {
  15:Middlewares/lvgl/src/widgets/../core/lv_obj_style_gen.h ****     lv_style_value_t v = lv_obj_get_style_prop(obj, part, LV_STYLE_MAX_WIDTH);
  16:Middlewares/lvgl/src/widgets/../core/lv_obj_style_gen.h ****     return (lv_coord_t)v.num;
  17:Middlewares/lvgl/src/widgets/../core/lv_obj_style_gen.h **** }
  18:Middlewares/lvgl/src/widgets/../core/lv_obj_style_gen.h **** 
  19:Middlewares/lvgl/src/widgets/../core/lv_obj_style_gen.h **** static inline lv_coord_t lv_obj_get_style_height(const struct _lv_obj_t * obj, uint32_t part)
  20:Middlewares/lvgl/src/widgets/../core/lv_obj_style_gen.h **** {
  21:Middlewares/lvgl/src/widgets/../core/lv_obj_style_gen.h ****     lv_style_value_t v = lv_obj_get_style_prop(obj, part, LV_STYLE_HEIGHT);
  22:Middlewares/lvgl/src/widgets/../core/lv_obj_style_gen.h ****     return (lv_coord_t)v.num;
  23:Middlewares/lvgl/src/widgets/../core/lv_obj_style_gen.h **** }
  24:Middlewares/lvgl/src/widgets/../core/lv_obj_style_gen.h **** 
  25:Middlewares/lvgl/src/widgets/../core/lv_obj_style_gen.h **** static inline lv_coord_t lv_obj_get_style_min_height(const struct _lv_obj_t * obj, uint32_t part)
  26:Middlewares/lvgl/src/widgets/../core/lv_obj_style_gen.h **** {
  27:Middlewares/lvgl/src/widgets/../core/lv_obj_style_gen.h ****     lv_style_value_t v = lv_obj_get_style_prop(obj, part, LV_STYLE_MIN_HEIGHT);
  28:Middlewares/lvgl/src/widgets/../core/lv_obj_style_gen.h ****     return (lv_coord_t)v.num;
  29:Middlewares/lvgl/src/widgets/../core/lv_obj_style_gen.h **** }
  30:Middlewares/lvgl/src/widgets/../core/lv_obj_style_gen.h **** 
  31:Middlewares/lvgl/src/widgets/../core/lv_obj_style_gen.h **** static inline lv_coord_t lv_obj_get_style_max_height(const struct _lv_obj_t * obj, uint32_t part)
  32:Middlewares/lvgl/src/widgets/../core/lv_obj_style_gen.h **** {
  33:Middlewares/lvgl/src/widgets/../core/lv_obj_style_gen.h ****     lv_style_value_t v = lv_obj_get_style_prop(obj, part, LV_STYLE_MAX_HEIGHT);
  34:Middlewares/lvgl/src/widgets/../core/lv_obj_style_gen.h ****     return (lv_coord_t)v.num;
  35:Middlewares/lvgl/src/widgets/../core/lv_obj_style_gen.h **** }
  36:Middlewares/lvgl/src/widgets/../core/lv_obj_style_gen.h **** 
  37:Middlewares/lvgl/src/widgets/../core/lv_obj_style_gen.h **** static inline lv_coord_t lv_obj_get_style_x(const struct _lv_obj_t * obj, uint32_t part)
  38:Middlewares/lvgl/src/widgets/../core/lv_obj_style_gen.h **** {
  39:Middlewares/lvgl/src/widgets/../core/lv_obj_style_gen.h ****     lv_style_value_t v = lv_obj_get_style_prop(obj, part, LV_STYLE_X);
  40:Middlewares/lvgl/src/widgets/../core/lv_obj_style_gen.h ****     return (lv_coord_t)v.num;
  41:Middlewares/lvgl/src/widgets/../core/lv_obj_style_gen.h **** }
  42:Middlewares/lvgl/src/widgets/../core/lv_obj_style_gen.h **** 
  43:Middlewares/lvgl/src/widgets/../core/lv_obj_style_gen.h **** static inline lv_coord_t lv_obj_get_style_y(const struct _lv_obj_t * obj, uint32_t part)
  44:Middlewares/lvgl/src/widgets/../core/lv_obj_style_gen.h **** {
  45:Middlewares/lvgl/src/widgets/../core/lv_obj_style_gen.h ****     lv_style_value_t v = lv_obj_get_style_prop(obj, part, LV_STYLE_Y);
  46:Middlewares/lvgl/src/widgets/../core/lv_obj_style_gen.h ****     return (lv_coord_t)v.num;
  47:Middlewares/lvgl/src/widgets/../core/lv_obj_style_gen.h **** }
  48:Middlewares/lvgl/src/widgets/../core/lv_obj_style_gen.h **** 
  49:Middlewares/lvgl/src/widgets/../core/lv_obj_style_gen.h **** static inline lv_align_t lv_obj_get_style_align(const struct _lv_obj_t * obj, uint32_t part)
  50:Middlewares/lvgl/src/widgets/../core/lv_obj_style_gen.h **** {
  51:Middlewares/lvgl/src/widgets/../core/lv_obj_style_gen.h ****     lv_style_value_t v = lv_obj_get_style_prop(obj, part, LV_STYLE_ALIGN);
  52:Middlewares/lvgl/src/widgets/../core/lv_obj_style_gen.h ****     return (lv_align_t)v.num;
  53:Middlewares/lvgl/src/widgets/../core/lv_obj_style_gen.h **** }
  54:Middlewares/lvgl/src/widgets/../core/lv_obj_style_gen.h **** 
  55:Middlewares/lvgl/src/widgets/../core/lv_obj_style_gen.h **** static inline lv_coord_t lv_obj_get_style_transform_width(const struct _lv_obj_t * obj, uint32_t pa
  56:Middlewares/lvgl/src/widgets/../core/lv_obj_style_gen.h **** {
  57:Middlewares/lvgl/src/widgets/../core/lv_obj_style_gen.h ****     lv_style_value_t v = lv_obj_get_style_prop(obj, part, LV_STYLE_TRANSFORM_WIDTH);
  58:Middlewares/lvgl/src/widgets/../core/lv_obj_style_gen.h ****     return (lv_coord_t)v.num;
ARM GAS  /tmp/ccj9m3on.s 			page 11


  59:Middlewares/lvgl/src/widgets/../core/lv_obj_style_gen.h **** }
  60:Middlewares/lvgl/src/widgets/../core/lv_obj_style_gen.h **** 
  61:Middlewares/lvgl/src/widgets/../core/lv_obj_style_gen.h **** static inline lv_coord_t lv_obj_get_style_transform_height(const struct _lv_obj_t * obj, uint32_t p
  62:Middlewares/lvgl/src/widgets/../core/lv_obj_style_gen.h **** {
  63:Middlewares/lvgl/src/widgets/../core/lv_obj_style_gen.h ****     lv_style_value_t v = lv_obj_get_style_prop(obj, part, LV_STYLE_TRANSFORM_HEIGHT);
  64:Middlewares/lvgl/src/widgets/../core/lv_obj_style_gen.h ****     return (lv_coord_t)v.num;
  65:Middlewares/lvgl/src/widgets/../core/lv_obj_style_gen.h **** }
  66:Middlewares/lvgl/src/widgets/../core/lv_obj_style_gen.h **** 
  67:Middlewares/lvgl/src/widgets/../core/lv_obj_style_gen.h **** static inline lv_coord_t lv_obj_get_style_translate_x(const struct _lv_obj_t * obj, uint32_t part)
  68:Middlewares/lvgl/src/widgets/../core/lv_obj_style_gen.h **** {
  69:Middlewares/lvgl/src/widgets/../core/lv_obj_style_gen.h ****     lv_style_value_t v = lv_obj_get_style_prop(obj, part, LV_STYLE_TRANSLATE_X);
  70:Middlewares/lvgl/src/widgets/../core/lv_obj_style_gen.h ****     return (lv_coord_t)v.num;
  71:Middlewares/lvgl/src/widgets/../core/lv_obj_style_gen.h **** }
  72:Middlewares/lvgl/src/widgets/../core/lv_obj_style_gen.h **** 
  73:Middlewares/lvgl/src/widgets/../core/lv_obj_style_gen.h **** static inline lv_coord_t lv_obj_get_style_translate_y(const struct _lv_obj_t * obj, uint32_t part)
  74:Middlewares/lvgl/src/widgets/../core/lv_obj_style_gen.h **** {
  75:Middlewares/lvgl/src/widgets/../core/lv_obj_style_gen.h ****     lv_style_value_t v = lv_obj_get_style_prop(obj, part, LV_STYLE_TRANSLATE_Y);
  76:Middlewares/lvgl/src/widgets/../core/lv_obj_style_gen.h ****     return (lv_coord_t)v.num;
  77:Middlewares/lvgl/src/widgets/../core/lv_obj_style_gen.h **** }
  78:Middlewares/lvgl/src/widgets/../core/lv_obj_style_gen.h **** 
  79:Middlewares/lvgl/src/widgets/../core/lv_obj_style_gen.h **** static inline lv_coord_t lv_obj_get_style_transform_zoom(const struct _lv_obj_t * obj, uint32_t par
  80:Middlewares/lvgl/src/widgets/../core/lv_obj_style_gen.h **** {
  81:Middlewares/lvgl/src/widgets/../core/lv_obj_style_gen.h ****     lv_style_value_t v = lv_obj_get_style_prop(obj, part, LV_STYLE_TRANSFORM_ZOOM);
  82:Middlewares/lvgl/src/widgets/../core/lv_obj_style_gen.h ****     return (lv_coord_t)v.num;
  83:Middlewares/lvgl/src/widgets/../core/lv_obj_style_gen.h **** }
  84:Middlewares/lvgl/src/widgets/../core/lv_obj_style_gen.h **** 
  85:Middlewares/lvgl/src/widgets/../core/lv_obj_style_gen.h **** static inline lv_coord_t lv_obj_get_style_transform_angle(const struct _lv_obj_t * obj, uint32_t pa
  86:Middlewares/lvgl/src/widgets/../core/lv_obj_style_gen.h **** {
  87:Middlewares/lvgl/src/widgets/../core/lv_obj_style_gen.h ****     lv_style_value_t v = lv_obj_get_style_prop(obj, part, LV_STYLE_TRANSFORM_ANGLE);
  88:Middlewares/lvgl/src/widgets/../core/lv_obj_style_gen.h ****     return (lv_coord_t)v.num;
  89:Middlewares/lvgl/src/widgets/../core/lv_obj_style_gen.h **** }
  90:Middlewares/lvgl/src/widgets/../core/lv_obj_style_gen.h **** 
  91:Middlewares/lvgl/src/widgets/../core/lv_obj_style_gen.h **** static inline lv_coord_t lv_obj_get_style_pad_top(const struct _lv_obj_t * obj, uint32_t part)
  92:Middlewares/lvgl/src/widgets/../core/lv_obj_style_gen.h **** {
  93:Middlewares/lvgl/src/widgets/../core/lv_obj_style_gen.h ****     lv_style_value_t v = lv_obj_get_style_prop(obj, part, LV_STYLE_PAD_TOP);
  94:Middlewares/lvgl/src/widgets/../core/lv_obj_style_gen.h ****     return (lv_coord_t)v.num;
  95:Middlewares/lvgl/src/widgets/../core/lv_obj_style_gen.h **** }
  96:Middlewares/lvgl/src/widgets/../core/lv_obj_style_gen.h **** 
  97:Middlewares/lvgl/src/widgets/../core/lv_obj_style_gen.h **** static inline lv_coord_t lv_obj_get_style_pad_bottom(const struct _lv_obj_t * obj, uint32_t part)
  98:Middlewares/lvgl/src/widgets/../core/lv_obj_style_gen.h **** {
  99:Middlewares/lvgl/src/widgets/../core/lv_obj_style_gen.h ****     lv_style_value_t v = lv_obj_get_style_prop(obj, part, LV_STYLE_PAD_BOTTOM);
 100:Middlewares/lvgl/src/widgets/../core/lv_obj_style_gen.h ****     return (lv_coord_t)v.num;
 101:Middlewares/lvgl/src/widgets/../core/lv_obj_style_gen.h **** }
 102:Middlewares/lvgl/src/widgets/../core/lv_obj_style_gen.h **** 
 103:Middlewares/lvgl/src/widgets/../core/lv_obj_style_gen.h **** static inline lv_coord_t lv_obj_get_style_pad_left(const struct _lv_obj_t * obj, uint32_t part)
  84              		.loc 2 103 26 view .LVU19
  85              	.LBB74:
 104:Middlewares/lvgl/src/widgets/../core/lv_obj_style_gen.h **** {
 105:Middlewares/lvgl/src/widgets/../core/lv_obj_style_gen.h ****     lv_style_value_t v = lv_obj_get_style_prop(obj, part, LV_STYLE_PAD_LEFT);
  86              		.loc 2 105 5 view .LVU20
  87              		.loc 2 105 26 is_stmt 0 view .LVU21
  88 002a 41F21202 		movw	r2, #4114
  89              	.LVL5:
  90              		.loc 2 105 26 view .LVU22
  91 002e 4FF44031 		mov	r1, #196608
  92 0032 5046     		mov	r0, r10
  93 0034 FFF7FEFF 		bl	lv_obj_get_style_prop
ARM GAS  /tmp/ccj9m3on.s 			page 12


  94              	.LVL6:
  95 0038 8046     		mov	r8, r0
  96              	.LVL7:
 106:Middlewares/lvgl/src/widgets/../core/lv_obj_style_gen.h ****     return (lv_coord_t)v.num;
  97              		.loc 2 106 5 is_stmt 1 view .LVU23
  98              		.loc 2 106 5 is_stmt 0 view .LVU24
  99              	.LBE74:
 100              	.LBE73:
 431:Middlewares/lvgl/src/widgets/lv_slider.c ****     lv_coord_t knob_right = lv_obj_get_style_pad_right(obj,  LV_PART_KNOB);
 101              		.loc 1 431 5 is_stmt 1 view .LVU25
 102              	.LBB75:
 103              	.LBI75:
 107:Middlewares/lvgl/src/widgets/../core/lv_obj_style_gen.h **** }
 108:Middlewares/lvgl/src/widgets/../core/lv_obj_style_gen.h **** 
 109:Middlewares/lvgl/src/widgets/../core/lv_obj_style_gen.h **** static inline lv_coord_t lv_obj_get_style_pad_right(const struct _lv_obj_t * obj, uint32_t part)
 104              		.loc 2 109 26 view .LVU26
 105              	.LBB76:
 110:Middlewares/lvgl/src/widgets/../core/lv_obj_style_gen.h **** {
 111:Middlewares/lvgl/src/widgets/../core/lv_obj_style_gen.h ****     lv_style_value_t v = lv_obj_get_style_prop(obj, part, LV_STYLE_PAD_RIGHT);
 106              		.loc 2 111 5 view .LVU27
 107              		.loc 2 111 26 is_stmt 0 view .LVU28
 108 003a 41F21302 		movw	r2, #4115
 109 003e 4FF44031 		mov	r1, #196608
 110 0042 5046     		mov	r0, r10
 111 0044 FFF7FEFF 		bl	lv_obj_get_style_prop
 112              	.LVL8:
 113 0048 8146     		mov	r9, r0
 114              	.LVL9:
 112:Middlewares/lvgl/src/widgets/../core/lv_obj_style_gen.h ****     return (lv_coord_t)v.num;
 115              		.loc 2 112 5 is_stmt 1 view .LVU29
 116              		.loc 2 112 5 is_stmt 0 view .LVU30
 117              	.LBE76:
 118              	.LBE75:
 432:Middlewares/lvgl/src/widgets/lv_slider.c ****     lv_coord_t knob_top = lv_obj_get_style_pad_top(obj,    LV_PART_KNOB);
 119              		.loc 1 432 5 is_stmt 1 view .LVU31
 120              	.LBB77:
 121              	.LBI77:
  91:Middlewares/lvgl/src/widgets/../core/lv_obj_style_gen.h **** {
 122              		.loc 2 91 26 view .LVU32
 123              	.LBB78:
  93:Middlewares/lvgl/src/widgets/../core/lv_obj_style_gen.h ****     return (lv_coord_t)v.num;
 124              		.loc 2 93 5 view .LVU33
  93:Middlewares/lvgl/src/widgets/../core/lv_obj_style_gen.h ****     return (lv_coord_t)v.num;
 125              		.loc 2 93 26 is_stmt 0 view .LVU34
 126 004a 41F21002 		movw	r2, #4112
 127 004e 4FF44031 		mov	r1, #196608
 128 0052 5046     		mov	r0, r10
 129 0054 FFF7FEFF 		bl	lv_obj_get_style_prop
 130              	.LVL10:
 131 0058 0646     		mov	r6, r0
 132              	.LVL11:
  94:Middlewares/lvgl/src/widgets/../core/lv_obj_style_gen.h **** }
 133              		.loc 2 94 5 is_stmt 1 view .LVU35
  94:Middlewares/lvgl/src/widgets/../core/lv_obj_style_gen.h **** }
 134              		.loc 2 94 5 is_stmt 0 view .LVU36
 135              	.LBE78:
 136              	.LBE77:
ARM GAS  /tmp/ccj9m3on.s 			page 13


 433:Middlewares/lvgl/src/widgets/lv_slider.c ****     lv_coord_t knob_bottom = lv_obj_get_style_pad_bottom(obj, LV_PART_KNOB);
 137              		.loc 1 433 5 is_stmt 1 view .LVU37
 138              	.LBB79:
 139              	.LBI79:
  97:Middlewares/lvgl/src/widgets/../core/lv_obj_style_gen.h **** {
 140              		.loc 2 97 26 view .LVU38
 141              	.LBB80:
  99:Middlewares/lvgl/src/widgets/../core/lv_obj_style_gen.h ****     return (lv_coord_t)v.num;
 142              		.loc 2 99 5 view .LVU39
  99:Middlewares/lvgl/src/widgets/../core/lv_obj_style_gen.h ****     return (lv_coord_t)v.num;
 143              		.loc 2 99 26 is_stmt 0 view .LVU40
 144 005a 41F21102 		movw	r2, #4113
 145 005e 4FF44031 		mov	r1, #196608
 146 0062 5046     		mov	r0, r10
 147 0064 FFF7FEFF 		bl	lv_obj_get_style_prop
 148              	.LVL12:
 149 0068 0746     		mov	r7, r0
 150              	.LVL13:
 100:Middlewares/lvgl/src/widgets/../core/lv_obj_style_gen.h **** }
 151              		.loc 2 100 5 is_stmt 1 view .LVU41
 100:Middlewares/lvgl/src/widgets/../core/lv_obj_style_gen.h **** }
 152              		.loc 2 100 5 is_stmt 0 view .LVU42
 153              	.LBE80:
 154              	.LBE79:
 434:Middlewares/lvgl/src/widgets/lv_slider.c **** 
 435:Middlewares/lvgl/src/widgets/lv_slider.c ****     lv_coord_t transf_w = lv_obj_get_style_transform_width(obj, LV_PART_KNOB);
 155              		.loc 1 435 5 is_stmt 1 view .LVU43
 156              	.LBB81:
 157              	.LBI81:
  55:Middlewares/lvgl/src/widgets/../core/lv_obj_style_gen.h **** {
 158              		.loc 2 55 26 view .LVU44
 159              	.LBB82:
  57:Middlewares/lvgl/src/widgets/../core/lv_obj_style_gen.h ****     return (lv_coord_t)v.num;
 160              		.loc 2 57 5 view .LVU45
  57:Middlewares/lvgl/src/widgets/../core/lv_obj_style_gen.h ****     return (lv_coord_t)v.num;
 161              		.loc 2 57 26 is_stmt 0 view .LVU46
 162 006a 40F60A02 		movw	r2, #2058
 163 006e 4FF44031 		mov	r1, #196608
 164 0072 5046     		mov	r0, r10
 165 0074 FFF7FEFF 		bl	lv_obj_get_style_prop
 166              	.LVL14:
 167 0078 0546     		mov	r5, r0
 168              	.LVL15:
  58:Middlewares/lvgl/src/widgets/../core/lv_obj_style_gen.h **** }
 169              		.loc 2 58 5 is_stmt 1 view .LVU47
  58:Middlewares/lvgl/src/widgets/../core/lv_obj_style_gen.h **** }
 170              		.loc 2 58 5 is_stmt 0 view .LVU48
 171              	.LBE82:
 172              	.LBE81:
 436:Middlewares/lvgl/src/widgets/lv_slider.c ****     lv_coord_t transf_h = lv_obj_get_style_transform_height(obj, LV_PART_KNOB);
 173              		.loc 1 436 5 is_stmt 1 view .LVU49
 174              	.LBB83:
 175              	.LBI83:
  61:Middlewares/lvgl/src/widgets/../core/lv_obj_style_gen.h **** {
 176              		.loc 2 61 26 view .LVU50
 177              	.LBB84:
  63:Middlewares/lvgl/src/widgets/../core/lv_obj_style_gen.h ****     return (lv_coord_t)v.num;
ARM GAS  /tmp/ccj9m3on.s 			page 14


 178              		.loc 2 63 5 view .LVU51
  63:Middlewares/lvgl/src/widgets/../core/lv_obj_style_gen.h ****     return (lv_coord_t)v.num;
 179              		.loc 2 63 26 is_stmt 0 view .LVU52
 180 007a 40F60B02 		movw	r2, #2059
 181 007e 4FF44031 		mov	r1, #196608
 182 0082 5046     		mov	r0, r10
 183 0084 FFF7FEFF 		bl	lv_obj_get_style_prop
 184              	.LVL16:
  64:Middlewares/lvgl/src/widgets/../core/lv_obj_style_gen.h **** }
 185              		.loc 2 64 5 is_stmt 1 view .LVU53
  64:Middlewares/lvgl/src/widgets/../core/lv_obj_style_gen.h **** }
 186              		.loc 2 64 5 is_stmt 0 view .LVU54
 187              	.LBE84:
 188              	.LBE83:
 437:Middlewares/lvgl/src/widgets/lv_slider.c **** 
 438:Middlewares/lvgl/src/widgets/lv_slider.c ****     /*Apply the paddings on the knob area*/
 439:Middlewares/lvgl/src/widgets/lv_slider.c ****     knob_area->x1 -= knob_left + transf_w;
 189              		.loc 1 439 5 is_stmt 1 view .LVU55
 190              		.loc 1 439 32 is_stmt 0 view .LVU56
 191 0088 ABB2     		uxth	r3, r5
 192 008a 9844     		add	r8, r8, r3
 193              	.LVL17:
 194              		.loc 1 439 32 view .LVU57
 195 008c 1FFA88F8 		uxth	r8, r8
 196              		.loc 1 439 19 view .LVU58
 197 0090 2288     		ldrh	r2, [r4]
 198 0092 A2EB0808 		sub	r8, r2, r8
 199 0096 A4F80080 		strh	r8, [r4]	@ movhi
 440:Middlewares/lvgl/src/widgets/lv_slider.c ****     knob_area->x2 += knob_right + transf_w;
 200              		.loc 1 440 5 is_stmt 1 view .LVU59
 201              		.loc 1 440 33 is_stmt 0 view .LVU60
 202 009a 4B44     		add	r3, r3, r9
 203 009c 9BB2     		uxth	r3, r3
 204              		.loc 1 440 19 view .LVU61
 205 009e A288     		ldrh	r2, [r4, #4]
 206 00a0 1344     		add	r3, r3, r2
 207 00a2 A380     		strh	r3, [r4, #4]	@ movhi
 441:Middlewares/lvgl/src/widgets/lv_slider.c ****     knob_area->y1 -= knob_top + transf_h;
 208              		.loc 1 441 5 is_stmt 1 view .LVU62
 209              		.loc 1 441 31 is_stmt 0 view .LVU63
 210 00a4 80B2     		uxth	r0, r0
 211              		.loc 1 441 31 view .LVU64
 212 00a6 0644     		add	r6, r6, r0
 213              	.LVL18:
 214              		.loc 1 441 31 view .LVU65
 215 00a8 B6B2     		uxth	r6, r6
 216              		.loc 1 441 19 view .LVU66
 217 00aa 6388     		ldrh	r3, [r4, #2]
 218 00ac 9E1B     		subs	r6, r3, r6
 219 00ae 6680     		strh	r6, [r4, #2]	@ movhi
 442:Middlewares/lvgl/src/widgets/lv_slider.c ****     knob_area->y2 += knob_bottom + transf_h;
 220              		.loc 1 442 5 is_stmt 1 view .LVU67
 221              		.loc 1 442 34 is_stmt 0 view .LVU68
 222 00b0 3844     		add	r0, r0, r7
 223              	.LVL19:
 224              		.loc 1 442 34 view .LVU69
 225 00b2 80B2     		uxth	r0, r0
ARM GAS  /tmp/ccj9m3on.s 			page 15


 226              		.loc 1 442 19 view .LVU70
 227 00b4 E788     		ldrh	r7, [r4, #6]
 228              	.LVL20:
 229              		.loc 1 442 19 view .LVU71
 230 00b6 3844     		add	r0, r0, r7
 231 00b8 E080     		strh	r0, [r4, #6]	@ movhi
 443:Middlewares/lvgl/src/widgets/lv_slider.c **** }
 232              		.loc 1 443 1 view .LVU72
 233 00ba BDE8F087 		pop	{r4, r5, r6, r7, r8, r9, r10, pc}
 234              	.LVL21:
 235              	.L2:
 424:Middlewares/lvgl/src/widgets/lv_slider.c ****         knob_area->y2 = knob_area->y1 + knob_size - 1;
 236              		.loc 1 424 9 is_stmt 1 view .LVU73
 424:Middlewares/lvgl/src/widgets/lv_slider.c ****         knob_area->y2 = knob_area->y1 + knob_size - 1;
 237              		.loc 1 424 23 is_stmt 0 view .LVU74
 238 00be 4988     		ldrh	r1, [r1, #2]
 239              	.LVL22:
 424:Middlewares/lvgl/src/widgets/lv_slider.c ****         knob_area->y2 = knob_area->y1 + knob_size - 1;
 240              		.loc 1 424 23 view .LVU75
 241 00c0 A1EB6201 		sub	r1, r1, r2, asr #1
 242 00c4 8BB2     		uxth	r3, r1
 243              	.LVL23:
 424:Middlewares/lvgl/src/widgets/lv_slider.c ****         knob_area->y2 = knob_area->y1 + knob_size - 1;
 244              		.loc 1 424 23 view .LVU76
 245 00c6 6380     		strh	r3, [r4, #2]	@ movhi
 425:Middlewares/lvgl/src/widgets/lv_slider.c ****         knob_area->x1 = obj->coords.x1;
 246              		.loc 1 425 9 is_stmt 1 view .LVU77
 425:Middlewares/lvgl/src/widgets/lv_slider.c ****         knob_area->x1 = obj->coords.x1;
 247              		.loc 1 425 39 is_stmt 0 view .LVU78
 248 00c8 1344     		add	r3, r3, r2
 249 00ca 9BB2     		uxth	r3, r3
 425:Middlewares/lvgl/src/widgets/lv_slider.c ****         knob_area->x1 = obj->coords.x1;
 250              		.loc 1 425 51 view .LVU79
 251 00cc 013B     		subs	r3, r3, #1
 425:Middlewares/lvgl/src/widgets/lv_slider.c ****         knob_area->x1 = obj->coords.x1;
 252              		.loc 1 425 23 view .LVU80
 253 00ce E380     		strh	r3, [r4, #6]	@ movhi
 426:Middlewares/lvgl/src/widgets/lv_slider.c ****         knob_area->x2 = obj->coords.x2;
 254              		.loc 1 426 9 is_stmt 1 view .LVU81
 426:Middlewares/lvgl/src/widgets/lv_slider.c ****         knob_area->x2 = obj->coords.x2;
 255              		.loc 1 426 36 is_stmt 0 view .LVU82
 256 00d0 B0F91430 		ldrsh	r3, [r0, #20]
 426:Middlewares/lvgl/src/widgets/lv_slider.c ****         knob_area->x2 = obj->coords.x2;
 257              		.loc 1 426 23 view .LVU83
 258 00d4 2380     		strh	r3, [r4]	@ movhi
 427:Middlewares/lvgl/src/widgets/lv_slider.c ****     }
 259              		.loc 1 427 9 is_stmt 1 view .LVU84
 427:Middlewares/lvgl/src/widgets/lv_slider.c ****     }
 260              		.loc 1 427 36 is_stmt 0 view .LVU85
 261 00d6 B0F91830 		ldrsh	r3, [r0, #24]
 427:Middlewares/lvgl/src/widgets/lv_slider.c ****     }
 262              		.loc 1 427 23 view .LVU86
 263 00da A380     		strh	r3, [r4, #4]	@ movhi
 264 00dc A5E7     		b	.L3
 265              		.cfi_endproc
 266              	.LFE167:
 268              		.section	.text.lv_slider_constructor,"ax",%progbits
ARM GAS  /tmp/ccj9m3on.s 			page 16


 269              		.align	1
 270              		.syntax unified
 271              		.thumb
 272              		.thumb_func
 273              		.fpu softvfp
 275              	lv_slider_constructor:
 276              	.LVL24:
 277              	.LFB164:
  80:Middlewares/lvgl/src/widgets/lv_slider.c ****     LV_UNUSED(class_p);
 278              		.loc 1 80 1 is_stmt 1 view -0
 279              		.cfi_startproc
 280              		@ args = 0, pretend = 0, frame = 0
 281              		@ frame_needed = 0, uses_anonymous_args = 0
  80:Middlewares/lvgl/src/widgets/lv_slider.c ****     LV_UNUSED(class_p);
 282              		.loc 1 80 1 is_stmt 0 view .LVU88
 283 0000 38B5     		push	{r3, r4, r5, lr}
 284              	.LCFI1:
 285              		.cfi_def_cfa_offset 16
 286              		.cfi_offset 3, -16
 287              		.cfi_offset 4, -12
 288              		.cfi_offset 5, -8
 289              		.cfi_offset 14, -4
 290 0002 0C46     		mov	r4, r1
  81:Middlewares/lvgl/src/widgets/lv_slider.c ****     lv_slider_t * slider = (lv_slider_t *)obj;
 291              		.loc 1 81 5 is_stmt 1 view .LVU89
  82:Middlewares/lvgl/src/widgets/lv_slider.c **** 
 292              		.loc 1 82 5 view .LVU90
 293              	.LVL25:
  85:Middlewares/lvgl/src/widgets/lv_slider.c ****     slider->dragging = 0;
 294              		.loc 1 85 5 view .LVU91
  85:Middlewares/lvgl/src/widgets/lv_slider.c ****     slider->dragging = 0;
 295              		.loc 1 85 26 is_stmt 0 view .LVU92
 296 0004 0025     		movs	r5, #0
 297 0006 0D67     		str	r5, [r1, #112]
  86:Middlewares/lvgl/src/widgets/lv_slider.c ****     slider->left_knob_focus = 0;
 298              		.loc 1 86 5 is_stmt 1 view .LVU93
  86:Middlewares/lvgl/src/widgets/lv_slider.c ****     slider->left_knob_focus = 0;
 299              		.loc 1 86 22 is_stmt 0 view .LVU94
 300 0008 91F87430 		ldrb	r3, [r1, #116]	@ zero_extendqisi2
 301 000c 65F30003 		bfi	r3, r5, #0, #1
 302 0010 81F87430 		strb	r3, [r1, #116]
  87:Middlewares/lvgl/src/widgets/lv_slider.c **** 
 303              		.loc 1 87 5 is_stmt 1 view .LVU95
  87:Middlewares/lvgl/src/widgets/lv_slider.c **** 
 304              		.loc 1 87 29 is_stmt 0 view .LVU96
 305 0014 DBB2     		uxtb	r3, r3
 306 0016 65F34103 		bfi	r3, r5, #1, #1
 307 001a 81F87430 		strb	r3, [r1, #116]
  89:Middlewares/lvgl/src/widgets/lv_slider.c ****     lv_obj_clear_flag(obj, LV_OBJ_FLAG_SCROLLABLE);
 308              		.loc 1 89 5 is_stmt 1 view .LVU97
 309 001e 4FF48071 		mov	r1, #256
 310              	.LVL26:
  89:Middlewares/lvgl/src/widgets/lv_slider.c ****     lv_obj_clear_flag(obj, LV_OBJ_FLAG_SCROLLABLE);
 311              		.loc 1 89 5 is_stmt 0 view .LVU98
 312 0022 2046     		mov	r0, r4
 313              	.LVL27:
  89:Middlewares/lvgl/src/widgets/lv_slider.c ****     lv_obj_clear_flag(obj, LV_OBJ_FLAG_SCROLLABLE);
ARM GAS  /tmp/ccj9m3on.s 			page 17


 314              		.loc 1 89 5 view .LVU99
 315 0024 FFF7FEFF 		bl	lv_obj_clear_flag
 316              	.LVL28:
  90:Middlewares/lvgl/src/widgets/lv_slider.c ****     lv_obj_set_ext_click_area(obj, LV_DPX(8));
 317              		.loc 1 90 5 is_stmt 1 view .LVU100
 318 0028 1021     		movs	r1, #16
 319 002a 2046     		mov	r0, r4
 320 002c FFF7FEFF 		bl	lv_obj_clear_flag
 321              	.LVL29:
  91:Middlewares/lvgl/src/widgets/lv_slider.c **** }
 322              		.loc 1 91 5 view .LVU101
  91:Middlewares/lvgl/src/widgets/lv_slider.c **** }
 323              		.loc 1 91 36 is_stmt 0 view .LVU102
 324 0030 2846     		mov	r0, r5
 325 0032 FFF7FEFF 		bl	lv_disp_get_dpi
 326              	.LVL30:
  91:Middlewares/lvgl/src/widgets/lv_slider.c **** }
 327              		.loc 1 91 5 view .LVU103
 328 0036 1D28     		cmp	r0, #29
 329 0038 04DC     		bgt	.L9
 330 003a 0121     		movs	r1, #1
 331              	.L6:
  91:Middlewares/lvgl/src/widgets/lv_slider.c **** }
 332              		.loc 1 91 5 discriminator 4 view .LVU104
 333 003c 2046     		mov	r0, r4
 334 003e FFF7FEFF 		bl	lv_obj_set_ext_click_area
 335              	.LVL31:
  92:Middlewares/lvgl/src/widgets/lv_slider.c **** 
 336              		.loc 1 92 1 discriminator 4 view .LVU105
 337 0042 38BD     		pop	{r3, r4, r5, pc}
 338              	.LVL32:
 339              	.L9:
  91:Middlewares/lvgl/src/widgets/lv_slider.c **** }
 340              		.loc 1 91 36 discriminator 1 view .LVU106
 341 0044 2846     		mov	r0, r5
 342 0046 FFF7FEFF 		bl	lv_disp_get_dpi
 343              	.LVL33:
 344 004a 0A30     		adds	r0, r0, #10
 345 004c 034B     		ldr	r3, .L10
 346 004e 83FB0023 		smull	r2, r3, r3, r0
 347 0052 C117     		asrs	r1, r0, #31
 348 0054 C1EBE301 		rsb	r1, r1, r3, asr #3
  91:Middlewares/lvgl/src/widgets/lv_slider.c **** }
 349              		.loc 1 91 5 discriminator 1 view .LVU107
 350 0058 09B2     		sxth	r1, r1
 351 005a EFE7     		b	.L6
 352              	.L11:
 353              		.align	2
 354              	.L10:
 355 005c 67666666 		.word	1717986919
 356              		.cfi_endproc
 357              	.LFE164:
 359              		.section	.text.draw_knob,"ax",%progbits
 360              		.align	1
 361              		.syntax unified
 362              		.thumb
 363              		.thumb_func
ARM GAS  /tmp/ccj9m3on.s 			page 18


 364              		.fpu softvfp
 366              	draw_knob:
 367              	.LVL34:
 368              	.LFB166:
 322:Middlewares/lvgl/src/widgets/lv_slider.c ****     lv_obj_t * obj = lv_event_get_target(e);
 369              		.loc 1 322 1 is_stmt 1 view -0
 370              		.cfi_startproc
 371              		@ args = 0, pretend = 0, frame = 192
 372              		@ frame_needed = 0, uses_anonymous_args = 0
 322:Middlewares/lvgl/src/widgets/lv_slider.c ****     lv_obj_t * obj = lv_event_get_target(e);
 373              		.loc 1 322 1 is_stmt 0 view .LVU109
 374 0000 2DE9F04F 		push	{r4, r5, r6, r7, r8, r9, r10, fp, lr}
 375              	.LCFI2:
 376              		.cfi_def_cfa_offset 36
 377              		.cfi_offset 4, -36
 378              		.cfi_offset 5, -32
 379              		.cfi_offset 6, -28
 380              		.cfi_offset 7, -24
 381              		.cfi_offset 8, -20
 382              		.cfi_offset 9, -16
 383              		.cfi_offset 10, -12
 384              		.cfi_offset 11, -8
 385              		.cfi_offset 14, -4
 386 0004 B1B0     		sub	sp, sp, #196
 387              	.LCFI3:
 388              		.cfi_def_cfa_offset 232
 389 0006 0546     		mov	r5, r0
 323:Middlewares/lvgl/src/widgets/lv_slider.c ****     lv_slider_t * slider = (lv_slider_t *)obj;
 390              		.loc 1 323 5 is_stmt 1 view .LVU110
 323:Middlewares/lvgl/src/widgets/lv_slider.c ****     lv_slider_t * slider = (lv_slider_t *)obj;
 391              		.loc 1 323 22 is_stmt 0 view .LVU111
 392 0008 FFF7FEFF 		bl	lv_event_get_target
 393              	.LVL35:
 323:Middlewares/lvgl/src/widgets/lv_slider.c ****     lv_slider_t * slider = (lv_slider_t *)obj;
 394              		.loc 1 323 22 view .LVU112
 395 000c 0446     		mov	r4, r0
 396              	.LVL36:
 324:Middlewares/lvgl/src/widgets/lv_slider.c ****     const lv_area_t * clip_area = lv_event_get_param(e);
 397              		.loc 1 324 5 is_stmt 1 view .LVU113
 325:Middlewares/lvgl/src/widgets/lv_slider.c ****     lv_base_dir_t base_dir = lv_obj_get_style_base_dir(obj, LV_PART_MAIN);
 398              		.loc 1 325 5 view .LVU114
 325:Middlewares/lvgl/src/widgets/lv_slider.c ****     lv_base_dir_t base_dir = lv_obj_get_style_base_dir(obj, LV_PART_MAIN);
 399              		.loc 1 325 35 is_stmt 0 view .LVU115
 400 000e 2846     		mov	r0, r5
 401              	.LVL37:
 325:Middlewares/lvgl/src/widgets/lv_slider.c ****     lv_base_dir_t base_dir = lv_obj_get_style_base_dir(obj, LV_PART_MAIN);
 402              		.loc 1 325 35 view .LVU116
 403 0010 FFF7FEFF 		bl	lv_event_get_param
 404              	.LVL38:
 405 0014 0746     		mov	r7, r0
 406              	.LVL39:
 326:Middlewares/lvgl/src/widgets/lv_slider.c **** 
 407              		.loc 1 326 5 is_stmt 1 view .LVU117
 408              	.LBB94:
 409              	.LBI94:
 113:Middlewares/lvgl/src/widgets/../core/lv_obj_style_gen.h **** }
 114:Middlewares/lvgl/src/widgets/../core/lv_obj_style_gen.h **** 
ARM GAS  /tmp/ccj9m3on.s 			page 19


 115:Middlewares/lvgl/src/widgets/../core/lv_obj_style_gen.h **** static inline lv_coord_t lv_obj_get_style_pad_row(const struct _lv_obj_t * obj, uint32_t part)
 116:Middlewares/lvgl/src/widgets/../core/lv_obj_style_gen.h **** {
 117:Middlewares/lvgl/src/widgets/../core/lv_obj_style_gen.h ****     lv_style_value_t v = lv_obj_get_style_prop(obj, part, LV_STYLE_PAD_ROW);
 118:Middlewares/lvgl/src/widgets/../core/lv_obj_style_gen.h ****     return (lv_coord_t)v.num;
 119:Middlewares/lvgl/src/widgets/../core/lv_obj_style_gen.h **** }
 120:Middlewares/lvgl/src/widgets/../core/lv_obj_style_gen.h **** 
 121:Middlewares/lvgl/src/widgets/../core/lv_obj_style_gen.h **** static inline lv_coord_t lv_obj_get_style_pad_column(const struct _lv_obj_t * obj, uint32_t part)
 122:Middlewares/lvgl/src/widgets/../core/lv_obj_style_gen.h **** {
 123:Middlewares/lvgl/src/widgets/../core/lv_obj_style_gen.h ****     lv_style_value_t v = lv_obj_get_style_prop(obj, part, LV_STYLE_PAD_COLUMN);
 124:Middlewares/lvgl/src/widgets/../core/lv_obj_style_gen.h ****     return (lv_coord_t)v.num;
 125:Middlewares/lvgl/src/widgets/../core/lv_obj_style_gen.h **** }
 126:Middlewares/lvgl/src/widgets/../core/lv_obj_style_gen.h **** 
 127:Middlewares/lvgl/src/widgets/../core/lv_obj_style_gen.h **** static inline lv_coord_t lv_obj_get_style_radius(const struct _lv_obj_t * obj, uint32_t part)
 128:Middlewares/lvgl/src/widgets/../core/lv_obj_style_gen.h **** {
 129:Middlewares/lvgl/src/widgets/../core/lv_obj_style_gen.h ****     lv_style_value_t v = lv_obj_get_style_prop(obj, part, LV_STYLE_RADIUS);
 130:Middlewares/lvgl/src/widgets/../core/lv_obj_style_gen.h ****     return (lv_coord_t)v.num;
 131:Middlewares/lvgl/src/widgets/../core/lv_obj_style_gen.h **** }
 132:Middlewares/lvgl/src/widgets/../core/lv_obj_style_gen.h **** 
 133:Middlewares/lvgl/src/widgets/../core/lv_obj_style_gen.h **** static inline bool lv_obj_get_style_clip_corner(const struct _lv_obj_t * obj, uint32_t part)
 134:Middlewares/lvgl/src/widgets/../core/lv_obj_style_gen.h **** {
 135:Middlewares/lvgl/src/widgets/../core/lv_obj_style_gen.h ****     lv_style_value_t v = lv_obj_get_style_prop(obj, part, LV_STYLE_CLIP_CORNER);
 136:Middlewares/lvgl/src/widgets/../core/lv_obj_style_gen.h ****     return (bool)v.num;
 137:Middlewares/lvgl/src/widgets/../core/lv_obj_style_gen.h **** }
 138:Middlewares/lvgl/src/widgets/../core/lv_obj_style_gen.h **** 
 139:Middlewares/lvgl/src/widgets/../core/lv_obj_style_gen.h **** static inline lv_opa_t lv_obj_get_style_opa(const struct _lv_obj_t * obj, uint32_t part)
 140:Middlewares/lvgl/src/widgets/../core/lv_obj_style_gen.h **** {
 141:Middlewares/lvgl/src/widgets/../core/lv_obj_style_gen.h ****     lv_style_value_t v = lv_obj_get_style_prop(obj, part, LV_STYLE_OPA);
 142:Middlewares/lvgl/src/widgets/../core/lv_obj_style_gen.h ****     return (lv_opa_t)v.num;
 143:Middlewares/lvgl/src/widgets/../core/lv_obj_style_gen.h **** }
 144:Middlewares/lvgl/src/widgets/../core/lv_obj_style_gen.h **** 
 145:Middlewares/lvgl/src/widgets/../core/lv_obj_style_gen.h **** static inline const lv_color_filter_dsc_t * lv_obj_get_style_color_filter_dsc(const struct _lv_obj_
 146:Middlewares/lvgl/src/widgets/../core/lv_obj_style_gen.h **** {
 147:Middlewares/lvgl/src/widgets/../core/lv_obj_style_gen.h ****     lv_style_value_t v = lv_obj_get_style_prop(obj, part, LV_STYLE_COLOR_FILTER_DSC);
 148:Middlewares/lvgl/src/widgets/../core/lv_obj_style_gen.h ****     return (const lv_color_filter_dsc_t *)v.ptr;
 149:Middlewares/lvgl/src/widgets/../core/lv_obj_style_gen.h **** }
 150:Middlewares/lvgl/src/widgets/../core/lv_obj_style_gen.h **** 
 151:Middlewares/lvgl/src/widgets/../core/lv_obj_style_gen.h **** static inline lv_opa_t lv_obj_get_style_color_filter_opa(const struct _lv_obj_t * obj, uint32_t par
 152:Middlewares/lvgl/src/widgets/../core/lv_obj_style_gen.h **** {
 153:Middlewares/lvgl/src/widgets/../core/lv_obj_style_gen.h ****     lv_style_value_t v = lv_obj_get_style_prop(obj, part, LV_STYLE_COLOR_FILTER_OPA);
 154:Middlewares/lvgl/src/widgets/../core/lv_obj_style_gen.h ****     return (lv_opa_t)v.num;
 155:Middlewares/lvgl/src/widgets/../core/lv_obj_style_gen.h **** }
 156:Middlewares/lvgl/src/widgets/../core/lv_obj_style_gen.h **** 
 157:Middlewares/lvgl/src/widgets/../core/lv_obj_style_gen.h **** static inline uint32_t lv_obj_get_style_anim_time(const struct _lv_obj_t * obj, uint32_t part)
 158:Middlewares/lvgl/src/widgets/../core/lv_obj_style_gen.h **** {
 159:Middlewares/lvgl/src/widgets/../core/lv_obj_style_gen.h ****     lv_style_value_t v = lv_obj_get_style_prop(obj, part, LV_STYLE_ANIM_TIME);
 160:Middlewares/lvgl/src/widgets/../core/lv_obj_style_gen.h ****     return (uint32_t)v.num;
 161:Middlewares/lvgl/src/widgets/../core/lv_obj_style_gen.h **** }
 162:Middlewares/lvgl/src/widgets/../core/lv_obj_style_gen.h **** 
 163:Middlewares/lvgl/src/widgets/../core/lv_obj_style_gen.h **** static inline uint32_t lv_obj_get_style_anim_speed(const struct _lv_obj_t * obj, uint32_t part)
 164:Middlewares/lvgl/src/widgets/../core/lv_obj_style_gen.h **** {
 165:Middlewares/lvgl/src/widgets/../core/lv_obj_style_gen.h ****     lv_style_value_t v = lv_obj_get_style_prop(obj, part, LV_STYLE_ANIM_SPEED);
 166:Middlewares/lvgl/src/widgets/../core/lv_obj_style_gen.h ****     return (uint32_t)v.num;
 167:Middlewares/lvgl/src/widgets/../core/lv_obj_style_gen.h **** }
 168:Middlewares/lvgl/src/widgets/../core/lv_obj_style_gen.h **** 
 169:Middlewares/lvgl/src/widgets/../core/lv_obj_style_gen.h **** static inline const lv_style_transition_dsc_t * lv_obj_get_style_transition(const struct _lv_obj_t 
 170:Middlewares/lvgl/src/widgets/../core/lv_obj_style_gen.h **** {
 171:Middlewares/lvgl/src/widgets/../core/lv_obj_style_gen.h ****     lv_style_value_t v = lv_obj_get_style_prop(obj, part, LV_STYLE_TRANSITION);
ARM GAS  /tmp/ccj9m3on.s 			page 20


 172:Middlewares/lvgl/src/widgets/../core/lv_obj_style_gen.h ****     return (const lv_style_transition_dsc_t *)v.ptr;
 173:Middlewares/lvgl/src/widgets/../core/lv_obj_style_gen.h **** }
 174:Middlewares/lvgl/src/widgets/../core/lv_obj_style_gen.h **** 
 175:Middlewares/lvgl/src/widgets/../core/lv_obj_style_gen.h **** static inline lv_blend_mode_t lv_obj_get_style_blend_mode(const struct _lv_obj_t * obj, uint32_t pa
 176:Middlewares/lvgl/src/widgets/../core/lv_obj_style_gen.h **** {
 177:Middlewares/lvgl/src/widgets/../core/lv_obj_style_gen.h ****     lv_style_value_t v = lv_obj_get_style_prop(obj, part, LV_STYLE_BLEND_MODE);
 178:Middlewares/lvgl/src/widgets/../core/lv_obj_style_gen.h ****     return (lv_blend_mode_t)v.num;
 179:Middlewares/lvgl/src/widgets/../core/lv_obj_style_gen.h **** }
 180:Middlewares/lvgl/src/widgets/../core/lv_obj_style_gen.h **** 
 181:Middlewares/lvgl/src/widgets/../core/lv_obj_style_gen.h **** static inline uint16_t lv_obj_get_style_layout(const struct _lv_obj_t * obj, uint32_t part)
 182:Middlewares/lvgl/src/widgets/../core/lv_obj_style_gen.h **** {
 183:Middlewares/lvgl/src/widgets/../core/lv_obj_style_gen.h ****     lv_style_value_t v = lv_obj_get_style_prop(obj, part, LV_STYLE_LAYOUT);
 184:Middlewares/lvgl/src/widgets/../core/lv_obj_style_gen.h ****     return (uint16_t)v.num;
 185:Middlewares/lvgl/src/widgets/../core/lv_obj_style_gen.h **** }
 186:Middlewares/lvgl/src/widgets/../core/lv_obj_style_gen.h **** 
 187:Middlewares/lvgl/src/widgets/../core/lv_obj_style_gen.h **** static inline lv_base_dir_t lv_obj_get_style_base_dir(const struct _lv_obj_t * obj, uint32_t part)
 410              		.loc 2 187 29 view .LVU118
 411              	.LBB95:
 188:Middlewares/lvgl/src/widgets/../core/lv_obj_style_gen.h **** {
 189:Middlewares/lvgl/src/widgets/../core/lv_obj_style_gen.h ****     lv_style_value_t v = lv_obj_get_style_prop(obj, part, LV_STYLE_BASE_DIR);
 412              		.loc 2 189 5 view .LVU119
 413              		.loc 2 189 26 is_stmt 0 view .LVU120
 414 0016 41F26A42 		movw	r2, #5226
 415 001a 0021     		movs	r1, #0
 416 001c 2046     		mov	r0, r4
 417              	.LVL40:
 418              		.loc 2 189 26 view .LVU121
 419 001e FFF7FEFF 		bl	lv_obj_get_style_prop
 420              	.LVL41:
 190:Middlewares/lvgl/src/widgets/../core/lv_obj_style_gen.h ****     return (lv_base_dir_t)v.num;
 421              		.loc 2 190 5 is_stmt 1 view .LVU122
 422              		.loc 2 190 12 is_stmt 0 view .LVU123
 423 0022 5FFA80F9 		uxtb	r9, r0
 424              	.LVL42:
 425              		.loc 2 190 12 view .LVU124
 426              	.LBE95:
 427              	.LBE94:
 328:Middlewares/lvgl/src/widgets/lv_slider.c ****     lv_coord_t objh = lv_obj_get_height(obj);
 428              		.loc 1 328 5 is_stmt 1 view .LVU125
 328:Middlewares/lvgl/src/widgets/lv_slider.c ****     lv_coord_t objh = lv_obj_get_height(obj);
 429              		.loc 1 328 23 is_stmt 0 view .LVU126
 430 0026 2046     		mov	r0, r4
 431 0028 FFF7FEFF 		bl	lv_obj_get_width
 432              	.LVL43:
 433 002c 0646     		mov	r6, r0
 434              	.LVL44:
 329:Middlewares/lvgl/src/widgets/lv_slider.c ****     bool hor = objw >= objh ? true : false;
 435              		.loc 1 329 5 is_stmt 1 view .LVU127
 329:Middlewares/lvgl/src/widgets/lv_slider.c ****     bool hor = objw >= objh ? true : false;
 436              		.loc 1 329 23 is_stmt 0 view .LVU128
 437 002e 2046     		mov	r0, r4
 438 0030 FFF7FEFF 		bl	lv_obj_get_height
 439              	.LVL45:
 440 0034 0546     		mov	r5, r0
 441              	.LVL46:
 330:Middlewares/lvgl/src/widgets/lv_slider.c ****     lv_coord_t knob_size = hor ? objh : objw;
 442              		.loc 1 330 5 is_stmt 1 view .LVU129
ARM GAS  /tmp/ccj9m3on.s 			page 21


 330:Middlewares/lvgl/src/widgets/lv_slider.c ****     lv_coord_t knob_size = hor ? objh : objw;
 443              		.loc 1 330 10 is_stmt 0 view .LVU130
 444 0036 8642     		cmp	r6, r0
 445 0038 ACBF     		ite	ge
 446 003a 4FF0010B 		movge	fp, #1
 447 003e 4FF0000B 		movlt	fp, #0
 448              	.LVL47:
 331:Middlewares/lvgl/src/widgets/lv_slider.c ****     bool sym = false;
 449              		.loc 1 331 5 is_stmt 1 view .LVU131
 331:Middlewares/lvgl/src/widgets/lv_slider.c ****     bool sym = false;
 450              		.loc 1 331 16 is_stmt 0 view .LVU132
 451 0042 61DB     		blt	.L42
 452 0044 0190     		str	r0, [sp, #4]
 453              	.L13:
 454              	.LVL48:
 332:Middlewares/lvgl/src/widgets/lv_slider.c ****     if(slider->bar.mode == LV_BAR_MODE_SYMMETRICAL && slider->bar.min_value < 0 && slider->bar.max_
 455              		.loc 1 332 5 is_stmt 1 discriminator 4 view .LVU133
 333:Middlewares/lvgl/src/widgets/lv_slider.c **** 
 456              		.loc 1 333 5 discriminator 4 view .LVU134
 333:Middlewares/lvgl/src/widgets/lv_slider.c **** 
 457              		.loc 1 333 25 is_stmt 0 discriminator 4 view .LVU135
 458 0046 94F85C30 		ldrb	r3, [r4, #92]	@ zero_extendqisi2
 459 004a 03F00303 		and	r3, r3, #3
 333:Middlewares/lvgl/src/widgets/lv_slider.c **** 
 460              		.loc 1 333 7 discriminator 4 view .LVU136
 461 004e 012B     		cmp	r3, #1
 462 0050 5CD0     		beq	.L48
 332:Middlewares/lvgl/src/widgets/lv_slider.c ****     if(slider->bar.mode == LV_BAR_MODE_SYMMETRICAL && slider->bar.min_value < 0 && slider->bar.max_
 463              		.loc 1 332 10 view .LVU137
 464 0052 0023     		movs	r3, #0
 465              	.L14:
 466              	.LVL49:
 335:Middlewares/lvgl/src/widgets/lv_slider.c **** 
 467              		.loc 1 335 5 is_stmt 1 view .LVU138
 338:Middlewares/lvgl/src/widgets/lv_slider.c ****         if(!sym) {
 468              		.loc 1 338 5 view .LVU139
 338:Middlewares/lvgl/src/widgets/lv_slider.c ****         if(!sym) {
 469              		.loc 1 338 7 is_stmt 0 view .LVU140
 470 0054 AE42     		cmp	r6, r5
 471 0056 C0F2A080 		blt	.L15
 339:Middlewares/lvgl/src/widgets/lv_slider.c ****             knob_area.x1 = LV_SLIDER_KNOB_COORD(hor, base_dir == LV_BASE_DIR_RTL, slider->bar.indic
 472              		.loc 1 339 9 is_stmt 1 view .LVU141
 339:Middlewares/lvgl/src/widgets/lv_slider.c ****             knob_area.x1 = LV_SLIDER_KNOB_COORD(hor, base_dir == LV_BASE_DIR_RTL, slider->bar.indic
 473              		.loc 1 339 11 is_stmt 0 view .LVU142
 474 005a 002B     		cmp	r3, #0
 475 005c 6ED1     		bne	.L16
 340:Middlewares/lvgl/src/widgets/lv_slider.c ****         }
 476              		.loc 1 340 13 is_stmt 1 view .LVU143
 340:Middlewares/lvgl/src/widgets/lv_slider.c ****         }
 477              		.loc 1 340 26 is_stmt 0 view .LVU144
 478 005e AE42     		cmp	r6, r5
 479 0060 63DB     		blt	.L17
 340:Middlewares/lvgl/src/widgets/lv_slider.c ****         }
 480              		.loc 1 340 26 discriminator 1 view .LVU145
 481 0062 B9F1010F 		cmp	r9, #1
 482 0066 5DD0     		beq	.L49
 340:Middlewares/lvgl/src/widgets/lv_slider.c ****         }
ARM GAS  /tmp/ccj9m3on.s 			page 22


 483              		.loc 1 340 26 discriminator 4 view .LVU146
 484 0068 B4F93830 		ldrsh	r3, [r4, #56]
 485              	.LVL50:
 486              	.L19:
 340:Middlewares/lvgl/src/widgets/lv_slider.c ****         }
 487              		.loc 1 340 26 discriminator 12 view .LVU147
 488 006c ADF8B830 		strh	r3, [sp, #184]	@ movhi
 489              	.L21:
 366:Middlewares/lvgl/src/widgets/lv_slider.c ****     lv_draw_rect_dsc_init(&knob_rect_dsc);
 490              		.loc 1 366 5 is_stmt 1 view .LVU148
 367:Middlewares/lvgl/src/widgets/lv_slider.c ****     lv_obj_init_draw_rect_dsc(obj, LV_PART_KNOB, &knob_rect_dsc);
 491              		.loc 1 367 5 view .LVU149
 492 0070 0DF18408 		add	r8, sp, #132
 493 0074 4046     		mov	r0, r8
 494              	.LVL51:
 367:Middlewares/lvgl/src/widgets/lv_slider.c ****     lv_obj_init_draw_rect_dsc(obj, LV_PART_KNOB, &knob_rect_dsc);
 495              		.loc 1 367 5 is_stmt 0 view .LVU150
 496 0076 FFF7FEFF 		bl	lv_draw_rect_dsc_init
 497              	.LVL52:
 368:Middlewares/lvgl/src/widgets/lv_slider.c **** 
 498              		.loc 1 368 5 is_stmt 1 view .LVU151
 499 007a 4246     		mov	r2, r8
 500 007c 4FF44031 		mov	r1, #196608
 501 0080 2046     		mov	r0, r4
 502 0082 FFF7FEFF 		bl	lv_obj_init_draw_rect_dsc
 503              	.LVL53:
 370:Middlewares/lvgl/src/widgets/lv_slider.c ****     lv_area_copy(&slider->right_knob_area, &knob_area);
 504              		.loc 1 370 5 view .LVU152
 505 0086 5B46     		mov	r3, fp
 506 0088 019A     		ldr	r2, [sp, #4]
 507 008a 2EA9     		add	r1, sp, #184
 508 008c 2046     		mov	r0, r4
 509 008e FFF7FEFF 		bl	position_knob
 510              	.LVL54:
 371:Middlewares/lvgl/src/widgets/lv_slider.c **** 
 511              		.loc 1 371 5 view .LVU153
 512 0092 04F1680A 		add	r10, r4, #104
 513              	.LVL55:
 514              	.LBB96:
 515              	.LBI96:
 516              		.file 3 "Middlewares/lvgl/src/widgets/../core/../misc/../font/../misc/lv_area.h"
   1:Middlewares/lvgl/src/widgets/../core/../misc/../font/../misc/lv_area.h **** /**
   2:Middlewares/lvgl/src/widgets/../core/../misc/../font/../misc/lv_area.h ****  * @file lv_area.h
   3:Middlewares/lvgl/src/widgets/../core/../misc/../font/../misc/lv_area.h ****  *
   4:Middlewares/lvgl/src/widgets/../core/../misc/../font/../misc/lv_area.h ****  */
   5:Middlewares/lvgl/src/widgets/../core/../misc/../font/../misc/lv_area.h **** 
   6:Middlewares/lvgl/src/widgets/../core/../misc/../font/../misc/lv_area.h **** #ifndef LV_AREA_H
   7:Middlewares/lvgl/src/widgets/../core/../misc/../font/../misc/lv_area.h **** #define LV_AREA_H
   8:Middlewares/lvgl/src/widgets/../core/../misc/../font/../misc/lv_area.h **** 
   9:Middlewares/lvgl/src/widgets/../core/../misc/../font/../misc/lv_area.h **** #ifdef __cplusplus
  10:Middlewares/lvgl/src/widgets/../core/../misc/../font/../misc/lv_area.h **** extern "C" {
  11:Middlewares/lvgl/src/widgets/../core/../misc/../font/../misc/lv_area.h **** #endif
  12:Middlewares/lvgl/src/widgets/../core/../misc/../font/../misc/lv_area.h **** 
  13:Middlewares/lvgl/src/widgets/../core/../misc/../font/../misc/lv_area.h **** /*********************
  14:Middlewares/lvgl/src/widgets/../core/../misc/../font/../misc/lv_area.h ****  *      INCLUDES
  15:Middlewares/lvgl/src/widgets/../core/../misc/../font/../misc/lv_area.h ****  *********************/
  16:Middlewares/lvgl/src/widgets/../core/../misc/../font/../misc/lv_area.h **** #include "../lv_conf_internal.h"
ARM GAS  /tmp/ccj9m3on.s 			page 23


  17:Middlewares/lvgl/src/widgets/../core/../misc/../font/../misc/lv_area.h **** #include <string.h>
  18:Middlewares/lvgl/src/widgets/../core/../misc/../font/../misc/lv_area.h **** #include <stdbool.h>
  19:Middlewares/lvgl/src/widgets/../core/../misc/../font/../misc/lv_area.h **** #include <stdint.h>
  20:Middlewares/lvgl/src/widgets/../core/../misc/../font/../misc/lv_area.h **** 
  21:Middlewares/lvgl/src/widgets/../core/../misc/../font/../misc/lv_area.h **** /*********************
  22:Middlewares/lvgl/src/widgets/../core/../misc/../font/../misc/lv_area.h ****  *      DEFINES
  23:Middlewares/lvgl/src/widgets/../core/../misc/../font/../misc/lv_area.h ****  *********************/
  24:Middlewares/lvgl/src/widgets/../core/../misc/../font/../misc/lv_area.h **** 
  25:Middlewares/lvgl/src/widgets/../core/../misc/../font/../misc/lv_area.h **** #define _LV_COORD_MAX_REDUCE    8192
  26:Middlewares/lvgl/src/widgets/../core/../misc/../font/../misc/lv_area.h **** 
  27:Middlewares/lvgl/src/widgets/../core/../misc/../font/../misc/lv_area.h **** #if LV_USE_LARGE_COORD
  28:Middlewares/lvgl/src/widgets/../core/../misc/../font/../misc/lv_area.h **** typedef int32_t lv_coord_t;
  29:Middlewares/lvgl/src/widgets/../core/../misc/../font/../misc/lv_area.h **** #else
  30:Middlewares/lvgl/src/widgets/../core/../misc/../font/../misc/lv_area.h **** typedef int16_t lv_coord_t;
  31:Middlewares/lvgl/src/widgets/../core/../misc/../font/../misc/lv_area.h **** #endif
  32:Middlewares/lvgl/src/widgets/../core/../misc/../font/../misc/lv_area.h **** 
  33:Middlewares/lvgl/src/widgets/../core/../misc/../font/../misc/lv_area.h **** /*To allow some special values in the end reduce the max value*/
  34:Middlewares/lvgl/src/widgets/../core/../misc/../font/../misc/lv_area.h **** #define LV_COORD_MAX ((lv_coord_t)((uint32_t)((uint32_t)1 << (8 * sizeof(lv_coord_t) - 1)) - _LV_CO
  35:Middlewares/lvgl/src/widgets/../core/../misc/../font/../misc/lv_area.h **** #define LV_COORD_MIN (-LV_COORD_MAX)
  36:Middlewares/lvgl/src/widgets/../core/../misc/../font/../misc/lv_area.h **** 
  37:Middlewares/lvgl/src/widgets/../core/../misc/../font/../misc/lv_area.h **** LV_EXPORT_CONST_INT(LV_COORD_MAX);
  38:Middlewares/lvgl/src/widgets/../core/../misc/../font/../misc/lv_area.h **** LV_EXPORT_CONST_INT(LV_COORD_MIN);
  39:Middlewares/lvgl/src/widgets/../core/../misc/../font/../misc/lv_area.h **** 
  40:Middlewares/lvgl/src/widgets/../core/../misc/../font/../misc/lv_area.h **** /**********************
  41:Middlewares/lvgl/src/widgets/../core/../misc/../font/../misc/lv_area.h ****  *      TYPEDEFS
  42:Middlewares/lvgl/src/widgets/../core/../misc/../font/../misc/lv_area.h ****  **********************/
  43:Middlewares/lvgl/src/widgets/../core/../misc/../font/../misc/lv_area.h **** 
  44:Middlewares/lvgl/src/widgets/../core/../misc/../font/../misc/lv_area.h **** /**
  45:Middlewares/lvgl/src/widgets/../core/../misc/../font/../misc/lv_area.h ****  * Represents a point on the screen.
  46:Middlewares/lvgl/src/widgets/../core/../misc/../font/../misc/lv_area.h ****  */
  47:Middlewares/lvgl/src/widgets/../core/../misc/../font/../misc/lv_area.h **** typedef struct {
  48:Middlewares/lvgl/src/widgets/../core/../misc/../font/../misc/lv_area.h ****     lv_coord_t x;
  49:Middlewares/lvgl/src/widgets/../core/../misc/../font/../misc/lv_area.h ****     lv_coord_t y;
  50:Middlewares/lvgl/src/widgets/../core/../misc/../font/../misc/lv_area.h **** } lv_point_t;
  51:Middlewares/lvgl/src/widgets/../core/../misc/../font/../misc/lv_area.h **** 
  52:Middlewares/lvgl/src/widgets/../core/../misc/../font/../misc/lv_area.h **** /** Represents an area of the screen.*/
  53:Middlewares/lvgl/src/widgets/../core/../misc/../font/../misc/lv_area.h **** typedef struct {
  54:Middlewares/lvgl/src/widgets/../core/../misc/../font/../misc/lv_area.h ****     lv_coord_t x1;
  55:Middlewares/lvgl/src/widgets/../core/../misc/../font/../misc/lv_area.h ****     lv_coord_t y1;
  56:Middlewares/lvgl/src/widgets/../core/../misc/../font/../misc/lv_area.h ****     lv_coord_t x2;
  57:Middlewares/lvgl/src/widgets/../core/../misc/../font/../misc/lv_area.h ****     lv_coord_t y2;
  58:Middlewares/lvgl/src/widgets/../core/../misc/../font/../misc/lv_area.h **** } lv_area_t;
  59:Middlewares/lvgl/src/widgets/../core/../misc/../font/../misc/lv_area.h **** 
  60:Middlewares/lvgl/src/widgets/../core/../misc/../font/../misc/lv_area.h **** /** Alignments*/
  61:Middlewares/lvgl/src/widgets/../core/../misc/../font/../misc/lv_area.h **** enum {
  62:Middlewares/lvgl/src/widgets/../core/../misc/../font/../misc/lv_area.h ****     LV_ALIGN_DEFAULT = 0,
  63:Middlewares/lvgl/src/widgets/../core/../misc/../font/../misc/lv_area.h ****     LV_ALIGN_TOP_LEFT,
  64:Middlewares/lvgl/src/widgets/../core/../misc/../font/../misc/lv_area.h ****     LV_ALIGN_TOP_MID,
  65:Middlewares/lvgl/src/widgets/../core/../misc/../font/../misc/lv_area.h ****     LV_ALIGN_TOP_RIGHT,
  66:Middlewares/lvgl/src/widgets/../core/../misc/../font/../misc/lv_area.h ****     LV_ALIGN_BOTTOM_LEFT,
  67:Middlewares/lvgl/src/widgets/../core/../misc/../font/../misc/lv_area.h ****     LV_ALIGN_BOTTOM_MID,
  68:Middlewares/lvgl/src/widgets/../core/../misc/../font/../misc/lv_area.h ****     LV_ALIGN_BOTTOM_RIGHT,
  69:Middlewares/lvgl/src/widgets/../core/../misc/../font/../misc/lv_area.h ****     LV_ALIGN_LEFT_MID,
  70:Middlewares/lvgl/src/widgets/../core/../misc/../font/../misc/lv_area.h ****     LV_ALIGN_RIGHT_MID,
  71:Middlewares/lvgl/src/widgets/../core/../misc/../font/../misc/lv_area.h ****     LV_ALIGN_CENTER,
  72:Middlewares/lvgl/src/widgets/../core/../misc/../font/../misc/lv_area.h **** 
  73:Middlewares/lvgl/src/widgets/../core/../misc/../font/../misc/lv_area.h ****     LV_ALIGN_OUT_TOP_LEFT,
ARM GAS  /tmp/ccj9m3on.s 			page 24


  74:Middlewares/lvgl/src/widgets/../core/../misc/../font/../misc/lv_area.h ****     LV_ALIGN_OUT_TOP_MID,
  75:Middlewares/lvgl/src/widgets/../core/../misc/../font/../misc/lv_area.h ****     LV_ALIGN_OUT_TOP_RIGHT,
  76:Middlewares/lvgl/src/widgets/../core/../misc/../font/../misc/lv_area.h ****     LV_ALIGN_OUT_BOTTOM_LEFT,
  77:Middlewares/lvgl/src/widgets/../core/../misc/../font/../misc/lv_area.h ****     LV_ALIGN_OUT_BOTTOM_MID,
  78:Middlewares/lvgl/src/widgets/../core/../misc/../font/../misc/lv_area.h ****     LV_ALIGN_OUT_BOTTOM_RIGHT,
  79:Middlewares/lvgl/src/widgets/../core/../misc/../font/../misc/lv_area.h ****     LV_ALIGN_OUT_LEFT_TOP,
  80:Middlewares/lvgl/src/widgets/../core/../misc/../font/../misc/lv_area.h ****     LV_ALIGN_OUT_LEFT_MID,
  81:Middlewares/lvgl/src/widgets/../core/../misc/../font/../misc/lv_area.h ****     LV_ALIGN_OUT_LEFT_BOTTOM,
  82:Middlewares/lvgl/src/widgets/../core/../misc/../font/../misc/lv_area.h ****     LV_ALIGN_OUT_RIGHT_TOP,
  83:Middlewares/lvgl/src/widgets/../core/../misc/../font/../misc/lv_area.h ****     LV_ALIGN_OUT_RIGHT_MID,
  84:Middlewares/lvgl/src/widgets/../core/../misc/../font/../misc/lv_area.h ****     LV_ALIGN_OUT_RIGHT_BOTTOM,
  85:Middlewares/lvgl/src/widgets/../core/../misc/../font/../misc/lv_area.h **** };
  86:Middlewares/lvgl/src/widgets/../core/../misc/../font/../misc/lv_area.h **** typedef uint8_t lv_align_t;
  87:Middlewares/lvgl/src/widgets/../core/../misc/../font/../misc/lv_area.h **** 
  88:Middlewares/lvgl/src/widgets/../core/../misc/../font/../misc/lv_area.h **** enum {
  89:Middlewares/lvgl/src/widgets/../core/../misc/../font/../misc/lv_area.h ****     LV_DIR_NONE     = 0x00,
  90:Middlewares/lvgl/src/widgets/../core/../misc/../font/../misc/lv_area.h ****     LV_DIR_LEFT     = (1 << 0),
  91:Middlewares/lvgl/src/widgets/../core/../misc/../font/../misc/lv_area.h ****     LV_DIR_RIGHT    = (1 << 1),
  92:Middlewares/lvgl/src/widgets/../core/../misc/../font/../misc/lv_area.h ****     LV_DIR_TOP      = (1 << 2),
  93:Middlewares/lvgl/src/widgets/../core/../misc/../font/../misc/lv_area.h ****     LV_DIR_BOTTOM   = (1 << 3),
  94:Middlewares/lvgl/src/widgets/../core/../misc/../font/../misc/lv_area.h ****     LV_DIR_HOR      = LV_DIR_LEFT | LV_DIR_RIGHT,
  95:Middlewares/lvgl/src/widgets/../core/../misc/../font/../misc/lv_area.h ****     LV_DIR_VER      = LV_DIR_TOP | LV_DIR_BOTTOM,
  96:Middlewares/lvgl/src/widgets/../core/../misc/../font/../misc/lv_area.h ****     LV_DIR_ALL      = LV_DIR_HOR | LV_DIR_VER,
  97:Middlewares/lvgl/src/widgets/../core/../misc/../font/../misc/lv_area.h **** };
  98:Middlewares/lvgl/src/widgets/../core/../misc/../font/../misc/lv_area.h **** 
  99:Middlewares/lvgl/src/widgets/../core/../misc/../font/../misc/lv_area.h **** typedef uint8_t lv_dir_t;
 100:Middlewares/lvgl/src/widgets/../core/../misc/../font/../misc/lv_area.h **** 
 101:Middlewares/lvgl/src/widgets/../core/../misc/../font/../misc/lv_area.h **** /**********************
 102:Middlewares/lvgl/src/widgets/../core/../misc/../font/../misc/lv_area.h ****  * GLOBAL PROTOTYPES
 103:Middlewares/lvgl/src/widgets/../core/../misc/../font/../misc/lv_area.h ****  **********************/
 104:Middlewares/lvgl/src/widgets/../core/../misc/../font/../misc/lv_area.h **** 
 105:Middlewares/lvgl/src/widgets/../core/../misc/../font/../misc/lv_area.h **** /**
 106:Middlewares/lvgl/src/widgets/../core/../misc/../font/../misc/lv_area.h ****  * Initialize an area
 107:Middlewares/lvgl/src/widgets/../core/../misc/../font/../misc/lv_area.h ****  * @param area_p pointer to an area
 108:Middlewares/lvgl/src/widgets/../core/../misc/../font/../misc/lv_area.h ****  * @param x1 left coordinate of the area
 109:Middlewares/lvgl/src/widgets/../core/../misc/../font/../misc/lv_area.h ****  * @param y1 top coordinate of the area
 110:Middlewares/lvgl/src/widgets/../core/../misc/../font/../misc/lv_area.h ****  * @param x2 right coordinate of the area
 111:Middlewares/lvgl/src/widgets/../core/../misc/../font/../misc/lv_area.h ****  * @param y2 bottom coordinate of the area
 112:Middlewares/lvgl/src/widgets/../core/../misc/../font/../misc/lv_area.h ****  */
 113:Middlewares/lvgl/src/widgets/../core/../misc/../font/../misc/lv_area.h **** void lv_area_set(lv_area_t * area_p, lv_coord_t x1, lv_coord_t y1, lv_coord_t x2, lv_coord_t y2);
 114:Middlewares/lvgl/src/widgets/../core/../misc/../font/../misc/lv_area.h **** 
 115:Middlewares/lvgl/src/widgets/../core/../misc/../font/../misc/lv_area.h **** /**
 116:Middlewares/lvgl/src/widgets/../core/../misc/../font/../misc/lv_area.h ****  * Copy an area
 117:Middlewares/lvgl/src/widgets/../core/../misc/../font/../misc/lv_area.h ****  * @param dest pointer to the destination area
 118:Middlewares/lvgl/src/widgets/../core/../misc/../font/../misc/lv_area.h ****  * @param src pointer to the source area
 119:Middlewares/lvgl/src/widgets/../core/../misc/../font/../misc/lv_area.h ****  */
 120:Middlewares/lvgl/src/widgets/../core/../misc/../font/../misc/lv_area.h **** inline static void lv_area_copy(lv_area_t * dest, const lv_area_t * src)
 517              		.loc 3 120 20 view .LVU154
 518              	.LBB97:
 121:Middlewares/lvgl/src/widgets/../core/../misc/../font/../misc/lv_area.h **** {
 122:Middlewares/lvgl/src/widgets/../core/../misc/../font/../misc/lv_area.h ****     dest->x1 = src->x1;
 519              		.loc 3 122 5 view .LVU155
 520              		.loc 3 122 19 is_stmt 0 view .LVU156
 521 0096 BDF9B830 		ldrsh	r3, [sp, #184]
 522              		.loc 3 122 14 view .LVU157
 523 009a A4F86830 		strh	r3, [r4, #104]	@ movhi
 123:Middlewares/lvgl/src/widgets/../core/../misc/../font/../misc/lv_area.h ****     dest->y1 = src->y1;
ARM GAS  /tmp/ccj9m3on.s 			page 25


 524              		.loc 3 123 5 is_stmt 1 view .LVU158
 525              		.loc 3 123 19 is_stmt 0 view .LVU159
 526 009e BDF9BA30 		ldrsh	r3, [sp, #186]
 527              		.loc 3 123 14 view .LVU160
 528 00a2 A4F86A30 		strh	r3, [r4, #106]	@ movhi
 124:Middlewares/lvgl/src/widgets/../core/../misc/../font/../misc/lv_area.h ****     dest->x2 = src->x2;
 529              		.loc 3 124 5 is_stmt 1 view .LVU161
 530              		.loc 3 124 19 is_stmt 0 view .LVU162
 531 00a6 BDF9BC30 		ldrsh	r3, [sp, #188]
 532              		.loc 3 124 14 view .LVU163
 533 00aa A4F86C30 		strh	r3, [r4, #108]	@ movhi
 125:Middlewares/lvgl/src/widgets/../core/../misc/../font/../misc/lv_area.h ****     dest->y2 = src->y2;
 534              		.loc 3 125 5 is_stmt 1 view .LVU164
 535              		.loc 3 125 19 is_stmt 0 view .LVU165
 536 00ae BDF9BE30 		ldrsh	r3, [sp, #190]
 537              		.loc 3 125 14 view .LVU166
 538 00b2 A4F86E30 		strh	r3, [r4, #110]	@ movhi
 539              	.LVL56:
 540              		.loc 3 125 14 view .LVU167
 541              	.LBE97:
 542              	.LBE96:
 373:Middlewares/lvgl/src/widgets/lv_slider.c ****     lv_obj_draw_dsc_init(&dsc, clip_area);
 543              		.loc 1 373 5 is_stmt 1 view .LVU168
 374:Middlewares/lvgl/src/widgets/lv_slider.c ****     dsc.part = LV_PART_KNOB;
 544              		.loc 1 374 5 view .LVU169
 545 00b6 3946     		mov	r1, r7
 546 00b8 0FA8     		add	r0, sp, #60
 547 00ba FFF7FEFF 		bl	lv_obj_draw_dsc_init
 548              	.LVL57:
 375:Middlewares/lvgl/src/widgets/lv_slider.c ****     dsc.id = 0;
 549              		.loc 1 375 5 view .LVU170
 375:Middlewares/lvgl/src/widgets/lv_slider.c ****     dsc.id = 0;
 550              		.loc 1 375 14 is_stmt 0 view .LVU171
 551 00be 4FF44033 		mov	r3, #196608
 552 00c2 1C93     		str	r3, [sp, #112]
 376:Middlewares/lvgl/src/widgets/lv_slider.c ****     dsc.draw_area = &slider->right_knob_area;
 553              		.loc 1 376 5 is_stmt 1 view .LVU172
 376:Middlewares/lvgl/src/widgets/lv_slider.c ****     dsc.draw_area = &slider->right_knob_area;
 554              		.loc 1 376 12 is_stmt 0 view .LVU173
 555 00c4 0023     		movs	r3, #0
 556 00c6 1D93     		str	r3, [sp, #116]
 377:Middlewares/lvgl/src/widgets/lv_slider.c ****     dsc.rect_dsc = &knob_rect_dsc;
 557              		.loc 1 377 5 is_stmt 1 view .LVU174
 377:Middlewares/lvgl/src/widgets/lv_slider.c ****     dsc.rect_dsc = &knob_rect_dsc;
 558              		.loc 1 377 19 is_stmt 0 view .LVU175
 559 00c8 CDF840A0 		str	r10, [sp, #64]
 378:Middlewares/lvgl/src/widgets/lv_slider.c **** 
 560              		.loc 1 378 5 is_stmt 1 view .LVU176
 378:Middlewares/lvgl/src/widgets/lv_slider.c **** 
 561              		.loc 1 378 18 is_stmt 0 view .LVU177
 562 00cc CDF84480 		str	r8, [sp, #68]
 380:Middlewares/lvgl/src/widgets/lv_slider.c ****         lv_event_send(obj, LV_EVENT_DRAW_PART_BEGIN, &dsc);
 563              		.loc 1 380 5 is_stmt 1 view .LVU178
 564              	.LVL58:
 565              	.LBB98:
 566              	.LBI98:
 567              		.file 4 "Middlewares/lvgl/src/widgets/lv_slider.h"
ARM GAS  /tmp/ccj9m3on.s 			page 26


   1:Middlewares/lvgl/src/widgets/lv_slider.h **** /**
   2:Middlewares/lvgl/src/widgets/lv_slider.h ****  * @file lv_slider.h
   3:Middlewares/lvgl/src/widgets/lv_slider.h ****  *
   4:Middlewares/lvgl/src/widgets/lv_slider.h ****  */
   5:Middlewares/lvgl/src/widgets/lv_slider.h **** 
   6:Middlewares/lvgl/src/widgets/lv_slider.h **** #ifndef LV_SLIDER_H
   7:Middlewares/lvgl/src/widgets/lv_slider.h **** #define LV_SLIDER_H
   8:Middlewares/lvgl/src/widgets/lv_slider.h **** 
   9:Middlewares/lvgl/src/widgets/lv_slider.h **** #ifdef __cplusplus
  10:Middlewares/lvgl/src/widgets/lv_slider.h **** extern "C" {
  11:Middlewares/lvgl/src/widgets/lv_slider.h **** #endif
  12:Middlewares/lvgl/src/widgets/lv_slider.h **** 
  13:Middlewares/lvgl/src/widgets/lv_slider.h **** /*********************
  14:Middlewares/lvgl/src/widgets/lv_slider.h ****  *      INCLUDES
  15:Middlewares/lvgl/src/widgets/lv_slider.h ****  *********************/
  16:Middlewares/lvgl/src/widgets/lv_slider.h **** #include "../lv_conf_internal.h"
  17:Middlewares/lvgl/src/widgets/lv_slider.h **** 
  18:Middlewares/lvgl/src/widgets/lv_slider.h **** #if LV_USE_SLIDER != 0
  19:Middlewares/lvgl/src/widgets/lv_slider.h **** 
  20:Middlewares/lvgl/src/widgets/lv_slider.h **** /*Testing of dependencies*/
  21:Middlewares/lvgl/src/widgets/lv_slider.h **** #if LV_USE_BAR == 0
  22:Middlewares/lvgl/src/widgets/lv_slider.h **** #error "lv_slider: lv_bar is required. Enable it in lv_conf.h (LV_USE_BAR 1)"
  23:Middlewares/lvgl/src/widgets/lv_slider.h **** #endif
  24:Middlewares/lvgl/src/widgets/lv_slider.h **** 
  25:Middlewares/lvgl/src/widgets/lv_slider.h **** #include "../core/lv_obj.h"
  26:Middlewares/lvgl/src/widgets/lv_slider.h **** #include "lv_bar.h"
  27:Middlewares/lvgl/src/widgets/lv_slider.h **** 
  28:Middlewares/lvgl/src/widgets/lv_slider.h **** /*********************
  29:Middlewares/lvgl/src/widgets/lv_slider.h ****  *      DEFINES
  30:Middlewares/lvgl/src/widgets/lv_slider.h ****  *********************/
  31:Middlewares/lvgl/src/widgets/lv_slider.h **** 
  32:Middlewares/lvgl/src/widgets/lv_slider.h **** /**********************
  33:Middlewares/lvgl/src/widgets/lv_slider.h ****  *      TYPEDEFS
  34:Middlewares/lvgl/src/widgets/lv_slider.h ****  **********************/
  35:Middlewares/lvgl/src/widgets/lv_slider.h **** 
  36:Middlewares/lvgl/src/widgets/lv_slider.h **** enum {
  37:Middlewares/lvgl/src/widgets/lv_slider.h ****     LV_SLIDER_MODE_NORMAL = LV_BAR_MODE_NORMAL,
  38:Middlewares/lvgl/src/widgets/lv_slider.h ****     LV_SLIDER_MODE_SYMMETRICAL = LV_BAR_MODE_SYMMETRICAL,
  39:Middlewares/lvgl/src/widgets/lv_slider.h ****     LV_SLIDER_MODE_RANGE = LV_BAR_MODE_RANGE
  40:Middlewares/lvgl/src/widgets/lv_slider.h **** };
  41:Middlewares/lvgl/src/widgets/lv_slider.h **** typedef uint8_t lv_slider_mode_t;
  42:Middlewares/lvgl/src/widgets/lv_slider.h **** 
  43:Middlewares/lvgl/src/widgets/lv_slider.h **** typedef struct {
  44:Middlewares/lvgl/src/widgets/lv_slider.h ****     lv_bar_t bar;       /*Add the ancestor's type first*/
  45:Middlewares/lvgl/src/widgets/lv_slider.h ****     lv_area_t left_knob_area;
  46:Middlewares/lvgl/src/widgets/lv_slider.h ****     lv_area_t right_knob_area;
  47:Middlewares/lvgl/src/widgets/lv_slider.h ****     int32_t * value_to_set; /*Which bar value to set*/
  48:Middlewares/lvgl/src/widgets/lv_slider.h ****     uint8_t dragging : 1;       /*1: the slider is being dragged*/
  49:Middlewares/lvgl/src/widgets/lv_slider.h ****     uint8_t left_knob_focus : 1; /*1: with encoder now the right knob can be adjusted*/
  50:Middlewares/lvgl/src/widgets/lv_slider.h **** }lv_slider_t;
  51:Middlewares/lvgl/src/widgets/lv_slider.h **** 
  52:Middlewares/lvgl/src/widgets/lv_slider.h **** extern const lv_obj_class_t lv_slider_class;
  53:Middlewares/lvgl/src/widgets/lv_slider.h **** 
  54:Middlewares/lvgl/src/widgets/lv_slider.h **** /**********************
  55:Middlewares/lvgl/src/widgets/lv_slider.h ****  * GLOBAL PROTOTYPES
  56:Middlewares/lvgl/src/widgets/lv_slider.h ****  **********************/
  57:Middlewares/lvgl/src/widgets/lv_slider.h **** 
ARM GAS  /tmp/ccj9m3on.s 			page 27


  58:Middlewares/lvgl/src/widgets/lv_slider.h **** /**
  59:Middlewares/lvgl/src/widgets/lv_slider.h ****  * Create a slider objects
  60:Middlewares/lvgl/src/widgets/lv_slider.h ****  * @param parent    pointer to an object, it will be the parent of the new slider.
  61:Middlewares/lvgl/src/widgets/lv_slider.h ****  * @return          pointer to the created slider
  62:Middlewares/lvgl/src/widgets/lv_slider.h ****  */
  63:Middlewares/lvgl/src/widgets/lv_slider.h **** lv_obj_t * lv_slider_create(lv_obj_t * parent);
  64:Middlewares/lvgl/src/widgets/lv_slider.h **** 
  65:Middlewares/lvgl/src/widgets/lv_slider.h **** /*=====================
  66:Middlewares/lvgl/src/widgets/lv_slider.h ****  * Setter functions
  67:Middlewares/lvgl/src/widgets/lv_slider.h ****  *====================*/
  68:Middlewares/lvgl/src/widgets/lv_slider.h **** 
  69:Middlewares/lvgl/src/widgets/lv_slider.h **** /**
  70:Middlewares/lvgl/src/widgets/lv_slider.h ****  * Set a new value on the slider
  71:Middlewares/lvgl/src/widgets/lv_slider.h ****  * @param obj       pointer to a slider object
  72:Middlewares/lvgl/src/widgets/lv_slider.h ****  * @param value     the new value
  73:Middlewares/lvgl/src/widgets/lv_slider.h ****  * @param anim      LV_ANIM_ON: set the value with an animation; LV_ANIM_OFF: change the value imme
  74:Middlewares/lvgl/src/widgets/lv_slider.h ****  */
  75:Middlewares/lvgl/src/widgets/lv_slider.h **** static inline void lv_slider_set_value(lv_obj_t * obj, int32_t value, lv_anim_enable_t anim)
  76:Middlewares/lvgl/src/widgets/lv_slider.h **** {
  77:Middlewares/lvgl/src/widgets/lv_slider.h ****     lv_bar_set_value(obj, value, anim);
  78:Middlewares/lvgl/src/widgets/lv_slider.h **** }
  79:Middlewares/lvgl/src/widgets/lv_slider.h **** 
  80:Middlewares/lvgl/src/widgets/lv_slider.h **** /**
  81:Middlewares/lvgl/src/widgets/lv_slider.h ****  * Set a new value for the left knob of a slider
  82:Middlewares/lvgl/src/widgets/lv_slider.h ****  * @param obj       pointer to a slider object
  83:Middlewares/lvgl/src/widgets/lv_slider.h ****  * @param value     new value
  84:Middlewares/lvgl/src/widgets/lv_slider.h ****  * @param anim      LV_ANIM_ON: set the value with an animation; LV_ANIM_OFF: change the value imme
  85:Middlewares/lvgl/src/widgets/lv_slider.h ****  */
  86:Middlewares/lvgl/src/widgets/lv_slider.h **** static inline void lv_slider_set_left_value(lv_obj_t * obj, int32_t value, lv_anim_enable_t anim)
  87:Middlewares/lvgl/src/widgets/lv_slider.h **** {
  88:Middlewares/lvgl/src/widgets/lv_slider.h ****     lv_bar_set_start_value(obj, value, anim);
  89:Middlewares/lvgl/src/widgets/lv_slider.h **** }
  90:Middlewares/lvgl/src/widgets/lv_slider.h **** 
  91:Middlewares/lvgl/src/widgets/lv_slider.h **** /**
  92:Middlewares/lvgl/src/widgets/lv_slider.h ****  * Set minimum and the maximum values of a bar
  93:Middlewares/lvgl/src/widgets/lv_slider.h ****  * @param obj       pointer to the slider object
  94:Middlewares/lvgl/src/widgets/lv_slider.h ****  * @param min       minimum value
  95:Middlewares/lvgl/src/widgets/lv_slider.h ****  * @param max       maximum value
  96:Middlewares/lvgl/src/widgets/lv_slider.h ****  */
  97:Middlewares/lvgl/src/widgets/lv_slider.h **** static inline void lv_slider_set_range(lv_obj_t * obj, int32_t min, int32_t max)
  98:Middlewares/lvgl/src/widgets/lv_slider.h **** {
  99:Middlewares/lvgl/src/widgets/lv_slider.h ****     lv_bar_set_range(obj, min, max);
 100:Middlewares/lvgl/src/widgets/lv_slider.h **** }
 101:Middlewares/lvgl/src/widgets/lv_slider.h **** 
 102:Middlewares/lvgl/src/widgets/lv_slider.h **** /**
 103:Middlewares/lvgl/src/widgets/lv_slider.h ****  * Set the mode of slider.
 104:Middlewares/lvgl/src/widgets/lv_slider.h ****  * @param obj       pointer to a slider object
 105:Middlewares/lvgl/src/widgets/lv_slider.h ****  * @param mode      the mode of the slider. See ::lv_slider_mode_t
 106:Middlewares/lvgl/src/widgets/lv_slider.h ****  */
 107:Middlewares/lvgl/src/widgets/lv_slider.h **** static inline void lv_slider_set_mode(lv_obj_t * obj, lv_slider_mode_t mode)
 108:Middlewares/lvgl/src/widgets/lv_slider.h **** {
 109:Middlewares/lvgl/src/widgets/lv_slider.h ****     lv_bar_set_mode(obj, (lv_bar_mode_t)mode);
 110:Middlewares/lvgl/src/widgets/lv_slider.h **** }
 111:Middlewares/lvgl/src/widgets/lv_slider.h **** 
 112:Middlewares/lvgl/src/widgets/lv_slider.h **** /*=====================
 113:Middlewares/lvgl/src/widgets/lv_slider.h ****  * Getter functions
 114:Middlewares/lvgl/src/widgets/lv_slider.h ****  *====================*/
ARM GAS  /tmp/ccj9m3on.s 			page 28


 115:Middlewares/lvgl/src/widgets/lv_slider.h **** 
 116:Middlewares/lvgl/src/widgets/lv_slider.h **** /**
 117:Middlewares/lvgl/src/widgets/lv_slider.h ****  * Get the value of the main knob of a slider
 118:Middlewares/lvgl/src/widgets/lv_slider.h ****  * @param obj       pointer to a slider object
 119:Middlewares/lvgl/src/widgets/lv_slider.h ****  * @return          the value of the main knob of the slider
 120:Middlewares/lvgl/src/widgets/lv_slider.h ****  */
 121:Middlewares/lvgl/src/widgets/lv_slider.h **** static inline int32_t lv_slider_get_value(const lv_obj_t * obj)
 122:Middlewares/lvgl/src/widgets/lv_slider.h **** {
 123:Middlewares/lvgl/src/widgets/lv_slider.h ****     return lv_bar_get_value(obj);
 124:Middlewares/lvgl/src/widgets/lv_slider.h **** }
 125:Middlewares/lvgl/src/widgets/lv_slider.h **** 
 126:Middlewares/lvgl/src/widgets/lv_slider.h **** /**
 127:Middlewares/lvgl/src/widgets/lv_slider.h ****  * Get the value of the left knob of a slider
 128:Middlewares/lvgl/src/widgets/lv_slider.h ****  * @param obj       pointer to a slider object
 129:Middlewares/lvgl/src/widgets/lv_slider.h ****  * @return          the value of the left knob of the slider
 130:Middlewares/lvgl/src/widgets/lv_slider.h ****  */
 131:Middlewares/lvgl/src/widgets/lv_slider.h **** static inline int32_t lv_slider_get_left_value(const lv_obj_t * obj)
 132:Middlewares/lvgl/src/widgets/lv_slider.h **** {
 133:Middlewares/lvgl/src/widgets/lv_slider.h ****     return lv_bar_get_start_value(obj);
 134:Middlewares/lvgl/src/widgets/lv_slider.h **** }
 135:Middlewares/lvgl/src/widgets/lv_slider.h **** 
 136:Middlewares/lvgl/src/widgets/lv_slider.h **** /**
 137:Middlewares/lvgl/src/widgets/lv_slider.h ****  * Get the minimum value of a slider
 138:Middlewares/lvgl/src/widgets/lv_slider.h ****  * @param obj       pointer to a slider object
 139:Middlewares/lvgl/src/widgets/lv_slider.h ****  * @return          the minimum value of the slider
 140:Middlewares/lvgl/src/widgets/lv_slider.h ****  */
 141:Middlewares/lvgl/src/widgets/lv_slider.h **** static inline int32_t lv_slider_get_min_value(const lv_obj_t * obj)
 142:Middlewares/lvgl/src/widgets/lv_slider.h **** {
 143:Middlewares/lvgl/src/widgets/lv_slider.h ****     return lv_bar_get_min_value(obj);
 144:Middlewares/lvgl/src/widgets/lv_slider.h **** }
 145:Middlewares/lvgl/src/widgets/lv_slider.h **** 
 146:Middlewares/lvgl/src/widgets/lv_slider.h **** /**
 147:Middlewares/lvgl/src/widgets/lv_slider.h ****  * Get the maximum value of a slider
 148:Middlewares/lvgl/src/widgets/lv_slider.h ****  * @param obj       pointer to a slider object
 149:Middlewares/lvgl/src/widgets/lv_slider.h ****  * @return          the maximum value of the slider
 150:Middlewares/lvgl/src/widgets/lv_slider.h ****  */
 151:Middlewares/lvgl/src/widgets/lv_slider.h **** static inline int32_t lv_slider_get_max_value(const lv_obj_t * obj)
 152:Middlewares/lvgl/src/widgets/lv_slider.h **** {
 153:Middlewares/lvgl/src/widgets/lv_slider.h ****     return lv_bar_get_max_value(obj);
 154:Middlewares/lvgl/src/widgets/lv_slider.h **** }
 155:Middlewares/lvgl/src/widgets/lv_slider.h **** 
 156:Middlewares/lvgl/src/widgets/lv_slider.h **** /**
 157:Middlewares/lvgl/src/widgets/lv_slider.h ****  * Give the slider is being dragged or not
 158:Middlewares/lvgl/src/widgets/lv_slider.h ****  * @param obj       pointer to a slider object
 159:Middlewares/lvgl/src/widgets/lv_slider.h ****  * @return          true: drag in progress false: not dragged
 160:Middlewares/lvgl/src/widgets/lv_slider.h ****  */
 161:Middlewares/lvgl/src/widgets/lv_slider.h **** bool lv_slider_is_dragged(const lv_obj_t * obj);
 162:Middlewares/lvgl/src/widgets/lv_slider.h **** 
 163:Middlewares/lvgl/src/widgets/lv_slider.h **** /**
 164:Middlewares/lvgl/src/widgets/lv_slider.h ****  * Get the mode of the slider.
 165:Middlewares/lvgl/src/widgets/lv_slider.h ****  * @param obj       pointer to a bar object
 166:Middlewares/lvgl/src/widgets/lv_slider.h ****  * @return          see ::lv_slider_mode_t
 167:Middlewares/lvgl/src/widgets/lv_slider.h ****  */
 168:Middlewares/lvgl/src/widgets/lv_slider.h **** static inline lv_slider_mode_t lv_slider_get_mode(lv_obj_t * slider)
 568              		.loc 4 168 32 view .LVU179
 569              	.LBB99:
 169:Middlewares/lvgl/src/widgets/lv_slider.h **** {
ARM GAS  /tmp/ccj9m3on.s 			page 29


 170:Middlewares/lvgl/src/widgets/lv_slider.h ****     lv_bar_mode_t mode = lv_bar_get_mode(slider);
 570              		.loc 4 170 5 view .LVU180
 571              		.loc 4 170 26 is_stmt 0 view .LVU181
 572 00d0 2046     		mov	r0, r4
 573 00d2 FFF7FEFF 		bl	lv_bar_get_mode
 574              	.LVL59:
 171:Middlewares/lvgl/src/widgets/lv_slider.h ****     if(mode == LV_BAR_MODE_SYMMETRICAL) return LV_SLIDER_MODE_SYMMETRICAL;
 575              		.loc 4 171 5 is_stmt 1 view .LVU182
 576              		.loc 4 171 7 is_stmt 0 view .LVU183
 577 00d6 0128     		cmp	r0, #1
 578 00d8 02D0     		beq	.L33
 172:Middlewares/lvgl/src/widgets/lv_slider.h ****     else if(mode == LV_BAR_MODE_RANGE) return LV_SLIDER_MODE_RANGE;
 579              		.loc 4 172 10 is_stmt 1 view .LVU184
 580              		.loc 4 172 12 is_stmt 0 view .LVU185
 581 00da 0228     		cmp	r0, #2
 582 00dc 00D0     		beq	.L33
 173:Middlewares/lvgl/src/widgets/lv_slider.h ****     else return LV_SLIDER_MODE_NORMAL;
 583              		.loc 4 173 17 view .LVU186
 584 00de 0020     		movs	r0, #0
 585              	.LVL60:
 586              	.L33:
 587              		.loc 4 173 17 view .LVU187
 588              	.LBE99:
 589              	.LBE98:
 380:Middlewares/lvgl/src/widgets/lv_slider.c ****         lv_event_send(obj, LV_EVENT_DRAW_PART_BEGIN, &dsc);
 590              		.loc 1 380 7 view .LVU188
 591 00e0 0228     		cmp	r0, #2
 592 00e2 6DD0     		beq	.L34
 381:Middlewares/lvgl/src/widgets/lv_slider.c ****         lv_draw_rect(&slider->right_knob_area, clip_area, &knob_rect_dsc);
 593              		.loc 1 381 9 is_stmt 1 view .LVU189
 594 00e4 0FAA     		add	r2, sp, #60
 595 00e6 1A21     		movs	r1, #26
 596 00e8 2046     		mov	r0, r4
 597 00ea FFF7FEFF 		bl	lv_event_send
 598              	.LVL61:
 382:Middlewares/lvgl/src/widgets/lv_slider.c ****         lv_event_send(obj, LV_EVENT_DRAW_PART_END, &dsc);
 599              		.loc 1 382 9 view .LVU190
 600 00ee 21AA     		add	r2, sp, #132
 601 00f0 3946     		mov	r1, r7
 602 00f2 5046     		mov	r0, r10
 603 00f4 FFF7FEFF 		bl	lv_draw_rect
 604              	.LVL62:
 383:Middlewares/lvgl/src/widgets/lv_slider.c ****     } else {
 605              		.loc 1 383 9 view .LVU191
 606 00f8 0FAA     		add	r2, sp, #60
 607 00fa 1B21     		movs	r1, #27
 608 00fc 2046     		mov	r0, r4
 609 00fe FFF7FEFF 		bl	lv_event_send
 610              	.LVL63:
 611              	.L12:
 412:Middlewares/lvgl/src/widgets/lv_slider.c **** 
 612              		.loc 1 412 1 is_stmt 0 view .LVU192
 613 0102 31B0     		add	sp, sp, #196
 614              	.LCFI4:
 615              		.cfi_remember_state
 616              		.cfi_def_cfa_offset 36
 617              		@ sp needed
ARM GAS  /tmp/ccj9m3on.s 			page 30


 618 0104 BDE8F08F 		pop	{r4, r5, r6, r7, r8, r9, r10, fp, pc}
 619              	.LVL64:
 620              	.L42:
 621              	.LCFI5:
 622              		.cfi_restore_state
 331:Middlewares/lvgl/src/widgets/lv_slider.c ****     bool sym = false;
 623              		.loc 1 331 16 view .LVU193
 624 0108 0196     		str	r6, [sp, #4]
 625 010a 9CE7     		b	.L13
 626              	.LVL65:
 627              	.L48:
 333:Middlewares/lvgl/src/widgets/lv_slider.c **** 
 628              		.loc 1 333 66 discriminator 1 view .LVU194
 629 010c A36A     		ldr	r3, [r4, #40]
 333:Middlewares/lvgl/src/widgets/lv_slider.c **** 
 630              		.loc 1 333 52 discriminator 1 view .LVU195
 631 010e 002B     		cmp	r3, #0
 632 0110 01DB     		blt	.L50
 332:Middlewares/lvgl/src/widgets/lv_slider.c ****     if(slider->bar.mode == LV_BAR_MODE_SYMMETRICAL && slider->bar.min_value < 0 && slider->bar.max_
 633              		.loc 1 332 10 view .LVU196
 634 0112 0023     		movs	r3, #0
 635 0114 9EE7     		b	.L14
 636              	.L50:
 333:Middlewares/lvgl/src/widgets/lv_slider.c **** 
 637              		.loc 1 333 95 discriminator 2 view .LVU197
 638 0116 E36A     		ldr	r3, [r4, #44]
 333:Middlewares/lvgl/src/widgets/lv_slider.c **** 
 639              		.loc 1 333 81 discriminator 2 view .LVU198
 640 0118 002B     		cmp	r3, #0
 641 011a 01DD     		ble	.L51
 333:Middlewares/lvgl/src/widgets/lv_slider.c **** 
 642              		.loc 1 333 115 view .LVU199
 643 011c 0123     		movs	r3, #1
 644 011e 99E7     		b	.L14
 645              	.L51:
 332:Middlewares/lvgl/src/widgets/lv_slider.c ****     if(slider->bar.mode == LV_BAR_MODE_SYMMETRICAL && slider->bar.min_value < 0 && slider->bar.max_
 646              		.loc 1 332 10 view .LVU200
 647 0120 0023     		movs	r3, #0
 648 0122 97E7     		b	.L14
 649              	.LVL66:
 650              	.L49:
 340:Middlewares/lvgl/src/widgets/lv_slider.c ****         }
 651              		.loc 1 340 26 discriminator 3 view .LVU201
 652 0124 B4F93430 		ldrsh	r3, [r4, #52]
 653              	.LVL67:
 340:Middlewares/lvgl/src/widgets/lv_slider.c ****         }
 654              		.loc 1 340 26 discriminator 3 view .LVU202
 655 0128 A0E7     		b	.L19
 656              	.LVL68:
 657              	.L17:
 340:Middlewares/lvgl/src/widgets/lv_slider.c ****         }
 658              		.loc 1 340 26 discriminator 2 view .LVU203
 659 012a B9F1010F 		cmp	r9, #1
 660 012e 02D0     		beq	.L52
 340:Middlewares/lvgl/src/widgets/lv_slider.c ****         }
 661              		.loc 1 340 26 discriminator 9 view .LVU204
 662 0130 B4F93A30 		ldrsh	r3, [r4, #58]
ARM GAS  /tmp/ccj9m3on.s 			page 31


 663              	.LVL69:
 340:Middlewares/lvgl/src/widgets/lv_slider.c ****         }
 664              		.loc 1 340 26 discriminator 9 view .LVU205
 665 0134 9AE7     		b	.L19
 666              	.LVL70:
 667              	.L52:
 340:Middlewares/lvgl/src/widgets/lv_slider.c ****         }
 668              		.loc 1 340 26 discriminator 8 view .LVU206
 669 0136 B4F93630 		ldrsh	r3, [r4, #54]
 670              	.LVL71:
 340:Middlewares/lvgl/src/widgets/lv_slider.c ****         }
 671              		.loc 1 340 26 discriminator 8 view .LVU207
 672 013a 97E7     		b	.L19
 673              	.LVL72:
 674              	.L16:
 343:Middlewares/lvgl/src/widgets/lv_slider.c ****                 knob_area.x1 = LV_SLIDER_KNOB_COORD(hor, base_dir == LV_BASE_DIR_RTL, slider->bar.i
 675              		.loc 1 343 13 is_stmt 1 view .LVU208
 343:Middlewares/lvgl/src/widgets/lv_slider.c ****                 knob_area.x1 = LV_SLIDER_KNOB_COORD(hor, base_dir == LV_BASE_DIR_RTL, slider->bar.i
 676              		.loc 1 343 27 is_stmt 0 view .LVU209
 677 013c 636A     		ldr	r3, [r4, #36]
 678              	.LVL73:
 343:Middlewares/lvgl/src/widgets/lv_slider.c ****                 knob_area.x1 = LV_SLIDER_KNOB_COORD(hor, base_dir == LV_BASE_DIR_RTL, slider->bar.i
 679              		.loc 1 343 15 view .LVU210
 680 013e 002B     		cmp	r3, #0
 681 0140 15DB     		blt	.L22
 344:Middlewares/lvgl/src/widgets/lv_slider.c ****             }
 682              		.loc 1 344 17 is_stmt 1 view .LVU211
 344:Middlewares/lvgl/src/widgets/lv_slider.c ****             }
 683              		.loc 1 344 30 is_stmt 0 view .LVU212
 684 0142 AE42     		cmp	r6, r5
 685 0144 0ADB     		blt	.L23
 344:Middlewares/lvgl/src/widgets/lv_slider.c ****             }
 686              		.loc 1 344 30 discriminator 1 view .LVU213
 687 0146 B9F1010F 		cmp	r9, #1
 688 014a 04D0     		beq	.L53
 344:Middlewares/lvgl/src/widgets/lv_slider.c ****             }
 689              		.loc 1 344 30 discriminator 4 view .LVU214
 690 014c B4F93830 		ldrsh	r3, [r4, #56]
 691              	.L25:
 344:Middlewares/lvgl/src/widgets/lv_slider.c ****             }
 692              		.loc 1 344 30 discriminator 12 view .LVU215
 693 0150 ADF8B830 		strh	r3, [sp, #184]	@ movhi
 694 0154 8CE7     		b	.L21
 695              	.L53:
 344:Middlewares/lvgl/src/widgets/lv_slider.c ****             }
 696              		.loc 1 344 30 discriminator 3 view .LVU216
 697 0156 B4F93430 		ldrsh	r3, [r4, #52]
 698 015a F9E7     		b	.L25
 699              	.L23:
 344:Middlewares/lvgl/src/widgets/lv_slider.c ****             }
 700              		.loc 1 344 30 discriminator 2 view .LVU217
 701 015c B9F1010F 		cmp	r9, #1
 702 0160 02D0     		beq	.L54
 344:Middlewares/lvgl/src/widgets/lv_slider.c ****             }
 703              		.loc 1 344 30 discriminator 9 view .LVU218
 704 0162 B4F93A30 		ldrsh	r3, [r4, #58]
 705 0166 F3E7     		b	.L25
ARM GAS  /tmp/ccj9m3on.s 			page 32


 706              	.L54:
 344:Middlewares/lvgl/src/widgets/lv_slider.c ****             }
 707              		.loc 1 344 30 discriminator 8 view .LVU219
 708 0168 B4F93630 		ldrsh	r3, [r4, #54]
 709 016c F0E7     		b	.L25
 710              	.L22:
 347:Middlewares/lvgl/src/widgets/lv_slider.c ****             }
 711              		.loc 1 347 17 is_stmt 1 view .LVU220
 347:Middlewares/lvgl/src/widgets/lv_slider.c ****             }
 712              		.loc 1 347 30 is_stmt 0 view .LVU221
 713 016e AE42     		cmp	r6, r5
 714 0170 0ADB     		blt	.L27
 347:Middlewares/lvgl/src/widgets/lv_slider.c ****             }
 715              		.loc 1 347 30 discriminator 1 view .LVU222
 716 0172 B9F1010F 		cmp	r9, #1
 717 0176 04D0     		beq	.L28
 347:Middlewares/lvgl/src/widgets/lv_slider.c ****             }
 718              		.loc 1 347 30 discriminator 3 view .LVU223
 719 0178 B4F93430 		ldrsh	r3, [r4, #52]
 720              	.L29:
 347:Middlewares/lvgl/src/widgets/lv_slider.c ****             }
 721              		.loc 1 347 30 discriminator 12 view .LVU224
 722 017c ADF8B830 		strh	r3, [sp, #184]	@ movhi
 723 0180 76E7     		b	.L21
 724              	.L28:
 347:Middlewares/lvgl/src/widgets/lv_slider.c ****             }
 725              		.loc 1 347 30 discriminator 4 view .LVU225
 726 0182 B4F93830 		ldrsh	r3, [r4, #56]
 727 0186 F9E7     		b	.L29
 728              	.L27:
 347:Middlewares/lvgl/src/widgets/lv_slider.c ****             }
 729              		.loc 1 347 30 discriminator 2 view .LVU226
 730 0188 B9F1010F 		cmp	r9, #1
 731 018c 02D0     		beq	.L30
 347:Middlewares/lvgl/src/widgets/lv_slider.c ****             }
 732              		.loc 1 347 30 discriminator 8 view .LVU227
 733 018e B4F93630 		ldrsh	r3, [r4, #54]
 734 0192 F3E7     		b	.L29
 735              	.L30:
 347:Middlewares/lvgl/src/widgets/lv_slider.c ****             }
 736              		.loc 1 347 30 discriminator 9 view .LVU228
 737 0194 B4F93A30 		ldrsh	r3, [r4, #58]
 738 0198 F0E7     		b	.L29
 739              	.LVL74:
 740              	.L15:
 353:Middlewares/lvgl/src/widgets/lv_slider.c ****             knob_area.y1 = slider->bar.indic_area.y1;
 741              		.loc 1 353 9 is_stmt 1 view .LVU229
 353:Middlewares/lvgl/src/widgets/lv_slider.c ****             knob_area.y1 = slider->bar.indic_area.y1;
 742              		.loc 1 353 11 is_stmt 0 view .LVU230
 743 019a 23B9     		cbnz	r3, .L31
 354:Middlewares/lvgl/src/widgets/lv_slider.c ****         }
 744              		.loc 1 354 13 is_stmt 1 view .LVU231
 354:Middlewares/lvgl/src/widgets/lv_slider.c ****         }
 745              		.loc 1 354 50 is_stmt 0 view .LVU232
 746 019c B4F93630 		ldrsh	r3, [r4, #54]
 747              	.LVL75:
 354:Middlewares/lvgl/src/widgets/lv_slider.c ****         }
ARM GAS  /tmp/ccj9m3on.s 			page 33


 748              		.loc 1 354 26 view .LVU233
 749 01a0 ADF8BA30 		strh	r3, [sp, #186]	@ movhi
 750 01a4 64E7     		b	.L21
 751              	.LVL76:
 752              	.L31:
 357:Middlewares/lvgl/src/widgets/lv_slider.c ****                 knob_area.y1 = slider->bar.indic_area.y1;
 753              		.loc 1 357 13 is_stmt 1 view .LVU234
 357:Middlewares/lvgl/src/widgets/lv_slider.c ****                 knob_area.y1 = slider->bar.indic_area.y1;
 754              		.loc 1 357 27 is_stmt 0 view .LVU235
 755 01a6 636A     		ldr	r3, [r4, #36]
 756              	.LVL77:
 357:Middlewares/lvgl/src/widgets/lv_slider.c ****                 knob_area.y1 = slider->bar.indic_area.y1;
 757              		.loc 1 357 15 view .LVU236
 758 01a8 002B     		cmp	r3, #0
 759 01aa 04DB     		blt	.L32
 358:Middlewares/lvgl/src/widgets/lv_slider.c ****             }
 760              		.loc 1 358 17 is_stmt 1 view .LVU237
 358:Middlewares/lvgl/src/widgets/lv_slider.c ****             }
 761              		.loc 1 358 54 is_stmt 0 view .LVU238
 762 01ac B4F93630 		ldrsh	r3, [r4, #54]
 358:Middlewares/lvgl/src/widgets/lv_slider.c ****             }
 763              		.loc 1 358 30 view .LVU239
 764 01b0 ADF8BA30 		strh	r3, [sp, #186]	@ movhi
 765 01b4 5CE7     		b	.L21
 766              	.L32:
 361:Middlewares/lvgl/src/widgets/lv_slider.c ****             }
 767              		.loc 1 361 17 is_stmt 1 view .LVU240
 361:Middlewares/lvgl/src/widgets/lv_slider.c ****             }
 768              		.loc 1 361 54 is_stmt 0 view .LVU241
 769 01b6 B4F93A30 		ldrsh	r3, [r4, #58]
 361:Middlewares/lvgl/src/widgets/lv_slider.c ****             }
 770              		.loc 1 361 30 view .LVU242
 771 01ba ADF8BA30 		strh	r3, [sp, #186]	@ movhi
 772 01be 57E7     		b	.L21
 773              	.LVL78:
 774              	.L34:
 775              	.LBB100:
 386:Middlewares/lvgl/src/widgets/lv_slider.c ****         lv_memcpy(&knob_rect_dsc_tmp, &knob_rect_dsc, sizeof(lv_draw_rect_dsc_t));
 776              		.loc 1 386 9 is_stmt 1 view .LVU243
 387:Middlewares/lvgl/src/widgets/lv_slider.c **** 
 777              		.loc 1 387 9 view .LVU244
 778 01c0 3422     		movs	r2, #52
 779 01c2 21A9     		add	r1, sp, #132
 780 01c4 02A8     		add	r0, sp, #8
 781 01c6 FFF7FEFF 		bl	lv_memcpy
 782              	.LVL79:
 389:Middlewares/lvgl/src/widgets/lv_slider.c ****         lv_draw_rect(&slider->right_knob_area, clip_area, &knob_rect_dsc);
 783              		.loc 1 389 9 view .LVU245
 784 01ca 0FAA     		add	r2, sp, #60
 785 01cc 1A21     		movs	r1, #26
 786 01ce 2046     		mov	r0, r4
 787 01d0 FFF7FEFF 		bl	lv_event_send
 788              	.LVL80:
 390:Middlewares/lvgl/src/widgets/lv_slider.c ****         lv_event_send(obj, LV_EVENT_DRAW_PART_END, &dsc);
 789              		.loc 1 390 9 view .LVU246
 790 01d4 21AA     		add	r2, sp, #132
 791 01d6 3946     		mov	r1, r7
ARM GAS  /tmp/ccj9m3on.s 			page 34


 792 01d8 5046     		mov	r0, r10
 793 01da FFF7FEFF 		bl	lv_draw_rect
 794              	.LVL81:
 391:Middlewares/lvgl/src/widgets/lv_slider.c **** 
 795              		.loc 1 391 9 view .LVU247
 796 01de 0FAA     		add	r2, sp, #60
 797 01e0 1B21     		movs	r1, #27
 798 01e2 2046     		mov	r0, r4
 799 01e4 FFF7FEFF 		bl	lv_event_send
 800              	.LVL82:
 394:Middlewares/lvgl/src/widgets/lv_slider.c ****             knob_area.x1 = LV_SLIDER_KNOB_COORD(hor, base_dir != LV_BASE_DIR_RTL, slider->bar.indic
 801              		.loc 1 394 9 view .LVU248
 394:Middlewares/lvgl/src/widgets/lv_slider.c ****             knob_area.x1 = LV_SLIDER_KNOB_COORD(hor, base_dir != LV_BASE_DIR_RTL, slider->bar.indic
 802              		.loc 1 394 11 is_stmt 0 view .LVU249
 803 01e8 AE42     		cmp	r6, r5
 804 01ea 45DB     		blt	.L36
 395:Middlewares/lvgl/src/widgets/lv_slider.c ****         }
 805              		.loc 1 395 13 is_stmt 1 view .LVU250
 395:Middlewares/lvgl/src/widgets/lv_slider.c ****         }
 806              		.loc 1 395 26 is_stmt 0 view .LVU251
 807 01ec 3BDB     		blt	.L37
 395:Middlewares/lvgl/src/widgets/lv_slider.c ****         }
 808              		.loc 1 395 26 discriminator 1 view .LVU252
 809 01ee B9F1010F 		cmp	r9, #1
 810 01f2 35D0     		beq	.L38
 395:Middlewares/lvgl/src/widgets/lv_slider.c ****         }
 811              		.loc 1 395 26 discriminator 3 view .LVU253
 812 01f4 B4F93430 		ldrsh	r3, [r4, #52]
 813              	.L39:
 395:Middlewares/lvgl/src/widgets/lv_slider.c ****         }
 814              		.loc 1 395 26 discriminator 12 view .LVU254
 815 01f8 ADF8B830 		strh	r3, [sp, #184]	@ movhi
 816              	.L41:
 400:Middlewares/lvgl/src/widgets/lv_slider.c ****         lv_area_copy(&slider->left_knob_area, &knob_area);
 817              		.loc 1 400 9 is_stmt 1 view .LVU255
 818 01fc 5B46     		mov	r3, fp
 819 01fe 019A     		ldr	r2, [sp, #4]
 820 0200 2EA9     		add	r1, sp, #184
 821 0202 2046     		mov	r0, r4
 822 0204 FFF7FEFF 		bl	position_knob
 823              	.LVL83:
 401:Middlewares/lvgl/src/widgets/lv_slider.c **** 
 824              		.loc 1 401 9 view .LVU256
 825 0208 04F16006 		add	r6, r4, #96
 826              	.LVL84:
 827              	.LBB101:
 828              	.LBI101:
 120:Middlewares/lvgl/src/widgets/../core/../misc/../font/../misc/lv_area.h **** {
 829              		.loc 3 120 20 view .LVU257
 830              	.LBB102:
 122:Middlewares/lvgl/src/widgets/../core/../misc/../font/../misc/lv_area.h ****     dest->y1 = src->y1;
 831              		.loc 3 122 5 view .LVU258
 122:Middlewares/lvgl/src/widgets/../core/../misc/../font/../misc/lv_area.h ****     dest->y1 = src->y1;
 832              		.loc 3 122 19 is_stmt 0 view .LVU259
 833 020c BDF9B830 		ldrsh	r3, [sp, #184]
 122:Middlewares/lvgl/src/widgets/../core/../misc/../font/../misc/lv_area.h ****     dest->y1 = src->y1;
 834              		.loc 3 122 14 view .LVU260
ARM GAS  /tmp/ccj9m3on.s 			page 35


 835 0210 A4F86030 		strh	r3, [r4, #96]	@ movhi
 123:Middlewares/lvgl/src/widgets/../core/../misc/../font/../misc/lv_area.h ****     dest->x2 = src->x2;
 836              		.loc 3 123 5 is_stmt 1 view .LVU261
 123:Middlewares/lvgl/src/widgets/../core/../misc/../font/../misc/lv_area.h ****     dest->x2 = src->x2;
 837              		.loc 3 123 19 is_stmt 0 view .LVU262
 838 0214 BDF9BA30 		ldrsh	r3, [sp, #186]
 123:Middlewares/lvgl/src/widgets/../core/../misc/../font/../misc/lv_area.h ****     dest->x2 = src->x2;
 839              		.loc 3 123 14 view .LVU263
 840 0218 A4F86230 		strh	r3, [r4, #98]	@ movhi
 124:Middlewares/lvgl/src/widgets/../core/../misc/../font/../misc/lv_area.h ****     dest->y2 = src->y2;
 841              		.loc 3 124 5 is_stmt 1 view .LVU264
 124:Middlewares/lvgl/src/widgets/../core/../misc/../font/../misc/lv_area.h ****     dest->y2 = src->y2;
 842              		.loc 3 124 19 is_stmt 0 view .LVU265
 843 021c BDF9BC30 		ldrsh	r3, [sp, #188]
 124:Middlewares/lvgl/src/widgets/../core/../misc/../font/../misc/lv_area.h ****     dest->y2 = src->y2;
 844              		.loc 3 124 14 view .LVU266
 845 0220 A4F86430 		strh	r3, [r4, #100]	@ movhi
 846              		.loc 3 125 5 is_stmt 1 view .LVU267
 847              		.loc 3 125 19 is_stmt 0 view .LVU268
 848 0224 BDF9BE30 		ldrsh	r3, [sp, #190]
 849              		.loc 3 125 14 view .LVU269
 850 0228 A4F86630 		strh	r3, [r4, #102]	@ movhi
 851              	.LVL85:
 852              		.loc 3 125 14 view .LVU270
 853              	.LBE102:
 854              	.LBE101:
 403:Middlewares/lvgl/src/widgets/lv_slider.c ****         dsc.draw_area = &slider->left_knob_area;
 855              		.loc 1 403 9 is_stmt 1 view .LVU271
 856 022c 21AD     		add	r5, sp, #132
 857 022e 3422     		movs	r2, #52
 858 0230 02A9     		add	r1, sp, #8
 859 0232 2846     		mov	r0, r5
 860 0234 FFF7FEFF 		bl	lv_memcpy
 861              	.LVL86:
 404:Middlewares/lvgl/src/widgets/lv_slider.c ****         dsc.rect_dsc = &knob_rect_dsc;
 862              		.loc 1 404 9 view .LVU272
 404:Middlewares/lvgl/src/widgets/lv_slider.c ****         dsc.rect_dsc = &knob_rect_dsc;
 863              		.loc 1 404 23 is_stmt 0 view .LVU273
 864 0238 1096     		str	r6, [sp, #64]
 405:Middlewares/lvgl/src/widgets/lv_slider.c ****         dsc.id = 1;
 865              		.loc 1 405 9 is_stmt 1 view .LVU274
 405:Middlewares/lvgl/src/widgets/lv_slider.c ****         dsc.id = 1;
 866              		.loc 1 405 22 is_stmt 0 view .LVU275
 867 023a 1195     		str	r5, [sp, #68]
 406:Middlewares/lvgl/src/widgets/lv_slider.c **** 
 868              		.loc 1 406 9 is_stmt 1 view .LVU276
 406:Middlewares/lvgl/src/widgets/lv_slider.c **** 
 869              		.loc 1 406 16 is_stmt 0 view .LVU277
 870 023c 0123     		movs	r3, #1
 871 023e 1D93     		str	r3, [sp, #116]
 408:Middlewares/lvgl/src/widgets/lv_slider.c ****         lv_draw_rect(&slider->left_knob_area, clip_area, &knob_rect_dsc);
 872              		.loc 1 408 9 is_stmt 1 view .LVU278
 873 0240 0FAA     		add	r2, sp, #60
 874 0242 1A21     		movs	r1, #26
 875 0244 2046     		mov	r0, r4
 876 0246 FFF7FEFF 		bl	lv_event_send
 877              	.LVL87:
ARM GAS  /tmp/ccj9m3on.s 			page 36


 409:Middlewares/lvgl/src/widgets/lv_slider.c ****         lv_event_send(obj, LV_EVENT_DRAW_PART_END, &dsc);
 878              		.loc 1 409 9 view .LVU279
 879 024a 2A46     		mov	r2, r5
 880 024c 3946     		mov	r1, r7
 881 024e 3046     		mov	r0, r6
 882 0250 FFF7FEFF 		bl	lv_draw_rect
 883              	.LVL88:
 410:Middlewares/lvgl/src/widgets/lv_slider.c ****     }
 884              		.loc 1 410 9 view .LVU280
 885 0254 0FAA     		add	r2, sp, #60
 886 0256 1B21     		movs	r1, #27
 887 0258 2046     		mov	r0, r4
 888 025a FFF7FEFF 		bl	lv_event_send
 889              	.LVL89:
 890              	.LBE100:
 412:Middlewares/lvgl/src/widgets/lv_slider.c **** 
 891              		.loc 1 412 1 is_stmt 0 view .LVU281
 892 025e 50E7     		b	.L12
 893              	.LVL90:
 894              	.L38:
 895              	.LBB103:
 395:Middlewares/lvgl/src/widgets/lv_slider.c ****         }
 896              		.loc 1 395 26 discriminator 4 view .LVU282
 897 0260 B4F93830 		ldrsh	r3, [r4, #56]
 898 0264 C8E7     		b	.L39
 899              	.L37:
 395:Middlewares/lvgl/src/widgets/lv_slider.c ****         }
 900              		.loc 1 395 26 discriminator 2 view .LVU283
 901 0266 B9F1010F 		cmp	r9, #1
 902 026a 02D0     		beq	.L40
 395:Middlewares/lvgl/src/widgets/lv_slider.c ****         }
 903              		.loc 1 395 26 discriminator 8 view .LVU284
 904 026c B4F93630 		ldrsh	r3, [r4, #54]
 905 0270 C2E7     		b	.L39
 906              	.L40:
 395:Middlewares/lvgl/src/widgets/lv_slider.c ****         }
 907              		.loc 1 395 26 discriminator 9 view .LVU285
 908 0272 B4F93A30 		ldrsh	r3, [r4, #58]
 909 0276 BFE7     		b	.L39
 910              	.L36:
 398:Middlewares/lvgl/src/widgets/lv_slider.c ****         }
 911              		.loc 1 398 13 is_stmt 1 view .LVU286
 398:Middlewares/lvgl/src/widgets/lv_slider.c ****         }
 912              		.loc 1 398 50 is_stmt 0 view .LVU287
 913 0278 B4F93A30 		ldrsh	r3, [r4, #58]
 398:Middlewares/lvgl/src/widgets/lv_slider.c ****         }
 914              		.loc 1 398 26 view .LVU288
 915 027c ADF8BA30 		strh	r3, [sp, #186]	@ movhi
 916 0280 BCE7     		b	.L41
 917              	.LBE103:
 918              		.cfi_endproc
 919              	.LFE166:
 921              		.section	.text.lv_slider_event,"ax",%progbits
 922              		.align	1
 923              		.syntax unified
 924              		.thumb
 925              		.thumb_func
ARM GAS  /tmp/ccj9m3on.s 			page 37


 926              		.fpu softvfp
 928              	lv_slider_event:
 929              	.LVL91:
 930              	.LFB165:
  95:Middlewares/lvgl/src/widgets/lv_slider.c ****     LV_UNUSED(class_p);
 931              		.loc 1 95 1 is_stmt 1 view -0
 932              		.cfi_startproc
 933              		@ args = 0, pretend = 0, frame = 24
 934              		@ frame_needed = 0, uses_anonymous_args = 0
  95:Middlewares/lvgl/src/widgets/lv_slider.c ****     LV_UNUSED(class_p);
 935              		.loc 1 95 1 is_stmt 0 view .LVU290
 936 0000 2DE9F04F 		push	{r4, r5, r6, r7, r8, r9, r10, fp, lr}
 937              	.LCFI6:
 938              		.cfi_def_cfa_offset 36
 939              		.cfi_offset 4, -36
 940              		.cfi_offset 5, -32
 941              		.cfi_offset 6, -28
 942              		.cfi_offset 7, -24
 943              		.cfi_offset 8, -20
 944              		.cfi_offset 9, -16
 945              		.cfi_offset 10, -12
 946              		.cfi_offset 11, -8
 947              		.cfi_offset 14, -4
 948 0004 87B0     		sub	sp, sp, #28
 949              	.LCFI7:
 950              		.cfi_def_cfa_offset 64
 951 0006 0C46     		mov	r4, r1
  96:Middlewares/lvgl/src/widgets/lv_slider.c **** 
 952              		.loc 1 96 5 is_stmt 1 view .LVU291
  98:Middlewares/lvgl/src/widgets/lv_slider.c **** 
 953              		.loc 1 98 5 view .LVU292
 101:Middlewares/lvgl/src/widgets/lv_slider.c ****     if(res != LV_RES_OK) return;
 954              		.loc 1 101 5 view .LVU293
 101:Middlewares/lvgl/src/widgets/lv_slider.c ****     if(res != LV_RES_OK) return;
 955              		.loc 1 101 11 is_stmt 0 view .LVU294
 956 0008 C148     		ldr	r0, .L119
 957              	.LVL92:
 101:Middlewares/lvgl/src/widgets/lv_slider.c ****     if(res != LV_RES_OK) return;
 958              		.loc 1 101 11 view .LVU295
 959 000a FFF7FEFF 		bl	lv_obj_event_base
 960              	.LVL93:
 102:Middlewares/lvgl/src/widgets/lv_slider.c **** 
 961              		.loc 1 102 5 is_stmt 1 view .LVU296
 102:Middlewares/lvgl/src/widgets/lv_slider.c **** 
 962              		.loc 1 102 7 is_stmt 0 view .LVU297
 963 000e 0128     		cmp	r0, #1
 964 0010 02D0     		beq	.L106
 965              	.LVL94:
 966              	.L55:
 319:Middlewares/lvgl/src/widgets/lv_slider.c **** 
 967              		.loc 1 319 1 view .LVU298
 968 0012 07B0     		add	sp, sp, #28
 969              	.LCFI8:
 970              		.cfi_remember_state
 971              		.cfi_def_cfa_offset 36
 972              		@ sp needed
 973 0014 BDE8F08F 		pop	{r4, r5, r6, r7, r8, r9, r10, fp, pc}
ARM GAS  /tmp/ccj9m3on.s 			page 38


 974              	.LVL95:
 975              	.L106:
 976              	.LCFI9:
 977              		.cfi_restore_state
 104:Middlewares/lvgl/src/widgets/lv_slider.c ****     lv_obj_t * obj = lv_event_get_target(e);
 978              		.loc 1 104 5 is_stmt 1 view .LVU299
 104:Middlewares/lvgl/src/widgets/lv_slider.c ****     lv_obj_t * obj = lv_event_get_target(e);
 979              		.loc 1 104 28 is_stmt 0 view .LVU300
 980 0018 2046     		mov	r0, r4
 981              	.LVL96:
 104:Middlewares/lvgl/src/widgets/lv_slider.c ****     lv_obj_t * obj = lv_event_get_target(e);
 982              		.loc 1 104 28 view .LVU301
 983 001a FFF7FEFF 		bl	lv_event_get_code
 984              	.LVL97:
 985 001e 0646     		mov	r6, r0
 986              	.LVL98:
 105:Middlewares/lvgl/src/widgets/lv_slider.c ****     lv_slider_t * slider = (lv_slider_t *)obj;
 987              		.loc 1 105 5 is_stmt 1 view .LVU302
 105:Middlewares/lvgl/src/widgets/lv_slider.c ****     lv_slider_t * slider = (lv_slider_t *)obj;
 988              		.loc 1 105 22 is_stmt 0 view .LVU303
 989 0020 2046     		mov	r0, r4
 990 0022 FFF7FEFF 		bl	lv_event_get_target
 991              	.LVL99:
 992 0026 0546     		mov	r5, r0
 993              	.LVL100:
 106:Middlewares/lvgl/src/widgets/lv_slider.c ****     lv_slider_mode_t type = lv_slider_get_mode(obj);
 994              		.loc 1 106 5 is_stmt 1 view .LVU304
 107:Middlewares/lvgl/src/widgets/lv_slider.c **** 
 995              		.loc 1 107 5 view .LVU305
 996              	.LBB160:
 997              	.LBI160:
 168:Middlewares/lvgl/src/widgets/lv_slider.h **** {
 998              		.loc 4 168 32 view .LVU306
 999              	.LBB161:
 170:Middlewares/lvgl/src/widgets/lv_slider.h ****     if(mode == LV_BAR_MODE_SYMMETRICAL) return LV_SLIDER_MODE_SYMMETRICAL;
 1000              		.loc 4 170 5 view .LVU307
 170:Middlewares/lvgl/src/widgets/lv_slider.h ****     if(mode == LV_BAR_MODE_SYMMETRICAL) return LV_SLIDER_MODE_SYMMETRICAL;
 1001              		.loc 4 170 26 is_stmt 0 view .LVU308
 1002 0028 FFF7FEFF 		bl	lv_bar_get_mode
 1003              	.LVL101:
 170:Middlewares/lvgl/src/widgets/lv_slider.h ****     if(mode == LV_BAR_MODE_SYMMETRICAL) return LV_SLIDER_MODE_SYMMETRICAL;
 1004              		.loc 4 170 26 view .LVU309
 1005 002c 0746     		mov	r7, r0
 1006              	.LVL102:
 171:Middlewares/lvgl/src/widgets/lv_slider.h ****     else if(mode == LV_BAR_MODE_RANGE) return LV_SLIDER_MODE_RANGE;
 1007              		.loc 4 171 5 is_stmt 1 view .LVU310
 171:Middlewares/lvgl/src/widgets/lv_slider.h ****     else if(mode == LV_BAR_MODE_RANGE) return LV_SLIDER_MODE_RANGE;
 1008              		.loc 4 171 7 is_stmt 0 view .LVU311
 1009 002e 0128     		cmp	r0, #1
 1010 0030 02D0     		beq	.L57
 172:Middlewares/lvgl/src/widgets/lv_slider.h ****     else return LV_SLIDER_MODE_NORMAL;
 1011              		.loc 4 172 10 is_stmt 1 view .LVU312
 172:Middlewares/lvgl/src/widgets/lv_slider.h ****     else return LV_SLIDER_MODE_NORMAL;
 1012              		.loc 4 172 12 is_stmt 0 view .LVU313
 1013 0032 0228     		cmp	r0, #2
 1014 0034 00D0     		beq	.L57
 1015              		.loc 4 173 17 view .LVU314
ARM GAS  /tmp/ccj9m3on.s 			page 39


 1016 0036 0027     		movs	r7, #0
 1017              	.L57:
 1018              	.LVL103:
 1019              		.loc 4 173 17 view .LVU315
 1020              	.LBE161:
 1021              	.LBE160:
 110:Middlewares/lvgl/src/widgets/lv_slider.c ****         lv_hit_test_info_t * info = lv_event_get_param(e);
 1022              		.loc 1 110 5 is_stmt 1 view .LVU316
 110:Middlewares/lvgl/src/widgets/lv_slider.c ****         lv_hit_test_info_t * info = lv_event_get_param(e);
 1023              		.loc 1 110 7 is_stmt 0 view .LVU317
 1024 0038 112E     		cmp	r6, #17
 1025 003a 1CD0     		beq	.L107
 121:Middlewares/lvgl/src/widgets/lv_slider.c ****         lv_obj_invalidate(obj);
 1026              		.loc 1 121 10 is_stmt 1 view .LVU318
 121:Middlewares/lvgl/src/widgets/lv_slider.c ****         lv_obj_invalidate(obj);
 1027              		.loc 1 121 12 is_stmt 0 view .LVU319
 1028 003c 012E     		cmp	r6, #1
 1029 003e 31D0     		beq	.L108
 185:Middlewares/lvgl/src/widgets/lv_slider.c ****         lv_indev_t * indev = lv_indev_get_act();
 1030              		.loc 1 185 10 is_stmt 1 view .LVU320
 185:Middlewares/lvgl/src/widgets/lv_slider.c ****         lv_indev_t * indev = lv_indev_get_act();
 1031              		.loc 1 185 12 is_stmt 0 view .LVU321
 1032 0040 022E     		cmp	r6, #2
 1033 0042 00F0F280 		beq	.L109
 1034              	.L73:
 243:Middlewares/lvgl/src/widgets/lv_slider.c ****         slider->dragging = false;
 1035              		.loc 1 243 10 is_stmt 1 view .LVU322
 243:Middlewares/lvgl/src/widgets/lv_slider.c ****         slider->dragging = false;
 1036              		.loc 1 243 12 is_stmt 0 view .LVU323
 1037 0046 082E     		cmp	r6, #8
 1038 0048 00F08181 		beq	.L83
 243:Middlewares/lvgl/src/widgets/lv_slider.c ****         slider->dragging = false;
 1039              		.loc 1 243 39 discriminator 1 view .LVU324
 1040 004c 032E     		cmp	r6, #3
 1041 004e 00F07E81 		beq	.L83
 269:Middlewares/lvgl/src/widgets/lv_slider.c ****         lv_indev_type_t indev_type = lv_indev_get_type(lv_indev_get_act());
 1042              		.loc 1 269 10 is_stmt 1 view .LVU325
 269:Middlewares/lvgl/src/widgets/lv_slider.c ****         lv_indev_type_t indev_type = lv_indev_get_type(lv_indev_get_act());
 1043              		.loc 1 269 12 is_stmt 0 view .LVU326
 1044 0052 0E2E     		cmp	r6, #14
 1045 0054 00F0BB81 		beq	.L110
 275:Middlewares/lvgl/src/widgets/lv_slider.c ****         lv_obj_refresh_ext_draw_size(obj);
 1046              		.loc 1 275 10 is_stmt 1 view .LVU327
 275:Middlewares/lvgl/src/widgets/lv_slider.c ****         lv_obj_refresh_ext_draw_size(obj);
 1047              		.loc 1 275 12 is_stmt 0 view .LVU328
 1048 0058 232E     		cmp	r6, #35
 1049 005a 00F0C881 		beq	.L111
 278:Middlewares/lvgl/src/widgets/lv_slider.c ****         lv_coord_t knob_left = lv_obj_get_style_pad_left(obj, LV_PART_KNOB);
 1050              		.loc 1 278 10 is_stmt 1 view .LVU329
 278:Middlewares/lvgl/src/widgets/lv_slider.c ****         lv_coord_t knob_left = lv_obj_get_style_pad_left(obj, LV_PART_KNOB);
 1051              		.loc 1 278 12 is_stmt 0 view .LVU330
 1052 005e 132E     		cmp	r6, #19
 1053 0060 00F0C981 		beq	.L112
 299:Middlewares/lvgl/src/widgets/lv_slider.c ****         char c = *((char *)lv_event_get_param(e));
 1054              		.loc 1 299 10 is_stmt 1 view .LVU331
 299:Middlewares/lvgl/src/widgets/lv_slider.c ****         char c = *((char *)lv_event_get_param(e));
 1055              		.loc 1 299 12 is_stmt 0 view .LVU332
ARM GAS  /tmp/ccj9m3on.s 			page 40


 1056 0064 0D2E     		cmp	r6, #13
 1057 0066 00F04882 		beq	.L113
 316:Middlewares/lvgl/src/widgets/lv_slider.c ****         draw_knob(e);
 1058              		.loc 1 316 12 is_stmt 1 view .LVU333
 316:Middlewares/lvgl/src/widgets/lv_slider.c ****         draw_knob(e);
 1059              		.loc 1 316 14 is_stmt 0 view .LVU334
 1060 006a 152E     		cmp	r6, #21
 1061 006c D1D1     		bne	.L55
 317:Middlewares/lvgl/src/widgets/lv_slider.c ****     }
 1062              		.loc 1 317 9 is_stmt 1 view .LVU335
 1063 006e 2046     		mov	r0, r4
 1064 0070 FFF7FEFF 		bl	draw_knob
 1065              	.LVL104:
 1066 0074 CDE7     		b	.L55
 1067              	.L107:
 1068              	.LBB162:
 111:Middlewares/lvgl/src/widgets/lv_slider.c **** 
 1069              		.loc 1 111 9 view .LVU336
 111:Middlewares/lvgl/src/widgets/lv_slider.c **** 
 1070              		.loc 1 111 37 is_stmt 0 view .LVU337
 1071 0076 2046     		mov	r0, r4
 1072 0078 FFF7FEFF 		bl	lv_event_get_param
 1073              	.LVL105:
 1074 007c 0446     		mov	r4, r0
 1075              	.LVL106:
 114:Middlewares/lvgl/src/widgets/lv_slider.c **** 
 1076              		.loc 1 114 9 is_stmt 1 view .LVU338
 114:Middlewares/lvgl/src/widgets/lv_slider.c **** 
 1077              		.loc 1 114 21 is_stmt 0 view .LVU339
 1078 007e 0022     		movs	r2, #0
 1079 0080 0168     		ldr	r1, [r0]
 1080 0082 05F16800 		add	r0, r5, #104
 1081              	.LVL107:
 114:Middlewares/lvgl/src/widgets/lv_slider.c **** 
 1082              		.loc 1 114 21 view .LVU340
 1083 0086 FFF7FEFF 		bl	_lv_area_is_point_on
 1084              	.LVL108:
 114:Middlewares/lvgl/src/widgets/lv_slider.c **** 
 1085              		.loc 1 114 19 view .LVU341
 1086 008a 2071     		strb	r0, [r4, #4]
 117:Middlewares/lvgl/src/widgets/lv_slider.c ****             info->res = _lv_area_is_point_on(&slider->left_knob_area, info->point, 0);
 1087              		.loc 1 117 9 is_stmt 1 view .LVU342
 117:Middlewares/lvgl/src/widgets/lv_slider.c ****             info->res = _lv_area_is_point_on(&slider->left_knob_area, info->point, 0);
 1088              		.loc 1 117 11 is_stmt 0 view .LVU343
 1089 008c 0028     		cmp	r0, #0
 1090 008e C0D1     		bne	.L55
 117:Middlewares/lvgl/src/widgets/lv_slider.c ****             info->res = _lv_area_is_point_on(&slider->left_knob_area, info->point, 0);
 1091              		.loc 1 117 33 discriminator 1 view .LVU344
 1092 0090 022F     		cmp	r7, #2
 1093 0092 BED1     		bne	.L55
 118:Middlewares/lvgl/src/widgets/lv_slider.c ****         }
 1094              		.loc 1 118 13 is_stmt 1 view .LVU345
 118:Middlewares/lvgl/src/widgets/lv_slider.c ****         }
 1095              		.loc 1 118 25 is_stmt 0 view .LVU346
 1096 0094 0022     		movs	r2, #0
 1097 0096 2168     		ldr	r1, [r4]
 1098 0098 05F16000 		add	r0, r5, #96
ARM GAS  /tmp/ccj9m3on.s 			page 41


 1099 009c FFF7FEFF 		bl	_lv_area_is_point_on
 1100              	.LVL109:
 118:Middlewares/lvgl/src/widgets/lv_slider.c ****         }
 1101              		.loc 1 118 23 view .LVU347
 1102 00a0 2071     		strb	r0, [r4, #4]
 1103 00a2 B6E7     		b	.L55
 1104              	.LVL110:
 1105              	.L108:
 118:Middlewares/lvgl/src/widgets/lv_slider.c ****         }
 1106              		.loc 1 118 23 view .LVU348
 1107              	.LBE162:
 1108              	.LBB163:
 122:Middlewares/lvgl/src/widgets/lv_slider.c **** 
 1109              		.loc 1 122 9 is_stmt 1 view .LVU349
 1110 00a4 2846     		mov	r0, r5
 1111 00a6 FFF7FEFF 		bl	lv_obj_invalidate
 1112              	.LVL111:
 124:Middlewares/lvgl/src/widgets/lv_slider.c ****         slider->dragging = true;
 1113              		.loc 1 124 9 view .LVU350
 125:Middlewares/lvgl/src/widgets/lv_slider.c ****         if(type == LV_SLIDER_MODE_NORMAL || type == LV_SLIDER_MODE_SYMMETRICAL) {
 1114              		.loc 1 125 9 view .LVU351
 125:Middlewares/lvgl/src/widgets/lv_slider.c ****         if(type == LV_SLIDER_MODE_NORMAL || type == LV_SLIDER_MODE_SYMMETRICAL) {
 1115              		.loc 1 125 26 is_stmt 0 view .LVU352
 1116 00aa 95F87430 		ldrb	r3, [r5, #116]	@ zero_extendqisi2
 1117 00ae 43F00103 		orr	r3, r3, #1
 1118 00b2 85F87430 		strb	r3, [r5, #116]
 126:Middlewares/lvgl/src/widgets/lv_slider.c ****             slider->value_to_set = &slider->bar.cur_value;
 1119              		.loc 1 126 9 is_stmt 1 view .LVU353
 126:Middlewares/lvgl/src/widgets/lv_slider.c ****             slider->value_to_set = &slider->bar.cur_value;
 1120              		.loc 1 126 11 is_stmt 0 view .LVU354
 1121 00b6 012F     		cmp	r7, #1
 1122 00b8 55D9     		bls	.L114
 129:Middlewares/lvgl/src/widgets/lv_slider.c ****             lv_indev_get_point(lv_indev_get_act(), &p);
 1123              		.loc 1 129 14 is_stmt 1 view .LVU355
 129:Middlewares/lvgl/src/widgets/lv_slider.c ****             lv_indev_get_point(lv_indev_get_act(), &p);
 1124              		.loc 1 129 16 is_stmt 0 view .LVU356
 1125 00ba 022F     		cmp	r7, #2
 1126 00bc A9D1     		bne	.L55
 1127              	.LBB164:
 130:Middlewares/lvgl/src/widgets/lv_slider.c ****             bool hor = lv_obj_get_width(obj) >= lv_obj_get_height(obj);
 1128              		.loc 1 130 13 is_stmt 1 view .LVU357
 130:Middlewares/lvgl/src/widgets/lv_slider.c ****             bool hor = lv_obj_get_width(obj) >= lv_obj_get_height(obj);
 1129              		.loc 1 130 32 is_stmt 0 view .LVU358
 1130 00be FFF7FEFF 		bl	lv_indev_get_act
 1131              	.LVL112:
 130:Middlewares/lvgl/src/widgets/lv_slider.c ****             bool hor = lv_obj_get_width(obj) >= lv_obj_get_height(obj);
 1132              		.loc 1 130 13 view .LVU359
 1133 00c2 05A9     		add	r1, sp, #20
 1134 00c4 FFF7FEFF 		bl	lv_indev_get_point
 1135              	.LVL113:
 131:Middlewares/lvgl/src/widgets/lv_slider.c ****             lv_base_dir_t base_dir = lv_obj_get_style_base_dir(obj, LV_PART_MAIN);
 1136              		.loc 1 131 13 is_stmt 1 view .LVU360
 131:Middlewares/lvgl/src/widgets/lv_slider.c ****             lv_base_dir_t base_dir = lv_obj_get_style_base_dir(obj, LV_PART_MAIN);
 1137              		.loc 1 131 24 is_stmt 0 view .LVU361
 1138 00c8 2846     		mov	r0, r5
 1139 00ca FFF7FEFF 		bl	lv_obj_get_width
 1140              	.LVL114:
ARM GAS  /tmp/ccj9m3on.s 			page 42


 1141 00ce 0646     		mov	r6, r0
 1142              	.LVL115:
 131:Middlewares/lvgl/src/widgets/lv_slider.c ****             lv_base_dir_t base_dir = lv_obj_get_style_base_dir(obj, LV_PART_MAIN);
 1143              		.loc 1 131 49 view .LVU362
 1144 00d0 2846     		mov	r0, r5
 1145 00d2 FFF7FEFF 		bl	lv_obj_get_height
 1146              	.LVL116:
 1147 00d6 0446     		mov	r4, r0
 1148              	.LVL117:
 132:Middlewares/lvgl/src/widgets/lv_slider.c **** 
 1149              		.loc 1 132 13 is_stmt 1 view .LVU363
 1150              	.LBB165:
 1151              	.LBI165:
 187:Middlewares/lvgl/src/widgets/../core/lv_obj_style_gen.h **** {
 1152              		.loc 2 187 29 view .LVU364
 1153              	.LBB166:
 189:Middlewares/lvgl/src/widgets/../core/lv_obj_style_gen.h ****     return (lv_base_dir_t)v.num;
 1154              		.loc 2 189 5 view .LVU365
 189:Middlewares/lvgl/src/widgets/../core/lv_obj_style_gen.h ****     return (lv_base_dir_t)v.num;
 1155              		.loc 2 189 26 is_stmt 0 view .LVU366
 1156 00d8 41F26A42 		movw	r2, #5226
 1157 00dc 0021     		movs	r1, #0
 1158 00de 2846     		mov	r0, r5
 1159 00e0 FFF7FEFF 		bl	lv_obj_get_style_prop
 1160              	.LVL118:
 1161              		.loc 2 190 5 is_stmt 1 view .LVU367
 1162              		.loc 2 190 12 is_stmt 0 view .LVU368
 1163 00e4 C3B2     		uxtb	r3, r0
 1164              	.LVL119:
 1165              		.loc 2 190 12 view .LVU369
 1166              	.LBE166:
 1167              	.LBE165:
 134:Middlewares/lvgl/src/widgets/lv_slider.c ****             if(hor) {
 1168              		.loc 1 134 13 is_stmt 1 view .LVU370
 135:Middlewares/lvgl/src/widgets/lv_slider.c ****                 if((base_dir != LV_BASE_DIR_RTL && p.x > slider->right_knob_area.x2) || (base_dir =
 1169              		.loc 1 135 13 view .LVU371
 135:Middlewares/lvgl/src/widgets/lv_slider.c ****                 if((base_dir != LV_BASE_DIR_RTL && p.x > slider->right_knob_area.x2) || (base_dir =
 1170              		.loc 1 135 15 is_stmt 0 view .LVU372
 1171 00e6 A642     		cmp	r6, r4
 1172 00e8 5FDB     		blt	.L62
 136:Middlewares/lvgl/src/widgets/lv_slider.c ****                                                                                       p.x < slider-
 1173              		.loc 1 136 17 is_stmt 1 view .LVU373
 136:Middlewares/lvgl/src/widgets/lv_slider.c ****                                                                                       p.x < slider-
 1174              		.loc 1 136 19 is_stmt 0 view .LVU374
 1175 00ea 012B     		cmp	r3, #1
 1176 00ec 05D0     		beq	.L63
 136:Middlewares/lvgl/src/widgets/lv_slider.c ****                                                                                       p.x < slider-
 1177              		.loc 1 136 53 discriminator 1 view .LVU375
 1178 00ee BDF91410 		ldrsh	r1, [sp, #20]
 136:Middlewares/lvgl/src/widgets/lv_slider.c ****                                                                                       p.x < slider-
 1179              		.loc 1 136 81 discriminator 1 view .LVU376
 1180 00f2 B5F96C20 		ldrsh	r2, [r5, #108]
 136:Middlewares/lvgl/src/widgets/lv_slider.c ****                                                                                       p.x < slider-
 1181              		.loc 1 136 49 discriminator 1 view .LVU377
 1182 00f6 9142     		cmp	r1, r2
 1183 00f8 3FDC     		bgt	.L64
 1184              	.L63:
ARM GAS  /tmp/ccj9m3on.s 			page 43


 136:Middlewares/lvgl/src/widgets/lv_slider.c ****                                                                                       p.x < slider-
 1185              		.loc 1 136 86 discriminator 3 view .LVU378
 1186 00fa 012B     		cmp	r3, #1
 1187 00fc 37D0     		beq	.L115
 1188              	.L65:
 140:Middlewares/lvgl/src/widgets/lv_slider.c ****                                                                                           p.x > sli
 1189              		.loc 1 140 22 is_stmt 1 view .LVU379
 140:Middlewares/lvgl/src/widgets/lv_slider.c ****                                                                                           p.x > sli
 1190              		.loc 1 140 24 is_stmt 0 view .LVU380
 1191 00fe 012B     		cmp	r3, #1
 1192 0100 05D0     		beq	.L66
 140:Middlewares/lvgl/src/widgets/lv_slider.c ****                                                                                           p.x > sli
 1193              		.loc 1 140 58 discriminator 1 view .LVU381
 1194 0102 BDF91410 		ldrsh	r1, [sp, #20]
 140:Middlewares/lvgl/src/widgets/lv_slider.c ****                                                                                           p.x > sli
 1195              		.loc 1 140 85 discriminator 1 view .LVU382
 1196 0106 B5F96020 		ldrsh	r2, [r5, #96]
 140:Middlewares/lvgl/src/widgets/lv_slider.c ****                                                                                           p.x > sli
 1197              		.loc 1 140 54 discriminator 1 view .LVU383
 1198 010a 9142     		cmp	r1, r2
 1199 010c 3FDB     		blt	.L67
 1200              	.L66:
 140:Middlewares/lvgl/src/widgets/lv_slider.c ****                                                                                           p.x > sli
 1201              		.loc 1 140 90 discriminator 3 view .LVU384
 1202 010e 012B     		cmp	r3, #1
 1203 0110 37D0     		beq	.L116
 1204              	.LVL120:
 1205              	.L68:
 146:Middlewares/lvgl/src/widgets/lv_slider.c ****                     dist_right = LV_ABS((slider->right_knob_area.x1 + (slider->right_knob_area.x2 -
 1206              		.loc 1 146 21 is_stmt 1 view .LVU385
 146:Middlewares/lvgl/src/widgets/lv_slider.c ****                     dist_right = LV_ABS((slider->right_knob_area.x1 + (slider->right_knob_area.x2 -
 1207              		.loc 1 146 33 is_stmt 0 view .LVU386
 1208 0112 B5F96030 		ldrsh	r3, [r5, #96]
 1209 0116 B5F96420 		ldrsh	r2, [r5, #100]
 1210 011a D21A     		subs	r2, r2, r3
 1211 011c 02EBD272 		add	r2, r2, r2, lsr #31
 1212 0120 03EB6202 		add	r2, r3, r2, asr #1
 1213 0124 BDF91400 		ldrsh	r0, [sp, #20]
 1214              	.LVL121:
 146:Middlewares/lvgl/src/widgets/lv_slider.c ****                     dist_right = LV_ABS((slider->right_knob_area.x1 + (slider->right_knob_area.x2 -
 1215              		.loc 1 146 33 view .LVU387
 1216 0128 121A     		subs	r2, r2, r0
 1217 012a 002A     		cmp	r2, #0
 1218 012c B8BF     		it	lt
 1219 012e 5242     		rsblt	r2, r2, #0
 146:Middlewares/lvgl/src/widgets/lv_slider.c ****                     dist_right = LV_ABS((slider->right_knob_area.x1 + (slider->right_knob_area.x2 -
 1220              		.loc 1 146 31 view .LVU388
 1221 0130 12B2     		sxth	r2, r2
 1222              	.LVL122:
 147:Middlewares/lvgl/src/widgets/lv_slider.c **** 
 1223              		.loc 1 147 21 is_stmt 1 view .LVU389
 147:Middlewares/lvgl/src/widgets/lv_slider.c **** 
 1224              		.loc 1 147 34 is_stmt 0 view .LVU390
 1225 0132 B5F96830 		ldrsh	r3, [r5, #104]
 1226 0136 B5F96C10 		ldrsh	r1, [r5, #108]
 1227 013a C91A     		subs	r1, r1, r3
 1228 013c 01EBD171 		add	r1, r1, r1, lsr #31
ARM GAS  /tmp/ccj9m3on.s 			page 44


 1229 0140 03EB6103 		add	r3, r3, r1, asr #1
 1230 0144 1B1A     		subs	r3, r3, r0
 1231 0146 002B     		cmp	r3, #0
 1232 0148 B8BF     		it	lt
 1233 014a 5B42     		rsblt	r3, r3, #0
 147:Middlewares/lvgl/src/widgets/lv_slider.c **** 
 1234              		.loc 1 147 32 view .LVU391
 1235 014c 1BB2     		sxth	r3, r3
 1236              	.LVL123:
 150:Middlewares/lvgl/src/widgets/lv_slider.c ****                         slider->value_to_set = &slider->bar.cur_value;
 1237              		.loc 1 150 21 is_stmt 1 view .LVU392
 150:Middlewares/lvgl/src/widgets/lv_slider.c ****                         slider->value_to_set = &slider->bar.cur_value;
 1238              		.loc 1 150 23 is_stmt 0 view .LVU393
 1239 014e 9A42     		cmp	r2, r3
 1240 0150 21DD     		ble	.L69
 151:Middlewares/lvgl/src/widgets/lv_slider.c ****                         slider->left_knob_focus = 0;
 1241              		.loc 1 151 25 is_stmt 1 view .LVU394
 151:Middlewares/lvgl/src/widgets/lv_slider.c ****                         slider->left_knob_focus = 0;
 1242              		.loc 1 151 48 is_stmt 0 view .LVU395
 1243 0152 05F12403 		add	r3, r5, #36
 1244              	.LVL124:
 151:Middlewares/lvgl/src/widgets/lv_slider.c ****                         slider->left_knob_focus = 0;
 1245              		.loc 1 151 46 view .LVU396
 1246 0156 2B67     		str	r3, [r5, #112]
 152:Middlewares/lvgl/src/widgets/lv_slider.c ****                     }
 1247              		.loc 1 152 25 is_stmt 1 view .LVU397
 152:Middlewares/lvgl/src/widgets/lv_slider.c ****                     }
 1248              		.loc 1 152 49 is_stmt 0 view .LVU398
 1249 0158 95F87430 		ldrb	r3, [r5, #116]	@ zero_extendqisi2
 1250 015c 6FF34103 		bfc	r3, #1, #1
 1251 0160 85F87430 		strb	r3, [r5, #116]
 1252 0164 55E7     		b	.L55
 1253              	.LVL125:
 1254              	.L114:
 152:Middlewares/lvgl/src/widgets/lv_slider.c ****                     }
 1255              		.loc 1 152 49 view .LVU399
 1256              	.LBE164:
 127:Middlewares/lvgl/src/widgets/lv_slider.c ****         }
 1257              		.loc 1 127 13 is_stmt 1 view .LVU400
 127:Middlewares/lvgl/src/widgets/lv_slider.c ****         }
 1258              		.loc 1 127 36 is_stmt 0 view .LVU401
 1259 0166 05F12403 		add	r3, r5, #36
 127:Middlewares/lvgl/src/widgets/lv_slider.c ****         }
 1260              		.loc 1 127 34 view .LVU402
 1261 016a 2B67     		str	r3, [r5, #112]
 1262 016c 51E7     		b	.L55
 1263              	.LVL126:
 1264              	.L115:
 1265              	.LBB167:
 137:Middlewares/lvgl/src/widgets/lv_slider.c ****                     slider->value_to_set = &slider->bar.cur_value;
 1266              		.loc 1 137 88 discriminator 4 view .LVU403
 1267 016e BDF91410 		ldrsh	r1, [sp, #20]
 137:Middlewares/lvgl/src/widgets/lv_slider.c ****                     slider->value_to_set = &slider->bar.cur_value;
 1268              		.loc 1 137 116 discriminator 4 view .LVU404
 1269 0172 B5F96820 		ldrsh	r2, [r5, #104]
 136:Middlewares/lvgl/src/widgets/lv_slider.c ****                                                                                       p.x < slider-
 1270              		.loc 1 136 118 discriminator 4 view .LVU405
ARM GAS  /tmp/ccj9m3on.s 			page 45


 1271 0176 9142     		cmp	r1, r2
 1272 0178 C1DA     		bge	.L65
 1273              	.L64:
 138:Middlewares/lvgl/src/widgets/lv_slider.c ****                 }
 1274              		.loc 1 138 21 is_stmt 1 view .LVU406
 138:Middlewares/lvgl/src/widgets/lv_slider.c ****                 }
 1275              		.loc 1 138 44 is_stmt 0 view .LVU407
 1276 017a 05F12403 		add	r3, r5, #36
 1277              	.LVL127:
 138:Middlewares/lvgl/src/widgets/lv_slider.c ****                 }
 1278              		.loc 1 138 42 view .LVU408
 1279 017e 2B67     		str	r3, [r5, #112]
 1280 0180 47E7     		b	.L55
 1281              	.LVL128:
 1282              	.L116:
 141:Middlewares/lvgl/src/widgets/lv_slider.c ****                     slider->value_to_set = &slider->bar.start_value;
 1283              		.loc 1 141 92 discriminator 4 view .LVU409
 1284 0182 BDF91420 		ldrsh	r2, [sp, #20]
 141:Middlewares/lvgl/src/widgets/lv_slider.c ****                     slider->value_to_set = &slider->bar.start_value;
 1285              		.loc 1 141 119 discriminator 4 view .LVU410
 1286 0186 B5F96430 		ldrsh	r3, [r5, #100]
 1287              	.LVL129:
 140:Middlewares/lvgl/src/widgets/lv_slider.c ****                                                                                           p.x > sli
 1288              		.loc 1 140 122 discriminator 4 view .LVU411
 1289 018a 9A42     		cmp	r2, r3
 1290 018c C1DD     		ble	.L68
 1291              	.L67:
 142:Middlewares/lvgl/src/widgets/lv_slider.c ****                 }
 1292              		.loc 1 142 21 is_stmt 1 view .LVU412
 142:Middlewares/lvgl/src/widgets/lv_slider.c ****                 }
 1293              		.loc 1 142 44 is_stmt 0 view .LVU413
 1294 018e 05F13003 		add	r3, r5, #48
 142:Middlewares/lvgl/src/widgets/lv_slider.c ****                 }
 1295              		.loc 1 142 42 view .LVU414
 1296 0192 2B67     		str	r3, [r5, #112]
 1297 0194 3DE7     		b	.L55
 1298              	.LVL130:
 1299              	.L69:
 155:Middlewares/lvgl/src/widgets/lv_slider.c ****                         slider->left_knob_focus = 1;
 1300              		.loc 1 155 25 is_stmt 1 view .LVU415
 155:Middlewares/lvgl/src/widgets/lv_slider.c ****                         slider->left_knob_focus = 1;
 1301              		.loc 1 155 48 is_stmt 0 view .LVU416
 1302 0196 05F13003 		add	r3, r5, #48
 1303              	.LVL131:
 155:Middlewares/lvgl/src/widgets/lv_slider.c ****                         slider->left_knob_focus = 1;
 1304              		.loc 1 155 46 view .LVU417
 1305 019a 2B67     		str	r3, [r5, #112]
 156:Middlewares/lvgl/src/widgets/lv_slider.c ****                     }
 1306              		.loc 1 156 25 is_stmt 1 view .LVU418
 156:Middlewares/lvgl/src/widgets/lv_slider.c ****                     }
 1307              		.loc 1 156 49 is_stmt 0 view .LVU419
 1308 019c 95F87430 		ldrb	r3, [r5, #116]	@ zero_extendqisi2
 1309 01a0 43F00203 		orr	r3, r3, #2
 1310 01a4 85F87430 		strb	r3, [r5, #116]
 1311 01a8 33E7     		b	.L55
 1312              	.LVL132:
 1313              	.L62:
ARM GAS  /tmp/ccj9m3on.s 			page 46


 161:Middlewares/lvgl/src/widgets/lv_slider.c ****                     slider->value_to_set = &slider->bar.cur_value;
 1314              		.loc 1 161 17 is_stmt 1 view .LVU420
 161:Middlewares/lvgl/src/widgets/lv_slider.c ****                     slider->value_to_set = &slider->bar.cur_value;
 1315              		.loc 1 161 21 is_stmt 0 view .LVU421
 1316 01aa BDF91610 		ldrsh	r1, [sp, #22]
 161:Middlewares/lvgl/src/widgets/lv_slider.c ****                     slider->value_to_set = &slider->bar.cur_value;
 1317              		.loc 1 161 49 view .LVU422
 1318 01ae B5F96A30 		ldrsh	r3, [r5, #106]
 1319              	.LVL133:
 161:Middlewares/lvgl/src/widgets/lv_slider.c ****                     slider->value_to_set = &slider->bar.cur_value;
 1320              		.loc 1 161 19 view .LVU423
 1321 01b2 9942     		cmp	r1, r3
 1322 01b4 03DA     		bge	.L70
 162:Middlewares/lvgl/src/widgets/lv_slider.c ****                 }
 1323              		.loc 1 162 21 is_stmt 1 view .LVU424
 162:Middlewares/lvgl/src/widgets/lv_slider.c ****                 }
 1324              		.loc 1 162 44 is_stmt 0 view .LVU425
 1325 01b6 05F12403 		add	r3, r5, #36
 162:Middlewares/lvgl/src/widgets/lv_slider.c ****                 }
 1326              		.loc 1 162 42 view .LVU426
 1327 01ba 2B67     		str	r3, [r5, #112]
 1328 01bc 29E7     		b	.L55
 1329              	.L70:
 164:Middlewares/lvgl/src/widgets/lv_slider.c ****                     slider->value_to_set = &slider->bar.start_value;
 1330              		.loc 1 164 22 is_stmt 1 view .LVU427
 164:Middlewares/lvgl/src/widgets/lv_slider.c ****                     slider->value_to_set = &slider->bar.start_value;
 1331              		.loc 1 164 53 is_stmt 0 view .LVU428
 1332 01be B5F96600 		ldrsh	r0, [r5, #102]
 1333              	.LVL134:
 164:Middlewares/lvgl/src/widgets/lv_slider.c ****                     slider->value_to_set = &slider->bar.start_value;
 1334              		.loc 1 164 24 view .LVU429
 1335 01c2 8142     		cmp	r1, r0
 1336 01c4 03DD     		ble	.L71
 165:Middlewares/lvgl/src/widgets/lv_slider.c ****                 }
 1337              		.loc 1 165 21 is_stmt 1 view .LVU430
 165:Middlewares/lvgl/src/widgets/lv_slider.c ****                 }
 1338              		.loc 1 165 44 is_stmt 0 view .LVU431
 1339 01c6 05F13003 		add	r3, r5, #48
 165:Middlewares/lvgl/src/widgets/lv_slider.c ****                 }
 1340              		.loc 1 165 42 view .LVU432
 1341 01ca 2B67     		str	r3, [r5, #112]
 1342 01cc 21E7     		b	.L55
 1343              	.L71:
 169:Middlewares/lvgl/src/widgets/lv_slider.c ****                     dist_right = LV_ABS((slider->right_knob_area.y1 + (slider->right_knob_area.y2 -
 1344              		.loc 1 169 21 is_stmt 1 view .LVU433
 169:Middlewares/lvgl/src/widgets/lv_slider.c ****                     dist_right = LV_ABS((slider->right_knob_area.y1 + (slider->right_knob_area.y2 -
 1345              		.loc 1 169 33 is_stmt 0 view .LVU434
 1346 01ce B5F96220 		ldrsh	r2, [r5, #98]
 1347 01d2 801A     		subs	r0, r0, r2
 1348 01d4 00EBD070 		add	r0, r0, r0, lsr #31
 1349 01d8 02EB6002 		add	r2, r2, r0, asr #1
 1350 01dc 521A     		subs	r2, r2, r1
 1351 01de 002A     		cmp	r2, #0
 1352 01e0 B8BF     		it	lt
 1353 01e2 5242     		rsblt	r2, r2, #0
 169:Middlewares/lvgl/src/widgets/lv_slider.c ****                     dist_right = LV_ABS((slider->right_knob_area.y1 + (slider->right_knob_area.y2 -
 1354              		.loc 1 169 31 view .LVU435
ARM GAS  /tmp/ccj9m3on.s 			page 47


 1355 01e4 12B2     		sxth	r2, r2
 1356              	.LVL135:
 170:Middlewares/lvgl/src/widgets/lv_slider.c **** 
 1357              		.loc 1 170 21 is_stmt 1 view .LVU436
 170:Middlewares/lvgl/src/widgets/lv_slider.c **** 
 1358              		.loc 1 170 34 is_stmt 0 view .LVU437
 1359 01e6 B5F96E00 		ldrsh	r0, [r5, #110]
 1360 01ea C01A     		subs	r0, r0, r3
 1361 01ec 00EBD070 		add	r0, r0, r0, lsr #31
 1362 01f0 03EB6003 		add	r3, r3, r0, asr #1
 1363 01f4 5B1A     		subs	r3, r3, r1
 1364 01f6 002B     		cmp	r3, #0
 1365 01f8 B8BF     		it	lt
 1366 01fa 5B42     		rsblt	r3, r3, #0
 170:Middlewares/lvgl/src/widgets/lv_slider.c **** 
 1367              		.loc 1 170 32 view .LVU438
 1368 01fc 1BB2     		sxth	r3, r3
 1369              	.LVL136:
 173:Middlewares/lvgl/src/widgets/lv_slider.c ****                         slider->value_to_set = &slider->bar.cur_value;
 1370              		.loc 1 173 21 is_stmt 1 view .LVU439
 173:Middlewares/lvgl/src/widgets/lv_slider.c ****                         slider->value_to_set = &slider->bar.cur_value;
 1371              		.loc 1 173 23 is_stmt 0 view .LVU440
 1372 01fe 9A42     		cmp	r2, r3
 1373 0200 09DD     		ble	.L72
 174:Middlewares/lvgl/src/widgets/lv_slider.c ****                         slider->left_knob_focus = 0;
 1374              		.loc 1 174 25 is_stmt 1 view .LVU441
 174:Middlewares/lvgl/src/widgets/lv_slider.c ****                         slider->left_knob_focus = 0;
 1375              		.loc 1 174 48 is_stmt 0 view .LVU442
 1376 0202 05F12403 		add	r3, r5, #36
 1377              	.LVL137:
 174:Middlewares/lvgl/src/widgets/lv_slider.c ****                         slider->left_knob_focus = 0;
 1378              		.loc 1 174 46 view .LVU443
 1379 0206 2B67     		str	r3, [r5, #112]
 175:Middlewares/lvgl/src/widgets/lv_slider.c ****                     }
 1380              		.loc 1 175 25 is_stmt 1 view .LVU444
 175:Middlewares/lvgl/src/widgets/lv_slider.c ****                     }
 1381              		.loc 1 175 49 is_stmt 0 view .LVU445
 1382 0208 95F87430 		ldrb	r3, [r5, #116]	@ zero_extendqisi2
 1383 020c 6FF34103 		bfc	r3, #1, #1
 1384 0210 85F87430 		strb	r3, [r5, #116]
 1385 0214 FDE6     		b	.L55
 1386              	.LVL138:
 1387              	.L72:
 178:Middlewares/lvgl/src/widgets/lv_slider.c ****                         slider->left_knob_focus = 1;
 1388              		.loc 1 178 25 is_stmt 1 view .LVU446
 178:Middlewares/lvgl/src/widgets/lv_slider.c ****                         slider->left_knob_focus = 1;
 1389              		.loc 1 178 48 is_stmt 0 view .LVU447
 1390 0216 05F13003 		add	r3, r5, #48
 1391              	.LVL139:
 178:Middlewares/lvgl/src/widgets/lv_slider.c ****                         slider->left_knob_focus = 1;
 1392              		.loc 1 178 46 view .LVU448
 1393 021a 2B67     		str	r3, [r5, #112]
 179:Middlewares/lvgl/src/widgets/lv_slider.c ****                     }
 1394              		.loc 1 179 25 is_stmt 1 view .LVU449
 179:Middlewares/lvgl/src/widgets/lv_slider.c ****                     }
 1395              		.loc 1 179 49 is_stmt 0 view .LVU450
 1396 021c 95F87430 		ldrb	r3, [r5, #116]	@ zero_extendqisi2
ARM GAS  /tmp/ccj9m3on.s 			page 48


 1397 0220 43F00203 		orr	r3, r3, #2
 1398 0224 85F87430 		strb	r3, [r5, #116]
 1399 0228 F3E6     		b	.L55
 1400              	.LVL140:
 1401              	.L109:
 179:Middlewares/lvgl/src/widgets/lv_slider.c ****                     }
 1402              		.loc 1 179 49 view .LVU451
 1403              	.LBE167:
 1404              	.LBE163:
 185:Middlewares/lvgl/src/widgets/lv_slider.c ****         lv_indev_t * indev = lv_indev_get_act();
 1405              		.loc 1 185 48 discriminator 1 view .LVU452
 1406 022a 2B6F     		ldr	r3, [r5, #112]
 185:Middlewares/lvgl/src/widgets/lv_slider.c ****         lv_indev_t * indev = lv_indev_get_act();
 1407              		.loc 1 185 39 discriminator 1 view .LVU453
 1408 022c 002B     		cmp	r3, #0
 1409 022e 3FF40AAF 		beq	.L73
 1410              	.LBB168:
 186:Middlewares/lvgl/src/widgets/lv_slider.c ****         if(lv_indev_get_type(indev) != LV_INDEV_TYPE_POINTER) return;
 1411              		.loc 1 186 9 is_stmt 1 view .LVU454
 186:Middlewares/lvgl/src/widgets/lv_slider.c ****         if(lv_indev_get_type(indev) != LV_INDEV_TYPE_POINTER) return;
 1412              		.loc 1 186 30 is_stmt 0 view .LVU455
 1413 0232 FFF7FEFF 		bl	lv_indev_get_act
 1414              	.LVL141:
 1415 0236 0446     		mov	r4, r0
 1416              	.LVL142:
 187:Middlewares/lvgl/src/widgets/lv_slider.c **** 
 1417              		.loc 1 187 9 is_stmt 1 view .LVU456
 187:Middlewares/lvgl/src/widgets/lv_slider.c **** 
 1418              		.loc 1 187 12 is_stmt 0 view .LVU457
 1419 0238 FFF7FEFF 		bl	lv_indev_get_type
 1420              	.LVL143:
 187:Middlewares/lvgl/src/widgets/lv_slider.c **** 
 1421              		.loc 1 187 11 view .LVU458
 1422 023c 0128     		cmp	r0, #1
 1423 023e 7FF4E8AE 		bne	.L55
 189:Middlewares/lvgl/src/widgets/lv_slider.c ****         lv_indev_get_point(indev, &p);
 1424              		.loc 1 189 9 is_stmt 1 view .LVU459
 190:Middlewares/lvgl/src/widgets/lv_slider.c ****         lv_base_dir_t base_dir = lv_obj_get_style_base_dir(obj, LV_PART_MAIN);
 1425              		.loc 1 190 9 view .LVU460
 1426 0242 05A9     		add	r1, sp, #20
 1427 0244 2046     		mov	r0, r4
 1428 0246 FFF7FEFF 		bl	lv_indev_get_point
 1429              	.LVL144:
 191:Middlewares/lvgl/src/widgets/lv_slider.c **** 
 1430              		.loc 1 191 9 view .LVU461
 1431              	.LBB169:
 1432              	.LBI169:
 187:Middlewares/lvgl/src/widgets/../core/lv_obj_style_gen.h **** {
 1433              		.loc 2 187 29 view .LVU462
 1434              	.LBB170:
 189:Middlewares/lvgl/src/widgets/../core/lv_obj_style_gen.h ****     return (lv_base_dir_t)v.num;
 1435              		.loc 2 189 5 view .LVU463
 189:Middlewares/lvgl/src/widgets/../core/lv_obj_style_gen.h ****     return (lv_base_dir_t)v.num;
 1436              		.loc 2 189 26 is_stmt 0 view .LVU464
 1437 024a 41F26A42 		movw	r2, #5226
 1438 024e 0021     		movs	r1, #0
 1439 0250 2846     		mov	r0, r5
ARM GAS  /tmp/ccj9m3on.s 			page 49


 1440 0252 FFF7FEFF 		bl	lv_obj_get_style_prop
 1441              	.LVL145:
 1442              		.loc 2 190 5 is_stmt 1 view .LVU465
 1443              		.loc 2 190 12 is_stmt 0 view .LVU466
 1444 0256 5FFA80F9 		uxtb	r9, r0
 1445              	.LVL146:
 1446              		.loc 2 190 12 view .LVU467
 1447              	.LBE170:
 1448              	.LBE169:
 193:Middlewares/lvgl/src/widgets/lv_slider.c ****         lv_coord_t h = lv_obj_get_height(obj);
 1449              		.loc 1 193 9 is_stmt 1 view .LVU468
 193:Middlewares/lvgl/src/widgets/lv_slider.c ****         lv_coord_t h = lv_obj_get_height(obj);
 1450              		.loc 1 193 24 is_stmt 0 view .LVU469
 1451 025a 2846     		mov	r0, r5
 1452 025c FFF7FEFF 		bl	lv_obj_get_width
 1453              	.LVL147:
 1454 0260 0646     		mov	r6, r0
 1455              	.LVL148:
 194:Middlewares/lvgl/src/widgets/lv_slider.c **** 
 1456              		.loc 1 194 9 is_stmt 1 view .LVU470
 194:Middlewares/lvgl/src/widgets/lv_slider.c **** 
 1457              		.loc 1 194 24 is_stmt 0 view .LVU471
 1458 0262 2846     		mov	r0, r5
 1459 0264 FFF7FEFF 		bl	lv_obj_get_height
 1460              	.LVL149:
 1461 0268 0446     		mov	r4, r0
 1462              	.LVL150:
 196:Middlewares/lvgl/src/widgets/lv_slider.c ****         lv_coord_t bg_right = lv_obj_get_style_pad_right(obj,  LV_PART_MAIN);
 1463              		.loc 1 196 9 is_stmt 1 view .LVU472
 1464              	.LBB171:
 1465              	.LBI171:
 103:Middlewares/lvgl/src/widgets/../core/lv_obj_style_gen.h **** {
 1466              		.loc 2 103 26 view .LVU473
 1467              	.LBB172:
 105:Middlewares/lvgl/src/widgets/../core/lv_obj_style_gen.h ****     return (lv_coord_t)v.num;
 1468              		.loc 2 105 5 view .LVU474
 105:Middlewares/lvgl/src/widgets/../core/lv_obj_style_gen.h ****     return (lv_coord_t)v.num;
 1469              		.loc 2 105 26 is_stmt 0 view .LVU475
 1470 026a 41F21202 		movw	r2, #4114
 1471 026e 0021     		movs	r1, #0
 1472 0270 2846     		mov	r0, r5
 1473 0272 FFF7FEFF 		bl	lv_obj_get_style_prop
 1474              	.LVL151:
 1475 0276 8046     		mov	r8, r0
 106:Middlewares/lvgl/src/widgets/../core/lv_obj_style_gen.h **** }
 1476              		.loc 2 106 5 is_stmt 1 view .LVU476
 106:Middlewares/lvgl/src/widgets/../core/lv_obj_style_gen.h **** }
 1477              		.loc 2 106 12 is_stmt 0 view .LVU477
 1478 0278 0FFA80FA 		sxth	r10, r0
 1479              	.LVL152:
 106:Middlewares/lvgl/src/widgets/../core/lv_obj_style_gen.h **** }
 1480              		.loc 2 106 12 view .LVU478
 1481              	.LBE172:
 1482              	.LBE171:
 197:Middlewares/lvgl/src/widgets/lv_slider.c ****         lv_coord_t bg_top = lv_obj_get_style_pad_top(obj,    LV_PART_MAIN);
 1483              		.loc 1 197 9 is_stmt 1 view .LVU479
 1484              	.LBB173:
ARM GAS  /tmp/ccj9m3on.s 			page 50


 1485              	.LBI173:
 109:Middlewares/lvgl/src/widgets/../core/lv_obj_style_gen.h **** {
 1486              		.loc 2 109 26 view .LVU480
 1487              	.LBB174:
 111:Middlewares/lvgl/src/widgets/../core/lv_obj_style_gen.h ****     return (lv_coord_t)v.num;
 1488              		.loc 2 111 5 view .LVU481
 111:Middlewares/lvgl/src/widgets/../core/lv_obj_style_gen.h ****     return (lv_coord_t)v.num;
 1489              		.loc 2 111 26 is_stmt 0 view .LVU482
 1490 027c 41F21302 		movw	r2, #4115
 1491 0280 0021     		movs	r1, #0
 1492 0282 2846     		mov	r0, r5
 1493 0284 FFF7FEFF 		bl	lv_obj_get_style_prop
 1494              	.LVL153:
 1495 0288 0746     		mov	r7, r0
 1496              	.LVL154:
 112:Middlewares/lvgl/src/widgets/../core/lv_obj_style_gen.h **** }
 1497              		.loc 2 112 5 is_stmt 1 view .LVU483
 112:Middlewares/lvgl/src/widgets/../core/lv_obj_style_gen.h **** }
 1498              		.loc 2 112 12 is_stmt 0 view .LVU484
 1499 028a 0FFA80FB 		sxth	fp, r0
 1500              	.LVL155:
 112:Middlewares/lvgl/src/widgets/../core/lv_obj_style_gen.h **** }
 1501              		.loc 2 112 12 view .LVU485
 1502              	.LBE174:
 1503              	.LBE173:
 198:Middlewares/lvgl/src/widgets/lv_slider.c ****         lv_coord_t bg_bottom = lv_obj_get_style_pad_bottom(obj, LV_PART_MAIN);
 1504              		.loc 1 198 9 is_stmt 1 view .LVU486
 1505              	.LBB175:
 1506              	.LBI175:
  91:Middlewares/lvgl/src/widgets/../core/lv_obj_style_gen.h **** {
 1507              		.loc 2 91 26 view .LVU487
 1508              	.LBB176:
  93:Middlewares/lvgl/src/widgets/../core/lv_obj_style_gen.h ****     return (lv_coord_t)v.num;
 1509              		.loc 2 93 5 view .LVU488
  93:Middlewares/lvgl/src/widgets/../core/lv_obj_style_gen.h ****     return (lv_coord_t)v.num;
 1510              		.loc 2 93 26 is_stmt 0 view .LVU489
 1511 028e 41F21002 		movw	r2, #4112
 1512 0292 0021     		movs	r1, #0
 1513 0294 2846     		mov	r0, r5
 1514 0296 FFF7FEFF 		bl	lv_obj_get_style_prop
 1515              	.LVL156:
 1516 029a 0190     		str	r0, [sp, #4]
  94:Middlewares/lvgl/src/widgets/../core/lv_obj_style_gen.h **** }
 1517              		.loc 2 94 5 is_stmt 1 view .LVU490
 1518              	.LVL157:
  94:Middlewares/lvgl/src/widgets/../core/lv_obj_style_gen.h **** }
 1519              		.loc 2 94 5 is_stmt 0 view .LVU491
 1520              	.LBE176:
 1521              	.LBE175:
 199:Middlewares/lvgl/src/widgets/lv_slider.c **** 
 1522              		.loc 1 199 9 is_stmt 1 view .LVU492
 1523              	.LBB177:
 1524              	.LBI177:
  97:Middlewares/lvgl/src/widgets/../core/lv_obj_style_gen.h **** {
 1525              		.loc 2 97 26 view .LVU493
 1526              	.LBB178:
  99:Middlewares/lvgl/src/widgets/../core/lv_obj_style_gen.h ****     return (lv_coord_t)v.num;
ARM GAS  /tmp/ccj9m3on.s 			page 51


 1527              		.loc 2 99 5 view .LVU494
  99:Middlewares/lvgl/src/widgets/../core/lv_obj_style_gen.h ****     return (lv_coord_t)v.num;
 1528              		.loc 2 99 26 is_stmt 0 view .LVU495
 1529 029c 41F21102 		movw	r2, #4113
 1530 02a0 0021     		movs	r1, #0
 1531 02a2 2846     		mov	r0, r5
 1532 02a4 FFF7FEFF 		bl	lv_obj_get_style_prop
 1533              	.LVL158:
 100:Middlewares/lvgl/src/widgets/../core/lv_obj_style_gen.h **** }
 1534              		.loc 2 100 5 is_stmt 1 view .LVU496
 100:Middlewares/lvgl/src/widgets/../core/lv_obj_style_gen.h **** }
 1535              		.loc 2 100 12 is_stmt 0 view .LVU497
 1536 02a8 03B2     		sxth	r3, r0
 1537              	.LVL159:
 100:Middlewares/lvgl/src/widgets/../core/lv_obj_style_gen.h **** }
 1538              		.loc 2 100 12 view .LVU498
 1539              	.LBE178:
 1540              	.LBE177:
 201:Middlewares/lvgl/src/widgets/lv_slider.c ****         int32_t new_value = 0;
 1541              		.loc 1 201 9 is_stmt 1 view .LVU499
 201:Middlewares/lvgl/src/widgets/lv_slider.c ****         int32_t new_value = 0;
 1542              		.loc 1 201 36 is_stmt 0 view .LVU500
 1543 02aa E96A     		ldr	r1, [r5, #44]
 201:Middlewares/lvgl/src/widgets/lv_slider.c ****         int32_t new_value = 0;
 1544              		.loc 1 201 60 view .LVU501
 1545 02ac AA6A     		ldr	r2, [r5, #40]
 201:Middlewares/lvgl/src/widgets/lv_slider.c ****         int32_t new_value = 0;
 1546              		.loc 1 201 17 view .LVU502
 1547 02ae A1EB020C 		sub	ip, r1, r2
 1548              	.LVL160:
 202:Middlewares/lvgl/src/widgets/lv_slider.c ****         int32_t real_max_value = slider->bar.max_value;
 1549              		.loc 1 202 9 is_stmt 1 view .LVU503
 203:Middlewares/lvgl/src/widgets/lv_slider.c ****         int32_t real_min_value = slider->bar.min_value;
 1550              		.loc 1 203 9 view .LVU504
 204:Middlewares/lvgl/src/widgets/lv_slider.c **** 
 1551              		.loc 1 204 9 view .LVU505
 206:Middlewares/lvgl/src/widgets/lv_slider.c ****             lv_coord_t indic_w = w - bg_left - bg_right;
 1552              		.loc 1 206 9 view .LVU506
 206:Middlewares/lvgl/src/widgets/lv_slider.c ****             lv_coord_t indic_w = w - bg_left - bg_right;
 1553              		.loc 1 206 11 is_stmt 0 view .LVU507
 1554 02b2 A642     		cmp	r6, r4
 1555 02b4 36DB     		blt	.L75
 1556              	.LBB179:
 207:Middlewares/lvgl/src/widgets/lv_slider.c ****             if(base_dir == LV_BASE_DIR_RTL) {
 1557              		.loc 1 207 13 is_stmt 1 view .LVU508
 207:Middlewares/lvgl/src/widgets/lv_slider.c ****             if(base_dir == LV_BASE_DIR_RTL) {
 1558              		.loc 1 207 36 is_stmt 0 view .LVU509
 1559 02b6 A6EB0803 		sub	r3, r6, r8
 1560              	.LVL161:
 207:Middlewares/lvgl/src/widgets/lv_slider.c ****             if(base_dir == LV_BASE_DIR_RTL) {
 1561              		.loc 1 207 36 view .LVU510
 1562 02ba 9BB2     		uxth	r3, r3
 207:Middlewares/lvgl/src/widgets/lv_slider.c ****             if(base_dir == LV_BASE_DIR_RTL) {
 1563              		.loc 1 207 46 view .LVU511
 1564 02bc DB1B     		subs	r3, r3, r7
 207:Middlewares/lvgl/src/widgets/lv_slider.c ****             if(base_dir == LV_BASE_DIR_RTL) {
 1565              		.loc 1 207 24 view .LVU512
ARM GAS  /tmp/ccj9m3on.s 			page 52


 1566 02be 18B2     		sxth	r0, r3
 1567              	.LVL162:
 208:Middlewares/lvgl/src/widgets/lv_slider.c ****                 new_value = (obj->coords.x2 - bg_right) - p.x; /*Make the point relative to the ind
 1568              		.loc 1 208 13 is_stmt 1 view .LVU513
 208:Middlewares/lvgl/src/widgets/lv_slider.c ****                 new_value = (obj->coords.x2 - bg_right) - p.x; /*Make the point relative to the ind
 1569              		.loc 1 208 15 is_stmt 0 view .LVU514
 1570 02c0 B9F1010F 		cmp	r9, #1
 1571 02c4 26D0     		beq	.L117
 212:Middlewares/lvgl/src/widgets/lv_slider.c ****             }
 1572              		.loc 1 212 17 is_stmt 1 view .LVU515
 212:Middlewares/lvgl/src/widgets/lv_slider.c ****             }
 1573              		.loc 1 212 30 is_stmt 0 view .LVU516
 1574 02c6 BDF91430 		ldrsh	r3, [sp, #20]
 212:Middlewares/lvgl/src/widgets/lv_slider.c ****             }
 1575              		.loc 1 212 47 view .LVU517
 1576 02ca B5F91440 		ldrsh	r4, [r5, #20]
 1577              	.LVL163:
 212:Middlewares/lvgl/src/widgets/lv_slider.c ****             }
 1578              		.loc 1 212 51 view .LVU518
 1579 02ce A244     		add	r10, r10, r4
 1580              	.LVL164:
 212:Middlewares/lvgl/src/widgets/lv_slider.c ****             }
 1581              		.loc 1 212 27 view .LVU519
 1582 02d0 A3EB0A03 		sub	r3, r3, r10
 1583              	.LVL165:
 1584              	.L77:
 214:Middlewares/lvgl/src/widgets/lv_slider.c ****             new_value += slider->bar.min_value;
 1585              		.loc 1 214 13 is_stmt 1 view .LVU520
 214:Middlewares/lvgl/src/widgets/lv_slider.c ****             new_value += slider->bar.min_value;
 1586              		.loc 1 214 36 is_stmt 0 view .LVU521
 1587 02d4 0CFB03F3 		mul	r3, ip, r3
 1588              	.LVL166:
 214:Middlewares/lvgl/src/widgets/lv_slider.c ****             new_value += slider->bar.min_value;
 1589              		.loc 1 214 23 view .LVU522
 1590 02d8 93FBF0F3 		sdiv	r3, r3, r0
 1591              	.LVL167:
 215:Middlewares/lvgl/src/widgets/lv_slider.c ****         }
 1592              		.loc 1 215 13 is_stmt 1 view .LVU523
 215:Middlewares/lvgl/src/widgets/lv_slider.c ****         }
 1593              		.loc 1 215 23 is_stmt 0 view .LVU524
 1594 02dc 1344     		add	r3, r3, r2
 1595              	.LVL168:
 1596              	.L78:
 215:Middlewares/lvgl/src/widgets/lv_slider.c ****         }
 1597              		.loc 1 215 23 view .LVU525
 1598              	.LBE179:
 226:Middlewares/lvgl/src/widgets/lv_slider.c ****             real_max_value = slider->bar.cur_value;
 1599              		.loc 1 226 9 is_stmt 1 view .LVU526
 226:Middlewares/lvgl/src/widgets/lv_slider.c ****             real_max_value = slider->bar.cur_value;
 1600              		.loc 1 226 18 is_stmt 0 view .LVU527
 1601 02de 286F     		ldr	r0, [r5, #112]
 226:Middlewares/lvgl/src/widgets/lv_slider.c ****             real_max_value = slider->bar.cur_value;
 1602              		.loc 1 226 36 view .LVU528
 1603 02e0 05F13004 		add	r4, r5, #48
 226:Middlewares/lvgl/src/widgets/lv_slider.c ****             real_max_value = slider->bar.cur_value;
 1604              		.loc 1 226 11 view .LVU529
 1605 02e4 A042     		cmp	r0, r4
ARM GAS  /tmp/ccj9m3on.s 			page 53


 1606 02e6 2ED0     		beq	.L118
 230:Middlewares/lvgl/src/widgets/lv_slider.c ****         }
 1607              		.loc 1 230 13 is_stmt 1 view .LVU530
 230:Middlewares/lvgl/src/widgets/lv_slider.c ****         }
 1608              		.loc 1 230 28 is_stmt 0 view .LVU531
 1609 02e8 2A6B     		ldr	r2, [r5, #48]
 1610              	.LVL169:
 1611              	.L80:
 233:Middlewares/lvgl/src/widgets/lv_slider.c ****         else if(new_value > real_max_value) new_value = real_max_value;
 1612              		.loc 1 233 9 is_stmt 1 view .LVU532
 233:Middlewares/lvgl/src/widgets/lv_slider.c ****         else if(new_value > real_max_value) new_value = real_max_value;
 1613              		.loc 1 233 11 is_stmt 0 view .LVU533
 1614 02ea 9342     		cmp	r3, r2
 1615 02ec 02DB     		blt	.L81
 234:Middlewares/lvgl/src/widgets/lv_slider.c ****         if(*slider->value_to_set != new_value) {
 1616              		.loc 1 234 14 is_stmt 1 view .LVU534
 234:Middlewares/lvgl/src/widgets/lv_slider.c ****         if(*slider->value_to_set != new_value) {
 1617              		.loc 1 234 16 is_stmt 0 view .LVU535
 1618 02ee 8B42     		cmp	r3, r1
 1619 02f0 2BDC     		bgt	.L103
 1620 02f2 1A46     		mov	r2, r3
 1621              	.LVL170:
 1622              	.L81:
 235:Middlewares/lvgl/src/widgets/lv_slider.c ****             *slider->value_to_set = new_value;
 1623              		.loc 1 235 9 is_stmt 1 view .LVU536
 235:Middlewares/lvgl/src/widgets/lv_slider.c ****             *slider->value_to_set = new_value;
 1624              		.loc 1 235 12 is_stmt 0 view .LVU537
 1625 02f4 0368     		ldr	r3, [r0]
 235:Middlewares/lvgl/src/widgets/lv_slider.c ****             *slider->value_to_set = new_value;
 1626              		.loc 1 235 11 view .LVU538
 1627 02f6 9342     		cmp	r3, r2
 1628 02f8 3FF48BAE 		beq	.L55
 236:Middlewares/lvgl/src/widgets/lv_slider.c ****             lv_obj_invalidate(obj);
 1629              		.loc 1 236 13 is_stmt 1 view .LVU539
 236:Middlewares/lvgl/src/widgets/lv_slider.c ****             lv_obj_invalidate(obj);
 1630              		.loc 1 236 35 is_stmt 0 view .LVU540
 1631 02fc 0260     		str	r2, [r0]
 237:Middlewares/lvgl/src/widgets/lv_slider.c ****             res = lv_event_send(obj, LV_EVENT_VALUE_CHANGED, NULL);
 1632              		.loc 1 237 13 is_stmt 1 view .LVU541
 1633 02fe 2846     		mov	r0, r5
 1634 0300 FFF7FEFF 		bl	lv_obj_invalidate
 1635              	.LVL171:
 238:Middlewares/lvgl/src/widgets/lv_slider.c ****             if(res != LV_RES_OK) return;
 1636              		.loc 1 238 13 view .LVU542
 238:Middlewares/lvgl/src/widgets/lv_slider.c ****             if(res != LV_RES_OK) return;
 1637              		.loc 1 238 19 is_stmt 0 view .LVU543
 1638 0304 0022     		movs	r2, #0
 1639 0306 1C21     		movs	r1, #28
 1640 0308 2846     		mov	r0, r5
 1641 030a FFF7FEFF 		bl	lv_event_send
 1642              	.LVL172:
 239:Middlewares/lvgl/src/widgets/lv_slider.c ****         }
 1643              		.loc 1 239 13 is_stmt 1 view .LVU544
 1644 030e 80E6     		b	.L55
 1645              	.L120:
 1646              		.align	2
 1647              	.L119:
ARM GAS  /tmp/ccj9m3on.s 			page 54


 1648 0310 00000000 		.word	.LANCHOR0
 1649              	.LVL173:
 1650              	.L117:
 1651              	.LBB180:
 209:Middlewares/lvgl/src/widgets/lv_slider.c ****             }
 1652              		.loc 1 209 17 view .LVU545
 209:Middlewares/lvgl/src/widgets/lv_slider.c ****             }
 1653              		.loc 1 209 41 is_stmt 0 view .LVU546
 1654 0314 B5F91830 		ldrsh	r3, [r5, #24]
 209:Middlewares/lvgl/src/widgets/lv_slider.c ****             }
 1655              		.loc 1 209 45 view .LVU547
 1656 0318 A3EB0B03 		sub	r3, r3, fp
 209:Middlewares/lvgl/src/widgets/lv_slider.c ****             }
 1657              		.loc 1 209 60 view .LVU548
 1658 031c BDF91440 		ldrsh	r4, [sp, #20]
 1659              	.LVL174:
 209:Middlewares/lvgl/src/widgets/lv_slider.c ****             }
 1660              		.loc 1 209 27 view .LVU549
 1661 0320 1B1B     		subs	r3, r3, r4
 1662              	.LVL175:
 209:Middlewares/lvgl/src/widgets/lv_slider.c ****             }
 1663              		.loc 1 209 27 view .LVU550
 1664 0322 D7E7     		b	.L77
 1665              	.LVL176:
 1666              	.L75:
 209:Middlewares/lvgl/src/widgets/lv_slider.c ****             }
 1667              		.loc 1 209 27 view .LVU551
 1668              	.LBE180:
 1669              	.LBB181:
 218:Middlewares/lvgl/src/widgets/lv_slider.c ****             new_value = p.y - (obj->coords.y2 + bg_bottom); /*Make the point relative to the indica
 1670              		.loc 1 218 13 is_stmt 1 view .LVU552
 218:Middlewares/lvgl/src/widgets/lv_slider.c ****             new_value = p.y - (obj->coords.y2 + bg_bottom); /*Make the point relative to the indica
 1671              		.loc 1 218 36 is_stmt 0 view .LVU553
 1672 0324 201A     		subs	r0, r4, r0
 1673 0326 80B2     		uxth	r0, r0
 218:Middlewares/lvgl/src/widgets/lv_slider.c ****             new_value = p.y - (obj->coords.y2 + bg_bottom); /*Make the point relative to the indica
 1674              		.loc 1 218 48 view .LVU554
 1675 0328 019C     		ldr	r4, [sp, #4]
 1676              	.LVL177:
 218:Middlewares/lvgl/src/widgets/lv_slider.c ****             new_value = p.y - (obj->coords.y2 + bg_bottom); /*Make the point relative to the indica
 1677              		.loc 1 218 48 view .LVU555
 1678 032a 001B     		subs	r0, r0, r4
 218:Middlewares/lvgl/src/widgets/lv_slider.c ****             new_value = p.y - (obj->coords.y2 + bg_bottom); /*Make the point relative to the indica
 1679              		.loc 1 218 24 view .LVU556
 1680 032c 00B2     		sxth	r0, r0
 1681              	.LVL178:
 219:Middlewares/lvgl/src/widgets/lv_slider.c ****             new_value = (-new_value * range) / indic_h;
 1682              		.loc 1 219 13 is_stmt 1 view .LVU557
 219:Middlewares/lvgl/src/widgets/lv_slider.c ****             new_value = (-new_value * range) / indic_h;
 1683              		.loc 1 219 26 is_stmt 0 view .LVU558
 1684 032e BDF91640 		ldrsh	r4, [sp, #22]
 219:Middlewares/lvgl/src/widgets/lv_slider.c ****             new_value = (-new_value * range) / indic_h;
 1685              		.loc 1 219 43 view .LVU559
 1686 0332 B5F91A60 		ldrsh	r6, [r5, #26]
 1687              	.LVL179:
 219:Middlewares/lvgl/src/widgets/lv_slider.c ****             new_value = (-new_value * range) / indic_h;
 1688              		.loc 1 219 47 view .LVU560
ARM GAS  /tmp/ccj9m3on.s 			page 55


 1689 0336 3344     		add	r3, r3, r6
 1690              	.LVL180:
 220:Middlewares/lvgl/src/widgets/lv_slider.c ****             new_value += slider->bar.min_value;
 1691              		.loc 1 220 13 is_stmt 1 view .LVU561
 220:Middlewares/lvgl/src/widgets/lv_slider.c ****             new_value += slider->bar.min_value;
 1692              		.loc 1 220 26 is_stmt 0 view .LVU562
 1693 0338 1B1B     		subs	r3, r3, r4
 1694              	.LVL181:
 220:Middlewares/lvgl/src/widgets/lv_slider.c ****             new_value += slider->bar.min_value;
 1695              		.loc 1 220 37 view .LVU563
 1696 033a 0CFB03F3 		mul	r3, ip, r3
 220:Middlewares/lvgl/src/widgets/lv_slider.c ****             new_value += slider->bar.min_value;
 1697              		.loc 1 220 23 view .LVU564
 1698 033e 93FBF0F3 		sdiv	r3, r3, r0
 1699              	.LVL182:
 221:Middlewares/lvgl/src/widgets/lv_slider.c **** 
 1700              		.loc 1 221 13 is_stmt 1 view .LVU565
 221:Middlewares/lvgl/src/widgets/lv_slider.c **** 
 1701              		.loc 1 221 23 is_stmt 0 view .LVU566
 1702 0342 1344     		add	r3, r3, r2
 1703              	.LVL183:
 221:Middlewares/lvgl/src/widgets/lv_slider.c **** 
 1704              		.loc 1 221 23 view .LVU567
 1705 0344 CBE7     		b	.L78
 1706              	.LVL184:
 1707              	.L118:
 221:Middlewares/lvgl/src/widgets/lv_slider.c **** 
 1708              		.loc 1 221 23 view .LVU568
 1709              	.LBE181:
 227:Middlewares/lvgl/src/widgets/lv_slider.c ****         }
 1710              		.loc 1 227 13 is_stmt 1 view .LVU569
 227:Middlewares/lvgl/src/widgets/lv_slider.c ****         }
 1711              		.loc 1 227 28 is_stmt 0 view .LVU570
 1712 0346 696A     		ldr	r1, [r5, #36]
 1713              	.LVL185:
 227:Middlewares/lvgl/src/widgets/lv_slider.c ****         }
 1714              		.loc 1 227 28 view .LVU571
 1715 0348 CFE7     		b	.L80
 1716              	.L103:
 234:Middlewares/lvgl/src/widgets/lv_slider.c ****         if(*slider->value_to_set != new_value) {
 1717              		.loc 1 234 55 view .LVU572
 1718 034a 0A46     		mov	r2, r1
 1719              	.LVL186:
 234:Middlewares/lvgl/src/widgets/lv_slider.c ****         if(*slider->value_to_set != new_value) {
 1720              		.loc 1 234 55 view .LVU573
 1721 034c D2E7     		b	.L81
 1722              	.LVL187:
 1723              	.L83:
 234:Middlewares/lvgl/src/widgets/lv_slider.c ****         if(*slider->value_to_set != new_value) {
 1724              		.loc 1 234 55 view .LVU574
 1725              	.LBE168:
 1726              	.LBB182:
 244:Middlewares/lvgl/src/widgets/lv_slider.c ****         slider->value_to_set = NULL;
 1727              		.loc 1 244 9 is_stmt 1 view .LVU575
 244:Middlewares/lvgl/src/widgets/lv_slider.c ****         slider->value_to_set = NULL;
 1728              		.loc 1 244 26 is_stmt 0 view .LVU576
 1729 034e 95F87430 		ldrb	r3, [r5, #116]	@ zero_extendqisi2
ARM GAS  /tmp/ccj9m3on.s 			page 56


 1730 0352 6FF30003 		bfc	r3, #0, #1
 1731 0356 85F87430 		strb	r3, [r5, #116]
 245:Middlewares/lvgl/src/widgets/lv_slider.c **** 
 1732              		.loc 1 245 9 is_stmt 1 view .LVU577
 245:Middlewares/lvgl/src/widgets/lv_slider.c **** 
 1733              		.loc 1 245 30 is_stmt 0 view .LVU578
 1734 035a 0023     		movs	r3, #0
 1735 035c 2B67     		str	r3, [r5, #112]
 247:Middlewares/lvgl/src/widgets/lv_slider.c **** 
 1736              		.loc 1 247 9 is_stmt 1 view .LVU579
 1737 035e 2846     		mov	r0, r5
 1738 0360 FFF7FEFF 		bl	lv_obj_invalidate
 1739              	.LVL188:
 250:Middlewares/lvgl/src/widgets/lv_slider.c ****         bool editing     = lv_group_get_editing(g);
 1740              		.loc 1 250 9 view .LVU580
 250:Middlewares/lvgl/src/widgets/lv_slider.c ****         bool editing     = lv_group_get_editing(g);
 1741              		.loc 1 250 28 is_stmt 0 view .LVU581
 1742 0364 2846     		mov	r0, r5
 1743 0366 FFF7FEFF 		bl	lv_obj_get_group
 1744              	.LVL189:
 1745 036a 0646     		mov	r6, r0
 1746              	.LVL190:
 251:Middlewares/lvgl/src/widgets/lv_slider.c ****         lv_indev_type_t indev_type = lv_indev_get_type(lv_indev_get_act());
 1747              		.loc 1 251 9 is_stmt 1 view .LVU582
 251:Middlewares/lvgl/src/widgets/lv_slider.c ****         lv_indev_type_t indev_type = lv_indev_get_type(lv_indev_get_act());
 1748              		.loc 1 251 28 is_stmt 0 view .LVU583
 1749 036c FFF7FEFF 		bl	lv_group_get_editing
 1750              	.LVL191:
 251:Middlewares/lvgl/src/widgets/lv_slider.c ****         lv_indev_type_t indev_type = lv_indev_get_type(lv_indev_get_act());
 1751              		.loc 1 251 28 view .LVU584
 1752 0370 0446     		mov	r4, r0
 1753              	.LVL192:
 252:Middlewares/lvgl/src/widgets/lv_slider.c ****         if(indev_type == LV_INDEV_TYPE_ENCODER) {
 1754              		.loc 1 252 9 is_stmt 1 view .LVU585
 252:Middlewares/lvgl/src/widgets/lv_slider.c ****         if(indev_type == LV_INDEV_TYPE_ENCODER) {
 1755              		.loc 1 252 56 is_stmt 0 view .LVU586
 1756 0372 FFF7FEFF 		bl	lv_indev_get_act
 1757              	.LVL193:
 252:Middlewares/lvgl/src/widgets/lv_slider.c ****         if(indev_type == LV_INDEV_TYPE_ENCODER) {
 1758              		.loc 1 252 38 view .LVU587
 1759 0376 FFF7FEFF 		bl	lv_indev_get_type
 1760              	.LVL194:
 253:Middlewares/lvgl/src/widgets/lv_slider.c ****             if(editing) {
 1761              		.loc 1 253 9 is_stmt 1 view .LVU588
 253:Middlewares/lvgl/src/widgets/lv_slider.c ****             if(editing) {
 1762              		.loc 1 253 11 is_stmt 0 view .LVU589
 1763 037a 0428     		cmp	r0, #4
 1764 037c 7FF449AE 		bne	.L55
 254:Middlewares/lvgl/src/widgets/lv_slider.c ****                 if(lv_slider_get_mode(obj) == LV_SLIDER_MODE_RANGE) {
 1765              		.loc 1 254 13 is_stmt 1 view .LVU590
 254:Middlewares/lvgl/src/widgets/lv_slider.c ****                 if(lv_slider_get_mode(obj) == LV_SLIDER_MODE_RANGE) {
 1766              		.loc 1 254 15 is_stmt 0 view .LVU591
 1767 0380 002C     		cmp	r4, #0
 1768 0382 3FF446AE 		beq	.L55
 255:Middlewares/lvgl/src/widgets/lv_slider.c ****                     if(slider->left_knob_focus == 0) slider->left_knob_focus = 1;
 1769              		.loc 1 255 17 is_stmt 1 view .LVU592
 1770              	.LVL195:
ARM GAS  /tmp/ccj9m3on.s 			page 57


 1771              	.LBB183:
 1772              	.LBI183:
 168:Middlewares/lvgl/src/widgets/lv_slider.h **** {
 1773              		.loc 4 168 32 view .LVU593
 1774              	.LBB184:
 170:Middlewares/lvgl/src/widgets/lv_slider.h ****     if(mode == LV_BAR_MODE_SYMMETRICAL) return LV_SLIDER_MODE_SYMMETRICAL;
 1775              		.loc 4 170 5 view .LVU594
 170:Middlewares/lvgl/src/widgets/lv_slider.h ****     if(mode == LV_BAR_MODE_SYMMETRICAL) return LV_SLIDER_MODE_SYMMETRICAL;
 1776              		.loc 4 170 26 is_stmt 0 view .LVU595
 1777 0386 2846     		mov	r0, r5
 1778              	.LVL196:
 170:Middlewares/lvgl/src/widgets/lv_slider.h ****     if(mode == LV_BAR_MODE_SYMMETRICAL) return LV_SLIDER_MODE_SYMMETRICAL;
 1779              		.loc 4 170 26 view .LVU596
 1780 0388 FFF7FEFF 		bl	lv_bar_get_mode
 1781              	.LVL197:
 171:Middlewares/lvgl/src/widgets/lv_slider.h ****     else if(mode == LV_BAR_MODE_RANGE) return LV_SLIDER_MODE_RANGE;
 1782              		.loc 4 171 5 is_stmt 1 view .LVU597
 171:Middlewares/lvgl/src/widgets/lv_slider.h ****     else if(mode == LV_BAR_MODE_RANGE) return LV_SLIDER_MODE_RANGE;
 1783              		.loc 4 171 7 is_stmt 0 view .LVU598
 1784 038c 0128     		cmp	r0, #1
 1785 038e 02D0     		beq	.L85
 172:Middlewares/lvgl/src/widgets/lv_slider.h ****     else return LV_SLIDER_MODE_NORMAL;
 1786              		.loc 4 172 10 is_stmt 1 view .LVU599
 172:Middlewares/lvgl/src/widgets/lv_slider.h ****     else return LV_SLIDER_MODE_NORMAL;
 1787              		.loc 4 172 12 is_stmt 0 view .LVU600
 1788 0390 0228     		cmp	r0, #2
 1789 0392 00D0     		beq	.L85
 1790              		.loc 4 173 17 view .LVU601
 1791 0394 0020     		movs	r0, #0
 1792              	.LVL198:
 1793              	.L85:
 1794              		.loc 4 173 17 view .LVU602
 1795              	.LBE184:
 1796              	.LBE183:
 255:Middlewares/lvgl/src/widgets/lv_slider.c ****                     if(slider->left_knob_focus == 0) slider->left_knob_focus = 1;
 1797              		.loc 1 255 19 view .LVU603
 1798 0396 0228     		cmp	r0, #2
 1799 0398 14D1     		bne	.L86
 256:Middlewares/lvgl/src/widgets/lv_slider.c ****                     else {
 1800              		.loc 1 256 21 is_stmt 1 view .LVU604
 256:Middlewares/lvgl/src/widgets/lv_slider.c ****                     else {
 1801              		.loc 1 256 48 is_stmt 0 view .LVU605
 1802 039a 95F87430 		ldrb	r3, [r5, #116]	@ zero_extendqisi2
 256:Middlewares/lvgl/src/widgets/lv_slider.c ****                     else {
 1803              		.loc 1 256 23 view .LVU606
 1804 039e 13F0020F 		tst	r3, #2
 1805 03a2 04D1     		bne	.L87
 256:Middlewares/lvgl/src/widgets/lv_slider.c ****                     else {
 1806              		.loc 1 256 54 is_stmt 1 discriminator 1 view .LVU607
 256:Middlewares/lvgl/src/widgets/lv_slider.c ****                     else {
 1807              		.loc 1 256 78 is_stmt 0 discriminator 1 view .LVU608
 1808 03a4 43F00203 		orr	r3, r3, #2
 1809 03a8 85F87430 		strb	r3, [r5, #116]
 1810 03ac 31E6     		b	.L55
 1811              	.L87:
 258:Middlewares/lvgl/src/widgets/lv_slider.c ****                         lv_group_set_editing(g, false);
 1812              		.loc 1 258 25 is_stmt 1 view .LVU609
ARM GAS  /tmp/ccj9m3on.s 			page 58


 258:Middlewares/lvgl/src/widgets/lv_slider.c ****                         lv_group_set_editing(g, false);
 1813              		.loc 1 258 49 is_stmt 0 view .LVU610
 1814 03ae 95F87430 		ldrb	r3, [r5, #116]	@ zero_extendqisi2
 1815 03b2 6FF34103 		bfc	r3, #1, #1
 1816 03b6 85F87430 		strb	r3, [r5, #116]
 259:Middlewares/lvgl/src/widgets/lv_slider.c ****                     }
 1817              		.loc 1 259 25 is_stmt 1 view .LVU611
 1818 03ba 0021     		movs	r1, #0
 1819 03bc 3046     		mov	r0, r6
 1820 03be FFF7FEFF 		bl	lv_group_set_editing
 1821              	.LVL199:
 1822 03c2 26E6     		b	.L55
 1823              	.L86:
 263:Middlewares/lvgl/src/widgets/lv_slider.c ****                 }
 1824              		.loc 1 263 21 view .LVU612
 1825 03c4 0021     		movs	r1, #0
 1826 03c6 3046     		mov	r0, r6
 1827 03c8 FFF7FEFF 		bl	lv_group_set_editing
 1828              	.LVL200:
 1829 03cc 21E6     		b	.L55
 1830              	.LVL201:
 1831              	.L110:
 263:Middlewares/lvgl/src/widgets/lv_slider.c ****                 }
 1832              		.loc 1 263 21 is_stmt 0 view .LVU613
 1833              	.LBE182:
 1834              	.LBB185:
 270:Middlewares/lvgl/src/widgets/lv_slider.c ****         if(indev_type == LV_INDEV_TYPE_ENCODER || indev_type == LV_INDEV_TYPE_KEYPAD) {
 1835              		.loc 1 270 9 is_stmt 1 view .LVU614
 270:Middlewares/lvgl/src/widgets/lv_slider.c ****         if(indev_type == LV_INDEV_TYPE_ENCODER || indev_type == LV_INDEV_TYPE_KEYPAD) {
 1836              		.loc 1 270 56 is_stmt 0 view .LVU615
 1837 03ce FFF7FEFF 		bl	lv_indev_get_act
 1838              	.LVL202:
 270:Middlewares/lvgl/src/widgets/lv_slider.c ****         if(indev_type == LV_INDEV_TYPE_ENCODER || indev_type == LV_INDEV_TYPE_KEYPAD) {
 1839              		.loc 1 270 38 view .LVU616
 1840 03d2 FFF7FEFF 		bl	lv_indev_get_type
 1841              	.LVL203:
 271:Middlewares/lvgl/src/widgets/lv_slider.c ****             slider->left_knob_focus = 0;
 1842              		.loc 1 271 9 is_stmt 1 view .LVU617
 271:Middlewares/lvgl/src/widgets/lv_slider.c ****             slider->left_knob_focus = 0;
 1843              		.loc 1 271 11 is_stmt 0 view .LVU618
 1844 03d6 0428     		cmp	r0, #4
 1845 03d8 02D0     		beq	.L89
 271:Middlewares/lvgl/src/widgets/lv_slider.c ****             slider->left_knob_focus = 0;
 1846              		.loc 1 271 48 discriminator 1 view .LVU619
 1847 03da 0228     		cmp	r0, #2
 1848 03dc 7FF419AE 		bne	.L55
 1849              	.L89:
 272:Middlewares/lvgl/src/widgets/lv_slider.c ****         }
 1850              		.loc 1 272 13 is_stmt 1 view .LVU620
 272:Middlewares/lvgl/src/widgets/lv_slider.c ****         }
 1851              		.loc 1 272 37 is_stmt 0 view .LVU621
 1852 03e0 95F87430 		ldrb	r3, [r5, #116]	@ zero_extendqisi2
 1853 03e4 6FF34103 		bfc	r3, #1, #1
 1854 03e8 85F87430 		strb	r3, [r5, #116]
 1855 03ec 11E6     		b	.L55
 1856              	.LVL204:
 1857              	.L111:
ARM GAS  /tmp/ccj9m3on.s 			page 59


 272:Middlewares/lvgl/src/widgets/lv_slider.c ****         }
 1858              		.loc 1 272 37 view .LVU622
 1859              	.LBE185:
 276:Middlewares/lvgl/src/widgets/lv_slider.c ****     }
 1860              		.loc 1 276 9 is_stmt 1 view .LVU623
 1861 03ee 2846     		mov	r0, r5
 1862 03f0 FFF7FEFF 		bl	lv_obj_refresh_ext_draw_size
 1863              	.LVL205:
 1864 03f4 0DE6     		b	.L55
 1865              	.L112:
 1866              	.LBB186:
 279:Middlewares/lvgl/src/widgets/lv_slider.c ****         lv_coord_t knob_right = lv_obj_get_style_pad_right(obj,LV_PART_KNOB);
 1867              		.loc 1 279 9 view .LVU624
 1868              	.LVL206:
 1869              	.LBB187:
 1870              	.LBI187:
 103:Middlewares/lvgl/src/widgets/../core/lv_obj_style_gen.h **** {
 1871              		.loc 2 103 26 view .LVU625
 1872              	.LBB188:
 105:Middlewares/lvgl/src/widgets/../core/lv_obj_style_gen.h ****     return (lv_coord_t)v.num;
 1873              		.loc 2 105 5 view .LVU626
 105:Middlewares/lvgl/src/widgets/../core/lv_obj_style_gen.h ****     return (lv_coord_t)v.num;
 1874              		.loc 2 105 26 is_stmt 0 view .LVU627
 1875 03f6 41F21202 		movw	r2, #4114
 1876 03fa 4FF44031 		mov	r1, #196608
 1877 03fe 2846     		mov	r0, r5
 1878 0400 FFF7FEFF 		bl	lv_obj_get_style_prop
 1879              	.LVL207:
 106:Middlewares/lvgl/src/widgets/../core/lv_obj_style_gen.h **** }
 1880              		.loc 2 106 5 is_stmt 1 view .LVU628
 106:Middlewares/lvgl/src/widgets/../core/lv_obj_style_gen.h **** }
 1881              		.loc 2 106 12 is_stmt 0 view .LVU629
 1882 0404 03B2     		sxth	r3, r0
 1883 0406 0193     		str	r3, [sp, #4]
 1884              	.LVL208:
 106:Middlewares/lvgl/src/widgets/../core/lv_obj_style_gen.h **** }
 1885              		.loc 2 106 12 view .LVU630
 1886              	.LBE188:
 1887              	.LBE187:
 280:Middlewares/lvgl/src/widgets/lv_slider.c ****         lv_coord_t knob_top = lv_obj_get_style_pad_top(obj, LV_PART_KNOB);
 1888              		.loc 1 280 9 is_stmt 1 view .LVU631
 1889              	.LBB189:
 1890              	.LBI189:
 109:Middlewares/lvgl/src/widgets/../core/lv_obj_style_gen.h **** {
 1891              		.loc 2 109 26 view .LVU632
 1892              	.LBB190:
 111:Middlewares/lvgl/src/widgets/../core/lv_obj_style_gen.h ****     return (lv_coord_t)v.num;
 1893              		.loc 2 111 5 view .LVU633
 111:Middlewares/lvgl/src/widgets/../core/lv_obj_style_gen.h ****     return (lv_coord_t)v.num;
 1894              		.loc 2 111 26 is_stmt 0 view .LVU634
 1895 0408 41F21302 		movw	r2, #4115
 1896 040c 4FF44031 		mov	r1, #196608
 1897 0410 2846     		mov	r0, r5
 1898 0412 FFF7FEFF 		bl	lv_obj_get_style_prop
 1899              	.LVL209:
 112:Middlewares/lvgl/src/widgets/../core/lv_obj_style_gen.h **** }
 1900              		.loc 2 112 5 is_stmt 1 view .LVU635
ARM GAS  /tmp/ccj9m3on.s 			page 60


 112:Middlewares/lvgl/src/widgets/../core/lv_obj_style_gen.h **** }
 1901              		.loc 2 112 12 is_stmt 0 view .LVU636
 1902 0416 07B2     		sxth	r7, r0
 1903              	.LVL210:
 112:Middlewares/lvgl/src/widgets/../core/lv_obj_style_gen.h **** }
 1904              		.loc 2 112 12 view .LVU637
 1905              	.LBE190:
 1906              	.LBE189:
 281:Middlewares/lvgl/src/widgets/lv_slider.c ****         lv_coord_t knob_bottom = lv_obj_get_style_pad_bottom(obj, LV_PART_KNOB);
 1907              		.loc 1 281 9 is_stmt 1 view .LVU638
 1908              	.LBB191:
 1909              	.LBI191:
  91:Middlewares/lvgl/src/widgets/../core/lv_obj_style_gen.h **** {
 1910              		.loc 2 91 26 view .LVU639
 1911              	.LBB192:
  93:Middlewares/lvgl/src/widgets/../core/lv_obj_style_gen.h ****     return (lv_coord_t)v.num;
 1912              		.loc 2 93 5 view .LVU640
  93:Middlewares/lvgl/src/widgets/../core/lv_obj_style_gen.h ****     return (lv_coord_t)v.num;
 1913              		.loc 2 93 26 is_stmt 0 view .LVU641
 1914 0418 41F21002 		movw	r2, #4112
 1915 041c 4FF44031 		mov	r1, #196608
 1916 0420 2846     		mov	r0, r5
 1917 0422 FFF7FEFF 		bl	lv_obj_get_style_prop
 1918              	.LVL211:
  94:Middlewares/lvgl/src/widgets/../core/lv_obj_style_gen.h **** }
 1919              		.loc 2 94 5 is_stmt 1 view .LVU642
  94:Middlewares/lvgl/src/widgets/../core/lv_obj_style_gen.h **** }
 1920              		.loc 2 94 12 is_stmt 0 view .LVU643
 1921 0426 0FFA80FA 		sxth	r10, r0
 1922              	.LVL212:
  94:Middlewares/lvgl/src/widgets/../core/lv_obj_style_gen.h **** }
 1923              		.loc 2 94 12 view .LVU644
 1924              	.LBE192:
 1925              	.LBE191:
 282:Middlewares/lvgl/src/widgets/lv_slider.c **** 
 1926              		.loc 1 282 9 is_stmt 1 view .LVU645
 1927              	.LBB193:
 1928              	.LBI193:
  97:Middlewares/lvgl/src/widgets/../core/lv_obj_style_gen.h **** {
 1929              		.loc 2 97 26 view .LVU646
 1930              	.LBB194:
  99:Middlewares/lvgl/src/widgets/../core/lv_obj_style_gen.h ****     return (lv_coord_t)v.num;
 1931              		.loc 2 99 5 view .LVU647
  99:Middlewares/lvgl/src/widgets/../core/lv_obj_style_gen.h ****     return (lv_coord_t)v.num;
 1932              		.loc 2 99 26 is_stmt 0 view .LVU648
 1933 042a 41F21102 		movw	r2, #4113
 1934 042e 4FF44031 		mov	r1, #196608
 1935 0432 2846     		mov	r0, r5
 1936 0434 FFF7FEFF 		bl	lv_obj_get_style_prop
 1937              	.LVL213:
 100:Middlewares/lvgl/src/widgets/../core/lv_obj_style_gen.h **** }
 1938              		.loc 2 100 5 is_stmt 1 view .LVU649
 100:Middlewares/lvgl/src/widgets/../core/lv_obj_style_gen.h **** }
 1939              		.loc 2 100 12 is_stmt 0 view .LVU650
 1940 0438 06B2     		sxth	r6, r0
 1941              	.LVL214:
 100:Middlewares/lvgl/src/widgets/../core/lv_obj_style_gen.h **** }
ARM GAS  /tmp/ccj9m3on.s 			page 61


 1942              		.loc 2 100 12 view .LVU651
 1943              	.LBE194:
 1944              	.LBE193:
 285:Middlewares/lvgl/src/widgets/lv_slider.c ****         lv_coord_t trans_w = lv_obj_get_style_transform_width(obj, LV_PART_KNOB);
 1945              		.loc 1 285 9 is_stmt 1 view .LVU652
 1946              	.LBB195:
 1947              	.LBI195:
  79:Middlewares/lvgl/src/widgets/../core/lv_obj_style_gen.h **** {
 1948              		.loc 2 79 26 view .LVU653
 1949              	.LBB196:
  81:Middlewares/lvgl/src/widgets/../core/lv_obj_style_gen.h ****     return (lv_coord_t)v.num;
 1950              		.loc 2 81 5 view .LVU654
  81:Middlewares/lvgl/src/widgets/../core/lv_obj_style_gen.h ****     return (lv_coord_t)v.num;
 1951              		.loc 2 81 26 is_stmt 0 view .LVU655
 1952 043a 40F60E02 		movw	r2, #2062
 1953 043e 4FF44031 		mov	r1, #196608
 1954 0442 2846     		mov	r0, r5
 1955 0444 FFF7FEFF 		bl	lv_obj_get_style_prop
 1956              	.LVL215:
  82:Middlewares/lvgl/src/widgets/../core/lv_obj_style_gen.h **** }
 1957              		.loc 2 82 5 is_stmt 1 view .LVU656
  82:Middlewares/lvgl/src/widgets/../core/lv_obj_style_gen.h **** }
 1958              		.loc 2 82 12 is_stmt 0 view .LVU657
 1959 0448 0FFA80FB 		sxth	fp, r0
 1960              	.LVL216:
  82:Middlewares/lvgl/src/widgets/../core/lv_obj_style_gen.h **** }
 1961              		.loc 2 82 12 view .LVU658
 1962              	.LBE196:
 1963              	.LBE195:
 286:Middlewares/lvgl/src/widgets/lv_slider.c ****         lv_coord_t trans_h = lv_obj_get_style_transform_height(obj, LV_PART_KNOB);
 1964              		.loc 1 286 9 is_stmt 1 view .LVU659
 1965              	.LBB197:
 1966              	.LBI197:
  55:Middlewares/lvgl/src/widgets/../core/lv_obj_style_gen.h **** {
 1967              		.loc 2 55 26 view .LVU660
 1968              	.LBB198:
  57:Middlewares/lvgl/src/widgets/../core/lv_obj_style_gen.h ****     return (lv_coord_t)v.num;
 1969              		.loc 2 57 5 view .LVU661
  57:Middlewares/lvgl/src/widgets/../core/lv_obj_style_gen.h ****     return (lv_coord_t)v.num;
 1970              		.loc 2 57 26 is_stmt 0 view .LVU662
 1971 044c 40F60A02 		movw	r2, #2058
 1972 0450 4FF44031 		mov	r1, #196608
 1973 0454 2846     		mov	r0, r5
 1974 0456 FFF7FEFF 		bl	lv_obj_get_style_prop
 1975              	.LVL217:
  58:Middlewares/lvgl/src/widgets/../core/lv_obj_style_gen.h **** }
 1976              		.loc 2 58 5 is_stmt 1 view .LVU663
  58:Middlewares/lvgl/src/widgets/../core/lv_obj_style_gen.h **** }
 1977              		.loc 2 58 12 is_stmt 0 view .LVU664
 1978 045a 0FFA80F9 		sxth	r9, r0
 1979              	.LVL218:
  58:Middlewares/lvgl/src/widgets/../core/lv_obj_style_gen.h **** }
 1980              		.loc 2 58 12 view .LVU665
 1981              	.LBE198:
 1982              	.LBE197:
 287:Middlewares/lvgl/src/widgets/lv_slider.c ****         lv_coord_t knob_size = LV_MIN(lv_obj_get_width(obj) + 2 * trans_w, lv_obj_get_height(obj) +
 1983              		.loc 1 287 9 is_stmt 1 view .LVU666
ARM GAS  /tmp/ccj9m3on.s 			page 62


 1984              	.LBB199:
 1985              	.LBI199:
  61:Middlewares/lvgl/src/widgets/../core/lv_obj_style_gen.h **** {
 1986              		.loc 2 61 26 view .LVU667
 1987              	.LBB200:
  63:Middlewares/lvgl/src/widgets/../core/lv_obj_style_gen.h ****     return (lv_coord_t)v.num;
 1988              		.loc 2 63 5 view .LVU668
  63:Middlewares/lvgl/src/widgets/../core/lv_obj_style_gen.h ****     return (lv_coord_t)v.num;
 1989              		.loc 2 63 26 is_stmt 0 view .LVU669
 1990 045e 40F60B02 		movw	r2, #2059
 1991 0462 4FF44031 		mov	r1, #196608
 1992 0466 2846     		mov	r0, r5
 1993 0468 FFF7FEFF 		bl	lv_obj_get_style_prop
 1994              	.LVL219:
  64:Middlewares/lvgl/src/widgets/../core/lv_obj_style_gen.h **** }
 1995              		.loc 2 64 5 is_stmt 1 view .LVU670
  64:Middlewares/lvgl/src/widgets/../core/lv_obj_style_gen.h **** }
 1996              		.loc 2 64 12 is_stmt 0 view .LVU671
 1997 046c 0FFA80F8 		sxth	r8, r0
 1998              	.LVL220:
  64:Middlewares/lvgl/src/widgets/../core/lv_obj_style_gen.h **** }
 1999              		.loc 2 64 12 view .LVU672
 2000              	.LBE200:
 2001              	.LBE199:
 288:Middlewares/lvgl/src/widgets/lv_slider.c ****         knob_size = (knob_size * zoom) >> 8;
 2002              		.loc 1 288 9 is_stmt 1 view .LVU673
 288:Middlewares/lvgl/src/widgets/lv_slider.c ****         knob_size = (knob_size * zoom) >> 8;
 2003              		.loc 1 288 32 is_stmt 0 view .LVU674
 2004 0470 2846     		mov	r0, r5
 2005 0472 FFF7FEFF 		bl	lv_obj_get_width
 2006              	.LVL221:
 2007 0476 4FEA4903 		lsl	r3, r9, #1
 2008 047a 0293     		str	r3, [sp, #8]
 2009 047c 00EB4909 		add	r9, r0, r9, lsl #1
 2010              	.LVL222:
 288:Middlewares/lvgl/src/widgets/lv_slider.c ****         knob_size = (knob_size * zoom) >> 8;
 2011              		.loc 1 288 32 view .LVU675
 2012 0480 2846     		mov	r0, r5
 2013 0482 FFF7FEFF 		bl	lv_obj_get_height
 2014              	.LVL223:
 2015 0486 4FEA4803 		lsl	r3, r8, #1
 2016 048a 0393     		str	r3, [sp, #12]
 2017 048c 00EB4808 		add	r8, r0, r8, lsl #1
 2018              	.LVL224:
 288:Middlewares/lvgl/src/widgets/lv_slider.c ****         knob_size = (knob_size * zoom) >> 8;
 2019              		.loc 1 288 20 view .LVU676
 2020 0490 C145     		cmp	r9, r8
 2021 0492 2ADA     		bge	.L92
 288:Middlewares/lvgl/src/widgets/lv_slider.c ****         knob_size = (knob_size * zoom) >> 8;
 2022              		.loc 1 288 32 discriminator 1 view .LVU677
 2023 0494 2846     		mov	r0, r5
 2024 0496 FFF7FEFF 		bl	lv_obj_get_width
 2025              	.LVL225:
 2026 049a 029B     		ldr	r3, [sp, #8]
 2027 049c 0344     		add	r3, r3, r0
 288:Middlewares/lvgl/src/widgets/lv_slider.c ****         knob_size = (knob_size * zoom) >> 8;
 2028              		.loc 1 288 20 discriminator 1 view .LVU678
ARM GAS  /tmp/ccj9m3on.s 			page 63


 2029 049e 43F34F03 		sbfx	r3, r3, #1, #16
 2030              	.L93:
 2031              	.LVL226:
 289:Middlewares/lvgl/src/widgets/lv_slider.c ****         knob_size += LV_MAX(LV_MAX(knob_left, knob_right), LV_MAX(knob_bottom, knob_top));
 2032              		.loc 1 289 9 is_stmt 1 discriminator 4 view .LVU679
 289:Middlewares/lvgl/src/widgets/lv_slider.c ****         knob_size += LV_MAX(LV_MAX(knob_left, knob_right), LV_MAX(knob_bottom, knob_top));
 2033              		.loc 1 289 32 is_stmt 0 discriminator 4 view .LVU680
 2034 04a2 0BFB03FB 		mul	fp, fp, r3
 2035              	.LVL227:
 290:Middlewares/lvgl/src/widgets/lv_slider.c ****         knob_size += 2;         /*For rounding error*/
 2036              		.loc 1 290 9 is_stmt 1 discriminator 4 view .LVU681
 290:Middlewares/lvgl/src/widgets/lv_slider.c ****         knob_size += 2;         /*For rounding error*/
 2037              		.loc 1 290 22 is_stmt 0 discriminator 4 view .LVU682
 2038 04a6 5645     		cmp	r6, r10
 2039 04a8 B8BF     		it	lt
 2040 04aa 5646     		movlt	r6, r10
 2041              	.LVL228:
 290:Middlewares/lvgl/src/widgets/lv_slider.c ****         knob_size += 2;         /*For rounding error*/
 2042              		.loc 1 290 22 discriminator 4 view .LVU683
 2043 04ac 019B     		ldr	r3, [sp, #4]
 2044 04ae 9F42     		cmp	r7, r3
 2045 04b0 B8BF     		it	lt
 2046 04b2 1F46     		movlt	r7, r3
 2047              	.LVL229:
 290:Middlewares/lvgl/src/widgets/lv_slider.c ****         knob_size += 2;         /*For rounding error*/
 2048              		.loc 1 290 22 discriminator 4 view .LVU684
 2049 04b4 BE42     		cmp	r6, r7
 2050 04b6 B8BF     		it	lt
 2051 04b8 3E46     		movlt	r6, r7
 2052 04ba B6B2     		uxth	r6, r6
 290:Middlewares/lvgl/src/widgets/lv_slider.c ****         knob_size += 2;         /*For rounding error*/
 2053              		.loc 1 290 19 discriminator 4 view .LVU685
 2054 04bc 06EB2B26 		add	r6, r6, fp, asr #8
 2055 04c0 B6B2     		uxth	r6, r6
 2056              	.LVL230:
 291:Middlewares/lvgl/src/widgets/lv_slider.c ****         knob_size += lv_obj_calculate_ext_draw_size(obj, LV_PART_KNOB);
 2057              		.loc 1 291 9 is_stmt 1 discriminator 4 view .LVU686
 291:Middlewares/lvgl/src/widgets/lv_slider.c ****         knob_size += lv_obj_calculate_ext_draw_size(obj, LV_PART_KNOB);
 2058              		.loc 1 291 19 is_stmt 0 discriminator 4 view .LVU687
 2059 04c2 0236     		adds	r6, r6, #2
 2060              	.LVL231:
 291:Middlewares/lvgl/src/widgets/lv_slider.c ****         knob_size += lv_obj_calculate_ext_draw_size(obj, LV_PART_KNOB);
 2061              		.loc 1 291 19 discriminator 4 view .LVU688
 2062 04c4 B6B2     		uxth	r6, r6
 2063              	.LVL232:
 292:Middlewares/lvgl/src/widgets/lv_slider.c **** 
 2064              		.loc 1 292 9 is_stmt 1 discriminator 4 view .LVU689
 292:Middlewares/lvgl/src/widgets/lv_slider.c **** 
 2065              		.loc 1 292 22 is_stmt 0 discriminator 4 view .LVU690
 2066 04c6 4FF44031 		mov	r1, #196608
 2067 04ca 2846     		mov	r0, r5
 2068 04cc FFF7FEFF 		bl	lv_obj_calculate_ext_draw_size
 2069              	.LVL233:
 2070 04d0 85B2     		uxth	r5, r0
 2071              	.LVL234:
 292:Middlewares/lvgl/src/widgets/lv_slider.c **** 
 2072              		.loc 1 292 19 discriminator 4 view .LVU691
ARM GAS  /tmp/ccj9m3on.s 			page 64


 2073 04d2 3544     		add	r5, r5, r6
 2074 04d4 2DB2     		sxth	r5, r5
 2075              	.LVL235:
 295:Middlewares/lvgl/src/widgets/lv_slider.c ****         *s  = LV_MAX(*s, knob_size);
 2076              		.loc 1 295 9 is_stmt 1 discriminator 4 view .LVU692
 295:Middlewares/lvgl/src/widgets/lv_slider.c ****         *s  = LV_MAX(*s, knob_size);
 2077              		.loc 1 295 26 is_stmt 0 discriminator 4 view .LVU693
 2078 04d6 2046     		mov	r0, r4
 2079 04d8 FFF7FEFF 		bl	lv_event_get_param
 2080              	.LVL236:
 296:Middlewares/lvgl/src/widgets/lv_slider.c **** 
 2081              		.loc 1 296 9 is_stmt 1 discriminator 4 view .LVU694
 296:Middlewares/lvgl/src/widgets/lv_slider.c **** 
 2082              		.loc 1 296 15 is_stmt 0 discriminator 4 view .LVU695
 2083 04dc B0F90030 		ldrsh	r3, [r0]
 2084 04e0 9D42     		cmp	r5, r3
 2085 04e2 B8BF     		it	lt
 2086 04e4 1D46     		movlt	r5, r3
 2087              	.LVL237:
 296:Middlewares/lvgl/src/widgets/lv_slider.c **** 
 2088              		.loc 1 296 13 discriminator 4 view .LVU696
 2089 04e6 0580     		strh	r5, [r0]	@ movhi
 2090              	.LBE186:
 2091 04e8 93E5     		b	.L55
 2092              	.LVL238:
 2093              	.L92:
 2094              	.LBB201:
 288:Middlewares/lvgl/src/widgets/lv_slider.c ****         knob_size = (knob_size * zoom) >> 8;
 2095              		.loc 1 288 32 discriminator 2 view .LVU697
 2096 04ea 2846     		mov	r0, r5
 2097 04ec FFF7FEFF 		bl	lv_obj_get_height
 2098              	.LVL239:
 2099 04f0 039B     		ldr	r3, [sp, #12]
 2100 04f2 0344     		add	r3, r3, r0
 288:Middlewares/lvgl/src/widgets/lv_slider.c ****         knob_size = (knob_size * zoom) >> 8;
 2101              		.loc 1 288 20 discriminator 2 view .LVU698
 2102 04f4 43F34F03 		sbfx	r3, r3, #1, #16
 2103 04f8 D3E7     		b	.L93
 2104              	.LVL240:
 2105              	.L113:
 288:Middlewares/lvgl/src/widgets/lv_slider.c ****         knob_size = (knob_size * zoom) >> 8;
 2106              		.loc 1 288 20 discriminator 2 view .LVU699
 2107              	.LBE201:
 2108              	.LBB202:
 300:Middlewares/lvgl/src/widgets/lv_slider.c **** 
 2109              		.loc 1 300 9 is_stmt 1 view .LVU700
 300:Middlewares/lvgl/src/widgets/lv_slider.c **** 
 2110              		.loc 1 300 28 is_stmt 0 view .LVU701
 2111 04fa 2046     		mov	r0, r4
 2112 04fc FFF7FEFF 		bl	lv_event_get_param
 2113              	.LVL241:
 300:Middlewares/lvgl/src/widgets/lv_slider.c **** 
 2114              		.loc 1 300 14 view .LVU702
 2115 0500 0378     		ldrb	r3, [r0]	@ zero_extendqisi2
 2116              	.LVL242:
 302:Middlewares/lvgl/src/widgets/lv_slider.c ****             if(!slider->left_knob_focus) lv_slider_set_value(obj, lv_slider_get_value(obj) + 1, LV_
 2117              		.loc 1 302 9 is_stmt 1 view .LVU703
ARM GAS  /tmp/ccj9m3on.s 			page 65


 302:Middlewares/lvgl/src/widgets/lv_slider.c ****             if(!slider->left_knob_focus) lv_slider_set_value(obj, lv_slider_get_value(obj) + 1, LV_
 2118              		.loc 1 302 11 is_stmt 0 view .LVU704
 2119 0502 132B     		cmp	r3, #19
 2120 0504 19D0     		beq	.L95
 302:Middlewares/lvgl/src/widgets/lv_slider.c ****             if(!slider->left_knob_focus) lv_slider_set_value(obj, lv_slider_get_value(obj) + 1, LV_
 2121              		.loc 1 302 30 discriminator 1 view .LVU705
 2122 0506 112B     		cmp	r3, #17
 2123 0508 17D0     		beq	.L95
 309:Middlewares/lvgl/src/widgets/lv_slider.c ****             if(!slider->left_knob_focus) lv_slider_set_value(obj, lv_slider_get_value(obj) - 1, LV_
 2124              		.loc 1 309 14 is_stmt 1 view .LVU706
 309:Middlewares/lvgl/src/widgets/lv_slider.c ****             if(!slider->left_knob_focus) lv_slider_set_value(obj, lv_slider_get_value(obj) - 1, LV_
 2125              		.loc 1 309 16 is_stmt 0 view .LVU707
 2126 050a 142B     		cmp	r3, #20
 2127 050c 02D0     		beq	.L99
 309:Middlewares/lvgl/src/widgets/lv_slider.c ****             if(!slider->left_knob_focus) lv_slider_set_value(obj, lv_slider_get_value(obj) - 1, LV_
 2128              		.loc 1 309 34 discriminator 1 view .LVU708
 2129 050e 122B     		cmp	r3, #18
 2130 0510 7FF47FAD 		bne	.L55
 2131              	.L99:
 310:Middlewares/lvgl/src/widgets/lv_slider.c ****             else lv_slider_set_left_value(obj, lv_slider_get_left_value(obj) - 1, LV_ANIM_ON);
 2132              		.loc 1 310 13 is_stmt 1 view .LVU709
 310:Middlewares/lvgl/src/widgets/lv_slider.c ****             else lv_slider_set_left_value(obj, lv_slider_get_left_value(obj) - 1, LV_ANIM_ON);
 2133              		.loc 1 310 16 is_stmt 0 view .LVU710
 2134 0514 95F87430 		ldrb	r3, [r5, #116]	@ zero_extendqisi2
 2135              	.LVL243:
 310:Middlewares/lvgl/src/widgets/lv_slider.c ****             else lv_slider_set_left_value(obj, lv_slider_get_left_value(obj) - 1, LV_ANIM_ON);
 2136              		.loc 1 310 15 view .LVU711
 2137 0518 13F0020F 		tst	r3, #2
 2138 051c 29D1     		bne	.L100
 310:Middlewares/lvgl/src/widgets/lv_slider.c ****             else lv_slider_set_left_value(obj, lv_slider_get_left_value(obj) - 1, LV_ANIM_ON);
 2139              		.loc 1 310 42 is_stmt 1 view .LVU712
 2140              	.LVL244:
 2141              	.LBB203:
 2142              	.LBI203:
 121:Middlewares/lvgl/src/widgets/lv_slider.h **** {
 2143              		.loc 4 121 23 view .LVU713
 2144              	.LBB204:
 123:Middlewares/lvgl/src/widgets/lv_slider.h **** }
 2145              		.loc 4 123 5 view .LVU714
 123:Middlewares/lvgl/src/widgets/lv_slider.h **** }
 2146              		.loc 4 123 12 is_stmt 0 view .LVU715
 2147 051e 2846     		mov	r0, r5
 2148              	.LVL245:
 123:Middlewares/lvgl/src/widgets/lv_slider.h **** }
 2149              		.loc 4 123 12 view .LVU716
 2150 0520 FFF7FEFF 		bl	lv_bar_get_value
 2151              	.LVL246:
 123:Middlewares/lvgl/src/widgets/lv_slider.h **** }
 2152              		.loc 4 123 12 view .LVU717
 2153              	.LBE204:
 2154              	.LBE203:
 2155              	.LBB205:
 2156              	.LBI205:
  75:Middlewares/lvgl/src/widgets/lv_slider.h **** {
 2157              		.loc 4 75 20 is_stmt 1 view .LVU718
 2158              	.LBB206:
  77:Middlewares/lvgl/src/widgets/lv_slider.h **** }
ARM GAS  /tmp/ccj9m3on.s 			page 66


 2159              		.loc 4 77 5 view .LVU719
 2160 0524 0122     		movs	r2, #1
 2161 0526 411E     		subs	r1, r0, #1
 2162              	.LVL247:
  77:Middlewares/lvgl/src/widgets/lv_slider.h **** }
 2163              		.loc 4 77 5 is_stmt 0 view .LVU720
 2164 0528 2846     		mov	r0, r5
 2165 052a FFF7FEFF 		bl	lv_bar_set_value
 2166              	.LVL248:
 2167              	.L101:
  77:Middlewares/lvgl/src/widgets/lv_slider.h **** }
 2168              		.loc 4 77 5 view .LVU721
 2169              	.LBE206:
 2170              	.LBE205:
 313:Middlewares/lvgl/src/widgets/lv_slider.c ****             if(res != LV_RES_OK) return;
 2171              		.loc 1 313 13 is_stmt 1 view .LVU722
 313:Middlewares/lvgl/src/widgets/lv_slider.c ****             if(res != LV_RES_OK) return;
 2172              		.loc 1 313 19 is_stmt 0 view .LVU723
 2173 052e 0022     		movs	r2, #0
 2174 0530 1C21     		movs	r1, #28
 2175 0532 2846     		mov	r0, r5
 2176 0534 FFF7FEFF 		bl	lv_event_send
 2177              	.LVL249:
 314:Middlewares/lvgl/src/widgets/lv_slider.c ****         }
 2178              		.loc 1 314 13 is_stmt 1 view .LVU724
 2179 0538 6BE5     		b	.L55
 2180              	.LVL250:
 2181              	.L95:
 303:Middlewares/lvgl/src/widgets/lv_slider.c ****             else lv_slider_set_left_value(obj, lv_slider_get_left_value(obj) + 1, LV_ANIM_ON);
 2182              		.loc 1 303 13 view .LVU725
 303:Middlewares/lvgl/src/widgets/lv_slider.c ****             else lv_slider_set_left_value(obj, lv_slider_get_left_value(obj) + 1, LV_ANIM_ON);
 2183              		.loc 1 303 16 is_stmt 0 view .LVU726
 2184 053a 95F87430 		ldrb	r3, [r5, #116]	@ zero_extendqisi2
 2185              	.LVL251:
 303:Middlewares/lvgl/src/widgets/lv_slider.c ****             else lv_slider_set_left_value(obj, lv_slider_get_left_value(obj) + 1, LV_ANIM_ON);
 2186              		.loc 1 303 15 view .LVU727
 2187 053e 13F0020F 		tst	r3, #2
 2188 0542 0DD1     		bne	.L97
 303:Middlewares/lvgl/src/widgets/lv_slider.c ****             else lv_slider_set_left_value(obj, lv_slider_get_left_value(obj) + 1, LV_ANIM_ON);
 2189              		.loc 1 303 42 is_stmt 1 view .LVU728
 2190              	.LVL252:
 2191              	.LBB207:
 2192              	.LBI207:
 121:Middlewares/lvgl/src/widgets/lv_slider.h **** {
 2193              		.loc 4 121 23 view .LVU729
 2194              	.LBB208:
 123:Middlewares/lvgl/src/widgets/lv_slider.h **** }
 2195              		.loc 4 123 5 view .LVU730
 123:Middlewares/lvgl/src/widgets/lv_slider.h **** }
 2196              		.loc 4 123 12 is_stmt 0 view .LVU731
 2197 0544 2846     		mov	r0, r5
 2198              	.LVL253:
 123:Middlewares/lvgl/src/widgets/lv_slider.h **** }
 2199              		.loc 4 123 12 view .LVU732
 2200 0546 FFF7FEFF 		bl	lv_bar_get_value
 2201              	.LVL254:
 123:Middlewares/lvgl/src/widgets/lv_slider.h **** }
ARM GAS  /tmp/ccj9m3on.s 			page 67


 2202              		.loc 4 123 12 view .LVU733
 2203              	.LBE208:
 2204              	.LBE207:
 2205              	.LBB209:
 2206              	.LBI209:
  75:Middlewares/lvgl/src/widgets/lv_slider.h **** {
 2207              		.loc 4 75 20 is_stmt 1 view .LVU734
 2208              	.LBB210:
  77:Middlewares/lvgl/src/widgets/lv_slider.h **** }
 2209              		.loc 4 77 5 view .LVU735
 2210 054a 0122     		movs	r2, #1
 2211 054c 8118     		adds	r1, r0, r2
 2212              	.LVL255:
  77:Middlewares/lvgl/src/widgets/lv_slider.h **** }
 2213              		.loc 4 77 5 is_stmt 0 view .LVU736
 2214 054e 2846     		mov	r0, r5
 2215 0550 FFF7FEFF 		bl	lv_bar_set_value
 2216              	.LVL256:
 2217              	.L98:
  77:Middlewares/lvgl/src/widgets/lv_slider.h **** }
 2218              		.loc 4 77 5 view .LVU737
 2219              	.LBE210:
 2220              	.LBE209:
 306:Middlewares/lvgl/src/widgets/lv_slider.c ****             if(res != LV_RES_OK) return;
 2221              		.loc 1 306 13 is_stmt 1 view .LVU738
 306:Middlewares/lvgl/src/widgets/lv_slider.c ****             if(res != LV_RES_OK) return;
 2222              		.loc 1 306 19 is_stmt 0 view .LVU739
 2223 0554 0022     		movs	r2, #0
 2224 0556 1C21     		movs	r1, #28
 2225 0558 2846     		mov	r0, r5
 2226 055a FFF7FEFF 		bl	lv_event_send
 2227              	.LVL257:
 307:Middlewares/lvgl/src/widgets/lv_slider.c ****         }
 2228              		.loc 1 307 13 is_stmt 1 view .LVU740
 2229 055e 58E5     		b	.L55
 2230              	.LVL258:
 2231              	.L97:
 304:Middlewares/lvgl/src/widgets/lv_slider.c **** 
 2232              		.loc 1 304 18 view .LVU741
 2233              	.LBB211:
 2234              	.LBI211:
 131:Middlewares/lvgl/src/widgets/lv_slider.h **** {
 2235              		.loc 4 131 23 view .LVU742
 2236              	.LBB212:
 133:Middlewares/lvgl/src/widgets/lv_slider.h **** }
 2237              		.loc 4 133 5 view .LVU743
 133:Middlewares/lvgl/src/widgets/lv_slider.h **** }
 2238              		.loc 4 133 12 is_stmt 0 view .LVU744
 2239 0560 2846     		mov	r0, r5
 2240              	.LVL259:
 133:Middlewares/lvgl/src/widgets/lv_slider.h **** }
 2241              		.loc 4 133 12 view .LVU745
 2242 0562 FFF7FEFF 		bl	lv_bar_get_start_value
 2243              	.LVL260:
 133:Middlewares/lvgl/src/widgets/lv_slider.h **** }
 2244              		.loc 4 133 12 view .LVU746
 2245              	.LBE212:
ARM GAS  /tmp/ccj9m3on.s 			page 68


 2246              	.LBE211:
 2247              	.LBB213:
 2248              	.LBI213:
  86:Middlewares/lvgl/src/widgets/lv_slider.h **** {
 2249              		.loc 4 86 20 is_stmt 1 view .LVU747
 2250              	.LBB214:
  88:Middlewares/lvgl/src/widgets/lv_slider.h **** }
 2251              		.loc 4 88 5 view .LVU748
 2252 0566 0122     		movs	r2, #1
 2253 0568 8118     		adds	r1, r0, r2
 2254              	.LVL261:
  88:Middlewares/lvgl/src/widgets/lv_slider.h **** }
 2255              		.loc 4 88 5 is_stmt 0 view .LVU749
 2256 056a 2846     		mov	r0, r5
 2257 056c FFF7FEFF 		bl	lv_bar_set_start_value
 2258              	.LVL262:
  89:Middlewares/lvgl/src/widgets/lv_slider.h **** 
 2259              		.loc 4 89 1 view .LVU750
 2260 0570 F0E7     		b	.L98
 2261              	.LVL263:
 2262              	.L100:
  89:Middlewares/lvgl/src/widgets/lv_slider.h **** 
 2263              		.loc 4 89 1 view .LVU751
 2264              	.LBE214:
 2265              	.LBE213:
 311:Middlewares/lvgl/src/widgets/lv_slider.c **** 
 2266              		.loc 1 311 18 is_stmt 1 view .LVU752
 2267              	.LBB215:
 2268              	.LBI215:
 131:Middlewares/lvgl/src/widgets/lv_slider.h **** {
 2269              		.loc 4 131 23 view .LVU753
 2270              	.LBB216:
 133:Middlewares/lvgl/src/widgets/lv_slider.h **** }
 2271              		.loc 4 133 5 view .LVU754
 133:Middlewares/lvgl/src/widgets/lv_slider.h **** }
 2272              		.loc 4 133 12 is_stmt 0 view .LVU755
 2273 0572 2846     		mov	r0, r5
 2274              	.LVL264:
 133:Middlewares/lvgl/src/widgets/lv_slider.h **** }
 2275              		.loc 4 133 12 view .LVU756
 2276 0574 FFF7FEFF 		bl	lv_bar_get_start_value
 2277              	.LVL265:
 133:Middlewares/lvgl/src/widgets/lv_slider.h **** }
 2278              		.loc 4 133 12 view .LVU757
 2279              	.LBE216:
 2280              	.LBE215:
 2281              	.LBB217:
 2282              	.LBI217:
  86:Middlewares/lvgl/src/widgets/lv_slider.h **** {
 2283              		.loc 4 86 20 is_stmt 1 view .LVU758
 2284              	.LBB218:
  88:Middlewares/lvgl/src/widgets/lv_slider.h **** }
 2285              		.loc 4 88 5 view .LVU759
 2286 0578 0122     		movs	r2, #1
 2287 057a 411E     		subs	r1, r0, #1
 2288              	.LVL266:
  88:Middlewares/lvgl/src/widgets/lv_slider.h **** }
ARM GAS  /tmp/ccj9m3on.s 			page 69


 2289              		.loc 4 88 5 is_stmt 0 view .LVU760
 2290 057c 2846     		mov	r0, r5
 2291 057e FFF7FEFF 		bl	lv_bar_set_start_value
 2292              	.LVL267:
  89:Middlewares/lvgl/src/widgets/lv_slider.h **** 
 2293              		.loc 4 89 1 view .LVU761
 2294 0582 D4E7     		b	.L101
 2295              	.LBE218:
 2296              	.LBE217:
 2297              	.LBE202:
 2298              		.cfi_endproc
 2299              	.LFE165:
 2301              		.section	.text.lv_slider_create,"ax",%progbits
 2302              		.align	1
 2303              		.global	lv_slider_create
 2304              		.syntax unified
 2305              		.thumb
 2306              		.thumb_func
 2307              		.fpu softvfp
 2309              	lv_slider_create:
 2310              	.LVL268:
 2311              	.LFB162:
  60:Middlewares/lvgl/src/widgets/lv_slider.c ****     LV_LOG_INFO("begin")
 2312              		.loc 1 60 1 is_stmt 1 view -0
 2313              		.cfi_startproc
 2314              		@ args = 0, pretend = 0, frame = 0
 2315              		@ frame_needed = 0, uses_anonymous_args = 0
  60:Middlewares/lvgl/src/widgets/lv_slider.c ****     LV_LOG_INFO("begin")
 2316              		.loc 1 60 1 is_stmt 0 view .LVU763
 2317 0000 10B5     		push	{r4, lr}
 2318              	.LCFI10:
 2319              		.cfi_def_cfa_offset 8
 2320              		.cfi_offset 4, -8
 2321              		.cfi_offset 14, -4
 2322 0002 0146     		mov	r1, r0
  62:Middlewares/lvgl/src/widgets/lv_slider.c ****     lv_obj_class_init_obj(obj);
 2323              		.loc 1 62 5 is_stmt 1 view .LVU764
  62:Middlewares/lvgl/src/widgets/lv_slider.c ****     lv_obj_class_init_obj(obj);
 2324              		.loc 1 62 22 is_stmt 0 view .LVU765
 2325 0004 0348     		ldr	r0, .L123
 2326              	.LVL269:
  62:Middlewares/lvgl/src/widgets/lv_slider.c ****     lv_obj_class_init_obj(obj);
 2327              		.loc 1 62 22 view .LVU766
 2328 0006 FFF7FEFF 		bl	lv_obj_class_create_obj
 2329              	.LVL270:
  62:Middlewares/lvgl/src/widgets/lv_slider.c ****     lv_obj_class_init_obj(obj);
 2330              		.loc 1 62 22 view .LVU767
 2331 000a 0446     		mov	r4, r0
 2332              	.LVL271:
  63:Middlewares/lvgl/src/widgets/lv_slider.c ****     return obj;
 2333              		.loc 1 63 5 is_stmt 1 view .LVU768
 2334 000c FFF7FEFF 		bl	lv_obj_class_init_obj
 2335              	.LVL272:
  64:Middlewares/lvgl/src/widgets/lv_slider.c **** }
 2336              		.loc 1 64 5 view .LVU769
  65:Middlewares/lvgl/src/widgets/lv_slider.c **** 
 2337              		.loc 1 65 1 is_stmt 0 view .LVU770
ARM GAS  /tmp/ccj9m3on.s 			page 70


 2338 0010 2046     		mov	r0, r4
 2339 0012 10BD     		pop	{r4, pc}
 2340              	.LVL273:
 2341              	.L124:
  65:Middlewares/lvgl/src/widgets/lv_slider.c **** 
 2342              		.loc 1 65 1 view .LVU771
 2343              		.align	2
 2344              	.L123:
 2345 0014 00000000 		.word	.LANCHOR0
 2346              		.cfi_endproc
 2347              	.LFE162:
 2349              		.section	.text.lv_slider_is_dragged,"ax",%progbits
 2350              		.align	1
 2351              		.global	lv_slider_is_dragged
 2352              		.syntax unified
 2353              		.thumb
 2354              		.thumb_func
 2355              		.fpu softvfp
 2357              	lv_slider_is_dragged:
 2358              	.LVL274:
 2359              	.LFB163:
  68:Middlewares/lvgl/src/widgets/lv_slider.c ****     LV_ASSERT_OBJ(obj, MY_CLASS);
 2360              		.loc 1 68 1 is_stmt 1 view -0
 2361              		.cfi_startproc
 2362              		@ args = 0, pretend = 0, frame = 0
 2363              		@ frame_needed = 0, uses_anonymous_args = 0
 2364              		@ link register save eliminated.
  69:Middlewares/lvgl/src/widgets/lv_slider.c ****     lv_slider_t * slider = (lv_slider_t *)obj;
 2365              		.loc 1 69 5 view .LVU773
  69:Middlewares/lvgl/src/widgets/lv_slider.c ****     lv_slider_t * slider = (lv_slider_t *)obj;
 2366              		.loc 1 69 5 view .LVU774
  69:Middlewares/lvgl/src/widgets/lv_slider.c ****     lv_slider_t * slider = (lv_slider_t *)obj;
 2367              		.loc 1 69 5 view .LVU775
  70:Middlewares/lvgl/src/widgets/lv_slider.c **** 
 2368              		.loc 1 70 5 view .LVU776
  72:Middlewares/lvgl/src/widgets/lv_slider.c **** }
 2369              		.loc 1 72 5 view .LVU777
  72:Middlewares/lvgl/src/widgets/lv_slider.c **** }
 2370              		.loc 1 72 29 is_stmt 0 view .LVU778
 2371 0000 90F87400 		ldrb	r0, [r0, #116]	@ zero_extendqisi2
 2372              	.LVL275:
  73:Middlewares/lvgl/src/widgets/lv_slider.c **** 
 2373              		.loc 1 73 1 view .LVU779
 2374 0004 00F00100 		and	r0, r0, #1
 2375 0008 7047     		bx	lr
 2376              		.cfi_endproc
 2377              	.LFE163:
 2379              		.global	lv_slider_class
 2380              		.section	.rodata.lv_slider_class,"a"
 2381              		.align	2
 2382              		.set	.LANCHOR0,. + 0
 2385              	lv_slider_class:
 2386 0000 00000000 		.word	lv_bar_class
 2387 0004 00000000 		.word	lv_slider_constructor
 2388 0008 00000000 		.space	8
 2388      00000000 
 2389 0010 00000000 		.word	lv_slider_event
ARM GAS  /tmp/ccj9m3on.s 			page 71


 2390 0014 00000000 		.space	4
 2391 0018 85       		.byte	133
 2392 0019 07       		.byte	7
 2393 001a 00       		.byte	0
 2394 001b 00       		.space	1
 2395              		.text
 2396              	.Letext0:
 2397              		.file 5 "/home/akinya/gcc-arm-none-eabi/arm-none-eabi/include/machine/_default_types.h"
 2398              		.file 6 "/home/akinya/gcc-arm-none-eabi/arm-none-eabi/include/sys/_stdint.h"
 2399              		.file 7 "Middlewares/lvgl/src/widgets/../core/../misc/../font/lv_font.h"
 2400              		.file 8 "Middlewares/lvgl/src/widgets/../core/../misc/lv_types.h"
 2401              		.file 9 "Middlewares/lvgl/src/widgets/../core/../misc/lv_color.h"
 2402              		.file 10 "Middlewares/lvgl/src/widgets/../core/../misc/lv_anim.h"
 2403              		.file 11 "Middlewares/lvgl/src/widgets/../core/../misc/lv_txt.h"
 2404              		.file 12 "Middlewares/lvgl/src/widgets/../core/../misc/lv_bidi.h"
 2405              		.file 13 "Middlewares/lvgl/src/widgets/../core/../misc/lv_style.h"
 2406              		.file 14 "Middlewares/lvgl/src/widgets/../core/../hal/../misc/lv_ll.h"
 2407              		.file 15 "Middlewares/lvgl/src/widgets/../core/../hal/../misc/lv_timer.h"
 2408              		.file 16 "Middlewares/lvgl/src/widgets/../core/../hal/lv_hal_disp.h"
 2409              		.file 17 "Middlewares/lvgl/src/widgets/../core/lv_theme.h"
 2410              		.file 18 "Middlewares/lvgl/src/widgets/../core/lv_obj.h"
 2411              		.file 19 "Middlewares/lvgl/src/widgets/../core/../hal/lv_hal_indev.h"
 2412              		.file 20 "Middlewares/lvgl/src/widgets/../core/lv_group.h"
 2413              		.file 21 "Middlewares/lvgl/src/widgets/../core/lv_obj_scroll.h"
 2414              		.file 22 "Middlewares/lvgl/src/widgets/../core/lv_obj_style.h"
 2415              		.file 23 "Middlewares/lvgl/src/widgets/../core/../draw/lv_draw_rect.h"
 2416              		.file 24 "Middlewares/lvgl/src/widgets/../core/../draw/lv_draw_label.h"
 2417              		.file 25 "Middlewares/lvgl/src/widgets/../core/../draw/lv_draw_img.h"
 2418              		.file 26 "Middlewares/lvgl/src/widgets/../core/../draw/lv_draw_line.h"
 2419              		.file 27 "Middlewares/lvgl/src/widgets/../core/../draw/lv_draw_arc.h"
 2420              		.file 28 "Middlewares/lvgl/src/widgets/../core/lv_obj_draw.h"
 2421              		.file 29 "Middlewares/lvgl/src/widgets/../core/lv_obj_class.h"
 2422              		.file 30 "Middlewares/lvgl/src/widgets/../core/lv_event.h"
 2423              		.file 31 "Middlewares/lvgl/src/widgets/lv_bar.h"
 2424              		.file 32 "Middlewares/lvgl/src/widgets/../core/../hal/../misc/lv_mem.h"
 2425              		.file 33 "Middlewares/lvgl/src/widgets/../core/lv_obj_pos.h"
 2426              		.file 34 "Middlewares/lvgl/src/widgets/../core/lv_indev.h"
ARM GAS  /tmp/ccj9m3on.s 			page 72

