ARM GAS  /tmp/ccTYGLnU.s 			page 1


   1              		.cpu cortex-m3
   2              		.eabi_attribute 20, 1
   3              		.eabi_attribute 21, 1
   4              		.eabi_attribute 23, 3
   5              		.eabi_attribute 24, 1
   6              		.eabi_attribute 25, 1
   7              		.eabi_attribute 26, 1
   8              		.eabi_attribute 30, 1
   9              		.eabi_attribute 34, 1
  10              		.eabi_attribute 18, 4
  11              		.file	"lv_table.c"
  12              		.text
  13              	.Ltext0:
  14              		.cfi_sections	.debug_frame
  15              		.section	.text.get_row_height,"ax",%progbits
  16              		.align	1
  17              		.arch armv7-m
  18              		.syntax unified
  19              		.thumb
  20              		.thumb_func
  21              		.fpu softvfp
  23              	get_row_height:
  24              	.LVL0:
  25              	.LFB166:
  26              		.file 1 "Middlewares/lvgl/src/widgets/lv_table.c"
   1:Middlewares/lvgl/src/widgets/lv_table.c **** /**
   2:Middlewares/lvgl/src/widgets/lv_table.c ****  * @file lv_table.c
   3:Middlewares/lvgl/src/widgets/lv_table.c ****  *
   4:Middlewares/lvgl/src/widgets/lv_table.c ****  */
   5:Middlewares/lvgl/src/widgets/lv_table.c **** 
   6:Middlewares/lvgl/src/widgets/lv_table.c **** /*********************
   7:Middlewares/lvgl/src/widgets/lv_table.c ****  *      INCLUDES
   8:Middlewares/lvgl/src/widgets/lv_table.c ****  *********************/
   9:Middlewares/lvgl/src/widgets/lv_table.c **** #include "lv_table.h"
  10:Middlewares/lvgl/src/widgets/lv_table.c **** #if LV_USE_TABLE != 0
  11:Middlewares/lvgl/src/widgets/lv_table.c **** 
  12:Middlewares/lvgl/src/widgets/lv_table.c **** #include "../core/lv_indev.h"
  13:Middlewares/lvgl/src/widgets/lv_table.c **** #include "../misc/lv_assert.h"
  14:Middlewares/lvgl/src/widgets/lv_table.c **** #include "../misc/lv_txt.h"
  15:Middlewares/lvgl/src/widgets/lv_table.c **** #include "../misc/lv_txt_ap.h"
  16:Middlewares/lvgl/src/widgets/lv_table.c **** #include "../misc/lv_math.h"
  17:Middlewares/lvgl/src/widgets/lv_table.c **** #include "../misc/lv_printf.h"
  18:Middlewares/lvgl/src/widgets/lv_table.c **** #include "../draw/lv_draw.h"
  19:Middlewares/lvgl/src/widgets/lv_table.c **** 
  20:Middlewares/lvgl/src/widgets/lv_table.c **** /*********************
  21:Middlewares/lvgl/src/widgets/lv_table.c ****  *      DEFINES
  22:Middlewares/lvgl/src/widgets/lv_table.c ****  *********************/
  23:Middlewares/lvgl/src/widgets/lv_table.c **** #define MY_CLASS &lv_table_class
  24:Middlewares/lvgl/src/widgets/lv_table.c **** 
  25:Middlewares/lvgl/src/widgets/lv_table.c **** /**********************
  26:Middlewares/lvgl/src/widgets/lv_table.c ****  *      TYPEDEFS
  27:Middlewares/lvgl/src/widgets/lv_table.c ****  **********************/
  28:Middlewares/lvgl/src/widgets/lv_table.c **** 
  29:Middlewares/lvgl/src/widgets/lv_table.c **** /**********************
  30:Middlewares/lvgl/src/widgets/lv_table.c ****  *  STATIC PROTOTYPES
  31:Middlewares/lvgl/src/widgets/lv_table.c ****  **********************/
  32:Middlewares/lvgl/src/widgets/lv_table.c **** static void lv_table_constructor(const lv_obj_class_t * class_p, lv_obj_t * obj);
ARM GAS  /tmp/ccTYGLnU.s 			page 2


  33:Middlewares/lvgl/src/widgets/lv_table.c **** static void lv_table_destructor(const lv_obj_class_t * class_p, lv_obj_t * obj);
  34:Middlewares/lvgl/src/widgets/lv_table.c **** static void lv_table_event(const lv_obj_class_t * class_p, lv_event_t * e);
  35:Middlewares/lvgl/src/widgets/lv_table.c **** static void draw_main(lv_event_t * e);
  36:Middlewares/lvgl/src/widgets/lv_table.c **** static lv_coord_t get_row_height(lv_obj_t * obj, uint16_t row_id, const lv_font_t * font,
  37:Middlewares/lvgl/src/widgets/lv_table.c ****                                  lv_coord_t letter_space, lv_coord_t line_space,
  38:Middlewares/lvgl/src/widgets/lv_table.c ****                                  lv_coord_t cell_left, lv_coord_t cell_right, lv_coord_t cell_top, 
  39:Middlewares/lvgl/src/widgets/lv_table.c **** static void refr_size(lv_obj_t * obj, uint32_t strat_row);
  40:Middlewares/lvgl/src/widgets/lv_table.c **** static lv_res_t get_pressed_cell(lv_obj_t * obj, uint16_t * row, uint16_t * col);
  41:Middlewares/lvgl/src/widgets/lv_table.c **** 
  42:Middlewares/lvgl/src/widgets/lv_table.c **** /**********************
  43:Middlewares/lvgl/src/widgets/lv_table.c ****  *  STATIC VARIABLES
  44:Middlewares/lvgl/src/widgets/lv_table.c ****  **********************/
  45:Middlewares/lvgl/src/widgets/lv_table.c **** const lv_obj_class_t lv_table_class  = {
  46:Middlewares/lvgl/src/widgets/lv_table.c ****     .constructor_cb = lv_table_constructor,
  47:Middlewares/lvgl/src/widgets/lv_table.c ****     .destructor_cb = lv_table_destructor,
  48:Middlewares/lvgl/src/widgets/lv_table.c ****     .event_cb = lv_table_event,
  49:Middlewares/lvgl/src/widgets/lv_table.c ****     .width_def = LV_SIZE_CONTENT,
  50:Middlewares/lvgl/src/widgets/lv_table.c ****     .height_def = LV_SIZE_CONTENT,
  51:Middlewares/lvgl/src/widgets/lv_table.c ****     .base_class = &lv_obj_class,
  52:Middlewares/lvgl/src/widgets/lv_table.c ****     .editable = LV_OBJ_CLASS_EDITABLE_TRUE,
  53:Middlewares/lvgl/src/widgets/lv_table.c ****     .group_def = LV_OBJ_CLASS_GROUP_DEF_TRUE,
  54:Middlewares/lvgl/src/widgets/lv_table.c ****     .instance_size = sizeof(lv_table_t),
  55:Middlewares/lvgl/src/widgets/lv_table.c **** };
  56:Middlewares/lvgl/src/widgets/lv_table.c **** /**********************
  57:Middlewares/lvgl/src/widgets/lv_table.c ****  *      MACROS
  58:Middlewares/lvgl/src/widgets/lv_table.c ****  **********************/
  59:Middlewares/lvgl/src/widgets/lv_table.c **** 
  60:Middlewares/lvgl/src/widgets/lv_table.c **** /**********************
  61:Middlewares/lvgl/src/widgets/lv_table.c ****  *   GLOBAL FUNCTIONS
  62:Middlewares/lvgl/src/widgets/lv_table.c ****  **********************/
  63:Middlewares/lvgl/src/widgets/lv_table.c **** 
  64:Middlewares/lvgl/src/widgets/lv_table.c **** lv_obj_t * lv_table_create(lv_obj_t * parent)
  65:Middlewares/lvgl/src/widgets/lv_table.c **** {
  66:Middlewares/lvgl/src/widgets/lv_table.c ****     LV_LOG_INFO("begin")
  67:Middlewares/lvgl/src/widgets/lv_table.c ****     lv_obj_t * obj = lv_obj_class_create_obj(MY_CLASS, parent);
  68:Middlewares/lvgl/src/widgets/lv_table.c ****     lv_obj_class_init_obj(obj);
  69:Middlewares/lvgl/src/widgets/lv_table.c ****     return obj;
  70:Middlewares/lvgl/src/widgets/lv_table.c **** }
  71:Middlewares/lvgl/src/widgets/lv_table.c **** 
  72:Middlewares/lvgl/src/widgets/lv_table.c **** /*=====================
  73:Middlewares/lvgl/src/widgets/lv_table.c ****  * Setter functions
  74:Middlewares/lvgl/src/widgets/lv_table.c ****  *====================*/
  75:Middlewares/lvgl/src/widgets/lv_table.c **** 
  76:Middlewares/lvgl/src/widgets/lv_table.c **** void lv_table_set_cell_value(lv_obj_t * obj, uint16_t row, uint16_t col, const char * txt)
  77:Middlewares/lvgl/src/widgets/lv_table.c **** {
  78:Middlewares/lvgl/src/widgets/lv_table.c ****     LV_ASSERT_OBJ(obj, MY_CLASS);
  79:Middlewares/lvgl/src/widgets/lv_table.c ****     LV_ASSERT_NULL(txt);
  80:Middlewares/lvgl/src/widgets/lv_table.c **** 
  81:Middlewares/lvgl/src/widgets/lv_table.c ****     lv_table_t * table = (lv_table_t *)obj;
  82:Middlewares/lvgl/src/widgets/lv_table.c **** 
  83:Middlewares/lvgl/src/widgets/lv_table.c ****     /*Auto expand*/
  84:Middlewares/lvgl/src/widgets/lv_table.c ****     if(col >= table->col_cnt) lv_table_set_col_cnt(obj, col + 1);
  85:Middlewares/lvgl/src/widgets/lv_table.c ****     if(row >= table->row_cnt) lv_table_set_row_cnt(obj, row + 1);
  86:Middlewares/lvgl/src/widgets/lv_table.c **** 
  87:Middlewares/lvgl/src/widgets/lv_table.c ****     uint32_t cell = row * table->col_cnt + col;
  88:Middlewares/lvgl/src/widgets/lv_table.c ****     lv_table_cell_ctrl_t ctrl = 0;
  89:Middlewares/lvgl/src/widgets/lv_table.c **** 
ARM GAS  /tmp/ccTYGLnU.s 			page 3


  90:Middlewares/lvgl/src/widgets/lv_table.c ****     /*Save the control byte*/
  91:Middlewares/lvgl/src/widgets/lv_table.c ****     if(table->cell_data[cell]) ctrl = table->cell_data[cell][0];
  92:Middlewares/lvgl/src/widgets/lv_table.c **** 
  93:Middlewares/lvgl/src/widgets/lv_table.c **** #if LV_USE_ARABIC_PERSIAN_CHARS
  94:Middlewares/lvgl/src/widgets/lv_table.c ****     /*Get the size of the Arabic text and process it*/
  95:Middlewares/lvgl/src/widgets/lv_table.c ****     size_t len_ap = _lv_txt_ap_calc_bytes_cnt(txt);
  96:Middlewares/lvgl/src/widgets/lv_table.c ****     table->cell_data[cell] = lv_mem_realloc(table->cell_data[cell], len_ap + 1);
  97:Middlewares/lvgl/src/widgets/lv_table.c ****     LV_ASSERT_MALLOC(table->cell_data[cell]);
  98:Middlewares/lvgl/src/widgets/lv_table.c ****     if(table->cell_data[cell] == NULL) return;
  99:Middlewares/lvgl/src/widgets/lv_table.c **** 
 100:Middlewares/lvgl/src/widgets/lv_table.c ****     _lv_txt_ap_proc(txt, &table->cell_data[cell][1]);
 101:Middlewares/lvgl/src/widgets/lv_table.c **** #else
 102:Middlewares/lvgl/src/widgets/lv_table.c ****     table->cell_data[cell] = lv_mem_realloc(table->cell_data[cell], strlen(txt) + 2); /*+1: trailin
 103:Middlewares/lvgl/src/widgets/lv_table.c ****     LV_ASSERT_MALLOC(table->cell_data[cell]);
 104:Middlewares/lvgl/src/widgets/lv_table.c **** 
 105:Middlewares/lvgl/src/widgets/lv_table.c ****     strcpy(table->cell_data[cell] + 1, txt);  /*+1 to skip the format byte*/
 106:Middlewares/lvgl/src/widgets/lv_table.c **** #endif
 107:Middlewares/lvgl/src/widgets/lv_table.c **** 
 108:Middlewares/lvgl/src/widgets/lv_table.c ****     table->cell_data[cell][0] = ctrl;
 109:Middlewares/lvgl/src/widgets/lv_table.c ****     refr_size(obj, row);
 110:Middlewares/lvgl/src/widgets/lv_table.c **** 
 111:Middlewares/lvgl/src/widgets/lv_table.c ****     lv_obj_invalidate(obj);
 112:Middlewares/lvgl/src/widgets/lv_table.c **** }
 113:Middlewares/lvgl/src/widgets/lv_table.c **** 
 114:Middlewares/lvgl/src/widgets/lv_table.c **** void lv_table_set_cell_value_fmt(lv_obj_t * obj, uint16_t row, uint16_t col, const char * fmt, ...)
 115:Middlewares/lvgl/src/widgets/lv_table.c **** {
 116:Middlewares/lvgl/src/widgets/lv_table.c ****     LV_ASSERT_OBJ(obj, MY_CLASS);
 117:Middlewares/lvgl/src/widgets/lv_table.c ****     LV_ASSERT_NULL(fmt);
 118:Middlewares/lvgl/src/widgets/lv_table.c **** 
 119:Middlewares/lvgl/src/widgets/lv_table.c ****     lv_table_t * table = (lv_table_t *)obj;
 120:Middlewares/lvgl/src/widgets/lv_table.c ****     if(col >= table->col_cnt) {
 121:Middlewares/lvgl/src/widgets/lv_table.c ****         LV_LOG_WARN("lv_table_set_cell_value: invalid column");
 122:Middlewares/lvgl/src/widgets/lv_table.c ****         return;
 123:Middlewares/lvgl/src/widgets/lv_table.c ****     }
 124:Middlewares/lvgl/src/widgets/lv_table.c **** 
 125:Middlewares/lvgl/src/widgets/lv_table.c ****     /*Auto expand*/
 126:Middlewares/lvgl/src/widgets/lv_table.c ****     if(row >= table->row_cnt) {
 127:Middlewares/lvgl/src/widgets/lv_table.c ****         lv_table_set_row_cnt(obj, row + 1);
 128:Middlewares/lvgl/src/widgets/lv_table.c ****     }
 129:Middlewares/lvgl/src/widgets/lv_table.c **** 
 130:Middlewares/lvgl/src/widgets/lv_table.c ****     uint32_t cell = row * table->col_cnt + col;
 131:Middlewares/lvgl/src/widgets/lv_table.c ****     lv_table_cell_ctrl_t ctrl = 0;
 132:Middlewares/lvgl/src/widgets/lv_table.c **** 
 133:Middlewares/lvgl/src/widgets/lv_table.c ****     /*Save the control byte*/
 134:Middlewares/lvgl/src/widgets/lv_table.c ****     if(table->cell_data[cell]) ctrl= table->cell_data[cell][0];
 135:Middlewares/lvgl/src/widgets/lv_table.c **** 
 136:Middlewares/lvgl/src/widgets/lv_table.c ****     va_list ap, ap2;
 137:Middlewares/lvgl/src/widgets/lv_table.c ****     va_start(ap, fmt);
 138:Middlewares/lvgl/src/widgets/lv_table.c ****     va_copy(ap2, ap);
 139:Middlewares/lvgl/src/widgets/lv_table.c **** 
 140:Middlewares/lvgl/src/widgets/lv_table.c ****     /*Allocate space for the new text by using trick from C99 standard section 7.19.6.12*/
 141:Middlewares/lvgl/src/widgets/lv_table.c ****     uint32_t len = lv_vsnprintf(NULL, 0, fmt, ap);
 142:Middlewares/lvgl/src/widgets/lv_table.c ****     va_end(ap);
 143:Middlewares/lvgl/src/widgets/lv_table.c **** 
 144:Middlewares/lvgl/src/widgets/lv_table.c **** #if LV_USE_ARABIC_PERSIAN_CHARS
 145:Middlewares/lvgl/src/widgets/lv_table.c ****     /*Put together the text according to the format string*/
 146:Middlewares/lvgl/src/widgets/lv_table.c ****     char * raw_txt = lv_mem_buf_get(len + 1);
ARM GAS  /tmp/ccTYGLnU.s 			page 4


 147:Middlewares/lvgl/src/widgets/lv_table.c ****     LV_ASSERT_MALLOC(raw_txt);
 148:Middlewares/lvgl/src/widgets/lv_table.c ****     if(raw_txt == NULL) {
 149:Middlewares/lvgl/src/widgets/lv_table.c ****         va_end(ap2);
 150:Middlewares/lvgl/src/widgets/lv_table.c ****         return;
 151:Middlewares/lvgl/src/widgets/lv_table.c ****     }
 152:Middlewares/lvgl/src/widgets/lv_table.c **** 
 153:Middlewares/lvgl/src/widgets/lv_table.c ****     lv_vsnprintf(raw_txt, len + 1, fmt, ap2);
 154:Middlewares/lvgl/src/widgets/lv_table.c **** 
 155:Middlewares/lvgl/src/widgets/lv_table.c ****     /*Get the size of the Arabic text and process it*/
 156:Middlewares/lvgl/src/widgets/lv_table.c ****     size_t len_ap = _lv_txt_ap_calc_bytes_cnt(raw_txt);
 157:Middlewares/lvgl/src/widgets/lv_table.c ****     table->cell_data[cell] = lv_mem_realloc(table->cell_data[cell], len_ap + 1);
 158:Middlewares/lvgl/src/widgets/lv_table.c ****     LV_ASSERT_MALLOC(table->cell_data[cell]);
 159:Middlewares/lvgl/src/widgets/lv_table.c ****     if(table->cell_data[cell] == NULL) {
 160:Middlewares/lvgl/src/widgets/lv_table.c ****         va_end(ap2);
 161:Middlewares/lvgl/src/widgets/lv_table.c ****         return;
 162:Middlewares/lvgl/src/widgets/lv_table.c ****     }
 163:Middlewares/lvgl/src/widgets/lv_table.c ****     _lv_txt_ap_proc(raw_txt, &table->cell_data[cell][1]);
 164:Middlewares/lvgl/src/widgets/lv_table.c **** 
 165:Middlewares/lvgl/src/widgets/lv_table.c ****     lv_mem_buf_release(raw_txt);
 166:Middlewares/lvgl/src/widgets/lv_table.c **** #else
 167:Middlewares/lvgl/src/widgets/lv_table.c ****     table->cell_data[cell] = lv_mem_realloc(table->cell_data[cell], len + 2); /*+1: trailing '\0; +
 168:Middlewares/lvgl/src/widgets/lv_table.c ****     LV_ASSERT_MALLOC(table->cell_data[cell]);
 169:Middlewares/lvgl/src/widgets/lv_table.c ****     if(table->cell_data[cell] == NULL) {
 170:Middlewares/lvgl/src/widgets/lv_table.c ****         va_end(ap2);
 171:Middlewares/lvgl/src/widgets/lv_table.c ****         return;
 172:Middlewares/lvgl/src/widgets/lv_table.c ****     }
 173:Middlewares/lvgl/src/widgets/lv_table.c **** 
 174:Middlewares/lvgl/src/widgets/lv_table.c ****     table->cell_data[cell][len + 1] = 0; /*Ensure NULL termination*/
 175:Middlewares/lvgl/src/widgets/lv_table.c **** 
 176:Middlewares/lvgl/src/widgets/lv_table.c ****     lv_vsnprintf(&table->cell_data[cell][1], len + 1, fmt, ap2);
 177:Middlewares/lvgl/src/widgets/lv_table.c **** #endif
 178:Middlewares/lvgl/src/widgets/lv_table.c **** 
 179:Middlewares/lvgl/src/widgets/lv_table.c ****     va_end(ap2);
 180:Middlewares/lvgl/src/widgets/lv_table.c **** 
 181:Middlewares/lvgl/src/widgets/lv_table.c ****     table->cell_data[cell][0] = ctrl;
 182:Middlewares/lvgl/src/widgets/lv_table.c **** 
 183:Middlewares/lvgl/src/widgets/lv_table.c ****     /*Refresh the row height*/
 184:Middlewares/lvgl/src/widgets/lv_table.c ****     lv_coord_t cell_left = lv_obj_get_style_pad_left(obj, LV_PART_ITEMS);
 185:Middlewares/lvgl/src/widgets/lv_table.c ****     lv_coord_t cell_right = lv_obj_get_style_pad_right(obj, LV_PART_ITEMS);
 186:Middlewares/lvgl/src/widgets/lv_table.c ****     lv_coord_t cell_top = lv_obj_get_style_pad_top(obj, LV_PART_ITEMS);
 187:Middlewares/lvgl/src/widgets/lv_table.c ****     lv_coord_t cell_bottom = lv_obj_get_style_pad_bottom(obj, LV_PART_ITEMS);
 188:Middlewares/lvgl/src/widgets/lv_table.c **** 
 189:Middlewares/lvgl/src/widgets/lv_table.c ****     lv_coord_t letter_space = lv_obj_get_style_text_letter_space(obj, LV_PART_ITEMS);
 190:Middlewares/lvgl/src/widgets/lv_table.c ****     lv_coord_t line_space = lv_obj_get_style_text_line_space(obj, LV_PART_ITEMS);
 191:Middlewares/lvgl/src/widgets/lv_table.c ****     const lv_font_t * font = lv_obj_get_style_text_font(obj, LV_PART_ITEMS);
 192:Middlewares/lvgl/src/widgets/lv_table.c **** 
 193:Middlewares/lvgl/src/widgets/lv_table.c ****     lv_coord_t h = get_row_height(obj, row, font, letter_space, line_space,
 194:Middlewares/lvgl/src/widgets/lv_table.c ****                                        cell_left, cell_right, cell_top, cell_bottom);
 195:Middlewares/lvgl/src/widgets/lv_table.c **** 
 196:Middlewares/lvgl/src/widgets/lv_table.c **** 
 197:Middlewares/lvgl/src/widgets/lv_table.c ****     lv_coord_t minh = lv_obj_get_style_min_height(obj, LV_PART_ITEMS);
 198:Middlewares/lvgl/src/widgets/lv_table.c ****     lv_coord_t maxh = lv_obj_get_style_max_height(obj, LV_PART_ITEMS);
 199:Middlewares/lvgl/src/widgets/lv_table.c **** 
 200:Middlewares/lvgl/src/widgets/lv_table.c ****     table->row_h[row] = LV_CLAMP(minh, h, maxh);
 201:Middlewares/lvgl/src/widgets/lv_table.c **** 
 202:Middlewares/lvgl/src/widgets/lv_table.c ****     lv_obj_invalidate(obj);
 203:Middlewares/lvgl/src/widgets/lv_table.c **** }
ARM GAS  /tmp/ccTYGLnU.s 			page 5


 204:Middlewares/lvgl/src/widgets/lv_table.c **** 
 205:Middlewares/lvgl/src/widgets/lv_table.c **** void lv_table_set_row_cnt(lv_obj_t * obj, uint16_t row_cnt)
 206:Middlewares/lvgl/src/widgets/lv_table.c **** {
 207:Middlewares/lvgl/src/widgets/lv_table.c ****     LV_ASSERT_OBJ(obj, MY_CLASS);
 208:Middlewares/lvgl/src/widgets/lv_table.c **** 
 209:Middlewares/lvgl/src/widgets/lv_table.c ****     lv_table_t * table = (lv_table_t *)obj;
 210:Middlewares/lvgl/src/widgets/lv_table.c ****     uint16_t old_row_cnt = table->row_cnt;
 211:Middlewares/lvgl/src/widgets/lv_table.c ****     table->row_cnt         = row_cnt;
 212:Middlewares/lvgl/src/widgets/lv_table.c **** 
 213:Middlewares/lvgl/src/widgets/lv_table.c ****     table->row_h = lv_mem_realloc(table->row_h, table->row_cnt * sizeof(table->row_h[0]));
 214:Middlewares/lvgl/src/widgets/lv_table.c ****     LV_ASSERT_MALLOC(table->row_h);
 215:Middlewares/lvgl/src/widgets/lv_table.c ****     if(table->row_h == NULL) return;
 216:Middlewares/lvgl/src/widgets/lv_table.c **** 
 217:Middlewares/lvgl/src/widgets/lv_table.c ****     /*Free the unused cells*/
 218:Middlewares/lvgl/src/widgets/lv_table.c ****     if(old_row_cnt > row_cnt) {
 219:Middlewares/lvgl/src/widgets/lv_table.c ****         uint16_t old_cell_cnt = old_row_cnt * table->col_cnt;
 220:Middlewares/lvgl/src/widgets/lv_table.c ****         uint32_t new_cell_cnt = table->col_cnt * table->row_cnt;
 221:Middlewares/lvgl/src/widgets/lv_table.c ****         uint32_t i;
 222:Middlewares/lvgl/src/widgets/lv_table.c ****         for(i = new_cell_cnt; i < old_cell_cnt; i++) {
 223:Middlewares/lvgl/src/widgets/lv_table.c ****             lv_mem_free(table->cell_data[i]);
 224:Middlewares/lvgl/src/widgets/lv_table.c ****         }
 225:Middlewares/lvgl/src/widgets/lv_table.c ****     }
 226:Middlewares/lvgl/src/widgets/lv_table.c **** 
 227:Middlewares/lvgl/src/widgets/lv_table.c ****     table->cell_data = lv_mem_realloc(table->cell_data, table->row_cnt * table->col_cnt * sizeof(ch
 228:Middlewares/lvgl/src/widgets/lv_table.c ****     LV_ASSERT_MALLOC(table->cell_data);
 229:Middlewares/lvgl/src/widgets/lv_table.c ****     if(table->cell_data == NULL) return;
 230:Middlewares/lvgl/src/widgets/lv_table.c **** 
 231:Middlewares/lvgl/src/widgets/lv_table.c ****     /*Initialize the new fields*/
 232:Middlewares/lvgl/src/widgets/lv_table.c ****     if(old_row_cnt < row_cnt) {
 233:Middlewares/lvgl/src/widgets/lv_table.c ****         uint32_t old_cell_cnt = old_row_cnt * table->col_cnt;
 234:Middlewares/lvgl/src/widgets/lv_table.c ****         uint32_t new_cell_cnt = table->col_cnt * table->row_cnt;
 235:Middlewares/lvgl/src/widgets/lv_table.c ****         lv_memset_00(&table->cell_data[old_cell_cnt], (new_cell_cnt - old_cell_cnt) * sizeof(table-
 236:Middlewares/lvgl/src/widgets/lv_table.c ****     }
 237:Middlewares/lvgl/src/widgets/lv_table.c **** 
 238:Middlewares/lvgl/src/widgets/lv_table.c ****     refr_size(obj, 0) ;
 239:Middlewares/lvgl/src/widgets/lv_table.c **** }
 240:Middlewares/lvgl/src/widgets/lv_table.c **** 
 241:Middlewares/lvgl/src/widgets/lv_table.c **** void lv_table_set_col_cnt(lv_obj_t * obj, uint16_t col_cnt)
 242:Middlewares/lvgl/src/widgets/lv_table.c **** {
 243:Middlewares/lvgl/src/widgets/lv_table.c ****     LV_ASSERT_OBJ(obj, MY_CLASS);
 244:Middlewares/lvgl/src/widgets/lv_table.c **** 
 245:Middlewares/lvgl/src/widgets/lv_table.c ****     lv_table_t * table = (lv_table_t *)obj;
 246:Middlewares/lvgl/src/widgets/lv_table.c ****     uint16_t old_col_cnt = table->col_cnt;
 247:Middlewares/lvgl/src/widgets/lv_table.c ****     table->col_cnt         = col_cnt;
 248:Middlewares/lvgl/src/widgets/lv_table.c ****     table->col_w = lv_mem_realloc(table->col_w, col_cnt * sizeof(table->row_h[0]));
 249:Middlewares/lvgl/src/widgets/lv_table.c ****     LV_ASSERT_MALLOC(table->col_w);
 250:Middlewares/lvgl/src/widgets/lv_table.c ****     if(table->col_w == NULL) return;
 251:Middlewares/lvgl/src/widgets/lv_table.c **** 
 252:Middlewares/lvgl/src/widgets/lv_table.c ****     /*Free the unused cells*/
 253:Middlewares/lvgl/src/widgets/lv_table.c ****     if(old_col_cnt > col_cnt) {
 254:Middlewares/lvgl/src/widgets/lv_table.c ****        uint16_t old_cell_cnt = old_col_cnt * table->row_cnt;
 255:Middlewares/lvgl/src/widgets/lv_table.c ****        uint32_t new_cell_cnt = table->col_cnt * table->row_cnt;
 256:Middlewares/lvgl/src/widgets/lv_table.c ****        uint32_t i;
 257:Middlewares/lvgl/src/widgets/lv_table.c ****        for(i = new_cell_cnt; i < old_cell_cnt; i++) {
 258:Middlewares/lvgl/src/widgets/lv_table.c ****            lv_mem_free(table->cell_data[i]);
 259:Middlewares/lvgl/src/widgets/lv_table.c ****        }
 260:Middlewares/lvgl/src/widgets/lv_table.c ****    }
ARM GAS  /tmp/ccTYGLnU.s 			page 6


 261:Middlewares/lvgl/src/widgets/lv_table.c **** 
 262:Middlewares/lvgl/src/widgets/lv_table.c ****     char ** new_cell_data = lv_mem_alloc(table->row_cnt * table->col_cnt * sizeof(char *));
 263:Middlewares/lvgl/src/widgets/lv_table.c ****     LV_ASSERT_MALLOC(new_cell_data);
 264:Middlewares/lvgl/src/widgets/lv_table.c ****     if(new_cell_data == NULL) return;
 265:Middlewares/lvgl/src/widgets/lv_table.c ****     uint32_t new_cell_cnt = table->col_cnt * table->row_cnt;
 266:Middlewares/lvgl/src/widgets/lv_table.c ****     lv_memset_00(new_cell_data, new_cell_cnt * sizeof(table->cell_data[0]));
 267:Middlewares/lvgl/src/widgets/lv_table.c **** 
 268:Middlewares/lvgl/src/widgets/lv_table.c ****     /*Initialize the new fields*/
 269:Middlewares/lvgl/src/widgets/lv_table.c ****     if(old_col_cnt < col_cnt) {
 270:Middlewares/lvgl/src/widgets/lv_table.c ****         uint32_t col;
 271:Middlewares/lvgl/src/widgets/lv_table.c ****         for(col = old_col_cnt; col < col_cnt; col++) {
 272:Middlewares/lvgl/src/widgets/lv_table.c ****             table->col_w[col] = LV_DPI_DEF;
 273:Middlewares/lvgl/src/widgets/lv_table.c ****         }
 274:Middlewares/lvgl/src/widgets/lv_table.c ****     }
 275:Middlewares/lvgl/src/widgets/lv_table.c **** 
 276:Middlewares/lvgl/src/widgets/lv_table.c ****     /*The new column(s) messes up the mapping of `cell_data`*/
 277:Middlewares/lvgl/src/widgets/lv_table.c ****     uint32_t old_col_start;
 278:Middlewares/lvgl/src/widgets/lv_table.c ****     uint32_t new_col_start;
 279:Middlewares/lvgl/src/widgets/lv_table.c ****     uint32_t min_col_cnt = LV_MIN(old_col_cnt, col_cnt);
 280:Middlewares/lvgl/src/widgets/lv_table.c ****     uint32_t row;
 281:Middlewares/lvgl/src/widgets/lv_table.c ****     for(row = 0; row < table->row_cnt; row++) {
 282:Middlewares/lvgl/src/widgets/lv_table.c ****         old_col_start = row * old_col_cnt;
 283:Middlewares/lvgl/src/widgets/lv_table.c ****         new_col_start = row * col_cnt;
 284:Middlewares/lvgl/src/widgets/lv_table.c **** 
 285:Middlewares/lvgl/src/widgets/lv_table.c ****         lv_memcpy_small(&new_cell_data[new_col_start], &table->cell_data[old_col_start], sizeof(new
 286:Middlewares/lvgl/src/widgets/lv_table.c ****     }
 287:Middlewares/lvgl/src/widgets/lv_table.c **** 
 288:Middlewares/lvgl/src/widgets/lv_table.c ****     lv_mem_free(table->cell_data);
 289:Middlewares/lvgl/src/widgets/lv_table.c ****     table->cell_data = new_cell_data;
 290:Middlewares/lvgl/src/widgets/lv_table.c **** 
 291:Middlewares/lvgl/src/widgets/lv_table.c **** 
 292:Middlewares/lvgl/src/widgets/lv_table.c ****     refr_size(obj, 0) ;
 293:Middlewares/lvgl/src/widgets/lv_table.c **** }
 294:Middlewares/lvgl/src/widgets/lv_table.c **** 
 295:Middlewares/lvgl/src/widgets/lv_table.c **** void lv_table_set_col_width(lv_obj_t * obj, uint16_t col_id, lv_coord_t w)
 296:Middlewares/lvgl/src/widgets/lv_table.c **** {
 297:Middlewares/lvgl/src/widgets/lv_table.c ****     LV_ASSERT_OBJ(obj, MY_CLASS);
 298:Middlewares/lvgl/src/widgets/lv_table.c **** 
 299:Middlewares/lvgl/src/widgets/lv_table.c ****     lv_table_t * table = (lv_table_t *)obj;
 300:Middlewares/lvgl/src/widgets/lv_table.c **** 
 301:Middlewares/lvgl/src/widgets/lv_table.c ****     /*Auto expand*/
 302:Middlewares/lvgl/src/widgets/lv_table.c ****     if(col_id >= table->col_cnt) lv_table_set_col_cnt(obj, col_id + 1);
 303:Middlewares/lvgl/src/widgets/lv_table.c **** 
 304:Middlewares/lvgl/src/widgets/lv_table.c ****     table->col_w[col_id] = w;
 305:Middlewares/lvgl/src/widgets/lv_table.c ****     refr_size(obj, 0) ;
 306:Middlewares/lvgl/src/widgets/lv_table.c **** }
 307:Middlewares/lvgl/src/widgets/lv_table.c **** 
 308:Middlewares/lvgl/src/widgets/lv_table.c **** void lv_table_add_cell_ctrl(lv_obj_t * obj, uint16_t row, uint16_t col, lv_table_cell_ctrl_t ctrl)
 309:Middlewares/lvgl/src/widgets/lv_table.c **** {
 310:Middlewares/lvgl/src/widgets/lv_table.c ****     LV_ASSERT_OBJ(obj, MY_CLASS);
 311:Middlewares/lvgl/src/widgets/lv_table.c **** 
 312:Middlewares/lvgl/src/widgets/lv_table.c ****     lv_table_t * table = (lv_table_t *)obj;
 313:Middlewares/lvgl/src/widgets/lv_table.c **** 
 314:Middlewares/lvgl/src/widgets/lv_table.c ****     /*Auto expand*/
 315:Middlewares/lvgl/src/widgets/lv_table.c ****     if(col >= table->col_cnt) lv_table_set_col_cnt(obj, col + 1);
 316:Middlewares/lvgl/src/widgets/lv_table.c ****     if(row >= table->row_cnt) lv_table_set_row_cnt(obj, row + 1);
 317:Middlewares/lvgl/src/widgets/lv_table.c **** 
ARM GAS  /tmp/ccTYGLnU.s 			page 7


 318:Middlewares/lvgl/src/widgets/lv_table.c ****     uint32_t cell = row * table->col_cnt + col;
 319:Middlewares/lvgl/src/widgets/lv_table.c **** 
 320:Middlewares/lvgl/src/widgets/lv_table.c ****     if(table->cell_data[cell] == NULL) {
 321:Middlewares/lvgl/src/widgets/lv_table.c ****         table->cell_data[cell]    = lv_mem_alloc(2); /*+1: trailing '\0; +1: format byte*/
 322:Middlewares/lvgl/src/widgets/lv_table.c ****         LV_ASSERT_MALLOC(table->cell_data[cell]);
 323:Middlewares/lvgl/src/widgets/lv_table.c ****         if(table->cell_data[cell] == NULL) return;
 324:Middlewares/lvgl/src/widgets/lv_table.c **** 
 325:Middlewares/lvgl/src/widgets/lv_table.c ****         table->cell_data[cell][0] = 0;
 326:Middlewares/lvgl/src/widgets/lv_table.c ****         table->cell_data[cell][1] = '\0';
 327:Middlewares/lvgl/src/widgets/lv_table.c ****     }
 328:Middlewares/lvgl/src/widgets/lv_table.c **** 
 329:Middlewares/lvgl/src/widgets/lv_table.c ****     table->cell_data[cell][0] |= ctrl;
 330:Middlewares/lvgl/src/widgets/lv_table.c **** }
 331:Middlewares/lvgl/src/widgets/lv_table.c **** 
 332:Middlewares/lvgl/src/widgets/lv_table.c **** void lv_table_clear_cell_ctrl(lv_obj_t * obj, uint16_t row, uint16_t col, lv_table_cell_ctrl_t ctrl
 333:Middlewares/lvgl/src/widgets/lv_table.c **** {
 334:Middlewares/lvgl/src/widgets/lv_table.c ****     LV_ASSERT_OBJ(obj, MY_CLASS);
 335:Middlewares/lvgl/src/widgets/lv_table.c **** 
 336:Middlewares/lvgl/src/widgets/lv_table.c ****     lv_table_t * table = (lv_table_t *)obj;
 337:Middlewares/lvgl/src/widgets/lv_table.c **** 
 338:Middlewares/lvgl/src/widgets/lv_table.c ****     /*Auto expand*/
 339:Middlewares/lvgl/src/widgets/lv_table.c ****     if(col >= table->col_cnt) lv_table_set_col_cnt(obj, col + 1);
 340:Middlewares/lvgl/src/widgets/lv_table.c ****     if(row >= table->row_cnt) lv_table_set_row_cnt(obj, row + 1);
 341:Middlewares/lvgl/src/widgets/lv_table.c **** 
 342:Middlewares/lvgl/src/widgets/lv_table.c ****     uint32_t cell = row * table->col_cnt + col;
 343:Middlewares/lvgl/src/widgets/lv_table.c **** 
 344:Middlewares/lvgl/src/widgets/lv_table.c ****     if(table->cell_data[cell] == NULL) {
 345:Middlewares/lvgl/src/widgets/lv_table.c ****         table->cell_data[cell]    = lv_mem_alloc(2); /*+1: trailing '\0; +1: format byte*/
 346:Middlewares/lvgl/src/widgets/lv_table.c ****         LV_ASSERT_MALLOC(table->cell_data[cell]);
 347:Middlewares/lvgl/src/widgets/lv_table.c ****         if(table->cell_data[cell] == NULL) return;
 348:Middlewares/lvgl/src/widgets/lv_table.c **** 
 349:Middlewares/lvgl/src/widgets/lv_table.c ****         table->cell_data[cell][0] = 0;
 350:Middlewares/lvgl/src/widgets/lv_table.c ****         table->cell_data[cell][1] = '\0';
 351:Middlewares/lvgl/src/widgets/lv_table.c ****     }
 352:Middlewares/lvgl/src/widgets/lv_table.c **** 
 353:Middlewares/lvgl/src/widgets/lv_table.c ****     table->cell_data[cell][0] &= (~ctrl);
 354:Middlewares/lvgl/src/widgets/lv_table.c **** }
 355:Middlewares/lvgl/src/widgets/lv_table.c **** 
 356:Middlewares/lvgl/src/widgets/lv_table.c **** /*=====================
 357:Middlewares/lvgl/src/widgets/lv_table.c ****  * Getter functions
 358:Middlewares/lvgl/src/widgets/lv_table.c ****  *====================*/
 359:Middlewares/lvgl/src/widgets/lv_table.c **** 
 360:Middlewares/lvgl/src/widgets/lv_table.c **** const char * lv_table_get_cell_value(lv_obj_t * obj, uint16_t row, uint16_t col)
 361:Middlewares/lvgl/src/widgets/lv_table.c **** {
 362:Middlewares/lvgl/src/widgets/lv_table.c ****     LV_ASSERT_OBJ(obj, MY_CLASS);
 363:Middlewares/lvgl/src/widgets/lv_table.c **** 
 364:Middlewares/lvgl/src/widgets/lv_table.c ****     lv_table_t * table = (lv_table_t *)obj;
 365:Middlewares/lvgl/src/widgets/lv_table.c ****     if(row >= table->row_cnt || col >= table->col_cnt) {
 366:Middlewares/lvgl/src/widgets/lv_table.c ****         LV_LOG_WARN("lv_table_set_cell_value: invalid row or column");
 367:Middlewares/lvgl/src/widgets/lv_table.c ****         return "";
 368:Middlewares/lvgl/src/widgets/lv_table.c ****     }
 369:Middlewares/lvgl/src/widgets/lv_table.c ****     uint32_t cell = row * table->col_cnt + col;
 370:Middlewares/lvgl/src/widgets/lv_table.c **** 
 371:Middlewares/lvgl/src/widgets/lv_table.c ****     if(table->cell_data[cell] == NULL) return "";
 372:Middlewares/lvgl/src/widgets/lv_table.c **** 
 373:Middlewares/lvgl/src/widgets/lv_table.c ****     return &table->cell_data[cell][1]; /*Skip the format byte*/
 374:Middlewares/lvgl/src/widgets/lv_table.c **** }
ARM GAS  /tmp/ccTYGLnU.s 			page 8


 375:Middlewares/lvgl/src/widgets/lv_table.c **** 
 376:Middlewares/lvgl/src/widgets/lv_table.c **** uint16_t lv_table_get_row_cnt(lv_obj_t * obj)
 377:Middlewares/lvgl/src/widgets/lv_table.c **** {
 378:Middlewares/lvgl/src/widgets/lv_table.c ****     LV_ASSERT_OBJ(obj, MY_CLASS);
 379:Middlewares/lvgl/src/widgets/lv_table.c **** 
 380:Middlewares/lvgl/src/widgets/lv_table.c ****     lv_table_t * table = (lv_table_t *)obj;
 381:Middlewares/lvgl/src/widgets/lv_table.c ****     return table->row_cnt;
 382:Middlewares/lvgl/src/widgets/lv_table.c **** }
 383:Middlewares/lvgl/src/widgets/lv_table.c **** 
 384:Middlewares/lvgl/src/widgets/lv_table.c **** uint16_t lv_table_get_col_cnt(lv_obj_t * obj)
 385:Middlewares/lvgl/src/widgets/lv_table.c **** {
 386:Middlewares/lvgl/src/widgets/lv_table.c ****     LV_ASSERT_OBJ(obj, MY_CLASS);
 387:Middlewares/lvgl/src/widgets/lv_table.c **** 
 388:Middlewares/lvgl/src/widgets/lv_table.c ****     lv_table_t * table = (lv_table_t *)obj;
 389:Middlewares/lvgl/src/widgets/lv_table.c ****     return table->col_cnt;
 390:Middlewares/lvgl/src/widgets/lv_table.c **** }
 391:Middlewares/lvgl/src/widgets/lv_table.c **** 
 392:Middlewares/lvgl/src/widgets/lv_table.c **** lv_coord_t lv_table_get_col_width(lv_obj_t * obj, uint16_t col)
 393:Middlewares/lvgl/src/widgets/lv_table.c **** {
 394:Middlewares/lvgl/src/widgets/lv_table.c ****     LV_ASSERT_OBJ(obj, MY_CLASS);
 395:Middlewares/lvgl/src/widgets/lv_table.c **** 
 396:Middlewares/lvgl/src/widgets/lv_table.c ****     lv_table_t * table = (lv_table_t *)obj;
 397:Middlewares/lvgl/src/widgets/lv_table.c **** 
 398:Middlewares/lvgl/src/widgets/lv_table.c ****     if(col >= table->col_cnt) {
 399:Middlewares/lvgl/src/widgets/lv_table.c ****         LV_LOG_WARN("lv_table_set_col_width: too big 'col_id'. Must be < LV_TABLE_COL_MAX.");
 400:Middlewares/lvgl/src/widgets/lv_table.c ****         return 0;
 401:Middlewares/lvgl/src/widgets/lv_table.c ****     }
 402:Middlewares/lvgl/src/widgets/lv_table.c **** 
 403:Middlewares/lvgl/src/widgets/lv_table.c ****     return table->col_w[col];
 404:Middlewares/lvgl/src/widgets/lv_table.c **** }
 405:Middlewares/lvgl/src/widgets/lv_table.c **** 
 406:Middlewares/lvgl/src/widgets/lv_table.c **** bool lv_table_has_cell_ctrl(lv_obj_t * obj, uint16_t row, uint16_t col, lv_table_cell_ctrl_t ctrl)
 407:Middlewares/lvgl/src/widgets/lv_table.c **** {
 408:Middlewares/lvgl/src/widgets/lv_table.c ****     LV_ASSERT_OBJ(obj, MY_CLASS);
 409:Middlewares/lvgl/src/widgets/lv_table.c **** 
 410:Middlewares/lvgl/src/widgets/lv_table.c ****     lv_table_t * table = (lv_table_t *)obj;
 411:Middlewares/lvgl/src/widgets/lv_table.c ****     if(row >= table->row_cnt || col >= table->col_cnt) {
 412:Middlewares/lvgl/src/widgets/lv_table.c ****         LV_LOG_WARN("lv_table_get_cell_crop: invalid row or column");
 413:Middlewares/lvgl/src/widgets/lv_table.c ****         return false;
 414:Middlewares/lvgl/src/widgets/lv_table.c ****     }
 415:Middlewares/lvgl/src/widgets/lv_table.c ****     uint32_t cell = row * table->col_cnt + col;
 416:Middlewares/lvgl/src/widgets/lv_table.c **** 
 417:Middlewares/lvgl/src/widgets/lv_table.c ****     if(table->cell_data[cell] == NULL) return false;
 418:Middlewares/lvgl/src/widgets/lv_table.c ****     else return (table->cell_data[cell][0] & ctrl) == ctrl ? true : false;
 419:Middlewares/lvgl/src/widgets/lv_table.c **** }
 420:Middlewares/lvgl/src/widgets/lv_table.c **** 
 421:Middlewares/lvgl/src/widgets/lv_table.c **** void lv_table_get_selected_cell(lv_obj_t * obj, uint16_t * row, uint16_t * col)
 422:Middlewares/lvgl/src/widgets/lv_table.c **** {
 423:Middlewares/lvgl/src/widgets/lv_table.c ****     lv_table_t * table = (lv_table_t *)obj;
 424:Middlewares/lvgl/src/widgets/lv_table.c ****     *row = table->row_act;
 425:Middlewares/lvgl/src/widgets/lv_table.c ****     *col = table->col_act;
 426:Middlewares/lvgl/src/widgets/lv_table.c **** }
 427:Middlewares/lvgl/src/widgets/lv_table.c **** 
 428:Middlewares/lvgl/src/widgets/lv_table.c **** /**********************
 429:Middlewares/lvgl/src/widgets/lv_table.c ****  *   STATIC FUNCTIONS
 430:Middlewares/lvgl/src/widgets/lv_table.c ****  **********************/
 431:Middlewares/lvgl/src/widgets/lv_table.c **** 
ARM GAS  /tmp/ccTYGLnU.s 			page 9


 432:Middlewares/lvgl/src/widgets/lv_table.c **** static void lv_table_constructor(const lv_obj_class_t * class_p, lv_obj_t * obj)
 433:Middlewares/lvgl/src/widgets/lv_table.c **** {
 434:Middlewares/lvgl/src/widgets/lv_table.c ****     LV_UNUSED(class_p);
 435:Middlewares/lvgl/src/widgets/lv_table.c ****     LV_TRACE_OBJ_CREATE("begin");
 436:Middlewares/lvgl/src/widgets/lv_table.c **** 
 437:Middlewares/lvgl/src/widgets/lv_table.c ****     lv_table_t * table = (lv_table_t *)obj;
 438:Middlewares/lvgl/src/widgets/lv_table.c **** 
 439:Middlewares/lvgl/src/widgets/lv_table.c ****     table->col_cnt = 1;
 440:Middlewares/lvgl/src/widgets/lv_table.c ****     table->row_cnt = 1;
 441:Middlewares/lvgl/src/widgets/lv_table.c ****     table->col_w = lv_mem_alloc(table->col_cnt * sizeof(table->col_w[0]));
 442:Middlewares/lvgl/src/widgets/lv_table.c ****     table->row_h = lv_mem_alloc(table->row_cnt * sizeof(table->row_h[0]));
 443:Middlewares/lvgl/src/widgets/lv_table.c ****     table->col_w[0] = LV_DPI_DEF;
 444:Middlewares/lvgl/src/widgets/lv_table.c ****     table->row_h[0] = LV_DPI_DEF;
 445:Middlewares/lvgl/src/widgets/lv_table.c ****     table->cell_data = lv_mem_realloc(table->cell_data, table->row_cnt * table->col_cnt * sizeof(ch
 446:Middlewares/lvgl/src/widgets/lv_table.c ****     table->cell_data[0] = NULL;
 447:Middlewares/lvgl/src/widgets/lv_table.c **** 
 448:Middlewares/lvgl/src/widgets/lv_table.c ****     LV_TRACE_OBJ_CREATE("finished");
 449:Middlewares/lvgl/src/widgets/lv_table.c **** }
 450:Middlewares/lvgl/src/widgets/lv_table.c **** 
 451:Middlewares/lvgl/src/widgets/lv_table.c **** static void lv_table_destructor(const lv_obj_class_t * class_p, lv_obj_t * obj)
 452:Middlewares/lvgl/src/widgets/lv_table.c **** {
 453:Middlewares/lvgl/src/widgets/lv_table.c ****     LV_UNUSED(class_p);
 454:Middlewares/lvgl/src/widgets/lv_table.c ****     lv_table_t * table = (lv_table_t *)obj;
 455:Middlewares/lvgl/src/widgets/lv_table.c ****     /*Free the cell texts*/
 456:Middlewares/lvgl/src/widgets/lv_table.c ****     uint16_t i;
 457:Middlewares/lvgl/src/widgets/lv_table.c ****     for(i = 0; i < table->col_cnt * table->row_cnt; i++) {
 458:Middlewares/lvgl/src/widgets/lv_table.c ****         if(table->cell_data[i]) {
 459:Middlewares/lvgl/src/widgets/lv_table.c ****             lv_mem_free(table->cell_data[i]);
 460:Middlewares/lvgl/src/widgets/lv_table.c ****             table->cell_data[i] = NULL;
 461:Middlewares/lvgl/src/widgets/lv_table.c ****         }
 462:Middlewares/lvgl/src/widgets/lv_table.c ****     }
 463:Middlewares/lvgl/src/widgets/lv_table.c **** 
 464:Middlewares/lvgl/src/widgets/lv_table.c ****     if(table->cell_data) lv_mem_free(table->cell_data);
 465:Middlewares/lvgl/src/widgets/lv_table.c ****     if(table->row_h) lv_mem_free(table->row_h);
 466:Middlewares/lvgl/src/widgets/lv_table.c **** }
 467:Middlewares/lvgl/src/widgets/lv_table.c **** 
 468:Middlewares/lvgl/src/widgets/lv_table.c **** static void lv_table_event(const lv_obj_class_t * class_p, lv_event_t * e)
 469:Middlewares/lvgl/src/widgets/lv_table.c **** {
 470:Middlewares/lvgl/src/widgets/lv_table.c ****     LV_UNUSED(class_p);
 471:Middlewares/lvgl/src/widgets/lv_table.c **** 
 472:Middlewares/lvgl/src/widgets/lv_table.c ****     lv_res_t res;
 473:Middlewares/lvgl/src/widgets/lv_table.c **** 
 474:Middlewares/lvgl/src/widgets/lv_table.c ****     /*Call the ancestor's event handler*/
 475:Middlewares/lvgl/src/widgets/lv_table.c ****     res = lv_obj_event_base(MY_CLASS, e);
 476:Middlewares/lvgl/src/widgets/lv_table.c ****     if(res != LV_RES_OK) return;
 477:Middlewares/lvgl/src/widgets/lv_table.c **** 
 478:Middlewares/lvgl/src/widgets/lv_table.c ****     lv_event_code_t code = lv_event_get_code(e);
 479:Middlewares/lvgl/src/widgets/lv_table.c ****     lv_obj_t * obj = lv_event_get_target(e);
 480:Middlewares/lvgl/src/widgets/lv_table.c ****     lv_table_t * table = (lv_table_t *)obj;
 481:Middlewares/lvgl/src/widgets/lv_table.c **** 
 482:Middlewares/lvgl/src/widgets/lv_table.c ****     if(code == LV_EVENT_STYLE_CHANGED) {
 483:Middlewares/lvgl/src/widgets/lv_table.c ****         refr_size(obj, 0);
 484:Middlewares/lvgl/src/widgets/lv_table.c ****     }
 485:Middlewares/lvgl/src/widgets/lv_table.c ****     else if(code == LV_EVENT_GET_SELF_SIZE) {
 486:Middlewares/lvgl/src/widgets/lv_table.c ****         lv_point_t * p = lv_event_get_param(e);
 487:Middlewares/lvgl/src/widgets/lv_table.c ****         uint32_t i;
 488:Middlewares/lvgl/src/widgets/lv_table.c ****         lv_coord_t w = 0;
ARM GAS  /tmp/ccTYGLnU.s 			page 10


 489:Middlewares/lvgl/src/widgets/lv_table.c ****         for(i = 0; i < table->col_cnt; i++) w += table->col_w[i];
 490:Middlewares/lvgl/src/widgets/lv_table.c **** 
 491:Middlewares/lvgl/src/widgets/lv_table.c ****         lv_coord_t h = 0;
 492:Middlewares/lvgl/src/widgets/lv_table.c ****         for(i = 0; i < table->row_cnt; i++) h += table->row_h[i];
 493:Middlewares/lvgl/src/widgets/lv_table.c **** 
 494:Middlewares/lvgl/src/widgets/lv_table.c ****         p->x = w;
 495:Middlewares/lvgl/src/widgets/lv_table.c ****         p->y = h;
 496:Middlewares/lvgl/src/widgets/lv_table.c ****     }
 497:Middlewares/lvgl/src/widgets/lv_table.c ****     else if(code == LV_EVENT_PRESSED || code == LV_EVENT_PRESSING) {
 498:Middlewares/lvgl/src/widgets/lv_table.c ****         uint16_t col;
 499:Middlewares/lvgl/src/widgets/lv_table.c ****         uint16_t row;
 500:Middlewares/lvgl/src/widgets/lv_table.c ****         lv_res_t pr_res = get_pressed_cell(obj, &row, &col);
 501:Middlewares/lvgl/src/widgets/lv_table.c **** 
 502:Middlewares/lvgl/src/widgets/lv_table.c ****         if(pr_res == LV_RES_OK && (table->col_act != col || table->row_act != row)) {
 503:Middlewares/lvgl/src/widgets/lv_table.c ****             table->col_act = col;
 504:Middlewares/lvgl/src/widgets/lv_table.c ****             table->row_act = row;
 505:Middlewares/lvgl/src/widgets/lv_table.c ****         }
 506:Middlewares/lvgl/src/widgets/lv_table.c ****         lv_obj_invalidate(obj);
 507:Middlewares/lvgl/src/widgets/lv_table.c ****     }
 508:Middlewares/lvgl/src/widgets/lv_table.c ****     else if(code == LV_EVENT_RELEASED) {
 509:Middlewares/lvgl/src/widgets/lv_table.c ****         lv_obj_invalidate(obj);
 510:Middlewares/lvgl/src/widgets/lv_table.c ****         lv_indev_t * indev = lv_indev_get_act();
 511:Middlewares/lvgl/src/widgets/lv_table.c ****         lv_obj_t * scroll_obj = lv_indev_get_scroll_obj(indev);
 512:Middlewares/lvgl/src/widgets/lv_table.c ****         if(table->col_act != LV_TABLE_CELL_NONE && table->row_act != LV_TABLE_CELL_NONE && scroll_o
 513:Middlewares/lvgl/src/widgets/lv_table.c ****             res = lv_event_send(obj, LV_EVENT_VALUE_CHANGED, NULL);
 514:Middlewares/lvgl/src/widgets/lv_table.c ****             if(res != LV_RES_OK) return;
 515:Middlewares/lvgl/src/widgets/lv_table.c ****         }
 516:Middlewares/lvgl/src/widgets/lv_table.c **** 
 517:Middlewares/lvgl/src/widgets/lv_table.c ****         lv_indev_type_t indev_type = lv_indev_get_type(lv_indev_get_act());
 518:Middlewares/lvgl/src/widgets/lv_table.c ****         if(indev_type == LV_INDEV_TYPE_POINTER || indev_type == LV_INDEV_TYPE_BUTTON) {
 519:Middlewares/lvgl/src/widgets/lv_table.c ****             table->col_act = LV_TABLE_CELL_NONE;
 520:Middlewares/lvgl/src/widgets/lv_table.c ****             table->row_act = LV_TABLE_CELL_NONE;
 521:Middlewares/lvgl/src/widgets/lv_table.c ****         }
 522:Middlewares/lvgl/src/widgets/lv_table.c ****     }
 523:Middlewares/lvgl/src/widgets/lv_table.c ****     else if(code == LV_EVENT_FOCUSED) {
 524:Middlewares/lvgl/src/widgets/lv_table.c ****         lv_obj_invalidate(obj);
 525:Middlewares/lvgl/src/widgets/lv_table.c ****     } else if(code == LV_EVENT_KEY) {
 526:Middlewares/lvgl/src/widgets/lv_table.c ****         int32_t c = *((int32_t *)lv_event_get_param(e));
 527:Middlewares/lvgl/src/widgets/lv_table.c ****         int32_t col = table->col_act;
 528:Middlewares/lvgl/src/widgets/lv_table.c ****         int32_t row = table->row_act;
 529:Middlewares/lvgl/src/widgets/lv_table.c ****         if(col == LV_TABLE_CELL_NONE || row == LV_TABLE_CELL_NONE) {
 530:Middlewares/lvgl/src/widgets/lv_table.c ****             table->col_act = 0;
 531:Middlewares/lvgl/src/widgets/lv_table.c ****             table->row_act = 0;
 532:Middlewares/lvgl/src/widgets/lv_table.c ****             lv_obj_invalidate(obj);
 533:Middlewares/lvgl/src/widgets/lv_table.c ****             return;
 534:Middlewares/lvgl/src/widgets/lv_table.c ****         }
 535:Middlewares/lvgl/src/widgets/lv_table.c **** 
 536:Middlewares/lvgl/src/widgets/lv_table.c ****         if(col >= table->col_cnt) col = 0;
 537:Middlewares/lvgl/src/widgets/lv_table.c ****         if(row >= table->row_cnt) row = 0;
 538:Middlewares/lvgl/src/widgets/lv_table.c **** 
 539:Middlewares/lvgl/src/widgets/lv_table.c ****         if(c == LV_KEY_LEFT) col--;
 540:Middlewares/lvgl/src/widgets/lv_table.c ****         else if(c == LV_KEY_RIGHT) col++;
 541:Middlewares/lvgl/src/widgets/lv_table.c ****         else if(c == LV_KEY_UP) row--;
 542:Middlewares/lvgl/src/widgets/lv_table.c ****         else if(c == LV_KEY_DOWN) row++;
 543:Middlewares/lvgl/src/widgets/lv_table.c ****         else return;
 544:Middlewares/lvgl/src/widgets/lv_table.c **** 
 545:Middlewares/lvgl/src/widgets/lv_table.c ****         if(col >= table->col_cnt) {
ARM GAS  /tmp/ccTYGLnU.s 			page 11


 546:Middlewares/lvgl/src/widgets/lv_table.c ****             if(row < table->row_cnt - 1) {
 547:Middlewares/lvgl/src/widgets/lv_table.c ****                 col = 0;
 548:Middlewares/lvgl/src/widgets/lv_table.c ****                 row++;
 549:Middlewares/lvgl/src/widgets/lv_table.c ****             } else {
 550:Middlewares/lvgl/src/widgets/lv_table.c ****                 col = table->col_cnt - 1;
 551:Middlewares/lvgl/src/widgets/lv_table.c ****             }
 552:Middlewares/lvgl/src/widgets/lv_table.c ****         } else if (col < 0) {
 553:Middlewares/lvgl/src/widgets/lv_table.c ****             if(row != 0) {
 554:Middlewares/lvgl/src/widgets/lv_table.c ****                 col = table->col_cnt - 1;
 555:Middlewares/lvgl/src/widgets/lv_table.c ****                 row--;
 556:Middlewares/lvgl/src/widgets/lv_table.c ****             } else {
 557:Middlewares/lvgl/src/widgets/lv_table.c ****                 col = 0;
 558:Middlewares/lvgl/src/widgets/lv_table.c ****             }
 559:Middlewares/lvgl/src/widgets/lv_table.c ****         }
 560:Middlewares/lvgl/src/widgets/lv_table.c **** 
 561:Middlewares/lvgl/src/widgets/lv_table.c ****         if(row >= table->row_cnt) {
 562:Middlewares/lvgl/src/widgets/lv_table.c ****             row = table->row_cnt - 1;
 563:Middlewares/lvgl/src/widgets/lv_table.c ****         } else if(row < 0) {
 564:Middlewares/lvgl/src/widgets/lv_table.c ****             row = 0;
 565:Middlewares/lvgl/src/widgets/lv_table.c ****         }
 566:Middlewares/lvgl/src/widgets/lv_table.c **** 
 567:Middlewares/lvgl/src/widgets/lv_table.c ****         if(table->col_act != col || table->row_act != row) {
 568:Middlewares/lvgl/src/widgets/lv_table.c ****             table->col_act = col;
 569:Middlewares/lvgl/src/widgets/lv_table.c ****             table->row_act = row;
 570:Middlewares/lvgl/src/widgets/lv_table.c ****             lv_obj_invalidate(obj);
 571:Middlewares/lvgl/src/widgets/lv_table.c **** 
 572:Middlewares/lvgl/src/widgets/lv_table.c ****             res = lv_event_send(obj, LV_EVENT_VALUE_CHANGED, NULL);
 573:Middlewares/lvgl/src/widgets/lv_table.c ****             if(res != LV_RES_OK) return;
 574:Middlewares/lvgl/src/widgets/lv_table.c ****         }
 575:Middlewares/lvgl/src/widgets/lv_table.c ****     } else if(code == LV_EVENT_DRAW_MAIN) {
 576:Middlewares/lvgl/src/widgets/lv_table.c ****         draw_main(e);
 577:Middlewares/lvgl/src/widgets/lv_table.c ****     }
 578:Middlewares/lvgl/src/widgets/lv_table.c **** }
 579:Middlewares/lvgl/src/widgets/lv_table.c **** 
 580:Middlewares/lvgl/src/widgets/lv_table.c **** 
 581:Middlewares/lvgl/src/widgets/lv_table.c **** static void draw_main(lv_event_t * e)
 582:Middlewares/lvgl/src/widgets/lv_table.c **** {
 583:Middlewares/lvgl/src/widgets/lv_table.c ****     lv_obj_t * obj = lv_event_get_target(e);
 584:Middlewares/lvgl/src/widgets/lv_table.c ****     lv_table_t * table = (lv_table_t *)obj;
 585:Middlewares/lvgl/src/widgets/lv_table.c ****     const lv_area_t * clip_area = lv_event_get_param(e);
 586:Middlewares/lvgl/src/widgets/lv_table.c **** 
 587:Middlewares/lvgl/src/widgets/lv_table.c ****     lv_point_t txt_size;
 588:Middlewares/lvgl/src/widgets/lv_table.c ****     lv_area_t cell_area;
 589:Middlewares/lvgl/src/widgets/lv_table.c ****     lv_area_t txt_area;
 590:Middlewares/lvgl/src/widgets/lv_table.c ****     lv_text_flag_t txt_flags;
 591:Middlewares/lvgl/src/widgets/lv_table.c **** 
 592:Middlewares/lvgl/src/widgets/lv_table.c ****     lv_coord_t bg_top = lv_obj_get_style_pad_top(obj, LV_PART_MAIN);
 593:Middlewares/lvgl/src/widgets/lv_table.c ****     lv_coord_t bg_bottom = lv_obj_get_style_pad_bottom(obj, LV_PART_MAIN);
 594:Middlewares/lvgl/src/widgets/lv_table.c ****     lv_coord_t bg_left = lv_obj_get_style_pad_left(obj, LV_PART_MAIN);
 595:Middlewares/lvgl/src/widgets/lv_table.c ****     lv_coord_t bg_right = lv_obj_get_style_pad_right(obj, LV_PART_MAIN);
 596:Middlewares/lvgl/src/widgets/lv_table.c **** 
 597:Middlewares/lvgl/src/widgets/lv_table.c ****     lv_coord_t cell_left = lv_obj_get_style_pad_left(obj, LV_PART_ITEMS);
 598:Middlewares/lvgl/src/widgets/lv_table.c ****     lv_coord_t cell_right = lv_obj_get_style_pad_right(obj, LV_PART_ITEMS);
 599:Middlewares/lvgl/src/widgets/lv_table.c ****     lv_coord_t cell_top = lv_obj_get_style_pad_top(obj, LV_PART_ITEMS);
 600:Middlewares/lvgl/src/widgets/lv_table.c ****     lv_coord_t cell_bottom = lv_obj_get_style_pad_bottom(obj, LV_PART_ITEMS);
 601:Middlewares/lvgl/src/widgets/lv_table.c **** 
 602:Middlewares/lvgl/src/widgets/lv_table.c ****     lv_state_t state_ori = obj->state;
ARM GAS  /tmp/ccTYGLnU.s 			page 12


 603:Middlewares/lvgl/src/widgets/lv_table.c ****     obj->state = LV_STATE_DEFAULT;
 604:Middlewares/lvgl/src/widgets/lv_table.c ****     obj->skip_trans = 1;
 605:Middlewares/lvgl/src/widgets/lv_table.c ****     lv_draw_rect_dsc_t rect_dsc_def;
 606:Middlewares/lvgl/src/widgets/lv_table.c ****     lv_draw_rect_dsc_t rect_dsc_act; /*Passed to the event to modify it*/
 607:Middlewares/lvgl/src/widgets/lv_table.c ****     lv_draw_rect_dsc_init(&rect_dsc_def);
 608:Middlewares/lvgl/src/widgets/lv_table.c ****     lv_obj_init_draw_rect_dsc(obj, LV_PART_ITEMS, &rect_dsc_def);
 609:Middlewares/lvgl/src/widgets/lv_table.c **** 
 610:Middlewares/lvgl/src/widgets/lv_table.c ****     lv_draw_label_dsc_t label_dsc_def;
 611:Middlewares/lvgl/src/widgets/lv_table.c ****     lv_draw_label_dsc_t label_dsc_act;  /*Passed to the event to modify it*/
 612:Middlewares/lvgl/src/widgets/lv_table.c ****     lv_draw_label_dsc_init(&label_dsc_def);
 613:Middlewares/lvgl/src/widgets/lv_table.c ****     lv_obj_init_draw_label_dsc(obj, LV_PART_ITEMS, &label_dsc_def);
 614:Middlewares/lvgl/src/widgets/lv_table.c ****     obj->state = state_ori;
 615:Middlewares/lvgl/src/widgets/lv_table.c ****     obj->skip_trans = 0;
 616:Middlewares/lvgl/src/widgets/lv_table.c **** 
 617:Middlewares/lvgl/src/widgets/lv_table.c ****     uint16_t col;
 618:Middlewares/lvgl/src/widgets/lv_table.c ****     uint16_t row;
 619:Middlewares/lvgl/src/widgets/lv_table.c ****     uint16_t cell = 0;
 620:Middlewares/lvgl/src/widgets/lv_table.c **** 
 621:Middlewares/lvgl/src/widgets/lv_table.c ****     cell_area.y2 = obj->coords.y1 + bg_top - 1 - lv_obj_get_scroll_y(obj) ;
 622:Middlewares/lvgl/src/widgets/lv_table.c ****     lv_coord_t scroll_x = lv_obj_get_scroll_x(obj) ;
 623:Middlewares/lvgl/src/widgets/lv_table.c ****     bool rtl = lv_obj_get_style_base_dir(obj, LV_PART_MAIN) == LV_BASE_DIR_RTL ? true : false;
 624:Middlewares/lvgl/src/widgets/lv_table.c **** 
 625:Middlewares/lvgl/src/widgets/lv_table.c ****     /*Handle custom drawer*/
 626:Middlewares/lvgl/src/widgets/lv_table.c ****     lv_obj_draw_part_dsc_t dsc;
 627:Middlewares/lvgl/src/widgets/lv_table.c ****     lv_obj_draw_dsc_init(&dsc, clip_area);
 628:Middlewares/lvgl/src/widgets/lv_table.c ****     dsc.part = LV_PART_ITEMS;
 629:Middlewares/lvgl/src/widgets/lv_table.c ****     dsc.rect_dsc = &rect_dsc_act;
 630:Middlewares/lvgl/src/widgets/lv_table.c ****     dsc.label_dsc = &label_dsc_act;
 631:Middlewares/lvgl/src/widgets/lv_table.c **** 
 632:Middlewares/lvgl/src/widgets/lv_table.c ****     for(row = 0; row < table->row_cnt; row++) {
 633:Middlewares/lvgl/src/widgets/lv_table.c ****         lv_coord_t h_row = table->row_h[row];
 634:Middlewares/lvgl/src/widgets/lv_table.c **** 
 635:Middlewares/lvgl/src/widgets/lv_table.c ****         cell_area.y1 = cell_area.y2 + 1;
 636:Middlewares/lvgl/src/widgets/lv_table.c ****         cell_area.y2 = cell_area.y1 + h_row - 1;
 637:Middlewares/lvgl/src/widgets/lv_table.c **** 
 638:Middlewares/lvgl/src/widgets/lv_table.c ****         if(cell_area.y1 > clip_area->y2) return;
 639:Middlewares/lvgl/src/widgets/lv_table.c **** 
 640:Middlewares/lvgl/src/widgets/lv_table.c ****         if(rtl) cell_area.x1 = obj->coords.x2 - bg_right - 1 - scroll_x;
 641:Middlewares/lvgl/src/widgets/lv_table.c ****         else cell_area.x2 = obj->coords.x1 + bg_left - 1 - scroll_x;
 642:Middlewares/lvgl/src/widgets/lv_table.c **** 
 643:Middlewares/lvgl/src/widgets/lv_table.c ****         for(col = 0; col < table->col_cnt; col++) {
 644:Middlewares/lvgl/src/widgets/lv_table.c ****             lv_table_cell_ctrl_t ctrl = 0;
 645:Middlewares/lvgl/src/widgets/lv_table.c ****             if(table->cell_data[cell]) ctrl = table->cell_data[cell][0];
 646:Middlewares/lvgl/src/widgets/lv_table.c **** 
 647:Middlewares/lvgl/src/widgets/lv_table.c ****             if(rtl) {
 648:Middlewares/lvgl/src/widgets/lv_table.c ****                 cell_area.x2 = cell_area.x1 - 1;
 649:Middlewares/lvgl/src/widgets/lv_table.c ****                 cell_area.x1 = cell_area.x2 - table->col_w[col] + 1;
 650:Middlewares/lvgl/src/widgets/lv_table.c ****             }
 651:Middlewares/lvgl/src/widgets/lv_table.c ****             else {
 652:Middlewares/lvgl/src/widgets/lv_table.c ****                 cell_area.x1 = cell_area.x2 + 1;
 653:Middlewares/lvgl/src/widgets/lv_table.c ****                 cell_area.x2 = cell_area.x1 + table->col_w[col] - 1;
 654:Middlewares/lvgl/src/widgets/lv_table.c ****             }
 655:Middlewares/lvgl/src/widgets/lv_table.c **** 
 656:Middlewares/lvgl/src/widgets/lv_table.c ****             uint16_t col_merge = 0;
 657:Middlewares/lvgl/src/widgets/lv_table.c ****             for(col_merge = 0; col_merge + col < table->col_cnt - 1; col_merge++) {
 658:Middlewares/lvgl/src/widgets/lv_table.c ****                 if(table->cell_data[cell + col_merge]) {
 659:Middlewares/lvgl/src/widgets/lv_table.c ****                     char * next_cell_data = table->cell_data[cell + col_merge];
ARM GAS  /tmp/ccTYGLnU.s 			page 13


 660:Middlewares/lvgl/src/widgets/lv_table.c ****                     if(next_cell_data) ctrl = next_cell_data[0];
 661:Middlewares/lvgl/src/widgets/lv_table.c ****                     if(ctrl & LV_TABLE_CELL_CTRL_MERGE_RIGHT)
 662:Middlewares/lvgl/src/widgets/lv_table.c ****                         if(rtl) cell_area.x1 -= table->col_w[col + col_merge + 1];
 663:Middlewares/lvgl/src/widgets/lv_table.c ****                         else cell_area.x2 += table->col_w[col + col_merge + 1];
 664:Middlewares/lvgl/src/widgets/lv_table.c ****                     else {
 665:Middlewares/lvgl/src/widgets/lv_table.c ****                         break;
 666:Middlewares/lvgl/src/widgets/lv_table.c ****                     }
 667:Middlewares/lvgl/src/widgets/lv_table.c ****                 }
 668:Middlewares/lvgl/src/widgets/lv_table.c ****                 else {
 669:Middlewares/lvgl/src/widgets/lv_table.c ****                     break;
 670:Middlewares/lvgl/src/widgets/lv_table.c ****                 }
 671:Middlewares/lvgl/src/widgets/lv_table.c ****             }
 672:Middlewares/lvgl/src/widgets/lv_table.c **** 
 673:Middlewares/lvgl/src/widgets/lv_table.c ****             if(cell_area.y2 < clip_area->y1) {
 674:Middlewares/lvgl/src/widgets/lv_table.c ****                 cell += col_merge + 1;
 675:Middlewares/lvgl/src/widgets/lv_table.c ****                 col += col_merge;
 676:Middlewares/lvgl/src/widgets/lv_table.c ****                 continue;
 677:Middlewares/lvgl/src/widgets/lv_table.c ****             }
 678:Middlewares/lvgl/src/widgets/lv_table.c **** 
 679:Middlewares/lvgl/src/widgets/lv_table.c ****             /*Expand the cell area with a half border to avoid drawing 2 borders next to each other
 680:Middlewares/lvgl/src/widgets/lv_table.c ****             lv_area_t cell_area_border;
 681:Middlewares/lvgl/src/widgets/lv_table.c ****             lv_area_copy(&cell_area_border, &cell_area);
 682:Middlewares/lvgl/src/widgets/lv_table.c ****             if((rect_dsc_def.border_side & LV_BORDER_SIDE_LEFT) && cell_area_border.x1 > obj->coord
 683:Middlewares/lvgl/src/widgets/lv_table.c ****                 cell_area_border.x1 -= rect_dsc_def.border_width / 2;
 684:Middlewares/lvgl/src/widgets/lv_table.c ****             }
 685:Middlewares/lvgl/src/widgets/lv_table.c ****             if((rect_dsc_def.border_side & LV_BORDER_SIDE_TOP) && cell_area_border.y1 > obj->coords
 686:Middlewares/lvgl/src/widgets/lv_table.c ****                 cell_area_border.y1 -= rect_dsc_def.border_width / 2;
 687:Middlewares/lvgl/src/widgets/lv_table.c ****             }
 688:Middlewares/lvgl/src/widgets/lv_table.c ****             if((rect_dsc_def.border_side & LV_BORDER_SIDE_RIGHT) && cell_area_border.x2 < obj->coor
 689:Middlewares/lvgl/src/widgets/lv_table.c ****                 cell_area_border.x2 += rect_dsc_def.border_width / 2 + (rect_dsc_def.border_width &
 690:Middlewares/lvgl/src/widgets/lv_table.c ****             }
 691:Middlewares/lvgl/src/widgets/lv_table.c ****             if((rect_dsc_def.border_side & LV_BORDER_SIDE_BOTTOM) &&
 692:Middlewares/lvgl/src/widgets/lv_table.c ****                     cell_area_border.y2 < obj->coords.y2 - bg_bottom - 1) {
 693:Middlewares/lvgl/src/widgets/lv_table.c ****                 cell_area_border.y2 += rect_dsc_def.border_width / 2 + (rect_dsc_def.border_width &
 694:Middlewares/lvgl/src/widgets/lv_table.c ****             }
 695:Middlewares/lvgl/src/widgets/lv_table.c **** 
 696:Middlewares/lvgl/src/widgets/lv_table.c ****             lv_state_t cell_state = LV_STATE_DEFAULT;
 697:Middlewares/lvgl/src/widgets/lv_table.c ****             if(row == table->row_act && col == table->col_act) {
 698:Middlewares/lvgl/src/widgets/lv_table.c ****                 if(!(obj->state & LV_STATE_SCROLLED) && (obj->state & LV_STATE_PRESSED)) cell_state
 699:Middlewares/lvgl/src/widgets/lv_table.c ****                 if(obj->state & LV_STATE_FOCUSED) cell_state |= LV_STATE_FOCUSED;
 700:Middlewares/lvgl/src/widgets/lv_table.c ****                 if(obj->state & LV_STATE_FOCUS_KEY) cell_state |= LV_STATE_FOCUS_KEY;
 701:Middlewares/lvgl/src/widgets/lv_table.c ****                 if(obj->state & LV_STATE_EDITED) cell_state |= LV_STATE_EDITED;
 702:Middlewares/lvgl/src/widgets/lv_table.c ****             }
 703:Middlewares/lvgl/src/widgets/lv_table.c **** 
 704:Middlewares/lvgl/src/widgets/lv_table.c ****             /*Set up the draw descriptors*/
 705:Middlewares/lvgl/src/widgets/lv_table.c ****             if(cell_state == LV_STATE_DEFAULT) {
 706:Middlewares/lvgl/src/widgets/lv_table.c ****                 lv_memcpy(&rect_dsc_act, &rect_dsc_def, sizeof(lv_draw_rect_dsc_t));
 707:Middlewares/lvgl/src/widgets/lv_table.c ****                 lv_memcpy(&label_dsc_act, &label_dsc_def, sizeof(lv_draw_label_dsc_t));
 708:Middlewares/lvgl/src/widgets/lv_table.c ****             }
 709:Middlewares/lvgl/src/widgets/lv_table.c ****             /*In other cases get the styles directly without caching them*/
 710:Middlewares/lvgl/src/widgets/lv_table.c ****             else {
 711:Middlewares/lvgl/src/widgets/lv_table.c ****                 obj->state = cell_state;
 712:Middlewares/lvgl/src/widgets/lv_table.c ****                 obj->skip_trans = 1;
 713:Middlewares/lvgl/src/widgets/lv_table.c ****                 lv_draw_rect_dsc_init(&rect_dsc_act);
 714:Middlewares/lvgl/src/widgets/lv_table.c ****                 lv_draw_label_dsc_init(&label_dsc_act);
 715:Middlewares/lvgl/src/widgets/lv_table.c ****                 lv_obj_init_draw_rect_dsc(obj, LV_PART_ITEMS, &rect_dsc_act);
 716:Middlewares/lvgl/src/widgets/lv_table.c ****                 lv_obj_init_draw_label_dsc(obj, LV_PART_ITEMS, &label_dsc_act);
ARM GAS  /tmp/ccTYGLnU.s 			page 14


 717:Middlewares/lvgl/src/widgets/lv_table.c ****                 obj->state = state_ori;
 718:Middlewares/lvgl/src/widgets/lv_table.c ****                 obj->skip_trans = 0;
 719:Middlewares/lvgl/src/widgets/lv_table.c ****             }
 720:Middlewares/lvgl/src/widgets/lv_table.c **** 
 721:Middlewares/lvgl/src/widgets/lv_table.c ****             dsc.draw_area = &cell_area_border;
 722:Middlewares/lvgl/src/widgets/lv_table.c ****             dsc.id = row * table->col_cnt + col;
 723:Middlewares/lvgl/src/widgets/lv_table.c ****             lv_event_send(obj, LV_EVENT_DRAW_PART_BEGIN, &dsc);
 724:Middlewares/lvgl/src/widgets/lv_table.c **** 
 725:Middlewares/lvgl/src/widgets/lv_table.c ****             lv_draw_rect(&cell_area_border, clip_area, &rect_dsc_act);
 726:Middlewares/lvgl/src/widgets/lv_table.c **** 
 727:Middlewares/lvgl/src/widgets/lv_table.c ****             if(table->cell_data[cell]) {
 728:Middlewares/lvgl/src/widgets/lv_table.c ****                 txt_area.x1 = cell_area.x1 + cell_left;
 729:Middlewares/lvgl/src/widgets/lv_table.c ****                 txt_area.x2 = cell_area.x2 - cell_right;
 730:Middlewares/lvgl/src/widgets/lv_table.c ****                 txt_area.y1 = cell_area.y1 + cell_top;
 731:Middlewares/lvgl/src/widgets/lv_table.c ****                 txt_area.y2 = cell_area.y2 - cell_bottom;
 732:Middlewares/lvgl/src/widgets/lv_table.c **** 
 733:Middlewares/lvgl/src/widgets/lv_table.c ****                 /*Align the content to the middle if not cropped*/
 734:Middlewares/lvgl/src/widgets/lv_table.c ****                 bool crop = ctrl & LV_TABLE_CELL_CTRL_TEXT_CROP ? true : false;
 735:Middlewares/lvgl/src/widgets/lv_table.c ****                 if(crop) txt_flags = LV_TEXT_FLAG_EXPAND;
 736:Middlewares/lvgl/src/widgets/lv_table.c ****                 else txt_flags = LV_TEXT_FLAG_NONE;
 737:Middlewares/lvgl/src/widgets/lv_table.c **** 
 738:Middlewares/lvgl/src/widgets/lv_table.c ****                 lv_txt_get_size(&txt_size, table->cell_data[cell] + 1, label_dsc_def.font,
 739:Middlewares/lvgl/src/widgets/lv_table.c ****                         label_dsc_act.letter_space, label_dsc_act.line_space,
 740:Middlewares/lvgl/src/widgets/lv_table.c ****                         lv_area_get_width(&txt_area), txt_flags);
 741:Middlewares/lvgl/src/widgets/lv_table.c **** 
 742:Middlewares/lvgl/src/widgets/lv_table.c ****                 /*Align the content to the middle if not cropped*/
 743:Middlewares/lvgl/src/widgets/lv_table.c ****                 if(!crop) {
 744:Middlewares/lvgl/src/widgets/lv_table.c ****                     txt_area.y1 = cell_area.y1 + h_row / 2 - txt_size.y / 2;
 745:Middlewares/lvgl/src/widgets/lv_table.c ****                     txt_area.y2 = cell_area.y1 + h_row / 2 + txt_size.y / 2;
 746:Middlewares/lvgl/src/widgets/lv_table.c ****                 }
 747:Middlewares/lvgl/src/widgets/lv_table.c **** 
 748:Middlewares/lvgl/src/widgets/lv_table.c ****                 lv_area_t label_mask;
 749:Middlewares/lvgl/src/widgets/lv_table.c ****                 bool label_mask_ok;
 750:Middlewares/lvgl/src/widgets/lv_table.c ****                 label_mask_ok = _lv_area_intersect(&label_mask, clip_area, &cell_area);
 751:Middlewares/lvgl/src/widgets/lv_table.c ****                 if(label_mask_ok) {
 752:Middlewares/lvgl/src/widgets/lv_table.c ****                     lv_draw_label(&txt_area, &label_mask, &label_dsc_act, table->cell_data[cell] + 
 753:Middlewares/lvgl/src/widgets/lv_table.c ****                 }
 754:Middlewares/lvgl/src/widgets/lv_table.c ****             }
 755:Middlewares/lvgl/src/widgets/lv_table.c **** 
 756:Middlewares/lvgl/src/widgets/lv_table.c ****             lv_event_send(obj, LV_EVENT_DRAW_PART_END, &dsc);
 757:Middlewares/lvgl/src/widgets/lv_table.c **** 
 758:Middlewares/lvgl/src/widgets/lv_table.c ****             cell += col_merge + 1;
 759:Middlewares/lvgl/src/widgets/lv_table.c ****             col += col_merge;
 760:Middlewares/lvgl/src/widgets/lv_table.c ****         }
 761:Middlewares/lvgl/src/widgets/lv_table.c ****     }
 762:Middlewares/lvgl/src/widgets/lv_table.c **** }
 763:Middlewares/lvgl/src/widgets/lv_table.c **** 
 764:Middlewares/lvgl/src/widgets/lv_table.c **** static void refr_size(lv_obj_t * obj, uint32_t strat_row)
 765:Middlewares/lvgl/src/widgets/lv_table.c **** {
 766:Middlewares/lvgl/src/widgets/lv_table.c ****     lv_table_t * table = (lv_table_t *)obj;
 767:Middlewares/lvgl/src/widgets/lv_table.c **** 
 768:Middlewares/lvgl/src/widgets/lv_table.c ****     uint32_t i;
 769:Middlewares/lvgl/src/widgets/lv_table.c **** 
 770:Middlewares/lvgl/src/widgets/lv_table.c ****     lv_coord_t cell_left = lv_obj_get_style_pad_left(obj, LV_PART_ITEMS);
 771:Middlewares/lvgl/src/widgets/lv_table.c ****     lv_coord_t cell_right = lv_obj_get_style_pad_right(obj, LV_PART_ITEMS);
 772:Middlewares/lvgl/src/widgets/lv_table.c ****     lv_coord_t cell_top = lv_obj_get_style_pad_top(obj, LV_PART_ITEMS);
 773:Middlewares/lvgl/src/widgets/lv_table.c ****     lv_coord_t cell_bottom = lv_obj_get_style_pad_bottom(obj, LV_PART_ITEMS);
ARM GAS  /tmp/ccTYGLnU.s 			page 15


 774:Middlewares/lvgl/src/widgets/lv_table.c **** 
 775:Middlewares/lvgl/src/widgets/lv_table.c ****     lv_coord_t letter_space = lv_obj_get_style_text_letter_space(obj, LV_PART_ITEMS);
 776:Middlewares/lvgl/src/widgets/lv_table.c ****     lv_coord_t line_space = lv_obj_get_style_text_line_space(obj, LV_PART_ITEMS);
 777:Middlewares/lvgl/src/widgets/lv_table.c ****     const lv_font_t * font = lv_obj_get_style_text_font(obj, LV_PART_ITEMS);
 778:Middlewares/lvgl/src/widgets/lv_table.c **** 
 779:Middlewares/lvgl/src/widgets/lv_table.c ****     lv_coord_t minh = lv_obj_get_style_min_height(obj, LV_PART_ITEMS);
 780:Middlewares/lvgl/src/widgets/lv_table.c ****     lv_coord_t maxh = lv_obj_get_style_max_height(obj, LV_PART_ITEMS);
 781:Middlewares/lvgl/src/widgets/lv_table.c **** 
 782:Middlewares/lvgl/src/widgets/lv_table.c ****     for(i = strat_row; i < table->row_cnt; i++) {
 783:Middlewares/lvgl/src/widgets/lv_table.c ****         table->row_h[i] = get_row_height(obj, i, font, letter_space, line_space,
 784:Middlewares/lvgl/src/widgets/lv_table.c ****                                        cell_left, cell_right, cell_top, cell_bottom);
 785:Middlewares/lvgl/src/widgets/lv_table.c ****         table->row_h[i] = LV_CLAMP(minh, table->row_h[i], maxh);
 786:Middlewares/lvgl/src/widgets/lv_table.c ****     }
 787:Middlewares/lvgl/src/widgets/lv_table.c **** 
 788:Middlewares/lvgl/src/widgets/lv_table.c ****     lv_obj_refresh_self_size(obj) ;
 789:Middlewares/lvgl/src/widgets/lv_table.c **** }
 790:Middlewares/lvgl/src/widgets/lv_table.c **** 
 791:Middlewares/lvgl/src/widgets/lv_table.c **** static lv_coord_t get_row_height(lv_obj_t * obj, uint16_t row_id, const lv_font_t * font,
 792:Middlewares/lvgl/src/widgets/lv_table.c ****                                  lv_coord_t letter_space, lv_coord_t line_space,
 793:Middlewares/lvgl/src/widgets/lv_table.c ****                                  lv_coord_t cell_left, lv_coord_t cell_right, lv_coord_t cell_top, 
 794:Middlewares/lvgl/src/widgets/lv_table.c **** {
  27              		.loc 1 794 1 view -0
  28              		.cfi_startproc
  29              		@ args = 20, pretend = 0, frame = 48
  30              		@ frame_needed = 0, uses_anonymous_args = 0
  31              		.loc 1 794 1 is_stmt 0 view .LVU1
  32 0000 2DE9F04F 		push	{r4, r5, r6, r7, r8, r9, r10, fp, lr}
  33              	.LCFI0:
  34              		.cfi_def_cfa_offset 36
  35              		.cfi_offset 4, -36
  36              		.cfi_offset 5, -32
  37              		.cfi_offset 6, -28
  38              		.cfi_offset 7, -24
  39              		.cfi_offset 8, -20
  40              		.cfi_offset 9, -16
  41              		.cfi_offset 10, -12
  42              		.cfi_offset 11, -8
  43              		.cfi_offset 14, -4
  44 0004 91B0     		sub	sp, sp, #68
  45              	.LCFI1:
  46              		.cfi_def_cfa_offset 104
  47 0006 8046     		mov	r8, r0
  48 0008 0592     		str	r2, [sp, #20]
  49 000a 0A93     		str	r3, [sp, #40]
  50 000c BDF96830 		ldrsh	r3, [sp, #104]
  51              	.LVL1:
  52              		.loc 1 794 1 view .LVU2
  53 0010 0B93     		str	r3, [sp, #44]
  54 0012 BDF96C30 		ldrsh	r3, [sp, #108]
  55 0016 0C93     		str	r3, [sp, #48]
  56 0018 BDF97030 		ldrsh	r3, [sp, #112]
  57 001c 0D93     		str	r3, [sp, #52]
  58 001e BDF97430 		ldrsh	r3, [sp, #116]
  59 0022 0693     		str	r3, [sp, #24]
  60 0024 BDF97800 		ldrsh	r0, [sp, #120]
  61              	.LVL2:
  62              		.loc 1 794 1 view .LVU3
ARM GAS  /tmp/ccTYGLnU.s 			page 16


  63 0028 0790     		str	r0, [sp, #28]
 795:Middlewares/lvgl/src/widgets/lv_table.c ****     lv_table_t * table = (lv_table_t *)obj;
  64              		.loc 1 795 5 is_stmt 1 view .LVU4
  65              	.LVL3:
 796:Middlewares/lvgl/src/widgets/lv_table.c ****     lv_point_t txt_size;
  66              		.loc 1 796 5 view .LVU5
 797:Middlewares/lvgl/src/widgets/lv_table.c ****     lv_coord_t txt_w;
  67              		.loc 1 797 5 view .LVU6
 798:Middlewares/lvgl/src/widgets/lv_table.c **** 
 799:Middlewares/lvgl/src/widgets/lv_table.c ****     uint16_t row_start = row_id * table->col_cnt;
  68              		.loc 1 799 5 view .LVU7
  69              		.loc 1 799 40 is_stmt 0 view .LVU8
  70 002a B8F82490 		ldrh	r9, [r8, #36]
  71              		.loc 1 799 14 view .LVU9
  72 002e 01FB09F9 		mul	r9, r1, r9
  73 0032 1FFA89F9 		uxth	r9, r9
  74              	.LVL4:
 800:Middlewares/lvgl/src/widgets/lv_table.c ****     uint16_t cell;
  75              		.loc 1 800 5 is_stmt 1 view .LVU10
 801:Middlewares/lvgl/src/widgets/lv_table.c ****     uint16_t col;
  76              		.loc 1 801 5 view .LVU11
 802:Middlewares/lvgl/src/widgets/lv_table.c ****     lv_coord_t h_max = lv_font_get_line_height(font) + cell_top + cell_bottom;
  77              		.loc 1 802 5 view .LVU12
  78              	.LBB86:
  79              	.LBI86:
  80              		.file 2 "Middlewares/lvgl/src/widgets/../core/../misc/../font/lv_font.h"
   1:Middlewares/lvgl/src/widgets/../core/../misc/../font/lv_font.h **** /**
   2:Middlewares/lvgl/src/widgets/../core/../misc/../font/lv_font.h ****  * @file lv_font.h
   3:Middlewares/lvgl/src/widgets/../core/../misc/../font/lv_font.h ****  *
   4:Middlewares/lvgl/src/widgets/../core/../misc/../font/lv_font.h ****  */
   5:Middlewares/lvgl/src/widgets/../core/../misc/../font/lv_font.h **** 
   6:Middlewares/lvgl/src/widgets/../core/../misc/../font/lv_font.h **** #ifndef LV_FONT_H
   7:Middlewares/lvgl/src/widgets/../core/../misc/../font/lv_font.h **** #define LV_FONT_H
   8:Middlewares/lvgl/src/widgets/../core/../misc/../font/lv_font.h **** 
   9:Middlewares/lvgl/src/widgets/../core/../misc/../font/lv_font.h **** #ifdef __cplusplus
  10:Middlewares/lvgl/src/widgets/../core/../misc/../font/lv_font.h **** extern "C" {
  11:Middlewares/lvgl/src/widgets/../core/../misc/../font/lv_font.h **** #endif
  12:Middlewares/lvgl/src/widgets/../core/../misc/../font/lv_font.h **** 
  13:Middlewares/lvgl/src/widgets/../core/../misc/../font/lv_font.h **** /*********************
  14:Middlewares/lvgl/src/widgets/../core/../misc/../font/lv_font.h ****  *      INCLUDES
  15:Middlewares/lvgl/src/widgets/../core/../misc/../font/lv_font.h ****  *********************/
  16:Middlewares/lvgl/src/widgets/../core/../misc/../font/lv_font.h **** #include "../lv_conf_internal.h"
  17:Middlewares/lvgl/src/widgets/../core/../misc/../font/lv_font.h **** #include <stdint.h>
  18:Middlewares/lvgl/src/widgets/../core/../misc/../font/lv_font.h **** #include <stddef.h>
  19:Middlewares/lvgl/src/widgets/../core/../misc/../font/lv_font.h **** #include <stdbool.h>
  20:Middlewares/lvgl/src/widgets/../core/../misc/../font/lv_font.h **** 
  21:Middlewares/lvgl/src/widgets/../core/../misc/../font/lv_font.h **** #include "lv_symbol_def.h"
  22:Middlewares/lvgl/src/widgets/../core/../misc/../font/lv_font.h **** #include "../misc/lv_area.h"
  23:Middlewares/lvgl/src/widgets/../core/../misc/../font/lv_font.h **** 
  24:Middlewares/lvgl/src/widgets/../core/../misc/../font/lv_font.h **** /*********************
  25:Middlewares/lvgl/src/widgets/../core/../misc/../font/lv_font.h ****  *      DEFINES
  26:Middlewares/lvgl/src/widgets/../core/../misc/../font/lv_font.h ****  *********************/
  27:Middlewares/lvgl/src/widgets/../core/../misc/../font/lv_font.h **** 
  28:Middlewares/lvgl/src/widgets/../core/../misc/../font/lv_font.h **** /**********************
  29:Middlewares/lvgl/src/widgets/../core/../misc/../font/lv_font.h ****  *      TYPEDEFS
  30:Middlewares/lvgl/src/widgets/../core/../misc/../font/lv_font.h ****  **********************/
  31:Middlewares/lvgl/src/widgets/../core/../misc/../font/lv_font.h **** 
ARM GAS  /tmp/ccTYGLnU.s 			page 17


  32:Middlewares/lvgl/src/widgets/../core/../misc/../font/lv_font.h **** /*------------------
  33:Middlewares/lvgl/src/widgets/../core/../misc/../font/lv_font.h ****  * General types
  34:Middlewares/lvgl/src/widgets/../core/../misc/../font/lv_font.h ****  *-----------------*/
  35:Middlewares/lvgl/src/widgets/../core/../misc/../font/lv_font.h **** 
  36:Middlewares/lvgl/src/widgets/../core/../misc/../font/lv_font.h **** /** Describes the properties of a glyph.*/
  37:Middlewares/lvgl/src/widgets/../core/../misc/../font/lv_font.h **** typedef struct {
  38:Middlewares/lvgl/src/widgets/../core/../misc/../font/lv_font.h ****     uint16_t adv_w; /**< The glyph needs this space. Draw the next glyph after this width.*/
  39:Middlewares/lvgl/src/widgets/../core/../misc/../font/lv_font.h ****     uint16_t box_w;  /**< Width of the glyph's bounding box*/
  40:Middlewares/lvgl/src/widgets/../core/../misc/../font/lv_font.h ****     uint16_t box_h;  /**< Height of the glyph's bounding box*/
  41:Middlewares/lvgl/src/widgets/../core/../misc/../font/lv_font.h ****     int16_t ofs_x;   /**< x offset of the bounding box*/
  42:Middlewares/lvgl/src/widgets/../core/../misc/../font/lv_font.h ****     int16_t ofs_y;  /**< y offset of the bounding box*/
  43:Middlewares/lvgl/src/widgets/../core/../misc/../font/lv_font.h ****     uint8_t bpp;   /**< Bit-per-pixel: 1, 2, 4, 8*/
  44:Middlewares/lvgl/src/widgets/../core/../misc/../font/lv_font.h **** } lv_font_glyph_dsc_t;
  45:Middlewares/lvgl/src/widgets/../core/../misc/../font/lv_font.h **** 
  46:Middlewares/lvgl/src/widgets/../core/../misc/../font/lv_font.h **** /** The bitmaps might be upscaled by 3 to achieve subpixel rendering.*/
  47:Middlewares/lvgl/src/widgets/../core/../misc/../font/lv_font.h **** enum {
  48:Middlewares/lvgl/src/widgets/../core/../misc/../font/lv_font.h ****     LV_FONT_SUBPX_NONE,
  49:Middlewares/lvgl/src/widgets/../core/../misc/../font/lv_font.h ****     LV_FONT_SUBPX_HOR,
  50:Middlewares/lvgl/src/widgets/../core/../misc/../font/lv_font.h ****     LV_FONT_SUBPX_VER,
  51:Middlewares/lvgl/src/widgets/../core/../misc/../font/lv_font.h ****     LV_FONT_SUBPX_BOTH,
  52:Middlewares/lvgl/src/widgets/../core/../misc/../font/lv_font.h **** };
  53:Middlewares/lvgl/src/widgets/../core/../misc/../font/lv_font.h **** 
  54:Middlewares/lvgl/src/widgets/../core/../misc/../font/lv_font.h **** typedef uint8_t lv_font_subpx_t;
  55:Middlewares/lvgl/src/widgets/../core/../misc/../font/lv_font.h **** 
  56:Middlewares/lvgl/src/widgets/../core/../misc/../font/lv_font.h **** struct _lv_font_t;
  57:Middlewares/lvgl/src/widgets/../core/../misc/../font/lv_font.h **** 
  58:Middlewares/lvgl/src/widgets/../core/../misc/../font/lv_font.h **** /** Describe the properties of a font*/
  59:Middlewares/lvgl/src/widgets/../core/../misc/../font/lv_font.h **** typedef struct _lv_font_t {
  60:Middlewares/lvgl/src/widgets/../core/../misc/../font/lv_font.h ****     /** Get a glyph's descriptor from a font*/
  61:Middlewares/lvgl/src/widgets/../core/../misc/../font/lv_font.h ****     bool (*get_glyph_dsc)(const struct _lv_font_t *, lv_font_glyph_dsc_t *, uint32_t letter, uint32
  62:Middlewares/lvgl/src/widgets/../core/../misc/../font/lv_font.h **** 
  63:Middlewares/lvgl/src/widgets/../core/../misc/../font/lv_font.h ****     /** Get a glyph's bitmap from a font*/
  64:Middlewares/lvgl/src/widgets/../core/../misc/../font/lv_font.h ****     const uint8_t * (*get_glyph_bitmap)(const struct _lv_font_t *, uint32_t);
  65:Middlewares/lvgl/src/widgets/../core/../misc/../font/lv_font.h **** 
  66:Middlewares/lvgl/src/widgets/../core/../misc/../font/lv_font.h ****     /*Pointer to the font in a font pack (must have the same line height)*/
  67:Middlewares/lvgl/src/widgets/../core/../misc/../font/lv_font.h ****     lv_coord_t line_height;         /**< The real line height where any text fits*/
  68:Middlewares/lvgl/src/widgets/../core/../misc/../font/lv_font.h ****     lv_coord_t base_line;           /**< Base line measured from the top of the line_height*/
  69:Middlewares/lvgl/src/widgets/../core/../misc/../font/lv_font.h ****     uint8_t subpx  : 2;             /**< An element of `lv_font_subpx_t`*/
  70:Middlewares/lvgl/src/widgets/../core/../misc/../font/lv_font.h **** 
  71:Middlewares/lvgl/src/widgets/../core/../misc/../font/lv_font.h ****     int8_t underline_position;      /**< Distance between the top of the underline and base line (<
  72:Middlewares/lvgl/src/widgets/../core/../misc/../font/lv_font.h ****     int8_t underline_thickness;     /**< Thickness of the underline*/
  73:Middlewares/lvgl/src/widgets/../core/../misc/../font/lv_font.h **** 
  74:Middlewares/lvgl/src/widgets/../core/../misc/../font/lv_font.h ****     const void * dsc;                     /**< Store implementation specific or run_time data or ca
  75:Middlewares/lvgl/src/widgets/../core/../misc/../font/lv_font.h **** #if LV_USE_USER_DATA
  76:Middlewares/lvgl/src/widgets/../core/../misc/../font/lv_font.h ****     void * user_data;               /**< Custom user data for font.*/
  77:Middlewares/lvgl/src/widgets/../core/../misc/../font/lv_font.h **** #endif
  78:Middlewares/lvgl/src/widgets/../core/../misc/../font/lv_font.h **** 
  79:Middlewares/lvgl/src/widgets/../core/../misc/../font/lv_font.h **** } lv_font_t;
  80:Middlewares/lvgl/src/widgets/../core/../misc/../font/lv_font.h **** 
  81:Middlewares/lvgl/src/widgets/../core/../misc/../font/lv_font.h **** /**********************
  82:Middlewares/lvgl/src/widgets/../core/../misc/../font/lv_font.h ****  * GLOBAL PROTOTYPES
  83:Middlewares/lvgl/src/widgets/../core/../misc/../font/lv_font.h ****  **********************/
  84:Middlewares/lvgl/src/widgets/../core/../misc/../font/lv_font.h **** 
  85:Middlewares/lvgl/src/widgets/../core/../misc/../font/lv_font.h **** /**
  86:Middlewares/lvgl/src/widgets/../core/../misc/../font/lv_font.h ****  * Return with the bitmap of a font.
  87:Middlewares/lvgl/src/widgets/../core/../misc/../font/lv_font.h ****  * @param font_p pointer to a font
  88:Middlewares/lvgl/src/widgets/../core/../misc/../font/lv_font.h ****  * @param letter an UNICODE character code
ARM GAS  /tmp/ccTYGLnU.s 			page 18


  89:Middlewares/lvgl/src/widgets/../core/../misc/../font/lv_font.h ****  * @return pointer to the bitmap of the letter
  90:Middlewares/lvgl/src/widgets/../core/../misc/../font/lv_font.h ****  */
  91:Middlewares/lvgl/src/widgets/../core/../misc/../font/lv_font.h **** const uint8_t * lv_font_get_glyph_bitmap(const lv_font_t * font_p, uint32_t letter);
  92:Middlewares/lvgl/src/widgets/../core/../misc/../font/lv_font.h **** 
  93:Middlewares/lvgl/src/widgets/../core/../misc/../font/lv_font.h **** /**
  94:Middlewares/lvgl/src/widgets/../core/../misc/../font/lv_font.h ****  * Get the descriptor of a glyph
  95:Middlewares/lvgl/src/widgets/../core/../misc/../font/lv_font.h ****  * @param font_p pointer to font
  96:Middlewares/lvgl/src/widgets/../core/../misc/../font/lv_font.h ****  * @param dsc_out store the result descriptor here
  97:Middlewares/lvgl/src/widgets/../core/../misc/../font/lv_font.h ****  * @param letter an UNICODE letter code
  98:Middlewares/lvgl/src/widgets/../core/../misc/../font/lv_font.h ****  * @return true: descriptor is successfully loaded into `dsc_out`.
  99:Middlewares/lvgl/src/widgets/../core/../misc/../font/lv_font.h ****  *         false: the letter was not found, no data is loaded to `dsc_out`
 100:Middlewares/lvgl/src/widgets/../core/../misc/../font/lv_font.h ****  */
 101:Middlewares/lvgl/src/widgets/../core/../misc/../font/lv_font.h **** bool lv_font_get_glyph_dsc(const lv_font_t * font_p, lv_font_glyph_dsc_t * dsc_out, uint32_t letter
 102:Middlewares/lvgl/src/widgets/../core/../misc/../font/lv_font.h ****                            uint32_t letter_next);
 103:Middlewares/lvgl/src/widgets/../core/../misc/../font/lv_font.h **** 
 104:Middlewares/lvgl/src/widgets/../core/../misc/../font/lv_font.h **** /**
 105:Middlewares/lvgl/src/widgets/../core/../misc/../font/lv_font.h ****  * Get the width of a glyph with kerning
 106:Middlewares/lvgl/src/widgets/../core/../misc/../font/lv_font.h ****  * @param font pointer to a font
 107:Middlewares/lvgl/src/widgets/../core/../misc/../font/lv_font.h ****  * @param letter an UNICODE letter
 108:Middlewares/lvgl/src/widgets/../core/../misc/../font/lv_font.h ****  * @param letter_next the next letter after `letter`. Used for kerning
 109:Middlewares/lvgl/src/widgets/../core/../misc/../font/lv_font.h ****  * @return the width of the glyph
 110:Middlewares/lvgl/src/widgets/../core/../misc/../font/lv_font.h ****  */
 111:Middlewares/lvgl/src/widgets/../core/../misc/../font/lv_font.h **** uint16_t lv_font_get_glyph_width(const lv_font_t * font, uint32_t letter, uint32_t letter_next);
 112:Middlewares/lvgl/src/widgets/../core/../misc/../font/lv_font.h **** 
 113:Middlewares/lvgl/src/widgets/../core/../misc/../font/lv_font.h **** /**
 114:Middlewares/lvgl/src/widgets/../core/../misc/../font/lv_font.h ****  * Get the line height of a font. All characters fit into this height
 115:Middlewares/lvgl/src/widgets/../core/../misc/../font/lv_font.h ****  * @param font_p pointer to a font
 116:Middlewares/lvgl/src/widgets/../core/../misc/../font/lv_font.h ****  * @return the height of a font
 117:Middlewares/lvgl/src/widgets/../core/../misc/../font/lv_font.h ****  */
 118:Middlewares/lvgl/src/widgets/../core/../misc/../font/lv_font.h **** static inline lv_coord_t lv_font_get_line_height(const lv_font_t * font_p)
  81              		.loc 2 118 26 view .LVU13
  82              	.LBB87:
 119:Middlewares/lvgl/src/widgets/../core/../misc/../font/lv_font.h **** {
 120:Middlewares/lvgl/src/widgets/../core/../misc/../font/lv_font.h ****     return font_p->line_height;
  83              		.loc 2 120 5 view .LVU14
  84              		.loc 2 120 18 is_stmt 0 view .LVU15
  85 0036 B2F90870 		ldrsh	r7, [r2, #8]
  86              	.LVL5:
  87              		.loc 2 120 18 view .LVU16
  88              	.LBE87:
  89              	.LBE86:
  90              		.loc 1 802 24 view .LVU17
  91 003a BFB2     		uxth	r7, r7
  92              		.loc 1 802 54 view .LVU18
  93 003c 9BB2     		uxth	r3, r3
  94 003e 0893     		str	r3, [sp, #32]
  95 0040 1F44     		add	r7, r7, r3
  96 0042 BFB2     		uxth	r7, r7
  97              		.loc 1 802 65 view .LVU19
  98 0044 83B2     		uxth	r3, r0
  99 0046 0993     		str	r3, [sp, #36]
 100 0048 1F44     		add	r7, r7, r3
 101              		.loc 1 802 16 view .LVU20
 102 004a 3FB2     		sxth	r7, r7
 103              	.LVL6:
 803:Middlewares/lvgl/src/widgets/lv_table.c **** 
 804:Middlewares/lvgl/src/widgets/lv_table.c ****     for(cell = row_start, col = 0; cell < row_start + table->col_cnt; cell++, col++) {
ARM GAS  /tmp/ccTYGLnU.s 			page 19


 104              		.loc 1 804 5 is_stmt 1 view .LVU21
 105              		.loc 1 804 14 is_stmt 0 view .LVU22
 106 004c 4E46     		mov	r6, r9
 107              		.loc 1 804 31 view .LVU23
 108 004e 0025     		movs	r5, #0
 109              		.loc 1 804 5 view .LVU24
 110 0050 18E0     		b	.L2
 111              	.LVL7:
 112              	.L5:
 113              	.LBB88:
 805:Middlewares/lvgl/src/widgets/lv_table.c ****         if(table->cell_data[cell] != NULL) {
 806:Middlewares/lvgl/src/widgets/lv_table.c ****             txt_w              = table->col_w[col];
 807:Middlewares/lvgl/src/widgets/lv_table.c ****             uint16_t col_merge = 0;
 808:Middlewares/lvgl/src/widgets/lv_table.c ****             for(col_merge = 0; col_merge + col < table->col_cnt - 1; col_merge++) {
 809:Middlewares/lvgl/src/widgets/lv_table.c **** 
 810:Middlewares/lvgl/src/widgets/lv_table.c ****                 if(table->cell_data[cell + col_merge] != NULL) {
 811:Middlewares/lvgl/src/widgets/lv_table.c ****                     lv_table_cell_ctrl_t ctrl = 0;
 812:Middlewares/lvgl/src/widgets/lv_table.c ****                     char * next_cell_data = table->cell_data[cell + col_merge];
 813:Middlewares/lvgl/src/widgets/lv_table.c ****                     if(next_cell_data) ctrl = next_cell_data[0];
 814:Middlewares/lvgl/src/widgets/lv_table.c ****                     if(ctrl & LV_TABLE_CELL_CTRL_MERGE_RIGHT)
 815:Middlewares/lvgl/src/widgets/lv_table.c ****                         txt_w += table->col_w[col + col_merge + 1];
 816:Middlewares/lvgl/src/widgets/lv_table.c ****                     else
 817:Middlewares/lvgl/src/widgets/lv_table.c ****                         break;
 818:Middlewares/lvgl/src/widgets/lv_table.c ****                 }
 819:Middlewares/lvgl/src/widgets/lv_table.c ****                 else {
 820:Middlewares/lvgl/src/widgets/lv_table.c ****                     break;
 821:Middlewares/lvgl/src/widgets/lv_table.c ****                 }
 822:Middlewares/lvgl/src/widgets/lv_table.c ****             }
 823:Middlewares/lvgl/src/widgets/lv_table.c **** 
 824:Middlewares/lvgl/src/widgets/lv_table.c ****             lv_table_cell_ctrl_t ctrl = 0;
 114              		.loc 1 824 13 is_stmt 1 discriminator 1 view .LVU25
 825:Middlewares/lvgl/src/widgets/lv_table.c ****             if(table->cell_data[cell]) ctrl = table->cell_data[cell][0];
 115              		.loc 1 825 13 discriminator 1 view .LVU26
 116              		.loc 1 825 40 discriminator 1 view .LVU27
 117              		.loc 1 825 45 is_stmt 0 discriminator 1 view .LVU28
 118 0052 9EF80020 		ldrb	r2, [lr]	@ zero_extendqisi2
 119              	.LVL8:
 826:Middlewares/lvgl/src/widgets/lv_table.c **** 
 827:Middlewares/lvgl/src/widgets/lv_table.c ****             /*With text crop assume 1 line*/
 828:Middlewares/lvgl/src/widgets/lv_table.c ****             if(ctrl & LV_TABLE_CELL_CTRL_TEXT_CROP) {
 120              		.loc 1 828 13 is_stmt 1 discriminator 1 view .LVU29
 121              		.loc 1 828 15 is_stmt 0 discriminator 1 view .LVU30
 122 0056 12F0020F 		tst	r2, #2
 123 005a 3DD0     		beq	.L7
 829:Middlewares/lvgl/src/widgets/lv_table.c ****                 h_max = LV_MAX(lv_font_get_line_height(font) + cell_top + cell_bottom,
 124              		.loc 1 829 17 is_stmt 1 view .LVU31
 125              	.LVL9:
 126              	.LBB89:
 127              	.LBI89:
 118:Middlewares/lvgl/src/widgets/../core/../misc/../font/lv_font.h **** {
 128              		.loc 2 118 26 view .LVU32
 129              	.LBB90:
 130              		.loc 2 120 5 view .LVU33
 131              		.loc 2 120 18 is_stmt 0 view .LVU34
 132 005c 059B     		ldr	r3, [sp, #20]
 133              	.LVL10:
 134              		.loc 2 120 18 view .LVU35
ARM GAS  /tmp/ccTYGLnU.s 			page 20


 135 005e B3F90830 		ldrsh	r3, [r3, #8]
 136              	.LVL11:
 137              		.loc 2 120 18 view .LVU36
 138              	.LBE90:
 139              	.LBE89:
 140              		.loc 1 829 25 view .LVU37
 141 0062 069A     		ldr	r2, [sp, #24]
 142              	.LVL12:
 143              		.loc 1 829 25 view .LVU38
 144 0064 1A44     		add	r2, r2, r3
 145 0066 0799     		ldr	r1, [sp, #28]
 146 0068 0A44     		add	r2, r2, r1
 147              		.loc 1 829 23 view .LVU39
 148 006a BA42     		cmp	r2, r7
 149 006c 06DD     		ble	.L3
 150              	.LVL13:
 151              		.loc 1 829 23 view .LVU40
 152              	.LBE88:
 153              		.loc 2 120 5 is_stmt 1 view .LVU41
 154              	.LBB92:
 155              		.loc 1 829 25 is_stmt 0 view .LVU42
 156 006e 9FB2     		uxth	r7, r3
 157              	.LVL14:
 158              		.loc 1 829 25 view .LVU43
 159 0070 089B     		ldr	r3, [sp, #32]
 160 0072 1F44     		add	r7, r7, r3
 161 0074 BFB2     		uxth	r7, r7
 162 0076 099B     		ldr	r3, [sp, #36]
 163 0078 1F44     		add	r7, r7, r3
 164              		.loc 1 829 23 view .LVU44
 165 007a 3FB2     		sxth	r7, r7
 166              	.LVL15:
 167              	.L3:
 168              		.loc 1 829 23 view .LVU45
 169              	.LBE92:
 804:Middlewares/lvgl/src/widgets/lv_table.c ****         if(table->cell_data[cell] != NULL) {
 170              		.loc 1 804 71 is_stmt 1 discriminator 2 view .LVU46
 804:Middlewares/lvgl/src/widgets/lv_table.c ****         if(table->cell_data[cell] != NULL) {
 171              		.loc 1 804 75 is_stmt 0 discriminator 2 view .LVU47
 172 007c 0136     		adds	r6, r6, #1
 173              	.LVL16:
 804:Middlewares/lvgl/src/widgets/lv_table.c ****         if(table->cell_data[cell] != NULL) {
 174              		.loc 1 804 75 discriminator 2 view .LVU48
 175 007e B6B2     		uxth	r6, r6
 176              	.LVL17:
 804:Middlewares/lvgl/src/widgets/lv_table.c ****         if(table->cell_data[cell] != NULL) {
 177              		.loc 1 804 82 discriminator 2 view .LVU49
 178 0080 0135     		adds	r5, r5, #1
 179              	.LVL18:
 804:Middlewares/lvgl/src/widgets/lv_table.c ****         if(table->cell_data[cell] != NULL) {
 180              		.loc 1 804 82 discriminator 2 view .LVU50
 181 0082 ADB2     		uxth	r5, r5
 182              	.LVL19:
 183              	.L2:
 804:Middlewares/lvgl/src/widgets/lv_table.c ****         if(table->cell_data[cell] != NULL) {
 184              		.loc 1 804 36 is_stmt 1 discriminator 1 view .LVU51
 804:Middlewares/lvgl/src/widgets/lv_table.c ****         if(table->cell_data[cell] != NULL) {
ARM GAS  /tmp/ccTYGLnU.s 			page 21


 185              		.loc 1 804 41 is_stmt 0 discriminator 1 view .LVU52
 186 0084 B246     		mov	r10, r6
 804:Middlewares/lvgl/src/widgets/lv_table.c ****         if(table->cell_data[cell] != NULL) {
 187              		.loc 1 804 60 discriminator 1 view .LVU53
 188 0086 B8F824C0 		ldrh	ip, [r8, #36]
 804:Middlewares/lvgl/src/widgets/lv_table.c ****         if(table->cell_data[cell] != NULL) {
 189              		.loc 1 804 53 discriminator 1 view .LVU54
 190 008a 09EB0C03 		add	r3, r9, ip
 804:Middlewares/lvgl/src/widgets/lv_table.c ****         if(table->cell_data[cell] != NULL) {
 191              		.loc 1 804 5 discriminator 1 view .LVU55
 192 008e 9E42     		cmp	r6, r3
 193 0090 43DA     		bge	.L10
 805:Middlewares/lvgl/src/widgets/lv_table.c ****             txt_w              = table->col_w[col];
 194              		.loc 1 805 9 is_stmt 1 view .LVU56
 805:Middlewares/lvgl/src/widgets/lv_table.c ****             txt_w              = table->col_w[col];
 195              		.loc 1 805 17 is_stmt 0 view .LVU57
 196 0092 D8F82810 		ldr	r1, [r8, #40]
 805:Middlewares/lvgl/src/widgets/lv_table.c ****             txt_w              = table->col_w[col];
 197              		.loc 1 805 28 view .LVU58
 198 0096 51F826E0 		ldr	lr, [r1, r6, lsl #2]
 805:Middlewares/lvgl/src/widgets/lv_table.c ****             txt_w              = table->col_w[col];
 199              		.loc 1 805 11 view .LVU59
 200 009a BEF1000F 		cmp	lr, #0
 201 009e EDD0     		beq	.L3
 202              	.LBB93:
 806:Middlewares/lvgl/src/widgets/lv_table.c ****             uint16_t col_merge = 0;
 203              		.loc 1 806 13 is_stmt 1 view .LVU60
 806:Middlewares/lvgl/src/widgets/lv_table.c ****             uint16_t col_merge = 0;
 204              		.loc 1 806 39 is_stmt 0 view .LVU61
 205 00a0 D8F830B0 		ldr	fp, [r8, #48]
 806:Middlewares/lvgl/src/widgets/lv_table.c ****             uint16_t col_merge = 0;
 206              		.loc 1 806 32 view .LVU62
 207 00a4 3BF91530 		ldrsh	r3, [fp, r5, lsl #1]
 208              	.LVL20:
 807:Middlewares/lvgl/src/widgets/lv_table.c ****             for(col_merge = 0; col_merge + col < table->col_cnt - 1; col_merge++) {
 209              		.loc 1 807 13 is_stmt 1 view .LVU63
 808:Middlewares/lvgl/src/widgets/lv_table.c **** 
 210              		.loc 1 808 13 view .LVU64
 808:Middlewares/lvgl/src/widgets/lv_table.c **** 
 211              		.loc 1 808 27 is_stmt 0 view .LVU65
 212 00a8 0024     		movs	r4, #0
 213              	.LVL21:
 214              	.L4:
 808:Middlewares/lvgl/src/widgets/lv_table.c **** 
 215              		.loc 1 808 32 is_stmt 1 discriminator 1 view .LVU66
 808:Middlewares/lvgl/src/widgets/lv_table.c **** 
 216              		.loc 1 808 42 is_stmt 0 discriminator 1 view .LVU67
 217 00aa 2A19     		adds	r2, r5, r4
 808:Middlewares/lvgl/src/widgets/lv_table.c **** 
 218              		.loc 1 808 65 discriminator 1 view .LVU68
 219 00ac 0CF1FF30 		add	r0, ip, #-1
 808:Middlewares/lvgl/src/widgets/lv_table.c **** 
 220              		.loc 1 808 13 discriminator 1 view .LVU69
 221 00b0 8242     		cmp	r2, r0
 222 00b2 CEDA     		bge	.L5
 810:Middlewares/lvgl/src/widgets/lv_table.c ****                     lv_table_cell_ctrl_t ctrl = 0;
 223              		.loc 1 810 17 is_stmt 1 view .LVU70
ARM GAS  /tmp/ccTYGLnU.s 			page 22


 810:Middlewares/lvgl/src/widgets/lv_table.c ****                     lv_table_cell_ctrl_t ctrl = 0;
 224              		.loc 1 810 42 is_stmt 0 view .LVU71
 225 00b4 04EB0A00 		add	r0, r4, r10
 810:Middlewares/lvgl/src/widgets/lv_table.c ****                     lv_table_cell_ctrl_t ctrl = 0;
 226              		.loc 1 810 36 view .LVU72
 227 00b8 51F82000 		ldr	r0, [r1, r0, lsl #2]
 810:Middlewares/lvgl/src/widgets/lv_table.c ****                     lv_table_cell_ctrl_t ctrl = 0;
 228              		.loc 1 810 19 view .LVU73
 229 00bc 0028     		cmp	r0, #0
 230 00be C8D0     		beq	.L5
 231              	.LBB91:
 811:Middlewares/lvgl/src/widgets/lv_table.c ****                     char * next_cell_data = table->cell_data[cell + col_merge];
 232              		.loc 1 811 21 is_stmt 1 discriminator 1 view .LVU74
 233              	.LVL22:
 812:Middlewares/lvgl/src/widgets/lv_table.c ****                     if(next_cell_data) ctrl = next_cell_data[0];
 234              		.loc 1 812 21 discriminator 1 view .LVU75
 813:Middlewares/lvgl/src/widgets/lv_table.c ****                     if(ctrl & LV_TABLE_CELL_CTRL_MERGE_RIGHT)
 235              		.loc 1 813 21 discriminator 1 view .LVU76
 813:Middlewares/lvgl/src/widgets/lv_table.c ****                     if(ctrl & LV_TABLE_CELL_CTRL_MERGE_RIGHT)
 236              		.loc 1 813 40 discriminator 1 view .LVU77
 813:Middlewares/lvgl/src/widgets/lv_table.c ****                     if(ctrl & LV_TABLE_CELL_CTRL_MERGE_RIGHT)
 237              		.loc 1 813 45 is_stmt 0 discriminator 1 view .LVU78
 238 00c0 0078     		ldrb	r0, [r0]	@ zero_extendqisi2
 239              	.LVL23:
 814:Middlewares/lvgl/src/widgets/lv_table.c ****                         txt_w += table->col_w[col + col_merge + 1];
 240              		.loc 1 814 21 is_stmt 1 discriminator 1 view .LVU79
 814:Middlewares/lvgl/src/widgets/lv_table.c ****                         txt_w += table->col_w[col + col_merge + 1];
 241              		.loc 1 814 23 is_stmt 0 discriminator 1 view .LVU80
 242 00c2 10F0010F 		tst	r0, #1
 243 00c6 C4D0     		beq	.L5
 815:Middlewares/lvgl/src/widgets/lv_table.c ****                     else
 244              		.loc 1 815 25 is_stmt 1 discriminator 2 view .LVU81
 815:Middlewares/lvgl/src/widgets/lv_table.c ****                     else
 245              		.loc 1 815 46 is_stmt 0 discriminator 2 view .LVU82
 246 00c8 0132     		adds	r2, r2, #1
 247 00ca 3BF81220 		ldrh	r2, [fp, r2, lsl #1]
 815:Middlewares/lvgl/src/widgets/lv_table.c ****                     else
 248              		.loc 1 815 31 discriminator 2 view .LVU83
 249 00ce 1344     		add	r3, r3, r2
 250              	.LVL24:
 815:Middlewares/lvgl/src/widgets/lv_table.c ****                     else
 251              		.loc 1 815 31 discriminator 2 view .LVU84
 252 00d0 1BB2     		sxth	r3, r3
 253              	.LVL25:
 815:Middlewares/lvgl/src/widgets/lv_table.c ****                     else
 254              		.loc 1 815 31 discriminator 2 view .LVU85
 255              	.LBE91:
 808:Middlewares/lvgl/src/widgets/lv_table.c **** 
 256              		.loc 1 808 70 is_stmt 1 discriminator 2 view .LVU86
 808:Middlewares/lvgl/src/widgets/lv_table.c **** 
 257              		.loc 1 808 79 is_stmt 0 discriminator 2 view .LVU87
 258 00d2 0134     		adds	r4, r4, #1
 259              	.LVL26:
 808:Middlewares/lvgl/src/widgets/lv_table.c **** 
 260              		.loc 1 808 79 discriminator 2 view .LVU88
 261 00d4 A4B2     		uxth	r4, r4
 262              	.LVL27:
ARM GAS  /tmp/ccTYGLnU.s 			page 23


 808:Middlewares/lvgl/src/widgets/lv_table.c **** 
 263              		.loc 1 808 79 discriminator 2 view .LVU89
 264 00d6 E8E7     		b	.L4
 265              	.LVL28:
 266              	.L7:
 830:Middlewares/lvgl/src/widgets/lv_table.c ****                                     h_max);
 831:Middlewares/lvgl/src/widgets/lv_table.c ****             }
 832:Middlewares/lvgl/src/widgets/lv_table.c ****             /*Without text crop calculate the height of the text in the cell*/
 833:Middlewares/lvgl/src/widgets/lv_table.c ****             else {
 834:Middlewares/lvgl/src/widgets/lv_table.c ****                 txt_w -= cell_left + cell_right;
 267              		.loc 1 834 17 is_stmt 1 view .LVU90
 268              		.loc 1 834 36 is_stmt 0 view .LVU91
 269 00d8 0C9A     		ldr	r2, [sp, #48]
 270              	.LVL29:
 271              		.loc 1 834 36 view .LVU92
 272 00da 0D99     		ldr	r1, [sp, #52]
 273 00dc 0A44     		add	r2, r2, r1
 274 00de 92B2     		uxth	r2, r2
 275              		.loc 1 834 23 view .LVU93
 276 00e0 9B1A     		subs	r3, r3, r2
 277              	.LVL30:
 278              		.loc 1 834 23 view .LVU94
 279 00e2 1BB2     		sxth	r3, r3
 280              	.LVL31:
 835:Middlewares/lvgl/src/widgets/lv_table.c **** 
 836:Middlewares/lvgl/src/widgets/lv_table.c ****                 lv_txt_get_size(&txt_size, table->cell_data[cell] + 1, font,
 281              		.loc 1 836 17 is_stmt 1 view .LVU95
 282 00e4 0022     		movs	r2, #0
 283 00e6 0292     		str	r2, [sp, #8]
 284              	.LVL32:
 285              		.loc 1 836 17 is_stmt 0 view .LVU96
 286 00e8 0193     		str	r3, [sp, #4]
 287 00ea 0B9B     		ldr	r3, [sp, #44]
 288              	.LVL33:
 289              		.loc 1 836 17 view .LVU97
 290 00ec 0093     		str	r3, [sp]
 291 00ee 0A9B     		ldr	r3, [sp, #40]
 292 00f0 059A     		ldr	r2, [sp, #20]
 293 00f2 0EF10101 		add	r1, lr, #1
 294 00f6 0FA8     		add	r0, sp, #60
 295 00f8 FFF7FEFF 		bl	lv_txt_get_size
 296              	.LVL34:
 837:Middlewares/lvgl/src/widgets/lv_table.c ****                                  letter_space, line_space, txt_w, LV_TEXT_FLAG_NONE);
 838:Middlewares/lvgl/src/widgets/lv_table.c **** 
 839:Middlewares/lvgl/src/widgets/lv_table.c ****                 h_max = LV_MAX(txt_size.y + cell_top + cell_bottom, h_max);
 297              		.loc 1 839 17 is_stmt 1 view .LVU98
 298              		.loc 1 839 25 is_stmt 0 view .LVU99
 299 00fc BDF93E30 		ldrsh	r3, [sp, #62]
 300 0100 069A     		ldr	r2, [sp, #24]
 301 0102 1344     		add	r3, r3, r2
 302 0104 079A     		ldr	r2, [sp, #28]
 303 0106 1344     		add	r3, r3, r2
 304 0108 9F42     		cmp	r7, r3
 305 010a B8BF     		it	lt
 306 010c 1F46     		movlt	r7, r3
 307              	.LVL35:
 308              		.loc 1 839 23 view .LVU100
ARM GAS  /tmp/ccTYGLnU.s 			page 24


 309 010e 3FB2     		sxth	r7, r7
 310              	.LVL36:
 840:Middlewares/lvgl/src/widgets/lv_table.c ****                 cell += col_merge;
 311              		.loc 1 840 17 is_stmt 1 view .LVU101
 312              		.loc 1 840 22 is_stmt 0 view .LVU102
 313 0110 2644     		add	r6, r6, r4
 314              	.LVL37:
 315              		.loc 1 840 22 view .LVU103
 316 0112 B6B2     		uxth	r6, r6
 317              	.LVL38:
 841:Middlewares/lvgl/src/widgets/lv_table.c ****                 col += col_merge;
 318              		.loc 1 841 17 is_stmt 1 view .LVU104
 319              		.loc 1 841 21 is_stmt 0 view .LVU105
 320 0114 2544     		add	r5, r5, r4
 321              	.LVL39:
 322              		.loc 1 841 21 view .LVU106
 323 0116 ADB2     		uxth	r5, r5
 324              	.LVL40:
 325              		.loc 1 841 21 view .LVU107
 326 0118 B0E7     		b	.L3
 327              	.LVL41:
 328              	.L10:
 329              		.loc 1 841 21 view .LVU108
 330              	.LBE93:
 842:Middlewares/lvgl/src/widgets/lv_table.c ****             }
 843:Middlewares/lvgl/src/widgets/lv_table.c ****         }
 844:Middlewares/lvgl/src/widgets/lv_table.c ****     }
 845:Middlewares/lvgl/src/widgets/lv_table.c **** 
 846:Middlewares/lvgl/src/widgets/lv_table.c ****     return h_max;
 331              		.loc 1 846 5 is_stmt 1 view .LVU109
 847:Middlewares/lvgl/src/widgets/lv_table.c **** }
 332              		.loc 1 847 1 is_stmt 0 view .LVU110
 333 011a 3846     		mov	r0, r7
 334 011c 11B0     		add	sp, sp, #68
 335              	.LCFI2:
 336              		.cfi_def_cfa_offset 36
 337              		@ sp needed
 338 011e BDE8F08F 		pop	{r4, r5, r6, r7, r8, r9, r10, fp, pc}
 339              		.loc 1 847 1 view .LVU111
 340              		.cfi_endproc
 341              	.LFE166:
 343              		.section	.text.refr_size,"ax",%progbits
 344              		.align	1
 345              		.syntax unified
 346              		.thumb
 347              		.thumb_func
 348              		.fpu softvfp
 350              	refr_size:
 351              	.LVL42:
 352              	.LFB165:
 765:Middlewares/lvgl/src/widgets/lv_table.c ****     lv_table_t * table = (lv_table_t *)obj;
 353              		.loc 1 765 1 is_stmt 1 view -0
 354              		.cfi_startproc
 355              		@ args = 0, pretend = 0, frame = 16
 356              		@ frame_needed = 0, uses_anonymous_args = 0
 765:Middlewares/lvgl/src/widgets/lv_table.c ****     lv_table_t * table = (lv_table_t *)obj;
 357              		.loc 1 765 1 is_stmt 0 view .LVU113
ARM GAS  /tmp/ccTYGLnU.s 			page 25


 358 0000 2DE9F04F 		push	{r4, r5, r6, r7, r8, r9, r10, fp, lr}
 359              	.LCFI3:
 360              		.cfi_def_cfa_offset 36
 361              		.cfi_offset 4, -36
 362              		.cfi_offset 5, -32
 363              		.cfi_offset 6, -28
 364              		.cfi_offset 7, -24
 365              		.cfi_offset 8, -20
 366              		.cfi_offset 9, -16
 367              		.cfi_offset 10, -12
 368              		.cfi_offset 11, -8
 369              		.cfi_offset 14, -4
 370 0004 8BB0     		sub	sp, sp, #44
 371              	.LCFI4:
 372              		.cfi_def_cfa_offset 80
 373 0006 0546     		mov	r5, r0
 374 0008 0C46     		mov	r4, r1
 766:Middlewares/lvgl/src/widgets/lv_table.c **** 
 375              		.loc 1 766 5 is_stmt 1 view .LVU114
 376              	.LVL43:
 768:Middlewares/lvgl/src/widgets/lv_table.c **** 
 377              		.loc 1 768 5 view .LVU115
 770:Middlewares/lvgl/src/widgets/lv_table.c ****     lv_coord_t cell_right = lv_obj_get_style_pad_right(obj, LV_PART_ITEMS);
 378              		.loc 1 770 5 view .LVU116
 379              	.LBB94:
 380              	.LBI94:
 381              		.file 3 "Middlewares/lvgl/src/widgets/../core/lv_obj_style_gen.h"
   1:Middlewares/lvgl/src/widgets/../core/lv_obj_style_gen.h **** static inline lv_coord_t lv_obj_get_style_width(const struct _lv_obj_t * obj, uint32_t part)
   2:Middlewares/lvgl/src/widgets/../core/lv_obj_style_gen.h **** {
   3:Middlewares/lvgl/src/widgets/../core/lv_obj_style_gen.h ****     lv_style_value_t v = lv_obj_get_style_prop(obj, part, LV_STYLE_WIDTH);
   4:Middlewares/lvgl/src/widgets/../core/lv_obj_style_gen.h ****     return (lv_coord_t)v.num;
   5:Middlewares/lvgl/src/widgets/../core/lv_obj_style_gen.h **** }
   6:Middlewares/lvgl/src/widgets/../core/lv_obj_style_gen.h **** 
   7:Middlewares/lvgl/src/widgets/../core/lv_obj_style_gen.h **** static inline lv_coord_t lv_obj_get_style_min_width(const struct _lv_obj_t * obj, uint32_t part)
   8:Middlewares/lvgl/src/widgets/../core/lv_obj_style_gen.h **** {
   9:Middlewares/lvgl/src/widgets/../core/lv_obj_style_gen.h ****     lv_style_value_t v = lv_obj_get_style_prop(obj, part, LV_STYLE_MIN_WIDTH);
  10:Middlewares/lvgl/src/widgets/../core/lv_obj_style_gen.h ****     return (lv_coord_t)v.num;
  11:Middlewares/lvgl/src/widgets/../core/lv_obj_style_gen.h **** }
  12:Middlewares/lvgl/src/widgets/../core/lv_obj_style_gen.h **** 
  13:Middlewares/lvgl/src/widgets/../core/lv_obj_style_gen.h **** static inline lv_coord_t lv_obj_get_style_max_width(const struct _lv_obj_t * obj, uint32_t part)
  14:Middlewares/lvgl/src/widgets/../core/lv_obj_style_gen.h **** {
  15:Middlewares/lvgl/src/widgets/../core/lv_obj_style_gen.h ****     lv_style_value_t v = lv_obj_get_style_prop(obj, part, LV_STYLE_MAX_WIDTH);
  16:Middlewares/lvgl/src/widgets/../core/lv_obj_style_gen.h ****     return (lv_coord_t)v.num;
  17:Middlewares/lvgl/src/widgets/../core/lv_obj_style_gen.h **** }
  18:Middlewares/lvgl/src/widgets/../core/lv_obj_style_gen.h **** 
  19:Middlewares/lvgl/src/widgets/../core/lv_obj_style_gen.h **** static inline lv_coord_t lv_obj_get_style_height(const struct _lv_obj_t * obj, uint32_t part)
  20:Middlewares/lvgl/src/widgets/../core/lv_obj_style_gen.h **** {
  21:Middlewares/lvgl/src/widgets/../core/lv_obj_style_gen.h ****     lv_style_value_t v = lv_obj_get_style_prop(obj, part, LV_STYLE_HEIGHT);
  22:Middlewares/lvgl/src/widgets/../core/lv_obj_style_gen.h ****     return (lv_coord_t)v.num;
  23:Middlewares/lvgl/src/widgets/../core/lv_obj_style_gen.h **** }
  24:Middlewares/lvgl/src/widgets/../core/lv_obj_style_gen.h **** 
  25:Middlewares/lvgl/src/widgets/../core/lv_obj_style_gen.h **** static inline lv_coord_t lv_obj_get_style_min_height(const struct _lv_obj_t * obj, uint32_t part)
  26:Middlewares/lvgl/src/widgets/../core/lv_obj_style_gen.h **** {
  27:Middlewares/lvgl/src/widgets/../core/lv_obj_style_gen.h ****     lv_style_value_t v = lv_obj_get_style_prop(obj, part, LV_STYLE_MIN_HEIGHT);
  28:Middlewares/lvgl/src/widgets/../core/lv_obj_style_gen.h ****     return (lv_coord_t)v.num;
  29:Middlewares/lvgl/src/widgets/../core/lv_obj_style_gen.h **** }
  30:Middlewares/lvgl/src/widgets/../core/lv_obj_style_gen.h **** 
ARM GAS  /tmp/ccTYGLnU.s 			page 26


  31:Middlewares/lvgl/src/widgets/../core/lv_obj_style_gen.h **** static inline lv_coord_t lv_obj_get_style_max_height(const struct _lv_obj_t * obj, uint32_t part)
  32:Middlewares/lvgl/src/widgets/../core/lv_obj_style_gen.h **** {
  33:Middlewares/lvgl/src/widgets/../core/lv_obj_style_gen.h ****     lv_style_value_t v = lv_obj_get_style_prop(obj, part, LV_STYLE_MAX_HEIGHT);
  34:Middlewares/lvgl/src/widgets/../core/lv_obj_style_gen.h ****     return (lv_coord_t)v.num;
  35:Middlewares/lvgl/src/widgets/../core/lv_obj_style_gen.h **** }
  36:Middlewares/lvgl/src/widgets/../core/lv_obj_style_gen.h **** 
  37:Middlewares/lvgl/src/widgets/../core/lv_obj_style_gen.h **** static inline lv_coord_t lv_obj_get_style_x(const struct _lv_obj_t * obj, uint32_t part)
  38:Middlewares/lvgl/src/widgets/../core/lv_obj_style_gen.h **** {
  39:Middlewares/lvgl/src/widgets/../core/lv_obj_style_gen.h ****     lv_style_value_t v = lv_obj_get_style_prop(obj, part, LV_STYLE_X);
  40:Middlewares/lvgl/src/widgets/../core/lv_obj_style_gen.h ****     return (lv_coord_t)v.num;
  41:Middlewares/lvgl/src/widgets/../core/lv_obj_style_gen.h **** }
  42:Middlewares/lvgl/src/widgets/../core/lv_obj_style_gen.h **** 
  43:Middlewares/lvgl/src/widgets/../core/lv_obj_style_gen.h **** static inline lv_coord_t lv_obj_get_style_y(const struct _lv_obj_t * obj, uint32_t part)
  44:Middlewares/lvgl/src/widgets/../core/lv_obj_style_gen.h **** {
  45:Middlewares/lvgl/src/widgets/../core/lv_obj_style_gen.h ****     lv_style_value_t v = lv_obj_get_style_prop(obj, part, LV_STYLE_Y);
  46:Middlewares/lvgl/src/widgets/../core/lv_obj_style_gen.h ****     return (lv_coord_t)v.num;
  47:Middlewares/lvgl/src/widgets/../core/lv_obj_style_gen.h **** }
  48:Middlewares/lvgl/src/widgets/../core/lv_obj_style_gen.h **** 
  49:Middlewares/lvgl/src/widgets/../core/lv_obj_style_gen.h **** static inline lv_align_t lv_obj_get_style_align(const struct _lv_obj_t * obj, uint32_t part)
  50:Middlewares/lvgl/src/widgets/../core/lv_obj_style_gen.h **** {
  51:Middlewares/lvgl/src/widgets/../core/lv_obj_style_gen.h ****     lv_style_value_t v = lv_obj_get_style_prop(obj, part, LV_STYLE_ALIGN);
  52:Middlewares/lvgl/src/widgets/../core/lv_obj_style_gen.h ****     return (lv_align_t)v.num;
  53:Middlewares/lvgl/src/widgets/../core/lv_obj_style_gen.h **** }
  54:Middlewares/lvgl/src/widgets/../core/lv_obj_style_gen.h **** 
  55:Middlewares/lvgl/src/widgets/../core/lv_obj_style_gen.h **** static inline lv_coord_t lv_obj_get_style_transform_width(const struct _lv_obj_t * obj, uint32_t pa
  56:Middlewares/lvgl/src/widgets/../core/lv_obj_style_gen.h **** {
  57:Middlewares/lvgl/src/widgets/../core/lv_obj_style_gen.h ****     lv_style_value_t v = lv_obj_get_style_prop(obj, part, LV_STYLE_TRANSFORM_WIDTH);
  58:Middlewares/lvgl/src/widgets/../core/lv_obj_style_gen.h ****     return (lv_coord_t)v.num;
  59:Middlewares/lvgl/src/widgets/../core/lv_obj_style_gen.h **** }
  60:Middlewares/lvgl/src/widgets/../core/lv_obj_style_gen.h **** 
  61:Middlewares/lvgl/src/widgets/../core/lv_obj_style_gen.h **** static inline lv_coord_t lv_obj_get_style_transform_height(const struct _lv_obj_t * obj, uint32_t p
  62:Middlewares/lvgl/src/widgets/../core/lv_obj_style_gen.h **** {
  63:Middlewares/lvgl/src/widgets/../core/lv_obj_style_gen.h ****     lv_style_value_t v = lv_obj_get_style_prop(obj, part, LV_STYLE_TRANSFORM_HEIGHT);
  64:Middlewares/lvgl/src/widgets/../core/lv_obj_style_gen.h ****     return (lv_coord_t)v.num;
  65:Middlewares/lvgl/src/widgets/../core/lv_obj_style_gen.h **** }
  66:Middlewares/lvgl/src/widgets/../core/lv_obj_style_gen.h **** 
  67:Middlewares/lvgl/src/widgets/../core/lv_obj_style_gen.h **** static inline lv_coord_t lv_obj_get_style_translate_x(const struct _lv_obj_t * obj, uint32_t part)
  68:Middlewares/lvgl/src/widgets/../core/lv_obj_style_gen.h **** {
  69:Middlewares/lvgl/src/widgets/../core/lv_obj_style_gen.h ****     lv_style_value_t v = lv_obj_get_style_prop(obj, part, LV_STYLE_TRANSLATE_X);
  70:Middlewares/lvgl/src/widgets/../core/lv_obj_style_gen.h ****     return (lv_coord_t)v.num;
  71:Middlewares/lvgl/src/widgets/../core/lv_obj_style_gen.h **** }
  72:Middlewares/lvgl/src/widgets/../core/lv_obj_style_gen.h **** 
  73:Middlewares/lvgl/src/widgets/../core/lv_obj_style_gen.h **** static inline lv_coord_t lv_obj_get_style_translate_y(const struct _lv_obj_t * obj, uint32_t part)
  74:Middlewares/lvgl/src/widgets/../core/lv_obj_style_gen.h **** {
  75:Middlewares/lvgl/src/widgets/../core/lv_obj_style_gen.h ****     lv_style_value_t v = lv_obj_get_style_prop(obj, part, LV_STYLE_TRANSLATE_Y);
  76:Middlewares/lvgl/src/widgets/../core/lv_obj_style_gen.h ****     return (lv_coord_t)v.num;
  77:Middlewares/lvgl/src/widgets/../core/lv_obj_style_gen.h **** }
  78:Middlewares/lvgl/src/widgets/../core/lv_obj_style_gen.h **** 
  79:Middlewares/lvgl/src/widgets/../core/lv_obj_style_gen.h **** static inline lv_coord_t lv_obj_get_style_transform_zoom(const struct _lv_obj_t * obj, uint32_t par
  80:Middlewares/lvgl/src/widgets/../core/lv_obj_style_gen.h **** {
  81:Middlewares/lvgl/src/widgets/../core/lv_obj_style_gen.h ****     lv_style_value_t v = lv_obj_get_style_prop(obj, part, LV_STYLE_TRANSFORM_ZOOM);
  82:Middlewares/lvgl/src/widgets/../core/lv_obj_style_gen.h ****     return (lv_coord_t)v.num;
  83:Middlewares/lvgl/src/widgets/../core/lv_obj_style_gen.h **** }
  84:Middlewares/lvgl/src/widgets/../core/lv_obj_style_gen.h **** 
  85:Middlewares/lvgl/src/widgets/../core/lv_obj_style_gen.h **** static inline lv_coord_t lv_obj_get_style_transform_angle(const struct _lv_obj_t * obj, uint32_t pa
  86:Middlewares/lvgl/src/widgets/../core/lv_obj_style_gen.h **** {
  87:Middlewares/lvgl/src/widgets/../core/lv_obj_style_gen.h ****     lv_style_value_t v = lv_obj_get_style_prop(obj, part, LV_STYLE_TRANSFORM_ANGLE);
ARM GAS  /tmp/ccTYGLnU.s 			page 27


  88:Middlewares/lvgl/src/widgets/../core/lv_obj_style_gen.h ****     return (lv_coord_t)v.num;
  89:Middlewares/lvgl/src/widgets/../core/lv_obj_style_gen.h **** }
  90:Middlewares/lvgl/src/widgets/../core/lv_obj_style_gen.h **** 
  91:Middlewares/lvgl/src/widgets/../core/lv_obj_style_gen.h **** static inline lv_coord_t lv_obj_get_style_pad_top(const struct _lv_obj_t * obj, uint32_t part)
  92:Middlewares/lvgl/src/widgets/../core/lv_obj_style_gen.h **** {
  93:Middlewares/lvgl/src/widgets/../core/lv_obj_style_gen.h ****     lv_style_value_t v = lv_obj_get_style_prop(obj, part, LV_STYLE_PAD_TOP);
  94:Middlewares/lvgl/src/widgets/../core/lv_obj_style_gen.h ****     return (lv_coord_t)v.num;
  95:Middlewares/lvgl/src/widgets/../core/lv_obj_style_gen.h **** }
  96:Middlewares/lvgl/src/widgets/../core/lv_obj_style_gen.h **** 
  97:Middlewares/lvgl/src/widgets/../core/lv_obj_style_gen.h **** static inline lv_coord_t lv_obj_get_style_pad_bottom(const struct _lv_obj_t * obj, uint32_t part)
  98:Middlewares/lvgl/src/widgets/../core/lv_obj_style_gen.h **** {
  99:Middlewares/lvgl/src/widgets/../core/lv_obj_style_gen.h ****     lv_style_value_t v = lv_obj_get_style_prop(obj, part, LV_STYLE_PAD_BOTTOM);
 100:Middlewares/lvgl/src/widgets/../core/lv_obj_style_gen.h ****     return (lv_coord_t)v.num;
 101:Middlewares/lvgl/src/widgets/../core/lv_obj_style_gen.h **** }
 102:Middlewares/lvgl/src/widgets/../core/lv_obj_style_gen.h **** 
 103:Middlewares/lvgl/src/widgets/../core/lv_obj_style_gen.h **** static inline lv_coord_t lv_obj_get_style_pad_left(const struct _lv_obj_t * obj, uint32_t part)
 382              		.loc 3 103 26 view .LVU117
 383              	.LBB95:
 104:Middlewares/lvgl/src/widgets/../core/lv_obj_style_gen.h **** {
 105:Middlewares/lvgl/src/widgets/../core/lv_obj_style_gen.h ****     lv_style_value_t v = lv_obj_get_style_prop(obj, part, LV_STYLE_PAD_LEFT);
 384              		.loc 3 105 5 view .LVU118
 385              		.loc 3 105 26 is_stmt 0 view .LVU119
 386 000a 41F21202 		movw	r2, #4114
 387 000e 4FF4A021 		mov	r1, #327680
 388              	.LVL44:
 389              		.loc 3 105 26 view .LVU120
 390 0012 FFF7FEFF 		bl	lv_obj_get_style_prop
 391              	.LVL45:
 106:Middlewares/lvgl/src/widgets/../core/lv_obj_style_gen.h ****     return (lv_coord_t)v.num;
 392              		.loc 3 106 5 is_stmt 1 view .LVU121
 393              		.loc 3 106 12 is_stmt 0 view .LVU122
 394 0016 0FFA80FB 		sxth	fp, r0
 395              	.LVL46:
 396              		.loc 3 106 12 view .LVU123
 397              	.LBE95:
 398              	.LBE94:
 771:Middlewares/lvgl/src/widgets/lv_table.c ****     lv_coord_t cell_top = lv_obj_get_style_pad_top(obj, LV_PART_ITEMS);
 399              		.loc 1 771 5 is_stmt 1 view .LVU124
 400              	.LBB96:
 401              	.LBI96:
 107:Middlewares/lvgl/src/widgets/../core/lv_obj_style_gen.h **** }
 108:Middlewares/lvgl/src/widgets/../core/lv_obj_style_gen.h **** 
 109:Middlewares/lvgl/src/widgets/../core/lv_obj_style_gen.h **** static inline lv_coord_t lv_obj_get_style_pad_right(const struct _lv_obj_t * obj, uint32_t part)
 402              		.loc 3 109 26 view .LVU125
 403              	.LBB97:
 110:Middlewares/lvgl/src/widgets/../core/lv_obj_style_gen.h **** {
 111:Middlewares/lvgl/src/widgets/../core/lv_obj_style_gen.h ****     lv_style_value_t v = lv_obj_get_style_prop(obj, part, LV_STYLE_PAD_RIGHT);
 404              		.loc 3 111 5 view .LVU126
 405              		.loc 3 111 26 is_stmt 0 view .LVU127
 406 001a 41F21302 		movw	r2, #4115
 407 001e 4FF4A021 		mov	r1, #327680
 408 0022 2846     		mov	r0, r5
 409 0024 FFF7FEFF 		bl	lv_obj_get_style_prop
 410              	.LVL47:
 112:Middlewares/lvgl/src/widgets/../core/lv_obj_style_gen.h ****     return (lv_coord_t)v.num;
 411              		.loc 3 112 5 is_stmt 1 view .LVU128
 412              		.loc 3 112 12 is_stmt 0 view .LVU129
ARM GAS  /tmp/ccTYGLnU.s 			page 28


 413 0028 0FFA80FA 		sxth	r10, r0
 414              	.LVL48:
 415              		.loc 3 112 12 view .LVU130
 416              	.LBE97:
 417              	.LBE96:
 772:Middlewares/lvgl/src/widgets/lv_table.c ****     lv_coord_t cell_bottom = lv_obj_get_style_pad_bottom(obj, LV_PART_ITEMS);
 418              		.loc 1 772 5 is_stmt 1 view .LVU131
 419              	.LBB98:
 420              	.LBI98:
  91:Middlewares/lvgl/src/widgets/../core/lv_obj_style_gen.h **** {
 421              		.loc 3 91 26 view .LVU132
 422              	.LBB99:
  93:Middlewares/lvgl/src/widgets/../core/lv_obj_style_gen.h ****     return (lv_coord_t)v.num;
 423              		.loc 3 93 5 view .LVU133
  93:Middlewares/lvgl/src/widgets/../core/lv_obj_style_gen.h ****     return (lv_coord_t)v.num;
 424              		.loc 3 93 26 is_stmt 0 view .LVU134
 425 002c 41F21002 		movw	r2, #4112
 426 0030 4FF4A021 		mov	r1, #327680
 427 0034 2846     		mov	r0, r5
 428 0036 FFF7FEFF 		bl	lv_obj_get_style_prop
 429              	.LVL49:
  94:Middlewares/lvgl/src/widgets/../core/lv_obj_style_gen.h **** }
 430              		.loc 3 94 5 is_stmt 1 view .LVU135
  94:Middlewares/lvgl/src/widgets/../core/lv_obj_style_gen.h **** }
 431              		.loc 3 94 12 is_stmt 0 view .LVU136
 432 003a 0FFA80F9 		sxth	r9, r0
 433              	.LVL50:
  94:Middlewares/lvgl/src/widgets/../core/lv_obj_style_gen.h **** }
 434              		.loc 3 94 12 view .LVU137
 435              	.LBE99:
 436              	.LBE98:
 773:Middlewares/lvgl/src/widgets/lv_table.c **** 
 437              		.loc 1 773 5 is_stmt 1 view .LVU138
 438              	.LBB100:
 439              	.LBI100:
  97:Middlewares/lvgl/src/widgets/../core/lv_obj_style_gen.h **** {
 440              		.loc 3 97 26 view .LVU139
 441              	.LBB101:
  99:Middlewares/lvgl/src/widgets/../core/lv_obj_style_gen.h ****     return (lv_coord_t)v.num;
 442              		.loc 3 99 5 view .LVU140
  99:Middlewares/lvgl/src/widgets/../core/lv_obj_style_gen.h ****     return (lv_coord_t)v.num;
 443              		.loc 3 99 26 is_stmt 0 view .LVU141
 444 003e 41F21102 		movw	r2, #4113
 445 0042 4FF4A021 		mov	r1, #327680
 446 0046 2846     		mov	r0, r5
 447 0048 FFF7FEFF 		bl	lv_obj_get_style_prop
 448              	.LVL51:
 100:Middlewares/lvgl/src/widgets/../core/lv_obj_style_gen.h **** }
 449              		.loc 3 100 5 is_stmt 1 view .LVU142
 100:Middlewares/lvgl/src/widgets/../core/lv_obj_style_gen.h **** }
 450              		.loc 3 100 12 is_stmt 0 view .LVU143
 451 004c 03B2     		sxth	r3, r0
 452 004e 0993     		str	r3, [sp, #36]
 453              	.LVL52:
 100:Middlewares/lvgl/src/widgets/../core/lv_obj_style_gen.h **** }
 454              		.loc 3 100 12 view .LVU144
 455              	.LBE101:
ARM GAS  /tmp/ccTYGLnU.s 			page 29


 456              	.LBE100:
 775:Middlewares/lvgl/src/widgets/lv_table.c ****     lv_coord_t line_space = lv_obj_get_style_text_line_space(obj, LV_PART_ITEMS);
 457              		.loc 1 775 5 is_stmt 1 view .LVU145
 458              	.LBB102:
 459              	.LBI102:
 113:Middlewares/lvgl/src/widgets/../core/lv_obj_style_gen.h **** }
 114:Middlewares/lvgl/src/widgets/../core/lv_obj_style_gen.h **** 
 115:Middlewares/lvgl/src/widgets/../core/lv_obj_style_gen.h **** static inline lv_coord_t lv_obj_get_style_pad_row(const struct _lv_obj_t * obj, uint32_t part)
 116:Middlewares/lvgl/src/widgets/../core/lv_obj_style_gen.h **** {
 117:Middlewares/lvgl/src/widgets/../core/lv_obj_style_gen.h ****     lv_style_value_t v = lv_obj_get_style_prop(obj, part, LV_STYLE_PAD_ROW);
 118:Middlewares/lvgl/src/widgets/../core/lv_obj_style_gen.h ****     return (lv_coord_t)v.num;
 119:Middlewares/lvgl/src/widgets/../core/lv_obj_style_gen.h **** }
 120:Middlewares/lvgl/src/widgets/../core/lv_obj_style_gen.h **** 
 121:Middlewares/lvgl/src/widgets/../core/lv_obj_style_gen.h **** static inline lv_coord_t lv_obj_get_style_pad_column(const struct _lv_obj_t * obj, uint32_t part)
 122:Middlewares/lvgl/src/widgets/../core/lv_obj_style_gen.h **** {
 123:Middlewares/lvgl/src/widgets/../core/lv_obj_style_gen.h ****     lv_style_value_t v = lv_obj_get_style_prop(obj, part, LV_STYLE_PAD_COLUMN);
 124:Middlewares/lvgl/src/widgets/../core/lv_obj_style_gen.h ****     return (lv_coord_t)v.num;
 125:Middlewares/lvgl/src/widgets/../core/lv_obj_style_gen.h **** }
 126:Middlewares/lvgl/src/widgets/../core/lv_obj_style_gen.h **** 
 127:Middlewares/lvgl/src/widgets/../core/lv_obj_style_gen.h **** static inline lv_coord_t lv_obj_get_style_radius(const struct _lv_obj_t * obj, uint32_t part)
 128:Middlewares/lvgl/src/widgets/../core/lv_obj_style_gen.h **** {
 129:Middlewares/lvgl/src/widgets/../core/lv_obj_style_gen.h ****     lv_style_value_t v = lv_obj_get_style_prop(obj, part, LV_STYLE_RADIUS);
 130:Middlewares/lvgl/src/widgets/../core/lv_obj_style_gen.h ****     return (lv_coord_t)v.num;
 131:Middlewares/lvgl/src/widgets/../core/lv_obj_style_gen.h **** }
 132:Middlewares/lvgl/src/widgets/../core/lv_obj_style_gen.h **** 
 133:Middlewares/lvgl/src/widgets/../core/lv_obj_style_gen.h **** static inline bool lv_obj_get_style_clip_corner(const struct _lv_obj_t * obj, uint32_t part)
 134:Middlewares/lvgl/src/widgets/../core/lv_obj_style_gen.h **** {
 135:Middlewares/lvgl/src/widgets/../core/lv_obj_style_gen.h ****     lv_style_value_t v = lv_obj_get_style_prop(obj, part, LV_STYLE_CLIP_CORNER);
 136:Middlewares/lvgl/src/widgets/../core/lv_obj_style_gen.h ****     return (bool)v.num;
 137:Middlewares/lvgl/src/widgets/../core/lv_obj_style_gen.h **** }
 138:Middlewares/lvgl/src/widgets/../core/lv_obj_style_gen.h **** 
 139:Middlewares/lvgl/src/widgets/../core/lv_obj_style_gen.h **** static inline lv_opa_t lv_obj_get_style_opa(const struct _lv_obj_t * obj, uint32_t part)
 140:Middlewares/lvgl/src/widgets/../core/lv_obj_style_gen.h **** {
 141:Middlewares/lvgl/src/widgets/../core/lv_obj_style_gen.h ****     lv_style_value_t v = lv_obj_get_style_prop(obj, part, LV_STYLE_OPA);
 142:Middlewares/lvgl/src/widgets/../core/lv_obj_style_gen.h ****     return (lv_opa_t)v.num;
 143:Middlewares/lvgl/src/widgets/../core/lv_obj_style_gen.h **** }
 144:Middlewares/lvgl/src/widgets/../core/lv_obj_style_gen.h **** 
 145:Middlewares/lvgl/src/widgets/../core/lv_obj_style_gen.h **** static inline const lv_color_filter_dsc_t * lv_obj_get_style_color_filter_dsc(const struct _lv_obj_
 146:Middlewares/lvgl/src/widgets/../core/lv_obj_style_gen.h **** {
 147:Middlewares/lvgl/src/widgets/../core/lv_obj_style_gen.h ****     lv_style_value_t v = lv_obj_get_style_prop(obj, part, LV_STYLE_COLOR_FILTER_DSC);
 148:Middlewares/lvgl/src/widgets/../core/lv_obj_style_gen.h ****     return (const lv_color_filter_dsc_t *)v.ptr;
 149:Middlewares/lvgl/src/widgets/../core/lv_obj_style_gen.h **** }
 150:Middlewares/lvgl/src/widgets/../core/lv_obj_style_gen.h **** 
 151:Middlewares/lvgl/src/widgets/../core/lv_obj_style_gen.h **** static inline lv_opa_t lv_obj_get_style_color_filter_opa(const struct _lv_obj_t * obj, uint32_t par
 152:Middlewares/lvgl/src/widgets/../core/lv_obj_style_gen.h **** {
 153:Middlewares/lvgl/src/widgets/../core/lv_obj_style_gen.h ****     lv_style_value_t v = lv_obj_get_style_prop(obj, part, LV_STYLE_COLOR_FILTER_OPA);
 154:Middlewares/lvgl/src/widgets/../core/lv_obj_style_gen.h ****     return (lv_opa_t)v.num;
 155:Middlewares/lvgl/src/widgets/../core/lv_obj_style_gen.h **** }
 156:Middlewares/lvgl/src/widgets/../core/lv_obj_style_gen.h **** 
 157:Middlewares/lvgl/src/widgets/../core/lv_obj_style_gen.h **** static inline uint32_t lv_obj_get_style_anim_time(const struct _lv_obj_t * obj, uint32_t part)
 158:Middlewares/lvgl/src/widgets/../core/lv_obj_style_gen.h **** {
 159:Middlewares/lvgl/src/widgets/../core/lv_obj_style_gen.h ****     lv_style_value_t v = lv_obj_get_style_prop(obj, part, LV_STYLE_ANIM_TIME);
 160:Middlewares/lvgl/src/widgets/../core/lv_obj_style_gen.h ****     return (uint32_t)v.num;
 161:Middlewares/lvgl/src/widgets/../core/lv_obj_style_gen.h **** }
 162:Middlewares/lvgl/src/widgets/../core/lv_obj_style_gen.h **** 
 163:Middlewares/lvgl/src/widgets/../core/lv_obj_style_gen.h **** static inline uint32_t lv_obj_get_style_anim_speed(const struct _lv_obj_t * obj, uint32_t part)
 164:Middlewares/lvgl/src/widgets/../core/lv_obj_style_gen.h **** {
ARM GAS  /tmp/ccTYGLnU.s 			page 30


 165:Middlewares/lvgl/src/widgets/../core/lv_obj_style_gen.h ****     lv_style_value_t v = lv_obj_get_style_prop(obj, part, LV_STYLE_ANIM_SPEED);
 166:Middlewares/lvgl/src/widgets/../core/lv_obj_style_gen.h ****     return (uint32_t)v.num;
 167:Middlewares/lvgl/src/widgets/../core/lv_obj_style_gen.h **** }
 168:Middlewares/lvgl/src/widgets/../core/lv_obj_style_gen.h **** 
 169:Middlewares/lvgl/src/widgets/../core/lv_obj_style_gen.h **** static inline const lv_style_transition_dsc_t * lv_obj_get_style_transition(const struct _lv_obj_t 
 170:Middlewares/lvgl/src/widgets/../core/lv_obj_style_gen.h **** {
 171:Middlewares/lvgl/src/widgets/../core/lv_obj_style_gen.h ****     lv_style_value_t v = lv_obj_get_style_prop(obj, part, LV_STYLE_TRANSITION);
 172:Middlewares/lvgl/src/widgets/../core/lv_obj_style_gen.h ****     return (const lv_style_transition_dsc_t *)v.ptr;
 173:Middlewares/lvgl/src/widgets/../core/lv_obj_style_gen.h **** }
 174:Middlewares/lvgl/src/widgets/../core/lv_obj_style_gen.h **** 
 175:Middlewares/lvgl/src/widgets/../core/lv_obj_style_gen.h **** static inline lv_blend_mode_t lv_obj_get_style_blend_mode(const struct _lv_obj_t * obj, uint32_t pa
 176:Middlewares/lvgl/src/widgets/../core/lv_obj_style_gen.h **** {
 177:Middlewares/lvgl/src/widgets/../core/lv_obj_style_gen.h ****     lv_style_value_t v = lv_obj_get_style_prop(obj, part, LV_STYLE_BLEND_MODE);
 178:Middlewares/lvgl/src/widgets/../core/lv_obj_style_gen.h ****     return (lv_blend_mode_t)v.num;
 179:Middlewares/lvgl/src/widgets/../core/lv_obj_style_gen.h **** }
 180:Middlewares/lvgl/src/widgets/../core/lv_obj_style_gen.h **** 
 181:Middlewares/lvgl/src/widgets/../core/lv_obj_style_gen.h **** static inline uint16_t lv_obj_get_style_layout(const struct _lv_obj_t * obj, uint32_t part)
 182:Middlewares/lvgl/src/widgets/../core/lv_obj_style_gen.h **** {
 183:Middlewares/lvgl/src/widgets/../core/lv_obj_style_gen.h ****     lv_style_value_t v = lv_obj_get_style_prop(obj, part, LV_STYLE_LAYOUT);
 184:Middlewares/lvgl/src/widgets/../core/lv_obj_style_gen.h ****     return (uint16_t)v.num;
 185:Middlewares/lvgl/src/widgets/../core/lv_obj_style_gen.h **** }
 186:Middlewares/lvgl/src/widgets/../core/lv_obj_style_gen.h **** 
 187:Middlewares/lvgl/src/widgets/../core/lv_obj_style_gen.h **** static inline lv_base_dir_t lv_obj_get_style_base_dir(const struct _lv_obj_t * obj, uint32_t part)
 188:Middlewares/lvgl/src/widgets/../core/lv_obj_style_gen.h **** {
 189:Middlewares/lvgl/src/widgets/../core/lv_obj_style_gen.h ****     lv_style_value_t v = lv_obj_get_style_prop(obj, part, LV_STYLE_BASE_DIR);
 190:Middlewares/lvgl/src/widgets/../core/lv_obj_style_gen.h ****     return (lv_base_dir_t)v.num;
 191:Middlewares/lvgl/src/widgets/../core/lv_obj_style_gen.h **** }
 192:Middlewares/lvgl/src/widgets/../core/lv_obj_style_gen.h **** 
 193:Middlewares/lvgl/src/widgets/../core/lv_obj_style_gen.h **** static inline lv_color_t lv_obj_get_style_bg_color(const struct _lv_obj_t * obj, uint32_t part)
 194:Middlewares/lvgl/src/widgets/../core/lv_obj_style_gen.h **** {
 195:Middlewares/lvgl/src/widgets/../core/lv_obj_style_gen.h ****     lv_style_value_t v = lv_obj_get_style_prop(obj, part, LV_STYLE_BG_COLOR);
 196:Middlewares/lvgl/src/widgets/../core/lv_obj_style_gen.h ****     return v.color;
 197:Middlewares/lvgl/src/widgets/../core/lv_obj_style_gen.h **** }
 198:Middlewares/lvgl/src/widgets/../core/lv_obj_style_gen.h **** 
 199:Middlewares/lvgl/src/widgets/../core/lv_obj_style_gen.h **** static inline lv_color_t lv_obj_get_style_bg_color_filtered(const struct _lv_obj_t * obj, uint32_t 
 200:Middlewares/lvgl/src/widgets/../core/lv_obj_style_gen.h **** {
 201:Middlewares/lvgl/src/widgets/../core/lv_obj_style_gen.h ****     lv_style_value_t v = lv_obj_get_style_prop(obj, part, LV_STYLE_BG_COLOR_FILTERED);
 202:Middlewares/lvgl/src/widgets/../core/lv_obj_style_gen.h ****     return v.color;
 203:Middlewares/lvgl/src/widgets/../core/lv_obj_style_gen.h **** }
 204:Middlewares/lvgl/src/widgets/../core/lv_obj_style_gen.h **** 
 205:Middlewares/lvgl/src/widgets/../core/lv_obj_style_gen.h **** static inline lv_opa_t lv_obj_get_style_bg_opa(const struct _lv_obj_t * obj, uint32_t part)
 206:Middlewares/lvgl/src/widgets/../core/lv_obj_style_gen.h **** {
 207:Middlewares/lvgl/src/widgets/../core/lv_obj_style_gen.h ****     lv_style_value_t v = lv_obj_get_style_prop(obj, part, LV_STYLE_BG_OPA);
 208:Middlewares/lvgl/src/widgets/../core/lv_obj_style_gen.h ****     return (lv_opa_t)v.num;
 209:Middlewares/lvgl/src/widgets/../core/lv_obj_style_gen.h **** }
 210:Middlewares/lvgl/src/widgets/../core/lv_obj_style_gen.h **** 
 211:Middlewares/lvgl/src/widgets/../core/lv_obj_style_gen.h **** static inline lv_color_t lv_obj_get_style_bg_grad_color(const struct _lv_obj_t * obj, uint32_t part
 212:Middlewares/lvgl/src/widgets/../core/lv_obj_style_gen.h **** {
 213:Middlewares/lvgl/src/widgets/../core/lv_obj_style_gen.h ****     lv_style_value_t v = lv_obj_get_style_prop(obj, part, LV_STYLE_BG_GRAD_COLOR);
 214:Middlewares/lvgl/src/widgets/../core/lv_obj_style_gen.h ****     return v.color;
 215:Middlewares/lvgl/src/widgets/../core/lv_obj_style_gen.h **** }
 216:Middlewares/lvgl/src/widgets/../core/lv_obj_style_gen.h **** 
 217:Middlewares/lvgl/src/widgets/../core/lv_obj_style_gen.h **** static inline lv_color_t lv_obj_get_style_bg_grad_color_filtered(const struct _lv_obj_t * obj, uint
 218:Middlewares/lvgl/src/widgets/../core/lv_obj_style_gen.h **** {
 219:Middlewares/lvgl/src/widgets/../core/lv_obj_style_gen.h ****     lv_style_value_t v = lv_obj_get_style_prop(obj, part, LV_STYLE_BG_GRAD_COLOR_FILTERED);
 220:Middlewares/lvgl/src/widgets/../core/lv_obj_style_gen.h ****     return v.color;
 221:Middlewares/lvgl/src/widgets/../core/lv_obj_style_gen.h **** }
ARM GAS  /tmp/ccTYGLnU.s 			page 31


 222:Middlewares/lvgl/src/widgets/../core/lv_obj_style_gen.h **** 
 223:Middlewares/lvgl/src/widgets/../core/lv_obj_style_gen.h **** static inline lv_grad_dir_t lv_obj_get_style_bg_grad_dir(const struct _lv_obj_t * obj, uint32_t par
 224:Middlewares/lvgl/src/widgets/../core/lv_obj_style_gen.h **** {
 225:Middlewares/lvgl/src/widgets/../core/lv_obj_style_gen.h ****     lv_style_value_t v = lv_obj_get_style_prop(obj, part, LV_STYLE_BG_GRAD_DIR);
 226:Middlewares/lvgl/src/widgets/../core/lv_obj_style_gen.h ****     return (lv_grad_dir_t)v.num;
 227:Middlewares/lvgl/src/widgets/../core/lv_obj_style_gen.h **** }
 228:Middlewares/lvgl/src/widgets/../core/lv_obj_style_gen.h **** 
 229:Middlewares/lvgl/src/widgets/../core/lv_obj_style_gen.h **** static inline lv_coord_t lv_obj_get_style_bg_main_stop(const struct _lv_obj_t * obj, uint32_t part)
 230:Middlewares/lvgl/src/widgets/../core/lv_obj_style_gen.h **** {
 231:Middlewares/lvgl/src/widgets/../core/lv_obj_style_gen.h ****     lv_style_value_t v = lv_obj_get_style_prop(obj, part, LV_STYLE_BG_MAIN_STOP);
 232:Middlewares/lvgl/src/widgets/../core/lv_obj_style_gen.h ****     return (lv_coord_t)v.num;
 233:Middlewares/lvgl/src/widgets/../core/lv_obj_style_gen.h **** }
 234:Middlewares/lvgl/src/widgets/../core/lv_obj_style_gen.h **** 
 235:Middlewares/lvgl/src/widgets/../core/lv_obj_style_gen.h **** static inline lv_coord_t lv_obj_get_style_bg_grad_stop(const struct _lv_obj_t * obj, uint32_t part)
 236:Middlewares/lvgl/src/widgets/../core/lv_obj_style_gen.h **** {
 237:Middlewares/lvgl/src/widgets/../core/lv_obj_style_gen.h ****     lv_style_value_t v = lv_obj_get_style_prop(obj, part, LV_STYLE_BG_GRAD_STOP);
 238:Middlewares/lvgl/src/widgets/../core/lv_obj_style_gen.h ****     return (lv_coord_t)v.num;
 239:Middlewares/lvgl/src/widgets/../core/lv_obj_style_gen.h **** }
 240:Middlewares/lvgl/src/widgets/../core/lv_obj_style_gen.h **** 
 241:Middlewares/lvgl/src/widgets/../core/lv_obj_style_gen.h **** static inline const void * lv_obj_get_style_bg_img_src(const struct _lv_obj_t * obj, uint32_t part)
 242:Middlewares/lvgl/src/widgets/../core/lv_obj_style_gen.h **** {
 243:Middlewares/lvgl/src/widgets/../core/lv_obj_style_gen.h ****     lv_style_value_t v = lv_obj_get_style_prop(obj, part, LV_STYLE_BG_IMG_SRC);
 244:Middlewares/lvgl/src/widgets/../core/lv_obj_style_gen.h ****     return (const void *)v.ptr;
 245:Middlewares/lvgl/src/widgets/../core/lv_obj_style_gen.h **** }
 246:Middlewares/lvgl/src/widgets/../core/lv_obj_style_gen.h **** 
 247:Middlewares/lvgl/src/widgets/../core/lv_obj_style_gen.h **** static inline lv_opa_t lv_obj_get_style_bg_img_opa(const struct _lv_obj_t * obj, uint32_t part)
 248:Middlewares/lvgl/src/widgets/../core/lv_obj_style_gen.h **** {
 249:Middlewares/lvgl/src/widgets/../core/lv_obj_style_gen.h ****     lv_style_value_t v = lv_obj_get_style_prop(obj, part, LV_STYLE_BG_IMG_OPA);
 250:Middlewares/lvgl/src/widgets/../core/lv_obj_style_gen.h ****     return (lv_opa_t)v.num;
 251:Middlewares/lvgl/src/widgets/../core/lv_obj_style_gen.h **** }
 252:Middlewares/lvgl/src/widgets/../core/lv_obj_style_gen.h **** 
 253:Middlewares/lvgl/src/widgets/../core/lv_obj_style_gen.h **** static inline lv_color_t lv_obj_get_style_bg_img_recolor(const struct _lv_obj_t * obj, uint32_t par
 254:Middlewares/lvgl/src/widgets/../core/lv_obj_style_gen.h **** {
 255:Middlewares/lvgl/src/widgets/../core/lv_obj_style_gen.h ****     lv_style_value_t v = lv_obj_get_style_prop(obj, part, LV_STYLE_BG_IMG_RECOLOR);
 256:Middlewares/lvgl/src/widgets/../core/lv_obj_style_gen.h ****     return v.color;
 257:Middlewares/lvgl/src/widgets/../core/lv_obj_style_gen.h **** }
 258:Middlewares/lvgl/src/widgets/../core/lv_obj_style_gen.h **** 
 259:Middlewares/lvgl/src/widgets/../core/lv_obj_style_gen.h **** static inline lv_color_t lv_obj_get_style_bg_img_recolor_filtered(const struct _lv_obj_t * obj, uin
 260:Middlewares/lvgl/src/widgets/../core/lv_obj_style_gen.h **** {
 261:Middlewares/lvgl/src/widgets/../core/lv_obj_style_gen.h ****     lv_style_value_t v = lv_obj_get_style_prop(obj, part, LV_STYLE_BG_IMG_RECOLOR_FILTERED);
 262:Middlewares/lvgl/src/widgets/../core/lv_obj_style_gen.h ****     return v.color;
 263:Middlewares/lvgl/src/widgets/../core/lv_obj_style_gen.h **** }
 264:Middlewares/lvgl/src/widgets/../core/lv_obj_style_gen.h **** 
 265:Middlewares/lvgl/src/widgets/../core/lv_obj_style_gen.h **** static inline lv_opa_t lv_obj_get_style_bg_img_recolor_opa(const struct _lv_obj_t * obj, uint32_t p
 266:Middlewares/lvgl/src/widgets/../core/lv_obj_style_gen.h **** {
 267:Middlewares/lvgl/src/widgets/../core/lv_obj_style_gen.h ****     lv_style_value_t v = lv_obj_get_style_prop(obj, part, LV_STYLE_BG_IMG_RECOLOR_OPA);
 268:Middlewares/lvgl/src/widgets/../core/lv_obj_style_gen.h ****     return (lv_opa_t)v.num;
 269:Middlewares/lvgl/src/widgets/../core/lv_obj_style_gen.h **** }
 270:Middlewares/lvgl/src/widgets/../core/lv_obj_style_gen.h **** 
 271:Middlewares/lvgl/src/widgets/../core/lv_obj_style_gen.h **** static inline bool lv_obj_get_style_bg_img_tiled(const struct _lv_obj_t * obj, uint32_t part)
 272:Middlewares/lvgl/src/widgets/../core/lv_obj_style_gen.h **** {
 273:Middlewares/lvgl/src/widgets/../core/lv_obj_style_gen.h ****     lv_style_value_t v = lv_obj_get_style_prop(obj, part, LV_STYLE_BG_IMG_TILED);
 274:Middlewares/lvgl/src/widgets/../core/lv_obj_style_gen.h ****     return (bool)v.num;
 275:Middlewares/lvgl/src/widgets/../core/lv_obj_style_gen.h **** }
 276:Middlewares/lvgl/src/widgets/../core/lv_obj_style_gen.h **** 
 277:Middlewares/lvgl/src/widgets/../core/lv_obj_style_gen.h **** static inline lv_color_t lv_obj_get_style_border_color(const struct _lv_obj_t * obj, uint32_t part)
 278:Middlewares/lvgl/src/widgets/../core/lv_obj_style_gen.h **** {
ARM GAS  /tmp/ccTYGLnU.s 			page 32


 279:Middlewares/lvgl/src/widgets/../core/lv_obj_style_gen.h ****     lv_style_value_t v = lv_obj_get_style_prop(obj, part, LV_STYLE_BORDER_COLOR);
 280:Middlewares/lvgl/src/widgets/../core/lv_obj_style_gen.h ****     return v.color;
 281:Middlewares/lvgl/src/widgets/../core/lv_obj_style_gen.h **** }
 282:Middlewares/lvgl/src/widgets/../core/lv_obj_style_gen.h **** 
 283:Middlewares/lvgl/src/widgets/../core/lv_obj_style_gen.h **** static inline lv_color_t lv_obj_get_style_border_color_filtered(const struct _lv_obj_t * obj, uint3
 284:Middlewares/lvgl/src/widgets/../core/lv_obj_style_gen.h **** {
 285:Middlewares/lvgl/src/widgets/../core/lv_obj_style_gen.h ****     lv_style_value_t v = lv_obj_get_style_prop(obj, part, LV_STYLE_BORDER_COLOR_FILTERED);
 286:Middlewares/lvgl/src/widgets/../core/lv_obj_style_gen.h ****     return v.color;
 287:Middlewares/lvgl/src/widgets/../core/lv_obj_style_gen.h **** }
 288:Middlewares/lvgl/src/widgets/../core/lv_obj_style_gen.h **** 
 289:Middlewares/lvgl/src/widgets/../core/lv_obj_style_gen.h **** static inline lv_opa_t lv_obj_get_style_border_opa(const struct _lv_obj_t * obj, uint32_t part)
 290:Middlewares/lvgl/src/widgets/../core/lv_obj_style_gen.h **** {
 291:Middlewares/lvgl/src/widgets/../core/lv_obj_style_gen.h ****     lv_style_value_t v = lv_obj_get_style_prop(obj, part, LV_STYLE_BORDER_OPA);
 292:Middlewares/lvgl/src/widgets/../core/lv_obj_style_gen.h ****     return (lv_opa_t)v.num;
 293:Middlewares/lvgl/src/widgets/../core/lv_obj_style_gen.h **** }
 294:Middlewares/lvgl/src/widgets/../core/lv_obj_style_gen.h **** 
 295:Middlewares/lvgl/src/widgets/../core/lv_obj_style_gen.h **** static inline lv_coord_t lv_obj_get_style_border_width(const struct _lv_obj_t * obj, uint32_t part)
 296:Middlewares/lvgl/src/widgets/../core/lv_obj_style_gen.h **** {
 297:Middlewares/lvgl/src/widgets/../core/lv_obj_style_gen.h ****     lv_style_value_t v = lv_obj_get_style_prop(obj, part, LV_STYLE_BORDER_WIDTH);
 298:Middlewares/lvgl/src/widgets/../core/lv_obj_style_gen.h ****     return (lv_coord_t)v.num;
 299:Middlewares/lvgl/src/widgets/../core/lv_obj_style_gen.h **** }
 300:Middlewares/lvgl/src/widgets/../core/lv_obj_style_gen.h **** 
 301:Middlewares/lvgl/src/widgets/../core/lv_obj_style_gen.h **** static inline lv_border_side_t lv_obj_get_style_border_side(const struct _lv_obj_t * obj, uint32_t 
 302:Middlewares/lvgl/src/widgets/../core/lv_obj_style_gen.h **** {
 303:Middlewares/lvgl/src/widgets/../core/lv_obj_style_gen.h ****     lv_style_value_t v = lv_obj_get_style_prop(obj, part, LV_STYLE_BORDER_SIDE);
 304:Middlewares/lvgl/src/widgets/../core/lv_obj_style_gen.h ****     return (lv_border_side_t)v.num;
 305:Middlewares/lvgl/src/widgets/../core/lv_obj_style_gen.h **** }
 306:Middlewares/lvgl/src/widgets/../core/lv_obj_style_gen.h **** 
 307:Middlewares/lvgl/src/widgets/../core/lv_obj_style_gen.h **** static inline bool lv_obj_get_style_border_post(const struct _lv_obj_t * obj, uint32_t part)
 308:Middlewares/lvgl/src/widgets/../core/lv_obj_style_gen.h **** {
 309:Middlewares/lvgl/src/widgets/../core/lv_obj_style_gen.h ****     lv_style_value_t v = lv_obj_get_style_prop(obj, part, LV_STYLE_BORDER_POST);
 310:Middlewares/lvgl/src/widgets/../core/lv_obj_style_gen.h ****     return (bool)v.num;
 311:Middlewares/lvgl/src/widgets/../core/lv_obj_style_gen.h **** }
 312:Middlewares/lvgl/src/widgets/../core/lv_obj_style_gen.h **** 
 313:Middlewares/lvgl/src/widgets/../core/lv_obj_style_gen.h **** static inline lv_color_t lv_obj_get_style_text_color(const struct _lv_obj_t * obj, uint32_t part)
 314:Middlewares/lvgl/src/widgets/../core/lv_obj_style_gen.h **** {
 315:Middlewares/lvgl/src/widgets/../core/lv_obj_style_gen.h ****     lv_style_value_t v = lv_obj_get_style_prop(obj, part, LV_STYLE_TEXT_COLOR);
 316:Middlewares/lvgl/src/widgets/../core/lv_obj_style_gen.h ****     return v.color;
 317:Middlewares/lvgl/src/widgets/../core/lv_obj_style_gen.h **** }
 318:Middlewares/lvgl/src/widgets/../core/lv_obj_style_gen.h **** 
 319:Middlewares/lvgl/src/widgets/../core/lv_obj_style_gen.h **** static inline lv_color_t lv_obj_get_style_text_color_filtered(const struct _lv_obj_t * obj, uint32_
 320:Middlewares/lvgl/src/widgets/../core/lv_obj_style_gen.h **** {
 321:Middlewares/lvgl/src/widgets/../core/lv_obj_style_gen.h ****     lv_style_value_t v = lv_obj_get_style_prop(obj, part, LV_STYLE_TEXT_COLOR_FILTERED);
 322:Middlewares/lvgl/src/widgets/../core/lv_obj_style_gen.h ****     return v.color;
 323:Middlewares/lvgl/src/widgets/../core/lv_obj_style_gen.h **** }
 324:Middlewares/lvgl/src/widgets/../core/lv_obj_style_gen.h **** 
 325:Middlewares/lvgl/src/widgets/../core/lv_obj_style_gen.h **** static inline lv_opa_t lv_obj_get_style_text_opa(const struct _lv_obj_t * obj, uint32_t part)
 326:Middlewares/lvgl/src/widgets/../core/lv_obj_style_gen.h **** {
 327:Middlewares/lvgl/src/widgets/../core/lv_obj_style_gen.h ****     lv_style_value_t v = lv_obj_get_style_prop(obj, part, LV_STYLE_TEXT_OPA);
 328:Middlewares/lvgl/src/widgets/../core/lv_obj_style_gen.h ****     return (lv_opa_t)v.num;
 329:Middlewares/lvgl/src/widgets/../core/lv_obj_style_gen.h **** }
 330:Middlewares/lvgl/src/widgets/../core/lv_obj_style_gen.h **** 
 331:Middlewares/lvgl/src/widgets/../core/lv_obj_style_gen.h **** static inline const lv_font_t * lv_obj_get_style_text_font(const struct _lv_obj_t * obj, uint32_t p
 332:Middlewares/lvgl/src/widgets/../core/lv_obj_style_gen.h **** {
 333:Middlewares/lvgl/src/widgets/../core/lv_obj_style_gen.h ****     lv_style_value_t v = lv_obj_get_style_prop(obj, part, LV_STYLE_TEXT_FONT);
 334:Middlewares/lvgl/src/widgets/../core/lv_obj_style_gen.h ****     return (const lv_font_t *)v.ptr;
 335:Middlewares/lvgl/src/widgets/../core/lv_obj_style_gen.h **** }
ARM GAS  /tmp/ccTYGLnU.s 			page 33


 336:Middlewares/lvgl/src/widgets/../core/lv_obj_style_gen.h **** 
 337:Middlewares/lvgl/src/widgets/../core/lv_obj_style_gen.h **** static inline lv_coord_t lv_obj_get_style_text_letter_space(const struct _lv_obj_t * obj, uint32_t 
 460              		.loc 3 337 26 view .LVU146
 461              	.LBB103:
 338:Middlewares/lvgl/src/widgets/../core/lv_obj_style_gen.h **** {
 339:Middlewares/lvgl/src/widgets/../core/lv_obj_style_gen.h ****     lv_style_value_t v = lv_obj_get_style_prop(obj, part, LV_STYLE_TEXT_LETTER_SPACE);
 462              		.loc 3 339 5 view .LVU147
 463              		.loc 3 339 26 is_stmt 0 view .LVU148
 464 0050 41F25A42 		movw	r2, #5210
 465 0054 4FF4A021 		mov	r1, #327680
 466 0058 2846     		mov	r0, r5
 467 005a FFF7FEFF 		bl	lv_obj_get_style_prop
 468              	.LVL53:
 340:Middlewares/lvgl/src/widgets/../core/lv_obj_style_gen.h ****     return (lv_coord_t)v.num;
 469              		.loc 3 340 5 is_stmt 1 view .LVU149
 470              		.loc 3 340 12 is_stmt 0 view .LVU150
 471 005e 03B2     		sxth	r3, r0
 472 0060 0893     		str	r3, [sp, #32]
 473              	.LVL54:
 474              		.loc 3 340 12 view .LVU151
 475              	.LBE103:
 476              	.LBE102:
 776:Middlewares/lvgl/src/widgets/lv_table.c ****     const lv_font_t * font = lv_obj_get_style_text_font(obj, LV_PART_ITEMS);
 477              		.loc 1 776 5 is_stmt 1 view .LVU152
 478              	.LBB104:
 479              	.LBI104:
 341:Middlewares/lvgl/src/widgets/../core/lv_obj_style_gen.h **** }
 342:Middlewares/lvgl/src/widgets/../core/lv_obj_style_gen.h **** 
 343:Middlewares/lvgl/src/widgets/../core/lv_obj_style_gen.h **** static inline lv_coord_t lv_obj_get_style_text_line_space(const struct _lv_obj_t * obj, uint32_t pa
 480              		.loc 3 343 26 view .LVU153
 481              	.LBB105:
 344:Middlewares/lvgl/src/widgets/../core/lv_obj_style_gen.h **** {
 345:Middlewares/lvgl/src/widgets/../core/lv_obj_style_gen.h ****     lv_style_value_t v = lv_obj_get_style_prop(obj, part, LV_STYLE_TEXT_LINE_SPACE);
 482              		.loc 3 345 5 view .LVU154
 483              		.loc 3 345 26 is_stmt 0 view .LVU155
 484 0062 41F25B42 		movw	r2, #5211
 485 0066 4FF4A021 		mov	r1, #327680
 486 006a 2846     		mov	r0, r5
 487 006c FFF7FEFF 		bl	lv_obj_get_style_prop
 488              	.LVL55:
 346:Middlewares/lvgl/src/widgets/../core/lv_obj_style_gen.h ****     return (lv_coord_t)v.num;
 489              		.loc 3 346 5 is_stmt 1 view .LVU156
 490              		.loc 3 346 12 is_stmt 0 view .LVU157
 491 0070 03B2     		sxth	r3, r0
 492 0072 0793     		str	r3, [sp, #28]
 493              	.LVL56:
 494              		.loc 3 346 12 view .LVU158
 495              	.LBE105:
 496              	.LBE104:
 777:Middlewares/lvgl/src/widgets/lv_table.c **** 
 497              		.loc 1 777 5 is_stmt 1 view .LVU159
 498              	.LBB106:
 499              	.LBI106:
 331:Middlewares/lvgl/src/widgets/../core/lv_obj_style_gen.h **** {
 500              		.loc 3 331 33 view .LVU160
 501              	.LBB107:
 333:Middlewares/lvgl/src/widgets/../core/lv_obj_style_gen.h ****     return (const lv_font_t *)v.ptr;
ARM GAS  /tmp/ccTYGLnU.s 			page 34


 502              		.loc 3 333 5 view .LVU161
 333:Middlewares/lvgl/src/widgets/../core/lv_obj_style_gen.h ****     return (const lv_font_t *)v.ptr;
 503              		.loc 3 333 26 is_stmt 0 view .LVU162
 504 0074 41F25942 		movw	r2, #5209
 505 0078 4FF4A021 		mov	r1, #327680
 506 007c 2846     		mov	r0, r5
 507 007e FFF7FEFF 		bl	lv_obj_get_style_prop
 508              	.LVL57:
 509 0082 0690     		str	r0, [sp, #24]
 334:Middlewares/lvgl/src/widgets/../core/lv_obj_style_gen.h **** }
 510              		.loc 3 334 5 is_stmt 1 view .LVU163
 511              	.LVL58:
 334:Middlewares/lvgl/src/widgets/../core/lv_obj_style_gen.h **** }
 512              		.loc 3 334 5 is_stmt 0 view .LVU164
 513              	.LBE107:
 514              	.LBE106:
 779:Middlewares/lvgl/src/widgets/lv_table.c ****     lv_coord_t maxh = lv_obj_get_style_max_height(obj, LV_PART_ITEMS);
 515              		.loc 1 779 5 is_stmt 1 view .LVU165
 516              	.LBB108:
 517              	.LBI108:
  25:Middlewares/lvgl/src/widgets/../core/lv_obj_style_gen.h **** {
 518              		.loc 3 25 26 view .LVU166
 519              	.LBB109:
  27:Middlewares/lvgl/src/widgets/../core/lv_obj_style_gen.h ****     return (lv_coord_t)v.num;
 520              		.loc 3 27 5 view .LVU167
  27:Middlewares/lvgl/src/widgets/../core/lv_obj_style_gen.h ****     return (lv_coord_t)v.num;
 521              		.loc 3 27 26 is_stmt 0 view .LVU168
 522 0084 41F20502 		movw	r2, #4101
 523 0088 4FF4A021 		mov	r1, #327680
 524 008c 2846     		mov	r0, r5
 525              	.LVL59:
  27:Middlewares/lvgl/src/widgets/../core/lv_obj_style_gen.h ****     return (lv_coord_t)v.num;
 526              		.loc 3 27 26 view .LVU169
 527 008e FFF7FEFF 		bl	lv_obj_get_style_prop
 528              	.LVL60:
  28:Middlewares/lvgl/src/widgets/../core/lv_obj_style_gen.h **** }
 529              		.loc 3 28 5 is_stmt 1 view .LVU170
  28:Middlewares/lvgl/src/widgets/../core/lv_obj_style_gen.h **** }
 530              		.loc 3 28 12 is_stmt 0 view .LVU171
 531 0092 0FFA80F8 		sxth	r8, r0
 532              	.LVL61:
  28:Middlewares/lvgl/src/widgets/../core/lv_obj_style_gen.h **** }
 533              		.loc 3 28 12 view .LVU172
 534              	.LBE109:
 535              	.LBE108:
 780:Middlewares/lvgl/src/widgets/lv_table.c **** 
 536              		.loc 1 780 5 is_stmt 1 view .LVU173
 537              	.LBB110:
 538              	.LBI110:
  31:Middlewares/lvgl/src/widgets/../core/lv_obj_style_gen.h **** {
 539              		.loc 3 31 26 view .LVU174
 540              	.LBB111:
  33:Middlewares/lvgl/src/widgets/../core/lv_obj_style_gen.h ****     return (lv_coord_t)v.num;
 541              		.loc 3 33 5 view .LVU175
  33:Middlewares/lvgl/src/widgets/../core/lv_obj_style_gen.h ****     return (lv_coord_t)v.num;
 542              		.loc 3 33 26 is_stmt 0 view .LVU176
 543 0096 41F20602 		movw	r2, #4102
ARM GAS  /tmp/ccTYGLnU.s 			page 35


 544 009a 4FF4A021 		mov	r1, #327680
 545 009e 2846     		mov	r0, r5
 546 00a0 FFF7FEFF 		bl	lv_obj_get_style_prop
 547              	.LVL62:
  34:Middlewares/lvgl/src/widgets/../core/lv_obj_style_gen.h **** }
 548              		.loc 3 34 5 is_stmt 1 view .LVU177
  34:Middlewares/lvgl/src/widgets/../core/lv_obj_style_gen.h **** }
 549              		.loc 3 34 12 is_stmt 0 view .LVU178
 550 00a4 07B2     		sxth	r7, r0
 551              	.LVL63:
  34:Middlewares/lvgl/src/widgets/../core/lv_obj_style_gen.h **** }
 552              		.loc 3 34 12 view .LVU179
 553              	.LBE111:
 554              	.LBE110:
 782:Middlewares/lvgl/src/widgets/lv_table.c ****         table->row_h[i] = get_row_height(obj, i, font, letter_space, line_space,
 555              		.loc 1 782 5 is_stmt 1 view .LVU180
 782:Middlewares/lvgl/src/widgets/lv_table.c ****         table->row_h[i] = get_row_height(obj, i, font, letter_space, line_space,
 556              		.loc 1 782 5 is_stmt 0 view .LVU181
 557 00a6 1EE0     		b	.L12
 558              	.LVL64:
 559              	.L13:
 783:Middlewares/lvgl/src/widgets/lv_table.c ****                                        cell_left, cell_right, cell_top, cell_bottom);
 560              		.loc 1 783 9 is_stmt 1 discriminator 3 view .LVU182
 783:Middlewares/lvgl/src/widgets/lv_table.c ****                                        cell_left, cell_right, cell_top, cell_bottom);
 561              		.loc 1 783 14 is_stmt 0 discriminator 3 view .LVU183
 562 00a8 EE6A     		ldr	r6, [r5, #44]
 783:Middlewares/lvgl/src/widgets/lv_table.c ****                                        cell_left, cell_right, cell_top, cell_bottom);
 563              		.loc 1 783 27 discriminator 3 view .LVU184
 564 00aa 099B     		ldr	r3, [sp, #36]
 565 00ac 0493     		str	r3, [sp, #16]
 566 00ae CDF80C90 		str	r9, [sp, #12]
 567 00b2 CDF808A0 		str	r10, [sp, #8]
 568 00b6 CDF804B0 		str	fp, [sp, #4]
 569 00ba 079B     		ldr	r3, [sp, #28]
 570 00bc 0093     		str	r3, [sp]
 571 00be 089B     		ldr	r3, [sp, #32]
 572 00c0 069A     		ldr	r2, [sp, #24]
 573 00c2 A1B2     		uxth	r1, r4
 574 00c4 2846     		mov	r0, r5
 575 00c6 FFF7FEFF 		bl	get_row_height
 576              	.LVL65:
 783:Middlewares/lvgl/src/widgets/lv_table.c ****                                        cell_left, cell_right, cell_top, cell_bottom);
 577              		.loc 1 783 25 discriminator 3 view .LVU185
 578 00ca 26F81400 		strh	r0, [r6, r4, lsl #1]	@ movhi
 785:Middlewares/lvgl/src/widgets/lv_table.c ****     }
 579              		.loc 1 785 9 is_stmt 1 discriminator 3 view .LVU186
 785:Middlewares/lvgl/src/widgets/lv_table.c ****     }
 580              		.loc 1 785 27 is_stmt 0 discriminator 3 view .LVU187
 581 00ce EA6A     		ldr	r2, [r5, #44]
 582 00d0 32F91430 		ldrsh	r3, [r2, r4, lsl #1]
 583 00d4 BB42     		cmp	r3, r7
 584 00d6 A8BF     		it	ge
 585 00d8 3B46     		movge	r3, r7
 586 00da 4345     		cmp	r3, r8
 587 00dc B8BF     		it	lt
 588 00de 4346     		movlt	r3, r8
 785:Middlewares/lvgl/src/widgets/lv_table.c ****     }
ARM GAS  /tmp/ccTYGLnU.s 			page 36


 589              		.loc 1 785 25 discriminator 3 view .LVU188
 590 00e0 22F81430 		strh	r3, [r2, r4, lsl #1]	@ movhi
 782:Middlewares/lvgl/src/widgets/lv_table.c ****         table->row_h[i] = get_row_height(obj, i, font, letter_space, line_space,
 591              		.loc 1 782 44 is_stmt 1 discriminator 3 view .LVU189
 782:Middlewares/lvgl/src/widgets/lv_table.c ****         table->row_h[i] = get_row_height(obj, i, font, letter_space, line_space,
 592              		.loc 1 782 45 is_stmt 0 discriminator 3 view .LVU190
 593 00e4 0134     		adds	r4, r4, #1
 594              	.LVL66:
 595              	.L12:
 782:Middlewares/lvgl/src/widgets/lv_table.c ****         table->row_h[i] = get_row_height(obj, i, font, letter_space, line_space,
 596              		.loc 1 782 24 is_stmt 1 discriminator 1 view .LVU191
 782:Middlewares/lvgl/src/widgets/lv_table.c ****         table->row_h[i] = get_row_height(obj, i, font, letter_space, line_space,
 597              		.loc 1 782 33 is_stmt 0 discriminator 1 view .LVU192
 598 00e6 EB8C     		ldrh	r3, [r5, #38]
 782:Middlewares/lvgl/src/widgets/lv_table.c ****         table->row_h[i] = get_row_height(obj, i, font, letter_space, line_space,
 599              		.loc 1 782 5 discriminator 1 view .LVU193
 600 00e8 A342     		cmp	r3, r4
 601 00ea DDD8     		bhi	.L13
 788:Middlewares/lvgl/src/widgets/lv_table.c **** }
 602              		.loc 1 788 5 is_stmt 1 view .LVU194
 603 00ec 2846     		mov	r0, r5
 604 00ee FFF7FEFF 		bl	lv_obj_refresh_self_size
 605              	.LVL67:
 789:Middlewares/lvgl/src/widgets/lv_table.c **** 
 606              		.loc 1 789 1 is_stmt 0 view .LVU195
 607 00f2 0BB0     		add	sp, sp, #44
 608              	.LCFI5:
 609              		.cfi_def_cfa_offset 36
 610              		@ sp needed
 611 00f4 BDE8F08F 		pop	{r4, r5, r6, r7, r8, r9, r10, fp, pc}
 789:Middlewares/lvgl/src/widgets/lv_table.c **** 
 612              		.loc 1 789 1 view .LVU196
 613              		.cfi_endproc
 614              	.LFE165:
 616              		.section	.text.get_pressed_cell,"ax",%progbits
 617              		.align	1
 618              		.syntax unified
 619              		.thumb
 620              		.thumb_func
 621              		.fpu softvfp
 623              	get_pressed_cell:
 624              	.LVL68:
 625              	.LFB167:
 848:Middlewares/lvgl/src/widgets/lv_table.c **** 
 849:Middlewares/lvgl/src/widgets/lv_table.c **** static lv_res_t get_pressed_cell(lv_obj_t * obj, uint16_t * row, uint16_t * col)
 850:Middlewares/lvgl/src/widgets/lv_table.c **** {
 626              		.loc 1 850 1 is_stmt 1 view -0
 627              		.cfi_startproc
 628              		@ args = 0, pretend = 0, frame = 8
 629              		@ frame_needed = 0, uses_anonymous_args = 0
 630              		.loc 1 850 1 is_stmt 0 view .LVU198
 631 0000 2DE9F041 		push	{r4, r5, r6, r7, r8, lr}
 632              	.LCFI6:
 633              		.cfi_def_cfa_offset 24
 634              		.cfi_offset 4, -24
 635              		.cfi_offset 5, -20
 636              		.cfi_offset 6, -16
ARM GAS  /tmp/ccTYGLnU.s 			page 37


 637              		.cfi_offset 7, -12
 638              		.cfi_offset 8, -8
 639              		.cfi_offset 14, -4
 640 0004 82B0     		sub	sp, sp, #8
 641              	.LCFI7:
 642              		.cfi_def_cfa_offset 32
 643 0006 0446     		mov	r4, r0
 644 0008 0D46     		mov	r5, r1
 645 000a 1646     		mov	r6, r2
 851:Middlewares/lvgl/src/widgets/lv_table.c ****    lv_table_t * table = (lv_table_t *)obj;
 646              		.loc 1 851 4 is_stmt 1 view .LVU199
 647              	.LVL69:
 852:Middlewares/lvgl/src/widgets/lv_table.c **** 
 853:Middlewares/lvgl/src/widgets/lv_table.c ****     lv_indev_type_t type = lv_indev_get_type(lv_indev_get_act());
 648              		.loc 1 853 5 view .LVU200
 649              		.loc 1 853 46 is_stmt 0 view .LVU201
 650 000c FFF7FEFF 		bl	lv_indev_get_act
 651              	.LVL70:
 652              		.loc 1 853 28 view .LVU202
 653 0010 FFF7FEFF 		bl	lv_indev_get_type
 654              	.LVL71:
 854:Middlewares/lvgl/src/widgets/lv_table.c ****     if(type != LV_INDEV_TYPE_POINTER && type != LV_INDEV_TYPE_BUTTON) {
 655              		.loc 1 854 5 is_stmt 1 view .LVU203
 656              		.loc 1 854 7 is_stmt 0 view .LVU204
 657 0014 0128     		cmp	r0, #1
 658 0016 0DD0     		beq	.L16
 659              		.loc 1 854 38 discriminator 1 view .LVU205
 660 0018 0328     		cmp	r0, #3
 661 001a 0BD0     		beq	.L16
 855:Middlewares/lvgl/src/widgets/lv_table.c ****         if(col) *col = LV_TABLE_CELL_NONE;
 662              		.loc 1 855 9 is_stmt 1 view .LVU206
 663              		.loc 1 855 11 is_stmt 0 view .LVU207
 664 001c 16B1     		cbz	r6, .L17
 665              		.loc 1 855 17 is_stmt 1 discriminator 1 view .LVU208
 666              		.loc 1 855 22 is_stmt 0 discriminator 1 view .LVU209
 667 001e 4FF6FF73 		movw	r3, #65535
 668 0022 3380     		strh	r3, [r6]	@ movhi
 669              	.L17:
 856:Middlewares/lvgl/src/widgets/lv_table.c ****         if(row) *row = LV_TABLE_CELL_NONE;
 670              		.loc 1 856 9 is_stmt 1 view .LVU210
 671              		.loc 1 856 11 is_stmt 0 view .LVU211
 672 0024 15B1     		cbz	r5, .L18
 673              		.loc 1 856 17 is_stmt 1 discriminator 1 view .LVU212
 674              		.loc 1 856 22 is_stmt 0 discriminator 1 view .LVU213
 675 0026 4FF6FF73 		movw	r3, #65535
 676 002a 2B80     		strh	r3, [r5]	@ movhi
 677              	.L18:
 857:Middlewares/lvgl/src/widgets/lv_table.c ****         return LV_RES_INV;
 678              		.loc 1 857 9 is_stmt 1 view .LVU214
 679              		.loc 1 857 16 is_stmt 0 view .LVU215
 680 002c 0020     		movs	r0, #0
 681              	.LVL72:
 682              	.L19:
 858:Middlewares/lvgl/src/widgets/lv_table.c ****     }
 859:Middlewares/lvgl/src/widgets/lv_table.c **** 
 860:Middlewares/lvgl/src/widgets/lv_table.c ****     lv_point_t p;
 861:Middlewares/lvgl/src/widgets/lv_table.c ****     lv_indev_get_point(lv_indev_get_act(), &p);
ARM GAS  /tmp/ccTYGLnU.s 			page 38


 862:Middlewares/lvgl/src/widgets/lv_table.c **** 
 863:Middlewares/lvgl/src/widgets/lv_table.c ****     lv_coord_t tmp;
 864:Middlewares/lvgl/src/widgets/lv_table.c ****     if(col) {
 865:Middlewares/lvgl/src/widgets/lv_table.c ****         lv_coord_t x = p.x + lv_obj_get_scroll_x(obj);
 866:Middlewares/lvgl/src/widgets/lv_table.c **** 
 867:Middlewares/lvgl/src/widgets/lv_table.c ****         if(lv_obj_get_style_base_dir(obj, LV_PART_MAIN) == LV_BASE_DIR_RTL) {
 868:Middlewares/lvgl/src/widgets/lv_table.c ****             x = obj->coords.x2 - lv_obj_get_style_pad_right(obj, LV_PART_MAIN) - x;
 869:Middlewares/lvgl/src/widgets/lv_table.c ****         }
 870:Middlewares/lvgl/src/widgets/lv_table.c ****         else {
 871:Middlewares/lvgl/src/widgets/lv_table.c ****             x -= obj->coords.x1;
 872:Middlewares/lvgl/src/widgets/lv_table.c ****             x -= lv_obj_get_style_pad_left(obj, LV_PART_MAIN);
 873:Middlewares/lvgl/src/widgets/lv_table.c ****         }
 874:Middlewares/lvgl/src/widgets/lv_table.c **** 
 875:Middlewares/lvgl/src/widgets/lv_table.c ****         *col = 0;
 876:Middlewares/lvgl/src/widgets/lv_table.c ****         tmp = 0;
 877:Middlewares/lvgl/src/widgets/lv_table.c ****         for(*col = 0; *col < table->col_cnt; (*col)++) {
 878:Middlewares/lvgl/src/widgets/lv_table.c ****             tmp += table->col_w[*col];
 879:Middlewares/lvgl/src/widgets/lv_table.c ****             if(x < tmp) break;
 880:Middlewares/lvgl/src/widgets/lv_table.c ****         }
 881:Middlewares/lvgl/src/widgets/lv_table.c ****     }
 882:Middlewares/lvgl/src/widgets/lv_table.c **** 
 883:Middlewares/lvgl/src/widgets/lv_table.c ****     if(row) {
 884:Middlewares/lvgl/src/widgets/lv_table.c ****         lv_coord_t y = p.y + lv_obj_get_scroll_y(obj);;
 885:Middlewares/lvgl/src/widgets/lv_table.c ****         y -= obj->coords.y1;
 886:Middlewares/lvgl/src/widgets/lv_table.c ****         y -= lv_obj_get_style_pad_top(obj, LV_PART_MAIN);
 887:Middlewares/lvgl/src/widgets/lv_table.c **** 
 888:Middlewares/lvgl/src/widgets/lv_table.c ****         *row = 0;
 889:Middlewares/lvgl/src/widgets/lv_table.c ****         tmp = 0;
 890:Middlewares/lvgl/src/widgets/lv_table.c **** 
 891:Middlewares/lvgl/src/widgets/lv_table.c ****         for(*row = 0; *row < table->row_cnt; (*row)++) {
 892:Middlewares/lvgl/src/widgets/lv_table.c ****             tmp += table->row_h[*row];
 893:Middlewares/lvgl/src/widgets/lv_table.c ****             if(y < tmp) break;
 894:Middlewares/lvgl/src/widgets/lv_table.c ****         }
 895:Middlewares/lvgl/src/widgets/lv_table.c ****     }
 896:Middlewares/lvgl/src/widgets/lv_table.c **** 
 897:Middlewares/lvgl/src/widgets/lv_table.c ****     return LV_RES_OK;
 898:Middlewares/lvgl/src/widgets/lv_table.c **** }
 683              		.loc 1 898 1 view .LVU216
 684 002e 02B0     		add	sp, sp, #8
 685              	.LCFI8:
 686              		.cfi_remember_state
 687              		.cfi_def_cfa_offset 24
 688              		@ sp needed
 689 0030 BDE8F081 		pop	{r4, r5, r6, r7, r8, pc}
 690              	.LVL73:
 691              	.L16:
 692              	.LCFI9:
 693              		.cfi_restore_state
 860:Middlewares/lvgl/src/widgets/lv_table.c ****     lv_indev_get_point(lv_indev_get_act(), &p);
 694              		.loc 1 860 5 is_stmt 1 view .LVU217
 861:Middlewares/lvgl/src/widgets/lv_table.c **** 
 695              		.loc 1 861 5 view .LVU218
 861:Middlewares/lvgl/src/widgets/lv_table.c **** 
 696              		.loc 1 861 24 is_stmt 0 view .LVU219
 697 0034 FFF7FEFF 		bl	lv_indev_get_act
 698              	.LVL74:
 861:Middlewares/lvgl/src/widgets/lv_table.c **** 
ARM GAS  /tmp/ccTYGLnU.s 			page 39


 699              		.loc 1 861 5 view .LVU220
 700 0038 01A9     		add	r1, sp, #4
 701 003a FFF7FEFF 		bl	lv_indev_get_point
 702              	.LVL75:
 863:Middlewares/lvgl/src/widgets/lv_table.c ****     if(col) {
 703              		.loc 1 863 5 is_stmt 1 view .LVU221
 864:Middlewares/lvgl/src/widgets/lv_table.c ****         lv_coord_t x = p.x + lv_obj_get_scroll_x(obj);
 704              		.loc 1 864 5 view .LVU222
 864:Middlewares/lvgl/src/widgets/lv_table.c ****         lv_coord_t x = p.x + lv_obj_get_scroll_x(obj);
 705              		.loc 1 864 7 is_stmt 0 view .LVU223
 706 003e 002E     		cmp	r6, #0
 707 0040 3BD0     		beq	.L20
 708              	.LBB112:
 865:Middlewares/lvgl/src/widgets/lv_table.c **** 
 709              		.loc 1 865 9 is_stmt 1 view .LVU224
 865:Middlewares/lvgl/src/widgets/lv_table.c **** 
 710              		.loc 1 865 25 is_stmt 0 view .LVU225
 711 0042 BDF80470 		ldrh	r7, [sp, #4]
 865:Middlewares/lvgl/src/widgets/lv_table.c **** 
 712              		.loc 1 865 30 view .LVU226
 713 0046 2046     		mov	r0, r4
 714 0048 FFF7FEFF 		bl	lv_obj_get_scroll_x
 715              	.LVL76:
 716 004c 80B2     		uxth	r0, r0
 865:Middlewares/lvgl/src/widgets/lv_table.c **** 
 717              		.loc 1 865 28 view .LVU227
 718 004e 0744     		add	r7, r7, r0
 719 0050 BFB2     		uxth	r7, r7
 720              	.LVL77:
 867:Middlewares/lvgl/src/widgets/lv_table.c ****             x = obj->coords.x2 - lv_obj_get_style_pad_right(obj, LV_PART_MAIN) - x;
 721              		.loc 1 867 9 is_stmt 1 view .LVU228
 722              	.LBB113:
 723              	.LBI113:
 187:Middlewares/lvgl/src/widgets/../core/lv_obj_style_gen.h **** {
 724              		.loc 3 187 29 view .LVU229
 725              	.LBB114:
 189:Middlewares/lvgl/src/widgets/../core/lv_obj_style_gen.h ****     return (lv_base_dir_t)v.num;
 726              		.loc 3 189 5 view .LVU230
 189:Middlewares/lvgl/src/widgets/../core/lv_obj_style_gen.h ****     return (lv_base_dir_t)v.num;
 727              		.loc 3 189 26 is_stmt 0 view .LVU231
 728 0052 41F26A42 		movw	r2, #5226
 729 0056 0021     		movs	r1, #0
 730 0058 2046     		mov	r0, r4
 731 005a FFF7FEFF 		bl	lv_obj_get_style_prop
 732              	.LVL78:
 190:Middlewares/lvgl/src/widgets/../core/lv_obj_style_gen.h **** }
 733              		.loc 3 190 5 is_stmt 1 view .LVU232
 190:Middlewares/lvgl/src/widgets/../core/lv_obj_style_gen.h **** }
 734              		.loc 3 190 12 is_stmt 0 view .LVU233
 735 005e C0B2     		uxtb	r0, r0
 736              	.LVL79:
 190:Middlewares/lvgl/src/widgets/../core/lv_obj_style_gen.h **** }
 737              		.loc 3 190 12 view .LVU234
 738              	.LBE114:
 739              	.LBE113:
 867:Middlewares/lvgl/src/widgets/lv_table.c ****             x = obj->coords.x2 - lv_obj_get_style_pad_right(obj, LV_PART_MAIN) - x;
 740              		.loc 1 867 11 view .LVU235
ARM GAS  /tmp/ccTYGLnU.s 			page 40


 741 0060 0128     		cmp	r0, #1
 742 0062 1BD0     		beq	.L30
 871:Middlewares/lvgl/src/widgets/lv_table.c ****             x -= lv_obj_get_style_pad_left(obj, LV_PART_MAIN);
 743              		.loc 1 871 13 is_stmt 1 view .LVU236
 871:Middlewares/lvgl/src/widgets/lv_table.c ****             x -= lv_obj_get_style_pad_left(obj, LV_PART_MAIN);
 744              		.loc 1 871 29 is_stmt 0 view .LVU237
 745 0064 A08A     		ldrh	r0, [r4, #20]
 871:Middlewares/lvgl/src/widgets/lv_table.c ****             x -= lv_obj_get_style_pad_left(obj, LV_PART_MAIN);
 746              		.loc 1 871 15 view .LVU238
 747 0066 3F1A     		subs	r7, r7, r0
 748              	.LVL80:
 871:Middlewares/lvgl/src/widgets/lv_table.c ****             x -= lv_obj_get_style_pad_left(obj, LV_PART_MAIN);
 749              		.loc 1 871 15 view .LVU239
 750 0068 BFB2     		uxth	r7, r7
 751              	.LVL81:
 872:Middlewares/lvgl/src/widgets/lv_table.c ****         }
 752              		.loc 1 872 13 is_stmt 1 view .LVU240
 753              	.LBB115:
 754              	.LBI115:
 103:Middlewares/lvgl/src/widgets/../core/lv_obj_style_gen.h **** {
 755              		.loc 3 103 26 view .LVU241
 756              	.LBB116:
 105:Middlewares/lvgl/src/widgets/../core/lv_obj_style_gen.h ****     return (lv_coord_t)v.num;
 757              		.loc 3 105 5 view .LVU242
 105:Middlewares/lvgl/src/widgets/../core/lv_obj_style_gen.h ****     return (lv_coord_t)v.num;
 758              		.loc 3 105 26 is_stmt 0 view .LVU243
 759 006a 41F21202 		movw	r2, #4114
 760 006e 0021     		movs	r1, #0
 761 0070 2046     		mov	r0, r4
 762 0072 FFF7FEFF 		bl	lv_obj_get_style_prop
 763              	.LVL82:
 106:Middlewares/lvgl/src/widgets/../core/lv_obj_style_gen.h **** }
 764              		.loc 3 106 5 is_stmt 1 view .LVU244
 106:Middlewares/lvgl/src/widgets/../core/lv_obj_style_gen.h **** }
 765              		.loc 3 106 5 is_stmt 0 view .LVU245
 766              	.LBE116:
 767              	.LBE115:
 872:Middlewares/lvgl/src/widgets/lv_table.c ****         }
 768              		.loc 1 872 18 view .LVU246
 769 0076 80B2     		uxth	r0, r0
 872:Middlewares/lvgl/src/widgets/lv_table.c ****         }
 770              		.loc 1 872 15 view .LVU247
 771 0078 381A     		subs	r0, r7, r0
 772 007a 00B2     		sxth	r0, r0
 773              	.LVL83:
 774              	.L22:
 875:Middlewares/lvgl/src/widgets/lv_table.c ****         tmp = 0;
 775              		.loc 1 875 9 is_stmt 1 view .LVU248
 875:Middlewares/lvgl/src/widgets/lv_table.c ****         tmp = 0;
 776              		.loc 1 875 14 is_stmt 0 view .LVU249
 777 007c 0021     		movs	r1, #0
 778 007e 3180     		strh	r1, [r6]	@ movhi
 876:Middlewares/lvgl/src/widgets/lv_table.c ****         for(*col = 0; *col < table->col_cnt; (*col)++) {
 779              		.loc 1 876 9 is_stmt 1 view .LVU250
 780              	.LVL84:
 877:Middlewares/lvgl/src/widgets/lv_table.c ****             tmp += table->col_w[*col];
 781              		.loc 1 877 9 view .LVU251
ARM GAS  /tmp/ccTYGLnU.s 			page 41


 782              	.L23:
 877:Middlewares/lvgl/src/widgets/lv_table.c ****             tmp += table->col_w[*col];
 783              		.loc 1 877 23 discriminator 1 view .LVU252
 784 0080 3388     		ldrh	r3, [r6]
 877:Middlewares/lvgl/src/widgets/lv_table.c ****             tmp += table->col_w[*col];
 785              		.loc 1 877 35 is_stmt 0 discriminator 1 view .LVU253
 786 0082 A28C     		ldrh	r2, [r4, #36]
 877:Middlewares/lvgl/src/widgets/lv_table.c ****             tmp += table->col_w[*col];
 787              		.loc 1 877 9 discriminator 1 view .LVU254
 788 0084 9342     		cmp	r3, r2
 789 0086 18D2     		bcs	.L20
 878:Middlewares/lvgl/src/widgets/lv_table.c ****             if(x < tmp) break;
 790              		.loc 1 878 13 is_stmt 1 view .LVU255
 878:Middlewares/lvgl/src/widgets/lv_table.c ****             if(x < tmp) break;
 791              		.loc 1 878 25 is_stmt 0 view .LVU256
 792 0088 226B     		ldr	r2, [r4, #48]
 878:Middlewares/lvgl/src/widgets/lv_table.c ****             if(x < tmp) break;
 793              		.loc 1 878 32 view .LVU257
 794 008a 32F81320 		ldrh	r2, [r2, r3, lsl #1]
 878:Middlewares/lvgl/src/widgets/lv_table.c ****             if(x < tmp) break;
 795              		.loc 1 878 17 view .LVU258
 796 008e 1144     		add	r1, r1, r2
 797              	.LVL85:
 878:Middlewares/lvgl/src/widgets/lv_table.c ****             if(x < tmp) break;
 798              		.loc 1 878 17 view .LVU259
 799 0090 09B2     		sxth	r1, r1
 800              	.LVL86:
 879:Middlewares/lvgl/src/widgets/lv_table.c ****         }
 801              		.loc 1 879 13 is_stmt 1 view .LVU260
 879:Middlewares/lvgl/src/widgets/lv_table.c ****         }
 802              		.loc 1 879 15 is_stmt 0 view .LVU261
 803 0092 8842     		cmp	r0, r1
 804 0094 11DB     		blt	.L20
 877:Middlewares/lvgl/src/widgets/lv_table.c ****             tmp += table->col_w[*col];
 805              		.loc 1 877 46 is_stmt 1 discriminator 2 view .LVU262
 877:Middlewares/lvgl/src/widgets/lv_table.c ****             tmp += table->col_w[*col];
 806              		.loc 1 877 52 is_stmt 0 discriminator 2 view .LVU263
 807 0096 0133     		adds	r3, r3, #1
 808 0098 3380     		strh	r3, [r6]	@ movhi
 809 009a F1E7     		b	.L23
 810              	.LVL87:
 811              	.L30:
 868:Middlewares/lvgl/src/widgets/lv_table.c ****         }
 812              		.loc 1 868 13 is_stmt 1 view .LVU264
 868:Middlewares/lvgl/src/widgets/lv_table.c ****         }
 813              		.loc 1 868 28 is_stmt 0 view .LVU265
 814 009c B4F81880 		ldrh	r8, [r4, #24]
 815              	.LVL88:
 816              	.LBB117:
 817              	.LBI117:
 109:Middlewares/lvgl/src/widgets/../core/lv_obj_style_gen.h **** {
 818              		.loc 3 109 26 is_stmt 1 view .LVU266
 819              	.LBB118:
 111:Middlewares/lvgl/src/widgets/../core/lv_obj_style_gen.h ****     return (lv_coord_t)v.num;
 820              		.loc 3 111 5 view .LVU267
 111:Middlewares/lvgl/src/widgets/../core/lv_obj_style_gen.h ****     return (lv_coord_t)v.num;
 821              		.loc 3 111 26 is_stmt 0 view .LVU268
ARM GAS  /tmp/ccTYGLnU.s 			page 42


 822 00a0 41F21302 		movw	r2, #4115
 823 00a4 0021     		movs	r1, #0
 824 00a6 2046     		mov	r0, r4
 825 00a8 FFF7FEFF 		bl	lv_obj_get_style_prop
 826              	.LVL89:
 112:Middlewares/lvgl/src/widgets/../core/lv_obj_style_gen.h **** }
 827              		.loc 3 112 5 is_stmt 1 view .LVU269
 112:Middlewares/lvgl/src/widgets/../core/lv_obj_style_gen.h **** }
 828              		.loc 3 112 5 is_stmt 0 view .LVU270
 829              	.LBE118:
 830              	.LBE117:
 868:Middlewares/lvgl/src/widgets/lv_table.c ****         }
 831              		.loc 1 868 34 view .LVU271
 832 00ac 80B2     		uxth	r0, r0
 868:Middlewares/lvgl/src/widgets/lv_table.c ****         }
 833              		.loc 1 868 32 view .LVU272
 834 00ae A8EB0000 		sub	r0, r8, r0
 835 00b2 80B2     		uxth	r0, r0
 868:Middlewares/lvgl/src/widgets/lv_table.c ****         }
 836              		.loc 1 868 80 view .LVU273
 837 00b4 C71B     		subs	r7, r0, r7
 838              	.LVL90:
 868:Middlewares/lvgl/src/widgets/lv_table.c ****         }
 839              		.loc 1 868 15 view .LVU274
 840 00b6 38B2     		sxth	r0, r7
 841              	.LVL91:
 868:Middlewares/lvgl/src/widgets/lv_table.c ****         }
 842              		.loc 1 868 15 view .LVU275
 843 00b8 E0E7     		b	.L22
 844              	.LVL92:
 845              	.L20:
 868:Middlewares/lvgl/src/widgets/lv_table.c ****         }
 846              		.loc 1 868 15 view .LVU276
 847              	.LBE112:
 883:Middlewares/lvgl/src/widgets/lv_table.c ****         lv_coord_t y = p.y + lv_obj_get_scroll_y(obj);;
 848              		.loc 1 883 5 is_stmt 1 view .LVU277
 883:Middlewares/lvgl/src/widgets/lv_table.c ****         lv_coord_t y = p.y + lv_obj_get_scroll_y(obj);;
 849              		.loc 1 883 7 is_stmt 0 view .LVU278
 850 00ba 2DB3     		cbz	r5, .L27
 851              	.LBB119:
 884:Middlewares/lvgl/src/widgets/lv_table.c ****         y -= obj->coords.y1;
 852              		.loc 1 884 9 is_stmt 1 view .LVU279
 884:Middlewares/lvgl/src/widgets/lv_table.c ****         y -= obj->coords.y1;
 853              		.loc 1 884 25 is_stmt 0 view .LVU280
 854 00bc BDF80660 		ldrh	r6, [sp, #6]
 855              	.LVL93:
 884:Middlewares/lvgl/src/widgets/lv_table.c ****         y -= obj->coords.y1;
 856              		.loc 1 884 30 view .LVU281
 857 00c0 2046     		mov	r0, r4
 858 00c2 FFF7FEFF 		bl	lv_obj_get_scroll_y
 859              	.LVL94:
 860 00c6 80B2     		uxth	r0, r0
 884:Middlewares/lvgl/src/widgets/lv_table.c ****         y -= obj->coords.y1;
 861              		.loc 1 884 28 view .LVU282
 862 00c8 0644     		add	r6, r6, r0
 863 00ca B6B2     		uxth	r6, r6
 864              	.LVL95:
ARM GAS  /tmp/ccTYGLnU.s 			page 43


 884:Middlewares/lvgl/src/widgets/lv_table.c ****         y -= obj->coords.y1;
 865              		.loc 1 884 55 is_stmt 1 view .LVU283
 885:Middlewares/lvgl/src/widgets/lv_table.c ****         y -= lv_obj_get_style_pad_top(obj, LV_PART_MAIN);
 866              		.loc 1 885 9 view .LVU284
 885:Middlewares/lvgl/src/widgets/lv_table.c ****         y -= lv_obj_get_style_pad_top(obj, LV_PART_MAIN);
 867              		.loc 1 885 25 is_stmt 0 view .LVU285
 868 00cc E18A     		ldrh	r1, [r4, #22]
 885:Middlewares/lvgl/src/widgets/lv_table.c ****         y -= lv_obj_get_style_pad_top(obj, LV_PART_MAIN);
 869              		.loc 1 885 11 view .LVU286
 870 00ce 761A     		subs	r6, r6, r1
 871              	.LVL96:
 885:Middlewares/lvgl/src/widgets/lv_table.c ****         y -= lv_obj_get_style_pad_top(obj, LV_PART_MAIN);
 872              		.loc 1 885 11 view .LVU287
 873 00d0 B6B2     		uxth	r6, r6
 874              	.LVL97:
 886:Middlewares/lvgl/src/widgets/lv_table.c **** 
 875              		.loc 1 886 9 is_stmt 1 view .LVU288
 876              	.LBB120:
 877              	.LBI120:
  91:Middlewares/lvgl/src/widgets/../core/lv_obj_style_gen.h **** {
 878              		.loc 3 91 26 view .LVU289
 879              	.LBB121:
  93:Middlewares/lvgl/src/widgets/../core/lv_obj_style_gen.h ****     return (lv_coord_t)v.num;
 880              		.loc 3 93 5 view .LVU290
  93:Middlewares/lvgl/src/widgets/../core/lv_obj_style_gen.h ****     return (lv_coord_t)v.num;
 881              		.loc 3 93 26 is_stmt 0 view .LVU291
 882 00d2 41F21002 		movw	r2, #4112
 883 00d6 0021     		movs	r1, #0
 884 00d8 2046     		mov	r0, r4
 885 00da FFF7FEFF 		bl	lv_obj_get_style_prop
 886              	.LVL98:
  94:Middlewares/lvgl/src/widgets/../core/lv_obj_style_gen.h **** }
 887              		.loc 3 94 5 is_stmt 1 view .LVU292
  94:Middlewares/lvgl/src/widgets/../core/lv_obj_style_gen.h **** }
 888              		.loc 3 94 5 is_stmt 0 view .LVU293
 889              	.LBE121:
 890              	.LBE120:
 886:Middlewares/lvgl/src/widgets/lv_table.c **** 
 891              		.loc 1 886 14 view .LVU294
 892 00de 81B2     		uxth	r1, r0
 886:Middlewares/lvgl/src/widgets/lv_table.c **** 
 893              		.loc 1 886 11 view .LVU295
 894 00e0 711A     		subs	r1, r6, r1
 895 00e2 09B2     		sxth	r1, r1
 896              	.LVL99:
 888:Middlewares/lvgl/src/widgets/lv_table.c ****         tmp = 0;
 897              		.loc 1 888 9 is_stmt 1 view .LVU296
 888:Middlewares/lvgl/src/widgets/lv_table.c ****         tmp = 0;
 898              		.loc 1 888 14 is_stmt 0 view .LVU297
 899 00e4 0022     		movs	r2, #0
 900 00e6 2A80     		strh	r2, [r5]	@ movhi
 889:Middlewares/lvgl/src/widgets/lv_table.c **** 
 901              		.loc 1 889 9 is_stmt 1 view .LVU298
 902              	.LVL100:
 891:Middlewares/lvgl/src/widgets/lv_table.c ****             tmp += table->row_h[*row];
 903              		.loc 1 891 9 view .LVU299
 904              	.L25:
ARM GAS  /tmp/ccTYGLnU.s 			page 44


 891:Middlewares/lvgl/src/widgets/lv_table.c ****             tmp += table->row_h[*row];
 905              		.loc 1 891 23 discriminator 1 view .LVU300
 906 00e8 2B88     		ldrh	r3, [r5]
 891:Middlewares/lvgl/src/widgets/lv_table.c ****             tmp += table->row_h[*row];
 907              		.loc 1 891 35 is_stmt 0 discriminator 1 view .LVU301
 908 00ea E08C     		ldrh	r0, [r4, #38]
 891:Middlewares/lvgl/src/widgets/lv_table.c ****             tmp += table->row_h[*row];
 909              		.loc 1 891 9 discriminator 1 view .LVU302
 910 00ec 8342     		cmp	r3, r0
 911 00ee 09D2     		bcs	.L31
 892:Middlewares/lvgl/src/widgets/lv_table.c ****             if(y < tmp) break;
 912              		.loc 1 892 13 is_stmt 1 view .LVU303
 892:Middlewares/lvgl/src/widgets/lv_table.c ****             if(y < tmp) break;
 913              		.loc 1 892 25 is_stmt 0 view .LVU304
 914 00f0 E06A     		ldr	r0, [r4, #44]
 892:Middlewares/lvgl/src/widgets/lv_table.c ****             if(y < tmp) break;
 915              		.loc 1 892 32 view .LVU305
 916 00f2 30F81300 		ldrh	r0, [r0, r3, lsl #1]
 892:Middlewares/lvgl/src/widgets/lv_table.c ****             if(y < tmp) break;
 917              		.loc 1 892 17 view .LVU306
 918 00f6 0244     		add	r2, r2, r0
 919              	.LVL101:
 892:Middlewares/lvgl/src/widgets/lv_table.c ****             if(y < tmp) break;
 920              		.loc 1 892 17 view .LVU307
 921 00f8 12B2     		sxth	r2, r2
 922              	.LVL102:
 893:Middlewares/lvgl/src/widgets/lv_table.c ****         }
 923              		.loc 1 893 13 is_stmt 1 view .LVU308
 893:Middlewares/lvgl/src/widgets/lv_table.c ****         }
 924              		.loc 1 893 15 is_stmt 0 view .LVU309
 925 00fa 9142     		cmp	r1, r2
 926 00fc 06DB     		blt	.L28
 891:Middlewares/lvgl/src/widgets/lv_table.c ****             tmp += table->row_h[*row];
 927              		.loc 1 891 46 is_stmt 1 discriminator 2 view .LVU310
 891:Middlewares/lvgl/src/widgets/lv_table.c ****             tmp += table->row_h[*row];
 928              		.loc 1 891 52 is_stmt 0 discriminator 2 view .LVU311
 929 00fe 0133     		adds	r3, r3, #1
 930 0100 2B80     		strh	r3, [r5]	@ movhi
 931 0102 F1E7     		b	.L25
 932              	.L31:
 891:Middlewares/lvgl/src/widgets/lv_table.c ****             tmp += table->row_h[*row];
 933              		.loc 1 891 52 discriminator 2 view .LVU312
 934              	.LBE119:
 897:Middlewares/lvgl/src/widgets/lv_table.c **** }
 935              		.loc 1 897 12 view .LVU313
 936 0104 0120     		movs	r0, #1
 937              	.LBB122:
 938 0106 92E7     		b	.L19
 939              	.LVL103:
 940              	.L27:
 897:Middlewares/lvgl/src/widgets/lv_table.c **** }
 941              		.loc 1 897 12 view .LVU314
 942              	.LBE122:
 943 0108 0120     		movs	r0, #1
 944 010a 90E7     		b	.L19
 945              	.LVL104:
 946              	.L28:
ARM GAS  /tmp/ccTYGLnU.s 			page 45


 897:Middlewares/lvgl/src/widgets/lv_table.c **** }
 947              		.loc 1 897 12 view .LVU315
 948 010c 0120     		movs	r0, #1
 949 010e 8EE7     		b	.L19
 950              		.cfi_endproc
 951              	.LFE167:
 953              		.section	.text.draw_main,"ax",%progbits
 954              		.align	1
 955              		.syntax unified
 956              		.thumb
 957              		.thumb_func
 958              		.fpu softvfp
 960              	draw_main:
 961              	.LVL105:
 962              	.LFB164:
 582:Middlewares/lvgl/src/widgets/lv_table.c ****     lv_obj_t * obj = lv_event_get_target(e);
 963              		.loc 1 582 1 is_stmt 1 view -0
 964              		.cfi_startproc
 965              		@ args = 0, pretend = 0, frame = 344
 966              		@ frame_needed = 0, uses_anonymous_args = 0
 582:Middlewares/lvgl/src/widgets/lv_table.c ****     lv_obj_t * obj = lv_event_get_target(e);
 967              		.loc 1 582 1 is_stmt 0 view .LVU317
 968 0000 2DE9F04F 		push	{r4, r5, r6, r7, r8, r9, r10, fp, lr}
 969              	.LCFI10:
 970              		.cfi_def_cfa_offset 36
 971              		.cfi_offset 4, -36
 972              		.cfi_offset 5, -32
 973              		.cfi_offset 6, -28
 974              		.cfi_offset 7, -24
 975              		.cfi_offset 8, -20
 976              		.cfi_offset 9, -16
 977              		.cfi_offset 10, -12
 978              		.cfi_offset 11, -8
 979              		.cfi_offset 14, -4
 980 0004 DBB0     		sub	sp, sp, #364
 981              	.LCFI11:
 982              		.cfi_def_cfa_offset 400
 983 0006 0446     		mov	r4, r0
 583:Middlewares/lvgl/src/widgets/lv_table.c ****     lv_table_t * table = (lv_table_t *)obj;
 984              		.loc 1 583 5 is_stmt 1 view .LVU318
 583:Middlewares/lvgl/src/widgets/lv_table.c ****     lv_table_t * table = (lv_table_t *)obj;
 985              		.loc 1 583 22 is_stmt 0 view .LVU319
 986 0008 FFF7FEFF 		bl	lv_event_get_target
 987              	.LVL106:
 583:Middlewares/lvgl/src/widgets/lv_table.c ****     lv_table_t * table = (lv_table_t *)obj;
 988              		.loc 1 583 22 view .LVU320
 989 000c 0746     		mov	r7, r0
 990              	.LVL107:
 584:Middlewares/lvgl/src/widgets/lv_table.c ****     const lv_area_t * clip_area = lv_event_get_param(e);
 991              		.loc 1 584 5 is_stmt 1 view .LVU321
 585:Middlewares/lvgl/src/widgets/lv_table.c **** 
 992              		.loc 1 585 5 view .LVU322
 585:Middlewares/lvgl/src/widgets/lv_table.c **** 
 993              		.loc 1 585 35 is_stmt 0 view .LVU323
 994 000e 2046     		mov	r0, r4
 995              	.LVL108:
 585:Middlewares/lvgl/src/widgets/lv_table.c **** 
ARM GAS  /tmp/ccTYGLnU.s 			page 46


 996              		.loc 1 585 35 view .LVU324
 997 0010 FFF7FEFF 		bl	lv_event_get_param
 998              	.LVL109:
 999 0014 8046     		mov	r8, r0
 1000 0016 0590     		str	r0, [sp, #20]
 1001              	.LVL110:
 587:Middlewares/lvgl/src/widgets/lv_table.c ****     lv_area_t cell_area;
 1002              		.loc 1 587 5 is_stmt 1 view .LVU325
 588:Middlewares/lvgl/src/widgets/lv_table.c ****     lv_area_t txt_area;
 1003              		.loc 1 588 5 view .LVU326
 589:Middlewares/lvgl/src/widgets/lv_table.c ****     lv_text_flag_t txt_flags;
 1004              		.loc 1 589 5 view .LVU327
 590:Middlewares/lvgl/src/widgets/lv_table.c **** 
 1005              		.loc 1 590 5 view .LVU328
 592:Middlewares/lvgl/src/widgets/lv_table.c ****     lv_coord_t bg_bottom = lv_obj_get_style_pad_bottom(obj, LV_PART_MAIN);
 1006              		.loc 1 592 5 view .LVU329
 1007              	.LBB123:
 1008              	.LBI123:
  91:Middlewares/lvgl/src/widgets/../core/lv_obj_style_gen.h **** {
 1009              		.loc 3 91 26 view .LVU330
 1010              	.LBB124:
  93:Middlewares/lvgl/src/widgets/../core/lv_obj_style_gen.h ****     return (lv_coord_t)v.num;
 1011              		.loc 3 93 5 view .LVU331
  93:Middlewares/lvgl/src/widgets/../core/lv_obj_style_gen.h ****     return (lv_coord_t)v.num;
 1012              		.loc 3 93 26 is_stmt 0 view .LVU332
 1013 0018 41F21002 		movw	r2, #4112
 1014 001c 0021     		movs	r1, #0
 1015 001e 3846     		mov	r0, r7
 1016              	.LVL111:
  93:Middlewares/lvgl/src/widgets/../core/lv_obj_style_gen.h ****     return (lv_coord_t)v.num;
 1017              		.loc 3 93 26 view .LVU333
 1018 0020 FFF7FEFF 		bl	lv_obj_get_style_prop
 1019              	.LVL112:
 1020 0024 0446     		mov	r4, r0
 1021              	.LVL113:
  94:Middlewares/lvgl/src/widgets/../core/lv_obj_style_gen.h **** }
 1022              		.loc 3 94 5 is_stmt 1 view .LVU334
  94:Middlewares/lvgl/src/widgets/../core/lv_obj_style_gen.h **** }
 1023              		.loc 3 94 12 is_stmt 0 view .LVU335
 1024 0026 03B2     		sxth	r3, r0
 1025 0028 0F93     		str	r3, [sp, #60]
 1026              	.LVL114:
  94:Middlewares/lvgl/src/widgets/../core/lv_obj_style_gen.h **** }
 1027              		.loc 3 94 12 view .LVU336
 1028              	.LBE124:
 1029              	.LBE123:
 593:Middlewares/lvgl/src/widgets/lv_table.c ****     lv_coord_t bg_left = lv_obj_get_style_pad_left(obj, LV_PART_MAIN);
 1030              		.loc 1 593 5 is_stmt 1 view .LVU337
 1031              	.LBB125:
 1032              	.LBI125:
  97:Middlewares/lvgl/src/widgets/../core/lv_obj_style_gen.h **** {
 1033              		.loc 3 97 26 view .LVU338
 1034              	.LBB126:
  99:Middlewares/lvgl/src/widgets/../core/lv_obj_style_gen.h ****     return (lv_coord_t)v.num;
 1035              		.loc 3 99 5 view .LVU339
  99:Middlewares/lvgl/src/widgets/../core/lv_obj_style_gen.h ****     return (lv_coord_t)v.num;
 1036              		.loc 3 99 26 is_stmt 0 view .LVU340
ARM GAS  /tmp/ccTYGLnU.s 			page 47


 1037 002a 41F21102 		movw	r2, #4113
 1038 002e 0021     		movs	r1, #0
 1039 0030 3846     		mov	r0, r7
  99:Middlewares/lvgl/src/widgets/../core/lv_obj_style_gen.h ****     return (lv_coord_t)v.num;
 1040              		.loc 3 99 26 view .LVU341
 1041 0032 FFF7FEFF 		bl	lv_obj_get_style_prop
 1042              	.LVL115:
 100:Middlewares/lvgl/src/widgets/../core/lv_obj_style_gen.h **** }
 1043              		.loc 3 100 5 is_stmt 1 view .LVU342
 100:Middlewares/lvgl/src/widgets/../core/lv_obj_style_gen.h **** }
 1044              		.loc 3 100 12 is_stmt 0 view .LVU343
 1045 0036 03B2     		sxth	r3, r0
 1046 0038 0E93     		str	r3, [sp, #56]
 1047              	.LVL116:
 100:Middlewares/lvgl/src/widgets/../core/lv_obj_style_gen.h **** }
 1048              		.loc 3 100 12 view .LVU344
 1049              	.LBE126:
 1050              	.LBE125:
 594:Middlewares/lvgl/src/widgets/lv_table.c ****     lv_coord_t bg_right = lv_obj_get_style_pad_right(obj, LV_PART_MAIN);
 1051              		.loc 1 594 5 is_stmt 1 view .LVU345
 1052              	.LBB127:
 1053              	.LBI127:
 103:Middlewares/lvgl/src/widgets/../core/lv_obj_style_gen.h **** {
 1054              		.loc 3 103 26 view .LVU346
 1055              	.LBB128:
 105:Middlewares/lvgl/src/widgets/../core/lv_obj_style_gen.h ****     return (lv_coord_t)v.num;
 1056              		.loc 3 105 5 view .LVU347
 105:Middlewares/lvgl/src/widgets/../core/lv_obj_style_gen.h ****     return (lv_coord_t)v.num;
 1057              		.loc 3 105 26 is_stmt 0 view .LVU348
 1058 003a 41F21202 		movw	r2, #4114
 1059 003e 0021     		movs	r1, #0
 1060 0040 3846     		mov	r0, r7
 1061 0042 FFF7FEFF 		bl	lv_obj_get_style_prop
 1062              	.LVL117:
 1063 0046 1190     		str	r0, [sp, #68]
 106:Middlewares/lvgl/src/widgets/../core/lv_obj_style_gen.h **** }
 1064              		.loc 3 106 5 is_stmt 1 view .LVU349
 106:Middlewares/lvgl/src/widgets/../core/lv_obj_style_gen.h **** }
 1065              		.loc 3 106 12 is_stmt 0 view .LVU350
 1066 0048 03B2     		sxth	r3, r0
 1067 004a 0D93     		str	r3, [sp, #52]
 1068              	.LVL118:
 106:Middlewares/lvgl/src/widgets/../core/lv_obj_style_gen.h **** }
 1069              		.loc 3 106 12 view .LVU351
 1070              	.LBE128:
 1071              	.LBE127:
 595:Middlewares/lvgl/src/widgets/lv_table.c **** 
 1072              		.loc 1 595 5 is_stmt 1 view .LVU352
 1073              	.LBB129:
 1074              	.LBI129:
 109:Middlewares/lvgl/src/widgets/../core/lv_obj_style_gen.h **** {
 1075              		.loc 3 109 26 view .LVU353
 1076              	.LBB130:
 111:Middlewares/lvgl/src/widgets/../core/lv_obj_style_gen.h ****     return (lv_coord_t)v.num;
 1077              		.loc 3 111 5 view .LVU354
 111:Middlewares/lvgl/src/widgets/../core/lv_obj_style_gen.h ****     return (lv_coord_t)v.num;
 1078              		.loc 3 111 26 is_stmt 0 view .LVU355
ARM GAS  /tmp/ccTYGLnU.s 			page 48


 1079 004c 41F21302 		movw	r2, #4115
 1080 0050 0021     		movs	r1, #0
 1081 0052 3846     		mov	r0, r7
 1082 0054 FFF7FEFF 		bl	lv_obj_get_style_prop
 1083              	.LVL119:
 1084 0058 1390     		str	r0, [sp, #76]
 112:Middlewares/lvgl/src/widgets/../core/lv_obj_style_gen.h **** }
 1085              		.loc 3 112 5 is_stmt 1 view .LVU356
 112:Middlewares/lvgl/src/widgets/../core/lv_obj_style_gen.h **** }
 1086              		.loc 3 112 12 is_stmt 0 view .LVU357
 1087 005a 03B2     		sxth	r3, r0
 1088 005c 0C93     		str	r3, [sp, #48]
 1089              	.LVL120:
 112:Middlewares/lvgl/src/widgets/../core/lv_obj_style_gen.h **** }
 1090              		.loc 3 112 12 view .LVU358
 1091              	.LBE130:
 1092              	.LBE129:
 597:Middlewares/lvgl/src/widgets/lv_table.c ****     lv_coord_t cell_right = lv_obj_get_style_pad_right(obj, LV_PART_ITEMS);
 1093              		.loc 1 597 5 is_stmt 1 view .LVU359
 1094              	.LBB131:
 1095              	.LBI131:
 103:Middlewares/lvgl/src/widgets/../core/lv_obj_style_gen.h **** {
 1096              		.loc 3 103 26 view .LVU360
 1097              	.LBB132:
 105:Middlewares/lvgl/src/widgets/../core/lv_obj_style_gen.h ****     return (lv_coord_t)v.num;
 1098              		.loc 3 105 5 view .LVU361
 105:Middlewares/lvgl/src/widgets/../core/lv_obj_style_gen.h ****     return (lv_coord_t)v.num;
 1099              		.loc 3 105 26 is_stmt 0 view .LVU362
 1100 005e 41F21202 		movw	r2, #4114
 1101 0062 4FF4A021 		mov	r1, #327680
 1102 0066 3846     		mov	r0, r7
 1103 0068 FFF7FEFF 		bl	lv_obj_get_style_prop
 1104              	.LVL121:
 1105 006c 0A90     		str	r0, [sp, #40]
 106:Middlewares/lvgl/src/widgets/../core/lv_obj_style_gen.h **** }
 1106              		.loc 3 106 5 is_stmt 1 view .LVU363
 1107              	.LVL122:
 106:Middlewares/lvgl/src/widgets/../core/lv_obj_style_gen.h **** }
 1108              		.loc 3 106 5 is_stmt 0 view .LVU364
 1109              	.LBE132:
 1110              	.LBE131:
 598:Middlewares/lvgl/src/widgets/lv_table.c ****     lv_coord_t cell_top = lv_obj_get_style_pad_top(obj, LV_PART_ITEMS);
 1111              		.loc 1 598 5 is_stmt 1 view .LVU365
 1112              	.LBB133:
 1113              	.LBI133:
 109:Middlewares/lvgl/src/widgets/../core/lv_obj_style_gen.h **** {
 1114              		.loc 3 109 26 view .LVU366
 1115              	.LBB134:
 111:Middlewares/lvgl/src/widgets/../core/lv_obj_style_gen.h ****     return (lv_coord_t)v.num;
 1116              		.loc 3 111 5 view .LVU367
 111:Middlewares/lvgl/src/widgets/../core/lv_obj_style_gen.h ****     return (lv_coord_t)v.num;
 1117              		.loc 3 111 26 is_stmt 0 view .LVU368
 1118 006e 41F21302 		movw	r2, #4115
 1119 0072 4FF4A021 		mov	r1, #327680
 1120 0076 3846     		mov	r0, r7
 1121 0078 FFF7FEFF 		bl	lv_obj_get_style_prop
 1122              	.LVL123:
ARM GAS  /tmp/ccTYGLnU.s 			page 49


 1123 007c 0990     		str	r0, [sp, #36]
 112:Middlewares/lvgl/src/widgets/../core/lv_obj_style_gen.h **** }
 1124              		.loc 3 112 5 is_stmt 1 view .LVU369
 1125              	.LVL124:
 112:Middlewares/lvgl/src/widgets/../core/lv_obj_style_gen.h **** }
 1126              		.loc 3 112 5 is_stmt 0 view .LVU370
 1127              	.LBE134:
 1128              	.LBE133:
 599:Middlewares/lvgl/src/widgets/lv_table.c ****     lv_coord_t cell_bottom = lv_obj_get_style_pad_bottom(obj, LV_PART_ITEMS);
 1129              		.loc 1 599 5 is_stmt 1 view .LVU371
 1130              	.LBB135:
 1131              	.LBI135:
  91:Middlewares/lvgl/src/widgets/../core/lv_obj_style_gen.h **** {
 1132              		.loc 3 91 26 view .LVU372
 1133              	.LBB136:
  93:Middlewares/lvgl/src/widgets/../core/lv_obj_style_gen.h ****     return (lv_coord_t)v.num;
 1134              		.loc 3 93 5 view .LVU373
  93:Middlewares/lvgl/src/widgets/../core/lv_obj_style_gen.h ****     return (lv_coord_t)v.num;
 1135              		.loc 3 93 26 is_stmt 0 view .LVU374
 1136 007e 41F21002 		movw	r2, #4112
 1137 0082 4FF4A021 		mov	r1, #327680
 1138 0086 3846     		mov	r0, r7
 1139 0088 FFF7FEFF 		bl	lv_obj_get_style_prop
 1140              	.LVL125:
 1141 008c 0890     		str	r0, [sp, #32]
  94:Middlewares/lvgl/src/widgets/../core/lv_obj_style_gen.h **** }
 1142              		.loc 3 94 5 is_stmt 1 view .LVU375
 1143              	.LVL126:
  94:Middlewares/lvgl/src/widgets/../core/lv_obj_style_gen.h **** }
 1144              		.loc 3 94 5 is_stmt 0 view .LVU376
 1145              	.LBE136:
 1146              	.LBE135:
 600:Middlewares/lvgl/src/widgets/lv_table.c **** 
 1147              		.loc 1 600 5 is_stmt 1 view .LVU377
 1148              	.LBB137:
 1149              	.LBI137:
  97:Middlewares/lvgl/src/widgets/../core/lv_obj_style_gen.h **** {
 1150              		.loc 3 97 26 view .LVU378
 1151              	.LBB138:
  99:Middlewares/lvgl/src/widgets/../core/lv_obj_style_gen.h ****     return (lv_coord_t)v.num;
 1152              		.loc 3 99 5 view .LVU379
  99:Middlewares/lvgl/src/widgets/../core/lv_obj_style_gen.h ****     return (lv_coord_t)v.num;
 1153              		.loc 3 99 26 is_stmt 0 view .LVU380
 1154 008e 41F21102 		movw	r2, #4113
 1155 0092 4FF4A021 		mov	r1, #327680
 1156 0096 3846     		mov	r0, r7
 1157 0098 FFF7FEFF 		bl	lv_obj_get_style_prop
 1158              	.LVL127:
 1159 009c 0790     		str	r0, [sp, #28]
 100:Middlewares/lvgl/src/widgets/../core/lv_obj_style_gen.h **** }
 1160              		.loc 3 100 5 is_stmt 1 view .LVU381
 1161              	.LVL128:
 100:Middlewares/lvgl/src/widgets/../core/lv_obj_style_gen.h **** }
 1162              		.loc 3 100 5 is_stmt 0 view .LVU382
 1163              	.LBE138:
 1164              	.LBE137:
 602:Middlewares/lvgl/src/widgets/lv_table.c ****     obj->state = LV_STATE_DEFAULT;
ARM GAS  /tmp/ccTYGLnU.s 			page 50


 1165              		.loc 1 602 5 is_stmt 1 view .LVU383
 602:Middlewares/lvgl/src/widgets/lv_table.c ****     obj->state = LV_STATE_DEFAULT;
 1166              		.loc 1 602 16 is_stmt 0 view .LVU384
 1167 009e 3E8C     		ldrh	r6, [r7, #32]
 1168 00a0 1296     		str	r6, [sp, #72]
 1169              	.LVL129:
 603:Middlewares/lvgl/src/widgets/lv_table.c ****     obj->skip_trans = 1;
 1170              		.loc 1 603 5 is_stmt 1 view .LVU385
 603:Middlewares/lvgl/src/widgets/lv_table.c ****     obj->skip_trans = 1;
 1171              		.loc 1 603 16 is_stmt 0 view .LVU386
 1172 00a2 0025     		movs	r5, #0
 1173 00a4 3D84     		strh	r5, [r7, #32]	@ movhi
 604:Middlewares/lvgl/src/widgets/lv_table.c ****     lv_draw_rect_dsc_t rect_dsc_def;
 1174              		.loc 1 604 5 is_stmt 1 view .LVU387
 604:Middlewares/lvgl/src/widgets/lv_table.c ****     lv_draw_rect_dsc_t rect_dsc_def;
 1175              		.loc 1 604 21 is_stmt 0 view .LVU388
 1176 00a6 97F82230 		ldrb	r3, [r7, #34]	@ zero_extendqisi2
 1177 00aa 43F00403 		orr	r3, r3, #4
 1178 00ae 87F82230 		strb	r3, [r7, #34]
 605:Middlewares/lvgl/src/widgets/lv_table.c ****     lv_draw_rect_dsc_t rect_dsc_act; /*Passed to the event to modify it*/
 1179              		.loc 1 605 5 is_stmt 1 view .LVU389
 606:Middlewares/lvgl/src/widgets/lv_table.c ****     lv_draw_rect_dsc_init(&rect_dsc_def);
 1180              		.loc 1 606 5 view .LVU390
 607:Middlewares/lvgl/src/widgets/lv_table.c ****     lv_obj_init_draw_rect_dsc(obj, LV_PART_ITEMS, &rect_dsc_def);
 1181              		.loc 1 607 5 view .LVU391
 1182 00b2 48A8     		add	r0, sp, #288
 1183 00b4 FFF7FEFF 		bl	lv_draw_rect_dsc_init
 1184              	.LVL130:
 608:Middlewares/lvgl/src/widgets/lv_table.c **** 
 1185              		.loc 1 608 5 view .LVU392
 1186 00b8 48AA     		add	r2, sp, #288
 1187 00ba 4FF4A021 		mov	r1, #327680
 1188 00be 3846     		mov	r0, r7
 1189 00c0 FFF7FEFF 		bl	lv_obj_init_draw_rect_dsc
 1190              	.LVL131:
 610:Middlewares/lvgl/src/widgets/lv_table.c ****     lv_draw_label_dsc_t label_dsc_act;  /*Passed to the event to modify it*/
 1191              		.loc 1 610 5 view .LVU393
 611:Middlewares/lvgl/src/widgets/lv_table.c ****     lv_draw_label_dsc_init(&label_dsc_def);
 1192              		.loc 1 611 5 view .LVU394
 612:Middlewares/lvgl/src/widgets/lv_table.c ****     lv_obj_init_draw_label_dsc(obj, LV_PART_ITEMS, &label_dsc_def);
 1193              		.loc 1 612 5 view .LVU395
 1194 00c4 33A8     		add	r0, sp, #204
 1195 00c6 FFF7FEFF 		bl	lv_draw_label_dsc_init
 1196              	.LVL132:
 613:Middlewares/lvgl/src/widgets/lv_table.c ****     obj->state = state_ori;
 1197              		.loc 1 613 5 view .LVU396
 1198 00ca 33AA     		add	r2, sp, #204
 1199 00cc 4FF4A021 		mov	r1, #327680
 1200 00d0 3846     		mov	r0, r7
 1201 00d2 FFF7FEFF 		bl	lv_obj_init_draw_label_dsc
 1202              	.LVL133:
 614:Middlewares/lvgl/src/widgets/lv_table.c ****     obj->skip_trans = 0;
 1203              		.loc 1 614 5 view .LVU397
 614:Middlewares/lvgl/src/widgets/lv_table.c ****     obj->skip_trans = 0;
 1204              		.loc 1 614 16 is_stmt 0 view .LVU398
 1205 00d6 3E84     		strh	r6, [r7, #32]	@ movhi
 615:Middlewares/lvgl/src/widgets/lv_table.c **** 
ARM GAS  /tmp/ccTYGLnU.s 			page 51


 1206              		.loc 1 615 5 is_stmt 1 view .LVU399
 615:Middlewares/lvgl/src/widgets/lv_table.c **** 
 1207              		.loc 1 615 21 is_stmt 0 view .LVU400
 1208 00d8 97F82230 		ldrb	r3, [r7, #34]	@ zero_extendqisi2
 1209 00dc 65F38203 		bfi	r3, r5, #2, #1
 1210 00e0 87F82230 		strb	r3, [r7, #34]
 617:Middlewares/lvgl/src/widgets/lv_table.c ****     uint16_t row;
 1211              		.loc 1 617 5 is_stmt 1 view .LVU401
 618:Middlewares/lvgl/src/widgets/lv_table.c ****     uint16_t cell = 0;
 1212              		.loc 1 618 5 view .LVU402
 619:Middlewares/lvgl/src/widgets/lv_table.c **** 
 1213              		.loc 1 619 5 view .LVU403
 1214              	.LVL134:
 621:Middlewares/lvgl/src/widgets/lv_table.c ****     lv_coord_t scroll_x = lv_obj_get_scroll_x(obj) ;
 1215              		.loc 1 621 5 view .LVU404
 621:Middlewares/lvgl/src/widgets/lv_table.c ****     lv_coord_t scroll_x = lv_obj_get_scroll_x(obj) ;
 1216              		.loc 1 621 31 is_stmt 0 view .LVU405
 1217 00e4 FB8A     		ldrh	r3, [r7, #22]
 1218              	.LVL135:
 621:Middlewares/lvgl/src/widgets/lv_table.c ****     lv_coord_t scroll_x = lv_obj_get_scroll_x(obj) ;
 1219              		.loc 1 621 35 view .LVU406
 1220 00e6 1C44     		add	r4, r4, r3
 1221              	.LVL136:
 621:Middlewares/lvgl/src/widgets/lv_table.c ****     lv_coord_t scroll_x = lv_obj_get_scroll_x(obj) ;
 1222              		.loc 1 621 35 view .LVU407
 1223 00e8 A4B2     		uxth	r4, r4
 621:Middlewares/lvgl/src/widgets/lv_table.c ****     lv_coord_t scroll_x = lv_obj_get_scroll_x(obj) ;
 1224              		.loc 1 621 50 view .LVU408
 1225 00ea 3846     		mov	r0, r7
 1226 00ec FFF7FEFF 		bl	lv_obj_get_scroll_y
 1227              	.LVL137:
 621:Middlewares/lvgl/src/widgets/lv_table.c ****     lv_coord_t scroll_x = lv_obj_get_scroll_x(obj) ;
 1228              		.loc 1 621 48 view .LVU409
 1229 00f0 231A     		subs	r3, r4, r0
 1230 00f2 013B     		subs	r3, r3, #1
 621:Middlewares/lvgl/src/widgets/lv_table.c ****     lv_coord_t scroll_x = lv_obj_get_scroll_x(obj) ;
 1231              		.loc 1 621 18 view .LVU410
 1232 00f4 ADF86231 		strh	r3, [sp, #354]	@ movhi
 622:Middlewares/lvgl/src/widgets/lv_table.c ****     bool rtl = lv_obj_get_style_base_dir(obj, LV_PART_MAIN) == LV_BASE_DIR_RTL ? true : false;
 1233              		.loc 1 622 5 is_stmt 1 view .LVU411
 622:Middlewares/lvgl/src/widgets/lv_table.c ****     bool rtl = lv_obj_get_style_base_dir(obj, LV_PART_MAIN) == LV_BASE_DIR_RTL ? true : false;
 1234              		.loc 1 622 27 is_stmt 0 view .LVU412
 1235 00f8 3846     		mov	r0, r7
 1236 00fa FFF7FEFF 		bl	lv_obj_get_scroll_x
 1237              	.LVL138:
 1238 00fe 1090     		str	r0, [sp, #64]
 1239              	.LVL139:
 623:Middlewares/lvgl/src/widgets/lv_table.c **** 
 1240              		.loc 1 623 5 is_stmt 1 view .LVU413
 1241              	.LBB139:
 1242              	.LBI139:
 187:Middlewares/lvgl/src/widgets/../core/lv_obj_style_gen.h **** {
 1243              		.loc 3 187 29 view .LVU414
 1244              	.LBB140:
 189:Middlewares/lvgl/src/widgets/../core/lv_obj_style_gen.h ****     return (lv_base_dir_t)v.num;
 1245              		.loc 3 189 5 view .LVU415
 189:Middlewares/lvgl/src/widgets/../core/lv_obj_style_gen.h ****     return (lv_base_dir_t)v.num;
ARM GAS  /tmp/ccTYGLnU.s 			page 52


 1246              		.loc 3 189 26 is_stmt 0 view .LVU416
 1247 0100 41F26A42 		movw	r2, #5226
 1248 0104 2946     		mov	r1, r5
 1249 0106 3846     		mov	r0, r7
 1250 0108 FFF7FEFF 		bl	lv_obj_get_style_prop
 1251              	.LVL140:
 190:Middlewares/lvgl/src/widgets/../core/lv_obj_style_gen.h **** }
 1252              		.loc 3 190 5 is_stmt 1 view .LVU417
 190:Middlewares/lvgl/src/widgets/../core/lv_obj_style_gen.h **** }
 1253              		.loc 3 190 12 is_stmt 0 view .LVU418
 1254 010c 5FFA80FB 		uxtb	fp, r0
 1255              	.LVL141:
 190:Middlewares/lvgl/src/widgets/../core/lv_obj_style_gen.h **** }
 1256              		.loc 3 190 12 view .LVU419
 1257              	.LBE140:
 1258              	.LBE139:
 626:Middlewares/lvgl/src/widgets/lv_table.c ****     lv_obj_draw_dsc_init(&dsc, clip_area);
 1259              		.loc 1 626 5 is_stmt 1 view .LVU420
 627:Middlewares/lvgl/src/widgets/lv_table.c ****     dsc.part = LV_PART_ITEMS;
 1260              		.loc 1 627 5 view .LVU421
 1261 0110 4146     		mov	r1, r8
 1262 0112 19A8     		add	r0, sp, #100
 1263 0114 FFF7FEFF 		bl	lv_obj_draw_dsc_init
 1264              	.LVL142:
 628:Middlewares/lvgl/src/widgets/lv_table.c ****     dsc.rect_dsc = &rect_dsc_act;
 1265              		.loc 1 628 5 view .LVU422
 628:Middlewares/lvgl/src/widgets/lv_table.c ****     dsc.rect_dsc = &rect_dsc_act;
 1266              		.loc 1 628 14 is_stmt 0 view .LVU423
 1267 0118 4FF4A023 		mov	r3, #327680
 1268 011c 2693     		str	r3, [sp, #152]
 629:Middlewares/lvgl/src/widgets/lv_table.c ****     dsc.label_dsc = &label_dsc_act;
 1269              		.loc 1 629 5 is_stmt 1 view .LVU424
 629:Middlewares/lvgl/src/widgets/lv_table.c ****     dsc.label_dsc = &label_dsc_act;
 1270              		.loc 1 629 18 is_stmt 0 view .LVU425
 1271 011e 3BAB     		add	r3, sp, #236
 1272 0120 1B93     		str	r3, [sp, #108]
 630:Middlewares/lvgl/src/widgets/lv_table.c **** 
 1273              		.loc 1 630 5 is_stmt 1 view .LVU426
 630:Middlewares/lvgl/src/widgets/lv_table.c **** 
 1274              		.loc 1 630 19 is_stmt 0 view .LVU427
 1275 0122 2BAB     		add	r3, sp, #172
 1276 0124 1C93     		str	r3, [sp, #112]
 632:Middlewares/lvgl/src/widgets/lv_table.c ****         lv_coord_t h_row = table->row_h[row];
 1277              		.loc 1 632 5 is_stmt 1 view .LVU428
 1278              	.LVL143:
 619:Middlewares/lvgl/src/widgets/lv_table.c **** 
 1279              		.loc 1 619 14 is_stmt 0 view .LVU429
 1280 0126 AA46     		mov	r10, r5
 632:Middlewares/lvgl/src/widgets/lv_table.c ****         lv_coord_t h_row = table->row_h[row];
 1281              		.loc 1 632 13 view .LVU430
 1282 0128 0695     		str	r5, [sp, #24]
 632:Middlewares/lvgl/src/widgets/lv_table.c ****         lv_coord_t h_row = table->row_h[row];
 1283              		.loc 1 632 5 view .LVU431
 1284 012a AEE1     		b	.L33
 1285              	.LVL144:
 1286              	.L75:
 1287              	.LBB141:
ARM GAS  /tmp/ccTYGLnU.s 			page 53


 640:Middlewares/lvgl/src/widgets/lv_table.c ****         else cell_area.x2 = obj->coords.x1 + bg_left - 1 - scroll_x;
 1288              		.loc 1 640 17 is_stmt 1 discriminator 1 view .LVU432
 640:Middlewares/lvgl/src/widgets/lv_table.c ****         else cell_area.x2 = obj->coords.x1 + bg_left - 1 - scroll_x;
 1289              		.loc 1 640 43 is_stmt 0 discriminator 1 view .LVU433
 1290 012c 3B8B     		ldrh	r3, [r7, #24]
 640:Middlewares/lvgl/src/widgets/lv_table.c ****         else cell_area.x2 = obj->coords.x1 + bg_left - 1 - scroll_x;
 1291              		.loc 1 640 47 discriminator 1 view .LVU434
 1292 012e 139A     		ldr	r2, [sp, #76]
 1293 0130 9B1A     		subs	r3, r3, r2
 1294 0132 9BB2     		uxth	r3, r3
 640:Middlewares/lvgl/src/widgets/lv_table.c ****         else cell_area.x2 = obj->coords.x1 + bg_left - 1 - scroll_x;
 1295              		.loc 1 640 62 discriminator 1 view .LVU435
 1296 0134 109A     		ldr	r2, [sp, #64]
 1297 0136 9B1A     		subs	r3, r3, r2
 1298 0138 013B     		subs	r3, r3, #1
 640:Middlewares/lvgl/src/widgets/lv_table.c ****         else cell_area.x2 = obj->coords.x1 + bg_left - 1 - scroll_x;
 1299              		.loc 1 640 30 discriminator 1 view .LVU436
 1300 013a ADF85C31 		strh	r3, [sp, #348]	@ movhi
 1301 013e CBE1     		b	.L37
 1302              	.LVL145:
 1303              	.L66:
 1304              	.LBB142:
 644:Middlewares/lvgl/src/widgets/lv_table.c ****             if(table->cell_data[cell]) ctrl = table->cell_data[cell][0];
 1305              		.loc 1 644 34 view .LVU437
 1306 0140 0026     		movs	r6, #0
 1307 0142 38E1     		b	.L38
 1308              	.LVL146:
 1309              	.L74:
 648:Middlewares/lvgl/src/widgets/lv_table.c ****                 cell_area.x1 = cell_area.x2 - table->col_w[col] + 1;
 1310              		.loc 1 648 17 is_stmt 1 view .LVU438
 648:Middlewares/lvgl/src/widgets/lv_table.c ****                 cell_area.x1 = cell_area.x2 - table->col_w[col] + 1;
 1311              		.loc 1 648 41 is_stmt 0 view .LVU439
 1312 0144 BDF85C21 		ldrh	r2, [sp, #348]
 648:Middlewares/lvgl/src/widgets/lv_table.c ****                 cell_area.x1 = cell_area.x2 - table->col_w[col] + 1;
 1313              		.loc 1 648 45 view .LVU440
 1314 0148 013A     		subs	r2, r2, #1
 1315 014a 93B2     		uxth	r3, r2
 648:Middlewares/lvgl/src/widgets/lv_table.c ****                 cell_area.x1 = cell_area.x2 - table->col_w[col] + 1;
 1316              		.loc 1 648 30 view .LVU441
 1317 014c ADF86021 		strh	r2, [sp, #352]	@ movhi
 649:Middlewares/lvgl/src/widgets/lv_table.c ****             }
 1318              		.loc 1 649 17 is_stmt 1 view .LVU442
 649:Middlewares/lvgl/src/widgets/lv_table.c ****             }
 1319              		.loc 1 649 52 is_stmt 0 view .LVU443
 1320 0150 3A6B     		ldr	r2, [r7, #48]
 649:Middlewares/lvgl/src/widgets/lv_table.c ****             }
 1321              		.loc 1 649 59 view .LVU444
 1322 0152 32F81520 		ldrh	r2, [r2, r5, lsl #1]
 649:Middlewares/lvgl/src/widgets/lv_table.c ****             }
 1323              		.loc 1 649 45 view .LVU445
 1324 0156 9B1A     		subs	r3, r3, r2
 1325 0158 9BB2     		uxth	r3, r3
 649:Middlewares/lvgl/src/widgets/lv_table.c ****             }
 1326              		.loc 1 649 65 view .LVU446
 1327 015a 0133     		adds	r3, r3, #1
 649:Middlewares/lvgl/src/widgets/lv_table.c ****             }
 1328              		.loc 1 649 30 view .LVU447
ARM GAS  /tmp/ccTYGLnU.s 			page 54


 1329 015c ADF85C31 		strh	r3, [sp, #348]	@ movhi
 1330 0160 3BE1     		b	.L40
 1331              	.LVL147:
 1332              	.L69:
 1333              	.LBB143:
 662:Middlewares/lvgl/src/widgets/lv_table.c ****                         else cell_area.x2 += table->col_w[col + col_merge + 1];
 1334              		.loc 1 662 33 is_stmt 1 discriminator 1 view .LVU448
 662:Middlewares/lvgl/src/widgets/lv_table.c ****                         else cell_area.x2 += table->col_w[col + col_merge + 1];
 1335              		.loc 1 662 54 is_stmt 0 discriminator 1 view .LVU449
 1336 0162 3A6B     		ldr	r2, [r7, #48]
 1337              	.LVL148:
 662:Middlewares/lvgl/src/widgets/lv_table.c ****                         else cell_area.x2 += table->col_w[col + col_merge + 1];
 1338              		.loc 1 662 61 discriminator 1 view .LVU450
 1339 0164 0133     		adds	r3, r3, #1
 1340 0166 32F81320 		ldrh	r2, [r2, r3, lsl #1]
 662:Middlewares/lvgl/src/widgets/lv_table.c ****                         else cell_area.x2 += table->col_w[col + col_merge + 1];
 1341              		.loc 1 662 46 discriminator 1 view .LVU451
 1342 016a BDF85C31 		ldrh	r3, [sp, #348]
 1343 016e 9B1A     		subs	r3, r3, r2
 1344 0170 ADF85C31 		strh	r3, [sp, #348]	@ movhi
 1345              	.LVL149:
 1346              	.L43:
 662:Middlewares/lvgl/src/widgets/lv_table.c ****                         else cell_area.x2 += table->col_w[col + col_merge + 1];
 1347              		.loc 1 662 46 discriminator 1 view .LVU452
 1348              	.LBE143:
 657:Middlewares/lvgl/src/widgets/lv_table.c ****                 if(table->cell_data[cell + col_merge]) {
 1349              		.loc 1 657 70 is_stmt 1 discriminator 2 view .LVU453
 657:Middlewares/lvgl/src/widgets/lv_table.c ****                 if(table->cell_data[cell + col_merge]) {
 1350              		.loc 1 657 79 is_stmt 0 discriminator 2 view .LVU454
 1351 0174 0134     		adds	r4, r4, #1
 1352              	.LVL150:
 657:Middlewares/lvgl/src/widgets/lv_table.c ****                 if(table->cell_data[cell + col_merge]) {
 1353              		.loc 1 657 79 discriminator 2 view .LVU455
 1354 0176 A4B2     		uxth	r4, r4
 1355              	.LVL151:
 1356              	.L44:
 657:Middlewares/lvgl/src/widgets/lv_table.c ****                 if(table->cell_data[cell + col_merge]) {
 1357              		.loc 1 657 32 is_stmt 1 discriminator 1 view .LVU456
 657:Middlewares/lvgl/src/widgets/lv_table.c ****                 if(table->cell_data[cell + col_merge]) {
 1358              		.loc 1 657 42 is_stmt 0 discriminator 1 view .LVU457
 1359 0178 0495     		str	r5, [sp, #16]
 1360 017a 6319     		adds	r3, r4, r5
 657:Middlewares/lvgl/src/widgets/lv_table.c ****                 if(table->cell_data[cell + col_merge]) {
 1361              		.loc 1 657 65 discriminator 1 view .LVU458
 1362 017c 4A1E     		subs	r2, r1, #1
 657:Middlewares/lvgl/src/widgets/lv_table.c ****                 if(table->cell_data[cell + col_merge]) {
 1363              		.loc 1 657 13 discriminator 1 view .LVU459
 1364 017e 9342     		cmp	r3, r2
 1365 0180 15DA     		bge	.L41
 658:Middlewares/lvgl/src/widgets/lv_table.c ****                     char * next_cell_data = table->cell_data[cell + col_merge];
 1366              		.loc 1 658 17 is_stmt 1 view .LVU460
 658:Middlewares/lvgl/src/widgets/lv_table.c ****                     char * next_cell_data = table->cell_data[cell + col_merge];
 1367              		.loc 1 658 42 is_stmt 0 view .LVU461
 1368 0182 0AEB0402 		add	r2, r10, r4
 658:Middlewares/lvgl/src/widgets/lv_table.c ****                     char * next_cell_data = table->cell_data[cell + col_merge];
 1369              		.loc 1 658 36 view .LVU462
 1370 0186 50F82220 		ldr	r2, [r0, r2, lsl #2]
ARM GAS  /tmp/ccTYGLnU.s 			page 55


 658:Middlewares/lvgl/src/widgets/lv_table.c ****                     char * next_cell_data = table->cell_data[cell + col_merge];
 1371              		.loc 1 658 19 view .LVU463
 1372 018a 82B1     		cbz	r2, .L41
 1373              	.LBB144:
 659:Middlewares/lvgl/src/widgets/lv_table.c ****                     if(next_cell_data) ctrl = next_cell_data[0];
 1374              		.loc 1 659 21 is_stmt 1 discriminator 1 view .LVU464
 1375              	.LVL152:
 660:Middlewares/lvgl/src/widgets/lv_table.c ****                     if(ctrl & LV_TABLE_CELL_CTRL_MERGE_RIGHT)
 1376              		.loc 1 660 21 discriminator 1 view .LVU465
 660:Middlewares/lvgl/src/widgets/lv_table.c ****                     if(ctrl & LV_TABLE_CELL_CTRL_MERGE_RIGHT)
 1377              		.loc 1 660 40 discriminator 1 view .LVU466
 660:Middlewares/lvgl/src/widgets/lv_table.c ****                     if(ctrl & LV_TABLE_CELL_CTRL_MERGE_RIGHT)
 1378              		.loc 1 660 45 is_stmt 0 discriminator 1 view .LVU467
 1379 018c 1678     		ldrb	r6, [r2]	@ zero_extendqisi2
 1380              	.LVL153:
 661:Middlewares/lvgl/src/widgets/lv_table.c ****                         if(rtl) cell_area.x1 -= table->col_w[col + col_merge + 1];
 1381              		.loc 1 661 21 is_stmt 1 discriminator 1 view .LVU468
 661:Middlewares/lvgl/src/widgets/lv_table.c ****                         if(rtl) cell_area.x1 -= table->col_w[col + col_merge + 1];
 1382              		.loc 1 661 23 is_stmt 0 discriminator 1 view .LVU469
 1383 018e 16F0010F 		tst	r6, #1
 1384 0192 0CD0     		beq	.L41
 662:Middlewares/lvgl/src/widgets/lv_table.c ****                         else cell_area.x2 += table->col_w[col + col_merge + 1];
 1385              		.loc 1 662 25 is_stmt 1 view .LVU470
 662:Middlewares/lvgl/src/widgets/lv_table.c ****                         else cell_area.x2 += table->col_w[col + col_merge + 1];
 1386              		.loc 1 662 27 is_stmt 0 view .LVU471
 1387 0194 BBF1010F 		cmp	fp, #1
 1388 0198 E3D0     		beq	.L69
 663:Middlewares/lvgl/src/widgets/lv_table.c ****                     else {
 1389              		.loc 1 663 30 is_stmt 1 view .LVU472
 663:Middlewares/lvgl/src/widgets/lv_table.c ****                     else {
 1390              		.loc 1 663 51 is_stmt 0 view .LVU473
 1391 019a 3A6B     		ldr	r2, [r7, #48]
 1392              	.LVL154:
 663:Middlewares/lvgl/src/widgets/lv_table.c ****                     else {
 1393              		.loc 1 663 58 view .LVU474
 1394 019c 0133     		adds	r3, r3, #1
 1395 019e 32F81330 		ldrh	r3, [r2, r3, lsl #1]
 663:Middlewares/lvgl/src/widgets/lv_table.c ****                     else {
 1396              		.loc 1 663 43 view .LVU475
 1397 01a2 BDF86021 		ldrh	r2, [sp, #352]
 1398 01a6 1344     		add	r3, r3, r2
 1399 01a8 ADF86031 		strh	r3, [sp, #352]	@ movhi
 1400              	.LVL155:
 663:Middlewares/lvgl/src/widgets/lv_table.c ****                     else {
 1401              		.loc 1 663 43 view .LVU476
 1402 01ac E2E7     		b	.L43
 1403              	.L41:
 663:Middlewares/lvgl/src/widgets/lv_table.c ****                     else {
 1404              		.loc 1 663 43 view .LVU477
 1405              	.LBE144:
 673:Middlewares/lvgl/src/widgets/lv_table.c ****                 cell += col_merge + 1;
 1406              		.loc 1 673 13 is_stmt 1 view .LVU478
 673:Middlewares/lvgl/src/widgets/lv_table.c ****                 cell += col_merge + 1;
 1407              		.loc 1 673 25 is_stmt 0 view .LVU479
 1408 01ae BDF96231 		ldrsh	r3, [sp, #354]
 673:Middlewares/lvgl/src/widgets/lv_table.c ****                 cell += col_merge + 1;
 1409              		.loc 1 673 40 view .LVU480
ARM GAS  /tmp/ccTYGLnU.s 			page 56


 1410 01b2 059A     		ldr	r2, [sp, #20]
 1411 01b4 B2F90220 		ldrsh	r2, [r2, #2]
 673:Middlewares/lvgl/src/widgets/lv_table.c ****                 cell += col_merge + 1;
 1412              		.loc 1 673 15 view .LVU481
 1413 01b8 9342     		cmp	r3, r2
 1414 01ba C0F21081 		blt	.L70
 680:Middlewares/lvgl/src/widgets/lv_table.c ****             lv_area_copy(&cell_area_border, &cell_area);
 1415              		.loc 1 680 13 is_stmt 1 view .LVU482
 681:Middlewares/lvgl/src/widgets/lv_table.c ****             if((rect_dsc_def.border_side & LV_BORDER_SIDE_LEFT) && cell_area_border.x1 > obj->coord
 1416              		.loc 1 681 13 view .LVU483
 1417              	.LVL156:
 1418              	.LBB145:
 1419              	.LBI145:
 1420              		.file 4 "Middlewares/lvgl/src/widgets/../core/../misc/../font/../misc/lv_area.h"
   1:Middlewares/lvgl/src/widgets/../core/../misc/../font/../misc/lv_area.h **** /**
   2:Middlewares/lvgl/src/widgets/../core/../misc/../font/../misc/lv_area.h ****  * @file lv_area.h
   3:Middlewares/lvgl/src/widgets/../core/../misc/../font/../misc/lv_area.h ****  *
   4:Middlewares/lvgl/src/widgets/../core/../misc/../font/../misc/lv_area.h ****  */
   5:Middlewares/lvgl/src/widgets/../core/../misc/../font/../misc/lv_area.h **** 
   6:Middlewares/lvgl/src/widgets/../core/../misc/../font/../misc/lv_area.h **** #ifndef LV_AREA_H
   7:Middlewares/lvgl/src/widgets/../core/../misc/../font/../misc/lv_area.h **** #define LV_AREA_H
   8:Middlewares/lvgl/src/widgets/../core/../misc/../font/../misc/lv_area.h **** 
   9:Middlewares/lvgl/src/widgets/../core/../misc/../font/../misc/lv_area.h **** #ifdef __cplusplus
  10:Middlewares/lvgl/src/widgets/../core/../misc/../font/../misc/lv_area.h **** extern "C" {
  11:Middlewares/lvgl/src/widgets/../core/../misc/../font/../misc/lv_area.h **** #endif
  12:Middlewares/lvgl/src/widgets/../core/../misc/../font/../misc/lv_area.h **** 
  13:Middlewares/lvgl/src/widgets/../core/../misc/../font/../misc/lv_area.h **** /*********************
  14:Middlewares/lvgl/src/widgets/../core/../misc/../font/../misc/lv_area.h ****  *      INCLUDES
  15:Middlewares/lvgl/src/widgets/../core/../misc/../font/../misc/lv_area.h ****  *********************/
  16:Middlewares/lvgl/src/widgets/../core/../misc/../font/../misc/lv_area.h **** #include "../lv_conf_internal.h"
  17:Middlewares/lvgl/src/widgets/../core/../misc/../font/../misc/lv_area.h **** #include <string.h>
  18:Middlewares/lvgl/src/widgets/../core/../misc/../font/../misc/lv_area.h **** #include <stdbool.h>
  19:Middlewares/lvgl/src/widgets/../core/../misc/../font/../misc/lv_area.h **** #include <stdint.h>
  20:Middlewares/lvgl/src/widgets/../core/../misc/../font/../misc/lv_area.h **** 
  21:Middlewares/lvgl/src/widgets/../core/../misc/../font/../misc/lv_area.h **** /*********************
  22:Middlewares/lvgl/src/widgets/../core/../misc/../font/../misc/lv_area.h ****  *      DEFINES
  23:Middlewares/lvgl/src/widgets/../core/../misc/../font/../misc/lv_area.h ****  *********************/
  24:Middlewares/lvgl/src/widgets/../core/../misc/../font/../misc/lv_area.h **** 
  25:Middlewares/lvgl/src/widgets/../core/../misc/../font/../misc/lv_area.h **** #define _LV_COORD_MAX_REDUCE    8192
  26:Middlewares/lvgl/src/widgets/../core/../misc/../font/../misc/lv_area.h **** 
  27:Middlewares/lvgl/src/widgets/../core/../misc/../font/../misc/lv_area.h **** #if LV_USE_LARGE_COORD
  28:Middlewares/lvgl/src/widgets/../core/../misc/../font/../misc/lv_area.h **** typedef int32_t lv_coord_t;
  29:Middlewares/lvgl/src/widgets/../core/../misc/../font/../misc/lv_area.h **** #else
  30:Middlewares/lvgl/src/widgets/../core/../misc/../font/../misc/lv_area.h **** typedef int16_t lv_coord_t;
  31:Middlewares/lvgl/src/widgets/../core/../misc/../font/../misc/lv_area.h **** #endif
  32:Middlewares/lvgl/src/widgets/../core/../misc/../font/../misc/lv_area.h **** 
  33:Middlewares/lvgl/src/widgets/../core/../misc/../font/../misc/lv_area.h **** /*To allow some special values in the end reduce the max value*/
  34:Middlewares/lvgl/src/widgets/../core/../misc/../font/../misc/lv_area.h **** #define LV_COORD_MAX ((lv_coord_t)((uint32_t)((uint32_t)1 << (8 * sizeof(lv_coord_t) - 1)) - _LV_CO
  35:Middlewares/lvgl/src/widgets/../core/../misc/../font/../misc/lv_area.h **** #define LV_COORD_MIN (-LV_COORD_MAX)
  36:Middlewares/lvgl/src/widgets/../core/../misc/../font/../misc/lv_area.h **** 
  37:Middlewares/lvgl/src/widgets/../core/../misc/../font/../misc/lv_area.h **** LV_EXPORT_CONST_INT(LV_COORD_MAX);
  38:Middlewares/lvgl/src/widgets/../core/../misc/../font/../misc/lv_area.h **** LV_EXPORT_CONST_INT(LV_COORD_MIN);
  39:Middlewares/lvgl/src/widgets/../core/../misc/../font/../misc/lv_area.h **** 
  40:Middlewares/lvgl/src/widgets/../core/../misc/../font/../misc/lv_area.h **** /**********************
  41:Middlewares/lvgl/src/widgets/../core/../misc/../font/../misc/lv_area.h ****  *      TYPEDEFS
  42:Middlewares/lvgl/src/widgets/../core/../misc/../font/../misc/lv_area.h ****  **********************/
  43:Middlewares/lvgl/src/widgets/../core/../misc/../font/../misc/lv_area.h **** 
ARM GAS  /tmp/ccTYGLnU.s 			page 57


  44:Middlewares/lvgl/src/widgets/../core/../misc/../font/../misc/lv_area.h **** /**
  45:Middlewares/lvgl/src/widgets/../core/../misc/../font/../misc/lv_area.h ****  * Represents a point on the screen.
  46:Middlewares/lvgl/src/widgets/../core/../misc/../font/../misc/lv_area.h ****  */
  47:Middlewares/lvgl/src/widgets/../core/../misc/../font/../misc/lv_area.h **** typedef struct {
  48:Middlewares/lvgl/src/widgets/../core/../misc/../font/../misc/lv_area.h ****     lv_coord_t x;
  49:Middlewares/lvgl/src/widgets/../core/../misc/../font/../misc/lv_area.h ****     lv_coord_t y;
  50:Middlewares/lvgl/src/widgets/../core/../misc/../font/../misc/lv_area.h **** } lv_point_t;
  51:Middlewares/lvgl/src/widgets/../core/../misc/../font/../misc/lv_area.h **** 
  52:Middlewares/lvgl/src/widgets/../core/../misc/../font/../misc/lv_area.h **** /** Represents an area of the screen.*/
  53:Middlewares/lvgl/src/widgets/../core/../misc/../font/../misc/lv_area.h **** typedef struct {
  54:Middlewares/lvgl/src/widgets/../core/../misc/../font/../misc/lv_area.h ****     lv_coord_t x1;
  55:Middlewares/lvgl/src/widgets/../core/../misc/../font/../misc/lv_area.h ****     lv_coord_t y1;
  56:Middlewares/lvgl/src/widgets/../core/../misc/../font/../misc/lv_area.h ****     lv_coord_t x2;
  57:Middlewares/lvgl/src/widgets/../core/../misc/../font/../misc/lv_area.h ****     lv_coord_t y2;
  58:Middlewares/lvgl/src/widgets/../core/../misc/../font/../misc/lv_area.h **** } lv_area_t;
  59:Middlewares/lvgl/src/widgets/../core/../misc/../font/../misc/lv_area.h **** 
  60:Middlewares/lvgl/src/widgets/../core/../misc/../font/../misc/lv_area.h **** /** Alignments*/
  61:Middlewares/lvgl/src/widgets/../core/../misc/../font/../misc/lv_area.h **** enum {
  62:Middlewares/lvgl/src/widgets/../core/../misc/../font/../misc/lv_area.h ****     LV_ALIGN_DEFAULT = 0,
  63:Middlewares/lvgl/src/widgets/../core/../misc/../font/../misc/lv_area.h ****     LV_ALIGN_TOP_LEFT,
  64:Middlewares/lvgl/src/widgets/../core/../misc/../font/../misc/lv_area.h ****     LV_ALIGN_TOP_MID,
  65:Middlewares/lvgl/src/widgets/../core/../misc/../font/../misc/lv_area.h ****     LV_ALIGN_TOP_RIGHT,
  66:Middlewares/lvgl/src/widgets/../core/../misc/../font/../misc/lv_area.h ****     LV_ALIGN_BOTTOM_LEFT,
  67:Middlewares/lvgl/src/widgets/../core/../misc/../font/../misc/lv_area.h ****     LV_ALIGN_BOTTOM_MID,
  68:Middlewares/lvgl/src/widgets/../core/../misc/../font/../misc/lv_area.h ****     LV_ALIGN_BOTTOM_RIGHT,
  69:Middlewares/lvgl/src/widgets/../core/../misc/../font/../misc/lv_area.h ****     LV_ALIGN_LEFT_MID,
  70:Middlewares/lvgl/src/widgets/../core/../misc/../font/../misc/lv_area.h ****     LV_ALIGN_RIGHT_MID,
  71:Middlewares/lvgl/src/widgets/../core/../misc/../font/../misc/lv_area.h ****     LV_ALIGN_CENTER,
  72:Middlewares/lvgl/src/widgets/../core/../misc/../font/../misc/lv_area.h **** 
  73:Middlewares/lvgl/src/widgets/../core/../misc/../font/../misc/lv_area.h ****     LV_ALIGN_OUT_TOP_LEFT,
  74:Middlewares/lvgl/src/widgets/../core/../misc/../font/../misc/lv_area.h ****     LV_ALIGN_OUT_TOP_MID,
  75:Middlewares/lvgl/src/widgets/../core/../misc/../font/../misc/lv_area.h ****     LV_ALIGN_OUT_TOP_RIGHT,
  76:Middlewares/lvgl/src/widgets/../core/../misc/../font/../misc/lv_area.h ****     LV_ALIGN_OUT_BOTTOM_LEFT,
  77:Middlewares/lvgl/src/widgets/../core/../misc/../font/../misc/lv_area.h ****     LV_ALIGN_OUT_BOTTOM_MID,
  78:Middlewares/lvgl/src/widgets/../core/../misc/../font/../misc/lv_area.h ****     LV_ALIGN_OUT_BOTTOM_RIGHT,
  79:Middlewares/lvgl/src/widgets/../core/../misc/../font/../misc/lv_area.h ****     LV_ALIGN_OUT_LEFT_TOP,
  80:Middlewares/lvgl/src/widgets/../core/../misc/../font/../misc/lv_area.h ****     LV_ALIGN_OUT_LEFT_MID,
  81:Middlewares/lvgl/src/widgets/../core/../misc/../font/../misc/lv_area.h ****     LV_ALIGN_OUT_LEFT_BOTTOM,
  82:Middlewares/lvgl/src/widgets/../core/../misc/../font/../misc/lv_area.h ****     LV_ALIGN_OUT_RIGHT_TOP,
  83:Middlewares/lvgl/src/widgets/../core/../misc/../font/../misc/lv_area.h ****     LV_ALIGN_OUT_RIGHT_MID,
  84:Middlewares/lvgl/src/widgets/../core/../misc/../font/../misc/lv_area.h ****     LV_ALIGN_OUT_RIGHT_BOTTOM,
  85:Middlewares/lvgl/src/widgets/../core/../misc/../font/../misc/lv_area.h **** };
  86:Middlewares/lvgl/src/widgets/../core/../misc/../font/../misc/lv_area.h **** typedef uint8_t lv_align_t;
  87:Middlewares/lvgl/src/widgets/../core/../misc/../font/../misc/lv_area.h **** 
  88:Middlewares/lvgl/src/widgets/../core/../misc/../font/../misc/lv_area.h **** enum {
  89:Middlewares/lvgl/src/widgets/../core/../misc/../font/../misc/lv_area.h ****     LV_DIR_NONE     = 0x00,
  90:Middlewares/lvgl/src/widgets/../core/../misc/../font/../misc/lv_area.h ****     LV_DIR_LEFT     = (1 << 0),
  91:Middlewares/lvgl/src/widgets/../core/../misc/../font/../misc/lv_area.h ****     LV_DIR_RIGHT    = (1 << 1),
  92:Middlewares/lvgl/src/widgets/../core/../misc/../font/../misc/lv_area.h ****     LV_DIR_TOP      = (1 << 2),
  93:Middlewares/lvgl/src/widgets/../core/../misc/../font/../misc/lv_area.h ****     LV_DIR_BOTTOM   = (1 << 3),
  94:Middlewares/lvgl/src/widgets/../core/../misc/../font/../misc/lv_area.h ****     LV_DIR_HOR      = LV_DIR_LEFT | LV_DIR_RIGHT,
  95:Middlewares/lvgl/src/widgets/../core/../misc/../font/../misc/lv_area.h ****     LV_DIR_VER      = LV_DIR_TOP | LV_DIR_BOTTOM,
  96:Middlewares/lvgl/src/widgets/../core/../misc/../font/../misc/lv_area.h ****     LV_DIR_ALL      = LV_DIR_HOR | LV_DIR_VER,
  97:Middlewares/lvgl/src/widgets/../core/../misc/../font/../misc/lv_area.h **** };
  98:Middlewares/lvgl/src/widgets/../core/../misc/../font/../misc/lv_area.h **** 
  99:Middlewares/lvgl/src/widgets/../core/../misc/../font/../misc/lv_area.h **** typedef uint8_t lv_dir_t;
 100:Middlewares/lvgl/src/widgets/../core/../misc/../font/../misc/lv_area.h **** 
ARM GAS  /tmp/ccTYGLnU.s 			page 58


 101:Middlewares/lvgl/src/widgets/../core/../misc/../font/../misc/lv_area.h **** /**********************
 102:Middlewares/lvgl/src/widgets/../core/../misc/../font/../misc/lv_area.h ****  * GLOBAL PROTOTYPES
 103:Middlewares/lvgl/src/widgets/../core/../misc/../font/../misc/lv_area.h ****  **********************/
 104:Middlewares/lvgl/src/widgets/../core/../misc/../font/../misc/lv_area.h **** 
 105:Middlewares/lvgl/src/widgets/../core/../misc/../font/../misc/lv_area.h **** /**
 106:Middlewares/lvgl/src/widgets/../core/../misc/../font/../misc/lv_area.h ****  * Initialize an area
 107:Middlewares/lvgl/src/widgets/../core/../misc/../font/../misc/lv_area.h ****  * @param area_p pointer to an area
 108:Middlewares/lvgl/src/widgets/../core/../misc/../font/../misc/lv_area.h ****  * @param x1 left coordinate of the area
 109:Middlewares/lvgl/src/widgets/../core/../misc/../font/../misc/lv_area.h ****  * @param y1 top coordinate of the area
 110:Middlewares/lvgl/src/widgets/../core/../misc/../font/../misc/lv_area.h ****  * @param x2 right coordinate of the area
 111:Middlewares/lvgl/src/widgets/../core/../misc/../font/../misc/lv_area.h ****  * @param y2 bottom coordinate of the area
 112:Middlewares/lvgl/src/widgets/../core/../misc/../font/../misc/lv_area.h ****  */
 113:Middlewares/lvgl/src/widgets/../core/../misc/../font/../misc/lv_area.h **** void lv_area_set(lv_area_t * area_p, lv_coord_t x1, lv_coord_t y1, lv_coord_t x2, lv_coord_t y2);
 114:Middlewares/lvgl/src/widgets/../core/../misc/../font/../misc/lv_area.h **** 
 115:Middlewares/lvgl/src/widgets/../core/../misc/../font/../misc/lv_area.h **** /**
 116:Middlewares/lvgl/src/widgets/../core/../misc/../font/../misc/lv_area.h ****  * Copy an area
 117:Middlewares/lvgl/src/widgets/../core/../misc/../font/../misc/lv_area.h ****  * @param dest pointer to the destination area
 118:Middlewares/lvgl/src/widgets/../core/../misc/../font/../misc/lv_area.h ****  * @param src pointer to the source area
 119:Middlewares/lvgl/src/widgets/../core/../misc/../font/../misc/lv_area.h ****  */
 120:Middlewares/lvgl/src/widgets/../core/../misc/../font/../misc/lv_area.h **** inline static void lv_area_copy(lv_area_t * dest, const lv_area_t * src)
 1421              		.loc 4 120 20 view .LVU484
 1422              	.LBB146:
 121:Middlewares/lvgl/src/widgets/../core/../misc/../font/../misc/lv_area.h **** {
 122:Middlewares/lvgl/src/widgets/../core/../misc/../font/../misc/lv_area.h ****     dest->x1 = src->x1;
 1423              		.loc 4 122 5 view .LVU485
 1424              		.loc 4 122 19 is_stmt 0 view .LVU486
 1425 01be BDF95C01 		ldrsh	r0, [sp, #348]
 1426              		.loc 4 122 14 view .LVU487
 1427 01c2 ADF85400 		strh	r0, [sp, #84]	@ movhi
 123:Middlewares/lvgl/src/widgets/../core/../misc/../font/../misc/lv_area.h ****     dest->y1 = src->y1;
 1428              		.loc 4 123 5 is_stmt 1 view .LVU488
 1429              		.loc 4 123 19 is_stmt 0 view .LVU489
 1430 01c6 BDF95E11 		ldrsh	r1, [sp, #350]
 1431              		.loc 4 123 14 view .LVU490
 1432 01ca ADF85610 		strh	r1, [sp, #86]	@ movhi
 124:Middlewares/lvgl/src/widgets/../core/../misc/../font/../misc/lv_area.h ****     dest->x2 = src->x2;
 1433              		.loc 4 124 5 is_stmt 1 view .LVU491
 1434              		.loc 4 124 19 is_stmt 0 view .LVU492
 1435 01ce BDF960C1 		ldrsh	ip, [sp, #352]
 1436              		.loc 4 124 14 view .LVU493
 1437 01d2 ADF858C0 		strh	ip, [sp, #88]	@ movhi
 125:Middlewares/lvgl/src/widgets/../core/../misc/../font/../misc/lv_area.h ****     dest->y2 = src->y2;
 1438              		.loc 4 125 5 is_stmt 1 view .LVU494
 1439              		.loc 4 125 14 is_stmt 0 view .LVU495
 1440 01d6 ADF85A30 		strh	r3, [sp, #90]	@ movhi
 1441              	.LVL157:
 1442              		.loc 4 125 14 view .LVU496
 1443              	.LBE146:
 1444              	.LBE145:
 682:Middlewares/lvgl/src/widgets/lv_table.c ****                 cell_area_border.x1 -= rect_dsc_def.border_width / 2;
 1445              		.loc 1 682 13 is_stmt 1 view .LVU497
 682:Middlewares/lvgl/src/widgets/lv_table.c ****                 cell_area_border.x1 -= rect_dsc_def.border_width / 2;
 1446              		.loc 1 682 29 is_stmt 0 view .LVU498
 1447 01da 9DF83FE1 		ldrb	lr, [sp, #319]	@ zero_extendqisi2
 1448 01de CEF34402 		ubfx	r2, lr, #1, #5
 682:Middlewares/lvgl/src/widgets/lv_table.c ****                 cell_area_border.x1 -= rect_dsc_def.border_width / 2;
 1449              		.loc 1 682 15 view .LVU499
ARM GAS  /tmp/ccTYGLnU.s 			page 59


 1450 01e2 1EF0080F 		tst	lr, #8
 1451 01e6 0ED0     		beq	.L48
 682:Middlewares/lvgl/src/widgets/lv_table.c ****                 cell_area_border.x1 -= rect_dsc_def.border_width / 2;
 1452              		.loc 1 682 101 discriminator 1 view .LVU500
 1453 01e8 B7F914E0 		ldrsh	lr, [r7, #20]
 682:Middlewares/lvgl/src/widgets/lv_table.c ****                 cell_area_border.x1 -= rect_dsc_def.border_width / 2;
 1454              		.loc 1 682 105 discriminator 1 view .LVU501
 1455 01ec DDF83490 		ldr	r9, [sp, #52]
 1456 01f0 CE44     		add	lr, lr, r9
 682:Middlewares/lvgl/src/widgets/lv_table.c ****                 cell_area_border.x1 -= rect_dsc_def.border_width / 2;
 1457              		.loc 1 682 65 discriminator 1 view .LVU502
 1458 01f2 7045     		cmp	r0, lr
 1459 01f4 07DD     		ble	.L48
 683:Middlewares/lvgl/src/widgets/lv_table.c ****             }
 1460              		.loc 1 683 17 is_stmt 1 view .LVU503
 683:Middlewares/lvgl/src/widgets/lv_table.c ****             }
 1461              		.loc 1 683 52 is_stmt 0 view .LVU504
 1462 01f6 BDF93CE1 		ldrsh	lr, [sp, #316]
 683:Middlewares/lvgl/src/widgets/lv_table.c ****             }
 1463              		.loc 1 683 37 view .LVU505
 1464 01fa 0EEBDE7E 		add	lr, lr, lr, lsr #31
 1465 01fe A0EB6E00 		sub	r0, r0, lr, asr #1
 1466 0202 ADF85400 		strh	r0, [sp, #84]	@ movhi
 1467              	.L48:
 685:Middlewares/lvgl/src/widgets/lv_table.c ****                 cell_area_border.y1 -= rect_dsc_def.border_width / 2;
 1468              		.loc 1 685 13 is_stmt 1 view .LVU506
 685:Middlewares/lvgl/src/widgets/lv_table.c ****                 cell_area_border.y1 -= rect_dsc_def.border_width / 2;
 1469              		.loc 1 685 15 is_stmt 0 view .LVU507
 1470 0206 12F0020F 		tst	r2, #2
 1471 020a 0ED0     		beq	.L49
 685:Middlewares/lvgl/src/widgets/lv_table.c ****                 cell_area_border.y1 -= rect_dsc_def.border_width / 2;
 1472              		.loc 1 685 100 discriminator 1 view .LVU508
 1473 020c B7F91600 		ldrsh	r0, [r7, #22]
 685:Middlewares/lvgl/src/widgets/lv_table.c ****                 cell_area_border.y1 -= rect_dsc_def.border_width / 2;
 1474              		.loc 1 685 104 discriminator 1 view .LVU509
 1475 0210 DDF83CE0 		ldr	lr, [sp, #60]
 1476 0214 7044     		add	r0, r0, lr
 685:Middlewares/lvgl/src/widgets/lv_table.c ****                 cell_area_border.y1 -= rect_dsc_def.border_width / 2;
 1477              		.loc 1 685 64 discriminator 1 view .LVU510
 1478 0216 8142     		cmp	r1, r0
 1479 0218 07DD     		ble	.L49
 686:Middlewares/lvgl/src/widgets/lv_table.c ****             }
 1480              		.loc 1 686 17 is_stmt 1 view .LVU511
 686:Middlewares/lvgl/src/widgets/lv_table.c ****             }
 1481              		.loc 1 686 52 is_stmt 0 view .LVU512
 1482 021a BDF93C01 		ldrsh	r0, [sp, #316]
 686:Middlewares/lvgl/src/widgets/lv_table.c ****             }
 1483              		.loc 1 686 37 view .LVU513
 1484 021e 00EBD070 		add	r0, r0, r0, lsr #31
 1485 0222 A1EB6001 		sub	r1, r1, r0, asr #1
 1486 0226 ADF85610 		strh	r1, [sp, #86]	@ movhi
 1487              	.L49:
 688:Middlewares/lvgl/src/widgets/lv_table.c ****                 cell_area_border.x2 += rect_dsc_def.border_width / 2 + (rect_dsc_def.border_width &
 1488              		.loc 1 688 13 is_stmt 1 view .LVU514
 688:Middlewares/lvgl/src/widgets/lv_table.c ****                 cell_area_border.x2 += rect_dsc_def.border_width / 2 + (rect_dsc_def.border_width &
 1489              		.loc 1 688 15 is_stmt 0 view .LVU515
 1490 022a 12F0080F 		tst	r2, #8
ARM GAS  /tmp/ccTYGLnU.s 			page 60


 1491 022e 12D0     		beq	.L50
 688:Middlewares/lvgl/src/widgets/lv_table.c ****                 cell_area_border.x2 += rect_dsc_def.border_width / 2 + (rect_dsc_def.border_width &
 1492              		.loc 1 688 102 discriminator 1 view .LVU516
 1493 0230 B7F91810 		ldrsh	r1, [r7, #24]
 688:Middlewares/lvgl/src/widgets/lv_table.c ****                 cell_area_border.x2 += rect_dsc_def.border_width / 2 + (rect_dsc_def.border_width &
 1494              		.loc 1 688 106 discriminator 1 view .LVU517
 1495 0234 0C98     		ldr	r0, [sp, #48]
 1496 0236 091A     		subs	r1, r1, r0
 688:Middlewares/lvgl/src/widgets/lv_table.c ****                 cell_area_border.x2 += rect_dsc_def.border_width / 2 + (rect_dsc_def.border_width &
 1497              		.loc 1 688 117 discriminator 1 view .LVU518
 1498 0238 0139     		subs	r1, r1, #1
 688:Middlewares/lvgl/src/widgets/lv_table.c ****                 cell_area_border.x2 += rect_dsc_def.border_width / 2 + (rect_dsc_def.border_width &
 1499              		.loc 1 688 66 discriminator 1 view .LVU519
 1500 023a 8C45     		cmp	ip, r1
 1501 023c 0BDA     		bge	.L50
 689:Middlewares/lvgl/src/widgets/lv_table.c ****             }
 1502              		.loc 1 689 17 is_stmt 1 view .LVU520
 689:Middlewares/lvgl/src/widgets/lv_table.c ****             }
 1503              		.loc 1 689 52 is_stmt 0 view .LVU521
 1504 023e BDF93C01 		ldrsh	r0, [sp, #316]
 689:Middlewares/lvgl/src/widgets/lv_table.c ****             }
 1505              		.loc 1 689 99 view .LVU522
 1506 0242 00F00101 		and	r1, r0, #1
 689:Middlewares/lvgl/src/widgets/lv_table.c ****             }
 1507              		.loc 1 689 70 view .LVU523
 1508 0246 00EBD070 		add	r0, r0, r0, lsr #31
 1509 024a 01EB6001 		add	r1, r1, r0, asr #1
 1510 024e 89B2     		uxth	r1, r1
 689:Middlewares/lvgl/src/widgets/lv_table.c ****             }
 1511              		.loc 1 689 37 view .LVU524
 1512 0250 8C44     		add	ip, ip, r1
 1513 0252 ADF858C0 		strh	ip, [sp, #88]	@ movhi
 1514              	.L50:
 691:Middlewares/lvgl/src/widgets/lv_table.c ****                     cell_area_border.y2 < obj->coords.y2 - bg_bottom - 1) {
 1515              		.loc 1 691 13 is_stmt 1 view .LVU525
 691:Middlewares/lvgl/src/widgets/lv_table.c ****                     cell_area_border.y2 < obj->coords.y2 - bg_bottom - 1) {
 1516              		.loc 1 691 15 is_stmt 0 view .LVU526
 1517 0256 12F0010F 		tst	r2, #1
 1518 025a 12D0     		beq	.L51
 692:Middlewares/lvgl/src/widgets/lv_table.c ****                 cell_area_border.y2 += rect_dsc_def.border_width / 2 + (rect_dsc_def.border_width &
 1519              		.loc 1 692 54 discriminator 1 view .LVU527
 1520 025c B7F91A20 		ldrsh	r2, [r7, #26]
 692:Middlewares/lvgl/src/widgets/lv_table.c ****                 cell_area_border.y2 += rect_dsc_def.border_width / 2 + (rect_dsc_def.border_width &
 1521              		.loc 1 692 58 discriminator 1 view .LVU528
 1522 0260 0E99     		ldr	r1, [sp, #56]
 1523 0262 521A     		subs	r2, r2, r1
 692:Middlewares/lvgl/src/widgets/lv_table.c ****                 cell_area_border.y2 += rect_dsc_def.border_width / 2 + (rect_dsc_def.border_width &
 1524              		.loc 1 692 70 discriminator 1 view .LVU529
 1525 0264 013A     		subs	r2, r2, #1
 691:Middlewares/lvgl/src/widgets/lv_table.c ****                     cell_area_border.y2 < obj->coords.y2 - bg_bottom - 1) {
 1526              		.loc 1 691 67 discriminator 1 view .LVU530
 1527 0266 9342     		cmp	r3, r2
 1528 0268 0BDA     		bge	.L51
 693:Middlewares/lvgl/src/widgets/lv_table.c ****             }
 1529              		.loc 1 693 17 is_stmt 1 view .LVU531
 693:Middlewares/lvgl/src/widgets/lv_table.c ****             }
 1530              		.loc 1 693 52 is_stmt 0 view .LVU532
ARM GAS  /tmp/ccTYGLnU.s 			page 61


 1531 026a BDF93C11 		ldrsh	r1, [sp, #316]
 693:Middlewares/lvgl/src/widgets/lv_table.c ****             }
 1532              		.loc 1 693 99 view .LVU533
 1533 026e 01F00102 		and	r2, r1, #1
 693:Middlewares/lvgl/src/widgets/lv_table.c ****             }
 1534              		.loc 1 693 70 view .LVU534
 1535 0272 01EBD171 		add	r1, r1, r1, lsr #31
 1536 0276 02EB6102 		add	r2, r2, r1, asr #1
 1537 027a 92B2     		uxth	r2, r2
 693:Middlewares/lvgl/src/widgets/lv_table.c ****             }
 1538              		.loc 1 693 37 view .LVU535
 1539 027c 1344     		add	r3, r3, r2
 1540 027e ADF85A30 		strh	r3, [sp, #90]	@ movhi
 1541              	.L51:
 696:Middlewares/lvgl/src/widgets/lv_table.c ****             if(row == table->row_act && col == table->col_act) {
 1542              		.loc 1 696 13 is_stmt 1 view .LVU536
 1543              	.LVL158:
 697:Middlewares/lvgl/src/widgets/lv_table.c ****                 if(!(obj->state & LV_STATE_SCROLLED) && (obj->state & LV_STATE_PRESSED)) cell_state
 1544              		.loc 1 697 13 view .LVU537
 697:Middlewares/lvgl/src/widgets/lv_table.c ****                 if(!(obj->state & LV_STATE_SCROLLED) && (obj->state & LV_STATE_PRESSED)) cell_state
 1545              		.loc 1 697 28 is_stmt 0 view .LVU538
 1546 0282 FB8E     		ldrh	r3, [r7, #54]
 697:Middlewares/lvgl/src/widgets/lv_table.c ****                 if(!(obj->state & LV_STATE_SCROLLED) && (obj->state & LV_STATE_PRESSED)) cell_state
 1547              		.loc 1 697 15 view .LVU539
 1548 0284 069A     		ldr	r2, [sp, #24]
 1549 0286 9342     		cmp	r3, r2
 1550 0288 03D1     		bne	.L52
 697:Middlewares/lvgl/src/widgets/lv_table.c ****                 if(!(obj->state & LV_STATE_SCROLLED) && (obj->state & LV_STATE_PRESSED)) cell_state
 1551              		.loc 1 697 53 discriminator 1 view .LVU540
 1552 028a BB8E     		ldrh	r3, [r7, #52]
 697:Middlewares/lvgl/src/widgets/lv_table.c ****                 if(!(obj->state & LV_STATE_SCROLLED) && (obj->state & LV_STATE_PRESSED)) cell_state
 1553              		.loc 1 697 38 discriminator 1 view .LVU541
 1554 028c AB42     		cmp	r3, r5
 1555 028e 00F0B080 		beq	.L71
 1556              	.LVL159:
 1557              	.L52:
 706:Middlewares/lvgl/src/widgets/lv_table.c ****                 lv_memcpy(&label_dsc_act, &label_dsc_def, sizeof(lv_draw_label_dsc_t));
 1558              		.loc 1 706 17 is_stmt 1 view .LVU542
 1559 0292 3422     		movs	r2, #52
 1560 0294 48A9     		add	r1, sp, #288
 1561 0296 3BA8     		add	r0, sp, #236
 1562 0298 FFF7FEFF 		bl	lv_memcpy
 1563              	.LVL160:
 707:Middlewares/lvgl/src/widgets/lv_table.c ****             }
 1564              		.loc 1 707 17 view .LVU543
 1565 029c 2022     		movs	r2, #32
 1566 029e 33A9     		add	r1, sp, #204
 1567 02a0 2BA8     		add	r0, sp, #172
 1568 02a2 FFF7FEFF 		bl	lv_memcpy
 1569              	.LVL161:
 1570              	.L58:
 721:Middlewares/lvgl/src/widgets/lv_table.c ****             dsc.id = row * table->col_cnt + col;
 1571              		.loc 1 721 13 view .LVU544
 721:Middlewares/lvgl/src/widgets/lv_table.c ****             dsc.id = row * table->col_cnt + col;
 1572              		.loc 1 721 27 is_stmt 0 view .LVU545
 1573 02a6 0DF15409 		add	r9, sp, #84
 1574 02aa CDF86890 		str	r9, [sp, #104]
ARM GAS  /tmp/ccTYGLnU.s 			page 62


 722:Middlewares/lvgl/src/widgets/lv_table.c ****             lv_event_send(obj, LV_EVENT_DRAW_PART_BEGIN, &dsc);
 1575              		.loc 1 722 13 is_stmt 1 view .LVU546
 722:Middlewares/lvgl/src/widgets/lv_table.c ****             lv_event_send(obj, LV_EVENT_DRAW_PART_BEGIN, &dsc);
 1576              		.loc 1 722 33 is_stmt 0 view .LVU547
 1577 02ae BB8C     		ldrh	r3, [r7, #36]
 722:Middlewares/lvgl/src/widgets/lv_table.c ****             lv_event_send(obj, LV_EVENT_DRAW_PART_BEGIN, &dsc);
 1578              		.loc 1 722 43 view .LVU548
 1579 02b0 049A     		ldr	r2, [sp, #16]
 1580 02b2 0699     		ldr	r1, [sp, #24]
 1581 02b4 03FB0123 		mla	r3, r3, r1, r2
 722:Middlewares/lvgl/src/widgets/lv_table.c ****             lv_event_send(obj, LV_EVENT_DRAW_PART_BEGIN, &dsc);
 1582              		.loc 1 722 20 view .LVU549
 1583 02b8 2793     		str	r3, [sp, #156]
 723:Middlewares/lvgl/src/widgets/lv_table.c **** 
 1584              		.loc 1 723 13 is_stmt 1 view .LVU550
 1585 02ba 19AA     		add	r2, sp, #100
 1586 02bc 1A21     		movs	r1, #26
 1587 02be 3846     		mov	r0, r7
 1588 02c0 FFF7FEFF 		bl	lv_event_send
 1589              	.LVL162:
 725:Middlewares/lvgl/src/widgets/lv_table.c **** 
 1590              		.loc 1 725 13 view .LVU551
 1591 02c4 3BAA     		add	r2, sp, #236
 1592 02c6 0599     		ldr	r1, [sp, #20]
 1593 02c8 4846     		mov	r0, r9
 1594 02ca FFF7FEFF 		bl	lv_draw_rect
 1595              	.LVL163:
 727:Middlewares/lvgl/src/widgets/lv_table.c ****                 txt_area.x1 = cell_area.x1 + cell_left;
 1596              		.loc 1 727 13 view .LVU552
 727:Middlewares/lvgl/src/widgets/lv_table.c ****                 txt_area.x1 = cell_area.x1 + cell_left;
 1597              		.loc 1 727 21 is_stmt 0 view .LVU553
 1598 02ce B96A     		ldr	r1, [r7, #40]
 727:Middlewares/lvgl/src/widgets/lv_table.c ****                 txt_area.x1 = cell_area.x1 + cell_left;
 1599              		.loc 1 727 32 view .LVU554
 1600 02d0 51F80830 		ldr	r3, [r1, r8]
 727:Middlewares/lvgl/src/widgets/lv_table.c ****                 txt_area.x1 = cell_area.x1 + cell_left;
 1601              		.loc 1 727 15 view .LVU555
 1602 02d4 002B     		cmp	r3, #0
 1603 02d6 52D0     		beq	.L59
 1604              	.LBB147:
 728:Middlewares/lvgl/src/widgets/lv_table.c ****                 txt_area.x2 = cell_area.x2 - cell_right;
 1605              		.loc 1 728 17 is_stmt 1 view .LVU556
 728:Middlewares/lvgl/src/widgets/lv_table.c ****                 txt_area.x2 = cell_area.x2 - cell_right;
 1606              		.loc 1 728 40 is_stmt 0 view .LVU557
 1607 02d8 BDF85C31 		ldrh	r3, [sp, #348]
 728:Middlewares/lvgl/src/widgets/lv_table.c ****                 txt_area.x2 = cell_area.x2 - cell_right;
 1608              		.loc 1 728 44 view .LVU558
 1609 02dc 0A9A     		ldr	r2, [sp, #40]
 1610 02de 1344     		add	r3, r3, r2
 1611 02e0 98B2     		uxth	r0, r3
 728:Middlewares/lvgl/src/widgets/lv_table.c ****                 txt_area.x2 = cell_area.x2 - cell_right;
 1612              		.loc 1 728 29 view .LVU559
 1613 02e2 ADF85431 		strh	r3, [sp, #340]	@ movhi
 729:Middlewares/lvgl/src/widgets/lv_table.c ****                 txt_area.y1 = cell_area.y1 + cell_top;
 1614              		.loc 1 729 17 is_stmt 1 view .LVU560
 729:Middlewares/lvgl/src/widgets/lv_table.c ****                 txt_area.y1 = cell_area.y1 + cell_top;
 1615              		.loc 1 729 40 is_stmt 0 view .LVU561
ARM GAS  /tmp/ccTYGLnU.s 			page 63


 1616 02e6 BDF86021 		ldrh	r2, [sp, #352]
 729:Middlewares/lvgl/src/widgets/lv_table.c ****                 txt_area.y1 = cell_area.y1 + cell_top;
 1617              		.loc 1 729 44 view .LVU562
 1618 02ea 099B     		ldr	r3, [sp, #36]
 1619 02ec D21A     		subs	r2, r2, r3
 1620 02ee 1FFA82FC 		uxth	ip, r2
 729:Middlewares/lvgl/src/widgets/lv_table.c ****                 txt_area.y1 = cell_area.y1 + cell_top;
 1621              		.loc 1 729 29 view .LVU563
 1622 02f2 ADF85821 		strh	r2, [sp, #344]	@ movhi
 730:Middlewares/lvgl/src/widgets/lv_table.c ****                 txt_area.y2 = cell_area.y2 - cell_bottom;
 1623              		.loc 1 730 17 is_stmt 1 view .LVU564
 730:Middlewares/lvgl/src/widgets/lv_table.c ****                 txt_area.y2 = cell_area.y2 - cell_bottom;
 1624              		.loc 1 730 40 is_stmt 0 view .LVU565
 1625 02f6 BDF85E21 		ldrh	r2, [sp, #350]
 730:Middlewares/lvgl/src/widgets/lv_table.c ****                 txt_area.y2 = cell_area.y2 - cell_bottom;
 1626              		.loc 1 730 44 view .LVU566
 1627 02fa 089B     		ldr	r3, [sp, #32]
 1628 02fc 1A44     		add	r2, r2, r3
 730:Middlewares/lvgl/src/widgets/lv_table.c ****                 txt_area.y2 = cell_area.y2 - cell_bottom;
 1629              		.loc 1 730 29 view .LVU567
 1630 02fe ADF85621 		strh	r2, [sp, #342]	@ movhi
 731:Middlewares/lvgl/src/widgets/lv_table.c **** 
 1631              		.loc 1 731 17 is_stmt 1 view .LVU568
 731:Middlewares/lvgl/src/widgets/lv_table.c **** 
 1632              		.loc 1 731 40 is_stmt 0 view .LVU569
 1633 0302 BDF86221 		ldrh	r2, [sp, #354]
 731:Middlewares/lvgl/src/widgets/lv_table.c **** 
 1634              		.loc 1 731 44 view .LVU570
 1635 0306 079B     		ldr	r3, [sp, #28]
 1636 0308 D21A     		subs	r2, r2, r3
 731:Middlewares/lvgl/src/widgets/lv_table.c **** 
 1637              		.loc 1 731 29 view .LVU571
 1638 030a ADF85A21 		strh	r2, [sp, #346]	@ movhi
 734:Middlewares/lvgl/src/widgets/lv_table.c ****                 if(crop) txt_flags = LV_TEXT_FLAG_EXPAND;
 1639              		.loc 1 734 17 is_stmt 1 view .LVU572
 734:Middlewares/lvgl/src/widgets/lv_table.c ****                 if(crop) txt_flags = LV_TEXT_FLAG_EXPAND;
 1640              		.loc 1 734 72 is_stmt 0 view .LVU573
 1641 030e C6F34009 		ubfx	r9, r6, #1, #1
 1642              	.LVL164:
 735:Middlewares/lvgl/src/widgets/lv_table.c ****                 else txt_flags = LV_TEXT_FLAG_NONE;
 1643              		.loc 1 735 17 is_stmt 1 view .LVU574
 735:Middlewares/lvgl/src/widgets/lv_table.c ****                 else txt_flags = LV_TEXT_FLAG_NONE;
 1644              		.loc 1 735 19 is_stmt 0 view .LVU575
 1645 0312 16F0020F 		tst	r6, #2
 1646 0316 00F0A680 		beq	.L67
 735:Middlewares/lvgl/src/widgets/lv_table.c ****                 else txt_flags = LV_TEXT_FLAG_NONE;
 1647              		.loc 1 735 36 view .LVU576
 1648 031a 0222     		movs	r2, #2
 1649              	.L60:
 1650              	.LVL165:
 738:Middlewares/lvgl/src/widgets/lv_table.c ****                         label_dsc_act.letter_space, label_dsc_act.line_space,
 1651              		.loc 1 738 17 is_stmt 1 view .LVU577
 738:Middlewares/lvgl/src/widgets/lv_table.c ****                         label_dsc_act.letter_space, label_dsc_act.line_space,
 1652              		.loc 1 738 60 is_stmt 0 view .LVU578
 1653 031c 51F80810 		ldr	r1, [r1, r8]
 1654              	.LVL166:
 1655              	.LBB148:
ARM GAS  /tmp/ccTYGLnU.s 			page 64


 1656              	.LBI148:
 126:Middlewares/lvgl/src/widgets/../core/../misc/../font/../misc/lv_area.h **** }
 127:Middlewares/lvgl/src/widgets/../core/../misc/../font/../misc/lv_area.h **** 
 128:Middlewares/lvgl/src/widgets/../core/../misc/../font/../misc/lv_area.h **** /**
 129:Middlewares/lvgl/src/widgets/../core/../misc/../font/../misc/lv_area.h ****  * Get the width of an area
 130:Middlewares/lvgl/src/widgets/../core/../misc/../font/../misc/lv_area.h ****  * @param area_p pointer to an area
 131:Middlewares/lvgl/src/widgets/../core/../misc/../font/../misc/lv_area.h ****  * @return the width of the area (if x1 == x2 -> width = 1)
 132:Middlewares/lvgl/src/widgets/../core/../misc/../font/../misc/lv_area.h ****  */
 133:Middlewares/lvgl/src/widgets/../core/../misc/../font/../misc/lv_area.h **** static inline lv_coord_t lv_area_get_width(const lv_area_t * area_p)
 1657              		.loc 4 133 26 is_stmt 1 view .LVU579
 1658              	.LBB149:
 134:Middlewares/lvgl/src/widgets/../core/../misc/../font/../misc/lv_area.h **** {
 135:Middlewares/lvgl/src/widgets/../core/../misc/../font/../misc/lv_area.h ****     return (lv_coord_t)(area_p->x2 - area_p->x1 + 1);
 1659              		.loc 4 135 5 view .LVU580
 1660              		.loc 4 135 36 is_stmt 0 view .LVU581
 1661 0320 ACEB0003 		sub	r3, ip, r0
 1662 0324 9BB2     		uxth	r3, r3
 1663              		.loc 4 135 49 view .LVU582
 1664 0326 0133     		adds	r3, r3, #1
 1665              		.loc 4 135 12 view .LVU583
 1666 0328 1BB2     		sxth	r3, r3
 1667              	.LVL167:
 1668              		.loc 4 135 12 view .LVU584
 1669              	.LBE149:
 1670              	.LBE148:
 738:Middlewares/lvgl/src/widgets/lv_table.c ****                         label_dsc_act.letter_space, label_dsc_act.line_space,
 1671              		.loc 1 738 17 view .LVU585
 1672 032a 0292     		str	r2, [sp, #8]
 1673 032c 0193     		str	r3, [sp, #4]
 1674 032e BDF9BE30 		ldrsh	r3, [sp, #190]
 1675 0332 0093     		str	r3, [sp]
 1676 0334 BDF9C030 		ldrsh	r3, [sp, #192]
 1677 0338 339A     		ldr	r2, [sp, #204]
 1678              	.LVL168:
 738:Middlewares/lvgl/src/widgets/lv_table.c ****                         label_dsc_act.letter_space, label_dsc_act.line_space,
