ARM GAS  /tmp/ccTYGLnU.s 			page 1


   1              		.cpu cortex-m3
   2              		.eabi_attribute 20, 1
   3              		.eabi_attribute 21, 1
   4              		.eabi_attribute 23, 3
   5              		.eabi_attribute 24, 1
   6              		.eabi_attribute 25, 1
   7              		.eabi_attribute 26, 1
   8              		.eabi_attribute 30, 1
   9              		.eabi_attribute 34, 1
  10              		.eabi_attribute 18, 4
  11              		.file	"lv_table.c"
  12              		.text
  13              	.Ltext0:
  14              		.cfi_sections	.debug_frame
  15              		.section	.text.get_row_height,"ax",%progbits
  16              		.align	1
  17              		.arch armv7-m
  18              		.syntax unified
  19              		.thumb
  20              		.thumb_func
  21              		.fpu softvfp
  23              	get_row_height:
  24              	.LVL0:
  25              	.LFB166:
  26              		.file 1 "Middlewares/lvgl/src/widgets/lv_table.c"
   1:Middlewares/lvgl/src/widgets/lv_table.c **** /**
   2:Middlewares/lvgl/src/widgets/lv_table.c ****  * @file lv_table.c
   3:Middlewares/lvgl/src/widgets/lv_table.c ****  *
   4:Middlewares/lvgl/src/widgets/lv_table.c ****  */
   5:Middlewares/lvgl/src/widgets/lv_table.c **** 
   6:Middlewares/lvgl/src/widgets/lv_table.c **** /*********************
   7:Middlewares/lvgl/src/widgets/lv_table.c ****  *      INCLUDES
   8:Middlewares/lvgl/src/widgets/lv_table.c ****  *********************/
   9:Middlewares/lvgl/src/widgets/lv_table.c **** #include "lv_table.h"
  10:Middlewares/lvgl/src/widgets/lv_table.c **** #if LV_USE_TABLE != 0
  11:Middlewares/lvgl/src/widgets/lv_table.c **** 
  12:Middlewares/lvgl/src/widgets/lv_table.c **** #include "../core/lv_indev.h"
  13:Middlewares/lvgl/src/widgets/lv_table.c **** #include "../misc/lv_assert.h"
  14:Middlewares/lvgl/src/widgets/lv_table.c **** #include "../misc/lv_txt.h"
  15:Middlewares/lvgl/src/widgets/lv_table.c **** #include "../misc/lv_txt_ap.h"
  16:Middlewares/lvgl/src/widgets/lv_table.c **** #include "../misc/lv_math.h"
  17:Middlewares/lvgl/src/widgets/lv_table.c **** #include "../misc/lv_printf.h"
  18:Middlewares/lvgl/src/widgets/lv_table.c **** #include "../draw/lv_draw.h"
  19:Middlewares/lvgl/src/widgets/lv_table.c **** 
  20:Middlewares/lvgl/src/widgets/lv_table.c **** /*********************
  21:Middlewares/lvgl/src/widgets/lv_table.c ****  *      DEFINES
  22:Middlewares/lvgl/src/widgets/lv_table.c ****  *********************/
  23:Middlewares/lvgl/src/widgets/lv_table.c **** #define MY_CLASS &lv_table_class
  24:Middlewares/lvgl/src/widgets/lv_table.c **** 
  25:Middlewares/lvgl/src/widgets/lv_table.c **** /**********************
  26:Middlewares/lvgl/src/widgets/lv_table.c ****  *      TYPEDEFS
  27:Middlewares/lvgl/src/widgets/lv_table.c ****  **********************/
  28:Middlewares/lvgl/src/widgets/lv_table.c **** 
  29:Middlewares/lvgl/src/widgets/lv_table.c **** /**********************
  30:Middlewares/lvgl/src/widgets/lv_table.c ****  *  STATIC PROTOTYPES
  31:Middlewares/lvgl/src/widgets/lv_table.c ****  **********************/
  32:Middlewares/lvgl/src/widgets/lv_table.c **** static void lv_table_constructor(const lv_obj_class_t * class_p, lv_obj_t * obj);
ARM GAS  /tmp/ccTYGLnU.s 			page 2


  33:Middlewares/lvgl/src/widgets/lv_table.c **** static void lv_table_destructor(const lv_obj_class_t * class_p, lv_obj_t * obj);
  34:Middlewares/lvgl/src/widgets/lv_table.c **** static void lv_table_event(const lv_obj_class_t * class_p, lv_event_t * e);
  35:Middlewares/lvgl/src/widgets/lv_table.c **** static void draw_main(lv_event_t * e);
  36:Middlewares/lvgl/src/widgets/lv_table.c **** static lv_coord_t get_row_height(lv_obj_t * obj, uint16_t row_id, const lv_font_t * font,
  37:Middlewares/lvgl/src/widgets/lv_table.c ****                                  lv_coord_t letter_space, lv_coord_t line_space,
  38:Middlewares/lvgl/src/widgets/lv_table.c ****                                  lv_coord_t cell_left, lv_coord_t cell_right, lv_coord_t cell_top, 
  39:Middlewares/lvgl/src/widgets/lv_table.c **** static void refr_size(lv_obj_t * obj, uint32_t strat_row);
  40:Middlewares/lvgl/src/widgets/lv_table.c **** static lv_res_t get_pressed_cell(lv_obj_t * obj, uint16_t * row, uint16_t * col);
  41:Middlewares/lvgl/src/widgets/lv_table.c **** 
  42:Middlewares/lvgl/src/widgets/lv_table.c **** /**********************
  43:Middlewares/lvgl/src/widgets/lv_table.c ****  *  STATIC VARIABLES
  44:Middlewares/lvgl/src/widgets/lv_table.c ****  **********************/
  45:Middlewares/lvgl/src/widgets/lv_table.c **** const lv_obj_class_t lv_table_class  = {
  46:Middlewares/lvgl/src/widgets/lv_table.c ****     .constructor_cb = lv_table_constructor,
  47:Middlewares/lvgl/src/widgets/lv_table.c ****     .destructor_cb = lv_table_destructor,
  48:Middlewares/lvgl/src/widgets/lv_table.c ****     .event_cb = lv_table_event,
  49:Middlewares/lvgl/src/widgets/lv_table.c ****     .width_def = LV_SIZE_CONTENT,
  50:Middlewares/lvgl/src/widgets/lv_table.c ****     .height_def = LV_SIZE_CONTENT,
  51:Middlewares/lvgl/src/widgets/lv_table.c ****     .base_class = &lv_obj_class,
  52:Middlewares/lvgl/src/widgets/lv_table.c ****     .editable = LV_OBJ_CLASS_EDITABLE_TRUE,
  53:Middlewares/lvgl/src/widgets/lv_table.c ****     .group_def = LV_OBJ_CLASS_GROUP_DEF_TRUE,
  54:Middlewares/lvgl/src/widgets/lv_table.c ****     .instance_size = sizeof(lv_table_t),
  55:Middlewares/lvgl/src/widgets/lv_table.c **** };
  56:Middlewares/lvgl/src/widgets/lv_table.c **** /**********************
  57:Middlewares/lvgl/src/widgets/lv_table.c ****  *      MACROS
  58:Middlewares/lvgl/src/widgets/lv_table.c ****  **********************/
  59:Middlewares/lvgl/src/widgets/lv_table.c **** 
  60:Middlewares/lvgl/src/widgets/lv_table.c **** /**********************
  61:Middlewares/lvgl/src/widgets/lv_table.c ****  *   GLOBAL FUNCTIONS
  62:Middlewares/lvgl/src/widgets/lv_table.c ****  **********************/
  63:Middlewares/lvgl/src/widgets/lv_table.c **** 
  64:Middlewares/lvgl/src/widgets/lv_table.c **** lv_obj_t * lv_table_create(lv_obj_t * parent)
  65:Middlewares/lvgl/src/widgets/lv_table.c **** {
  66:Middlewares/lvgl/src/widgets/lv_table.c ****     LV_LOG_INFO("begin")
  67:Middlewares/lvgl/src/widgets/lv_table.c ****     lv_obj_t * obj = lv_obj_class_create_obj(MY_CLASS, parent);
  68:Middlewares/lvgl/src/widgets/lv_table.c ****     lv_obj_class_init_obj(obj);
  69:Middlewares/lvgl/src/widgets/lv_table.c ****     return obj;
  70:Middlewares/lvgl/src/widgets/lv_table.c **** }
  71:Middlewares/lvgl/src/widgets/lv_table.c **** 
  72:Middlewares/lvgl/src/widgets/lv_table.c **** /*=====================
  73:Middlewares/lvgl/src/widgets/lv_table.c ****  * Setter functions
  74:Middlewares/lvgl/src/widgets/lv_table.c ****  *====================*/
  75:Middlewares/lvgl/src/widgets/lv_table.c **** 
  76:Middlewares/lvgl/src/widgets/lv_table.c **** void lv_table_set_cell_value(lv_obj_t * obj, uint16_t row, uint16_t col, const char * txt)
  77:Middlewares/lvgl/src/widgets/lv_table.c **** {
  78:Middlewares/lvgl/src/widgets/lv_table.c ****     LV_ASSERT_OBJ(obj, MY_CLASS);
  79:Middlewares/lvgl/src/widgets/lv_table.c ****     LV_ASSERT_NULL(txt);
  80:Middlewares/lvgl/src/widgets/lv_table.c **** 
  81:Middlewares/lvgl/src/widgets/lv_table.c ****     lv_table_t * table = (lv_table_t *)obj;
  82:Middlewares/lvgl/src/widgets/lv_table.c **** 
  83:Middlewares/lvgl/src/widgets/lv_table.c ****     /*Auto expand*/
  84:Middlewares/lvgl/src/widgets/lv_table.c ****     if(col >= table->col_cnt) lv_table_set_col_cnt(obj, col + 1);
  85:Middlewares/lvgl/src/widgets/lv_table.c ****     if(row >= table->row_cnt) lv_table_set_row_cnt(obj, row + 1);
  86:Middlewares/lvgl/src/widgets/lv_table.c **** 
  87:Middlewares/lvgl/src/widgets/lv_table.c ****     uint32_t cell = row * table->col_cnt + col;
  88:Middlewares/lvgl/src/widgets/lv_table.c ****     lv_table_cell_ctrl_t ctrl = 0;
  89:Middlewares/lvgl/src/widgets/lv_table.c **** 
ARM GAS  /tmp/ccTYGLnU.s 			page 3


  90:Middlewares/lvgl/src/widgets/lv_table.c ****     /*Save the control byte*/
  91:Middlewares/lvgl/src/widgets/lv_table.c ****     if(table->cell_data[cell]) ctrl = table->cell_data[cell][0];
  92:Middlewares/lvgl/src/widgets/lv_table.c **** 
  93:Middlewares/lvgl/src/widgets/lv_table.c **** #if LV_USE_ARABIC_PERSIAN_CHARS
  94:Middlewares/lvgl/src/widgets/lv_table.c ****     /*Get the size of the Arabic text and process it*/
  95:Middlewares/lvgl/src/widgets/lv_table.c ****     size_t len_ap = _lv_txt_ap_calc_bytes_cnt(txt);
  96:Middlewares/lvgl/src/widgets/lv_table.c ****     table->cell_data[cell] = lv_mem_realloc(table->cell_data[cell], len_ap + 1);
  97:Middlewares/lvgl/src/widgets/lv_table.c ****     LV_ASSERT_MALLOC(table->cell_data[cell]);
  98:Middlewares/lvgl/src/widgets/lv_table.c ****     if(table->cell_data[cell] == NULL) return;
  99:Middlewares/lvgl/src/widgets/lv_table.c **** 
 100:Middlewares/lvgl/src/widgets/lv_table.c ****     _lv_txt_ap_proc(txt, &table->cell_data[cell][1]);
 101:Middlewares/lvgl/src/widgets/lv_table.c **** #else
 102:Middlewares/lvgl/src/widgets/lv_table.c ****     table->cell_data[cell] = lv_mem_realloc(table->cell_data[cell], strlen(txt) + 2); /*+1: trailin
 103:Middlewares/lvgl/src/widgets/lv_table.c ****     LV_ASSERT_MALLOC(table->cell_data[cell]);
 104:Middlewares/lvgl/src/widgets/lv_table.c **** 
 105:Middlewares/lvgl/src/widgets/lv_table.c ****     strcpy(table->cell_data[cell] + 1, txt);  /*+1 to skip the format byte*/
 106:Middlewares/lvgl/src/widgets/lv_table.c **** #endif
 107:Middlewares/lvgl/src/widgets/lv_table.c **** 
 108:Middlewares/lvgl/src/widgets/lv_table.c ****     table->cell_data[cell][0] = ctrl;
 109:Middlewares/lvgl/src/widgets/lv_table.c ****     refr_size(obj, row);
 110:Middlewares/lvgl/src/widgets/lv_table.c **** 
 111:Middlewares/lvgl/src/widgets/lv_table.c ****     lv_obj_invalidate(obj);
 112:Middlewares/lvgl/src/widgets/lv_table.c **** }
 113:Middlewares/lvgl/src/widgets/lv_table.c **** 
 114:Middlewares/lvgl/src/widgets/lv_table.c **** void lv_table_set_cell_value_fmt(lv_obj_t * obj, uint16_t row, uint16_t col, const char * fmt, ...)
 115:Middlewares/lvgl/src/widgets/lv_table.c **** {
 116:Middlewares/lvgl/src/widgets/lv_table.c ****     LV_ASSERT_OBJ(obj, MY_CLASS);
 117:Middlewares/lvgl/src/widgets/lv_table.c ****     LV_ASSERT_NULL(fmt);
 118:Middlewares/lvgl/src/widgets/lv_table.c **** 
 119:Middlewares/lvgl/src/widgets/lv_table.c ****     lv_table_t * table = (lv_table_t *)obj;
 120:Middlewares/lvgl/src/widgets/lv_table.c ****     if(col >= table->col_cnt) {
 121:Middlewares/lvgl/src/widgets/lv_table.c ****         LV_LOG_WARN("lv_table_set_cell_value: invalid column");
 122:Middlewares/lvgl/src/widgets/lv_table.c ****         return;
 123:Middlewares/lvgl/src/widgets/lv_table.c ****     }
 124:Middlewares/lvgl/src/widgets/lv_table.c **** 
 125:Middlewares/lvgl/src/widgets/lv_table.c ****     /*Auto expand*/
 126:Middlewares/lvgl/src/widgets/lv_table.c ****     if(row >= table->row_cnt) {
 127:Middlewares/lvgl/src/widgets/lv_table.c ****         lv_table_set_row_cnt(obj, row + 1);
 128:Middlewares/lvgl/src/widgets/lv_table.c ****     }
 129:Middlewares/lvgl/src/widgets/lv_table.c **** 
 130:Middlewares/lvgl/src/widgets/lv_table.c ****     uint32_t cell = row * table->col_cnt + col;
 131:Middlewares/lvgl/src/widgets/lv_table.c ****     lv_table_cell_ctrl_t ctrl = 0;
 132:Middlewares/lvgl/src/widgets/lv_table.c **** 
 133:Middlewares/lvgl/src/widgets/lv_table.c ****     /*Save the control byte*/
 134:Middlewares/lvgl/src/widgets/lv_table.c ****     if(table->cell_data[cell]) ctrl= table->cell_data[cell][0];
 135:Middlewares/lvgl/src/widgets/lv_table.c **** 
 136:Middlewares/lvgl/src/widgets/lv_table.c ****     va_list ap, ap2;
 137:Middlewares/lvgl/src/widgets/lv_table.c ****     va_start(ap, fmt);
 138:Middlewares/lvgl/src/widgets/lv_table.c ****     va_copy(ap2, ap);
 139:Middlewares/lvgl/src/widgets/lv_table.c **** 
 140:Middlewares/lvgl/src/widgets/lv_table.c ****     /*Allocate space for the new text by using trick from C99 standard section 7.19.6.12*/
 141:Middlewares/lvgl/src/widgets/lv_table.c ****     uint32_t len = lv_vsnprintf(NULL, 0, fmt, ap);
 142:Middlewares/lvgl/src/widgets/lv_table.c ****     va_end(ap);
 143:Middlewares/lvgl/src/widgets/lv_table.c **** 
 144:Middlewares/lvgl/src/widgets/lv_table.c **** #if LV_USE_ARABIC_PERSIAN_CHARS
 145:Middlewares/lvgl/src/widgets/lv_table.c ****     /*Put together the text according to the format string*/
 146:Middlewares/lvgl/src/widgets/lv_table.c ****     char * raw_txt = lv_mem_buf_get(len + 1);
ARM GAS  /tmp/ccTYGLnU.s 			page 4


 147:Middlewares/lvgl/src/widgets/lv_table.c ****     LV_ASSERT_MALLOC(raw_txt);
 148:Middlewares/lvgl/src/widgets/lv_table.c ****     if(raw_txt == NULL) {
 149:Middlewares/lvgl/src/widgets/lv_table.c ****         va_end(ap2);
 150:Middlewares/lvgl/src/widgets/lv_table.c ****         return;
 151:Middlewares/lvgl/src/widgets/lv_table.c ****     }
 152:Middlewares/lvgl/src/widgets/lv_table.c **** 
 153:Middlewares/lvgl/src/widgets/lv_table.c ****     lv_vsnprintf(raw_txt, len + 1, fmt, ap2);
 154:Middlewares/lvgl/src/widgets/lv_table.c **** 
 155:Middlewares/lvgl/src/widgets/lv_table.c ****     /*Get the size of the Arabic text and process it*/
 156:Middlewares/lvgl/src/widgets/lv_table.c ****     size_t len_ap = _lv_txt_ap_calc_bytes_cnt(raw_txt);
 157:Middlewares/lvgl/src/widgets/lv_table.c ****     table->cell_data[cell] = lv_mem_realloc(table->cell_data[cell], len_ap + 1);
 158:Middlewares/lvgl/src/widgets/lv_table.c ****     LV_ASSERT_MALLOC(table->cell_data[cell]);
 159:Middlewares/lvgl/src/widgets/lv_table.c ****     if(table->cell_data[cell] == NULL) {
 160:Middlewares/lvgl/src/widgets/lv_table.c ****         va_end(ap2);
 161:Middlewares/lvgl/src/widgets/lv_table.c ****         return;
 162:Middlewares/lvgl/src/widgets/lv_table.c ****     }
 163:Middlewares/lvgl/src/widgets/lv_table.c ****     _lv_txt_ap_proc(raw_txt, &table->cell_data[cell][1]);
 164:Middlewares/lvgl/src/widgets/lv_table.c **** 
 165:Middlewares/lvgl/src/widgets/lv_table.c ****     lv_mem_buf_release(raw_txt);
 166:Middlewares/lvgl/src/widgets/lv_table.c **** #else
 167:Middlewares/lvgl/src/widgets/lv_table.c ****     table->cell_data[cell] = lv_mem_realloc(table->cell_data[cell], len + 2); /*+1: trailing '\0; +
 168:Middlewares/lvgl/src/widgets/lv_table.c ****     LV_ASSERT_MALLOC(table->cell_data[cell]);
 169:Middlewares/lvgl/src/widgets/lv_table.c ****     if(table->cell_data[cell] == NULL) {
 170:Middlewares/lvgl/src/widgets/lv_table.c ****         va_end(ap2);
 171:Middlewares/lvgl/src/widgets/lv_table.c ****         return;
 172:Middlewares/lvgl/src/widgets/lv_table.c ****     }
 173:Middlewares/lvgl/src/widgets/lv_table.c **** 
 174:Middlewares/lvgl/src/widgets/lv_table.c ****     table->cell_data[cell][len + 1] = 0; /*Ensure NULL termination*/
 175:Middlewares/lvgl/src/widgets/lv_table.c **** 
 176:Middlewares/lvgl/src/widgets/lv_table.c ****     lv_vsnprintf(&table->cell_data[cell][1], len + 1, fmt, ap2);
 177:Middlewares/lvgl/src/widgets/lv_table.c **** #endif
 178:Middlewares/lvgl/src/widgets/lv_table.c **** 
 179:Middlewares/lvgl/src/widgets/lv_table.c ****     va_end(ap2);
 180:Middlewares/lvgl/src/widgets/lv_table.c **** 
 181:Middlewares/lvgl/src/widgets/lv_table.c ****     table->cell_data[cell][0] = ctrl;
 182:Middlewares/lvgl/src/widgets/lv_table.c **** 
 183:Middlewares/lvgl/src/widgets/lv_table.c ****     /*Refresh the row height*/
 184:Middlewares/lvgl/src/widgets/lv_table.c ****     lv_coord_t cell_left = lv_obj_get_style_pad_left(obj, LV_PART_ITEMS);
 185:Middlewares/lvgl/src/widgets/lv_table.c ****     lv_coord_t cell_right = lv_obj_get_style_pad_right(obj, LV_PART_ITEMS);
 186:Middlewares/lvgl/src/widgets/lv_table.c ****     lv_coord_t cell_top = lv_obj_get_style_pad_top(obj, LV_PART_ITEMS);
 187:Middlewares/lvgl/src/widgets/lv_table.c ****     lv_coord_t cell_bottom = lv_obj_get_style_pad_bottom(obj, LV_PART_ITEMS);
 188:Middlewares/lvgl/src/widgets/lv_table.c **** 
 189:Middlewares/lvgl/src/widgets/lv_table.c ****     lv_coord_t letter_space = lv_obj_get_style_text_letter_space(obj, LV_PART_ITEMS);
 190:Middlewares/lvgl/src/widgets/lv_table.c ****     lv_coord_t line_space = lv_obj_get_style_text_line_space(obj, LV_PART_ITEMS);
 191:Middlewares/lvgl/src/widgets/lv_table.c ****     const lv_font_t * font = lv_obj_get_style_text_font(obj, LV_PART_ITEMS);
 192:Middlewares/lvgl/src/widgets/lv_table.c **** 
 193:Middlewares/lvgl/src/widgets/lv_table.c ****     lv_coord_t h = get_row_height(obj, row, font, letter_space, line_space,
 194:Middlewares/lvgl/src/widgets/lv_table.c ****                                        cell_left, cell_right, cell_top, cell_bottom);
 195:Middlewares/lvgl/src/widgets/lv_table.c **** 
 196:Middlewares/lvgl/src/widgets/lv_table.c **** 
 197:Middlewares/lvgl/src/widgets/lv_table.c ****     lv_coord_t minh = lv_obj_get_style_min_height(obj, LV_PART_ITEMS);
 198:Middlewares/lvgl/src/widgets/lv_table.c ****     lv_coord_t maxh = lv_obj_get_style_max_height(obj, LV_PART_ITEMS);
 199:Middlewares/lvgl/src/widgets/lv_table.c **** 
 200:Middlewares/lvgl/src/widgets/lv_table.c ****     table->row_h[row] = LV_CLAMP(minh, h, maxh);
 201:Middlewares/lvgl/src/widgets/lv_table.c **** 
 202:Middlewares/lvgl/src/widgets/lv_table.c ****     lv_obj_invalidate(obj);
 203:Middlewares/lvgl/src/widgets/lv_table.c **** }
ARM GAS  /tmp/ccTYGLnU.s 			page 5


 204:Middlewares/lvgl/src/widgets/lv_table.c **** 
 205:Middlewares/lvgl/src/widgets/lv_table.c **** void lv_table_set_row_cnt(lv_obj_t * obj, uint16_t row_cnt)
 206:Middlewares/lvgl/src/widgets/lv_table.c **** {
 207:Middlewares/lvgl/src/widgets/lv_table.c ****     LV_ASSERT_OBJ(obj, MY_CLASS);
 208:Middlewares/lvgl/src/widgets/lv_table.c **** 
 209:Middlewares/lvgl/src/widgets/lv_table.c ****     lv_table_t * table = (lv_table_t *)obj;
 210:Middlewares/lvgl/src/widgets/lv_table.c ****     uint16_t old_row_cnt = table->row_cnt;
 211:Middlewares/lvgl/src/widgets/lv_table.c ****     table->row_cnt         = row_cnt;
 212:Middlewares/lvgl/src/widgets/lv_table.c **** 
 213:Middlewares/lvgl/src/widgets/lv_table.c ****     table->row_h = lv_mem_realloc(table->row_h, table->row_cnt * sizeof(table->row_h[0]));
 214:Middlewares/lvgl/src/widgets/lv_table.c ****     LV_ASSERT_MALLOC(table->row_h);
 215:Middlewares/lvgl/src/widgets/lv_table.c ****     if(table->row_h == NULL) return;
 216:Middlewares/lvgl/src/widgets/lv_table.c **** 
 217:Middlewares/lvgl/src/widgets/lv_table.c ****     /*Free the unused cells*/
 218:Middlewares/lvgl/src/widgets/lv_table.c ****     if(old_row_cnt > row_cnt) {
 219:Middlewares/lvgl/src/widgets/lv_table.c ****         uint16_t old_cell_cnt = old_row_cnt * table->col_cnt;
 220:Middlewares/lvgl/src/widgets/lv_table.c ****         uint32_t new_cell_cnt = table->col_cnt * table->row_cnt;
 221:Middlewares/lvgl/src/widgets/lv_table.c ****         uint32_t i;
 222:Middlewares/lvgl/src/widgets/lv_table.c ****         for(i = new_cell_cnt; i < old_cell_cnt; i++) {
 223:Middlewares/lvgl/src/widgets/lv_table.c ****             lv_mem_free(table->cell_data[i]);
 224:Middlewares/lvgl/src/widgets/lv_table.c ****         }
 225:Middlewares/lvgl/src/widgets/lv_table.c ****     }
 226:Middlewares/lvgl/src/widgets/lv_table.c **** 
 227:Middlewares/lvgl/src/widgets/lv_table.c ****     table->cell_data = lv_mem_realloc(table->cell_data, table->row_cnt * table->col_cnt * sizeof(ch
 228:Middlewares/lvgl/src/widgets/lv_table.c ****     LV_ASSERT_MALLOC(table->cell_data);
 229:Middlewares/lvgl/src/widgets/lv_table.c ****     if(table->cell_data == NULL) return;
 230:Middlewares/lvgl/src/widgets/lv_table.c **** 
 231:Middlewares/lvgl/src/widgets/lv_table.c ****     /*Initialize the new fields*/
 232:Middlewares/lvgl/src/widgets/lv_table.c ****     if(old_row_cnt < row_cnt) {
 233:Middlewares/lvgl/src/widgets/lv_table.c ****         uint32_t old_cell_cnt = old_row_cnt * table->col_cnt;
 234:Middlewares/lvgl/src/widgets/lv_table.c ****         uint32_t new_cell_cnt = table->col_cnt * table->row_cnt;
 235:Middlewares/lvgl/src/widgets/lv_table.c ****         lv_memset_00(&table->cell_data[old_cell_cnt], (new_cell_cnt - old_cell_cnt) * sizeof(table-
 236:Middlewares/lvgl/src/widgets/lv_table.c ****     }
 237:Middlewares/lvgl/src/widgets/lv_table.c **** 
 238:Middlewares/lvgl/src/widgets/lv_table.c ****     refr_size(obj, 0) ;
 239:Middlewares/lvgl/src/widgets/lv_table.c **** }
 240:Middlewares/lvgl/src/widgets/lv_table.c **** 
 241:Middlewares/lvgl/src/widgets/lv_table.c **** void lv_table_set_col_cnt(lv_obj_t * obj, uint16_t col_cnt)
 242:Middlewares/lvgl/src/widgets/lv_table.c **** {
 243:Middlewares/lvgl/src/widgets/lv_table.c ****     LV_ASSERT_OBJ(obj, MY_CLASS);
 244:Middlewares/lvgl/src/widgets/lv_table.c **** 
 245:Middlewares/lvgl/src/widgets/lv_table.c ****     lv_table_t * table = (lv_table_t *)obj;
 246:Middlewares/lvgl/src/widgets/lv_table.c ****     uint16_t old_col_cnt = table->col_cnt;
 247:Middlewares/lvgl/src/widgets/lv_table.c ****     table->col_cnt         = col_cnt;
 248:Middlewares/lvgl/src/widgets/lv_table.c ****     table->col_w = lv_mem_realloc(table->col_w, col_cnt * sizeof(table->row_h[0]));
 249:Middlewares/lvgl/src/widgets/lv_table.c ****     LV_ASSERT_MALLOC(table->col_w);
 250:Middlewares/lvgl/src/widgets/lv_table.c ****     if(table->col_w == NULL) return;
 251:Middlewares/lvgl/src/widgets/lv_table.c **** 
 252:Middlewares/lvgl/src/widgets/lv_table.c ****     /*Free the unused cells*/
 253:Middlewares/lvgl/src/widgets/lv_table.c ****     if(old_col_cnt > col_cnt) {
 254:Middlewares/lvgl/src/widgets/lv_table.c ****        uint16_t old_cell_cnt = old_col_cnt * table->row_cnt;
 255:Middlewares/lvgl/src/widgets/lv_table.c ****        uint32_t new_cell_cnt = table->col_cnt * table->row_cnt;
 256:Middlewares/lvgl/src/widgets/lv_table.c ****        uint32_t i;
 257:Middlewares/lvgl/src/widgets/lv_table.c ****        for(i = new_cell_cnt; i < old_cell_cnt; i++) {
 258:Middlewares/lvgl/src/widgets/lv_table.c ****            lv_mem_free(table->cell_data[i]);
 259:Middlewares/lvgl/src/widgets/lv_table.c ****        }
 260:Middlewares/lvgl/src/widgets/lv_table.c ****    }
ARM GAS  /tmp/ccTYGLnU.s 			page 6


 261:Middlewares/lvgl/src/widgets/lv_table.c **** 
 262:Middlewares/lvgl/src/widgets/lv_table.c ****     char ** new_cell_data = lv_mem_alloc(table->row_cnt * table->col_cnt * sizeof(char *));
 263:Middlewares/lvgl/src/widgets/lv_table.c ****     LV_ASSERT_MALLOC(new_cell_data);
 264:Middlewares/lvgl/src/widgets/lv_table.c ****     if(new_cell_data == NULL) return;
 265:Middlewares/lvgl/src/widgets/lv_table.c ****     uint32_t new_cell_cnt = table->col_cnt * table->row_cnt;
 266:Middlewares/lvgl/src/widgets/lv_table.c ****     lv_memset_00(new_cell_data, new_cell_cnt * sizeof(table->cell_data[0]));
 267:Middlewares/lvgl/src/widgets/lv_table.c **** 
 268:Middlewares/lvgl/src/widgets/lv_table.c ****     /*Initialize the new fields*/
 269:Middlewares/lvgl/src/widgets/lv_table.c ****     if(old_col_cnt < col_cnt) {
 270:Middlewares/lvgl/src/widgets/lv_table.c ****         uint32_t col;
 271:Middlewares/lvgl/src/widgets/lv_table.c ****         for(col = old_col_cnt; col < col_cnt; col++) {
 272:Middlewares/lvgl/src/widgets/lv_table.c ****             table->col_w[col] = LV_DPI_DEF;
 273:Middlewares/lvgl/src/widgets/lv_table.c ****         }
 274:Middlewares/lvgl/src/widgets/lv_table.c ****     }
 275:Middlewares/lvgl/src/widgets/lv_table.c **** 
 276:Middlewares/lvgl/src/widgets/lv_table.c ****     /*The new column(s) messes up the mapping of `cell_data`*/
 277:Middlewares/lvgl/src/widgets/lv_table.c ****     uint32_t old_col_start;
 278:Middlewares/lvgl/src/widgets/lv_table.c ****     uint32_t new_col_start;
 279:Middlewares/lvgl/src/widgets/lv_table.c ****     uint32_t min_col_cnt = LV_MIN(old_col_cnt, col_cnt);
 280:Middlewares/lvgl/src/widgets/lv_table.c ****     uint32_t row;
 281:Middlewares/lvgl/src/widgets/lv_table.c ****     for(row = 0; row < table->row_cnt; row++) {
 282:Middlewares/lvgl/src/widgets/lv_table.c ****         old_col_start = row * old_col_cnt;
 283:Middlewares/lvgl/src/widgets/lv_table.c ****         new_col_start = row * col_cnt;
 284:Middlewares/lvgl/src/widgets/lv_table.c **** 
 285:Middlewares/lvgl/src/widgets/lv_table.c ****         lv_memcpy_small(&new_cell_data[new_col_start], &table->cell_data[old_col_start], sizeof(new
 286:Middlewares/lvgl/src/widgets/lv_table.c ****     }
 287:Middlewares/lvgl/src/widgets/lv_table.c **** 
 288:Middlewares/lvgl/src/widgets/lv_table.c ****     lv_mem_free(table->cell_data);
 289:Middlewares/lvgl/src/widgets/lv_table.c ****     table->cell_data = new_cell_data;
 290:Middlewares/lvgl/src/widgets/lv_table.c **** 
 291:Middlewares/lvgl/src/widgets/lv_table.c **** 
 292:Middlewares/lvgl/src/widgets/lv_table.c ****     refr_size(obj, 0) ;
 293:Middlewares/lvgl/src/widgets/lv_table.c **** }
 294:Middlewares/lvgl/src/widgets/lv_table.c **** 
 295:Middlewares/lvgl/src/widgets/lv_table.c **** void lv_table_set_col_width(lv_obj_t * obj, uint16_t col_id, lv_coord_t w)
 296:Middlewares/lvgl/src/widgets/lv_table.c **** {
 297:Middlewares/lvgl/src/widgets/lv_table.c ****     LV_ASSERT_OBJ(obj, MY_CLASS);
 298:Middlewares/lvgl/src/widgets/lv_table.c **** 
 299:Middlewares/lvgl/src/widgets/lv_table.c ****     lv_table_t * table = (lv_table_t *)obj;
 300:Middlewares/lvgl/src/widgets/lv_table.c **** 
 301:Middlewares/lvgl/src/widgets/lv_table.c ****     /*Auto expand*/
 302:Middlewares/lvgl/src/widgets/lv_table.c ****     if(col_id >= table->col_cnt) lv_table_set_col_cnt(obj, col_id + 1);
 303:Middlewares/lvgl/src/widgets/lv_table.c **** 
 304:Middlewares/lvgl/src/widgets/lv_table.c ****     table->col_w[col_id] = w;
 305:Middlewares/lvgl/src/widgets/lv_table.c ****     refr_size(obj, 0) ;
 306:Middlewares/lvgl/src/widgets/lv_table.c **** }
 307:Middlewares/lvgl/src/widgets/lv_table.c **** 
 308:Middlewares/lvgl/src/widgets/lv_table.c **** void lv_table_add_cell_ctrl(lv_obj_t * obj, uint16_t row, uint16_t col, lv_table_cell_ctrl_t ctrl)
 309:Middlewares/lvgl/src/widgets/lv_table.c **** {
 310:Middlewares/lvgl/src/widgets/lv_table.c ****     LV_ASSERT_OBJ(obj, MY_CLASS);
 311:Middlewares/lvgl/src/widgets/lv_table.c **** 
 312:Middlewares/lvgl/src/widgets/lv_table.c ****     lv_table_t * table = (lv_table_t *)obj;
 313:Middlewares/lvgl/src/widgets/lv_table.c **** 
 314:Middlewares/lvgl/src/widgets/lv_table.c ****     /*Auto expand*/
 315:Middlewares/lvgl/src/widgets/lv_table.c ****     if(col >= table->col_cnt) lv_table_set_col_cnt(obj, col + 1);
 316:Middlewares/lvgl/src/widgets/lv_table.c ****     if(row >= table->row_cnt) lv_table_set_row_cnt(obj, row + 1);
 317:Middlewares/lvgl/src/widgets/lv_table.c **** 
ARM GAS  /tmp/ccTYGLnU.s 			page 7


 318:Middlewares/lvgl/src/widgets/lv_table.c ****     uint32_t cell = row * table->col_cnt + col;
 319:Middlewares/lvgl/src/widgets/lv_table.c **** 
 320:Middlewares/lvgl/src/widgets/lv_table.c ****     if(table->cell_data[cell] == NULL) {
 321:Middlewares/lvgl/src/widgets/lv_table.c ****         table->cell_data[cell]    = lv_mem_alloc(2); /*+1: trailing '\0; +1: format byte*/
 322:Middlewares/lvgl/src/widgets/lv_table.c ****         LV_ASSERT_MALLOC(table->cell_data[cell]);
 323:Middlewares/lvgl/src/widgets/lv_table.c ****         if(table->cell_data[cell] == NULL) return;
 324:Middlewares/lvgl/src/widgets/lv_table.c **** 
 325:Middlewares/lvgl/src/widgets/lv_table.c ****         table->cell_data[cell][0] = 0;
 326:Middlewares/lvgl/src/widgets/lv_table.c ****         table->cell_data[cell][1] = '\0';
 327:Middlewares/lvgl/src/widgets/lv_table.c ****     }
 328:Middlewares/lvgl/src/widgets/lv_table.c **** 
 329:Middlewares/lvgl/src/widgets/lv_table.c ****     table->cell_data[cell][0] |= ctrl;
 330:Middlewares/lvgl/src/widgets/lv_table.c **** }
 331:Middlewares/lvgl/src/widgets/lv_table.c **** 
 332:Middlewares/lvgl/src/widgets/lv_table.c **** void lv_table_clear_cell_ctrl(lv_obj_t * obj, uint16_t row, uint16_t col, lv_table_cell_ctrl_t ctrl
 333:Middlewares/lvgl/src/widgets/lv_table.c **** {
 334:Middlewares/lvgl/src/widgets/lv_table.c ****     LV_ASSERT_OBJ(obj, MY_CLASS);
 335:Middlewares/lvgl/src/widgets/lv_table.c **** 
 336:Middlewares/lvgl/src/widgets/lv_table.c ****     lv_table_t * table = (lv_table_t *)obj;
 337:Middlewares/lvgl/src/widgets/lv_table.c **** 
 338:Middlewares/lvgl/src/widgets/lv_table.c ****     /*Auto expand*/
 339:Middlewares/lvgl/src/widgets/lv_table.c ****     if(col >= table->col_cnt) lv_table_set_col_cnt(obj, col + 1);
 340:Middlewares/lvgl/src/widgets/lv_table.c ****     if(row >= table->row_cnt) lv_table_set_row_cnt(obj, row + 1);
 341:Middlewares/lvgl/src/widgets/lv_table.c **** 
 342:Middlewares/lvgl/src/widgets/lv_table.c ****     uint32_t cell = row * table->col_cnt + col;
 343:Middlewares/lvgl/src/widgets/lv_table.c **** 
 344:Middlewares/lvgl/src/widgets/lv_table.c ****     if(table->cell_data[cell] == NULL) {
 345:Middlewares/lvgl/src/widgets/lv_table.c ****         table->cell_data[cell]    = lv_mem_alloc(2); /*+1: trailing '\0; +1: format byte*/
 346:Middlewares/lvgl/src/widgets/lv_table.c ****         LV_ASSERT_MALLOC(table->cell_data[cell]);
 347:Middlewares/lvgl/src/widgets/lv_table.c ****         if(table->cell_data[cell] == NULL) return;
 348:Middlewares/lvgl/src/widgets/lv_table.c **** 
 349:Middlewares/lvgl/src/widgets/lv_table.c ****         table->cell_data[cell][0] = 0;
 350:Middlewares/lvgl/src/widgets/lv_table.c ****         table->cell_data[cell][1] = '\0';
 351:Middlewares/lvgl/src/widgets/lv_table.c ****     }
 352:Middlewares/lvgl/src/widgets/lv_table.c **** 
 353:Middlewares/lvgl/src/widgets/lv_table.c ****     table->cell_data[cell][0] &= (~ctrl);
 354:Middlewares/lvgl/src/widgets/lv_table.c **** }
 355:Middlewares/lvgl/src/widgets/lv_table.c **** 
 356:Middlewares/lvgl/src/widgets/lv_table.c **** /*=====================
 357:Middlewares/lvgl/src/widgets/lv_table.c ****  * Getter functions
 358:Middlewares/lvgl/src/widgets/lv_table.c ****  *====================*/
 359:Middlewares/lvgl/src/widgets/lv_table.c **** 
 360:Middlewares/lvgl/src/widgets/lv_table.c **** const char * lv_table_get_cell_value(lv_obj_t * obj, uint16_t row, uint16_t col)
 361:Middlewares/lvgl/src/widgets/lv_table.c **** {
 362:Middlewares/lvgl/src/widgets/lv_table.c ****     LV_ASSERT_OBJ(obj, MY_CLASS);
 363:Middlewares/lvgl/src/widgets/lv_table.c **** 
 364:Middlewares/lvgl/src/widgets/lv_table.c ****     lv_table_t * table = (lv_table_t *)obj;
 365:Middlewares/lvgl/src/widgets/lv_table.c ****     if(row >= table->row_cnt || col >= table->col_cnt) {
 366:Middlewares/lvgl/src/widgets/lv_table.c ****         LV_LOG_WARN("lv_table_set_cell_value: invalid row or column");
 367:Middlewares/lvgl/src/widgets/lv_table.c ****         return "";
 368:Middlewares/lvgl/src/widgets/lv_table.c ****     }
 369:Middlewares/lvgl/src/widgets/lv_table.c ****     uint32_t cell = row * table->col_cnt + col;
 370:Middlewares/lvgl/src/widgets/lv_table.c **** 
 371:Middlewares/lvgl/src/widgets/lv_table.c ****     if(table->cell_data[cell] == NULL) return "";
 372:Middlewares/lvgl/src/widgets/lv_table.c **** 
 373:Middlewares/lvgl/src/widgets/lv_table.c ****     return &table->cell_data[cell][1]; /*Skip the format byte*/
 374:Middlewares/lvgl/src/widgets/lv_table.c **** }
ARM GAS  /tmp/ccTYGLnU.s 			page 8


 375:Middlewares/lvgl/src/widgets/lv_table.c **** 
 376:Middlewares/lvgl/src/widgets/lv_table.c **** uint16_t lv_table_get_row_cnt(lv_obj_t * obj)
 377:Middlewares/lvgl/src/widgets/lv_table.c **** {
 378:Middlewares/lvgl/src/widgets/lv_table.c ****     LV_ASSERT_OBJ(obj, MY_CLASS);
 379:Middlewares/lvgl/src/widgets/lv_table.c **** 
 380:Middlewares/lvgl/src/widgets/lv_table.c ****     lv_table_t * table = (lv_table_t *)obj;
 381:Middlewares/lvgl/src/widgets/lv_table.c ****     return table->row_cnt;
 382:Middlewares/lvgl/src/widgets/lv_table.c **** }
 383:Middlewares/lvgl/src/widgets/lv_table.c **** 
 384:Middlewares/lvgl/src/widgets/lv_table.c **** uint16_t lv_table_get_col_cnt(lv_obj_t * obj)
 385:Middlewares/lvgl/src/widgets/lv_table.c **** {
 386:Middlewares/lvgl/src/widgets/lv_table.c ****     LV_ASSERT_OBJ(obj, MY_CLASS);
 387:Middlewares/lvgl/src/widgets/lv_table.c **** 
 388:Middlewares/lvgl/src/widgets/lv_table.c ****     lv_table_t * table = (lv_table_t *)obj;
 389:Middlewares/lvgl/src/widgets/lv_table.c ****     return table->col_cnt;
 390:Middlewares/lvgl/src/widgets/lv_table.c **** }
 391:Middlewares/lvgl/src/widgets/lv_table.c **** 
 392:Middlewares/lvgl/src/widgets/lv_table.c **** lv_coord_t lv_table_get_col_width(lv_obj_t * obj, uint16_t col)
 393:Middlewares/lvgl/src/widgets/lv_table.c **** {
 394:Middlewares/lvgl/src/widgets/lv_table.c ****     LV_ASSERT_OBJ(obj, MY_CLASS);
 395:Middlewares/lvgl/src/widgets/lv_table.c **** 
 396:Middlewares/lvgl/src/widgets/lv_table.c ****     lv_table_t * table = (lv_table_t *)obj;
 397:Middlewares/lvgl/src/widgets/lv_table.c **** 
 398:Middlewares/lvgl/src/widgets/lv_table.c ****     if(col >= table->col_cnt) {
 399:Middlewares/lvgl/src/widgets/lv_table.c ****         LV_LOG_WARN("lv_table_set_col_width: too big 'col_id'. Must be < LV_TABLE_COL_MAX.");
 400:Middlewares/lvgl/src/widgets/lv_table.c ****         return 0;
 401:Middlewares/lvgl/src/widgets/lv_table.c ****     }
 402:Middlewares/lvgl/src/widgets/lv_table.c **** 
 403:Middlewares/lvgl/src/widgets/lv_table.c ****     return table->col_w[col];
 404:Middlewares/lvgl/src/widgets/lv_table.c **** }
 405:Middlewares/lvgl/src/widgets/lv_table.c **** 
 406:Middlewares/lvgl/src/widgets/lv_table.c **** bool lv_table_has_cell_ctrl(lv_obj_t * obj, uint16_t row, uint16_t col, lv_table_cell_ctrl_t ctrl)
 407:Middlewares/lvgl/src/widgets/lv_table.c **** {
 408:Middlewares/lvgl/src/widgets/lv_table.c ****     LV_ASSERT_OBJ(obj, MY_CLASS);
 409:Middlewares/lvgl/src/widgets/lv_table.c **** 
 410:Middlewares/lvgl/src/widgets/lv_table.c ****     lv_table_t * table = (lv_table_t *)obj;
 411:Middlewares/lvgl/src/widgets/lv_table.c ****     if(row >= table->row_cnt || col >= table->col_cnt) {
 412:Middlewares/lvgl/src/widgets/lv_table.c ****         LV_LOG_WARN("lv_table_get_cell_crop: invalid row or column");
 413:Middlewares/lvgl/src/widgets/lv_table.c ****         return false;
 414:Middlewares/lvgl/src/widgets/lv_table.c ****     }
 415:Middlewares/lvgl/src/widgets/lv_table.c ****     uint32_t cell = row * table->col_cnt + col;
 416:Middlewares/lvgl/src/widgets/lv_table.c **** 
 417:Middlewares/lvgl/src/widgets/lv_table.c ****     if(table->cell_data[cell] == NULL) return false;
 418:Middlewares/lvgl/src/widgets/lv_table.c ****     else return (table->cell_data[cell][0] & ctrl) == ctrl ? true : false;
 419:Middlewares/lvgl/src/widgets/lv_table.c **** }
 420:Middlewares/lvgl/src/widgets/lv_table.c **** 
 421:Middlewares/lvgl/src/widgets/lv_table.c **** void lv_table_get_selected_cell(lv_obj_t * obj, uint16_t * row, uint16_t * col)
 422:Middlewares/lvgl/src/widgets/lv_table.c **** {
 423:Middlewares/lvgl/src/widgets/lv_table.c ****     lv_table_t * table = (lv_table_t *)obj;
 424:Middlewares/lvgl/src/widgets/lv_table.c ****     *row = table->row_act;
 425:Middlewares/lvgl/src/widgets/lv_table.c ****     *col = table->col_act;
 426:Middlewares/lvgl/src/widgets/lv_table.c **** }
 427:Middlewares/lvgl/src/widgets/lv_table.c **** 
 428:Middlewares/lvgl/src/widgets/lv_table.c **** /**********************
 429:Middlewares/lvgl/src/widgets/lv_table.c ****  *   STATIC FUNCTIONS
 430:Middlewares/lvgl/src/widgets/lv_table.c ****  **********************/
 431:Middlewares/lvgl/src/widgets/lv_table.c **** 
ARM GAS  /tmp/ccTYGLnU.s 			page 9


 432:Middlewares/lvgl/src/widgets/lv_table.c **** static void lv_table_constructor(const lv_obj_class_t * class_p, lv_obj_t * obj)
 433:Middlewares/lvgl/src/widgets/lv_table.c **** {
 434:Middlewares/lvgl/src/widgets/lv_table.c ****     LV_UNUSED(class_p);
 435:Middlewares/lvgl/src/widgets/lv_table.c ****     LV_TRACE_OBJ_CREATE("begin");
 436:Middlewares/lvgl/src/widgets/lv_table.c **** 
 437:Middlewares/lvgl/src/widgets/lv_table.c ****     lv_table_t * table = (lv_table_t *)obj;
 438:Middlewares/lvgl/src/widgets/lv_table.c **** 
 439:Middlewares/lvgl/src/widgets/lv_table.c ****     table->col_cnt = 1;
 440:Middlewares/lvgl/src/widgets/lv_table.c ****     table->row_cnt = 1;
 441:Middlewares/lvgl/src/widgets/lv_table.c ****     table->col_w = lv_mem_alloc(table->col_cnt * sizeof(table->col_w[0]));
 442:Middlewares/lvgl/src/widgets/lv_table.c ****     table->row_h = lv_mem_alloc(table->row_cnt * sizeof(table->row_h[0]));
 443:Middlewares/lvgl/src/widgets/lv_table.c ****     table->col_w[0] = LV_DPI_DEF;
 444:Middlewares/lvgl/src/widgets/lv_table.c ****     table->row_h[0] = LV_DPI_DEF;
 445:Middlewares/lvgl/src/widgets/lv_table.c ****     table->cell_data = lv_mem_realloc(table->cell_data, table->row_cnt * table->col_cnt * sizeof(ch
 446:Middlewares/lvgl/src/widgets/lv_table.c ****     table->cell_data[0] = NULL;
 447:Middlewares/lvgl/src/widgets/lv_table.c **** 
 448:Middlewares/lvgl/src/widgets/lv_table.c ****     LV_TRACE_OBJ_CREATE("finished");
 449:Middlewares/lvgl/src/widgets/lv_table.c **** }
 450:Middlewares/lvgl/src/widgets/lv_table.c **** 
 451:Middlewares/lvgl/src/widgets/lv_table.c **** static void lv_table_destructor(const lv_obj_class_t * class_p, lv_obj_t * obj)
 452:Middlewares/lvgl/src/widgets/lv_table.c **** {
 453:Middlewares/lvgl/src/widgets/lv_table.c ****     LV_UNUSED(class_p);
 454:Middlewares/lvgl/src/widgets/lv_table.c ****     lv_table_t * table = (lv_table_t *)obj;
 455:Middlewares/lvgl/src/widgets/lv_table.c ****     /*Free the cell texts*/
 456:Middlewares/lvgl/src/widgets/lv_table.c ****     uint16_t i;
 457:Middlewares/lvgl/src/widgets/lv_table.c ****     for(i = 0; i < table->col_cnt * table->row_cnt; i++) {
 458:Middlewares/lvgl/src/widgets/lv_table.c ****         if(table->cell_data[i]) {
 459:Middlewares/lvgl/src/widgets/lv_table.c ****             lv_mem_free(table->cell_data[i]);
 460:Middlewares/lvgl/src/widgets/lv_table.c ****             table->cell_data[i] = NULL;
 461:Middlewares/lvgl/src/widgets/lv_table.c ****         }
 462:Middlewares/lvgl/src/widgets/lv_table.c ****     }
 463:Middlewares/lvgl/src/widgets/lv_table.c **** 
 464:Middlewares/lvgl/src/widgets/lv_table.c ****     if(table->cell_data) lv_mem_free(table->cell_data);
 465:Middlewares/lvgl/src/widgets/lv_table.c ****     if(table->row_h) lv_mem_free(table->row_h);
 466:Middlewares/lvgl/src/widgets/lv_table.c **** }
 467:Middlewares/lvgl/src/widgets/lv_table.c **** 
 468:Middlewares/lvgl/src/widgets/lv_table.c **** static void lv_table_event(const lv_obj_class_t * class_p, lv_event_t * e)
 469:Middlewares/lvgl/src/widgets/lv_table.c **** {
 470:Middlewares/lvgl/src/widgets/lv_table.c ****     LV_UNUSED(class_p);
 471:Middlewares/lvgl/src/widgets/lv_table.c **** 
 472:Middlewares/lvgl/src/widgets/lv_table.c ****     lv_res_t res;
 473:Middlewares/lvgl/src/widgets/lv_table.c **** 
 474:Middlewares/lvgl/src/widgets/lv_table.c ****     /*Call the ancestor's event handler*/
 475:Middlewares/lvgl/src/widgets/lv_table.c ****     res = lv_obj_event_base(MY_CLASS, e);
 476:Middlewares/lvgl/src/widgets/lv_table.c ****     if(res != LV_RES_OK) return;
 477:Middlewares/lvgl/src/widgets/lv_table.c **** 
 478:Middlewares/lvgl/src/widgets/lv_table.c ****     lv_event_code_t code = lv_event_get_code(e);
 479:Middlewares/lvgl/src/widgets/lv_table.c ****     lv_obj_t * obj = lv_event_get_target(e);
 480:Middlewares/lvgl/src/widgets/lv_table.c ****     lv_table_t * table = (lv_table_t *)obj;
 481:Middlewares/lvgl/src/widgets/lv_table.c **** 
 482:Middlewares/lvgl/src/widgets/lv_table.c ****     if(code == LV_EVENT_STYLE_CHANGED) {
 483:Middlewares/lvgl/src/widgets/lv_table.c ****         refr_size(obj, 0);
 484:Middlewares/lvgl/src/widgets/lv_table.c ****     }
 485:Middlewares/lvgl/src/widgets/lv_table.c ****     else if(code == LV_EVENT_GET_SELF_SIZE) {
 486:Middlewares/lvgl/src/widgets/lv_table.c ****         lv_point_t * p = lv_event_get_param(e);
 487:Middlewares/lvgl/src/widgets/lv_table.c ****         uint32_t i;
 488:Middlewares/lvgl/src/widgets/lv_table.c ****         lv_coord_t w = 0;
ARM GAS  /tmp/ccTYGLnU.s 			page 10


 489:Middlewares/lvgl/src/widgets/lv_table.c ****         for(i = 0; i < table->col_cnt; i++) w += table->col_w[i];
 490:Middlewares/lvgl/src/widgets/lv_table.c **** 
 491:Middlewares/lvgl/src/widgets/lv_table.c ****         lv_coord_t h = 0;
 492:Middlewares/lvgl/src/widgets/lv_table.c ****         for(i = 0; i < table->row_cnt; i++) h += table->row_h[i];
 493:Middlewares/lvgl/src/widgets/lv_table.c **** 
 494:Middlewares/lvgl/src/widgets/lv_table.c ****         p->x = w;
 495:Middlewares/lvgl/src/widgets/lv_table.c ****         p->y = h;
 496:Middlewares/lvgl/src/widgets/lv_table.c ****     }
 497:Middlewares/lvgl/src/widgets/lv_table.c ****     else if(code == LV_EVENT_PRESSED || code == LV_EVENT_PRESSING) {
 498:Middlewares/lvgl/src/widgets/lv_table.c ****         uint16_t col;
 499:Middlewares/lvgl/src/widgets/lv_table.c ****         uint16_t row;
 500:Middlewares/lvgl/src/widgets/lv_table.c ****         lv_res_t pr_res = get_pressed_cell(obj, &row, &col);
 501:Middlewares/lvgl/src/widgets/lv_table.c **** 
 502:Middlewares/lvgl/src/widgets/lv_table.c ****         if(pr_res == LV_RES_OK && (table->col_act != col || table->row_act != row)) {
 503:Middlewares/lvgl/src/widgets/lv_table.c ****             table->col_act = col;
 504:Middlewares/lvgl/src/widgets/lv_table.c ****             table->row_act = row;
 505:Middlewares/lvgl/src/widgets/lv_table.c ****         }
 506:Middlewares/lvgl/src/widgets/lv_table.c ****         lv_obj_invalidate(obj);
 507:Middlewares/lvgl/src/widgets/lv_table.c ****     }
 508:Middlewares/lvgl/src/widgets/lv_table.c ****     else if(code == LV_EVENT_RELEASED) {
 509:Middlewares/lvgl/src/widgets/lv_table.c ****         lv_obj_invalidate(obj);
 510:Middlewares/lvgl/src/widgets/lv_table.c ****         lv_indev_t * indev = lv_indev_get_act();
 511:Middlewares/lvgl/src/widgets/lv_table.c ****         lv_obj_t * scroll_obj = lv_indev_get_scroll_obj(indev);
 512:Middlewares/lvgl/src/widgets/lv_table.c ****         if(table->col_act != LV_TABLE_CELL_NONE && table->row_act != LV_TABLE_CELL_NONE && scroll_o
 513:Middlewares/lvgl/src/widgets/lv_table.c ****             res = lv_event_send(obj, LV_EVENT_VALUE_CHANGED, NULL);
 514:Middlewares/lvgl/src/widgets/lv_table.c ****             if(res != LV_RES_OK) return;
 515:Middlewares/lvgl/src/widgets/lv_table.c ****         }
 516:Middlewares/lvgl/src/widgets/lv_table.c **** 
 517:Middlewares/lvgl/src/widgets/lv_table.c ****         lv_indev_type_t indev_type = lv_indev_get_type(lv_indev_get_act());
 518:Middlewares/lvgl/src/widgets/lv_table.c ****         if(indev_type == LV_INDEV_TYPE_POINTER || indev_type == LV_INDEV_TYPE_BUTTON) {
 519:Middlewares/lvgl/src/widgets/lv_table.c ****             table->col_act = LV_TABLE_CELL_NONE;
 520:Middlewares/lvgl/src/widgets/lv_table.c ****             table->row_act = LV_TABLE_CELL_NONE;
 521:Middlewares/lvgl/src/widgets/lv_table.c ****         }
 522:Middlewares/lvgl/src/widgets/lv_table.c ****     }
 523:Middlewares/lvgl/src/widgets/lv_table.c ****     else if(code == LV_EVENT_FOCUSED) {
 524:Middlewares/lvgl/src/widgets/lv_table.c ****         lv_obj_invalidate(obj);
 525:Middlewares/lvgl/src/widgets/lv_table.c ****     } else if(code == LV_EVENT_KEY) {
 526:Middlewares/lvgl/src/widgets/lv_table.c ****         int32_t c = *((int32_t *)lv_event_get_param(e));
 527:Middlewares/lvgl/src/widgets/lv_table.c ****         int32_t col = table->col_act;
 528:Middlewares/lvgl/src/widgets/lv_table.c ****         int32_t row = table->row_act;
 529:Middlewares/lvgl/src/widgets/lv_table.c ****         if(col == LV_TABLE_CELL_NONE || row == LV_TABLE_CELL_NONE) {
 530:Middlewares/lvgl/src/widgets/lv_table.c ****             table->col_act = 0;
 531:Middlewares/lvgl/src/widgets/lv_table.c ****             table->row_act = 0;
 532:Middlewares/lvgl/src/widgets/lv_table.c ****             lv_obj_invalidate(obj);
 533:Middlewares/lvgl/src/widgets/lv_table.c ****             return;
 534:Middlewares/lvgl/src/widgets/lv_table.c ****         }
 535:Middlewares/lvgl/src/widgets/lv_table.c **** 
 536:Middlewares/lvgl/src/widgets/lv_table.c ****         if(col >= table->col_cnt) col = 0;
 537:Middlewares/lvgl/src/widgets/lv_table.c ****         if(row >= table->row_cnt) row = 0;
 538:Middlewares/lvgl/src/widgets/lv_table.c **** 
 539:Middlewares/lvgl/src/widgets/lv_table.c ****         if(c == LV_KEY_LEFT) col--;
 540:Middlewares/lvgl/src/widgets/lv_table.c ****         else if(c == LV_KEY_RIGHT) col++;
 541:Middlewares/lvgl/src/widgets/lv_table.c ****         else if(c == LV_KEY_UP) row--;
 542:Middlewares/lvgl/src/widgets/lv_table.c ****         else if(c == LV_KEY_DOWN) row++;
 543:Middlewares/lvgl/src/widgets/lv_table.c ****         else return;
 544:Middlewares/lvgl/src/widgets/lv_table.c **** 
 545:Middlewares/lvgl/src/widgets/lv_table.c ****         if(col >= table->col_cnt) {
ARM GAS  /tmp/ccTYGLnU.s 			page 11


 546:Middlewares/lvgl/src/widgets/lv_table.c ****             if(row < table->row_cnt - 1) {
 547:Middlewares/lvgl/src/widgets/lv_table.c ****                 col = 0;
 548:Middlewares/lvgl/src/widgets/lv_table.c ****                 row++;
 549:Middlewares/lvgl/src/widgets/lv_table.c ****             } else {
 550:Middlewares/lvgl/src/widgets/lv_table.c ****                 col = table->col_cnt - 1;
 551:Middlewares/lvgl/src/widgets/lv_table.c ****             }
 552:Middlewares/lvgl/src/widgets/lv_table.c ****         } else if (col < 0) {
 553:Middlewares/lvgl/src/widgets/lv_table.c ****             if(row != 0) {
 554:Middlewares/lvgl/src/widgets/lv_table.c ****                 col = table->col_cnt - 1;
 555:Middlewares/lvgl/src/widgets/lv_table.c ****                 row--;
 556:Middlewares/lvgl/src/widgets/lv_table.c ****             } else {
 557:Middlewares/lvgl/src/widgets/lv_table.c ****                 col = 0;
 558:Middlewares/lvgl/src/widgets/lv_table.c ****             }
 559:Middlewares/lvgl/src/widgets/lv_table.c ****         }
 560:Middlewares/lvgl/src/widgets/lv_table.c **** 
 561:Middlewares/lvgl/src/widgets/lv_table.c ****         if(row >= table->row_cnt) {
 562:Middlewares/lvgl/src/widgets/lv_table.c ****             row = table->row_cnt - 1;
 563:Middlewares/lvgl/src/widgets/lv_table.c ****         } else if(row < 0) {
 564:Middlewares/lvgl/src/widgets/lv_table.c ****             row = 0;
 565:Middlewares/lvgl/src/widgets/lv_table.c ****         }
 566:Middlewares/lvgl/src/widgets/lv_table.c **** 
 567:Middlewares/lvgl/src/widgets/lv_table.c ****         if(table->col_act != col || table->row_act != row) {
 568:Middlewares/lvgl/src/widgets/lv_table.c ****             table->col_act = col;
 569:Middlewares/lvgl/src/widgets/lv_table.c ****             table->row_act = row;
 570:Middlewares/lvgl/src/widgets/lv_table.c ****             lv_obj_invalidate(obj);
 571:Middlewares/lvgl/src/widgets/lv_table.c **** 
 572:Middlewares/lvgl/src/widgets/lv_table.c ****             res = lv_event_send(obj, LV_EVENT_VALUE_CHANGED, NULL);
 573:Middlewares/lvgl/src/widgets/lv_table.c ****             if(res != LV_RES_OK) return;
 574:Middlewares/lvgl/src/widgets/lv_table.c ****         }
 575:Middlewares/lvgl/src/widgets/lv_table.c ****     } else if(code == LV_EVENT_DRAW_MAIN) {
 576:Middlewares/lvgl/src/widgets/lv_table.c ****         draw_main(e);
 577:Middlewares/lvgl/src/widgets/lv_table.c ****     }
 578:Middlewares/lvgl/src/widgets/lv_table.c **** }
 579:Middlewares/lvgl/src/widgets/lv_table.c **** 
 580:Middlewares/lvgl/src/widgets/lv_table.c **** 
 581:Middlewares/lvgl/src/widgets/lv_table.c **** static void draw_main(lv_event_t * e)
 582:Middlewares/lvgl/src/widgets/lv_table.c **** {
 583:Middlewares/lvgl/src/widgets/lv_table.c ****     lv_obj_t * obj = lv_event_get_target(e);
 584:Middlewares/lvgl/src/widgets/lv_table.c ****     lv_table_t * table = (lv_table_t *)obj;
 585:Middlewares/lvgl/src/widgets/lv_table.c ****     const lv_area_t * clip_area = lv_event_get_param(e);
 586:Middlewares/lvgl/src/widgets/lv_table.c **** 
 587:Middlewares/lvgl/src/widgets/lv_table.c ****     lv_point_t txt_size;
 588:Middlewares/lvgl/src/widgets/lv_table.c ****     lv_area_t cell_area;
 589:Middlewares/lvgl/src/widgets/lv_table.c ****     lv_area_t txt_area;
 590:Middlewares/lvgl/src/widgets/lv_table.c ****     lv_text_flag_t txt_flags;
 591:Middlewares/lvgl/src/widgets/lv_table.c **** 
 592:Middlewares/lvgl/src/widgets/lv_table.c ****     lv_coord_t bg_top = lv_obj_get_style_pad_top(obj, LV_PART_MAIN);
 593:Middlewares/lvgl/src/widgets/lv_table.c ****     lv_coord_t bg_bottom = lv_obj_get_style_pad_bottom(obj, LV_PART_MAIN);
 594:Middlewares/lvgl/src/widgets/lv_table.c ****     lv_coord_t bg_left = lv_obj_get_style_pad_left(obj, LV_PART_MAIN);
 595:Middlewares/lvgl/src/widgets/lv_table.c ****     lv_coord_t bg_right = lv_obj_get_style_pad_right(obj, LV_PART_MAIN);
 596:Middlewares/lvgl/src/widgets/lv_table.c **** 
 597:Middlewares/lvgl/src/widgets/lv_table.c ****     lv_coord_t cell_left = lv_obj_get_style_pad_left(obj, LV_PART_ITEMS);
 598:Middlewares/lvgl/src/widgets/lv_table.c ****     lv_coord_t cell_right = lv_obj_get_style_pad_right(obj, LV_PART_ITEMS);
 599:Middlewares/lvgl/src/widgets/lv_table.c ****     lv_coord_t cell_top = lv_obj_get_style_pad_top(obj, LV_PART_ITEMS);
 600:Middlewares/lvgl/src/widgets/lv_table.c ****     lv_coord_t cell_bottom = lv_obj_get_style_pad_bottom(obj, LV_PART_ITEMS);
 601:Middlewares/lvgl/src/widgets/lv_table.c **** 
 602:Middlewares/lvgl/src/widgets/lv_table.c ****     lv_state_t state_ori = obj->state;
ARM GAS  /tmp/ccTYGLnU.s 			page 12


 603:Middlewares/lvgl/src/widgets/lv_table.c ****     obj->state = LV_STATE_DEFAULT;
 604:Middlewares/lvgl/src/widgets/lv_table.c ****     obj->skip_trans = 1;
 605:Middlewares/lvgl/src/widgets/lv_table.c ****     lv_draw_rect_dsc_t rect_dsc_def;
 606:Middlewares/lvgl/src/widgets/lv_table.c ****     lv_draw_rect_dsc_t rect_dsc_act; /*Passed to the event to modify it*/
 607:Middlewares/lvgl/src/widgets/lv_table.c ****     lv_draw_rect_dsc_init(&rect_dsc_def);
 608:Middlewares/lvgl/src/widgets/lv_table.c ****     lv_obj_init_draw_rect_dsc(obj, LV_PART_ITEMS, &rect_dsc_def);
 609:Middlewares/lvgl/src/widgets/lv_table.c **** 
 610:Middlewares/lvgl/src/widgets/lv_table.c ****     lv_draw_label_dsc_t label_dsc_def;
 611:Middlewares/lvgl/src/widgets/lv_table.c ****     lv_draw_label_dsc_t label_dsc_act;  /*Passed to the event to modify it*/
 612:Middlewares/lvgl/src/widgets/lv_table.c ****     lv_draw_label_dsc_init(&label_dsc_def);
 613:Middlewares/lvgl/src/widgets/lv_table.c ****     lv_obj_init_draw_label_dsc(obj, LV_PART_ITEMS, &label_dsc_def);
 614:Middlewares/lvgl/src/widgets/lv_table.c ****     obj->state = state_ori;
 615:Middlewares/lvgl/src/widgets/lv_table.c ****     obj->skip_trans = 0;
 616:Middlewares/lvgl/src/widgets/lv_table.c **** 
 617:Middlewares/lvgl/src/widgets/lv_table.c ****     uint16_t col;
 618:Middlewares/lvgl/src/widgets/lv_table.c ****     uint16_t row;
 619:Middlewares/lvgl/src/widgets/lv_table.c ****     uint16_t cell = 0;
 620:Middlewares/lvgl/src/widgets/lv_table.c **** 
 621:Middlewares/lvgl/src/widgets/lv_table.c ****     cell_area.y2 = obj->coords.y1 + bg_top - 1 - lv_obj_get_scroll_y(obj) ;
 622:Middlewares/lvgl/src/widgets/lv_table.c ****     lv_coord_t scroll_x = lv_obj_get_scroll_x(obj) ;
 623:Middlewares/lvgl/src/widgets/lv_table.c ****     bool rtl = lv_obj_get_style_base_dir(obj, LV_PART_MAIN) == LV_BASE_DIR_RTL ? true : false;
 624:Middlewares/lvgl/src/widgets/lv_table.c **** 
 625:Middlewares/lvgl/src/widgets/lv_table.c ****     /*Handle custom drawer*/
 626:Middlewares/lvgl/src/widgets/lv_table.c ****     lv_obj_draw_part_dsc_t dsc;
 627:Middlewares/lvgl/src/widgets/lv_table.c ****     lv_obj_draw_dsc_init(&dsc, clip_area);
 628:Middlewares/lvgl/src/widgets/lv_table.c ****     dsc.part = LV_PART_ITEMS;
 629:Middlewares/lvgl/src/widgets/lv_table.c ****     dsc.rect_dsc = &rect_dsc_act;
 630:Middlewares/lvgl/src/widgets/lv_table.c ****     dsc.label_dsc = &label_dsc_act;
 631:Middlewares/lvgl/src/widgets/lv_table.c **** 
 632:Middlewares/lvgl/src/widgets/lv_table.c ****     for(row = 0; row < table->row_cnt; row++) {
 633:Middlewares/lvgl/src/widgets/lv_table.c ****         lv_coord_t h_row = table->row_h[row];
 634:Middlewares/lvgl/src/widgets/lv_table.c **** 
 635:Middlewares/lvgl/src/widgets/lv_table.c ****         cell_area.y1 = cell_area.y2 + 1;
 636:Middlewares/lvgl/src/widgets/lv_table.c ****         cell_area.y2 = cell_area.y1 + h_row - 1;
 637:Middlewares/lvgl/src/widgets/lv_table.c **** 
 638:Middlewares/lvgl/src/widgets/lv_table.c ****         if(cell_area.y1 > clip_area->y2) return;
 639:Middlewares/lvgl/src/widgets/lv_table.c **** 
 640:Middlewares/lvgl/src/widgets/lv_table.c ****         if(rtl) cell_area.x1 = obj->coords.x2 - bg_right - 1 - scroll_x;
 641:Middlewares/lvgl/src/widgets/lv_table.c ****         else cell_area.x2 = obj->coords.x1 + bg_left - 1 - scroll_x;
 642:Middlewares/lvgl/src/widgets/lv_table.c **** 
 643:Middlewares/lvgl/src/widgets/lv_table.c ****         for(col = 0; col < table->col_cnt; col++) {
 644:Middlewares/lvgl/src/widgets/lv_table.c ****             lv_table_cell_ctrl_t ctrl = 0;
 645:Middlewares/lvgl/src/widgets/lv_table.c ****             if(table->cell_data[cell]) ctrl = table->cell_data[cell][0];
 646:Middlewares/lvgl/src/widgets/lv_table.c **** 
 647:Middlewares/lvgl/src/widgets/lv_table.c ****             if(rtl) {
 648:Middlewares/lvgl/src/widgets/lv_table.c ****                 cell_area.x2 = cell_area.x1 - 1;
 649:Middlewares/lvgl/src/widgets/lv_table.c ****                 cell_area.x1 = cell_area.x2 - table->col_w[col] + 1;
 650:Middlewares/lvgl/src/widgets/lv_table.c ****             }
 651:Middlewares/lvgl/src/widgets/lv_table.c ****             else {
 652:Middlewares/lvgl/src/widgets/lv_table.c ****                 cell_area.x1 = cell_area.x2 + 1;
 653:Middlewares/lvgl/src/widgets/lv_table.c ****                 cell_area.x2 = cell_area.x1 + table->col_w[col] - 1;
 654:Middlewares/lvgl/src/widgets/lv_table.c ****             }
 655:Middlewares/lvgl/src/widgets/lv_table.c **** 
 656:Middlewares/lvgl/src/widgets/lv_table.c ****             uint16_t col_merge = 0;
 657:Middlewares/lvgl/src/widgets/lv_table.c ****             for(col_merge = 0; col_merge + col < table->col_cnt - 1; col_merge++) {
 658:Middlewares/lvgl/src/widgets/lv_table.c ****                 if(table->cell_data[cell + col_merge]) {
 659:Middlewares/lvgl/src/widgets/lv_table.c ****                     char * next_cell_data = table->cell_data[cell + col_merge];
ARM GAS  /tmp/ccTYGLnU.s 			page 13


 660:Middlewares/lvgl/src/widgets/lv_table.c ****                     if(next_cell_data) ctrl = next_cell_data[0];
 661:Middlewares/lvgl/src/widgets/lv_table.c ****                     if(ctrl & LV_TABLE_CELL_CTRL_MERGE_RIGHT)
 662:Middlewares/lvgl/src/widgets/lv_table.c ****                         if(rtl) cell_area.x1 -= table->col_w[col + col_merge + 1];
 663:Middlewares/lvgl/src/widgets/lv_table.c ****                         else cell_area.x2 += table->col_w[col + col_merge + 1];
 664:Middlewares/lvgl/src/widgets/lv_table.c ****                     else {
 665:Middlewares/lvgl/src/widgets/lv_table.c ****                         break;
 666:Middlewares/lvgl/src/widgets/lv_table.c ****                     }
 667:Middlewares/lvgl/src/widgets/lv_table.c ****                 }
 668:Middlewares/lvgl/src/widgets/lv_table.c ****                 else {
 669:Middlewares/lvgl/src/widgets/lv_table.c ****                     break;
 670:Middlewares/lvgl/src/widgets/lv_table.c ****                 }
 671:Middlewares/lvgl/src/widgets/lv_table.c ****             }
 672:Middlewares/lvgl/src/widgets/lv_table.c **** 
 673:Middlewares/lvgl/src/widgets/lv_table.c ****             if(cell_area.y2 < clip_area->y1) {
 674:Middlewares/lvgl/src/widgets/lv_table.c ****                 cell += col_merge + 1;
 675:Middlewares/lvgl/src/widgets/lv_table.c ****                 col += col_merge;
 676:Middlewares/lvgl/src/widgets/lv_table.c ****                 continue;
 677:Middlewares/lvgl/src/widgets/lv_table.c ****             }
 678:Middlewares/lvgl/src/widgets/lv_table.c **** 
 679:Middlewares/lvgl/src/widgets/lv_table.c ****             /*Expand the cell area with a half border to avoid drawing 2 borders next to each other
 680:Middlewares/lvgl/src/widgets/lv_table.c ****             lv_area_t cell_area_border;
 681:Middlewares/lvgl/src/widgets/lv_table.c ****             lv_area_copy(&cell_area_border, &cell_area);
 682:Middlewares/lvgl/src/widgets/lv_table.c ****             if((rect_dsc_def.border_side & LV_BORDER_SIDE_LEFT) && cell_area_border.x1 > obj->coord
 683:Middlewares/lvgl/src/widgets/lv_table.c ****                 cell_area_border.x1 -= rect_dsc_def.border_width / 2;
 684:Middlewares/lvgl/src/widgets/lv_table.c ****             }
 685:Middlewares/lvgl/src/widgets/lv_table.c ****             if((rect_dsc_def.border_side & LV_BORDER_SIDE_TOP) && cell_area_border.y1 > obj->coords
 686:Middlewares/lvgl/src/widgets/lv_table.c ****                 cell_area_border.y1 -= rect_dsc_def.border_width / 2;
 687:Middlewares/lvgl/src/widgets/lv_table.c ****             }
 688:Middlewares/lvgl/src/widgets/lv_table.c ****             if((rect_dsc_def.border_side & LV_BORDER_SIDE_RIGHT) && cell_area_border.x2 < obj->coor
 689:Middlewares/lvgl/src/widgets/lv_table.c ****                 cell_area_border.x2 += rect_dsc_def.border_width / 2 + (rect_dsc_def.border_width &
 690:Middlewares/lvgl/src/widgets/lv_table.c ****             }
 691:Middlewares/lvgl/src/widgets/lv_table.c ****             if((rect_dsc_def.border_side & LV_BORDER_SIDE_BOTTOM) &&
 692:Middlewares/lvgl/src/widgets/lv_table.c ****                     cell_area_border.y2 < obj->coords.y2 - bg_bottom - 1) {
 693:Middlewares/lvgl/src/widgets/lv_table.c ****                 cell_area_border.y2 += rect_dsc_def.border_width / 2 + (rect_dsc_def.border_width &
 694:Middlewares/lvgl/src/widgets/lv_table.c ****             }
 695:Middlewares/lvgl/src/widgets/lv_table.c **** 
 696:Middlewares/lvgl/src/widgets/lv_table.c ****             lv_state_t cell_state = LV_STATE_DEFAULT;
 697:Middlewares/lvgl/src/widgets/lv_table.c ****             if(row == table->row_act && col == table->col_act) {
 698:Middlewares/lvgl/src/widgets/lv_table.c ****                 if(!(obj->state & LV_STATE_SCROLLED) && (obj->state & LV_STATE_PRESSED)) cell_state
 699:Middlewares/lvgl/src/widgets/lv_table.c ****                 if(obj->state & LV_STATE_FOCUSED) cell_state |= LV_STATE_FOCUSED;
 700:Middlewares/lvgl/src/widgets/lv_table.c ****                 if(obj->state & LV_STATE_FOCUS_KEY) cell_state |= LV_STATE_FOCUS_KEY;
 701:Middlewares/lvgl/src/widgets/lv_table.c ****                 if(obj->state & LV_STATE_EDITED) cell_state |= LV_STATE_EDITED;
 702:Middlewares/lvgl/src/widgets/lv_table.c ****             }
 703:Middlewares/lvgl/src/widgets/lv_table.c **** 
 704:Middlewares/lvgl/src/widgets/lv_table.c ****             /*Set up the draw descriptors*/
 705:Middlewares/lvgl/src/widgets/lv_table.c ****             if(cell_state == LV_STATE_DEFAULT) {
 706:Middlewares/lvgl/src/widgets/lv_table.c ****                 lv_memcpy(&rect_dsc_act, &rect_dsc_def, sizeof(lv_draw_rect_dsc_t));
 707:Middlewares/lvgl/src/widgets/lv_table.c ****                 lv_memcpy(&label_dsc_act, &label_dsc_def, sizeof(lv_draw_label_dsc_t));
 708:Middlewares/lvgl/src/widgets/lv_table.c ****             }
 709:Middlewares/lvgl/src/widgets/lv_table.c ****             /*In other cases get the styles directly without caching them*/
 710:Middlewares/lvgl/src/widgets/lv_table.c ****             else {
 711:Middlewares/lvgl/src/widgets/lv_table.c ****                 obj->state = cell_state;
 712:Middlewares/lvgl/src/widgets/lv_table.c ****                 obj->skip_trans = 1;
 713:Middlewares/lvgl/src/widgets/lv_table.c ****                 lv_draw_rect_dsc_init(&rect_dsc_act);
 714:Middlewares/lvgl/src/widgets/lv_table.c ****                 lv_draw_label_dsc_init(&label_dsc_act);
 715:Middlewares/lvgl/src/widgets/lv_table.c ****                 lv_obj_init_draw_rect_dsc(obj, LV_PART_ITEMS, &rect_dsc_act);
 716:Middlewares/lvgl/src/widgets/lv_table.c ****                 lv_obj_init_draw_label_dsc(obj, LV_PART_ITEMS, &label_dsc_act);
ARM GAS  /tmp/ccTYGLnU.s 			page 14


 717:Middlewares/lvgl/src/widgets/lv_table.c ****                 obj->state = state_ori;
 718:Middlewares/lvgl/src/widgets/lv_table.c ****                 obj->skip_trans = 0;
 719:Middlewares/lvgl/src/widgets/lv_table.c ****             }
 720:Middlewares/lvgl/src/widgets/lv_table.c **** 
 721:Middlewares/lvgl/src/widgets/lv_table.c ****             dsc.draw_area = &cell_area_border;
 722:Middlewares/lvgl/src/widgets/lv_table.c ****             dsc.id = row * table->col_cnt + col;
 723:Middlewares/lvgl/src/widgets/lv_table.c ****             lv_event_send(obj, LV_EVENT_DRAW_PART_BEGIN, &dsc);
 724:Middlewares/lvgl/src/widgets/lv_table.c **** 
 725:Middlewares/lvgl/src/widgets/lv_table.c ****             lv_draw_rect(&cell_area_border, clip_area, &rect_dsc_act);
 726:Middlewares/lvgl/src/widgets/lv_table.c **** 
 727:Middlewares/lvgl/src/widgets/lv_table.c ****             if(table->cell_data[cell]) {
 728:Middlewares/lvgl/src/widgets/lv_table.c ****                 txt_area.x1 = cell_area.x1 + cell_left;
 729:Middlewares/lvgl/src/widgets/lv_table.c ****                 txt_area.x2 = cell_area.x2 - cell_right;
 730:Middlewares/lvgl/src/widgets/lv_table.c ****                 txt_area.y1 = cell_area.y1 + cell_top;
 731:Middlewares/lvgl/src/widgets/lv_table.c ****                 txt_area.y2 = cell_area.y2 - cell_bottom;
 732:Middlewares/lvgl/src/widgets/lv_table.c **** 
 733:Middlewares/lvgl/src/widgets/lv_table.c ****                 /*Align the content to the middle if not cropped*/
 734:Middlewares/lvgl/src/widgets/lv_table.c ****                 bool crop = ctrl & LV_TABLE_CELL_CTRL_TEXT_CROP ? true : false;
 735:Middlewares/lvgl/src/widgets/lv_table.c ****                 if(crop) txt_flags = LV_TEXT_FLAG_EXPAND;
 736:Middlewares/lvgl/src/widgets/lv_table.c ****                 else txt_flags = LV_TEXT_FLAG_NONE;
 737:Middlewares/lvgl/src/widgets/lv_table.c **** 
 738:Middlewares/lvgl/src/widgets/lv_table.c ****                 lv_txt_get_size(&txt_size, table->cell_data[cell] + 1, label_dsc_def.font,
 739:Middlewares/lvgl/src/widgets/lv_table.c ****                         label_dsc_act.letter_space, label_dsc_act.line_space,
 740:Middlewares/lvgl/src/widgets/lv_table.c ****                         lv_area_get_width(&txt_area), txt_flags);
 741:Middlewares/lvgl/src/widgets/lv_table.c **** 
 742:Middlewares/lvgl/src/widgets/lv_table.c ****                 /*Align the content to the middle if not cropped*/
 743:Middlewares/lvgl/src/widgets/lv_table.c ****                 if(!crop) {
 744:Middlewares/lvgl/src/widgets/lv_table.c ****                     txt_area.y1 = cell_area.y1 + h_row / 2 - txt_size.y / 2;
 745:Middlewares/lvgl/src/widgets/lv_table.c ****                     txt_area.y2 = cell_area.y1 + h_row / 2 + txt_size.y / 2;
 746:Middlewares/lvgl/src/widgets/lv_table.c ****                 }
 747:Middlewares/lvgl/src/widgets/lv_table.c **** 
 748:Middlewares/lvgl/src/widgets/lv_table.c ****                 lv_area_t label_mask;
 749:Middlewares/lvgl/src/widgets/lv_table.c ****                 bool label_mask_ok;
 750:Middlewares/lvgl/src/widgets/lv_table.c ****                 label_mask_ok = _lv_area_intersect(&label_mask, clip_area, &cell_area);
 751:Middlewares/lvgl/src/widgets/lv_table.c ****                 if(label_mask_ok) {
 752:Middlewares/lvgl/src/widgets/lv_table.c ****                     lv_draw_label(&txt_area, &label_mask, &label_dsc_act, table->cell_data[cell] + 
 753:Middlewares/lvgl/src/widgets/lv_table.c ****                 }
 754:Middlewares/lvgl/src/widgets/lv_table.c ****             }
 755:Middlewares/lvgl/src/widgets/lv_table.c **** 
 756:Middlewares/lvgl/src/widgets/lv_table.c ****             lv_event_send(obj, LV_EVENT_DRAW_PART_END, &dsc);
 757:Middlewares/lvgl/src/widgets/lv_table.c **** 
 758:Middlewares/lvgl/src/widgets/lv_table.c ****             cell += col_merge + 1;
 759:Middlewares/lvgl/src/widgets/lv_table.c ****             col += col_merge;
 760:Middlewares/lvgl/src/widgets/lv_table.c ****         }
 761:Middlewares/lvgl/src/widgets/lv_table.c ****     }
 762:Middlewares/lvgl/src/widgets/lv_table.c **** }
 763:Middlewares/lvgl/src/widgets/lv_table.c **** 
 764:Middlewares/lvgl/src/widgets/lv_table.c **** static void refr_size(lv_obj_t * obj, uint32_t strat_row)
 765:Middlewares/lvgl/src/widgets/lv_table.c **** {
 766:Middlewares/lvgl/src/widgets/lv_table.c ****     lv_table_t * table = (lv_table_t *)obj;
 767:Middlewares/lvgl/src/widgets/lv_table.c **** 
 768:Middlewares/lvgl/src/widgets/lv_table.c ****     uint32_t i;
 769:Middlewares/lvgl/src/widgets/lv_table.c **** 
 770:Middlewares/lvgl/src/widgets/lv_table.c ****     lv_coord_t cell_left = lv_obj_get_style_pad_left(obj, LV_PART_ITEMS);
 771:Middlewares/lvgl/src/widgets/lv_table.c ****     lv_coord_t cell_right = lv_obj_get_style_pad_right(obj, LV_PART_ITEMS);
 772:Middlewares/lvgl/src/widgets/lv_table.c ****     lv_coord_t cell_top = lv_obj_get_style_pad_top(obj, LV_PART_ITEMS);
 773:Middlewares/lvgl/src/widgets/lv_table.c ****     lv_coord_t cell_bottom = lv_obj_get_style_pad_bottom(obj, LV_PART_ITEMS);
ARM GAS  /tmp/ccTYGLnU.s 			page 15


 774:Middlewares/lvgl/src/widgets/lv_table.c **** 
 775:Middlewares/lvgl/src/widgets/lv_table.c ****     lv_coord_t letter_space = lv_obj_get_style_text_letter_space(obj, LV_PART_ITEMS);
 776:Middlewares/lvgl/src/widgets/lv_table.c ****     lv_coord_t line_space = lv_obj_get_style_text_line_space(obj, LV_PART_ITEMS);
 777:Middlewares/lvgl/src/widgets/lv_table.c ****     const lv_font_t * font = lv_obj_get_style_text_font(obj, LV_PART_ITEMS);
 778:Middlewares/lvgl/src/widgets/lv_table.c **** 
 779:Middlewares/lvgl/src/widgets/lv_table.c ****     lv_coord_t minh = lv_obj_get_style_min_height(obj, LV_PART_ITEMS);
 780:Middlewares/lvgl/src/widgets/lv_table.c ****     lv_coord_t maxh = lv_obj_get_style_max_height(obj, LV_PART_ITEMS);
 781:Middlewares/lvgl/src/widgets/lv_table.c **** 
 782:Middlewares/lvgl/src/widgets/lv_table.c ****     for(i = strat_row; i < table->row_cnt; i++) {
 783:Middlewares/lvgl/src/widgets/lv_table.c ****         table->row_h[i] = get_row_height(obj, i, font, letter_space, line_space,
 784:Middlewares/lvgl/src/widgets/lv_table.c ****                                        cell_left, cell_right, cell_top, cell_bottom);
 785:Middlewares/lvgl/src/widgets/lv_table.c ****         table->row_h[i] = LV_CLAMP(minh, table->row_h[i], maxh);
 786:Middlewares/lvgl/src/widgets/lv_table.c ****     }
 787:Middlewares/lvgl/src/widgets/lv_table.c **** 
 788:Middlewares/lvgl/src/widgets/lv_table.c ****     lv_obj_refresh_self_size(obj) ;
 789:Middlewares/lvgl/src/widgets/lv_table.c **** }
 790:Middlewares/lvgl/src/widgets/lv_table.c **** 
 791:Middlewares/lvgl/src/widgets/lv_table.c **** static lv_coord_t get_row_height(lv_obj_t * obj, uint16_t row_id, const lv_font_t * font,
 792:Middlewares/lvgl/src/widgets/lv_table.c ****                                  lv_coord_t letter_space, lv_coord_t line_space,
 793:Middlewares/lvgl/src/widgets/lv_table.c ****                                  lv_coord_t cell_left, lv_coord_t cell_right, lv_coord_t cell_top, 
 794:Middlewares/lvgl/src/widgets/lv_table.c **** {
  27              		.loc 1 794 1 view -0
  28              		.cfi_startproc
  29              		@ args = 20, pretend = 0, frame = 48
  30              		@ frame_needed = 0, uses_anonymous_args = 0
  31              		.loc 1 794 1 is_stmt 0 view .LVU1
  32 0000 2DE9F04F 		push	{r4, r5, r6, r7, r8, r9, r10, fp, lr}
  33              	.LCFI0:
  34              		.cfi_def_cfa_offset 36
  35              		.cfi_offset 4, -36
  36              		.cfi_offset 5, -32
  37              		.cfi_offset 6, -28
  38              		.cfi_offset 7, -24
  39              		.cfi_offset 8, -20
  40              		.cfi_offset 9, -16
  41              		.cfi_offset 10, -12
  42              		.cfi_offset 11, -8
  43              		.cfi_offset 14, -4
  44 0004 91B0     		sub	sp, sp, #68
  45              	.LCFI1:
  46              		.cfi_def_cfa_offset 104
  47 0006 8046     		mov	r8, r0
  48 0008 0592     		str	r2, [sp, #20]
  49 000a 0A93     		str	r3, [sp, #40]
  50 000c BDF96830 		ldrsh	r3, [sp, #104]
  51              	.LVL1:
  52              		.loc 1 794 1 view .LVU2
  53 0010 0B93     		str	r3, [sp, #44]
  54 0012 BDF96C30 		ldrsh	r3, [sp, #108]
  55 0016 0C93     		str	r3, [sp, #48]
  56 0018 BDF97030 		ldrsh	r3, [sp, #112]
  57 001c 0D93     		str	r3, [sp, #52]
  58 001e BDF97430 		ldrsh	r3, [sp, #116]
  59 0022 0693     		str	r3, [sp, #24]
  60 0024 BDF97800 		ldrsh	r0, [sp, #120]
  61              	.LVL2:
  62              		.loc 1 794 1 view .LVU3
ARM GAS  /tmp/ccTYGLnU.s 			page 16


  63 0028 0790     		str	r0, [sp, #28]
 795:Middlewares/lvgl/src/widgets/lv_table.c ****     lv_table_t * table = (lv_table_t *)obj;
  64              		.loc 1 795 5 is_stmt 1 view .LVU4
  65              	.LVL3:
 796:Middlewares/lvgl/src/widgets/lv_table.c ****     lv_point_t txt_size;
  66              		.loc 1 796 5 view .LVU5
 797:Middlewares/lvgl/src/widgets/lv_table.c ****     lv_coord_t txt_w;
  67              		.loc 1 797 5 view .LVU6
 798:Middlewares/lvgl/src/widgets/lv_table.c **** 
 799:Middlewares/lvgl/src/widgets/lv_table.c ****     uint16_t row_start = row_id * table->col_cnt;
  68              		.loc 1 799 5 view .LVU7
  69              		.loc 1 799 40 is_stmt 0 view .LVU8
  70 002a B8F82490 		ldrh	r9, [r8, #36]
  71              		.loc 1 799 14 view .LVU9
  72 002e 01FB09F9 		mul	r9, r1, r9
  73 0032 1FFA89F9 		uxth	r9, r9
  74              	.LVL4:
 800:Middlewares/lvgl/src/widgets/lv_table.c ****     uint16_t cell;
  75              		.loc 1 800 5 is_stmt 1 view .LVU10
 801:Middlewares/lvgl/src/widgets/lv_table.c ****     uint16_t col;
  76              		.loc 1 801 5 view .LVU11
 802:Middlewares/lvgl/src/widgets/lv_table.c ****     lv_coord_t h_max = lv_font_get_line_height(font) + cell_top + cell_bottom;
  77              		.loc 1 802 5 view .LVU12
  78              	.LBB86:
  79              	.LBI86:
  80              		.file 2 "Middlewares/lvgl/src/widgets/../core/../misc/../font/lv_font.h"
   1:Middlewares/lvgl/src/widgets/../core/../misc/../font/lv_font.h **** /**
   2:Middlewares/lvgl/src/widgets/../core/../misc/../font/lv_font.h ****  * @file lv_font.h
   3:Middlewares/lvgl/src/widgets/../core/../misc/../font/lv_font.h ****  *
   4:Middlewares/lvgl/src/widgets/../core/../misc/../font/lv_font.h ****  */
   5:Middlewares/lvgl/src/widgets/../core/../misc/../font/lv_font.h **** 
   6:Middlewares/lvgl/src/widgets/../core/../misc/../font/lv_font.h **** #ifndef LV_FONT_H
   7:Middlewares/lvgl/src/widgets/../core/../misc/../font/lv_font.h **** #define LV_FONT_H
   8:Middlewares/lvgl/src/widgets/../core/../misc/../font/lv_font.h **** 
   9:Middlewares/lvgl/src/widgets/../core/../misc/../font/lv_font.h **** #ifdef __cplusplus
  10:Middlewares/lvgl/src/widgets/../core/../misc/../font/lv_font.h **** extern "C" {
  11:Middlewares/lvgl/src/widgets/../core/../misc/../font/lv_font.h **** #endif
  12:Middlewares/lvgl/src/widgets/../core/../misc/../font/lv_font.h **** 
  13:Middlewares/lvgl/src/widgets/../core/../misc/../font/lv_font.h **** /*********************
  14:Middlewares/lvgl/src/widgets/../core/../misc/../font/lv_font.h ****  *      INCLUDES
  15:Middlewares/lvgl/src/widgets/../core/../misc/../font/lv_font.h ****  *********************/
  16:Middlewares/lvgl/src/widgets/../core/../misc/../font/lv_font.h **** #include "../lv_conf_internal.h"
  17:Middlewares/lvgl/src/widgets/../core/../misc/../font/lv_font.h **** #include <stdint.h>
  18:Middlewares/lvgl/src/widgets/../core/../misc/../font/lv_font.h **** #include <stddef.h>
  19:Middlewares/lvgl/src/widgets/../core/../misc/../font/lv_font.h **** #include <stdbool.h>
  20:Middlewares/lvgl/src/widgets/../core/../misc/../font/lv_font.h **** 
  21:Middlewares/lvgl/src/widgets/../core/../misc/../font/lv_font.h **** #include "lv_symbol_def.h"
  22:Middlewares/lvgl/src/widgets/../core/../misc/../font/lv_font.h **** #include "../misc/lv_area.h"
  23:Middlewares/lvgl/src/widgets/../core/../misc/../font/lv_font.h **** 
  24:Middlewares/lvgl/src/widgets/../core/../misc/../font/lv_font.h **** /*********************
  25:Middlewares/lvgl/src/widgets/../core/../misc/../font/lv_font.h ****  *      DEFINES
  26:Middlewares/lvgl/src/widgets/../core/../misc/../font/lv_font.h ****  *********************/
  27:Middlewares/lvgl/src/widgets/../core/../misc/../font/lv_font.h **** 
  28:Middlewares/lvgl/src/widgets/../core/../misc/../font/lv_font.h **** /**********************
  29:Middlewares/lvgl/src/widgets/../core/../misc/../font/lv_font.h ****  *      TYPEDEFS
  30:Middlewares/lvgl/src/widgets/../core/../misc/../font/lv_font.h ****  **********************/
  31:Middlewares/lvgl/src/widgets/../core/../misc/../font/lv_font.h **** 
ARM GAS  /tmp/ccTYGLnU.s 			page 17


  32:Middlewares/lvgl/src/widgets/../core/../misc/../font/lv_font.h **** /*------------------
  33:Middlewares/lvgl/src/widgets/../core/../misc/../font/lv_font.h ****  * General types
  34:Middlewares/lvgl/src/widgets/../core/../misc/../font/lv_font.h ****  *-----------------*/
  35:Middlewares/lvgl/src/widgets/../core/../misc/../font/lv_font.h **** 
  36:Middlewares/lvgl/src/widgets/../core/../misc/../font/lv_font.h **** /** Describes the properties of a glyph.*/
  37:Middlewares/lvgl/src/widgets/../core/../misc/../font/lv_font.h **** typedef struct {
  38:Middlewares/lvgl/src/widgets/../core/../misc/../font/lv_font.h ****     uint16_t adv_w; /**< The glyph needs this space. Draw the next glyph after this width.*/
  39:Middlewares/lvgl/src/widgets/../core/../misc/../font/lv_font.h ****     uint16_t box_w;  /**< Width of the glyph's bounding box*/
  40:Middlewares/lvgl/src/widgets/../core/../misc/../font/lv_font.h ****     uint16_t box_h;  /**< Height of the glyph's bounding box*/
  41:Middlewares/lvgl/src/widgets/../core/../misc/../font/lv_font.h ****     int16_t ofs_x;   /**< x offset of the bounding box*/
  42:Middlewares/lvgl/src/widgets/../core/../misc/../font/lv_font.h ****     int16_t ofs_y;  /**< y offset of the bounding box*/
  43:Middlewares/lvgl/src/widgets/../core/../misc/../font/lv_font.h ****     uint8_t bpp;   /**< Bit-per-pixel: 1, 2, 4, 8*/
  44:Middlewares/lvgl/src/widgets/../core/../misc/../font/lv_font.h **** } lv_font_glyph_dsc_t;
  45:Middlewares/lvgl/src/widgets/../core/../misc/../font/lv_font.h **** 
  46:Middlewares/lvgl/src/widgets/../core/../misc/../font/lv_font.h **** /** The bitmaps might be upscaled by 3 to achieve subpixel rendering.*/
  47:Middlewares/lvgl/src/widgets/../core/../misc/../font/lv_font.h **** enum {
  48:Middlewares/lvgl/src/widgets/../core/../misc/../font/lv_font.h ****     LV_FONT_SUBPX_NONE,
  49:Middlewares/lvgl/src/widgets/../core/../misc/../font/lv_font.h ****     LV_FONT_SUBPX_HOR,
  50:Middlewares/lvgl/src/widgets/../core/../misc/../font/lv_font.h ****     LV_FONT_SUBPX_VER,
  51:Middlewares/lvgl/src/widgets/../core/../misc/../font/lv_font.h ****     LV_FONT_SUBPX_BOTH,
  52:Middlewares/lvgl/src/widgets/../core/../misc/../font/lv_font.h **** };
  53:Middlewares/lvgl/src/widgets/../core/../misc/../font/lv_font.h **** 
  54:Middlewares/lvgl/src/widgets/../core/../misc/../font/lv_font.h **** typedef uint8_t lv_font_subpx_t;
  55:Middlewares/lvgl/src/widgets/../core/../misc/../font/lv_font.h **** 
  56:Middlewares/lvgl/src/widgets/../core/../misc/../font/lv_font.h **** struct _lv_font_t;
  57:Middlewares/lvgl/src/widgets/../core/../misc/../font/lv_font.h **** 
  58:Middlewares/lvgl/src/widgets/../core/../misc/../font/lv_font.h **** /** Describe the properties of a font*/
  59:Middlewares/lvgl/src/widgets/../core/../misc/../font/lv_font.h **** typedef struct _lv_font_t {
  60:Middlewares/lvgl/src/widgets/../core/../misc/../font/lv_font.h ****     /** Get a glyph's descriptor from a font*/
  61:Middlewares/lvgl/src/widgets/../core/../misc/../font/lv_font.h ****     bool (*get_glyph_dsc)(const struct _lv_font_t *, lv_font_glyph_dsc_t *, uint32_t letter, uint32
  62:Middlewares/lvgl/src/widgets/../core/../misc/../font/lv_font.h **** 
  63:Middlewares/lvgl/src/widgets/../core/../misc/../font/lv_font.h ****     /** Get a glyph's bitmap from a font*/
  64:Middlewares/lvgl/src/widgets/../core/../misc/../font/lv_font.h ****     const uint8_t * (*get_glyph_bitmap)(const struct _lv_font_t *, uint32_t);
  65:Middlewares/lvgl/src/widgets/../core/../misc/../font/lv_font.h **** 
  66:Middlewares/lvgl/src/widgets/../core/../misc/../font/lv_font.h ****     /*Pointer to the font in a font pack (must have the same line height)*/
  67:Middlewares/lvgl/src/widgets/../core/../misc/../font/lv_font.h ****     lv_coord_t line_height;         /**< The real line height where any text fits*/
  68:Middlewares/lvgl/src/widgets/../core/../misc/../font/lv_font.h ****     lv_coord_t base_line;           /**< Base line measured from the top of the line_height*/
  69:Middlewares/lvgl/src/widgets/../core/../misc/../font/lv_font.h ****     uint8_t subpx  : 2;             /**< An element of `lv_font_subpx_t`*/
  70:Middlewares/lvgl/src/widgets/../core/../misc/../font/lv_font.h **** 
  71:Middlewares/lvgl/src/widgets/../core/../misc/../font/lv_font.h ****     int8_t underline_position;      /**< Distance between the top of the underline and base line (<
  72:Middlewares/lvgl/src/widgets/../core/../misc/../font/lv_font.h ****     int8_t underline_thickness;     /**< Thickness of the underline*/
  73:Middlewares/lvgl/src/widgets/../core/../misc/../font/lv_font.h **** 
  74:Middlewares/lvgl/src/widgets/../core/../misc/../font/lv_font.h ****     const void * dsc;                     /**< Store implementation specific or run_time data or ca
  75:Middlewares/lvgl/src/widgets/../core/../misc/../font/lv_font.h **** #if LV_USE_USER_DATA
  76:Middlewares/lvgl/src/widgets/../core/../misc/../font/lv_font.h ****     void * user_data;               /**< Custom user data for font.*/
  77:Middlewares/lvgl/src/widgets/../core/../misc/../font/lv_font.h **** #endif
  78:Middlewares/lvgl/src/widgets/../core/../misc/../font/lv_font.h **** 
  79:Middlewares/lvgl/src/widgets/../core/../misc/../font/lv_font.h **** } lv_font_t;
  80:Middlewares/lvgl/src/widgets/../core/../misc/../font/lv_font.h **** 
  81:Middlewares/lvgl/src/widgets/../core/../misc/../font/lv_font.h **** /**********************
  82:Middlewares/lvgl/src/widgets/../core/../misc/../font/lv_font.h ****  * GLOBAL PROTOTYPES
  83:Middlewares/lvgl/src/widgets/../core/../misc/../font/lv_font.h ****  **********************/
  84:Middlewares/lvgl/src/widgets/../core/../misc/../font/lv_font.h **** 
  85:Middlewares/lvgl/src/widgets/../core/../misc/../font/lv_font.h **** /**
  86:Middlewares/lvgl/src/widgets/../core/../misc/../font/lv_font.h ****  * Return with the bitmap of a font.
  87:Middlewares/lvgl/src/widgets/../core/../misc/../font/lv_font.h ****  * @param font_p pointer to a font
  88:Middlewares/lvgl/src/widgets/../core/../misc/../font/lv_font.h ****  * @param letter an UNICODE character code
ARM GAS  /tmp/ccTYGLnU.s 			page 18


  89:Middlewares/lvgl/src/widgets/../core/../misc/../font/lv_font.h ****  * @return pointer to the bitmap of the letter
  90:Middlewares/lvgl/src/widgets/../core/../misc/../font/lv_font.h ****  */
  91:Middlewares/lvgl/src/widgets/../core/../misc/../font/lv_font.h **** const uint8_t * lv_font_get_glyph_bitmap(const lv_font_t * font_p, uint32_t letter);
  92:Middlewares/lvgl/src/widgets/../core/../misc/../font/lv_font.h **** 
  93:Middlewares/lvgl/src/widgets/../core/../misc/../font/lv_font.h **** /**
  94:Middlewares/lvgl/src/widgets/../core/../misc/../font/lv_font.h ****  * Get the descriptor of a glyph
  95:Middlewares/lvgl/src/widgets/../core/../misc/../font/lv_font.h ****  * @param font_p pointer to font
  96:Middlewares/lvgl/src/widgets/../core/../misc/../font/lv_font.h ****  * @param dsc_out store the result descriptor here
  97:Middlewares/lvgl/src/widgets/../core/../misc/../font/lv_font.h ****  * @param letter an UNICODE letter code
  98:Middlewares/lvgl/src/widgets/../core/../misc/../font/lv_font.h ****  * @return true: descriptor is successfully loaded into `dsc_out`.
  99:Middlewares/lvgl/src/widgets/../core/../misc/../font/lv_font.h ****  *         false: the letter was not found, no data is loaded to `dsc_out`
 100:Middlewares/lvgl/src/widgets/../core/../misc/../font/lv_font.h ****  */
 101:Middlewares/lvgl/src/widgets/../core/../misc/../font/lv_font.h **** bool lv_font_get_glyph_dsc(const lv_font_t * font_p, lv_font_glyph_dsc_t * dsc_out, uint32_t letter
 102:Middlewares/lvgl/src/widgets/../core/../misc/../font/lv_font.h ****                            uint32_t letter_next);
 103:Middlewares/lvgl/src/widgets/../core/../misc/../font/lv_font.h **** 
 104:Middlewares/lvgl/src/widgets/../core/../misc/../font/lv_font.h **** /**
 105:Middlewares/lvgl/src/widgets/../core/../misc/../font/lv_font.h ****  * Get the width of a glyph with kerning
 106:Middlewares/lvgl/src/widgets/../core/../misc/../font/lv_font.h ****  * @param font pointer to a font
 107:Middlewares/lvgl/src/widgets/../core/../misc/../font/lv_font.h ****  * @param letter an UNICODE letter
 108:Middlewares/lvgl/src/widgets/../core/../misc/../font/lv_font.h ****  * @param letter_next the next letter after `letter`. Used for kerning
 109:Middlewares/lvgl/src/widgets/../core/../misc/../font/lv_font.h ****  * @return the width of the glyph
 110:Middlewares/lvgl/src/widgets/../core/../misc/../font/lv_font.h ****  */
 111:Middlewares/lvgl/src/widgets/../core/../misc/../font/lv_font.h **** uint16_t lv_font_get_glyph_width(const lv_font_t * font, uint32_t letter, uint32_t letter_next);
 112:Middlewares/lvgl/src/widgets/../core/../misc/../font/lv_font.h **** 
 113:Middlewares/lvgl/src/widgets/../core/../misc/../font/lv_font.h **** /**
 114:Middlewares/lvgl/src/widgets/../core/../misc/../font/lv_font.h ****  * Get the line height of a font. All characters fit into this height
 115:Middlewares/lvgl/src/widgets/../core/../misc/../font/lv_font.h ****  * @param font_p pointer to a font
 116:Middlewares/lvgl/src/widgets/../core/../misc/../font/lv_font.h ****  * @return the height of a font
 117:Middlewares/lvgl/src/widgets/../core/../misc/../font/lv_font.h ****  */
 118:Middlewares/lvgl/src/widgets/../core/../misc/../font/lv_font.h **** static inline lv_coord_t lv_font_get_line_height(const lv_font_t * font_p)
  81              		.loc 2 118 26 view .LVU13
  82              	.LBB87:
 119:Middlewares/lvgl/src/widgets/../core/../misc/../font/lv_font.h **** {
 120:Middlewares/lvgl/src/widgets/../core/../misc/../font/lv_font.h ****     return font_p->line_height;
  83              		.loc 2 120 5 view .LVU14
  84              		.loc 2 120 18 is_stmt 0 view .LVU15
  85 0036 B2F90870 		ldrsh	r7, [r2, #8]
  86              	.LVL5:
  87              		.loc 2 120 18 view .LVU16
  88              	.LBE87:
  89              	.LBE86:
  90              		.loc 1 802 24 view .LVU17
  91 003a BFB2     		uxth	r7, r7
  92              		.loc 1 802 54 view .LVU18
  93 003c 9BB2     		uxth	r3, r3
  94 003e 0893     		str	r3, [sp, #32]
  95 0040 1F44     		add	r7, r7, r3
  96 0042 BFB2     		uxth	r7, r7
  97              		.loc 1 802 65 view .LVU19
  98 0044 83B2     		uxth	r3, r0
  99 0046 0993     		str	r3, [sp, #36]
 100 0048 1F44     		add	r7, r7, r3
 101              		.loc 1 802 16 view .LVU20
 102 004a 3FB2     		sxth	r7, r7
 103              	.LVL6:
 803:Middlewares/lvgl/src/widgets/lv_table.c **** 
 804:Middlewares/lvgl/src/widgets/lv_table.c ****     for(cell = row_start, col = 0; cell < row_start + table->col_cnt; cell++, col++) {
ARM GAS  /tmp/ccTYGLnU.s 			page 19


 104              		.loc 1 804 5 is_stmt 1 view .LVU21
 105              		.loc 1 804 14 is_stmt 0 view .LVU22
 106 004c 4E46     		mov	r6, r9
 107              		.loc 1 804 31 view .LVU23
 108 004e 0025     		movs	r5, #0
 109              		.loc 1 804 5 view .LVU24
 110 0050 18E0     		b	.L2
 111              	.LVL7:
 112              	.L5:
 113              	.LBB88:
 805:Middlewares/lvgl/src/widgets/lv_table.c ****         if(table->cell_data[cell] != NULL) {
 806:Middlewares/lvgl/src/widgets/lv_table.c ****             txt_w              = table->col_w[col];
 807:Middlewares/lvgl/src/widgets/lv_table.c ****             uint16_t col_merge = 0;
 808:Middlewares/lvgl/src/widgets/lv_table.c ****             for(col_merge = 0; col_merge + col < table->col_cnt - 1; col_merge++) {
 809:Middlewares/lvgl/src/widgets/lv_table.c **** 
 810:Middlewares/lvgl/src/widgets/lv_table.c ****                 if(table->cell_data[cell + col_merge] != NULL) {
 811:Middlewares/lvgl/src/widgets/lv_table.c ****                     lv_table_cell_ctrl_t ctrl = 0;
 812:Middlewares/lvgl/src/widgets/lv_table.c ****                     char * next_cell_data = table->cell_data[cell + col_merge];
 813:Middlewares/lvgl/src/widgets/lv_table.c ****                     if(next_cell_data) ctrl = next_cell_data[0];
 814:Middlewares/lvgl/src/widgets/lv_table.c ****                     if(ctrl & LV_TABLE_CELL_CTRL_MERGE_RIGHT)
 815:Middlewares/lvgl/src/widgets/lv_table.c ****                         txt_w += table->col_w[col + col_merge + 1];
 816:Middlewares/lvgl/src/widgets/lv_table.c ****                     else
 817:Middlewares/lvgl/src/widgets/lv_table.c ****                         break;
 818:Middlewares/lvgl/src/widgets/lv_table.c ****                 }
 819:Middlewares/lvgl/src/widgets/lv_table.c ****                 else {
 820:Middlewares/lvgl/src/widgets/lv_table.c ****                     break;
 821:Middlewares/lvgl/src/widgets/lv_table.c ****                 }
 822:Middlewares/lvgl/src/widgets/lv_table.c ****             }
 823:Middlewares/lvgl/src/widgets/lv_table.c **** 
 824:Middlewares/lvgl/src/widgets/lv_table.c ****             lv_table_cell_ctrl_t ctrl = 0;
 114              		.loc 1 824 13 is_stmt 1 discriminator 1 view .LVU25
 825:Middlewares/lvgl/src/widgets/lv_table.c ****             if(table->cell_data[cell]) ctrl = table->cell_data[cell][0];
 115              		.loc 1 825 13 discriminator 1 view .LVU26
 116              		.loc 1 825 40 discriminator 1 view .LVU27
 117              		.loc 1 825 45 is_stmt 0 discriminator 1 view .LVU28
 118 0052 9EF80020 		ldrb	r2, [lr]	@ zero_extendqisi2
 119              	.LVL8:
 826:Middlewares/lvgl/src/widgets/lv_table.c **** 
 827:Middlewares/lvgl/src/widgets/lv_table.c ****             /*With text crop assume 1 line*/
 828:Middlewares/lvgl/src/widgets/lv_table.c ****             if(ctrl & LV_TABLE_CELL_CTRL_TEXT_CROP) {
 120              		.loc 1 828 13 is_stmt 1 discriminator 1 view .LVU29
 121              		.loc 1 828 15 is_stmt 0 discriminator 1 view .LVU30
 122 0056 12F0020F 		tst	r2, #2
 123 005a 3DD0     		beq	.L7
 829:Middlewares/lvgl/src/widgets/lv_table.c ****                 h_max = LV_MAX(lv_font_get_line_height(font) + cell_top + cell_bottom,
 124              		.loc 1 829 17 is_stmt 1 view .LVU31
 125              	.LVL9:
 126              	.LBB89:
 127              	.LBI89:
 118:Middlewares/lvgl/src/widgets/../core/../misc/../font/lv_font.h **** {
 128              		.loc 2 118 26 view .LVU32
 129              	.LBB90:
 130              		.loc 2 120 5 view .LVU33
 131              		.loc 2 120 18 is_stmt 0 view .LVU34
 132 005c 059B     		ldr	r3, [sp, #20]
 133              	.LVL10:
 134              		.loc 2 120 18 view .LVU35
ARM GAS  /tmp/ccTYGLnU.s 			page 20


 135 005e B3F90830 		ldrsh	r3, [r3, #8]
 136              	.LVL11:
 137              		.loc 2 120 18 view .LVU36
 138              	.LBE90:
 139              	.LBE89:
 140              		.loc 1 829 25 view .LVU37
 141 0062 069A     		ldr	r2, [sp, #24]
 142              	.LVL12:
 143              		.loc 1 829 25 view .LVU38
 144 0064 1A44     		add	r2, r2, r3
 145 0066 0799     		ldr	r1, [sp, #28]
 146 0068 0A44     		add	r2, r2, r1
 147              		.loc 1 829 23 view .LVU39
 148 006a BA42     		cmp	r2, r7
 149 006c 06DD     		ble	.L3
 150              	.LVL13:
 151              		.loc 1 829 23 view .LVU40
 152              	.LBE88:
 153              		.loc 2 120 5 is_stmt 1 view .LVU41
 154              	.LBB92:
 155              		.loc 1 829 25 is_stmt 0 view .LVU42
 156 006e 9FB2     		uxth	r7, r3
 157              	.LVL14:
 158              		.loc 1 829 25 view .LVU43
 159 0070 089B     		ldr	r3, [sp, #32]
 160 0072 1F44     		add	r7, r7, r3
 161 0074 BFB2     		uxth	r7, r7
 162 0076 099B     		ldr	r3, [sp, #36]
 163 0078 1F44     		add	r7, r7, r3
 164              		.loc 1 829 23 view .LVU44
 165 007a 3FB2     		sxth	r7, r7
 166              	.LVL15:
 167              	.L3:
 168              		.loc 1 829 23 view .LVU45
 169              	.LBE92:
 804:Middlewares/lvgl/src/widgets/lv_table.c ****         if(table->cell_data[cell] != NULL) {
 170              		.loc 1 804 71 is_stmt 1 discriminator 2 view .LVU46
 804:Middlewares/lvgl/src/widgets/lv_table.c ****         if(table->cell_data[cell] != NULL) {
 171              		.loc 1 804 75 is_stmt 0 discriminator 2 view .LVU47
 172 007c 0136     		adds	r6, r6, #1
 173              	.LVL16:
 804:Middlewares/lvgl/src/widgets/lv_table.c ****         if(table->cell_data[cell] != NULL) {
 174              		.loc 1 804 75 discriminator 2 view .LVU48
 175 007e B6B2     		uxth	r6, r6
 176              	.LVL17:
 804:Middlewares/lvgl/src/widgets/lv_table.c ****         if(table->cell_data[cell] != NULL) {
 177              		.loc 1 804 82 discriminator 2 view .LVU49
 178 0080 0135     		adds	r5, r5, #1
 179              	.LVL18:
 804:Middlewares/lvgl/src/widgets/lv_table.c ****         if(table->cell_data[cell] != NULL) {
 180              		.loc 1 804 82 discriminator 2 view .LVU50
 181 0082 ADB2     		uxth	r5, r5
 182              	.LVL19:
 183              	.L2:
 804:Middlewares/lvgl/src/widgets/lv_table.c ****         if(table->cell_data[cell] != NULL) {
 184              		.loc 1 804 36 is_stmt 1 discriminator 1 view .LVU51
 804:Middlewares/lvgl/src/widgets/lv_table.c ****         if(table->cell_data[cell] != NULL) {
ARM GAS  /tmp/ccTYGLnU.s 			page 21


 185              		.loc 1 804 41 is_stmt 0 discriminator 1 view .LVU52
 186 0084 B246     		mov	r10, r6
 804:Middlewares/lvgl/src/widgets/lv_table.c ****         if(table->cell_data[cell] != NULL) {
 187              		.loc 1 804 60 discriminator 1 view .LVU53
 188 0086 B8F824C0 		ldrh	ip, [r8, #36]
 804:Middlewares/lvgl/src/widgets/lv_table.c ****         if(table->cell_data[cell] != NULL) {
 189              		.loc 1 804 53 discriminator 1 view .LVU54
 190 008a 09EB0C03 		add	r3, r9, ip
 804:Middlewares/lvgl/src/widgets/lv_table.c ****         if(table->cell_data[cell] != NULL) {
 191              		.loc 1 804 5 discriminator 1 view .LVU55
 192 008e 9E42     		cmp	r6, r3
 193 0090 43DA     		bge	.L10
 805:Middlewares/lvgl/src/widgets/lv_table.c ****             txt_w              = table->col_w[col];
 194              		.loc 1 805 9 is_stmt 1 view .LVU56
 805:Middlewares/lvgl/src/widgets/lv_table.c ****             txt_w              = table->col_w[col];
 195              		.loc 1 805 17 is_stmt 0 view .LVU57
 196 0092 D8F82810 		ldr	r1, [r8, #40]
 805:Middlewares/lvgl/src/widgets/lv_table.c ****             txt_w              = table->col_w[col];
 197              		.loc 1 805 28 view .LVU58
 198 0096 51F826E0 		ldr	lr, [r1, r6, lsl #2]
 805:Middlewares/lvgl/src/widgets/lv_table.c ****             txt_w              = table->col_w[col];
 199              		.loc 1 805 11 view .LVU59
 200 009a BEF1000F 		cmp	lr, #0
 201 009e EDD0     		beq	.L3
 202              	.LBB93:
 806:Middlewares/lvgl/src/widgets/lv_table.c ****             uint16_t col_merge = 0;
 203              		.loc 1 806 13 is_stmt 1 view .LVU60
 806:Middlewares/lvgl/src/widgets/lv_table.c ****             uint16_t col_merge = 0;
 204              		.loc 1 806 39 is_stmt 0 view .LVU61
 205 00a0 D8F830B0 		ldr	fp, [r8, #48]
 806:Middlewares/lvgl/src/widgets/lv_table.c ****             uint16_t col_merge = 0;
 206              		.loc 1 806 32 view .LVU62
 207 00a4 3BF91530 		ldrsh	r3, [fp, r5, lsl #1]
 208              	.LVL20:
 807:Middlewares/lvgl/src/widgets/lv_table.c ****             for(col_merge = 0; col_merge + col < table->col_cnt - 1; col_merge++) {
 209              		.loc 1 807 13 is_stmt 1 view .LVU63
 808:Middlewares/lvgl/src/widgets/lv_table.c **** 
 210              		.loc 1 808 13 view .LVU64
 808:Middlewares/lvgl/src/widgets/lv_table.c **** 
 211              		.loc 1 808 27 is_stmt 0 view .LVU65
 212 00a8 0024     		movs	r4, #0
 213              	.LVL21:
 214              	.L4:
 808:Middlewares/lvgl/src/widgets/lv_table.c **** 
 215              		.loc 1 808 32 is_stmt 1 discriminator 1 view .LVU66
 808:Middlewares/lvgl/src/widgets/lv_table.c **** 
 216              		.loc 1 808 42 is_stmt 0 discriminator 1 view .LVU67
 217 00aa 2A19     		adds	r2, r5, r4
 808:Middlewares/lvgl/src/widgets/lv_table.c **** 
 218              		.loc 1 808 65 discriminator 1 view .LVU68
 219 00ac 0CF1FF30 		add	r0, ip, #-1
 808:Middlewares/lvgl/src/widgets/lv_table.c **** 
 220              		.loc 1 808 13 discriminator 1 view .LVU69
 221 00b0 8242     		cmp	r2, r0
 222 00b2 CEDA     		bge	.L5
 810:Middlewares/lvgl/src/widgets/lv_table.c ****                     lv_table_cell_ctrl_t ctrl = 0;
 223              		.loc 1 810 17 is_stmt 1 view .LVU70
ARM GAS  /tmp/ccTYGLnU.s 			page 22


 810:Middlewares/lvgl/src/widgets/lv_table.c ****                     lv_table_cell_ctrl_t ctrl = 0;
 224              		.loc 1 810 42 is_stmt 0 view .LVU71
 225 00b4 04EB0A00 		add	r0, r4, r10
 810:Middlewares/lvgl/src/widgets/lv_table.c ****                     lv_table_cell_ctrl_t ctrl = 0;
 226              		.loc 1 810 36 view .LVU72
 227 00b8 51F82000 		ldr	r0, [r1, r0, lsl #2]
 810:Middlewares/lvgl/src/widgets/lv_table.c ****                     lv_table_cell_ctrl_t ctrl = 0;
 228              		.loc 1 810 19 view .LVU73
 229 00bc 0028     		cmp	r0, #0
 230 00be C8D0     		beq	.L5
 231              	.LBB91:
 811:Middlewares/lvgl/src/widgets/lv_table.c ****                     char * next_cell_data = table->cell_data[cell + col_merge];
 232              		.loc 1 811 21 is_stmt 1 discriminator 1 view .LVU74
 233              	.LVL22:
 812:Middlewares/lvgl/src/widgets/lv_table.c ****                     if(next_cell_data) ctrl = next_cell_data[0];
 234              		.loc 1 812 21 discriminator 1 view .LVU75
 813:Middlewares/lvgl/src/widgets/lv_table.c ****                     if(ctrl & LV_TABLE_CELL_CTRL_MERGE_RIGHT)
 235              		.loc 1 813 21 discriminator 1 view .LVU76
 813:Middlewares/lvgl/src/widgets/lv_table.c ****                     if(ctrl & LV_TABLE_CELL_CTRL_MERGE_RIGHT)
 236              		.loc 1 813 40 discriminator 1 view .LVU77
 813:Middlewares/lvgl/src/widgets/lv_table.c ****                     if(ctrl & LV_TABLE_CELL_CTRL_MERGE_RIGHT)
 237              		.loc 1 813 45 is_stmt 0 discriminator 1 view .LVU78
 238 00c0 0078     		ldrb	r0, [r0]	@ zero_extendqisi2
 239              	.LVL23:
 814:Middlewares/lvgl/src/widgets/lv_table.c ****                         txt_w += table->col_w[col + col_merge + 1];
 240              		.loc 1 814 21 is_stmt 1 discriminator 1 view .LVU79
 814:Middlewares/lvgl/src/widgets/lv_table.c ****                         txt_w += table->col_w[col + col_merge + 1];
 241              		.loc 1 814 23 is_stmt 0 discriminator 1 view .LVU80
 242 00c2 10F0010F 		tst	r0, #1
 243 00c6 C4D0     		beq	.L5
 815:Middlewares/lvgl/src/widgets/lv_table.c ****                     else
 244              		.loc 1 815 25 is_stmt 1 discriminator 2 view .LVU81
 815:Middlewares/lvgl/src/widgets/lv_table.c ****                     else
 245              		.loc 1 815 46 is_stmt 0 discriminator 2 view .LVU82
 246 00c8 0132     		adds	r2, r2, #1
 247 00ca 3BF81220 		ldrh	r2, [fp, r2, lsl #1]
 815:Middlewares/lvgl/src/widgets/lv_table.c ****                     else
 248              		.loc 1 815 31 discriminator 2 view .LVU83
 249 00ce 1344     		add	r3, r3, r2
 250              	.LVL24:
 815:Middlewares/lvgl/src/widgets/lv_table.c ****                     else
 251              		.loc 1 815 31 discriminator 2 view .LVU84
 252 00d0 1BB2     		sxth	r3, r3
 253              	.LVL25:
 815:Middlewares/lvgl/src/widgets/lv_table.c ****                     else
 254              		.loc 1 815 31 discriminator 2 view .LVU85
 255              	.LBE91:
 808:Middlewares/lvgl/src/widgets/lv_table.c **** 
 256              		.loc 1 808 70 is_stmt 1 discriminator 2 view .LVU86
 808:Middlewares/lvgl/src/widgets/lv_table.c **** 
 257              		.loc 1 808 79 is_stmt 0 discriminator 2 view .LVU87
 258 00d2 0134     		adds	r4, r4, #1
 259              	.LVL26:
 808:Middlewares/lvgl/src/widgets/lv_table.c **** 
 260              		.loc 1 808 79 discriminator 2 view .LVU88
 261 00d4 A4B2     		uxth	r4, r4
 262              	.LVL27:
ARM GAS  /tmp/ccTYGLnU.s 			page 23


 808:Middlewares/lvgl/src/widgets/lv_table.c **** 
 263              		.loc 1 808 79 discriminator 2 view .LVU89
 264 00d6 E8E7     		b	.L4
 265              	.LVL28:
 266              	.L7:
 830:Middlewares/lvgl/src/widgets/lv_table.c ****                                     h_max);
 831:Middlewares/lvgl/src/widgets/lv_table.c ****             }
 832:Middlewares/lvgl/src/widgets/lv_table.c ****             /*Without text crop calculate the height of the text in the cell*/
 833:Middlewares/lvgl/src/widgets/lv_table.c ****             else {
 834:Middlewares/lvgl/src/widgets/lv_table.c ****                 txt_w -= cell_left + cell_right;
 267              		.loc 1 834 17 is_stmt 1 view .LVU90
 268              		.loc 1 834 36 is_stmt 0 view .LVU91
 269 00d8 0C9A     		ldr	r2, [sp, #48]
 270              	.LVL29:
 271              		.loc 1 834 36 view .LVU92
 272 00da 0D99     		ldr	r1, [sp, #52]
 273 00dc 0A44     		add	r2, r2, r1
 274 00de 92B2     		uxth	r2, r2
 275              		.loc 1 834 23 view .LVU93
 276 00e0 9B1A     		subs	r3, r3, r2
 277              	.LVL30:
 278              		.loc 1 834 23 view .LVU94
 279 00e2 1BB2     		sxth	r3, r3
 280              	.LVL31:
 835:Middlewares/lvgl/src/widgets/lv_table.c **** 
 836:Middlewares/lvgl/src/widgets/lv_table.c ****                 lv_txt_get_size(&txt_size, table->cell_data[cell] + 1, font,
 281              		.loc 1 836 17 is_stmt 1 view .LVU95
 282 00e4 0022     		movs	r2, #0
 283 00e6 0292     		str	r2, [sp, #8]
 284              	.LVL32:
 285              		.loc 1 836 17 is_stmt 0 view .LVU96
 286 00e8 0193     		str	r3, [sp, #4]
 287 00ea 0B9B     		ldr	r3, [sp, #44]
 288              	.LVL33:
 289              		.loc 1 836 17 view .LVU97
 290 00ec 0093     		str	r3, [sp]
 291 00ee 0A9B     		ldr	r3, [sp, #40]
 292 00f0 059A     		ldr	r2, [sp, #20]
 293 00f2 0EF10101 		add	r1, lr, #1
 294 00f6 0FA8     		add	r0, sp, #60
 295 00f8 FFF7FEFF 		bl	lv_txt_get_size
 296              	.LVL34:
 837:Middlewares/lvgl/src/widgets/lv_table.c ****                                  letter_space, line_space, txt_w, LV_TEXT_FLAG_NONE);
 838:Middlewares/lvgl/src/widgets/lv_table.c **** 
 839:Middlewares/lvgl/src/widgets/lv_table.c ****                 h_max = LV_MAX(txt_size.y + cell_top + cell_bottom, h_max);
 297              		.loc 1 839 17 is_stmt 1 view .LVU98
 298              		.loc 1 839 25 is_stmt 0 view .LVU99
 299 00fc BDF93E30 		ldrsh	r3, [sp, #62]
 300 0100 069A     		ldr	r2, [sp, #24]
 301 0102 1344     		add	r3, r3, r2
 302 0104 079A     		ldr	r2, [sp, #28]
 303 0106 1344     		add	r3, r3, r2
 304 0108 9F42     		cmp	r7, r3
 305 010a B8BF     		it	lt
 306 010c 1F46     		movlt	r7, r3
 307              	.LVL35:
 308              		.loc 1 839 23 view .LVU100
ARM GAS  /tmp/ccTYGLnU.s 			page 24


 309 010e 3FB2     		sxth	r7, r7
 310              	.LVL36:
 840:Middlewares/lvgl/src/widgets/lv_table.c ****                 cell += col_merge;
 311              		.loc 1 840 17 is_stmt 1 view .LVU101
 312              		.loc 1 840 22 is_stmt 0 view .LVU102
 313 0110 2644     		add	r6, r6, r4
 314              	.LVL37:
 315              		.loc 1 840 22 view .LVU103
 316 0112 B6B2     		uxth	r6, r6
 317              	.LVL38:
 841:Middlewares/lvgl/src/widgets/lv_table.c ****                 col += col_merge;
 318              		.loc 1 841 17 is_stmt 1 view .LVU104
 319              		.loc 1 841 21 is_stmt 0 view .LVU105
 320 0114 2544     		add	r5, r5, r4
 321              	.LVL39:
 322              		.loc 1 841 21 view .LVU106
 323 0116 ADB2     		uxth	r5, r5
 324              	.LVL40:
 325              		.loc 1 841 21 view .LVU107
 326 0118 B0E7     		b	.L3
 327              	.LVL41:
 328              	.L10:
 329              		.loc 1 841 21 view .LVU108
 330              	.LBE93:
 842:Middlewares/lvgl/src/widgets/lv_table.c ****             }
 843:Middlewares/lvgl/src/widgets/lv_table.c ****         }
 844:Middlewares/lvgl/src/widgets/lv_table.c ****     }
 845:Middlewares/lvgl/src/widgets/lv_table.c **** 
 846:Middlewares/lvgl/src/widgets/lv_table.c ****     return h_max;
 331              		.loc 1 846 5 is_stmt 1 view .LVU109
 847:Middlewares/lvgl/src/widgets/lv_table.c **** }
 332              		.loc 1 847 1 is_stmt 0 view .LVU110
 333 011a 3846     		mov	r0, r7
 334 011c 11B0     		add	sp, sp, #68
 335              	.LCFI2:
 336              		.cfi_def_cfa_offset 36
 337              		@ sp needed
 338 011e BDE8F08F 		pop	{r4, r5, r6, r7, r8, r9, r10, fp, pc}
 339              		.loc 1 847 1 view .LVU111
 340              		.cfi_endproc
 341              	.LFE166:
 343              		.section	.text.refr_size,"ax",%progbits
 344              		.align	1
 345              		.syntax unified
 346              		.thumb
 347              		.thumb_func
 348              		.fpu softvfp
 350              	refr_size:
 351              	.LVL42:
 352              	.LFB165:
 765:Middlewares/lvgl/src/widgets/lv_table.c ****     lv_table_t * table = (lv_table_t *)obj;
 353              		.loc 1 765 1 is_stmt 1 view -0
 354              		.cfi_startproc
 355              		@ args = 0, pretend = 0, frame = 16
 356              		@ frame_needed = 0, uses_anonymous_args = 0
 765:Middlewares/lvgl/src/widgets/lv_table.c ****     lv_table_t * table = (lv_table_t *)obj;
 357              		.loc 1 765 1 is_stmt 0 view .LVU113
ARM GAS  /tmp/ccTYGLnU.s 			page 25


 358 0000 2DE9F04F 		push	{r4, r5, r6, r7, r8, r9, r10, fp, lr}
 359              	.LCFI3:
 360              		.cfi_def_cfa_offset 36
 361              		.cfi_offset 4, -36
 362              		.cfi_offset 5, -32
 363              		.cfi_offset 6, -28
 364              		.cfi_offset 7, -24
 365              		.cfi_offset 8, -20
 366              		.cfi_offset 9, -16
 367              		.cfi_offset 10, -12
 368              		.cfi_offset 11, -8
 369              		.cfi_offset 14, -4
 370 0004 8BB0     		sub	sp, sp, #44
 371              	.LCFI4:
 372              		.cfi_def_cfa_offset 80
 373 0006 0546     		mov	r5, r0
 374 0008 0C46     		mov	r4, r1
 766:Middlewares/lvgl/src/widgets/lv_table.c **** 
 375              		.loc 1 766 5 is_stmt 1 view .LVU114
 376              	.LVL43:
 768:Middlewares/lvgl/src/widgets/lv_table.c **** 
 377              		.loc 1 768 5 view .LVU115
 770:Middlewares/lvgl/src/widgets/lv_table.c ****     lv_coord_t cell_right = lv_obj_get_style_pad_right(obj, LV_PART_ITEMS);
 378              		.loc 1 770 5 view .LVU116
 379              	.LBB94:
 380              	.LBI94:
 381              		.file 3 "Middlewares/lvgl/src/widgets/../core/lv_obj_style_gen.h"
   1:Middlewares/lvgl/src/widgets/../core/lv_obj_style_gen.h **** static inline lv_coord_t lv_obj_get_style_width(const struct _lv_obj_t * obj, uint32_t part)
   2:Middlewares/lvgl/src/widgets/../core/lv_obj_style_gen.h **** {
   3:Middlewares/lvgl/src/widgets/../core/lv_obj_style_gen.h ****     lv_style_value_t v = lv_obj_get_style_prop(obj, part, LV_STYLE_WIDTH);
   4:Middlewares/lvgl/src/widgets/../core/lv_obj_style_gen.h ****     return (lv_coord_t)v.num;
   5:Middlewares/lvgl/src/widgets/../core/lv_obj_style_gen.h **** }
   6:Middlewares/lvgl/src/widgets/../core/lv_obj_style_gen.h **** 
   7:Middlewares/lvgl/src/widgets/../core/lv_obj_style_gen.h **** static inline lv_coord_t lv_obj_get_style_min_width(const struct _lv_obj_t * obj, uint32_t part)
   8:Middlewares/lvgl/src/widgets/../core/lv_obj_style_gen.h **** {
   9:Middlewares/lvgl/src/widgets/../core/lv_obj_style_gen.h ****     lv_style_value_t v = lv_obj_get_style_prop(obj, part, LV_STYLE_MIN_WIDTH);
  10:Middlewares/lvgl/src/widgets/../core/lv_obj_style_gen.h ****     return (lv_coord_t)v.num;
  11:Middlewares/lvgl/src/widgets/../core/lv_obj_style_gen.h **** }
  12:Middlewares/lvgl/src/widgets/../core/lv_obj_style_gen.h **** 
  13:Middlewares/lvgl/src/widgets/../core/lv_obj_style_gen.h **** static inline lv_coord_t lv_obj_get_style_max_width(const struct _lv_obj_t * obj, uint32_t part)
  14:Middlewares/lvgl/src/widgets/../core/lv_obj_style_gen.h **** {
  15:Middlewares/lvgl/src/widgets/../core/lv_obj_style_gen.h ****     lv_style_value_t v = lv_obj_get_style_prop(obj, part, LV_STYLE_MAX_WIDTH);
  16:Middlewares/lvgl/src/widgets/../core/lv_obj_style_gen.h ****     return (lv_coord_t)v.num;
  17:Middlewares/lvgl/src/widgets/../core/lv_obj_style_gen.h **** }
  18:Middlewares/lvgl/src/widgets/../core/lv_obj_style_gen.h **** 
  19:Middlewares/lvgl/src/widgets/../core/lv_obj_style_gen.h **** static inline lv_coord_t lv_obj_get_style_height(const struct _lv_obj_t * obj, uint32_t part)
  20:Middlewares/lvgl/src/widgets/../core/lv_obj_style_gen.h **** {
  21:Middlewares/lvgl/src/widgets/../core/lv_obj_style_gen.h ****     lv_style_value_t v = lv_obj_get_style_prop(obj, part, LV_STYLE_HEIGHT);
  22:Middlewares/lvgl/src/widgets/../core/lv_obj_style_gen.h ****     return (lv_coord_t)v.num;
  23:Middlewares/lvgl/src/widgets/../core/lv_obj_style_gen.h **** }
  24:Middlewares/lvgl/src/widgets/../core/lv_obj_style_gen.h **** 
  25:Middlewares/lvgl/src/widgets/../core/lv_obj_style_gen.h **** static inline lv_coord_t lv_obj_get_style_min_height(const struct _lv_obj_t * obj, uint32_t part)
  26:Middlewares/lvgl/src/widgets/../core/lv_obj_style_gen.h **** {
  27:Middlewares/lvgl/src/widgets/../core/lv_obj_style_gen.h ****     lv_style_value_t v = lv_obj_get_style_prop(obj, part, LV_STYLE_MIN_HEIGHT);
  28:Middlewares/lvgl/src/widgets/../core/lv_obj_style_gen.h ****     return (lv_coord_t)v.num;
  29:Middlewares/lvgl/src/widgets/../core/lv_obj_style_gen.h **** }
  30:Middlewares/lvgl/src/widgets/../core/lv_obj_style_gen.h **** 
ARM GAS  /tmp/ccTYGLnU.s 			page 26


  31:Middlewares/lvgl/src/widgets/../core/lv_obj_style_gen.h **** static inline lv_coord_t lv_obj_get_style_max_height(const struct _lv_obj_t * obj, uint32_t part)
  32:Middlewares/lvgl/src/widgets/../core/lv_obj_style_gen.h **** {
  33:Middlewares/lvgl/src/widgets/../core/lv_obj_style_gen.h ****     lv_style_value_t v = lv_obj_get_style_prop(obj, part, LV_STYLE_MAX_HEIGHT);
  34:Middlewares/lvgl/src/widgets/../core/lv_obj_style_gen.h ****     return (lv_coord_t)v.num;
  35:Middlewares/lvgl/src/widgets/../core/lv_obj_style_gen.h **** }
  36:Middlewares/lvgl/src/widgets/../core/lv_obj_style_gen.h **** 
  37:Middlewares/lvgl/src/widgets/../core/lv_obj_style_gen.h **** static inline lv_coord_t lv_obj_get_style_x(const struct _lv_obj_t * obj, uint32_t part)
  38:Middlewares/lvgl/src/widgets/../core/lv_obj_style_gen.h **** {
  39:Middlewares/lvgl/src/widgets/../core/lv_obj_style_gen.h ****     lv_style_value_t v = lv_obj_get_style_prop(obj, part, LV_STYLE_X);
  40:Middlewares/lvgl/src/widgets/../core/lv_obj_style_gen.h ****     return (lv_coord_t)v.num;
  41:Middlewares/lvgl/src/widgets/../core/lv_obj_style_gen.h **** }
  42:Middlewares/lvgl/src/widgets/../core/lv_obj_style_gen.h **** 
  43:Middlewares/lvgl/src/widgets/../core/lv_obj_style_gen.h **** static inline lv_coord_t lv_obj_get_style_y(const struct _lv_obj_t * obj, uint32_t part)
  44:Middlewares/lvgl/src/widgets/../core/lv_obj_style_gen.h **** {
  45:Middlewares/lvgl/src/widgets/../core/lv_obj_style_gen.h ****     lv_style_value_t v = lv_obj_get_style_prop(obj, part, LV_STYLE_Y);
  46:Middlewares/lvgl/src/widgets/../core/lv_obj_style_gen.h ****     return (lv_coord_t)v.num;
  47:Middlewares/lvgl/src/widgets/../core/lv_obj_style_gen.h **** }
  48:Middlewares/lvgl/src/widgets/../core/lv_obj_style_gen.h **** 
  49:Middlewares/lvgl/src/widgets/../core/lv_obj_style_gen.h **** static inline lv_align_t lv_obj_get_style_align(const struct _lv_obj_t * obj, uint32_t part)
  50:Middlewares/lvgl/src/widgets/../core/lv_obj_style_gen.h **** {
  51:Middlewares/lvgl/src/widgets/../core/lv_obj_style_gen.h ****     lv_style_value_t v = lv_obj_get_style_prop(obj, part, LV_STYLE_ALIGN);
  52:Middlewares/lvgl/src/widgets/../core/lv_obj_style_gen.h ****     return (lv_align_t)v.num;
  53:Middlewares/lvgl/src/widgets/../core/lv_obj_style_gen.h **** }
  54:Middlewares/lvgl/src/widgets/../core/lv_obj_style_gen.h **** 
  55:Middlewares/lvgl/src/widgets/../core/lv_obj_style_gen.h **** static inline lv_coord_t lv_obj_get_style_transform_width(const struct _lv_obj_t * obj, uint32_t pa
  56:Middlewares/lvgl/src/widgets/../core/lv_obj_style_gen.h **** {
  57:Middlewares/lvgl/src/widgets/../core/lv_obj_style_gen.h ****     lv_style_value_t v = lv_obj_get_style_prop(obj, part, LV_STYLE_TRANSFORM_WIDTH);
  58:Middlewares/lvgl/src/widgets/../core/lv_obj_style_gen.h ****     return (lv_coord_t)v.num;
  59:Middlewares/lvgl/src/widgets/../core/lv_obj_style_gen.h **** }
  60:Middlewares/lvgl/src/widgets/../core/lv_obj_style_gen.h **** 
  61:Middlewares/lvgl/src/widgets/../core/lv_obj_style_gen.h **** static inline lv_coord_t lv_obj_get_style_transform_height(const struct _lv_obj_t * obj, uint32_t p
  62:Middlewares/lvgl/src/widgets/../core/lv_obj_style_gen.h **** {
  63:Middlewares/lvgl/src/widgets/../core/lv_obj_style_gen.h ****     lv_style_value_t v = lv_obj_get_style_prop(obj, part, LV_STYLE_TRANSFORM_HEIGHT);
  64:Middlewares/lvgl/src/widgets/../core/lv_obj_style_gen.h ****     return (lv_coord_t)v.num;
  65:Middlewares/lvgl/src/widgets/../core/lv_obj_style_gen.h **** }
  66:Middlewares/lvgl/src/widgets/../core/lv_obj_style_gen.h **** 
  67:Middlewares/lvgl/src/widgets/../core/lv_obj_style_gen.h **** static inline lv_coord_t lv_obj_get_style_translate_x(const struct _lv_obj_t * obj, uint32_t part)
  68:Middlewares/lvgl/src/widgets/../core/lv_obj_style_gen.h **** {
  69:Middlewares/lvgl/src/widgets/../core/lv_obj_style_gen.h ****     lv_style_value_t v = lv_obj_get_style_prop(obj, part, LV_STYLE_TRANSLATE_X);
  70:Middlewares/lvgl/src/widgets/../core/lv_obj_style_gen.h ****     return (lv_coord_t)v.num;
  71:Middlewares/lvgl/src/widgets/../core/lv_obj_style_gen.h **** }
  72:Middlewares/lvgl/src/widgets/../core/lv_obj_style_gen.h **** 
  73:Middlewares/lvgl/src/widgets/../core/lv_obj_style_gen.h **** static inline lv_coord_t lv_obj_get_style_translate_y(const struct _lv_obj_t * obj, uint32_t part)
  74:Middlewares/lvgl/src/widgets/../core/lv_obj_style_gen.h **** {
  75:Middlewares/lvgl/src/widgets/../core/lv_obj_style_gen.h ****     lv_style_value_t v = lv_obj_get_style_prop(obj, part, LV_STYLE_TRANSLATE_Y);
  76:Middlewares/lvgl/src/widgets/../core/lv_obj_style_gen.h ****     return (lv_coord_t)v.num;
  77:Middlewares/lvgl/src/widgets/../core/lv_obj_style_gen.h **** }
  78:Middlewares/lvgl/src/widgets/../core/lv_obj_style_gen.h **** 
  79:Middlewares/lvgl/src/widgets/../core/lv_obj_style_gen.h **** static inline lv_coord_t lv_obj_get_style_transform_zoom(const struct _lv_obj_t * obj, uint32_t par
  80:Middlewares/lvgl/src/widgets/../core/lv_obj_style_gen.h **** {
  81:Middlewares/lvgl/src/widgets/../core/lv_obj_style_gen.h ****     lv_style_value_t v = lv_obj_get_style_prop(obj, part, LV_STYLE_TRANSFORM_ZOOM);
  82:Middlewares/lvgl/src/widgets/../core/lv_obj_style_gen.h ****     return (lv_coord_t)v.num;
  83:Middlewares/lvgl/src/widgets/../core/lv_obj_style_gen.h **** }
  84:Middlewares/lvgl/src/widgets/../core/lv_obj_style_gen.h **** 
  85:Middlewares/lvgl/src/widgets/../core/lv_obj_style_gen.h **** static inline lv_coord_t lv_obj_get_style_transform_angle(const struct _lv_obj_t * obj, uint32_t pa
  86:Middlewares/lvgl/src/widgets/../core/lv_obj_style_gen.h **** {
  87:Middlewares/lvgl/src/widgets/../core/lv_obj_style_gen.h ****     lv_style_value_t v = lv_obj_get_style_prop(obj, part, LV_STYLE_TRANSFORM_ANGLE);
ARM GAS  /tmp/ccTYGLnU.s 			page 27


  88:Middlewares/lvgl/src/widgets/../core/lv_obj_style_gen.h ****     return (lv_coord_t)v.num;
  89:Middlewares/lvgl/src/widgets/../core/lv_obj_style_gen.h **** }
  90:Middlewares/lvgl/src/widgets/../core/lv_obj_style_gen.h **** 
  91:Middlewares/lvgl/src/widgets/../core/lv_obj_style_gen.h **** static inline lv_coord_t lv_obj_get_style_pad_top(const struct _lv_obj_t * obj, uint32_t part)
  92:Middlewares/lvgl/src/widgets/../core/lv_obj_style_gen.h **** {
  93:Middlewares/lvgl/src/widgets/../core/lv_obj_style_gen.h ****     lv_style_value_t v = lv_obj_get_style_prop(obj, part, LV_STYLE_PAD_TOP);
  94:Middlewares/lvgl/src/widgets/../core/lv_obj_style_gen.h ****     return (lv_coord_t)v.num;
  95:Middlewares/lvgl/src/widgets/../core/lv_obj_style_gen.h **** }
  96:Middlewares/lvgl/src/widgets/../core/lv_obj_style_gen.h **** 
  97:Middlewares/lvgl/src/widgets/../core/lv_obj_style_gen.h **** static inline lv_coord_t lv_obj_get_style_pad_bottom(const struct _lv_obj_t * obj, uint32_t part)
  98:Middlewares/lvgl/src/widgets/../core/lv_obj_style_gen.h **** {
  99:Middlewares/lvgl/src/widgets/../core/lv_obj_style_gen.h ****     lv_style_value_t v = lv_obj_get_style_prop(obj, part, LV_STYLE_PAD_BOTTOM);
 100:Middlewares/lvgl/src/widgets/../core/lv_obj_style_gen.h ****     return (lv_coord_t)v.num;
 101:Middlewares/lvgl/src/widgets/../core/lv_obj_style_gen.h **** }
 102:Middlewares/lvgl/src/widgets/../core/lv_obj_style_gen.h **** 
 103:Middlewares/lvgl/src/widgets/../core/lv_obj_style_gen.h **** static inline lv_coord_t lv_obj_get_style_pad_left(const struct _lv_obj_t * obj, uint32_t part)
 382              		.loc 3 103 26 view .LVU117
 383              	.LBB95:
 104:Middlewares/lvgl/src/widgets/../core/lv_obj_style_gen.h **** {
 105:Middlewares/lvgl/src/widgets/../core/lv_obj_style_gen.h ****     lv_style_value_t v = lv_obj_get_style_prop(obj, part, LV_STYLE_PAD_LEFT);
 384              		.loc 3 105 5 view .LVU118
 385              		.loc 3 105 26 is_stmt 0 view .LVU119
 386 000a 41F21202 		movw	r2, #4114
 387 000e 4FF4A021 		mov	r1, #327680
 388              	.LVL44:
 389              		.loc 3 105 26 view .LVU120
 390 0012 FFF7FEFF 		bl	lv_obj_get_style_prop
 391              	.LVL45:
 106:Middlewares/lvgl/src/widgets/../core/lv_obj_style_gen.h ****     return (lv_coord_t)v.num;
 392              		.loc 3 106 5 is_stmt 1 view .LVU121
 393              		.loc 3 106 12 is_stmt 0 view .LVU122
 394 0016 0FFA80FB 		sxth	fp, r0
 395              	.LVL46:
 396              		.loc 3 106 12 view .LVU123
 397              	.LBE95:
 398              	.LBE94:
 771:Middlewares/lvgl/src/widgets/lv_table.c ****     lv_coord_t cell_top = lv_obj_get_style_pad_top(obj, LV_PART_ITEMS);
 399              		.loc 1 771 5 is_stmt 1 view .LVU124
 400              	.LBB96:
 401              	.LBI96:
 107:Middlewares/lvgl/src/widgets/../core/lv_obj_style_gen.h **** }
 108:Middlewares/lvgl/src/widgets/../core/lv_obj_style_gen.h **** 
 109:Middlewares/lvgl/src/widgets/../core/lv_obj_style_gen.h **** static inline lv_coord_t lv_obj_get_style_pad_right(const struct _lv_obj_t * obj, uint32_t part)
 402              		.loc 3 109 26 view .LVU125
 403              	.LBB97:
 110:Middlewares/lvgl/src/widgets/../core/lv_obj_style_gen.h **** {
 111:Middlewares/lvgl/src/widgets/../core/lv_obj_style_gen.h ****     lv_style_value_t v = lv_obj_get_style_prop(obj, part, LV_STYLE_PAD_RIGHT);
 404              		.loc 3 111 5 view .LVU126
 405              		.loc 3 111 26 is_stmt 0 view .LVU127
 406 001a 41F21302 		movw	r2, #4115
 407 001e 4FF4A021 		mov	r1, #327680
 408 0022 2846     		mov	r0, r5
 409 0024 FFF7FEFF 		bl	lv_obj_get_style_prop
 410              	.LVL47:
 112:Middlewares/lvgl/src/widgets/../core/lv_obj_style_gen.h ****     return (lv_coord_t)v.num;
 411              		.loc 3 112 5 is_stmt 1 view .LVU128
 412              		.loc 3 112 12 is_stmt 0 view .LVU129
ARM GAS  /tmp/ccTYGLnU.s 			page 28


 413 0028 0FFA80FA 		sxth	r10, r0
 414              	.LVL48:
 415              		.loc 3 112 12 view .LVU130
 416              	.LBE97:
 417              	.LBE96:
 772:Middlewares/lvgl/src/widgets/lv_table.c ****     lv_coord_t cell_bottom = lv_obj_get_style_pad_bottom(obj, LV_PART_ITEMS);
 418              		.loc 1 772 5 is_stmt 1 view .LVU131
 419              	.LBB98:
 420              	.LBI98:
  91:Middlewares/lvgl/src/widgets/../core/lv_obj_style_gen.h **** {
 421              		.loc 3 91 26 view .LVU132
 422              	.LBB99:
  93:Middlewares/lvgl/src/widgets/../core/lv_obj_style_gen.h ****     return (lv_coord_t)v.num;
 423              		.loc 3 93 5 view .LVU133
  93:Middlewares/lvgl/src/widgets/../core/lv_obj_style_gen.h ****     return (lv_coord_t)v.num;
 424              		.loc 3 93 26 is_stmt 0 view .LVU134
 425 002c 41F21002 		movw	r2, #4112
 426 0030 4FF4A021 		mov	r1, #327680
 427 0034 2846     		mov	r0, r5
 428 0036 FFF7FEFF 		bl	lv_obj_get_style_prop
 429              	.LVL49:
  94:Middlewares/lvgl/src/widgets/../core/lv_obj_style_gen.h **** }
 430              		.loc 3 94 5 is_stmt 1 view .LVU135
  94:Middlewares/lvgl/src/widgets/../core/lv_obj_style_gen.h **** }
 431              		.loc 3 94 12 is_stmt 0 view .LVU136
 432 003a 0FFA80F9 		sxth	r9, r0
 433              	.LVL50:
  94:Middlewares/lvgl/src/widgets/../core/lv_obj_style_gen.h **** }
 434              		.loc 3 94 12 view .LVU137
 435              	.LBE99:
 436              	.LBE98:
 773:Middlewares/lvgl/src/widgets/lv_table.c **** 
 437              		.loc 1 773 5 is_stmt 1 view .LVU138
 438              	.LBB100:
 439              	.LBI100:
  97:Middlewares/lvgl/src/widgets/../core/lv_obj_style_gen.h **** {
 440              		.loc 3 97 26 view .LVU139
 441              	.LBB101:
  99:Middlewares/lvgl/src/widgets/../core/lv_obj_style_gen.h ****     return (lv_coord_t)v.num;
 442              		.loc 3 99 5 view .LVU140
  99:Middlewares/lvgl/src/widgets/../core/lv_obj_style_gen.h ****     return (lv_coord_t)v.num;
 443              		.loc 3 99 26 is_stmt 0 view .LVU141
 444 003e 41F21102 		movw	r2, #4113
 445 0042 4FF4A021 		mov	r1, #327680
 446 0046 2846     		mov	r0, r5
 447 0048 FFF7FEFF 		bl	lv_obj_get_style_prop
 448              	.LVL51:
 100:Middlewares/lvgl/src/widgets/../core/lv_obj_style_gen.h **** }
 449              		.loc 3 100 5 is_stmt 1 view .LVU142
 100:Middlewares/lvgl/src/widgets/../core/lv_obj_style_gen.h **** }
 450              		.loc 3 100 12 is_stmt 0 view .LVU143
 451 004c 03B2     		sxth	r3, r0
 452 004e 0993     		str	r3, [sp, #36]
 453              	.LVL52:
 100:Middlewares/lvgl/src/widgets/../core/lv_obj_style_gen.h **** }
 454              		.loc 3 100 12 view .LVU144
 455              	.LBE101:
ARM GAS  /tmp/ccTYGLnU.s 			page 29


 456              	.LBE100:
 775:Middlewares/lvgl/src/widgets/lv_table.c ****     lv_coord_t line_space = lv_obj_get_style_text_line_space(obj, LV_PART_ITEMS);
 457              		.loc 1 775 5 is_stmt 1 view .LVU145
 458              	.LBB102:
 459              	.LBI102:
 113:Middlewares/lvgl/src/widgets/../core/lv_obj_style_gen.h **** }
 114:Middlewares/lvgl/src/widgets/../core/lv_obj_style_gen.h **** 
 115:Middlewares/lvgl/src/widgets/../core/lv_obj_style_gen.h **** static inline lv_coord_t lv_obj_get_style_pad_row(const struct _lv_obj_t * obj, uint32_t part)
 116:Middlewares/lvgl/src/widgets/../core/lv_obj_style_gen.h **** {
 117:Middlewares/lvgl/src/widgets/../core/lv_obj_style_gen.h ****     lv_style_value_t v = lv_obj_get_style_prop(obj, part, LV_STYLE_PAD_ROW);
 118:Middlewares/lvgl/src/widgets/../core/lv_obj_style_gen.h ****     return (lv_coord_t)v.num;
 119:Middlewares/lvgl/src/widgets/../core/lv_obj_style_gen.h **** }
 120:Middlewares/lvgl/src/widgets/../core/lv_obj_style_gen.h **** 
 121:Middlewares/lvgl/src/widgets/../core/lv_obj_style_gen.h **** static inline lv_coord_t lv_obj_get_style_pad_column(const struct _lv_obj_t * obj, uint32_t part)
 122:Middlewares/lvgl/src/widgets/../core/lv_obj_style_gen.h **** {
 123:Middlewares/lvgl/src/widgets/../core/lv_obj_style_gen.h ****     lv_style_value_t v = lv_obj_get_style_prop(obj, part, LV_STYLE_PAD_COLUMN);
 124:Middlewares/lvgl/src/widgets/../core/lv_obj_style_gen.h ****     return (lv_coord_t)v.num;
 125:Middlewares/lvgl/src/widgets/../core/lv_obj_style_gen.h **** }
 126:Middlewares/lvgl/src/widgets/../core/lv_obj_style_gen.h **** 
 127:Middlewares/lvgl/src/widgets/../core/lv_obj_style_gen.h **** static inline lv_coord_t lv_obj_get_style_radius(const struct _lv_obj_t * obj, uint32_t part)
 128:Middlewares/lvgl/src/widgets/../core/lv_obj_style_gen.h **** {
 129:Middlewares/lvgl/src/widgets/../core/lv_obj_style_gen.h ****     lv_style_value_t v = lv_obj_get_style_prop(obj, part, LV_STYLE_RADIUS);
 130:Middlewares/lvgl/src/widgets/../core/lv_obj_style_gen.h ****     return (lv_coord_t)v.num;
 131:Middlewares/lvgl/src/widgets/../core/lv_obj_style_gen.h **** }
 132:Middlewares/lvgl/src/widgets/../core/lv_obj_style_gen.h **** 
 133:Middlewares/lvgl/src/widgets/../core/lv_obj_style_gen.h **** static inline bool lv_obj_get_style_clip_corner(const struct _lv_obj_t * obj, uint32_t part)
 134:Middlewares/lvgl/src/widgets/../core/lv_obj_style_gen.h **** {
 135:Middlewares/lvgl/src/widgets/../core/lv_obj_style_gen.h ****     lv_style_value_t v = lv_obj_get_style_prop(obj, part, LV_STYLE_CLIP_CORNER);
 136:Middlewares/lvgl/src/widgets/../core/lv_obj_style_gen.h ****     return (bool)v.num;
 137:Middlewares/lvgl/src/widgets/../core/lv_obj_style_gen.h **** }
 138:Middlewares/lvgl/src/widgets/../core/lv_obj_style_gen.h **** 
 139:Middlewares/lvgl/src/widgets/../core/lv_obj_style_gen.h **** static inline lv_opa_t lv_obj_get_style_opa(const struct _lv_obj_t * obj, uint32_t part)
 140:Middlewares/lvgl/src/widgets/../core/lv_obj_style_gen.h **** {
 141:Middlewares/lvgl/src/widgets/../core/lv_obj_style_gen.h ****     lv_style_value_t v = lv_obj_get_style_prop(obj, part, LV_STYLE_OPA);
 142:Middlewares/lvgl/src/widgets/../core/lv_obj_style_gen.h ****     return (lv_opa_t)v.num;
 143:Middlewares/lvgl/src/widgets/../core/lv_obj_style_gen.h **** }
 144:Middlewares/lvgl/src/widgets/../core/lv_obj_style_gen.h **** 
 145:Middlewares/lvgl/src/widgets/../core/lv_obj_style_gen.h **** static inline const lv_color_filter_dsc_t * lv_obj_get_style_color_filter_dsc(const struct _lv_obj_
 146:Middlewares/lvgl/src/widgets/../core/lv_obj_style_gen.h **** {
 147:Middlewares/lvgl/src/widgets/../core/lv_obj_style_gen.h ****     lv_style_value_t v = lv_obj_get_style_prop(obj, part, LV_STYLE_COLOR_FILTER_DSC);
 148:Middlewares/lvgl/src/widgets/../core/lv_obj_style_gen.h ****     return (const lv_color_filter_dsc_t *)v.ptr;
 149:Middlewares/lvgl/src/widgets/../core/lv_obj_style_gen.h **** }
 150:Middlewares/lvgl/src/widgets/../core/lv_obj_style_gen.h **** 
 151:Middlewares/lvgl/src/widgets/../core/lv_obj_style_gen.h **** static inline lv_opa_t lv_obj_get_style_color_filter_opa(const struct _lv_obj_t * obj, uint32_t par
 152:Middlewares/lvgl/src/widgets/../core/lv_obj_style_gen.h **** {
 153:Middlewares/lvgl/src/widgets/../core/lv_obj_style_gen.h ****     lv_style_value_t v = lv_obj_get_style_prop(obj, part, LV_STYLE_COLOR_FILTER_OPA);
 154:Middlewares/lvgl/src/widgets/../core/lv_obj_style_gen.h ****     return (lv_opa_t)v.num;
 155:Middlewares/lvgl/src/widgets/../core/lv_obj_style_gen.h **** }
 156:Middlewares/lvgl/src/widgets/../core/lv_obj_style_gen.h **** 
 157:Middlewares/lvgl/src/widgets/../core/lv_obj_style_gen.h **** static inline uint32_t lv_obj_get_style_anim_time(const struct _lv_obj_t * obj, uint32_t part)
 158:Middlewares/lvgl/src/widgets/../core/lv_obj_style_gen.h **** {
 159:Middlewares/lvgl/src/widgets/../core/lv_obj_style_gen.h ****     lv_style_value_t v = lv_obj_get_style_prop(obj, part, LV_STYLE_ANIM_TIME);
 160:Middlewares/lvgl/src/widgets/../core/lv_obj_style_gen.h ****     return (uint32_t)v.num;
 161:Middlewares/lvgl/src/widgets/../core/lv_obj_style_gen.h **** }
 162:Middlewares/lvgl/src/widgets/../core/lv_obj_style_gen.h **** 
 163:Middlewares/lvgl/src/widgets/../core/lv_obj_style_gen.h **** static inline uint32_t lv_obj_get_style_anim_speed(const struct _lv_obj_t * obj, uint32_t part)
 164:Middlewares/lvgl/src/widgets/../core/lv_obj_style_gen.h **** {
ARM GAS  /tmp/ccTYGLnU.s 			page 30


 165:Middlewares/lvgl/src/widgets/../core/lv_obj_style_gen.h ****     lv_style_value_t v = lv_obj_get_style_prop(obj, part, LV_STYLE_ANIM_SPEED);
 166:Middlewares/lvgl/src/widgets/../core/lv_obj_style_gen.h ****     return (uint32_t)v.num;
 167:Middlewares/lvgl/src/widgets/../core/lv_obj_style_gen.h **** }
 168:Middlewares/lvgl/src/widgets/../core/lv_obj_style_gen.h **** 
 169:Middlewares/lvgl/src/widgets/../core/lv_obj_style_gen.h **** static inline const lv_style_transition_dsc_t * lv_obj_get_style_transition(const struct _lv_obj_t 
 170:Middlewares/lvgl/src/widgets/../core/lv_obj_style_gen.h **** {
 171:Middlewares/lvgl/src/widgets/../core/lv_obj_style_gen.h ****     lv_style_value_t v = lv_obj_get_style_prop(obj, part, LV_STYLE_TRANSITION);
 172:Middlewares/lvgl/src/widgets/../core/lv_obj_style_gen.h ****     return (const lv_style_transition_dsc_t *)v.ptr;
 173:Middlewares/lvgl/src/widgets/../core/lv_obj_style_gen.h **** }
 174:Middlewares/lvgl/src/widgets/../core/lv_obj_style_gen.h **** 
 175:Middlewares/lvgl/src/widgets/../core/lv_obj_style_gen.h **** static inline lv_blend_mode_t lv_obj_get_style_blend_mode(const struct _lv_obj_t * obj, uint32_t pa
 176:Middlewares/lvgl/src/widgets/../core/lv_obj_style_gen.h **** {
 177:Middlewares/lvgl/src/widgets/../core/lv_obj_style_gen.h ****     lv_style_value_t v = lv_obj_get_style_prop(obj, part, LV_STYLE_BLEND_MODE);
 178:Middlewares/lvgl/src/widgets/../core/lv_obj_style_gen.h ****     return (lv_blend_mode_t)v.num;
 179:Middlewares/lvgl/src/widgets/../core/lv_obj_style_gen.h **** }
 180:Middlewares/lvgl/src/widgets/../core/lv_obj_style_gen.h **** 
 181:Middlewares/lvgl/src/widgets/../core/lv_obj_style_gen.h **** static inline uint16_t lv_obj_get_style_layout(const struct _lv_obj_t * obj, uint32_t part)
 182:Middlewares/lvgl/src/widgets/../core/lv_obj_style_gen.h **** {
 183:Middlewares/lvgl/src/widgets/../core/lv_obj_style_gen.h ****     lv_style_value_t v = lv_obj_get_style_prop(obj, part, LV_STYLE_LAYOUT);
 184:Middlewares/lvgl/src/widgets/../core/lv_obj_style_gen.h ****     return (uint16_t)v.num;
 185:Middlewares/lvgl/src/widgets/../core/lv_obj_style_gen.h **** }
 186:Middlewares/lvgl/src/widgets/../core/lv_obj_style_gen.h **** 
 187:Middlewares/lvgl/src/widgets/../core/lv_obj_style_gen.h **** static inline lv_base_dir_t lv_obj_get_style_base_dir(const struct _lv_obj_t * obj, uint32_t part)
 188:Middlewares/lvgl/src/widgets/../core/lv_obj_style_gen.h **** {
 189:Middlewares/lvgl/src/widgets/../core/lv_obj_style_gen.h ****     lv_style_value_t v = lv_obj_get_style_prop(obj, part, LV_STYLE_BASE_DIR);
 190:Middlewares/lvgl/src/widgets/../core/lv_obj_style_gen.h ****     return (lv_base_dir_t)v.num;
 191:Middlewares/lvgl/src/widgets/../core/lv_obj_style_gen.h **** }
 192:Middlewares/lvgl/src/widgets/../core/lv_obj_style_gen.h **** 
 193:Middlewares/lvgl/src/widgets/../core/lv_obj_style_gen.h **** static inline lv_color_t lv_obj_get_style_bg_color(const struct _lv_obj_t * obj, uint32_t part)
 194:Middlewares/lvgl/src/widgets/../core/lv_obj_style_gen.h **** {
 195:Middlewares/lvgl/src/widgets/../core/lv_obj_style_gen.h ****     lv_style_value_t v = lv_obj_get_style_prop(obj, part, LV_STYLE_BG_COLOR);
 196:Middlewares/lvgl/src/widgets/../core/lv_obj_style_gen.h ****     return v.color;
 197:Middlewares/lvgl/src/widgets/../core/lv_obj_style_gen.h **** }
 198:Middlewares/lvgl/src/widgets/../core/lv_obj_style_gen.h **** 
 199:Middlewares/lvgl/src/widgets/../core/lv_obj_style_gen.h **** static inline lv_color_t lv_obj_get_style_bg_color_filtered(const struct _lv_obj_t * obj, uint32_t 
 200:Middlewares/lvgl/src/widgets/../core/lv_obj_style_gen.h **** {
 201:Middlewares/lvgl/src/widgets/../core/lv_obj_style_gen.h ****     lv_style_value_t v = lv_obj_get_style_prop(obj, part, LV_STYLE_BG_COLOR_FILTERED);
 202:Middlewares/lvgl/src/widgets/../core/lv_obj_style_gen.h ****     return v.color;
 203:Middlewares/lvgl/src/widgets/../core/lv_obj_style_gen.h **** }
 204:Middlewares/lvgl/src/widgets/../core/lv_obj_style_gen.h **** 
 205:Middlewares/lvgl/src/widgets/../core/lv_obj_style_gen.h **** static inline lv_opa_t lv_obj_get_style_bg_opa(const struct _lv_obj_t * obj, uint32_t part)
 206:Middlewares/lvgl/src/widgets/../core/lv_obj_style_gen.h **** {
 207:Middlewares/lvgl/src/widgets/../core/lv_obj_style_gen.h ****     lv_style_value_t v = lv_obj_get_style_prop(obj, part, LV_STYLE_BG_OPA);
 208:Middlewares/lvgl/src/widgets/../core/lv_obj_style_gen.h ****     return (lv_opa_t)v.num;
 209:Middlewares/lvgl/src/widgets/../core/lv_obj_style_gen.h **** }
 210:Middlewares/lvgl/src/widgets/../core/lv_obj_style_gen.h **** 
 211:Middlewares/lvgl/src/widgets/../core/lv_obj_style_gen.h **** static inline lv_color_t lv_obj_get_style_bg_grad_color(const struct _lv_obj_t * obj, uint32_t part
 212:Middlewares/lvgl/src/widgets/../core/lv_obj_style_gen.h **** {
 213:Middlewares/lvgl/src/widgets/../core/lv_obj_style_gen.h ****     lv_style_value_t v = lv_obj_get_style_prop(obj, part, LV_STYLE_BG_GRAD_COLOR);
 214:Middlewares/lvgl/src/widgets/../core/lv_obj_style_gen.h ****     return v.color;
 215:Middlewares/lvgl/src/widgets/../core/lv_obj_style_gen.h **** }
 216:Middlewares/lvgl/src/widgets/../core/lv_obj_style_gen.h **** 
 217:Middlewares/lvgl/src/widgets/../core/lv_obj_style_gen.h **** static inline lv_color_t lv_obj_get_style_bg_grad_color_filtered(const struct _lv_obj_t * obj, uint
 218:Middlewares/lvgl/src/widgets/../core/lv_obj_style_gen.h **** {
 219:Middlewares/lvgl/src/widgets/../core/lv_obj_style_gen.h ****     lv_style_value_t v = lv_obj_get_style_prop(obj, part, LV_STYLE_BG_GRAD_COLOR_FILTERED);
 220:Middlewares/lvgl/src/widgets/../core/lv_obj_style_gen.h ****     return v.color;
 221:Middlewares/lvgl/src/widgets/../core/lv_obj_style_gen.h **** }
ARM GAS  /tmp/ccTYGLnU.s 			page 31


 222:Middlewares/lvgl/src/widgets/../core/lv_obj_style_gen.h **** 
 223:Middlewares/lvgl/src/widgets/../core/lv_obj_style_gen.h **** static inline lv_grad_dir_t lv_obj_get_style_bg_grad_dir(const struct _lv_obj_t * obj, uint32_t par
 224:Middlewares/lvgl/src/widgets/../core/lv_obj_style_gen.h **** {
 225:Middlewares/lvgl/src/widgets/../core/lv_obj_style_gen.h ****     lv_style_value_t v = lv_obj_get_style_prop(obj, part, LV_STYLE_BG_GRAD_DIR);
 226:Middlewares/lvgl/src/widgets/../core/lv_obj_style_gen.h ****     return (lv_grad_dir_t)v.num;
 227:Middlewares/lvgl/src/widgets/../core/lv_obj_style_gen.h **** }
 228:Middlewares/lvgl/src/widgets/../core/lv_obj_style_gen.h **** 
 229:Middlewares/lvgl/src/widgets/../core/lv_obj_style_gen.h **** static inline lv_coord_t lv_obj_get_style_bg_main_stop(const struct _lv_obj_t * obj, uint32_t part)
 230:Middlewares/lvgl/src/widgets/../core/lv_obj_style_gen.h **** {
 231:Middlewares/lvgl/src/widgets/../core/lv_obj_style_gen.h ****     lv_style_value_t v = lv_obj_get_style_prop(obj, part, LV_STYLE_BG_MAIN_STOP);
 232:Middlewares/lvgl/src/widgets/../core/lv_obj_style_gen.h ****     return (lv_coord_t)v.num;
 233:Middlewares/lvgl/src/widgets/../core/lv_obj_style_gen.h **** }
 234:Middlewares/lvgl/src/widgets/../core/lv_obj_style_gen.h **** 
 235:Middlewares/lvgl/src/widgets/../core/lv_obj_style_gen.h **** static inline lv_coord_t lv_obj_get_style_bg_grad_stop(const struct _lv_obj_t * obj, uint32_t part)
 236:Middlewares/lvgl/src/widgets/../core/lv_obj_style_gen.h **** {
 237:Middlewares/lvgl/src/widgets/../core/lv_obj_style_gen.h ****     lv_style_value_t v = lv_obj_get_style_prop(obj, part, LV_STYLE_BG_GRAD_STOP);
 238:Middlewares/lvgl/src/widgets/../core/lv_obj_style_gen.h ****     return (lv_coord_t)v.num;
 239:Middlewares/lvgl/src/widgets/../core/lv_obj_style_gen.h **** }
 240:Middlewares/lvgl/src/widgets/../core/lv_obj_style_gen.h **** 
 241:Middlewares/lvgl/src/widgets/../core/lv_obj_style_gen.h **** static inline const void * lv_obj_get_style_bg_img_src(const struct _lv_obj_t * obj, uint32_t part)
 242:Middlewares/lvgl/src/widgets/../core/lv_obj_style_gen.h **** {
 243:Middlewares/lvgl/src/widgets/../core/lv_obj_style_gen.h ****     lv_style_value_t v = lv_obj_get_style_prop(obj, part, LV_STYLE_BG_IMG_SRC);
 244:Middlewares/lvgl/src/widgets/../core/lv_obj_style_gen.h ****     return (const void *)v.ptr;
 245:Middlewares/lvgl/src/widgets/../core/lv_obj_style_gen.h **** }
 246:Middlewares/lvgl/src/widgets/../core/lv_obj_style_gen.h **** 
 247:Middlewares/lvgl/src/widgets/../core/lv_obj_style_gen.h **** static inline lv_opa_t lv_obj_get_style_bg_img_opa(const struct _lv_obj_t * obj, uint32_t part)
 248:Middlewares/lvgl/src/widgets/../core/lv_obj_style_gen.h **** {
 249:Middlewares/lvgl/src/widgets/../core/lv_obj_style_gen.h ****     lv_style_value_t v = lv_obj_get_style_prop(obj, part, LV_STYLE_BG_IMG_OPA);
 250:Middlewares/lvgl/src/widgets/../core/lv_obj_style_gen.h ****     return (lv_opa_t)v.num;
 251:Middlewares/lvgl/src/widgets/../core/lv_obj_style_gen.h **** }
 252:Middlewares/lvgl/src/widgets/../core/lv_obj_style_gen.h **** 
 253:Middlewares/lvgl/src/widgets/../core/lv_obj_style_gen.h **** static inline lv_color_t lv_obj_get_style_bg_img_recolor(const struct _lv_obj_t * obj, uint32_t par
 254:Middlewares/lvgl/src/widgets/../core/lv_obj_style_gen.h **** {
 255:Middlewares/lvgl/src/widgets/../core/lv_obj_style_gen.h ****     lv_style_value_t v = lv_obj_get_style_prop(obj, part, LV_STYLE_BG_IMG_RECOLOR);
 256:Middlewares/lvgl/src/widgets/../core/lv_obj_style_gen.h ****     return v.color;
 257:Middlewares/lvgl/src/widgets/../core/lv_obj_style_gen.h **** }
 258:Middlewares/lvgl/src/widgets/../core/lv_obj_style_gen.h **** 
 259:Middlewares/lvgl/src/widgets/../core/lv_obj_style_gen.h **** static inline lv_color_t lv_obj_get_style_bg_img_recolor_filtered(const struct _lv_obj_t * obj, uin
 260:Middlewares/lvgl/src/widgets/../core/lv_obj_style_gen.h **** {
 261:Middlewares/lvgl/src/widgets/../core/lv_obj_style_gen.h ****     lv_style_value_t v = lv_obj_get_style_prop(obj, part, LV_STYLE_BG_IMG_RECOLOR_FILTERED);
 262:Middlewares/lvgl/src/widgets/../core/lv_obj_style_gen.h ****     return v.color;
 263:Middlewares/lvgl/src/widgets/../core/lv_obj_style_gen.h **** }
 264:Middlewares/lvgl/src/widgets/../core/lv_obj_style_gen.h **** 
 265:Middlewares/lvgl/src/widgets/../core/lv_obj_style_gen.h **** static inline lv_opa_t lv_obj_get_style_bg_img_recolor_opa(const struct _lv_obj_t * obj, uint32_t p
 266:Middlewares/lvgl/src/widgets/../core/lv_obj_style_gen.h **** {
 267:Middlewares/lvgl/src/widgets/../core/lv_obj_style_gen.h ****     lv_style_value_t v = lv_obj_get_style_prop(obj, part, LV_STYLE_BG_IMG_RECOLOR_OPA);
 268:Middlewares/lvgl/src/widgets/../core/lv_obj_style_gen.h ****     return (lv_opa_t)v.num;
 269:Middlewares/lvgl/src/widgets/../core/lv_obj_style_gen.h **** }
 270:Middlewares/lvgl/src/widgets/../core/lv_obj_style_gen.h **** 
 271:Middlewares/lvgl/src/widgets/../core/lv_obj_style_gen.h **** static inline bool lv_obj_get_style_bg_img_tiled(const struct _lv_obj_t * obj, uint32_t part)
 272:Middlewares/lvgl/src/widgets/../core/lv_obj_style_gen.h **** {
 273:Middlewares/lvgl/src/widgets/../core/lv_obj_style_gen.h ****     lv_style_value_t v = lv_obj_get_style_prop(obj, part, LV_STYLE_BG_IMG_TILED);
 274:Middlewares/lvgl/src/widgets/../core/lv_obj_style_gen.h ****     return (bool)v.num;
 275:Middlewares/lvgl/src/widgets/../core/lv_obj_style_gen.h **** }
 276:Middlewares/lvgl/src/widgets/../core/lv_obj_style_gen.h **** 
 277:Middlewares/lvgl/src/widgets/../core/lv_obj_style_gen.h **** static inline lv_color_t lv_obj_get_style_border_color(const struct _lv_obj_t * obj, uint32_t part)
 278:Middlewares/lvgl/src/widgets/../core/lv_obj_style_gen.h **** {
ARM GAS  /tmp/ccTYGLnU.s 			page 32


 279:Middlewares/lvgl/src/widgets/../core/lv_obj_style_gen.h ****     lv_style_value_t v = lv_obj_get_style_prop(obj, part, LV_STYLE_BORDER_COLOR);
 280:Middlewares/lvgl/src/widgets/../core/lv_obj_style_gen.h ****     return v.color;
 281:Middlewares/lvgl/src/widgets/../core/lv_obj_style_gen.h **** }
 282:Middlewares/lvgl/src/widgets/../core/lv_obj_style_gen.h **** 
 283:Middlewares/lvgl/src/widgets/../core/lv_obj_style_gen.h **** static inline lv_color_t lv_obj_get_style_border_color_filtered(const struct _lv_obj_t * obj, uint3
 284:Middlewares/lvgl/src/widgets/../core/lv_obj_style_gen.h **** {
 285:Middlewares/lvgl/src/widgets/../core/lv_obj_style_gen.h ****     lv_style_value_t v = lv_obj_get_style_prop(obj, part, LV_STYLE_BORDER_COLOR_FILTERED);
 286:Middlewares/lvgl/src/widgets/../core/lv_obj_style_gen.h ****     return v.color;
 287:Middlewares/lvgl/src/widgets/../core/lv_obj_style_gen.h **** }
 288:Middlewares/lvgl/src/widgets/../core/lv_obj_style_gen.h **** 
 289:Middlewares/lvgl/src/widgets/../core/lv_obj_style_gen.h **** static inline lv_opa_t lv_obj_get_style_border_opa(const struct _lv_obj_t * obj, uint32_t part)
 290:Middlewares/lvgl/src/widgets/../core/lv_obj_style_gen.h **** {
 291:Middlewares/lvgl/src/widgets/../core/lv_obj_style_gen.h ****     lv_style_value_t v = lv_obj_get_style_prop(obj, part, LV_STYLE_BORDER_OPA);
 292:Middlewares/lvgl/src/widgets/../core/lv_obj_style_gen.h ****     return (lv_opa_t)v.num;
 293:Middlewares/lvgl/src/widgets/../core/lv_obj_style_gen.h **** }
 294:Middlewares/lvgl/src/widgets/../core/lv_obj_style_gen.h **** 
 295:Middlewares/lvgl/src/widgets/../core/lv_obj_style_gen.h **** static inline lv_coord_t lv_obj_get_style_border_width(const struct _lv_obj_t * obj, uint32_t part)
 296:Middlewares/lvgl/src/widgets/../core/lv_obj_style_gen.h **** {
 297:Middlewares/lvgl/src/widgets/../core/lv_obj_style_gen.h ****     lv_style_value_t v = lv_obj_get_style_prop(obj, part, LV_STYLE_BORDER_WIDTH);
 298:Middlewares/lvgl/src/widgets/../core/lv_obj_style_gen.h ****     return (lv_coord_t)v.num;
 299:Middlewares/lvgl/src/widgets/../core/lv_obj_style_gen.h **** }
 300:Middlewares/lvgl/src/widgets/../core/lv_obj_style_gen.h **** 
 301:Middlewares/lvgl/src/widgets/../core/lv_obj_style_gen.h **** static inline lv_border_side_t lv_obj_get_style_border_side(const struct _lv_obj_t * obj, uint32_t 
 302:Middlewares/lvgl/src/widgets/../core/lv_obj_style_gen.h **** {
 303:Middlewares/lvgl/src/widgets/../core/lv_obj_style_gen.h ****     lv_style_value_t v = lv_obj_get_style_prop(obj, part, LV_STYLE_BORDER_SIDE);
 304:Middlewares/lvgl/src/widgets/../core/lv_obj_style_gen.h ****     return (lv_border_side_t)v.num;
 305:Middlewares/lvgl/src/widgets/../core/lv_obj_style_gen.h **** }
 306:Middlewares/lvgl/src/widgets/../core/lv_obj_style_gen.h **** 
 307:Middlewares/lvgl/src/widgets/../core/lv_obj_style_gen.h **** static inline bool lv_obj_get_style_border_post(const struct _lv_obj_t * obj, uint32_t part)
 308:Middlewares/lvgl/src/widgets/../core/lv_obj_style_gen.h **** {
 309:Middlewares/lvgl/src/widgets/../core/lv_obj_style_gen.h ****     lv_style_value_t v = lv_obj_get_style_prop(obj, part, LV_STYLE_BORDER_POST);
 310:Middlewares/lvgl/src/widgets/../core/lv_obj_style_gen.h ****     return (bool)v.num;
 311:Middlewares/lvgl/src/widgets/../core/lv_obj_style_gen.h **** }
 312:Middlewares/lvgl/src/widgets/../core/lv_obj_style_gen.h **** 
 313:Middlewares/lvgl/src/widgets/../core/lv_obj_style_gen.h **** static inline lv_color_t lv_obj_get_style_text_color(const struct _lv_obj_t * obj, uint32_t part)
 314:Middlewares/lvgl/src/widgets/../core/lv_obj_style_gen.h **** {
 315:Middlewares/lvgl/src/widgets/../core/lv_obj_style_gen.h ****     lv_style_value_t v = lv_obj_get_style_prop(obj, part, LV_STYLE_TEXT_COLOR);
 316:Middlewares/lvgl/src/widgets/../core/lv_obj_style_gen.h ****     return v.color;
 317:Middlewares/lvgl/src/widgets/../core/lv_obj_style_gen.h **** }
 318:Middlewares/lvgl/src/widgets/../core/lv_obj_style_gen.h **** 
 319:Middlewares/lvgl/src/widgets/../core/lv_obj_style_gen.h **** static inline lv_color_t lv_obj_get_style_text_color_filtered(const struct _lv_obj_t * obj, uint32_
 320:Middlewares/lvgl/src/widgets/../core/lv_obj_style_gen.h **** {
 321:Middlewares/lvgl/src/widgets/../core/lv_obj_style_gen.h ****     lv_style_value_t v = lv_obj_get_style_prop(obj, part, LV_STYLE_TEXT_COLOR_FILTERED);
 322:Middlewares/lvgl/src/widgets/../core/lv_obj_style_gen.h ****     return v.color;
 323:Middlewares/lvgl/src/widgets/../core/lv_obj_style_gen.h **** }
 324:Middlewares/lvgl/src/widgets/../core/lv_obj_style_gen.h **** 
 325:Middlewares/lvgl/src/widgets/../core/lv_obj_style_gen.h **** static inline lv_opa_t lv_obj_get_style_text_opa(const struct _lv_obj_t * obj, uint32_t part)
 326:Middlewares/lvgl/src/widgets/../core/lv_obj_style_gen.h **** {
 327:Middlewares/lvgl/src/widgets/../core/lv_obj_style_gen.h ****     lv_style_value_t v = lv_obj_get_style_prop(obj, part, LV_STYLE_TEXT_OPA);
 328:Middlewares/lvgl/src/widgets/../core/lv_obj_style_gen.h ****     return (lv_opa_t)v.num;
 329:Middlewares/lvgl/src/widgets/../core/lv_obj_style_gen.h **** }
 330:Middlewares/lvgl/src/widgets/../core/lv_obj_style_gen.h **** 
 331:Middlewares/lvgl/src/widgets/../core/lv_obj_style_gen.h **** static inline const lv_font_t * lv_obj_get_style_text_font(const struct _lv_obj_t * obj, uint32_t p
 332:Middlewares/lvgl/src/widgets/../core/lv_obj_style_gen.h **** {
 333:Middlewares/lvgl/src/widgets/../core/lv_obj_style_gen.h ****     lv_style_value_t v = lv_obj_get_style_prop(obj, part, LV_STYLE_TEXT_FONT);
 334:Middlewares/lvgl/src/widgets/../core/lv_obj_style_gen.h ****     return (const lv_font_t *)v.ptr;
 335:Middlewares/lvgl/src/widgets/../core/lv_obj_style_gen.h **** }
ARM GAS  /tmp/ccTYGLnU.s 			page 33


 336:Middlewares/lvgl/src/widgets/../core/lv_obj_style_gen.h **** 
 337:Middlewares/lvgl/src/widgets/../core/lv_obj_style_gen.h **** static inline lv_coord_t lv_obj_get_style_text_letter_space(const struct _lv_obj_t * obj, uint32_t 
 460              		.loc 3 337 26 view .LVU146
 461              	.LBB103:
 338:Middlewares/lvgl/src/widgets/../core/lv_obj_style_gen.h **** {
 339:Middlewares/lvgl/src/widgets/../core/lv_obj_style_gen.h ****     lv_style_value_t v = lv_obj_get_style_prop(obj, part, LV_STYLE_TEXT_LETTER_SPACE);
 462              		.loc 3 339 5 view .LVU147
 463              		.loc 3 339 26 is_stmt 0 view .LVU148
 464 0050 41F25A42 		movw	r2, #5210
 465 0054 4FF4A021 		mov	r1, #327680
 466 0058 2846     		mov	r0, r5
 467 005a FFF7FEFF 		bl	lv_obj_get_style_prop
 468              	.LVL53:
 340:Middlewares/lvgl/src/widgets/../core/lv_obj_style_gen.h ****     return (lv_coord_t)v.num;
 469              		.loc 3 340 5 is_stmt 1 view .LVU149
 470              		.loc 3 340 12 is_stmt 0 view .LVU150
 471 005e 03B2     		sxth	r3, r0
 472 0060 0893     		str	r3, [sp, #32]
 473              	.LVL54:
 474              		.loc 3 340 12 view .LVU151
 475              	.LBE103:
 476              	.LBE102:
 776:Middlewares/lvgl/src/widgets/lv_table.c ****     const lv_font_t * font = lv_obj_get_style_text_font(obj, LV_PART_ITEMS);
 477              		.loc 1 776 5 is_stmt 1 view .LVU152
 478              	.LBB104:
 479              	.LBI104:
 341:Middlewares/lvgl/src/widgets/../core/lv_obj_style_gen.h **** }
 342:Middlewares/lvgl/src/widgets/../core/lv_obj_style_gen.h **** 
 343:Middlewares/lvgl/src/widgets/../core/lv_obj_style_gen.h **** static inline lv_coord_t lv_obj_get_style_text_line_space(const struct _lv_obj_t * obj, uint32_t pa
 480              		.loc 3 343 26 view .LVU153
 481              	.LBB105:
 344:Middlewares/lvgl/src/widgets/../core/lv_obj_style_gen.h **** {
 345:Middlewares/lvgl/src/widgets/../core/lv_obj_style_gen.h ****     lv_style_value_t v = lv_obj_get_style_prop(obj, part, LV_STYLE_TEXT_LINE_SPACE);
 482              		.loc 3 345 5 view .LVU154
 483              		.loc 3 345 26 is_stmt 0 view .LVU155
 484 0062 41F25B42 		movw	r2, #5211
 485 0066 4FF4A021 		mov	r1, #327680
 486 006a 2846     		mov	r0, r5
 487 006c FFF7FEFF 		bl	lv_obj_get_style_prop
 488              	.LVL55:
 346:Middlewares/lvgl/src/widgets/../core/lv_obj_style_gen.h ****     return (lv_coord_t)v.num;
 489              		.loc 3 346 5 is_stmt 1 view .LVU156
 490              		.loc 3 346 12 is_stmt 0 view .LVU157
 491 0070 03B2     		sxth	r3, r0
 492 0072 0793     		str	r3, [sp, #28]
 493              	.LVL56:
 494              		.loc 3 346 12 view .LVU158
 495              	.LBE105:
 496              	.LBE104:
 777:Middlewares/lvgl/src/widgets/lv_table.c **** 
 497              		.loc 1 777 5 is_stmt 1 view .LVU159
 498              	.LBB106:
 499              	.LBI106:
 331:Middlewares/lvgl/src/widgets/../core/lv_obj_style_gen.h **** {
 500              		.loc 3 331 33 view .LVU160
 501              	.LBB107:
 333:Middlewares/lvgl/src/widgets/../core/lv_obj_style_gen.h ****     return (const lv_font_t *)v.ptr;
ARM GAS  /tmp/ccTYGLnU.s 			page 34


 502              		.loc 3 333 5 view .LVU161
 333:Middlewares/lvgl/src/widgets/../core/lv_obj_style_gen.h ****     return (const lv_font_t *)v.ptr;
 503              		.loc 3 333 26 is_stmt 0 view .LVU162
 504 0074 41F25942 		movw	r2, #5209
 505 0078 4FF4A021 		mov	r1, #327680
 506 007c 2846     		mov	r0, r5
 507 007e FFF7FEFF 		bl	lv_obj_get_style_prop
 508              	.LVL57:
 509 0082 0690     		str	r0, [sp, #24]
 334:Middlewares/lvgl/src/widgets/../core/lv_obj_style_gen.h **** }
 510              		.loc 3 334 5 is_stmt 1 view .LVU163
 511              	.LVL58:
 334:Middlewares/lvgl/src/widgets/../core/lv_obj_style_gen.h **** }
 512              		.loc 3 334 5 is_stmt 0 view .LVU164
 513              	.LBE107:
 514              	.LBE106:
 779:Middlewares/lvgl/src/widgets/lv_table.c ****     lv_coord_t maxh = lv_obj_get_style_max_height(obj, LV_PART_ITEMS);
 515              		.loc 1 779 5 is_stmt 1 view .LVU165
 516              	.LBB108:
 517              	.LBI108:
  25:Middlewares/lvgl/src/widgets/../core/lv_obj_style_gen.h **** {
 518              		.loc 3 25 26 view .LVU166
 519              	.LBB109:
  27:Middlewares/lvgl/src/widgets/../core/lv_obj_style_gen.h ****     return (lv_coord_t)v.num;
 520              		.loc 3 27 5 view .LVU167
  27:Middlewares/lvgl/src/widgets/../core/lv_obj_style_gen.h ****     return (lv_coord_t)v.num;
 521              		.loc 3 27 26 is_stmt 0 view .LVU168
 522 0084 41F20502 		movw	r2, #4101
 523 0088 4FF4A021 		mov	r1, #327680
 524 008c 2846     		mov	r0, r5
 525              	.LVL59:
  27:Middlewares/lvgl/src/widgets/../core/lv_obj_style_gen.h ****     return (lv_coord_t)v.num;
 526              		.loc 3 27 26 view .LVU169
 527 008e FFF7FEFF 		bl	lv_obj_get_style_prop
 528              	.LVL60:
  28:Middlewares/lvgl/src/widgets/../core/lv_obj_style_gen.h **** }
 529              		.loc 3 28 5 is_stmt 1 view .LVU170
  28:Middlewares/lvgl/src/widgets/../core/lv_obj_style_gen.h **** }
 530              		.loc 3 28 12 is_stmt 0 view .LVU171
 531 0092 0FFA80F8 		sxth	r8, r0
 532              	.LVL61:
  28:Middlewares/lvgl/src/widgets/../core/lv_obj_style_gen.h **** }
 533              		.loc 3 28 12 view .LVU172
 534              	.LBE109:
 535              	.LBE108:
 780:Middlewares/lvgl/src/widgets/lv_table.c **** 
 536              		.loc 1 780 5 is_stmt 1 view .LVU173
 537              	.LBB110:
 538              	.LBI110:
  31:Middlewares/lvgl/src/widgets/../core/lv_obj_style_gen.h **** {
 539              		.loc 3 31 26 view .LVU174
 540              	.LBB111:
  33:Middlewares/lvgl/src/widgets/../core/lv_obj_style_gen.h ****     return (lv_coord_t)v.num;
 541              		.loc 3 33 5 view .LVU175
  33:Middlewares/lvgl/src/widgets/../core/lv_obj_style_gen.h ****     return (lv_coord_t)v.num;
 542              		.loc 3 33 26 is_stmt 0 view .LVU176
 543 0096 41F20602 		movw	r2, #4102
ARM GAS  /tmp/ccTYGLnU.s 			page 35


 544 009a 4FF4A021 		mov	r1, #327680
 545 009e 2846     		mov	r0, r5
 546 00a0 FFF7FEFF 		bl	lv_obj_get_style_prop
 547              	.LVL62:
  34:Middlewares/lvgl/src/widgets/../core/lv_obj_style_gen.h **** }
 548              		.loc 3 34 5 is_stmt 1 view .LVU177
  34:Middlewares/lvgl/src/widgets/../core/lv_obj_style_gen.h **** }
 549              		.loc 3 34 12 is_stmt 0 view .LVU178
 550 00a4 07B2     		sxth	r7, r0
 551              	.LVL63:
  34:Middlewares/lvgl/src/widgets/../core/lv_obj_style_gen.h **** }
 552              		.loc 3 34 12 view .LVU179
 553              	.LBE111:
 554              	.LBE110:
 782:Middlewares/lvgl/src/widgets/lv_table.c ****         table->row_h[i] = get_row_height(obj, i, font, letter_space, line_space,
 555              		.loc 1 782 5 is_stmt 1 view .LVU180
 782:Middlewares/lvgl/src/widgets/lv_table.c ****         table->row_h[i] = get_row_height(obj, i, font, letter_space, line_space,
 556              		.loc 1 782 5 is_stmt 0 view .LVU181
 557 00a6 1EE0     		b	.L12
 558              	.LVL64:
 559              	.L13:
 783:Middlewares/lvgl/src/widgets/lv_table.c ****                                        cell_left, cell_right, cell_top, cell_bottom);
 560              		.loc 1 783 9 is_stmt 1 discriminator 3 view .LVU182
 783:Middlewares/lvgl/src/widgets/lv_table.c ****                                        cell_left, cell_right, cell_top, cell_bottom);
 561              		.loc 1 783 14 is_stmt 0 discriminator 3 view .LVU183
 562 00a8 EE6A     		ldr	r6, [r5, #44]
 783:Middlewares/lvgl/src/widgets/lv_table.c ****                                        cell_left, cell_right, cell_top, cell_bottom);
 563              		.loc 1 783 27 discriminator 3 view .LVU184
 564 00aa 099B     		ldr	r3, [sp, #36]
 565 00ac 0493     		str	r3, [sp, #16]
 566 00ae CDF80C90 		str	r9, [sp, #12]
 567 00b2 CDF808A0 		str	r10, [sp, #8]
 568 00b6 CDF804B0 		str	fp, [sp, #4]
 569 00ba 079B     		ldr	r3, [sp, #28]
 570 00bc 0093     		str	r3, [sp]
 571 00be 089B     		ldr	r3, [sp, #32]
 572 00c0 069A     		ldr	r2, [sp, #24]
 573 00c2 A1B2     		uxth	r1, r4
 574 00c4 2846     		mov	r0, r5
 575 00c6 FFF7FEFF 		bl	get_row_height
 576              	.LVL65:
 783:Middlewares/lvgl/src/widgets/lv_table.c ****                                        cell_left, cell_right, cell_top, cell_bottom);
 577              		.loc 1 783 25 discriminator 3 view .LVU185
 578 00ca 26F81400 		strh	r0, [r6, r4, lsl #1]	@ movhi
 785:Middlewares/lvgl/src/widgets/lv_table.c ****     }
 579              		.loc 1 785 9 is_stmt 1 discriminator 3 view .LVU186
 785:Middlewares/lvgl/src/widgets/lv_table.c ****     }
 580              		.loc 1 785 27 is_stmt 0 discriminator 3 view .LVU187
 581 00ce EA6A     		ldr	r2, [r5, #44]
 582 00d0 32F91430 		ldrsh	r3, [r2, r4, lsl #1]
 583 00d4 BB42     		cmp	r3, r7
 584 00d6 A8BF     		it	ge
 585 00d8 3B46     		movge	r3, r7
 586 00da 4345     		cmp	r3, r8
 587 00dc B8BF     		it	lt
 588 00de 4346     		movlt	r3, r8
 785:Middlewares/lvgl/src/widgets/lv_table.c ****     }
ARM GAS  /tmp/ccTYGLnU.s 			page 36


 589              		.loc 1 785 25 discriminator 3 view .LVU188
 590 00e0 22F81430 		strh	r3, [r2, r4, lsl #1]	@ movhi
 782:Middlewares/lvgl/src/widgets/lv_table.c ****         table->row_h[i] = get_row_height(obj, i, font, letter_space, line_space,
 591              		.loc 1 782 44 is_stmt 1 discriminator 3 view .LVU189
 782:Middlewares/lvgl/src/widgets/lv_table.c ****         table->row_h[i] = get_row_height(obj, i, font, letter_space, line_space,
 592              		.loc 1 782 45 is_stmt 0 discriminator 3 view .LVU190
 593 00e4 0134     		adds	r4, r4, #1
 594              	.LVL66:
 595              	.L12:
 782:Middlewares/lvgl/src/widgets/lv_table.c ****         table->row_h[i] = get_row_height(obj, i, font, letter_space, line_space,
 596              		.loc 1 782 24 is_stmt 1 discriminator 1 view .LVU191
 782:Middlewares/lvgl/src/widgets/lv_table.c ****         table->row_h[i] = get_row_height(obj, i, font, letter_space, line_space,
 597              		.loc 1 782 33 is_stmt 0 discriminator 1 view .LVU192
 598 00e6 EB8C     		ldrh	r3, [r5, #38]
 782:Middlewares/lvgl/src/widgets/lv_table.c ****         table->row_h[i] = get_row_height(obj, i, font, letter_space, line_space,
 599              		.loc 1 782 5 discriminator 1 view .LVU193
 600 00e8 A342     		cmp	r3, r4
 601 00ea DDD8     		bhi	.L13
 788:Middlewares/lvgl/src/widgets/lv_table.c **** }
 602              		.loc 1 788 5 is_stmt 1 view .LVU194
 603 00ec 2846     		mov	r0, r5
 604 00ee FFF7FEFF 		bl	lv_obj_refresh_self_size
 605              	.LVL67:
 789:Middlewares/lvgl/src/widgets/lv_table.c **** 
 606              		.loc 1 789 1 is_stmt 0 view .LVU195
 607 00f2 0BB0     		add	sp, sp, #44
 608              	.LCFI5:
 609              		.cfi_def_cfa_offset 36
 610              		@ sp needed
 611 00f4 BDE8F08F 		pop	{r4, r5, r6, r7, r8, r9, r10, fp, pc}
 789:Middlewares/lvgl/src/widgets/lv_table.c **** 
 612              		.loc 1 789 1 view .LVU196
 613              		.cfi_endproc
 614              	.LFE165:
 616              		.section	.text.get_pressed_cell,"ax",%progbits
 617              		.align	1
 618              		.syntax unified
 619              		.thumb
 620              		.thumb_func
 621              		.fpu softvfp
 623              	get_pressed_cell:
 624              	.LVL68:
 625              	.LFB167:
 848:Middlewares/lvgl/src/widgets/lv_table.c **** 
 849:Middlewares/lvgl/src/widgets/lv_table.c **** static lv_res_t get_pressed_cell(lv_obj_t * obj, uint16_t * row, uint16_t * col)
 850:Middlewares/lvgl/src/widgets/lv_table.c **** {
 626              		.loc 1 850 1 is_stmt 1 view -0
 627              		.cfi_startproc
 628              		@ args = 0, pretend = 0, frame = 8
 629              		@ frame_needed = 0, uses_anonymous_args = 0
 630              		.loc 1 850 1 is_stmt 0 view .LVU198
 631 0000 2DE9F041 		push	{r4, r5, r6, r7, r8, lr}
 632              	.LCFI6:
 633              		.cfi_def_cfa_offset 24
 634              		.cfi_offset 4, -24
 635              		.cfi_offset 5, -20
 636              		.cfi_offset 6, -16
ARM GAS  /tmp/ccTYGLnU.s 			page 37


 637              		.cfi_offset 7, -12
 638              		.cfi_offset 8, -8
 639              		.cfi_offset 14, -4
 640 0004 82B0     		sub	sp, sp, #8
 641              	.LCFI7:
 642              		.cfi_def_cfa_offset 32
 643 0006 0446     		mov	r4, r0
 644 0008 0D46     		mov	r5, r1
 645 000a 1646     		mov	r6, r2
 851:Middlewares/lvgl/src/widgets/lv_table.c ****    lv_table_t * table = (lv_table_t *)obj;
 646              		.loc 1 851 4 is_stmt 1 view .LVU199
 647              	.LVL69:
 852:Middlewares/lvgl/src/widgets/lv_table.c **** 
 853:Middlewares/lvgl/src/widgets/lv_table.c ****     lv_indev_type_t type = lv_indev_get_type(lv_indev_get_act());
 648              		.loc 1 853 5 view .LVU200
 649              		.loc 1 853 46 is_stmt 0 view .LVU201
 650 000c FFF7FEFF 		bl	lv_indev_get_act
 651              	.LVL70:
 652              		.loc 1 853 28 view .LVU202
 653 0010 FFF7FEFF 		bl	lv_indev_get_type
 654              	.LVL71:
 854:Middlewares/lvgl/src/widgets/lv_table.c ****     if(type != LV_INDEV_TYPE_POINTER && type != LV_INDEV_TYPE_BUTTON) {
 655              		.loc 1 854 5 is_stmt 1 view .LVU203
 656              		.loc 1 854 7 is_stmt 0 view .LVU204
 657 0014 0128     		cmp	r0, #1
 658 0016 0DD0     		beq	.L16
 659              		.loc 1 854 38 discriminator 1 view .LVU205
 660 0018 0328     		cmp	r0, #3
 661 001a 0BD0     		beq	.L16
 855:Middlewares/lvgl/src/widgets/lv_table.c ****         if(col) *col = LV_TABLE_CELL_NONE;
 662              		.loc 1 855 9 is_stmt 1 view .LVU206
 663              		.loc 1 855 11 is_stmt 0 view .LVU207
 664 001c 16B1     		cbz	r6, .L17
 665              		.loc 1 855 17 is_stmt 1 discriminator 1 view .LVU208
 666              		.loc 1 855 22 is_stmt 0 discriminator 1 view .LVU209
 667 001e 4FF6FF73 		movw	r3, #65535
 668 0022 3380     		strh	r3, [r6]	@ movhi
 669              	.L17:
 856:Middlewares/lvgl/src/widgets/lv_table.c ****         if(row) *row = LV_TABLE_CELL_NONE;
 670              		.loc 1 856 9 is_stmt 1 view .LVU210
 671              		.loc 1 856 11 is_stmt 0 view .LVU211
 672 0024 15B1     		cbz	r5, .L18
 673              		.loc 1 856 17 is_stmt 1 discriminator 1 view .LVU212
 674              		.loc 1 856 22 is_stmt 0 discriminator 1 view .LVU213
 675 0026 4FF6FF73 		movw	r3, #65535
 676 002a 2B80     		strh	r3, [r5]	@ movhi
 677              	.L18:
 857:Middlewares/lvgl/src/widgets/lv_table.c ****         return LV_RES_INV;
 678              		.loc 1 857 9 is_stmt 1 view .LVU214
 679              		.loc 1 857 16 is_stmt 0 view .LVU215
 680 002c 0020     		movs	r0, #0
 681              	.LVL72:
 682              	.L19:
 858:Middlewares/lvgl/src/widgets/lv_table.c ****     }
 859:Middlewares/lvgl/src/widgets/lv_table.c **** 
 860:Middlewares/lvgl/src/widgets/lv_table.c ****     lv_point_t p;
 861:Middlewares/lvgl/src/widgets/lv_table.c ****     lv_indev_get_point(lv_indev_get_act(), &p);
ARM GAS  /tmp/ccTYGLnU.s 			page 38


 862:Middlewares/lvgl/src/widgets/lv_table.c **** 
 863:Middlewares/lvgl/src/widgets/lv_table.c ****     lv_coord_t tmp;
 864:Middlewares/lvgl/src/widgets/lv_table.c ****     if(col) {
 865:Middlewares/lvgl/src/widgets/lv_table.c ****         lv_coord_t x = p.x + lv_obj_get_scroll_x(obj);
 866:Middlewares/lvgl/src/widgets/lv_table.c **** 
 867:Middlewares/lvgl/src/widgets/lv_table.c ****         if(lv_obj_get_style_base_dir(obj, LV_PART_MAIN) == LV_BASE_DIR_RTL) {
 868:Middlewares/lvgl/src/widgets/lv_table.c ****             x = obj->coords.x2 - lv_obj_get_style_pad_right(obj, LV_PART_MAIN) - x;
 869:Middlewares/lvgl/src/widgets/lv_table.c ****         }
 870:Middlewares/lvgl/src/widgets/lv_table.c ****         else {
 871:Middlewares/lvgl/src/widgets/lv_table.c ****             x -= obj->coords.x1;
 872:Middlewares/lvgl/src/widgets/lv_table.c ****             x -= lv_obj_get_style_pad_left(obj, LV_PART_MAIN);
 873:Middlewares/lvgl/src/widgets/lv_table.c ****         }
 874:Middlewares/lvgl/src/widgets/lv_table.c **** 
 875:Middlewares/lvgl/src/widgets/lv_table.c ****         *col = 0;
 876:Middlewares/lvgl/src/widgets/lv_table.c ****         tmp = 0;
 877:Middlewares/lvgl/src/widgets/lv_table.c ****         for(*col = 0; *col < table->col_cnt; (*col)++) {
 878:Middlewares/lvgl/src/widgets/lv_table.c ****             tmp += table->col_w[*col];
 879:Middlewares/lvgl/src/widgets/lv_table.c ****             if(x < tmp) break;
 880:Middlewares/lvgl/src/widgets/lv_table.c ****         }
 881:Middlewares/lvgl/src/widgets/lv_table.c ****     }
 882:Middlewares/lvgl/src/widgets/lv_table.c **** 
 883:Middlewares/lvgl/src/widgets/lv_table.c ****     if(row) {
 884:Middlewares/lvgl/src/widgets/lv_table.c ****         lv_coord_t y = p.y + lv_obj_get_scroll_y(obj);;
 885:Middlewares/lvgl/src/widgets/lv_table.c ****         y -= obj->coords.y1;
 886:Middlewares/lvgl/src/widgets/lv_table.c ****         y -= lv_obj_get_style_pad_top(obj, LV_PART_MAIN);
 887:Middlewares/lvgl/src/widgets/lv_table.c **** 
 888:Middlewares/lvgl/src/widgets/lv_table.c ****         *row = 0;
 889:Middlewares/lvgl/src/widgets/lv_table.c ****         tmp = 0;
 890:Middlewares/lvgl/src/widgets/lv_table.c **** 
 891:Middlewares/lvgl/src/widgets/lv_table.c ****         for(*row = 0; *row < table->row_cnt; (*row)++) {
 892:Middlewares/lvgl/src/widgets/lv_table.c ****             tmp += table->row_h[*row];
 893:Middlewares/lvgl/src/widgets/lv_table.c ****             if(y < tmp) break;
 894:Middlewares/lvgl/src/widgets/lv_table.c ****         }
 895:Middlewares/lvgl/src/widgets/lv_table.c ****     }
 896:Middlewares/lvgl/src/widgets/lv_table.c **** 
 897:Middlewares/lvgl/src/widgets/lv_table.c ****     return LV_RES_OK;
 898:Middlewares/lvgl/src/widgets/lv_table.c **** }
 683              		.loc 1 898 1 view .LVU216
 684 002e 02B0     		add	sp, sp, #8
 685              	.LCFI8:
 686              		.cfi_remember_state
 687              		.cfi_def_cfa_offset 24
 688              		@ sp needed
 689 0030 BDE8F081 		pop	{r4, r5, r6, r7, r8, pc}
 690              	.LVL73:
 691              	.L16:
 692              	.LCFI9:
 693              		.cfi_restore_state
 860:Middlewares/lvgl/src/widgets/lv_table.c ****     lv_indev_get_point(lv_indev_get_act(), &p);
 694              		.loc 1 860 5 is_stmt 1 view .LVU217
 861:Middlewares/lvgl/src/widgets/lv_table.c **** 
 695              		.loc 1 861 5 view .LVU218
 861:Middlewares/lvgl/src/widgets/lv_table.c **** 
 696              		.loc 1 861 24 is_stmt 0 view .LVU219
 697 0034 FFF7FEFF 		bl	lv_indev_get_act
 698              	.LVL74:
 861:Middlewares/lvgl/src/widgets/lv_table.c **** 
ARM GAS  /tmp/ccTYGLnU.s 			page 39


 699              		.loc 1 861 5 view .LVU220
 700 0038 01A9     		add	r1, sp, #4
 701 003a FFF7FEFF 		bl	lv_indev_get_point
 702              	.LVL75:
 863:Middlewares/lvgl/src/widgets/lv_table.c ****     if(col) {
 703              		.loc 1 863 5 is_stmt 1 view .LVU221
 864:Middlewares/lvgl/src/widgets/lv_table.c ****         lv_coord_t x = p.x + lv_obj_get_scroll_x(obj);
 704              		.loc 1 864 5 view .LVU222
 864:Middlewares/lvgl/src/widgets/lv_table.c ****         lv_coord_t x = p.x + lv_obj_get_scroll_x(obj);
 705              		.loc 1 864 7 is_stmt 0 view .LVU223
 706 003e 002E     		cmp	r6, #0
 707 0040 3BD0     		beq	.L20
 708              	.LBB112:
 865:Middlewares/lvgl/src/widgets/lv_table.c **** 
 709              		.loc 1 865 9 is_stmt 1 view .LVU224
 865:Middlewares/lvgl/src/widgets/lv_table.c **** 
 710              		.loc 1 865 25 is_stmt 0 view .LVU225
 711 0042 BDF80470 		ldrh	r7, [sp, #4]
 865:Middlewares/lvgl/src/widgets/lv_table.c **** 
 712              		.loc 1 865 30 view .LVU226
 713 0046 2046     		mov	r0, r4
 714 0048 FFF7FEFF 		bl	lv_obj_get_scroll_x
 715              	.LVL76:
 716 004c 80B2     		uxth	r0, r0
 865:Middlewares/lvgl/src/widgets/lv_table.c **** 
 717              		.loc 1 865 28 view .LVU227
 718 004e 0744     		add	r7, r7, r0
 719 0050 BFB2     		uxth	r7, r7
 720              	.LVL77:
 867:Middlewares/lvgl/src/widgets/lv_table.c ****             x = obj->coords.x2 - lv_obj_get_style_pad_right(obj, LV_PART_MAIN) - x;
 721              		.loc 1 867 9 is_stmt 1 view .LVU228
 722              	.LBB113:
 723              	.LBI113:
 187:Middlewares/lvgl/src/widgets/../core/lv_obj_style_gen.h **** {
 724              		.loc 3 187 29 view .LVU229
 725              	.LBB114:
 189:Middlewares/lvgl/src/widgets/../core/lv_obj_style_gen.h ****     return (lv_base_dir_t)v.num;
 726              		.loc 3 189 5 view .LVU230
 189:Middlewares/lvgl/src/widgets/../core/lv_obj_style_gen.h ****     return (lv_base_dir_t)v.num;
 727              		.loc 3 189 26 is_stmt 0 view .LVU231
 728 0052 41F26A42 		movw	r2, #5226
 729 0056 0021     		movs	r1, #0
 730 0058 2046     		mov	r0, r4
 731 005a FFF7FEFF 		bl	lv_obj_get_style_prop
 732              	.LVL78:
 190:Middlewares/lvgl/src/widgets/../core/lv_obj_style_gen.h **** }
 733              		.loc 3 190 5 is_stmt 1 view .LVU232
 190:Middlewares/lvgl/src/widgets/../core/lv_obj_style_gen.h **** }
 734              		.loc 3 190 12 is_stmt 0 view .LVU233
 735 005e C0B2     		uxtb	r0, r0
 736              	.LVL79:
 190:Middlewares/lvgl/src/widgets/../core/lv_obj_style_gen.h **** }
 737              		.loc 3 190 12 view .LVU234
 738              	.LBE114:
 739              	.LBE113:
 867:Middlewares/lvgl/src/widgets/lv_table.c ****             x = obj->coords.x2 - lv_obj_get_style_pad_right(obj, LV_PART_MAIN) - x;
 740              		.loc 1 867 11 view .LVU235
ARM GAS  /tmp/ccTYGLnU.s 			page 40


 741 0060 0128     		cmp	r0, #1
 742 0062 1BD0     		beq	.L30
 871:Middlewares/lvgl/src/widgets/lv_table.c ****             x -= lv_obj_get_style_pad_left(obj, LV_PART_MAIN);
 743              		.loc 1 871 13 is_stmt 1 view .LVU236
 871:Middlewares/lvgl/src/widgets/lv_table.c ****             x -= lv_obj_get_style_pad_left(obj, LV_PART_MAIN);
 744              		.loc 1 871 29 is_stmt 0 view .LVU237
 745 0064 A08A     		ldrh	r0, [r4, #20]
 871:Middlewares/lvgl/src/widgets/lv_table.c ****             x -= lv_obj_get_style_pad_left(obj, LV_PART_MAIN);
 746              		.loc 1 871 15 view .LVU238
 747 0066 3F1A     		subs	r7, r7, r0
 748              	.LVL80:
 871:Middlewares/lvgl/src/widgets/lv_table.c ****             x -= lv_obj_get_style_pad_left(obj, LV_PART_MAIN);
 749              		.loc 1 871 15 view .LVU239
 750 0068 BFB2     		uxth	r7, r7
 751              	.LVL81:
 872:Middlewares/lvgl/src/widgets/lv_table.c ****         }
 752              		.loc 1 872 13 is_stmt 1 view .LVU240
 753              	.LBB115:
 754              	.LBI115:
 103:Middlewares/lvgl/src/widgets/../core/lv_obj_style_gen.h **** {
 755              		.loc 3 103 26 view .LVU241
 756              	.LBB116:
 105:Middlewares/lvgl/src/widgets/../core/lv_obj_style_gen.h ****     return (lv_coord_t)v.num;
 757              		.loc 3 105 5 view .LVU242
 105:Middlewares/lvgl/src/widgets/../core/lv_obj_style_gen.h ****     return (lv_coord_t)v.num;
 758              		.loc 3 105 26 is_stmt 0 view .LVU243
 759 006a 41F21202 		movw	r2, #4114
 760 006e 0021     		movs	r1, #0
 761 0070 2046     		mov	r0, r4
 762 0072 FFF7FEFF 		bl	lv_obj_get_style_prop
 763              	.LVL82:
 106:Middlewares/lvgl/src/widgets/../core/lv_obj_style_gen.h **** }
 764              		.loc 3 106 5 is_stmt 1 view .LVU244
 106:Middlewares/lvgl/src/widgets/../core/lv_obj_style_gen.h **** }
 765              		.loc 3 106 5 is_stmt 0 view .LVU245
 766              	.LBE116:
 767              	.LBE115:
 872:Middlewares/lvgl/src/widgets/lv_table.c ****         }
 768              		.loc 1 872 18 view .LVU246
 769 0076 80B2     		uxth	r0, r0
 872:Middlewares/lvgl/src/widgets/lv_table.c ****         }
 770              		.loc 1 872 15 view .LVU247
 771 0078 381A     		subs	r0, r7, r0
 772 007a 00B2     		sxth	r0, r0
 773              	.LVL83:
 774              	.L22:
 875:Middlewares/lvgl/src/widgets/lv_table.c ****         tmp = 0;
 775              		.loc 1 875 9 is_stmt 1 view .LVU248
 875:Middlewares/lvgl/src/widgets/lv_table.c ****         tmp = 0;
 776              		.loc 1 875 14 is_stmt 0 view .LVU249
 777 007c 0021     		movs	r1, #0
 778 007e 3180     		strh	r1, [r6]	@ movhi
 876:Middlewares/lvgl/src/widgets/lv_table.c ****         for(*col = 0; *col < table->col_cnt; (*col)++) {
 779              		.loc 1 876 9 is_stmt 1 view .LVU250
 780              	.LVL84:
 877:Middlewares/lvgl/src/widgets/lv_table.c ****             tmp += table->col_w[*col];
 781              		.loc 1 877 9 view .LVU251
ARM GAS  /tmp/ccTYGLnU.s 			page 41


 782              	.L23:
 877:Middlewares/lvgl/src/widgets/lv_table.c ****             tmp += table->col_w[*col];
 783              		.loc 1 877 23 discriminator 1 view .LVU252
 784 0080 3388     		ldrh	r3, [r6]
 877:Middlewares/lvgl/src/widgets/lv_table.c ****             tmp += table->col_w[*col];
 785              		.loc 1 877 35 is_stmt 0 discriminator 1 view .LVU253
 786 0082 A28C     		ldrh	r2, [r4, #36]
 877:Middlewares/lvgl/src/widgets/lv_table.c ****             tmp += table->col_w[*col];
 787              		.loc 1 877 9 discriminator 1 view .LVU254
 788 0084 9342     		cmp	r3, r2
 789 0086 18D2     		bcs	.L20
 878:Middlewares/lvgl/src/widgets/lv_table.c ****             if(x < tmp) break;
 790              		.loc 1 878 13 is_stmt 1 view .LVU255
 878:Middlewares/lvgl/src/widgets/lv_table.c ****             if(x < tmp) break;
 791              		.loc 1 878 25 is_stmt 0 view .LVU256
 792 0088 226B     		ldr	r2, [r4, #48]
 878:Middlewares/lvgl/src/widgets/lv_table.c ****             if(x < tmp) break;
 793              		.loc 1 878 32 view .LVU257
 794 008a 32F81320 		ldrh	r2, [r2, r3, lsl #1]
 878:Middlewares/lvgl/src/widgets/lv_table.c ****             if(x < tmp) break;
 795              		.loc 1 878 17 view .LVU258
 796 008e 1144     		add	r1, r1, r2
 797              	.LVL85:
 878:Middlewares/lvgl/src/widgets/lv_table.c ****             if(x < tmp) break;
 798              		.loc 1 878 17 view .LVU259
 799 0090 09B2     		sxth	r1, r1
 800              	.LVL86:
 879:Middlewares/lvgl/src/widgets/lv_table.c ****         }
 801              		.loc 1 879 13 is_stmt 1 view .LVU260
 879:Middlewares/lvgl/src/widgets/lv_table.c ****         }
 802              		.loc 1 879 15 is_stmt 0 view .LVU261
 803 0092 8842     		cmp	r0, r1
 804 0094 11DB     		blt	.L20
 877:Middlewares/lvgl/src/widgets/lv_table.c ****             tmp += table->col_w[*col];
 805              		.loc 1 877 46 is_stmt 1 discriminator 2 view .LVU262
 877:Middlewares/lvgl/src/widgets/lv_table.c ****             tmp += table->col_w[*col];
 806              		.loc 1 877 52 is_stmt 0 discriminator 2 view .LVU263
 807 0096 0133     		adds	r3, r3, #1
 808 0098 3380     		strh	r3, [r6]	@ movhi
 809 009a F1E7     		b	.L23
 810              	.LVL87:
 811              	.L30:
 868:Middlewares/lvgl/src/widgets/lv_table.c ****         }
 812              		.loc 1 868 13 is_stmt 1 view .LVU264
 868:Middlewares/lvgl/src/widgets/lv_table.c ****         }
 813              		.loc 1 868 28 is_stmt 0 view .LVU265
 814 009c B4F81880 		ldrh	r8, [r4, #24]
 815              	.LVL88:
 816              	.LBB117:
 817              	.LBI117:
 109:Middlewares/lvgl/src/widgets/../core/lv_obj_style_gen.h **** {
 818              		.loc 3 109 26 is_stmt 1 view .LVU266
 819              	.LBB118:
 111:Middlewares/lvgl/src/widgets/../core/lv_obj_style_gen.h ****     return (lv_coord_t)v.num;
 820              		.loc 3 111 5 view .LVU267
 111:Middlewares/lvgl/src/widgets/../core/lv_obj_style_gen.h ****     return (lv_coord_t)v.num;
 821              		.loc 3 111 26 is_stmt 0 view .LVU268
ARM GAS  /tmp/ccTYGLnU.s 			page 42


 822 00a0 41F21302 		movw	r2, #4115
 823 00a4 0021     		movs	r1, #0
 824 00a6 2046     		mov	r0, r4
 825 00a8 FFF7FEFF 		bl	lv_obj_get_style_prop
 826              	.LVL89:
 112:Middlewares/lvgl/src/widgets/../core/lv_obj_style_gen.h **** }
 827              		.loc 3 112 5 is_stmt 1 view .LVU269
 112:Middlewares/lvgl/src/widgets/../core/lv_obj_style_gen.h **** }
 828              		.loc 3 112 5 is_stmt 0 view .LVU270
 829              	.LBE118:
 830              	.LBE117:
 868:Middlewares/lvgl/src/widgets/lv_table.c ****         }
 831              		.loc 1 868 34 view .LVU271
 832 00ac 80B2     		uxth	r0, r0
 868:Middlewares/lvgl/src/widgets/lv_table.c ****         }
 833              		.loc 1 868 32 view .LVU272
 834 00ae A8EB0000 		sub	r0, r8, r0
 835 00b2 80B2     		uxth	r0, r0
 868:Middlewares/lvgl/src/widgets/lv_table.c ****         }
 836              		.loc 1 868 80 view .LVU273
 837 00b4 C71B     		subs	r7, r0, r7
 838              	.LVL90:
 868:Middlewares/lvgl/src/widgets/lv_table.c ****         }
 839              		.loc 1 868 15 view .LVU274
 840 00b6 38B2     		sxth	r0, r7
 841              	.LVL91:
 868:Middlewares/lvgl/src/widgets/lv_table.c ****         }
 842              		.loc 1 868 15 view .LVU275
 843 00b8 E0E7     		b	.L22
 844              	.LVL92:
 845              	.L20:
 868:Middlewares/lvgl/src/widgets/lv_table.c ****         }
 846              		.loc 1 868 15 view .LVU276
 847              	.LBE112:
 883:Middlewares/lvgl/src/widgets/lv_table.c ****         lv_coord_t y = p.y + lv_obj_get_scroll_y(obj);;
 848              		.loc 1 883 5 is_stmt 1 view .LVU277
 883:Middlewares/lvgl/src/widgets/lv_table.c ****         lv_coord_t y = p.y + lv_obj_get_scroll_y(obj);;
 849              		.loc 1 883 7 is_stmt 0 view .LVU278
 850 00ba 2DB3     		cbz	r5, .L27
 851              	.LBB119:
 884:Middlewares/lvgl/src/widgets/lv_table.c ****         y -= obj->coords.y1;
 852              		.loc 1 884 9 is_stmt 1 view .LVU279
 884:Middlewares/lvgl/src/widgets/lv_table.c ****         y -= obj->coords.y1;
 853              		.loc 1 884 25 is_stmt 0 view .LVU280
 854 00bc BDF80660 		ldrh	r6, [sp, #6]
 855              	.LVL93:
 884:Middlewares/lvgl/src/widgets/lv_table.c ****         y -= obj->coords.y1;
 856              		.loc 1 884 30 view .LVU281
 857 00c0 2046     		mov	r0, r4
 858 00c2 FFF7FEFF 		bl	lv_obj_get_scroll_y
 859              	.LVL94:
 860 00c6 80B2     		uxth	r0, r0
 884:Middlewares/lvgl/src/widgets/lv_table.c ****         y -= obj->coords.y1;
 861              		.loc 1 884 28 view .LVU282
 862 00c8 0644     		add	r6, r6, r0
 863 00ca B6B2     		uxth	r6, r6
 864              	.LVL95:
ARM GAS  /tmp/ccTYGLnU.s 			page 43


 884:Middlewares/lvgl/src/widgets/lv_table.c ****         y -= obj->coords.y1;
 865              		.loc 1 884 55 is_stmt 1 view .LVU283
 885:Middlewares/lvgl/src/widgets/lv_table.c ****         y -= lv_obj_get_style_pad_top(obj, LV_PART_MAIN);
 866              		.loc 1 885 9 view .LVU284
 885:Middlewares/lvgl/src/widgets/lv_table.c ****         y -= lv_obj_get_style_pad_top(obj, LV_PART_MAIN);
 867              		.loc 1 885 25 is_stmt 0 view .LVU285
 868 00cc E18A     		ldrh	r1, [r4, #22]
 885:Middlewares/lvgl/src/widgets/lv_table.c ****         y -= lv_obj_get_style_pad_top(obj, LV_PART_MAIN);
 869              		.loc 1 885 11 view .LVU286
 870 00ce 761A     		subs	r6, r6, r1
 871              	.LVL96:
 885:Middlewares/lvgl/src/widgets/lv_table.c ****         y -= lv_obj_get_style_pad_top(obj, LV_PART_MAIN);
 872              		.loc 1 885 11 view .LVU287
 873 00d0 B6B2     		uxth	r6, r6
 874              	.LVL97:
 886:Middlewares/lvgl/src/widgets/lv_table.c **** 
 875              		.loc 1 886 9 is_stmt 1 view .LVU288
 876              	.LBB120:
 877              	.LBI120:
  91:Middlewares/lvgl/src/widgets/../core/lv_obj_style_gen.h **** {
 878              		.loc 3 91 26 view .LVU289
 879              	.LBB121:
  93:Middlewares/lvgl/src/widgets/../core/lv_obj_style_gen.h ****     return (lv_coord_t)v.num;
 880              		.loc 3 93 5 view .LVU290
  93:Middlewares/lvgl/src/widgets/../core/lv_obj_style_gen.h ****     return (lv_coord_t)v.num;
 881              		.loc 3 93 26 is_stmt 0 view .LVU291
 882 00d2 41F21002 		movw	r2, #4112
 883 00d6 0021     		movs	r1, #0
 884 00d8 2046     		mov	r0, r4
 885 00da FFF7FEFF 		bl	lv_obj_get_style_prop
 886              	.LVL98:
  94:Middlewares/lvgl/src/widgets/../core/lv_obj_style_gen.h **** }
 887              		.loc 3 94 5 is_stmt 1 view .LVU292
  94:Middlewares/lvgl/src/widgets/../core/lv_obj_style_gen.h **** }
 888              		.loc 3 94 5 is_stmt 0 view .LVU293
 889              	.LBE121:
 890              	.LBE120:
 886:Middlewares/lvgl/src/widgets/lv_table.c **** 
 891              		.loc 1 886 14 view .LVU294
 892 00de 81B2     		uxth	r1, r0
 886:Middlewares/lvgl/src/widgets/lv_table.c **** 
 893              		.loc 1 886 11 view .LVU295
 894 00e0 711A     		subs	r1, r6, r1
 895 00e2 09B2     		sxth	r1, r1
 896              	.LVL99:
 888:Middlewares/lvgl/src/widgets/lv_table.c ****         tmp = 0;
 897              		.loc 1 888 9 is_stmt 1 view .LVU296
 888:Middlewares/lvgl/src/widgets/lv_table.c ****         tmp = 0;
 898              		.loc 1 888 14 is_stmt 0 view .LVU297
 899 00e4 0022     		movs	r2, #0
 900 00e6 2A80     		strh	r2, [r5]	@ movhi
 889:Middlewares/lvgl/src/widgets/lv_table.c **** 
 901              		.loc 1 889 9 is_stmt 1 view .LVU298
 902              	.LVL100:
 891:Middlewares/lvgl/src/widgets/lv_table.c ****             tmp += table->row_h[*row];
 903              		.loc 1 891 9 view .LVU299
 904              	.L25:
ARM GAS  /tmp/ccTYGLnU.s 			page 44


 891:Middlewares/lvgl/src/widgets/lv_table.c ****             tmp += table->row_h[*row];
 905              		.loc 1 891 23 discriminator 1 view .LVU300
 906 00e8 2B88     		ldrh	r3, [r5]
 891:Middlewares/lvgl/src/widgets/lv_table.c ****             tmp += table->row_h[*row];
 907              		.loc 1 891 35 is_stmt 0 discriminator 1 view .LVU301
 908 00ea E08C     		ldrh	r0, [r4, #38]
 891:Middlewares/lvgl/src/widgets/lv_table.c ****             tmp += table->row_h[*row];
 909              		.loc 1 891 9 discriminator 1 view .LVU302
 910 00ec 8342     		cmp	r3, r0
 911 00ee 09D2     		bcs	.L31
 892:Middlewares/lvgl/src/widgets/lv_table.c ****             if(y < tmp) break;
 912              		.loc 1 892 13 is_stmt 1 view .LVU303
 892:Middlewares/lvgl/src/widgets/lv_table.c ****             if(y < tmp) break;
 913              		.loc 1 892 25 is_stmt 0 view .LVU304
 914 00f0 E06A     		ldr	r0, [r4, #44]
 892:Middlewares/lvgl/src/widgets/lv_table.c ****             if(y < tmp) break;
 915              		.loc 1 892 32 view .LVU305
 916 00f2 30F81300 		ldrh	r0, [r0, r3, lsl #1]
 892:Middlewares/lvgl/src/widgets/lv_table.c ****             if(y < tmp) break;
 917              		.loc 1 892 17 view .LVU306
 918 00f6 0244     		add	r2, r2, r0
 919              	.LVL101:
 892:Middlewares/lvgl/src/widgets/lv_table.c ****             if(y < tmp) break;
 920              		.loc 1 892 17 view .LVU307
 921 00f8 12B2     		sxth	r2, r2
 922              	.LVL102:
 893:Middlewares/lvgl/src/widgets/lv_table.c ****         }
 923              		.loc 1 893 13 is_stmt 1 view .LVU308
 893:Middlewares/lvgl/src/widgets/lv_table.c ****         }
 924              		.loc 1 893 15 is_stmt 0 view .LVU309
 925 00fa 9142     		cmp	r1, r2
 926 00fc 06DB     		blt	.L28
 891:Middlewares/lvgl/src/widgets/lv_table.c ****             tmp += table->row_h[*row];
 927              		.loc 1 891 46 is_stmt 1 discriminator 2 view .LVU310
 891:Middlewares/lvgl/src/widgets/lv_table.c ****             tmp += table->row_h[*row];
 928              		.loc 1 891 52 is_stmt 0 discriminator 2 view .LVU311
 929 00fe 0133     		adds	r3, r3, #1
 930 0100 2B80     		strh	r3, [r5]	@ movhi
 931 0102 F1E7     		b	.L25
 932              	.L31:
 891:Middlewares/lvgl/src/widgets/lv_table.c ****             tmp += table->row_h[*row];
 933              		.loc 1 891 52 discriminator 2 view .LVU312
 934              	.LBE119:
 897:Middlewares/lvgl/src/widgets/lv_table.c **** }
 935              		.loc 1 897 12 view .LVU313
 936 0104 0120     		movs	r0, #1
 937              	.LBB122:
 938 0106 92E7     		b	.L19
 939              	.LVL103:
 940              	.L27:
 897:Middlewares/lvgl/src/widgets/lv_table.c **** }
 941              		.loc 1 897 12 view .LVU314
 942              	.LBE122:
 943 0108 0120     		movs	r0, #1
 944 010a 90E7     		b	.L19
 945              	.LVL104:
 946              	.L28:
ARM GAS  /tmp/ccTYGLnU.s 			page 45


 897:Middlewares/lvgl/src/widgets/lv_table.c **** }
 947              		.loc 1 897 12 view .LVU315
 948 010c 0120     		movs	r0, #1
 949 010e 8EE7     		b	.L19
 950              		.cfi_endproc
 951              	.LFE167:
 953              		.section	.text.draw_main,"ax",%progbits
 954              		.align	1
 955              		.syntax unified
 956              		.thumb
 957              		.thumb_func
 958              		.fpu softvfp
 960              	draw_main:
 961              	.LVL105:
 962              	.LFB164:
 582:Middlewares/lvgl/src/widgets/lv_table.c ****     lv_obj_t * obj = lv_event_get_target(e);
 963              		.loc 1 582 1 is_stmt 1 view -0
 964              		.cfi_startproc
 965              		@ args = 0, pretend = 0, frame = 344
 966              		@ frame_needed = 0, uses_anonymous_args = 0
 582:Middlewares/lvgl/src/widgets/lv_table.c ****     lv_obj_t * obj = lv_event_get_target(e);
 967              		.loc 1 582 1 is_stmt 0 view .LVU317
 968 0000 2DE9F04F 		push	{r4, r5, r6, r7, r8, r9, r10, fp, lr}
 969              	.LCFI10:
 970              		.cfi_def_cfa_offset 36
 971              		.cfi_offset 4, -36
 972              		.cfi_offset 5, -32
 973              		.cfi_offset 6, -28
 974              		.cfi_offset 7, -24
 975              		.cfi_offset 8, -20
 976              		.cfi_offset 9, -16
 977              		.cfi_offset 10, -12
 978              		.cfi_offset 11, -8
 979              		.cfi_offset 14, -4
 980 0004 DBB0     		sub	sp, sp, #364
 981              	.LCFI11:
 982              		.cfi_def_cfa_offset 400
 983 0006 0446     		mov	r4, r0
 583:Middlewares/lvgl/src/widgets/lv_table.c ****     lv_table_t * table = (lv_table_t *)obj;
 984              		.loc 1 583 5 is_stmt 1 view .LVU318
 583:Middlewares/lvgl/src/widgets/lv_table.c ****     lv_table_t * table = (lv_table_t *)obj;
 985              		.loc 1 583 22 is_stmt 0 view .LVU319
 986 0008 FFF7FEFF 		bl	lv_event_get_target
 987              	.LVL106:
 583:Middlewares/lvgl/src/widgets/lv_table.c ****     lv_table_t * table = (lv_table_t *)obj;
 988              		.loc 1 583 22 view .LVU320
 989 000c 0746     		mov	r7, r0
 990              	.LVL107:
 584:Middlewares/lvgl/src/widgets/lv_table.c ****     const lv_area_t * clip_area = lv_event_get_param(e);
 991              		.loc 1 584 5 is_stmt 1 view .LVU321
 585:Middlewares/lvgl/src/widgets/lv_table.c **** 
 992              		.loc 1 585 5 view .LVU322
 585:Middlewares/lvgl/src/widgets/lv_table.c **** 
 993              		.loc 1 585 35 is_stmt 0 view .LVU323
 994 000e 2046     		mov	r0, r4
 995              	.LVL108:
 585:Middlewares/lvgl/src/widgets/lv_table.c **** 
ARM GAS  /tmp/ccTYGLnU.s 			page 46


 996              		.loc 1 585 35 view .LVU324
 997 0010 FFF7FEFF 		bl	lv_event_get_param
 998              	.LVL109:
 999 0014 8046     		mov	r8, r0
 1000 0016 0590     		str	r0, [sp, #20]
 1001              	.LVL110:
 587:Middlewares/lvgl/src/widgets/lv_table.c ****     lv_area_t cell_area;
 1002              		.loc 1 587 5 is_stmt 1 view .LVU325
 588:Middlewares/lvgl/src/widgets/lv_table.c ****     lv_area_t txt_area;
 1003              		.loc 1 588 5 view .LVU326
 589:Middlewares/lvgl/src/widgets/lv_table.c ****     lv_text_flag_t txt_flags;
 1004              		.loc 1 589 5 view .LVU327
 590:Middlewares/lvgl/src/widgets/lv_table.c **** 
 1005              		.loc 1 590 5 view .LVU328
 592:Middlewares/lvgl/src/widgets/lv_table.c ****     lv_coord_t bg_bottom = lv_obj_get_style_pad_bottom(obj, LV_PART_MAIN);
 1006              		.loc 1 592 5 view .LVU329
 1007              	.LBB123:
 1008              	.LBI123:
  91:Middlewares/lvgl/src/widgets/../core/lv_obj_style_gen.h **** {
 1009              		.loc 3 91 26 view .LVU330
 1010              	.LBB124:
  93:Middlewares/lvgl/src/widgets/../core/lv_obj_style_gen.h ****     return (lv_coord_t)v.num;
 1011              		.loc 3 93 5 view .LVU331
  93:Middlewares/lvgl/src/widgets/../core/lv_obj_style_gen.h ****     return (lv_coord_t)v.num;
 1012              		.loc 3 93 26 is_stmt 0 view .LVU332
 1013 0018 41F21002 		movw	r2, #4112
 1014 001c 0021     		movs	r1, #0
 1015 001e 3846     		mov	r0, r7
 1016              	.LVL111:
  93:Middlewares/lvgl/src/widgets/../core/lv_obj_style_gen.h ****     return (lv_coord_t)v.num;
 1017              		.loc 3 93 26 view .LVU333
 1018 0020 FFF7FEFF 		bl	lv_obj_get_style_prop
 1019              	.LVL112:
 1020 0024 0446     		mov	r4, r0
 1021              	.LVL113:
  94:Middlewares/lvgl/src/widgets/../core/lv_obj_style_gen.h **** }
 1022              		.loc 3 94 5 is_stmt 1 view .LVU334
  94:Middlewares/lvgl/src/widgets/../core/lv_obj_style_gen.h **** }
 1023              		.loc 3 94 12 is_stmt 0 view .LVU335
 1024 0026 03B2     		sxth	r3, r0
 1025 0028 0F93     		str	r3, [sp, #60]
 1026              	.LVL114:
  94:Middlewares/lvgl/src/widgets/../core/lv_obj_style_gen.h **** }
 1027              		.loc 3 94 12 view .LVU336
 1028              	.LBE124:
 1029              	.LBE123:
 593:Middlewares/lvgl/src/widgets/lv_table.c ****     lv_coord_t bg_left = lv_obj_get_style_pad_left(obj, LV_PART_MAIN);
 1030              		.loc 1 593 5 is_stmt 1 view .LVU337
 1031              	.LBB125:
 1032              	.LBI125:
  97:Middlewares/lvgl/src/widgets/../core/lv_obj_style_gen.h **** {
 1033              		.loc 3 97 26 view .LVU338
 1034              	.LBB126:
  99:Middlewares/lvgl/src/widgets/../core/lv_obj_style_gen.h ****     return (lv_coord_t)v.num;
 1035              		.loc 3 99 5 view .LVU339
  99:Middlewares/lvgl/src/widgets/../core/lv_obj_style_gen.h ****     return (lv_coord_t)v.num;
 1036              		.loc 3 99 26 is_stmt 0 view .LVU340
ARM GAS  /tmp/ccTYGLnU.s 			page 47


 1037 002a 41F21102 		movw	r2, #4113
 1038 002e 0021     		movs	r1, #0
 1039 0030 3846     		mov	r0, r7
  99:Middlewares/lvgl/src/widgets/../core/lv_obj_style_gen.h ****     return (lv_coord_t)v.num;
 1040              		.loc 3 99 26 view .LVU341
 1041 0032 FFF7FEFF 		bl	lv_obj_get_style_prop
 1042              	.LVL115:
 100:Middlewares/lvgl/src/widgets/../core/lv_obj_style_gen.h **** }
 1043              		.loc 3 100 5 is_stmt 1 view .LVU342
 100:Middlewares/lvgl/src/widgets/../core/lv_obj_style_gen.h **** }
 1044              		.loc 3 100 12 is_stmt 0 view .LVU343
 1045 0036 03B2     		sxth	r3, r0
 1046 0038 0E93     		str	r3, [sp, #56]
 1047              	.LVL116:
 100:Middlewares/lvgl/src/widgets/../core/lv_obj_style_gen.h **** }
 1048              		.loc 3 100 12 view .LVU344
 1049              	.LBE126:
 1050              	.LBE125:
 594:Middlewares/lvgl/src/widgets/lv_table.c ****     lv_coord_t bg_right = lv_obj_get_style_pad_right(obj, LV_PART_MAIN);
 1051              		.loc 1 594 5 is_stmt 1 view .LVU345
 1052              	.LBB127:
 1053              	.LBI127:
 103:Middlewares/lvgl/src/widgets/../core/lv_obj_style_gen.h **** {
 1054              		.loc 3 103 26 view .LVU346
 1055              	.LBB128:
 105:Middlewares/lvgl/src/widgets/../core/lv_obj_style_gen.h ****     return (lv_coord_t)v.num;
 1056              		.loc 3 105 5 view .LVU347
 105:Middlewares/lvgl/src/widgets/../core/lv_obj_style_gen.h ****     return (lv_coord_t)v.num;
 1057              		.loc 3 105 26 is_stmt 0 view .LVU348
 1058 003a 41F21202 		movw	r2, #4114
 1059 003e 0021     		movs	r1, #0
 1060 0040 3846     		mov	r0, r7
 1061 0042 FFF7FEFF 		bl	lv_obj_get_style_prop
 1062              	.LVL117:
 1063 0046 1190     		str	r0, [sp, #68]
 106:Middlewares/lvgl/src/widgets/../core/lv_obj_style_gen.h **** }
 1064              		.loc 3 106 5 is_stmt 1 view .LVU349
 106:Middlewares/lvgl/src/widgets/../core/lv_obj_style_gen.h **** }
 1065              		.loc 3 106 12 is_stmt 0 view .LVU350
 1066 0048 03B2     		sxth	r3, r0
 1067 004a 0D93     		str	r3, [sp, #52]
 1068              	.LVL118:
 106:Middlewares/lvgl/src/widgets/../core/lv_obj_style_gen.h **** }
 1069              		.loc 3 106 12 view .LVU351
 1070              	.LBE128:
 1071              	.LBE127:
 595:Middlewares/lvgl/src/widgets/lv_table.c **** 
 1072              		.loc 1 595 5 is_stmt 1 view .LVU352
 1073              	.LBB129:
 1074              	.LBI129:
 109:Middlewares/lvgl/src/widgets/../core/lv_obj_style_gen.h **** {
 1075              		.loc 3 109 26 view .LVU353
 1076              	.LBB130:
 111:Middlewares/lvgl/src/widgets/../core/lv_obj_style_gen.h ****     return (lv_coord_t)v.num;
 1077              		.loc 3 111 5 view .LVU354
 111:Middlewares/lvgl/src/widgets/../core/lv_obj_style_gen.h ****     return (lv_coord_t)v.num;
 1078              		.loc 3 111 26 is_stmt 0 view .LVU355
ARM GAS  /tmp/ccTYGLnU.s 			page 48


 1079 004c 41F21302 		movw	r2, #4115
 1080 0050 0021     		movs	r1, #0
 1081 0052 3846     		mov	r0, r7
 1082 0054 FFF7FEFF 		bl	lv_obj_get_style_prop
 1083              	.LVL119:
 1084 0058 1390     		str	r0, [sp, #76]
 112:Middlewares/lvgl/src/widgets/../core/lv_obj_style_gen.h **** }
 1085              		.loc 3 112 5 is_stmt 1 view .LVU356
 112:Middlewares/lvgl/src/widgets/../core/lv_obj_style_gen.h **** }
 1086              		.loc 3 112 12 is_stmt 0 view .LVU357
 1087 005a 03B2     		sxth	r3, r0
 1088 005c 0C93     		str	r3, [sp, #48]
 1089              	.LVL120:
 112:Middlewares/lvgl/src/widgets/../core/lv_obj_style_gen.h **** }
 1090              		.loc 3 112 12 view .LVU358
 1091              	.LBE130:
 1092              	.LBE129:
 597:Middlewares/lvgl/src/widgets/lv_table.c ****     lv_coord_t cell_right = lv_obj_get_style_pad_right(obj, LV_PART_ITEMS);
 1093              		.loc 1 597 5 is_stmt 1 view .LVU359
 1094              	.LBB131:
 1095              	.LBI131:
 103:Middlewares/lvgl/src/widgets/../core/lv_obj_style_gen.h **** {
 1096              		.loc 3 103 26 view .LVU360
 1097              	.LBB132:
 105:Middlewares/lvgl/src/widgets/../core/lv_obj_style_gen.h ****     return (lv_coord_t)v.num;
 1098              		.loc 3 105 5 view .LVU361
 105:Middlewares/lvgl/src/widgets/../core/lv_obj_style_gen.h ****     return (lv_coord_t)v.num;
 1099              		.loc 3 105 26 is_stmt 0 view .LVU362
 1100 005e 41F21202 		movw	r2, #4114
 1101 0062 4FF4A021 		mov	r1, #327680
 1102 0066 3846     		mov	r0, r7
 1103 0068 FFF7FEFF 		bl	lv_obj_get_style_prop
 1104              	.LVL121:
 1105 006c 0A90     		str	r0, [sp, #40]
 106:Middlewares/lvgl/src/widgets/../core/lv_obj_style_gen.h **** }
 1106              		.loc 3 106 5 is_stmt 1 view .LVU363
 1107              	.LVL122:
 106:Middlewares/lvgl/src/widgets/../core/lv_obj_style_gen.h **** }
 1108              		.loc 3 106 5 is_stmt 0 view .LVU364
 1109              	.LBE132:
 1110              	.LBE131:
 598:Middlewares/lvgl/src/widgets/lv_table.c ****     lv_coord_t cell_top = lv_obj_get_style_pad_top(obj, LV_PART_ITEMS);
 1111              		.loc 1 598 5 is_stmt 1 view .LVU365
 1112              	.LBB133:
 1113              	.LBI133:
 109:Middlewares/lvgl/src/widgets/../core/lv_obj_style_gen.h **** {
 1114              		.loc 3 109 26 view .LVU366
 1115              	.LBB134:
 111:Middlewares/lvgl/src/widgets/../core/lv_obj_style_gen.h ****     return (lv_coord_t)v.num;
 1116              		.loc 3 111 5 view .LVU367
 111:Middlewares/lvgl/src/widgets/../core/lv_obj_style_gen.h ****     return (lv_coord_t)v.num;
 1117              		.loc 3 111 26 is_stmt 0 view .LVU368
 1118 006e 41F21302 		movw	r2, #4115
 1119 0072 4FF4A021 		mov	r1, #327680
 1120 0076 3846     		mov	r0, r7
 1121 0078 FFF7FEFF 		bl	lv_obj_get_style_prop
 1122              	.LVL123:
ARM GAS  /tmp/ccTYGLnU.s 			page 49


 1123 007c 0990     		str	r0, [sp, #36]
 112:Middlewares/lvgl/src/widgets/../core/lv_obj_style_gen.h **** }
 1124              		.loc 3 112 5 is_stmt 1 view .LVU369
 1125              	.LVL124:
 112:Middlewares/lvgl/src/widgets/../core/lv_obj_style_gen.h **** }
 1126              		.loc 3 112 5 is_stmt 0 view .LVU370
 1127              	.LBE134:
 1128              	.LBE133:
 599:Middlewares/lvgl/src/widgets/lv_table.c ****     lv_coord_t cell_bottom = lv_obj_get_style_pad_bottom(obj, LV_PART_ITEMS);
 1129              		.loc 1 599 5 is_stmt 1 view .LVU371
 1130              	.LBB135:
 1131              	.LBI135:
  91:Middlewares/lvgl/src/widgets/../core/lv_obj_style_gen.h **** {
 1132              		.loc 3 91 26 view .LVU372
 1133              	.LBB136:
  93:Middlewares/lvgl/src/widgets/../core/lv_obj_style_gen.h ****     return (lv_coord_t)v.num;
 1134              		.loc 3 93 5 view .LVU373
  93:Middlewares/lvgl/src/widgets/../core/lv_obj_style_gen.h ****     return (lv_coord_t)v.num;
 1135              		.loc 3 93 26 is_stmt 0 view .LVU374
 1136 007e 41F21002 		movw	r2, #4112
 1137 0082 4FF4A021 		mov	r1, #327680
 1138 0086 3846     		mov	r0, r7
 1139 0088 FFF7FEFF 		bl	lv_obj_get_style_prop
 1140              	.LVL125:
 1141 008c 0890     		str	r0, [sp, #32]
  94:Middlewares/lvgl/src/widgets/../core/lv_obj_style_gen.h **** }
 1142              		.loc 3 94 5 is_stmt 1 view .LVU375
 1143              	.LVL126:
  94:Middlewares/lvgl/src/widgets/../core/lv_obj_style_gen.h **** }
 1144              		.loc 3 94 5 is_stmt 0 view .LVU376
 1145              	.LBE136:
 1146              	.LBE135:
 600:Middlewares/lvgl/src/widgets/lv_table.c **** 
 1147              		.loc 1 600 5 is_stmt 1 view .LVU377
 1148              	.LBB137:
 1149              	.LBI137:
  97:Middlewares/lvgl/src/widgets/../core/lv_obj_style_gen.h **** {
 1150              		.loc 3 97 26 view .LVU378
 1151              	.LBB138:
  99:Middlewares/lvgl/src/widgets/../core/lv_obj_style_gen.h ****     return (lv_coord_t)v.num;
 1152              		.loc 3 99 5 view .LVU379
  99:Middlewares/lvgl/src/widgets/../core/lv_obj_style_gen.h ****     return (lv_coord_t)v.num;
 1153              		.loc 3 99 26 is_stmt 0 view .LVU380
 1154 008e 41F21102 		movw	r2, #4113
 1155 0092 4FF4A021 		mov	r1, #327680
 1156 0096 3846     		mov	r0, r7
 1157 0098 FFF7FEFF 		bl	lv_obj_get_style_prop
 1158              	.LVL127:
 1159 009c 0790     		str	r0, [sp, #28]
 100:Middlewares/lvgl/src/widgets/../core/lv_obj_style_gen.h **** }
 1160              		.loc 3 100 5 is_stmt 1 view .LVU381
 1161              	.LVL128:
 100:Middlewares/lvgl/src/widgets/../core/lv_obj_style_gen.h **** }
 1162              		.loc 3 100 5 is_stmt 0 view .LVU382
 1163              	.LBE138:
 1164              	.LBE137:
 602:Middlewares/lvgl/src/widgets/lv_table.c ****     obj->state = LV_STATE_DEFAULT;
ARM GAS  /tmp/ccTYGLnU.s 			page 50


 1165              		.loc 1 602 5 is_stmt 1 view .LVU383
 602:Middlewares/lvgl/src/widgets/lv_table.c ****     obj->state = LV_STATE_DEFAULT;
 1166              		.loc 1 602 16 is_stmt 0 view .LVU384
 1167 009e 3E8C     		ldrh	r6, [r7, #32]
 1168 00a0 1296     		str	r6, [sp, #72]
 1169              	.LVL129:
 603:Middlewares/lvgl/src/widgets/lv_table.c ****     obj->skip_trans = 1;
 1170              		.loc 1 603 5 is_stmt 1 view .LVU385
 603:Middlewares/lvgl/src/widgets/lv_table.c ****     obj->skip_trans = 1;
 1171              		.loc 1 603 16 is_stmt 0 view .LVU386
 1172 00a2 0025     		movs	r5, #0
 1173 00a4 3D84     		strh	r5, [r7, #32]	@ movhi
 604:Middlewares/lvgl/src/widgets/lv_table.c ****     lv_draw_rect_dsc_t rect_dsc_def;
 1174              		.loc 1 604 5 is_stmt 1 view .LVU387
 604:Middlewares/lvgl/src/widgets/lv_table.c ****     lv_draw_rect_dsc_t rect_dsc_def;
 1175              		.loc 1 604 21 is_stmt 0 view .LVU388
 1176 00a6 97F82230 		ldrb	r3, [r7, #34]	@ zero_extendqisi2
 1177 00aa 43F00403 		orr	r3, r3, #4
 1178 00ae 87F82230 		strb	r3, [r7, #34]
 605:Middlewares/lvgl/src/widgets/lv_table.c ****     lv_draw_rect_dsc_t rect_dsc_act; /*Passed to the event to modify it*/
 1179              		.loc 1 605 5 is_stmt 1 view .LVU389
 606:Middlewares/lvgl/src/widgets/lv_table.c ****     lv_draw_rect_dsc_init(&rect_dsc_def);
 1180              		.loc 1 606 5 view .LVU390
 607:Middlewares/lvgl/src/widgets/lv_table.c ****     lv_obj_init_draw_rect_dsc(obj, LV_PART_ITEMS, &rect_dsc_def);
 1181              		.loc 1 607 5 view .LVU391
 1182 00b2 48A8     		add	r0, sp, #288
 1183 00b4 FFF7FEFF 		bl	lv_draw_rect_dsc_init
 1184              	.LVL130:
 608:Middlewares/lvgl/src/widgets/lv_table.c **** 
 1185              		.loc 1 608 5 view .LVU392
 1186 00b8 48AA     		add	r2, sp, #288
 1187 00ba 4FF4A021 		mov	r1, #327680
 1188 00be 3846     		mov	r0, r7
 1189 00c0 FFF7FEFF 		bl	lv_obj_init_draw_rect_dsc
 1190              	.LVL131:
 610:Middlewares/lvgl/src/widgets/lv_table.c ****     lv_draw_label_dsc_t label_dsc_act;  /*Passed to the event to modify it*/
 1191              		.loc 1 610 5 view .LVU393
 611:Middlewares/lvgl/src/widgets/lv_table.c ****     lv_draw_label_dsc_init(&label_dsc_def);
 1192              		.loc 1 611 5 view .LVU394
 612:Middlewares/lvgl/src/widgets/lv_table.c ****     lv_obj_init_draw_label_dsc(obj, LV_PART_ITEMS, &label_dsc_def);
 1193              		.loc 1 612 5 view .LVU395
 1194 00c4 33A8     		add	r0, sp, #204
 1195 00c6 FFF7FEFF 		bl	lv_draw_label_dsc_init
 1196              	.LVL132:
 613:Middlewares/lvgl/src/widgets/lv_table.c ****     obj->state = state_ori;
 1197              		.loc 1 613 5 view .LVU396
 1198 00ca 33AA     		add	r2, sp, #204
 1199 00cc 4FF4A021 		mov	r1, #327680
 1200 00d0 3846     		mov	r0, r7
 1201 00d2 FFF7FEFF 		bl	lv_obj_init_draw_label_dsc
 1202              	.LVL133:
 614:Middlewares/lvgl/src/widgets/lv_table.c ****     obj->skip_trans = 0;
 1203              		.loc 1 614 5 view .LVU397
 614:Middlewares/lvgl/src/widgets/lv_table.c ****     obj->skip_trans = 0;
 1204              		.loc 1 614 16 is_stmt 0 view .LVU398
 1205 00d6 3E84     		strh	r6, [r7, #32]	@ movhi
 615:Middlewares/lvgl/src/widgets/lv_table.c **** 
ARM GAS  /tmp/ccTYGLnU.s 			page 51


 1206              		.loc 1 615 5 is_stmt 1 view .LVU399
 615:Middlewares/lvgl/src/widgets/lv_table.c **** 
 1207              		.loc 1 615 21 is_stmt 0 view .LVU400
 1208 00d8 97F82230 		ldrb	r3, [r7, #34]	@ zero_extendqisi2
 1209 00dc 65F38203 		bfi	r3, r5, #2, #1
 1210 00e0 87F82230 		strb	r3, [r7, #34]
 617:Middlewares/lvgl/src/widgets/lv_table.c ****     uint16_t row;
 1211              		.loc 1 617 5 is_stmt 1 view .LVU401
 618:Middlewares/lvgl/src/widgets/lv_table.c ****     uint16_t cell = 0;
 1212              		.loc 1 618 5 view .LVU402
 619:Middlewares/lvgl/src/widgets/lv_table.c **** 
 1213              		.loc 1 619 5 view .LVU403
 1214              	.LVL134:
 621:Middlewares/lvgl/src/widgets/lv_table.c ****     lv_coord_t scroll_x = lv_obj_get_scroll_x(obj) ;
 1215              		.loc 1 621 5 view .LVU404
 621:Middlewares/lvgl/src/widgets/lv_table.c ****     lv_coord_t scroll_x = lv_obj_get_scroll_x(obj) ;
 1216              		.loc 1 621 31 is_stmt 0 view .LVU405
 1217 00e4 FB8A     		ldrh	r3, [r7, #22]
 1218              	.LVL135:
 621:Middlewares/lvgl/src/widgets/lv_table.c ****     lv_coord_t scroll_x = lv_obj_get_scroll_x(obj) ;
 1219              		.loc 1 621 35 view .LVU406
 1220 00e6 1C44     		add	r4, r4, r3
 1221              	.LVL136:
 621:Middlewares/lvgl/src/widgets/lv_table.c ****     lv_coord_t scroll_x = lv_obj_get_scroll_x(obj) ;
 1222              		.loc 1 621 35 view .LVU407
 1223 00e8 A4B2     		uxth	r4, r4
 621:Middlewares/lvgl/src/widgets/lv_table.c ****     lv_coord_t scroll_x = lv_obj_get_scroll_x(obj) ;
 1224              		.loc 1 621 50 view .LVU408
 1225 00ea 3846     		mov	r0, r7
 1226 00ec FFF7FEFF 		bl	lv_obj_get_scroll_y
 1227              	.LVL137:
 621:Middlewares/lvgl/src/widgets/lv_table.c ****     lv_coord_t scroll_x = lv_obj_get_scroll_x(obj) ;
 1228              		.loc 1 621 48 view .LVU409
 1229 00f0 231A     		subs	r3, r4, r0
 1230 00f2 013B     		subs	r3, r3, #1
 621:Middlewares/lvgl/src/widgets/lv_table.c ****     lv_coord_t scroll_x = lv_obj_get_scroll_x(obj) ;
 1231              		.loc 1 621 18 view .LVU410
 1232 00f4 ADF86231 		strh	r3, [sp, #354]	@ movhi
 622:Middlewares/lvgl/src/widgets/lv_table.c ****     bool rtl = lv_obj_get_style_base_dir(obj, LV_PART_MAIN) == LV_BASE_DIR_RTL ? true : false;
 1233              		.loc 1 622 5 is_stmt 1 view .LVU411
 622:Middlewares/lvgl/src/widgets/lv_table.c ****     bool rtl = lv_obj_get_style_base_dir(obj, LV_PART_MAIN) == LV_BASE_DIR_RTL ? true : false;
 1234              		.loc 1 622 27 is_stmt 0 view .LVU412
 1235 00f8 3846     		mov	r0, r7
 1236 00fa FFF7FEFF 		bl	lv_obj_get_scroll_x
 1237              	.LVL138:
 1238 00fe 1090     		str	r0, [sp, #64]
 1239              	.LVL139:
 623:Middlewares/lvgl/src/widgets/lv_table.c **** 
 1240              		.loc 1 623 5 is_stmt 1 view .LVU413
 1241              	.LBB139:
 1242              	.LBI139:
 187:Middlewares/lvgl/src/widgets/../core/lv_obj_style_gen.h **** {
 1243              		.loc 3 187 29 view .LVU414
 1244              	.LBB140:
 189:Middlewares/lvgl/src/widgets/../core/lv_obj_style_gen.h ****     return (lv_base_dir_t)v.num;
 1245              		.loc 3 189 5 view .LVU415
 189:Middlewares/lvgl/src/widgets/../core/lv_obj_style_gen.h ****     return (lv_base_dir_t)v.num;
ARM GAS  /tmp/ccTYGLnU.s 			page 52


 1246              		.loc 3 189 26 is_stmt 0 view .LVU416
 1247 0100 41F26A42 		movw	r2, #5226
 1248 0104 2946     		mov	r1, r5
 1249 0106 3846     		mov	r0, r7
 1250 0108 FFF7FEFF 		bl	lv_obj_get_style_prop
 1251              	.LVL140:
 190:Middlewares/lvgl/src/widgets/../core/lv_obj_style_gen.h **** }
 1252              		.loc 3 190 5 is_stmt 1 view .LVU417
 190:Middlewares/lvgl/src/widgets/../core/lv_obj_style_gen.h **** }
 1253              		.loc 3 190 12 is_stmt 0 view .LVU418
 1254 010c 5FFA80FB 		uxtb	fp, r0
 1255              	.LVL141:
 190:Middlewares/lvgl/src/widgets/../core/lv_obj_style_gen.h **** }
 1256              		.loc 3 190 12 view .LVU419
 1257              	.LBE140:
 1258              	.LBE139:
 626:Middlewares/lvgl/src/widgets/lv_table.c ****     lv_obj_draw_dsc_init(&dsc, clip_area);
 1259              		.loc 1 626 5 is_stmt 1 view .LVU420
 627:Middlewares/lvgl/src/widgets/lv_table.c ****     dsc.part = LV_PART_ITEMS;
 1260              		.loc 1 627 5 view .LVU421
 1261 0110 4146     		mov	r1, r8
 1262 0112 19A8     		add	r0, sp, #100
 1263 0114 FFF7FEFF 		bl	lv_obj_draw_dsc_init
 1264              	.LVL142:
 628:Middlewares/lvgl/src/widgets/lv_table.c ****     dsc.rect_dsc = &rect_dsc_act;
 1265              		.loc 1 628 5 view .LVU422
 628:Middlewares/lvgl/src/widgets/lv_table.c ****     dsc.rect_dsc = &rect_dsc_act;
 1266              		.loc 1 628 14 is_stmt 0 view .LVU423
 1267 0118 4FF4A023 		mov	r3, #327680
 1268 011c 2693     		str	r3, [sp, #152]
 629:Middlewares/lvgl/src/widgets/lv_table.c ****     dsc.label_dsc = &label_dsc_act;
 1269              		.loc 1 629 5 is_stmt 1 view .LVU424
 629:Middlewares/lvgl/src/widgets/lv_table.c ****     dsc.label_dsc = &label_dsc_act;
 1270              		.loc 1 629 18 is_stmt 0 view .LVU425
 1271 011e 3BAB     		add	r3, sp, #236
 1272 0120 1B93     		str	r3, [sp, #108]
 630:Middlewares/lvgl/src/widgets/lv_table.c **** 
 1273              		.loc 1 630 5 is_stmt 1 view .LVU426
 630:Middlewares/lvgl/src/widgets/lv_table.c **** 
 1274              		.loc 1 630 19 is_stmt 0 view .LVU427
 1275 0122 2BAB     		add	r3, sp, #172
 1276 0124 1C93     		str	r3, [sp, #112]
 632:Middlewares/lvgl/src/widgets/lv_table.c ****         lv_coord_t h_row = table->row_h[row];
 1277              		.loc 1 632 5 is_stmt 1 view .LVU428
 1278              	.LVL143:
 619:Middlewares/lvgl/src/widgets/lv_table.c **** 
 1279              		.loc 1 619 14 is_stmt 0 view .LVU429
 1280 0126 AA46     		mov	r10, r5
 632:Middlewares/lvgl/src/widgets/lv_table.c ****         lv_coord_t h_row = table->row_h[row];
 1281              		.loc 1 632 13 view .LVU430
 1282 0128 0695     		str	r5, [sp, #24]
 632:Middlewares/lvgl/src/widgets/lv_table.c ****         lv_coord_t h_row = table->row_h[row];
 1283              		.loc 1 632 5 view .LVU431
 1284 012a AEE1     		b	.L33
 1285              	.LVL144:
 1286              	.L75:
 1287              	.LBB141:
ARM GAS  /tmp/ccTYGLnU.s 			page 53


 640:Middlewares/lvgl/src/widgets/lv_table.c ****         else cell_area.x2 = obj->coords.x1 + bg_left - 1 - scroll_x;
 1288              		.loc 1 640 17 is_stmt 1 discriminator 1 view .LVU432
 640:Middlewares/lvgl/src/widgets/lv_table.c ****         else cell_area.x2 = obj->coords.x1 + bg_left - 1 - scroll_x;
 1289              		.loc 1 640 43 is_stmt 0 discriminator 1 view .LVU433
 1290 012c 3B8B     		ldrh	r3, [r7, #24]
 640:Middlewares/lvgl/src/widgets/lv_table.c ****         else cell_area.x2 = obj->coords.x1 + bg_left - 1 - scroll_x;
 1291              		.loc 1 640 47 discriminator 1 view .LVU434
 1292 012e 139A     		ldr	r2, [sp, #76]
 1293 0130 9B1A     		subs	r3, r3, r2
 1294 0132 9BB2     		uxth	r3, r3
 640:Middlewares/lvgl/src/widgets/lv_table.c ****         else cell_area.x2 = obj->coords.x1 + bg_left - 1 - scroll_x;
 1295              		.loc 1 640 62 discriminator 1 view .LVU435
 1296 0134 109A     		ldr	r2, [sp, #64]
 1297 0136 9B1A     		subs	r3, r3, r2
 1298 0138 013B     		subs	r3, r3, #1
 640:Middlewares/lvgl/src/widgets/lv_table.c ****         else cell_area.x2 = obj->coords.x1 + bg_left - 1 - scroll_x;
 1299              		.loc 1 640 30 discriminator 1 view .LVU436
 1300 013a ADF85C31 		strh	r3, [sp, #348]	@ movhi
 1301 013e CBE1     		b	.L37
 1302              	.LVL145:
 1303              	.L66:
 1304              	.LBB142:
 644:Middlewares/lvgl/src/widgets/lv_table.c ****             if(table->cell_data[cell]) ctrl = table->cell_data[cell][0];
 1305              		.loc 1 644 34 view .LVU437
 1306 0140 0026     		movs	r6, #0
 1307 0142 38E1     		b	.L38
 1308              	.LVL146:
 1309              	.L74:
 648:Middlewares/lvgl/src/widgets/lv_table.c ****                 cell_area.x1 = cell_area.x2 - table->col_w[col] + 1;
 1310              		.loc 1 648 17 is_stmt 1 view .LVU438
 648:Middlewares/lvgl/src/widgets/lv_table.c ****                 cell_area.x1 = cell_area.x2 - table->col_w[col] + 1;
 1311              		.loc 1 648 41 is_stmt 0 view .LVU439
 1312 0144 BDF85C21 		ldrh	r2, [sp, #348]
 648:Middlewares/lvgl/src/widgets/lv_table.c ****                 cell_area.x1 = cell_area.x2 - table->col_w[col] + 1;
 1313              		.loc 1 648 45 view .LVU440
 1314 0148 013A     		subs	r2, r2, #1
 1315 014a 93B2     		uxth	r3, r2
 648:Middlewares/lvgl/src/widgets/lv_table.c ****                 cell_area.x1 = cell_area.x2 - table->col_w[col] + 1;
 1316              		.loc 1 648 30 view .LVU441
 1317 014c ADF86021 		strh	r2, [sp, #352]	@ movhi
 649:Middlewares/lvgl/src/widgets/lv_table.c ****             }
 1318              		.loc 1 649 17 is_stmt 1 view .LVU442
 649:Middlewares/lvgl/src/widgets/lv_table.c ****             }
 1319              		.loc 1 649 52 is_stmt 0 view .LVU443
 1320 0150 3A6B     		ldr	r2, [r7, #48]
 649:Middlewares/lvgl/src/widgets/lv_table.c ****             }
 1321              		.loc 1 649 59 view .LVU444
 1322 0152 32F81520 		ldrh	r2, [r2, r5, lsl #1]
 649:Middlewares/lvgl/src/widgets/lv_table.c ****             }
 1323              		.loc 1 649 45 view .LVU445
 1324 0156 9B1A     		subs	r3, r3, r2
 1325 0158 9BB2     		uxth	r3, r3
 649:Middlewares/lvgl/src/widgets/lv_table.c ****             }
 1326              		.loc 1 649 65 view .LVU446
 1327 015a 0133     		adds	r3, r3, #1
 649:Middlewares/lvgl/src/widgets/lv_table.c ****             }
 1328              		.loc 1 649 30 view .LVU447
ARM GAS  /tmp/ccTYGLnU.s 			page 54


 1329 015c ADF85C31 		strh	r3, [sp, #348]	@ movhi
 1330 0160 3BE1     		b	.L40
 1331              	.LVL147:
 1332              	.L69:
 1333              	.LBB143:
 662:Middlewares/lvgl/src/widgets/lv_table.c ****                         else cell_area.x2 += table->col_w[col + col_merge + 1];
 1334              		.loc 1 662 33 is_stmt 1 discriminator 1 view .LVU448
 662:Middlewares/lvgl/src/widgets/lv_table.c ****                         else cell_area.x2 += table->col_w[col + col_merge + 1];
 1335              		.loc 1 662 54 is_stmt 0 discriminator 1 view .LVU449
 1336 0162 3A6B     		ldr	r2, [r7, #48]
 1337              	.LVL148:
 662:Middlewares/lvgl/src/widgets/lv_table.c ****                         else cell_area.x2 += table->col_w[col + col_merge + 1];
 1338              		.loc 1 662 61 discriminator 1 view .LVU450
 1339 0164 0133     		adds	r3, r3, #1
 1340 0166 32F81320 		ldrh	r2, [r2, r3, lsl #1]
 662:Middlewares/lvgl/src/widgets/lv_table.c ****                         else cell_area.x2 += table->col_w[col + col_merge + 1];
 1341              		.loc 1 662 46 discriminator 1 view .LVU451
 1342 016a BDF85C31 		ldrh	r3, [sp, #348]
 1343 016e 9B1A     		subs	r3, r3, r2
 1344 0170 ADF85C31 		strh	r3, [sp, #348]	@ movhi
 1345              	.LVL149:
 1346              	.L43:
 662:Middlewares/lvgl/src/widgets/lv_table.c ****                         else cell_area.x2 += table->col_w[col + col_merge + 1];
 1347              		.loc 1 662 46 discriminator 1 view .LVU452
 1348              	.LBE143:
 657:Middlewares/lvgl/src/widgets/lv_table.c ****                 if(table->cell_data[cell + col_merge]) {
 1349              		.loc 1 657 70 is_stmt 1 discriminator 2 view .LVU453
 657:Middlewares/lvgl/src/widgets/lv_table.c ****                 if(table->cell_data[cell + col_merge]) {
 1350              		.loc 1 657 79 is_stmt 0 discriminator 2 view .LVU454
 1351 0174 0134     		adds	r4, r4, #1
 1352              	.LVL150:
 657:Middlewares/lvgl/src/widgets/lv_table.c ****                 if(table->cell_data[cell + col_merge]) {
 1353              		.loc 1 657 79 discriminator 2 view .LVU455
 1354 0176 A4B2     		uxth	r4, r4
 1355              	.LVL151:
 1356              	.L44:
 657:Middlewares/lvgl/src/widgets/lv_table.c ****                 if(table->cell_data[cell + col_merge]) {
 1357              		.loc 1 657 32 is_stmt 1 discriminator 1 view .LVU456
 657:Middlewares/lvgl/src/widgets/lv_table.c ****                 if(table->cell_data[cell + col_merge]) {
 1358              		.loc 1 657 42 is_stmt 0 discriminator 1 view .LVU457
 1359 0178 0495     		str	r5, [sp, #16]
 1360 017a 6319     		adds	r3, r4, r5
 657:Middlewares/lvgl/src/widgets/lv_table.c ****                 if(table->cell_data[cell + col_merge]) {
 1361              		.loc 1 657 65 discriminator 1 view .LVU458
 1362 017c 4A1E     		subs	r2, r1, #1
 657:Middlewares/lvgl/src/widgets/lv_table.c ****                 if(table->cell_data[cell + col_merge]) {
 1363              		.loc 1 657 13 discriminator 1 view .LVU459
 1364 017e 9342     		cmp	r3, r2
 1365 0180 15DA     		bge	.L41
 658:Middlewares/lvgl/src/widgets/lv_table.c ****                     char * next_cell_data = table->cell_data[cell + col_merge];
 1366              		.loc 1 658 17 is_stmt 1 view .LVU460
 658:Middlewares/lvgl/src/widgets/lv_table.c ****                     char * next_cell_data = table->cell_data[cell + col_merge];
 1367              		.loc 1 658 42 is_stmt 0 view .LVU461
 1368 0182 0AEB0402 		add	r2, r10, r4
 658:Middlewares/lvgl/src/widgets/lv_table.c ****                     char * next_cell_data = table->cell_data[cell + col_merge];
 1369              		.loc 1 658 36 view .LVU462
 1370 0186 50F82220 		ldr	r2, [r0, r2, lsl #2]
ARM GAS  /tmp/ccTYGLnU.s 			page 55


 658:Middlewares/lvgl/src/widgets/lv_table.c ****                     char * next_cell_data = table->cell_data[cell + col_merge];
 1371              		.loc 1 658 19 view .LVU463
 1372 018a 82B1     		cbz	r2, .L41
 1373              	.LBB144:
 659:Middlewares/lvgl/src/widgets/lv_table.c ****                     if(next_cell_data) ctrl = next_cell_data[0];
 1374              		.loc 1 659 21 is_stmt 1 discriminator 1 view .LVU464
 1375              	.LVL152:
 660:Middlewares/lvgl/src/widgets/lv_table.c ****                     if(ctrl & LV_TABLE_CELL_CTRL_MERGE_RIGHT)
 1376              		.loc 1 660 21 discriminator 1 view .LVU465
 660:Middlewares/lvgl/src/widgets/lv_table.c ****                     if(ctrl & LV_TABLE_CELL_CTRL_MERGE_RIGHT)
 1377              		.loc 1 660 40 discriminator 1 view .LVU466
 660:Middlewares/lvgl/src/widgets/lv_table.c ****                     if(ctrl & LV_TABLE_CELL_CTRL_MERGE_RIGHT)
 1378              		.loc 1 660 45 is_stmt 0 discriminator 1 view .LVU467
 1379 018c 1678     		ldrb	r6, [r2]	@ zero_extendqisi2
 1380              	.LVL153:
 661:Middlewares/lvgl/src/widgets/lv_table.c ****                         if(rtl) cell_area.x1 -= table->col_w[col + col_merge + 1];
 1381              		.loc 1 661 21 is_stmt 1 discriminator 1 view .LVU468
 661:Middlewares/lvgl/src/widgets/lv_table.c ****                         if(rtl) cell_area.x1 -= table->col_w[col + col_merge + 1];
 1382              		.loc 1 661 23 is_stmt 0 discriminator 1 view .LVU469
 1383 018e 16F0010F 		tst	r6, #1
 1384 0192 0CD0     		beq	.L41
 662:Middlewares/lvgl/src/widgets/lv_table.c ****                         else cell_area.x2 += table->col_w[col + col_merge + 1];
 1385              		.loc 1 662 25 is_stmt 1 view .LVU470
 662:Middlewares/lvgl/src/widgets/lv_table.c ****                         else cell_area.x2 += table->col_w[col + col_merge + 1];
 1386              		.loc 1 662 27 is_stmt 0 view .LVU471
 1387 0194 BBF1010F 		cmp	fp, #1
 1388 0198 E3D0     		beq	.L69
 663:Middlewares/lvgl/src/widgets/lv_table.c ****                     else {
 1389              		.loc 1 663 30 is_stmt 1 view .LVU472
 663:Middlewares/lvgl/src/widgets/lv_table.c ****                     else {
 1390              		.loc 1 663 51 is_stmt 0 view .LVU473
 1391 019a 3A6B     		ldr	r2, [r7, #48]
 1392              	.LVL154:
 663:Middlewares/lvgl/src/widgets/lv_table.c ****                     else {
 1393              		.loc 1 663 58 view .LVU474
 1394 019c 0133     		adds	r3, r3, #1
 1395 019e 32F81330 		ldrh	r3, [r2, r3, lsl #1]
 663:Middlewares/lvgl/src/widgets/lv_table.c ****                     else {
 1396              		.loc 1 663 43 view .LVU475
 1397 01a2 BDF86021 		ldrh	r2, [sp, #352]
 1398 01a6 1344     		add	r3, r3, r2
 1399 01a8 ADF86031 		strh	r3, [sp, #352]	@ movhi
 1400              	.LVL155:
 663:Middlewares/lvgl/src/widgets/lv_table.c ****                     else {
 1401              		.loc 1 663 43 view .LVU476
 1402 01ac E2E7     		b	.L43
 1403              	.L41:
 663:Middlewares/lvgl/src/widgets/lv_table.c ****                     else {
 1404              		.loc 1 663 43 view .LVU477
 1405              	.LBE144:
 673:Middlewares/lvgl/src/widgets/lv_table.c ****                 cell += col_merge + 1;
 1406              		.loc 1 673 13 is_stmt 1 view .LVU478
 673:Middlewares/lvgl/src/widgets/lv_table.c ****                 cell += col_merge + 1;
 1407              		.loc 1 673 25 is_stmt 0 view .LVU479
 1408 01ae BDF96231 		ldrsh	r3, [sp, #354]
 673:Middlewares/lvgl/src/widgets/lv_table.c ****                 cell += col_merge + 1;
 1409              		.loc 1 673 40 view .LVU480
ARM GAS  /tmp/ccTYGLnU.s 			page 56


 1410 01b2 059A     		ldr	r2, [sp, #20]
 1411 01b4 B2F90220 		ldrsh	r2, [r2, #2]
 673:Middlewares/lvgl/src/widgets/lv_table.c ****                 cell += col_merge + 1;
 1412              		.loc 1 673 15 view .LVU481
 1413 01b8 9342     		cmp	r3, r2
 1414 01ba C0F21081 		blt	.L70
 680:Middlewares/lvgl/src/widgets/lv_table.c ****             lv_area_copy(&cell_area_border, &cell_area);
 1415              		.loc 1 680 13 is_stmt 1 view .LVU482
 681:Middlewares/lvgl/src/widgets/lv_table.c ****             if((rect_dsc_def.border_side & LV_BORDER_SIDE_LEFT) && cell_area_border.x1 > obj->coord
 1416              		.loc 1 681 13 view .LVU483
 1417              	.LVL156:
 1418              	.LBB145:
 1419              	.LBI145:
 1420              		.file 4 "Middlewares/lvgl/src/widgets/../core/../misc/../font/../misc/lv_area.h"
   1:Middlewares/lvgl/src/widgets/../core/../misc/../font/../misc/lv_area.h **** /**
   2:Middlewares/lvgl/src/widgets/../core/../misc/../font/../misc/lv_area.h ****  * @file lv_area.h
   3:Middlewares/lvgl/src/widgets/../core/../misc/../font/../misc/lv_area.h ****  *
   4:Middlewares/lvgl/src/widgets/../core/../misc/../font/../misc/lv_area.h ****  */
   5:Middlewares/lvgl/src/widgets/../core/../misc/../font/../misc/lv_area.h **** 
   6:Middlewares/lvgl/src/widgets/../core/../misc/../font/../misc/lv_area.h **** #ifndef LV_AREA_H
   7:Middlewares/lvgl/src/widgets/../core/../misc/../font/../misc/lv_area.h **** #define LV_AREA_H
   8:Middlewares/lvgl/src/widgets/../core/../misc/../font/../misc/lv_area.h **** 
   9:Middlewares/lvgl/src/widgets/../core/../misc/../font/../misc/lv_area.h **** #ifdef __cplusplus
  10:Middlewares/lvgl/src/widgets/../core/../misc/../font/../misc/lv_area.h **** extern "C" {
  11:Middlewares/lvgl/src/widgets/../core/../misc/../font/../misc/lv_area.h **** #endif
  12:Middlewares/lvgl/src/widgets/../core/../misc/../font/../misc/lv_area.h **** 
  13:Middlewares/lvgl/src/widgets/../core/../misc/../font/../misc/lv_area.h **** /*********************
  14:Middlewares/lvgl/src/widgets/../core/../misc/../font/../misc/lv_area.h ****  *      INCLUDES
  15:Middlewares/lvgl/src/widgets/../core/../misc/../font/../misc/lv_area.h ****  *********************/
  16:Middlewares/lvgl/src/widgets/../core/../misc/../font/../misc/lv_area.h **** #include "../lv_conf_internal.h"
  17:Middlewares/lvgl/src/widgets/../core/../misc/../font/../misc/lv_area.h **** #include <string.h>
  18:Middlewares/lvgl/src/widgets/../core/../misc/../font/../misc/lv_area.h **** #include <stdbool.h>
  19:Middlewares/lvgl/src/widgets/../core/../misc/../font/../misc/lv_area.h **** #include <stdint.h>
  20:Middlewares/lvgl/src/widgets/../core/../misc/../font/../misc/lv_area.h **** 
  21:Middlewares/lvgl/src/widgets/../core/../misc/../font/../misc/lv_area.h **** /*********************
  22:Middlewares/lvgl/src/widgets/../core/../misc/../font/../misc/lv_area.h ****  *      DEFINES
  23:Middlewares/lvgl/src/widgets/../core/../misc/../font/../misc/lv_area.h ****  *********************/
  24:Middlewares/lvgl/src/widgets/../core/../misc/../font/../misc/lv_area.h **** 
  25:Middlewares/lvgl/src/widgets/../core/../misc/../font/../misc/lv_area.h **** #define _LV_COORD_MAX_REDUCE    8192
  26:Middlewares/lvgl/src/widgets/../core/../misc/../font/../misc/lv_area.h **** 
  27:Middlewares/lvgl/src/widgets/../core/../misc/../font/../misc/lv_area.h **** #if LV_USE_LARGE_COORD
  28:Middlewares/lvgl/src/widgets/../core/../misc/../font/../misc/lv_area.h **** typedef int32_t lv_coord_t;
  29:Middlewares/lvgl/src/widgets/../core/../misc/../font/../misc/lv_area.h **** #else
  30:Middlewares/lvgl/src/widgets/../core/../misc/../font/../misc/lv_area.h **** typedef int16_t lv_coord_t;
  31:Middlewares/lvgl/src/widgets/../core/../misc/../font/../misc/lv_area.h **** #endif
  32:Middlewares/lvgl/src/widgets/../core/../misc/../font/../misc/lv_area.h **** 
  33:Middlewares/lvgl/src/widgets/../core/../misc/../font/../misc/lv_area.h **** /*To allow some special values in the end reduce the max value*/
  34:Middlewares/lvgl/src/widgets/../core/../misc/../font/../misc/lv_area.h **** #define LV_COORD_MAX ((lv_coord_t)((uint32_t)((uint32_t)1 << (8 * sizeof(lv_coord_t) - 1)) - _LV_CO
  35:Middlewares/lvgl/src/widgets/../core/../misc/../font/../misc/lv_area.h **** #define LV_COORD_MIN (-LV_COORD_MAX)
  36:Middlewares/lvgl/src/widgets/../core/../misc/../font/../misc/lv_area.h **** 
  37:Middlewares/lvgl/src/widgets/../core/../misc/../font/../misc/lv_area.h **** LV_EXPORT_CONST_INT(LV_COORD_MAX);
  38:Middlewares/lvgl/src/widgets/../core/../misc/../font/../misc/lv_area.h **** LV_EXPORT_CONST_INT(LV_COORD_MIN);
  39:Middlewares/lvgl/src/widgets/../core/../misc/../font/../misc/lv_area.h **** 
  40:Middlewares/lvgl/src/widgets/../core/../misc/../font/../misc/lv_area.h **** /**********************
  41:Middlewares/lvgl/src/widgets/../core/../misc/../font/../misc/lv_area.h ****  *      TYPEDEFS
  42:Middlewares/lvgl/src/widgets/../core/../misc/../font/../misc/lv_area.h ****  **********************/
  43:Middlewares/lvgl/src/widgets/../core/../misc/../font/../misc/lv_area.h **** 
ARM GAS  /tmp/ccTYGLnU.s 			page 57


  44:Middlewares/lvgl/src/widgets/../core/../misc/../font/../misc/lv_area.h **** /**
  45:Middlewares/lvgl/src/widgets/../core/../misc/../font/../misc/lv_area.h ****  * Represents a point on the screen.
  46:Middlewares/lvgl/src/widgets/../core/../misc/../font/../misc/lv_area.h ****  */
  47:Middlewares/lvgl/src/widgets/../core/../misc/../font/../misc/lv_area.h **** typedef struct {
  48:Middlewares/lvgl/src/widgets/../core/../misc/../font/../misc/lv_area.h ****     lv_coord_t x;
  49:Middlewares/lvgl/src/widgets/../core/../misc/../font/../misc/lv_area.h ****     lv_coord_t y;
  50:Middlewares/lvgl/src/widgets/../core/../misc/../font/../misc/lv_area.h **** } lv_point_t;
  51:Middlewares/lvgl/src/widgets/../core/../misc/../font/../misc/lv_area.h **** 
  52:Middlewares/lvgl/src/widgets/../core/../misc/../font/../misc/lv_area.h **** /** Represents an area of the screen.*/
  53:Middlewares/lvgl/src/widgets/../core/../misc/../font/../misc/lv_area.h **** typedef struct {
  54:Middlewares/lvgl/src/widgets/../core/../misc/../font/../misc/lv_area.h ****     lv_coord_t x1;
  55:Middlewares/lvgl/src/widgets/../core/../misc/../font/../misc/lv_area.h ****     lv_coord_t y1;
  56:Middlewares/lvgl/src/widgets/../core/../misc/../font/../misc/lv_area.h ****     lv_coord_t x2;
  57:Middlewares/lvgl/src/widgets/../core/../misc/../font/../misc/lv_area.h ****     lv_coord_t y2;
  58:Middlewares/lvgl/src/widgets/../core/../misc/../font/../misc/lv_area.h **** } lv_area_t;
  59:Middlewares/lvgl/src/widgets/../core/../misc/../font/../misc/lv_area.h **** 
  60:Middlewares/lvgl/src/widgets/../core/../misc/../font/../misc/lv_area.h **** /** Alignments*/
  61:Middlewares/lvgl/src/widgets/../core/../misc/../font/../misc/lv_area.h **** enum {
  62:Middlewares/lvgl/src/widgets/../core/../misc/../font/../misc/lv_area.h ****     LV_ALIGN_DEFAULT = 0,
  63:Middlewares/lvgl/src/widgets/../core/../misc/../font/../misc/lv_area.h ****     LV_ALIGN_TOP_LEFT,
  64:Middlewares/lvgl/src/widgets/../core/../misc/../font/../misc/lv_area.h ****     LV_ALIGN_TOP_MID,
  65:Middlewares/lvgl/src/widgets/../core/../misc/../font/../misc/lv_area.h ****     LV_ALIGN_TOP_RIGHT,
  66:Middlewares/lvgl/src/widgets/../core/../misc/../font/../misc/lv_area.h ****     LV_ALIGN_BOTTOM_LEFT,
  67:Middlewares/lvgl/src/widgets/../core/../misc/../font/../misc/lv_area.h ****     LV_ALIGN_BOTTOM_MID,
  68:Middlewares/lvgl/src/widgets/../core/../misc/../font/../misc/lv_area.h ****     LV_ALIGN_BOTTOM_RIGHT,
  69:Middlewares/lvgl/src/widgets/../core/../misc/../font/../misc/lv_area.h ****     LV_ALIGN_LEFT_MID,
  70:Middlewares/lvgl/src/widgets/../core/../misc/../font/../misc/lv_area.h ****     LV_ALIGN_RIGHT_MID,
  71:Middlewares/lvgl/src/widgets/../core/../misc/../font/../misc/lv_area.h ****     LV_ALIGN_CENTER,
  72:Middlewares/lvgl/src/widgets/../core/../misc/../font/../misc/lv_area.h **** 
  73:Middlewares/lvgl/src/widgets/../core/../misc/../font/../misc/lv_area.h ****     LV_ALIGN_OUT_TOP_LEFT,
  74:Middlewares/lvgl/src/widgets/../core/../misc/../font/../misc/lv_area.h ****     LV_ALIGN_OUT_TOP_MID,
  75:Middlewares/lvgl/src/widgets/../core/../misc/../font/../misc/lv_area.h ****     LV_ALIGN_OUT_TOP_RIGHT,
  76:Middlewares/lvgl/src/widgets/../core/../misc/../font/../misc/lv_area.h ****     LV_ALIGN_OUT_BOTTOM_LEFT,
  77:Middlewares/lvgl/src/widgets/../core/../misc/../font/../misc/lv_area.h ****     LV_ALIGN_OUT_BOTTOM_MID,
  78:Middlewares/lvgl/src/widgets/../core/../misc/../font/../misc/lv_area.h ****     LV_ALIGN_OUT_BOTTOM_RIGHT,
  79:Middlewares/lvgl/src/widgets/../core/../misc/../font/../misc/lv_area.h ****     LV_ALIGN_OUT_LEFT_TOP,
  80:Middlewares/lvgl/src/widgets/../core/../misc/../font/../misc/lv_area.h ****     LV_ALIGN_OUT_LEFT_MID,
  81:Middlewares/lvgl/src/widgets/../core/../misc/../font/../misc/lv_area.h ****     LV_ALIGN_OUT_LEFT_BOTTOM,
  82:Middlewares/lvgl/src/widgets/../core/../misc/../font/../misc/lv_area.h ****     LV_ALIGN_OUT_RIGHT_TOP,
  83:Middlewares/lvgl/src/widgets/../core/../misc/../font/../misc/lv_area.h ****     LV_ALIGN_OUT_RIGHT_MID,
  84:Middlewares/lvgl/src/widgets/../core/../misc/../font/../misc/lv_area.h ****     LV_ALIGN_OUT_RIGHT_BOTTOM,
  85:Middlewares/lvgl/src/widgets/../core/../misc/../font/../misc/lv_area.h **** };
  86:Middlewares/lvgl/src/widgets/../core/../misc/../font/../misc/lv_area.h **** typedef uint8_t lv_align_t;
  87:Middlewares/lvgl/src/widgets/../core/../misc/../font/../misc/lv_area.h **** 
  88:Middlewares/lvgl/src/widgets/../core/../misc/../font/../misc/lv_area.h **** enum {
  89:Middlewares/lvgl/src/widgets/../core/../misc/../font/../misc/lv_area.h ****     LV_DIR_NONE     = 0x00,
  90:Middlewares/lvgl/src/widgets/../core/../misc/../font/../misc/lv_area.h ****     LV_DIR_LEFT     = (1 << 0),
  91:Middlewares/lvgl/src/widgets/../core/../misc/../font/../misc/lv_area.h ****     LV_DIR_RIGHT    = (1 << 1),
  92:Middlewares/lvgl/src/widgets/../core/../misc/../font/../misc/lv_area.h ****     LV_DIR_TOP      = (1 << 2),
  93:Middlewares/lvgl/src/widgets/../core/../misc/../font/../misc/lv_area.h ****     LV_DIR_BOTTOM   = (1 << 3),
  94:Middlewares/lvgl/src/widgets/../core/../misc/../font/../misc/lv_area.h ****     LV_DIR_HOR      = LV_DIR_LEFT | LV_DIR_RIGHT,
  95:Middlewares/lvgl/src/widgets/../core/../misc/../font/../misc/lv_area.h ****     LV_DIR_VER      = LV_DIR_TOP | LV_DIR_BOTTOM,
  96:Middlewares/lvgl/src/widgets/../core/../misc/../font/../misc/lv_area.h ****     LV_DIR_ALL      = LV_DIR_HOR | LV_DIR_VER,
  97:Middlewares/lvgl/src/widgets/../core/../misc/../font/../misc/lv_area.h **** };
  98:Middlewares/lvgl/src/widgets/../core/../misc/../font/../misc/lv_area.h **** 
  99:Middlewares/lvgl/src/widgets/../core/../misc/../font/../misc/lv_area.h **** typedef uint8_t lv_dir_t;
 100:Middlewares/lvgl/src/widgets/../core/../misc/../font/../misc/lv_area.h **** 
ARM GAS  /tmp/ccTYGLnU.s 			page 58


 101:Middlewares/lvgl/src/widgets/../core/../misc/../font/../misc/lv_area.h **** /**********************
 102:Middlewares/lvgl/src/widgets/../core/../misc/../font/../misc/lv_area.h ****  * GLOBAL PROTOTYPES
 103:Middlewares/lvgl/src/widgets/../core/../misc/../font/../misc/lv_area.h ****  **********************/
 104:Middlewares/lvgl/src/widgets/../core/../misc/../font/../misc/lv_area.h **** 
 105:Middlewares/lvgl/src/widgets/../core/../misc/../font/../misc/lv_area.h **** /**
 106:Middlewares/lvgl/src/widgets/../core/../misc/../font/../misc/lv_area.h ****  * Initialize an area
 107:Middlewares/lvgl/src/widgets/../core/../misc/../font/../misc/lv_area.h ****  * @param area_p pointer to an area
 108:Middlewares/lvgl/src/widgets/../core/../misc/../font/../misc/lv_area.h ****  * @param x1 left coordinate of the area
 109:Middlewares/lvgl/src/widgets/../core/../misc/../font/../misc/lv_area.h ****  * @param y1 top coordinate of the area
 110:Middlewares/lvgl/src/widgets/../core/../misc/../font/../misc/lv_area.h ****  * @param x2 right coordinate of the area
 111:Middlewares/lvgl/src/widgets/../core/../misc/../font/../misc/lv_area.h ****  * @param y2 bottom coordinate of the area
 112:Middlewares/lvgl/src/widgets/../core/../misc/../font/../misc/lv_area.h ****  */
 113:Middlewares/lvgl/src/widgets/../core/../misc/../font/../misc/lv_area.h **** void lv_area_set(lv_area_t * area_p, lv_coord_t x1, lv_coord_t y1, lv_coord_t x2, lv_coord_t y2);
 114:Middlewares/lvgl/src/widgets/../core/../misc/../font/../misc/lv_area.h **** 
 115:Middlewares/lvgl/src/widgets/../core/../misc/../font/../misc/lv_area.h **** /**
 116:Middlewares/lvgl/src/widgets/../core/../misc/../font/../misc/lv_area.h ****  * Copy an area
 117:Middlewares/lvgl/src/widgets/../core/../misc/../font/../misc/lv_area.h ****  * @param dest pointer to the destination area
 118:Middlewares/lvgl/src/widgets/../core/../misc/../font/../misc/lv_area.h ****  * @param src pointer to the source area
 119:Middlewares/lvgl/src/widgets/../core/../misc/../font/../misc/lv_area.h ****  */
 120:Middlewares/lvgl/src/widgets/../core/../misc/../font/../misc/lv_area.h **** inline static void lv_area_copy(lv_area_t * dest, const lv_area_t * src)
 1421              		.loc 4 120 20 view .LVU484
 1422              	.LBB146:
 121:Middlewares/lvgl/src/widgets/../core/../misc/../font/../misc/lv_area.h **** {
 122:Middlewares/lvgl/src/widgets/../core/../misc/../font/../misc/lv_area.h ****     dest->x1 = src->x1;
 1423              		.loc 4 122 5 view .LVU485
 1424              		.loc 4 122 19 is_stmt 0 view .LVU486
 1425 01be BDF95C01 		ldrsh	r0, [sp, #348]
 1426              		.loc 4 122 14 view .LVU487
 1427 01c2 ADF85400 		strh	r0, [sp, #84]	@ movhi
 123:Middlewares/lvgl/src/widgets/../core/../misc/../font/../misc/lv_area.h ****     dest->y1 = src->y1;
 1428              		.loc 4 123 5 is_stmt 1 view .LVU488
 1429              		.loc 4 123 19 is_stmt 0 view .LVU489
 1430 01c6 BDF95E11 		ldrsh	r1, [sp, #350]
 1431              		.loc 4 123 14 view .LVU490
 1432 01ca ADF85610 		strh	r1, [sp, #86]	@ movhi
 124:Middlewares/lvgl/src/widgets/../core/../misc/../font/../misc/lv_area.h ****     dest->x2 = src->x2;
 1433              		.loc 4 124 5 is_stmt 1 view .LVU491
 1434              		.loc 4 124 19 is_stmt 0 view .LVU492
 1435 01ce BDF960C1 		ldrsh	ip, [sp, #352]
 1436              		.loc 4 124 14 view .LVU493
 1437 01d2 ADF858C0 		strh	ip, [sp, #88]	@ movhi
 125:Middlewares/lvgl/src/widgets/../core/../misc/../font/../misc/lv_area.h ****     dest->y2 = src->y2;
 1438              		.loc 4 125 5 is_stmt 1 view .LVU494
 1439              		.loc 4 125 14 is_stmt 0 view .LVU495
 1440 01d6 ADF85A30 		strh	r3, [sp, #90]	@ movhi
 1441              	.LVL157:
 1442              		.loc 4 125 14 view .LVU496
 1443              	.LBE146:
 1444              	.LBE145:
 682:Middlewares/lvgl/src/widgets/lv_table.c ****                 cell_area_border.x1 -= rect_dsc_def.border_width / 2;
 1445              		.loc 1 682 13 is_stmt 1 view .LVU497
 682:Middlewares/lvgl/src/widgets/lv_table.c ****                 cell_area_border.x1 -= rect_dsc_def.border_width / 2;
 1446              		.loc 1 682 29 is_stmt 0 view .LVU498
 1447 01da 9DF83FE1 		ldrb	lr, [sp, #319]	@ zero_extendqisi2
 1448 01de CEF34402 		ubfx	r2, lr, #1, #5
 682:Middlewares/lvgl/src/widgets/lv_table.c ****                 cell_area_border.x1 -= rect_dsc_def.border_width / 2;
 1449              		.loc 1 682 15 view .LVU499
ARM GAS  /tmp/ccTYGLnU.s 			page 59


 1450 01e2 1EF0080F 		tst	lr, #8
 1451 01e6 0ED0     		beq	.L48
 682:Middlewares/lvgl/src/widgets/lv_table.c ****                 cell_area_border.x1 -= rect_dsc_def.border_width / 2;
 1452              		.loc 1 682 101 discriminator 1 view .LVU500
 1453 01e8 B7F914E0 		ldrsh	lr, [r7, #20]
 682:Middlewares/lvgl/src/widgets/lv_table.c ****                 cell_area_border.x1 -= rect_dsc_def.border_width / 2;
 1454              		.loc 1 682 105 discriminator 1 view .LVU501
 1455 01ec DDF83490 		ldr	r9, [sp, #52]
 1456 01f0 CE44     		add	lr, lr, r9
 682:Middlewares/lvgl/src/widgets/lv_table.c ****                 cell_area_border.x1 -= rect_dsc_def.border_width / 2;
 1457              		.loc 1 682 65 discriminator 1 view .LVU502
 1458 01f2 7045     		cmp	r0, lr
 1459 01f4 07DD     		ble	.L48
 683:Middlewares/lvgl/src/widgets/lv_table.c ****             }
 1460              		.loc 1 683 17 is_stmt 1 view .LVU503
 683:Middlewares/lvgl/src/widgets/lv_table.c ****             }
 1461              		.loc 1 683 52 is_stmt 0 view .LVU504
 1462 01f6 BDF93CE1 		ldrsh	lr, [sp, #316]
 683:Middlewares/lvgl/src/widgets/lv_table.c ****             }
 1463              		.loc 1 683 37 view .LVU505
 1464 01fa 0EEBDE7E 		add	lr, lr, lr, lsr #31
 1465 01fe A0EB6E00 		sub	r0, r0, lr, asr #1
 1466 0202 ADF85400 		strh	r0, [sp, #84]	@ movhi
 1467              	.L48:
 685:Middlewares/lvgl/src/widgets/lv_table.c ****                 cell_area_border.y1 -= rect_dsc_def.border_width / 2;
 1468              		.loc 1 685 13 is_stmt 1 view .LVU506
 685:Middlewares/lvgl/src/widgets/lv_table.c ****                 cell_area_border.y1 -= rect_dsc_def.border_width / 2;
 1469              		.loc 1 685 15 is_stmt 0 view .LVU507
 1470 0206 12F0020F 		tst	r2, #2
 1471 020a 0ED0     		beq	.L49
 685:Middlewares/lvgl/src/widgets/lv_table.c ****                 cell_area_border.y1 -= rect_dsc_def.border_width / 2;
 1472              		.loc 1 685 100 discriminator 1 view .LVU508
 1473 020c B7F91600 		ldrsh	r0, [r7, #22]
 685:Middlewares/lvgl/src/widgets/lv_table.c ****                 cell_area_border.y1 -= rect_dsc_def.border_width / 2;
 1474              		.loc 1 685 104 discriminator 1 view .LVU509
 1475 0210 DDF83CE0 		ldr	lr, [sp, #60]
 1476 0214 7044     		add	r0, r0, lr
 685:Middlewares/lvgl/src/widgets/lv_table.c ****                 cell_area_border.y1 -= rect_dsc_def.border_width / 2;
 1477              		.loc 1 685 64 discriminator 1 view .LVU510
 1478 0216 8142     		cmp	r1, r0
 1479 0218 07DD     		ble	.L49
 686:Middlewares/lvgl/src/widgets/lv_table.c ****             }
 1480              		.loc 1 686 17 is_stmt 1 view .LVU511
 686:Middlewares/lvgl/src/widgets/lv_table.c ****             }
 1481              		.loc 1 686 52 is_stmt 0 view .LVU512
 1482 021a BDF93C01 		ldrsh	r0, [sp, #316]
 686:Middlewares/lvgl/src/widgets/lv_table.c ****             }
 1483              		.loc 1 686 37 view .LVU513
 1484 021e 00EBD070 		add	r0, r0, r0, lsr #31
 1485 0222 A1EB6001 		sub	r1, r1, r0, asr #1
 1486 0226 ADF85610 		strh	r1, [sp, #86]	@ movhi
 1487              	.L49:
 688:Middlewares/lvgl/src/widgets/lv_table.c ****                 cell_area_border.x2 += rect_dsc_def.border_width / 2 + (rect_dsc_def.border_width &
 1488              		.loc 1 688 13 is_stmt 1 view .LVU514
 688:Middlewares/lvgl/src/widgets/lv_table.c ****                 cell_area_border.x2 += rect_dsc_def.border_width / 2 + (rect_dsc_def.border_width &
 1489              		.loc 1 688 15 is_stmt 0 view .LVU515
 1490 022a 12F0080F 		tst	r2, #8
ARM GAS  /tmp/ccTYGLnU.s 			page 60


 1491 022e 12D0     		beq	.L50
 688:Middlewares/lvgl/src/widgets/lv_table.c ****                 cell_area_border.x2 += rect_dsc_def.border_width / 2 + (rect_dsc_def.border_width &
 1492              		.loc 1 688 102 discriminator 1 view .LVU516
 1493 0230 B7F91810 		ldrsh	r1, [r7, #24]
 688:Middlewares/lvgl/src/widgets/lv_table.c ****                 cell_area_border.x2 += rect_dsc_def.border_width / 2 + (rect_dsc_def.border_width &
 1494              		.loc 1 688 106 discriminator 1 view .LVU517
 1495 0234 0C98     		ldr	r0, [sp, #48]
 1496 0236 091A     		subs	r1, r1, r0
 688:Middlewares/lvgl/src/widgets/lv_table.c ****                 cell_area_border.x2 += rect_dsc_def.border_width / 2 + (rect_dsc_def.border_width &
 1497              		.loc 1 688 117 discriminator 1 view .LVU518
 1498 0238 0139     		subs	r1, r1, #1
 688:Middlewares/lvgl/src/widgets/lv_table.c ****                 cell_area_border.x2 += rect_dsc_def.border_width / 2 + (rect_dsc_def.border_width &
 1499              		.loc 1 688 66 discriminator 1 view .LVU519
 1500 023a 8C45     		cmp	ip, r1
 1501 023c 0BDA     		bge	.L50
 689:Middlewares/lvgl/src/widgets/lv_table.c ****             }
 1502              		.loc 1 689 17 is_stmt 1 view .LVU520
 689:Middlewares/lvgl/src/widgets/lv_table.c ****             }
 1503              		.loc 1 689 52 is_stmt 0 view .LVU521
 1504 023e BDF93C01 		ldrsh	r0, [sp, #316]
 689:Middlewares/lvgl/src/widgets/lv_table.c ****             }
 1505              		.loc 1 689 99 view .LVU522
 1506 0242 00F00101 		and	r1, r0, #1
 689:Middlewares/lvgl/src/widgets/lv_table.c ****             }
 1507              		.loc 1 689 70 view .LVU523
 1508 0246 00EBD070 		add	r0, r0, r0, lsr #31
 1509 024a 01EB6001 		add	r1, r1, r0, asr #1
 1510 024e 89B2     		uxth	r1, r1
 689:Middlewares/lvgl/src/widgets/lv_table.c ****             }
 1511              		.loc 1 689 37 view .LVU524
 1512 0250 8C44     		add	ip, ip, r1
 1513 0252 ADF858C0 		strh	ip, [sp, #88]	@ movhi
 1514              	.L50:
 691:Middlewares/lvgl/src/widgets/lv_table.c ****                     cell_area_border.y2 < obj->coords.y2 - bg_bottom - 1) {
 1515              		.loc 1 691 13 is_stmt 1 view .LVU525
 691:Middlewares/lvgl/src/widgets/lv_table.c ****                     cell_area_border.y2 < obj->coords.y2 - bg_bottom - 1) {
 1516              		.loc 1 691 15 is_stmt 0 view .LVU526
 1517 0256 12F0010F 		tst	r2, #1
 1518 025a 12D0     		beq	.L51
 692:Middlewares/lvgl/src/widgets/lv_table.c ****                 cell_area_border.y2 += rect_dsc_def.border_width / 2 + (rect_dsc_def.border_width &
 1519              		.loc 1 692 54 discriminator 1 view .LVU527
 1520 025c B7F91A20 		ldrsh	r2, [r7, #26]
 692:Middlewares/lvgl/src/widgets/lv_table.c ****                 cell_area_border.y2 += rect_dsc_def.border_width / 2 + (rect_dsc_def.border_width &
 1521              		.loc 1 692 58 discriminator 1 view .LVU528
 1522 0260 0E99     		ldr	r1, [sp, #56]
 1523 0262 521A     		subs	r2, r2, r1
 692:Middlewares/lvgl/src/widgets/lv_table.c ****                 cell_area_border.y2 += rect_dsc_def.border_width / 2 + (rect_dsc_def.border_width &
 1524              		.loc 1 692 70 discriminator 1 view .LVU529
 1525 0264 013A     		subs	r2, r2, #1
 691:Middlewares/lvgl/src/widgets/lv_table.c ****                     cell_area_border.y2 < obj->coords.y2 - bg_bottom - 1) {
 1526              		.loc 1 691 67 discriminator 1 view .LVU530
 1527 0266 9342     		cmp	r3, r2
 1528 0268 0BDA     		bge	.L51
 693:Middlewares/lvgl/src/widgets/lv_table.c ****             }
 1529              		.loc 1 693 17 is_stmt 1 view .LVU531
 693:Middlewares/lvgl/src/widgets/lv_table.c ****             }
 1530              		.loc 1 693 52 is_stmt 0 view .LVU532
ARM GAS  /tmp/ccTYGLnU.s 			page 61


 1531 026a BDF93C11 		ldrsh	r1, [sp, #316]
 693:Middlewares/lvgl/src/widgets/lv_table.c ****             }
 1532              		.loc 1 693 99 view .LVU533
 1533 026e 01F00102 		and	r2, r1, #1
 693:Middlewares/lvgl/src/widgets/lv_table.c ****             }
 1534              		.loc 1 693 70 view .LVU534
 1535 0272 01EBD171 		add	r1, r1, r1, lsr #31
 1536 0276 02EB6102 		add	r2, r2, r1, asr #1
 1537 027a 92B2     		uxth	r2, r2
 693:Middlewares/lvgl/src/widgets/lv_table.c ****             }
 1538              		.loc 1 693 37 view .LVU535
 1539 027c 1344     		add	r3, r3, r2
 1540 027e ADF85A30 		strh	r3, [sp, #90]	@ movhi
 1541              	.L51:
 696:Middlewares/lvgl/src/widgets/lv_table.c ****             if(row == table->row_act && col == table->col_act) {
 1542              		.loc 1 696 13 is_stmt 1 view .LVU536
 1543              	.LVL158:
 697:Middlewares/lvgl/src/widgets/lv_table.c ****                 if(!(obj->state & LV_STATE_SCROLLED) && (obj->state & LV_STATE_PRESSED)) cell_state
 1544              		.loc 1 697 13 view .LVU537
 697:Middlewares/lvgl/src/widgets/lv_table.c ****                 if(!(obj->state & LV_STATE_SCROLLED) && (obj->state & LV_STATE_PRESSED)) cell_state
 1545              		.loc 1 697 28 is_stmt 0 view .LVU538
 1546 0282 FB8E     		ldrh	r3, [r7, #54]
 697:Middlewares/lvgl/src/widgets/lv_table.c ****                 if(!(obj->state & LV_STATE_SCROLLED) && (obj->state & LV_STATE_PRESSED)) cell_state
 1547              		.loc 1 697 15 view .LVU539
 1548 0284 069A     		ldr	r2, [sp, #24]
 1549 0286 9342     		cmp	r3, r2
 1550 0288 03D1     		bne	.L52
 697:Middlewares/lvgl/src/widgets/lv_table.c ****                 if(!(obj->state & LV_STATE_SCROLLED) && (obj->state & LV_STATE_PRESSED)) cell_state
 1551              		.loc 1 697 53 discriminator 1 view .LVU540
 1552 028a BB8E     		ldrh	r3, [r7, #52]
 697:Middlewares/lvgl/src/widgets/lv_table.c ****                 if(!(obj->state & LV_STATE_SCROLLED) && (obj->state & LV_STATE_PRESSED)) cell_state
 1553              		.loc 1 697 38 discriminator 1 view .LVU541
 1554 028c AB42     		cmp	r3, r5
 1555 028e 00F0B080 		beq	.L71
 1556              	.LVL159:
 1557              	.L52:
 706:Middlewares/lvgl/src/widgets/lv_table.c ****                 lv_memcpy(&label_dsc_act, &label_dsc_def, sizeof(lv_draw_label_dsc_t));
 1558              		.loc 1 706 17 is_stmt 1 view .LVU542
 1559 0292 3422     		movs	r2, #52
 1560 0294 48A9     		add	r1, sp, #288
 1561 0296 3BA8     		add	r0, sp, #236
 1562 0298 FFF7FEFF 		bl	lv_memcpy
 1563              	.LVL160:
 707:Middlewares/lvgl/src/widgets/lv_table.c ****             }
 1564              		.loc 1 707 17 view .LVU543
 1565 029c 2022     		movs	r2, #32
 1566 029e 33A9     		add	r1, sp, #204
 1567 02a0 2BA8     		add	r0, sp, #172
 1568 02a2 FFF7FEFF 		bl	lv_memcpy
 1569              	.LVL161:
 1570              	.L58:
 721:Middlewares/lvgl/src/widgets/lv_table.c ****             dsc.id = row * table->col_cnt + col;
 1571              		.loc 1 721 13 view .LVU544
 721:Middlewares/lvgl/src/widgets/lv_table.c ****             dsc.id = row * table->col_cnt + col;
 1572              		.loc 1 721 27 is_stmt 0 view .LVU545
 1573 02a6 0DF15409 		add	r9, sp, #84
 1574 02aa CDF86890 		str	r9, [sp, #104]
ARM GAS  /tmp/ccTYGLnU.s 			page 62


 722:Middlewares/lvgl/src/widgets/lv_table.c ****             lv_event_send(obj, LV_EVENT_DRAW_PART_BEGIN, &dsc);
 1575              		.loc 1 722 13 is_stmt 1 view .LVU546
 722:Middlewares/lvgl/src/widgets/lv_table.c ****             lv_event_send(obj, LV_EVENT_DRAW_PART_BEGIN, &dsc);
 1576              		.loc 1 722 33 is_stmt 0 view .LVU547
 1577 02ae BB8C     		ldrh	r3, [r7, #36]
 722:Middlewares/lvgl/src/widgets/lv_table.c ****             lv_event_send(obj, LV_EVENT_DRAW_PART_BEGIN, &dsc);
 1578              		.loc 1 722 43 view .LVU548
 1579 02b0 049A     		ldr	r2, [sp, #16]
 1580 02b2 0699     		ldr	r1, [sp, #24]
 1581 02b4 03FB0123 		mla	r3, r3, r1, r2
 722:Middlewares/lvgl/src/widgets/lv_table.c ****             lv_event_send(obj, LV_EVENT_DRAW_PART_BEGIN, &dsc);
 1582              		.loc 1 722 20 view .LVU549
 1583 02b8 2793     		str	r3, [sp, #156]
 723:Middlewares/lvgl/src/widgets/lv_table.c **** 
 1584              		.loc 1 723 13 is_stmt 1 view .LVU550
 1585 02ba 19AA     		add	r2, sp, #100
 1586 02bc 1A21     		movs	r1, #26
 1587 02be 3846     		mov	r0, r7
 1588 02c0 FFF7FEFF 		bl	lv_event_send
 1589              	.LVL162:
 725:Middlewares/lvgl/src/widgets/lv_table.c **** 
 1590              		.loc 1 725 13 view .LVU551
 1591 02c4 3BAA     		add	r2, sp, #236
 1592 02c6 0599     		ldr	r1, [sp, #20]
 1593 02c8 4846     		mov	r0, r9
 1594 02ca FFF7FEFF 		bl	lv_draw_rect
 1595              	.LVL163:
 727:Middlewares/lvgl/src/widgets/lv_table.c ****                 txt_area.x1 = cell_area.x1 + cell_left;
 1596              		.loc 1 727 13 view .LVU552
 727:Middlewares/lvgl/src/widgets/lv_table.c ****                 txt_area.x1 = cell_area.x1 + cell_left;
 1597              		.loc 1 727 21 is_stmt 0 view .LVU553
 1598 02ce B96A     		ldr	r1, [r7, #40]
 727:Middlewares/lvgl/src/widgets/lv_table.c ****                 txt_area.x1 = cell_area.x1 + cell_left;
 1599              		.loc 1 727 32 view .LVU554
 1600 02d0 51F80830 		ldr	r3, [r1, r8]
 727:Middlewares/lvgl/src/widgets/lv_table.c ****                 txt_area.x1 = cell_area.x1 + cell_left;
 1601              		.loc 1 727 15 view .LVU555
 1602 02d4 002B     		cmp	r3, #0
 1603 02d6 52D0     		beq	.L59
 1604              	.LBB147:
 728:Middlewares/lvgl/src/widgets/lv_table.c ****                 txt_area.x2 = cell_area.x2 - cell_right;
 1605              		.loc 1 728 17 is_stmt 1 view .LVU556
 728:Middlewares/lvgl/src/widgets/lv_table.c ****                 txt_area.x2 = cell_area.x2 - cell_right;
 1606              		.loc 1 728 40 is_stmt 0 view .LVU557
 1607 02d8 BDF85C31 		ldrh	r3, [sp, #348]
 728:Middlewares/lvgl/src/widgets/lv_table.c ****                 txt_area.x2 = cell_area.x2 - cell_right;
 1608              		.loc 1 728 44 view .LVU558
 1609 02dc 0A9A     		ldr	r2, [sp, #40]
 1610 02de 1344     		add	r3, r3, r2
 1611 02e0 98B2     		uxth	r0, r3
 728:Middlewares/lvgl/src/widgets/lv_table.c ****                 txt_area.x2 = cell_area.x2 - cell_right;
 1612              		.loc 1 728 29 view .LVU559
 1613 02e2 ADF85431 		strh	r3, [sp, #340]	@ movhi
 729:Middlewares/lvgl/src/widgets/lv_table.c ****                 txt_area.y1 = cell_area.y1 + cell_top;
 1614              		.loc 1 729 17 is_stmt 1 view .LVU560
 729:Middlewares/lvgl/src/widgets/lv_table.c ****                 txt_area.y1 = cell_area.y1 + cell_top;
 1615              		.loc 1 729 40 is_stmt 0 view .LVU561
ARM GAS  /tmp/ccTYGLnU.s 			page 63


 1616 02e6 BDF86021 		ldrh	r2, [sp, #352]
 729:Middlewares/lvgl/src/widgets/lv_table.c ****                 txt_area.y1 = cell_area.y1 + cell_top;
 1617              		.loc 1 729 44 view .LVU562
 1618 02ea 099B     		ldr	r3, [sp, #36]
 1619 02ec D21A     		subs	r2, r2, r3
 1620 02ee 1FFA82FC 		uxth	ip, r2
 729:Middlewares/lvgl/src/widgets/lv_table.c ****                 txt_area.y1 = cell_area.y1 + cell_top;
 1621              		.loc 1 729 29 view .LVU563
 1622 02f2 ADF85821 		strh	r2, [sp, #344]	@ movhi
 730:Middlewares/lvgl/src/widgets/lv_table.c ****                 txt_area.y2 = cell_area.y2 - cell_bottom;
 1623              		.loc 1 730 17 is_stmt 1 view .LVU564
 730:Middlewares/lvgl/src/widgets/lv_table.c ****                 txt_area.y2 = cell_area.y2 - cell_bottom;
 1624              		.loc 1 730 40 is_stmt 0 view .LVU565
 1625 02f6 BDF85E21 		ldrh	r2, [sp, #350]
 730:Middlewares/lvgl/src/widgets/lv_table.c ****                 txt_area.y2 = cell_area.y2 - cell_bottom;
 1626              		.loc 1 730 44 view .LVU566
 1627 02fa 089B     		ldr	r3, [sp, #32]
 1628 02fc 1A44     		add	r2, r2, r3
 730:Middlewares/lvgl/src/widgets/lv_table.c ****                 txt_area.y2 = cell_area.y2 - cell_bottom;
 1629              		.loc 1 730 29 view .LVU567
 1630 02fe ADF85621 		strh	r2, [sp, #342]	@ movhi
 731:Middlewares/lvgl/src/widgets/lv_table.c **** 
 1631              		.loc 1 731 17 is_stmt 1 view .LVU568
 731:Middlewares/lvgl/src/widgets/lv_table.c **** 
 1632              		.loc 1 731 40 is_stmt 0 view .LVU569
 1633 0302 BDF86221 		ldrh	r2, [sp, #354]
 731:Middlewares/lvgl/src/widgets/lv_table.c **** 
 1634              		.loc 1 731 44 view .LVU570
 1635 0306 079B     		ldr	r3, [sp, #28]
 1636 0308 D21A     		subs	r2, r2, r3
 731:Middlewares/lvgl/src/widgets/lv_table.c **** 
 1637              		.loc 1 731 29 view .LVU571
 1638 030a ADF85A21 		strh	r2, [sp, #346]	@ movhi
 734:Middlewares/lvgl/src/widgets/lv_table.c ****                 if(crop) txt_flags = LV_TEXT_FLAG_EXPAND;
 1639              		.loc 1 734 17 is_stmt 1 view .LVU572
 734:Middlewares/lvgl/src/widgets/lv_table.c ****                 if(crop) txt_flags = LV_TEXT_FLAG_EXPAND;
 1640              		.loc 1 734 72 is_stmt 0 view .LVU573
 1641 030e C6F34009 		ubfx	r9, r6, #1, #1
 1642              	.LVL164:
 735:Middlewares/lvgl/src/widgets/lv_table.c ****                 else txt_flags = LV_TEXT_FLAG_NONE;
 1643              		.loc 1 735 17 is_stmt 1 view .LVU574
 735:Middlewares/lvgl/src/widgets/lv_table.c ****                 else txt_flags = LV_TEXT_FLAG_NONE;
 1644              		.loc 1 735 19 is_stmt 0 view .LVU575
 1645 0312 16F0020F 		tst	r6, #2
 1646 0316 00F0A680 		beq	.L67
 735:Middlewares/lvgl/src/widgets/lv_table.c ****                 else txt_flags = LV_TEXT_FLAG_NONE;
 1647              		.loc 1 735 36 view .LVU576
 1648 031a 0222     		movs	r2, #2
 1649              	.L60:
 1650              	.LVL165:
 738:Middlewares/lvgl/src/widgets/lv_table.c ****                         label_dsc_act.letter_space, label_dsc_act.line_space,
 1651              		.loc 1 738 17 is_stmt 1 view .LVU577
 738:Middlewares/lvgl/src/widgets/lv_table.c ****                         label_dsc_act.letter_space, label_dsc_act.line_space,
 1652              		.loc 1 738 60 is_stmt 0 view .LVU578
 1653 031c 51F80810 		ldr	r1, [r1, r8]
 1654              	.LVL166:
 1655              	.LBB148:
ARM GAS  /tmp/ccTYGLnU.s 			page 64


 1656              	.LBI148:
 126:Middlewares/lvgl/src/widgets/../core/../misc/../font/../misc/lv_area.h **** }
 127:Middlewares/lvgl/src/widgets/../core/../misc/../font/../misc/lv_area.h **** 
 128:Middlewares/lvgl/src/widgets/../core/../misc/../font/../misc/lv_area.h **** /**
 129:Middlewares/lvgl/src/widgets/../core/../misc/../font/../misc/lv_area.h ****  * Get the width of an area
 130:Middlewares/lvgl/src/widgets/../core/../misc/../font/../misc/lv_area.h ****  * @param area_p pointer to an area
 131:Middlewares/lvgl/src/widgets/../core/../misc/../font/../misc/lv_area.h ****  * @return the width of the area (if x1 == x2 -> width = 1)
 132:Middlewares/lvgl/src/widgets/../core/../misc/../font/../misc/lv_area.h ****  */
 133:Middlewares/lvgl/src/widgets/../core/../misc/../font/../misc/lv_area.h **** static inline lv_coord_t lv_area_get_width(const lv_area_t * area_p)
 1657              		.loc 4 133 26 is_stmt 1 view .LVU579
 1658              	.LBB149:
 134:Middlewares/lvgl/src/widgets/../core/../misc/../font/../misc/lv_area.h **** {
 135:Middlewares/lvgl/src/widgets/../core/../misc/../font/../misc/lv_area.h ****     return (lv_coord_t)(area_p->x2 - area_p->x1 + 1);
 1659              		.loc 4 135 5 view .LVU580
 1660              		.loc 4 135 36 is_stmt 0 view .LVU581
 1661 0320 ACEB0003 		sub	r3, ip, r0
 1662 0324 9BB2     		uxth	r3, r3
 1663              		.loc 4 135 49 view .LVU582
 1664 0326 0133     		adds	r3, r3, #1
 1665              		.loc 4 135 12 view .LVU583
 1666 0328 1BB2     		sxth	r3, r3
 1667              	.LVL167:
 1668              		.loc 4 135 12 view .LVU584
 1669              	.LBE149:
 1670              	.LBE148:
 738:Middlewares/lvgl/src/widgets/lv_table.c ****                         label_dsc_act.letter_space, label_dsc_act.line_space,
 1671              		.loc 1 738 17 view .LVU585
 1672 032a 0292     		str	r2, [sp, #8]
 1673 032c 0193     		str	r3, [sp, #4]
 1674 032e BDF9BE30 		ldrsh	r3, [sp, #190]
 1675 0332 0093     		str	r3, [sp]
 1676 0334 BDF9C030 		ldrsh	r3, [sp, #192]
 1677 0338 339A     		ldr	r2, [sp, #204]
 1678              	.LVL168:
 738:Middlewares/lvgl/src/widgets/lv_table.c ****                         label_dsc_act.letter_space, label_dsc_act.line_space,
 1679              		.loc 1 738 17 view .LVU586
 1680 033a 0131     		adds	r1, r1, #1
 1681 033c 59A8     		add	r0, sp, #356
 1682 033e FFF7FEFF 		bl	lv_txt_get_size
 1683              	.LVL169:
 743:Middlewares/lvgl/src/widgets/lv_table.c ****                     txt_area.y1 = cell_area.y1 + h_row / 2 - txt_size.y / 2;
 1684              		.loc 1 743 17 is_stmt 1 view .LVU587
 743:Middlewares/lvgl/src/widgets/lv_table.c ****                     txt_area.y1 = cell_area.y1 + h_row / 2 - txt_size.y / 2;
 1685              		.loc 1 743 19 is_stmt 0 view .LVU588
 1686 0342 B9F1000F 		cmp	r9, #0
 1687 0346 13D1     		bne	.L61
 744:Middlewares/lvgl/src/widgets/lv_table.c ****                     txt_area.y2 = cell_area.y1 + h_row / 2 + txt_size.y / 2;
 1688              		.loc 1 744 21 is_stmt 1 view .LVU589
 744:Middlewares/lvgl/src/widgets/lv_table.c ****                     txt_area.y2 = cell_area.y1 + h_row / 2 + txt_size.y / 2;
 1689              		.loc 1 744 44 is_stmt 0 view .LVU590
 1690 0348 BDF85E31 		ldrh	r3, [sp, #350]
 744:Middlewares/lvgl/src/widgets/lv_table.c ****                     txt_area.y2 = cell_area.y1 + h_row / 2 + txt_size.y / 2;
 1691              		.loc 1 744 48 view .LVU591
 1692 034c 0B9A     		ldr	r2, [sp, #44]
 1693 034e 02EBD272 		add	r2, r2, r2, lsr #31
 1694 0352 03EB6203 		add	r3, r3, r2, asr #1
 1695 0356 9BB2     		uxth	r3, r3
ARM GAS  /tmp/ccTYGLnU.s 			page 65


 744:Middlewares/lvgl/src/widgets/lv_table.c ****                     txt_area.y2 = cell_area.y1 + h_row / 2 + txt_size.y / 2;
 1696              		.loc 1 744 70 view .LVU592
 1697 0358 BDF96621 		ldrsh	r2, [sp, #358]
 744:Middlewares/lvgl/src/widgets/lv_table.c ****                     txt_area.y2 = cell_area.y1 + h_row / 2 + txt_size.y / 2;
 1698              		.loc 1 744 60 view .LVU593
 1699 035c 02EBD272 		add	r2, r2, r2, lsr #31
 1700 0360 C2F34F02 		ubfx	r2, r2, #1, #16
 1701 0364 991A     		subs	r1, r3, r2
 744:Middlewares/lvgl/src/widgets/lv_table.c ****                     txt_area.y2 = cell_area.y1 + h_row / 2 + txt_size.y / 2;
 1702              		.loc 1 744 33 view .LVU594
 1703 0366 ADF85611 		strh	r1, [sp, #342]	@ movhi
 745:Middlewares/lvgl/src/widgets/lv_table.c ****                 }
 1704              		.loc 1 745 21 is_stmt 1 view .LVU595
 745:Middlewares/lvgl/src/widgets/lv_table.c ****                 }
 1705              		.loc 1 745 60 is_stmt 0 view .LVU596
 1706 036a 1344     		add	r3, r3, r2
 745:Middlewares/lvgl/src/widgets/lv_table.c ****                 }
 1707              		.loc 1 745 33 view .LVU597
 1708 036c ADF85A31 		strh	r3, [sp, #346]	@ movhi
 1709              	.L61:
 748:Middlewares/lvgl/src/widgets/lv_table.c ****                 bool label_mask_ok;
 1710              		.loc 1 748 17 is_stmt 1 view .LVU598
 749:Middlewares/lvgl/src/widgets/lv_table.c ****                 label_mask_ok = _lv_area_intersect(&label_mask, clip_area, &cell_area);
 1711              		.loc 1 749 17 view .LVU599
 750:Middlewares/lvgl/src/widgets/lv_table.c ****                 if(label_mask_ok) {
 1712              		.loc 1 750 17 view .LVU600
 750:Middlewares/lvgl/src/widgets/lv_table.c ****                 if(label_mask_ok) {
 1713              		.loc 1 750 33 is_stmt 0 view .LVU601
 1714 0370 57AA     		add	r2, sp, #348
 1715 0372 0599     		ldr	r1, [sp, #20]
 1716 0374 17A8     		add	r0, sp, #92
 1717 0376 FFF7FEFF 		bl	_lv_area_intersect
 1718              	.LVL170:
 751:Middlewares/lvgl/src/widgets/lv_table.c ****                     lv_draw_label(&txt_area, &label_mask, &label_dsc_act, table->cell_data[cell] + 
 1719              		.loc 1 751 17 is_stmt 1 view .LVU602
 751:Middlewares/lvgl/src/widgets/lv_table.c ****                     lv_draw_label(&txt_area, &label_mask, &label_dsc_act, table->cell_data[cell] + 
 1720              		.loc 1 751 19 is_stmt 0 view .LVU603
 1721 037a 0028     		cmp	r0, #0
 1722 037c 75D1     		bne	.L72
 1723              	.LVL171:
 1724              	.L59:
 751:Middlewares/lvgl/src/widgets/lv_table.c ****                     lv_draw_label(&txt_area, &label_mask, &label_dsc_act, table->cell_data[cell] + 
 1725              		.loc 1 751 19 view .LVU604
 1726              	.LBE147:
 756:Middlewares/lvgl/src/widgets/lv_table.c **** 
 1727              		.loc 1 756 13 is_stmt 1 discriminator 1 view .LVU605
 1728 037e 19AA     		add	r2, sp, #100
 1729 0380 1B21     		movs	r1, #27
 1730 0382 3846     		mov	r0, r7
 1731 0384 FFF7FEFF 		bl	lv_event_send
 1732              	.LVL172:
 758:Middlewares/lvgl/src/widgets/lv_table.c ****             col += col_merge;
 1733              		.loc 1 758 13 discriminator 1 view .LVU606
 758:Middlewares/lvgl/src/widgets/lv_table.c ****             col += col_merge;
 1734              		.loc 1 758 18 is_stmt 0 discriminator 1 view .LVU607
 1735 0388 A244     		add	r10, r10, r4
 1736              	.LVL173:
ARM GAS  /tmp/ccTYGLnU.s 			page 66


 758:Middlewares/lvgl/src/widgets/lv_table.c ****             col += col_merge;
 1737              		.loc 1 758 18 discriminator 1 view .LVU608
 1738 038a 1FFA8AFA 		uxth	r10, r10
 1739 038e 0AF1010A 		add	r10, r10, #1
 1740 0392 1FFA8AFA 		uxth	r10, r10
 1741              	.LVL174:
 759:Middlewares/lvgl/src/widgets/lv_table.c ****         }
 1742              		.loc 1 759 13 is_stmt 1 discriminator 1 view .LVU609
 759:Middlewares/lvgl/src/widgets/lv_table.c ****         }
 1743              		.loc 1 759 17 is_stmt 0 discriminator 1 view .LVU610
 1744 0396 2544     		add	r5, r5, r4
 1745              	.LVL175:
 759:Middlewares/lvgl/src/widgets/lv_table.c ****         }
 1746              		.loc 1 759 17 discriminator 1 view .LVU611
 1747 0398 ADB2     		uxth	r5, r5
 1748              	.LVL176:
 1749              	.L47:
 759:Middlewares/lvgl/src/widgets/lv_table.c ****         }
 1750              		.loc 1 759 17 discriminator 1 view .LVU612
 1751              	.LBE142:
 643:Middlewares/lvgl/src/widgets/lv_table.c ****             lv_table_cell_ctrl_t ctrl = 0;
 1752              		.loc 1 643 44 is_stmt 1 discriminator 2 view .LVU613
 643:Middlewares/lvgl/src/widgets/lv_table.c ****             lv_table_cell_ctrl_t ctrl = 0;
 1753              		.loc 1 643 47 is_stmt 0 discriminator 2 view .LVU614
 1754 039a 0135     		adds	r5, r5, #1
 1755              	.LVL177:
 643:Middlewares/lvgl/src/widgets/lv_table.c ****             lv_table_cell_ctrl_t ctrl = 0;
 1756              		.loc 1 643 47 discriminator 2 view .LVU615
 1757 039c ADB2     		uxth	r5, r5
 1758              	.LVL178:
 1759              	.L63:
 643:Middlewares/lvgl/src/widgets/lv_table.c ****             lv_table_cell_ctrl_t ctrl = 0;
 1760              		.loc 1 643 22 is_stmt 1 discriminator 1 view .LVU616
 643:Middlewares/lvgl/src/widgets/lv_table.c ****             lv_table_cell_ctrl_t ctrl = 0;
 1761              		.loc 1 643 33 is_stmt 0 discriminator 1 view .LVU617
 1762 039e B98C     		ldrh	r1, [r7, #36]
 643:Middlewares/lvgl/src/widgets/lv_table.c ****             lv_table_cell_ctrl_t ctrl = 0;
 1763              		.loc 1 643 9 discriminator 1 view .LVU618
 1764 03a0 A942     		cmp	r1, r5
 1765 03a2 6ED9     		bls	.L73
 1766              	.LBB152:
 644:Middlewares/lvgl/src/widgets/lv_table.c ****             if(table->cell_data[cell]) ctrl = table->cell_data[cell][0];
 1767              		.loc 1 644 13 is_stmt 1 view .LVU619
 1768              	.LVL179:
 645:Middlewares/lvgl/src/widgets/lv_table.c **** 
 1769              		.loc 1 645 13 view .LVU620
 645:Middlewares/lvgl/src/widgets/lv_table.c **** 
 1770              		.loc 1 645 21 is_stmt 0 view .LVU621
 1771 03a4 B86A     		ldr	r0, [r7, #40]
 645:Middlewares/lvgl/src/widgets/lv_table.c **** 
 1772              		.loc 1 645 32 view .LVU622
 1773 03a6 4FEA8A08 		lsl	r8, r10, #2
 1774 03aa 50F82A30 		ldr	r3, [r0, r10, lsl #2]
 645:Middlewares/lvgl/src/widgets/lv_table.c **** 
 1775              		.loc 1 645 15 view .LVU623
 1776 03ae 002B     		cmp	r3, #0
 1777 03b0 3FF4C6AE 		beq	.L66
ARM GAS  /tmp/ccTYGLnU.s 			page 67


 645:Middlewares/lvgl/src/widgets/lv_table.c **** 
 1778              		.loc 1 645 40 is_stmt 1 discriminator 1 view .LVU624
 645:Middlewares/lvgl/src/widgets/lv_table.c **** 
 1779              		.loc 1 645 45 is_stmt 0 discriminator 1 view .LVU625
 1780 03b4 1E78     		ldrb	r6, [r3]	@ zero_extendqisi2
 1781              	.LVL180:
 1782              	.L38:
 647:Middlewares/lvgl/src/widgets/lv_table.c ****                 cell_area.x2 = cell_area.x1 - 1;
 1783              		.loc 1 647 13 is_stmt 1 view .LVU626
 647:Middlewares/lvgl/src/widgets/lv_table.c ****                 cell_area.x2 = cell_area.x1 - 1;
 1784              		.loc 1 647 15 is_stmt 0 view .LVU627
 1785 03b6 BBF1010F 		cmp	fp, #1
 1786 03ba 3FF4C3AE 		beq	.L74
 652:Middlewares/lvgl/src/widgets/lv_table.c ****                 cell_area.x2 = cell_area.x1 + table->col_w[col] - 1;
 1787              		.loc 1 652 17 is_stmt 1 view .LVU628
 652:Middlewares/lvgl/src/widgets/lv_table.c ****                 cell_area.x2 = cell_area.x1 + table->col_w[col] - 1;
 1788              		.loc 1 652 41 is_stmt 0 view .LVU629
 1789 03be BDF86021 		ldrh	r2, [sp, #352]
 652:Middlewares/lvgl/src/widgets/lv_table.c ****                 cell_area.x2 = cell_area.x1 + table->col_w[col] - 1;
 1790              		.loc 1 652 45 view .LVU630
 1791 03c2 0132     		adds	r2, r2, #1
 1792 03c4 93B2     		uxth	r3, r2
 652:Middlewares/lvgl/src/widgets/lv_table.c ****                 cell_area.x2 = cell_area.x1 + table->col_w[col] - 1;
 1793              		.loc 1 652 30 view .LVU631
 1794 03c6 ADF85C21 		strh	r2, [sp, #348]	@ movhi
 653:Middlewares/lvgl/src/widgets/lv_table.c ****             }
 1795              		.loc 1 653 17 is_stmt 1 view .LVU632
 653:Middlewares/lvgl/src/widgets/lv_table.c ****             }
 1796              		.loc 1 653 52 is_stmt 0 view .LVU633
 1797 03ca 3A6B     		ldr	r2, [r7, #48]
 653:Middlewares/lvgl/src/widgets/lv_table.c ****             }
 1798              		.loc 1 653 59 view .LVU634
 1799 03cc 32F81520 		ldrh	r2, [r2, r5, lsl #1]
 653:Middlewares/lvgl/src/widgets/lv_table.c ****             }
 1800              		.loc 1 653 45 view .LVU635
 1801 03d0 1344     		add	r3, r3, r2
 1802 03d2 9BB2     		uxth	r3, r3
 653:Middlewares/lvgl/src/widgets/lv_table.c ****             }
 1803              		.loc 1 653 65 view .LVU636
 1804 03d4 013B     		subs	r3, r3, #1
 653:Middlewares/lvgl/src/widgets/lv_table.c ****             }
 1805              		.loc 1 653 30 view .LVU637
 1806 03d6 ADF86031 		strh	r3, [sp, #352]	@ movhi
 1807              	.L40:
 644:Middlewares/lvgl/src/widgets/lv_table.c ****             if(table->cell_data[cell]) ctrl = table->cell_data[cell][0];
 1808              		.loc 1 644 34 discriminator 1 view .LVU638
 1809 03da 0024     		movs	r4, #0
 1810 03dc CCE6     		b	.L44
 1811              	.LVL181:
 1812              	.L70:
 674:Middlewares/lvgl/src/widgets/lv_table.c ****                 col += col_merge;
 1813              		.loc 1 674 17 is_stmt 1 view .LVU639
 674:Middlewares/lvgl/src/widgets/lv_table.c ****                 col += col_merge;
 1814              		.loc 1 674 22 is_stmt 0 view .LVU640
 1815 03de A244     		add	r10, r10, r4
 1816              	.LVL182:
 674:Middlewares/lvgl/src/widgets/lv_table.c ****                 col += col_merge;
ARM GAS  /tmp/ccTYGLnU.s 			page 68


 1817              		.loc 1 674 22 view .LVU641
 1818 03e0 1FFA8AFA 		uxth	r10, r10
 1819 03e4 0AF1010A 		add	r10, r10, #1
 1820 03e8 1FFA8AFA 		uxth	r10, r10
 1821              	.LVL183:
 675:Middlewares/lvgl/src/widgets/lv_table.c ****                 continue;
 1822              		.loc 1 675 17 is_stmt 1 view .LVU642
 675:Middlewares/lvgl/src/widgets/lv_table.c ****                 continue;
 1823              		.loc 1 675 21 is_stmt 0 view .LVU643
 1824 03ec 2544     		add	r5, r5, r4
 1825              	.LVL184:
 675:Middlewares/lvgl/src/widgets/lv_table.c ****                 continue;
 1826              		.loc 1 675 21 view .LVU644
 1827 03ee ADB2     		uxth	r5, r5
 1828              	.LVL185:
 676:Middlewares/lvgl/src/widgets/lv_table.c ****             }
 1829              		.loc 1 676 17 is_stmt 1 view .LVU645
 1830 03f0 D3E7     		b	.L47
 1831              	.LVL186:
 1832              	.L71:
 698:Middlewares/lvgl/src/widgets/lv_table.c ****                 if(obj->state & LV_STATE_FOCUSED) cell_state |= LV_STATE_FOCUSED;
 1833              		.loc 1 698 17 view .LVU646
 698:Middlewares/lvgl/src/widgets/lv_table.c ****                 if(obj->state & LV_STATE_FOCUSED) cell_state |= LV_STATE_FOCUSED;
 1834              		.loc 1 698 25 is_stmt 0 view .LVU647
 1835 03f2 3A8C     		ldrh	r2, [r7, #32]
 1836 03f4 02F06003 		and	r3, r2, #96
 698:Middlewares/lvgl/src/widgets/lv_table.c ****                 if(obj->state & LV_STATE_FOCUSED) cell_state |= LV_STATE_FOCUSED;
 1837              		.loc 1 698 19 view .LVU648
 1838 03f8 202B     		cmp	r3, #32
 1839 03fa 00D0     		beq	.L53
 696:Middlewares/lvgl/src/widgets/lv_table.c ****             if(row == table->row_act && col == table->col_act) {
 1840              		.loc 1 696 24 view .LVU649
 1841 03fc 0023     		movs	r3, #0
 1842              	.L53:
 1843              	.LVL187:
 699:Middlewares/lvgl/src/widgets/lv_table.c ****                 if(obj->state & LV_STATE_FOCUS_KEY) cell_state |= LV_STATE_FOCUS_KEY;
 1844              		.loc 1 699 17 is_stmt 1 view .LVU650
 699:Middlewares/lvgl/src/widgets/lv_table.c ****                 if(obj->state & LV_STATE_FOCUS_KEY) cell_state |= LV_STATE_FOCUS_KEY;
 1845              		.loc 1 699 19 is_stmt 0 view .LVU651
 1846 03fe 12F0020F 		tst	r2, #2
 1847 0402 01D0     		beq	.L54
 699:Middlewares/lvgl/src/widgets/lv_table.c ****                 if(obj->state & LV_STATE_FOCUS_KEY) cell_state |= LV_STATE_FOCUS_KEY;
 1848              		.loc 1 699 51 is_stmt 1 discriminator 1 view .LVU652
 699:Middlewares/lvgl/src/widgets/lv_table.c ****                 if(obj->state & LV_STATE_FOCUS_KEY) cell_state |= LV_STATE_FOCUS_KEY;
 1849              		.loc 1 699 62 is_stmt 0 discriminator 1 view .LVU653
 1850 0404 43F00203 		orr	r3, r3, #2
 1851              	.LVL188:
 1852              	.L54:
 700:Middlewares/lvgl/src/widgets/lv_table.c ****                 if(obj->state & LV_STATE_EDITED) cell_state |= LV_STATE_EDITED;
 1853              		.loc 1 700 17 is_stmt 1 view .LVU654
 700:Middlewares/lvgl/src/widgets/lv_table.c ****                 if(obj->state & LV_STATE_EDITED) cell_state |= LV_STATE_EDITED;
 1854              		.loc 1 700 19 is_stmt 0 view .LVU655
 1855 0408 12F0040F 		tst	r2, #4
 1856 040c 01D0     		beq	.L55
 700:Middlewares/lvgl/src/widgets/lv_table.c ****                 if(obj->state & LV_STATE_EDITED) cell_state |= LV_STATE_EDITED;
 1857              		.loc 1 700 53 is_stmt 1 discriminator 1 view .LVU656
 700:Middlewares/lvgl/src/widgets/lv_table.c ****                 if(obj->state & LV_STATE_EDITED) cell_state |= LV_STATE_EDITED;
ARM GAS  /tmp/ccTYGLnU.s 			page 69


 1858              		.loc 1 700 64 is_stmt 0 discriminator 1 view .LVU657
 1859 040e 43F00403 		orr	r3, r3, #4
 1860              	.LVL189:
 1861              	.L55:
 701:Middlewares/lvgl/src/widgets/lv_table.c ****             }
 1862              		.loc 1 701 17 is_stmt 1 view .LVU658
 701:Middlewares/lvgl/src/widgets/lv_table.c ****             }
 1863              		.loc 1 701 19 is_stmt 0 view .LVU659
 1864 0412 12F0080F 		tst	r2, #8
 1865 0416 01D0     		beq	.L56
 701:Middlewares/lvgl/src/widgets/lv_table.c ****             }
 1866              		.loc 1 701 50 is_stmt 1 discriminator 1 view .LVU660
 701:Middlewares/lvgl/src/widgets/lv_table.c ****             }
 1867              		.loc 1 701 61 is_stmt 0 discriminator 1 view .LVU661
 1868 0418 43F00803 		orr	r3, r3, #8
 1869              	.LVL190:
 1870              	.L56:
 705:Middlewares/lvgl/src/widgets/lv_table.c ****                 lv_memcpy(&rect_dsc_act, &rect_dsc_def, sizeof(lv_draw_rect_dsc_t));
 1871              		.loc 1 705 13 is_stmt 1 view .LVU662
 705:Middlewares/lvgl/src/widgets/lv_table.c ****                 lv_memcpy(&rect_dsc_act, &rect_dsc_def, sizeof(lv_draw_rect_dsc_t));
 1872              		.loc 1 705 15 is_stmt 0 view .LVU663
 1873 041c 002B     		cmp	r3, #0
 1874 041e 3FF438AF 		beq	.L52
 711:Middlewares/lvgl/src/widgets/lv_table.c ****                 obj->skip_trans = 1;
 1875              		.loc 1 711 17 is_stmt 1 view .LVU664
 711:Middlewares/lvgl/src/widgets/lv_table.c ****                 obj->skip_trans = 1;
 1876              		.loc 1 711 28 is_stmt 0 view .LVU665
 1877 0422 3B84     		strh	r3, [r7, #32]	@ movhi
 712:Middlewares/lvgl/src/widgets/lv_table.c ****                 lv_draw_rect_dsc_init(&rect_dsc_act);
 1878              		.loc 1 712 17 is_stmt 1 view .LVU666
 712:Middlewares/lvgl/src/widgets/lv_table.c ****                 lv_draw_rect_dsc_init(&rect_dsc_act);
 1879              		.loc 1 712 33 is_stmt 0 view .LVU667
 1880 0424 97F82230 		ldrb	r3, [r7, #34]	@ zero_extendqisi2
 1881              	.LVL191:
 712:Middlewares/lvgl/src/widgets/lv_table.c ****                 lv_draw_rect_dsc_init(&rect_dsc_act);
 1882              		.loc 1 712 33 view .LVU668
 1883 0428 43F00403 		orr	r3, r3, #4
 1884 042c 87F82230 		strb	r3, [r7, #34]
 713:Middlewares/lvgl/src/widgets/lv_table.c ****                 lv_draw_label_dsc_init(&label_dsc_act);
 1885              		.loc 1 713 17 is_stmt 1 view .LVU669
 1886 0430 3BA8     		add	r0, sp, #236
 1887 0432 FFF7FEFF 		bl	lv_draw_rect_dsc_init
 1888              	.LVL192:
 714:Middlewares/lvgl/src/widgets/lv_table.c ****                 lv_obj_init_draw_rect_dsc(obj, LV_PART_ITEMS, &rect_dsc_act);
 1889              		.loc 1 714 17 view .LVU670
 1890 0436 2BA8     		add	r0, sp, #172
 1891 0438 FFF7FEFF 		bl	lv_draw_label_dsc_init
 1892              	.LVL193:
 715:Middlewares/lvgl/src/widgets/lv_table.c ****                 lv_obj_init_draw_label_dsc(obj, LV_PART_ITEMS, &label_dsc_act);
 1893              		.loc 1 715 17 view .LVU671
 1894 043c 3BAA     		add	r2, sp, #236
 1895 043e 4FF4A021 		mov	r1, #327680
 1896 0442 3846     		mov	r0, r7
 1897 0444 FFF7FEFF 		bl	lv_obj_init_draw_rect_dsc
 1898              	.LVL194:
 716:Middlewares/lvgl/src/widgets/lv_table.c ****                 obj->state = state_ori;
 1899              		.loc 1 716 17 view .LVU672
ARM GAS  /tmp/ccTYGLnU.s 			page 70


 1900 0448 2BAA     		add	r2, sp, #172
 1901 044a 4FF4A021 		mov	r1, #327680
 1902 044e 3846     		mov	r0, r7
 1903 0450 FFF7FEFF 		bl	lv_obj_init_draw_label_dsc
 1904              	.LVL195:
 717:Middlewares/lvgl/src/widgets/lv_table.c ****                 obj->skip_trans = 0;
 1905              		.loc 1 717 17 view .LVU673
 717:Middlewares/lvgl/src/widgets/lv_table.c ****                 obj->skip_trans = 0;
 1906              		.loc 1 717 28 is_stmt 0 view .LVU674
 1907 0454 129B     		ldr	r3, [sp, #72]
 1908 0456 3B84     		strh	r3, [r7, #32]	@ movhi
 718:Middlewares/lvgl/src/widgets/lv_table.c ****             }
 1909              		.loc 1 718 17 is_stmt 1 view .LVU675
 718:Middlewares/lvgl/src/widgets/lv_table.c ****             }
 1910              		.loc 1 718 33 is_stmt 0 view .LVU676
 1911 0458 97F82230 		ldrb	r3, [r7, #34]	@ zero_extendqisi2
 1912 045c 6FF38203 		bfc	r3, #2, #1
 1913 0460 87F82230 		strb	r3, [r7, #34]
 1914 0464 1FE7     		b	.L58
 1915              	.LVL196:
 1916              	.L67:
 1917              	.LBB150:
 736:Middlewares/lvgl/src/widgets/lv_table.c **** 
 1918              		.loc 1 736 32 view .LVU677
 1919 0466 0022     		movs	r2, #0
 1920 0468 58E7     		b	.L60
 1921              	.LVL197:
 1922              	.L72:
 752:Middlewares/lvgl/src/widgets/lv_table.c ****                 }
 1923              		.loc 1 752 21 is_stmt 1 view .LVU678
 752:Middlewares/lvgl/src/widgets/lv_table.c ****                 }
 1924              		.loc 1 752 80 is_stmt 0 view .LVU679
 1925 046a BB6A     		ldr	r3, [r7, #40]
 752:Middlewares/lvgl/src/widgets/lv_table.c ****                 }
 1926              		.loc 1 752 91 view .LVU680
 1927 046c 53F80830 		ldr	r3, [r3, r8]
 752:Middlewares/lvgl/src/widgets/lv_table.c ****                 }
 1928              		.loc 1 752 21 view .LVU681
 1929 0470 0022     		movs	r2, #0
 1930 0472 0092     		str	r2, [sp]
 1931 0474 0133     		adds	r3, r3, #1
 1932 0476 2BAA     		add	r2, sp, #172
 1933 0478 17A9     		add	r1, sp, #92
 1934 047a 55A8     		add	r0, sp, #340
 1935              	.LVL198:
 752:Middlewares/lvgl/src/widgets/lv_table.c ****                 }
 1936              		.loc 1 752 21 view .LVU682
 1937 047c FFF7FEFF 		bl	lv_draw_label
 1938              	.LVL199:
 1939 0480 7DE7     		b	.L59
 1940              	.LVL200:
 1941              	.L73:
 752:Middlewares/lvgl/src/widgets/lv_table.c ****                 }
 1942              		.loc 1 752 21 view .LVU683
 1943              	.LBE150:
 1944              	.LBE152:
 1945              	.LBE141:
ARM GAS  /tmp/ccTYGLnU.s 			page 71


 632:Middlewares/lvgl/src/widgets/lv_table.c ****         lv_coord_t h_row = table->row_h[row];
 1946              		.loc 1 632 40 is_stmt 1 discriminator 2 view .LVU684
 632:Middlewares/lvgl/src/widgets/lv_table.c ****         lv_coord_t h_row = table->row_h[row];
 1947              		.loc 1 632 43 is_stmt 0 discriminator 2 view .LVU685
 1948 0482 069B     		ldr	r3, [sp, #24]
 1949 0484 0133     		adds	r3, r3, #1
 1950 0486 9BB2     		uxth	r3, r3
 1951 0488 0693     		str	r3, [sp, #24]
 1952              	.LVL201:
 1953              	.L33:
 632:Middlewares/lvgl/src/widgets/lv_table.c ****         lv_coord_t h_row = table->row_h[row];
 1954              		.loc 1 632 18 is_stmt 1 discriminator 1 view .LVU686
 632:Middlewares/lvgl/src/widgets/lv_table.c ****         lv_coord_t h_row = table->row_h[row];
 1955              		.loc 1 632 29 is_stmt 0 discriminator 1 view .LVU687
 1956 048a FB8C     		ldrh	r3, [r7, #38]
 632:Middlewares/lvgl/src/widgets/lv_table.c ****         lv_coord_t h_row = table->row_h[row];
 1957              		.loc 1 632 5 discriminator 1 view .LVU688
 1958 048c 069A     		ldr	r2, [sp, #24]
 1959 048e 9342     		cmp	r3, r2
 1960 0490 24D9     		bls	.L32
 1961              	.LBB154:
 633:Middlewares/lvgl/src/widgets/lv_table.c **** 
 1962              		.loc 1 633 9 is_stmt 1 view .LVU689
 633:Middlewares/lvgl/src/widgets/lv_table.c **** 
 1963              		.loc 1 633 33 is_stmt 0 view .LVU690
 1964 0492 FB6A     		ldr	r3, [r7, #44]
 633:Middlewares/lvgl/src/widgets/lv_table.c **** 
 1965              		.loc 1 633 20 view .LVU691
 1966 0494 069A     		ldr	r2, [sp, #24]
 1967 0496 33F91210 		ldrsh	r1, [r3, r2, lsl #1]
 1968 049a 0B91     		str	r1, [sp, #44]
 1969              	.LVL202:
 635:Middlewares/lvgl/src/widgets/lv_table.c ****         cell_area.y2 = cell_area.y1 + h_row - 1;
 1970              		.loc 1 635 9 is_stmt 1 view .LVU692
 635:Middlewares/lvgl/src/widgets/lv_table.c ****         cell_area.y2 = cell_area.y1 + h_row - 1;
 1971              		.loc 1 635 33 is_stmt 0 view .LVU693
 1972 049c BDF86231 		ldrh	r3, [sp, #354]
 635:Middlewares/lvgl/src/widgets/lv_table.c ****         cell_area.y2 = cell_area.y1 + h_row - 1;
 1973              		.loc 1 635 37 view .LVU694
 1974 04a0 0133     		adds	r3, r3, #1
 1975 04a2 9AB2     		uxth	r2, r3
 1976 04a4 1BB2     		sxth	r3, r3
 635:Middlewares/lvgl/src/widgets/lv_table.c ****         cell_area.y2 = cell_area.y1 + h_row - 1;
 1977              		.loc 1 635 22 view .LVU695
 1978 04a6 ADF85E31 		strh	r3, [sp, #350]	@ movhi
 636:Middlewares/lvgl/src/widgets/lv_table.c **** 
 1979              		.loc 1 636 9 is_stmt 1 view .LVU696
 636:Middlewares/lvgl/src/widgets/lv_table.c **** 
 1980              		.loc 1 636 37 is_stmt 0 view .LVU697
 1981 04aa 0A44     		add	r2, r2, r1
 1982 04ac 92B2     		uxth	r2, r2
 636:Middlewares/lvgl/src/widgets/lv_table.c **** 
 1983              		.loc 1 636 45 view .LVU698
 1984 04ae 013A     		subs	r2, r2, #1
 636:Middlewares/lvgl/src/widgets/lv_table.c **** 
 1985              		.loc 1 636 22 view .LVU699
 1986 04b0 ADF86221 		strh	r2, [sp, #354]	@ movhi
ARM GAS  /tmp/ccTYGLnU.s 			page 72


 638:Middlewares/lvgl/src/widgets/lv_table.c **** 
 1987              		.loc 1 638 9 is_stmt 1 view .LVU700
 638:Middlewares/lvgl/src/widgets/lv_table.c **** 
 1988              		.loc 1 638 36 is_stmt 0 view .LVU701
 1989 04b4 059A     		ldr	r2, [sp, #20]
 1990 04b6 B2F90620 		ldrsh	r2, [r2, #6]
 638:Middlewares/lvgl/src/widgets/lv_table.c **** 
 1991              		.loc 1 638 11 view .LVU702
 1992 04ba 9342     		cmp	r3, r2
 1993 04bc 0EDC     		bgt	.L32
 640:Middlewares/lvgl/src/widgets/lv_table.c ****         else cell_area.x2 = obj->coords.x1 + bg_left - 1 - scroll_x;
 1994              		.loc 1 640 9 is_stmt 1 view .LVU703
 640:Middlewares/lvgl/src/widgets/lv_table.c ****         else cell_area.x2 = obj->coords.x1 + bg_left - 1 - scroll_x;
 1995              		.loc 1 640 11 is_stmt 0 view .LVU704
 1996 04be BBF1010F 		cmp	fp, #1
 1997 04c2 3FF433AE 		beq	.L75
 641:Middlewares/lvgl/src/widgets/lv_table.c **** 
 1998              		.loc 1 641 14 is_stmt 1 view .LVU705
 641:Middlewares/lvgl/src/widgets/lv_table.c **** 
 1999              		.loc 1 641 40 is_stmt 0 view .LVU706
 2000 04c6 BB8A     		ldrh	r3, [r7, #20]
 641:Middlewares/lvgl/src/widgets/lv_table.c **** 
 2001              		.loc 1 641 44 view .LVU707
 2002 04c8 119A     		ldr	r2, [sp, #68]
 2003 04ca 1344     		add	r3, r3, r2
 2004 04cc 9BB2     		uxth	r3, r3
 641:Middlewares/lvgl/src/widgets/lv_table.c **** 
 2005              		.loc 1 641 58 view .LVU708
 2006 04ce 109A     		ldr	r2, [sp, #64]
 2007 04d0 9B1A     		subs	r3, r3, r2
 2008 04d2 013B     		subs	r3, r3, #1
 641:Middlewares/lvgl/src/widgets/lv_table.c **** 
 2009              		.loc 1 641 27 view .LVU709
 2010 04d4 ADF86031 		strh	r3, [sp, #352]	@ movhi
 2011              	.L37:
 2012              	.LBB153:
 2013              	.LBB151:
 735:Middlewares/lvgl/src/widgets/lv_table.c ****                 else txt_flags = LV_TEXT_FLAG_NONE;
 2014              		.loc 1 735 36 discriminator 1 view .LVU710
 2015 04d8 0025     		movs	r5, #0
 2016 04da 60E7     		b	.L63
 2017              	.LVL203:
 2018              	.L32:
 735:Middlewares/lvgl/src/widgets/lv_table.c ****                 else txt_flags = LV_TEXT_FLAG_NONE;
 2019              		.loc 1 735 36 discriminator 1 view .LVU711
 2020              	.LBE151:
 2021              	.LBE153:
 2022              	.LBE154:
 762:Middlewares/lvgl/src/widgets/lv_table.c **** 
 2023              		.loc 1 762 1 view .LVU712
 2024 04dc 5BB0     		add	sp, sp, #364
 2025              	.LCFI12:
 2026              		.cfi_def_cfa_offset 36
 2027              		@ sp needed
 2028 04de BDE8F08F 		pop	{r4, r5, r6, r7, r8, r9, r10, fp, pc}
 762:Middlewares/lvgl/src/widgets/lv_table.c **** 
 2029              		.loc 1 762 1 view .LVU713
ARM GAS  /tmp/ccTYGLnU.s 			page 73


 2030              		.cfi_endproc
 2031              	.LFE164:
 2033              		.section	.text.lv_table_event,"ax",%progbits
 2034              		.align	1
 2035              		.syntax unified
 2036              		.thumb
 2037              		.thumb_func
 2038              		.fpu softvfp
 2040              	lv_table_event:
 2041              	.LVL204:
 2042              	.LFB163:
 469:Middlewares/lvgl/src/widgets/lv_table.c ****     LV_UNUSED(class_p);
 2043              		.loc 1 469 1 is_stmt 1 view -0
 2044              		.cfi_startproc
 2045              		@ args = 0, pretend = 0, frame = 8
 2046              		@ frame_needed = 0, uses_anonymous_args = 0
 469:Middlewares/lvgl/src/widgets/lv_table.c ****     LV_UNUSED(class_p);
 2047              		.loc 1 469 1 is_stmt 0 view .LVU715
 2048 0000 70B5     		push	{r4, r5, r6, lr}
 2049              	.LCFI13:
 2050              		.cfi_def_cfa_offset 16
 2051              		.cfi_offset 4, -16
 2052              		.cfi_offset 5, -12
 2053              		.cfi_offset 6, -8
 2054              		.cfi_offset 14, -4
 2055 0002 82B0     		sub	sp, sp, #8
 2056              	.LCFI14:
 2057              		.cfi_def_cfa_offset 24
 2058 0004 0C46     		mov	r4, r1
 470:Middlewares/lvgl/src/widgets/lv_table.c **** 
 2059              		.loc 1 470 5 is_stmt 1 view .LVU716
 472:Middlewares/lvgl/src/widgets/lv_table.c **** 
 2060              		.loc 1 472 5 view .LVU717
 475:Middlewares/lvgl/src/widgets/lv_table.c ****     if(res != LV_RES_OK) return;
 2061              		.loc 1 475 5 view .LVU718
 475:Middlewares/lvgl/src/widgets/lv_table.c ****     if(res != LV_RES_OK) return;
 2062              		.loc 1 475 11 is_stmt 0 view .LVU719
 2063 0006 7148     		ldr	r0, .L125
 2064              	.LVL205:
 475:Middlewares/lvgl/src/widgets/lv_table.c ****     if(res != LV_RES_OK) return;
 2065              		.loc 1 475 11 view .LVU720
 2066 0008 FFF7FEFF 		bl	lv_obj_event_base
 2067              	.LVL206:
 476:Middlewares/lvgl/src/widgets/lv_table.c **** 
 2068              		.loc 1 476 5 is_stmt 1 view .LVU721
 476:Middlewares/lvgl/src/widgets/lv_table.c **** 
 2069              		.loc 1 476 7 is_stmt 0 view .LVU722
 2070 000c 0128     		cmp	r0, #1
 2071 000e 01D0     		beq	.L111
 2072              	.LVL207:
 2073              	.L76:
 578:Middlewares/lvgl/src/widgets/lv_table.c **** 
 2074              		.loc 1 578 1 view .LVU723
 2075 0010 02B0     		add	sp, sp, #8
 2076              	.LCFI15:
 2077              		.cfi_remember_state
 2078              		.cfi_def_cfa_offset 16
ARM GAS  /tmp/ccTYGLnU.s 			page 74


 2079              		@ sp needed
 2080 0012 70BD     		pop	{r4, r5, r6, pc}
 2081              	.LVL208:
 2082              	.L111:
 2083              	.LCFI16:
 2084              		.cfi_restore_state
 478:Middlewares/lvgl/src/widgets/lv_table.c ****     lv_obj_t * obj = lv_event_get_target(e);
 2085              		.loc 1 478 5 is_stmt 1 view .LVU724
 478:Middlewares/lvgl/src/widgets/lv_table.c ****     lv_obj_t * obj = lv_event_get_target(e);
 2086              		.loc 1 478 28 is_stmt 0 view .LVU725
 2087 0014 2046     		mov	r0, r4
 2088              	.LVL209:
 478:Middlewares/lvgl/src/widgets/lv_table.c ****     lv_obj_t * obj = lv_event_get_target(e);
 2089              		.loc 1 478 28 view .LVU726
 2090 0016 FFF7FEFF 		bl	lv_event_get_code
 2091              	.LVL210:
 2092 001a 0646     		mov	r6, r0
 2093              	.LVL211:
 479:Middlewares/lvgl/src/widgets/lv_table.c ****     lv_table_t * table = (lv_table_t *)obj;
 2094              		.loc 1 479 5 is_stmt 1 view .LVU727
 479:Middlewares/lvgl/src/widgets/lv_table.c ****     lv_table_t * table = (lv_table_t *)obj;
 2095              		.loc 1 479 22 is_stmt 0 view .LVU728
 2096 001c 2046     		mov	r0, r4
 2097 001e FFF7FEFF 		bl	lv_event_get_target
 2098              	.LVL212:
 2099 0022 0546     		mov	r5, r0
 2100              	.LVL213:
 480:Middlewares/lvgl/src/widgets/lv_table.c **** 
 2101              		.loc 1 480 5 is_stmt 1 view .LVU729
 482:Middlewares/lvgl/src/widgets/lv_table.c ****         refr_size(obj, 0);
 2102              		.loc 1 482 5 view .LVU730
 482:Middlewares/lvgl/src/widgets/lv_table.c ****         refr_size(obj, 0);
 2103              		.loc 1 482 7 is_stmt 0 view .LVU731
 2104 0024 242E     		cmp	r6, #36
 2105 0026 11D0     		beq	.L112
 485:Middlewares/lvgl/src/widgets/lv_table.c ****         lv_point_t * p = lv_event_get_param(e);
 2106              		.loc 1 485 10 is_stmt 1 view .LVU732
 485:Middlewares/lvgl/src/widgets/lv_table.c ****         lv_point_t * p = lv_event_get_param(e);
 2107              		.loc 1 485 12 is_stmt 0 view .LVU733
 2108 0028 262E     		cmp	r6, #38
 2109 002a 13D0     		beq	.L113
 497:Middlewares/lvgl/src/widgets/lv_table.c ****         uint16_t col;
 2110              		.loc 1 497 10 is_stmt 1 view .LVU734
 497:Middlewares/lvgl/src/widgets/lv_table.c ****         uint16_t col;
 2111              		.loc 1 497 38 is_stmt 0 view .LVU735
 2112 002c 731E     		subs	r3, r6, #1
 2113 002e DBB2     		uxtb	r3, r3
 497:Middlewares/lvgl/src/widgets/lv_table.c ****         uint16_t col;
 2114              		.loc 1 497 12 view .LVU736
 2115 0030 012B     		cmp	r3, #1
 2116 0032 2DD9     		bls	.L114
 508:Middlewares/lvgl/src/widgets/lv_table.c ****         lv_obj_invalidate(obj);
 2117              		.loc 1 508 10 is_stmt 1 view .LVU737
 508:Middlewares/lvgl/src/widgets/lv_table.c ****         lv_obj_invalidate(obj);
 2118              		.loc 1 508 12 is_stmt 0 view .LVU738
 2119 0034 082E     		cmp	r6, #8
 2120 0036 46D0     		beq	.L115
ARM GAS  /tmp/ccTYGLnU.s 			page 75


 523:Middlewares/lvgl/src/widgets/lv_table.c ****         lv_obj_invalidate(obj);
 2121              		.loc 1 523 10 is_stmt 1 view .LVU739
 523:Middlewares/lvgl/src/widgets/lv_table.c ****         lv_obj_invalidate(obj);
 2122              		.loc 1 523 12 is_stmt 0 view .LVU740
 2123 0038 0E2E     		cmp	r6, #14
 2124 003a 68D0     		beq	.L116
 525:Middlewares/lvgl/src/widgets/lv_table.c ****         int32_t c = *((int32_t *)lv_event_get_param(e));
 2125              		.loc 1 525 12 is_stmt 1 view .LVU741
 525:Middlewares/lvgl/src/widgets/lv_table.c ****         int32_t c = *((int32_t *)lv_event_get_param(e));
 2126              		.loc 1 525 14 is_stmt 0 view .LVU742
 2127 003c 0D2E     		cmp	r6, #13
 2128 003e 69D0     		beq	.L117
 575:Middlewares/lvgl/src/widgets/lv_table.c ****         draw_main(e);
 2129              		.loc 1 575 12 is_stmt 1 view .LVU743
 575:Middlewares/lvgl/src/widgets/lv_table.c ****         draw_main(e);
 2130              		.loc 1 575 14 is_stmt 0 view .LVU744
 2131 0040 152E     		cmp	r6, #21
 2132 0042 E5D1     		bne	.L76
 576:Middlewares/lvgl/src/widgets/lv_table.c ****     }
 2133              		.loc 1 576 9 is_stmt 1 view .LVU745
 2134 0044 2046     		mov	r0, r4
 2135              	.LVL214:
 576:Middlewares/lvgl/src/widgets/lv_table.c ****     }
 2136              		.loc 1 576 9 is_stmt 0 view .LVU746
 2137 0046 FFF7FEFF 		bl	draw_main
 2138              	.LVL215:
 2139 004a E1E7     		b	.L76
 2140              	.LVL216:
 2141              	.L112:
 483:Middlewares/lvgl/src/widgets/lv_table.c ****     }
 2142              		.loc 1 483 9 is_stmt 1 view .LVU747
 2143 004c 0021     		movs	r1, #0
 2144 004e FFF7FEFF 		bl	refr_size
 2145              	.LVL217:
 483:Middlewares/lvgl/src/widgets/lv_table.c ****     }
 2146              		.loc 1 483 9 is_stmt 0 view .LVU748
 2147 0052 DDE7     		b	.L76
 2148              	.LVL218:
 2149              	.L113:
 2150              	.LBB155:
 486:Middlewares/lvgl/src/widgets/lv_table.c ****         uint32_t i;
 2151              		.loc 1 486 9 is_stmt 1 view .LVU749
 486:Middlewares/lvgl/src/widgets/lv_table.c ****         uint32_t i;
 2152              		.loc 1 486 26 is_stmt 0 view .LVU750
 2153 0054 2046     		mov	r0, r4
 2154              	.LVL219:
 486:Middlewares/lvgl/src/widgets/lv_table.c ****         uint32_t i;
 2155              		.loc 1 486 26 view .LVU751
 2156 0056 FFF7FEFF 		bl	lv_event_get_param
 2157              	.LVL220:
 487:Middlewares/lvgl/src/widgets/lv_table.c ****         lv_coord_t w = 0;
 2158              		.loc 1 487 9 is_stmt 1 view .LVU752
 488:Middlewares/lvgl/src/widgets/lv_table.c ****         for(i = 0; i < table->col_cnt; i++) w += table->col_w[i];
 2159              		.loc 1 488 9 view .LVU753
 489:Middlewares/lvgl/src/widgets/lv_table.c **** 
 2160              		.loc 1 489 9 view .LVU754
 488:Middlewares/lvgl/src/widgets/lv_table.c ****         for(i = 0; i < table->col_cnt; i++) w += table->col_w[i];
ARM GAS  /tmp/ccTYGLnU.s 			page 76


 2161              		.loc 1 488 20 is_stmt 0 view .LVU755
 2162 005a 0022     		movs	r2, #0
 489:Middlewares/lvgl/src/widgets/lv_table.c **** 
 2163              		.loc 1 489 15 view .LVU756
 2164 005c 1346     		mov	r3, r2
 489:Middlewares/lvgl/src/widgets/lv_table.c **** 
 2165              		.loc 1 489 9 view .LVU757
 2166 005e 05E0     		b	.L80
 2167              	.LVL221:
 2168              	.L81:
 489:Middlewares/lvgl/src/widgets/lv_table.c **** 
 2169              		.loc 1 489 45 is_stmt 1 discriminator 3 view .LVU758
 489:Middlewares/lvgl/src/widgets/lv_table.c **** 
 2170              		.loc 1 489 55 is_stmt 0 discriminator 3 view .LVU759
 2171 0060 296B     		ldr	r1, [r5, #48]
 489:Middlewares/lvgl/src/widgets/lv_table.c **** 
 2172              		.loc 1 489 62 discriminator 3 view .LVU760
 2173 0062 31F81310 		ldrh	r1, [r1, r3, lsl #1]
 489:Middlewares/lvgl/src/widgets/lv_table.c **** 
 2174              		.loc 1 489 47 discriminator 3 view .LVU761
 2175 0066 0A44     		add	r2, r2, r1
 2176              	.LVL222:
 489:Middlewares/lvgl/src/widgets/lv_table.c **** 
 2177              		.loc 1 489 47 discriminator 3 view .LVU762
 2178 0068 12B2     		sxth	r2, r2
 2179              	.LVL223:
 489:Middlewares/lvgl/src/widgets/lv_table.c **** 
 2180              		.loc 1 489 40 is_stmt 1 discriminator 3 view .LVU763
 489:Middlewares/lvgl/src/widgets/lv_table.c **** 
 2181              		.loc 1 489 41 is_stmt 0 discriminator 3 view .LVU764
 2182 006a 0133     		adds	r3, r3, #1
 2183              	.LVL224:
 2184              	.L80:
 489:Middlewares/lvgl/src/widgets/lv_table.c **** 
 2185              		.loc 1 489 20 is_stmt 1 discriminator 1 view .LVU765
 489:Middlewares/lvgl/src/widgets/lv_table.c **** 
 2186              		.loc 1 489 29 is_stmt 0 discriminator 1 view .LVU766
 2187 006c A98C     		ldrh	r1, [r5, #36]
 489:Middlewares/lvgl/src/widgets/lv_table.c **** 
 2188              		.loc 1 489 9 discriminator 1 view .LVU767
 2189 006e 9942     		cmp	r1, r3
 2190 0070 F6D8     		bhi	.L81
 491:Middlewares/lvgl/src/widgets/lv_table.c ****         for(i = 0; i < table->row_cnt; i++) h += table->row_h[i];
 2191              		.loc 1 491 20 view .LVU768
 2192 0072 0023     		movs	r3, #0
 2193              	.LVL225:
 492:Middlewares/lvgl/src/widgets/lv_table.c **** 
 2194              		.loc 1 492 15 view .LVU769
 2195 0074 1946     		mov	r1, r3
 2196 0076 05E0     		b	.L82
 2197              	.LVL226:
 2198              	.L83:
 492:Middlewares/lvgl/src/widgets/lv_table.c **** 
 2199              		.loc 1 492 45 is_stmt 1 discriminator 3 view .LVU770
 492:Middlewares/lvgl/src/widgets/lv_table.c **** 
 2200              		.loc 1 492 55 is_stmt 0 discriminator 3 view .LVU771
 2201 0078 EC6A     		ldr	r4, [r5, #44]
ARM GAS  /tmp/ccTYGLnU.s 			page 77


 492:Middlewares/lvgl/src/widgets/lv_table.c **** 
 2202              		.loc 1 492 62 discriminator 3 view .LVU772
 2203 007a 34F81140 		ldrh	r4, [r4, r1, lsl #1]
 492:Middlewares/lvgl/src/widgets/lv_table.c **** 
 2204              		.loc 1 492 47 discriminator 3 view .LVU773
 2205 007e 2344     		add	r3, r3, r4
 2206              	.LVL227:
 492:Middlewares/lvgl/src/widgets/lv_table.c **** 
 2207              		.loc 1 492 47 discriminator 3 view .LVU774
 2208 0080 1BB2     		sxth	r3, r3
 2209              	.LVL228:
 492:Middlewares/lvgl/src/widgets/lv_table.c **** 
 2210              		.loc 1 492 40 is_stmt 1 discriminator 3 view .LVU775
 492:Middlewares/lvgl/src/widgets/lv_table.c **** 
 2211              		.loc 1 492 41 is_stmt 0 discriminator 3 view .LVU776
 2212 0082 0131     		adds	r1, r1, #1
 2213              	.LVL229:
 2214              	.L82:
 492:Middlewares/lvgl/src/widgets/lv_table.c **** 
 2215              		.loc 1 492 20 is_stmt 1 discriminator 1 view .LVU777
 492:Middlewares/lvgl/src/widgets/lv_table.c **** 
 2216              		.loc 1 492 29 is_stmt 0 discriminator 1 view .LVU778
 2217 0084 EC8C     		ldrh	r4, [r5, #38]
 492:Middlewares/lvgl/src/widgets/lv_table.c **** 
 2218              		.loc 1 492 9 discriminator 1 view .LVU779
 2219 0086 8C42     		cmp	r4, r1
 2220 0088 F6D8     		bhi	.L83
 494:Middlewares/lvgl/src/widgets/lv_table.c ****         p->y = h;
 2221              		.loc 1 494 9 is_stmt 1 view .LVU780
 494:Middlewares/lvgl/src/widgets/lv_table.c ****         p->y = h;
 2222              		.loc 1 494 14 is_stmt 0 view .LVU781
 2223 008a 0280     		strh	r2, [r0]	@ movhi
 495:Middlewares/lvgl/src/widgets/lv_table.c ****     }
 2224              		.loc 1 495 9 is_stmt 1 view .LVU782
 495:Middlewares/lvgl/src/widgets/lv_table.c ****     }
 2225              		.loc 1 495 14 is_stmt 0 view .LVU783
 2226 008c 4380     		strh	r3, [r0, #2]	@ movhi
 2227              	.LBE155:
 2228 008e BFE7     		b	.L76
 2229              	.LVL230:
 2230              	.L114:
 2231              	.LBB156:
 498:Middlewares/lvgl/src/widgets/lv_table.c ****         uint16_t row;
 2232              		.loc 1 498 9 is_stmt 1 view .LVU784
 499:Middlewares/lvgl/src/widgets/lv_table.c ****         lv_res_t pr_res = get_pressed_cell(obj, &row, &col);
 2233              		.loc 1 499 9 view .LVU785
 500:Middlewares/lvgl/src/widgets/lv_table.c **** 
 2234              		.loc 1 500 9 view .LVU786
 500:Middlewares/lvgl/src/widgets/lv_table.c **** 
 2235              		.loc 1 500 27 is_stmt 0 view .LVU787
 2236 0090 01AA     		add	r2, sp, #4
 2237 0092 0DF10601 		add	r1, sp, #6
 2238 0096 FFF7FEFF 		bl	get_pressed_cell
 2239              	.LVL231:
 502:Middlewares/lvgl/src/widgets/lv_table.c ****             table->col_act = col;
 2240              		.loc 1 502 9 is_stmt 1 view .LVU788
 502:Middlewares/lvgl/src/widgets/lv_table.c ****             table->col_act = col;
ARM GAS  /tmp/ccTYGLnU.s 			page 78


 2241              		.loc 1 502 11 is_stmt 0 view .LVU789
 2242 009a 0128     		cmp	r0, #1
 2243 009c 03D0     		beq	.L118
 2244              	.L85:
 506:Middlewares/lvgl/src/widgets/lv_table.c ****     }
 2245              		.loc 1 506 9 is_stmt 1 view .LVU790
 2246 009e 2846     		mov	r0, r5
 2247              	.LVL232:
 506:Middlewares/lvgl/src/widgets/lv_table.c ****     }
 2248              		.loc 1 506 9 is_stmt 0 view .LVU791
 2249 00a0 FFF7FEFF 		bl	lv_obj_invalidate
 2250              	.LVL233:
 2251              	.LBE156:
 2252 00a4 B4E7     		b	.L76
 2253              	.LVL234:
 2254              	.L118:
 2255              	.LBB157:
 502:Middlewares/lvgl/src/widgets/lv_table.c ****             table->col_act = col;
 2256              		.loc 1 502 41 discriminator 1 view .LVU792
 2257 00a6 AA8E     		ldrh	r2, [r5, #52]
 502:Middlewares/lvgl/src/widgets/lv_table.c ****             table->col_act = col;
 2258              		.loc 1 502 51 discriminator 1 view .LVU793
 2259 00a8 BDF80430 		ldrh	r3, [sp, #4]
 502:Middlewares/lvgl/src/widgets/lv_table.c ****             table->col_act = col;
 2260              		.loc 1 502 32 discriminator 1 view .LVU794
 2261 00ac 9A42     		cmp	r2, r3
 2262 00ae 04D0     		beq	.L119
 2263              	.L86:
 503:Middlewares/lvgl/src/widgets/lv_table.c ****             table->row_act = row;
 2264              		.loc 1 503 13 is_stmt 1 view .LVU795
 503:Middlewares/lvgl/src/widgets/lv_table.c ****             table->row_act = row;
 2265              		.loc 1 503 28 is_stmt 0 view .LVU796
 2266 00b0 AB86     		strh	r3, [r5, #52]	@ movhi
 504:Middlewares/lvgl/src/widgets/lv_table.c ****         }
 2267              		.loc 1 504 13 is_stmt 1 view .LVU797
 504:Middlewares/lvgl/src/widgets/lv_table.c ****         }
 2268              		.loc 1 504 28 is_stmt 0 view .LVU798
 2269 00b2 BDF80630 		ldrh	r3, [sp, #6]
 2270 00b6 EB86     		strh	r3, [r5, #54]	@ movhi
 2271 00b8 F1E7     		b	.L85
 2272              	.L119:
 502:Middlewares/lvgl/src/widgets/lv_table.c ****             table->col_act = col;
 2273              		.loc 1 502 66 discriminator 2 view .LVU799
 2274 00ba E98E     		ldrh	r1, [r5, #54]
 502:Middlewares/lvgl/src/widgets/lv_table.c ****             table->col_act = col;
 2275              		.loc 1 502 76 discriminator 2 view .LVU800
 2276 00bc BDF80620 		ldrh	r2, [sp, #6]
 502:Middlewares/lvgl/src/widgets/lv_table.c ****             table->col_act = col;
 2277              		.loc 1 502 58 discriminator 2 view .LVU801
 2278 00c0 9142     		cmp	r1, r2
 2279 00c2 F5D1     		bne	.L86
 2280 00c4 EBE7     		b	.L85
 2281              	.LVL235:
 2282              	.L115:
 502:Middlewares/lvgl/src/widgets/lv_table.c ****             table->col_act = col;
 2283              		.loc 1 502 58 discriminator 2 view .LVU802
 2284              	.LBE157:
ARM GAS  /tmp/ccTYGLnU.s 			page 79


 2285              	.LBB158:
 509:Middlewares/lvgl/src/widgets/lv_table.c ****         lv_indev_t * indev = lv_indev_get_act();
 2286              		.loc 1 509 9 is_stmt 1 view .LVU803
 2287 00c6 FFF7FEFF 		bl	lv_obj_invalidate
 2288              	.LVL236:
 510:Middlewares/lvgl/src/widgets/lv_table.c ****         lv_obj_t * scroll_obj = lv_indev_get_scroll_obj(indev);
 2289              		.loc 1 510 9 view .LVU804
 510:Middlewares/lvgl/src/widgets/lv_table.c ****         lv_obj_t * scroll_obj = lv_indev_get_scroll_obj(indev);
 2290              		.loc 1 510 30 is_stmt 0 view .LVU805
 2291 00ca FFF7FEFF 		bl	lv_indev_get_act
 2292              	.LVL237:
 511:Middlewares/lvgl/src/widgets/lv_table.c ****         if(table->col_act != LV_TABLE_CELL_NONE && table->row_act != LV_TABLE_CELL_NONE && scroll_o
 2293              		.loc 1 511 9 is_stmt 1 view .LVU806
 511:Middlewares/lvgl/src/widgets/lv_table.c ****         if(table->col_act != LV_TABLE_CELL_NONE && table->row_act != LV_TABLE_CELL_NONE && scroll_o
 2294              		.loc 1 511 33 is_stmt 0 view .LVU807
 2295 00ce FFF7FEFF 		bl	lv_indev_get_scroll_obj
 2296              	.LVL238:
 512:Middlewares/lvgl/src/widgets/lv_table.c ****             res = lv_event_send(obj, LV_EVENT_VALUE_CHANGED, NULL);
 2297              		.loc 1 512 9 is_stmt 1 view .LVU808
 512:Middlewares/lvgl/src/widgets/lv_table.c ****             res = lv_event_send(obj, LV_EVENT_VALUE_CHANGED, NULL);
 2298              		.loc 1 512 17 is_stmt 0 view .LVU809
 2299 00d2 AA8E     		ldrh	r2, [r5, #52]
 512:Middlewares/lvgl/src/widgets/lv_table.c ****             res = lv_event_send(obj, LV_EVENT_VALUE_CHANGED, NULL);
 2300              		.loc 1 512 11 view .LVU810
 2301 00d4 4FF6FF73 		movw	r3, #65535
 2302 00d8 9A42     		cmp	r2, r3
 2303 00da 03D0     		beq	.L88
 512:Middlewares/lvgl/src/widgets/lv_table.c ****             res = lv_event_send(obj, LV_EVENT_VALUE_CHANGED, NULL);
 2304              		.loc 1 512 57 discriminator 1 view .LVU811
 2305 00dc EA8E     		ldrh	r2, [r5, #54]
 512:Middlewares/lvgl/src/widgets/lv_table.c ****             res = lv_event_send(obj, LV_EVENT_VALUE_CHANGED, NULL);
 2306              		.loc 1 512 49 discriminator 1 view .LVU812
 2307 00de 9A42     		cmp	r2, r3
 2308 00e0 00D0     		beq	.L88
 512:Middlewares/lvgl/src/widgets/lv_table.c ****             res = lv_event_send(obj, LV_EVENT_VALUE_CHANGED, NULL);
 2309              		.loc 1 512 89 discriminator 2 view .LVU813
 2310 00e2 60B1     		cbz	r0, .L120
 2311              	.LVL239:
 2312              	.L88:
 517:Middlewares/lvgl/src/widgets/lv_table.c ****         if(indev_type == LV_INDEV_TYPE_POINTER || indev_type == LV_INDEV_TYPE_BUTTON) {
 2313              		.loc 1 517 9 is_stmt 1 view .LVU814
 517:Middlewares/lvgl/src/widgets/lv_table.c ****         if(indev_type == LV_INDEV_TYPE_POINTER || indev_type == LV_INDEV_TYPE_BUTTON) {
 2314              		.loc 1 517 56 is_stmt 0 view .LVU815
 2315 00e4 FFF7FEFF 		bl	lv_indev_get_act
 2316              	.LVL240:
 517:Middlewares/lvgl/src/widgets/lv_table.c ****         if(indev_type == LV_INDEV_TYPE_POINTER || indev_type == LV_INDEV_TYPE_BUTTON) {
 2317              		.loc 1 517 38 view .LVU816
 2318 00e8 FFF7FEFF 		bl	lv_indev_get_type
 2319              	.LVL241:
 518:Middlewares/lvgl/src/widgets/lv_table.c ****             table->col_act = LV_TABLE_CELL_NONE;
 2320              		.loc 1 518 9 is_stmt 1 view .LVU817
 518:Middlewares/lvgl/src/widgets/lv_table.c ****             table->col_act = LV_TABLE_CELL_NONE;
 2321              		.loc 1 518 11 is_stmt 0 view .LVU818
 2322 00ec 0128     		cmp	r0, #1
 2323 00ee 01D0     		beq	.L89
 518:Middlewares/lvgl/src/widgets/lv_table.c ****             table->col_act = LV_TABLE_CELL_NONE;
 2324              		.loc 1 518 48 discriminator 1 view .LVU819
ARM GAS  /tmp/ccTYGLnU.s 			page 80


 2325 00f0 0328     		cmp	r0, #3
 2326 00f2 8DD1     		bne	.L76
 2327              	.L89:
 519:Middlewares/lvgl/src/widgets/lv_table.c ****             table->row_act = LV_TABLE_CELL_NONE;
 2328              		.loc 1 519 13 is_stmt 1 view .LVU820
 519:Middlewares/lvgl/src/widgets/lv_table.c ****             table->row_act = LV_TABLE_CELL_NONE;
 2329              		.loc 1 519 28 is_stmt 0 view .LVU821
 2330 00f4 4FF6FF73 		movw	r3, #65535
 2331 00f8 AB86     		strh	r3, [r5, #52]	@ movhi
 520:Middlewares/lvgl/src/widgets/lv_table.c ****         }
 2332              		.loc 1 520 13 is_stmt 1 view .LVU822
 520:Middlewares/lvgl/src/widgets/lv_table.c ****         }
 2333              		.loc 1 520 28 is_stmt 0 view .LVU823
 2334 00fa EB86     		strh	r3, [r5, #54]	@ movhi
 2335 00fc 88E7     		b	.L76
 2336              	.LVL242:
 2337              	.L120:
 513:Middlewares/lvgl/src/widgets/lv_table.c ****             if(res != LV_RES_OK) return;
 2338              		.loc 1 513 13 is_stmt 1 view .LVU824
 513:Middlewares/lvgl/src/widgets/lv_table.c ****             if(res != LV_RES_OK) return;
 2339              		.loc 1 513 19 is_stmt 0 view .LVU825
 2340 00fe 0022     		movs	r2, #0
 2341 0100 1C21     		movs	r1, #28
 2342 0102 2846     		mov	r0, r5
 2343              	.LVL243:
 513:Middlewares/lvgl/src/widgets/lv_table.c ****             if(res != LV_RES_OK) return;
 2344              		.loc 1 513 19 view .LVU826
 2345 0104 FFF7FEFF 		bl	lv_event_send
 2346              	.LVL244:
 514:Middlewares/lvgl/src/widgets/lv_table.c ****         }
 2347              		.loc 1 514 13 is_stmt 1 view .LVU827
 514:Middlewares/lvgl/src/widgets/lv_table.c ****         }
 2348              		.loc 1 514 15 is_stmt 0 view .LVU828
 2349 0108 0128     		cmp	r0, #1
 2350 010a 81D1     		bne	.L76
 2351 010c EAE7     		b	.L88
 2352              	.LVL245:
 2353              	.L116:
 514:Middlewares/lvgl/src/widgets/lv_table.c ****         }
 2354              		.loc 1 514 15 view .LVU829
 2355              	.LBE158:
 524:Middlewares/lvgl/src/widgets/lv_table.c ****     } else if(code == LV_EVENT_KEY) {
 2356              		.loc 1 524 9 is_stmt 1 view .LVU830
 2357 010e FFF7FEFF 		bl	lv_obj_invalidate
 2358              	.LVL246:
 524:Middlewares/lvgl/src/widgets/lv_table.c ****     } else if(code == LV_EVENT_KEY) {
 2359              		.loc 1 524 9 is_stmt 0 view .LVU831
 2360 0112 7DE7     		b	.L76
 2361              	.LVL247:
 2362              	.L117:
 2363              	.LBB159:
 526:Middlewares/lvgl/src/widgets/lv_table.c ****         int32_t col = table->col_act;
 2364              		.loc 1 526 9 is_stmt 1 view .LVU832
 526:Middlewares/lvgl/src/widgets/lv_table.c ****         int32_t col = table->col_act;
 2365              		.loc 1 526 34 is_stmt 0 view .LVU833
 2366 0114 2046     		mov	r0, r4
 2367              	.LVL248:
ARM GAS  /tmp/ccTYGLnU.s 			page 81


 526:Middlewares/lvgl/src/widgets/lv_table.c ****         int32_t col = table->col_act;
 2368              		.loc 1 526 34 view .LVU834
 2369 0116 FFF7FEFF 		bl	lv_event_get_param
 2370              	.LVL249:
 526:Middlewares/lvgl/src/widgets/lv_table.c ****         int32_t col = table->col_act;
 2371              		.loc 1 526 17 view .LVU835
 2372 011a 0468     		ldr	r4, [r0]
 2373              	.LVL250:
 527:Middlewares/lvgl/src/widgets/lv_table.c ****         int32_t row = table->row_act;
 2374              		.loc 1 527 9 is_stmt 1 view .LVU836
 527:Middlewares/lvgl/src/widgets/lv_table.c ****         int32_t row = table->row_act;
 2375              		.loc 1 527 28 is_stmt 0 view .LVU837
 2376 011c A98E     		ldrh	r1, [r5, #52]
 2377              	.LVL251:
 528:Middlewares/lvgl/src/widgets/lv_table.c ****         if(col == LV_TABLE_CELL_NONE || row == LV_TABLE_CELL_NONE) {
 2378              		.loc 1 528 9 is_stmt 1 view .LVU838
 528:Middlewares/lvgl/src/widgets/lv_table.c ****         if(col == LV_TABLE_CELL_NONE || row == LV_TABLE_CELL_NONE) {
 2379              		.loc 1 528 28 is_stmt 0 view .LVU839
 2380 011e E88E     		ldrh	r0, [r5, #54]
 2381              	.LVL252:
 529:Middlewares/lvgl/src/widgets/lv_table.c ****             table->col_act = 0;
 2382              		.loc 1 529 9 is_stmt 1 view .LVU840
 529:Middlewares/lvgl/src/widgets/lv_table.c ****             table->col_act = 0;
 2383              		.loc 1 529 11 is_stmt 0 view .LVU841
 2384 0120 4FF6FF73 		movw	r3, #65535
 2385 0124 9942     		cmp	r1, r3
 2386 0126 15D0     		beq	.L92
 529:Middlewares/lvgl/src/widgets/lv_table.c ****             table->col_act = 0;
 2387              		.loc 1 529 38 discriminator 1 view .LVU842
 2388 0128 9842     		cmp	r0, r3
 2389 012a 13D0     		beq	.L92
 536:Middlewares/lvgl/src/widgets/lv_table.c ****         if(row >= table->row_cnt) row = 0;
 2390              		.loc 1 536 9 is_stmt 1 view .LVU843
 536:Middlewares/lvgl/src/widgets/lv_table.c ****         if(row >= table->row_cnt) row = 0;
 2391              		.loc 1 536 24 is_stmt 0 view .LVU844
 2392 012c B5F824C0 		ldrh	ip, [r5, #36]
 536:Middlewares/lvgl/src/widgets/lv_table.c ****         if(row >= table->row_cnt) row = 0;
 2393              		.loc 1 536 11 view .LVU845
 2394 0130 6145     		cmp	r1, ip
 2395 0132 16D2     		bcs	.L106
 527:Middlewares/lvgl/src/widgets/lv_table.c ****         int32_t row = table->row_act;
 2396              		.loc 1 527 17 view .LVU846
 2397 0134 0A46     		mov	r2, r1
 2398              	.L94:
 2399              	.LVL253:
 537:Middlewares/lvgl/src/widgets/lv_table.c **** 
 2400              		.loc 1 537 9 is_stmt 1 view .LVU847
 537:Middlewares/lvgl/src/widgets/lv_table.c **** 
 2401              		.loc 1 537 24 is_stmt 0 view .LVU848
 2402 0136 EE8C     		ldrh	r6, [r5, #38]
 2403              	.LVL254:
 537:Middlewares/lvgl/src/widgets/lv_table.c **** 
 2404              		.loc 1 537 11 view .LVU849
 2405 0138 B042     		cmp	r0, r6
 2406 013a 14D2     		bcs	.L107
 528:Middlewares/lvgl/src/widgets/lv_table.c ****         if(col == LV_TABLE_CELL_NONE || row == LV_TABLE_CELL_NONE) {
 2407              		.loc 1 528 17 view .LVU850
ARM GAS  /tmp/ccTYGLnU.s 			page 82


 2408 013c 0346     		mov	r3, r0
 2409              	.L95:
 2410              	.LVL255:
 539:Middlewares/lvgl/src/widgets/lv_table.c ****         else if(c == LV_KEY_RIGHT) col++;
 2411              		.loc 1 539 9 is_stmt 1 view .LVU851
 539:Middlewares/lvgl/src/widgets/lv_table.c ****         else if(c == LV_KEY_RIGHT) col++;
 2412              		.loc 1 539 11 is_stmt 0 view .LVU852
 2413 013e 142C     		cmp	r4, #20
 2414 0140 13D0     		beq	.L121
 540:Middlewares/lvgl/src/widgets/lv_table.c ****         else if(c == LV_KEY_UP) row--;
 2415              		.loc 1 540 14 is_stmt 1 view .LVU853
 540:Middlewares/lvgl/src/widgets/lv_table.c ****         else if(c == LV_KEY_UP) row--;
 2416              		.loc 1 540 16 is_stmt 0 view .LVU854
 2417 0142 132C     		cmp	r4, #19
 2418 0144 1AD0     		beq	.L122
 541:Middlewares/lvgl/src/widgets/lv_table.c ****         else if(c == LV_KEY_DOWN) row++;
 2419              		.loc 1 541 14 is_stmt 1 view .LVU855
 541:Middlewares/lvgl/src/widgets/lv_table.c ****         else if(c == LV_KEY_DOWN) row++;
 2420              		.loc 1 541 16 is_stmt 0 view .LVU856
 2421 0146 112C     		cmp	r4, #17
 2422 0148 1AD0     		beq	.L123
 542:Middlewares/lvgl/src/widgets/lv_table.c ****         else return;
 2423              		.loc 1 542 14 is_stmt 1 view .LVU857
 542:Middlewares/lvgl/src/widgets/lv_table.c ****         else return;
 2424              		.loc 1 542 16 is_stmt 0 view .LVU858
 2425 014a 122C     		cmp	r4, #18
 2426 014c 7FF460AF 		bne	.L76
 542:Middlewares/lvgl/src/widgets/lv_table.c ****         else return;
 2427              		.loc 1 542 35 is_stmt 1 discriminator 1 view .LVU859
 542:Middlewares/lvgl/src/widgets/lv_table.c ****         else return;
 2428              		.loc 1 542 38 is_stmt 0 discriminator 1 view .LVU860
 2429 0150 0133     		adds	r3, r3, #1
 2430              	.LVL256:
 542:Middlewares/lvgl/src/widgets/lv_table.c ****         else return;
 2431              		.loc 1 542 38 discriminator 1 view .LVU861
 2432 0152 0BE0     		b	.L97
 2433              	.LVL257:
 2434              	.L92:
 530:Middlewares/lvgl/src/widgets/lv_table.c ****             table->row_act = 0;
 2435              		.loc 1 530 13 is_stmt 1 view .LVU862
 530:Middlewares/lvgl/src/widgets/lv_table.c ****             table->row_act = 0;
 2436              		.loc 1 530 28 is_stmt 0 view .LVU863
 2437 0154 0023     		movs	r3, #0
 2438 0156 AB86     		strh	r3, [r5, #52]	@ movhi
 531:Middlewares/lvgl/src/widgets/lv_table.c ****             lv_obj_invalidate(obj);
 2439              		.loc 1 531 13 is_stmt 1 view .LVU864
 531:Middlewares/lvgl/src/widgets/lv_table.c ****             lv_obj_invalidate(obj);
 2440              		.loc 1 531 28 is_stmt 0 view .LVU865
 2441 0158 EB86     		strh	r3, [r5, #54]	@ movhi
 532:Middlewares/lvgl/src/widgets/lv_table.c ****             return;
 2442              		.loc 1 532 13 is_stmt 1 view .LVU866
 2443 015a 2846     		mov	r0, r5
 2444              	.LVL258:
 532:Middlewares/lvgl/src/widgets/lv_table.c ****             return;
 2445              		.loc 1 532 13 is_stmt 0 view .LVU867
 2446 015c FFF7FEFF 		bl	lv_obj_invalidate
 2447              	.LVL259:
ARM GAS  /tmp/ccTYGLnU.s 			page 83


 533:Middlewares/lvgl/src/widgets/lv_table.c ****         }
 2448              		.loc 1 533 13 is_stmt 1 view .LVU868
 2449 0160 56E7     		b	.L76
 2450              	.LVL260:
 2451              	.L106:
 536:Middlewares/lvgl/src/widgets/lv_table.c ****         if(row >= table->row_cnt) row = 0;
 2452              		.loc 1 536 39 is_stmt 0 view .LVU869
 2453 0162 0022     		movs	r2, #0
 2454 0164 E7E7     		b	.L94
 2455              	.LVL261:
 2456              	.L107:
 537:Middlewares/lvgl/src/widgets/lv_table.c **** 
 2457              		.loc 1 537 39 view .LVU870
 2458 0166 0023     		movs	r3, #0
 2459 0168 E9E7     		b	.L95
 2460              	.LVL262:
 2461              	.L121:
 539:Middlewares/lvgl/src/widgets/lv_table.c ****         else if(c == LV_KEY_RIGHT) col++;
 2462              		.loc 1 539 30 is_stmt 1 discriminator 1 view .LVU871
 539:Middlewares/lvgl/src/widgets/lv_table.c ****         else if(c == LV_KEY_RIGHT) col++;
 2463              		.loc 1 539 33 is_stmt 0 discriminator 1 view .LVU872
 2464 016a 013A     		subs	r2, r2, #1
 2465              	.LVL263:
 2466              	.L97:
 545:Middlewares/lvgl/src/widgets/lv_table.c ****             if(row < table->row_cnt - 1) {
 2467              		.loc 1 545 9 is_stmt 1 view .LVU873
 545:Middlewares/lvgl/src/widgets/lv_table.c ****             if(row < table->row_cnt - 1) {
 2468              		.loc 1 545 11 is_stmt 0 view .LVU874
 2469 016c 9445     		cmp	ip, r2
 2470 016e 0CDC     		bgt	.L100
 546:Middlewares/lvgl/src/widgets/lv_table.c ****                 col = 0;
 2471              		.loc 1 546 13 is_stmt 1 view .LVU875
 546:Middlewares/lvgl/src/widgets/lv_table.c ****                 col = 0;
 2472              		.loc 1 546 37 is_stmt 0 view .LVU876
 2473 0170 721E     		subs	r2, r6, #1
 2474              	.LVL264:
 546:Middlewares/lvgl/src/widgets/lv_table.c ****                 col = 0;
 2475              		.loc 1 546 15 view .LVU877
 2476 0172 9A42     		cmp	r2, r3
 2477 0174 06DD     		ble	.L101
 547:Middlewares/lvgl/src/widgets/lv_table.c ****                 row++;
 2478              		.loc 1 547 17 is_stmt 1 view .LVU878
 2479              	.LVL265:
 548:Middlewares/lvgl/src/widgets/lv_table.c ****             } else {
 2480              		.loc 1 548 17 view .LVU879
 548:Middlewares/lvgl/src/widgets/lv_table.c ****             } else {
 2481              		.loc 1 548 20 is_stmt 0 view .LVU880
 2482 0176 0133     		adds	r3, r3, #1
 2483              	.LVL266:
 547:Middlewares/lvgl/src/widgets/lv_table.c ****                 row++;
 2484              		.loc 1 547 21 view .LVU881
 2485 0178 0022     		movs	r2, #0
 2486 017a 08E0     		b	.L102
 2487              	.LVL267:
 2488              	.L122:
 540:Middlewares/lvgl/src/widgets/lv_table.c ****         else if(c == LV_KEY_UP) row--;
 2489              		.loc 1 540 36 is_stmt 1 discriminator 1 view .LVU882
ARM GAS  /tmp/ccTYGLnU.s 			page 84


 540:Middlewares/lvgl/src/widgets/lv_table.c ****         else if(c == LV_KEY_UP) row--;
 2490              		.loc 1 540 39 is_stmt 0 discriminator 1 view .LVU883
 2491 017c 0132     		adds	r2, r2, #1
 2492              	.LVL268:
 540:Middlewares/lvgl/src/widgets/lv_table.c ****         else if(c == LV_KEY_UP) row--;
 2493              		.loc 1 540 39 discriminator 1 view .LVU884
 2494 017e F5E7     		b	.L97
 2495              	.L123:
 541:Middlewares/lvgl/src/widgets/lv_table.c ****         else if(c == LV_KEY_DOWN) row++;
 2496              		.loc 1 541 33 is_stmt 1 discriminator 1 view .LVU885
 541:Middlewares/lvgl/src/widgets/lv_table.c ****         else if(c == LV_KEY_DOWN) row++;
 2497              		.loc 1 541 36 is_stmt 0 discriminator 1 view .LVU886
 2498 0180 013B     		subs	r3, r3, #1
 2499              	.LVL269:
 541:Middlewares/lvgl/src/widgets/lv_table.c ****         else if(c == LV_KEY_DOWN) row++;
 2500              		.loc 1 541 36 discriminator 1 view .LVU887
 2501 0182 F3E7     		b	.L97
 2502              	.LVL270:
 2503              	.L101:
 550:Middlewares/lvgl/src/widgets/lv_table.c ****             }
 2504              		.loc 1 550 17 is_stmt 1 view .LVU888
 550:Middlewares/lvgl/src/widgets/lv_table.c ****             }
 2505              		.loc 1 550 21 is_stmt 0 view .LVU889
 2506 0184 0CF1FF32 		add	r2, ip, #-1
 2507              	.LVL271:
 550:Middlewares/lvgl/src/widgets/lv_table.c ****             }
 2508              		.loc 1 550 21 view .LVU890
 2509 0188 01E0     		b	.L102
 2510              	.L100:
 552:Middlewares/lvgl/src/widgets/lv_table.c ****             if(row != 0) {
 2511              		.loc 1 552 16 is_stmt 1 view .LVU891
 552:Middlewares/lvgl/src/widgets/lv_table.c ****             if(row != 0) {
 2512              		.loc 1 552 19 is_stmt 0 view .LVU892
 2513 018a 002A     		cmp	r2, #0
 2514 018c 12DB     		blt	.L124
 2515              	.LVL272:
 2516              	.L102:
 561:Middlewares/lvgl/src/widgets/lv_table.c ****             row = table->row_cnt - 1;
 2517              		.loc 1 561 9 is_stmt 1 view .LVU893
 561:Middlewares/lvgl/src/widgets/lv_table.c ****             row = table->row_cnt - 1;
 2518              		.loc 1 561 11 is_stmt 0 view .LVU894
 2519 018e 9E42     		cmp	r6, r3
 2520 0190 17DC     		bgt	.L103
 562:Middlewares/lvgl/src/widgets/lv_table.c ****         } else if(row < 0) {
 2521              		.loc 1 562 13 is_stmt 1 view .LVU895
 562:Middlewares/lvgl/src/widgets/lv_table.c ****         } else if(row < 0) {
 2522              		.loc 1 562 17 is_stmt 0 view .LVU896
 2523 0192 731E     		subs	r3, r6, #1
 2524              	.LVL273:
 2525              	.L104:
 567:Middlewares/lvgl/src/widgets/lv_table.c ****             table->col_act = col;
 2526              		.loc 1 567 9 is_stmt 1 view .LVU897
 567:Middlewares/lvgl/src/widgets/lv_table.c ****             table->col_act = col;
 2527              		.loc 1 567 11 is_stmt 0 view .LVU898
 2528 0194 8A42     		cmp	r2, r1
 2529 0196 02D1     		bne	.L105
 567:Middlewares/lvgl/src/widgets/lv_table.c ****             table->col_act = col;
ARM GAS  /tmp/ccTYGLnU.s 			page 85


 2530              		.loc 1 567 34 discriminator 1 view .LVU899
 2531 0198 8342     		cmp	r3, r0
 2532 019a 3FF439AF 		beq	.L76
 2533              	.L105:
 568:Middlewares/lvgl/src/widgets/lv_table.c ****             table->row_act = row;
 2534              		.loc 1 568 13 is_stmt 1 view .LVU900
 568:Middlewares/lvgl/src/widgets/lv_table.c ****             table->row_act = row;
 2535              		.loc 1 568 28 is_stmt 0 view .LVU901
 2536 019e AA86     		strh	r2, [r5, #52]	@ movhi
 569:Middlewares/lvgl/src/widgets/lv_table.c ****             lv_obj_invalidate(obj);
 2537              		.loc 1 569 13 is_stmt 1 view .LVU902
 569:Middlewares/lvgl/src/widgets/lv_table.c ****             lv_obj_invalidate(obj);
 2538              		.loc 1 569 28 is_stmt 0 view .LVU903
 2539 01a0 EB86     		strh	r3, [r5, #54]	@ movhi
 570:Middlewares/lvgl/src/widgets/lv_table.c **** 
 2540              		.loc 1 570 13 is_stmt 1 view .LVU904
 2541 01a2 2846     		mov	r0, r5
 2542 01a4 FFF7FEFF 		bl	lv_obj_invalidate
 2543              	.LVL274:
 572:Middlewares/lvgl/src/widgets/lv_table.c ****             if(res != LV_RES_OK) return;
 2544              		.loc 1 572 13 view .LVU905
 572:Middlewares/lvgl/src/widgets/lv_table.c ****             if(res != LV_RES_OK) return;
 2545              		.loc 1 572 19 is_stmt 0 view .LVU906
 2546 01a8 0022     		movs	r2, #0
 2547 01aa 1C21     		movs	r1, #28
 2548 01ac 2846     		mov	r0, r5
 2549 01ae FFF7FEFF 		bl	lv_event_send
 2550              	.LVL275:
 573:Middlewares/lvgl/src/widgets/lv_table.c ****         }
 2551              		.loc 1 573 13 is_stmt 1 view .LVU907
 2552 01b2 2DE7     		b	.L76
 2553              	.LVL276:
 2554              	.L124:
 553:Middlewares/lvgl/src/widgets/lv_table.c ****                 col = table->col_cnt - 1;
 2555              		.loc 1 553 13 view .LVU908
 553:Middlewares/lvgl/src/widgets/lv_table.c ****                 col = table->col_cnt - 1;
 2556              		.loc 1 553 15 is_stmt 0 view .LVU909
 2557 01b4 1BB1     		cbz	r3, .L108
 554:Middlewares/lvgl/src/widgets/lv_table.c ****                 row--;
 2558              		.loc 1 554 17 is_stmt 1 view .LVU910
 554:Middlewares/lvgl/src/widgets/lv_table.c ****                 row--;
 2559              		.loc 1 554 21 is_stmt 0 view .LVU911
 2560 01b6 0CF1FF32 		add	r2, ip, #-1
 2561              	.LVL277:
 555:Middlewares/lvgl/src/widgets/lv_table.c ****             } else {
 2562              		.loc 1 555 17 is_stmt 1 view .LVU912
 555:Middlewares/lvgl/src/widgets/lv_table.c ****             } else {
 2563              		.loc 1 555 20 is_stmt 0 view .LVU913
 2564 01ba 013B     		subs	r3, r3, #1
 2565              	.LVL278:
 555:Middlewares/lvgl/src/widgets/lv_table.c ****             } else {
 2566              		.loc 1 555 20 view .LVU914
 2567 01bc E7E7     		b	.L102
 2568              	.L108:
 557:Middlewares/lvgl/src/widgets/lv_table.c ****             }
 2569              		.loc 1 557 21 view .LVU915
 2570 01be 1A46     		mov	r2, r3
ARM GAS  /tmp/ccTYGLnU.s 			page 86


 2571              	.LVL279:
 557:Middlewares/lvgl/src/widgets/lv_table.c ****             }
 2572              		.loc 1 557 21 view .LVU916
 2573 01c0 E5E7     		b	.L102
 2574              	.LVL280:
 2575              	.L103:
 563:Middlewares/lvgl/src/widgets/lv_table.c ****             row = 0;
 2576              		.loc 1 563 16 is_stmt 1 view .LVU917
 563:Middlewares/lvgl/src/widgets/lv_table.c ****             row = 0;
 2577              		.loc 1 563 18 is_stmt 0 view .LVU918
 2578 01c2 002B     		cmp	r3, #0
 2579 01c4 E6DA     		bge	.L104
 564:Middlewares/lvgl/src/widgets/lv_table.c ****         }
 2580              		.loc 1 564 17 view .LVU919
 2581 01c6 0023     		movs	r3, #0
 2582              	.LVL281:
 564:Middlewares/lvgl/src/widgets/lv_table.c ****         }
 2583              		.loc 1 564 17 view .LVU920
 2584 01c8 E4E7     		b	.L104
 2585              	.L126:
 2586 01ca 00BF     		.align	2
 2587              	.L125:
 2588 01cc 00000000 		.word	.LANCHOR0
 2589              	.LBE159:
 2590              		.cfi_endproc
 2591              	.LFE163:
 2593              		.section	.text.lv_table_destructor,"ax",%progbits
 2594              		.align	1
 2595              		.syntax unified
 2596              		.thumb
 2597              		.thumb_func
 2598              		.fpu softvfp
 2600              	lv_table_destructor:
 2601              	.LVL282:
 2602              	.LFB162:
 452:Middlewares/lvgl/src/widgets/lv_table.c ****     LV_UNUSED(class_p);
 2603              		.loc 1 452 1 is_stmt 1 view -0
 2604              		.cfi_startproc
 2605              		@ args = 0, pretend = 0, frame = 0
 2606              		@ frame_needed = 0, uses_anonymous_args = 0
 452:Middlewares/lvgl/src/widgets/lv_table.c ****     LV_UNUSED(class_p);
 2607              		.loc 1 452 1 is_stmt 0 view .LVU922
 2608 0000 38B5     		push	{r3, r4, r5, lr}
 2609              	.LCFI17:
 2610              		.cfi_def_cfa_offset 16
 2611              		.cfi_offset 3, -16
 2612              		.cfi_offset 4, -12
 2613              		.cfi_offset 5, -8
 2614              		.cfi_offset 14, -4
 2615 0002 0D46     		mov	r5, r1
 453:Middlewares/lvgl/src/widgets/lv_table.c ****     lv_table_t * table = (lv_table_t *)obj;
 2616              		.loc 1 453 5 is_stmt 1 view .LVU923
 454:Middlewares/lvgl/src/widgets/lv_table.c ****     /*Free the cell texts*/
 2617              		.loc 1 454 5 view .LVU924
 2618              	.LVL283:
 456:Middlewares/lvgl/src/widgets/lv_table.c ****     for(i = 0; i < table->col_cnt * table->row_cnt; i++) {
 2619              		.loc 1 456 5 view .LVU925
ARM GAS  /tmp/ccTYGLnU.s 			page 87


 457:Middlewares/lvgl/src/widgets/lv_table.c ****         if(table->cell_data[i]) {
 2620              		.loc 1 457 5 view .LVU926
 457:Middlewares/lvgl/src/widgets/lv_table.c ****         if(table->cell_data[i]) {
 2621              		.loc 1 457 11 is_stmt 0 view .LVU927
 2622 0004 0024     		movs	r4, #0
 457:Middlewares/lvgl/src/widgets/lv_table.c ****         if(table->cell_data[i]) {
 2623              		.loc 1 457 5 view .LVU928
 2624 0006 01E0     		b	.L128
 2625              	.LVL284:
 2626              	.L129:
 457:Middlewares/lvgl/src/widgets/lv_table.c ****         if(table->cell_data[i]) {
 2627              		.loc 1 457 53 is_stmt 1 discriminator 2 view .LVU929
 457:Middlewares/lvgl/src/widgets/lv_table.c ****         if(table->cell_data[i]) {
 2628              		.loc 1 457 54 is_stmt 0 discriminator 2 view .LVU930
 2629 0008 0134     		adds	r4, r4, #1
 2630              	.LVL285:
 457:Middlewares/lvgl/src/widgets/lv_table.c ****         if(table->cell_data[i]) {
 2631              		.loc 1 457 54 discriminator 2 view .LVU931
 2632 000a A4B2     		uxth	r4, r4
 2633              	.LVL286:
 2634              	.L128:
 457:Middlewares/lvgl/src/widgets/lv_table.c ****         if(table->cell_data[i]) {
 2635              		.loc 1 457 16 is_stmt 1 discriminator 1 view .LVU932
 457:Middlewares/lvgl/src/widgets/lv_table.c ****         if(table->cell_data[i]) {
 2636              		.loc 1 457 25 is_stmt 0 discriminator 1 view .LVU933
 2637 000c AB8C     		ldrh	r3, [r5, #36]
 457:Middlewares/lvgl/src/widgets/lv_table.c ****         if(table->cell_data[i]) {
 2638              		.loc 1 457 42 discriminator 1 view .LVU934
 2639 000e EA8C     		ldrh	r2, [r5, #38]
 457:Middlewares/lvgl/src/widgets/lv_table.c ****         if(table->cell_data[i]) {
 2640              		.loc 1 457 35 discriminator 1 view .LVU935
 2641 0010 02FB03F3 		mul	r3, r2, r3
 457:Middlewares/lvgl/src/widgets/lv_table.c ****         if(table->cell_data[i]) {
 2642              		.loc 1 457 5 discriminator 1 view .LVU936
 2643 0014 9C42     		cmp	r4, r3
 2644 0016 0BDA     		bge	.L134
 458:Middlewares/lvgl/src/widgets/lv_table.c ****             lv_mem_free(table->cell_data[i]);
 2645              		.loc 1 458 9 is_stmt 1 view .LVU937
 458:Middlewares/lvgl/src/widgets/lv_table.c ****             lv_mem_free(table->cell_data[i]);
 2646              		.loc 1 458 17 is_stmt 0 view .LVU938
 2647 0018 AB6A     		ldr	r3, [r5, #40]
 458:Middlewares/lvgl/src/widgets/lv_table.c ****             lv_mem_free(table->cell_data[i]);
 2648              		.loc 1 458 28 view .LVU939
 2649 001a 53F82400 		ldr	r0, [r3, r4, lsl #2]
 458:Middlewares/lvgl/src/widgets/lv_table.c ****             lv_mem_free(table->cell_data[i]);
 2650              		.loc 1 458 11 view .LVU940
 2651 001e 0028     		cmp	r0, #0
 2652 0020 F2D0     		beq	.L129
 459:Middlewares/lvgl/src/widgets/lv_table.c ****             table->cell_data[i] = NULL;
 2653              		.loc 1 459 13 is_stmt 1 view .LVU941
 2654 0022 FFF7FEFF 		bl	lv_mem_free
 2655              	.LVL287:
 460:Middlewares/lvgl/src/widgets/lv_table.c ****         }
 2656              		.loc 1 460 13 view .LVU942
 460:Middlewares/lvgl/src/widgets/lv_table.c ****         }
 2657              		.loc 1 460 18 is_stmt 0 view .LVU943
 2658 0026 AB6A     		ldr	r3, [r5, #40]
ARM GAS  /tmp/ccTYGLnU.s 			page 88


 460:Middlewares/lvgl/src/widgets/lv_table.c ****         }
 2659              		.loc 1 460 33 view .LVU944
 2660 0028 0022     		movs	r2, #0
 2661 002a 43F82420 		str	r2, [r3, r4, lsl #2]
 2662 002e EBE7     		b	.L129
 2663              	.L134:
 464:Middlewares/lvgl/src/widgets/lv_table.c ****     if(table->row_h) lv_mem_free(table->row_h);
 2664              		.loc 1 464 5 is_stmt 1 view .LVU945
 464:Middlewares/lvgl/src/widgets/lv_table.c ****     if(table->row_h) lv_mem_free(table->row_h);
 2665              		.loc 1 464 13 is_stmt 0 view .LVU946
 2666 0030 A86A     		ldr	r0, [r5, #40]
 464:Middlewares/lvgl/src/widgets/lv_table.c ****     if(table->row_h) lv_mem_free(table->row_h);
 2667              		.loc 1 464 7 view .LVU947
 2668 0032 08B1     		cbz	r0, .L131
 464:Middlewares/lvgl/src/widgets/lv_table.c ****     if(table->row_h) lv_mem_free(table->row_h);
 2669              		.loc 1 464 26 is_stmt 1 discriminator 1 view .LVU948
 2670 0034 FFF7FEFF 		bl	lv_mem_free
 2671              	.LVL288:
 2672              	.L131:
 465:Middlewares/lvgl/src/widgets/lv_table.c **** }
 2673              		.loc 1 465 5 view .LVU949
 465:Middlewares/lvgl/src/widgets/lv_table.c **** }
 2674              		.loc 1 465 13 is_stmt 0 view .LVU950
 2675 0038 E86A     		ldr	r0, [r5, #44]
 465:Middlewares/lvgl/src/widgets/lv_table.c **** }
 2676              		.loc 1 465 7 view .LVU951
 2677 003a 08B1     		cbz	r0, .L127
 465:Middlewares/lvgl/src/widgets/lv_table.c **** }
 2678              		.loc 1 465 22 is_stmt 1 discriminator 1 view .LVU952
 2679 003c FFF7FEFF 		bl	lv_mem_free
 2680              	.LVL289:
 2681              	.L127:
 466:Middlewares/lvgl/src/widgets/lv_table.c **** 
 2682              		.loc 1 466 1 is_stmt 0 view .LVU953
 2683 0040 38BD     		pop	{r3, r4, r5, pc}
 466:Middlewares/lvgl/src/widgets/lv_table.c **** 
 2684              		.loc 1 466 1 view .LVU954
 2685              		.cfi_endproc
 2686              	.LFE162:
 2688              		.section	.text.lv_table_constructor,"ax",%progbits
 2689              		.align	1
 2690              		.syntax unified
 2691              		.thumb
 2692              		.thumb_func
 2693              		.fpu softvfp
 2695              	lv_table_constructor:
 2696              	.LVL290:
 2697              	.LFB161:
 433:Middlewares/lvgl/src/widgets/lv_table.c ****     LV_UNUSED(class_p);
 2698              		.loc 1 433 1 is_stmt 1 view -0
 2699              		.cfi_startproc
 2700              		@ args = 0, pretend = 0, frame = 0
 2701              		@ frame_needed = 0, uses_anonymous_args = 0
 433:Middlewares/lvgl/src/widgets/lv_table.c ****     LV_UNUSED(class_p);
 2702              		.loc 1 433 1 is_stmt 0 view .LVU956
 2703 0000 10B5     		push	{r4, lr}
 2704              	.LCFI18:
ARM GAS  /tmp/ccTYGLnU.s 			page 89


 2705              		.cfi_def_cfa_offset 8
 2706              		.cfi_offset 4, -8
 2707              		.cfi_offset 14, -4
 2708 0002 0C46     		mov	r4, r1
 434:Middlewares/lvgl/src/widgets/lv_table.c ****     LV_TRACE_OBJ_CREATE("begin");
 2709              		.loc 1 434 5 is_stmt 1 view .LVU957
 435:Middlewares/lvgl/src/widgets/lv_table.c **** 
 2710              		.loc 1 435 33 view .LVU958
 437:Middlewares/lvgl/src/widgets/lv_table.c **** 
 2711              		.loc 1 437 5 view .LVU959
 2712              	.LVL291:
 439:Middlewares/lvgl/src/widgets/lv_table.c ****     table->row_cnt = 1;
 2713              		.loc 1 439 5 view .LVU960
 439:Middlewares/lvgl/src/widgets/lv_table.c ****     table->row_cnt = 1;
 2714              		.loc 1 439 20 is_stmt 0 view .LVU961
 2715 0004 0123     		movs	r3, #1
 2716 0006 8B84     		strh	r3, [r1, #36]	@ movhi
 440:Middlewares/lvgl/src/widgets/lv_table.c ****     table->col_w = lv_mem_alloc(table->col_cnt * sizeof(table->col_w[0]));
 2717              		.loc 1 440 5 is_stmt 1 view .LVU962
 440:Middlewares/lvgl/src/widgets/lv_table.c ****     table->col_w = lv_mem_alloc(table->col_cnt * sizeof(table->col_w[0]));
 2718              		.loc 1 440 20 is_stmt 0 view .LVU963
 2719 0008 CB84     		strh	r3, [r1, #38]	@ movhi
 441:Middlewares/lvgl/src/widgets/lv_table.c ****     table->row_h = lv_mem_alloc(table->row_cnt * sizeof(table->row_h[0]));
 2720              		.loc 1 441 5 is_stmt 1 view .LVU964
 441:Middlewares/lvgl/src/widgets/lv_table.c ****     table->row_h = lv_mem_alloc(table->row_cnt * sizeof(table->row_h[0]));
 2721              		.loc 1 441 20 is_stmt 0 view .LVU965
 2722 000a 0220     		movs	r0, #2
 2723              	.LVL292:
 441:Middlewares/lvgl/src/widgets/lv_table.c ****     table->row_h = lv_mem_alloc(table->row_cnt * sizeof(table->row_h[0]));
 2724              		.loc 1 441 20 view .LVU966
 2725 000c FFF7FEFF 		bl	lv_mem_alloc
 2726              	.LVL293:
 441:Middlewares/lvgl/src/widgets/lv_table.c ****     table->row_h = lv_mem_alloc(table->row_cnt * sizeof(table->row_h[0]));
 2727              		.loc 1 441 18 view .LVU967
 2728 0010 2063     		str	r0, [r4, #48]
 442:Middlewares/lvgl/src/widgets/lv_table.c ****     table->col_w[0] = LV_DPI_DEF;
 2729              		.loc 1 442 5 is_stmt 1 view .LVU968
 442:Middlewares/lvgl/src/widgets/lv_table.c ****     table->col_w[0] = LV_DPI_DEF;
 2730              		.loc 1 442 38 is_stmt 0 view .LVU969
 2731 0012 E08C     		ldrh	r0, [r4, #38]
 442:Middlewares/lvgl/src/widgets/lv_table.c ****     table->col_w[0] = LV_DPI_DEF;
 2732              		.loc 1 442 20 view .LVU970
 2733 0014 4000     		lsls	r0, r0, #1
 2734 0016 FFF7FEFF 		bl	lv_mem_alloc
 2735              	.LVL294:
 442:Middlewares/lvgl/src/widgets/lv_table.c ****     table->col_w[0] = LV_DPI_DEF;
 2736              		.loc 1 442 18 view .LVU971
 2737 001a E062     		str	r0, [r4, #44]
 443:Middlewares/lvgl/src/widgets/lv_table.c ****     table->row_h[0] = LV_DPI_DEF;
 2738              		.loc 1 443 5 is_stmt 1 view .LVU972
 443:Middlewares/lvgl/src/widgets/lv_table.c ****     table->row_h[0] = LV_DPI_DEF;
 2739              		.loc 1 443 10 is_stmt 0 view .LVU973
 2740 001c 226B     		ldr	r2, [r4, #48]
 443:Middlewares/lvgl/src/widgets/lv_table.c ****     table->row_h[0] = LV_DPI_DEF;
 2741              		.loc 1 443 21 view .LVU974
 2742 001e 8223     		movs	r3, #130
 2743 0020 1380     		strh	r3, [r2]	@ movhi
ARM GAS  /tmp/ccTYGLnU.s 			page 90


 444:Middlewares/lvgl/src/widgets/lv_table.c ****     table->cell_data = lv_mem_realloc(table->cell_data, table->row_cnt * table->col_cnt * sizeof(ch
 2744              		.loc 1 444 5 is_stmt 1 view .LVU975
 444:Middlewares/lvgl/src/widgets/lv_table.c ****     table->cell_data = lv_mem_realloc(table->cell_data, table->row_cnt * table->col_cnt * sizeof(ch
 2745              		.loc 1 444 10 is_stmt 0 view .LVU976
 2746 0022 E26A     		ldr	r2, [r4, #44]
 444:Middlewares/lvgl/src/widgets/lv_table.c ****     table->cell_data = lv_mem_realloc(table->cell_data, table->row_cnt * table->col_cnt * sizeof(ch
 2747              		.loc 1 444 21 view .LVU977
 2748 0024 1380     		strh	r3, [r2]	@ movhi
 445:Middlewares/lvgl/src/widgets/lv_table.c ****     table->cell_data[0] = NULL;
 2749              		.loc 1 445 5 is_stmt 1 view .LVU978
 445:Middlewares/lvgl/src/widgets/lv_table.c ****     table->cell_data[0] = NULL;
 2750              		.loc 1 445 62 is_stmt 0 view .LVU979
 2751 0026 E18C     		ldrh	r1, [r4, #38]
 445:Middlewares/lvgl/src/widgets/lv_table.c ****     table->cell_data[0] = NULL;
 2752              		.loc 1 445 79 view .LVU980
 2753 0028 A38C     		ldrh	r3, [r4, #36]
 445:Middlewares/lvgl/src/widgets/lv_table.c ****     table->cell_data[0] = NULL;
 2754              		.loc 1 445 72 view .LVU981
 2755 002a 03FB01F1 		mul	r1, r3, r1
 445:Middlewares/lvgl/src/widgets/lv_table.c ****     table->cell_data[0] = NULL;
 2756              		.loc 1 445 24 view .LVU982
 2757 002e 8900     		lsls	r1, r1, #2
 2758 0030 A06A     		ldr	r0, [r4, #40]
 2759 0032 FFF7FEFF 		bl	lv_mem_realloc
 2760              	.LVL295:
 445:Middlewares/lvgl/src/widgets/lv_table.c ****     table->cell_data[0] = NULL;
 2761              		.loc 1 445 22 view .LVU983
 2762 0036 A062     		str	r0, [r4, #40]
 446:Middlewares/lvgl/src/widgets/lv_table.c **** 
 2763              		.loc 1 446 5 is_stmt 1 view .LVU984
 446:Middlewares/lvgl/src/widgets/lv_table.c **** 
 2764              		.loc 1 446 25 is_stmt 0 view .LVU985
 2765 0038 0023     		movs	r3, #0
 2766 003a 0360     		str	r3, [r0]
 448:Middlewares/lvgl/src/widgets/lv_table.c **** }
 2767              		.loc 1 448 36 is_stmt 1 view .LVU986
 449:Middlewares/lvgl/src/widgets/lv_table.c **** 
 2768              		.loc 1 449 1 is_stmt 0 view .LVU987
 2769 003c 10BD     		pop	{r4, pc}
 449:Middlewares/lvgl/src/widgets/lv_table.c **** 
 2770              		.loc 1 449 1 view .LVU988
 2771              		.cfi_endproc
 2772              	.LFE161:
 2774              		.section	.text.lv_table_create,"ax",%progbits
 2775              		.align	1
 2776              		.global	lv_table_create
 2777              		.syntax unified
 2778              		.thumb
 2779              		.thumb_func
 2780              		.fpu softvfp
 2782              	lv_table_create:
 2783              	.LVL296:
 2784              	.LFB147:
  65:Middlewares/lvgl/src/widgets/lv_table.c ****     LV_LOG_INFO("begin")
 2785              		.loc 1 65 1 is_stmt 1 view -0
 2786              		.cfi_startproc
 2787              		@ args = 0, pretend = 0, frame = 0
ARM GAS  /tmp/ccTYGLnU.s 			page 91


 2788              		@ frame_needed = 0, uses_anonymous_args = 0
  65:Middlewares/lvgl/src/widgets/lv_table.c ****     LV_LOG_INFO("begin")
 2789              		.loc 1 65 1 is_stmt 0 view .LVU990
 2790 0000 10B5     		push	{r4, lr}
 2791              	.LCFI19:
 2792              		.cfi_def_cfa_offset 8
 2793              		.cfi_offset 4, -8
 2794              		.cfi_offset 14, -4
 2795 0002 0146     		mov	r1, r0
  67:Middlewares/lvgl/src/widgets/lv_table.c ****     lv_obj_class_init_obj(obj);
 2796              		.loc 1 67 5 is_stmt 1 view .LVU991
  67:Middlewares/lvgl/src/widgets/lv_table.c ****     lv_obj_class_init_obj(obj);
 2797              		.loc 1 67 22 is_stmt 0 view .LVU992
 2798 0004 0348     		ldr	r0, .L139
 2799              	.LVL297:
  67:Middlewares/lvgl/src/widgets/lv_table.c ****     lv_obj_class_init_obj(obj);
 2800              		.loc 1 67 22 view .LVU993
 2801 0006 FFF7FEFF 		bl	lv_obj_class_create_obj
 2802              	.LVL298:
  67:Middlewares/lvgl/src/widgets/lv_table.c ****     lv_obj_class_init_obj(obj);
 2803              		.loc 1 67 22 view .LVU994
 2804 000a 0446     		mov	r4, r0
 2805              	.LVL299:
  68:Middlewares/lvgl/src/widgets/lv_table.c ****     return obj;
 2806              		.loc 1 68 5 is_stmt 1 view .LVU995
 2807 000c FFF7FEFF 		bl	lv_obj_class_init_obj
 2808              	.LVL300:
  69:Middlewares/lvgl/src/widgets/lv_table.c **** }
 2809              		.loc 1 69 5 view .LVU996
  70:Middlewares/lvgl/src/widgets/lv_table.c **** 
 2810              		.loc 1 70 1 is_stmt 0 view .LVU997
 2811 0010 2046     		mov	r0, r4
 2812 0012 10BD     		pop	{r4, pc}
 2813              	.LVL301:
 2814              	.L140:
  70:Middlewares/lvgl/src/widgets/lv_table.c **** 
 2815              		.loc 1 70 1 view .LVU998
 2816              		.align	2
 2817              	.L139:
 2818 0014 00000000 		.word	.LANCHOR0
 2819              		.cfi_endproc
 2820              	.LFE147:
 2822              		.section	.text.lv_table_set_row_cnt,"ax",%progbits
 2823              		.align	1
 2824              		.global	lv_table_set_row_cnt
 2825              		.syntax unified
 2826              		.thumb
 2827              		.thumb_func
 2828              		.fpu softvfp
 2830              	lv_table_set_row_cnt:
 2831              	.LVL302:
 2832              	.LFB150:
 206:Middlewares/lvgl/src/widgets/lv_table.c ****     LV_ASSERT_OBJ(obj, MY_CLASS);
 2833              		.loc 1 206 1 is_stmt 1 view -0
 2834              		.cfi_startproc
 2835              		@ args = 0, pretend = 0, frame = 0
 2836              		@ frame_needed = 0, uses_anonymous_args = 0
ARM GAS  /tmp/ccTYGLnU.s 			page 92


 206:Middlewares/lvgl/src/widgets/lv_table.c ****     LV_ASSERT_OBJ(obj, MY_CLASS);
 2837              		.loc 1 206 1 is_stmt 0 view .LVU1000
 2838 0000 2DE9F041 		push	{r4, r5, r6, r7, r8, lr}
 2839              	.LCFI20:
 2840              		.cfi_def_cfa_offset 24
 2841              		.cfi_offset 4, -24
 2842              		.cfi_offset 5, -20
 2843              		.cfi_offset 6, -16
 2844              		.cfi_offset 7, -12
 2845              		.cfi_offset 8, -8
 2846              		.cfi_offset 14, -4
 2847 0004 0446     		mov	r4, r0
 2848 0006 0E46     		mov	r6, r1
 207:Middlewares/lvgl/src/widgets/lv_table.c **** 
 2849              		.loc 1 207 5 is_stmt 1 view .LVU1001
 207:Middlewares/lvgl/src/widgets/lv_table.c **** 
 2850              		.loc 1 207 5 view .LVU1002
 207:Middlewares/lvgl/src/widgets/lv_table.c **** 
 2851              		.loc 1 207 5 view .LVU1003
 209:Middlewares/lvgl/src/widgets/lv_table.c ****     uint16_t old_row_cnt = table->row_cnt;
 2852              		.loc 1 209 5 view .LVU1004
 2853              	.LVL303:
 210:Middlewares/lvgl/src/widgets/lv_table.c ****     table->row_cnt         = row_cnt;
 2854              		.loc 1 210 5 view .LVU1005
 210:Middlewares/lvgl/src/widgets/lv_table.c ****     table->row_cnt         = row_cnt;
 2855              		.loc 1 210 14 is_stmt 0 view .LVU1006
 2856 0008 C78C     		ldrh	r7, [r0, #38]
 2857              	.LVL304:
 211:Middlewares/lvgl/src/widgets/lv_table.c **** 
 2858              		.loc 1 211 5 is_stmt 1 view .LVU1007
 211:Middlewares/lvgl/src/widgets/lv_table.c **** 
 2859              		.loc 1 211 28 is_stmt 0 view .LVU1008
 2860 000a C184     		strh	r1, [r0, #38]	@ movhi
 213:Middlewares/lvgl/src/widgets/lv_table.c ****     LV_ASSERT_MALLOC(table->row_h);
 2861              		.loc 1 213 5 is_stmt 1 view .LVU1009
 213:Middlewares/lvgl/src/widgets/lv_table.c ****     LV_ASSERT_MALLOC(table->row_h);
 2862              		.loc 1 213 20 is_stmt 0 view .LVU1010
 2863 000c 4900     		lsls	r1, r1, #1
 2864              	.LVL305:
 213:Middlewares/lvgl/src/widgets/lv_table.c ****     LV_ASSERT_MALLOC(table->row_h);
 2865              		.loc 1 213 20 view .LVU1011
 2866 000e C06A     		ldr	r0, [r0, #44]
 2867              	.LVL306:
 213:Middlewares/lvgl/src/widgets/lv_table.c ****     LV_ASSERT_MALLOC(table->row_h);
 2868              		.loc 1 213 20 view .LVU1012
 2869 0010 FFF7FEFF 		bl	lv_mem_realloc
 2870              	.LVL307:
 213:Middlewares/lvgl/src/widgets/lv_table.c ****     LV_ASSERT_MALLOC(table->row_h);
 2871              		.loc 1 213 18 view .LVU1013
 2872 0014 E062     		str	r0, [r4, #44]
 214:Middlewares/lvgl/src/widgets/lv_table.c ****     if(table->row_h == NULL) return;
 2873              		.loc 1 214 5 is_stmt 1 view .LVU1014
 214:Middlewares/lvgl/src/widgets/lv_table.c ****     if(table->row_h == NULL) return;
 2874              		.loc 1 214 5 view .LVU1015
 2875 0016 50B1     		cbz	r0, .L143
 214:Middlewares/lvgl/src/widgets/lv_table.c ****     if(table->row_h == NULL) return;
 2876              		.loc 1 214 5 view .LVU1016
ARM GAS  /tmp/ccTYGLnU.s 			page 93


 214:Middlewares/lvgl/src/widgets/lv_table.c ****     if(table->row_h == NULL) return;
 2877              		.loc 1 214 35 view .LVU1017
 215:Middlewares/lvgl/src/widgets/lv_table.c **** 
 2878              		.loc 1 215 5 view .LVU1018
 218:Middlewares/lvgl/src/widgets/lv_table.c ****         uint16_t old_cell_cnt = old_row_cnt * table->col_cnt;
 2879              		.loc 1 218 5 view .LVU1019
 218:Middlewares/lvgl/src/widgets/lv_table.c ****         uint16_t old_cell_cnt = old_row_cnt * table->col_cnt;
 2880              		.loc 1 218 7 is_stmt 0 view .LVU1020
 2881 0018 B742     		cmp	r7, r6
 2882 001a 11D9     		bls	.L144
 2883              	.LBB160:
 219:Middlewares/lvgl/src/widgets/lv_table.c ****         uint32_t new_cell_cnt = table->col_cnt * table->row_cnt;
 2884              		.loc 1 219 9 is_stmt 1 view .LVU1021
 219:Middlewares/lvgl/src/widgets/lv_table.c ****         uint32_t new_cell_cnt = table->col_cnt * table->row_cnt;
 2885              		.loc 1 219 52 is_stmt 0 view .LVU1022
 2886 001c A58C     		ldrh	r5, [r4, #36]
 219:Middlewares/lvgl/src/widgets/lv_table.c ****         uint32_t new_cell_cnt = table->col_cnt * table->row_cnt;
 2887              		.loc 1 219 18 view .LVU1023
 2888 001e 07FB05F8 		mul	r8, r7, r5
 2889 0022 1FFA88F8 		uxth	r8, r8
 2890              	.LVL308:
 220:Middlewares/lvgl/src/widgets/lv_table.c ****         uint32_t i;
 2891              		.loc 1 220 9 is_stmt 1 view .LVU1024
 220:Middlewares/lvgl/src/widgets/lv_table.c ****         uint32_t i;
 2892              		.loc 1 220 55 is_stmt 0 view .LVU1025
 2893 0026 E38C     		ldrh	r3, [r4, #38]
 220:Middlewares/lvgl/src/widgets/lv_table.c ****         uint32_t i;
 2894              		.loc 1 220 48 view .LVU1026
 2895 0028 03FB05F5 		mul	r5, r3, r5
 2896              	.LVL309:
 221:Middlewares/lvgl/src/widgets/lv_table.c ****         for(i = new_cell_cnt; i < old_cell_cnt; i++) {
 2897              		.loc 1 221 9 is_stmt 1 view .LVU1027
 222:Middlewares/lvgl/src/widgets/lv_table.c ****             lv_mem_free(table->cell_data[i]);
 2898              		.loc 1 222 9 view .LVU1028
 222:Middlewares/lvgl/src/widgets/lv_table.c ****             lv_mem_free(table->cell_data[i]);
 2899              		.loc 1 222 9 is_stmt 0 view .LVU1029
 2900 002c 06E0     		b	.L145
 2901              	.LVL310:
 2902              	.L143:
 222:Middlewares/lvgl/src/widgets/lv_table.c ****             lv_mem_free(table->cell_data[i]);
 2903              		.loc 1 222 9 view .LVU1030
 2904              	.LBE160:
 214:Middlewares/lvgl/src/widgets/lv_table.c ****     if(table->row_h == NULL) return;
 2905              		.loc 1 214 5 is_stmt 1 discriminator 1 view .LVU1031
 214:Middlewares/lvgl/src/widgets/lv_table.c ****     if(table->row_h == NULL) return;
 2906              		.loc 1 214 5 discriminator 1 view .LVU1032
 214:Middlewares/lvgl/src/widgets/lv_table.c ****     if(table->row_h == NULL) return;
 2907              		.loc 1 214 5 discriminator 1 view .LVU1033
 214:Middlewares/lvgl/src/widgets/lv_table.c ****     if(table->row_h == NULL) return;
 2908              		.loc 1 214 5 discriminator 1 view .LVU1034
 2909 002e FEE7     		b	.L143
 2910              	.LVL311:
 2911              	.L146:
 2912              	.LBB161:
 223:Middlewares/lvgl/src/widgets/lv_table.c ****         }
 2913              		.loc 1 223 13 discriminator 3 view .LVU1035
 223:Middlewares/lvgl/src/widgets/lv_table.c ****         }
ARM GAS  /tmp/ccTYGLnU.s 			page 94


 2914              		.loc 1 223 30 is_stmt 0 discriminator 3 view .LVU1036
 2915 0030 A36A     		ldr	r3, [r4, #40]
 223:Middlewares/lvgl/src/widgets/lv_table.c ****         }
 2916              		.loc 1 223 13 discriminator 3 view .LVU1037
 2917 0032 53F82500 		ldr	r0, [r3, r5, lsl #2]
 2918 0036 FFF7FEFF 		bl	lv_mem_free
 2919              	.LVL312:
 222:Middlewares/lvgl/src/widgets/lv_table.c ****             lv_mem_free(table->cell_data[i]);
 2920              		.loc 1 222 49 is_stmt 1 discriminator 3 view .LVU1038
 222:Middlewares/lvgl/src/widgets/lv_table.c ****             lv_mem_free(table->cell_data[i]);
 2921              		.loc 1 222 50 is_stmt 0 discriminator 3 view .LVU1039
 2922 003a 0135     		adds	r5, r5, #1
 2923              	.LVL313:
 2924              	.L145:
 222:Middlewares/lvgl/src/widgets/lv_table.c ****             lv_mem_free(table->cell_data[i]);
 2925              		.loc 1 222 31 is_stmt 1 discriminator 1 view .LVU1040
 222:Middlewares/lvgl/src/widgets/lv_table.c ****             lv_mem_free(table->cell_data[i]);
 2926              		.loc 1 222 9 is_stmt 0 discriminator 1 view .LVU1041
 2927 003c A845     		cmp	r8, r5
 2928 003e F7D8     		bhi	.L146
 2929              	.LVL314:
 2930              	.L144:
 222:Middlewares/lvgl/src/widgets/lv_table.c ****             lv_mem_free(table->cell_data[i]);
 2931              		.loc 1 222 9 discriminator 1 view .LVU1042
 2932              	.LBE161:
 227:Middlewares/lvgl/src/widgets/lv_table.c ****     LV_ASSERT_MALLOC(table->cell_data);
 2933              		.loc 1 227 5 is_stmt 1 view .LVU1043
 227:Middlewares/lvgl/src/widgets/lv_table.c ****     LV_ASSERT_MALLOC(table->cell_data);
 2934              		.loc 1 227 62 is_stmt 0 view .LVU1044
 2935 0040 E18C     		ldrh	r1, [r4, #38]
 227:Middlewares/lvgl/src/widgets/lv_table.c ****     LV_ASSERT_MALLOC(table->cell_data);
 2936              		.loc 1 227 79 view .LVU1045
 2937 0042 A38C     		ldrh	r3, [r4, #36]
 227:Middlewares/lvgl/src/widgets/lv_table.c ****     LV_ASSERT_MALLOC(table->cell_data);
 2938              		.loc 1 227 72 view .LVU1046
 2939 0044 03FB01F1 		mul	r1, r3, r1
 227:Middlewares/lvgl/src/widgets/lv_table.c ****     LV_ASSERT_MALLOC(table->cell_data);
 2940              		.loc 1 227 24 view .LVU1047
 2941 0048 8900     		lsls	r1, r1, #2
 2942 004a A06A     		ldr	r0, [r4, #40]
 2943 004c FFF7FEFF 		bl	lv_mem_realloc
 2944              	.LVL315:
 227:Middlewares/lvgl/src/widgets/lv_table.c ****     LV_ASSERT_MALLOC(table->cell_data);
 2945              		.loc 1 227 22 view .LVU1048
 2946 0050 A062     		str	r0, [r4, #40]
 228:Middlewares/lvgl/src/widgets/lv_table.c ****     if(table->cell_data == NULL) return;
 2947              		.loc 1 228 5 is_stmt 1 view .LVU1049
 228:Middlewares/lvgl/src/widgets/lv_table.c ****     if(table->cell_data == NULL) return;
 2948              		.loc 1 228 5 view .LVU1050
 2949 0052 38B1     		cbz	r0, .L148
 228:Middlewares/lvgl/src/widgets/lv_table.c ****     if(table->cell_data == NULL) return;
 2950              		.loc 1 228 5 view .LVU1051
 228:Middlewares/lvgl/src/widgets/lv_table.c ****     if(table->cell_data == NULL) return;
 2951              		.loc 1 228 39 view .LVU1052
 229:Middlewares/lvgl/src/widgets/lv_table.c **** 
 2952              		.loc 1 229 5 view .LVU1053
 232:Middlewares/lvgl/src/widgets/lv_table.c ****         uint32_t old_cell_cnt = old_row_cnt * table->col_cnt;
ARM GAS  /tmp/ccTYGLnU.s 			page 95


 2953              		.loc 1 232 5 view .LVU1054
 232:Middlewares/lvgl/src/widgets/lv_table.c ****         uint32_t old_cell_cnt = old_row_cnt * table->col_cnt;
 2954              		.loc 1 232 7 is_stmt 0 view .LVU1055
 2955 0054 B742     		cmp	r7, r6
 2956 0056 06D3     		bcc	.L151
 2957              	.LVL316:
 2958              	.L149:
 238:Middlewares/lvgl/src/widgets/lv_table.c **** }
 2959              		.loc 1 238 5 is_stmt 1 view .LVU1056
 2960 0058 0021     		movs	r1, #0
 2961 005a 2046     		mov	r0, r4
 2962 005c FFF7FEFF 		bl	refr_size
 2963              	.LVL317:
 239:Middlewares/lvgl/src/widgets/lv_table.c **** 
 2964              		.loc 1 239 1 is_stmt 0 view .LVU1057
 2965 0060 BDE8F081 		pop	{r4, r5, r6, r7, r8, pc}
 2966              	.LVL318:
 2967              	.L148:
 228:Middlewares/lvgl/src/widgets/lv_table.c ****     if(table->cell_data == NULL) return;
 2968              		.loc 1 228 5 is_stmt 1 discriminator 2 view .LVU1058
 228:Middlewares/lvgl/src/widgets/lv_table.c ****     if(table->cell_data == NULL) return;
 2969              		.loc 1 228 5 discriminator 2 view .LVU1059
 228:Middlewares/lvgl/src/widgets/lv_table.c ****     if(table->cell_data == NULL) return;
 2970              		.loc 1 228 5 discriminator 2 view .LVU1060
 228:Middlewares/lvgl/src/widgets/lv_table.c ****     if(table->cell_data == NULL) return;
 2971              		.loc 1 228 5 discriminator 2 view .LVU1061
 2972 0064 FEE7     		b	.L148
 2973              	.L151:
 2974              	.LBB162:
 233:Middlewares/lvgl/src/widgets/lv_table.c ****         uint32_t new_cell_cnt = table->col_cnt * table->row_cnt;
 2975              		.loc 1 233 9 view .LVU1062
 233:Middlewares/lvgl/src/widgets/lv_table.c ****         uint32_t new_cell_cnt = table->col_cnt * table->row_cnt;
 2976              		.loc 1 233 52 is_stmt 0 view .LVU1063
 2977 0066 A38C     		ldrh	r3, [r4, #36]
 233:Middlewares/lvgl/src/widgets/lv_table.c ****         uint32_t new_cell_cnt = table->col_cnt * table->row_cnt;
 2978              		.loc 1 233 45 view .LVU1064
 2979 0068 03FB07F7 		mul	r7, r3, r7
 2980              	.LVL319:
 234:Middlewares/lvgl/src/widgets/lv_table.c ****         lv_memset_00(&table->cell_data[old_cell_cnt], (new_cell_cnt - old_cell_cnt) * sizeof(table-
 2981              		.loc 1 234 9 is_stmt 1 view .LVU1065
 234:Middlewares/lvgl/src/widgets/lv_table.c ****         lv_memset_00(&table->cell_data[old_cell_cnt], (new_cell_cnt - old_cell_cnt) * sizeof(table-
 2982              		.loc 1 234 55 is_stmt 0 view .LVU1066
 2983 006c E18C     		ldrh	r1, [r4, #38]
 234:Middlewares/lvgl/src/widgets/lv_table.c ****         lv_memset_00(&table->cell_data[old_cell_cnt], (new_cell_cnt - old_cell_cnt) * sizeof(table-
 2984              		.loc 1 234 48 view .LVU1067
 2985 006e 01FB03F3 		mul	r3, r1, r3
 2986              	.LVL320:
 235:Middlewares/lvgl/src/widgets/lv_table.c ****     }
 2987              		.loc 1 235 9 is_stmt 1 view .LVU1068
 235:Middlewares/lvgl/src/widgets/lv_table.c ****     }
 2988              		.loc 1 235 69 is_stmt 0 view .LVU1069
 2989 0072 D91B     		subs	r1, r3, r7
 235:Middlewares/lvgl/src/widgets/lv_table.c ****     }
 2990              		.loc 1 235 9 view .LVU1070
 2991 0074 8900     		lsls	r1, r1, #2
 2992 0076 00EB8700 		add	r0, r0, r7, lsl #2
 2993 007a FFF7FEFF 		bl	lv_memset_00
ARM GAS  /tmp/ccTYGLnU.s 			page 96


 2994              	.LVL321:
 235:Middlewares/lvgl/src/widgets/lv_table.c ****     }
 2995              		.loc 1 235 9 view .LVU1071
 2996 007e EBE7     		b	.L149
 2997              	.LBE162:
 2998              		.cfi_endproc
 2999              	.LFE150:
 3001              		.section	.text.lv_table_set_cell_value_fmt,"ax",%progbits
 3002              		.align	1
 3003              		.global	lv_table_set_cell_value_fmt
 3004              		.syntax unified
 3005              		.thumb
 3006              		.thumb_func
 3007              		.fpu softvfp
 3009              	lv_table_set_cell_value_fmt:
 3010              	.LVL322:
 3011              	.LFB149:
 115:Middlewares/lvgl/src/widgets/lv_table.c ****     LV_ASSERT_OBJ(obj, MY_CLASS);
 3012              		.loc 1 115 1 is_stmt 1 view -0
 3013              		.cfi_startproc
 3014              		@ args = 4, pretend = 4, frame = 8
 3015              		@ frame_needed = 0, uses_anonymous_args = 1
 115:Middlewares/lvgl/src/widgets/lv_table.c ****     LV_ASSERT_OBJ(obj, MY_CLASS);
 3016              		.loc 1 115 1 is_stmt 0 view .LVU1073
 3017 0000 08B4     		push	{r3}
 3018              	.LCFI21:
 3019              		.cfi_def_cfa_offset 4
 3020              		.cfi_offset 3, -4
 3021 0002 2DE9F04F 		push	{r4, r5, r6, r7, r8, r9, r10, fp, lr}
 3022              	.LCFI22:
 3023              		.cfi_def_cfa_offset 40
 3024              		.cfi_offset 4, -40
 3025              		.cfi_offset 5, -36
 3026              		.cfi_offset 6, -32
 3027              		.cfi_offset 7, -28
 3028              		.cfi_offset 8, -24
 3029              		.cfi_offset 9, -20
 3030              		.cfi_offset 10, -16
 3031              		.cfi_offset 11, -12
 3032              		.cfi_offset 14, -8
 3033 0006 88B0     		sub	sp, sp, #32
 3034              	.LCFI23:
 3035              		.cfi_def_cfa_offset 72
 3036 0008 DDF84480 		ldr	r8, [sp, #68]
 116:Middlewares/lvgl/src/widgets/lv_table.c ****     LV_ASSERT_NULL(fmt);
 3037              		.loc 1 116 5 is_stmt 1 view .LVU1074
 116:Middlewares/lvgl/src/widgets/lv_table.c ****     LV_ASSERT_NULL(fmt);
 3038              		.loc 1 116 5 view .LVU1075
 116:Middlewares/lvgl/src/widgets/lv_table.c ****     LV_ASSERT_NULL(fmt);
 3039              		.loc 1 116 5 view .LVU1076
 117:Middlewares/lvgl/src/widgets/lv_table.c **** 
 3040              		.loc 1 117 5 view .LVU1077
 117:Middlewares/lvgl/src/widgets/lv_table.c **** 
 3041              		.loc 1 117 5 view .LVU1078
 3042 000c B8F1000F 		cmp	r8, #0
 3043 0010 00F0AB80 		beq	.L154
 3044 0014 0446     		mov	r4, r0
ARM GAS  /tmp/ccTYGLnU.s 			page 97


 3045 0016 0E46     		mov	r6, r1
 3046 0018 1546     		mov	r5, r2
 117:Middlewares/lvgl/src/widgets/lv_table.c **** 
 3047              		.loc 1 117 5 discriminator 2 view .LVU1079
 117:Middlewares/lvgl/src/widgets/lv_table.c **** 
 3048              		.loc 1 117 24 discriminator 2 view .LVU1080
 119:Middlewares/lvgl/src/widgets/lv_table.c ****     if(col >= table->col_cnt) {
 3049              		.loc 1 119 5 discriminator 2 view .LVU1081
 3050              	.LVL323:
 120:Middlewares/lvgl/src/widgets/lv_table.c ****         LV_LOG_WARN("lv_table_set_cell_value: invalid column");
 3051              		.loc 1 120 5 discriminator 2 view .LVU1082
 120:Middlewares/lvgl/src/widgets/lv_table.c ****         LV_LOG_WARN("lv_table_set_cell_value: invalid column");
 3052              		.loc 1 120 20 is_stmt 0 discriminator 2 view .LVU1083
 3053 001a 838C     		ldrh	r3, [r0, #36]
 120:Middlewares/lvgl/src/widgets/lv_table.c ****         LV_LOG_WARN("lv_table_set_cell_value: invalid column");
 3054              		.loc 1 120 7 discriminator 2 view .LVU1084
 3055 001c 9342     		cmp	r3, r2
 3056 001e 40F29F80 		bls	.L152
 126:Middlewares/lvgl/src/widgets/lv_table.c ****         lv_table_set_row_cnt(obj, row + 1);
 3057              		.loc 1 126 5 is_stmt 1 view .LVU1085
 126:Middlewares/lvgl/src/widgets/lv_table.c ****         lv_table_set_row_cnt(obj, row + 1);
 3058              		.loc 1 126 20 is_stmt 0 view .LVU1086
 3059 0022 C38C     		ldrh	r3, [r0, #38]
 126:Middlewares/lvgl/src/widgets/lv_table.c ****         lv_table_set_row_cnt(obj, row + 1);
 3060              		.loc 1 126 7 view .LVU1087
 3061 0024 8B42     		cmp	r3, r1
 3062 0026 40F2A180 		bls	.L163
 3063              	.LVL324:
 3064              	.L157:
 130:Middlewares/lvgl/src/widgets/lv_table.c ****     lv_table_cell_ctrl_t ctrl = 0;
 3065              		.loc 1 130 5 is_stmt 1 view .LVU1088
 130:Middlewares/lvgl/src/widgets/lv_table.c ****     lv_table_cell_ctrl_t ctrl = 0;
 3066              		.loc 1 130 32 is_stmt 0 view .LVU1089
 3067 002a A38C     		ldrh	r3, [r4, #36]
 130:Middlewares/lvgl/src/widgets/lv_table.c ****     lv_table_cell_ctrl_t ctrl = 0;
 3068              		.loc 1 130 42 view .LVU1090
 3069 002c 03FB0655 		mla	r5, r3, r6, r5
 3070              	.LVL325:
 131:Middlewares/lvgl/src/widgets/lv_table.c **** 
 3071              		.loc 1 131 5 is_stmt 1 view .LVU1091
 134:Middlewares/lvgl/src/widgets/lv_table.c **** 
 3072              		.loc 1 134 5 view .LVU1092
 134:Middlewares/lvgl/src/widgets/lv_table.c **** 
 3073              		.loc 1 134 13 is_stmt 0 view .LVU1093
 3074 0030 A36A     		ldr	r3, [r4, #40]
 134:Middlewares/lvgl/src/widgets/lv_table.c **** 
 3075              		.loc 1 134 24 view .LVU1094
 3076 0032 53F82530 		ldr	r3, [r3, r5, lsl #2]
 134:Middlewares/lvgl/src/widgets/lv_table.c **** 
 3077              		.loc 1 134 7 view .LVU1095
 3078 0036 002B     		cmp	r3, #0
 3079 0038 00F09D80 		beq	.L161
 134:Middlewares/lvgl/src/widgets/lv_table.c **** 
 3080              		.loc 1 134 32 is_stmt 1 discriminator 1 view .LVU1096
 134:Middlewares/lvgl/src/widgets/lv_table.c **** 
 3081              		.loc 1 134 36 is_stmt 0 discriminator 1 view .LVU1097
 3082 003c 93F80090 		ldrb	r9, [r3]	@ zero_extendqisi2
ARM GAS  /tmp/ccTYGLnU.s 			page 98


 3083              	.LVL326:
 3084              	.L158:
 136:Middlewares/lvgl/src/widgets/lv_table.c ****     va_start(ap, fmt);
 3085              		.loc 1 136 5 is_stmt 1 view .LVU1098
 137:Middlewares/lvgl/src/widgets/lv_table.c ****     va_copy(ap2, ap);
 3086              		.loc 1 137 5 view .LVU1099
 3087 0040 12AB     		add	r3, sp, #72
 3088 0042 0793     		str	r3, [sp, #28]
 138:Middlewares/lvgl/src/widgets/lv_table.c **** 
 3089              		.loc 1 138 5 view .LVU1100
 3090 0044 0693     		str	r3, [sp, #24]
 141:Middlewares/lvgl/src/widgets/lv_table.c ****     va_end(ap);
 3091              		.loc 1 141 5 view .LVU1101
 141:Middlewares/lvgl/src/widgets/lv_table.c ****     va_end(ap);
 3092              		.loc 1 141 20 is_stmt 0 view .LVU1102
 3093 0046 4246     		mov	r2, r8
 3094 0048 0021     		movs	r1, #0
 3095 004a 0846     		mov	r0, r1
 3096 004c FFF7FEFF 		bl	lv_vsnprintf
 3097              	.LVL327:
 3098 0050 0746     		mov	r7, r0
 3099              	.LVL328:
 142:Middlewares/lvgl/src/widgets/lv_table.c **** 
 3100              		.loc 1 142 5 is_stmt 1 view .LVU1103
 167:Middlewares/lvgl/src/widgets/lv_table.c ****     LV_ASSERT_MALLOC(table->cell_data[cell]);
 3101              		.loc 1 167 5 view .LVU1104
 167:Middlewares/lvgl/src/widgets/lv_table.c ****     LV_ASSERT_MALLOC(table->cell_data[cell]);
 3102              		.loc 1 167 50 is_stmt 0 view .LVU1105
 3103 0052 D4F828A0 		ldr	r10, [r4, #40]
 167:Middlewares/lvgl/src/widgets/lv_table.c ****     LV_ASSERT_MALLOC(table->cell_data[cell]);
 3104              		.loc 1 167 30 view .LVU1106
 3105 0056 811C     		adds	r1, r0, #2
 3106 0058 5AF82500 		ldr	r0, [r10, r5, lsl #2]
 3107              	.LVL329:
 167:Middlewares/lvgl/src/widgets/lv_table.c ****     LV_ASSERT_MALLOC(table->cell_data[cell]);
 3108              		.loc 1 167 30 view .LVU1107
 3109 005c FFF7FEFF 		bl	lv_mem_realloc
 3110              	.LVL330:
 167:Middlewares/lvgl/src/widgets/lv_table.c ****     LV_ASSERT_MALLOC(table->cell_data[cell]);
 3111              		.loc 1 167 28 view .LVU1108
 3112 0060 4AF82500 		str	r0, [r10, r5, lsl #2]
 168:Middlewares/lvgl/src/widgets/lv_table.c ****     if(table->cell_data[cell] == NULL) {
 3113              		.loc 1 168 5 is_stmt 1 view .LVU1109
 168:Middlewares/lvgl/src/widgets/lv_table.c ****     if(table->cell_data[cell] == NULL) {
 3114              		.loc 1 168 5 view .LVU1110
 3115 0064 A36A     		ldr	r3, [r4, #40]
 3116 0066 53F82530 		ldr	r3, [r3, r5, lsl #2]
 3117 006a 002B     		cmp	r3, #0
 3118 006c 00F08680 		beq	.L160
 168:Middlewares/lvgl/src/widgets/lv_table.c ****     if(table->cell_data[cell] == NULL) {
 3119              		.loc 1 168 5 view .LVU1111
 168:Middlewares/lvgl/src/widgets/lv_table.c ****     if(table->cell_data[cell] == NULL) {
 3120              		.loc 1 168 45 view .LVU1112
 169:Middlewares/lvgl/src/widgets/lv_table.c ****         va_end(ap2);
 3121              		.loc 1 169 5 view .LVU1113
 174:Middlewares/lvgl/src/widgets/lv_table.c **** 
 3122              		.loc 1 174 5 view .LVU1114
ARM GAS  /tmp/ccTYGLnU.s 			page 99


 174:Middlewares/lvgl/src/widgets/lv_table.c **** 
 3123              		.loc 1 174 27 is_stmt 0 view .LVU1115
 3124 0070 791C     		adds	r1, r7, #1
 174:Middlewares/lvgl/src/widgets/lv_table.c **** 
 3125              		.loc 1 174 37 view .LVU1116
 3126 0072 0022     		movs	r2, #0
 3127 0074 5A54     		strb	r2, [r3, r1]
 176:Middlewares/lvgl/src/widgets/lv_table.c **** #endif
 3128              		.loc 1 176 5 is_stmt 1 view .LVU1117
 176:Middlewares/lvgl/src/widgets/lv_table.c **** #endif
 3129              		.loc 1 176 24 is_stmt 0 view .LVU1118
 3130 0076 A36A     		ldr	r3, [r4, #40]
 176:Middlewares/lvgl/src/widgets/lv_table.c **** #endif
 3131              		.loc 1 176 35 view .LVU1119
 3132 0078 53F82500 		ldr	r0, [r3, r5, lsl #2]
 176:Middlewares/lvgl/src/widgets/lv_table.c **** #endif
 3133              		.loc 1 176 5 view .LVU1120
 3134 007c 069B     		ldr	r3, [sp, #24]
 3135 007e 4246     		mov	r2, r8
 3136 0080 0130     		adds	r0, r0, #1
 3137 0082 FFF7FEFF 		bl	lv_vsnprintf
 3138              	.LVL331:
 179:Middlewares/lvgl/src/widgets/lv_table.c **** 
 3139              		.loc 1 179 5 is_stmt 1 view .LVU1121
 181:Middlewares/lvgl/src/widgets/lv_table.c **** 
 3140              		.loc 1 181 5 view .LVU1122
 181:Middlewares/lvgl/src/widgets/lv_table.c **** 
 3141              		.loc 1 181 10 is_stmt 0 view .LVU1123
 3142 0086 A36A     		ldr	r3, [r4, #40]
 181:Middlewares/lvgl/src/widgets/lv_table.c **** 
 3143              		.loc 1 181 21 view .LVU1124
 3144 0088 53F82530 		ldr	r3, [r3, r5, lsl #2]
 181:Middlewares/lvgl/src/widgets/lv_table.c **** 
 3145              		.loc 1 181 31 view .LVU1125
 3146 008c 83F80090 		strb	r9, [r3]
 184:Middlewares/lvgl/src/widgets/lv_table.c ****     lv_coord_t cell_right = lv_obj_get_style_pad_right(obj, LV_PART_ITEMS);
 3147              		.loc 1 184 5 is_stmt 1 view .LVU1126
 3148              	.LVL332:
 3149              	.LBB163:
 3150              	.LBI163:
 103:Middlewares/lvgl/src/widgets/../core/lv_obj_style_gen.h **** {
 3151              		.loc 3 103 26 view .LVU1127
 3152              	.LBB164:
 105:Middlewares/lvgl/src/widgets/../core/lv_obj_style_gen.h ****     return (lv_coord_t)v.num;
 3153              		.loc 3 105 5 view .LVU1128
 105:Middlewares/lvgl/src/widgets/../core/lv_obj_style_gen.h ****     return (lv_coord_t)v.num;
 3154              		.loc 3 105 26 is_stmt 0 view .LVU1129
 3155 0090 41F21202 		movw	r2, #4114
 3156 0094 4FF4A021 		mov	r1, #327680
 3157 0098 2046     		mov	r0, r4
 3158 009a FFF7FEFF 		bl	lv_obj_get_style_prop
 3159              	.LVL333:
 106:Middlewares/lvgl/src/widgets/../core/lv_obj_style_gen.h **** }
 3160              		.loc 3 106 5 is_stmt 1 view .LVU1130
 106:Middlewares/lvgl/src/widgets/../core/lv_obj_style_gen.h **** }
 3161              		.loc 3 106 12 is_stmt 0 view .LVU1131
 3162 009e 0FFA80F8 		sxth	r8, r0
ARM GAS  /tmp/ccTYGLnU.s 			page 100


 3163              	.LVL334:
 106:Middlewares/lvgl/src/widgets/../core/lv_obj_style_gen.h **** }
 3164              		.loc 3 106 12 view .LVU1132
 3165              	.LBE164:
 3166              	.LBE163:
 185:Middlewares/lvgl/src/widgets/lv_table.c ****     lv_coord_t cell_top = lv_obj_get_style_pad_top(obj, LV_PART_ITEMS);
 3167              		.loc 1 185 5 is_stmt 1 view .LVU1133
 3168              	.LBB165:
 3169              	.LBI165:
 109:Middlewares/lvgl/src/widgets/../core/lv_obj_style_gen.h **** {
 3170              		.loc 3 109 26 view .LVU1134
 3171              	.LBB166:
 111:Middlewares/lvgl/src/widgets/../core/lv_obj_style_gen.h ****     return (lv_coord_t)v.num;
 3172              		.loc 3 111 5 view .LVU1135
 111:Middlewares/lvgl/src/widgets/../core/lv_obj_style_gen.h ****     return (lv_coord_t)v.num;
 3173              		.loc 3 111 26 is_stmt 0 view .LVU1136
 3174 00a2 41F21302 		movw	r2, #4115
 3175 00a6 4FF4A021 		mov	r1, #327680
 3176 00aa 2046     		mov	r0, r4
 3177 00ac FFF7FEFF 		bl	lv_obj_get_style_prop
 3178              	.LVL335:
 112:Middlewares/lvgl/src/widgets/../core/lv_obj_style_gen.h **** }
 3179              		.loc 3 112 5 is_stmt 1 view .LVU1137
 112:Middlewares/lvgl/src/widgets/../core/lv_obj_style_gen.h **** }
 3180              		.loc 3 112 12 is_stmt 0 view .LVU1138
 3181 00b0 0FFA80F9 		sxth	r9, r0
 3182              	.LVL336:
 112:Middlewares/lvgl/src/widgets/../core/lv_obj_style_gen.h **** }
 3183              		.loc 3 112 12 view .LVU1139
 3184              	.LBE166:
 3185              	.LBE165:
 186:Middlewares/lvgl/src/widgets/lv_table.c ****     lv_coord_t cell_bottom = lv_obj_get_style_pad_bottom(obj, LV_PART_ITEMS);
 3186              		.loc 1 186 5 is_stmt 1 view .LVU1140
 3187              	.LBB167:
 3188              	.LBI167:
  91:Middlewares/lvgl/src/widgets/../core/lv_obj_style_gen.h **** {
 3189              		.loc 3 91 26 view .LVU1141
 3190              	.LBB168:
  93:Middlewares/lvgl/src/widgets/../core/lv_obj_style_gen.h ****     return (lv_coord_t)v.num;
 3191              		.loc 3 93 5 view .LVU1142
  93:Middlewares/lvgl/src/widgets/../core/lv_obj_style_gen.h ****     return (lv_coord_t)v.num;
 3192              		.loc 3 93 26 is_stmt 0 view .LVU1143
 3193 00b4 41F21002 		movw	r2, #4112
 3194 00b8 4FF4A021 		mov	r1, #327680
 3195 00bc 2046     		mov	r0, r4
 3196 00be FFF7FEFF 		bl	lv_obj_get_style_prop
 3197              	.LVL337:
  94:Middlewares/lvgl/src/widgets/../core/lv_obj_style_gen.h **** }
 3198              		.loc 3 94 5 is_stmt 1 view .LVU1144
  94:Middlewares/lvgl/src/widgets/../core/lv_obj_style_gen.h **** }
 3199              		.loc 3 94 12 is_stmt 0 view .LVU1145
 3200 00c2 0FFA80FA 		sxth	r10, r0
 3201              	.LVL338:
  94:Middlewares/lvgl/src/widgets/../core/lv_obj_style_gen.h **** }
 3202              		.loc 3 94 12 view .LVU1146
 3203              	.LBE168:
 3204              	.LBE167:
ARM GAS  /tmp/ccTYGLnU.s 			page 101


 187:Middlewares/lvgl/src/widgets/lv_table.c **** 
 3205              		.loc 1 187 5 is_stmt 1 view .LVU1147
 3206              	.LBB169:
 3207              	.LBI169:
  97:Middlewares/lvgl/src/widgets/../core/lv_obj_style_gen.h **** {
 3208              		.loc 3 97 26 view .LVU1148
 3209              	.LBB170:
  99:Middlewares/lvgl/src/widgets/../core/lv_obj_style_gen.h ****     return (lv_coord_t)v.num;
 3210              		.loc 3 99 5 view .LVU1149
  99:Middlewares/lvgl/src/widgets/../core/lv_obj_style_gen.h ****     return (lv_coord_t)v.num;
 3211              		.loc 3 99 26 is_stmt 0 view .LVU1150
 3212 00c6 41F21102 		movw	r2, #4113
 3213 00ca 4FF4A021 		mov	r1, #327680
 3214 00ce 2046     		mov	r0, r4
 3215 00d0 FFF7FEFF 		bl	lv_obj_get_style_prop
 3216              	.LVL339:
 100:Middlewares/lvgl/src/widgets/../core/lv_obj_style_gen.h **** }
 3217              		.loc 3 100 5 is_stmt 1 view .LVU1151
 100:Middlewares/lvgl/src/widgets/../core/lv_obj_style_gen.h **** }
 3218              		.loc 3 100 12 is_stmt 0 view .LVU1152
 3219 00d4 0FFA80FB 		sxth	fp, r0
 3220              	.LVL340:
 100:Middlewares/lvgl/src/widgets/../core/lv_obj_style_gen.h **** }
 3221              		.loc 3 100 12 view .LVU1153
 3222              	.LBE170:
 3223              	.LBE169:
 189:Middlewares/lvgl/src/widgets/lv_table.c ****     lv_coord_t line_space = lv_obj_get_style_text_line_space(obj, LV_PART_ITEMS);
 3224              		.loc 1 189 5 is_stmt 1 view .LVU1154
 3225              	.LBB171:
 3226              	.LBI171:
 337:Middlewares/lvgl/src/widgets/../core/lv_obj_style_gen.h **** {
 3227              		.loc 3 337 26 view .LVU1155
 3228              	.LBB172:
 339:Middlewares/lvgl/src/widgets/../core/lv_obj_style_gen.h ****     return (lv_coord_t)v.num;
 3229              		.loc 3 339 5 view .LVU1156
 339:Middlewares/lvgl/src/widgets/../core/lv_obj_style_gen.h ****     return (lv_coord_t)v.num;
 3230              		.loc 3 339 26 is_stmt 0 view .LVU1157
 3231 00d8 41F25A42 		movw	r2, #5210
 3232 00dc 4FF4A021 		mov	r1, #327680
 3233 00e0 2046     		mov	r0, r4
 3234 00e2 FFF7FEFF 		bl	lv_obj_get_style_prop
 3235              	.LVL341:
 340:Middlewares/lvgl/src/widgets/../core/lv_obj_style_gen.h **** }
 3236              		.loc 3 340 5 is_stmt 1 view .LVU1158
 340:Middlewares/lvgl/src/widgets/../core/lv_obj_style_gen.h **** }
 3237              		.loc 3 340 12 is_stmt 0 view .LVU1159
 3238 00e6 05B2     		sxth	r5, r0
 3239              	.LVL342:
 340:Middlewares/lvgl/src/widgets/../core/lv_obj_style_gen.h **** }
 3240              		.loc 3 340 12 view .LVU1160
 3241              	.LBE172:
 3242              	.LBE171:
 190:Middlewares/lvgl/src/widgets/lv_table.c ****     const lv_font_t * font = lv_obj_get_style_text_font(obj, LV_PART_ITEMS);
 3243              		.loc 1 190 5 is_stmt 1 view .LVU1161
 3244              	.LBB173:
 3245              	.LBI173:
 343:Middlewares/lvgl/src/widgets/../core/lv_obj_style_gen.h **** {
ARM GAS  /tmp/ccTYGLnU.s 			page 102


 3246              		.loc 3 343 26 view .LVU1162
 3247              	.LBB174:
 345:Middlewares/lvgl/src/widgets/../core/lv_obj_style_gen.h ****     return (lv_coord_t)v.num;
 3248              		.loc 3 345 5 view .LVU1163
 345:Middlewares/lvgl/src/widgets/../core/lv_obj_style_gen.h ****     return (lv_coord_t)v.num;
 3249              		.loc 3 345 26 is_stmt 0 view .LVU1164
 3250 00e8 41F25B42 		movw	r2, #5211
 3251 00ec 4FF4A021 		mov	r1, #327680
 3252 00f0 2046     		mov	r0, r4
 3253 00f2 FFF7FEFF 		bl	lv_obj_get_style_prop
 3254              	.LVL343:
 3255              		.loc 3 346 5 is_stmt 1 view .LVU1165
 3256              		.loc 3 346 12 is_stmt 0 view .LVU1166
 3257 00f6 07B2     		sxth	r7, r0
 3258              	.LVL344:
 3259              		.loc 3 346 12 view .LVU1167
 3260              	.LBE174:
 3261              	.LBE173:
 191:Middlewares/lvgl/src/widgets/lv_table.c **** 
 3262              		.loc 1 191 5 is_stmt 1 view .LVU1168
 3263              	.LBB175:
 3264              	.LBI175:
 331:Middlewares/lvgl/src/widgets/../core/lv_obj_style_gen.h **** {
 3265              		.loc 3 331 33 view .LVU1169
 3266              	.LBB176:
 333:Middlewares/lvgl/src/widgets/../core/lv_obj_style_gen.h ****     return (const lv_font_t *)v.ptr;
 3267              		.loc 3 333 5 view .LVU1170
 333:Middlewares/lvgl/src/widgets/../core/lv_obj_style_gen.h ****     return (const lv_font_t *)v.ptr;
 3268              		.loc 3 333 26 is_stmt 0 view .LVU1171
 3269 00f8 41F25942 		movw	r2, #5209
 3270 00fc 4FF4A021 		mov	r1, #327680
 3271 0100 2046     		mov	r0, r4
 3272 0102 FFF7FEFF 		bl	lv_obj_get_style_prop
 3273              	.LVL345:
 3274 0106 0246     		mov	r2, r0
 334:Middlewares/lvgl/src/widgets/../core/lv_obj_style_gen.h **** }
 3275              		.loc 3 334 5 is_stmt 1 view .LVU1172
 3276              	.LVL346:
 334:Middlewares/lvgl/src/widgets/../core/lv_obj_style_gen.h **** }
 3277              		.loc 3 334 5 is_stmt 0 view .LVU1173
 3278              	.LBE176:
 3279              	.LBE175:
 193:Middlewares/lvgl/src/widgets/lv_table.c ****                                        cell_left, cell_right, cell_top, cell_bottom);
 3280              		.loc 1 193 5 is_stmt 1 view .LVU1174
 193:Middlewares/lvgl/src/widgets/lv_table.c ****                                        cell_left, cell_right, cell_top, cell_bottom);
 3281              		.loc 1 193 20 is_stmt 0 view .LVU1175
 3282 0108 CDF810B0 		str	fp, [sp, #16]
 3283 010c CDF80CA0 		str	r10, [sp, #12]
 3284 0110 CDF80890 		str	r9, [sp, #8]
 3285 0114 CDF80480 		str	r8, [sp, #4]
 3286 0118 0097     		str	r7, [sp]
 3287 011a 2B46     		mov	r3, r5
 3288 011c 3146     		mov	r1, r6
 3289 011e 2046     		mov	r0, r4
 3290              	.LVL347:
 193:Middlewares/lvgl/src/widgets/lv_table.c ****                                        cell_left, cell_right, cell_top, cell_bottom);
 3291              		.loc 1 193 20 view .LVU1176
ARM GAS  /tmp/ccTYGLnU.s 			page 103


 3292 0120 FFF7FEFF 		bl	get_row_height
 3293              	.LVL348:
 193:Middlewares/lvgl/src/widgets/lv_table.c ****                                        cell_left, cell_right, cell_top, cell_bottom);
 3294              		.loc 1 193 20 view .LVU1177
 3295 0124 0546     		mov	r5, r0
 3296              	.LVL349:
 197:Middlewares/lvgl/src/widgets/lv_table.c ****     lv_coord_t maxh = lv_obj_get_style_max_height(obj, LV_PART_ITEMS);
 3297              		.loc 1 197 5 is_stmt 1 view .LVU1178
 3298              	.LBB177:
 3299              	.LBI177:
  25:Middlewares/lvgl/src/widgets/../core/lv_obj_style_gen.h **** {
 3300              		.loc 3 25 26 view .LVU1179
 3301              	.LBB178:
  27:Middlewares/lvgl/src/widgets/../core/lv_obj_style_gen.h ****     return (lv_coord_t)v.num;
 3302              		.loc 3 27 5 view .LVU1180
  27:Middlewares/lvgl/src/widgets/../core/lv_obj_style_gen.h ****     return (lv_coord_t)v.num;
 3303              		.loc 3 27 26 is_stmt 0 view .LVU1181
 3304 0126 41F20502 		movw	r2, #4101
 3305 012a 4FF4A021 		mov	r1, #327680
 3306 012e 2046     		mov	r0, r4
 3307 0130 FFF7FEFF 		bl	lv_obj_get_style_prop
 3308              	.LVL350:
  28:Middlewares/lvgl/src/widgets/../core/lv_obj_style_gen.h **** }
 3309              		.loc 3 28 5 is_stmt 1 view .LVU1182
  28:Middlewares/lvgl/src/widgets/../core/lv_obj_style_gen.h **** }
 3310              		.loc 3 28 12 is_stmt 0 view .LVU1183
 3311 0134 07B2     		sxth	r7, r0
 3312              	.LVL351:
  28:Middlewares/lvgl/src/widgets/../core/lv_obj_style_gen.h **** }
 3313              		.loc 3 28 12 view .LVU1184
 3314              	.LBE178:
 3315              	.LBE177:
 198:Middlewares/lvgl/src/widgets/lv_table.c **** 
 3316              		.loc 1 198 5 is_stmt 1 view .LVU1185
 3317              	.LBB179:
 3318              	.LBI179:
  31:Middlewares/lvgl/src/widgets/../core/lv_obj_style_gen.h **** {
 3319              		.loc 3 31 26 view .LVU1186
 3320              	.LBB180:
  33:Middlewares/lvgl/src/widgets/../core/lv_obj_style_gen.h ****     return (lv_coord_t)v.num;
 3321              		.loc 3 33 5 view .LVU1187
  33:Middlewares/lvgl/src/widgets/../core/lv_obj_style_gen.h ****     return (lv_coord_t)v.num;
 3322              		.loc 3 33 26 is_stmt 0 view .LVU1188
 3323 0136 41F20602 		movw	r2, #4102
 3324 013a 4FF4A021 		mov	r1, #327680
 3325 013e 2046     		mov	r0, r4
 3326 0140 FFF7FEFF 		bl	lv_obj_get_style_prop
 3327              	.LVL352:
  34:Middlewares/lvgl/src/widgets/../core/lv_obj_style_gen.h **** }
 3328              		.loc 3 34 5 is_stmt 1 view .LVU1189
  34:Middlewares/lvgl/src/widgets/../core/lv_obj_style_gen.h **** }
 3329              		.loc 3 34 12 is_stmt 0 view .LVU1190
 3330 0144 03B2     		sxth	r3, r0
 3331              	.LVL353:
  34:Middlewares/lvgl/src/widgets/../core/lv_obj_style_gen.h **** }
 3332              		.loc 3 34 12 view .LVU1191
 3333              	.LBE180:
ARM GAS  /tmp/ccTYGLnU.s 			page 104


 3334              	.LBE179:
 200:Middlewares/lvgl/src/widgets/lv_table.c **** 
 3335              		.loc 1 200 5 is_stmt 1 view .LVU1192
 200:Middlewares/lvgl/src/widgets/lv_table.c **** 
 3336              		.loc 1 200 25 is_stmt 0 view .LVU1193
 3337 0146 9D42     		cmp	r5, r3
 3338 0148 A8BF     		it	ge
 3339 014a 1D46     		movge	r5, r3
 3340              	.LVL354:
 200:Middlewares/lvgl/src/widgets/lv_table.c **** 
 3341              		.loc 1 200 25 view .LVU1194
 3342 014c 2BB2     		sxth	r3, r5
 3343              	.LVL355:
 200:Middlewares/lvgl/src/widgets/lv_table.c **** 
 3344              		.loc 1 200 10 view .LVU1195
 3345 014e E26A     		ldr	r2, [r4, #44]
 200:Middlewares/lvgl/src/widgets/lv_table.c **** 
 3346              		.loc 1 200 25 view .LVU1196
 3347 0150 BB42     		cmp	r3, r7
 3348 0152 B8BF     		it	lt
 3349 0154 3B46     		movlt	r3, r7
 200:Middlewares/lvgl/src/widgets/lv_table.c **** 
 3350              		.loc 1 200 23 view .LVU1197
 3351 0156 22F81630 		strh	r3, [r2, r6, lsl #1]	@ movhi
 202:Middlewares/lvgl/src/widgets/lv_table.c **** }
 3352              		.loc 1 202 5 is_stmt 1 view .LVU1198
 3353 015a 2046     		mov	r0, r4
 3354              	.LVL356:
 202:Middlewares/lvgl/src/widgets/lv_table.c **** }
 3355              		.loc 1 202 5 is_stmt 0 view .LVU1199
 3356 015c FFF7FEFF 		bl	lv_obj_invalidate
 3357              	.LVL357:
 3358              	.L152:
 203:Middlewares/lvgl/src/widgets/lv_table.c **** 
 3359              		.loc 1 203 1 view .LVU1200
 3360 0160 08B0     		add	sp, sp, #32
 3361              	.LCFI24:
 3362              		.cfi_remember_state
 3363              		.cfi_def_cfa_offset 40
 3364              		@ sp needed
 3365 0162 BDE8F04F 		pop	{r4, r5, r6, r7, r8, r9, r10, fp, lr}
 3366              	.LCFI25:
 3367              		.cfi_restore 14
 3368              		.cfi_restore 11
 3369              		.cfi_restore 10
 3370              		.cfi_restore 9
 3371              		.cfi_restore 8
 3372              		.cfi_restore 7
 3373              		.cfi_restore 6
 3374              		.cfi_restore 5
 3375              		.cfi_restore 4
 3376              		.cfi_def_cfa_offset 4
 3377              	.LVL358:
 203:Middlewares/lvgl/src/widgets/lv_table.c **** 
 3378              		.loc 1 203 1 view .LVU1201
 3379 0166 01B0     		add	sp, sp, #4
 3380              	.LCFI26:
ARM GAS  /tmp/ccTYGLnU.s 			page 105


 3381              		.cfi_restore 3
 3382              		.cfi_def_cfa_offset 0
 3383 0168 7047     		bx	lr
 3384              	.LVL359:
 3385              	.L154:
 3386              	.LCFI27:
 3387              		.cfi_restore_state
 117:Middlewares/lvgl/src/widgets/lv_table.c **** 
 3388              		.loc 1 117 5 is_stmt 1 discriminator 1 view .LVU1202
 117:Middlewares/lvgl/src/widgets/lv_table.c **** 
 3389              		.loc 1 117 5 discriminator 1 view .LVU1203
 117:Middlewares/lvgl/src/widgets/lv_table.c **** 
 3390              		.loc 1 117 5 discriminator 1 view .LVU1204
 117:Middlewares/lvgl/src/widgets/lv_table.c **** 
 3391              		.loc 1 117 5 discriminator 1 view .LVU1205
 3392 016a FEE7     		b	.L154
 3393              	.LVL360:
 3394              	.L163:
 127:Middlewares/lvgl/src/widgets/lv_table.c ****     }
 3395              		.loc 1 127 9 view .LVU1206
 3396 016c 0131     		adds	r1, r1, #1
 3397              	.LVL361:
 127:Middlewares/lvgl/src/widgets/lv_table.c ****     }
 3398              		.loc 1 127 9 is_stmt 0 view .LVU1207
 3399 016e 89B2     		uxth	r1, r1
 3400 0170 FFF7FEFF 		bl	lv_table_set_row_cnt
 3401              	.LVL362:
 127:Middlewares/lvgl/src/widgets/lv_table.c ****     }
 3402              		.loc 1 127 9 view .LVU1208
 3403 0174 59E7     		b	.L157
 3404              	.LVL363:
 3405              	.L161:
 131:Middlewares/lvgl/src/widgets/lv_table.c **** 
 3406              		.loc 1 131 26 view .LVU1209
 3407 0176 4FF00009 		mov	r9, #0
 3408 017a 61E7     		b	.L158
 3409              	.LVL364:
 3410              	.L160:
 168:Middlewares/lvgl/src/widgets/lv_table.c ****     if(table->cell_data[cell] == NULL) {
 3411              		.loc 1 168 5 is_stmt 1 discriminator 2 view .LVU1210
 168:Middlewares/lvgl/src/widgets/lv_table.c ****     if(table->cell_data[cell] == NULL) {
 3412              		.loc 1 168 5 discriminator 2 view .LVU1211
 168:Middlewares/lvgl/src/widgets/lv_table.c ****     if(table->cell_data[cell] == NULL) {
 3413              		.loc 1 168 5 discriminator 2 view .LVU1212
 168:Middlewares/lvgl/src/widgets/lv_table.c ****     if(table->cell_data[cell] == NULL) {
 3414              		.loc 1 168 5 discriminator 2 view .LVU1213
 3415 017c FEE7     		b	.L160
 3416              		.cfi_endproc
 3417              	.LFE149:
 3419              		.section	.text.lv_table_set_col_cnt,"ax",%progbits
 3420              		.align	1
 3421              		.global	lv_table_set_col_cnt
 3422              		.syntax unified
 3423              		.thumb
 3424              		.thumb_func
 3425              		.fpu softvfp
 3427              	lv_table_set_col_cnt:
ARM GAS  /tmp/ccTYGLnU.s 			page 106


 3428              	.LVL365:
 3429              	.LFB151:
 242:Middlewares/lvgl/src/widgets/lv_table.c ****     LV_ASSERT_OBJ(obj, MY_CLASS);
 3430              		.loc 1 242 1 view -0
 3431              		.cfi_startproc
 3432              		@ args = 0, pretend = 0, frame = 0
 3433              		@ frame_needed = 0, uses_anonymous_args = 0
 242:Middlewares/lvgl/src/widgets/lv_table.c ****     LV_ASSERT_OBJ(obj, MY_CLASS);
 3434              		.loc 1 242 1 is_stmt 0 view .LVU1215
 3435 0000 2DE9F041 		push	{r4, r5, r6, r7, r8, lr}
 3436              	.LCFI28:
 3437              		.cfi_def_cfa_offset 24
 3438              		.cfi_offset 4, -24
 3439              		.cfi_offset 5, -20
 3440              		.cfi_offset 6, -16
 3441              		.cfi_offset 7, -12
 3442              		.cfi_offset 8, -8
 3443              		.cfi_offset 14, -4
 3444 0004 0446     		mov	r4, r0
 3445 0006 0D46     		mov	r5, r1
 243:Middlewares/lvgl/src/widgets/lv_table.c **** 
 3446              		.loc 1 243 5 is_stmt 1 view .LVU1216
 243:Middlewares/lvgl/src/widgets/lv_table.c **** 
 3447              		.loc 1 243 5 view .LVU1217
 243:Middlewares/lvgl/src/widgets/lv_table.c **** 
 3448              		.loc 1 243 5 view .LVU1218
 245:Middlewares/lvgl/src/widgets/lv_table.c ****     uint16_t old_col_cnt = table->col_cnt;
 3449              		.loc 1 245 5 view .LVU1219
 3450              	.LVL366:
 246:Middlewares/lvgl/src/widgets/lv_table.c ****     table->col_cnt         = col_cnt;
 3451              		.loc 1 246 5 view .LVU1220
 246:Middlewares/lvgl/src/widgets/lv_table.c ****     table->col_cnt         = col_cnt;
 3452              		.loc 1 246 14 is_stmt 0 view .LVU1221
 3453 0008 868C     		ldrh	r6, [r0, #36]
 3454              	.LVL367:
 247:Middlewares/lvgl/src/widgets/lv_table.c ****     table->col_w = lv_mem_realloc(table->col_w, col_cnt * sizeof(table->row_h[0]));
 3455              		.loc 1 247 5 is_stmt 1 view .LVU1222
 247:Middlewares/lvgl/src/widgets/lv_table.c ****     table->col_w = lv_mem_realloc(table->col_w, col_cnt * sizeof(table->row_h[0]));
 3456              		.loc 1 247 28 is_stmt 0 view .LVU1223
 3457 000a 8184     		strh	r1, [r0, #36]	@ movhi
 248:Middlewares/lvgl/src/widgets/lv_table.c ****     LV_ASSERT_MALLOC(table->col_w);
 3458              		.loc 1 248 5 is_stmt 1 view .LVU1224
 248:Middlewares/lvgl/src/widgets/lv_table.c ****     LV_ASSERT_MALLOC(table->col_w);
 3459              		.loc 1 248 20 is_stmt 0 view .LVU1225
 3460 000c 4900     		lsls	r1, r1, #1
 3461              	.LVL368:
 248:Middlewares/lvgl/src/widgets/lv_table.c ****     LV_ASSERT_MALLOC(table->col_w);
 3462              		.loc 1 248 20 view .LVU1226
 3463 000e 006B     		ldr	r0, [r0, #48]
 3464              	.LVL369:
 248:Middlewares/lvgl/src/widgets/lv_table.c ****     LV_ASSERT_MALLOC(table->col_w);
 3465              		.loc 1 248 20 view .LVU1227
 3466 0010 FFF7FEFF 		bl	lv_mem_realloc
 3467              	.LVL370:
 248:Middlewares/lvgl/src/widgets/lv_table.c ****     LV_ASSERT_MALLOC(table->col_w);
 3468              		.loc 1 248 18 view .LVU1228
 3469 0014 2063     		str	r0, [r4, #48]
ARM GAS  /tmp/ccTYGLnU.s 			page 107


 249:Middlewares/lvgl/src/widgets/lv_table.c ****     if(table->col_w == NULL) return;
 3470              		.loc 1 249 5 is_stmt 1 view .LVU1229
 249:Middlewares/lvgl/src/widgets/lv_table.c ****     if(table->col_w == NULL) return;
 3471              		.loc 1 249 5 view .LVU1230
 3472 0016 50B1     		cbz	r0, .L166
 249:Middlewares/lvgl/src/widgets/lv_table.c ****     if(table->col_w == NULL) return;
 3473              		.loc 1 249 5 view .LVU1231
 249:Middlewares/lvgl/src/widgets/lv_table.c ****     if(table->col_w == NULL) return;
 3474              		.loc 1 249 35 view .LVU1232
 250:Middlewares/lvgl/src/widgets/lv_table.c **** 
 3475              		.loc 1 250 5 view .LVU1233
 253:Middlewares/lvgl/src/widgets/lv_table.c ****        uint16_t old_cell_cnt = old_col_cnt * table->row_cnt;
 3476              		.loc 1 253 5 view .LVU1234
 253:Middlewares/lvgl/src/widgets/lv_table.c ****        uint16_t old_cell_cnt = old_col_cnt * table->row_cnt;
 3477              		.loc 1 253 7 is_stmt 0 view .LVU1235
 3478 0018 AE42     		cmp	r6, r5
 3479 001a 11D9     		bls	.L167
 3480              	.LBB181:
 254:Middlewares/lvgl/src/widgets/lv_table.c ****        uint32_t new_cell_cnt = table->col_cnt * table->row_cnt;
 3481              		.loc 1 254 8 is_stmt 1 view .LVU1236
 254:Middlewares/lvgl/src/widgets/lv_table.c ****        uint32_t new_cell_cnt = table->col_cnt * table->row_cnt;
 3482              		.loc 1 254 51 is_stmt 0 view .LVU1237
 3483 001c E38C     		ldrh	r3, [r4, #38]
 254:Middlewares/lvgl/src/widgets/lv_table.c ****        uint32_t new_cell_cnt = table->col_cnt * table->row_cnt;
 3484              		.loc 1 254 17 view .LVU1238
 3485 001e 06FB03F8 		mul	r8, r6, r3
 3486 0022 1FFA88F8 		uxth	r8, r8
 3487              	.LVL371:
 255:Middlewares/lvgl/src/widgets/lv_table.c ****        uint32_t i;
 3488              		.loc 1 255 8 is_stmt 1 view .LVU1239
 255:Middlewares/lvgl/src/widgets/lv_table.c ****        uint32_t i;
 3489              		.loc 1 255 37 is_stmt 0 view .LVU1240
 3490 0026 A78C     		ldrh	r7, [r4, #36]
 255:Middlewares/lvgl/src/widgets/lv_table.c ****        uint32_t i;
 3491              		.loc 1 255 47 view .LVU1241
 3492 0028 03FB07F7 		mul	r7, r3, r7
 3493              	.LVL372:
 256:Middlewares/lvgl/src/widgets/lv_table.c ****        for(i = new_cell_cnt; i < old_cell_cnt; i++) {
 3494              		.loc 1 256 8 is_stmt 1 view .LVU1242
 257:Middlewares/lvgl/src/widgets/lv_table.c ****            lv_mem_free(table->cell_data[i]);
 3495              		.loc 1 257 8 view .LVU1243
 257:Middlewares/lvgl/src/widgets/lv_table.c ****            lv_mem_free(table->cell_data[i]);
 3496              		.loc 1 257 8 is_stmt 0 view .LVU1244
 3497 002c 06E0     		b	.L168
 3498              	.LVL373:
 3499              	.L166:
 257:Middlewares/lvgl/src/widgets/lv_table.c ****            lv_mem_free(table->cell_data[i]);
 3500              		.loc 1 257 8 view .LVU1245
 3501              	.LBE181:
 249:Middlewares/lvgl/src/widgets/lv_table.c ****     if(table->col_w == NULL) return;
 3502              		.loc 1 249 5 is_stmt 1 discriminator 1 view .LVU1246
 249:Middlewares/lvgl/src/widgets/lv_table.c ****     if(table->col_w == NULL) return;
 3503              		.loc 1 249 5 discriminator 1 view .LVU1247
 249:Middlewares/lvgl/src/widgets/lv_table.c ****     if(table->col_w == NULL) return;
 3504              		.loc 1 249 5 discriminator 1 view .LVU1248
 249:Middlewares/lvgl/src/widgets/lv_table.c ****     if(table->col_w == NULL) return;
 3505              		.loc 1 249 5 discriminator 1 view .LVU1249
ARM GAS  /tmp/ccTYGLnU.s 			page 108


 3506 002e FEE7     		b	.L166
 3507              	.LVL374:
 3508              	.L169:
 3509              	.LBB182:
 258:Middlewares/lvgl/src/widgets/lv_table.c ****        }
 3510              		.loc 1 258 12 discriminator 3 view .LVU1250
 258:Middlewares/lvgl/src/widgets/lv_table.c ****        }
 3511              		.loc 1 258 29 is_stmt 0 discriminator 3 view .LVU1251
 3512 0030 A36A     		ldr	r3, [r4, #40]
 258:Middlewares/lvgl/src/widgets/lv_table.c ****        }
 3513              		.loc 1 258 12 discriminator 3 view .LVU1252
 3514 0032 53F82700 		ldr	r0, [r3, r7, lsl #2]
 3515 0036 FFF7FEFF 		bl	lv_mem_free
 3516              	.LVL375:
 257:Middlewares/lvgl/src/widgets/lv_table.c ****            lv_mem_free(table->cell_data[i]);
 3517              		.loc 1 257 48 is_stmt 1 discriminator 3 view .LVU1253
 257:Middlewares/lvgl/src/widgets/lv_table.c ****            lv_mem_free(table->cell_data[i]);
 3518              		.loc 1 257 49 is_stmt 0 discriminator 3 view .LVU1254
 3519 003a 0137     		adds	r7, r7, #1
 3520              	.LVL376:
 3521              	.L168:
 257:Middlewares/lvgl/src/widgets/lv_table.c ****            lv_mem_free(table->cell_data[i]);
 3522              		.loc 1 257 30 is_stmt 1 discriminator 1 view .LVU1255
 257:Middlewares/lvgl/src/widgets/lv_table.c ****            lv_mem_free(table->cell_data[i]);
 3523              		.loc 1 257 8 is_stmt 0 discriminator 1 view .LVU1256
 3524 003c B845     		cmp	r8, r7
 3525 003e F7D8     		bhi	.L169
 3526              	.LVL377:
 3527              	.L167:
 257:Middlewares/lvgl/src/widgets/lv_table.c ****            lv_mem_free(table->cell_data[i]);
 3528              		.loc 1 257 8 discriminator 1 view .LVU1257
 3529              	.LBE182:
 262:Middlewares/lvgl/src/widgets/lv_table.c ****     LV_ASSERT_MALLOC(new_cell_data);
 3530              		.loc 1 262 5 is_stmt 1 view .LVU1258
 262:Middlewares/lvgl/src/widgets/lv_table.c ****     LV_ASSERT_MALLOC(new_cell_data);
 3531              		.loc 1 262 47 is_stmt 0 view .LVU1259
 3532 0040 E08C     		ldrh	r0, [r4, #38]
 262:Middlewares/lvgl/src/widgets/lv_table.c ****     LV_ASSERT_MALLOC(new_cell_data);
 3533              		.loc 1 262 64 view .LVU1260
 3534 0042 A38C     		ldrh	r3, [r4, #36]
 262:Middlewares/lvgl/src/widgets/lv_table.c ****     LV_ASSERT_MALLOC(new_cell_data);
 3535              		.loc 1 262 57 view .LVU1261
 3536 0044 03FB00F0 		mul	r0, r3, r0
 262:Middlewares/lvgl/src/widgets/lv_table.c ****     LV_ASSERT_MALLOC(new_cell_data);
 3537              		.loc 1 262 29 view .LVU1262
 3538 0048 8000     		lsls	r0, r0, #2
 3539 004a FFF7FEFF 		bl	lv_mem_alloc
 3540              	.LVL378:
 263:Middlewares/lvgl/src/widgets/lv_table.c ****     if(new_cell_data == NULL) return;
 3541              		.loc 1 263 5 is_stmt 1 view .LVU1263
 263:Middlewares/lvgl/src/widgets/lv_table.c ****     if(new_cell_data == NULL) return;
 3542              		.loc 1 263 5 view .LVU1264
 3543 004e 0746     		mov	r7, r0
 3544 0050 50B1     		cbz	r0, .L171
 263:Middlewares/lvgl/src/widgets/lv_table.c ****     if(new_cell_data == NULL) return;
 3545              		.loc 1 263 5 view .LVU1265
 263:Middlewares/lvgl/src/widgets/lv_table.c ****     if(new_cell_data == NULL) return;
ARM GAS  /tmp/ccTYGLnU.s 			page 109


 3546              		.loc 1 263 36 view .LVU1266
 264:Middlewares/lvgl/src/widgets/lv_table.c ****     uint32_t new_cell_cnt = table->col_cnt * table->row_cnt;
 3547              		.loc 1 264 5 view .LVU1267
 265:Middlewares/lvgl/src/widgets/lv_table.c ****     lv_memset_00(new_cell_data, new_cell_cnt * sizeof(table->cell_data[0]));
 3548              		.loc 1 265 5 view .LVU1268
 265:Middlewares/lvgl/src/widgets/lv_table.c ****     lv_memset_00(new_cell_data, new_cell_cnt * sizeof(table->cell_data[0]));
 3549              		.loc 1 265 34 is_stmt 0 view .LVU1269
 3550 0052 A18C     		ldrh	r1, [r4, #36]
 265:Middlewares/lvgl/src/widgets/lv_table.c ****     lv_memset_00(new_cell_data, new_cell_cnt * sizeof(table->cell_data[0]));
 3551              		.loc 1 265 51 view .LVU1270
 3552 0054 E38C     		ldrh	r3, [r4, #38]
 265:Middlewares/lvgl/src/widgets/lv_table.c ****     lv_memset_00(new_cell_data, new_cell_cnt * sizeof(table->cell_data[0]));
 3553              		.loc 1 265 44 view .LVU1271
 3554 0056 03FB01F1 		mul	r1, r3, r1
 3555              	.LVL379:
 266:Middlewares/lvgl/src/widgets/lv_table.c **** 
 3556              		.loc 1 266 5 is_stmt 1 view .LVU1272
 3557 005a 8900     		lsls	r1, r1, #2
 3558              	.LVL380:
 266:Middlewares/lvgl/src/widgets/lv_table.c **** 
 3559              		.loc 1 266 5 is_stmt 0 view .LVU1273
 3560 005c FFF7FEFF 		bl	lv_memset_00
 3561              	.LVL381:
 269:Middlewares/lvgl/src/widgets/lv_table.c ****         uint32_t col;
 3562              		.loc 1 269 5 is_stmt 1 view .LVU1274
 269:Middlewares/lvgl/src/widgets/lv_table.c ****         uint32_t col;
 3563              		.loc 1 269 7 is_stmt 0 view .LVU1275
 3564 0060 AE42     		cmp	r6, r5
 3565 0062 09D2     		bcs	.L172
 3566              	.LBB183:
 270:Middlewares/lvgl/src/widgets/lv_table.c ****         for(col = old_col_cnt; col < col_cnt; col++) {
 3567              		.loc 1 270 9 is_stmt 1 view .LVU1276
 271:Middlewares/lvgl/src/widgets/lv_table.c ****             table->col_w[col] = LV_DPI_DEF;
 3568              		.loc 1 271 9 view .LVU1277
 271:Middlewares/lvgl/src/widgets/lv_table.c ****             table->col_w[col] = LV_DPI_DEF;
 3569              		.loc 1 271 17 is_stmt 0 view .LVU1278
 3570 0064 3346     		mov	r3, r6
 3571              	.LVL382:
 271:Middlewares/lvgl/src/widgets/lv_table.c ****             table->col_w[col] = LV_DPI_DEF;
 3572              		.loc 1 271 9 view .LVU1279
 3573 0066 05E0     		b	.L173
 3574              	.LVL383:
 3575              	.L171:
 271:Middlewares/lvgl/src/widgets/lv_table.c ****             table->col_w[col] = LV_DPI_DEF;
 3576              		.loc 1 271 9 view .LVU1280
 3577              	.LBE183:
 263:Middlewares/lvgl/src/widgets/lv_table.c ****     if(new_cell_data == NULL) return;
 3578              		.loc 1 263 5 is_stmt 1 discriminator 2 view .LVU1281
 263:Middlewares/lvgl/src/widgets/lv_table.c ****     if(new_cell_data == NULL) return;
 3579              		.loc 1 263 5 discriminator 2 view .LVU1282
 263:Middlewares/lvgl/src/widgets/lv_table.c ****     if(new_cell_data == NULL) return;
 3580              		.loc 1 263 5 discriminator 2 view .LVU1283
 263:Middlewares/lvgl/src/widgets/lv_table.c ****     if(new_cell_data == NULL) return;
 3581              		.loc 1 263 5 discriminator 2 view .LVU1284
 3582 0068 FEE7     		b	.L171
 3583              	.LVL384:
 3584              	.L174:
ARM GAS  /tmp/ccTYGLnU.s 			page 110


 3585              	.LBB184:
 272:Middlewares/lvgl/src/widgets/lv_table.c ****         }
 3586              		.loc 1 272 13 discriminator 3 view .LVU1285
 272:Middlewares/lvgl/src/widgets/lv_table.c ****         }
 3587              		.loc 1 272 18 is_stmt 0 discriminator 3 view .LVU1286
 3588 006a 226B     		ldr	r2, [r4, #48]
 272:Middlewares/lvgl/src/widgets/lv_table.c ****         }
 3589              		.loc 1 272 31 discriminator 3 view .LVU1287
 3590 006c 8221     		movs	r1, #130
 3591 006e 22F81310 		strh	r1, [r2, r3, lsl #1]	@ movhi
 271:Middlewares/lvgl/src/widgets/lv_table.c ****             table->col_w[col] = LV_DPI_DEF;
 3592              		.loc 1 271 47 is_stmt 1 discriminator 3 view .LVU1288
 271:Middlewares/lvgl/src/widgets/lv_table.c ****             table->col_w[col] = LV_DPI_DEF;
 3593              		.loc 1 271 50 is_stmt 0 discriminator 3 view .LVU1289
 3594 0072 0133     		adds	r3, r3, #1
 3595              	.LVL385:
 3596              	.L173:
 271:Middlewares/lvgl/src/widgets/lv_table.c ****             table->col_w[col] = LV_DPI_DEF;
 3597              		.loc 1 271 32 is_stmt 1 discriminator 1 view .LVU1290
 271:Middlewares/lvgl/src/widgets/lv_table.c ****             table->col_w[col] = LV_DPI_DEF;
 3598              		.loc 1 271 9 is_stmt 0 discriminator 1 view .LVU1291
 3599 0074 9D42     		cmp	r5, r3
 3600 0076 F8D8     		bhi	.L174
 3601              	.LVL386:
 3602              	.L172:
 271:Middlewares/lvgl/src/widgets/lv_table.c ****             table->col_w[col] = LV_DPI_DEF;
 3603              		.loc 1 271 9 discriminator 1 view .LVU1292
 3604              	.LBE184:
 277:Middlewares/lvgl/src/widgets/lv_table.c ****     uint32_t new_col_start;
 3605              		.loc 1 277 5 is_stmt 1 view .LVU1293
 278:Middlewares/lvgl/src/widgets/lv_table.c ****     uint32_t min_col_cnt = LV_MIN(old_col_cnt, col_cnt);
 3606              		.loc 1 278 5 view .LVU1294
 279:Middlewares/lvgl/src/widgets/lv_table.c ****     uint32_t row;
 3607              		.loc 1 279 5 view .LVU1295
 279:Middlewares/lvgl/src/widgets/lv_table.c ****     uint32_t row;
 3608              		.loc 1 279 28 is_stmt 0 view .LVU1296
 3609 0078 B646     		mov	lr, r6
 3610 007a AE42     		cmp	r6, r5
 3611 007c 28BF     		it	cs
 3612 007e AE46     		movcs	lr, r5
 3613              	.LVL387:
 280:Middlewares/lvgl/src/widgets/lv_table.c ****     for(row = 0; row < table->row_cnt; row++) {
 3614              		.loc 1 280 5 is_stmt 1 view .LVU1297
 281:Middlewares/lvgl/src/widgets/lv_table.c ****         old_col_start = row * old_col_cnt;
 3615              		.loc 1 281 5 view .LVU1298
 281:Middlewares/lvgl/src/widgets/lv_table.c ****         old_col_start = row * old_col_cnt;
 3616              		.loc 1 281 13 is_stmt 0 view .LVU1299
 3617 0080 0020     		movs	r0, #0
 281:Middlewares/lvgl/src/widgets/lv_table.c ****         old_col_start = row * old_col_cnt;
 3618              		.loc 1 281 5 view .LVU1300
 3619 0082 07E0     		b	.L175
 3620              	.LVL388:
 3621              	.L177:
 3622              	.LBB185:
 3623              	.LBB186:
 3624              		.file 5 "Middlewares/lvgl/src/widgets/../core/../hal/../misc/lv_mem.h"
   1:Middlewares/lvgl/src/widgets/../core/../hal/../misc/lv_mem.h **** /**
ARM GAS  /tmp/ccTYGLnU.s 			page 111


   2:Middlewares/lvgl/src/widgets/../core/../hal/../misc/lv_mem.h ****  * @file lv_mem.h
   3:Middlewares/lvgl/src/widgets/../core/../hal/../misc/lv_mem.h ****  *
   4:Middlewares/lvgl/src/widgets/../core/../hal/../misc/lv_mem.h ****  */
   5:Middlewares/lvgl/src/widgets/../core/../hal/../misc/lv_mem.h **** 
   6:Middlewares/lvgl/src/widgets/../core/../hal/../misc/lv_mem.h **** #ifndef LV_MEM_H
   7:Middlewares/lvgl/src/widgets/../core/../hal/../misc/lv_mem.h **** #define LV_MEM_H
   8:Middlewares/lvgl/src/widgets/../core/../hal/../misc/lv_mem.h **** 
   9:Middlewares/lvgl/src/widgets/../core/../hal/../misc/lv_mem.h **** #ifdef __cplusplus
  10:Middlewares/lvgl/src/widgets/../core/../hal/../misc/lv_mem.h **** extern "C" {
  11:Middlewares/lvgl/src/widgets/../core/../hal/../misc/lv_mem.h **** #endif
  12:Middlewares/lvgl/src/widgets/../core/../hal/../misc/lv_mem.h **** 
  13:Middlewares/lvgl/src/widgets/../core/../hal/../misc/lv_mem.h **** /*********************
  14:Middlewares/lvgl/src/widgets/../core/../hal/../misc/lv_mem.h ****  *      INCLUDES
  15:Middlewares/lvgl/src/widgets/../core/../hal/../misc/lv_mem.h ****  *********************/
  16:Middlewares/lvgl/src/widgets/../core/../hal/../misc/lv_mem.h **** #include "../lv_conf_internal.h"
  17:Middlewares/lvgl/src/widgets/../core/../hal/../misc/lv_mem.h **** 
  18:Middlewares/lvgl/src/widgets/../core/../hal/../misc/lv_mem.h **** #include <stdint.h>
  19:Middlewares/lvgl/src/widgets/../core/../hal/../misc/lv_mem.h **** #include <stddef.h>
  20:Middlewares/lvgl/src/widgets/../core/../hal/../misc/lv_mem.h **** #include "lv_log.h"
  21:Middlewares/lvgl/src/widgets/../core/../hal/../misc/lv_mem.h **** #include "lv_types.h"
  22:Middlewares/lvgl/src/widgets/../core/../hal/../misc/lv_mem.h **** 
  23:Middlewares/lvgl/src/widgets/../core/../hal/../misc/lv_mem.h **** #if LV_MEMCPY_MEMSET_STD
  24:Middlewares/lvgl/src/widgets/../core/../hal/../misc/lv_mem.h **** #include <string.h>
  25:Middlewares/lvgl/src/widgets/../core/../hal/../misc/lv_mem.h **** #endif
  26:Middlewares/lvgl/src/widgets/../core/../hal/../misc/lv_mem.h **** 
  27:Middlewares/lvgl/src/widgets/../core/../hal/../misc/lv_mem.h **** /*********************
  28:Middlewares/lvgl/src/widgets/../core/../hal/../misc/lv_mem.h ****  *      DEFINES
  29:Middlewares/lvgl/src/widgets/../core/../hal/../misc/lv_mem.h ****  *********************/
  30:Middlewares/lvgl/src/widgets/../core/../hal/../misc/lv_mem.h **** 
  31:Middlewares/lvgl/src/widgets/../core/../hal/../misc/lv_mem.h **** #ifndef LV_MEM_BUF_MAX_NUM
  32:Middlewares/lvgl/src/widgets/../core/../hal/../misc/lv_mem.h **** #define LV_MEM_BUF_MAX_NUM    16
  33:Middlewares/lvgl/src/widgets/../core/../hal/../misc/lv_mem.h **** #endif
  34:Middlewares/lvgl/src/widgets/../core/../hal/../misc/lv_mem.h **** 
  35:Middlewares/lvgl/src/widgets/../core/../hal/../misc/lv_mem.h **** /**********************
  36:Middlewares/lvgl/src/widgets/../core/../hal/../misc/lv_mem.h ****  *      TYPEDEFS
  37:Middlewares/lvgl/src/widgets/../core/../hal/../misc/lv_mem.h ****  **********************/
  38:Middlewares/lvgl/src/widgets/../core/../hal/../misc/lv_mem.h **** 
  39:Middlewares/lvgl/src/widgets/../core/../hal/../misc/lv_mem.h **** /**
  40:Middlewares/lvgl/src/widgets/../core/../hal/../misc/lv_mem.h ****  * Heap information structure.
  41:Middlewares/lvgl/src/widgets/../core/../hal/../misc/lv_mem.h ****  */
  42:Middlewares/lvgl/src/widgets/../core/../hal/../misc/lv_mem.h **** typedef struct {
  43:Middlewares/lvgl/src/widgets/../core/../hal/../misc/lv_mem.h ****     uint32_t total_size; /**< Total heap size*/
  44:Middlewares/lvgl/src/widgets/../core/../hal/../misc/lv_mem.h ****     uint32_t free_cnt;
  45:Middlewares/lvgl/src/widgets/../core/../hal/../misc/lv_mem.h ****     uint32_t free_size; /**< Size of available memory*/
  46:Middlewares/lvgl/src/widgets/../core/../hal/../misc/lv_mem.h ****     uint32_t free_biggest_size;
  47:Middlewares/lvgl/src/widgets/../core/../hal/../misc/lv_mem.h ****     uint32_t used_cnt;
  48:Middlewares/lvgl/src/widgets/../core/../hal/../misc/lv_mem.h ****     uint32_t max_used; /**< Max size of Heap memory used*/
  49:Middlewares/lvgl/src/widgets/../core/../hal/../misc/lv_mem.h ****     uint8_t used_pct; /**< Percentage used*/
  50:Middlewares/lvgl/src/widgets/../core/../hal/../misc/lv_mem.h ****     uint8_t frag_pct; /**< Amount of fragmentation*/
  51:Middlewares/lvgl/src/widgets/../core/../hal/../misc/lv_mem.h **** } lv_mem_monitor_t;
  52:Middlewares/lvgl/src/widgets/../core/../hal/../misc/lv_mem.h **** 
  53:Middlewares/lvgl/src/widgets/../core/../hal/../misc/lv_mem.h **** typedef struct {
  54:Middlewares/lvgl/src/widgets/../core/../hal/../misc/lv_mem.h ****     void * p;
  55:Middlewares/lvgl/src/widgets/../core/../hal/../misc/lv_mem.h ****     uint16_t size;
  56:Middlewares/lvgl/src/widgets/../core/../hal/../misc/lv_mem.h ****     uint8_t used : 1;
  57:Middlewares/lvgl/src/widgets/../core/../hal/../misc/lv_mem.h **** } lv_mem_buf_t;
  58:Middlewares/lvgl/src/widgets/../core/../hal/../misc/lv_mem.h **** 
ARM GAS  /tmp/ccTYGLnU.s 			page 112


  59:Middlewares/lvgl/src/widgets/../core/../hal/../misc/lv_mem.h **** typedef lv_mem_buf_t lv_mem_buf_arr_t[LV_MEM_BUF_MAX_NUM];
  60:Middlewares/lvgl/src/widgets/../core/../hal/../misc/lv_mem.h **** 
  61:Middlewares/lvgl/src/widgets/../core/../hal/../misc/lv_mem.h **** /**********************
  62:Middlewares/lvgl/src/widgets/../core/../hal/../misc/lv_mem.h ****  * GLOBAL PROTOTYPES
  63:Middlewares/lvgl/src/widgets/../core/../hal/../misc/lv_mem.h ****  **********************/
  64:Middlewares/lvgl/src/widgets/../core/../hal/../misc/lv_mem.h **** 
  65:Middlewares/lvgl/src/widgets/../core/../hal/../misc/lv_mem.h **** /**
  66:Middlewares/lvgl/src/widgets/../core/../hal/../misc/lv_mem.h ****  * Initialize the dyn_mem module (work memory and other variables)
  67:Middlewares/lvgl/src/widgets/../core/../hal/../misc/lv_mem.h ****  */
  68:Middlewares/lvgl/src/widgets/../core/../hal/../misc/lv_mem.h **** void lv_mem_init(void);
  69:Middlewares/lvgl/src/widgets/../core/../hal/../misc/lv_mem.h **** 
  70:Middlewares/lvgl/src/widgets/../core/../hal/../misc/lv_mem.h **** /**
  71:Middlewares/lvgl/src/widgets/../core/../hal/../misc/lv_mem.h ****  * Clean up the memory buffer which frees all the allocated memories.
  72:Middlewares/lvgl/src/widgets/../core/../hal/../misc/lv_mem.h ****  * @note It work only if `LV_MEM_CUSTOM == 0`
  73:Middlewares/lvgl/src/widgets/../core/../hal/../misc/lv_mem.h ****  */
  74:Middlewares/lvgl/src/widgets/../core/../hal/../misc/lv_mem.h **** void lv_mem_deinit(void);
  75:Middlewares/lvgl/src/widgets/../core/../hal/../misc/lv_mem.h **** 
  76:Middlewares/lvgl/src/widgets/../core/../hal/../misc/lv_mem.h **** /**
  77:Middlewares/lvgl/src/widgets/../core/../hal/../misc/lv_mem.h ****  * Allocate a memory dynamically
  78:Middlewares/lvgl/src/widgets/../core/../hal/../misc/lv_mem.h ****  * @param size size of the memory to allocate in bytes
  79:Middlewares/lvgl/src/widgets/../core/../hal/../misc/lv_mem.h ****  * @return pointer to the allocated memory
  80:Middlewares/lvgl/src/widgets/../core/../hal/../misc/lv_mem.h ****  */
  81:Middlewares/lvgl/src/widgets/../core/../hal/../misc/lv_mem.h **** void * lv_mem_alloc(size_t size);
  82:Middlewares/lvgl/src/widgets/../core/../hal/../misc/lv_mem.h **** 
  83:Middlewares/lvgl/src/widgets/../core/../hal/../misc/lv_mem.h **** /**
  84:Middlewares/lvgl/src/widgets/../core/../hal/../misc/lv_mem.h ****  * Free an allocated data
  85:Middlewares/lvgl/src/widgets/../core/../hal/../misc/lv_mem.h ****  * @param data pointer to an allocated memory
  86:Middlewares/lvgl/src/widgets/../core/../hal/../misc/lv_mem.h ****  */
  87:Middlewares/lvgl/src/widgets/../core/../hal/../misc/lv_mem.h **** void lv_mem_free(void * data);
  88:Middlewares/lvgl/src/widgets/../core/../hal/../misc/lv_mem.h **** 
  89:Middlewares/lvgl/src/widgets/../core/../hal/../misc/lv_mem.h **** /**
  90:Middlewares/lvgl/src/widgets/../core/../hal/../misc/lv_mem.h ****  * Reallocate a memory with a new size. The old content will be kept.
  91:Middlewares/lvgl/src/widgets/../core/../hal/../misc/lv_mem.h ****  * @param data pointer to an allocated memory.
  92:Middlewares/lvgl/src/widgets/../core/../hal/../misc/lv_mem.h ****  * Its content will be copied to the new memory block and freed
  93:Middlewares/lvgl/src/widgets/../core/../hal/../misc/lv_mem.h ****  * @param new_size the desired new size in byte
  94:Middlewares/lvgl/src/widgets/../core/../hal/../misc/lv_mem.h ****  * @return pointer to the new memory
  95:Middlewares/lvgl/src/widgets/../core/../hal/../misc/lv_mem.h ****  */
  96:Middlewares/lvgl/src/widgets/../core/../hal/../misc/lv_mem.h **** void * lv_mem_realloc(void * data_p, size_t new_size);
  97:Middlewares/lvgl/src/widgets/../core/../hal/../misc/lv_mem.h **** 
  98:Middlewares/lvgl/src/widgets/../core/../hal/../misc/lv_mem.h **** /**
  99:Middlewares/lvgl/src/widgets/../core/../hal/../misc/lv_mem.h ****  *
 100:Middlewares/lvgl/src/widgets/../core/../hal/../misc/lv_mem.h ****  * @return
 101:Middlewares/lvgl/src/widgets/../core/../hal/../misc/lv_mem.h ****  */
 102:Middlewares/lvgl/src/widgets/../core/../hal/../misc/lv_mem.h **** lv_res_t lv_mem_test(void);
 103:Middlewares/lvgl/src/widgets/../core/../hal/../misc/lv_mem.h **** 
 104:Middlewares/lvgl/src/widgets/../core/../hal/../misc/lv_mem.h **** /**
 105:Middlewares/lvgl/src/widgets/../core/../hal/../misc/lv_mem.h ****  * Give information about the work memory of dynamic allocation
 106:Middlewares/lvgl/src/widgets/../core/../hal/../misc/lv_mem.h ****  * @param mon_p pointer to a dm_mon_p variable,
 107:Middlewares/lvgl/src/widgets/../core/../hal/../misc/lv_mem.h ****  *              the result of the analysis will be stored here
 108:Middlewares/lvgl/src/widgets/../core/../hal/../misc/lv_mem.h ****  */
 109:Middlewares/lvgl/src/widgets/../core/../hal/../misc/lv_mem.h **** void lv_mem_monitor(lv_mem_monitor_t * mon_p);
 110:Middlewares/lvgl/src/widgets/../core/../hal/../misc/lv_mem.h **** 
 111:Middlewares/lvgl/src/widgets/../core/../hal/../misc/lv_mem.h **** 
 112:Middlewares/lvgl/src/widgets/../core/../hal/../misc/lv_mem.h **** /**
 113:Middlewares/lvgl/src/widgets/../core/../hal/../misc/lv_mem.h ****  * Get a temporal buffer with the given size.
 114:Middlewares/lvgl/src/widgets/../core/../hal/../misc/lv_mem.h ****  * @param size the required size
 115:Middlewares/lvgl/src/widgets/../core/../hal/../misc/lv_mem.h ****  */
ARM GAS  /tmp/ccTYGLnU.s 			page 113


 116:Middlewares/lvgl/src/widgets/../core/../hal/../misc/lv_mem.h **** void * lv_mem_buf_get(uint32_t size);
 117:Middlewares/lvgl/src/widgets/../core/../hal/../misc/lv_mem.h **** 
 118:Middlewares/lvgl/src/widgets/../core/../hal/../misc/lv_mem.h **** /**
 119:Middlewares/lvgl/src/widgets/../core/../hal/../misc/lv_mem.h ****  * Release a memory buffer
 120:Middlewares/lvgl/src/widgets/../core/../hal/../misc/lv_mem.h ****  * @param p buffer to release
 121:Middlewares/lvgl/src/widgets/../core/../hal/../misc/lv_mem.h ****  */
 122:Middlewares/lvgl/src/widgets/../core/../hal/../misc/lv_mem.h **** void lv_mem_buf_release(void * p);
 123:Middlewares/lvgl/src/widgets/../core/../hal/../misc/lv_mem.h **** 
 124:Middlewares/lvgl/src/widgets/../core/../hal/../misc/lv_mem.h **** /**
 125:Middlewares/lvgl/src/widgets/../core/../hal/../misc/lv_mem.h ****  * Free all memory buffers
 126:Middlewares/lvgl/src/widgets/../core/../hal/../misc/lv_mem.h ****  */
 127:Middlewares/lvgl/src/widgets/../core/../hal/../misc/lv_mem.h **** void lv_mem_buf_free_all(void);
 128:Middlewares/lvgl/src/widgets/../core/../hal/../misc/lv_mem.h **** 
 129:Middlewares/lvgl/src/widgets/../core/../hal/../misc/lv_mem.h **** //! @cond Doxygen_Suppress
 130:Middlewares/lvgl/src/widgets/../core/../hal/../misc/lv_mem.h **** 
 131:Middlewares/lvgl/src/widgets/../core/../hal/../misc/lv_mem.h **** #if LV_MEMCPY_MEMSET_STD
 132:Middlewares/lvgl/src/widgets/../core/../hal/../misc/lv_mem.h **** 
 133:Middlewares/lvgl/src/widgets/../core/../hal/../misc/lv_mem.h **** /**
 134:Middlewares/lvgl/src/widgets/../core/../hal/../misc/lv_mem.h ****  * Wrapper for the standard memcpy
 135:Middlewares/lvgl/src/widgets/../core/../hal/../misc/lv_mem.h ****  * @param dst pointer to the destination buffer
 136:Middlewares/lvgl/src/widgets/../core/../hal/../misc/lv_mem.h ****  * @param src pointer to the source buffer
 137:Middlewares/lvgl/src/widgets/../core/../hal/../misc/lv_mem.h ****  * @param len number of byte to copy
 138:Middlewares/lvgl/src/widgets/../core/../hal/../misc/lv_mem.h ****  */
 139:Middlewares/lvgl/src/widgets/../core/../hal/../misc/lv_mem.h **** static inline void * lv_memcpy(void * dst, const void * src, size_t len)
 140:Middlewares/lvgl/src/widgets/../core/../hal/../misc/lv_mem.h **** {
 141:Middlewares/lvgl/src/widgets/../core/../hal/../misc/lv_mem.h ****     return memcpy(dst, src, len);
 142:Middlewares/lvgl/src/widgets/../core/../hal/../misc/lv_mem.h **** }
 143:Middlewares/lvgl/src/widgets/../core/../hal/../misc/lv_mem.h **** 
 144:Middlewares/lvgl/src/widgets/../core/../hal/../misc/lv_mem.h **** /**
 145:Middlewares/lvgl/src/widgets/../core/../hal/../misc/lv_mem.h ****  * Wrapper for the standard memcpy
 146:Middlewares/lvgl/src/widgets/../core/../hal/../misc/lv_mem.h ****  * @param dst pointer to the destination buffer
 147:Middlewares/lvgl/src/widgets/../core/../hal/../misc/lv_mem.h ****  * @param src pointer to the source buffer
 148:Middlewares/lvgl/src/widgets/../core/../hal/../misc/lv_mem.h ****  * @param len number of byte to copy
 149:Middlewares/lvgl/src/widgets/../core/../hal/../misc/lv_mem.h ****  */
 150:Middlewares/lvgl/src/widgets/../core/../hal/../misc/lv_mem.h **** static inline void * lv_memcpy_small(void * dst, const void * src, size_t len)
 151:Middlewares/lvgl/src/widgets/../core/../hal/../misc/lv_mem.h **** {
 152:Middlewares/lvgl/src/widgets/../core/../hal/../misc/lv_mem.h ****     return memcpy(dst, src, len);
 153:Middlewares/lvgl/src/widgets/../core/../hal/../misc/lv_mem.h **** }
 154:Middlewares/lvgl/src/widgets/../core/../hal/../misc/lv_mem.h **** 
 155:Middlewares/lvgl/src/widgets/../core/../hal/../misc/lv_mem.h **** /**
 156:Middlewares/lvgl/src/widgets/../core/../hal/../misc/lv_mem.h ****  * Wrapper for the standard memset
 157:Middlewares/lvgl/src/widgets/../core/../hal/../misc/lv_mem.h ****  * @param dst pointer to the destination buffer
 158:Middlewares/lvgl/src/widgets/../core/../hal/../misc/lv_mem.h ****  * @param v value to set [0..255]
 159:Middlewares/lvgl/src/widgets/../core/../hal/../misc/lv_mem.h ****  * @param len number of byte to set
 160:Middlewares/lvgl/src/widgets/../core/../hal/../misc/lv_mem.h ****  */
 161:Middlewares/lvgl/src/widgets/../core/../hal/../misc/lv_mem.h **** static inline void lv_memset(void * dst, uint8_t v, size_t len)
 162:Middlewares/lvgl/src/widgets/../core/../hal/../misc/lv_mem.h **** {
 163:Middlewares/lvgl/src/widgets/../core/../hal/../misc/lv_mem.h ****     memset(dst, v, len);
 164:Middlewares/lvgl/src/widgets/../core/../hal/../misc/lv_mem.h **** }
 165:Middlewares/lvgl/src/widgets/../core/../hal/../misc/lv_mem.h **** 
 166:Middlewares/lvgl/src/widgets/../core/../hal/../misc/lv_mem.h **** /**
 167:Middlewares/lvgl/src/widgets/../core/../hal/../misc/lv_mem.h ****  * Wrapper for the standard memset with fixed 0x00 value
 168:Middlewares/lvgl/src/widgets/../core/../hal/../misc/lv_mem.h ****  * @param dst pointer to the destination buffer
 169:Middlewares/lvgl/src/widgets/../core/../hal/../misc/lv_mem.h ****  * @param len number of byte to set
 170:Middlewares/lvgl/src/widgets/../core/../hal/../misc/lv_mem.h ****  */
 171:Middlewares/lvgl/src/widgets/../core/../hal/../misc/lv_mem.h **** static inline void lv_memset_00(void * dst, size_t len)
 172:Middlewares/lvgl/src/widgets/../core/../hal/../misc/lv_mem.h **** {
ARM GAS  /tmp/ccTYGLnU.s 			page 114


 173:Middlewares/lvgl/src/widgets/../core/../hal/../misc/lv_mem.h ****     memset(dst, 0x00, len);
 174:Middlewares/lvgl/src/widgets/../core/../hal/../misc/lv_mem.h **** }
 175:Middlewares/lvgl/src/widgets/../core/../hal/../misc/lv_mem.h **** 
 176:Middlewares/lvgl/src/widgets/../core/../hal/../misc/lv_mem.h **** /**
 177:Middlewares/lvgl/src/widgets/../core/../hal/../misc/lv_mem.h ****  * Wrapper for the standard memset with fixed 0xFF value
 178:Middlewares/lvgl/src/widgets/../core/../hal/../misc/lv_mem.h ****  * @param dst pointer to the destination buffer
 179:Middlewares/lvgl/src/widgets/../core/../hal/../misc/lv_mem.h ****  * @param len number of byte to set
 180:Middlewares/lvgl/src/widgets/../core/../hal/../misc/lv_mem.h ****  */
 181:Middlewares/lvgl/src/widgets/../core/../hal/../misc/lv_mem.h **** static inline void lv_memset_ff(void * dst, size_t len)
 182:Middlewares/lvgl/src/widgets/../core/../hal/../misc/lv_mem.h **** {
 183:Middlewares/lvgl/src/widgets/../core/../hal/../misc/lv_mem.h ****     memset(dst, 0xFF, len);
 184:Middlewares/lvgl/src/widgets/../core/../hal/../misc/lv_mem.h **** }
 185:Middlewares/lvgl/src/widgets/../core/../hal/../misc/lv_mem.h **** 
 186:Middlewares/lvgl/src/widgets/../core/../hal/../misc/lv_mem.h **** #else
 187:Middlewares/lvgl/src/widgets/../core/../hal/../misc/lv_mem.h **** /**
 188:Middlewares/lvgl/src/widgets/../core/../hal/../misc/lv_mem.h ****  * Same as `memcpy` but optimized for 4 byte operation.
 189:Middlewares/lvgl/src/widgets/../core/../hal/../misc/lv_mem.h ****  * @param dst pointer to the destination buffer
 190:Middlewares/lvgl/src/widgets/../core/../hal/../misc/lv_mem.h ****  * @param src pointer to the source buffer
 191:Middlewares/lvgl/src/widgets/../core/../hal/../misc/lv_mem.h ****  * @param len number of byte to copy
 192:Middlewares/lvgl/src/widgets/../core/../hal/../misc/lv_mem.h ****  */
 193:Middlewares/lvgl/src/widgets/../core/../hal/../misc/lv_mem.h **** LV_ATTRIBUTE_FAST_MEM void * lv_memcpy(void * dst, const void * src, size_t len);
 194:Middlewares/lvgl/src/widgets/../core/../hal/../misc/lv_mem.h **** 
 195:Middlewares/lvgl/src/widgets/../core/../hal/../misc/lv_mem.h **** /**
 196:Middlewares/lvgl/src/widgets/../core/../hal/../misc/lv_mem.h ****  * Same as `memcpy` but optimized to copy only a few bytes.
 197:Middlewares/lvgl/src/widgets/../core/../hal/../misc/lv_mem.h ****  * @param dst pointer to the destination buffer
 198:Middlewares/lvgl/src/widgets/../core/../hal/../misc/lv_mem.h ****  * @param src pointer to the source buffer
 199:Middlewares/lvgl/src/widgets/../core/../hal/../misc/lv_mem.h ****  * @param len number of byte to copy
 200:Middlewares/lvgl/src/widgets/../core/../hal/../misc/lv_mem.h ****  */
 201:Middlewares/lvgl/src/widgets/../core/../hal/../misc/lv_mem.h **** LV_ATTRIBUTE_FAST_MEM static inline void * lv_memcpy_small(void * dst, const void * src, size_t len
 202:Middlewares/lvgl/src/widgets/../core/../hal/../misc/lv_mem.h **** {
 203:Middlewares/lvgl/src/widgets/../core/../hal/../misc/lv_mem.h ****     uint8_t * d8 = (uint8_t *)dst;
 204:Middlewares/lvgl/src/widgets/../core/../hal/../misc/lv_mem.h ****     const uint8_t * s8 = (const uint8_t *)src;
 205:Middlewares/lvgl/src/widgets/../core/../hal/../misc/lv_mem.h **** 
 206:Middlewares/lvgl/src/widgets/../core/../hal/../misc/lv_mem.h ****     while(len) {
 207:Middlewares/lvgl/src/widgets/../core/../hal/../misc/lv_mem.h ****         *d8 = *s8;
 3625              		.loc 5 207 9 is_stmt 1 view .LVU1301
 3626              		.loc 5 207 15 is_stmt 0 view .LVU1302
 3627 0084 12F8011B 		ldrb	r1, [r2], #1	@ zero_extendqisi2
 3628              	.LVL389:
 3629              		.loc 5 207 13 view .LVU1303
 3630 0088 0CF8011B 		strb	r1, [ip], #1
 3631              	.LVL390:
 208:Middlewares/lvgl/src/widgets/../core/../hal/../misc/lv_mem.h ****         d8++;
 3632              		.loc 5 208 9 is_stmt 1 view .LVU1304
 209:Middlewares/lvgl/src/widgets/../core/../hal/../misc/lv_mem.h ****         s8++;
 3633              		.loc 5 209 9 view .LVU1305
 210:Middlewares/lvgl/src/widgets/../core/../hal/../misc/lv_mem.h ****         len--;
 3634              		.loc 5 210 9 view .LVU1306
 3635              		.loc 5 210 12 is_stmt 0 view .LVU1307
 3636 008c 013B     		subs	r3, r3, #1
 3637              	.LVL391:
 3638              	.L176:
 206:Middlewares/lvgl/src/widgets/../core/../hal/../misc/lv_mem.h ****         *d8 = *s8;
 3639              		.loc 5 206 10 is_stmt 1 view .LVU1308
 3640 008e 002B     		cmp	r3, #0
 3641 0090 F8D1     		bne	.L177
 211:Middlewares/lvgl/src/widgets/../core/../hal/../misc/lv_mem.h ****     }
ARM GAS  /tmp/ccTYGLnU.s 			page 115


 212:Middlewares/lvgl/src/widgets/../core/../hal/../misc/lv_mem.h **** 
 213:Middlewares/lvgl/src/widgets/../core/../hal/../misc/lv_mem.h ****     return dst;
 3642              		.loc 5 213 5 discriminator 3 view .LVU1309
 3643              	.LVL392:
 3644              		.loc 5 213 5 is_stmt 0 discriminator 3 view .LVU1310
 3645              	.LBE186:
 3646              	.LBE185:
 281:Middlewares/lvgl/src/widgets/lv_table.c ****         old_col_start = row * old_col_cnt;
 3647              		.loc 1 281 40 is_stmt 1 discriminator 3 view .LVU1311
 281:Middlewares/lvgl/src/widgets/lv_table.c ****         old_col_start = row * old_col_cnt;
 3648              		.loc 1 281 43 is_stmt 0 discriminator 3 view .LVU1312
 3649 0092 0130     		adds	r0, r0, #1
 3650              	.LVL393:
 3651              	.L175:
 281:Middlewares/lvgl/src/widgets/lv_table.c ****         old_col_start = row * old_col_cnt;
 3652              		.loc 1 281 18 is_stmt 1 discriminator 1 view .LVU1313
 281:Middlewares/lvgl/src/widgets/lv_table.c ****         old_col_start = row * old_col_cnt;
 3653              		.loc 1 281 29 is_stmt 0 discriminator 1 view .LVU1314
 3654 0094 E38C     		ldrh	r3, [r4, #38]
 281:Middlewares/lvgl/src/widgets/lv_table.c ****         old_col_start = row * old_col_cnt;
 3655              		.loc 1 281 5 discriminator 1 view .LVU1315
 3656 0096 8342     		cmp	r3, r0
 3657 0098 0BD9     		bls	.L180
 282:Middlewares/lvgl/src/widgets/lv_table.c ****         new_col_start = row * col_cnt;
 3658              		.loc 1 282 9 is_stmt 1 discriminator 3 view .LVU1316
 282:Middlewares/lvgl/src/widgets/lv_table.c ****         new_col_start = row * col_cnt;
 3659              		.loc 1 282 23 is_stmt 0 discriminator 3 view .LVU1317
 3660 009a 00FB06F2 		mul	r2, r0, r6
 283:Middlewares/lvgl/src/widgets/lv_table.c **** 
 3661              		.loc 1 283 9 is_stmt 1 discriminator 3 view .LVU1318
 283:Middlewares/lvgl/src/widgets/lv_table.c **** 
 3662              		.loc 1 283 23 is_stmt 0 discriminator 3 view .LVU1319
 3663 009e 00FB05FC 		mul	ip, r0, r5
 3664              	.LVL394:
 285:Middlewares/lvgl/src/widgets/lv_table.c ****     }
 3665              		.loc 1 285 9 is_stmt 1 discriminator 3 view .LVU1320
 285:Middlewares/lvgl/src/widgets/lv_table.c ****     }
 3666              		.loc 1 285 25 is_stmt 0 discriminator 3 view .LVU1321
 3667 00a2 07EB8C0C 		add	ip, r7, ip, lsl #2
 3668              	.LVL395:
 285:Middlewares/lvgl/src/widgets/lv_table.c ****     }
 3669              		.loc 1 285 62 discriminator 3 view .LVU1322
 3670 00a6 A36A     		ldr	r3, [r4, #40]
 285:Middlewares/lvgl/src/widgets/lv_table.c ****     }
 3671              		.loc 1 285 56 discriminator 3 view .LVU1323
 3672 00a8 03EB8202 		add	r2, r3, r2, lsl #2
 285:Middlewares/lvgl/src/widgets/lv_table.c ****     }
 3673              		.loc 1 285 115 discriminator 3 view .LVU1324
 3674 00ac 4FEA8E03 		lsl	r3, lr, #2
 3675              	.LVL396:
 3676              	.LBB188:
 3677              	.LBI185:
 201:Middlewares/lvgl/src/widgets/../core/../hal/../misc/lv_mem.h **** {
 3678              		.loc 5 201 44 is_stmt 1 discriminator 3 view .LVU1325
 3679              	.LBB187:
 203:Middlewares/lvgl/src/widgets/../core/../hal/../misc/lv_mem.h ****     const uint8_t * s8 = (const uint8_t *)src;
 3680              		.loc 5 203 5 discriminator 3 view .LVU1326
ARM GAS  /tmp/ccTYGLnU.s 			page 116


 204:Middlewares/lvgl/src/widgets/../core/../hal/../misc/lv_mem.h **** 
 3681              		.loc 5 204 5 discriminator 3 view .LVU1327
 206:Middlewares/lvgl/src/widgets/../core/../hal/../misc/lv_mem.h ****         *d8 = *s8;
 3682              		.loc 5 206 5 discriminator 3 view .LVU1328
 206:Middlewares/lvgl/src/widgets/../core/../hal/../misc/lv_mem.h ****         *d8 = *s8;
 3683              		.loc 5 206 10 is_stmt 0 discriminator 3 view .LVU1329
 3684 00b0 EDE7     		b	.L176
 3685              	.LVL397:
 3686              	.L180:
 206:Middlewares/lvgl/src/widgets/../core/../hal/../misc/lv_mem.h ****         *d8 = *s8;
 3687              		.loc 5 206 10 discriminator 3 view .LVU1330
 3688              	.LBE187:
 3689              	.LBE188:
 288:Middlewares/lvgl/src/widgets/lv_table.c ****     table->cell_data = new_cell_data;
 3690              		.loc 1 288 5 is_stmt 1 view .LVU1331
 3691 00b2 A06A     		ldr	r0, [r4, #40]
 3692              	.LVL398:
 288:Middlewares/lvgl/src/widgets/lv_table.c ****     table->cell_data = new_cell_data;
 3693              		.loc 1 288 5 is_stmt 0 view .LVU1332
 3694 00b4 FFF7FEFF 		bl	lv_mem_free
 3695              	.LVL399:
 289:Middlewares/lvgl/src/widgets/lv_table.c **** 
 3696              		.loc 1 289 5 is_stmt 1 view .LVU1333
 289:Middlewares/lvgl/src/widgets/lv_table.c **** 
 3697              		.loc 1 289 22 is_stmt 0 view .LVU1334
 3698 00b8 A762     		str	r7, [r4, #40]
 292:Middlewares/lvgl/src/widgets/lv_table.c **** }
 3699              		.loc 1 292 5 is_stmt 1 view .LVU1335
 3700 00ba 0021     		movs	r1, #0
 3701 00bc 2046     		mov	r0, r4
 3702 00be FFF7FEFF 		bl	refr_size
 3703              	.LVL400:
 293:Middlewares/lvgl/src/widgets/lv_table.c **** 
 3704              		.loc 1 293 1 is_stmt 0 view .LVU1336
 3705 00c2 BDE8F081 		pop	{r4, r5, r6, r7, r8, pc}
 293:Middlewares/lvgl/src/widgets/lv_table.c **** 
 3706              		.loc 1 293 1 view .LVU1337
 3707              		.cfi_endproc
 3708              	.LFE151:
 3710              		.section	.text.lv_table_set_cell_value,"ax",%progbits
 3711              		.align	1
 3712              		.global	lv_table_set_cell_value
 3713              		.syntax unified
 3714              		.thumb
 3715              		.thumb_func
 3716              		.fpu softvfp
 3718              	lv_table_set_cell_value:
 3719              	.LVL401:
 3720              	.LFB148:
  77:Middlewares/lvgl/src/widgets/lv_table.c ****     LV_ASSERT_OBJ(obj, MY_CLASS);
 3721              		.loc 1 77 1 is_stmt 1 view -0
 3722              		.cfi_startproc
 3723              		@ args = 0, pretend = 0, frame = 0
 3724              		@ frame_needed = 0, uses_anonymous_args = 0
  78:Middlewares/lvgl/src/widgets/lv_table.c ****     LV_ASSERT_NULL(txt);
 3725              		.loc 1 78 5 view .LVU1339
  78:Middlewares/lvgl/src/widgets/lv_table.c ****     LV_ASSERT_NULL(txt);
ARM GAS  /tmp/ccTYGLnU.s 			page 117


 3726              		.loc 1 78 5 view .LVU1340
  78:Middlewares/lvgl/src/widgets/lv_table.c ****     LV_ASSERT_NULL(txt);
 3727              		.loc 1 78 5 view .LVU1341
  79:Middlewares/lvgl/src/widgets/lv_table.c **** 
 3728              		.loc 1 79 5 view .LVU1342
  79:Middlewares/lvgl/src/widgets/lv_table.c **** 
 3729              		.loc 1 79 5 view .LVU1343
 3730 0000 A3B3     		cbz	r3, .L183
  77:Middlewares/lvgl/src/widgets/lv_table.c ****     LV_ASSERT_OBJ(obj, MY_CLASS);
 3731              		.loc 1 77 1 is_stmt 0 discriminator 2 view .LVU1344
 3732 0002 2DE9F047 		push	{r4, r5, r6, r7, r8, r9, r10, lr}
 3733              	.LCFI29:
 3734              		.cfi_def_cfa_offset 32
 3735              		.cfi_offset 4, -32
 3736              		.cfi_offset 5, -28
 3737              		.cfi_offset 6, -24
 3738              		.cfi_offset 7, -20
 3739              		.cfi_offset 8, -16
 3740              		.cfi_offset 9, -12
 3741              		.cfi_offset 10, -8
 3742              		.cfi_offset 14, -4
 3743 0006 0446     		mov	r4, r0
 3744 0008 0F46     		mov	r7, r1
 3745 000a 1546     		mov	r5, r2
 3746 000c 9946     		mov	r9, r3
  79:Middlewares/lvgl/src/widgets/lv_table.c **** 
 3747              		.loc 1 79 5 is_stmt 1 discriminator 2 view .LVU1345
  79:Middlewares/lvgl/src/widgets/lv_table.c **** 
 3748              		.loc 1 79 24 discriminator 2 view .LVU1346
  81:Middlewares/lvgl/src/widgets/lv_table.c **** 
 3749              		.loc 1 81 5 discriminator 2 view .LVU1347
 3750              	.LVL402:
  84:Middlewares/lvgl/src/widgets/lv_table.c ****     if(row >= table->row_cnt) lv_table_set_row_cnt(obj, row + 1);
 3751              		.loc 1 84 5 discriminator 2 view .LVU1348
  84:Middlewares/lvgl/src/widgets/lv_table.c ****     if(row >= table->row_cnt) lv_table_set_row_cnt(obj, row + 1);
 3752              		.loc 1 84 20 is_stmt 0 discriminator 2 view .LVU1349
 3753 000e 838C     		ldrh	r3, [r0, #36]
 3754              	.LVL403:
  84:Middlewares/lvgl/src/widgets/lv_table.c ****     if(row >= table->row_cnt) lv_table_set_row_cnt(obj, row + 1);
 3755              		.loc 1 84 7 discriminator 2 view .LVU1350
 3756 0010 9342     		cmp	r3, r2
 3757 0012 2CD9     		bls	.L192
 3758              	.LVL404:
 3759              	.L184:
  85:Middlewares/lvgl/src/widgets/lv_table.c **** 
 3760              		.loc 1 85 5 is_stmt 1 view .LVU1351
  85:Middlewares/lvgl/src/widgets/lv_table.c **** 
 3761              		.loc 1 85 20 is_stmt 0 view .LVU1352
 3762 0014 E38C     		ldrh	r3, [r4, #38]
  85:Middlewares/lvgl/src/widgets/lv_table.c **** 
 3763              		.loc 1 85 7 view .LVU1353
 3764 0016 BB42     		cmp	r3, r7
 3765 0018 2ED9     		bls	.L193
 3766              	.L185:
  87:Middlewares/lvgl/src/widgets/lv_table.c ****     lv_table_cell_ctrl_t ctrl = 0;
 3767              		.loc 1 87 5 is_stmt 1 view .LVU1354
  87:Middlewares/lvgl/src/widgets/lv_table.c ****     lv_table_cell_ctrl_t ctrl = 0;
ARM GAS  /tmp/ccTYGLnU.s 			page 118


 3768              		.loc 1 87 32 is_stmt 0 view .LVU1355
 3769 001a A38C     		ldrh	r3, [r4, #36]
  87:Middlewares/lvgl/src/widgets/lv_table.c ****     lv_table_cell_ctrl_t ctrl = 0;
 3770              		.loc 1 87 42 view .LVU1356
 3771 001c 03FB0755 		mla	r5, r3, r7, r5
 3772              	.LVL405:
  88:Middlewares/lvgl/src/widgets/lv_table.c **** 
 3773              		.loc 1 88 5 is_stmt 1 view .LVU1357
  91:Middlewares/lvgl/src/widgets/lv_table.c **** 
 3774              		.loc 1 91 5 view .LVU1358
  91:Middlewares/lvgl/src/widgets/lv_table.c **** 
 3775              		.loc 1 91 13 is_stmt 0 view .LVU1359
 3776 0020 D4F82880 		ldr	r8, [r4, #40]
  91:Middlewares/lvgl/src/widgets/lv_table.c **** 
 3777              		.loc 1 91 24 view .LVU1360
 3778 0024 58F82560 		ldr	r6, [r8, r5, lsl #2]
  91:Middlewares/lvgl/src/widgets/lv_table.c **** 
 3779              		.loc 1 91 7 view .LVU1361
 3780 0028 66B3     		cbz	r6, .L189
  91:Middlewares/lvgl/src/widgets/lv_table.c **** 
 3781              		.loc 1 91 32 is_stmt 1 discriminator 1 view .LVU1362
  91:Middlewares/lvgl/src/widgets/lv_table.c **** 
 3782              		.loc 1 91 37 is_stmt 0 discriminator 1 view .LVU1363
 3783 002a 96F800A0 		ldrb	r10, [r6]	@ zero_extendqisi2
 3784              	.LVL406:
 3785              	.L186:
 102:Middlewares/lvgl/src/widgets/lv_table.c ****     LV_ASSERT_MALLOC(table->cell_data[cell]);
 3786              		.loc 1 102 5 is_stmt 1 view .LVU1364
 102:Middlewares/lvgl/src/widgets/lv_table.c ****     LV_ASSERT_MALLOC(table->cell_data[cell]);
 3787              		.loc 1 102 69 is_stmt 0 view .LVU1365
 3788 002e 4846     		mov	r0, r9
 3789 0030 FFF7FEFF 		bl	strlen
 3790              	.LVL407:
 102:Middlewares/lvgl/src/widgets/lv_table.c ****     LV_ASSERT_MALLOC(table->cell_data[cell]);
 3791              		.loc 1 102 30 view .LVU1366
 3792 0034 811C     		adds	r1, r0, #2
 3793 0036 3046     		mov	r0, r6
 3794 0038 FFF7FEFF 		bl	lv_mem_realloc
 3795              	.LVL408:
 102:Middlewares/lvgl/src/widgets/lv_table.c ****     LV_ASSERT_MALLOC(table->cell_data[cell]);
 3796              		.loc 1 102 28 view .LVU1367
 3797 003c 48F82500 		str	r0, [r8, r5, lsl #2]
 103:Middlewares/lvgl/src/widgets/lv_table.c **** 
 3798              		.loc 1 103 5 is_stmt 1 view .LVU1368
 103:Middlewares/lvgl/src/widgets/lv_table.c **** 
 3799              		.loc 1 103 5 view .LVU1369
 3800 0040 A36A     		ldr	r3, [r4, #40]
 3801 0042 53F82500 		ldr	r0, [r3, r5, lsl #2]
 3802 0046 00B3     		cbz	r0, .L188
 103:Middlewares/lvgl/src/widgets/lv_table.c **** 
 3803              		.loc 1 103 5 discriminator 2 view .LVU1370
 103:Middlewares/lvgl/src/widgets/lv_table.c **** 
 3804              		.loc 1 103 45 discriminator 2 view .LVU1371
 105:Middlewares/lvgl/src/widgets/lv_table.c **** #endif
 3805              		.loc 1 105 5 discriminator 2 view .LVU1372
 3806 0048 4946     		mov	r1, r9
 3807 004a 0130     		adds	r0, r0, #1
ARM GAS  /tmp/ccTYGLnU.s 			page 119


 3808 004c FFF7FEFF 		bl	strcpy
 3809              	.LVL409:
 108:Middlewares/lvgl/src/widgets/lv_table.c ****     refr_size(obj, row);
 3810              		.loc 1 108 5 discriminator 2 view .LVU1373
 108:Middlewares/lvgl/src/widgets/lv_table.c ****     refr_size(obj, row);
 3811              		.loc 1 108 10 is_stmt 0 discriminator 2 view .LVU1374
 3812 0050 A36A     		ldr	r3, [r4, #40]
 108:Middlewares/lvgl/src/widgets/lv_table.c ****     refr_size(obj, row);
 3813              		.loc 1 108 21 discriminator 2 view .LVU1375
 3814 0052 53F82530 		ldr	r3, [r3, r5, lsl #2]
 108:Middlewares/lvgl/src/widgets/lv_table.c ****     refr_size(obj, row);
 3815              		.loc 1 108 31 discriminator 2 view .LVU1376
 3816 0056 83F800A0 		strb	r10, [r3]
 109:Middlewares/lvgl/src/widgets/lv_table.c **** 
 3817              		.loc 1 109 5 is_stmt 1 discriminator 2 view .LVU1377
 3818 005a 3946     		mov	r1, r7
 3819 005c 2046     		mov	r0, r4
 3820 005e FFF7FEFF 		bl	refr_size
 3821              	.LVL410:
 111:Middlewares/lvgl/src/widgets/lv_table.c **** }
 3822              		.loc 1 111 5 discriminator 2 view .LVU1378
 3823 0062 2046     		mov	r0, r4
 3824 0064 FFF7FEFF 		bl	lv_obj_invalidate
 3825              	.LVL411:
 112:Middlewares/lvgl/src/widgets/lv_table.c **** 
 3826              		.loc 1 112 1 is_stmt 0 discriminator 2 view .LVU1379
 3827 0068 BDE8F087 		pop	{r4, r5, r6, r7, r8, r9, r10, pc}
 3828              	.LVL412:
 3829              	.L183:
 3830              	.LCFI30:
 3831              		.cfi_def_cfa_offset 0
 3832              		.cfi_restore 4
 3833              		.cfi_restore 5
 3834              		.cfi_restore 6
 3835              		.cfi_restore 7
 3836              		.cfi_restore 8
 3837              		.cfi_restore 9
 3838              		.cfi_restore 10
 3839              		.cfi_restore 14
  79:Middlewares/lvgl/src/widgets/lv_table.c **** 
 3840              		.loc 1 79 5 is_stmt 1 discriminator 1 view .LVU1380
  79:Middlewares/lvgl/src/widgets/lv_table.c **** 
 3841              		.loc 1 79 5 discriminator 1 view .LVU1381
  79:Middlewares/lvgl/src/widgets/lv_table.c **** 
 3842              		.loc 1 79 5 discriminator 1 view .LVU1382
  79:Middlewares/lvgl/src/widgets/lv_table.c **** 
 3843              		.loc 1 79 5 discriminator 1 view .LVU1383
 3844 006c FEE7     		b	.L183
 3845              	.LVL413:
 3846              	.L192:
 3847              	.LCFI31:
 3848              		.cfi_def_cfa_offset 32
 3849              		.cfi_offset 4, -32
 3850              		.cfi_offset 5, -28
 3851              		.cfi_offset 6, -24
 3852              		.cfi_offset 7, -20
 3853              		.cfi_offset 8, -16
ARM GAS  /tmp/ccTYGLnU.s 			page 120


 3854              		.cfi_offset 9, -12
 3855              		.cfi_offset 10, -8
 3856              		.cfi_offset 14, -4
  84:Middlewares/lvgl/src/widgets/lv_table.c ****     if(row >= table->row_cnt) lv_table_set_row_cnt(obj, row + 1);
 3857              		.loc 1 84 31 discriminator 1 view .LVU1384
 3858 006e 511C     		adds	r1, r2, #1
 3859              	.LVL414:
  84:Middlewares/lvgl/src/widgets/lv_table.c ****     if(row >= table->row_cnt) lv_table_set_row_cnt(obj, row + 1);
 3860              		.loc 1 84 31 is_stmt 0 discriminator 1 view .LVU1385
 3861 0070 89B2     		uxth	r1, r1
 3862 0072 FFF7FEFF 		bl	lv_table_set_col_cnt
 3863              	.LVL415:
  84:Middlewares/lvgl/src/widgets/lv_table.c ****     if(row >= table->row_cnt) lv_table_set_row_cnt(obj, row + 1);
 3864              		.loc 1 84 31 discriminator 1 view .LVU1386
 3865 0076 CDE7     		b	.L184
 3866              	.L193:
  85:Middlewares/lvgl/src/widgets/lv_table.c **** 
 3867              		.loc 1 85 31 is_stmt 1 discriminator 1 view .LVU1387
 3868 0078 791C     		adds	r1, r7, #1
 3869 007a 89B2     		uxth	r1, r1
 3870 007c 2046     		mov	r0, r4
 3871 007e FFF7FEFF 		bl	lv_table_set_row_cnt
 3872              	.LVL416:
 3873 0082 CAE7     		b	.L185
 3874              	.LVL417:
 3875              	.L189:
  88:Middlewares/lvgl/src/widgets/lv_table.c **** 
 3876              		.loc 1 88 26 is_stmt 0 view .LVU1388
 3877 0084 4FF0000A 		mov	r10, #0
 3878 0088 D1E7     		b	.L186
 3879              	.LVL418:
 3880              	.L188:
 103:Middlewares/lvgl/src/widgets/lv_table.c **** 
 3881              		.loc 1 103 5 is_stmt 1 discriminator 2 view .LVU1389
 103:Middlewares/lvgl/src/widgets/lv_table.c **** 
 3882              		.loc 1 103 5 discriminator 2 view .LVU1390
 103:Middlewares/lvgl/src/widgets/lv_table.c **** 
 3883              		.loc 1 103 5 discriminator 2 view .LVU1391
 103:Middlewares/lvgl/src/widgets/lv_table.c **** 
 3884              		.loc 1 103 5 discriminator 2 view .LVU1392
 3885 008a FEE7     		b	.L188
 3886              		.cfi_endproc
 3887              	.LFE148:
 3889              		.section	.text.lv_table_set_col_width,"ax",%progbits
 3890              		.align	1
 3891              		.global	lv_table_set_col_width
 3892              		.syntax unified
 3893              		.thumb
 3894              		.thumb_func
 3895              		.fpu softvfp
 3897              	lv_table_set_col_width:
 3898              	.LVL419:
 3899              	.LFB152:
 296:Middlewares/lvgl/src/widgets/lv_table.c ****     LV_ASSERT_OBJ(obj, MY_CLASS);
 3900              		.loc 1 296 1 view -0
 3901              		.cfi_startproc
 3902              		@ args = 0, pretend = 0, frame = 0
ARM GAS  /tmp/ccTYGLnU.s 			page 121


 3903              		@ frame_needed = 0, uses_anonymous_args = 0
 296:Middlewares/lvgl/src/widgets/lv_table.c ****     LV_ASSERT_OBJ(obj, MY_CLASS);
 3904              		.loc 1 296 1 is_stmt 0 view .LVU1394
 3905 0000 70B5     		push	{r4, r5, r6, lr}
 3906              	.LCFI32:
 3907              		.cfi_def_cfa_offset 16
 3908              		.cfi_offset 4, -16
 3909              		.cfi_offset 5, -12
 3910              		.cfi_offset 6, -8
 3911              		.cfi_offset 14, -4
 3912 0002 0446     		mov	r4, r0
 3913 0004 0D46     		mov	r5, r1
 3914 0006 1646     		mov	r6, r2
 297:Middlewares/lvgl/src/widgets/lv_table.c **** 
 3915              		.loc 1 297 5 is_stmt 1 view .LVU1395
 297:Middlewares/lvgl/src/widgets/lv_table.c **** 
 3916              		.loc 1 297 5 view .LVU1396
 297:Middlewares/lvgl/src/widgets/lv_table.c **** 
 3917              		.loc 1 297 5 view .LVU1397
 299:Middlewares/lvgl/src/widgets/lv_table.c **** 
 3918              		.loc 1 299 5 view .LVU1398
 3919              	.LVL420:
 302:Middlewares/lvgl/src/widgets/lv_table.c **** 
 3920              		.loc 1 302 5 view .LVU1399
 302:Middlewares/lvgl/src/widgets/lv_table.c **** 
 3921              		.loc 1 302 23 is_stmt 0 view .LVU1400
 3922 0008 838C     		ldrh	r3, [r0, #36]
 302:Middlewares/lvgl/src/widgets/lv_table.c **** 
 3923              		.loc 1 302 7 view .LVU1401
 3924 000a 8B42     		cmp	r3, r1
 3925 000c 07D9     		bls	.L197
 3926              	.LVL421:
 3927              	.L195:
 304:Middlewares/lvgl/src/widgets/lv_table.c ****     refr_size(obj, 0) ;
 3928              		.loc 1 304 5 is_stmt 1 view .LVU1402
 304:Middlewares/lvgl/src/widgets/lv_table.c ****     refr_size(obj, 0) ;
 3929              		.loc 1 304 10 is_stmt 0 view .LVU1403
 3930 000e 236B     		ldr	r3, [r4, #48]
 304:Middlewares/lvgl/src/widgets/lv_table.c ****     refr_size(obj, 0) ;
 3931              		.loc 1 304 26 view .LVU1404
 3932 0010 23F81560 		strh	r6, [r3, r5, lsl #1]	@ movhi
 305:Middlewares/lvgl/src/widgets/lv_table.c **** }
 3933              		.loc 1 305 5 is_stmt 1 view .LVU1405
 3934 0014 0021     		movs	r1, #0
 3935 0016 2046     		mov	r0, r4
 3936 0018 FFF7FEFF 		bl	refr_size
 3937              	.LVL422:
 306:Middlewares/lvgl/src/widgets/lv_table.c **** 
 3938              		.loc 1 306 1 is_stmt 0 view .LVU1406
 3939 001c 70BD     		pop	{r4, r5, r6, pc}
 3940              	.LVL423:
 3941              	.L197:
 302:Middlewares/lvgl/src/widgets/lv_table.c **** 
 3942              		.loc 1 302 34 is_stmt 1 discriminator 1 view .LVU1407
 3943 001e 0131     		adds	r1, r1, #1
 3944              	.LVL424:
 302:Middlewares/lvgl/src/widgets/lv_table.c **** 
ARM GAS  /tmp/ccTYGLnU.s 			page 122


 3945              		.loc 1 302 34 is_stmt 0 discriminator 1 view .LVU1408
 3946 0020 89B2     		uxth	r1, r1
 3947 0022 FFF7FEFF 		bl	lv_table_set_col_cnt
 3948              	.LVL425:
 302:Middlewares/lvgl/src/widgets/lv_table.c **** 
 3949              		.loc 1 302 34 discriminator 1 view .LVU1409
 3950 0026 F2E7     		b	.L195
 3951              		.cfi_endproc
 3952              	.LFE152:
 3954              		.section	.text.lv_table_add_cell_ctrl,"ax",%progbits
 3955              		.align	1
 3956              		.global	lv_table_add_cell_ctrl
 3957              		.syntax unified
 3958              		.thumb
 3959              		.thumb_func
 3960              		.fpu softvfp
 3962              	lv_table_add_cell_ctrl:
 3963              	.LVL426:
 3964              	.LFB153:
 309:Middlewares/lvgl/src/widgets/lv_table.c ****     LV_ASSERT_OBJ(obj, MY_CLASS);
 3965              		.loc 1 309 1 is_stmt 1 view -0
 3966              		.cfi_startproc
 3967              		@ args = 0, pretend = 0, frame = 0
 3968              		@ frame_needed = 0, uses_anonymous_args = 0
 309:Middlewares/lvgl/src/widgets/lv_table.c ****     LV_ASSERT_OBJ(obj, MY_CLASS);
 3969              		.loc 1 309 1 is_stmt 0 view .LVU1411
 3970 0000 2DE9F041 		push	{r4, r5, r6, r7, r8, lr}
 3971              	.LCFI33:
 3972              		.cfi_def_cfa_offset 24
 3973              		.cfi_offset 4, -24
 3974              		.cfi_offset 5, -20
 3975              		.cfi_offset 6, -16
 3976              		.cfi_offset 7, -12
 3977              		.cfi_offset 8, -8
 3978              		.cfi_offset 14, -4
 3979 0004 0446     		mov	r4, r0
 3980 0006 8846     		mov	r8, r1
 3981 0008 1746     		mov	r7, r2
 3982 000a 1D46     		mov	r5, r3
 310:Middlewares/lvgl/src/widgets/lv_table.c **** 
 3983              		.loc 1 310 5 is_stmt 1 view .LVU1412
 310:Middlewares/lvgl/src/widgets/lv_table.c **** 
 3984              		.loc 1 310 5 view .LVU1413
 310:Middlewares/lvgl/src/widgets/lv_table.c **** 
 3985              		.loc 1 310 5 view .LVU1414
 312:Middlewares/lvgl/src/widgets/lv_table.c **** 
 3986              		.loc 1 312 5 view .LVU1415
 3987              	.LVL427:
 315:Middlewares/lvgl/src/widgets/lv_table.c ****     if(row >= table->row_cnt) lv_table_set_row_cnt(obj, row + 1);
 3988              		.loc 1 315 5 view .LVU1416
 315:Middlewares/lvgl/src/widgets/lv_table.c ****     if(row >= table->row_cnt) lv_table_set_row_cnt(obj, row + 1);
 3989              		.loc 1 315 20 is_stmt 0 view .LVU1417
 3990 000c 838C     		ldrh	r3, [r0, #36]
 3991              	.LVL428:
 315:Middlewares/lvgl/src/widgets/lv_table.c ****     if(row >= table->row_cnt) lv_table_set_row_cnt(obj, row + 1);
 3992              		.loc 1 315 7 view .LVU1418
 3993 000e 9342     		cmp	r3, r2
ARM GAS  /tmp/ccTYGLnU.s 			page 123


 3994 0010 11D9     		bls	.L205
 3995              	.LVL429:
 3996              	.L199:
 316:Middlewares/lvgl/src/widgets/lv_table.c **** 
 3997              		.loc 1 316 5 is_stmt 1 view .LVU1419
 316:Middlewares/lvgl/src/widgets/lv_table.c **** 
 3998              		.loc 1 316 20 is_stmt 0 view .LVU1420
 3999 0012 E38C     		ldrh	r3, [r4, #38]
 316:Middlewares/lvgl/src/widgets/lv_table.c **** 
 4000              		.loc 1 316 7 view .LVU1421
 4001 0014 4345     		cmp	r3, r8
 4002 0016 13D9     		bls	.L206
 4003              	.L200:
 318:Middlewares/lvgl/src/widgets/lv_table.c **** 
 4004              		.loc 1 318 5 is_stmt 1 view .LVU1422
 318:Middlewares/lvgl/src/widgets/lv_table.c **** 
 4005              		.loc 1 318 32 is_stmt 0 view .LVU1423
 4006 0018 A68C     		ldrh	r6, [r4, #36]
 318:Middlewares/lvgl/src/widgets/lv_table.c **** 
 4007              		.loc 1 318 42 view .LVU1424
 4008 001a 06FB0876 		mla	r6, r6, r8, r7
 4009              	.LVL430:
 320:Middlewares/lvgl/src/widgets/lv_table.c ****         table->cell_data[cell]    = lv_mem_alloc(2); /*+1: trailing '\0; +1: format byte*/
 4010              		.loc 1 320 5 is_stmt 1 view .LVU1425
 320:Middlewares/lvgl/src/widgets/lv_table.c ****         table->cell_data[cell]    = lv_mem_alloc(2); /*+1: trailing '\0; +1: format byte*/
 4011              		.loc 1 320 13 is_stmt 0 view .LVU1426
 4012 001e A76A     		ldr	r7, [r4, #40]
 320:Middlewares/lvgl/src/widgets/lv_table.c ****         table->cell_data[cell]    = lv_mem_alloc(2); /*+1: trailing '\0; +1: format byte*/
 4013              		.loc 1 320 24 view .LVU1427
 4014 0020 57F82630 		ldr	r3, [r7, r6, lsl #2]
 320:Middlewares/lvgl/src/widgets/lv_table.c ****         table->cell_data[cell]    = lv_mem_alloc(2); /*+1: trailing '\0; +1: format byte*/
 4015              		.loc 1 320 7 view .LVU1428
 4016 0024 9BB1     		cbz	r3, .L207
 4017              	.L201:
 329:Middlewares/lvgl/src/widgets/lv_table.c **** }
 4018              		.loc 1 329 5 is_stmt 1 view .LVU1429
 329:Middlewares/lvgl/src/widgets/lv_table.c **** }
 4019              		.loc 1 329 10 is_stmt 0 view .LVU1430
 4020 0026 A36A     		ldr	r3, [r4, #40]
 329:Middlewares/lvgl/src/widgets/lv_table.c **** }
 4021              		.loc 1 329 21 view .LVU1431
 4022 0028 53F82630 		ldr	r3, [r3, r6, lsl #2]
 329:Middlewares/lvgl/src/widgets/lv_table.c **** }
 4023              		.loc 1 329 31 view .LVU1432
 4024 002c 1A78     		ldrb	r2, [r3]	@ zero_extendqisi2
 4025 002e 1543     		orrs	r5, r5, r2
 4026 0030 1D70     		strb	r5, [r3]
 330:Middlewares/lvgl/src/widgets/lv_table.c **** 
 4027              		.loc 1 330 1 view .LVU1433
 4028 0032 BDE8F081 		pop	{r4, r5, r6, r7, r8, pc}
 4029              	.LVL431:
 4030              	.L205:
 315:Middlewares/lvgl/src/widgets/lv_table.c ****     if(row >= table->row_cnt) lv_table_set_row_cnt(obj, row + 1);
 4031              		.loc 1 315 31 is_stmt 1 discriminator 1 view .LVU1434
 4032 0036 511C     		adds	r1, r2, #1
 4033              	.LVL432:
 315:Middlewares/lvgl/src/widgets/lv_table.c ****     if(row >= table->row_cnt) lv_table_set_row_cnt(obj, row + 1);
ARM GAS  /tmp/ccTYGLnU.s 			page 124


 4034              		.loc 1 315 31 is_stmt 0 discriminator 1 view .LVU1435
 4035 0038 89B2     		uxth	r1, r1
 4036 003a FFF7FEFF 		bl	lv_table_set_col_cnt
 4037              	.LVL433:
 315:Middlewares/lvgl/src/widgets/lv_table.c ****     if(row >= table->row_cnt) lv_table_set_row_cnt(obj, row + 1);
 4038              		.loc 1 315 31 discriminator 1 view .LVU1436
 4039 003e E8E7     		b	.L199
 4040              	.L206:
 316:Middlewares/lvgl/src/widgets/lv_table.c **** 
 4041              		.loc 1 316 31 is_stmt 1 discriminator 1 view .LVU1437
 4042 0040 08F10101 		add	r1, r8, #1
 4043 0044 89B2     		uxth	r1, r1
 4044 0046 2046     		mov	r0, r4
 4045 0048 FFF7FEFF 		bl	lv_table_set_row_cnt
 4046              	.LVL434:
 4047 004c E4E7     		b	.L200
 4048              	.LVL435:
 4049              	.L207:
 321:Middlewares/lvgl/src/widgets/lv_table.c ****         LV_ASSERT_MALLOC(table->cell_data[cell]);
 4050              		.loc 1 321 9 view .LVU1438
 321:Middlewares/lvgl/src/widgets/lv_table.c ****         LV_ASSERT_MALLOC(table->cell_data[cell]);
 4051              		.loc 1 321 37 is_stmt 0 view .LVU1439
 4052 004e 0220     		movs	r0, #2
 4053 0050 FFF7FEFF 		bl	lv_mem_alloc
 4054              	.LVL436:
 321:Middlewares/lvgl/src/widgets/lv_table.c ****         LV_ASSERT_MALLOC(table->cell_data[cell]);
 4055              		.loc 1 321 35 view .LVU1440
 4056 0054 47F82600 		str	r0, [r7, r6, lsl #2]
 322:Middlewares/lvgl/src/widgets/lv_table.c ****         if(table->cell_data[cell] == NULL) return;
 4057              		.loc 1 322 9 is_stmt 1 view .LVU1441
 322:Middlewares/lvgl/src/widgets/lv_table.c ****         if(table->cell_data[cell] == NULL) return;
 4058              		.loc 1 322 9 view .LVU1442
 4059 0058 A36A     		ldr	r3, [r4, #40]
 4060 005a 53F82630 		ldr	r3, [r3, r6, lsl #2]
 4061 005e 33B1     		cbz	r3, .L203
 322:Middlewares/lvgl/src/widgets/lv_table.c ****         if(table->cell_data[cell] == NULL) return;
 4062              		.loc 1 322 9 view .LVU1443
 322:Middlewares/lvgl/src/widgets/lv_table.c ****         if(table->cell_data[cell] == NULL) return;
 4063              		.loc 1 322 49 view .LVU1444
 323:Middlewares/lvgl/src/widgets/lv_table.c **** 
 4064              		.loc 1 323 9 view .LVU1445
 325:Middlewares/lvgl/src/widgets/lv_table.c ****         table->cell_data[cell][1] = '\0';
 4065              		.loc 1 325 9 view .LVU1446
 325:Middlewares/lvgl/src/widgets/lv_table.c ****         table->cell_data[cell][1] = '\0';
 4066              		.loc 1 325 35 is_stmt 0 view .LVU1447
 4067 0060 0022     		movs	r2, #0
 4068 0062 1A70     		strb	r2, [r3]
 326:Middlewares/lvgl/src/widgets/lv_table.c ****     }
 4069              		.loc 1 326 9 is_stmt 1 view .LVU1448
 326:Middlewares/lvgl/src/widgets/lv_table.c ****     }
 4070              		.loc 1 326 14 is_stmt 0 view .LVU1449
 4071 0064 A36A     		ldr	r3, [r4, #40]
 326:Middlewares/lvgl/src/widgets/lv_table.c ****     }
 4072              		.loc 1 326 25 view .LVU1450
 4073 0066 53F82630 		ldr	r3, [r3, r6, lsl #2]
 326:Middlewares/lvgl/src/widgets/lv_table.c ****     }
 4074              		.loc 1 326 35 view .LVU1451
ARM GAS  /tmp/ccTYGLnU.s 			page 125


 4075 006a 5A70     		strb	r2, [r3, #1]
 4076 006c DBE7     		b	.L201
 4077              	.L203:
 322:Middlewares/lvgl/src/widgets/lv_table.c ****         if(table->cell_data[cell] == NULL) return;
 4078              		.loc 1 322 9 is_stmt 1 discriminator 1 view .LVU1452
 322:Middlewares/lvgl/src/widgets/lv_table.c ****         if(table->cell_data[cell] == NULL) return;
 4079              		.loc 1 322 9 discriminator 1 view .LVU1453
 322:Middlewares/lvgl/src/widgets/lv_table.c ****         if(table->cell_data[cell] == NULL) return;
 4080              		.loc 1 322 9 discriminator 1 view .LVU1454
 322:Middlewares/lvgl/src/widgets/lv_table.c ****         if(table->cell_data[cell] == NULL) return;
 4081              		.loc 1 322 9 discriminator 1 view .LVU1455
 4082 006e FEE7     		b	.L203
 4083              		.cfi_endproc
 4084              	.LFE153:
 4086              		.section	.text.lv_table_clear_cell_ctrl,"ax",%progbits
 4087              		.align	1
 4088              		.global	lv_table_clear_cell_ctrl
 4089              		.syntax unified
 4090              		.thumb
 4091              		.thumb_func
 4092              		.fpu softvfp
 4094              	lv_table_clear_cell_ctrl:
 4095              	.LVL437:
 4096              	.LFB154:
 333:Middlewares/lvgl/src/widgets/lv_table.c ****     LV_ASSERT_OBJ(obj, MY_CLASS);
 4097              		.loc 1 333 1 view -0
 4098              		.cfi_startproc
 4099              		@ args = 0, pretend = 0, frame = 0
 4100              		@ frame_needed = 0, uses_anonymous_args = 0
 333:Middlewares/lvgl/src/widgets/lv_table.c ****     LV_ASSERT_OBJ(obj, MY_CLASS);
 4101              		.loc 1 333 1 is_stmt 0 view .LVU1457
 4102 0000 2DE9F041 		push	{r4, r5, r6, r7, r8, lr}
 4103              	.LCFI34:
 4104              		.cfi_def_cfa_offset 24
 4105              		.cfi_offset 4, -24
 4106              		.cfi_offset 5, -20
 4107              		.cfi_offset 6, -16
 4108              		.cfi_offset 7, -12
 4109              		.cfi_offset 8, -8
 4110              		.cfi_offset 14, -4
 4111 0004 0446     		mov	r4, r0
 4112 0006 8846     		mov	r8, r1
 4113 0008 1646     		mov	r6, r2
 4114 000a 1F46     		mov	r7, r3
 334:Middlewares/lvgl/src/widgets/lv_table.c **** 
 4115              		.loc 1 334 5 is_stmt 1 view .LVU1458
 334:Middlewares/lvgl/src/widgets/lv_table.c **** 
 4116              		.loc 1 334 5 view .LVU1459
 334:Middlewares/lvgl/src/widgets/lv_table.c **** 
 4117              		.loc 1 334 5 view .LVU1460
 336:Middlewares/lvgl/src/widgets/lv_table.c **** 
 4118              		.loc 1 336 5 view .LVU1461
 4119              	.LVL438:
 339:Middlewares/lvgl/src/widgets/lv_table.c ****     if(row >= table->row_cnt) lv_table_set_row_cnt(obj, row + 1);
 4120              		.loc 1 339 5 view .LVU1462
 339:Middlewares/lvgl/src/widgets/lv_table.c ****     if(row >= table->row_cnt) lv_table_set_row_cnt(obj, row + 1);
 4121              		.loc 1 339 20 is_stmt 0 view .LVU1463
ARM GAS  /tmp/ccTYGLnU.s 			page 126


 4122 000c 838C     		ldrh	r3, [r0, #36]
 4123              	.LVL439:
 339:Middlewares/lvgl/src/widgets/lv_table.c ****     if(row >= table->row_cnt) lv_table_set_row_cnt(obj, row + 1);
 4124              		.loc 1 339 7 view .LVU1464
 4125 000e 9342     		cmp	r3, r2
 4126 0010 12D9     		bls	.L215
 4127              	.LVL440:
 4128              	.L209:
 340:Middlewares/lvgl/src/widgets/lv_table.c **** 
 4129              		.loc 1 340 5 is_stmt 1 view .LVU1465
 340:Middlewares/lvgl/src/widgets/lv_table.c **** 
 4130              		.loc 1 340 20 is_stmt 0 view .LVU1466
 4131 0012 E38C     		ldrh	r3, [r4, #38]
 340:Middlewares/lvgl/src/widgets/lv_table.c **** 
 4132              		.loc 1 340 7 view .LVU1467
 4133 0014 4345     		cmp	r3, r8
 4134 0016 14D9     		bls	.L216
 4135              	.L210:
 342:Middlewares/lvgl/src/widgets/lv_table.c **** 
 4136              		.loc 1 342 5 is_stmt 1 view .LVU1468
 342:Middlewares/lvgl/src/widgets/lv_table.c **** 
 4137              		.loc 1 342 32 is_stmt 0 view .LVU1469
 4138 0018 A58C     		ldrh	r5, [r4, #36]
 342:Middlewares/lvgl/src/widgets/lv_table.c **** 
 4139              		.loc 1 342 42 view .LVU1470
 4140 001a 05FB0865 		mla	r5, r5, r8, r6
 4141              	.LVL441:
 344:Middlewares/lvgl/src/widgets/lv_table.c ****         table->cell_data[cell]    = lv_mem_alloc(2); /*+1: trailing '\0; +1: format byte*/
 4142              		.loc 1 344 5 is_stmt 1 view .LVU1471
 344:Middlewares/lvgl/src/widgets/lv_table.c ****         table->cell_data[cell]    = lv_mem_alloc(2); /*+1: trailing '\0; +1: format byte*/
 4143              		.loc 1 344 13 is_stmt 0 view .LVU1472
 4144 001e A66A     		ldr	r6, [r4, #40]
 344:Middlewares/lvgl/src/widgets/lv_table.c ****         table->cell_data[cell]    = lv_mem_alloc(2); /*+1: trailing '\0; +1: format byte*/
 4145              		.loc 1 344 24 view .LVU1473
 4146 0020 56F82520 		ldr	r2, [r6, r5, lsl #2]
 344:Middlewares/lvgl/src/widgets/lv_table.c ****         table->cell_data[cell]    = lv_mem_alloc(2); /*+1: trailing '\0; +1: format byte*/
 4147              		.loc 1 344 7 view .LVU1474
 4148 0024 A2B1     		cbz	r2, .L217
 4149              	.L211:
 353:Middlewares/lvgl/src/widgets/lv_table.c **** }
 4150              		.loc 1 353 5 is_stmt 1 view .LVU1475
 353:Middlewares/lvgl/src/widgets/lv_table.c **** }
 4151              		.loc 1 353 10 is_stmt 0 view .LVU1476
 4152 0026 A36A     		ldr	r3, [r4, #40]
 353:Middlewares/lvgl/src/widgets/lv_table.c **** }
 4153              		.loc 1 353 21 view .LVU1477
 4154 0028 53F82510 		ldr	r1, [r3, r5, lsl #2]
 353:Middlewares/lvgl/src/widgets/lv_table.c **** }
 4155              		.loc 1 353 31 view .LVU1478
 4156 002c 0A78     		ldrb	r2, [r1]	@ zero_extendqisi2
 4157 002e 22EA0703 		bic	r3, r2, r7
 4158 0032 0B70     		strb	r3, [r1]
 354:Middlewares/lvgl/src/widgets/lv_table.c **** 
 4159              		.loc 1 354 1 view .LVU1479
 4160 0034 BDE8F081 		pop	{r4, r5, r6, r7, r8, pc}
 4161              	.LVL442:
 4162              	.L215:
ARM GAS  /tmp/ccTYGLnU.s 			page 127


 339:Middlewares/lvgl/src/widgets/lv_table.c ****     if(row >= table->row_cnt) lv_table_set_row_cnt(obj, row + 1);
 4163              		.loc 1 339 31 is_stmt 1 discriminator 1 view .LVU1480
 4164 0038 511C     		adds	r1, r2, #1
 4165              	.LVL443:
 339:Middlewares/lvgl/src/widgets/lv_table.c ****     if(row >= table->row_cnt) lv_table_set_row_cnt(obj, row + 1);
 4166              		.loc 1 339 31 is_stmt 0 discriminator 1 view .LVU1481
 4167 003a 89B2     		uxth	r1, r1
 4168 003c FFF7FEFF 		bl	lv_table_set_col_cnt
 4169              	.LVL444:
 339:Middlewares/lvgl/src/widgets/lv_table.c ****     if(row >= table->row_cnt) lv_table_set_row_cnt(obj, row + 1);
 4170              		.loc 1 339 31 discriminator 1 view .LVU1482
 4171 0040 E7E7     		b	.L209
 4172              	.L216:
 340:Middlewares/lvgl/src/widgets/lv_table.c **** 
 4173              		.loc 1 340 31 is_stmt 1 discriminator 1 view .LVU1483
 4174 0042 08F10101 		add	r1, r8, #1
 4175 0046 89B2     		uxth	r1, r1
 4176 0048 2046     		mov	r0, r4
 4177 004a FFF7FEFF 		bl	lv_table_set_row_cnt
 4178              	.LVL445:
 4179 004e E3E7     		b	.L210
 4180              	.LVL446:
 4181              	.L217:
 345:Middlewares/lvgl/src/widgets/lv_table.c ****         LV_ASSERT_MALLOC(table->cell_data[cell]);
 4182              		.loc 1 345 9 view .LVU1484
 345:Middlewares/lvgl/src/widgets/lv_table.c ****         LV_ASSERT_MALLOC(table->cell_data[cell]);
 4183              		.loc 1 345 37 is_stmt 0 view .LVU1485
 4184 0050 0220     		movs	r0, #2
 4185 0052 FFF7FEFF 		bl	lv_mem_alloc
 4186              	.LVL447:
 345:Middlewares/lvgl/src/widgets/lv_table.c ****         LV_ASSERT_MALLOC(table->cell_data[cell]);
 4187              		.loc 1 345 35 view .LVU1486
 4188 0056 46F82500 		str	r0, [r6, r5, lsl #2]
 346:Middlewares/lvgl/src/widgets/lv_table.c ****         if(table->cell_data[cell] == NULL) return;
 4189              		.loc 1 346 9 is_stmt 1 view .LVU1487
 346:Middlewares/lvgl/src/widgets/lv_table.c ****         if(table->cell_data[cell] == NULL) return;
 4190              		.loc 1 346 9 view .LVU1488
 4191 005a A36A     		ldr	r3, [r4, #40]
 4192 005c 53F82530 		ldr	r3, [r3, r5, lsl #2]
 4193 0060 33B1     		cbz	r3, .L213
 346:Middlewares/lvgl/src/widgets/lv_table.c ****         if(table->cell_data[cell] == NULL) return;
 4194              		.loc 1 346 9 view .LVU1489
 346:Middlewares/lvgl/src/widgets/lv_table.c ****         if(table->cell_data[cell] == NULL) return;
 4195              		.loc 1 346 49 view .LVU1490
 347:Middlewares/lvgl/src/widgets/lv_table.c **** 
 4196              		.loc 1 347 9 view .LVU1491
 349:Middlewares/lvgl/src/widgets/lv_table.c ****         table->cell_data[cell][1] = '\0';
 4197              		.loc 1 349 9 view .LVU1492
 349:Middlewares/lvgl/src/widgets/lv_table.c ****         table->cell_data[cell][1] = '\0';
 4198              		.loc 1 349 35 is_stmt 0 view .LVU1493
 4199 0062 0022     		movs	r2, #0
 4200 0064 1A70     		strb	r2, [r3]
 350:Middlewares/lvgl/src/widgets/lv_table.c ****     }
 4201              		.loc 1 350 9 is_stmt 1 view .LVU1494
 350:Middlewares/lvgl/src/widgets/lv_table.c ****     }
 4202              		.loc 1 350 14 is_stmt 0 view .LVU1495
 4203 0066 A36A     		ldr	r3, [r4, #40]
ARM GAS  /tmp/ccTYGLnU.s 			page 128


 350:Middlewares/lvgl/src/widgets/lv_table.c ****     }
 4204              		.loc 1 350 25 view .LVU1496
 4205 0068 53F82530 		ldr	r3, [r3, r5, lsl #2]
 350:Middlewares/lvgl/src/widgets/lv_table.c ****     }
 4206              		.loc 1 350 35 view .LVU1497
 4207 006c 5A70     		strb	r2, [r3, #1]
 4208 006e DAE7     		b	.L211
 4209              	.L213:
 346:Middlewares/lvgl/src/widgets/lv_table.c ****         if(table->cell_data[cell] == NULL) return;
 4210              		.loc 1 346 9 is_stmt 1 discriminator 1 view .LVU1498
 346:Middlewares/lvgl/src/widgets/lv_table.c ****         if(table->cell_data[cell] == NULL) return;
 4211              		.loc 1 346 9 discriminator 1 view .LVU1499
 346:Middlewares/lvgl/src/widgets/lv_table.c ****         if(table->cell_data[cell] == NULL) return;
 4212              		.loc 1 346 9 discriminator 1 view .LVU1500
 346:Middlewares/lvgl/src/widgets/lv_table.c ****         if(table->cell_data[cell] == NULL) return;
 4213              		.loc 1 346 9 discriminator 1 view .LVU1501
 4214 0070 FEE7     		b	.L213
 4215              		.cfi_endproc
 4216              	.LFE154:
 4218              		.section	.rodata.lv_table_get_cell_value.str1.4,"aMS",%progbits,1
 4219              		.align	2
 4220              	.LC0:
 4221 0000 00       		.ascii	"\000"
 4222              		.section	.text.lv_table_get_cell_value,"ax",%progbits
 4223              		.align	1
 4224              		.global	lv_table_get_cell_value
 4225              		.syntax unified
 4226              		.thumb
 4227              		.thumb_func
 4228              		.fpu softvfp
 4230              	lv_table_get_cell_value:
 4231              	.LVL448:
 4232              	.LFB155:
 361:Middlewares/lvgl/src/widgets/lv_table.c ****     LV_ASSERT_OBJ(obj, MY_CLASS);
 4233              		.loc 1 361 1 view -0
 4234              		.cfi_startproc
 4235              		@ args = 0, pretend = 0, frame = 0
 4236              		@ frame_needed = 0, uses_anonymous_args = 0
 4237              		@ link register save eliminated.
 362:Middlewares/lvgl/src/widgets/lv_table.c **** 
 4238              		.loc 1 362 5 view .LVU1503
 362:Middlewares/lvgl/src/widgets/lv_table.c **** 
 4239              		.loc 1 362 5 view .LVU1504
 362:Middlewares/lvgl/src/widgets/lv_table.c **** 
 4240              		.loc 1 362 5 view .LVU1505
 364:Middlewares/lvgl/src/widgets/lv_table.c ****     if(row >= table->row_cnt || col >= table->col_cnt) {
 4241              		.loc 1 364 5 view .LVU1506
 365:Middlewares/lvgl/src/widgets/lv_table.c ****         LV_LOG_WARN("lv_table_set_cell_value: invalid row or column");
 4242              		.loc 1 365 5 view .LVU1507
 365:Middlewares/lvgl/src/widgets/lv_table.c ****         LV_LOG_WARN("lv_table_set_cell_value: invalid row or column");
 4243              		.loc 1 365 20 is_stmt 0 view .LVU1508
 4244 0000 C38C     		ldrh	r3, [r0, #38]
 365:Middlewares/lvgl/src/widgets/lv_table.c ****         LV_LOG_WARN("lv_table_set_cell_value: invalid row or column");
 4245              		.loc 1 365 7 view .LVU1509
 4246 0002 8B42     		cmp	r3, r1
 4247 0004 0AD9     		bls	.L220
 365:Middlewares/lvgl/src/widgets/lv_table.c ****         LV_LOG_WARN("lv_table_set_cell_value: invalid row or column");
ARM GAS  /tmp/ccTYGLnU.s 			page 129


 4248              		.loc 1 365 45 discriminator 1 view .LVU1510
 4249 0006 838C     		ldrh	r3, [r0, #36]
 365:Middlewares/lvgl/src/widgets/lv_table.c ****         LV_LOG_WARN("lv_table_set_cell_value: invalid row or column");
 4250              		.loc 1 365 30 discriminator 1 view .LVU1511
 4251 0008 9342     		cmp	r3, r2
 4252 000a 09D9     		bls	.L221
 369:Middlewares/lvgl/src/widgets/lv_table.c **** 
 4253              		.loc 1 369 5 is_stmt 1 view .LVU1512
 369:Middlewares/lvgl/src/widgets/lv_table.c **** 
 4254              		.loc 1 369 42 is_stmt 0 view .LVU1513
 4255 000c 03FB0122 		mla	r2, r3, r1, r2
 4256              	.LVL449:
 371:Middlewares/lvgl/src/widgets/lv_table.c **** 
 4257              		.loc 1 371 5 is_stmt 1 view .LVU1514
 371:Middlewares/lvgl/src/widgets/lv_table.c **** 
 4258              		.loc 1 371 13 is_stmt 0 view .LVU1515
 4259 0010 836A     		ldr	r3, [r0, #40]
 371:Middlewares/lvgl/src/widgets/lv_table.c **** 
 4260              		.loc 1 371 24 view .LVU1516
 4261 0012 53F82200 		ldr	r0, [r3, r2, lsl #2]
 4262              	.LVL450:
 371:Middlewares/lvgl/src/widgets/lv_table.c **** 
 4263              		.loc 1 371 7 view .LVU1517
 4264 0016 28B1     		cbz	r0, .L222
 373:Middlewares/lvgl/src/widgets/lv_table.c **** }
 4265              		.loc 1 373 5 is_stmt 1 view .LVU1518
 373:Middlewares/lvgl/src/widgets/lv_table.c **** }
 4266              		.loc 1 373 12 is_stmt 0 view .LVU1519
 4267 0018 0130     		adds	r0, r0, #1
 4268 001a 7047     		bx	lr
 4269              	.LVL451:
 4270              	.L220:
 367:Middlewares/lvgl/src/widgets/lv_table.c ****     }
 4271              		.loc 1 367 16 view .LVU1520
 4272 001c 0248     		ldr	r0, .L223
 4273              	.LVL452:
 367:Middlewares/lvgl/src/widgets/lv_table.c ****     }
 4274              		.loc 1 367 16 view .LVU1521
 4275 001e 7047     		bx	lr
 4276              	.LVL453:
 4277              	.L221:
 367:Middlewares/lvgl/src/widgets/lv_table.c ****     }
 4278              		.loc 1 367 16 view .LVU1522
 4279 0020 0148     		ldr	r0, .L223
 4280              	.LVL454:
 367:Middlewares/lvgl/src/widgets/lv_table.c ****     }
 4281              		.loc 1 367 16 view .LVU1523
 4282 0022 7047     		bx	lr
 4283              	.LVL455:
 4284              	.L222:
 371:Middlewares/lvgl/src/widgets/lv_table.c **** 
 4285              		.loc 1 371 47 view .LVU1524
 4286 0024 0048     		ldr	r0, .L223
 374:Middlewares/lvgl/src/widgets/lv_table.c **** 
 4287              		.loc 1 374 1 view .LVU1525
 4288 0026 7047     		bx	lr
 4289              	.L224:
ARM GAS  /tmp/ccTYGLnU.s 			page 130


 4290              		.align	2
 4291              	.L223:
 4292 0028 00000000 		.word	.LC0
 4293              		.cfi_endproc
 4294              	.LFE155:
 4296              		.section	.text.lv_table_get_row_cnt,"ax",%progbits
 4297              		.align	1
 4298              		.global	lv_table_get_row_cnt
 4299              		.syntax unified
 4300              		.thumb
 4301              		.thumb_func
 4302              		.fpu softvfp
 4304              	lv_table_get_row_cnt:
 4305              	.LVL456:
 4306              	.LFB156:
 377:Middlewares/lvgl/src/widgets/lv_table.c ****     LV_ASSERT_OBJ(obj, MY_CLASS);
 4307              		.loc 1 377 1 is_stmt 1 view -0
 4308              		.cfi_startproc
 4309              		@ args = 0, pretend = 0, frame = 0
 4310              		@ frame_needed = 0, uses_anonymous_args = 0
 4311              		@ link register save eliminated.
 378:Middlewares/lvgl/src/widgets/lv_table.c **** 
 4312              		.loc 1 378 5 view .LVU1527
 378:Middlewares/lvgl/src/widgets/lv_table.c **** 
 4313              		.loc 1 378 5 view .LVU1528
 378:Middlewares/lvgl/src/widgets/lv_table.c **** 
 4314              		.loc 1 378 5 view .LVU1529
 380:Middlewares/lvgl/src/widgets/lv_table.c ****     return table->row_cnt;
 4315              		.loc 1 380 5 view .LVU1530
 381:Middlewares/lvgl/src/widgets/lv_table.c **** }
 4316              		.loc 1 381 5 view .LVU1531
 382:Middlewares/lvgl/src/widgets/lv_table.c **** 
 4317              		.loc 1 382 1 is_stmt 0 view .LVU1532
 4318 0000 C08C     		ldrh	r0, [r0, #38]
 4319              	.LVL457:
 382:Middlewares/lvgl/src/widgets/lv_table.c **** 
 4320              		.loc 1 382 1 view .LVU1533
 4321 0002 7047     		bx	lr
 4322              		.cfi_endproc
 4323              	.LFE156:
 4325              		.section	.text.lv_table_get_col_cnt,"ax",%progbits
 4326              		.align	1
 4327              		.global	lv_table_get_col_cnt
 4328              		.syntax unified
 4329              		.thumb
 4330              		.thumb_func
 4331              		.fpu softvfp
 4333              	lv_table_get_col_cnt:
 4334              	.LVL458:
 4335              	.LFB157:
 385:Middlewares/lvgl/src/widgets/lv_table.c ****     LV_ASSERT_OBJ(obj, MY_CLASS);
 4336              		.loc 1 385 1 is_stmt 1 view -0
 4337              		.cfi_startproc
 4338              		@ args = 0, pretend = 0, frame = 0
 4339              		@ frame_needed = 0, uses_anonymous_args = 0
 4340              		@ link register save eliminated.
 386:Middlewares/lvgl/src/widgets/lv_table.c **** 
ARM GAS  /tmp/ccTYGLnU.s 			page 131


 4341              		.loc 1 386 5 view .LVU1535
 386:Middlewares/lvgl/src/widgets/lv_table.c **** 
 4342              		.loc 1 386 5 view .LVU1536
 386:Middlewares/lvgl/src/widgets/lv_table.c **** 
 4343              		.loc 1 386 5 view .LVU1537
 388:Middlewares/lvgl/src/widgets/lv_table.c ****     return table->col_cnt;
 4344              		.loc 1 388 5 view .LVU1538
 389:Middlewares/lvgl/src/widgets/lv_table.c **** }
 4345              		.loc 1 389 5 view .LVU1539
 390:Middlewares/lvgl/src/widgets/lv_table.c **** 
 4346              		.loc 1 390 1 is_stmt 0 view .LVU1540
 4347 0000 808C     		ldrh	r0, [r0, #36]
 4348              	.LVL459:
 390:Middlewares/lvgl/src/widgets/lv_table.c **** 
 4349              		.loc 1 390 1 view .LVU1541
 4350 0002 7047     		bx	lr
 4351              		.cfi_endproc
 4352              	.LFE157:
 4354              		.section	.text.lv_table_get_col_width,"ax",%progbits
 4355              		.align	1
 4356              		.global	lv_table_get_col_width
 4357              		.syntax unified
 4358              		.thumb
 4359              		.thumb_func
 4360              		.fpu softvfp
 4362              	lv_table_get_col_width:
 4363              	.LVL460:
 4364              	.LFB158:
 393:Middlewares/lvgl/src/widgets/lv_table.c ****     LV_ASSERT_OBJ(obj, MY_CLASS);
 4365              		.loc 1 393 1 is_stmt 1 view -0
 4366              		.cfi_startproc
 4367              		@ args = 0, pretend = 0, frame = 0
 4368              		@ frame_needed = 0, uses_anonymous_args = 0
 4369              		@ link register save eliminated.
 394:Middlewares/lvgl/src/widgets/lv_table.c **** 
 4370              		.loc 1 394 5 view .LVU1543
 394:Middlewares/lvgl/src/widgets/lv_table.c **** 
 4371              		.loc 1 394 5 view .LVU1544
 394:Middlewares/lvgl/src/widgets/lv_table.c **** 
 4372              		.loc 1 394 5 view .LVU1545
 396:Middlewares/lvgl/src/widgets/lv_table.c **** 
 4373              		.loc 1 396 5 view .LVU1546
 398:Middlewares/lvgl/src/widgets/lv_table.c ****         LV_LOG_WARN("lv_table_set_col_width: too big 'col_id'. Must be < LV_TABLE_COL_MAX.");
 4374              		.loc 1 398 5 view .LVU1547
 398:Middlewares/lvgl/src/widgets/lv_table.c ****         LV_LOG_WARN("lv_table_set_col_width: too big 'col_id'. Must be < LV_TABLE_COL_MAX.");
 4375              		.loc 1 398 20 is_stmt 0 view .LVU1548
 4376 0000 838C     		ldrh	r3, [r0, #36]
 398:Middlewares/lvgl/src/widgets/lv_table.c ****         LV_LOG_WARN("lv_table_set_col_width: too big 'col_id'. Must be < LV_TABLE_COL_MAX.");
 4377              		.loc 1 398 7 view .LVU1549
 4378 0002 8B42     		cmp	r3, r1
 4379 0004 03D9     		bls	.L229
 403:Middlewares/lvgl/src/widgets/lv_table.c **** }
 4380              		.loc 1 403 5 is_stmt 1 view .LVU1550
 403:Middlewares/lvgl/src/widgets/lv_table.c **** }
 4381              		.loc 1 403 17 is_stmt 0 view .LVU1551
 4382 0006 036B     		ldr	r3, [r0, #48]
 403:Middlewares/lvgl/src/widgets/lv_table.c **** }
ARM GAS  /tmp/ccTYGLnU.s 			page 132


 4383              		.loc 1 403 24 view .LVU1552
 4384 0008 33F91100 		ldrsh	r0, [r3, r1, lsl #1]
 4385              	.LVL461:
 403:Middlewares/lvgl/src/widgets/lv_table.c **** }
 4386              		.loc 1 403 24 view .LVU1553
 4387 000c 7047     		bx	lr
 4388              	.LVL462:
 4389              	.L229:
 400:Middlewares/lvgl/src/widgets/lv_table.c ****     }
 4390              		.loc 1 400 16 view .LVU1554
 4391 000e 0020     		movs	r0, #0
 4392              	.LVL463:
 404:Middlewares/lvgl/src/widgets/lv_table.c **** 
 4393              		.loc 1 404 1 view .LVU1555
 4394 0010 7047     		bx	lr
 4395              		.cfi_endproc
 4396              	.LFE158:
 4398              		.section	.text.lv_table_has_cell_ctrl,"ax",%progbits
 4399              		.align	1
 4400              		.global	lv_table_has_cell_ctrl
 4401              		.syntax unified
 4402              		.thumb
 4403              		.thumb_func
 4404              		.fpu softvfp
 4406              	lv_table_has_cell_ctrl:
 4407              	.LVL464:
 4408              	.LFB159:
 407:Middlewares/lvgl/src/widgets/lv_table.c ****     LV_ASSERT_OBJ(obj, MY_CLASS);
 4409              		.loc 1 407 1 is_stmt 1 view -0
 4410              		.cfi_startproc
 4411              		@ args = 0, pretend = 0, frame = 0
 4412              		@ frame_needed = 0, uses_anonymous_args = 0
 4413              		@ link register save eliminated.
 408:Middlewares/lvgl/src/widgets/lv_table.c **** 
 4414              		.loc 1 408 5 view .LVU1557
 408:Middlewares/lvgl/src/widgets/lv_table.c **** 
 4415              		.loc 1 408 5 view .LVU1558
 408:Middlewares/lvgl/src/widgets/lv_table.c **** 
 4416              		.loc 1 408 5 view .LVU1559
 410:Middlewares/lvgl/src/widgets/lv_table.c ****     if(row >= table->row_cnt || col >= table->col_cnt) {
 4417              		.loc 1 410 5 view .LVU1560
 411:Middlewares/lvgl/src/widgets/lv_table.c ****         LV_LOG_WARN("lv_table_get_cell_crop: invalid row or column");
 4418              		.loc 1 411 5 view .LVU1561
 411:Middlewares/lvgl/src/widgets/lv_table.c ****         LV_LOG_WARN("lv_table_get_cell_crop: invalid row or column");
 4419              		.loc 1 411 20 is_stmt 0 view .LVU1562
 4420 0000 B0F826C0 		ldrh	ip, [r0, #38]
 411:Middlewares/lvgl/src/widgets/lv_table.c ****         LV_LOG_WARN("lv_table_get_cell_crop: invalid row or column");
 4421              		.loc 1 411 7 view .LVU1563
 4422 0004 8C45     		cmp	ip, r1
 4423 0006 0FD9     		bls	.L232
 411:Middlewares/lvgl/src/widgets/lv_table.c ****         LV_LOG_WARN("lv_table_get_cell_crop: invalid row or column");
 4424              		.loc 1 411 45 discriminator 1 view .LVU1564
 4425 0008 B0F824C0 		ldrh	ip, [r0, #36]
 411:Middlewares/lvgl/src/widgets/lv_table.c ****         LV_LOG_WARN("lv_table_get_cell_crop: invalid row or column");
 4426              		.loc 1 411 30 discriminator 1 view .LVU1565
 4427 000c 9445     		cmp	ip, r2
 4428 000e 0DD9     		bls	.L233
ARM GAS  /tmp/ccTYGLnU.s 			page 133


 415:Middlewares/lvgl/src/widgets/lv_table.c **** 
 4429              		.loc 1 415 5 is_stmt 1 view .LVU1566
 415:Middlewares/lvgl/src/widgets/lv_table.c **** 
 4430              		.loc 1 415 42 is_stmt 0 view .LVU1567
 4431 0010 0CFB0122 		mla	r2, ip, r1, r2
 4432              	.LVL465:
 417:Middlewares/lvgl/src/widgets/lv_table.c ****     else return (table->cell_data[cell][0] & ctrl) == ctrl ? true : false;
 4433              		.loc 1 417 5 is_stmt 1 view .LVU1568
 417:Middlewares/lvgl/src/widgets/lv_table.c ****     else return (table->cell_data[cell][0] & ctrl) == ctrl ? true : false;
 4434              		.loc 1 417 13 is_stmt 0 view .LVU1569
 4435 0014 816A     		ldr	r1, [r0, #40]
 4436              	.LVL466:
 417:Middlewares/lvgl/src/widgets/lv_table.c ****     else return (table->cell_data[cell][0] & ctrl) == ctrl ? true : false;
 4437              		.loc 1 417 24 view .LVU1570
 4438 0016 51F82220 		ldr	r2, [r1, r2, lsl #2]
 4439              	.LVL467:
 417:Middlewares/lvgl/src/widgets/lv_table.c ****     else return (table->cell_data[cell][0] & ctrl) == ctrl ? true : false;
 4440              		.loc 1 417 7 view .LVU1571
 4441 001a 4AB1     		cbz	r2, .L234
 418:Middlewares/lvgl/src/widgets/lv_table.c **** }
 4442              		.loc 1 418 10 is_stmt 1 view .LVU1572
 418:Middlewares/lvgl/src/widgets/lv_table.c **** }
 4443              		.loc 1 418 40 is_stmt 0 view .LVU1573
 4444 001c 1278     		ldrb	r2, [r2]	@ zero_extendqisi2
 418:Middlewares/lvgl/src/widgets/lv_table.c **** }
 4445              		.loc 1 418 67 view .LVU1574
 4446 001e 9343     		bics	r3, r3, r2
 4447              	.LVL468:
 418:Middlewares/lvgl/src/widgets/lv_table.c **** }
 4448              		.loc 1 418 67 view .LVU1575
 4449 0020 0CBF     		ite	eq
 4450 0022 0120     		moveq	r0, #1
 4451              	.LVL469:
 418:Middlewares/lvgl/src/widgets/lv_table.c **** }
 4452              		.loc 1 418 67 view .LVU1576
 4453 0024 0020     		movne	r0, #0
 4454 0026 7047     		bx	lr
 4455              	.LVL470:
 4456              	.L232:
 413:Middlewares/lvgl/src/widgets/lv_table.c ****     }
 4457              		.loc 1 413 16 view .LVU1577
 4458 0028 0020     		movs	r0, #0
 4459              	.LVL471:
 413:Middlewares/lvgl/src/widgets/lv_table.c ****     }
 4460              		.loc 1 413 16 view .LVU1578
 4461 002a 7047     		bx	lr
 4462              	.LVL472:
 4463              	.L233:
 413:Middlewares/lvgl/src/widgets/lv_table.c ****     }
 4464              		.loc 1 413 16 view .LVU1579
 4465 002c 0020     		movs	r0, #0
 4466              	.LVL473:
 413:Middlewares/lvgl/src/widgets/lv_table.c ****     }
 4467              		.loc 1 413 16 view .LVU1580
 4468 002e 7047     		bx	lr
 4469              	.LVL474:
 4470              	.L234:
ARM GAS  /tmp/ccTYGLnU.s 			page 134


 417:Middlewares/lvgl/src/widgets/lv_table.c ****     else return (table->cell_data[cell][0] & ctrl) == ctrl ? true : false;
 4471              		.loc 1 417 47 view .LVU1581
 4472 0030 0020     		movs	r0, #0
 4473              	.LVL475:
 419:Middlewares/lvgl/src/widgets/lv_table.c **** 
 4474              		.loc 1 419 1 view .LVU1582
 4475 0032 7047     		bx	lr
 4476              		.cfi_endproc
 4477              	.LFE159:
 4479              		.section	.text.lv_table_get_selected_cell,"ax",%progbits
 4480              		.align	1
 4481              		.global	lv_table_get_selected_cell
 4482              		.syntax unified
 4483              		.thumb
 4484              		.thumb_func
 4485              		.fpu softvfp
 4487              	lv_table_get_selected_cell:
 4488              	.LVL476:
 4489              	.LFB160:
 422:Middlewares/lvgl/src/widgets/lv_table.c ****     lv_table_t * table = (lv_table_t *)obj;
 4490              		.loc 1 422 1 is_stmt 1 view -0
 4491              		.cfi_startproc
 4492              		@ args = 0, pretend = 0, frame = 0
 4493              		@ frame_needed = 0, uses_anonymous_args = 0
 4494              		@ link register save eliminated.
 423:Middlewares/lvgl/src/widgets/lv_table.c ****     *row = table->row_act;
 4495              		.loc 1 423 5 view .LVU1584
 424:Middlewares/lvgl/src/widgets/lv_table.c ****     *col = table->col_act;
 4496              		.loc 1 424 5 view .LVU1585
 424:Middlewares/lvgl/src/widgets/lv_table.c ****     *col = table->col_act;
 4497              		.loc 1 424 17 is_stmt 0 view .LVU1586
 4498 0000 C38E     		ldrh	r3, [r0, #54]
 424:Middlewares/lvgl/src/widgets/lv_table.c ****     *col = table->col_act;
 4499              		.loc 1 424 10 view .LVU1587
 4500 0002 0B80     		strh	r3, [r1]	@ movhi
 425:Middlewares/lvgl/src/widgets/lv_table.c **** }
 4501              		.loc 1 425 5 is_stmt 1 view .LVU1588
 425:Middlewares/lvgl/src/widgets/lv_table.c **** }
 4502              		.loc 1 425 17 is_stmt 0 view .LVU1589
 4503 0004 838E     		ldrh	r3, [r0, #52]
 425:Middlewares/lvgl/src/widgets/lv_table.c **** }
 4504              		.loc 1 425 10 view .LVU1590
 4505 0006 1380     		strh	r3, [r2]	@ movhi
 426:Middlewares/lvgl/src/widgets/lv_table.c **** 
 4506              		.loc 1 426 1 view .LVU1591
 4507 0008 7047     		bx	lr
 4508              		.cfi_endproc
 4509              	.LFE160:
 4511              		.global	lv_table_class
 4512              		.section	.rodata.lv_table_class,"a"
 4513              		.align	2
 4514              		.set	.LANCHOR0,. + 0
 4517              	lv_table_class:
 4518 0000 00000000 		.word	lv_obj_class
 4519 0004 00000000 		.word	lv_table_constructor
 4520 0008 00000000 		.word	lv_table_destructor
 4521 000c 00000000 		.space	4
ARM GAS  /tmp/ccTYGLnU.s 			page 135


 4522 0010 00000000 		.word	lv_table_event
 4523 0014 D127     		.short	10193
 4524 0016 D127     		.short	10193
 4525 0018 85       		.byte	133
 4526 0019 03       		.byte	3
 4527 001a 00       		.byte	0
 4528 001b 00       		.space	1
 4529              		.text
 4530              	.Letext0:
 4531              		.file 6 "/home/akinya/gcc-arm-none-eabi/arm-none-eabi/include/machine/_default_types.h"
 4532              		.file 7 "/home/akinya/gcc-arm-none-eabi/arm-none-eabi/include/sys/_stdint.h"
 4533              		.file 8 "/home/akinya/gcc-arm-none-eabi/lib/gcc/arm-none-eabi/10.2.1/include/stddef.h"
 4534              		.file 9 "Middlewares/lvgl/src/widgets/../core/../misc/lv_types.h"
 4535              		.file 10 "Middlewares/lvgl/src/widgets/../core/../misc/lv_color.h"
 4536              		.file 11 "/home/akinya/gcc-arm-none-eabi/lib/gcc/arm-none-eabi/10.2.1/include/stdarg.h"
 4537              		.file 12 "Middlewares/lvgl/src/widgets/../core/../misc/lv_txt.h"
 4538              		.file 13 "Middlewares/lvgl/src/widgets/../core/../misc/lv_bidi.h"
 4539              		.file 14 "Middlewares/lvgl/src/widgets/../core/../misc/lv_style.h"
 4540              		.file 15 "Middlewares/lvgl/src/widgets/../core/../hal/../misc/lv_ll.h"
 4541              		.file 16 "Middlewares/lvgl/src/widgets/../core/../hal/../misc/lv_timer.h"
 4542              		.file 17 "Middlewares/lvgl/src/widgets/../core/../hal/lv_hal_disp.h"
 4543              		.file 18 "Middlewares/lvgl/src/widgets/../core/lv_obj.h"
 4544              		.file 19 "Middlewares/lvgl/src/widgets/../core/../hal/lv_hal_indev.h"
 4545              		.file 20 "Middlewares/lvgl/src/widgets/../core/lv_group.h"
 4546              		.file 21 "Middlewares/lvgl/src/widgets/../core/lv_obj_scroll.h"
 4547              		.file 22 "Middlewares/lvgl/src/widgets/../core/lv_obj_style.h"
 4548              		.file 23 "Middlewares/lvgl/src/widgets/../core/../draw/lv_draw_rect.h"
 4549              		.file 24 "Middlewares/lvgl/src/widgets/../core/../draw/lv_draw_label.h"
 4550              		.file 25 "Middlewares/lvgl/src/widgets/../core/../draw/lv_draw_img.h"
 4551              		.file 26 "Middlewares/lvgl/src/widgets/../core/../draw/lv_draw_line.h"
 4552              		.file 27 "Middlewares/lvgl/src/widgets/../core/../draw/lv_draw_arc.h"
 4553              		.file 28 "Middlewares/lvgl/src/widgets/../core/lv_obj_draw.h"
 4554              		.file 29 "Middlewares/lvgl/src/widgets/../core/lv_obj_class.h"
 4555              		.file 30 "Middlewares/lvgl/src/widgets/../core/lv_event.h"
 4556              		.file 31 "Middlewares/lvgl/src/widgets/lv_table.h"
 4557              		.file 32 "Middlewares/lvgl/src/widgets/../core/lv_indev.h"
 4558              		.file 33 "Middlewares/lvgl/src/widgets/../core/lv_obj_pos.h"
 4559              		.file 34 "Middlewares/lvgl/src/widgets/../core/../misc/lv_printf.h"
 4560              		.file 35 "/home/akinya/gcc-arm-none-eabi/arm-none-eabi/include/string.h"
 4561              		.file 36 "<built-in>"
ARM GAS  /tmp/ccTYGLnU.s 			page 136


DEFINED SYMBOLS
                            *ABS*:0000000000000000 lv_table.c
     /tmp/ccTYGLnU.s:16     .text.get_row_height:0000000000000000 $t
     /tmp/ccTYGLnU.s:23     .text.get_row_height:0000000000000000 get_row_height
     /tmp/ccTYGLnU.s:344    .text.refr_size:0000000000000000 $t
     /tmp/ccTYGLnU.s:350    .text.refr_size:0000000000000000 refr_size
     /tmp/ccTYGLnU.s:617    .text.get_pressed_cell:0000000000000000 $t
     /tmp/ccTYGLnU.s:623    .text.get_pressed_cell:0000000000000000 get_pressed_cell
     /tmp/ccTYGLnU.s:954    .text.draw_main:0000000000000000 $t
     /tmp/ccTYGLnU.s:960    .text.draw_main:0000000000000000 draw_main
     /tmp/ccTYGLnU.s:2034   .text.lv_table_event:0000000000000000 $t
     /tmp/ccTYGLnU.s:2040   .text.lv_table_event:0000000000000000 lv_table_event
     /tmp/ccTYGLnU.s:2588   .text.lv_table_event:00000000000001cc $d
     /tmp/ccTYGLnU.s:2594   .text.lv_table_destructor:0000000000000000 $t
     /tmp/ccTYGLnU.s:2600   .text.lv_table_destructor:0000000000000000 lv_table_destructor
     /tmp/ccTYGLnU.s:2689   .text.lv_table_constructor:0000000000000000 $t
     /tmp/ccTYGLnU.s:2695   .text.lv_table_constructor:0000000000000000 lv_table_constructor
     /tmp/ccTYGLnU.s:2775   .text.lv_table_create:0000000000000000 $t
     /tmp/ccTYGLnU.s:2782   .text.lv_table_create:0000000000000000 lv_table_create
     /tmp/ccTYGLnU.s:2818   .text.lv_table_create:0000000000000014 $d
     /tmp/ccTYGLnU.s:2823   .text.lv_table_set_row_cnt:0000000000000000 $t
     /tmp/ccTYGLnU.s:2830   .text.lv_table_set_row_cnt:0000000000000000 lv_table_set_row_cnt
     /tmp/ccTYGLnU.s:3002   .text.lv_table_set_cell_value_fmt:0000000000000000 $t
     /tmp/ccTYGLnU.s:3009   .text.lv_table_set_cell_value_fmt:0000000000000000 lv_table_set_cell_value_fmt
     /tmp/ccTYGLnU.s:3420   .text.lv_table_set_col_cnt:0000000000000000 $t
     /tmp/ccTYGLnU.s:3427   .text.lv_table_set_col_cnt:0000000000000000 lv_table_set_col_cnt
     /tmp/ccTYGLnU.s:3711   .text.lv_table_set_cell_value:0000000000000000 $t
     /tmp/ccTYGLnU.s:3718   .text.lv_table_set_cell_value:0000000000000000 lv_table_set_cell_value
     /tmp/ccTYGLnU.s:3890   .text.lv_table_set_col_width:0000000000000000 $t
     /tmp/ccTYGLnU.s:3897   .text.lv_table_set_col_width:0000000000000000 lv_table_set_col_width
     /tmp/ccTYGLnU.s:3955   .text.lv_table_add_cell_ctrl:0000000000000000 $t
     /tmp/ccTYGLnU.s:3962   .text.lv_table_add_cell_ctrl:0000000000000000 lv_table_add_cell_ctrl
     /tmp/ccTYGLnU.s:4087   .text.lv_table_clear_cell_ctrl:0000000000000000 $t
     /tmp/ccTYGLnU.s:4094   .text.lv_table_clear_cell_ctrl:0000000000000000 lv_table_clear_cell_ctrl
     /tmp/ccTYGLnU.s:4219   .rodata.lv_table_get_cell_value.str1.4:0000000000000000 $d
     /tmp/ccTYGLnU.s:4223   .text.lv_table_get_cell_value:0000000000000000 $t
     /tmp/ccTYGLnU.s:4230   .text.lv_table_get_cell_value:0000000000000000 lv_table_get_cell_value
     /tmp/ccTYGLnU.s:4292   .text.lv_table_get_cell_value:0000000000000028 $d
     /tmp/ccTYGLnU.s:4297   .text.lv_table_get_row_cnt:0000000000000000 $t
     /tmp/ccTYGLnU.s:4304   .text.lv_table_get_row_cnt:0000000000000000 lv_table_get_row_cnt
     /tmp/ccTYGLnU.s:4326   .text.lv_table_get_col_cnt:0000000000000000 $t
     /tmp/ccTYGLnU.s:4333   .text.lv_table_get_col_cnt:0000000000000000 lv_table_get_col_cnt
     /tmp/ccTYGLnU.s:4355   .text.lv_table_get_col_width:0000000000000000 $t
     /tmp/ccTYGLnU.s:4362   .text.lv_table_get_col_width:0000000000000000 lv_table_get_col_width
     /tmp/ccTYGLnU.s:4399   .text.lv_table_has_cell_ctrl:0000000000000000 $t
     /tmp/ccTYGLnU.s:4406   .text.lv_table_has_cell_ctrl:0000000000000000 lv_table_has_cell_ctrl
     /tmp/ccTYGLnU.s:4480   .text.lv_table_get_selected_cell:0000000000000000 $t
     /tmp/ccTYGLnU.s:4487   .text.lv_table_get_selected_cell:0000000000000000 lv_table_get_selected_cell
     /tmp/ccTYGLnU.s:4517   .rodata.lv_table_class:0000000000000000 lv_table_class
     /tmp/ccTYGLnU.s:4513   .rodata.lv_table_class:0000000000000000 $d

UNDEFINED SYMBOLS
lv_txt_get_size
lv_obj_get_style_prop
lv_obj_refresh_self_size
lv_indev_get_act
lv_indev_get_type
ARM GAS  /tmp/ccTYGLnU.s 			page 137


lv_indev_get_point
lv_obj_get_scroll_x
lv_obj_get_scroll_y
lv_event_get_target
lv_event_get_param
lv_draw_rect_dsc_init
lv_obj_init_draw_rect_dsc
lv_draw_label_dsc_init
lv_obj_init_draw_label_dsc
lv_obj_draw_dsc_init
lv_memcpy
lv_event_send
lv_draw_rect
_lv_area_intersect
lv_draw_label
lv_obj_event_base
lv_event_get_code
lv_obj_invalidate
lv_indev_get_scroll_obj
lv_mem_free
lv_mem_alloc
lv_mem_realloc
lv_obj_class_create_obj
lv_obj_class_init_obj
lv_memset_00
lv_vsnprintf
strlen
strcpy
lv_obj_class
