ARM GAS  /tmp/ccLdejbV.s 			page 1


   1              		.cpu cortex-m3
   2              		.eabi_attribute 20, 1
   3              		.eabi_attribute 21, 1
   4              		.eabi_attribute 23, 3
   5              		.eabi_attribute 24, 1
   6              		.eabi_attribute 25, 1
   7              		.eabi_attribute 26, 1
   8              		.eabi_attribute 30, 1
   9              		.eabi_attribute 34, 1
  10              		.eabi_attribute 18, 4
  11              		.file	"stm32f1xx_hal_dac.c"
  12              		.text
  13              	.Ltext0:
  14              		.cfi_sections	.debug_frame
  15              		.section	.text.HAL_DAC_MspInit,"ax",%progbits
  16              		.align	1
  17              		.weak	HAL_DAC_MspInit
  18              		.arch armv7-m
  19              		.syntax unified
  20              		.thumb
  21              		.thumb_func
  22              		.fpu softvfp
  24              	HAL_DAC_MspInit:
  25              	.LVL0:
  26              	.LFB67:
  27              		.file 1 "Drivers/STM32F1xx_HAL_Driver/Src/stm32f1xx_hal_dac.c"
   1:Drivers/STM32F1xx_HAL_Driver/Src/stm32f1xx_hal_dac.c **** /**
   2:Drivers/STM32F1xx_HAL_Driver/Src/stm32f1xx_hal_dac.c ****   ******************************************************************************
   3:Drivers/STM32F1xx_HAL_Driver/Src/stm32f1xx_hal_dac.c ****   * @file    stm32f1xx_hal_dac.c
   4:Drivers/STM32F1xx_HAL_Driver/Src/stm32f1xx_hal_dac.c ****   * @author  MCD Application Team
   5:Drivers/STM32F1xx_HAL_Driver/Src/stm32f1xx_hal_dac.c ****   * @brief   DAC HAL module driver.
   6:Drivers/STM32F1xx_HAL_Driver/Src/stm32f1xx_hal_dac.c ****   *         This file provides firmware functions to manage the following
   7:Drivers/STM32F1xx_HAL_Driver/Src/stm32f1xx_hal_dac.c ****   *         functionalities of the Digital to Analog Converter (DAC) peripheral:
   8:Drivers/STM32F1xx_HAL_Driver/Src/stm32f1xx_hal_dac.c ****   *           + Initialization and de-initialization functions
   9:Drivers/STM32F1xx_HAL_Driver/Src/stm32f1xx_hal_dac.c ****   *           + IO operation functions
  10:Drivers/STM32F1xx_HAL_Driver/Src/stm32f1xx_hal_dac.c ****   *           + Peripheral Control functions
  11:Drivers/STM32F1xx_HAL_Driver/Src/stm32f1xx_hal_dac.c ****   *           + Peripheral State and Errors functions
  12:Drivers/STM32F1xx_HAL_Driver/Src/stm32f1xx_hal_dac.c ****   *
  13:Drivers/STM32F1xx_HAL_Driver/Src/stm32f1xx_hal_dac.c ****   *
  14:Drivers/STM32F1xx_HAL_Driver/Src/stm32f1xx_hal_dac.c ****   @verbatim
  15:Drivers/STM32F1xx_HAL_Driver/Src/stm32f1xx_hal_dac.c ****   ==============================================================================
  16:Drivers/STM32F1xx_HAL_Driver/Src/stm32f1xx_hal_dac.c ****                       ##### DAC Peripheral features #####
  17:Drivers/STM32F1xx_HAL_Driver/Src/stm32f1xx_hal_dac.c ****   ==============================================================================
  18:Drivers/STM32F1xx_HAL_Driver/Src/stm32f1xx_hal_dac.c ****     [..]
  19:Drivers/STM32F1xx_HAL_Driver/Src/stm32f1xx_hal_dac.c ****       *** DAC Channels ***
  20:Drivers/STM32F1xx_HAL_Driver/Src/stm32f1xx_hal_dac.c ****       ====================
  21:Drivers/STM32F1xx_HAL_Driver/Src/stm32f1xx_hal_dac.c ****     [..]
  22:Drivers/STM32F1xx_HAL_Driver/Src/stm32f1xx_hal_dac.c ****     STM32F1 devices integrate two 12-bit Digital Analog Converters
  23:Drivers/STM32F1xx_HAL_Driver/Src/stm32f1xx_hal_dac.c **** 
  24:Drivers/STM32F1xx_HAL_Driver/Src/stm32f1xx_hal_dac.c ****     The 2 converters (i.e. channel1 & channel2)
  25:Drivers/STM32F1xx_HAL_Driver/Src/stm32f1xx_hal_dac.c ****     can be used independently or simultaneously (dual mode):
  26:Drivers/STM32F1xx_HAL_Driver/Src/stm32f1xx_hal_dac.c ****       (#) DAC channel1 with DAC_OUT1 (PA4) as output or connected to on-chip
  27:Drivers/STM32F1xx_HAL_Driver/Src/stm32f1xx_hal_dac.c ****           peripherals (ex. timers).
  28:Drivers/STM32F1xx_HAL_Driver/Src/stm32f1xx_hal_dac.c ****       (#) DAC channel2 with DAC_OUT2 (PA5) as output or connected to on-chip
  29:Drivers/STM32F1xx_HAL_Driver/Src/stm32f1xx_hal_dac.c ****           peripherals (ex. timers).
  30:Drivers/STM32F1xx_HAL_Driver/Src/stm32f1xx_hal_dac.c **** 
  31:Drivers/STM32F1xx_HAL_Driver/Src/stm32f1xx_hal_dac.c ****       *** DAC Triggers ***
ARM GAS  /tmp/ccLdejbV.s 			page 2


  32:Drivers/STM32F1xx_HAL_Driver/Src/stm32f1xx_hal_dac.c ****       ====================
  33:Drivers/STM32F1xx_HAL_Driver/Src/stm32f1xx_hal_dac.c ****     [..]
  34:Drivers/STM32F1xx_HAL_Driver/Src/stm32f1xx_hal_dac.c ****     Digital to Analog conversion can be non-triggered using DAC_TRIGGER_NONE
  35:Drivers/STM32F1xx_HAL_Driver/Src/stm32f1xx_hal_dac.c ****     and DAC_OUT1/DAC_OUT2 is available once writing to DHRx register.
  36:Drivers/STM32F1xx_HAL_Driver/Src/stm32f1xx_hal_dac.c ****     [..]
  37:Drivers/STM32F1xx_HAL_Driver/Src/stm32f1xx_hal_dac.c ****     Digital to Analog conversion can be triggered by:
  38:Drivers/STM32F1xx_HAL_Driver/Src/stm32f1xx_hal_dac.c ****       (#) External event: EXTI Line 9 (any GPIOx_PIN_9) using DAC_TRIGGER_EXT_IT9.
  39:Drivers/STM32F1xx_HAL_Driver/Src/stm32f1xx_hal_dac.c ****           The used pin (GPIOx_PIN_9) must be configured in input mode.
  40:Drivers/STM32F1xx_HAL_Driver/Src/stm32f1xx_hal_dac.c **** 
  41:Drivers/STM32F1xx_HAL_Driver/Src/stm32f1xx_hal_dac.c ****       (#) Timers TRGO: TIM2, TIM4, TIM6, TIM7
  42:Drivers/STM32F1xx_HAL_Driver/Src/stm32f1xx_hal_dac.c ****           For STM32F10x connectivity line devices and STM32F100x devices: TIM3
  43:Drivers/STM32F1xx_HAL_Driver/Src/stm32f1xx_hal_dac.c ****           For STM32F10x high-density and XL-density devices: TIM8
  44:Drivers/STM32F1xx_HAL_Driver/Src/stm32f1xx_hal_dac.c ****           For STM32F100x high-density value line devices: TIM15 as
  45:Drivers/STM32F1xx_HAL_Driver/Src/stm32f1xx_hal_dac.c ****           replacement of TIM5.
  46:Drivers/STM32F1xx_HAL_Driver/Src/stm32f1xx_hal_dac.c ****           (DAC_TRIGGER_T2_TRGO, DAC_TRIGGER_T4_TRGO...)
  47:Drivers/STM32F1xx_HAL_Driver/Src/stm32f1xx_hal_dac.c **** 
  48:Drivers/STM32F1xx_HAL_Driver/Src/stm32f1xx_hal_dac.c ****       (#) Software using DAC_TRIGGER_SOFTWARE
  49:Drivers/STM32F1xx_HAL_Driver/Src/stm32f1xx_hal_dac.c **** 
  50:Drivers/STM32F1xx_HAL_Driver/Src/stm32f1xx_hal_dac.c ****       *** DAC Buffer mode feature ***
  51:Drivers/STM32F1xx_HAL_Driver/Src/stm32f1xx_hal_dac.c ****       ===============================
  52:Drivers/STM32F1xx_HAL_Driver/Src/stm32f1xx_hal_dac.c ****       [..]
  53:Drivers/STM32F1xx_HAL_Driver/Src/stm32f1xx_hal_dac.c ****       Each DAC channel integrates an output buffer that can be used to
  54:Drivers/STM32F1xx_HAL_Driver/Src/stm32f1xx_hal_dac.c ****       reduce the output impedance, and to drive external loads directly
  55:Drivers/STM32F1xx_HAL_Driver/Src/stm32f1xx_hal_dac.c ****       without having to add an external operational amplifier.
  56:Drivers/STM32F1xx_HAL_Driver/Src/stm32f1xx_hal_dac.c ****       To enable, the output buffer use
  57:Drivers/STM32F1xx_HAL_Driver/Src/stm32f1xx_hal_dac.c ****       sConfig.DAC_OutputBuffer = DAC_OUTPUTBUFFER_ENABLE;
  58:Drivers/STM32F1xx_HAL_Driver/Src/stm32f1xx_hal_dac.c ****       [..]
  59:Drivers/STM32F1xx_HAL_Driver/Src/stm32f1xx_hal_dac.c ****       (@) Refer to the device datasheet for more details about output
  60:Drivers/STM32F1xx_HAL_Driver/Src/stm32f1xx_hal_dac.c ****           impedance value with and without output buffer.
  61:Drivers/STM32F1xx_HAL_Driver/Src/stm32f1xx_hal_dac.c **** 
  62:Drivers/STM32F1xx_HAL_Driver/Src/stm32f1xx_hal_dac.c ****       *** GPIO configurations guidelines ***
  63:Drivers/STM32F1xx_HAL_Driver/Src/stm32f1xx_hal_dac.c ****       =====================
  64:Drivers/STM32F1xx_HAL_Driver/Src/stm32f1xx_hal_dac.c ****       [..]
  65:Drivers/STM32F1xx_HAL_Driver/Src/stm32f1xx_hal_dac.c ****       When a DAC channel is used (ex channel1 on PA4) and the other is not
  66:Drivers/STM32F1xx_HAL_Driver/Src/stm32f1xx_hal_dac.c ****       (ex channel2 on PA5 is configured in Analog and disabled).
  67:Drivers/STM32F1xx_HAL_Driver/Src/stm32f1xx_hal_dac.c ****       Channel1 may disturb channel2 as coupling effect.
  68:Drivers/STM32F1xx_HAL_Driver/Src/stm32f1xx_hal_dac.c ****       Note that there is no coupling on channel2 as soon as channel2 is turned on.
  69:Drivers/STM32F1xx_HAL_Driver/Src/stm32f1xx_hal_dac.c ****       Coupling on adjacent channel could be avoided as follows:
  70:Drivers/STM32F1xx_HAL_Driver/Src/stm32f1xx_hal_dac.c ****       when unused PA5 is configured as INPUT PULL-UP or DOWN.
  71:Drivers/STM32F1xx_HAL_Driver/Src/stm32f1xx_hal_dac.c ****       PA5 is configured in ANALOG just before it is turned on.
  72:Drivers/STM32F1xx_HAL_Driver/Src/stm32f1xx_hal_dac.c **** 
  73:Drivers/STM32F1xx_HAL_Driver/Src/stm32f1xx_hal_dac.c ****        *** DAC wave generation feature ***
  74:Drivers/STM32F1xx_HAL_Driver/Src/stm32f1xx_hal_dac.c ****        ===================================
  75:Drivers/STM32F1xx_HAL_Driver/Src/stm32f1xx_hal_dac.c ****        [..]
  76:Drivers/STM32F1xx_HAL_Driver/Src/stm32f1xx_hal_dac.c ****        Both DAC channels can be used to generate
  77:Drivers/STM32F1xx_HAL_Driver/Src/stm32f1xx_hal_dac.c ****          (#) Noise wave
  78:Drivers/STM32F1xx_HAL_Driver/Src/stm32f1xx_hal_dac.c ****          (#) Triangle wave
  79:Drivers/STM32F1xx_HAL_Driver/Src/stm32f1xx_hal_dac.c **** 
  80:Drivers/STM32F1xx_HAL_Driver/Src/stm32f1xx_hal_dac.c ****        *** DAC data format ***
  81:Drivers/STM32F1xx_HAL_Driver/Src/stm32f1xx_hal_dac.c ****        =======================
  82:Drivers/STM32F1xx_HAL_Driver/Src/stm32f1xx_hal_dac.c ****        [..]
  83:Drivers/STM32F1xx_HAL_Driver/Src/stm32f1xx_hal_dac.c ****        The DAC data format can be:
  84:Drivers/STM32F1xx_HAL_Driver/Src/stm32f1xx_hal_dac.c ****          (#) 8-bit right alignment using DAC_ALIGN_8B_R
  85:Drivers/STM32F1xx_HAL_Driver/Src/stm32f1xx_hal_dac.c ****          (#) 12-bit left alignment using DAC_ALIGN_12B_L
  86:Drivers/STM32F1xx_HAL_Driver/Src/stm32f1xx_hal_dac.c ****          (#) 12-bit right alignment using DAC_ALIGN_12B_R
  87:Drivers/STM32F1xx_HAL_Driver/Src/stm32f1xx_hal_dac.c **** 
  88:Drivers/STM32F1xx_HAL_Driver/Src/stm32f1xx_hal_dac.c ****        *** DAC data value to voltage correspondence ***
ARM GAS  /tmp/ccLdejbV.s 			page 3


  89:Drivers/STM32F1xx_HAL_Driver/Src/stm32f1xx_hal_dac.c ****        ================================================
  90:Drivers/STM32F1xx_HAL_Driver/Src/stm32f1xx_hal_dac.c ****        [..]
  91:Drivers/STM32F1xx_HAL_Driver/Src/stm32f1xx_hal_dac.c ****        The analog output voltage on each DAC channel pin is determined
  92:Drivers/STM32F1xx_HAL_Driver/Src/stm32f1xx_hal_dac.c ****        by the following equation:
  93:Drivers/STM32F1xx_HAL_Driver/Src/stm32f1xx_hal_dac.c ****        [..]
  94:Drivers/STM32F1xx_HAL_Driver/Src/stm32f1xx_hal_dac.c ****        DAC_OUTx = VREF+ * DOR / 4095
  95:Drivers/STM32F1xx_HAL_Driver/Src/stm32f1xx_hal_dac.c ****        (+) with  DOR is the Data Output Register
  96:Drivers/STM32F1xx_HAL_Driver/Src/stm32f1xx_hal_dac.c ****        [..]
  97:Drivers/STM32F1xx_HAL_Driver/Src/stm32f1xx_hal_dac.c ****           VREF+ is the input voltage reference (refer to the device datasheet)
  98:Drivers/STM32F1xx_HAL_Driver/Src/stm32f1xx_hal_dac.c ****        [..]
  99:Drivers/STM32F1xx_HAL_Driver/Src/stm32f1xx_hal_dac.c ****         e.g. To set DAC_OUT1 to 0.7V, use
 100:Drivers/STM32F1xx_HAL_Driver/Src/stm32f1xx_hal_dac.c ****        (+) Assuming that VREF+ = 3.3V, DAC_OUT1 = (3.3 * 868) / 4095 = 0.7V
 101:Drivers/STM32F1xx_HAL_Driver/Src/stm32f1xx_hal_dac.c **** 
 102:Drivers/STM32F1xx_HAL_Driver/Src/stm32f1xx_hal_dac.c ****        *** DMA requests ***
 103:Drivers/STM32F1xx_HAL_Driver/Src/stm32f1xx_hal_dac.c ****        =====================
 104:Drivers/STM32F1xx_HAL_Driver/Src/stm32f1xx_hal_dac.c ****        [..]
 105:Drivers/STM32F1xx_HAL_Driver/Src/stm32f1xx_hal_dac.c ****        A DMA request can be generated when an external trigger (but not a software trigger)
 106:Drivers/STM32F1xx_HAL_Driver/Src/stm32f1xx_hal_dac.c ****        occurs if DMA1 requests are enabled using HAL_DAC_Start_DMA().
 107:Drivers/STM32F1xx_HAL_Driver/Src/stm32f1xx_hal_dac.c ****        DMA1 requests are mapped as following:
 108:Drivers/STM32F1xx_HAL_Driver/Src/stm32f1xx_hal_dac.c ****       (#) DAC channel1 mapped on DMA1 channel3
 109:Drivers/STM32F1xx_HAL_Driver/Src/stm32f1xx_hal_dac.c ****           for STM32F100x low-density, medium-density, high-density with DAC
 110:Drivers/STM32F1xx_HAL_Driver/Src/stm32f1xx_hal_dac.c ****           DMA remap:
 111:Drivers/STM32F1xx_HAL_Driver/Src/stm32f1xx_hal_dac.c ****       (#) DAC channel2 mapped on DMA2 channel3
 112:Drivers/STM32F1xx_HAL_Driver/Src/stm32f1xx_hal_dac.c ****           for STM32F100x high-density without DAC DMA remap and other
 113:Drivers/STM32F1xx_HAL_Driver/Src/stm32f1xx_hal_dac.c ****           STM32F1 devices
 114:Drivers/STM32F1xx_HAL_Driver/Src/stm32f1xx_hal_dac.c **** 
 115:Drivers/STM32F1xx_HAL_Driver/Src/stm32f1xx_hal_dac.c ****      [..]
 116:Drivers/STM32F1xx_HAL_Driver/Src/stm32f1xx_hal_dac.c ****     (@) For Dual mode and specific signal (Triangle and noise) generation please
 117:Drivers/STM32F1xx_HAL_Driver/Src/stm32f1xx_hal_dac.c ****         refer to Extended Features Driver description
 118:Drivers/STM32F1xx_HAL_Driver/Src/stm32f1xx_hal_dac.c **** 
 119:Drivers/STM32F1xx_HAL_Driver/Src/stm32f1xx_hal_dac.c ****                       ##### How to use this driver #####
 120:Drivers/STM32F1xx_HAL_Driver/Src/stm32f1xx_hal_dac.c ****   ==============================================================================
 121:Drivers/STM32F1xx_HAL_Driver/Src/stm32f1xx_hal_dac.c ****     [..]
 122:Drivers/STM32F1xx_HAL_Driver/Src/stm32f1xx_hal_dac.c ****       (+) DAC APB clock must be enabled to get write access to DAC
 123:Drivers/STM32F1xx_HAL_Driver/Src/stm32f1xx_hal_dac.c ****           registers using HAL_DAC_Init()
 124:Drivers/STM32F1xx_HAL_Driver/Src/stm32f1xx_hal_dac.c ****       (+) Configure DAC_OUTx (DAC_OUT1: PA4, DAC_OUT2: PA5) in analog mode.
 125:Drivers/STM32F1xx_HAL_Driver/Src/stm32f1xx_hal_dac.c ****       (+) Configure the DAC channel using HAL_DAC_ConfigChannel() function.
 126:Drivers/STM32F1xx_HAL_Driver/Src/stm32f1xx_hal_dac.c ****       (+) Enable the DAC channel using HAL_DAC_Start() or HAL_DAC_Start_DMA() functions.
 127:Drivers/STM32F1xx_HAL_Driver/Src/stm32f1xx_hal_dac.c **** 
 128:Drivers/STM32F1xx_HAL_Driver/Src/stm32f1xx_hal_dac.c **** 
 129:Drivers/STM32F1xx_HAL_Driver/Src/stm32f1xx_hal_dac.c ****      *** Polling mode IO operation ***
 130:Drivers/STM32F1xx_HAL_Driver/Src/stm32f1xx_hal_dac.c ****      =================================
 131:Drivers/STM32F1xx_HAL_Driver/Src/stm32f1xx_hal_dac.c ****      [..]
 132:Drivers/STM32F1xx_HAL_Driver/Src/stm32f1xx_hal_dac.c ****        (+) Start the DAC peripheral using HAL_DAC_Start()
 133:Drivers/STM32F1xx_HAL_Driver/Src/stm32f1xx_hal_dac.c ****        (+) To read the DAC last data output value, use the HAL_DAC_GetValue() function.
 134:Drivers/STM32F1xx_HAL_Driver/Src/stm32f1xx_hal_dac.c ****        (+) Stop the DAC peripheral using HAL_DAC_Stop()
 135:Drivers/STM32F1xx_HAL_Driver/Src/stm32f1xx_hal_dac.c **** 
 136:Drivers/STM32F1xx_HAL_Driver/Src/stm32f1xx_hal_dac.c ****      *** DMA mode IO operation ***
 137:Drivers/STM32F1xx_HAL_Driver/Src/stm32f1xx_hal_dac.c ****      ==============================
 138:Drivers/STM32F1xx_HAL_Driver/Src/stm32f1xx_hal_dac.c ****      [..]
 139:Drivers/STM32F1xx_HAL_Driver/Src/stm32f1xx_hal_dac.c ****        (+) Start the DAC peripheral using HAL_DAC_Start_DMA(), at this stage the user specify the l
 140:Drivers/STM32F1xx_HAL_Driver/Src/stm32f1xx_hal_dac.c ****            of data to be transferred at each end of conversion
 141:Drivers/STM32F1xx_HAL_Driver/Src/stm32f1xx_hal_dac.c ****            First issued trigger will start the conversion of the value previously set by HAL_DAC_Se
 142:Drivers/STM32F1xx_HAL_Driver/Src/stm32f1xx_hal_dac.c ****        (+) At the middle of data transfer HAL_DAC_ConvHalfCpltCallbackCh1() or HAL_DACEx_ConvHalfCp
 143:Drivers/STM32F1xx_HAL_Driver/Src/stm32f1xx_hal_dac.c ****            function is executed and user can add his own code by customization of function pointer
 144:Drivers/STM32F1xx_HAL_Driver/Src/stm32f1xx_hal_dac.c ****            HAL_DAC_ConvHalfCpltCallbackCh1() or HAL_DACEx_ConvHalfCpltCallbackCh2()
 145:Drivers/STM32F1xx_HAL_Driver/Src/stm32f1xx_hal_dac.c ****        (+) At The end of data transfer HAL_DAC_ConvCpltCallbackCh1() or HAL_DACEx_ConvHalfCpltCallb
ARM GAS  /tmp/ccLdejbV.s 			page 4


 146:Drivers/STM32F1xx_HAL_Driver/Src/stm32f1xx_hal_dac.c ****            function is executed and user can add his own code by customization of function pointer
 147:Drivers/STM32F1xx_HAL_Driver/Src/stm32f1xx_hal_dac.c ****            HAL_DAC_ConvCpltCallbackCh1() or HAL_DACEx_ConvHalfCpltCallbackCh2()
 148:Drivers/STM32F1xx_HAL_Driver/Src/stm32f1xx_hal_dac.c ****        (+) In case of transfer Error, HAL_DAC_ErrorCallbackCh1() function is executed and user can
 149:Drivers/STM32F1xx_HAL_Driver/Src/stm32f1xx_hal_dac.c ****             add his own code by customization of function pointer HAL_DAC_ErrorCallbackCh1
 150:Drivers/STM32F1xx_HAL_Driver/Src/stm32f1xx_hal_dac.c ****        (+) For STM32F100x devices with specific feature: DMA underrun.
 151:Drivers/STM32F1xx_HAL_Driver/Src/stm32f1xx_hal_dac.c ****            In case of DMA underrun, DAC interruption triggers and execute internal function HAL_DAC
 152:Drivers/STM32F1xx_HAL_Driver/Src/stm32f1xx_hal_dac.c ****            HAL_DAC_DMAUnderrunCallbackCh1() or HAL_DACEx_DMAUnderrunCallbackCh2()
 153:Drivers/STM32F1xx_HAL_Driver/Src/stm32f1xx_hal_dac.c ****            function is executed and user can add his own code by customization of function pointer
 154:Drivers/STM32F1xx_HAL_Driver/Src/stm32f1xx_hal_dac.c ****            HAL_DAC_DMAUnderrunCallbackCh1() or HAL_DACEx_DMAUnderrunCallbackCh2() and
 155:Drivers/STM32F1xx_HAL_Driver/Src/stm32f1xx_hal_dac.c ****            add his own code by customization of function pointer HAL_DAC_ErrorCallbackCh1()
 156:Drivers/STM32F1xx_HAL_Driver/Src/stm32f1xx_hal_dac.c ****        (+) Stop the DAC peripheral using HAL_DAC_Stop_DMA()
 157:Drivers/STM32F1xx_HAL_Driver/Src/stm32f1xx_hal_dac.c **** 
 158:Drivers/STM32F1xx_HAL_Driver/Src/stm32f1xx_hal_dac.c ****     *** Callback registration ***
 159:Drivers/STM32F1xx_HAL_Driver/Src/stm32f1xx_hal_dac.c ****     =============================================
 160:Drivers/STM32F1xx_HAL_Driver/Src/stm32f1xx_hal_dac.c ****     [..]
 161:Drivers/STM32F1xx_HAL_Driver/Src/stm32f1xx_hal_dac.c ****       The compilation define  USE_HAL_DAC_REGISTER_CALLBACKS when set to 1
 162:Drivers/STM32F1xx_HAL_Driver/Src/stm32f1xx_hal_dac.c ****       allows the user to configure dynamically the driver callbacks.
 163:Drivers/STM32F1xx_HAL_Driver/Src/stm32f1xx_hal_dac.c **** 
 164:Drivers/STM32F1xx_HAL_Driver/Src/stm32f1xx_hal_dac.c ****     Use Functions @ref HAL_DAC_RegisterCallback() to register a user callback,
 165:Drivers/STM32F1xx_HAL_Driver/Src/stm32f1xx_hal_dac.c ****       it allows to register following callbacks:
 166:Drivers/STM32F1xx_HAL_Driver/Src/stm32f1xx_hal_dac.c ****       (+) ConvCpltCallbackCh1     : callback when a half transfer is completed on Ch1.
 167:Drivers/STM32F1xx_HAL_Driver/Src/stm32f1xx_hal_dac.c ****       (+) ConvHalfCpltCallbackCh1 : callback when a transfer is completed on Ch1.
 168:Drivers/STM32F1xx_HAL_Driver/Src/stm32f1xx_hal_dac.c ****       (+) ErrorCallbackCh1        : callback when an error occurs on Ch1.
 169:Drivers/STM32F1xx_HAL_Driver/Src/stm32f1xx_hal_dac.c ****       (+) DMAUnderrunCallbackCh1  : callback when an underrun error occurs on Ch1.
 170:Drivers/STM32F1xx_HAL_Driver/Src/stm32f1xx_hal_dac.c ****       (+) ConvCpltCallbackCh2     : callback when a half transfer is completed on Ch2.
 171:Drivers/STM32F1xx_HAL_Driver/Src/stm32f1xx_hal_dac.c ****       (+) ConvHalfCpltCallbackCh2 : callback when a transfer is completed on Ch2.
 172:Drivers/STM32F1xx_HAL_Driver/Src/stm32f1xx_hal_dac.c ****       (+) ErrorCallbackCh2        : callback when an error occurs on Ch2.
 173:Drivers/STM32F1xx_HAL_Driver/Src/stm32f1xx_hal_dac.c ****       (+) DMAUnderrunCallbackCh2  : callback when an underrun error occurs on Ch2.
 174:Drivers/STM32F1xx_HAL_Driver/Src/stm32f1xx_hal_dac.c ****       (+) MspInitCallback         : DAC MspInit.
 175:Drivers/STM32F1xx_HAL_Driver/Src/stm32f1xx_hal_dac.c ****       (+) MspDeInitCallback       : DAC MspdeInit.
 176:Drivers/STM32F1xx_HAL_Driver/Src/stm32f1xx_hal_dac.c ****       This function takes as parameters the HAL peripheral handle, the Callback ID
 177:Drivers/STM32F1xx_HAL_Driver/Src/stm32f1xx_hal_dac.c ****       and a pointer to the user callback function.
 178:Drivers/STM32F1xx_HAL_Driver/Src/stm32f1xx_hal_dac.c **** 
 179:Drivers/STM32F1xx_HAL_Driver/Src/stm32f1xx_hal_dac.c ****     Use function @ref HAL_DAC_UnRegisterCallback() to reset a callback to the default
 180:Drivers/STM32F1xx_HAL_Driver/Src/stm32f1xx_hal_dac.c ****       weak (surcharged) function. It allows to reset following callbacks:
 181:Drivers/STM32F1xx_HAL_Driver/Src/stm32f1xx_hal_dac.c ****       (+) ConvCpltCallbackCh1     : callback when a half transfer is completed on Ch1.
 182:Drivers/STM32F1xx_HAL_Driver/Src/stm32f1xx_hal_dac.c ****       (+) ConvHalfCpltCallbackCh1 : callback when a transfer is completed on Ch1.
 183:Drivers/STM32F1xx_HAL_Driver/Src/stm32f1xx_hal_dac.c ****       (+) ErrorCallbackCh1        : callback when an error occurs on Ch1.
 184:Drivers/STM32F1xx_HAL_Driver/Src/stm32f1xx_hal_dac.c ****       (+) DMAUnderrunCallbackCh1  : callback when an underrun error occurs on Ch1.
 185:Drivers/STM32F1xx_HAL_Driver/Src/stm32f1xx_hal_dac.c ****       (+) ConvCpltCallbackCh2     : callback when a half transfer is completed on Ch2.
 186:Drivers/STM32F1xx_HAL_Driver/Src/stm32f1xx_hal_dac.c ****       (+) ConvHalfCpltCallbackCh2 : callback when a transfer is completed on Ch2.
 187:Drivers/STM32F1xx_HAL_Driver/Src/stm32f1xx_hal_dac.c ****       (+) ErrorCallbackCh2        : callback when an error occurs on Ch2.
 188:Drivers/STM32F1xx_HAL_Driver/Src/stm32f1xx_hal_dac.c ****       (+) DMAUnderrunCallbackCh2  : callback when an underrun error occurs on Ch2.
 189:Drivers/STM32F1xx_HAL_Driver/Src/stm32f1xx_hal_dac.c ****       (+) MspInitCallback         : DAC MspInit.
 190:Drivers/STM32F1xx_HAL_Driver/Src/stm32f1xx_hal_dac.c ****       (+) MspDeInitCallback       : DAC MspdeInit.
 191:Drivers/STM32F1xx_HAL_Driver/Src/stm32f1xx_hal_dac.c ****       (+) All Callbacks
 192:Drivers/STM32F1xx_HAL_Driver/Src/stm32f1xx_hal_dac.c ****       This function) takes as parameters the HAL peripheral handle and the Callback ID.
 193:Drivers/STM32F1xx_HAL_Driver/Src/stm32f1xx_hal_dac.c **** 
 194:Drivers/STM32F1xx_HAL_Driver/Src/stm32f1xx_hal_dac.c ****       By default, after the @ref HAL_DAC_Init and if the state is HAL_DAC_STATE_RESET
 195:Drivers/STM32F1xx_HAL_Driver/Src/stm32f1xx_hal_dac.c ****       all callbacks are reset to the corresponding legacy weak (surcharged) functions.
 196:Drivers/STM32F1xx_HAL_Driver/Src/stm32f1xx_hal_dac.c ****       Exception done for MspInit and MspDeInit callbacks that are respectively
 197:Drivers/STM32F1xx_HAL_Driver/Src/stm32f1xx_hal_dac.c ****       reset to the legacy weak (surcharged) functions in the @ref HAL_DAC_Init
 198:Drivers/STM32F1xx_HAL_Driver/Src/stm32f1xx_hal_dac.c ****       and @ref  HAL_DAC_DeInit only when these callbacks are null (not registered beforehand).
 199:Drivers/STM32F1xx_HAL_Driver/Src/stm32f1xx_hal_dac.c ****       If not, MspInit or MspDeInit are not null, the @ref HAL_DAC_Init and @ref HAL_DAC_DeInit
 200:Drivers/STM32F1xx_HAL_Driver/Src/stm32f1xx_hal_dac.c ****       keep and use the user MspInit/MspDeInit callbacks (registered beforehand)
 201:Drivers/STM32F1xx_HAL_Driver/Src/stm32f1xx_hal_dac.c **** 
 202:Drivers/STM32F1xx_HAL_Driver/Src/stm32f1xx_hal_dac.c ****       Callbacks can be registered/unregistered in READY state only.
ARM GAS  /tmp/ccLdejbV.s 			page 5


 203:Drivers/STM32F1xx_HAL_Driver/Src/stm32f1xx_hal_dac.c ****       Exception done for MspInit/MspDeInit callbacks that can be registered/unregistered
 204:Drivers/STM32F1xx_HAL_Driver/Src/stm32f1xx_hal_dac.c ****       in READY or RESET state, thus registered (user) MspInit/DeInit callbacks can be used
 205:Drivers/STM32F1xx_HAL_Driver/Src/stm32f1xx_hal_dac.c ****       during the Init/DeInit.
 206:Drivers/STM32F1xx_HAL_Driver/Src/stm32f1xx_hal_dac.c ****       In that case first register the MspInit/MspDeInit user callbacks
 207:Drivers/STM32F1xx_HAL_Driver/Src/stm32f1xx_hal_dac.c ****       using @ref HAL_DAC_RegisterCallback before calling @ref HAL_DAC_DeInit
 208:Drivers/STM32F1xx_HAL_Driver/Src/stm32f1xx_hal_dac.c ****       or @ref HAL_DAC_Init function.
 209:Drivers/STM32F1xx_HAL_Driver/Src/stm32f1xx_hal_dac.c **** 
 210:Drivers/STM32F1xx_HAL_Driver/Src/stm32f1xx_hal_dac.c ****       When The compilation define USE_HAL_DAC_REGISTER_CALLBACKS is set to 0 or
 211:Drivers/STM32F1xx_HAL_Driver/Src/stm32f1xx_hal_dac.c ****       not defined, the callback registering feature is not available
 212:Drivers/STM32F1xx_HAL_Driver/Src/stm32f1xx_hal_dac.c ****       and weak (surcharged) callbacks are used.
 213:Drivers/STM32F1xx_HAL_Driver/Src/stm32f1xx_hal_dac.c **** 
 214:Drivers/STM32F1xx_HAL_Driver/Src/stm32f1xx_hal_dac.c ****      *** DAC HAL driver macros list ***
 215:Drivers/STM32F1xx_HAL_Driver/Src/stm32f1xx_hal_dac.c ****      =============================================
 216:Drivers/STM32F1xx_HAL_Driver/Src/stm32f1xx_hal_dac.c ****      [..]
 217:Drivers/STM32F1xx_HAL_Driver/Src/stm32f1xx_hal_dac.c ****        Below the list of most used macros in DAC HAL driver.
 218:Drivers/STM32F1xx_HAL_Driver/Src/stm32f1xx_hal_dac.c **** 
 219:Drivers/STM32F1xx_HAL_Driver/Src/stm32f1xx_hal_dac.c ****       (+) __HAL_DAC_ENABLE : Enable the DAC peripheral (For STM32F100x devices with specific featur
 220:Drivers/STM32F1xx_HAL_Driver/Src/stm32f1xx_hal_dac.c ****       (+) __HAL_DAC_DISABLE : Disable the DAC peripheral (For STM32F100x devices with specific feat
 221:Drivers/STM32F1xx_HAL_Driver/Src/stm32f1xx_hal_dac.c ****       (+) __HAL_DAC_CLEAR_FLAG: Clear the DAC's pending flags (For STM32F100x devices with specific
 222:Drivers/STM32F1xx_HAL_Driver/Src/stm32f1xx_hal_dac.c ****       (+) __HAL_DAC_GET_FLAG: Get the selected DAC's flag status (For STM32F100x devices with speci
 223:Drivers/STM32F1xx_HAL_Driver/Src/stm32f1xx_hal_dac.c **** 
 224:Drivers/STM32F1xx_HAL_Driver/Src/stm32f1xx_hal_dac.c ****      [..]
 225:Drivers/STM32F1xx_HAL_Driver/Src/stm32f1xx_hal_dac.c ****       (@) You can refer to the DAC HAL driver header file for more useful macros
 226:Drivers/STM32F1xx_HAL_Driver/Src/stm32f1xx_hal_dac.c **** 
 227:Drivers/STM32F1xx_HAL_Driver/Src/stm32f1xx_hal_dac.c **** @endverbatim
 228:Drivers/STM32F1xx_HAL_Driver/Src/stm32f1xx_hal_dac.c ****   ******************************************************************************
 229:Drivers/STM32F1xx_HAL_Driver/Src/stm32f1xx_hal_dac.c ****   * @attention
 230:Drivers/STM32F1xx_HAL_Driver/Src/stm32f1xx_hal_dac.c ****   *
 231:Drivers/STM32F1xx_HAL_Driver/Src/stm32f1xx_hal_dac.c ****   * <h2><center>&copy; Copyright (c) 2016 STMicroelectronics.
 232:Drivers/STM32F1xx_HAL_Driver/Src/stm32f1xx_hal_dac.c ****   * All rights reserved.</center></h2>
 233:Drivers/STM32F1xx_HAL_Driver/Src/stm32f1xx_hal_dac.c ****   *
 234:Drivers/STM32F1xx_HAL_Driver/Src/stm32f1xx_hal_dac.c ****   * This software component is licensed by ST under BSD 3-Clause license,
 235:Drivers/STM32F1xx_HAL_Driver/Src/stm32f1xx_hal_dac.c ****   * the "License"; You may not use this file except in compliance with the
 236:Drivers/STM32F1xx_HAL_Driver/Src/stm32f1xx_hal_dac.c ****   * License. You may obtain a copy of the License at:
 237:Drivers/STM32F1xx_HAL_Driver/Src/stm32f1xx_hal_dac.c ****   *                        opensource.org/licenses/BSD-3-Clause
 238:Drivers/STM32F1xx_HAL_Driver/Src/stm32f1xx_hal_dac.c ****   *
 239:Drivers/STM32F1xx_HAL_Driver/Src/stm32f1xx_hal_dac.c ****   ******************************************************************************
 240:Drivers/STM32F1xx_HAL_Driver/Src/stm32f1xx_hal_dac.c ****   */
 241:Drivers/STM32F1xx_HAL_Driver/Src/stm32f1xx_hal_dac.c **** 
 242:Drivers/STM32F1xx_HAL_Driver/Src/stm32f1xx_hal_dac.c **** /* Includes ------------------------------------------------------------------*/
 243:Drivers/STM32F1xx_HAL_Driver/Src/stm32f1xx_hal_dac.c **** #include "stm32f1xx_hal.h"
 244:Drivers/STM32F1xx_HAL_Driver/Src/stm32f1xx_hal_dac.c **** 
 245:Drivers/STM32F1xx_HAL_Driver/Src/stm32f1xx_hal_dac.c **** /** @addtogroup STM32F1xx_HAL_Driver
 246:Drivers/STM32F1xx_HAL_Driver/Src/stm32f1xx_hal_dac.c ****   * @{
 247:Drivers/STM32F1xx_HAL_Driver/Src/stm32f1xx_hal_dac.c ****   */
 248:Drivers/STM32F1xx_HAL_Driver/Src/stm32f1xx_hal_dac.c **** 
 249:Drivers/STM32F1xx_HAL_Driver/Src/stm32f1xx_hal_dac.c **** #ifdef HAL_DAC_MODULE_ENABLED
 250:Drivers/STM32F1xx_HAL_Driver/Src/stm32f1xx_hal_dac.c **** #if defined(DAC)
 251:Drivers/STM32F1xx_HAL_Driver/Src/stm32f1xx_hal_dac.c **** 
 252:Drivers/STM32F1xx_HAL_Driver/Src/stm32f1xx_hal_dac.c **** /** @defgroup DAC DAC
 253:Drivers/STM32F1xx_HAL_Driver/Src/stm32f1xx_hal_dac.c ****   * @brief DAC driver modules
 254:Drivers/STM32F1xx_HAL_Driver/Src/stm32f1xx_hal_dac.c ****   * @{
 255:Drivers/STM32F1xx_HAL_Driver/Src/stm32f1xx_hal_dac.c ****   */
 256:Drivers/STM32F1xx_HAL_Driver/Src/stm32f1xx_hal_dac.c **** 
 257:Drivers/STM32F1xx_HAL_Driver/Src/stm32f1xx_hal_dac.c **** /* Private typedef -----------------------------------------------------------*/
 258:Drivers/STM32F1xx_HAL_Driver/Src/stm32f1xx_hal_dac.c **** /* Private define ------------------------------------------------------------*/
 259:Drivers/STM32F1xx_HAL_Driver/Src/stm32f1xx_hal_dac.c **** /* Private constants ---------------------------------------------------------*/
ARM GAS  /tmp/ccLdejbV.s 			page 6


 260:Drivers/STM32F1xx_HAL_Driver/Src/stm32f1xx_hal_dac.c **** /* Private macro -------------------------------------------------------------*/
 261:Drivers/STM32F1xx_HAL_Driver/Src/stm32f1xx_hal_dac.c **** /* Private variables ---------------------------------------------------------*/
 262:Drivers/STM32F1xx_HAL_Driver/Src/stm32f1xx_hal_dac.c **** /* Private function prototypes -----------------------------------------------*/
 263:Drivers/STM32F1xx_HAL_Driver/Src/stm32f1xx_hal_dac.c **** /* Exported functions -------------------------------------------------------*/
 264:Drivers/STM32F1xx_HAL_Driver/Src/stm32f1xx_hal_dac.c **** 
 265:Drivers/STM32F1xx_HAL_Driver/Src/stm32f1xx_hal_dac.c **** /** @defgroup DAC_Exported_Functions DAC Exported Functions
 266:Drivers/STM32F1xx_HAL_Driver/Src/stm32f1xx_hal_dac.c ****   * @{
 267:Drivers/STM32F1xx_HAL_Driver/Src/stm32f1xx_hal_dac.c ****   */
 268:Drivers/STM32F1xx_HAL_Driver/Src/stm32f1xx_hal_dac.c **** 
 269:Drivers/STM32F1xx_HAL_Driver/Src/stm32f1xx_hal_dac.c **** /** @defgroup DAC_Exported_Functions_Group1 Initialization and de-initialization functions
 270:Drivers/STM32F1xx_HAL_Driver/Src/stm32f1xx_hal_dac.c ****   *  @brief    Initialization and Configuration functions
 271:Drivers/STM32F1xx_HAL_Driver/Src/stm32f1xx_hal_dac.c ****   *
 272:Drivers/STM32F1xx_HAL_Driver/Src/stm32f1xx_hal_dac.c **** @verbatim
 273:Drivers/STM32F1xx_HAL_Driver/Src/stm32f1xx_hal_dac.c ****   ==============================================================================
 274:Drivers/STM32F1xx_HAL_Driver/Src/stm32f1xx_hal_dac.c ****               ##### Initialization and de-initialization functions #####
 275:Drivers/STM32F1xx_HAL_Driver/Src/stm32f1xx_hal_dac.c ****   ==============================================================================
 276:Drivers/STM32F1xx_HAL_Driver/Src/stm32f1xx_hal_dac.c ****     [..]  This section provides functions allowing to:
 277:Drivers/STM32F1xx_HAL_Driver/Src/stm32f1xx_hal_dac.c ****       (+) Initialize and configure the DAC.
 278:Drivers/STM32F1xx_HAL_Driver/Src/stm32f1xx_hal_dac.c ****       (+) De-initialize the DAC.
 279:Drivers/STM32F1xx_HAL_Driver/Src/stm32f1xx_hal_dac.c **** 
 280:Drivers/STM32F1xx_HAL_Driver/Src/stm32f1xx_hal_dac.c **** @endverbatim
 281:Drivers/STM32F1xx_HAL_Driver/Src/stm32f1xx_hal_dac.c ****   * @{
 282:Drivers/STM32F1xx_HAL_Driver/Src/stm32f1xx_hal_dac.c ****   */
 283:Drivers/STM32F1xx_HAL_Driver/Src/stm32f1xx_hal_dac.c **** 
 284:Drivers/STM32F1xx_HAL_Driver/Src/stm32f1xx_hal_dac.c **** /**
 285:Drivers/STM32F1xx_HAL_Driver/Src/stm32f1xx_hal_dac.c ****   * @brief  Initialize the DAC peripheral according to the specified parameters
 286:Drivers/STM32F1xx_HAL_Driver/Src/stm32f1xx_hal_dac.c ****   *         in the DAC_InitStruct and initialize the associated handle.
 287:Drivers/STM32F1xx_HAL_Driver/Src/stm32f1xx_hal_dac.c ****   * @param  hdac pointer to a DAC_HandleTypeDef structure that contains
 288:Drivers/STM32F1xx_HAL_Driver/Src/stm32f1xx_hal_dac.c ****   *         the configuration information for the specified DAC.
 289:Drivers/STM32F1xx_HAL_Driver/Src/stm32f1xx_hal_dac.c ****   * @retval HAL status
 290:Drivers/STM32F1xx_HAL_Driver/Src/stm32f1xx_hal_dac.c ****   */
 291:Drivers/STM32F1xx_HAL_Driver/Src/stm32f1xx_hal_dac.c **** HAL_StatusTypeDef HAL_DAC_Init(DAC_HandleTypeDef *hdac)
 292:Drivers/STM32F1xx_HAL_Driver/Src/stm32f1xx_hal_dac.c **** {
 293:Drivers/STM32F1xx_HAL_Driver/Src/stm32f1xx_hal_dac.c ****   /* Check DAC handle */
 294:Drivers/STM32F1xx_HAL_Driver/Src/stm32f1xx_hal_dac.c ****   if (hdac == NULL)
 295:Drivers/STM32F1xx_HAL_Driver/Src/stm32f1xx_hal_dac.c ****   {
 296:Drivers/STM32F1xx_HAL_Driver/Src/stm32f1xx_hal_dac.c ****     return HAL_ERROR;
 297:Drivers/STM32F1xx_HAL_Driver/Src/stm32f1xx_hal_dac.c ****   }
 298:Drivers/STM32F1xx_HAL_Driver/Src/stm32f1xx_hal_dac.c ****   /* Check the parameters */
 299:Drivers/STM32F1xx_HAL_Driver/Src/stm32f1xx_hal_dac.c ****   assert_param(IS_DAC_ALL_INSTANCE(hdac->Instance));
 300:Drivers/STM32F1xx_HAL_Driver/Src/stm32f1xx_hal_dac.c **** 
 301:Drivers/STM32F1xx_HAL_Driver/Src/stm32f1xx_hal_dac.c ****   if (hdac->State == HAL_DAC_STATE_RESET)
 302:Drivers/STM32F1xx_HAL_Driver/Src/stm32f1xx_hal_dac.c ****   {
 303:Drivers/STM32F1xx_HAL_Driver/Src/stm32f1xx_hal_dac.c **** #if (USE_HAL_DAC_REGISTER_CALLBACKS == 1)
 304:Drivers/STM32F1xx_HAL_Driver/Src/stm32f1xx_hal_dac.c ****     /* Init the DAC Callback settings */
 305:Drivers/STM32F1xx_HAL_Driver/Src/stm32f1xx_hal_dac.c ****     hdac->ConvCpltCallbackCh1           = HAL_DAC_ConvCpltCallbackCh1;
 306:Drivers/STM32F1xx_HAL_Driver/Src/stm32f1xx_hal_dac.c ****     hdac->ConvHalfCpltCallbackCh1       = HAL_DAC_ConvHalfCpltCallbackCh1;
 307:Drivers/STM32F1xx_HAL_Driver/Src/stm32f1xx_hal_dac.c ****     hdac->ErrorCallbackCh1              = HAL_DAC_ErrorCallbackCh1;
 308:Drivers/STM32F1xx_HAL_Driver/Src/stm32f1xx_hal_dac.c ****     hdac->DMAUnderrunCallbackCh1        = HAL_DAC_DMAUnderrunCallbackCh1;
 309:Drivers/STM32F1xx_HAL_Driver/Src/stm32f1xx_hal_dac.c **** 
 310:Drivers/STM32F1xx_HAL_Driver/Src/stm32f1xx_hal_dac.c ****     hdac->ConvCpltCallbackCh2           = HAL_DACEx_ConvCpltCallbackCh2;
 311:Drivers/STM32F1xx_HAL_Driver/Src/stm32f1xx_hal_dac.c ****     hdac->ConvHalfCpltCallbackCh2       = HAL_DACEx_ConvHalfCpltCallbackCh2;
 312:Drivers/STM32F1xx_HAL_Driver/Src/stm32f1xx_hal_dac.c ****     hdac->ErrorCallbackCh2              = HAL_DACEx_ErrorCallbackCh2;
 313:Drivers/STM32F1xx_HAL_Driver/Src/stm32f1xx_hal_dac.c ****     hdac->DMAUnderrunCallbackCh2        = HAL_DACEx_DMAUnderrunCallbackCh2;
 314:Drivers/STM32F1xx_HAL_Driver/Src/stm32f1xx_hal_dac.c **** 
 315:Drivers/STM32F1xx_HAL_Driver/Src/stm32f1xx_hal_dac.c ****     if (hdac->MspInitCallback == NULL)
 316:Drivers/STM32F1xx_HAL_Driver/Src/stm32f1xx_hal_dac.c ****     {
ARM GAS  /tmp/ccLdejbV.s 			page 7


 317:Drivers/STM32F1xx_HAL_Driver/Src/stm32f1xx_hal_dac.c ****       hdac->MspInitCallback             = HAL_DAC_MspInit;
 318:Drivers/STM32F1xx_HAL_Driver/Src/stm32f1xx_hal_dac.c ****     }
 319:Drivers/STM32F1xx_HAL_Driver/Src/stm32f1xx_hal_dac.c **** #endif /* USE_HAL_DAC_REGISTER_CALLBACKS */
 320:Drivers/STM32F1xx_HAL_Driver/Src/stm32f1xx_hal_dac.c **** 
 321:Drivers/STM32F1xx_HAL_Driver/Src/stm32f1xx_hal_dac.c ****     /* Allocate lock resource and initialize it */
 322:Drivers/STM32F1xx_HAL_Driver/Src/stm32f1xx_hal_dac.c ****     hdac->Lock = HAL_UNLOCKED;
 323:Drivers/STM32F1xx_HAL_Driver/Src/stm32f1xx_hal_dac.c **** 
 324:Drivers/STM32F1xx_HAL_Driver/Src/stm32f1xx_hal_dac.c **** #if (USE_HAL_DAC_REGISTER_CALLBACKS == 1)
 325:Drivers/STM32F1xx_HAL_Driver/Src/stm32f1xx_hal_dac.c ****     /* Init the low level hardware */
 326:Drivers/STM32F1xx_HAL_Driver/Src/stm32f1xx_hal_dac.c ****     hdac->MspInitCallback(hdac);
 327:Drivers/STM32F1xx_HAL_Driver/Src/stm32f1xx_hal_dac.c **** #else
 328:Drivers/STM32F1xx_HAL_Driver/Src/stm32f1xx_hal_dac.c ****     /* Init the low level hardware */
 329:Drivers/STM32F1xx_HAL_Driver/Src/stm32f1xx_hal_dac.c ****     HAL_DAC_MspInit(hdac);
 330:Drivers/STM32F1xx_HAL_Driver/Src/stm32f1xx_hal_dac.c **** #endif /* USE_HAL_DAC_REGISTER_CALLBACKS */
 331:Drivers/STM32F1xx_HAL_Driver/Src/stm32f1xx_hal_dac.c ****   }
 332:Drivers/STM32F1xx_HAL_Driver/Src/stm32f1xx_hal_dac.c **** 
 333:Drivers/STM32F1xx_HAL_Driver/Src/stm32f1xx_hal_dac.c ****   /* Initialize the DAC state*/
 334:Drivers/STM32F1xx_HAL_Driver/Src/stm32f1xx_hal_dac.c ****   hdac->State = HAL_DAC_STATE_BUSY;
 335:Drivers/STM32F1xx_HAL_Driver/Src/stm32f1xx_hal_dac.c **** 
 336:Drivers/STM32F1xx_HAL_Driver/Src/stm32f1xx_hal_dac.c ****   /* Set DAC error code to none */
 337:Drivers/STM32F1xx_HAL_Driver/Src/stm32f1xx_hal_dac.c ****   hdac->ErrorCode = HAL_DAC_ERROR_NONE;
 338:Drivers/STM32F1xx_HAL_Driver/Src/stm32f1xx_hal_dac.c **** 
 339:Drivers/STM32F1xx_HAL_Driver/Src/stm32f1xx_hal_dac.c ****   /* Initialize the DAC state*/
 340:Drivers/STM32F1xx_HAL_Driver/Src/stm32f1xx_hal_dac.c ****   hdac->State = HAL_DAC_STATE_READY;
 341:Drivers/STM32F1xx_HAL_Driver/Src/stm32f1xx_hal_dac.c **** 
 342:Drivers/STM32F1xx_HAL_Driver/Src/stm32f1xx_hal_dac.c ****   /* Return function status */
 343:Drivers/STM32F1xx_HAL_Driver/Src/stm32f1xx_hal_dac.c ****   return HAL_OK;
 344:Drivers/STM32F1xx_HAL_Driver/Src/stm32f1xx_hal_dac.c **** }
 345:Drivers/STM32F1xx_HAL_Driver/Src/stm32f1xx_hal_dac.c **** 
 346:Drivers/STM32F1xx_HAL_Driver/Src/stm32f1xx_hal_dac.c **** /**
 347:Drivers/STM32F1xx_HAL_Driver/Src/stm32f1xx_hal_dac.c ****   * @brief  Deinitialize the DAC peripheral registers to their default reset values.
 348:Drivers/STM32F1xx_HAL_Driver/Src/stm32f1xx_hal_dac.c ****   * @param  hdac pointer to a DAC_HandleTypeDef structure that contains
 349:Drivers/STM32F1xx_HAL_Driver/Src/stm32f1xx_hal_dac.c ****   *         the configuration information for the specified DAC.
 350:Drivers/STM32F1xx_HAL_Driver/Src/stm32f1xx_hal_dac.c ****   * @retval HAL status
 351:Drivers/STM32F1xx_HAL_Driver/Src/stm32f1xx_hal_dac.c ****   */
 352:Drivers/STM32F1xx_HAL_Driver/Src/stm32f1xx_hal_dac.c **** HAL_StatusTypeDef HAL_DAC_DeInit(DAC_HandleTypeDef *hdac)
 353:Drivers/STM32F1xx_HAL_Driver/Src/stm32f1xx_hal_dac.c **** {
 354:Drivers/STM32F1xx_HAL_Driver/Src/stm32f1xx_hal_dac.c ****   /* Check DAC handle */
 355:Drivers/STM32F1xx_HAL_Driver/Src/stm32f1xx_hal_dac.c ****   if (hdac == NULL)
 356:Drivers/STM32F1xx_HAL_Driver/Src/stm32f1xx_hal_dac.c ****   {
 357:Drivers/STM32F1xx_HAL_Driver/Src/stm32f1xx_hal_dac.c ****     return HAL_ERROR;
 358:Drivers/STM32F1xx_HAL_Driver/Src/stm32f1xx_hal_dac.c ****   }
 359:Drivers/STM32F1xx_HAL_Driver/Src/stm32f1xx_hal_dac.c **** 
 360:Drivers/STM32F1xx_HAL_Driver/Src/stm32f1xx_hal_dac.c ****   /* Check the parameters */
 361:Drivers/STM32F1xx_HAL_Driver/Src/stm32f1xx_hal_dac.c ****   assert_param(IS_DAC_ALL_INSTANCE(hdac->Instance));
 362:Drivers/STM32F1xx_HAL_Driver/Src/stm32f1xx_hal_dac.c **** 
 363:Drivers/STM32F1xx_HAL_Driver/Src/stm32f1xx_hal_dac.c ****   /* Change DAC state */
 364:Drivers/STM32F1xx_HAL_Driver/Src/stm32f1xx_hal_dac.c ****   hdac->State = HAL_DAC_STATE_BUSY;
 365:Drivers/STM32F1xx_HAL_Driver/Src/stm32f1xx_hal_dac.c **** 
 366:Drivers/STM32F1xx_HAL_Driver/Src/stm32f1xx_hal_dac.c **** #if (USE_HAL_DAC_REGISTER_CALLBACKS == 1)
 367:Drivers/STM32F1xx_HAL_Driver/Src/stm32f1xx_hal_dac.c ****   if (hdac->MspDeInitCallback == NULL)
 368:Drivers/STM32F1xx_HAL_Driver/Src/stm32f1xx_hal_dac.c ****   {
 369:Drivers/STM32F1xx_HAL_Driver/Src/stm32f1xx_hal_dac.c ****     hdac->MspDeInitCallback = HAL_DAC_MspDeInit;
 370:Drivers/STM32F1xx_HAL_Driver/Src/stm32f1xx_hal_dac.c ****   }
 371:Drivers/STM32F1xx_HAL_Driver/Src/stm32f1xx_hal_dac.c ****   /* DeInit the low level hardware */
 372:Drivers/STM32F1xx_HAL_Driver/Src/stm32f1xx_hal_dac.c ****   hdac->MspDeInitCallback(hdac);
 373:Drivers/STM32F1xx_HAL_Driver/Src/stm32f1xx_hal_dac.c **** #else
ARM GAS  /tmp/ccLdejbV.s 			page 8


 374:Drivers/STM32F1xx_HAL_Driver/Src/stm32f1xx_hal_dac.c ****   /* DeInit the low level hardware */
 375:Drivers/STM32F1xx_HAL_Driver/Src/stm32f1xx_hal_dac.c ****   HAL_DAC_MspDeInit(hdac);
 376:Drivers/STM32F1xx_HAL_Driver/Src/stm32f1xx_hal_dac.c **** #endif /* USE_HAL_DAC_REGISTER_CALLBACKS */
 377:Drivers/STM32F1xx_HAL_Driver/Src/stm32f1xx_hal_dac.c **** 
 378:Drivers/STM32F1xx_HAL_Driver/Src/stm32f1xx_hal_dac.c ****   /* Set DAC error code to none */
 379:Drivers/STM32F1xx_HAL_Driver/Src/stm32f1xx_hal_dac.c ****   hdac->ErrorCode = HAL_DAC_ERROR_NONE;
 380:Drivers/STM32F1xx_HAL_Driver/Src/stm32f1xx_hal_dac.c **** 
 381:Drivers/STM32F1xx_HAL_Driver/Src/stm32f1xx_hal_dac.c ****   /* Change DAC state */
 382:Drivers/STM32F1xx_HAL_Driver/Src/stm32f1xx_hal_dac.c ****   hdac->State = HAL_DAC_STATE_RESET;
 383:Drivers/STM32F1xx_HAL_Driver/Src/stm32f1xx_hal_dac.c **** 
 384:Drivers/STM32F1xx_HAL_Driver/Src/stm32f1xx_hal_dac.c ****   /* Release Lock */
 385:Drivers/STM32F1xx_HAL_Driver/Src/stm32f1xx_hal_dac.c ****   __HAL_UNLOCK(hdac);
 386:Drivers/STM32F1xx_HAL_Driver/Src/stm32f1xx_hal_dac.c **** 
 387:Drivers/STM32F1xx_HAL_Driver/Src/stm32f1xx_hal_dac.c ****   /* Return function status */
 388:Drivers/STM32F1xx_HAL_Driver/Src/stm32f1xx_hal_dac.c ****   return HAL_OK;
 389:Drivers/STM32F1xx_HAL_Driver/Src/stm32f1xx_hal_dac.c **** }
 390:Drivers/STM32F1xx_HAL_Driver/Src/stm32f1xx_hal_dac.c **** 
 391:Drivers/STM32F1xx_HAL_Driver/Src/stm32f1xx_hal_dac.c **** /**
 392:Drivers/STM32F1xx_HAL_Driver/Src/stm32f1xx_hal_dac.c ****   * @brief  Initialize the DAC MSP.
 393:Drivers/STM32F1xx_HAL_Driver/Src/stm32f1xx_hal_dac.c ****   * @param  hdac pointer to a DAC_HandleTypeDef structure that contains
 394:Drivers/STM32F1xx_HAL_Driver/Src/stm32f1xx_hal_dac.c ****   *         the configuration information for the specified DAC.
 395:Drivers/STM32F1xx_HAL_Driver/Src/stm32f1xx_hal_dac.c ****   * @retval None
 396:Drivers/STM32F1xx_HAL_Driver/Src/stm32f1xx_hal_dac.c ****   */
 397:Drivers/STM32F1xx_HAL_Driver/Src/stm32f1xx_hal_dac.c **** __weak void HAL_DAC_MspInit(DAC_HandleTypeDef *hdac)
 398:Drivers/STM32F1xx_HAL_Driver/Src/stm32f1xx_hal_dac.c **** {
  28              		.loc 1 398 1 view -0
  29              		.cfi_startproc
  30              		@ args = 0, pretend = 0, frame = 0
  31              		@ frame_needed = 0, uses_anonymous_args = 0
  32              		@ link register save eliminated.
 399:Drivers/STM32F1xx_HAL_Driver/Src/stm32f1xx_hal_dac.c ****   /* Prevent unused argument(s) compilation warning */
 400:Drivers/STM32F1xx_HAL_Driver/Src/stm32f1xx_hal_dac.c ****   UNUSED(hdac);
  33              		.loc 1 400 3 view .LVU1
 401:Drivers/STM32F1xx_HAL_Driver/Src/stm32f1xx_hal_dac.c **** 
 402:Drivers/STM32F1xx_HAL_Driver/Src/stm32f1xx_hal_dac.c ****   /* NOTE : This function should not be modified, when the callback is needed,
 403:Drivers/STM32F1xx_HAL_Driver/Src/stm32f1xx_hal_dac.c ****             the HAL_DAC_MspInit could be implemented in the user file
 404:Drivers/STM32F1xx_HAL_Driver/Src/stm32f1xx_hal_dac.c ****    */
 405:Drivers/STM32F1xx_HAL_Driver/Src/stm32f1xx_hal_dac.c **** }
  34              		.loc 1 405 1 is_stmt 0 view .LVU2
  35 0000 7047     		bx	lr
  36              		.cfi_endproc
  37              	.LFE67:
  39              		.section	.text.HAL_DAC_Init,"ax",%progbits
  40              		.align	1
  41              		.global	HAL_DAC_Init
  42              		.syntax unified
  43              		.thumb
  44              		.thumb_func
  45              		.fpu softvfp
  47              	HAL_DAC_Init:
  48              	.LVL1:
  49              	.LFB65:
 292:Drivers/STM32F1xx_HAL_Driver/Src/stm32f1xx_hal_dac.c ****   /* Check DAC handle */
  50              		.loc 1 292 1 is_stmt 1 view -0
  51              		.cfi_startproc
  52              		@ args = 0, pretend = 0, frame = 0
  53              		@ frame_needed = 0, uses_anonymous_args = 0
ARM GAS  /tmp/ccLdejbV.s 			page 9


 294:Drivers/STM32F1xx_HAL_Driver/Src/stm32f1xx_hal_dac.c ****   {
  54              		.loc 1 294 3 view .LVU4
 294:Drivers/STM32F1xx_HAL_Driver/Src/stm32f1xx_hal_dac.c ****   {
  55              		.loc 1 294 6 is_stmt 0 view .LVU5
  56 0000 70B1     		cbz	r0, .L5
 292:Drivers/STM32F1xx_HAL_Driver/Src/stm32f1xx_hal_dac.c ****   /* Check DAC handle */
  57              		.loc 1 292 1 view .LVU6
  58 0002 10B5     		push	{r4, lr}
  59              	.LCFI0:
  60              		.cfi_def_cfa_offset 8
  61              		.cfi_offset 4, -8
  62              		.cfi_offset 14, -4
  63 0004 0446     		mov	r4, r0
 299:Drivers/STM32F1xx_HAL_Driver/Src/stm32f1xx_hal_dac.c **** 
  64              		.loc 1 299 3 is_stmt 1 view .LVU7
 301:Drivers/STM32F1xx_HAL_Driver/Src/stm32f1xx_hal_dac.c ****   {
  65              		.loc 1 301 3 view .LVU8
 301:Drivers/STM32F1xx_HAL_Driver/Src/stm32f1xx_hal_dac.c ****   {
  66              		.loc 1 301 11 is_stmt 0 view .LVU9
  67 0006 0379     		ldrb	r3, [r0, #4]	@ zero_extendqisi2
 301:Drivers/STM32F1xx_HAL_Driver/Src/stm32f1xx_hal_dac.c ****   {
  68              		.loc 1 301 6 view .LVU10
  69 0008 33B1     		cbz	r3, .L10
  70              	.LVL2:
  71              	.L4:
 334:Drivers/STM32F1xx_HAL_Driver/Src/stm32f1xx_hal_dac.c **** 
  72              		.loc 1 334 3 is_stmt 1 view .LVU11
 334:Drivers/STM32F1xx_HAL_Driver/Src/stm32f1xx_hal_dac.c **** 
  73              		.loc 1 334 15 is_stmt 0 view .LVU12
  74 000a 0223     		movs	r3, #2
  75 000c 2371     		strb	r3, [r4, #4]
 337:Drivers/STM32F1xx_HAL_Driver/Src/stm32f1xx_hal_dac.c **** 
  76              		.loc 1 337 3 is_stmt 1 view .LVU13
 337:Drivers/STM32F1xx_HAL_Driver/Src/stm32f1xx_hal_dac.c **** 
  77              		.loc 1 337 19 is_stmt 0 view .LVU14
  78 000e 0020     		movs	r0, #0
  79 0010 2061     		str	r0, [r4, #16]
 340:Drivers/STM32F1xx_HAL_Driver/Src/stm32f1xx_hal_dac.c **** 
  80              		.loc 1 340 3 is_stmt 1 view .LVU15
 340:Drivers/STM32F1xx_HAL_Driver/Src/stm32f1xx_hal_dac.c **** 
  81              		.loc 1 340 15 is_stmt 0 view .LVU16
  82 0012 0123     		movs	r3, #1
  83 0014 2371     		strb	r3, [r4, #4]
 343:Drivers/STM32F1xx_HAL_Driver/Src/stm32f1xx_hal_dac.c **** }
  84              		.loc 1 343 3 is_stmt 1 view .LVU17
 344:Drivers/STM32F1xx_HAL_Driver/Src/stm32f1xx_hal_dac.c **** 
  85              		.loc 1 344 1 is_stmt 0 view .LVU18
  86 0016 10BD     		pop	{r4, pc}
  87              	.LVL3:
  88              	.L10:
 322:Drivers/STM32F1xx_HAL_Driver/Src/stm32f1xx_hal_dac.c **** 
  89              		.loc 1 322 5 is_stmt 1 view .LVU19
 322:Drivers/STM32F1xx_HAL_Driver/Src/stm32f1xx_hal_dac.c **** 
  90              		.loc 1 322 16 is_stmt 0 view .LVU20
  91 0018 4371     		strb	r3, [r0, #5]
 329:Drivers/STM32F1xx_HAL_Driver/Src/stm32f1xx_hal_dac.c **** #endif /* USE_HAL_DAC_REGISTER_CALLBACKS */
  92              		.loc 1 329 5 is_stmt 1 view .LVU21
ARM GAS  /tmp/ccLdejbV.s 			page 10


  93 001a FFF7FEFF 		bl	HAL_DAC_MspInit
  94              	.LVL4:
 329:Drivers/STM32F1xx_HAL_Driver/Src/stm32f1xx_hal_dac.c **** #endif /* USE_HAL_DAC_REGISTER_CALLBACKS */
  95              		.loc 1 329 5 is_stmt 0 view .LVU22
  96 001e F4E7     		b	.L4
  97              	.LVL5:
  98              	.L5:
  99              	.LCFI1:
 100              		.cfi_def_cfa_offset 0
 101              		.cfi_restore 4
 102              		.cfi_restore 14
 296:Drivers/STM32F1xx_HAL_Driver/Src/stm32f1xx_hal_dac.c ****   }
 103              		.loc 1 296 12 view .LVU23
 104 0020 0120     		movs	r0, #1
 105              	.LVL6:
 344:Drivers/STM32F1xx_HAL_Driver/Src/stm32f1xx_hal_dac.c **** 
 106              		.loc 1 344 1 view .LVU24
 107 0022 7047     		bx	lr
 108              		.cfi_endproc
 109              	.LFE65:
 111              		.section	.text.HAL_DAC_MspDeInit,"ax",%progbits
 112              		.align	1
 113              		.weak	HAL_DAC_MspDeInit
 114              		.syntax unified
 115              		.thumb
 116              		.thumb_func
 117              		.fpu softvfp
 119              	HAL_DAC_MspDeInit:
 120              	.LVL7:
 121              	.LFB68:
 406:Drivers/STM32F1xx_HAL_Driver/Src/stm32f1xx_hal_dac.c **** 
 407:Drivers/STM32F1xx_HAL_Driver/Src/stm32f1xx_hal_dac.c **** /**
 408:Drivers/STM32F1xx_HAL_Driver/Src/stm32f1xx_hal_dac.c ****   * @brief  DeInitialize the DAC MSP.
 409:Drivers/STM32F1xx_HAL_Driver/Src/stm32f1xx_hal_dac.c ****   * @param  hdac pointer to a DAC_HandleTypeDef structure that contains
 410:Drivers/STM32F1xx_HAL_Driver/Src/stm32f1xx_hal_dac.c ****   *         the configuration information for the specified DAC.
 411:Drivers/STM32F1xx_HAL_Driver/Src/stm32f1xx_hal_dac.c ****   * @retval None
 412:Drivers/STM32F1xx_HAL_Driver/Src/stm32f1xx_hal_dac.c ****   */
 413:Drivers/STM32F1xx_HAL_Driver/Src/stm32f1xx_hal_dac.c **** __weak void HAL_DAC_MspDeInit(DAC_HandleTypeDef *hdac)
 414:Drivers/STM32F1xx_HAL_Driver/Src/stm32f1xx_hal_dac.c **** {
 122              		.loc 1 414 1 is_stmt 1 view -0
 123              		.cfi_startproc
 124              		@ args = 0, pretend = 0, frame = 0
 125              		@ frame_needed = 0, uses_anonymous_args = 0
 126              		@ link register save eliminated.
 415:Drivers/STM32F1xx_HAL_Driver/Src/stm32f1xx_hal_dac.c ****   /* Prevent unused argument(s) compilation warning */
 416:Drivers/STM32F1xx_HAL_Driver/Src/stm32f1xx_hal_dac.c ****   UNUSED(hdac);
 127              		.loc 1 416 3 view .LVU26
 417:Drivers/STM32F1xx_HAL_Driver/Src/stm32f1xx_hal_dac.c **** 
 418:Drivers/STM32F1xx_HAL_Driver/Src/stm32f1xx_hal_dac.c ****   /* NOTE : This function should not be modified, when the callback is needed,
 419:Drivers/STM32F1xx_HAL_Driver/Src/stm32f1xx_hal_dac.c ****             the HAL_DAC_MspDeInit could be implemented in the user file
 420:Drivers/STM32F1xx_HAL_Driver/Src/stm32f1xx_hal_dac.c ****    */
 421:Drivers/STM32F1xx_HAL_Driver/Src/stm32f1xx_hal_dac.c **** }
 128              		.loc 1 421 1 is_stmt 0 view .LVU27
 129 0000 7047     		bx	lr
 130              		.cfi_endproc
 131              	.LFE68:
 133              		.section	.text.HAL_DAC_DeInit,"ax",%progbits
ARM GAS  /tmp/ccLdejbV.s 			page 11


 134              		.align	1
 135              		.global	HAL_DAC_DeInit
 136              		.syntax unified
 137              		.thumb
 138              		.thumb_func
 139              		.fpu softvfp
 141              	HAL_DAC_DeInit:
 142              	.LVL8:
 143              	.LFB66:
 353:Drivers/STM32F1xx_HAL_Driver/Src/stm32f1xx_hal_dac.c ****   /* Check DAC handle */
 144              		.loc 1 353 1 is_stmt 1 view -0
 145              		.cfi_startproc
 146              		@ args = 0, pretend = 0, frame = 0
 147              		@ frame_needed = 0, uses_anonymous_args = 0
 355:Drivers/STM32F1xx_HAL_Driver/Src/stm32f1xx_hal_dac.c ****   {
 148              		.loc 1 355 3 view .LVU29
 355:Drivers/STM32F1xx_HAL_Driver/Src/stm32f1xx_hal_dac.c ****   {
 149              		.loc 1 355 6 is_stmt 0 view .LVU30
 150 0000 50B1     		cbz	r0, .L14
 353:Drivers/STM32F1xx_HAL_Driver/Src/stm32f1xx_hal_dac.c ****   /* Check DAC handle */
 151              		.loc 1 353 1 view .LVU31
 152 0002 10B5     		push	{r4, lr}
 153              	.LCFI2:
 154              		.cfi_def_cfa_offset 8
 155              		.cfi_offset 4, -8
 156              		.cfi_offset 14, -4
 157 0004 0446     		mov	r4, r0
 361:Drivers/STM32F1xx_HAL_Driver/Src/stm32f1xx_hal_dac.c **** 
 158              		.loc 1 361 3 is_stmt 1 view .LVU32
 364:Drivers/STM32F1xx_HAL_Driver/Src/stm32f1xx_hal_dac.c **** 
 159              		.loc 1 364 3 view .LVU33
 364:Drivers/STM32F1xx_HAL_Driver/Src/stm32f1xx_hal_dac.c **** 
 160              		.loc 1 364 15 is_stmt 0 view .LVU34
 161 0006 0223     		movs	r3, #2
 162 0008 0371     		strb	r3, [r0, #4]
 375:Drivers/STM32F1xx_HAL_Driver/Src/stm32f1xx_hal_dac.c **** #endif /* USE_HAL_DAC_REGISTER_CALLBACKS */
 163              		.loc 1 375 3 is_stmt 1 view .LVU35
 164 000a FFF7FEFF 		bl	HAL_DAC_MspDeInit
 165              	.LVL9:
 379:Drivers/STM32F1xx_HAL_Driver/Src/stm32f1xx_hal_dac.c **** 
 166              		.loc 1 379 3 view .LVU36
 379:Drivers/STM32F1xx_HAL_Driver/Src/stm32f1xx_hal_dac.c **** 
 167              		.loc 1 379 19 is_stmt 0 view .LVU37
 168 000e 0020     		movs	r0, #0
 169 0010 2061     		str	r0, [r4, #16]
 382:Drivers/STM32F1xx_HAL_Driver/Src/stm32f1xx_hal_dac.c **** 
 170              		.loc 1 382 3 is_stmt 1 view .LVU38
 382:Drivers/STM32F1xx_HAL_Driver/Src/stm32f1xx_hal_dac.c **** 
 171              		.loc 1 382 15 is_stmt 0 view .LVU39
 172 0012 2071     		strb	r0, [r4, #4]
 385:Drivers/STM32F1xx_HAL_Driver/Src/stm32f1xx_hal_dac.c **** 
 173              		.loc 1 385 3 is_stmt 1 view .LVU40
 385:Drivers/STM32F1xx_HAL_Driver/Src/stm32f1xx_hal_dac.c **** 
 174              		.loc 1 385 3 view .LVU41
 175 0014 6071     		strb	r0, [r4, #5]
 385:Drivers/STM32F1xx_HAL_Driver/Src/stm32f1xx_hal_dac.c **** 
 176              		.loc 1 385 3 view .LVU42
ARM GAS  /tmp/ccLdejbV.s 			page 12


 388:Drivers/STM32F1xx_HAL_Driver/Src/stm32f1xx_hal_dac.c **** }
 177              		.loc 1 388 3 view .LVU43
 389:Drivers/STM32F1xx_HAL_Driver/Src/stm32f1xx_hal_dac.c **** 
 178              		.loc 1 389 1 is_stmt 0 view .LVU44
 179 0016 10BD     		pop	{r4, pc}
 180              	.LVL10:
 181              	.L14:
 182              	.LCFI3:
 183              		.cfi_def_cfa_offset 0
 184              		.cfi_restore 4
 185              		.cfi_restore 14
 357:Drivers/STM32F1xx_HAL_Driver/Src/stm32f1xx_hal_dac.c ****   }
 186              		.loc 1 357 12 view .LVU45
 187 0018 0120     		movs	r0, #1
 188              	.LVL11:
 389:Drivers/STM32F1xx_HAL_Driver/Src/stm32f1xx_hal_dac.c **** 
 189              		.loc 1 389 1 view .LVU46
 190 001a 7047     		bx	lr
 191              		.cfi_endproc
 192              	.LFE66:
 194              		.section	.text.HAL_DAC_Start,"ax",%progbits
 195              		.align	1
 196              		.global	HAL_DAC_Start
 197              		.syntax unified
 198              		.thumb
 199              		.thumb_func
 200              		.fpu softvfp
 202              	HAL_DAC_Start:
 203              	.LVL12:
 204              	.LFB69:
 422:Drivers/STM32F1xx_HAL_Driver/Src/stm32f1xx_hal_dac.c **** 
 423:Drivers/STM32F1xx_HAL_Driver/Src/stm32f1xx_hal_dac.c **** /**
 424:Drivers/STM32F1xx_HAL_Driver/Src/stm32f1xx_hal_dac.c ****   * @}
 425:Drivers/STM32F1xx_HAL_Driver/Src/stm32f1xx_hal_dac.c ****   */
 426:Drivers/STM32F1xx_HAL_Driver/Src/stm32f1xx_hal_dac.c **** 
 427:Drivers/STM32F1xx_HAL_Driver/Src/stm32f1xx_hal_dac.c **** /** @defgroup DAC_Exported_Functions_Group2 IO operation functions
 428:Drivers/STM32F1xx_HAL_Driver/Src/stm32f1xx_hal_dac.c ****   *  @brief    IO operation functions
 429:Drivers/STM32F1xx_HAL_Driver/Src/stm32f1xx_hal_dac.c ****   *
 430:Drivers/STM32F1xx_HAL_Driver/Src/stm32f1xx_hal_dac.c **** @verbatim
 431:Drivers/STM32F1xx_HAL_Driver/Src/stm32f1xx_hal_dac.c ****   ==============================================================================
 432:Drivers/STM32F1xx_HAL_Driver/Src/stm32f1xx_hal_dac.c ****              ##### IO operation functions #####
 433:Drivers/STM32F1xx_HAL_Driver/Src/stm32f1xx_hal_dac.c ****   ==============================================================================
 434:Drivers/STM32F1xx_HAL_Driver/Src/stm32f1xx_hal_dac.c ****     [..]  This section provides functions allowing to:
 435:Drivers/STM32F1xx_HAL_Driver/Src/stm32f1xx_hal_dac.c ****       (+) Start conversion.
 436:Drivers/STM32F1xx_HAL_Driver/Src/stm32f1xx_hal_dac.c ****       (+) Stop conversion.
 437:Drivers/STM32F1xx_HAL_Driver/Src/stm32f1xx_hal_dac.c ****       (+) Start conversion and enable DMA transfer.
 438:Drivers/STM32F1xx_HAL_Driver/Src/stm32f1xx_hal_dac.c ****       (+) Stop conversion and disable DMA transfer.
 439:Drivers/STM32F1xx_HAL_Driver/Src/stm32f1xx_hal_dac.c ****       (+) Get result of conversion.
 440:Drivers/STM32F1xx_HAL_Driver/Src/stm32f1xx_hal_dac.c **** 
 441:Drivers/STM32F1xx_HAL_Driver/Src/stm32f1xx_hal_dac.c **** @endverbatim
 442:Drivers/STM32F1xx_HAL_Driver/Src/stm32f1xx_hal_dac.c ****   * @{
 443:Drivers/STM32F1xx_HAL_Driver/Src/stm32f1xx_hal_dac.c ****   */
 444:Drivers/STM32F1xx_HAL_Driver/Src/stm32f1xx_hal_dac.c **** 
 445:Drivers/STM32F1xx_HAL_Driver/Src/stm32f1xx_hal_dac.c **** /**
 446:Drivers/STM32F1xx_HAL_Driver/Src/stm32f1xx_hal_dac.c ****   * @brief  Enables DAC and starts conversion of channel.
 447:Drivers/STM32F1xx_HAL_Driver/Src/stm32f1xx_hal_dac.c ****   * @param  hdac pointer to a DAC_HandleTypeDef structure that contains
 448:Drivers/STM32F1xx_HAL_Driver/Src/stm32f1xx_hal_dac.c ****   *         the configuration information for the specified DAC.
ARM GAS  /tmp/ccLdejbV.s 			page 13


 449:Drivers/STM32F1xx_HAL_Driver/Src/stm32f1xx_hal_dac.c ****   * @param  Channel The selected DAC channel.
 450:Drivers/STM32F1xx_HAL_Driver/Src/stm32f1xx_hal_dac.c ****   *          This parameter can be one of the following values:
 451:Drivers/STM32F1xx_HAL_Driver/Src/stm32f1xx_hal_dac.c ****   *            @arg DAC_CHANNEL_1: DAC Channel1 selected
 452:Drivers/STM32F1xx_HAL_Driver/Src/stm32f1xx_hal_dac.c ****   *            @arg DAC_CHANNEL_2: DAC Channel2 selected
 453:Drivers/STM32F1xx_HAL_Driver/Src/stm32f1xx_hal_dac.c ****   * @retval HAL status
 454:Drivers/STM32F1xx_HAL_Driver/Src/stm32f1xx_hal_dac.c ****   */
 455:Drivers/STM32F1xx_HAL_Driver/Src/stm32f1xx_hal_dac.c **** HAL_StatusTypeDef HAL_DAC_Start(DAC_HandleTypeDef *hdac, uint32_t Channel)
 456:Drivers/STM32F1xx_HAL_Driver/Src/stm32f1xx_hal_dac.c **** {
 205              		.loc 1 456 1 is_stmt 1 view -0
 206              		.cfi_startproc
 207              		@ args = 0, pretend = 0, frame = 0
 208              		@ frame_needed = 0, uses_anonymous_args = 0
 209              		@ link register save eliminated.
 457:Drivers/STM32F1xx_HAL_Driver/Src/stm32f1xx_hal_dac.c ****   /* Check the parameters */
 458:Drivers/STM32F1xx_HAL_Driver/Src/stm32f1xx_hal_dac.c ****   assert_param(IS_DAC_CHANNEL(Channel));
 210              		.loc 1 458 3 view .LVU48
 459:Drivers/STM32F1xx_HAL_Driver/Src/stm32f1xx_hal_dac.c **** 
 460:Drivers/STM32F1xx_HAL_Driver/Src/stm32f1xx_hal_dac.c ****   /* Process locked */
 461:Drivers/STM32F1xx_HAL_Driver/Src/stm32f1xx_hal_dac.c ****   __HAL_LOCK(hdac);
 211              		.loc 1 461 3 view .LVU49
 212              		.loc 1 461 3 view .LVU50
 213 0000 4379     		ldrb	r3, [r0, #5]	@ zero_extendqisi2
 214 0002 012B     		cmp	r3, #1
 215 0004 2DD0     		beq	.L23
 456:Drivers/STM32F1xx_HAL_Driver/Src/stm32f1xx_hal_dac.c ****   /* Check the parameters */
 216              		.loc 1 456 1 is_stmt 0 discriminator 2 view .LVU51
 217 0006 10B4     		push	{r4}
 218              	.LCFI4:
 219              		.cfi_def_cfa_offset 4
 220              		.cfi_offset 4, -4
 221              		.loc 1 461 3 is_stmt 1 discriminator 2 view .LVU52
 222 0008 0123     		movs	r3, #1
 223 000a 4371     		strb	r3, [r0, #5]
 224              		.loc 1 461 3 discriminator 2 view .LVU53
 462:Drivers/STM32F1xx_HAL_Driver/Src/stm32f1xx_hal_dac.c **** 
 463:Drivers/STM32F1xx_HAL_Driver/Src/stm32f1xx_hal_dac.c ****   /* Change DAC state */
 464:Drivers/STM32F1xx_HAL_Driver/Src/stm32f1xx_hal_dac.c ****   hdac->State = HAL_DAC_STATE_BUSY;
 225              		.loc 1 464 3 discriminator 2 view .LVU54
 226              		.loc 1 464 15 is_stmt 0 discriminator 2 view .LVU55
 227 000c 0222     		movs	r2, #2
 228 000e 0271     		strb	r2, [r0, #4]
 465:Drivers/STM32F1xx_HAL_Driver/Src/stm32f1xx_hal_dac.c **** 
 466:Drivers/STM32F1xx_HAL_Driver/Src/stm32f1xx_hal_dac.c ****   /* Enable the Peripheral */
 467:Drivers/STM32F1xx_HAL_Driver/Src/stm32f1xx_hal_dac.c ****   __HAL_DAC_ENABLE(hdac, Channel);
 229              		.loc 1 467 3 is_stmt 1 discriminator 2 view .LVU56
 230 0010 0468     		ldr	r4, [r0]
 231 0012 2268     		ldr	r2, [r4]
 232 0014 01F0100C 		and	ip, r1, #16
 233 0018 03FA0CF3 		lsl	r3, r3, ip
 234 001c 1343     		orrs	r3, r3, r2
 235 001e 2360     		str	r3, [r4]
 468:Drivers/STM32F1xx_HAL_Driver/Src/stm32f1xx_hal_dac.c **** 
 469:Drivers/STM32F1xx_HAL_Driver/Src/stm32f1xx_hal_dac.c ****   if (Channel == DAC_CHANNEL_1)
 236              		.loc 1 469 3 discriminator 2 view .LVU57
 237              		.loc 1 469 6 is_stmt 0 discriminator 2 view .LVU58
 238 0020 89B9     		cbnz	r1, .L21
 470:Drivers/STM32F1xx_HAL_Driver/Src/stm32f1xx_hal_dac.c ****   {
ARM GAS  /tmp/ccLdejbV.s 			page 14


 471:Drivers/STM32F1xx_HAL_Driver/Src/stm32f1xx_hal_dac.c ****     /* Check if software trigger enabled */
 472:Drivers/STM32F1xx_HAL_Driver/Src/stm32f1xx_hal_dac.c ****     if ((hdac->Instance->CR & (DAC_CR_TEN1 | DAC_CR_TSEL1)) == DAC_TRIGGER_SOFTWARE)
 239              		.loc 1 472 5 is_stmt 1 view .LVU59
 240              		.loc 1 472 14 is_stmt 0 view .LVU60
 241 0022 0268     		ldr	r2, [r0]
 242              		.loc 1 472 24 view .LVU61
 243 0024 1368     		ldr	r3, [r2]
 244              		.loc 1 472 29 view .LVU62
 245 0026 03F03C03 		and	r3, r3, #60
 246              		.loc 1 472 8 view .LVU63
 247 002a 3C2B     		cmp	r3, #60
 248 002c 06D0     		beq	.L28
 249              	.LVL13:
 250              	.L22:
 473:Drivers/STM32F1xx_HAL_Driver/Src/stm32f1xx_hal_dac.c ****     {
 474:Drivers/STM32F1xx_HAL_Driver/Src/stm32f1xx_hal_dac.c ****       /* Enable the selected DAC software conversion */
 475:Drivers/STM32F1xx_HAL_Driver/Src/stm32f1xx_hal_dac.c ****       SET_BIT(hdac->Instance->SWTRIGR, DAC_SWTRIGR_SWTRIG1);
 476:Drivers/STM32F1xx_HAL_Driver/Src/stm32f1xx_hal_dac.c ****     }
 477:Drivers/STM32F1xx_HAL_Driver/Src/stm32f1xx_hal_dac.c ****   }
 478:Drivers/STM32F1xx_HAL_Driver/Src/stm32f1xx_hal_dac.c **** 
 479:Drivers/STM32F1xx_HAL_Driver/Src/stm32f1xx_hal_dac.c ****   else
 480:Drivers/STM32F1xx_HAL_Driver/Src/stm32f1xx_hal_dac.c ****   {
 481:Drivers/STM32F1xx_HAL_Driver/Src/stm32f1xx_hal_dac.c ****     /* Check if software trigger enabled */
 482:Drivers/STM32F1xx_HAL_Driver/Src/stm32f1xx_hal_dac.c ****     if ((hdac->Instance->CR & (DAC_CR_TEN2 | DAC_CR_TSEL2)) == (DAC_TRIGGER_SOFTWARE << (Channel & 
 483:Drivers/STM32F1xx_HAL_Driver/Src/stm32f1xx_hal_dac.c ****     {
 484:Drivers/STM32F1xx_HAL_Driver/Src/stm32f1xx_hal_dac.c ****       /* Enable the selected DAC software conversion*/
 485:Drivers/STM32F1xx_HAL_Driver/Src/stm32f1xx_hal_dac.c ****       SET_BIT(hdac->Instance->SWTRIGR, DAC_SWTRIGR_SWTRIG2);
 486:Drivers/STM32F1xx_HAL_Driver/Src/stm32f1xx_hal_dac.c ****     }
 487:Drivers/STM32F1xx_HAL_Driver/Src/stm32f1xx_hal_dac.c ****   }
 488:Drivers/STM32F1xx_HAL_Driver/Src/stm32f1xx_hal_dac.c **** 
 489:Drivers/STM32F1xx_HAL_Driver/Src/stm32f1xx_hal_dac.c **** 
 490:Drivers/STM32F1xx_HAL_Driver/Src/stm32f1xx_hal_dac.c ****   /* Change DAC state */
 491:Drivers/STM32F1xx_HAL_Driver/Src/stm32f1xx_hal_dac.c ****   hdac->State = HAL_DAC_STATE_READY;
 251              		.loc 1 491 3 is_stmt 1 view .LVU64
 252              		.loc 1 491 15 is_stmt 0 view .LVU65
 253 002e 0123     		movs	r3, #1
 254 0030 0371     		strb	r3, [r0, #4]
 492:Drivers/STM32F1xx_HAL_Driver/Src/stm32f1xx_hal_dac.c **** 
 493:Drivers/STM32F1xx_HAL_Driver/Src/stm32f1xx_hal_dac.c ****   /* Process unlocked */
 494:Drivers/STM32F1xx_HAL_Driver/Src/stm32f1xx_hal_dac.c ****   __HAL_UNLOCK(hdac);
 255              		.loc 1 494 3 is_stmt 1 view .LVU66
 256              		.loc 1 494 3 view .LVU67
 257 0032 0023     		movs	r3, #0
 258 0034 4371     		strb	r3, [r0, #5]
 259              		.loc 1 494 3 view .LVU68
 495:Drivers/STM32F1xx_HAL_Driver/Src/stm32f1xx_hal_dac.c **** 
 496:Drivers/STM32F1xx_HAL_Driver/Src/stm32f1xx_hal_dac.c ****   /* Return function status */
 497:Drivers/STM32F1xx_HAL_Driver/Src/stm32f1xx_hal_dac.c ****   return HAL_OK;
 260              		.loc 1 497 3 view .LVU69
 261              		.loc 1 497 10 is_stmt 0 view .LVU70
 262 0036 1846     		mov	r0, r3
 263              	.LVL14:
 498:Drivers/STM32F1xx_HAL_Driver/Src/stm32f1xx_hal_dac.c **** }
 264              		.loc 1 498 1 view .LVU71
 265 0038 10BC     		pop	{r4}
 266              	.LCFI5:
 267              		.cfi_remember_state
ARM GAS  /tmp/ccLdejbV.s 			page 15


 268              		.cfi_restore 4
 269              		.cfi_def_cfa_offset 0
 270 003a 7047     		bx	lr
 271              	.LVL15:
 272              	.L28:
 273              	.LCFI6:
 274              		.cfi_restore_state
 475:Drivers/STM32F1xx_HAL_Driver/Src/stm32f1xx_hal_dac.c ****     }
 275              		.loc 1 475 7 is_stmt 1 view .LVU72
 276 003c 5368     		ldr	r3, [r2, #4]
 277 003e 43F00103 		orr	r3, r3, #1
 278 0042 5360     		str	r3, [r2, #4]
 279 0044 F3E7     		b	.L22
 280              	.L21:
 482:Drivers/STM32F1xx_HAL_Driver/Src/stm32f1xx_hal_dac.c ****     {
 281              		.loc 1 482 5 view .LVU73
 482:Drivers/STM32F1xx_HAL_Driver/Src/stm32f1xx_hal_dac.c ****     {
 282              		.loc 1 482 14 is_stmt 0 view .LVU74
 283 0046 0168     		ldr	r1, [r0]
 284              	.LVL16:
 482:Drivers/STM32F1xx_HAL_Driver/Src/stm32f1xx_hal_dac.c ****     {
 285              		.loc 1 482 24 view .LVU75
 286 0048 0A68     		ldr	r2, [r1]
 482:Drivers/STM32F1xx_HAL_Driver/Src/stm32f1xx_hal_dac.c ****     {
 287              		.loc 1 482 29 view .LVU76
 288 004a 02F47012 		and	r2, r2, #3932160
 482:Drivers/STM32F1xx_HAL_Driver/Src/stm32f1xx_hal_dac.c ****     {
 289              		.loc 1 482 86 view .LVU77
 290 004e 3C23     		movs	r3, #60
 291 0050 03FA0CFC 		lsl	ip, r3, ip
 482:Drivers/STM32F1xx_HAL_Driver/Src/stm32f1xx_hal_dac.c ****     {
 292              		.loc 1 482 8 view .LVU78
 293 0054 6245     		cmp	r2, ip
 294 0056 EAD1     		bne	.L22
 485:Drivers/STM32F1xx_HAL_Driver/Src/stm32f1xx_hal_dac.c ****     }
 295              		.loc 1 485 7 is_stmt 1 view .LVU79
 296 0058 4B68     		ldr	r3, [r1, #4]
 297 005a 43F00203 		orr	r3, r3, #2
 298 005e 4B60     		str	r3, [r1, #4]
 299 0060 E5E7     		b	.L22
 300              	.LVL17:
 301              	.L23:
 302              	.LCFI7:
 303              		.cfi_def_cfa_offset 0
 304              		.cfi_restore 4
 461:Drivers/STM32F1xx_HAL_Driver/Src/stm32f1xx_hal_dac.c **** 
 305              		.loc 1 461 3 is_stmt 0 view .LVU80
 306 0062 0220     		movs	r0, #2
 307              	.LVL18:
 308              		.loc 1 498 1 view .LVU81
 309 0064 7047     		bx	lr
 310              		.cfi_endproc
 311              	.LFE69:
 313              		.section	.text.HAL_DAC_Stop,"ax",%progbits
 314              		.align	1
 315              		.global	HAL_DAC_Stop
 316              		.syntax unified
ARM GAS  /tmp/ccLdejbV.s 			page 16


 317              		.thumb
 318              		.thumb_func
 319              		.fpu softvfp
 321              	HAL_DAC_Stop:
 322              	.LVL19:
 323              	.LFB70:
 499:Drivers/STM32F1xx_HAL_Driver/Src/stm32f1xx_hal_dac.c **** 
 500:Drivers/STM32F1xx_HAL_Driver/Src/stm32f1xx_hal_dac.c **** /**
 501:Drivers/STM32F1xx_HAL_Driver/Src/stm32f1xx_hal_dac.c ****   * @brief  Disables DAC and stop conversion of channel.
 502:Drivers/STM32F1xx_HAL_Driver/Src/stm32f1xx_hal_dac.c ****   * @param  hdac pointer to a DAC_HandleTypeDef structure that contains
 503:Drivers/STM32F1xx_HAL_Driver/Src/stm32f1xx_hal_dac.c ****   *         the configuration information for the specified DAC.
 504:Drivers/STM32F1xx_HAL_Driver/Src/stm32f1xx_hal_dac.c ****   * @param  Channel The selected DAC channel.
 505:Drivers/STM32F1xx_HAL_Driver/Src/stm32f1xx_hal_dac.c ****   *          This parameter can be one of the following values:
 506:Drivers/STM32F1xx_HAL_Driver/Src/stm32f1xx_hal_dac.c ****   *            @arg DAC_CHANNEL_1: DAC Channel1 selected
 507:Drivers/STM32F1xx_HAL_Driver/Src/stm32f1xx_hal_dac.c ****   *            @arg DAC_CHANNEL_2: DAC Channel2 selected
 508:Drivers/STM32F1xx_HAL_Driver/Src/stm32f1xx_hal_dac.c ****   * @retval HAL status
 509:Drivers/STM32F1xx_HAL_Driver/Src/stm32f1xx_hal_dac.c ****   */
 510:Drivers/STM32F1xx_HAL_Driver/Src/stm32f1xx_hal_dac.c **** HAL_StatusTypeDef HAL_DAC_Stop(DAC_HandleTypeDef *hdac, uint32_t Channel)
 511:Drivers/STM32F1xx_HAL_Driver/Src/stm32f1xx_hal_dac.c **** {
 324              		.loc 1 511 1 is_stmt 1 view -0
 325              		.cfi_startproc
 326              		@ args = 0, pretend = 0, frame = 0
 327              		@ frame_needed = 0, uses_anonymous_args = 0
 328              		@ link register save eliminated.
 329              		.loc 1 511 1 is_stmt 0 view .LVU83
 330 0000 10B4     		push	{r4}
 331              	.LCFI8:
 332              		.cfi_def_cfa_offset 4
 333              		.cfi_offset 4, -4
 512:Drivers/STM32F1xx_HAL_Driver/Src/stm32f1xx_hal_dac.c ****   /* Check the parameters */
 513:Drivers/STM32F1xx_HAL_Driver/Src/stm32f1xx_hal_dac.c ****   assert_param(IS_DAC_CHANNEL(Channel));
 334              		.loc 1 513 3 is_stmt 1 view .LVU84
 514:Drivers/STM32F1xx_HAL_Driver/Src/stm32f1xx_hal_dac.c **** 
 515:Drivers/STM32F1xx_HAL_Driver/Src/stm32f1xx_hal_dac.c ****   /* Disable the Peripheral */
 516:Drivers/STM32F1xx_HAL_Driver/Src/stm32f1xx_hal_dac.c ****   __HAL_DAC_DISABLE(hdac, Channel);
 335              		.loc 1 516 3 view .LVU85
 336 0002 0468     		ldr	r4, [r0]
 337 0004 2368     		ldr	r3, [r4]
 338 0006 01F01001 		and	r1, r1, #16
 339              	.LVL20:
 340              		.loc 1 516 3 is_stmt 0 view .LVU86
 341 000a 0122     		movs	r2, #1
 342 000c 02FA01F1 		lsl	r1, r2, r1
 343 0010 23EA0101 		bic	r1, r3, r1
 344 0014 2160     		str	r1, [r4]
 517:Drivers/STM32F1xx_HAL_Driver/Src/stm32f1xx_hal_dac.c **** 
 518:Drivers/STM32F1xx_HAL_Driver/Src/stm32f1xx_hal_dac.c ****   /* Change DAC state */
 519:Drivers/STM32F1xx_HAL_Driver/Src/stm32f1xx_hal_dac.c ****   hdac->State = HAL_DAC_STATE_READY;
 345              		.loc 1 519 3 is_stmt 1 view .LVU87
 346              		.loc 1 519 15 is_stmt 0 view .LVU88
 347 0016 0271     		strb	r2, [r0, #4]
 520:Drivers/STM32F1xx_HAL_Driver/Src/stm32f1xx_hal_dac.c **** 
 521:Drivers/STM32F1xx_HAL_Driver/Src/stm32f1xx_hal_dac.c ****   /* Return function status */
 522:Drivers/STM32F1xx_HAL_Driver/Src/stm32f1xx_hal_dac.c ****   return HAL_OK;
 348              		.loc 1 522 3 is_stmt 1 view .LVU89
 523:Drivers/STM32F1xx_HAL_Driver/Src/stm32f1xx_hal_dac.c **** }
 349              		.loc 1 523 1 is_stmt 0 view .LVU90
ARM GAS  /tmp/ccLdejbV.s 			page 17


 350 0018 0020     		movs	r0, #0
 351              	.LVL21:
 352              		.loc 1 523 1 view .LVU91
 353 001a 10BC     		pop	{r4}
 354              	.LCFI9:
 355              		.cfi_restore 4
 356              		.cfi_def_cfa_offset 0
 357 001c 7047     		bx	lr
 358              		.cfi_endproc
 359              	.LFE70:
 361              		.section	.text.HAL_DAC_Start_DMA,"ax",%progbits
 362              		.align	1
 363              		.global	HAL_DAC_Start_DMA
 364              		.syntax unified
 365              		.thumb
 366              		.thumb_func
 367              		.fpu softvfp
 369              	HAL_DAC_Start_DMA:
 370              	.LVL22:
 371              	.LFB71:
 524:Drivers/STM32F1xx_HAL_Driver/Src/stm32f1xx_hal_dac.c **** 
 525:Drivers/STM32F1xx_HAL_Driver/Src/stm32f1xx_hal_dac.c **** /**
 526:Drivers/STM32F1xx_HAL_Driver/Src/stm32f1xx_hal_dac.c ****   * @brief  Enables DAC and starts conversion of channel.
 527:Drivers/STM32F1xx_HAL_Driver/Src/stm32f1xx_hal_dac.c ****   * @param  hdac pointer to a DAC_HandleTypeDef structure that contains
 528:Drivers/STM32F1xx_HAL_Driver/Src/stm32f1xx_hal_dac.c ****   *         the configuration information for the specified DAC.
 529:Drivers/STM32F1xx_HAL_Driver/Src/stm32f1xx_hal_dac.c ****   * @param  Channel The selected DAC channel.
 530:Drivers/STM32F1xx_HAL_Driver/Src/stm32f1xx_hal_dac.c ****   *          This parameter can be one of the following values:
 531:Drivers/STM32F1xx_HAL_Driver/Src/stm32f1xx_hal_dac.c ****   *            @arg DAC_CHANNEL_1: DAC Channel1 selected
 532:Drivers/STM32F1xx_HAL_Driver/Src/stm32f1xx_hal_dac.c ****   *            @arg DAC_CHANNEL_2: DAC Channel2 selected
 533:Drivers/STM32F1xx_HAL_Driver/Src/stm32f1xx_hal_dac.c ****   * @param  pData The source Buffer address.
 534:Drivers/STM32F1xx_HAL_Driver/Src/stm32f1xx_hal_dac.c ****   * @param  Length The length of data to be transferred from memory to DAC peripheral
 535:Drivers/STM32F1xx_HAL_Driver/Src/stm32f1xx_hal_dac.c ****   * @param  Alignment Specifies the data alignment for DAC channel.
 536:Drivers/STM32F1xx_HAL_Driver/Src/stm32f1xx_hal_dac.c ****   *          This parameter can be one of the following values:
 537:Drivers/STM32F1xx_HAL_Driver/Src/stm32f1xx_hal_dac.c ****   *            @arg DAC_ALIGN_8B_R: 8bit right data alignment selected
 538:Drivers/STM32F1xx_HAL_Driver/Src/stm32f1xx_hal_dac.c ****   *            @arg DAC_ALIGN_12B_L: 12bit left data alignment selected
 539:Drivers/STM32F1xx_HAL_Driver/Src/stm32f1xx_hal_dac.c ****   *            @arg DAC_ALIGN_12B_R: 12bit right data alignment selected
 540:Drivers/STM32F1xx_HAL_Driver/Src/stm32f1xx_hal_dac.c ****   * @retval HAL status
 541:Drivers/STM32F1xx_HAL_Driver/Src/stm32f1xx_hal_dac.c ****   */
 542:Drivers/STM32F1xx_HAL_Driver/Src/stm32f1xx_hal_dac.c **** HAL_StatusTypeDef HAL_DAC_Start_DMA(DAC_HandleTypeDef *hdac, uint32_t Channel, uint32_t *pData, uin
 543:Drivers/STM32F1xx_HAL_Driver/Src/stm32f1xx_hal_dac.c ****                                     uint32_t Alignment)
 544:Drivers/STM32F1xx_HAL_Driver/Src/stm32f1xx_hal_dac.c **** {
 372              		.loc 1 544 1 is_stmt 1 view -0
 373              		.cfi_startproc
 374              		@ args = 4, pretend = 0, frame = 0
 375              		@ frame_needed = 0, uses_anonymous_args = 0
 376              		.loc 1 544 1 is_stmt 0 view .LVU93
 377 0000 70B5     		push	{r4, r5, r6, lr}
 378              	.LCFI10:
 379              		.cfi_def_cfa_offset 16
 380              		.cfi_offset 4, -16
 381              		.cfi_offset 5, -12
 382              		.cfi_offset 6, -8
 383              		.cfi_offset 14, -4
 384 0002 0446     		mov	r4, r0
 385 0004 0D46     		mov	r5, r1
 386 0006 1146     		mov	r1, r2
 387              	.LVL23:
ARM GAS  /tmp/ccLdejbV.s 			page 18


 388              		.loc 1 544 1 view .LVU94
 389 0008 049A     		ldr	r2, [sp, #16]
 390              	.LVL24:
 545:Drivers/STM32F1xx_HAL_Driver/Src/stm32f1xx_hal_dac.c ****   HAL_StatusTypeDef status;
 391              		.loc 1 545 3 is_stmt 1 view .LVU95
 546:Drivers/STM32F1xx_HAL_Driver/Src/stm32f1xx_hal_dac.c ****   uint32_t tmpreg = 0U;
 392              		.loc 1 546 3 view .LVU96
 547:Drivers/STM32F1xx_HAL_Driver/Src/stm32f1xx_hal_dac.c **** 
 548:Drivers/STM32F1xx_HAL_Driver/Src/stm32f1xx_hal_dac.c ****   /* Check the parameters */
 549:Drivers/STM32F1xx_HAL_Driver/Src/stm32f1xx_hal_dac.c ****   assert_param(IS_DAC_CHANNEL(Channel));
 393              		.loc 1 549 3 view .LVU97
 550:Drivers/STM32F1xx_HAL_Driver/Src/stm32f1xx_hal_dac.c ****   assert_param(IS_DAC_ALIGN(Alignment));
 394              		.loc 1 550 3 view .LVU98
 551:Drivers/STM32F1xx_HAL_Driver/Src/stm32f1xx_hal_dac.c **** 
 552:Drivers/STM32F1xx_HAL_Driver/Src/stm32f1xx_hal_dac.c ****   /* Process locked */
 553:Drivers/STM32F1xx_HAL_Driver/Src/stm32f1xx_hal_dac.c ****   __HAL_LOCK(hdac);
 395              		.loc 1 553 3 view .LVU99
 396              		.loc 1 553 3 view .LVU100
 397 000a 4079     		ldrb	r0, [r0, #5]	@ zero_extendqisi2
 398              	.LVL25:
 399              		.loc 1 553 3 is_stmt 0 view .LVU101
 400 000c 0128     		cmp	r0, #1
 401 000e 5CD0     		beq	.L42
 402              		.loc 1 553 3 is_stmt 1 discriminator 2 view .LVU102
 403 0010 0120     		movs	r0, #1
 404 0012 6071     		strb	r0, [r4, #5]
 405              		.loc 1 553 3 discriminator 2 view .LVU103
 554:Drivers/STM32F1xx_HAL_Driver/Src/stm32f1xx_hal_dac.c **** 
 555:Drivers/STM32F1xx_HAL_Driver/Src/stm32f1xx_hal_dac.c ****   /* Change DAC state */
 556:Drivers/STM32F1xx_HAL_Driver/Src/stm32f1xx_hal_dac.c ****   hdac->State = HAL_DAC_STATE_BUSY;
 406              		.loc 1 556 3 discriminator 2 view .LVU104
 407              		.loc 1 556 15 is_stmt 0 discriminator 2 view .LVU105
 408 0014 0220     		movs	r0, #2
 409 0016 2071     		strb	r0, [r4, #4]
 557:Drivers/STM32F1xx_HAL_Driver/Src/stm32f1xx_hal_dac.c **** 
 558:Drivers/STM32F1xx_HAL_Driver/Src/stm32f1xx_hal_dac.c ****   if (Channel == DAC_CHANNEL_1)
 410              		.loc 1 558 3 is_stmt 1 discriminator 2 view .LVU106
 411              		.loc 1 558 6 is_stmt 0 discriminator 2 view .LVU107
 412 0018 002D     		cmp	r5, #0
 413 001a 2FD1     		bne	.L33
 559:Drivers/STM32F1xx_HAL_Driver/Src/stm32f1xx_hal_dac.c ****   {
 560:Drivers/STM32F1xx_HAL_Driver/Src/stm32f1xx_hal_dac.c ****     /* Set the DMA transfer complete callback for channel1 */
 561:Drivers/STM32F1xx_HAL_Driver/Src/stm32f1xx_hal_dac.c ****     hdac->DMA_Handle1->XferCpltCallback = DAC_DMAConvCpltCh1;
 414              		.loc 1 561 5 is_stmt 1 view .LVU108
 415              		.loc 1 561 9 is_stmt 0 view .LVU109
 416 001c A068     		ldr	r0, [r4, #8]
 417              		.loc 1 561 41 view .LVU110
 418 001e 2C4E     		ldr	r6, .L48
 419 0020 8662     		str	r6, [r0, #40]
 562:Drivers/STM32F1xx_HAL_Driver/Src/stm32f1xx_hal_dac.c **** 
 563:Drivers/STM32F1xx_HAL_Driver/Src/stm32f1xx_hal_dac.c ****     /* Set the DMA half transfer complete callback for channel1 */
 564:Drivers/STM32F1xx_HAL_Driver/Src/stm32f1xx_hal_dac.c ****     hdac->DMA_Handle1->XferHalfCpltCallback = DAC_DMAHalfConvCpltCh1;
 420              		.loc 1 564 5 is_stmt 1 view .LVU111
 421              		.loc 1 564 9 is_stmt 0 view .LVU112
 422 0022 A068     		ldr	r0, [r4, #8]
 423              		.loc 1 564 45 view .LVU113
 424 0024 2B4E     		ldr	r6, .L48+4
ARM GAS  /tmp/ccLdejbV.s 			page 19


 425 0026 C662     		str	r6, [r0, #44]
 565:Drivers/STM32F1xx_HAL_Driver/Src/stm32f1xx_hal_dac.c **** 
 566:Drivers/STM32F1xx_HAL_Driver/Src/stm32f1xx_hal_dac.c ****     /* Set the DMA error callback for channel1 */
 567:Drivers/STM32F1xx_HAL_Driver/Src/stm32f1xx_hal_dac.c ****     hdac->DMA_Handle1->XferErrorCallback = DAC_DMAErrorCh1;
 426              		.loc 1 567 5 is_stmt 1 view .LVU114
 427              		.loc 1 567 9 is_stmt 0 view .LVU115
 428 0028 A068     		ldr	r0, [r4, #8]
 429              		.loc 1 567 42 view .LVU116
 430 002a 2B4E     		ldr	r6, .L48+8
 431 002c 0663     		str	r6, [r0, #48]
 568:Drivers/STM32F1xx_HAL_Driver/Src/stm32f1xx_hal_dac.c **** 
 569:Drivers/STM32F1xx_HAL_Driver/Src/stm32f1xx_hal_dac.c ****     /* Enable the selected DAC channel1 DMA request */
 570:Drivers/STM32F1xx_HAL_Driver/Src/stm32f1xx_hal_dac.c ****     SET_BIT(hdac->Instance->CR, DAC_CR_DMAEN1);
 432              		.loc 1 570 5 is_stmt 1 view .LVU117
 433 002e 2668     		ldr	r6, [r4]
 434 0030 3068     		ldr	r0, [r6]
 435 0032 40F48050 		orr	r0, r0, #4096
 436 0036 3060     		str	r0, [r6]
 571:Drivers/STM32F1xx_HAL_Driver/Src/stm32f1xx_hal_dac.c **** 
 572:Drivers/STM32F1xx_HAL_Driver/Src/stm32f1xx_hal_dac.c ****     /* Case of use of channel 1 */
 573:Drivers/STM32F1xx_HAL_Driver/Src/stm32f1xx_hal_dac.c ****     switch (Alignment)
 437              		.loc 1 573 5 view .LVU118
 438 0038 042A     		cmp	r2, #4
 439 003a 19D0     		beq	.L34
 440 003c 082A     		cmp	r2, #8
 441 003e 1AD0     		beq	.L35
 442 0040 9AB1     		cbz	r2, .L46
 443 0042 2A46     		mov	r2, r5
 444              	.LVL26:
 445              	.L36:
 574:Drivers/STM32F1xx_HAL_Driver/Src/stm32f1xx_hal_dac.c ****     {
 575:Drivers/STM32F1xx_HAL_Driver/Src/stm32f1xx_hal_dac.c ****       case DAC_ALIGN_12B_R:
 576:Drivers/STM32F1xx_HAL_Driver/Src/stm32f1xx_hal_dac.c ****         /* Get DHR12R1 address */
 577:Drivers/STM32F1xx_HAL_Driver/Src/stm32f1xx_hal_dac.c ****         tmpreg = (uint32_t)&hdac->Instance->DHR12R1;
 578:Drivers/STM32F1xx_HAL_Driver/Src/stm32f1xx_hal_dac.c ****         break;
 579:Drivers/STM32F1xx_HAL_Driver/Src/stm32f1xx_hal_dac.c ****       case DAC_ALIGN_12B_L:
 580:Drivers/STM32F1xx_HAL_Driver/Src/stm32f1xx_hal_dac.c ****         /* Get DHR12L1 address */
 581:Drivers/STM32F1xx_HAL_Driver/Src/stm32f1xx_hal_dac.c ****         tmpreg = (uint32_t)&hdac->Instance->DHR12L1;
 582:Drivers/STM32F1xx_HAL_Driver/Src/stm32f1xx_hal_dac.c ****         break;
 583:Drivers/STM32F1xx_HAL_Driver/Src/stm32f1xx_hal_dac.c ****       case DAC_ALIGN_8B_R:
 584:Drivers/STM32F1xx_HAL_Driver/Src/stm32f1xx_hal_dac.c ****         /* Get DHR8R1 address */
 585:Drivers/STM32F1xx_HAL_Driver/Src/stm32f1xx_hal_dac.c ****         tmpreg = (uint32_t)&hdac->Instance->DHR8R1;
 586:Drivers/STM32F1xx_HAL_Driver/Src/stm32f1xx_hal_dac.c ****         break;
 587:Drivers/STM32F1xx_HAL_Driver/Src/stm32f1xx_hal_dac.c ****       default:
 588:Drivers/STM32F1xx_HAL_Driver/Src/stm32f1xx_hal_dac.c ****         break;
 589:Drivers/STM32F1xx_HAL_Driver/Src/stm32f1xx_hal_dac.c ****     }
 590:Drivers/STM32F1xx_HAL_Driver/Src/stm32f1xx_hal_dac.c ****   }
 591:Drivers/STM32F1xx_HAL_Driver/Src/stm32f1xx_hal_dac.c **** 
 592:Drivers/STM32F1xx_HAL_Driver/Src/stm32f1xx_hal_dac.c ****   else
 593:Drivers/STM32F1xx_HAL_Driver/Src/stm32f1xx_hal_dac.c ****   {
 594:Drivers/STM32F1xx_HAL_Driver/Src/stm32f1xx_hal_dac.c ****     /* Set the DMA transfer complete callback for channel2 */
 595:Drivers/STM32F1xx_HAL_Driver/Src/stm32f1xx_hal_dac.c ****     hdac->DMA_Handle2->XferCpltCallback = DAC_DMAConvCpltCh2;
 596:Drivers/STM32F1xx_HAL_Driver/Src/stm32f1xx_hal_dac.c **** 
 597:Drivers/STM32F1xx_HAL_Driver/Src/stm32f1xx_hal_dac.c ****     /* Set the DMA half transfer complete callback for channel2 */
 598:Drivers/STM32F1xx_HAL_Driver/Src/stm32f1xx_hal_dac.c ****     hdac->DMA_Handle2->XferHalfCpltCallback = DAC_DMAHalfConvCpltCh2;
 599:Drivers/STM32F1xx_HAL_Driver/Src/stm32f1xx_hal_dac.c **** 
 600:Drivers/STM32F1xx_HAL_Driver/Src/stm32f1xx_hal_dac.c ****     /* Set the DMA error callback for channel2 */
ARM GAS  /tmp/ccLdejbV.s 			page 20


 601:Drivers/STM32F1xx_HAL_Driver/Src/stm32f1xx_hal_dac.c ****     hdac->DMA_Handle2->XferErrorCallback = DAC_DMAErrorCh2;
 602:Drivers/STM32F1xx_HAL_Driver/Src/stm32f1xx_hal_dac.c **** 
 603:Drivers/STM32F1xx_HAL_Driver/Src/stm32f1xx_hal_dac.c ****     /* Enable the selected DAC channel2 DMA request */
 604:Drivers/STM32F1xx_HAL_Driver/Src/stm32f1xx_hal_dac.c ****     SET_BIT(hdac->Instance->CR, DAC_CR_DMAEN2);
 605:Drivers/STM32F1xx_HAL_Driver/Src/stm32f1xx_hal_dac.c **** 
 606:Drivers/STM32F1xx_HAL_Driver/Src/stm32f1xx_hal_dac.c ****     /* Case of use of channel 2 */
 607:Drivers/STM32F1xx_HAL_Driver/Src/stm32f1xx_hal_dac.c ****     switch (Alignment)
 608:Drivers/STM32F1xx_HAL_Driver/Src/stm32f1xx_hal_dac.c ****     {
 609:Drivers/STM32F1xx_HAL_Driver/Src/stm32f1xx_hal_dac.c ****       case DAC_ALIGN_12B_R:
 610:Drivers/STM32F1xx_HAL_Driver/Src/stm32f1xx_hal_dac.c ****         /* Get DHR12R2 address */
 611:Drivers/STM32F1xx_HAL_Driver/Src/stm32f1xx_hal_dac.c ****         tmpreg = (uint32_t)&hdac->Instance->DHR12R2;
 612:Drivers/STM32F1xx_HAL_Driver/Src/stm32f1xx_hal_dac.c ****         break;
 613:Drivers/STM32F1xx_HAL_Driver/Src/stm32f1xx_hal_dac.c ****       case DAC_ALIGN_12B_L:
 614:Drivers/STM32F1xx_HAL_Driver/Src/stm32f1xx_hal_dac.c ****         /* Get DHR12L2 address */
 615:Drivers/STM32F1xx_HAL_Driver/Src/stm32f1xx_hal_dac.c ****         tmpreg = (uint32_t)&hdac->Instance->DHR12L2;
 616:Drivers/STM32F1xx_HAL_Driver/Src/stm32f1xx_hal_dac.c ****         break;
 617:Drivers/STM32F1xx_HAL_Driver/Src/stm32f1xx_hal_dac.c ****       case DAC_ALIGN_8B_R:
 618:Drivers/STM32F1xx_HAL_Driver/Src/stm32f1xx_hal_dac.c ****         /* Get DHR8R2 address */
 619:Drivers/STM32F1xx_HAL_Driver/Src/stm32f1xx_hal_dac.c ****         tmpreg = (uint32_t)&hdac->Instance->DHR8R2;
 620:Drivers/STM32F1xx_HAL_Driver/Src/stm32f1xx_hal_dac.c ****         break;
 621:Drivers/STM32F1xx_HAL_Driver/Src/stm32f1xx_hal_dac.c ****       default:
 622:Drivers/STM32F1xx_HAL_Driver/Src/stm32f1xx_hal_dac.c ****         break;
 623:Drivers/STM32F1xx_HAL_Driver/Src/stm32f1xx_hal_dac.c ****     }
 624:Drivers/STM32F1xx_HAL_Driver/Src/stm32f1xx_hal_dac.c ****   }
 625:Drivers/STM32F1xx_HAL_Driver/Src/stm32f1xx_hal_dac.c **** 
 626:Drivers/STM32F1xx_HAL_Driver/Src/stm32f1xx_hal_dac.c **** 
 627:Drivers/STM32F1xx_HAL_Driver/Src/stm32f1xx_hal_dac.c ****   /* Enable the DMA Stream */
 628:Drivers/STM32F1xx_HAL_Driver/Src/stm32f1xx_hal_dac.c ****   if (Channel == DAC_CHANNEL_1)
 446              		.loc 1 628 3 view .LVU119
 447              		.loc 1 628 6 is_stmt 0 view .LVU120
 448 0044 002D     		cmp	r5, #0
 449 0046 37D1     		bne	.L39
 629:Drivers/STM32F1xx_HAL_Driver/Src/stm32f1xx_hal_dac.c ****   {
 630:Drivers/STM32F1xx_HAL_Driver/Src/stm32f1xx_hal_dac.c **** #if defined(DAC_CR_DMAUDRIE1)
 631:Drivers/STM32F1xx_HAL_Driver/Src/stm32f1xx_hal_dac.c ****     /* Enable the DAC DMA underrun interrupt */
 632:Drivers/STM32F1xx_HAL_Driver/Src/stm32f1xx_hal_dac.c ****     __HAL_DAC_ENABLE_IT(hdac, DAC_IT_DMAUDR1);
 633:Drivers/STM32F1xx_HAL_Driver/Src/stm32f1xx_hal_dac.c **** #endif /* DAC_CR_DMAUDRIE1 */
 634:Drivers/STM32F1xx_HAL_Driver/Src/stm32f1xx_hal_dac.c **** 
 635:Drivers/STM32F1xx_HAL_Driver/Src/stm32f1xx_hal_dac.c ****     /* Enable the DMA Stream */
 636:Drivers/STM32F1xx_HAL_Driver/Src/stm32f1xx_hal_dac.c ****     status = HAL_DMA_Start_IT(hdac->DMA_Handle1, (uint32_t)pData, tmpreg, Length);
 450              		.loc 1 636 5 is_stmt 1 view .LVU121
 451              		.loc 1 636 14 is_stmt 0 view .LVU122
 452 0048 A068     		ldr	r0, [r4, #8]
 453 004a FFF7FEFF 		bl	HAL_DMA_Start_IT
 454              	.LVL27:
 455              	.L40:
 637:Drivers/STM32F1xx_HAL_Driver/Src/stm32f1xx_hal_dac.c ****   }
 638:Drivers/STM32F1xx_HAL_Driver/Src/stm32f1xx_hal_dac.c **** 
 639:Drivers/STM32F1xx_HAL_Driver/Src/stm32f1xx_hal_dac.c ****   else
 640:Drivers/STM32F1xx_HAL_Driver/Src/stm32f1xx_hal_dac.c ****   {
 641:Drivers/STM32F1xx_HAL_Driver/Src/stm32f1xx_hal_dac.c **** #if defined(DAC_CR_DMAUDRIE2)
 642:Drivers/STM32F1xx_HAL_Driver/Src/stm32f1xx_hal_dac.c ****     /* Enable the DAC DMA underrun interrupt */
 643:Drivers/STM32F1xx_HAL_Driver/Src/stm32f1xx_hal_dac.c ****     __HAL_DAC_ENABLE_IT(hdac, DAC_IT_DMAUDR2);
 644:Drivers/STM32F1xx_HAL_Driver/Src/stm32f1xx_hal_dac.c **** #endif /* DAC_CR_DMAUDRIE2 */
 645:Drivers/STM32F1xx_HAL_Driver/Src/stm32f1xx_hal_dac.c **** 
 646:Drivers/STM32F1xx_HAL_Driver/Src/stm32f1xx_hal_dac.c ****     /* Enable the DMA Stream */
 647:Drivers/STM32F1xx_HAL_Driver/Src/stm32f1xx_hal_dac.c ****     status = HAL_DMA_Start_IT(hdac->DMA_Handle2, (uint32_t)pData, tmpreg, Length);
ARM GAS  /tmp/ccLdejbV.s 			page 21


 648:Drivers/STM32F1xx_HAL_Driver/Src/stm32f1xx_hal_dac.c ****   }
 649:Drivers/STM32F1xx_HAL_Driver/Src/stm32f1xx_hal_dac.c **** 
 650:Drivers/STM32F1xx_HAL_Driver/Src/stm32f1xx_hal_dac.c **** 
 651:Drivers/STM32F1xx_HAL_Driver/Src/stm32f1xx_hal_dac.c ****   /* Process Unlocked */
 652:Drivers/STM32F1xx_HAL_Driver/Src/stm32f1xx_hal_dac.c ****   __HAL_UNLOCK(hdac);
 456              		.loc 1 652 3 is_stmt 1 view .LVU123
 457              		.loc 1 652 3 view .LVU124
 458 004e 0023     		movs	r3, #0
 459 0050 6371     		strb	r3, [r4, #5]
 460              		.loc 1 652 3 view .LVU125
 653:Drivers/STM32F1xx_HAL_Driver/Src/stm32f1xx_hal_dac.c **** 
 654:Drivers/STM32F1xx_HAL_Driver/Src/stm32f1xx_hal_dac.c ****   if (status == HAL_OK)
 461              		.loc 1 654 3 view .LVU126
 462              		.loc 1 654 6 is_stmt 0 view .LVU127
 463 0052 0028     		cmp	r0, #0
 464 0054 34D1     		bne	.L41
 655:Drivers/STM32F1xx_HAL_Driver/Src/stm32f1xx_hal_dac.c ****   {
 656:Drivers/STM32F1xx_HAL_Driver/Src/stm32f1xx_hal_dac.c ****     /* Enable the Peripheral */
 657:Drivers/STM32F1xx_HAL_Driver/Src/stm32f1xx_hal_dac.c ****     __HAL_DAC_ENABLE(hdac, Channel);
 465              		.loc 1 657 5 is_stmt 1 view .LVU128
 466 0056 2268     		ldr	r2, [r4]
 467 0058 1368     		ldr	r3, [r2]
 468 005a 05F01005 		and	r5, r5, #16
 469              	.LVL28:
 470              		.loc 1 657 5 is_stmt 0 view .LVU129
 471 005e 0121     		movs	r1, #1
 472 0060 01FA05F5 		lsl	r5, r1, r5
 473 0064 1D43     		orrs	r5, r5, r3
 474 0066 1560     		str	r5, [r2]
 475              	.LVL29:
 476              	.L32:
 658:Drivers/STM32F1xx_HAL_Driver/Src/stm32f1xx_hal_dac.c ****   }
 659:Drivers/STM32F1xx_HAL_Driver/Src/stm32f1xx_hal_dac.c ****   else
 660:Drivers/STM32F1xx_HAL_Driver/Src/stm32f1xx_hal_dac.c ****   {
 661:Drivers/STM32F1xx_HAL_Driver/Src/stm32f1xx_hal_dac.c ****     hdac->ErrorCode |= HAL_DAC_ERROR_DMA;
 662:Drivers/STM32F1xx_HAL_Driver/Src/stm32f1xx_hal_dac.c ****   }
 663:Drivers/STM32F1xx_HAL_Driver/Src/stm32f1xx_hal_dac.c **** 
 664:Drivers/STM32F1xx_HAL_Driver/Src/stm32f1xx_hal_dac.c ****   /* Return function status */
 665:Drivers/STM32F1xx_HAL_Driver/Src/stm32f1xx_hal_dac.c ****   return status;
 666:Drivers/STM32F1xx_HAL_Driver/Src/stm32f1xx_hal_dac.c **** }
 477              		.loc 1 666 1 view .LVU130
 478 0068 70BD     		pop	{r4, r5, r6, pc}
 479              	.LVL30:
 480              	.L46:
 577:Drivers/STM32F1xx_HAL_Driver/Src/stm32f1xx_hal_dac.c ****         break;
 481              		.loc 1 577 9 is_stmt 1 view .LVU131
 577:Drivers/STM32F1xx_HAL_Driver/Src/stm32f1xx_hal_dac.c ****         break;
 482              		.loc 1 577 33 is_stmt 0 view .LVU132
 483 006a 2268     		ldr	r2, [r4]
 577:Drivers/STM32F1xx_HAL_Driver/Src/stm32f1xx_hal_dac.c ****         break;
 484              		.loc 1 577 28 view .LVU133
 485 006c 0832     		adds	r2, r2, #8
 486              	.LVL31:
 578:Drivers/STM32F1xx_HAL_Driver/Src/stm32f1xx_hal_dac.c ****       case DAC_ALIGN_12B_L:
 487              		.loc 1 578 9 is_stmt 1 view .LVU134
 488 006e E9E7     		b	.L36
 489              	.LVL32:
ARM GAS  /tmp/ccLdejbV.s 			page 22


 490              	.L34:
 581:Drivers/STM32F1xx_HAL_Driver/Src/stm32f1xx_hal_dac.c ****         break;
 491              		.loc 1 581 9 view .LVU135
 581:Drivers/STM32F1xx_HAL_Driver/Src/stm32f1xx_hal_dac.c ****         break;
 492              		.loc 1 581 33 is_stmt 0 view .LVU136
 493 0070 2268     		ldr	r2, [r4]
 581:Drivers/STM32F1xx_HAL_Driver/Src/stm32f1xx_hal_dac.c ****         break;
 494              		.loc 1 581 28 view .LVU137
 495 0072 0C32     		adds	r2, r2, #12
 496              	.LVL33:
 582:Drivers/STM32F1xx_HAL_Driver/Src/stm32f1xx_hal_dac.c ****       case DAC_ALIGN_8B_R:
 497              		.loc 1 582 9 is_stmt 1 view .LVU138
 498 0074 E6E7     		b	.L36
 499              	.LVL34:
 500              	.L35:
 585:Drivers/STM32F1xx_HAL_Driver/Src/stm32f1xx_hal_dac.c ****         break;
 501              		.loc 1 585 9 view .LVU139
 585:Drivers/STM32F1xx_HAL_Driver/Src/stm32f1xx_hal_dac.c ****         break;
 502              		.loc 1 585 33 is_stmt 0 view .LVU140
 503 0076 2268     		ldr	r2, [r4]
 585:Drivers/STM32F1xx_HAL_Driver/Src/stm32f1xx_hal_dac.c ****         break;
 504              		.loc 1 585 28 view .LVU141
 505 0078 1032     		adds	r2, r2, #16
 506              	.LVL35:
 586:Drivers/STM32F1xx_HAL_Driver/Src/stm32f1xx_hal_dac.c ****       default:
 507              		.loc 1 586 9 is_stmt 1 view .LVU142
 508 007a E3E7     		b	.L36
 509              	.LVL36:
 510              	.L33:
 595:Drivers/STM32F1xx_HAL_Driver/Src/stm32f1xx_hal_dac.c **** 
 511              		.loc 1 595 5 view .LVU143
 595:Drivers/STM32F1xx_HAL_Driver/Src/stm32f1xx_hal_dac.c **** 
 512              		.loc 1 595 9 is_stmt 0 view .LVU144
 513 007c E068     		ldr	r0, [r4, #12]
 595:Drivers/STM32F1xx_HAL_Driver/Src/stm32f1xx_hal_dac.c **** 
 514              		.loc 1 595 41 view .LVU145
 515 007e 174E     		ldr	r6, .L48+12
 516 0080 8662     		str	r6, [r0, #40]
 598:Drivers/STM32F1xx_HAL_Driver/Src/stm32f1xx_hal_dac.c **** 
 517              		.loc 1 598 5 is_stmt 1 view .LVU146
 598:Drivers/STM32F1xx_HAL_Driver/Src/stm32f1xx_hal_dac.c **** 
 518              		.loc 1 598 9 is_stmt 0 view .LVU147
 519 0082 E068     		ldr	r0, [r4, #12]
 598:Drivers/STM32F1xx_HAL_Driver/Src/stm32f1xx_hal_dac.c **** 
 520              		.loc 1 598 45 view .LVU148
 521 0084 164E     		ldr	r6, .L48+16
 522 0086 C662     		str	r6, [r0, #44]
 601:Drivers/STM32F1xx_HAL_Driver/Src/stm32f1xx_hal_dac.c **** 
 523              		.loc 1 601 5 is_stmt 1 view .LVU149
 601:Drivers/STM32F1xx_HAL_Driver/Src/stm32f1xx_hal_dac.c **** 
 524              		.loc 1 601 9 is_stmt 0 view .LVU150
 525 0088 E068     		ldr	r0, [r4, #12]
 601:Drivers/STM32F1xx_HAL_Driver/Src/stm32f1xx_hal_dac.c **** 
 526              		.loc 1 601 42 view .LVU151
 527 008a 164E     		ldr	r6, .L48+20
 528 008c 0663     		str	r6, [r0, #48]
 604:Drivers/STM32F1xx_HAL_Driver/Src/stm32f1xx_hal_dac.c **** 
ARM GAS  /tmp/ccLdejbV.s 			page 23


 529              		.loc 1 604 5 is_stmt 1 view .LVU152
 530 008e 2668     		ldr	r6, [r4]
 531 0090 3068     		ldr	r0, [r6]
 532 0092 40F08050 		orr	r0, r0, #268435456
 533 0096 3060     		str	r0, [r6]
 607:Drivers/STM32F1xx_HAL_Driver/Src/stm32f1xx_hal_dac.c ****     {
 534              		.loc 1 607 5 view .LVU153
 535 0098 042A     		cmp	r2, #4
 536 009a 07D0     		beq	.L37
 537 009c 082A     		cmp	r2, #8
 538 009e 08D0     		beq	.L38
 539 00a0 0AB1     		cbz	r2, .L47
 540 00a2 0022     		movs	r2, #0
 541 00a4 CEE7     		b	.L36
 542              	.L47:
 611:Drivers/STM32F1xx_HAL_Driver/Src/stm32f1xx_hal_dac.c ****         break;
 543              		.loc 1 611 9 view .LVU154
 611:Drivers/STM32F1xx_HAL_Driver/Src/stm32f1xx_hal_dac.c ****         break;
 544              		.loc 1 611 33 is_stmt 0 view .LVU155
 545 00a6 2268     		ldr	r2, [r4]
 611:Drivers/STM32F1xx_HAL_Driver/Src/stm32f1xx_hal_dac.c ****         break;
 546              		.loc 1 611 28 view .LVU156
 547 00a8 1432     		adds	r2, r2, #20
 548              	.LVL37:
 612:Drivers/STM32F1xx_HAL_Driver/Src/stm32f1xx_hal_dac.c ****       case DAC_ALIGN_12B_L:
 549              		.loc 1 612 9 is_stmt 1 view .LVU157
 550 00aa CBE7     		b	.L36
 551              	.LVL38:
 552              	.L37:
 615:Drivers/STM32F1xx_HAL_Driver/Src/stm32f1xx_hal_dac.c ****         break;
 553              		.loc 1 615 9 view .LVU158
 615:Drivers/STM32F1xx_HAL_Driver/Src/stm32f1xx_hal_dac.c ****         break;
 554              		.loc 1 615 33 is_stmt 0 view .LVU159
 555 00ac 2268     		ldr	r2, [r4]
 615:Drivers/STM32F1xx_HAL_Driver/Src/stm32f1xx_hal_dac.c ****         break;
 556              		.loc 1 615 28 view .LVU160
 557 00ae 1832     		adds	r2, r2, #24
 558              	.LVL39:
 616:Drivers/STM32F1xx_HAL_Driver/Src/stm32f1xx_hal_dac.c ****       case DAC_ALIGN_8B_R:
 559              		.loc 1 616 9 is_stmt 1 view .LVU161
 560 00b0 C8E7     		b	.L36
 561              	.LVL40:
 562              	.L38:
 619:Drivers/STM32F1xx_HAL_Driver/Src/stm32f1xx_hal_dac.c ****         break;
 563              		.loc 1 619 9 view .LVU162
 619:Drivers/STM32F1xx_HAL_Driver/Src/stm32f1xx_hal_dac.c ****         break;
 564              		.loc 1 619 33 is_stmt 0 view .LVU163
 565 00b2 2268     		ldr	r2, [r4]
 619:Drivers/STM32F1xx_HAL_Driver/Src/stm32f1xx_hal_dac.c ****         break;
 566              		.loc 1 619 28 view .LVU164
 567 00b4 1C32     		adds	r2, r2, #28
 568              	.LVL41:
 620:Drivers/STM32F1xx_HAL_Driver/Src/stm32f1xx_hal_dac.c ****       default:
 569              		.loc 1 620 9 is_stmt 1 view .LVU165
 570 00b6 C5E7     		b	.L36
 571              	.L39:
 647:Drivers/STM32F1xx_HAL_Driver/Src/stm32f1xx_hal_dac.c ****   }
ARM GAS  /tmp/ccLdejbV.s 			page 24


 572              		.loc 1 647 5 view .LVU166
 647:Drivers/STM32F1xx_HAL_Driver/Src/stm32f1xx_hal_dac.c ****   }
 573              		.loc 1 647 14 is_stmt 0 view .LVU167
 574 00b8 E068     		ldr	r0, [r4, #12]
 575 00ba FFF7FEFF 		bl	HAL_DMA_Start_IT
 576              	.LVL42:
 647:Drivers/STM32F1xx_HAL_Driver/Src/stm32f1xx_hal_dac.c ****   }
 577              		.loc 1 647 14 view .LVU168
 578 00be C6E7     		b	.L40
 579              	.L41:
 661:Drivers/STM32F1xx_HAL_Driver/Src/stm32f1xx_hal_dac.c ****   }
 580              		.loc 1 661 5 is_stmt 1 view .LVU169
 661:Drivers/STM32F1xx_HAL_Driver/Src/stm32f1xx_hal_dac.c ****   }
 581              		.loc 1 661 21 is_stmt 0 view .LVU170
 582 00c0 2369     		ldr	r3, [r4, #16]
 583 00c2 43F00403 		orr	r3, r3, #4
 584 00c6 2361     		str	r3, [r4, #16]
 585 00c8 CEE7     		b	.L32
 586              	.LVL43:
 587              	.L42:
 553:Drivers/STM32F1xx_HAL_Driver/Src/stm32f1xx_hal_dac.c **** 
 588              		.loc 1 553 3 view .LVU171
 589 00ca 0220     		movs	r0, #2
 590 00cc CCE7     		b	.L32
 591              	.L49:
 592 00ce 00BF     		.align	2
 593              	.L48:
 594 00d0 00000000 		.word	DAC_DMAConvCpltCh1
 595 00d4 00000000 		.word	DAC_DMAHalfConvCpltCh1
 596 00d8 00000000 		.word	DAC_DMAErrorCh1
 597 00dc 00000000 		.word	DAC_DMAConvCpltCh2
 598 00e0 00000000 		.word	DAC_DMAHalfConvCpltCh2
 599 00e4 00000000 		.word	DAC_DMAErrorCh2
 600              		.cfi_endproc
 601              	.LFE71:
 603              		.section	.text.HAL_DAC_Stop_DMA,"ax",%progbits
 604              		.align	1
 605              		.global	HAL_DAC_Stop_DMA
 606              		.syntax unified
 607              		.thumb
 608              		.thumb_func
 609              		.fpu softvfp
 611              	HAL_DAC_Stop_DMA:
 612              	.LVL44:
 613              	.LFB72:
 667:Drivers/STM32F1xx_HAL_Driver/Src/stm32f1xx_hal_dac.c **** 
 668:Drivers/STM32F1xx_HAL_Driver/Src/stm32f1xx_hal_dac.c **** /**
 669:Drivers/STM32F1xx_HAL_Driver/Src/stm32f1xx_hal_dac.c ****   * @brief  Disables DAC and stop conversion of channel.
 670:Drivers/STM32F1xx_HAL_Driver/Src/stm32f1xx_hal_dac.c ****   * @param  hdac pointer to a DAC_HandleTypeDef structure that contains
 671:Drivers/STM32F1xx_HAL_Driver/Src/stm32f1xx_hal_dac.c ****   *         the configuration information for the specified DAC.
 672:Drivers/STM32F1xx_HAL_Driver/Src/stm32f1xx_hal_dac.c ****   * @param  Channel The selected DAC channel.
 673:Drivers/STM32F1xx_HAL_Driver/Src/stm32f1xx_hal_dac.c ****   *          This parameter can be one of the following values:
 674:Drivers/STM32F1xx_HAL_Driver/Src/stm32f1xx_hal_dac.c ****   *            @arg DAC_CHANNEL_1: DAC Channel1 selected
 675:Drivers/STM32F1xx_HAL_Driver/Src/stm32f1xx_hal_dac.c ****   *            @arg DAC_CHANNEL_2: DAC Channel2 selected
 676:Drivers/STM32F1xx_HAL_Driver/Src/stm32f1xx_hal_dac.c ****   * @retval HAL status
 677:Drivers/STM32F1xx_HAL_Driver/Src/stm32f1xx_hal_dac.c ****   */
 678:Drivers/STM32F1xx_HAL_Driver/Src/stm32f1xx_hal_dac.c **** HAL_StatusTypeDef HAL_DAC_Stop_DMA(DAC_HandleTypeDef *hdac, uint32_t Channel)
ARM GAS  /tmp/ccLdejbV.s 			page 25


 679:Drivers/STM32F1xx_HAL_Driver/Src/stm32f1xx_hal_dac.c **** {
 614              		.loc 1 679 1 is_stmt 1 view -0
 615              		.cfi_startproc
 616              		@ args = 0, pretend = 0, frame = 0
 617              		@ frame_needed = 0, uses_anonymous_args = 0
 618              		.loc 1 679 1 is_stmt 0 view .LVU173
 619 0000 10B5     		push	{r4, lr}
 620              	.LCFI11:
 621              		.cfi_def_cfa_offset 8
 622              		.cfi_offset 4, -8
 623              		.cfi_offset 14, -4
 624 0002 0446     		mov	r4, r0
 680:Drivers/STM32F1xx_HAL_Driver/Src/stm32f1xx_hal_dac.c ****   /* Check the parameters */
 681:Drivers/STM32F1xx_HAL_Driver/Src/stm32f1xx_hal_dac.c ****   assert_param(IS_DAC_CHANNEL(Channel));
 625              		.loc 1 681 3 is_stmt 1 view .LVU174
 682:Drivers/STM32F1xx_HAL_Driver/Src/stm32f1xx_hal_dac.c **** 
 683:Drivers/STM32F1xx_HAL_Driver/Src/stm32f1xx_hal_dac.c ****   /* Disable the selected DAC channel DMA request */
 684:Drivers/STM32F1xx_HAL_Driver/Src/stm32f1xx_hal_dac.c ****   hdac->Instance->CR &= ~(DAC_CR_DMAEN1 << (Channel & 0x10UL));
 626              		.loc 1 684 3 view .LVU175
 627              		.loc 1 684 7 is_stmt 0 view .LVU176
 628 0004 0368     		ldr	r3, [r0]
 629              		.loc 1 684 22 view .LVU177
 630 0006 1868     		ldr	r0, [r3]
 631              	.LVL45:
 632              		.loc 1 684 53 view .LVU178
 633 0008 01F0100E 		and	lr, r1, #16
 634              		.loc 1 684 41 view .LVU179
 635 000c 4FF4805C 		mov	ip, #4096
 636 0010 0CFA0EFC 		lsl	ip, ip, lr
 637              		.loc 1 684 22 view .LVU180
 638 0014 20EA0C00 		bic	r0, r0, ip
 639 0018 1860     		str	r0, [r3]
 685:Drivers/STM32F1xx_HAL_Driver/Src/stm32f1xx_hal_dac.c **** 
 686:Drivers/STM32F1xx_HAL_Driver/Src/stm32f1xx_hal_dac.c ****   /* Disable the Peripheral */
 687:Drivers/STM32F1xx_HAL_Driver/Src/stm32f1xx_hal_dac.c ****   __HAL_DAC_DISABLE(hdac, Channel);
 640              		.loc 1 687 3 is_stmt 1 view .LVU181
 641 001a 2068     		ldr	r0, [r4]
 642 001c 0368     		ldr	r3, [r0]
 643 001e 0122     		movs	r2, #1
 644 0020 02FA0EF2 		lsl	r2, r2, lr
 645 0024 23EA0203 		bic	r3, r3, r2
 646 0028 0360     		str	r3, [r0]
 688:Drivers/STM32F1xx_HAL_Driver/Src/stm32f1xx_hal_dac.c **** 
 689:Drivers/STM32F1xx_HAL_Driver/Src/stm32f1xx_hal_dac.c ****   /* Disable the DMA Stream */
 690:Drivers/STM32F1xx_HAL_Driver/Src/stm32f1xx_hal_dac.c **** 
 691:Drivers/STM32F1xx_HAL_Driver/Src/stm32f1xx_hal_dac.c ****   /* Channel1 is used */
 692:Drivers/STM32F1xx_HAL_Driver/Src/stm32f1xx_hal_dac.c ****   if (Channel == DAC_CHANNEL_1)
 647              		.loc 1 692 3 view .LVU182
 648              		.loc 1 692 6 is_stmt 0 view .LVU183
 649 002a 31B9     		cbnz	r1, .L51
 693:Drivers/STM32F1xx_HAL_Driver/Src/stm32f1xx_hal_dac.c ****   {
 694:Drivers/STM32F1xx_HAL_Driver/Src/stm32f1xx_hal_dac.c ****     /* Disable the DMA Stream */
 695:Drivers/STM32F1xx_HAL_Driver/Src/stm32f1xx_hal_dac.c ****     (void)HAL_DMA_Abort(hdac->DMA_Handle1);
 650              		.loc 1 695 5 is_stmt 1 view .LVU184
 651              		.loc 1 695 11 is_stmt 0 view .LVU185
 652 002c A068     		ldr	r0, [r4, #8]
 653 002e FFF7FEFF 		bl	HAL_DMA_Abort
ARM GAS  /tmp/ccLdejbV.s 			page 26


 654              	.LVL46:
 655              	.L52:
 696:Drivers/STM32F1xx_HAL_Driver/Src/stm32f1xx_hal_dac.c **** #if defined(DAC_CR_DMAUDRIE1)
 697:Drivers/STM32F1xx_HAL_Driver/Src/stm32f1xx_hal_dac.c ****     /* Disable the DAC DMA underrun interrupt */
 698:Drivers/STM32F1xx_HAL_Driver/Src/stm32f1xx_hal_dac.c ****     __HAL_DAC_DISABLE_IT(hdac, DAC_IT_DMAUDR1);
 699:Drivers/STM32F1xx_HAL_Driver/Src/stm32f1xx_hal_dac.c **** #endif /* DAC_CR_DMAUDRIE1 */
 700:Drivers/STM32F1xx_HAL_Driver/Src/stm32f1xx_hal_dac.c ****   }
 701:Drivers/STM32F1xx_HAL_Driver/Src/stm32f1xx_hal_dac.c **** 
 702:Drivers/STM32F1xx_HAL_Driver/Src/stm32f1xx_hal_dac.c ****   else /* Channel2 is used for */
 703:Drivers/STM32F1xx_HAL_Driver/Src/stm32f1xx_hal_dac.c ****   {
 704:Drivers/STM32F1xx_HAL_Driver/Src/stm32f1xx_hal_dac.c ****     /* Disable the DMA Stream */
 705:Drivers/STM32F1xx_HAL_Driver/Src/stm32f1xx_hal_dac.c ****     (void)HAL_DMA_Abort(hdac->DMA_Handle2);
 706:Drivers/STM32F1xx_HAL_Driver/Src/stm32f1xx_hal_dac.c **** #if defined(DAC_CR_DMAUDRIE2)
 707:Drivers/STM32F1xx_HAL_Driver/Src/stm32f1xx_hal_dac.c ****     /* Disable the DAC DMA underrun interrupt */
 708:Drivers/STM32F1xx_HAL_Driver/Src/stm32f1xx_hal_dac.c ****     __HAL_DAC_DISABLE_IT(hdac, DAC_IT_DMAUDR2);
 709:Drivers/STM32F1xx_HAL_Driver/Src/stm32f1xx_hal_dac.c **** #endif /* DAC_CR_DMAUDRIE2 */
 710:Drivers/STM32F1xx_HAL_Driver/Src/stm32f1xx_hal_dac.c ****   }
 711:Drivers/STM32F1xx_HAL_Driver/Src/stm32f1xx_hal_dac.c **** 
 712:Drivers/STM32F1xx_HAL_Driver/Src/stm32f1xx_hal_dac.c **** 
 713:Drivers/STM32F1xx_HAL_Driver/Src/stm32f1xx_hal_dac.c ****   /* Change DAC state */
 714:Drivers/STM32F1xx_HAL_Driver/Src/stm32f1xx_hal_dac.c ****   hdac->State = HAL_DAC_STATE_READY;
 656              		.loc 1 714 3 is_stmt 1 view .LVU186
 657              		.loc 1 714 15 is_stmt 0 view .LVU187
 658 0032 0123     		movs	r3, #1
 659 0034 2371     		strb	r3, [r4, #4]
 715:Drivers/STM32F1xx_HAL_Driver/Src/stm32f1xx_hal_dac.c **** 
 716:Drivers/STM32F1xx_HAL_Driver/Src/stm32f1xx_hal_dac.c ****   /* Return function status */
 717:Drivers/STM32F1xx_HAL_Driver/Src/stm32f1xx_hal_dac.c ****   return HAL_OK;
 660              		.loc 1 717 3 is_stmt 1 view .LVU188
 718:Drivers/STM32F1xx_HAL_Driver/Src/stm32f1xx_hal_dac.c **** }
 661              		.loc 1 718 1 is_stmt 0 view .LVU189
 662 0036 0020     		movs	r0, #0
 663 0038 10BD     		pop	{r4, pc}
 664              	.LVL47:
 665              	.L51:
 705:Drivers/STM32F1xx_HAL_Driver/Src/stm32f1xx_hal_dac.c **** #if defined(DAC_CR_DMAUDRIE2)
 666              		.loc 1 705 5 is_stmt 1 view .LVU190
 705:Drivers/STM32F1xx_HAL_Driver/Src/stm32f1xx_hal_dac.c **** #if defined(DAC_CR_DMAUDRIE2)
 667              		.loc 1 705 11 is_stmt 0 view .LVU191
 668 003a E068     		ldr	r0, [r4, #12]
 669 003c FFF7FEFF 		bl	HAL_DMA_Abort
 670              	.LVL48:
 705:Drivers/STM32F1xx_HAL_Driver/Src/stm32f1xx_hal_dac.c **** #if defined(DAC_CR_DMAUDRIE2)
 671              		.loc 1 705 11 view .LVU192
 672 0040 F7E7     		b	.L52
 673              		.cfi_endproc
 674              	.LFE72:
 676              		.section	.text.HAL_DAC_IRQHandler,"ax",%progbits
 677              		.align	1
 678              		.global	HAL_DAC_IRQHandler
 679              		.syntax unified
 680              		.thumb
 681              		.thumb_func
 682              		.fpu softvfp
 684              	HAL_DAC_IRQHandler:
 685              	.LVL49:
 686              	.LFB73:
ARM GAS  /tmp/ccLdejbV.s 			page 27


 719:Drivers/STM32F1xx_HAL_Driver/Src/stm32f1xx_hal_dac.c **** 
 720:Drivers/STM32F1xx_HAL_Driver/Src/stm32f1xx_hal_dac.c **** /**
 721:Drivers/STM32F1xx_HAL_Driver/Src/stm32f1xx_hal_dac.c ****   * @brief  Handles DAC interrupt request
 722:Drivers/STM32F1xx_HAL_Driver/Src/stm32f1xx_hal_dac.c ****   *         This function uses the interruption of DMA
 723:Drivers/STM32F1xx_HAL_Driver/Src/stm32f1xx_hal_dac.c ****   *         underrun.
 724:Drivers/STM32F1xx_HAL_Driver/Src/stm32f1xx_hal_dac.c ****   * @param  hdac pointer to a DAC_HandleTypeDef structure that contains
 725:Drivers/STM32F1xx_HAL_Driver/Src/stm32f1xx_hal_dac.c ****   *         the configuration information for the specified DAC.
 726:Drivers/STM32F1xx_HAL_Driver/Src/stm32f1xx_hal_dac.c ****   * @retval None
 727:Drivers/STM32F1xx_HAL_Driver/Src/stm32f1xx_hal_dac.c ****   */
 728:Drivers/STM32F1xx_HAL_Driver/Src/stm32f1xx_hal_dac.c **** void HAL_DAC_IRQHandler(DAC_HandleTypeDef *hdac)
 729:Drivers/STM32F1xx_HAL_Driver/Src/stm32f1xx_hal_dac.c **** {
 687              		.loc 1 729 1 is_stmt 1 view -0
 688              		.cfi_startproc
 689              		@ args = 0, pretend = 0, frame = 0
 690              		@ frame_needed = 0, uses_anonymous_args = 0
 691              		@ link register save eliminated.
 730:Drivers/STM32F1xx_HAL_Driver/Src/stm32f1xx_hal_dac.c **** #if !defined(DAC_SR_DMAUDR1) && !defined(DAC_SR_DMAUDR2)
 731:Drivers/STM32F1xx_HAL_Driver/Src/stm32f1xx_hal_dac.c ****   UNUSED(hdac);
 692              		.loc 1 731 3 view .LVU194
 732:Drivers/STM32F1xx_HAL_Driver/Src/stm32f1xx_hal_dac.c **** #endif
 733:Drivers/STM32F1xx_HAL_Driver/Src/stm32f1xx_hal_dac.c **** 
 734:Drivers/STM32F1xx_HAL_Driver/Src/stm32f1xx_hal_dac.c **** #if defined(DAC_SR_DMAUDR1)
 735:Drivers/STM32F1xx_HAL_Driver/Src/stm32f1xx_hal_dac.c ****   if (__HAL_DAC_GET_IT_SOURCE(hdac, DAC_IT_DMAUDR1))
 736:Drivers/STM32F1xx_HAL_Driver/Src/stm32f1xx_hal_dac.c ****   {
 737:Drivers/STM32F1xx_HAL_Driver/Src/stm32f1xx_hal_dac.c ****     /* Check underrun flag of DAC channel 1 */
 738:Drivers/STM32F1xx_HAL_Driver/Src/stm32f1xx_hal_dac.c ****     if (__HAL_DAC_GET_FLAG(hdac, DAC_FLAG_DMAUDR1))
 739:Drivers/STM32F1xx_HAL_Driver/Src/stm32f1xx_hal_dac.c ****     {
 740:Drivers/STM32F1xx_HAL_Driver/Src/stm32f1xx_hal_dac.c ****       /* Change DAC state to error state */
 741:Drivers/STM32F1xx_HAL_Driver/Src/stm32f1xx_hal_dac.c ****       hdac->State = HAL_DAC_STATE_ERROR;
 742:Drivers/STM32F1xx_HAL_Driver/Src/stm32f1xx_hal_dac.c **** 
 743:Drivers/STM32F1xx_HAL_Driver/Src/stm32f1xx_hal_dac.c ****       /* Set DAC error code to channel1 DMA underrun error */
 744:Drivers/STM32F1xx_HAL_Driver/Src/stm32f1xx_hal_dac.c ****       SET_BIT(hdac->ErrorCode, HAL_DAC_ERROR_DMAUNDERRUNCH1);
 745:Drivers/STM32F1xx_HAL_Driver/Src/stm32f1xx_hal_dac.c **** 
 746:Drivers/STM32F1xx_HAL_Driver/Src/stm32f1xx_hal_dac.c ****       /* Clear the underrun flag */
 747:Drivers/STM32F1xx_HAL_Driver/Src/stm32f1xx_hal_dac.c ****       __HAL_DAC_CLEAR_FLAG(hdac, DAC_FLAG_DMAUDR1);
 748:Drivers/STM32F1xx_HAL_Driver/Src/stm32f1xx_hal_dac.c **** 
 749:Drivers/STM32F1xx_HAL_Driver/Src/stm32f1xx_hal_dac.c ****       /* Disable the selected DAC channel1 DMA request */
 750:Drivers/STM32F1xx_HAL_Driver/Src/stm32f1xx_hal_dac.c ****       CLEAR_BIT(hdac->Instance->CR, DAC_CR_DMAEN1);
 751:Drivers/STM32F1xx_HAL_Driver/Src/stm32f1xx_hal_dac.c **** 
 752:Drivers/STM32F1xx_HAL_Driver/Src/stm32f1xx_hal_dac.c ****       /* Error callback */
 753:Drivers/STM32F1xx_HAL_Driver/Src/stm32f1xx_hal_dac.c **** #if (USE_HAL_DAC_REGISTER_CALLBACKS == 1)
 754:Drivers/STM32F1xx_HAL_Driver/Src/stm32f1xx_hal_dac.c ****       hdac->DMAUnderrunCallbackCh1(hdac);
 755:Drivers/STM32F1xx_HAL_Driver/Src/stm32f1xx_hal_dac.c **** #else
 756:Drivers/STM32F1xx_HAL_Driver/Src/stm32f1xx_hal_dac.c ****       HAL_DAC_DMAUnderrunCallbackCh1(hdac);
 757:Drivers/STM32F1xx_HAL_Driver/Src/stm32f1xx_hal_dac.c **** #endif /* USE_HAL_DAC_REGISTER_CALLBACKS */
 758:Drivers/STM32F1xx_HAL_Driver/Src/stm32f1xx_hal_dac.c ****     }
 759:Drivers/STM32F1xx_HAL_Driver/Src/stm32f1xx_hal_dac.c ****   }
 760:Drivers/STM32F1xx_HAL_Driver/Src/stm32f1xx_hal_dac.c **** #endif /* DAC_SR_DMAUDR1 */
 761:Drivers/STM32F1xx_HAL_Driver/Src/stm32f1xx_hal_dac.c **** 
 762:Drivers/STM32F1xx_HAL_Driver/Src/stm32f1xx_hal_dac.c **** #if defined(DAC_SR_DMAUDR2)
 763:Drivers/STM32F1xx_HAL_Driver/Src/stm32f1xx_hal_dac.c ****   if (__HAL_DAC_GET_IT_SOURCE(hdac, DAC_IT_DMAUDR2))
 764:Drivers/STM32F1xx_HAL_Driver/Src/stm32f1xx_hal_dac.c ****   {
 765:Drivers/STM32F1xx_HAL_Driver/Src/stm32f1xx_hal_dac.c ****     /* Check underrun flag of DAC channel 2 */
 766:Drivers/STM32F1xx_HAL_Driver/Src/stm32f1xx_hal_dac.c ****     if (__HAL_DAC_GET_FLAG(hdac, DAC_FLAG_DMAUDR2))
 767:Drivers/STM32F1xx_HAL_Driver/Src/stm32f1xx_hal_dac.c ****     {
 768:Drivers/STM32F1xx_HAL_Driver/Src/stm32f1xx_hal_dac.c ****       /* Change DAC state to error state */
 769:Drivers/STM32F1xx_HAL_Driver/Src/stm32f1xx_hal_dac.c ****       hdac->State = HAL_DAC_STATE_ERROR;
ARM GAS  /tmp/ccLdejbV.s 			page 28


 770:Drivers/STM32F1xx_HAL_Driver/Src/stm32f1xx_hal_dac.c **** 
 771:Drivers/STM32F1xx_HAL_Driver/Src/stm32f1xx_hal_dac.c ****       /* Set DAC error code to channel2 DMA underrun error */
 772:Drivers/STM32F1xx_HAL_Driver/Src/stm32f1xx_hal_dac.c ****       SET_BIT(hdac->ErrorCode, HAL_DAC_ERROR_DMAUNDERRUNCH2);
 773:Drivers/STM32F1xx_HAL_Driver/Src/stm32f1xx_hal_dac.c **** 
 774:Drivers/STM32F1xx_HAL_Driver/Src/stm32f1xx_hal_dac.c ****       /* Clear the underrun flag */
 775:Drivers/STM32F1xx_HAL_Driver/Src/stm32f1xx_hal_dac.c ****       __HAL_DAC_CLEAR_FLAG(hdac, DAC_FLAG_DMAUDR2);
 776:Drivers/STM32F1xx_HAL_Driver/Src/stm32f1xx_hal_dac.c **** 
 777:Drivers/STM32F1xx_HAL_Driver/Src/stm32f1xx_hal_dac.c ****       /* Disable the selected DAC channel2 DMA request */
 778:Drivers/STM32F1xx_HAL_Driver/Src/stm32f1xx_hal_dac.c ****       CLEAR_BIT(hdac->Instance->CR, DAC_CR_DMAEN2);
 779:Drivers/STM32F1xx_HAL_Driver/Src/stm32f1xx_hal_dac.c **** 
 780:Drivers/STM32F1xx_HAL_Driver/Src/stm32f1xx_hal_dac.c ****       /* Error callback */
 781:Drivers/STM32F1xx_HAL_Driver/Src/stm32f1xx_hal_dac.c **** #if (USE_HAL_DAC_REGISTER_CALLBACKS == 1)
 782:Drivers/STM32F1xx_HAL_Driver/Src/stm32f1xx_hal_dac.c ****       hdac->DMAUnderrunCallbackCh2(hdac);
 783:Drivers/STM32F1xx_HAL_Driver/Src/stm32f1xx_hal_dac.c **** #else
 784:Drivers/STM32F1xx_HAL_Driver/Src/stm32f1xx_hal_dac.c ****       HAL_DACEx_DMAUnderrunCallbackCh2(hdac);
 785:Drivers/STM32F1xx_HAL_Driver/Src/stm32f1xx_hal_dac.c **** #endif /* USE_HAL_DAC_REGISTER_CALLBACKS */
 786:Drivers/STM32F1xx_HAL_Driver/Src/stm32f1xx_hal_dac.c ****     }
 787:Drivers/STM32F1xx_HAL_Driver/Src/stm32f1xx_hal_dac.c ****   }
 788:Drivers/STM32F1xx_HAL_Driver/Src/stm32f1xx_hal_dac.c **** #endif /* DAC_SR_DMAUDR2 */
 789:Drivers/STM32F1xx_HAL_Driver/Src/stm32f1xx_hal_dac.c **** }
 693              		.loc 1 789 1 is_stmt 0 view .LVU195
 694 0000 7047     		bx	lr
 695              		.cfi_endproc
 696              	.LFE73:
 698              		.section	.text.HAL_DAC_SetValue,"ax",%progbits
 699              		.align	1
 700              		.global	HAL_DAC_SetValue
 701              		.syntax unified
 702              		.thumb
 703              		.thumb_func
 704              		.fpu softvfp
 706              	HAL_DAC_SetValue:
 707              	.LVL50:
 708              	.LFB74:
 790:Drivers/STM32F1xx_HAL_Driver/Src/stm32f1xx_hal_dac.c **** 
 791:Drivers/STM32F1xx_HAL_Driver/Src/stm32f1xx_hal_dac.c **** /**
 792:Drivers/STM32F1xx_HAL_Driver/Src/stm32f1xx_hal_dac.c ****   * @brief  Set the specified data holding register value for DAC channel.
 793:Drivers/STM32F1xx_HAL_Driver/Src/stm32f1xx_hal_dac.c ****   * @param  hdac pointer to a DAC_HandleTypeDef structure that contains
 794:Drivers/STM32F1xx_HAL_Driver/Src/stm32f1xx_hal_dac.c ****   *         the configuration information for the specified DAC.
 795:Drivers/STM32F1xx_HAL_Driver/Src/stm32f1xx_hal_dac.c ****   * @param  Channel The selected DAC channel.
 796:Drivers/STM32F1xx_HAL_Driver/Src/stm32f1xx_hal_dac.c ****   *          This parameter can be one of the following values:
 797:Drivers/STM32F1xx_HAL_Driver/Src/stm32f1xx_hal_dac.c ****   *            @arg DAC_CHANNEL_1: DAC Channel1 selected
 798:Drivers/STM32F1xx_HAL_Driver/Src/stm32f1xx_hal_dac.c ****   *            @arg DAC_CHANNEL_2: DAC Channel2 selected
 799:Drivers/STM32F1xx_HAL_Driver/Src/stm32f1xx_hal_dac.c ****   * @param  Alignment Specifies the data alignment.
 800:Drivers/STM32F1xx_HAL_Driver/Src/stm32f1xx_hal_dac.c ****   *          This parameter can be one of the following values:
 801:Drivers/STM32F1xx_HAL_Driver/Src/stm32f1xx_hal_dac.c ****   *            @arg DAC_ALIGN_8B_R: 8bit right data alignment selected
 802:Drivers/STM32F1xx_HAL_Driver/Src/stm32f1xx_hal_dac.c ****   *            @arg DAC_ALIGN_12B_L: 12bit left data alignment selected
 803:Drivers/STM32F1xx_HAL_Driver/Src/stm32f1xx_hal_dac.c ****   *            @arg DAC_ALIGN_12B_R: 12bit right data alignment selected
 804:Drivers/STM32F1xx_HAL_Driver/Src/stm32f1xx_hal_dac.c ****   * @param  Data Data to be loaded in the selected data holding register.
 805:Drivers/STM32F1xx_HAL_Driver/Src/stm32f1xx_hal_dac.c ****   * @retval HAL status
 806:Drivers/STM32F1xx_HAL_Driver/Src/stm32f1xx_hal_dac.c ****   */
 807:Drivers/STM32F1xx_HAL_Driver/Src/stm32f1xx_hal_dac.c **** HAL_StatusTypeDef HAL_DAC_SetValue(DAC_HandleTypeDef *hdac, uint32_t Channel, uint32_t Alignment, u
 808:Drivers/STM32F1xx_HAL_Driver/Src/stm32f1xx_hal_dac.c **** {
 709              		.loc 1 808 1 is_stmt 1 view -0
 710              		.cfi_startproc
 711              		@ args = 0, pretend = 0, frame = 8
 712              		@ frame_needed = 0, uses_anonymous_args = 0
ARM GAS  /tmp/ccLdejbV.s 			page 29


 713              		@ link register save eliminated.
 714              		.loc 1 808 1 is_stmt 0 view .LVU197
 715 0000 10B4     		push	{r4}
 716              	.LCFI12:
 717              		.cfi_def_cfa_offset 4
 718              		.cfi_offset 4, -4
 719 0002 83B0     		sub	sp, sp, #12
 720              	.LCFI13:
 721              		.cfi_def_cfa_offset 16
 809:Drivers/STM32F1xx_HAL_Driver/Src/stm32f1xx_hal_dac.c ****   __IO uint32_t tmp = 0UL;
 722              		.loc 1 809 3 is_stmt 1 view .LVU198
 723              		.loc 1 809 17 is_stmt 0 view .LVU199
 724 0004 0024     		movs	r4, #0
 725 0006 0194     		str	r4, [sp, #4]
 810:Drivers/STM32F1xx_HAL_Driver/Src/stm32f1xx_hal_dac.c **** 
 811:Drivers/STM32F1xx_HAL_Driver/Src/stm32f1xx_hal_dac.c ****   /* Check the parameters */
 812:Drivers/STM32F1xx_HAL_Driver/Src/stm32f1xx_hal_dac.c ****   assert_param(IS_DAC_CHANNEL(Channel));
 726              		.loc 1 812 3 is_stmt 1 view .LVU200
 813:Drivers/STM32F1xx_HAL_Driver/Src/stm32f1xx_hal_dac.c ****   assert_param(IS_DAC_ALIGN(Alignment));
 727              		.loc 1 813 3 view .LVU201
 814:Drivers/STM32F1xx_HAL_Driver/Src/stm32f1xx_hal_dac.c ****   assert_param(IS_DAC_DATA(Data));
 728              		.loc 1 814 3 view .LVU202
 815:Drivers/STM32F1xx_HAL_Driver/Src/stm32f1xx_hal_dac.c **** 
 816:Drivers/STM32F1xx_HAL_Driver/Src/stm32f1xx_hal_dac.c ****   tmp = (uint32_t)hdac->Instance;
 729              		.loc 1 816 3 view .LVU203
 730              		.loc 1 816 23 is_stmt 0 view .LVU204
 731 0008 0068     		ldr	r0, [r0]
 732              	.LVL51:
 733              		.loc 1 816 7 view .LVU205
 734 000a 0190     		str	r0, [sp, #4]
 817:Drivers/STM32F1xx_HAL_Driver/Src/stm32f1xx_hal_dac.c ****   if (Channel == DAC_CHANNEL_1)
 735              		.loc 1 817 3 is_stmt 1 view .LVU206
 736              		.loc 1 817 6 is_stmt 0 view .LVU207
 737 000c 49B9     		cbnz	r1, .L56
 818:Drivers/STM32F1xx_HAL_Driver/Src/stm32f1xx_hal_dac.c ****   {
 819:Drivers/STM32F1xx_HAL_Driver/Src/stm32f1xx_hal_dac.c ****     tmp += DAC_DHR12R1_ALIGNMENT(Alignment);
 738              		.loc 1 819 5 is_stmt 1 view .LVU208
 739              		.loc 1 819 9 is_stmt 0 view .LVU209
 740 000e 0199     		ldr	r1, [sp, #4]
 741              	.LVL52:
 742              		.loc 1 819 9 view .LVU210
 743 0010 0A44     		add	r2, r2, r1
 744              	.LVL53:
 745              		.loc 1 819 9 view .LVU211
 746 0012 0832     		adds	r2, r2, #8
 747 0014 0192     		str	r2, [sp, #4]
 748              	.L57:
 820:Drivers/STM32F1xx_HAL_Driver/Src/stm32f1xx_hal_dac.c ****   }
 821:Drivers/STM32F1xx_HAL_Driver/Src/stm32f1xx_hal_dac.c **** 
 822:Drivers/STM32F1xx_HAL_Driver/Src/stm32f1xx_hal_dac.c ****   else
 823:Drivers/STM32F1xx_HAL_Driver/Src/stm32f1xx_hal_dac.c ****   {
 824:Drivers/STM32F1xx_HAL_Driver/Src/stm32f1xx_hal_dac.c ****     tmp += DAC_DHR12R2_ALIGNMENT(Alignment);
 825:Drivers/STM32F1xx_HAL_Driver/Src/stm32f1xx_hal_dac.c ****   }
 826:Drivers/STM32F1xx_HAL_Driver/Src/stm32f1xx_hal_dac.c **** 
 827:Drivers/STM32F1xx_HAL_Driver/Src/stm32f1xx_hal_dac.c **** 
 828:Drivers/STM32F1xx_HAL_Driver/Src/stm32f1xx_hal_dac.c ****   /* Set the DAC channel selected data holding register */
 829:Drivers/STM32F1xx_HAL_Driver/Src/stm32f1xx_hal_dac.c ****   *(__IO uint32_t *) tmp = Data;
ARM GAS  /tmp/ccLdejbV.s 			page 30


 749              		.loc 1 829 3 is_stmt 1 view .LVU212
 750              		.loc 1 829 4 is_stmt 0 view .LVU213
 751 0016 019A     		ldr	r2, [sp, #4]
 752              		.loc 1 829 26 view .LVU214
 753 0018 1360     		str	r3, [r2]
 830:Drivers/STM32F1xx_HAL_Driver/Src/stm32f1xx_hal_dac.c **** 
 831:Drivers/STM32F1xx_HAL_Driver/Src/stm32f1xx_hal_dac.c ****   /* Return function status */
 832:Drivers/STM32F1xx_HAL_Driver/Src/stm32f1xx_hal_dac.c ****   return HAL_OK;
 754              		.loc 1 832 3 is_stmt 1 view .LVU215
 833:Drivers/STM32F1xx_HAL_Driver/Src/stm32f1xx_hal_dac.c **** }
 755              		.loc 1 833 1 is_stmt 0 view .LVU216
 756 001a 0020     		movs	r0, #0
 757 001c 03B0     		add	sp, sp, #12
 758              	.LCFI14:
 759              		.cfi_remember_state
 760              		.cfi_def_cfa_offset 4
 761              		@ sp needed
 762 001e 10BC     		pop	{r4}
 763              	.LCFI15:
 764              		.cfi_restore 4
 765              		.cfi_def_cfa_offset 0
 766 0020 7047     		bx	lr
 767              	.LVL54:
 768              	.L56:
 769              	.LCFI16:
 770              		.cfi_restore_state
 824:Drivers/STM32F1xx_HAL_Driver/Src/stm32f1xx_hal_dac.c ****   }
 771              		.loc 1 824 5 is_stmt 1 view .LVU217
 824:Drivers/STM32F1xx_HAL_Driver/Src/stm32f1xx_hal_dac.c ****   }
 772              		.loc 1 824 9 is_stmt 0 view .LVU218
 773 0022 0199     		ldr	r1, [sp, #4]
 774              	.LVL55:
 824:Drivers/STM32F1xx_HAL_Driver/Src/stm32f1xx_hal_dac.c ****   }
 775              		.loc 1 824 9 view .LVU219
 776 0024 0A44     		add	r2, r2, r1
 777              	.LVL56:
 824:Drivers/STM32F1xx_HAL_Driver/Src/stm32f1xx_hal_dac.c ****   }
 778              		.loc 1 824 9 view .LVU220
 779 0026 1432     		adds	r2, r2, #20
 780 0028 0192     		str	r2, [sp, #4]
 781 002a F4E7     		b	.L57
 782              		.cfi_endproc
 783              	.LFE74:
 785              		.section	.text.HAL_DAC_ConvCpltCallbackCh1,"ax",%progbits
 786              		.align	1
 787              		.weak	HAL_DAC_ConvCpltCallbackCh1
 788              		.syntax unified
 789              		.thumb
 790              		.thumb_func
 791              		.fpu softvfp
 793              	HAL_DAC_ConvCpltCallbackCh1:
 794              	.LVL57:
 795              	.LFB75:
 834:Drivers/STM32F1xx_HAL_Driver/Src/stm32f1xx_hal_dac.c **** 
 835:Drivers/STM32F1xx_HAL_Driver/Src/stm32f1xx_hal_dac.c **** /**
 836:Drivers/STM32F1xx_HAL_Driver/Src/stm32f1xx_hal_dac.c ****   * @brief  Conversion complete callback in non-blocking mode for Channel1
 837:Drivers/STM32F1xx_HAL_Driver/Src/stm32f1xx_hal_dac.c ****   * @param  hdac pointer to a DAC_HandleTypeDef structure that contains
ARM GAS  /tmp/ccLdejbV.s 			page 31


 838:Drivers/STM32F1xx_HAL_Driver/Src/stm32f1xx_hal_dac.c ****   *         the configuration information for the specified DAC.
 839:Drivers/STM32F1xx_HAL_Driver/Src/stm32f1xx_hal_dac.c ****   * @retval None
 840:Drivers/STM32F1xx_HAL_Driver/Src/stm32f1xx_hal_dac.c ****   */
 841:Drivers/STM32F1xx_HAL_Driver/Src/stm32f1xx_hal_dac.c **** __weak void HAL_DAC_ConvCpltCallbackCh1(DAC_HandleTypeDef *hdac)
 842:Drivers/STM32F1xx_HAL_Driver/Src/stm32f1xx_hal_dac.c **** {
 796              		.loc 1 842 1 is_stmt 1 view -0
 797              		.cfi_startproc
 798              		@ args = 0, pretend = 0, frame = 0
 799              		@ frame_needed = 0, uses_anonymous_args = 0
 800              		@ link register save eliminated.
 843:Drivers/STM32F1xx_HAL_Driver/Src/stm32f1xx_hal_dac.c ****   /* Prevent unused argument(s) compilation warning */
 844:Drivers/STM32F1xx_HAL_Driver/Src/stm32f1xx_hal_dac.c ****   UNUSED(hdac);
 801              		.loc 1 844 3 view .LVU222
 845:Drivers/STM32F1xx_HAL_Driver/Src/stm32f1xx_hal_dac.c **** 
 846:Drivers/STM32F1xx_HAL_Driver/Src/stm32f1xx_hal_dac.c ****   /* NOTE : This function should not be modified, when the callback is needed,
 847:Drivers/STM32F1xx_HAL_Driver/Src/stm32f1xx_hal_dac.c ****             the HAL_DAC_ConvCpltCallbackCh1 could be implemented in the user file
 848:Drivers/STM32F1xx_HAL_Driver/Src/stm32f1xx_hal_dac.c ****    */
 849:Drivers/STM32F1xx_HAL_Driver/Src/stm32f1xx_hal_dac.c **** }
 802              		.loc 1 849 1 is_stmt 0 view .LVU223
 803 0000 7047     		bx	lr
 804              		.cfi_endproc
 805              	.LFE75:
 807              		.section	.text.DAC_DMAConvCpltCh1,"ax",%progbits
 808              		.align	1
 809              		.global	DAC_DMAConvCpltCh1
 810              		.syntax unified
 811              		.thumb
 812              		.thumb_func
 813              		.fpu softvfp
 815              	DAC_DMAConvCpltCh1:
 816              	.LVL58:
 817              	.LFB83:
 850:Drivers/STM32F1xx_HAL_Driver/Src/stm32f1xx_hal_dac.c **** 
 851:Drivers/STM32F1xx_HAL_Driver/Src/stm32f1xx_hal_dac.c **** /**
 852:Drivers/STM32F1xx_HAL_Driver/Src/stm32f1xx_hal_dac.c ****   * @brief  Conversion half DMA transfer callback in non-blocking mode for Channel1
 853:Drivers/STM32F1xx_HAL_Driver/Src/stm32f1xx_hal_dac.c ****   * @param  hdac pointer to a DAC_HandleTypeDef structure that contains
 854:Drivers/STM32F1xx_HAL_Driver/Src/stm32f1xx_hal_dac.c ****   *         the configuration information for the specified DAC.
 855:Drivers/STM32F1xx_HAL_Driver/Src/stm32f1xx_hal_dac.c ****   * @retval None
 856:Drivers/STM32F1xx_HAL_Driver/Src/stm32f1xx_hal_dac.c ****   */
 857:Drivers/STM32F1xx_HAL_Driver/Src/stm32f1xx_hal_dac.c **** __weak void HAL_DAC_ConvHalfCpltCallbackCh1(DAC_HandleTypeDef *hdac)
 858:Drivers/STM32F1xx_HAL_Driver/Src/stm32f1xx_hal_dac.c **** {
 859:Drivers/STM32F1xx_HAL_Driver/Src/stm32f1xx_hal_dac.c ****   /* Prevent unused argument(s) compilation warning */
 860:Drivers/STM32F1xx_HAL_Driver/Src/stm32f1xx_hal_dac.c ****   UNUSED(hdac);
 861:Drivers/STM32F1xx_HAL_Driver/Src/stm32f1xx_hal_dac.c **** 
 862:Drivers/STM32F1xx_HAL_Driver/Src/stm32f1xx_hal_dac.c ****   /* NOTE : This function should not be modified, when the callback is needed,
 863:Drivers/STM32F1xx_HAL_Driver/Src/stm32f1xx_hal_dac.c ****             the HAL_DAC_ConvHalfCpltCallbackCh1 could be implemented in the user file
 864:Drivers/STM32F1xx_HAL_Driver/Src/stm32f1xx_hal_dac.c ****    */
 865:Drivers/STM32F1xx_HAL_Driver/Src/stm32f1xx_hal_dac.c **** }
 866:Drivers/STM32F1xx_HAL_Driver/Src/stm32f1xx_hal_dac.c **** 
 867:Drivers/STM32F1xx_HAL_Driver/Src/stm32f1xx_hal_dac.c **** /**
 868:Drivers/STM32F1xx_HAL_Driver/Src/stm32f1xx_hal_dac.c ****   * @brief  Error DAC callback for Channel1.
 869:Drivers/STM32F1xx_HAL_Driver/Src/stm32f1xx_hal_dac.c ****   * @param  hdac pointer to a DAC_HandleTypeDef structure that contains
 870:Drivers/STM32F1xx_HAL_Driver/Src/stm32f1xx_hal_dac.c ****   *         the configuration information for the specified DAC.
 871:Drivers/STM32F1xx_HAL_Driver/Src/stm32f1xx_hal_dac.c ****   * @retval None
 872:Drivers/STM32F1xx_HAL_Driver/Src/stm32f1xx_hal_dac.c ****   */
 873:Drivers/STM32F1xx_HAL_Driver/Src/stm32f1xx_hal_dac.c **** __weak void HAL_DAC_ErrorCallbackCh1(DAC_HandleTypeDef *hdac)
 874:Drivers/STM32F1xx_HAL_Driver/Src/stm32f1xx_hal_dac.c **** {
ARM GAS  /tmp/ccLdejbV.s 			page 32


 875:Drivers/STM32F1xx_HAL_Driver/Src/stm32f1xx_hal_dac.c ****   /* Prevent unused argument(s) compilation warning */
 876:Drivers/STM32F1xx_HAL_Driver/Src/stm32f1xx_hal_dac.c ****   UNUSED(hdac);
 877:Drivers/STM32F1xx_HAL_Driver/Src/stm32f1xx_hal_dac.c **** 
 878:Drivers/STM32F1xx_HAL_Driver/Src/stm32f1xx_hal_dac.c ****   /* NOTE : This function should not be modified, when the callback is needed,
 879:Drivers/STM32F1xx_HAL_Driver/Src/stm32f1xx_hal_dac.c ****             the HAL_DAC_ErrorCallbackCh1 could be implemented in the user file
 880:Drivers/STM32F1xx_HAL_Driver/Src/stm32f1xx_hal_dac.c ****    */
 881:Drivers/STM32F1xx_HAL_Driver/Src/stm32f1xx_hal_dac.c **** }
 882:Drivers/STM32F1xx_HAL_Driver/Src/stm32f1xx_hal_dac.c **** 
 883:Drivers/STM32F1xx_HAL_Driver/Src/stm32f1xx_hal_dac.c **** /**
 884:Drivers/STM32F1xx_HAL_Driver/Src/stm32f1xx_hal_dac.c ****   * @brief  DMA underrun DAC callback for channel1.
 885:Drivers/STM32F1xx_HAL_Driver/Src/stm32f1xx_hal_dac.c ****   * @param  hdac pointer to a DAC_HandleTypeDef structure that contains
 886:Drivers/STM32F1xx_HAL_Driver/Src/stm32f1xx_hal_dac.c ****   *         the configuration information for the specified DAC.
 887:Drivers/STM32F1xx_HAL_Driver/Src/stm32f1xx_hal_dac.c ****   * @retval None
 888:Drivers/STM32F1xx_HAL_Driver/Src/stm32f1xx_hal_dac.c ****   */
 889:Drivers/STM32F1xx_HAL_Driver/Src/stm32f1xx_hal_dac.c **** __weak void HAL_DAC_DMAUnderrunCallbackCh1(DAC_HandleTypeDef *hdac)
 890:Drivers/STM32F1xx_HAL_Driver/Src/stm32f1xx_hal_dac.c **** {
 891:Drivers/STM32F1xx_HAL_Driver/Src/stm32f1xx_hal_dac.c ****   /* Prevent unused argument(s) compilation warning */
 892:Drivers/STM32F1xx_HAL_Driver/Src/stm32f1xx_hal_dac.c ****   UNUSED(hdac);
 893:Drivers/STM32F1xx_HAL_Driver/Src/stm32f1xx_hal_dac.c **** 
 894:Drivers/STM32F1xx_HAL_Driver/Src/stm32f1xx_hal_dac.c ****   /* NOTE : This function should not be modified, when the callback is needed,
 895:Drivers/STM32F1xx_HAL_Driver/Src/stm32f1xx_hal_dac.c ****             the HAL_DAC_DMAUnderrunCallbackCh1 could be implemented in the user file
 896:Drivers/STM32F1xx_HAL_Driver/Src/stm32f1xx_hal_dac.c ****    */
 897:Drivers/STM32F1xx_HAL_Driver/Src/stm32f1xx_hal_dac.c **** }
 898:Drivers/STM32F1xx_HAL_Driver/Src/stm32f1xx_hal_dac.c **** 
 899:Drivers/STM32F1xx_HAL_Driver/Src/stm32f1xx_hal_dac.c **** /**
 900:Drivers/STM32F1xx_HAL_Driver/Src/stm32f1xx_hal_dac.c ****   * @}
 901:Drivers/STM32F1xx_HAL_Driver/Src/stm32f1xx_hal_dac.c ****   */
 902:Drivers/STM32F1xx_HAL_Driver/Src/stm32f1xx_hal_dac.c **** 
 903:Drivers/STM32F1xx_HAL_Driver/Src/stm32f1xx_hal_dac.c **** /** @defgroup DAC_Exported_Functions_Group3 Peripheral Control functions
 904:Drivers/STM32F1xx_HAL_Driver/Src/stm32f1xx_hal_dac.c ****   *  @brief    Peripheral Control functions
 905:Drivers/STM32F1xx_HAL_Driver/Src/stm32f1xx_hal_dac.c ****   *
 906:Drivers/STM32F1xx_HAL_Driver/Src/stm32f1xx_hal_dac.c **** @verbatim
 907:Drivers/STM32F1xx_HAL_Driver/Src/stm32f1xx_hal_dac.c ****   ==============================================================================
 908:Drivers/STM32F1xx_HAL_Driver/Src/stm32f1xx_hal_dac.c ****              ##### Peripheral Control functions #####
 909:Drivers/STM32F1xx_HAL_Driver/Src/stm32f1xx_hal_dac.c ****   ==============================================================================
 910:Drivers/STM32F1xx_HAL_Driver/Src/stm32f1xx_hal_dac.c ****     [..]  This section provides functions allowing to:
 911:Drivers/STM32F1xx_HAL_Driver/Src/stm32f1xx_hal_dac.c ****       (+) Configure channels.
 912:Drivers/STM32F1xx_HAL_Driver/Src/stm32f1xx_hal_dac.c ****       (+) Set the specified data holding register value for DAC channel.
 913:Drivers/STM32F1xx_HAL_Driver/Src/stm32f1xx_hal_dac.c **** 
 914:Drivers/STM32F1xx_HAL_Driver/Src/stm32f1xx_hal_dac.c **** @endverbatim
 915:Drivers/STM32F1xx_HAL_Driver/Src/stm32f1xx_hal_dac.c ****   * @{
 916:Drivers/STM32F1xx_HAL_Driver/Src/stm32f1xx_hal_dac.c ****   */
 917:Drivers/STM32F1xx_HAL_Driver/Src/stm32f1xx_hal_dac.c **** 
 918:Drivers/STM32F1xx_HAL_Driver/Src/stm32f1xx_hal_dac.c **** /**
 919:Drivers/STM32F1xx_HAL_Driver/Src/stm32f1xx_hal_dac.c ****   * @brief  Returns the last data output value of the selected DAC channel.
 920:Drivers/STM32F1xx_HAL_Driver/Src/stm32f1xx_hal_dac.c ****   * @param  hdac pointer to a DAC_HandleTypeDef structure that contains
 921:Drivers/STM32F1xx_HAL_Driver/Src/stm32f1xx_hal_dac.c ****   *         the configuration information for the specified DAC.
 922:Drivers/STM32F1xx_HAL_Driver/Src/stm32f1xx_hal_dac.c ****   * @param  Channel The selected DAC channel.
 923:Drivers/STM32F1xx_HAL_Driver/Src/stm32f1xx_hal_dac.c ****   *          This parameter can be one of the following values:
 924:Drivers/STM32F1xx_HAL_Driver/Src/stm32f1xx_hal_dac.c ****   *            @arg DAC_CHANNEL_1: DAC Channel1 selected
 925:Drivers/STM32F1xx_HAL_Driver/Src/stm32f1xx_hal_dac.c ****   *            @arg DAC_CHANNEL_2: DAC Channel2 selected
 926:Drivers/STM32F1xx_HAL_Driver/Src/stm32f1xx_hal_dac.c ****   * @retval The selected DAC channel data output value.
 927:Drivers/STM32F1xx_HAL_Driver/Src/stm32f1xx_hal_dac.c ****   */
 928:Drivers/STM32F1xx_HAL_Driver/Src/stm32f1xx_hal_dac.c **** uint32_t HAL_DAC_GetValue(DAC_HandleTypeDef *hdac, uint32_t Channel)
 929:Drivers/STM32F1xx_HAL_Driver/Src/stm32f1xx_hal_dac.c **** {
 930:Drivers/STM32F1xx_HAL_Driver/Src/stm32f1xx_hal_dac.c ****   uint32_t result;
 931:Drivers/STM32F1xx_HAL_Driver/Src/stm32f1xx_hal_dac.c **** 
ARM GAS  /tmp/ccLdejbV.s 			page 33


 932:Drivers/STM32F1xx_HAL_Driver/Src/stm32f1xx_hal_dac.c ****   /* Check the parameters */
 933:Drivers/STM32F1xx_HAL_Driver/Src/stm32f1xx_hal_dac.c ****   assert_param(IS_DAC_CHANNEL(Channel));
 934:Drivers/STM32F1xx_HAL_Driver/Src/stm32f1xx_hal_dac.c **** 
 935:Drivers/STM32F1xx_HAL_Driver/Src/stm32f1xx_hal_dac.c ****   if (Channel == DAC_CHANNEL_1)
 936:Drivers/STM32F1xx_HAL_Driver/Src/stm32f1xx_hal_dac.c ****   {
 937:Drivers/STM32F1xx_HAL_Driver/Src/stm32f1xx_hal_dac.c ****     result = hdac->Instance->DOR1;
 938:Drivers/STM32F1xx_HAL_Driver/Src/stm32f1xx_hal_dac.c ****   }
 939:Drivers/STM32F1xx_HAL_Driver/Src/stm32f1xx_hal_dac.c **** 
 940:Drivers/STM32F1xx_HAL_Driver/Src/stm32f1xx_hal_dac.c ****   else
 941:Drivers/STM32F1xx_HAL_Driver/Src/stm32f1xx_hal_dac.c ****   {
 942:Drivers/STM32F1xx_HAL_Driver/Src/stm32f1xx_hal_dac.c ****     result = hdac->Instance->DOR2;
 943:Drivers/STM32F1xx_HAL_Driver/Src/stm32f1xx_hal_dac.c ****   }
 944:Drivers/STM32F1xx_HAL_Driver/Src/stm32f1xx_hal_dac.c **** 
 945:Drivers/STM32F1xx_HAL_Driver/Src/stm32f1xx_hal_dac.c ****   /* Returns the DAC channel data output register value */
 946:Drivers/STM32F1xx_HAL_Driver/Src/stm32f1xx_hal_dac.c ****   return result;
 947:Drivers/STM32F1xx_HAL_Driver/Src/stm32f1xx_hal_dac.c **** }
 948:Drivers/STM32F1xx_HAL_Driver/Src/stm32f1xx_hal_dac.c **** 
 949:Drivers/STM32F1xx_HAL_Driver/Src/stm32f1xx_hal_dac.c **** /**
 950:Drivers/STM32F1xx_HAL_Driver/Src/stm32f1xx_hal_dac.c ****   * @brief  Configures the selected DAC channel.
 951:Drivers/STM32F1xx_HAL_Driver/Src/stm32f1xx_hal_dac.c ****   * @param  hdac pointer to a DAC_HandleTypeDef structure that contains
 952:Drivers/STM32F1xx_HAL_Driver/Src/stm32f1xx_hal_dac.c ****   *         the configuration information for the specified DAC.
 953:Drivers/STM32F1xx_HAL_Driver/Src/stm32f1xx_hal_dac.c ****   * @param  sConfig DAC configuration structure.
 954:Drivers/STM32F1xx_HAL_Driver/Src/stm32f1xx_hal_dac.c ****   * @param  Channel The selected DAC channel.
 955:Drivers/STM32F1xx_HAL_Driver/Src/stm32f1xx_hal_dac.c ****   *          This parameter can be one of the following values:
 956:Drivers/STM32F1xx_HAL_Driver/Src/stm32f1xx_hal_dac.c ****   *            @arg DAC_CHANNEL_1: DAC Channel1 selected
 957:Drivers/STM32F1xx_HAL_Driver/Src/stm32f1xx_hal_dac.c ****   *            @arg DAC_CHANNEL_2: DAC Channel2 selected
 958:Drivers/STM32F1xx_HAL_Driver/Src/stm32f1xx_hal_dac.c ****   * @retval HAL status
 959:Drivers/STM32F1xx_HAL_Driver/Src/stm32f1xx_hal_dac.c ****   */
 960:Drivers/STM32F1xx_HAL_Driver/Src/stm32f1xx_hal_dac.c **** HAL_StatusTypeDef HAL_DAC_ConfigChannel(DAC_HandleTypeDef *hdac, DAC_ChannelConfTypeDef *sConfig, u
 961:Drivers/STM32F1xx_HAL_Driver/Src/stm32f1xx_hal_dac.c **** {
 962:Drivers/STM32F1xx_HAL_Driver/Src/stm32f1xx_hal_dac.c ****   uint32_t tmpreg1;
 963:Drivers/STM32F1xx_HAL_Driver/Src/stm32f1xx_hal_dac.c ****   uint32_t tmpreg2;
 964:Drivers/STM32F1xx_HAL_Driver/Src/stm32f1xx_hal_dac.c **** 
 965:Drivers/STM32F1xx_HAL_Driver/Src/stm32f1xx_hal_dac.c ****   /* Check the DAC parameters */
 966:Drivers/STM32F1xx_HAL_Driver/Src/stm32f1xx_hal_dac.c ****   assert_param(IS_DAC_TRIGGER(sConfig->DAC_Trigger));
 967:Drivers/STM32F1xx_HAL_Driver/Src/stm32f1xx_hal_dac.c ****   assert_param(IS_DAC_OUTPUT_BUFFER_STATE(sConfig->DAC_OutputBuffer));
 968:Drivers/STM32F1xx_HAL_Driver/Src/stm32f1xx_hal_dac.c ****   assert_param(IS_DAC_CHANNEL(Channel));
 969:Drivers/STM32F1xx_HAL_Driver/Src/stm32f1xx_hal_dac.c **** 
 970:Drivers/STM32F1xx_HAL_Driver/Src/stm32f1xx_hal_dac.c ****   /* Process locked */
 971:Drivers/STM32F1xx_HAL_Driver/Src/stm32f1xx_hal_dac.c ****   __HAL_LOCK(hdac);
 972:Drivers/STM32F1xx_HAL_Driver/Src/stm32f1xx_hal_dac.c **** 
 973:Drivers/STM32F1xx_HAL_Driver/Src/stm32f1xx_hal_dac.c ****   /* Change DAC state */
 974:Drivers/STM32F1xx_HAL_Driver/Src/stm32f1xx_hal_dac.c ****   hdac->State = HAL_DAC_STATE_BUSY;
 975:Drivers/STM32F1xx_HAL_Driver/Src/stm32f1xx_hal_dac.c **** 
 976:Drivers/STM32F1xx_HAL_Driver/Src/stm32f1xx_hal_dac.c ****   /* Get the DAC CR value */
 977:Drivers/STM32F1xx_HAL_Driver/Src/stm32f1xx_hal_dac.c ****   tmpreg1 = hdac->Instance->CR;
 978:Drivers/STM32F1xx_HAL_Driver/Src/stm32f1xx_hal_dac.c ****   /* Clear BOFFx, TENx, TSELx, WAVEx and MAMPx bits */
 979:Drivers/STM32F1xx_HAL_Driver/Src/stm32f1xx_hal_dac.c ****   tmpreg1 &= ~(((uint32_t)(DAC_CR_MAMP1 | DAC_CR_WAVE1 | DAC_CR_TSEL1 | DAC_CR_TEN1 | DAC_CR_BOFF1)
 980:Drivers/STM32F1xx_HAL_Driver/Src/stm32f1xx_hal_dac.c ****   /* Configure for the selected DAC channel: buffer output, trigger */
 981:Drivers/STM32F1xx_HAL_Driver/Src/stm32f1xx_hal_dac.c ****   /* Set TSELx and TENx bits according to DAC_Trigger value */
 982:Drivers/STM32F1xx_HAL_Driver/Src/stm32f1xx_hal_dac.c ****   /* Set BOFFx bit according to DAC_OutputBuffer value */
 983:Drivers/STM32F1xx_HAL_Driver/Src/stm32f1xx_hal_dac.c ****   tmpreg2 = (sConfig->DAC_Trigger | sConfig->DAC_OutputBuffer);
 984:Drivers/STM32F1xx_HAL_Driver/Src/stm32f1xx_hal_dac.c ****   /* Calculate CR register value depending on DAC_Channel */
 985:Drivers/STM32F1xx_HAL_Driver/Src/stm32f1xx_hal_dac.c ****   tmpreg1 |= tmpreg2 << (Channel & 0x10UL);
 986:Drivers/STM32F1xx_HAL_Driver/Src/stm32f1xx_hal_dac.c ****   /* Write to DAC CR */
 987:Drivers/STM32F1xx_HAL_Driver/Src/stm32f1xx_hal_dac.c ****   hdac->Instance->CR = tmpreg1;
 988:Drivers/STM32F1xx_HAL_Driver/Src/stm32f1xx_hal_dac.c ****   /* Disable wave generation */
ARM GAS  /tmp/ccLdejbV.s 			page 34


 989:Drivers/STM32F1xx_HAL_Driver/Src/stm32f1xx_hal_dac.c ****   CLEAR_BIT(hdac->Instance->CR, (DAC_CR_WAVE1 << (Channel & 0x10UL)));
 990:Drivers/STM32F1xx_HAL_Driver/Src/stm32f1xx_hal_dac.c **** 
 991:Drivers/STM32F1xx_HAL_Driver/Src/stm32f1xx_hal_dac.c ****   /* Change DAC state */
 992:Drivers/STM32F1xx_HAL_Driver/Src/stm32f1xx_hal_dac.c ****   hdac->State = HAL_DAC_STATE_READY;
 993:Drivers/STM32F1xx_HAL_Driver/Src/stm32f1xx_hal_dac.c **** 
 994:Drivers/STM32F1xx_HAL_Driver/Src/stm32f1xx_hal_dac.c ****   /* Process unlocked */
 995:Drivers/STM32F1xx_HAL_Driver/Src/stm32f1xx_hal_dac.c ****   __HAL_UNLOCK(hdac);
 996:Drivers/STM32F1xx_HAL_Driver/Src/stm32f1xx_hal_dac.c **** 
 997:Drivers/STM32F1xx_HAL_Driver/Src/stm32f1xx_hal_dac.c ****   /* Return function status */
 998:Drivers/STM32F1xx_HAL_Driver/Src/stm32f1xx_hal_dac.c ****   return HAL_OK;
 999:Drivers/STM32F1xx_HAL_Driver/Src/stm32f1xx_hal_dac.c **** }
1000:Drivers/STM32F1xx_HAL_Driver/Src/stm32f1xx_hal_dac.c **** 
1001:Drivers/STM32F1xx_HAL_Driver/Src/stm32f1xx_hal_dac.c **** /**
1002:Drivers/STM32F1xx_HAL_Driver/Src/stm32f1xx_hal_dac.c ****   * @}
1003:Drivers/STM32F1xx_HAL_Driver/Src/stm32f1xx_hal_dac.c ****   */
1004:Drivers/STM32F1xx_HAL_Driver/Src/stm32f1xx_hal_dac.c **** 
1005:Drivers/STM32F1xx_HAL_Driver/Src/stm32f1xx_hal_dac.c **** /** @defgroup DAC_Exported_Functions_Group4 Peripheral State and Errors functions
1006:Drivers/STM32F1xx_HAL_Driver/Src/stm32f1xx_hal_dac.c ****   *  @brief   Peripheral State and Errors functions
1007:Drivers/STM32F1xx_HAL_Driver/Src/stm32f1xx_hal_dac.c ****   *
1008:Drivers/STM32F1xx_HAL_Driver/Src/stm32f1xx_hal_dac.c **** @verbatim
1009:Drivers/STM32F1xx_HAL_Driver/Src/stm32f1xx_hal_dac.c ****   ==============================================================================
1010:Drivers/STM32F1xx_HAL_Driver/Src/stm32f1xx_hal_dac.c ****             ##### Peripheral State and Errors functions #####
1011:Drivers/STM32F1xx_HAL_Driver/Src/stm32f1xx_hal_dac.c ****   ==============================================================================
1012:Drivers/STM32F1xx_HAL_Driver/Src/stm32f1xx_hal_dac.c ****     [..]
1013:Drivers/STM32F1xx_HAL_Driver/Src/stm32f1xx_hal_dac.c ****     This subsection provides functions allowing to
1014:Drivers/STM32F1xx_HAL_Driver/Src/stm32f1xx_hal_dac.c ****       (+) Check the DAC state.
1015:Drivers/STM32F1xx_HAL_Driver/Src/stm32f1xx_hal_dac.c ****       (+) Check the DAC Errors.
1016:Drivers/STM32F1xx_HAL_Driver/Src/stm32f1xx_hal_dac.c **** 
1017:Drivers/STM32F1xx_HAL_Driver/Src/stm32f1xx_hal_dac.c **** @endverbatim
1018:Drivers/STM32F1xx_HAL_Driver/Src/stm32f1xx_hal_dac.c ****   * @{
1019:Drivers/STM32F1xx_HAL_Driver/Src/stm32f1xx_hal_dac.c ****   */
1020:Drivers/STM32F1xx_HAL_Driver/Src/stm32f1xx_hal_dac.c **** 
1021:Drivers/STM32F1xx_HAL_Driver/Src/stm32f1xx_hal_dac.c **** /**
1022:Drivers/STM32F1xx_HAL_Driver/Src/stm32f1xx_hal_dac.c ****   * @brief  return the DAC handle state
1023:Drivers/STM32F1xx_HAL_Driver/Src/stm32f1xx_hal_dac.c ****   * @param  hdac pointer to a DAC_HandleTypeDef structure that contains
1024:Drivers/STM32F1xx_HAL_Driver/Src/stm32f1xx_hal_dac.c ****   *         the configuration information for the specified DAC.
1025:Drivers/STM32F1xx_HAL_Driver/Src/stm32f1xx_hal_dac.c ****   * @retval HAL state
1026:Drivers/STM32F1xx_HAL_Driver/Src/stm32f1xx_hal_dac.c ****   */
1027:Drivers/STM32F1xx_HAL_Driver/Src/stm32f1xx_hal_dac.c **** HAL_DAC_StateTypeDef HAL_DAC_GetState(DAC_HandleTypeDef *hdac)
1028:Drivers/STM32F1xx_HAL_Driver/Src/stm32f1xx_hal_dac.c **** {
1029:Drivers/STM32F1xx_HAL_Driver/Src/stm32f1xx_hal_dac.c ****   /* Return DAC handle state */
1030:Drivers/STM32F1xx_HAL_Driver/Src/stm32f1xx_hal_dac.c ****   return hdac->State;
1031:Drivers/STM32F1xx_HAL_Driver/Src/stm32f1xx_hal_dac.c **** }
1032:Drivers/STM32F1xx_HAL_Driver/Src/stm32f1xx_hal_dac.c **** 
1033:Drivers/STM32F1xx_HAL_Driver/Src/stm32f1xx_hal_dac.c **** 
1034:Drivers/STM32F1xx_HAL_Driver/Src/stm32f1xx_hal_dac.c **** /**
1035:Drivers/STM32F1xx_HAL_Driver/Src/stm32f1xx_hal_dac.c ****   * @brief  Return the DAC error code
1036:Drivers/STM32F1xx_HAL_Driver/Src/stm32f1xx_hal_dac.c ****   * @param  hdac pointer to a DAC_HandleTypeDef structure that contains
1037:Drivers/STM32F1xx_HAL_Driver/Src/stm32f1xx_hal_dac.c ****   *         the configuration information for the specified DAC.
1038:Drivers/STM32F1xx_HAL_Driver/Src/stm32f1xx_hal_dac.c ****   * @retval DAC Error Code
1039:Drivers/STM32F1xx_HAL_Driver/Src/stm32f1xx_hal_dac.c ****   */
1040:Drivers/STM32F1xx_HAL_Driver/Src/stm32f1xx_hal_dac.c **** uint32_t HAL_DAC_GetError(DAC_HandleTypeDef *hdac)
1041:Drivers/STM32F1xx_HAL_Driver/Src/stm32f1xx_hal_dac.c **** {
1042:Drivers/STM32F1xx_HAL_Driver/Src/stm32f1xx_hal_dac.c ****   return hdac->ErrorCode;
1043:Drivers/STM32F1xx_HAL_Driver/Src/stm32f1xx_hal_dac.c **** }
1044:Drivers/STM32F1xx_HAL_Driver/Src/stm32f1xx_hal_dac.c **** 
1045:Drivers/STM32F1xx_HAL_Driver/Src/stm32f1xx_hal_dac.c **** /**
ARM GAS  /tmp/ccLdejbV.s 			page 35


1046:Drivers/STM32F1xx_HAL_Driver/Src/stm32f1xx_hal_dac.c ****   * @}
1047:Drivers/STM32F1xx_HAL_Driver/Src/stm32f1xx_hal_dac.c ****   */
1048:Drivers/STM32F1xx_HAL_Driver/Src/stm32f1xx_hal_dac.c **** 
1049:Drivers/STM32F1xx_HAL_Driver/Src/stm32f1xx_hal_dac.c **** /**
1050:Drivers/STM32F1xx_HAL_Driver/Src/stm32f1xx_hal_dac.c ****   * @}
1051:Drivers/STM32F1xx_HAL_Driver/Src/stm32f1xx_hal_dac.c ****   */
1052:Drivers/STM32F1xx_HAL_Driver/Src/stm32f1xx_hal_dac.c **** 
1053:Drivers/STM32F1xx_HAL_Driver/Src/stm32f1xx_hal_dac.c **** /** @addtogroup DAC_Exported_Functions
1054:Drivers/STM32F1xx_HAL_Driver/Src/stm32f1xx_hal_dac.c ****   * @{
1055:Drivers/STM32F1xx_HAL_Driver/Src/stm32f1xx_hal_dac.c ****   */
1056:Drivers/STM32F1xx_HAL_Driver/Src/stm32f1xx_hal_dac.c **** 
1057:Drivers/STM32F1xx_HAL_Driver/Src/stm32f1xx_hal_dac.c **** /** @addtogroup DAC_Exported_Functions_Group1
1058:Drivers/STM32F1xx_HAL_Driver/Src/stm32f1xx_hal_dac.c ****   * @{
1059:Drivers/STM32F1xx_HAL_Driver/Src/stm32f1xx_hal_dac.c ****   */
1060:Drivers/STM32F1xx_HAL_Driver/Src/stm32f1xx_hal_dac.c **** #if (USE_HAL_DAC_REGISTER_CALLBACKS == 1)
1061:Drivers/STM32F1xx_HAL_Driver/Src/stm32f1xx_hal_dac.c **** /**
1062:Drivers/STM32F1xx_HAL_Driver/Src/stm32f1xx_hal_dac.c ****   * @brief  Register a User DAC Callback
1063:Drivers/STM32F1xx_HAL_Driver/Src/stm32f1xx_hal_dac.c ****   *         To be used instead of the weak (surcharged) predefined callback
1064:Drivers/STM32F1xx_HAL_Driver/Src/stm32f1xx_hal_dac.c ****   * @param  hdac DAC handle
1065:Drivers/STM32F1xx_HAL_Driver/Src/stm32f1xx_hal_dac.c ****   * @param  CallbackID ID of the callback to be registered
1066:Drivers/STM32F1xx_HAL_Driver/Src/stm32f1xx_hal_dac.c ****   *         This parameter can be one of the following values:
1067:Drivers/STM32F1xx_HAL_Driver/Src/stm32f1xx_hal_dac.c ****   *          @arg @ref HAL_DAC_ERROR_INVALID_CALLBACK   DAC Error Callback ID
1068:Drivers/STM32F1xx_HAL_Driver/Src/stm32f1xx_hal_dac.c ****   *          @arg @ref HAL_DAC_CH1_COMPLETE_CB_ID       DAC CH1 Complete Callback ID
1069:Drivers/STM32F1xx_HAL_Driver/Src/stm32f1xx_hal_dac.c ****   *          @arg @ref HAL_DAC_CH1_HALF_COMPLETE_CB_ID  DAC CH1 Half Complete Callback ID
1070:Drivers/STM32F1xx_HAL_Driver/Src/stm32f1xx_hal_dac.c ****   *          @arg @ref HAL_DAC_CH1_ERROR_ID             DAC CH1 Error Callback ID
1071:Drivers/STM32F1xx_HAL_Driver/Src/stm32f1xx_hal_dac.c ****   *          @arg @ref HAL_DAC_CH1_UNDERRUN_CB_ID       DAC CH1 UnderRun Callback ID
1072:Drivers/STM32F1xx_HAL_Driver/Src/stm32f1xx_hal_dac.c ****   *          @arg @ref HAL_DAC_CH2_COMPLETE_CB_ID       DAC CH2 Complete Callback ID
1073:Drivers/STM32F1xx_HAL_Driver/Src/stm32f1xx_hal_dac.c ****   *          @arg @ref HAL_DAC_CH2_HALF_COMPLETE_CB_ID  DAC CH2 Half Complete Callback ID
1074:Drivers/STM32F1xx_HAL_Driver/Src/stm32f1xx_hal_dac.c ****   *          @arg @ref HAL_DAC_CH2_ERROR_ID             DAC CH2 Error Callback ID
1075:Drivers/STM32F1xx_HAL_Driver/Src/stm32f1xx_hal_dac.c ****   *          @arg @ref HAL_DAC_CH2_UNDERRUN_CB_ID       DAC CH2 UnderRun Callback ID
1076:Drivers/STM32F1xx_HAL_Driver/Src/stm32f1xx_hal_dac.c ****   *          @arg @ref HAL_DAC_MSPINIT_CB_ID            DAC MSP Init Callback ID
1077:Drivers/STM32F1xx_HAL_Driver/Src/stm32f1xx_hal_dac.c ****   *          @arg @ref HAL_DAC_MSPDEINIT_CB_ID          DAC MSP DeInit Callback ID
1078:Drivers/STM32F1xx_HAL_Driver/Src/stm32f1xx_hal_dac.c ****   *
1079:Drivers/STM32F1xx_HAL_Driver/Src/stm32f1xx_hal_dac.c ****   * @param  pCallback pointer to the Callback function
1080:Drivers/STM32F1xx_HAL_Driver/Src/stm32f1xx_hal_dac.c ****   * @retval status
1081:Drivers/STM32F1xx_HAL_Driver/Src/stm32f1xx_hal_dac.c ****   */
1082:Drivers/STM32F1xx_HAL_Driver/Src/stm32f1xx_hal_dac.c **** HAL_StatusTypeDef HAL_DAC_RegisterCallback(DAC_HandleTypeDef *hdac, HAL_DAC_CallbackIDTypeDef Callb
1083:Drivers/STM32F1xx_HAL_Driver/Src/stm32f1xx_hal_dac.c ****                                            pDAC_CallbackTypeDef pCallback)
1084:Drivers/STM32F1xx_HAL_Driver/Src/stm32f1xx_hal_dac.c **** {
1085:Drivers/STM32F1xx_HAL_Driver/Src/stm32f1xx_hal_dac.c ****   HAL_StatusTypeDef status = HAL_OK;
1086:Drivers/STM32F1xx_HAL_Driver/Src/stm32f1xx_hal_dac.c **** 
1087:Drivers/STM32F1xx_HAL_Driver/Src/stm32f1xx_hal_dac.c ****   if (pCallback == NULL)
1088:Drivers/STM32F1xx_HAL_Driver/Src/stm32f1xx_hal_dac.c ****   {
1089:Drivers/STM32F1xx_HAL_Driver/Src/stm32f1xx_hal_dac.c ****     /* Update the error code */
1090:Drivers/STM32F1xx_HAL_Driver/Src/stm32f1xx_hal_dac.c ****     hdac->ErrorCode |= HAL_DAC_ERROR_INVALID_CALLBACK;
1091:Drivers/STM32F1xx_HAL_Driver/Src/stm32f1xx_hal_dac.c ****     return HAL_ERROR;
1092:Drivers/STM32F1xx_HAL_Driver/Src/stm32f1xx_hal_dac.c ****   }
1093:Drivers/STM32F1xx_HAL_Driver/Src/stm32f1xx_hal_dac.c **** 
1094:Drivers/STM32F1xx_HAL_Driver/Src/stm32f1xx_hal_dac.c ****   /* Process locked */
1095:Drivers/STM32F1xx_HAL_Driver/Src/stm32f1xx_hal_dac.c ****   __HAL_LOCK(hdac);
1096:Drivers/STM32F1xx_HAL_Driver/Src/stm32f1xx_hal_dac.c **** 
1097:Drivers/STM32F1xx_HAL_Driver/Src/stm32f1xx_hal_dac.c ****   if (hdac->State == HAL_DAC_STATE_READY)
1098:Drivers/STM32F1xx_HAL_Driver/Src/stm32f1xx_hal_dac.c ****   {
1099:Drivers/STM32F1xx_HAL_Driver/Src/stm32f1xx_hal_dac.c ****     switch (CallbackID)
1100:Drivers/STM32F1xx_HAL_Driver/Src/stm32f1xx_hal_dac.c ****     {
1101:Drivers/STM32F1xx_HAL_Driver/Src/stm32f1xx_hal_dac.c ****       case HAL_DAC_CH1_COMPLETE_CB_ID :
1102:Drivers/STM32F1xx_HAL_Driver/Src/stm32f1xx_hal_dac.c ****         hdac->ConvCpltCallbackCh1 = pCallback;
ARM GAS  /tmp/ccLdejbV.s 			page 36


1103:Drivers/STM32F1xx_HAL_Driver/Src/stm32f1xx_hal_dac.c ****         break;
1104:Drivers/STM32F1xx_HAL_Driver/Src/stm32f1xx_hal_dac.c ****       case HAL_DAC_CH1_HALF_COMPLETE_CB_ID :
1105:Drivers/STM32F1xx_HAL_Driver/Src/stm32f1xx_hal_dac.c ****         hdac->ConvHalfCpltCallbackCh1 = pCallback;
1106:Drivers/STM32F1xx_HAL_Driver/Src/stm32f1xx_hal_dac.c ****         break;
1107:Drivers/STM32F1xx_HAL_Driver/Src/stm32f1xx_hal_dac.c ****       case HAL_DAC_CH1_ERROR_ID :
1108:Drivers/STM32F1xx_HAL_Driver/Src/stm32f1xx_hal_dac.c ****         hdac->ErrorCallbackCh1 = pCallback;
1109:Drivers/STM32F1xx_HAL_Driver/Src/stm32f1xx_hal_dac.c ****         break;
1110:Drivers/STM32F1xx_HAL_Driver/Src/stm32f1xx_hal_dac.c ****       case HAL_DAC_CH1_UNDERRUN_CB_ID :
1111:Drivers/STM32F1xx_HAL_Driver/Src/stm32f1xx_hal_dac.c ****         hdac->DMAUnderrunCallbackCh1 = pCallback;
1112:Drivers/STM32F1xx_HAL_Driver/Src/stm32f1xx_hal_dac.c ****         break;
1113:Drivers/STM32F1xx_HAL_Driver/Src/stm32f1xx_hal_dac.c **** 
1114:Drivers/STM32F1xx_HAL_Driver/Src/stm32f1xx_hal_dac.c ****       case HAL_DAC_CH2_COMPLETE_CB_ID :
1115:Drivers/STM32F1xx_HAL_Driver/Src/stm32f1xx_hal_dac.c ****         hdac->ConvCpltCallbackCh2 = pCallback;
1116:Drivers/STM32F1xx_HAL_Driver/Src/stm32f1xx_hal_dac.c ****         break;
1117:Drivers/STM32F1xx_HAL_Driver/Src/stm32f1xx_hal_dac.c ****       case HAL_DAC_CH2_HALF_COMPLETE_CB_ID :
1118:Drivers/STM32F1xx_HAL_Driver/Src/stm32f1xx_hal_dac.c ****         hdac->ConvHalfCpltCallbackCh2 = pCallback;
1119:Drivers/STM32F1xx_HAL_Driver/Src/stm32f1xx_hal_dac.c ****         break;
1120:Drivers/STM32F1xx_HAL_Driver/Src/stm32f1xx_hal_dac.c ****       case HAL_DAC_CH2_ERROR_ID :
1121:Drivers/STM32F1xx_HAL_Driver/Src/stm32f1xx_hal_dac.c ****         hdac->ErrorCallbackCh2 = pCallback;
1122:Drivers/STM32F1xx_HAL_Driver/Src/stm32f1xx_hal_dac.c ****         break;
1123:Drivers/STM32F1xx_HAL_Driver/Src/stm32f1xx_hal_dac.c ****       case HAL_DAC_CH2_UNDERRUN_CB_ID :
1124:Drivers/STM32F1xx_HAL_Driver/Src/stm32f1xx_hal_dac.c ****         hdac->DMAUnderrunCallbackCh2 = pCallback;
1125:Drivers/STM32F1xx_HAL_Driver/Src/stm32f1xx_hal_dac.c ****         break;
1126:Drivers/STM32F1xx_HAL_Driver/Src/stm32f1xx_hal_dac.c **** 
1127:Drivers/STM32F1xx_HAL_Driver/Src/stm32f1xx_hal_dac.c ****       case HAL_DAC_MSPINIT_CB_ID :
1128:Drivers/STM32F1xx_HAL_Driver/Src/stm32f1xx_hal_dac.c ****         hdac->MspInitCallback = pCallback;
1129:Drivers/STM32F1xx_HAL_Driver/Src/stm32f1xx_hal_dac.c ****         break;
1130:Drivers/STM32F1xx_HAL_Driver/Src/stm32f1xx_hal_dac.c ****       case HAL_DAC_MSPDEINIT_CB_ID :
1131:Drivers/STM32F1xx_HAL_Driver/Src/stm32f1xx_hal_dac.c ****         hdac->MspDeInitCallback = pCallback;
1132:Drivers/STM32F1xx_HAL_Driver/Src/stm32f1xx_hal_dac.c ****         break;
1133:Drivers/STM32F1xx_HAL_Driver/Src/stm32f1xx_hal_dac.c ****       default :
1134:Drivers/STM32F1xx_HAL_Driver/Src/stm32f1xx_hal_dac.c ****         /* Update the error code */
1135:Drivers/STM32F1xx_HAL_Driver/Src/stm32f1xx_hal_dac.c ****         hdac->ErrorCode |= HAL_DAC_ERROR_INVALID_CALLBACK;
1136:Drivers/STM32F1xx_HAL_Driver/Src/stm32f1xx_hal_dac.c ****         /* update return status */
1137:Drivers/STM32F1xx_HAL_Driver/Src/stm32f1xx_hal_dac.c ****         status =  HAL_ERROR;
1138:Drivers/STM32F1xx_HAL_Driver/Src/stm32f1xx_hal_dac.c ****         break;
1139:Drivers/STM32F1xx_HAL_Driver/Src/stm32f1xx_hal_dac.c ****     }
1140:Drivers/STM32F1xx_HAL_Driver/Src/stm32f1xx_hal_dac.c ****   }
1141:Drivers/STM32F1xx_HAL_Driver/Src/stm32f1xx_hal_dac.c ****   else if (hdac->State == HAL_DAC_STATE_RESET)
1142:Drivers/STM32F1xx_HAL_Driver/Src/stm32f1xx_hal_dac.c ****   {
1143:Drivers/STM32F1xx_HAL_Driver/Src/stm32f1xx_hal_dac.c ****     switch (CallbackID)
1144:Drivers/STM32F1xx_HAL_Driver/Src/stm32f1xx_hal_dac.c ****     {
1145:Drivers/STM32F1xx_HAL_Driver/Src/stm32f1xx_hal_dac.c ****       case HAL_DAC_MSPINIT_CB_ID :
1146:Drivers/STM32F1xx_HAL_Driver/Src/stm32f1xx_hal_dac.c ****         hdac->MspInitCallback = pCallback;
1147:Drivers/STM32F1xx_HAL_Driver/Src/stm32f1xx_hal_dac.c ****         break;
1148:Drivers/STM32F1xx_HAL_Driver/Src/stm32f1xx_hal_dac.c ****       case HAL_DAC_MSPDEINIT_CB_ID :
1149:Drivers/STM32F1xx_HAL_Driver/Src/stm32f1xx_hal_dac.c ****         hdac->MspDeInitCallback = pCallback;
1150:Drivers/STM32F1xx_HAL_Driver/Src/stm32f1xx_hal_dac.c ****         break;
1151:Drivers/STM32F1xx_HAL_Driver/Src/stm32f1xx_hal_dac.c ****       default :
1152:Drivers/STM32F1xx_HAL_Driver/Src/stm32f1xx_hal_dac.c ****         /* Update the error code */
1153:Drivers/STM32F1xx_HAL_Driver/Src/stm32f1xx_hal_dac.c ****         hdac->ErrorCode |= HAL_DAC_ERROR_INVALID_CALLBACK;
1154:Drivers/STM32F1xx_HAL_Driver/Src/stm32f1xx_hal_dac.c ****         /* update return status */
1155:Drivers/STM32F1xx_HAL_Driver/Src/stm32f1xx_hal_dac.c ****         status =  HAL_ERROR;
1156:Drivers/STM32F1xx_HAL_Driver/Src/stm32f1xx_hal_dac.c ****         break;
1157:Drivers/STM32F1xx_HAL_Driver/Src/stm32f1xx_hal_dac.c ****     }
1158:Drivers/STM32F1xx_HAL_Driver/Src/stm32f1xx_hal_dac.c ****   }
1159:Drivers/STM32F1xx_HAL_Driver/Src/stm32f1xx_hal_dac.c ****   else
ARM GAS  /tmp/ccLdejbV.s 			page 37


1160:Drivers/STM32F1xx_HAL_Driver/Src/stm32f1xx_hal_dac.c ****   {
1161:Drivers/STM32F1xx_HAL_Driver/Src/stm32f1xx_hal_dac.c ****     /* Update the error code */
1162:Drivers/STM32F1xx_HAL_Driver/Src/stm32f1xx_hal_dac.c ****     hdac->ErrorCode |= HAL_DAC_ERROR_INVALID_CALLBACK;
1163:Drivers/STM32F1xx_HAL_Driver/Src/stm32f1xx_hal_dac.c ****     /* update return status */
1164:Drivers/STM32F1xx_HAL_Driver/Src/stm32f1xx_hal_dac.c ****     status =  HAL_ERROR;
1165:Drivers/STM32F1xx_HAL_Driver/Src/stm32f1xx_hal_dac.c ****   }
1166:Drivers/STM32F1xx_HAL_Driver/Src/stm32f1xx_hal_dac.c **** 
1167:Drivers/STM32F1xx_HAL_Driver/Src/stm32f1xx_hal_dac.c ****   /* Release Lock */
1168:Drivers/STM32F1xx_HAL_Driver/Src/stm32f1xx_hal_dac.c ****   __HAL_UNLOCK(hdac);
1169:Drivers/STM32F1xx_HAL_Driver/Src/stm32f1xx_hal_dac.c ****   return status;
1170:Drivers/STM32F1xx_HAL_Driver/Src/stm32f1xx_hal_dac.c **** }
1171:Drivers/STM32F1xx_HAL_Driver/Src/stm32f1xx_hal_dac.c **** 
1172:Drivers/STM32F1xx_HAL_Driver/Src/stm32f1xx_hal_dac.c **** /**
1173:Drivers/STM32F1xx_HAL_Driver/Src/stm32f1xx_hal_dac.c ****   * @brief  Unregister a User DAC Callback
1174:Drivers/STM32F1xx_HAL_Driver/Src/stm32f1xx_hal_dac.c ****   *         DAC Callback is redirected to the weak (surcharged) predefined callback
1175:Drivers/STM32F1xx_HAL_Driver/Src/stm32f1xx_hal_dac.c ****   * @param  hdac DAC handle
1176:Drivers/STM32F1xx_HAL_Driver/Src/stm32f1xx_hal_dac.c ****   * @param  CallbackID ID of the callback to be unregistered
1177:Drivers/STM32F1xx_HAL_Driver/Src/stm32f1xx_hal_dac.c ****   *         This parameter can be one of the following values:
1178:Drivers/STM32F1xx_HAL_Driver/Src/stm32f1xx_hal_dac.c ****   *          @arg @ref HAL_DAC_CH1_COMPLETE_CB_ID          DAC CH1 transfer Complete Callback ID
1179:Drivers/STM32F1xx_HAL_Driver/Src/stm32f1xx_hal_dac.c ****   *          @arg @ref HAL_DAC_CH1_HALF_COMPLETE_CB_ID     DAC CH1 Half Complete Callback ID
1180:Drivers/STM32F1xx_HAL_Driver/Src/stm32f1xx_hal_dac.c ****   *          @arg @ref HAL_DAC_CH1_ERROR_ID                DAC CH1 Error Callback ID
1181:Drivers/STM32F1xx_HAL_Driver/Src/stm32f1xx_hal_dac.c ****   *          @arg @ref HAL_DAC_CH1_UNDERRUN_CB_ID          DAC CH1 UnderRun Callback ID
1182:Drivers/STM32F1xx_HAL_Driver/Src/stm32f1xx_hal_dac.c ****   *          @arg @ref HAL_DAC_CH2_COMPLETE_CB_ID          DAC CH2 Complete Callback ID
1183:Drivers/STM32F1xx_HAL_Driver/Src/stm32f1xx_hal_dac.c ****   *          @arg @ref HAL_DAC_CH2_HALF_COMPLETE_CB_ID     DAC CH2 Half Complete Callback ID
1184:Drivers/STM32F1xx_HAL_Driver/Src/stm32f1xx_hal_dac.c ****   *          @arg @ref HAL_DAC_CH2_ERROR_ID                DAC CH2 Error Callback ID
1185:Drivers/STM32F1xx_HAL_Driver/Src/stm32f1xx_hal_dac.c ****   *          @arg @ref HAL_DAC_CH2_UNDERRUN_CB_ID          DAC CH2 UnderRun Callback ID
1186:Drivers/STM32F1xx_HAL_Driver/Src/stm32f1xx_hal_dac.c ****   *          @arg @ref HAL_DAC_MSPINIT_CB_ID               DAC MSP Init Callback ID
1187:Drivers/STM32F1xx_HAL_Driver/Src/stm32f1xx_hal_dac.c ****   *          @arg @ref HAL_DAC_MSPDEINIT_CB_ID             DAC MSP DeInit Callback ID
1188:Drivers/STM32F1xx_HAL_Driver/Src/stm32f1xx_hal_dac.c ****   *          @arg @ref HAL_DAC_ALL_CB_ID                   DAC All callbacks
1189:Drivers/STM32F1xx_HAL_Driver/Src/stm32f1xx_hal_dac.c ****   * @retval status
1190:Drivers/STM32F1xx_HAL_Driver/Src/stm32f1xx_hal_dac.c ****   */
1191:Drivers/STM32F1xx_HAL_Driver/Src/stm32f1xx_hal_dac.c **** HAL_StatusTypeDef HAL_DAC_UnRegisterCallback(DAC_HandleTypeDef *hdac, HAL_DAC_CallbackIDTypeDef Cal
1192:Drivers/STM32F1xx_HAL_Driver/Src/stm32f1xx_hal_dac.c **** {
1193:Drivers/STM32F1xx_HAL_Driver/Src/stm32f1xx_hal_dac.c ****   HAL_StatusTypeDef status = HAL_OK;
1194:Drivers/STM32F1xx_HAL_Driver/Src/stm32f1xx_hal_dac.c **** 
1195:Drivers/STM32F1xx_HAL_Driver/Src/stm32f1xx_hal_dac.c ****   /* Process locked */
1196:Drivers/STM32F1xx_HAL_Driver/Src/stm32f1xx_hal_dac.c ****   __HAL_LOCK(hdac);
1197:Drivers/STM32F1xx_HAL_Driver/Src/stm32f1xx_hal_dac.c **** 
1198:Drivers/STM32F1xx_HAL_Driver/Src/stm32f1xx_hal_dac.c ****   if (hdac->State == HAL_DAC_STATE_READY)
1199:Drivers/STM32F1xx_HAL_Driver/Src/stm32f1xx_hal_dac.c ****   {
1200:Drivers/STM32F1xx_HAL_Driver/Src/stm32f1xx_hal_dac.c ****     switch (CallbackID)
1201:Drivers/STM32F1xx_HAL_Driver/Src/stm32f1xx_hal_dac.c ****     {
1202:Drivers/STM32F1xx_HAL_Driver/Src/stm32f1xx_hal_dac.c ****       case HAL_DAC_CH1_COMPLETE_CB_ID :
1203:Drivers/STM32F1xx_HAL_Driver/Src/stm32f1xx_hal_dac.c ****         hdac->ConvCpltCallbackCh1 = HAL_DAC_ConvCpltCallbackCh1;
1204:Drivers/STM32F1xx_HAL_Driver/Src/stm32f1xx_hal_dac.c ****         break;
1205:Drivers/STM32F1xx_HAL_Driver/Src/stm32f1xx_hal_dac.c ****       case HAL_DAC_CH1_HALF_COMPLETE_CB_ID :
1206:Drivers/STM32F1xx_HAL_Driver/Src/stm32f1xx_hal_dac.c ****         hdac->ConvHalfCpltCallbackCh1 = HAL_DAC_ConvHalfCpltCallbackCh1;
1207:Drivers/STM32F1xx_HAL_Driver/Src/stm32f1xx_hal_dac.c ****         break;
1208:Drivers/STM32F1xx_HAL_Driver/Src/stm32f1xx_hal_dac.c ****       case HAL_DAC_CH1_ERROR_ID :
1209:Drivers/STM32F1xx_HAL_Driver/Src/stm32f1xx_hal_dac.c ****         hdac->ErrorCallbackCh1 = HAL_DAC_ErrorCallbackCh1;
1210:Drivers/STM32F1xx_HAL_Driver/Src/stm32f1xx_hal_dac.c ****         break;
1211:Drivers/STM32F1xx_HAL_Driver/Src/stm32f1xx_hal_dac.c ****       case HAL_DAC_CH1_UNDERRUN_CB_ID :
1212:Drivers/STM32F1xx_HAL_Driver/Src/stm32f1xx_hal_dac.c ****         hdac->DMAUnderrunCallbackCh1 = HAL_DAC_DMAUnderrunCallbackCh1;
1213:Drivers/STM32F1xx_HAL_Driver/Src/stm32f1xx_hal_dac.c ****         break;
1214:Drivers/STM32F1xx_HAL_Driver/Src/stm32f1xx_hal_dac.c **** 
1215:Drivers/STM32F1xx_HAL_Driver/Src/stm32f1xx_hal_dac.c ****       case HAL_DAC_CH2_COMPLETE_CB_ID :
1216:Drivers/STM32F1xx_HAL_Driver/Src/stm32f1xx_hal_dac.c ****         hdac->ConvCpltCallbackCh2 = HAL_DACEx_ConvCpltCallbackCh2;
ARM GAS  /tmp/ccLdejbV.s 			page 38


1217:Drivers/STM32F1xx_HAL_Driver/Src/stm32f1xx_hal_dac.c ****         break;
1218:Drivers/STM32F1xx_HAL_Driver/Src/stm32f1xx_hal_dac.c ****       case HAL_DAC_CH2_HALF_COMPLETE_CB_ID :
1219:Drivers/STM32F1xx_HAL_Driver/Src/stm32f1xx_hal_dac.c ****         hdac->ConvHalfCpltCallbackCh2 = HAL_DACEx_ConvHalfCpltCallbackCh2;
1220:Drivers/STM32F1xx_HAL_Driver/Src/stm32f1xx_hal_dac.c ****         break;
1221:Drivers/STM32F1xx_HAL_Driver/Src/stm32f1xx_hal_dac.c ****       case HAL_DAC_CH2_ERROR_ID :
1222:Drivers/STM32F1xx_HAL_Driver/Src/stm32f1xx_hal_dac.c ****         hdac->ErrorCallbackCh2 = HAL_DACEx_ErrorCallbackCh2;
1223:Drivers/STM32F1xx_HAL_Driver/Src/stm32f1xx_hal_dac.c ****         break;
1224:Drivers/STM32F1xx_HAL_Driver/Src/stm32f1xx_hal_dac.c ****       case HAL_DAC_CH2_UNDERRUN_CB_ID :
1225:Drivers/STM32F1xx_HAL_Driver/Src/stm32f1xx_hal_dac.c ****         hdac->DMAUnderrunCallbackCh2 = HAL_DACEx_DMAUnderrunCallbackCh2;
1226:Drivers/STM32F1xx_HAL_Driver/Src/stm32f1xx_hal_dac.c ****         break;
1227:Drivers/STM32F1xx_HAL_Driver/Src/stm32f1xx_hal_dac.c **** 
1228:Drivers/STM32F1xx_HAL_Driver/Src/stm32f1xx_hal_dac.c ****       case HAL_DAC_MSPINIT_CB_ID :
1229:Drivers/STM32F1xx_HAL_Driver/Src/stm32f1xx_hal_dac.c ****         hdac->MspInitCallback = HAL_DAC_MspInit;
1230:Drivers/STM32F1xx_HAL_Driver/Src/stm32f1xx_hal_dac.c ****         break;
1231:Drivers/STM32F1xx_HAL_Driver/Src/stm32f1xx_hal_dac.c ****       case HAL_DAC_MSPDEINIT_CB_ID :
1232:Drivers/STM32F1xx_HAL_Driver/Src/stm32f1xx_hal_dac.c ****         hdac->MspDeInitCallback = HAL_DAC_MspDeInit;
1233:Drivers/STM32F1xx_HAL_Driver/Src/stm32f1xx_hal_dac.c ****         break;
1234:Drivers/STM32F1xx_HAL_Driver/Src/stm32f1xx_hal_dac.c ****       case HAL_DAC_ALL_CB_ID :
1235:Drivers/STM32F1xx_HAL_Driver/Src/stm32f1xx_hal_dac.c ****         hdac->ConvCpltCallbackCh1 = HAL_DAC_ConvCpltCallbackCh1;
1236:Drivers/STM32F1xx_HAL_Driver/Src/stm32f1xx_hal_dac.c ****         hdac->ConvHalfCpltCallbackCh1 = HAL_DAC_ConvHalfCpltCallbackCh1;
1237:Drivers/STM32F1xx_HAL_Driver/Src/stm32f1xx_hal_dac.c ****         hdac->ErrorCallbackCh1 = HAL_DAC_ErrorCallbackCh1;
1238:Drivers/STM32F1xx_HAL_Driver/Src/stm32f1xx_hal_dac.c ****         hdac->DMAUnderrunCallbackCh1 = HAL_DAC_DMAUnderrunCallbackCh1;
1239:Drivers/STM32F1xx_HAL_Driver/Src/stm32f1xx_hal_dac.c **** 
1240:Drivers/STM32F1xx_HAL_Driver/Src/stm32f1xx_hal_dac.c ****         hdac->ConvCpltCallbackCh2 = HAL_DACEx_ConvCpltCallbackCh2;
1241:Drivers/STM32F1xx_HAL_Driver/Src/stm32f1xx_hal_dac.c ****         hdac->ConvHalfCpltCallbackCh2 = HAL_DACEx_ConvHalfCpltCallbackCh2;
1242:Drivers/STM32F1xx_HAL_Driver/Src/stm32f1xx_hal_dac.c ****         hdac->ErrorCallbackCh2 = HAL_DACEx_ErrorCallbackCh2;
1243:Drivers/STM32F1xx_HAL_Driver/Src/stm32f1xx_hal_dac.c ****         hdac->DMAUnderrunCallbackCh2 = HAL_DACEx_DMAUnderrunCallbackCh2;
1244:Drivers/STM32F1xx_HAL_Driver/Src/stm32f1xx_hal_dac.c **** 
1245:Drivers/STM32F1xx_HAL_Driver/Src/stm32f1xx_hal_dac.c ****         hdac->MspInitCallback = HAL_DAC_MspInit;
1246:Drivers/STM32F1xx_HAL_Driver/Src/stm32f1xx_hal_dac.c ****         hdac->MspDeInitCallback = HAL_DAC_MspDeInit;
1247:Drivers/STM32F1xx_HAL_Driver/Src/stm32f1xx_hal_dac.c ****         break;
1248:Drivers/STM32F1xx_HAL_Driver/Src/stm32f1xx_hal_dac.c ****       default :
1249:Drivers/STM32F1xx_HAL_Driver/Src/stm32f1xx_hal_dac.c ****         /* Update the error code */
1250:Drivers/STM32F1xx_HAL_Driver/Src/stm32f1xx_hal_dac.c ****         hdac->ErrorCode |= HAL_DAC_ERROR_INVALID_CALLBACK;
1251:Drivers/STM32F1xx_HAL_Driver/Src/stm32f1xx_hal_dac.c ****         /* update return status */
1252:Drivers/STM32F1xx_HAL_Driver/Src/stm32f1xx_hal_dac.c ****         status =  HAL_ERROR;
1253:Drivers/STM32F1xx_HAL_Driver/Src/stm32f1xx_hal_dac.c ****         break;
1254:Drivers/STM32F1xx_HAL_Driver/Src/stm32f1xx_hal_dac.c ****     }
1255:Drivers/STM32F1xx_HAL_Driver/Src/stm32f1xx_hal_dac.c ****   }
1256:Drivers/STM32F1xx_HAL_Driver/Src/stm32f1xx_hal_dac.c ****   else if (hdac->State == HAL_DAC_STATE_RESET)
1257:Drivers/STM32F1xx_HAL_Driver/Src/stm32f1xx_hal_dac.c ****   {
1258:Drivers/STM32F1xx_HAL_Driver/Src/stm32f1xx_hal_dac.c ****     switch (CallbackID)
1259:Drivers/STM32F1xx_HAL_Driver/Src/stm32f1xx_hal_dac.c ****     {
1260:Drivers/STM32F1xx_HAL_Driver/Src/stm32f1xx_hal_dac.c ****       case HAL_DAC_MSPINIT_CB_ID :
1261:Drivers/STM32F1xx_HAL_Driver/Src/stm32f1xx_hal_dac.c ****         hdac->MspInitCallback = HAL_DAC_MspInit;
1262:Drivers/STM32F1xx_HAL_Driver/Src/stm32f1xx_hal_dac.c ****         break;
1263:Drivers/STM32F1xx_HAL_Driver/Src/stm32f1xx_hal_dac.c ****       case HAL_DAC_MSPDEINIT_CB_ID :
1264:Drivers/STM32F1xx_HAL_Driver/Src/stm32f1xx_hal_dac.c ****         hdac->MspDeInitCallback = HAL_DAC_MspDeInit;
1265:Drivers/STM32F1xx_HAL_Driver/Src/stm32f1xx_hal_dac.c ****         break;
1266:Drivers/STM32F1xx_HAL_Driver/Src/stm32f1xx_hal_dac.c ****       default :
1267:Drivers/STM32F1xx_HAL_Driver/Src/stm32f1xx_hal_dac.c ****         /* Update the error code */
1268:Drivers/STM32F1xx_HAL_Driver/Src/stm32f1xx_hal_dac.c ****         hdac->ErrorCode |= HAL_DAC_ERROR_INVALID_CALLBACK;
1269:Drivers/STM32F1xx_HAL_Driver/Src/stm32f1xx_hal_dac.c ****         /* update return status */
1270:Drivers/STM32F1xx_HAL_Driver/Src/stm32f1xx_hal_dac.c ****         status =  HAL_ERROR;
1271:Drivers/STM32F1xx_HAL_Driver/Src/stm32f1xx_hal_dac.c ****         break;
1272:Drivers/STM32F1xx_HAL_Driver/Src/stm32f1xx_hal_dac.c ****     }
1273:Drivers/STM32F1xx_HAL_Driver/Src/stm32f1xx_hal_dac.c ****   }
ARM GAS  /tmp/ccLdejbV.s 			page 39


1274:Drivers/STM32F1xx_HAL_Driver/Src/stm32f1xx_hal_dac.c ****   else
1275:Drivers/STM32F1xx_HAL_Driver/Src/stm32f1xx_hal_dac.c ****   {
1276:Drivers/STM32F1xx_HAL_Driver/Src/stm32f1xx_hal_dac.c ****     /* Update the error code */
1277:Drivers/STM32F1xx_HAL_Driver/Src/stm32f1xx_hal_dac.c ****     hdac->ErrorCode |= HAL_DAC_ERROR_INVALID_CALLBACK;
1278:Drivers/STM32F1xx_HAL_Driver/Src/stm32f1xx_hal_dac.c ****     /* update return status */
1279:Drivers/STM32F1xx_HAL_Driver/Src/stm32f1xx_hal_dac.c ****     status =  HAL_ERROR;
1280:Drivers/STM32F1xx_HAL_Driver/Src/stm32f1xx_hal_dac.c ****   }
1281:Drivers/STM32F1xx_HAL_Driver/Src/stm32f1xx_hal_dac.c **** 
1282:Drivers/STM32F1xx_HAL_Driver/Src/stm32f1xx_hal_dac.c ****   /* Release Lock */
1283:Drivers/STM32F1xx_HAL_Driver/Src/stm32f1xx_hal_dac.c ****   __HAL_UNLOCK(hdac);
1284:Drivers/STM32F1xx_HAL_Driver/Src/stm32f1xx_hal_dac.c ****   return status;
1285:Drivers/STM32F1xx_HAL_Driver/Src/stm32f1xx_hal_dac.c **** }
1286:Drivers/STM32F1xx_HAL_Driver/Src/stm32f1xx_hal_dac.c **** #endif /* USE_HAL_DAC_REGISTER_CALLBACKS */
1287:Drivers/STM32F1xx_HAL_Driver/Src/stm32f1xx_hal_dac.c **** 
1288:Drivers/STM32F1xx_HAL_Driver/Src/stm32f1xx_hal_dac.c **** /**
1289:Drivers/STM32F1xx_HAL_Driver/Src/stm32f1xx_hal_dac.c ****   * @}
1290:Drivers/STM32F1xx_HAL_Driver/Src/stm32f1xx_hal_dac.c ****   */
1291:Drivers/STM32F1xx_HAL_Driver/Src/stm32f1xx_hal_dac.c **** 
1292:Drivers/STM32F1xx_HAL_Driver/Src/stm32f1xx_hal_dac.c **** /**
1293:Drivers/STM32F1xx_HAL_Driver/Src/stm32f1xx_hal_dac.c ****   * @}
1294:Drivers/STM32F1xx_HAL_Driver/Src/stm32f1xx_hal_dac.c ****   */
1295:Drivers/STM32F1xx_HAL_Driver/Src/stm32f1xx_hal_dac.c **** 
1296:Drivers/STM32F1xx_HAL_Driver/Src/stm32f1xx_hal_dac.c **** /** @addtogroup DAC_Private_Functions
1297:Drivers/STM32F1xx_HAL_Driver/Src/stm32f1xx_hal_dac.c ****   * @{
1298:Drivers/STM32F1xx_HAL_Driver/Src/stm32f1xx_hal_dac.c ****   */
1299:Drivers/STM32F1xx_HAL_Driver/Src/stm32f1xx_hal_dac.c **** 
1300:Drivers/STM32F1xx_HAL_Driver/Src/stm32f1xx_hal_dac.c **** /**
1301:Drivers/STM32F1xx_HAL_Driver/Src/stm32f1xx_hal_dac.c ****   * @brief  DMA conversion complete callback.
1302:Drivers/STM32F1xx_HAL_Driver/Src/stm32f1xx_hal_dac.c ****   * @param  hdma pointer to a DMA_HandleTypeDef structure that contains
1303:Drivers/STM32F1xx_HAL_Driver/Src/stm32f1xx_hal_dac.c ****   *                the configuration information for the specified DMA module.
1304:Drivers/STM32F1xx_HAL_Driver/Src/stm32f1xx_hal_dac.c ****   * @retval None
1305:Drivers/STM32F1xx_HAL_Driver/Src/stm32f1xx_hal_dac.c ****   */
1306:Drivers/STM32F1xx_HAL_Driver/Src/stm32f1xx_hal_dac.c **** void DAC_DMAConvCpltCh1(DMA_HandleTypeDef *hdma)
1307:Drivers/STM32F1xx_HAL_Driver/Src/stm32f1xx_hal_dac.c **** {
 818              		.loc 1 1307 1 is_stmt 1 view -0
 819              		.cfi_startproc
 820              		@ args = 0, pretend = 0, frame = 0
 821              		@ frame_needed = 0, uses_anonymous_args = 0
 822              		.loc 1 1307 1 is_stmt 0 view .LVU225
 823 0000 10B5     		push	{r4, lr}
 824              	.LCFI17:
 825              		.cfi_def_cfa_offset 8
 826              		.cfi_offset 4, -8
 827              		.cfi_offset 14, -4
1308:Drivers/STM32F1xx_HAL_Driver/Src/stm32f1xx_hal_dac.c ****   DAC_HandleTypeDef *hdac = (DAC_HandleTypeDef *)((DMA_HandleTypeDef *)hdma)->Parent;
 828              		.loc 1 1308 3 is_stmt 1 view .LVU226
 829              		.loc 1 1308 22 is_stmt 0 view .LVU227
 830 0002 446A     		ldr	r4, [r0, #36]
 831              	.LVL59:
1309:Drivers/STM32F1xx_HAL_Driver/Src/stm32f1xx_hal_dac.c **** 
1310:Drivers/STM32F1xx_HAL_Driver/Src/stm32f1xx_hal_dac.c **** #if (USE_HAL_DAC_REGISTER_CALLBACKS == 1)
1311:Drivers/STM32F1xx_HAL_Driver/Src/stm32f1xx_hal_dac.c ****   hdac->ConvCpltCallbackCh1(hdac);
1312:Drivers/STM32F1xx_HAL_Driver/Src/stm32f1xx_hal_dac.c **** #else
1313:Drivers/STM32F1xx_HAL_Driver/Src/stm32f1xx_hal_dac.c ****   HAL_DAC_ConvCpltCallbackCh1(hdac);
 832              		.loc 1 1313 3 is_stmt 1 view .LVU228
 833 0004 2046     		mov	r0, r4
 834              	.LVL60:
ARM GAS  /tmp/ccLdejbV.s 			page 40


 835              		.loc 1 1313 3 is_stmt 0 view .LVU229
 836 0006 FFF7FEFF 		bl	HAL_DAC_ConvCpltCallbackCh1
 837              	.LVL61:
1314:Drivers/STM32F1xx_HAL_Driver/Src/stm32f1xx_hal_dac.c **** #endif /* USE_HAL_DAC_REGISTER_CALLBACKS */
1315:Drivers/STM32F1xx_HAL_Driver/Src/stm32f1xx_hal_dac.c **** 
1316:Drivers/STM32F1xx_HAL_Driver/Src/stm32f1xx_hal_dac.c ****   hdac->State = HAL_DAC_STATE_READY;
 838              		.loc 1 1316 3 is_stmt 1 view .LVU230
 839              		.loc 1 1316 15 is_stmt 0 view .LVU231
 840 000a 0123     		movs	r3, #1
 841 000c 2371     		strb	r3, [r4, #4]
1317:Drivers/STM32F1xx_HAL_Driver/Src/stm32f1xx_hal_dac.c **** }
 842              		.loc 1 1317 1 view .LVU232
 843 000e 10BD     		pop	{r4, pc}
 844              		.loc 1 1317 1 view .LVU233
 845              		.cfi_endproc
 846              	.LFE83:
 848              		.section	.text.HAL_DAC_ConvHalfCpltCallbackCh1,"ax",%progbits
 849              		.align	1
 850              		.weak	HAL_DAC_ConvHalfCpltCallbackCh1
 851              		.syntax unified
 852              		.thumb
 853              		.thumb_func
 854              		.fpu softvfp
 856              	HAL_DAC_ConvHalfCpltCallbackCh1:
 857              	.LVL62:
 858              	.LFB76:
 858:Drivers/STM32F1xx_HAL_Driver/Src/stm32f1xx_hal_dac.c ****   /* Prevent unused argument(s) compilation warning */
 859              		.loc 1 858 1 is_stmt 1 view -0
 860              		.cfi_startproc
 861              		@ args = 0, pretend = 0, frame = 0
 862              		@ frame_needed = 0, uses_anonymous_args = 0
 863              		@ link register save eliminated.
 860:Drivers/STM32F1xx_HAL_Driver/Src/stm32f1xx_hal_dac.c **** 
 864              		.loc 1 860 3 view .LVU235
 865:Drivers/STM32F1xx_HAL_Driver/Src/stm32f1xx_hal_dac.c **** 
 865              		.loc 1 865 1 is_stmt 0 view .LVU236
 866 0000 7047     		bx	lr
 867              		.cfi_endproc
 868              	.LFE76:
 870              		.section	.text.DAC_DMAHalfConvCpltCh1,"ax",%progbits
 871              		.align	1
 872              		.global	DAC_DMAHalfConvCpltCh1
 873              		.syntax unified
 874              		.thumb
 875              		.thumb_func
 876              		.fpu softvfp
 878              	DAC_DMAHalfConvCpltCh1:
 879              	.LVL63:
 880              	.LFB84:
1318:Drivers/STM32F1xx_HAL_Driver/Src/stm32f1xx_hal_dac.c **** 
1319:Drivers/STM32F1xx_HAL_Driver/Src/stm32f1xx_hal_dac.c **** /**
1320:Drivers/STM32F1xx_HAL_Driver/Src/stm32f1xx_hal_dac.c ****   * @brief  DMA half transfer complete callback.
1321:Drivers/STM32F1xx_HAL_Driver/Src/stm32f1xx_hal_dac.c ****   * @param  hdma pointer to a DMA_HandleTypeDef structure that contains
1322:Drivers/STM32F1xx_HAL_Driver/Src/stm32f1xx_hal_dac.c ****   *                the configuration information for the specified DMA module.
1323:Drivers/STM32F1xx_HAL_Driver/Src/stm32f1xx_hal_dac.c ****   * @retval None
1324:Drivers/STM32F1xx_HAL_Driver/Src/stm32f1xx_hal_dac.c ****   */
1325:Drivers/STM32F1xx_HAL_Driver/Src/stm32f1xx_hal_dac.c **** void DAC_DMAHalfConvCpltCh1(DMA_HandleTypeDef *hdma)
ARM GAS  /tmp/ccLdejbV.s 			page 41


1326:Drivers/STM32F1xx_HAL_Driver/Src/stm32f1xx_hal_dac.c **** {
 881              		.loc 1 1326 1 is_stmt 1 view -0
 882              		.cfi_startproc
 883              		@ args = 0, pretend = 0, frame = 0
 884              		@ frame_needed = 0, uses_anonymous_args = 0
 885              		.loc 1 1326 1 is_stmt 0 view .LVU238
 886 0000 08B5     		push	{r3, lr}
 887              	.LCFI18:
 888              		.cfi_def_cfa_offset 8
 889              		.cfi_offset 3, -8
 890              		.cfi_offset 14, -4
1327:Drivers/STM32F1xx_HAL_Driver/Src/stm32f1xx_hal_dac.c ****   DAC_HandleTypeDef *hdac = (DAC_HandleTypeDef *)((DMA_HandleTypeDef *)hdma)->Parent;
 891              		.loc 1 1327 3 is_stmt 1 view .LVU239
 892              	.LVL64:
1328:Drivers/STM32F1xx_HAL_Driver/Src/stm32f1xx_hal_dac.c ****   /* Conversion complete callback */
1329:Drivers/STM32F1xx_HAL_Driver/Src/stm32f1xx_hal_dac.c **** #if (USE_HAL_DAC_REGISTER_CALLBACKS == 1)
1330:Drivers/STM32F1xx_HAL_Driver/Src/stm32f1xx_hal_dac.c ****   hdac->ConvHalfCpltCallbackCh1(hdac);
1331:Drivers/STM32F1xx_HAL_Driver/Src/stm32f1xx_hal_dac.c **** #else
1332:Drivers/STM32F1xx_HAL_Driver/Src/stm32f1xx_hal_dac.c ****   HAL_DAC_ConvHalfCpltCallbackCh1(hdac);
 893              		.loc 1 1332 3 view .LVU240
 894 0002 406A     		ldr	r0, [r0, #36]
 895              	.LVL65:
 896              		.loc 1 1332 3 is_stmt 0 view .LVU241
 897 0004 FFF7FEFF 		bl	HAL_DAC_ConvHalfCpltCallbackCh1
 898              	.LVL66:
1333:Drivers/STM32F1xx_HAL_Driver/Src/stm32f1xx_hal_dac.c **** #endif  /* USE_HAL_DAC_REGISTER_CALLBACKS */
1334:Drivers/STM32F1xx_HAL_Driver/Src/stm32f1xx_hal_dac.c **** }
 899              		.loc 1 1334 1 view .LVU242
 900 0008 08BD     		pop	{r3, pc}
 901              		.cfi_endproc
 902              	.LFE84:
 904              		.section	.text.HAL_DAC_ErrorCallbackCh1,"ax",%progbits
 905              		.align	1
 906              		.weak	HAL_DAC_ErrorCallbackCh1
 907              		.syntax unified
 908              		.thumb
 909              		.thumb_func
 910              		.fpu softvfp
 912              	HAL_DAC_ErrorCallbackCh1:
 913              	.LVL67:
 914              	.LFB77:
 874:Drivers/STM32F1xx_HAL_Driver/Src/stm32f1xx_hal_dac.c ****   /* Prevent unused argument(s) compilation warning */
 915              		.loc 1 874 1 is_stmt 1 view -0
 916              		.cfi_startproc
 917              		@ args = 0, pretend = 0, frame = 0
 918              		@ frame_needed = 0, uses_anonymous_args = 0
 919              		@ link register save eliminated.
 876:Drivers/STM32F1xx_HAL_Driver/Src/stm32f1xx_hal_dac.c **** 
 920              		.loc 1 876 3 view .LVU244
 881:Drivers/STM32F1xx_HAL_Driver/Src/stm32f1xx_hal_dac.c **** 
 921              		.loc 1 881 1 is_stmt 0 view .LVU245
 922 0000 7047     		bx	lr
 923              		.cfi_endproc
 924              	.LFE77:
 926              		.section	.text.DAC_DMAErrorCh1,"ax",%progbits
 927              		.align	1
 928              		.global	DAC_DMAErrorCh1
ARM GAS  /tmp/ccLdejbV.s 			page 42


 929              		.syntax unified
 930              		.thumb
 931              		.thumb_func
 932              		.fpu softvfp
 934              	DAC_DMAErrorCh1:
 935              	.LVL68:
 936              	.LFB85:
1335:Drivers/STM32F1xx_HAL_Driver/Src/stm32f1xx_hal_dac.c **** 
1336:Drivers/STM32F1xx_HAL_Driver/Src/stm32f1xx_hal_dac.c **** /**
1337:Drivers/STM32F1xx_HAL_Driver/Src/stm32f1xx_hal_dac.c ****   * @brief  DMA error callback
1338:Drivers/STM32F1xx_HAL_Driver/Src/stm32f1xx_hal_dac.c ****   * @param  hdma pointer to a DMA_HandleTypeDef structure that contains
1339:Drivers/STM32F1xx_HAL_Driver/Src/stm32f1xx_hal_dac.c ****   *                the configuration information for the specified DMA module.
1340:Drivers/STM32F1xx_HAL_Driver/Src/stm32f1xx_hal_dac.c ****   * @retval None
1341:Drivers/STM32F1xx_HAL_Driver/Src/stm32f1xx_hal_dac.c ****   */
1342:Drivers/STM32F1xx_HAL_Driver/Src/stm32f1xx_hal_dac.c **** void DAC_DMAErrorCh1(DMA_HandleTypeDef *hdma)
1343:Drivers/STM32F1xx_HAL_Driver/Src/stm32f1xx_hal_dac.c **** {
 937              		.loc 1 1343 1 is_stmt 1 view -0
 938              		.cfi_startproc
 939              		@ args = 0, pretend = 0, frame = 0
 940              		@ frame_needed = 0, uses_anonymous_args = 0
 941              		.loc 1 1343 1 is_stmt 0 view .LVU247
 942 0000 10B5     		push	{r4, lr}
 943              	.LCFI19:
 944              		.cfi_def_cfa_offset 8
 945              		.cfi_offset 4, -8
 946              		.cfi_offset 14, -4
1344:Drivers/STM32F1xx_HAL_Driver/Src/stm32f1xx_hal_dac.c ****   DAC_HandleTypeDef *hdac = (DAC_HandleTypeDef *)((DMA_HandleTypeDef *)hdma)->Parent;
 947              		.loc 1 1344 3 is_stmt 1 view .LVU248
 948              		.loc 1 1344 22 is_stmt 0 view .LVU249
 949 0002 446A     		ldr	r4, [r0, #36]
 950              	.LVL69:
1345:Drivers/STM32F1xx_HAL_Driver/Src/stm32f1xx_hal_dac.c **** 
1346:Drivers/STM32F1xx_HAL_Driver/Src/stm32f1xx_hal_dac.c ****   /* Set DAC error code to DMA error */
1347:Drivers/STM32F1xx_HAL_Driver/Src/stm32f1xx_hal_dac.c ****   hdac->ErrorCode |= HAL_DAC_ERROR_DMA;
 951              		.loc 1 1347 3 is_stmt 1 view .LVU250
 952              		.loc 1 1347 19 is_stmt 0 view .LVU251
 953 0004 2369     		ldr	r3, [r4, #16]
 954 0006 43F00403 		orr	r3, r3, #4
 955 000a 2361     		str	r3, [r4, #16]
1348:Drivers/STM32F1xx_HAL_Driver/Src/stm32f1xx_hal_dac.c **** 
1349:Drivers/STM32F1xx_HAL_Driver/Src/stm32f1xx_hal_dac.c **** #if (USE_HAL_DAC_REGISTER_CALLBACKS == 1)
1350:Drivers/STM32F1xx_HAL_Driver/Src/stm32f1xx_hal_dac.c ****   hdac->ErrorCallbackCh1(hdac);
1351:Drivers/STM32F1xx_HAL_Driver/Src/stm32f1xx_hal_dac.c **** #else
1352:Drivers/STM32F1xx_HAL_Driver/Src/stm32f1xx_hal_dac.c ****   HAL_DAC_ErrorCallbackCh1(hdac);
 956              		.loc 1 1352 3 is_stmt 1 view .LVU252
 957 000c 2046     		mov	r0, r4
 958              	.LVL70:
 959              		.loc 1 1352 3 is_stmt 0 view .LVU253
 960 000e FFF7FEFF 		bl	HAL_DAC_ErrorCallbackCh1
 961              	.LVL71:
1353:Drivers/STM32F1xx_HAL_Driver/Src/stm32f1xx_hal_dac.c **** #endif /* USE_HAL_DAC_REGISTER_CALLBACKS */
1354:Drivers/STM32F1xx_HAL_Driver/Src/stm32f1xx_hal_dac.c **** 
1355:Drivers/STM32F1xx_HAL_Driver/Src/stm32f1xx_hal_dac.c ****   hdac->State = HAL_DAC_STATE_READY;
 962              		.loc 1 1355 3 is_stmt 1 view .LVU254
 963              		.loc 1 1355 15 is_stmt 0 view .LVU255
 964 0012 0123     		movs	r3, #1
 965 0014 2371     		strb	r3, [r4, #4]
ARM GAS  /tmp/ccLdejbV.s 			page 43


1356:Drivers/STM32F1xx_HAL_Driver/Src/stm32f1xx_hal_dac.c **** }
 966              		.loc 1 1356 1 view .LVU256
 967 0016 10BD     		pop	{r4, pc}
 968              		.loc 1 1356 1 view .LVU257
 969              		.cfi_endproc
 970              	.LFE85:
 972              		.section	.text.HAL_DAC_DMAUnderrunCallbackCh1,"ax",%progbits
 973              		.align	1
 974              		.weak	HAL_DAC_DMAUnderrunCallbackCh1
 975              		.syntax unified
 976              		.thumb
 977              		.thumb_func
 978              		.fpu softvfp
 980              	HAL_DAC_DMAUnderrunCallbackCh1:
 981              	.LVL72:
 982              	.LFB78:
 890:Drivers/STM32F1xx_HAL_Driver/Src/stm32f1xx_hal_dac.c ****   /* Prevent unused argument(s) compilation warning */
 983              		.loc 1 890 1 is_stmt 1 view -0
 984              		.cfi_startproc
 985              		@ args = 0, pretend = 0, frame = 0
 986              		@ frame_needed = 0, uses_anonymous_args = 0
 987              		@ link register save eliminated.
 892:Drivers/STM32F1xx_HAL_Driver/Src/stm32f1xx_hal_dac.c **** 
 988              		.loc 1 892 3 view .LVU259
 897:Drivers/STM32F1xx_HAL_Driver/Src/stm32f1xx_hal_dac.c **** 
 989              		.loc 1 897 1 is_stmt 0 view .LVU260
 990 0000 7047     		bx	lr
 991              		.cfi_endproc
 992              	.LFE78:
 994              		.section	.text.HAL_DAC_GetValue,"ax",%progbits
 995              		.align	1
 996              		.global	HAL_DAC_GetValue
 997              		.syntax unified
 998              		.thumb
 999              		.thumb_func
 1000              		.fpu softvfp
 1002              	HAL_DAC_GetValue:
 1003              	.LVL73:
 1004              	.LFB79:
 929:Drivers/STM32F1xx_HAL_Driver/Src/stm32f1xx_hal_dac.c ****   uint32_t result;
 1005              		.loc 1 929 1 is_stmt 1 view -0
 1006              		.cfi_startproc
 1007              		@ args = 0, pretend = 0, frame = 0
 1008              		@ frame_needed = 0, uses_anonymous_args = 0
 1009              		@ link register save eliminated.
 930:Drivers/STM32F1xx_HAL_Driver/Src/stm32f1xx_hal_dac.c **** 
 1010              		.loc 1 930 3 view .LVU262
 933:Drivers/STM32F1xx_HAL_Driver/Src/stm32f1xx_hal_dac.c **** 
 1011              		.loc 1 933 3 view .LVU263
 935:Drivers/STM32F1xx_HAL_Driver/Src/stm32f1xx_hal_dac.c ****   {
 1012              		.loc 1 935 3 view .LVU264
 935:Drivers/STM32F1xx_HAL_Driver/Src/stm32f1xx_hal_dac.c ****   {
 1013              		.loc 1 935 6 is_stmt 0 view .LVU265
 1014 0000 11B9     		cbnz	r1, .L70
 937:Drivers/STM32F1xx_HAL_Driver/Src/stm32f1xx_hal_dac.c ****   }
 1015              		.loc 1 937 5 is_stmt 1 view .LVU266
 937:Drivers/STM32F1xx_HAL_Driver/Src/stm32f1xx_hal_dac.c ****   }
ARM GAS  /tmp/ccLdejbV.s 			page 44


 1016              		.loc 1 937 18 is_stmt 0 view .LVU267
 1017 0002 0368     		ldr	r3, [r0]
 937:Drivers/STM32F1xx_HAL_Driver/Src/stm32f1xx_hal_dac.c ****   }
 1018              		.loc 1 937 12 view .LVU268
 1019 0004 D86A     		ldr	r0, [r3, #44]
 1020              	.LVL74:
 937:Drivers/STM32F1xx_HAL_Driver/Src/stm32f1xx_hal_dac.c ****   }
 1021              		.loc 1 937 12 view .LVU269
 1022 0006 7047     		bx	lr
 1023              	.LVL75:
 1024              	.L70:
 942:Drivers/STM32F1xx_HAL_Driver/Src/stm32f1xx_hal_dac.c ****   }
 1025              		.loc 1 942 5 is_stmt 1 view .LVU270
 942:Drivers/STM32F1xx_HAL_Driver/Src/stm32f1xx_hal_dac.c ****   }
 1026              		.loc 1 942 18 is_stmt 0 view .LVU271
 1027 0008 0368     		ldr	r3, [r0]
 942:Drivers/STM32F1xx_HAL_Driver/Src/stm32f1xx_hal_dac.c ****   }
 1028              		.loc 1 942 12 view .LVU272
 1029 000a 186B     		ldr	r0, [r3, #48]
 1030              	.LVL76:
 946:Drivers/STM32F1xx_HAL_Driver/Src/stm32f1xx_hal_dac.c **** }
 1031              		.loc 1 946 3 is_stmt 1 view .LVU273
 947:Drivers/STM32F1xx_HAL_Driver/Src/stm32f1xx_hal_dac.c **** 
 1032              		.loc 1 947 1 is_stmt 0 view .LVU274
 1033 000c 7047     		bx	lr
 1034              		.cfi_endproc
 1035              	.LFE79:
 1037              		.section	.text.HAL_DAC_ConfigChannel,"ax",%progbits
 1038              		.align	1
 1039              		.global	HAL_DAC_ConfigChannel
 1040              		.syntax unified
 1041              		.thumb
 1042              		.thumb_func
 1043              		.fpu softvfp
 1045              	HAL_DAC_ConfigChannel:
 1046              	.LVL77:
 1047              	.LFB80:
 961:Drivers/STM32F1xx_HAL_Driver/Src/stm32f1xx_hal_dac.c ****   uint32_t tmpreg1;
 1048              		.loc 1 961 1 is_stmt 1 view -0
 1049              		.cfi_startproc
 1050              		@ args = 0, pretend = 0, frame = 0
 1051              		@ frame_needed = 0, uses_anonymous_args = 0
 962:Drivers/STM32F1xx_HAL_Driver/Src/stm32f1xx_hal_dac.c ****   uint32_t tmpreg2;
 1052              		.loc 1 962 3 view .LVU276
 963:Drivers/STM32F1xx_HAL_Driver/Src/stm32f1xx_hal_dac.c **** 
 1053              		.loc 1 963 3 view .LVU277
 966:Drivers/STM32F1xx_HAL_Driver/Src/stm32f1xx_hal_dac.c ****   assert_param(IS_DAC_OUTPUT_BUFFER_STATE(sConfig->DAC_OutputBuffer));
 1054              		.loc 1 966 3 view .LVU278
 967:Drivers/STM32F1xx_HAL_Driver/Src/stm32f1xx_hal_dac.c ****   assert_param(IS_DAC_CHANNEL(Channel));
 1055              		.loc 1 967 3 view .LVU279
 968:Drivers/STM32F1xx_HAL_Driver/Src/stm32f1xx_hal_dac.c **** 
 1056              		.loc 1 968 3 view .LVU280
 971:Drivers/STM32F1xx_HAL_Driver/Src/stm32f1xx_hal_dac.c **** 
 1057              		.loc 1 971 3 view .LVU281
 971:Drivers/STM32F1xx_HAL_Driver/Src/stm32f1xx_hal_dac.c **** 
 1058              		.loc 1 971 3 view .LVU282
 1059 0000 4379     		ldrb	r3, [r0, #5]	@ zero_extendqisi2
ARM GAS  /tmp/ccLdejbV.s 			page 45


 1060 0002 012B     		cmp	r3, #1
 1061 0004 25D0     		beq	.L74
 961:Drivers/STM32F1xx_HAL_Driver/Src/stm32f1xx_hal_dac.c ****   uint32_t tmpreg1;
 1062              		.loc 1 961 1 is_stmt 0 discriminator 2 view .LVU283
 1063 0006 10B5     		push	{r4, lr}
 1064              	.LCFI20:
 1065              		.cfi_def_cfa_offset 8
 1066              		.cfi_offset 4, -8
 1067              		.cfi_offset 14, -4
 971:Drivers/STM32F1xx_HAL_Driver/Src/stm32f1xx_hal_dac.c **** 
 1068              		.loc 1 971 3 is_stmt 1 discriminator 2 view .LVU284
 1069 0008 4FF0010E 		mov	lr, #1
 1070 000c 80F805E0 		strb	lr, [r0, #5]
 971:Drivers/STM32F1xx_HAL_Driver/Src/stm32f1xx_hal_dac.c **** 
 1071              		.loc 1 971 3 discriminator 2 view .LVU285
 974:Drivers/STM32F1xx_HAL_Driver/Src/stm32f1xx_hal_dac.c **** 
 1072              		.loc 1 974 3 discriminator 2 view .LVU286
 974:Drivers/STM32F1xx_HAL_Driver/Src/stm32f1xx_hal_dac.c **** 
 1073              		.loc 1 974 15 is_stmt 0 discriminator 2 view .LVU287
 1074 0010 0223     		movs	r3, #2
 1075 0012 0371     		strb	r3, [r0, #4]
 977:Drivers/STM32F1xx_HAL_Driver/Src/stm32f1xx_hal_dac.c ****   /* Clear BOFFx, TENx, TSELx, WAVEx and MAMPx bits */
 1076              		.loc 1 977 3 is_stmt 1 discriminator 2 view .LVU288
 977:Drivers/STM32F1xx_HAL_Driver/Src/stm32f1xx_hal_dac.c ****   /* Clear BOFFx, TENx, TSELx, WAVEx and MAMPx bits */
 1077              		.loc 1 977 17 is_stmt 0 discriminator 2 view .LVU289
 1078 0014 0468     		ldr	r4, [r0]
 977:Drivers/STM32F1xx_HAL_Driver/Src/stm32f1xx_hal_dac.c ****   /* Clear BOFFx, TENx, TSELx, WAVEx and MAMPx bits */
 1079              		.loc 1 977 11 discriminator 2 view .LVU290
 1080 0016 2368     		ldr	r3, [r4]
 1081              	.LVL78:
 979:Drivers/STM32F1xx_HAL_Driver/Src/stm32f1xx_hal_dac.c ****   /* Configure for the selected DAC channel: buffer output, trigger */
 1082              		.loc 1 979 3 is_stmt 1 discriminator 2 view .LVU291
 979:Drivers/STM32F1xx_HAL_Driver/Src/stm32f1xx_hal_dac.c ****   /* Configure for the selected DAC channel: buffer output, trigger */
 1083              		.loc 1 979 114 is_stmt 0 discriminator 2 view .LVU292
 1084 0018 02F01002 		and	r2, r2, #16
 1085              	.LVL79:
 979:Drivers/STM32F1xx_HAL_Driver/Src/stm32f1xx_hal_dac.c ****   /* Configure for the selected DAC channel: buffer output, trigger */
 1086              		.loc 1 979 102 discriminator 2 view .LVU293
 1087 001c 40F6FE7C 		movw	ip, #4094
 1088 0020 0CFA02FC 		lsl	ip, ip, r2
 979:Drivers/STM32F1xx_HAL_Driver/Src/stm32f1xx_hal_dac.c ****   /* Configure for the selected DAC channel: buffer output, trigger */
 1089              		.loc 1 979 11 discriminator 2 view .LVU294
 1090 0024 23EA0C0C 		bic	ip, r3, ip
 1091              	.LVL80:
 983:Drivers/STM32F1xx_HAL_Driver/Src/stm32f1xx_hal_dac.c ****   /* Calculate CR register value depending on DAC_Channel */
 1092              		.loc 1 983 3 is_stmt 1 discriminator 2 view .LVU295
 983:Drivers/STM32F1xx_HAL_Driver/Src/stm32f1xx_hal_dac.c ****   /* Calculate CR register value depending on DAC_Channel */
 1093              		.loc 1 983 21 is_stmt 0 discriminator 2 view .LVU296
 1094 0028 0B68     		ldr	r3, [r1]
 983:Drivers/STM32F1xx_HAL_Driver/Src/stm32f1xx_hal_dac.c ****   /* Calculate CR register value depending on DAC_Channel */
 1095              		.loc 1 983 44 discriminator 2 view .LVU297
 1096 002a 4968     		ldr	r1, [r1, #4]
 1097              	.LVL81:
 983:Drivers/STM32F1xx_HAL_Driver/Src/stm32f1xx_hal_dac.c ****   /* Calculate CR register value depending on DAC_Channel */
 1098              		.loc 1 983 11 discriminator 2 view .LVU298
 1099 002c 0B43     		orrs	r3, r3, r1
 1100              	.LVL82:
ARM GAS  /tmp/ccLdejbV.s 			page 46


 985:Drivers/STM32F1xx_HAL_Driver/Src/stm32f1xx_hal_dac.c ****   /* Write to DAC CR */
 1101              		.loc 1 985 3 is_stmt 1 discriminator 2 view .LVU299
 985:Drivers/STM32F1xx_HAL_Driver/Src/stm32f1xx_hal_dac.c ****   /* Write to DAC CR */
 1102              		.loc 1 985 22 is_stmt 0 discriminator 2 view .LVU300
 1103 002e 9340     		lsls	r3, r3, r2
 1104              	.LVL83:
 985:Drivers/STM32F1xx_HAL_Driver/Src/stm32f1xx_hal_dac.c ****   /* Write to DAC CR */
 1105              		.loc 1 985 11 discriminator 2 view .LVU301
 1106 0030 43EA0C03 		orr	r3, r3, ip
 1107              	.LVL84:
 987:Drivers/STM32F1xx_HAL_Driver/Src/stm32f1xx_hal_dac.c ****   /* Disable wave generation */
 1108              		.loc 1 987 3 is_stmt 1 discriminator 2 view .LVU302
 987:Drivers/STM32F1xx_HAL_Driver/Src/stm32f1xx_hal_dac.c ****   /* Disable wave generation */
 1109              		.loc 1 987 22 is_stmt 0 discriminator 2 view .LVU303
 1110 0034 2360     		str	r3, [r4]
 1111              	.LVL85:
 989:Drivers/STM32F1xx_HAL_Driver/Src/stm32f1xx_hal_dac.c **** 
 1112              		.loc 1 989 3 is_stmt 1 discriminator 2 view .LVU304
 1113 0036 0468     		ldr	r4, [r0]
 1114 0038 2368     		ldr	r3, [r4]
 1115              	.LVL86:
 989:Drivers/STM32F1xx_HAL_Driver/Src/stm32f1xx_hal_dac.c **** 
 1116              		.loc 1 989 3 is_stmt 0 discriminator 2 view .LVU305
 1117 003a C021     		movs	r1, #192
 1118 003c 01FA02F2 		lsl	r2, r1, r2
 1119 0040 23EA0202 		bic	r2, r3, r2
 1120 0044 2260     		str	r2, [r4]
 992:Drivers/STM32F1xx_HAL_Driver/Src/stm32f1xx_hal_dac.c **** 
 1121              		.loc 1 992 3 is_stmt 1 discriminator 2 view .LVU306
 992:Drivers/STM32F1xx_HAL_Driver/Src/stm32f1xx_hal_dac.c **** 
 1122              		.loc 1 992 15 is_stmt 0 discriminator 2 view .LVU307
 1123 0046 80F804E0 		strb	lr, [r0, #4]
 995:Drivers/STM32F1xx_HAL_Driver/Src/stm32f1xx_hal_dac.c **** 
 1124              		.loc 1 995 3 is_stmt 1 discriminator 2 view .LVU308
 995:Drivers/STM32F1xx_HAL_Driver/Src/stm32f1xx_hal_dac.c **** 
 1125              		.loc 1 995 3 discriminator 2 view .LVU309
 1126 004a 0023     		movs	r3, #0
 1127 004c 4371     		strb	r3, [r0, #5]
 995:Drivers/STM32F1xx_HAL_Driver/Src/stm32f1xx_hal_dac.c **** 
 1128              		.loc 1 995 3 discriminator 2 view .LVU310
 998:Drivers/STM32F1xx_HAL_Driver/Src/stm32f1xx_hal_dac.c **** }
 1129              		.loc 1 998 3 discriminator 2 view .LVU311
 998:Drivers/STM32F1xx_HAL_Driver/Src/stm32f1xx_hal_dac.c **** }
 1130              		.loc 1 998 10 is_stmt 0 discriminator 2 view .LVU312
 1131 004e 1846     		mov	r0, r3
 1132              	.LVL87:
 999:Drivers/STM32F1xx_HAL_Driver/Src/stm32f1xx_hal_dac.c **** 
 1133              		.loc 1 999 1 discriminator 2 view .LVU313
 1134 0050 10BD     		pop	{r4, pc}
 1135              	.LVL88:
 1136              	.L74:
 1137              	.LCFI21:
 1138              		.cfi_def_cfa_offset 0
 1139              		.cfi_restore 4
 1140              		.cfi_restore 14
 971:Drivers/STM32F1xx_HAL_Driver/Src/stm32f1xx_hal_dac.c **** 
 1141              		.loc 1 971 3 view .LVU314
ARM GAS  /tmp/ccLdejbV.s 			page 47


 1142 0052 0220     		movs	r0, #2
 1143              	.LVL89:
 999:Drivers/STM32F1xx_HAL_Driver/Src/stm32f1xx_hal_dac.c **** 
 1144              		.loc 1 999 1 view .LVU315
 1145 0054 7047     		bx	lr
 1146              		.cfi_endproc
 1147              	.LFE80:
 1149              		.section	.text.HAL_DAC_GetState,"ax",%progbits
 1150              		.align	1
 1151              		.global	HAL_DAC_GetState
 1152              		.syntax unified
 1153              		.thumb
 1154              		.thumb_func
 1155              		.fpu softvfp
 1157              	HAL_DAC_GetState:
 1158              	.LVL90:
 1159              	.LFB81:
1028:Drivers/STM32F1xx_HAL_Driver/Src/stm32f1xx_hal_dac.c ****   /* Return DAC handle state */
 1160              		.loc 1 1028 1 is_stmt 1 view -0
 1161              		.cfi_startproc
 1162              		@ args = 0, pretend = 0, frame = 0
 1163              		@ frame_needed = 0, uses_anonymous_args = 0
 1164              		@ link register save eliminated.
1030:Drivers/STM32F1xx_HAL_Driver/Src/stm32f1xx_hal_dac.c **** }
 1165              		.loc 1 1030 3 view .LVU317
1030:Drivers/STM32F1xx_HAL_Driver/Src/stm32f1xx_hal_dac.c **** }
 1166              		.loc 1 1030 14 is_stmt 0 view .LVU318
 1167 0000 0079     		ldrb	r0, [r0, #4]	@ zero_extendqisi2
 1168              	.LVL91:
1031:Drivers/STM32F1xx_HAL_Driver/Src/stm32f1xx_hal_dac.c **** 
 1169              		.loc 1 1031 1 view .LVU319
 1170 0002 7047     		bx	lr
 1171              		.cfi_endproc
 1172              	.LFE81:
 1174              		.section	.text.HAL_DAC_GetError,"ax",%progbits
 1175              		.align	1
 1176              		.global	HAL_DAC_GetError
 1177              		.syntax unified
 1178              		.thumb
 1179              		.thumb_func
 1180              		.fpu softvfp
 1182              	HAL_DAC_GetError:
 1183              	.LVL92:
 1184              	.LFB82:
1041:Drivers/STM32F1xx_HAL_Driver/Src/stm32f1xx_hal_dac.c ****   return hdac->ErrorCode;
 1185              		.loc 1 1041 1 is_stmt 1 view -0
 1186              		.cfi_startproc
 1187              		@ args = 0, pretend = 0, frame = 0
 1188              		@ frame_needed = 0, uses_anonymous_args = 0
 1189              		@ link register save eliminated.
1042:Drivers/STM32F1xx_HAL_Driver/Src/stm32f1xx_hal_dac.c **** }
 1190              		.loc 1 1042 3 view .LVU321
1042:Drivers/STM32F1xx_HAL_Driver/Src/stm32f1xx_hal_dac.c **** }
 1191              		.loc 1 1042 14 is_stmt 0 view .LVU322
 1192 0000 0069     		ldr	r0, [r0, #16]
 1193              	.LVL93:
1043:Drivers/STM32F1xx_HAL_Driver/Src/stm32f1xx_hal_dac.c **** 
ARM GAS  /tmp/ccLdejbV.s 			page 48


 1194              		.loc 1 1043 1 view .LVU323
 1195 0002 7047     		bx	lr
 1196              		.cfi_endproc
 1197              	.LFE82:
 1199              		.text
 1200              	.Letext0:
 1201              		.file 2 "/home/akinya/gcc-arm-none-eabi/arm-none-eabi/include/machine/_default_types.h"
 1202              		.file 3 "/home/akinya/gcc-arm-none-eabi/arm-none-eabi/include/sys/_stdint.h"
 1203              		.file 4 "Drivers/CMSIS/Device/ST/STM32F1xx/Include/stm32f103xe.h"
 1204              		.file 5 "Drivers/STM32F1xx_HAL_Driver/Inc/stm32f1xx_hal_def.h"
 1205              		.file 6 "Drivers/STM32F1xx_HAL_Driver/Inc/stm32f1xx_hal_dma.h"
 1206              		.file 7 "Drivers/STM32F1xx_HAL_Driver/Inc/stm32f1xx_hal_dac.h"
ARM GAS  /tmp/ccLdejbV.s 			page 49

