ARM GAS  /tmp/ccyILfU7.s 			page 1


   1              		.cpu cortex-m4
   2              		.eabi_attribute 27, 1
   3              		.eabi_attribute 28, 1
   4              		.eabi_attribute 20, 1
   5              		.eabi_attribute 21, 1
   6              		.eabi_attribute 23, 3
   7              		.eabi_attribute 24, 1
   8              		.eabi_attribute 25, 1
   9              		.eabi_attribute 26, 1
  10              		.eabi_attribute 30, 1
  11              		.eabi_attribute 34, 1
  12              		.eabi_attribute 18, 4
  13              		.file	"lv_colorwheel.c"
  14              		.text
  15              	.Ltext0:
  16              		.cfi_sections	.debug_frame
  17              		.section	.text.fast_hsv2rgb,"ax",%progbits
  18              		.align	1
  19              		.arch armv7e-m
  20              		.syntax unified
  21              		.thumb
  22              		.thumb_func
  23              		.fpu fpv4-sp-d16
  25              	fast_hsv2rgb:
  26              	.LVL0:
  27              	.LFB202:
  28              		.file 1 "Middlewares/lvgl/src/extra/widgets/colorwheel/lv_colorwheel.c"
   1:Middlewares/lvgl/src/extra/widgets/colorwheel/lv_colorwheel.c **** /**
   2:Middlewares/lvgl/src/extra/widgets/colorwheel/lv_colorwheel.c ****  * @file lv_colorwheel.c
   3:Middlewares/lvgl/src/extra/widgets/colorwheel/lv_colorwheel.c ****  *
   4:Middlewares/lvgl/src/extra/widgets/colorwheel/lv_colorwheel.c ****  * Based on the work of @AloyseTech and @paulpv.
   5:Middlewares/lvgl/src/extra/widgets/colorwheel/lv_colorwheel.c ****  */
   6:Middlewares/lvgl/src/extra/widgets/colorwheel/lv_colorwheel.c **** 
   7:Middlewares/lvgl/src/extra/widgets/colorwheel/lv_colorwheel.c **** /*********************
   8:Middlewares/lvgl/src/extra/widgets/colorwheel/lv_colorwheel.c ****  *      INCLUDES
   9:Middlewares/lvgl/src/extra/widgets/colorwheel/lv_colorwheel.c ****  *********************/
  10:Middlewares/lvgl/src/extra/widgets/colorwheel/lv_colorwheel.c **** #include "lv_colorwheel.h"
  11:Middlewares/lvgl/src/extra/widgets/colorwheel/lv_colorwheel.c **** #if LV_USE_COLORWHEEL
  12:Middlewares/lvgl/src/extra/widgets/colorwheel/lv_colorwheel.c **** 
  13:Middlewares/lvgl/src/extra/widgets/colorwheel/lv_colorwheel.c **** /*********************
  14:Middlewares/lvgl/src/extra/widgets/colorwheel/lv_colorwheel.c ****  *      DEFINES
  15:Middlewares/lvgl/src/extra/widgets/colorwheel/lv_colorwheel.c ****  *********************/
  16:Middlewares/lvgl/src/extra/widgets/colorwheel/lv_colorwheel.c **** #define MY_CLASS &lv_colorwheel_class
  17:Middlewares/lvgl/src/extra/widgets/colorwheel/lv_colorwheel.c **** 
  18:Middlewares/lvgl/src/extra/widgets/colorwheel/lv_colorwheel.c **** #define LV_CPICKER_DEF_QF 3
  19:Middlewares/lvgl/src/extra/widgets/colorwheel/lv_colorwheel.c **** 
  20:Middlewares/lvgl/src/extra/widgets/colorwheel/lv_colorwheel.c **** /**
  21:Middlewares/lvgl/src/extra/widgets/colorwheel/lv_colorwheel.c ****  * The OUTER_MASK_WIDTH define is required to assist with the placing of a mask over the outer ring
  22:Middlewares/lvgl/src/extra/widgets/colorwheel/lv_colorwheel.c ****  * multicoloured radial lines are calculated for the outer ring of the widget their lengths are jit
  23:Middlewares/lvgl/src/extra/widgets/colorwheel/lv_colorwheel.c ****  * integer based arithmetic. From tests the maximum delta was found to be 2 so the current value is
  24:Middlewares/lvgl/src/extra/widgets/colorwheel/lv_colorwheel.c ****  * appropriate masking.
  25:Middlewares/lvgl/src/extra/widgets/colorwheel/lv_colorwheel.c ****  */
  26:Middlewares/lvgl/src/extra/widgets/colorwheel/lv_colorwheel.c **** #define OUTER_MASK_WIDTH 3
  27:Middlewares/lvgl/src/extra/widgets/colorwheel/lv_colorwheel.c **** 
  28:Middlewares/lvgl/src/extra/widgets/colorwheel/lv_colorwheel.c **** /**********************
  29:Middlewares/lvgl/src/extra/widgets/colorwheel/lv_colorwheel.c ****  *      TYPEDEFS
  30:Middlewares/lvgl/src/extra/widgets/colorwheel/lv_colorwheel.c ****  **********************/
ARM GAS  /tmp/ccyILfU7.s 			page 2


  31:Middlewares/lvgl/src/extra/widgets/colorwheel/lv_colorwheel.c **** 
  32:Middlewares/lvgl/src/extra/widgets/colorwheel/lv_colorwheel.c **** /**********************
  33:Middlewares/lvgl/src/extra/widgets/colorwheel/lv_colorwheel.c ****  *  STATIC PROTOTYPES
  34:Middlewares/lvgl/src/extra/widgets/colorwheel/lv_colorwheel.c ****  **********************/
  35:Middlewares/lvgl/src/extra/widgets/colorwheel/lv_colorwheel.c **** static void lv_colorwheel_constructor(const lv_obj_class_t * class_p, lv_obj_t * obj);
  36:Middlewares/lvgl/src/extra/widgets/colorwheel/lv_colorwheel.c **** static void lv_colorwheel_event(const lv_obj_class_t * class_p, lv_event_t * e);
  37:Middlewares/lvgl/src/extra/widgets/colorwheel/lv_colorwheel.c **** 
  38:Middlewares/lvgl/src/extra/widgets/colorwheel/lv_colorwheel.c **** static void draw_disc_grad(lv_event_t * e);
  39:Middlewares/lvgl/src/extra/widgets/colorwheel/lv_colorwheel.c **** static void draw_knob(lv_event_t * e);
  40:Middlewares/lvgl/src/extra/widgets/colorwheel/lv_colorwheel.c **** static void invalidate_knob(lv_obj_t * obj);
  41:Middlewares/lvgl/src/extra/widgets/colorwheel/lv_colorwheel.c **** static lv_area_t get_knob_area(lv_obj_t * obj);
  42:Middlewares/lvgl/src/extra/widgets/colorwheel/lv_colorwheel.c **** 
  43:Middlewares/lvgl/src/extra/widgets/colorwheel/lv_colorwheel.c **** static void next_color_mode(lv_obj_t * obj);
  44:Middlewares/lvgl/src/extra/widgets/colorwheel/lv_colorwheel.c **** static lv_res_t double_click_reset(lv_obj_t * obj);
  45:Middlewares/lvgl/src/extra/widgets/colorwheel/lv_colorwheel.c **** static void refr_knob_pos(lv_obj_t * obj);
  46:Middlewares/lvgl/src/extra/widgets/colorwheel/lv_colorwheel.c **** static lv_color_t angle_to_mode_color_fast(lv_obj_t * obj, uint16_t angle);
  47:Middlewares/lvgl/src/extra/widgets/colorwheel/lv_colorwheel.c **** static uint16_t get_angle(lv_obj_t * obj);
  48:Middlewares/lvgl/src/extra/widgets/colorwheel/lv_colorwheel.c **** 
  49:Middlewares/lvgl/src/extra/widgets/colorwheel/lv_colorwheel.c **** /**********************
  50:Middlewares/lvgl/src/extra/widgets/colorwheel/lv_colorwheel.c ****  *  STATIC VARIABLES
  51:Middlewares/lvgl/src/extra/widgets/colorwheel/lv_colorwheel.c ****  **********************/
  52:Middlewares/lvgl/src/extra/widgets/colorwheel/lv_colorwheel.c **** const lv_obj_class_t lv_colorwheel_class = {.instance_size = sizeof(lv_colorwheel_t), .base_class =
  53:Middlewares/lvgl/src/extra/widgets/colorwheel/lv_colorwheel.c ****         .constructor_cb = lv_colorwheel_constructor,
  54:Middlewares/lvgl/src/extra/widgets/colorwheel/lv_colorwheel.c ****         .event_cb = lv_colorwheel_event,
  55:Middlewares/lvgl/src/extra/widgets/colorwheel/lv_colorwheel.c ****         .width_def = LV_DPI_DEF * 2,
  56:Middlewares/lvgl/src/extra/widgets/colorwheel/lv_colorwheel.c ****         .height_def = LV_DPI_DEF * 2,
  57:Middlewares/lvgl/src/extra/widgets/colorwheel/lv_colorwheel.c ****         .editable = LV_OBJ_CLASS_EDITABLE_TRUE,
  58:Middlewares/lvgl/src/extra/widgets/colorwheel/lv_colorwheel.c **** };
  59:Middlewares/lvgl/src/extra/widgets/colorwheel/lv_colorwheel.c **** 
  60:Middlewares/lvgl/src/extra/widgets/colorwheel/lv_colorwheel.c **** static bool create_knob_recolor;
  61:Middlewares/lvgl/src/extra/widgets/colorwheel/lv_colorwheel.c **** 
  62:Middlewares/lvgl/src/extra/widgets/colorwheel/lv_colorwheel.c **** /**********************
  63:Middlewares/lvgl/src/extra/widgets/colorwheel/lv_colorwheel.c ****  *      MACROS
  64:Middlewares/lvgl/src/extra/widgets/colorwheel/lv_colorwheel.c ****  **********************/
  65:Middlewares/lvgl/src/extra/widgets/colorwheel/lv_colorwheel.c **** 
  66:Middlewares/lvgl/src/extra/widgets/colorwheel/lv_colorwheel.c **** /**********************
  67:Middlewares/lvgl/src/extra/widgets/colorwheel/lv_colorwheel.c ****  *   GLOBAL FUNCTIONS
  68:Middlewares/lvgl/src/extra/widgets/colorwheel/lv_colorwheel.c ****  **********************/
  69:Middlewares/lvgl/src/extra/widgets/colorwheel/lv_colorwheel.c **** 
  70:Middlewares/lvgl/src/extra/widgets/colorwheel/lv_colorwheel.c **** /**
  71:Middlewares/lvgl/src/extra/widgets/colorwheel/lv_colorwheel.c ****  * Create a color_picker object
  72:Middlewares/lvgl/src/extra/widgets/colorwheel/lv_colorwheel.c ****  * @param par pointer to an object, it will be the parent of the new color_picker
  73:Middlewares/lvgl/src/extra/widgets/colorwheel/lv_colorwheel.c ****  * @return pointer to the created color_picker
  74:Middlewares/lvgl/src/extra/widgets/colorwheel/lv_colorwheel.c ****  */
  75:Middlewares/lvgl/src/extra/widgets/colorwheel/lv_colorwheel.c **** lv_obj_t * lv_colorwheel_create(lv_obj_t * parent, bool knob_recolor)
  76:Middlewares/lvgl/src/extra/widgets/colorwheel/lv_colorwheel.c **** {
  77:Middlewares/lvgl/src/extra/widgets/colorwheel/lv_colorwheel.c ****     LV_LOG_INFO("begin")
  78:Middlewares/lvgl/src/extra/widgets/colorwheel/lv_colorwheel.c ****     create_knob_recolor = knob_recolor;
  79:Middlewares/lvgl/src/extra/widgets/colorwheel/lv_colorwheel.c **** 
  80:Middlewares/lvgl/src/extra/widgets/colorwheel/lv_colorwheel.c ****     lv_obj_t * obj = lv_obj_class_create_obj(MY_CLASS, parent);
  81:Middlewares/lvgl/src/extra/widgets/colorwheel/lv_colorwheel.c ****     lv_obj_class_init_obj(obj);
  82:Middlewares/lvgl/src/extra/widgets/colorwheel/lv_colorwheel.c ****     return obj;
  83:Middlewares/lvgl/src/extra/widgets/colorwheel/lv_colorwheel.c **** }
  84:Middlewares/lvgl/src/extra/widgets/colorwheel/lv_colorwheel.c **** 
  85:Middlewares/lvgl/src/extra/widgets/colorwheel/lv_colorwheel.c **** /*=====================
  86:Middlewares/lvgl/src/extra/widgets/colorwheel/lv_colorwheel.c ****  * Setter functions
  87:Middlewares/lvgl/src/extra/widgets/colorwheel/lv_colorwheel.c ****  *====================*/
ARM GAS  /tmp/ccyILfU7.s 			page 3


  88:Middlewares/lvgl/src/extra/widgets/colorwheel/lv_colorwheel.c **** 
  89:Middlewares/lvgl/src/extra/widgets/colorwheel/lv_colorwheel.c **** /**
  90:Middlewares/lvgl/src/extra/widgets/colorwheel/lv_colorwheel.c ****  * Set the current hsv of a color wheel.
  91:Middlewares/lvgl/src/extra/widgets/colorwheel/lv_colorwheel.c ****  * @param colorwheel pointer to color wheel object
  92:Middlewares/lvgl/src/extra/widgets/colorwheel/lv_colorwheel.c ****  * @param color current selected hsv
  93:Middlewares/lvgl/src/extra/widgets/colorwheel/lv_colorwheel.c ****  * @return true if changed, otherwise false
  94:Middlewares/lvgl/src/extra/widgets/colorwheel/lv_colorwheel.c ****  */
  95:Middlewares/lvgl/src/extra/widgets/colorwheel/lv_colorwheel.c **** bool lv_colorwheel_set_hsv(lv_obj_t * obj, lv_color_hsv_t hsv)
  96:Middlewares/lvgl/src/extra/widgets/colorwheel/lv_colorwheel.c **** {
  97:Middlewares/lvgl/src/extra/widgets/colorwheel/lv_colorwheel.c ****     if(hsv.h > 360) hsv.h %= 360;
  98:Middlewares/lvgl/src/extra/widgets/colorwheel/lv_colorwheel.c ****     if(hsv.s > 100) hsv.s = 100;
  99:Middlewares/lvgl/src/extra/widgets/colorwheel/lv_colorwheel.c ****     if(hsv.v > 100) hsv.v = 100;
 100:Middlewares/lvgl/src/extra/widgets/colorwheel/lv_colorwheel.c **** 
 101:Middlewares/lvgl/src/extra/widgets/colorwheel/lv_colorwheel.c ****     lv_colorwheel_t * colorwheel = (lv_colorwheel_t *)obj;
 102:Middlewares/lvgl/src/extra/widgets/colorwheel/lv_colorwheel.c **** 
 103:Middlewares/lvgl/src/extra/widgets/colorwheel/lv_colorwheel.c ****     if(colorwheel->hsv.h == hsv.h && colorwheel->hsv.s == hsv.s && colorwheel->hsv.v == hsv.v) retu
 104:Middlewares/lvgl/src/extra/widgets/colorwheel/lv_colorwheel.c **** 
 105:Middlewares/lvgl/src/extra/widgets/colorwheel/lv_colorwheel.c ****     colorwheel->hsv = hsv;
 106:Middlewares/lvgl/src/extra/widgets/colorwheel/lv_colorwheel.c **** 
 107:Middlewares/lvgl/src/extra/widgets/colorwheel/lv_colorwheel.c ****     refr_knob_pos(obj);
 108:Middlewares/lvgl/src/extra/widgets/colorwheel/lv_colorwheel.c **** 
 109:Middlewares/lvgl/src/extra/widgets/colorwheel/lv_colorwheel.c ****     lv_obj_invalidate(obj);
 110:Middlewares/lvgl/src/extra/widgets/colorwheel/lv_colorwheel.c **** 
 111:Middlewares/lvgl/src/extra/widgets/colorwheel/lv_colorwheel.c ****     return true;
 112:Middlewares/lvgl/src/extra/widgets/colorwheel/lv_colorwheel.c **** }
 113:Middlewares/lvgl/src/extra/widgets/colorwheel/lv_colorwheel.c **** 
 114:Middlewares/lvgl/src/extra/widgets/colorwheel/lv_colorwheel.c **** /**
 115:Middlewares/lvgl/src/extra/widgets/colorwheel/lv_colorwheel.c ****  * Set the current color of a color wheel.
 116:Middlewares/lvgl/src/extra/widgets/colorwheel/lv_colorwheel.c ****  * @param colorwheel pointer to color wheel object
 117:Middlewares/lvgl/src/extra/widgets/colorwheel/lv_colorwheel.c ****  * @param color current selected color
 118:Middlewares/lvgl/src/extra/widgets/colorwheel/lv_colorwheel.c ****  * @return true if changed, otherwise false
 119:Middlewares/lvgl/src/extra/widgets/colorwheel/lv_colorwheel.c ****  */
 120:Middlewares/lvgl/src/extra/widgets/colorwheel/lv_colorwheel.c **** bool lv_colorwheel_set_rgb(lv_obj_t * obj, lv_color_t color)
 121:Middlewares/lvgl/src/extra/widgets/colorwheel/lv_colorwheel.c **** {
 122:Middlewares/lvgl/src/extra/widgets/colorwheel/lv_colorwheel.c ****     lv_color32_t c32;
 123:Middlewares/lvgl/src/extra/widgets/colorwheel/lv_colorwheel.c ****     c32.full = lv_color_to32(color);
 124:Middlewares/lvgl/src/extra/widgets/colorwheel/lv_colorwheel.c **** 
 125:Middlewares/lvgl/src/extra/widgets/colorwheel/lv_colorwheel.c ****     return lv_colorwheel_set_hsv(obj,  lv_color_rgb_to_hsv(c32.ch.red, c32.ch.green, c32.ch.blue));
 126:Middlewares/lvgl/src/extra/widgets/colorwheel/lv_colorwheel.c **** }
 127:Middlewares/lvgl/src/extra/widgets/colorwheel/lv_colorwheel.c **** 
 128:Middlewares/lvgl/src/extra/widgets/colorwheel/lv_colorwheel.c **** /**
 129:Middlewares/lvgl/src/extra/widgets/colorwheel/lv_colorwheel.c ****  * Set the current color mode.
 130:Middlewares/lvgl/src/extra/widgets/colorwheel/lv_colorwheel.c ****  * @param colorwheel pointer to color wheel object
 131:Middlewares/lvgl/src/extra/widgets/colorwheel/lv_colorwheel.c ****  * @param mode color mode (hue/sat/val)
 132:Middlewares/lvgl/src/extra/widgets/colorwheel/lv_colorwheel.c ****  */
 133:Middlewares/lvgl/src/extra/widgets/colorwheel/lv_colorwheel.c **** void lv_colorwheel_set_mode(lv_obj_t * obj, lv_colorwheel_mode_t mode)
 134:Middlewares/lvgl/src/extra/widgets/colorwheel/lv_colorwheel.c **** {
 135:Middlewares/lvgl/src/extra/widgets/colorwheel/lv_colorwheel.c ****     lv_colorwheel_t * colorwheel = (lv_colorwheel_t *)obj;
 136:Middlewares/lvgl/src/extra/widgets/colorwheel/lv_colorwheel.c **** 
 137:Middlewares/lvgl/src/extra/widgets/colorwheel/lv_colorwheel.c ****     colorwheel->mode = mode;
 138:Middlewares/lvgl/src/extra/widgets/colorwheel/lv_colorwheel.c ****     refr_knob_pos(obj);
 139:Middlewares/lvgl/src/extra/widgets/colorwheel/lv_colorwheel.c ****     lv_obj_invalidate(obj);
 140:Middlewares/lvgl/src/extra/widgets/colorwheel/lv_colorwheel.c **** }
 141:Middlewares/lvgl/src/extra/widgets/colorwheel/lv_colorwheel.c **** 
 142:Middlewares/lvgl/src/extra/widgets/colorwheel/lv_colorwheel.c **** /**
 143:Middlewares/lvgl/src/extra/widgets/colorwheel/lv_colorwheel.c ****  * Set if the color mode is changed on long press on center
 144:Middlewares/lvgl/src/extra/widgets/colorwheel/lv_colorwheel.c ****  * @param colorwheel pointer to color wheel object
ARM GAS  /tmp/ccyILfU7.s 			page 4


 145:Middlewares/lvgl/src/extra/widgets/colorwheel/lv_colorwheel.c ****  * @param fixed color mode cannot be changed on long press
 146:Middlewares/lvgl/src/extra/widgets/colorwheel/lv_colorwheel.c ****  */
 147:Middlewares/lvgl/src/extra/widgets/colorwheel/lv_colorwheel.c **** void lv_colorwheel_set_mode_fixed(lv_obj_t * obj, bool fixed)
 148:Middlewares/lvgl/src/extra/widgets/colorwheel/lv_colorwheel.c **** {
 149:Middlewares/lvgl/src/extra/widgets/colorwheel/lv_colorwheel.c ****     lv_colorwheel_t * colorwheel = (lv_colorwheel_t *)obj;
 150:Middlewares/lvgl/src/extra/widgets/colorwheel/lv_colorwheel.c **** 
 151:Middlewares/lvgl/src/extra/widgets/colorwheel/lv_colorwheel.c ****     colorwheel->mode_fixed = fixed;
 152:Middlewares/lvgl/src/extra/widgets/colorwheel/lv_colorwheel.c **** }
 153:Middlewares/lvgl/src/extra/widgets/colorwheel/lv_colorwheel.c **** 
 154:Middlewares/lvgl/src/extra/widgets/colorwheel/lv_colorwheel.c **** /*=====================
 155:Middlewares/lvgl/src/extra/widgets/colorwheel/lv_colorwheel.c ****  * Getter functions
 156:Middlewares/lvgl/src/extra/widgets/colorwheel/lv_colorwheel.c ****  *====================*/
 157:Middlewares/lvgl/src/extra/widgets/colorwheel/lv_colorwheel.c **** 
 158:Middlewares/lvgl/src/extra/widgets/colorwheel/lv_colorwheel.c **** 
 159:Middlewares/lvgl/src/extra/widgets/colorwheel/lv_colorwheel.c **** /**
 160:Middlewares/lvgl/src/extra/widgets/colorwheel/lv_colorwheel.c ****  * Get the current selected hsv of a color wheel.
 161:Middlewares/lvgl/src/extra/widgets/colorwheel/lv_colorwheel.c ****  * @param colorwheel pointer to color wheel object
 162:Middlewares/lvgl/src/extra/widgets/colorwheel/lv_colorwheel.c ****  * @return current selected hsv
 163:Middlewares/lvgl/src/extra/widgets/colorwheel/lv_colorwheel.c ****  */
 164:Middlewares/lvgl/src/extra/widgets/colorwheel/lv_colorwheel.c **** lv_color_hsv_t lv_colorwheel_get_hsv(lv_obj_t * obj)
 165:Middlewares/lvgl/src/extra/widgets/colorwheel/lv_colorwheel.c **** {
 166:Middlewares/lvgl/src/extra/widgets/colorwheel/lv_colorwheel.c ****     lv_colorwheel_t * colorwheel = (lv_colorwheel_t *)obj;
 167:Middlewares/lvgl/src/extra/widgets/colorwheel/lv_colorwheel.c **** 
 168:Middlewares/lvgl/src/extra/widgets/colorwheel/lv_colorwheel.c ****     return colorwheel->hsv;
 169:Middlewares/lvgl/src/extra/widgets/colorwheel/lv_colorwheel.c **** }
 170:Middlewares/lvgl/src/extra/widgets/colorwheel/lv_colorwheel.c **** 
 171:Middlewares/lvgl/src/extra/widgets/colorwheel/lv_colorwheel.c **** /**
 172:Middlewares/lvgl/src/extra/widgets/colorwheel/lv_colorwheel.c ****  * Get the current selected color of a color wheel.
 173:Middlewares/lvgl/src/extra/widgets/colorwheel/lv_colorwheel.c ****  * @param colorwheel pointer to color wheel object
 174:Middlewares/lvgl/src/extra/widgets/colorwheel/lv_colorwheel.c ****  * @return color current selected color
 175:Middlewares/lvgl/src/extra/widgets/colorwheel/lv_colorwheel.c ****  */
 176:Middlewares/lvgl/src/extra/widgets/colorwheel/lv_colorwheel.c **** lv_color_t lv_colorwheel_get_rgb(lv_obj_t * obj)
 177:Middlewares/lvgl/src/extra/widgets/colorwheel/lv_colorwheel.c **** {
 178:Middlewares/lvgl/src/extra/widgets/colorwheel/lv_colorwheel.c ****     lv_colorwheel_t * colorwheel = (lv_colorwheel_t *)obj;
 179:Middlewares/lvgl/src/extra/widgets/colorwheel/lv_colorwheel.c **** 
 180:Middlewares/lvgl/src/extra/widgets/colorwheel/lv_colorwheel.c ****     return lv_color_hsv_to_rgb(colorwheel->hsv.h, colorwheel->hsv.s, colorwheel->hsv.v);
 181:Middlewares/lvgl/src/extra/widgets/colorwheel/lv_colorwheel.c **** }
 182:Middlewares/lvgl/src/extra/widgets/colorwheel/lv_colorwheel.c **** 
 183:Middlewares/lvgl/src/extra/widgets/colorwheel/lv_colorwheel.c **** /**
 184:Middlewares/lvgl/src/extra/widgets/colorwheel/lv_colorwheel.c ****  * Get the current color mode.
 185:Middlewares/lvgl/src/extra/widgets/colorwheel/lv_colorwheel.c ****  * @param colorwheel pointer to color wheel object
 186:Middlewares/lvgl/src/extra/widgets/colorwheel/lv_colorwheel.c ****  * @return color mode (hue/sat/val)
 187:Middlewares/lvgl/src/extra/widgets/colorwheel/lv_colorwheel.c ****  */
 188:Middlewares/lvgl/src/extra/widgets/colorwheel/lv_colorwheel.c **** lv_colorwheel_mode_t lv_colorwheel_get_color_mode(lv_obj_t * obj)
 189:Middlewares/lvgl/src/extra/widgets/colorwheel/lv_colorwheel.c **** {
 190:Middlewares/lvgl/src/extra/widgets/colorwheel/lv_colorwheel.c ****     lv_colorwheel_t * colorwheel = (lv_colorwheel_t *)obj;
 191:Middlewares/lvgl/src/extra/widgets/colorwheel/lv_colorwheel.c **** 
 192:Middlewares/lvgl/src/extra/widgets/colorwheel/lv_colorwheel.c ****     return colorwheel->mode;
 193:Middlewares/lvgl/src/extra/widgets/colorwheel/lv_colorwheel.c **** }
 194:Middlewares/lvgl/src/extra/widgets/colorwheel/lv_colorwheel.c **** 
 195:Middlewares/lvgl/src/extra/widgets/colorwheel/lv_colorwheel.c **** /**
 196:Middlewares/lvgl/src/extra/widgets/colorwheel/lv_colorwheel.c ****  * Get if the color mode is changed on long press on center
 197:Middlewares/lvgl/src/extra/widgets/colorwheel/lv_colorwheel.c ****  * @param colorwheel pointer to color wheel object
 198:Middlewares/lvgl/src/extra/widgets/colorwheel/lv_colorwheel.c ****  * @return mode cannot be changed on long press
 199:Middlewares/lvgl/src/extra/widgets/colorwheel/lv_colorwheel.c ****  */
 200:Middlewares/lvgl/src/extra/widgets/colorwheel/lv_colorwheel.c **** bool lv_colorwheel_get_color_mode_fixed(lv_obj_t * obj)
 201:Middlewares/lvgl/src/extra/widgets/colorwheel/lv_colorwheel.c **** {
ARM GAS  /tmp/ccyILfU7.s 			page 5


 202:Middlewares/lvgl/src/extra/widgets/colorwheel/lv_colorwheel.c ****     lv_colorwheel_t * colorwheel = (lv_colorwheel_t *)obj;
 203:Middlewares/lvgl/src/extra/widgets/colorwheel/lv_colorwheel.c **** 
 204:Middlewares/lvgl/src/extra/widgets/colorwheel/lv_colorwheel.c ****     return colorwheel->mode_fixed;
 205:Middlewares/lvgl/src/extra/widgets/colorwheel/lv_colorwheel.c **** }
 206:Middlewares/lvgl/src/extra/widgets/colorwheel/lv_colorwheel.c **** 
 207:Middlewares/lvgl/src/extra/widgets/colorwheel/lv_colorwheel.c **** /*=====================
 208:Middlewares/lvgl/src/extra/widgets/colorwheel/lv_colorwheel.c ****  * Other functions
 209:Middlewares/lvgl/src/extra/widgets/colorwheel/lv_colorwheel.c ****  *====================*/
 210:Middlewares/lvgl/src/extra/widgets/colorwheel/lv_colorwheel.c **** 
 211:Middlewares/lvgl/src/extra/widgets/colorwheel/lv_colorwheel.c **** /**********************
 212:Middlewares/lvgl/src/extra/widgets/colorwheel/lv_colorwheel.c ****  *   STATIC FUNCTIONS
 213:Middlewares/lvgl/src/extra/widgets/colorwheel/lv_colorwheel.c ****  **********************/
 214:Middlewares/lvgl/src/extra/widgets/colorwheel/lv_colorwheel.c **** 
 215:Middlewares/lvgl/src/extra/widgets/colorwheel/lv_colorwheel.c **** static void lv_colorwheel_constructor(const lv_obj_class_t * class_p, lv_obj_t * obj)
 216:Middlewares/lvgl/src/extra/widgets/colorwheel/lv_colorwheel.c **** {
 217:Middlewares/lvgl/src/extra/widgets/colorwheel/lv_colorwheel.c ****     LV_UNUSED(class_p);
 218:Middlewares/lvgl/src/extra/widgets/colorwheel/lv_colorwheel.c ****     lv_colorwheel_t * colorwheel = (lv_colorwheel_t *)obj;
 219:Middlewares/lvgl/src/extra/widgets/colorwheel/lv_colorwheel.c ****     colorwheel->hsv.h = 0;
 220:Middlewares/lvgl/src/extra/widgets/colorwheel/lv_colorwheel.c ****     colorwheel->hsv.s = 100;
 221:Middlewares/lvgl/src/extra/widgets/colorwheel/lv_colorwheel.c ****     colorwheel->hsv.v = 100;
 222:Middlewares/lvgl/src/extra/widgets/colorwheel/lv_colorwheel.c ****     colorwheel->mode = LV_COLORWHEEL_MODE_HUE;
 223:Middlewares/lvgl/src/extra/widgets/colorwheel/lv_colorwheel.c ****     colorwheel->mode_fixed = 0;
 224:Middlewares/lvgl/src/extra/widgets/colorwheel/lv_colorwheel.c ****     colorwheel->last_click_time = 0;
 225:Middlewares/lvgl/src/extra/widgets/colorwheel/lv_colorwheel.c ****     colorwheel->last_change_time = 0;
 226:Middlewares/lvgl/src/extra/widgets/colorwheel/lv_colorwheel.c ****     colorwheel->knob.recolor = create_knob_recolor;
 227:Middlewares/lvgl/src/extra/widgets/colorwheel/lv_colorwheel.c **** 
 228:Middlewares/lvgl/src/extra/widgets/colorwheel/lv_colorwheel.c ****     lv_obj_add_flag(obj, LV_OBJ_FLAG_ADV_HITTEST);
 229:Middlewares/lvgl/src/extra/widgets/colorwheel/lv_colorwheel.c ****     lv_obj_clear_flag(obj, LV_OBJ_FLAG_SCROLL_CHAIN);
 230:Middlewares/lvgl/src/extra/widgets/colorwheel/lv_colorwheel.c ****     refr_knob_pos(obj);
 231:Middlewares/lvgl/src/extra/widgets/colorwheel/lv_colorwheel.c **** }
 232:Middlewares/lvgl/src/extra/widgets/colorwheel/lv_colorwheel.c **** 
 233:Middlewares/lvgl/src/extra/widgets/colorwheel/lv_colorwheel.c **** static void draw_disc_grad(lv_event_t * e)
 234:Middlewares/lvgl/src/extra/widgets/colorwheel/lv_colorwheel.c **** {
 235:Middlewares/lvgl/src/extra/widgets/colorwheel/lv_colorwheel.c ****     lv_obj_t * obj = lv_event_get_target(e);
 236:Middlewares/lvgl/src/extra/widgets/colorwheel/lv_colorwheel.c ****     const lv_area_t * clip_area = lv_event_get_param(e);
 237:Middlewares/lvgl/src/extra/widgets/colorwheel/lv_colorwheel.c ****     lv_coord_t w = lv_obj_get_width(obj);
 238:Middlewares/lvgl/src/extra/widgets/colorwheel/lv_colorwheel.c ****     lv_coord_t h = lv_obj_get_height(obj);
 239:Middlewares/lvgl/src/extra/widgets/colorwheel/lv_colorwheel.c ****     lv_coord_t cx = obj->coords.x1 + w / 2;
 240:Middlewares/lvgl/src/extra/widgets/colorwheel/lv_colorwheel.c ****     lv_coord_t cy = obj->coords.y1 + h / 2;
 241:Middlewares/lvgl/src/extra/widgets/colorwheel/lv_colorwheel.c ****     lv_coord_t r = w / 2;
 242:Middlewares/lvgl/src/extra/widgets/colorwheel/lv_colorwheel.c **** 
 243:Middlewares/lvgl/src/extra/widgets/colorwheel/lv_colorwheel.c ****     lv_draw_line_dsc_t line_dsc;
 244:Middlewares/lvgl/src/extra/widgets/colorwheel/lv_colorwheel.c ****     lv_draw_line_dsc_init(&line_dsc);
 245:Middlewares/lvgl/src/extra/widgets/colorwheel/lv_colorwheel.c ****     lv_obj_init_draw_line_dsc(obj, LV_PART_MAIN, &line_dsc);
 246:Middlewares/lvgl/src/extra/widgets/colorwheel/lv_colorwheel.c **** 
 247:Middlewares/lvgl/src/extra/widgets/colorwheel/lv_colorwheel.c ****     line_dsc.width = (r * 628 / (256 / LV_CPICKER_DEF_QF)) / 100;
 248:Middlewares/lvgl/src/extra/widgets/colorwheel/lv_colorwheel.c ****     line_dsc.width += 2;
 249:Middlewares/lvgl/src/extra/widgets/colorwheel/lv_colorwheel.c ****     uint16_t i;
 250:Middlewares/lvgl/src/extra/widgets/colorwheel/lv_colorwheel.c ****     uint32_t a = 0;
 251:Middlewares/lvgl/src/extra/widgets/colorwheel/lv_colorwheel.c ****     lv_coord_t cir_w = lv_obj_get_style_arc_width(obj, LV_PART_MAIN);
 252:Middlewares/lvgl/src/extra/widgets/colorwheel/lv_colorwheel.c **** 
 253:Middlewares/lvgl/src/extra/widgets/colorwheel/lv_colorwheel.c **** #if LV_DRAW_COMPLEX
 254:Middlewares/lvgl/src/extra/widgets/colorwheel/lv_colorwheel.c ****     /*Mask outer and inner ring of widget to tidy up ragged edges of lines while drawing outer ring
 255:Middlewares/lvgl/src/extra/widgets/colorwheel/lv_colorwheel.c ****     lv_draw_mask_radius_param_t mask_out_param;
 256:Middlewares/lvgl/src/extra/widgets/colorwheel/lv_colorwheel.c ****     lv_draw_mask_radius_init(&mask_out_param, &obj->coords, LV_RADIUS_CIRCLE, false);
 257:Middlewares/lvgl/src/extra/widgets/colorwheel/lv_colorwheel.c ****     int16_t mask_out_id = lv_draw_mask_add(&mask_out_param, 0);
 258:Middlewares/lvgl/src/extra/widgets/colorwheel/lv_colorwheel.c **** 
ARM GAS  /tmp/ccyILfU7.s 			page 6


 259:Middlewares/lvgl/src/extra/widgets/colorwheel/lv_colorwheel.c ****     lv_area_t mask_area;
 260:Middlewares/lvgl/src/extra/widgets/colorwheel/lv_colorwheel.c ****     lv_area_copy(&mask_area, &obj->coords);
 261:Middlewares/lvgl/src/extra/widgets/colorwheel/lv_colorwheel.c ****     mask_area.x1 += cir_w;
 262:Middlewares/lvgl/src/extra/widgets/colorwheel/lv_colorwheel.c ****     mask_area.x2 -= cir_w;
 263:Middlewares/lvgl/src/extra/widgets/colorwheel/lv_colorwheel.c ****     mask_area.y1 += cir_w;
 264:Middlewares/lvgl/src/extra/widgets/colorwheel/lv_colorwheel.c ****     mask_area.y2 -= cir_w;
 265:Middlewares/lvgl/src/extra/widgets/colorwheel/lv_colorwheel.c ****     lv_draw_mask_radius_param_t mask_in_param;
 266:Middlewares/lvgl/src/extra/widgets/colorwheel/lv_colorwheel.c ****     lv_draw_mask_radius_init(&mask_in_param, &mask_area, LV_RADIUS_CIRCLE, true);
 267:Middlewares/lvgl/src/extra/widgets/colorwheel/lv_colorwheel.c ****     int16_t mask_in_id = lv_draw_mask_add(&mask_in_param, 0);
 268:Middlewares/lvgl/src/extra/widgets/colorwheel/lv_colorwheel.c **** 
 269:Middlewares/lvgl/src/extra/widgets/colorwheel/lv_colorwheel.c ****     /*The inner and outer line ends will be masked out.
 270:Middlewares/lvgl/src/extra/widgets/colorwheel/lv_colorwheel.c ****      *So make lines a little bit longer because the masking makes a more even result*/
 271:Middlewares/lvgl/src/extra/widgets/colorwheel/lv_colorwheel.c ****     lv_coord_t cir_w_extra = line_dsc.width;
 272:Middlewares/lvgl/src/extra/widgets/colorwheel/lv_colorwheel.c **** #else
 273:Middlewares/lvgl/src/extra/widgets/colorwheel/lv_colorwheel.c ****     lv_coord_t cir_w_extra = 0;
 274:Middlewares/lvgl/src/extra/widgets/colorwheel/lv_colorwheel.c **** #endif
 275:Middlewares/lvgl/src/extra/widgets/colorwheel/lv_colorwheel.c **** 
 276:Middlewares/lvgl/src/extra/widgets/colorwheel/lv_colorwheel.c ****     for(i = 0; i <= 256; i += LV_CPICKER_DEF_QF, a += 360 * LV_CPICKER_DEF_QF) {
 277:Middlewares/lvgl/src/extra/widgets/colorwheel/lv_colorwheel.c ****         line_dsc.color = angle_to_mode_color_fast(obj, i);
 278:Middlewares/lvgl/src/extra/widgets/colorwheel/lv_colorwheel.c ****         uint16_t angle_trigo = (uint16_t)(a >> 8); /*i * 360 / 256 is the scale to apply, but we ca
 279:Middlewares/lvgl/src/extra/widgets/colorwheel/lv_colorwheel.c **** 
 280:Middlewares/lvgl/src/extra/widgets/colorwheel/lv_colorwheel.c ****         lv_point_t p[2];
 281:Middlewares/lvgl/src/extra/widgets/colorwheel/lv_colorwheel.c ****         p[0].x = cx + ((r + cir_w_extra) * lv_trigo_sin(angle_trigo) >> LV_TRIGO_SHIFT);
 282:Middlewares/lvgl/src/extra/widgets/colorwheel/lv_colorwheel.c ****         p[0].y = cy + ((r + cir_w_extra) * lv_trigo_cos(angle_trigo) >> LV_TRIGO_SHIFT);
 283:Middlewares/lvgl/src/extra/widgets/colorwheel/lv_colorwheel.c ****         p[1].x = cx + ((r - cir_w - cir_w_extra) * lv_trigo_sin(angle_trigo) >> LV_TRIGO_SHIFT);
 284:Middlewares/lvgl/src/extra/widgets/colorwheel/lv_colorwheel.c ****         p[1].y = cy + ((r - cir_w - cir_w_extra) * lv_trigo_cos(angle_trigo) >> LV_TRIGO_SHIFT);
 285:Middlewares/lvgl/src/extra/widgets/colorwheel/lv_colorwheel.c **** 
 286:Middlewares/lvgl/src/extra/widgets/colorwheel/lv_colorwheel.c ****         lv_draw_line(&p[0], &p[1], clip_area, &line_dsc);
 287:Middlewares/lvgl/src/extra/widgets/colorwheel/lv_colorwheel.c ****     }
 288:Middlewares/lvgl/src/extra/widgets/colorwheel/lv_colorwheel.c **** 
 289:Middlewares/lvgl/src/extra/widgets/colorwheel/lv_colorwheel.c **** #if LV_DRAW_COMPLEX
 290:Middlewares/lvgl/src/extra/widgets/colorwheel/lv_colorwheel.c ****     lv_draw_mask_remove_id(mask_out_id);
 291:Middlewares/lvgl/src/extra/widgets/colorwheel/lv_colorwheel.c ****     lv_draw_mask_remove_id(mask_in_id);
 292:Middlewares/lvgl/src/extra/widgets/colorwheel/lv_colorwheel.c **** #endif
 293:Middlewares/lvgl/src/extra/widgets/colorwheel/lv_colorwheel.c **** }
 294:Middlewares/lvgl/src/extra/widgets/colorwheel/lv_colorwheel.c **** 
 295:Middlewares/lvgl/src/extra/widgets/colorwheel/lv_colorwheel.c **** static void draw_knob(lv_event_t * e)
 296:Middlewares/lvgl/src/extra/widgets/colorwheel/lv_colorwheel.c **** {
 297:Middlewares/lvgl/src/extra/widgets/colorwheel/lv_colorwheel.c ****     lv_obj_t * obj = lv_event_get_target(e);
 298:Middlewares/lvgl/src/extra/widgets/colorwheel/lv_colorwheel.c ****     const lv_area_t * clip_area = lv_event_get_param(e);
 299:Middlewares/lvgl/src/extra/widgets/colorwheel/lv_colorwheel.c ****     lv_colorwheel_t * colorwheel = (lv_colorwheel_t *)obj;
 300:Middlewares/lvgl/src/extra/widgets/colorwheel/lv_colorwheel.c **** 
 301:Middlewares/lvgl/src/extra/widgets/colorwheel/lv_colorwheel.c ****     lv_draw_rect_dsc_t cir_dsc;
 302:Middlewares/lvgl/src/extra/widgets/colorwheel/lv_colorwheel.c ****     lv_draw_rect_dsc_init(&cir_dsc);
 303:Middlewares/lvgl/src/extra/widgets/colorwheel/lv_colorwheel.c ****     lv_obj_init_draw_rect_dsc(obj, LV_PART_KNOB, &cir_dsc);
 304:Middlewares/lvgl/src/extra/widgets/colorwheel/lv_colorwheel.c **** 
 305:Middlewares/lvgl/src/extra/widgets/colorwheel/lv_colorwheel.c ****     cir_dsc.radius = LV_RADIUS_CIRCLE;
 306:Middlewares/lvgl/src/extra/widgets/colorwheel/lv_colorwheel.c **** 
 307:Middlewares/lvgl/src/extra/widgets/colorwheel/lv_colorwheel.c ****     if(colorwheel->knob.recolor) {
 308:Middlewares/lvgl/src/extra/widgets/colorwheel/lv_colorwheel.c ****         cir_dsc.bg_color = lv_colorwheel_get_rgb(obj);
 309:Middlewares/lvgl/src/extra/widgets/colorwheel/lv_colorwheel.c ****     }
 310:Middlewares/lvgl/src/extra/widgets/colorwheel/lv_colorwheel.c **** 
 311:Middlewares/lvgl/src/extra/widgets/colorwheel/lv_colorwheel.c ****     lv_area_t knob_area = get_knob_area(obj);
 312:Middlewares/lvgl/src/extra/widgets/colorwheel/lv_colorwheel.c **** 
 313:Middlewares/lvgl/src/extra/widgets/colorwheel/lv_colorwheel.c ****     lv_draw_rect(&knob_area, clip_area, &cir_dsc);
 314:Middlewares/lvgl/src/extra/widgets/colorwheel/lv_colorwheel.c **** }
 315:Middlewares/lvgl/src/extra/widgets/colorwheel/lv_colorwheel.c **** 
ARM GAS  /tmp/ccyILfU7.s 			page 7


 316:Middlewares/lvgl/src/extra/widgets/colorwheel/lv_colorwheel.c **** static void invalidate_knob(lv_obj_t * obj)
 317:Middlewares/lvgl/src/extra/widgets/colorwheel/lv_colorwheel.c **** {
 318:Middlewares/lvgl/src/extra/widgets/colorwheel/lv_colorwheel.c ****     lv_area_t knob_area = get_knob_area(obj);
 319:Middlewares/lvgl/src/extra/widgets/colorwheel/lv_colorwheel.c **** 
 320:Middlewares/lvgl/src/extra/widgets/colorwheel/lv_colorwheel.c ****     lv_obj_invalidate_area(obj, &knob_area);
 321:Middlewares/lvgl/src/extra/widgets/colorwheel/lv_colorwheel.c **** }
 322:Middlewares/lvgl/src/extra/widgets/colorwheel/lv_colorwheel.c **** 
 323:Middlewares/lvgl/src/extra/widgets/colorwheel/lv_colorwheel.c **** static lv_area_t get_knob_area(lv_obj_t * obj)
 324:Middlewares/lvgl/src/extra/widgets/colorwheel/lv_colorwheel.c **** {
 325:Middlewares/lvgl/src/extra/widgets/colorwheel/lv_colorwheel.c ****     lv_colorwheel_t * colorwheel = (lv_colorwheel_t *)obj;
 326:Middlewares/lvgl/src/extra/widgets/colorwheel/lv_colorwheel.c **** 
 327:Middlewares/lvgl/src/extra/widgets/colorwheel/lv_colorwheel.c ****     /*Get knob's radius*/
 328:Middlewares/lvgl/src/extra/widgets/colorwheel/lv_colorwheel.c ****     uint16_t r = 0;
 329:Middlewares/lvgl/src/extra/widgets/colorwheel/lv_colorwheel.c ****     r = lv_obj_get_style_arc_width(obj, LV_PART_MAIN) / 2;
 330:Middlewares/lvgl/src/extra/widgets/colorwheel/lv_colorwheel.c **** 
 331:Middlewares/lvgl/src/extra/widgets/colorwheel/lv_colorwheel.c ****     lv_coord_t left = lv_obj_get_style_pad_left(obj, LV_PART_KNOB);
 332:Middlewares/lvgl/src/extra/widgets/colorwheel/lv_colorwheel.c ****     lv_coord_t right = lv_obj_get_style_pad_right(obj, LV_PART_KNOB);
 333:Middlewares/lvgl/src/extra/widgets/colorwheel/lv_colorwheel.c ****     lv_coord_t top = lv_obj_get_style_pad_top(obj, LV_PART_KNOB);
 334:Middlewares/lvgl/src/extra/widgets/colorwheel/lv_colorwheel.c ****     lv_coord_t bottom = lv_obj_get_style_pad_bottom(obj, LV_PART_KNOB);
 335:Middlewares/lvgl/src/extra/widgets/colorwheel/lv_colorwheel.c **** 
 336:Middlewares/lvgl/src/extra/widgets/colorwheel/lv_colorwheel.c ****     lv_area_t knob_area;
 337:Middlewares/lvgl/src/extra/widgets/colorwheel/lv_colorwheel.c ****     knob_area.x1 = obj->coords.x1 + colorwheel->knob.pos.x - r - left;
 338:Middlewares/lvgl/src/extra/widgets/colorwheel/lv_colorwheel.c ****     knob_area.y1 = obj->coords.y1 + colorwheel->knob.pos.y - r - right;
 339:Middlewares/lvgl/src/extra/widgets/colorwheel/lv_colorwheel.c ****     knob_area.x2 = obj->coords.x1 + colorwheel->knob.pos.x + r + top;
 340:Middlewares/lvgl/src/extra/widgets/colorwheel/lv_colorwheel.c ****     knob_area.y2 = obj->coords.y1 + colorwheel->knob.pos.y + r + bottom;
 341:Middlewares/lvgl/src/extra/widgets/colorwheel/lv_colorwheel.c **** 
 342:Middlewares/lvgl/src/extra/widgets/colorwheel/lv_colorwheel.c ****     return knob_area;
 343:Middlewares/lvgl/src/extra/widgets/colorwheel/lv_colorwheel.c **** }
 344:Middlewares/lvgl/src/extra/widgets/colorwheel/lv_colorwheel.c **** 
 345:Middlewares/lvgl/src/extra/widgets/colorwheel/lv_colorwheel.c **** static void lv_colorwheel_event(const lv_obj_class_t * class_p, lv_event_t * e)
 346:Middlewares/lvgl/src/extra/widgets/colorwheel/lv_colorwheel.c **** {
 347:Middlewares/lvgl/src/extra/widgets/colorwheel/lv_colorwheel.c ****     LV_UNUSED(class_p);
 348:Middlewares/lvgl/src/extra/widgets/colorwheel/lv_colorwheel.c **** 
 349:Middlewares/lvgl/src/extra/widgets/colorwheel/lv_colorwheel.c ****     /*Call the ancestor's event handler*/
 350:Middlewares/lvgl/src/extra/widgets/colorwheel/lv_colorwheel.c ****     lv_res_t res = lv_obj_event_base(MY_CLASS, e);
 351:Middlewares/lvgl/src/extra/widgets/colorwheel/lv_colorwheel.c **** 
 352:Middlewares/lvgl/src/extra/widgets/colorwheel/lv_colorwheel.c ****     if(res != LV_RES_OK) return;
 353:Middlewares/lvgl/src/extra/widgets/colorwheel/lv_colorwheel.c **** 
 354:Middlewares/lvgl/src/extra/widgets/colorwheel/lv_colorwheel.c ****     lv_event_code_t code = lv_event_get_code(e);
 355:Middlewares/lvgl/src/extra/widgets/colorwheel/lv_colorwheel.c ****     lv_obj_t * obj = lv_event_get_target(e);
 356:Middlewares/lvgl/src/extra/widgets/colorwheel/lv_colorwheel.c ****     lv_colorwheel_t * colorwheel = (lv_colorwheel_t *)obj;
 357:Middlewares/lvgl/src/extra/widgets/colorwheel/lv_colorwheel.c **** 
 358:Middlewares/lvgl/src/extra/widgets/colorwheel/lv_colorwheel.c ****     if(code == LV_EVENT_REFR_EXT_DRAW_SIZE) {
 359:Middlewares/lvgl/src/extra/widgets/colorwheel/lv_colorwheel.c ****         lv_coord_t left = lv_obj_get_style_pad_left(obj, LV_PART_KNOB);
 360:Middlewares/lvgl/src/extra/widgets/colorwheel/lv_colorwheel.c ****         lv_coord_t right = lv_obj_get_style_pad_right(obj, LV_PART_KNOB);
 361:Middlewares/lvgl/src/extra/widgets/colorwheel/lv_colorwheel.c ****         lv_coord_t top = lv_obj_get_style_pad_top(obj, LV_PART_KNOB);
 362:Middlewares/lvgl/src/extra/widgets/colorwheel/lv_colorwheel.c ****         lv_coord_t bottom = lv_obj_get_style_pad_bottom(obj, LV_PART_KNOB);
 363:Middlewares/lvgl/src/extra/widgets/colorwheel/lv_colorwheel.c **** 
 364:Middlewares/lvgl/src/extra/widgets/colorwheel/lv_colorwheel.c ****         lv_coord_t knob_pad = LV_MAX4(left, right, top, bottom) + 2;
 365:Middlewares/lvgl/src/extra/widgets/colorwheel/lv_colorwheel.c ****         lv_coord_t * s = lv_event_get_param(e);
 366:Middlewares/lvgl/src/extra/widgets/colorwheel/lv_colorwheel.c ****         *s = LV_MAX(*s, knob_pad);
 367:Middlewares/lvgl/src/extra/widgets/colorwheel/lv_colorwheel.c ****     }
 368:Middlewares/lvgl/src/extra/widgets/colorwheel/lv_colorwheel.c ****     else if(code == LV_EVENT_SIZE_CHANGED) {
 369:Middlewares/lvgl/src/extra/widgets/colorwheel/lv_colorwheel.c ****         void * param = lv_event_get_param(e);
 370:Middlewares/lvgl/src/extra/widgets/colorwheel/lv_colorwheel.c ****         /*Refresh extended draw area to make knob visible*/
 371:Middlewares/lvgl/src/extra/widgets/colorwheel/lv_colorwheel.c ****         if(lv_obj_get_width(obj) != lv_area_get_width(param) ||
 372:Middlewares/lvgl/src/extra/widgets/colorwheel/lv_colorwheel.c ****            lv_obj_get_height(obj) != lv_area_get_height(param)) {
ARM GAS  /tmp/ccyILfU7.s 			page 8


 373:Middlewares/lvgl/src/extra/widgets/colorwheel/lv_colorwheel.c ****             refr_knob_pos(obj);
 374:Middlewares/lvgl/src/extra/widgets/colorwheel/lv_colorwheel.c ****         }
 375:Middlewares/lvgl/src/extra/widgets/colorwheel/lv_colorwheel.c ****     }
 376:Middlewares/lvgl/src/extra/widgets/colorwheel/lv_colorwheel.c ****     else if(code == LV_EVENT_STYLE_CHANGED) {
 377:Middlewares/lvgl/src/extra/widgets/colorwheel/lv_colorwheel.c ****         /*Refresh extended draw area to make knob visible*/
 378:Middlewares/lvgl/src/extra/widgets/colorwheel/lv_colorwheel.c ****         refr_knob_pos(obj);
 379:Middlewares/lvgl/src/extra/widgets/colorwheel/lv_colorwheel.c ****     }
 380:Middlewares/lvgl/src/extra/widgets/colorwheel/lv_colorwheel.c ****     else if(code == LV_EVENT_KEY) {
 381:Middlewares/lvgl/src/extra/widgets/colorwheel/lv_colorwheel.c ****         uint32_t c = *((uint32_t *)lv_event_get_param(e)); /*uint32_t because can be UTF-8*/
 382:Middlewares/lvgl/src/extra/widgets/colorwheel/lv_colorwheel.c **** 
 383:Middlewares/lvgl/src/extra/widgets/colorwheel/lv_colorwheel.c ****         if(c == LV_KEY_RIGHT || c == LV_KEY_UP) {
 384:Middlewares/lvgl/src/extra/widgets/colorwheel/lv_colorwheel.c ****             lv_color_hsv_t hsv_cur;
 385:Middlewares/lvgl/src/extra/widgets/colorwheel/lv_colorwheel.c ****             hsv_cur = colorwheel->hsv;
 386:Middlewares/lvgl/src/extra/widgets/colorwheel/lv_colorwheel.c **** 
 387:Middlewares/lvgl/src/extra/widgets/colorwheel/lv_colorwheel.c ****             switch(colorwheel->mode) {
 388:Middlewares/lvgl/src/extra/widgets/colorwheel/lv_colorwheel.c ****                 case LV_COLORWHEEL_MODE_HUE:
 389:Middlewares/lvgl/src/extra/widgets/colorwheel/lv_colorwheel.c ****                     hsv_cur.h = (colorwheel->hsv.h + 1) % 360;
 390:Middlewares/lvgl/src/extra/widgets/colorwheel/lv_colorwheel.c ****                     break;
 391:Middlewares/lvgl/src/extra/widgets/colorwheel/lv_colorwheel.c ****                 case LV_COLORWHEEL_MODE_SATURATION:
 392:Middlewares/lvgl/src/extra/widgets/colorwheel/lv_colorwheel.c ****                     hsv_cur.s = (colorwheel->hsv.s + 1) % 100;
 393:Middlewares/lvgl/src/extra/widgets/colorwheel/lv_colorwheel.c ****                     break;
 394:Middlewares/lvgl/src/extra/widgets/colorwheel/lv_colorwheel.c ****                 case LV_COLORWHEEL_MODE_VALUE:
 395:Middlewares/lvgl/src/extra/widgets/colorwheel/lv_colorwheel.c ****                     hsv_cur.v = (colorwheel->hsv.v + 1) % 100;
 396:Middlewares/lvgl/src/extra/widgets/colorwheel/lv_colorwheel.c ****                     break;
 397:Middlewares/lvgl/src/extra/widgets/colorwheel/lv_colorwheel.c ****             }
 398:Middlewares/lvgl/src/extra/widgets/colorwheel/lv_colorwheel.c **** 
 399:Middlewares/lvgl/src/extra/widgets/colorwheel/lv_colorwheel.c ****             if(lv_colorwheel_set_hsv(obj, hsv_cur)) {
 400:Middlewares/lvgl/src/extra/widgets/colorwheel/lv_colorwheel.c ****                 res = lv_event_send(obj, LV_EVENT_VALUE_CHANGED, NULL);
 401:Middlewares/lvgl/src/extra/widgets/colorwheel/lv_colorwheel.c ****                 if(res != LV_RES_OK) return;
 402:Middlewares/lvgl/src/extra/widgets/colorwheel/lv_colorwheel.c ****             }
 403:Middlewares/lvgl/src/extra/widgets/colorwheel/lv_colorwheel.c ****         }
 404:Middlewares/lvgl/src/extra/widgets/colorwheel/lv_colorwheel.c ****         else if(c == LV_KEY_LEFT || c == LV_KEY_DOWN) {
 405:Middlewares/lvgl/src/extra/widgets/colorwheel/lv_colorwheel.c ****             lv_color_hsv_t hsv_cur;
 406:Middlewares/lvgl/src/extra/widgets/colorwheel/lv_colorwheel.c ****             hsv_cur = colorwheel->hsv;
 407:Middlewares/lvgl/src/extra/widgets/colorwheel/lv_colorwheel.c **** 
 408:Middlewares/lvgl/src/extra/widgets/colorwheel/lv_colorwheel.c ****             switch(colorwheel->mode) {
 409:Middlewares/lvgl/src/extra/widgets/colorwheel/lv_colorwheel.c ****                 case LV_COLORWHEEL_MODE_HUE:
 410:Middlewares/lvgl/src/extra/widgets/colorwheel/lv_colorwheel.c ****                     hsv_cur.h = colorwheel->hsv.h > 0 ? (colorwheel->hsv.h - 1) : 360;
 411:Middlewares/lvgl/src/extra/widgets/colorwheel/lv_colorwheel.c ****                     break;
 412:Middlewares/lvgl/src/extra/widgets/colorwheel/lv_colorwheel.c ****                 case LV_COLORWHEEL_MODE_SATURATION:
 413:Middlewares/lvgl/src/extra/widgets/colorwheel/lv_colorwheel.c ****                     hsv_cur.s = colorwheel->hsv.s > 0 ? (colorwheel->hsv.s - 1) : 100;
 414:Middlewares/lvgl/src/extra/widgets/colorwheel/lv_colorwheel.c ****                     break;
 415:Middlewares/lvgl/src/extra/widgets/colorwheel/lv_colorwheel.c ****                 case LV_COLORWHEEL_MODE_VALUE:
 416:Middlewares/lvgl/src/extra/widgets/colorwheel/lv_colorwheel.c ****                     hsv_cur.v = colorwheel->hsv.v > 0 ? (colorwheel->hsv.v - 1) : 100;
 417:Middlewares/lvgl/src/extra/widgets/colorwheel/lv_colorwheel.c ****                     break;
 418:Middlewares/lvgl/src/extra/widgets/colorwheel/lv_colorwheel.c ****             }
 419:Middlewares/lvgl/src/extra/widgets/colorwheel/lv_colorwheel.c **** 
 420:Middlewares/lvgl/src/extra/widgets/colorwheel/lv_colorwheel.c ****             if(lv_colorwheel_set_hsv(obj, hsv_cur)) {
 421:Middlewares/lvgl/src/extra/widgets/colorwheel/lv_colorwheel.c ****                 res = lv_event_send(obj, LV_EVENT_VALUE_CHANGED, NULL);
 422:Middlewares/lvgl/src/extra/widgets/colorwheel/lv_colorwheel.c ****                 if(res != LV_RES_OK) return;
 423:Middlewares/lvgl/src/extra/widgets/colorwheel/lv_colorwheel.c ****             }
 424:Middlewares/lvgl/src/extra/widgets/colorwheel/lv_colorwheel.c ****         }
 425:Middlewares/lvgl/src/extra/widgets/colorwheel/lv_colorwheel.c ****     }
 426:Middlewares/lvgl/src/extra/widgets/colorwheel/lv_colorwheel.c ****     else if(code == LV_EVENT_PRESSED) {
 427:Middlewares/lvgl/src/extra/widgets/colorwheel/lv_colorwheel.c ****         colorwheel->last_change_time = lv_tick_get();
 428:Middlewares/lvgl/src/extra/widgets/colorwheel/lv_colorwheel.c ****         lv_indev_get_point(lv_indev_get_act(), &colorwheel->last_press_point);
 429:Middlewares/lvgl/src/extra/widgets/colorwheel/lv_colorwheel.c ****         res = double_click_reset(obj);
ARM GAS  /tmp/ccyILfU7.s 			page 9


 430:Middlewares/lvgl/src/extra/widgets/colorwheel/lv_colorwheel.c ****         if(res != LV_RES_OK) return;
 431:Middlewares/lvgl/src/extra/widgets/colorwheel/lv_colorwheel.c ****     }
 432:Middlewares/lvgl/src/extra/widgets/colorwheel/lv_colorwheel.c ****     else if(code == LV_EVENT_PRESSING) {
 433:Middlewares/lvgl/src/extra/widgets/colorwheel/lv_colorwheel.c ****         lv_indev_t * indev = lv_indev_get_act();
 434:Middlewares/lvgl/src/extra/widgets/colorwheel/lv_colorwheel.c ****         if(indev == NULL) return;
 435:Middlewares/lvgl/src/extra/widgets/colorwheel/lv_colorwheel.c **** 
 436:Middlewares/lvgl/src/extra/widgets/colorwheel/lv_colorwheel.c ****         lv_indev_type_t indev_type = lv_indev_get_type(indev);
 437:Middlewares/lvgl/src/extra/widgets/colorwheel/lv_colorwheel.c ****         lv_point_t p;
 438:Middlewares/lvgl/src/extra/widgets/colorwheel/lv_colorwheel.c ****         if(indev_type == LV_INDEV_TYPE_ENCODER || indev_type == LV_INDEV_TYPE_KEYPAD) {
 439:Middlewares/lvgl/src/extra/widgets/colorwheel/lv_colorwheel.c ****             p.x = obj->coords.x1 + lv_obj_get_width(obj) / 2;
 440:Middlewares/lvgl/src/extra/widgets/colorwheel/lv_colorwheel.c ****             p.y = obj->coords.y1 + lv_obj_get_height(obj) / 2;
 441:Middlewares/lvgl/src/extra/widgets/colorwheel/lv_colorwheel.c ****         }
 442:Middlewares/lvgl/src/extra/widgets/colorwheel/lv_colorwheel.c ****         else {
 443:Middlewares/lvgl/src/extra/widgets/colorwheel/lv_colorwheel.c ****             lv_indev_get_point(indev, &p);
 444:Middlewares/lvgl/src/extra/widgets/colorwheel/lv_colorwheel.c ****         }
 445:Middlewares/lvgl/src/extra/widgets/colorwheel/lv_colorwheel.c **** 
 446:Middlewares/lvgl/src/extra/widgets/colorwheel/lv_colorwheel.c ****         lv_coord_t drag_limit = indev->driver->scroll_limit;
 447:Middlewares/lvgl/src/extra/widgets/colorwheel/lv_colorwheel.c ****         if((LV_ABS(p.x - colorwheel->last_press_point.x) > drag_limit) ||
 448:Middlewares/lvgl/src/extra/widgets/colorwheel/lv_colorwheel.c ****            (LV_ABS(p.y - colorwheel->last_press_point.y) > drag_limit)) {
 449:Middlewares/lvgl/src/extra/widgets/colorwheel/lv_colorwheel.c ****             colorwheel->last_change_time = lv_tick_get();
 450:Middlewares/lvgl/src/extra/widgets/colorwheel/lv_colorwheel.c ****             colorwheel->last_press_point.x = p.x;
 451:Middlewares/lvgl/src/extra/widgets/colorwheel/lv_colorwheel.c ****             colorwheel->last_press_point.y = p.y;
 452:Middlewares/lvgl/src/extra/widgets/colorwheel/lv_colorwheel.c ****         }
 453:Middlewares/lvgl/src/extra/widgets/colorwheel/lv_colorwheel.c **** 
 454:Middlewares/lvgl/src/extra/widgets/colorwheel/lv_colorwheel.c ****         p.x -= obj->coords.x1;
 455:Middlewares/lvgl/src/extra/widgets/colorwheel/lv_colorwheel.c ****         p.y -= obj->coords.y1;
 456:Middlewares/lvgl/src/extra/widgets/colorwheel/lv_colorwheel.c **** 
 457:Middlewares/lvgl/src/extra/widgets/colorwheel/lv_colorwheel.c ****         /*Ignore pressing in the inner area*/
 458:Middlewares/lvgl/src/extra/widgets/colorwheel/lv_colorwheel.c ****         uint16_t w = lv_obj_get_width(obj);
 459:Middlewares/lvgl/src/extra/widgets/colorwheel/lv_colorwheel.c **** 
 460:Middlewares/lvgl/src/extra/widgets/colorwheel/lv_colorwheel.c ****         int16_t angle = 0;
 461:Middlewares/lvgl/src/extra/widgets/colorwheel/lv_colorwheel.c ****         lv_coord_t cir_w = lv_obj_get_style_arc_width(obj, LV_PART_MAIN);
 462:Middlewares/lvgl/src/extra/widgets/colorwheel/lv_colorwheel.c **** 
 463:Middlewares/lvgl/src/extra/widgets/colorwheel/lv_colorwheel.c ****         lv_coord_t r_in = w / 2;
 464:Middlewares/lvgl/src/extra/widgets/colorwheel/lv_colorwheel.c ****         p.x -= r_in;
 465:Middlewares/lvgl/src/extra/widgets/colorwheel/lv_colorwheel.c ****         p.y -= r_in;
 466:Middlewares/lvgl/src/extra/widgets/colorwheel/lv_colorwheel.c ****         bool on_ring = true;
 467:Middlewares/lvgl/src/extra/widgets/colorwheel/lv_colorwheel.c ****         r_in -= cir_w;
 468:Middlewares/lvgl/src/extra/widgets/colorwheel/lv_colorwheel.c ****         if(r_in > LV_DPI_DEF / 2) {
 469:Middlewares/lvgl/src/extra/widgets/colorwheel/lv_colorwheel.c ****             lv_coord_t inner = cir_w / 2;
 470:Middlewares/lvgl/src/extra/widgets/colorwheel/lv_colorwheel.c ****             r_in -= inner;
 471:Middlewares/lvgl/src/extra/widgets/colorwheel/lv_colorwheel.c **** 
 472:Middlewares/lvgl/src/extra/widgets/colorwheel/lv_colorwheel.c ****             if(r_in < LV_DPI_DEF / 2) r_in = LV_DPI_DEF / 2;
 473:Middlewares/lvgl/src/extra/widgets/colorwheel/lv_colorwheel.c ****         }
 474:Middlewares/lvgl/src/extra/widgets/colorwheel/lv_colorwheel.c **** 
 475:Middlewares/lvgl/src/extra/widgets/colorwheel/lv_colorwheel.c ****         if(p.x * p.x + p.y * p.y < r_in * r_in) {
 476:Middlewares/lvgl/src/extra/widgets/colorwheel/lv_colorwheel.c ****             on_ring = false;
 477:Middlewares/lvgl/src/extra/widgets/colorwheel/lv_colorwheel.c ****         }
 478:Middlewares/lvgl/src/extra/widgets/colorwheel/lv_colorwheel.c **** 
 479:Middlewares/lvgl/src/extra/widgets/colorwheel/lv_colorwheel.c ****         /*If the inner area is being pressed, go to the next color mode on long press*/
 480:Middlewares/lvgl/src/extra/widgets/colorwheel/lv_colorwheel.c ****         uint32_t diff = lv_tick_elaps(colorwheel->last_change_time);
 481:Middlewares/lvgl/src/extra/widgets/colorwheel/lv_colorwheel.c ****         if(!on_ring && diff > indev->driver->long_press_time && !colorwheel->mode_fixed) {
 482:Middlewares/lvgl/src/extra/widgets/colorwheel/lv_colorwheel.c ****             next_color_mode(obj);
 483:Middlewares/lvgl/src/extra/widgets/colorwheel/lv_colorwheel.c ****             lv_indev_wait_release(lv_indev_get_act());
 484:Middlewares/lvgl/src/extra/widgets/colorwheel/lv_colorwheel.c ****             return;
 485:Middlewares/lvgl/src/extra/widgets/colorwheel/lv_colorwheel.c ****         }
 486:Middlewares/lvgl/src/extra/widgets/colorwheel/lv_colorwheel.c **** 
ARM GAS  /tmp/ccyILfU7.s 			page 10


 487:Middlewares/lvgl/src/extra/widgets/colorwheel/lv_colorwheel.c ****         /*Set the angle only if pressed on the ring*/
 488:Middlewares/lvgl/src/extra/widgets/colorwheel/lv_colorwheel.c ****         if(!on_ring) return;
 489:Middlewares/lvgl/src/extra/widgets/colorwheel/lv_colorwheel.c **** 
 490:Middlewares/lvgl/src/extra/widgets/colorwheel/lv_colorwheel.c ****         angle = lv_atan2(p.x, p.y) % 360;
 491:Middlewares/lvgl/src/extra/widgets/colorwheel/lv_colorwheel.c **** 
 492:Middlewares/lvgl/src/extra/widgets/colorwheel/lv_colorwheel.c ****         lv_color_hsv_t hsv_cur;
 493:Middlewares/lvgl/src/extra/widgets/colorwheel/lv_colorwheel.c ****         hsv_cur = colorwheel->hsv;
 494:Middlewares/lvgl/src/extra/widgets/colorwheel/lv_colorwheel.c **** 
 495:Middlewares/lvgl/src/extra/widgets/colorwheel/lv_colorwheel.c ****         switch(colorwheel->mode) {
 496:Middlewares/lvgl/src/extra/widgets/colorwheel/lv_colorwheel.c ****             case LV_COLORWHEEL_MODE_HUE:
 497:Middlewares/lvgl/src/extra/widgets/colorwheel/lv_colorwheel.c ****                 hsv_cur.h = angle;
 498:Middlewares/lvgl/src/extra/widgets/colorwheel/lv_colorwheel.c ****                 break;
 499:Middlewares/lvgl/src/extra/widgets/colorwheel/lv_colorwheel.c ****             case LV_COLORWHEEL_MODE_SATURATION:
 500:Middlewares/lvgl/src/extra/widgets/colorwheel/lv_colorwheel.c ****                 hsv_cur.s = (angle * 100) / 360;
 501:Middlewares/lvgl/src/extra/widgets/colorwheel/lv_colorwheel.c ****                 break;
 502:Middlewares/lvgl/src/extra/widgets/colorwheel/lv_colorwheel.c ****             case LV_COLORWHEEL_MODE_VALUE:
 503:Middlewares/lvgl/src/extra/widgets/colorwheel/lv_colorwheel.c ****                 hsv_cur.v = (angle * 100) / 360;
 504:Middlewares/lvgl/src/extra/widgets/colorwheel/lv_colorwheel.c ****                 break;
 505:Middlewares/lvgl/src/extra/widgets/colorwheel/lv_colorwheel.c ****         }
 506:Middlewares/lvgl/src/extra/widgets/colorwheel/lv_colorwheel.c **** 
 507:Middlewares/lvgl/src/extra/widgets/colorwheel/lv_colorwheel.c ****         if(lv_colorwheel_set_hsv(obj, hsv_cur)) {
 508:Middlewares/lvgl/src/extra/widgets/colorwheel/lv_colorwheel.c ****             res = lv_event_send(obj, LV_EVENT_VALUE_CHANGED, NULL);
 509:Middlewares/lvgl/src/extra/widgets/colorwheel/lv_colorwheel.c ****             if(res != LV_RES_OK) return;
 510:Middlewares/lvgl/src/extra/widgets/colorwheel/lv_colorwheel.c ****         }
 511:Middlewares/lvgl/src/extra/widgets/colorwheel/lv_colorwheel.c ****     }
 512:Middlewares/lvgl/src/extra/widgets/colorwheel/lv_colorwheel.c ****     else if(code == LV_EVENT_HIT_TEST) {
 513:Middlewares/lvgl/src/extra/widgets/colorwheel/lv_colorwheel.c ****         lv_hit_test_info_t * info = lv_event_get_param(e);;
 514:Middlewares/lvgl/src/extra/widgets/colorwheel/lv_colorwheel.c **** 
 515:Middlewares/lvgl/src/extra/widgets/colorwheel/lv_colorwheel.c ****         /*Valid clicks can be only in the circle*/
 516:Middlewares/lvgl/src/extra/widgets/colorwheel/lv_colorwheel.c ****         info->res = _lv_area_is_point_on(&obj->coords, info->point, LV_RADIUS_CIRCLE);
 517:Middlewares/lvgl/src/extra/widgets/colorwheel/lv_colorwheel.c ****     }
 518:Middlewares/lvgl/src/extra/widgets/colorwheel/lv_colorwheel.c ****     else if(code == LV_EVENT_DRAW_MAIN) {
 519:Middlewares/lvgl/src/extra/widgets/colorwheel/lv_colorwheel.c ****         draw_disc_grad(e);
 520:Middlewares/lvgl/src/extra/widgets/colorwheel/lv_colorwheel.c ****         draw_knob(e);
 521:Middlewares/lvgl/src/extra/widgets/colorwheel/lv_colorwheel.c ****     }
 522:Middlewares/lvgl/src/extra/widgets/colorwheel/lv_colorwheel.c ****     else if(code == LV_EVENT_COVER_CHECK) {
 523:Middlewares/lvgl/src/extra/widgets/colorwheel/lv_colorwheel.c ****         lv_cover_check_info_t * info = lv_event_get_param(e);
 524:Middlewares/lvgl/src/extra/widgets/colorwheel/lv_colorwheel.c ****         if(info->res != LV_COVER_RES_MASKED) info->res = LV_COVER_RES_NOT_COVER;
 525:Middlewares/lvgl/src/extra/widgets/colorwheel/lv_colorwheel.c ****     }
 526:Middlewares/lvgl/src/extra/widgets/colorwheel/lv_colorwheel.c **** }
 527:Middlewares/lvgl/src/extra/widgets/colorwheel/lv_colorwheel.c **** 
 528:Middlewares/lvgl/src/extra/widgets/colorwheel/lv_colorwheel.c **** 
 529:Middlewares/lvgl/src/extra/widgets/colorwheel/lv_colorwheel.c **** 
 530:Middlewares/lvgl/src/extra/widgets/colorwheel/lv_colorwheel.c **** static void next_color_mode(lv_obj_t * obj)
 531:Middlewares/lvgl/src/extra/widgets/colorwheel/lv_colorwheel.c **** {
 532:Middlewares/lvgl/src/extra/widgets/colorwheel/lv_colorwheel.c ****     lv_colorwheel_t * colorwheel = (lv_colorwheel_t *)obj;
 533:Middlewares/lvgl/src/extra/widgets/colorwheel/lv_colorwheel.c ****     colorwheel->mode = (colorwheel->mode + 1) % 3;
 534:Middlewares/lvgl/src/extra/widgets/colorwheel/lv_colorwheel.c ****     refr_knob_pos(obj);
 535:Middlewares/lvgl/src/extra/widgets/colorwheel/lv_colorwheel.c ****     lv_obj_invalidate(obj);
 536:Middlewares/lvgl/src/extra/widgets/colorwheel/lv_colorwheel.c **** }
 537:Middlewares/lvgl/src/extra/widgets/colorwheel/lv_colorwheel.c **** 
 538:Middlewares/lvgl/src/extra/widgets/colorwheel/lv_colorwheel.c **** static void refr_knob_pos(lv_obj_t * obj)
 539:Middlewares/lvgl/src/extra/widgets/colorwheel/lv_colorwheel.c **** {
 540:Middlewares/lvgl/src/extra/widgets/colorwheel/lv_colorwheel.c ****     invalidate_knob(obj);
 541:Middlewares/lvgl/src/extra/widgets/colorwheel/lv_colorwheel.c **** 
 542:Middlewares/lvgl/src/extra/widgets/colorwheel/lv_colorwheel.c ****     lv_colorwheel_t * colorwheel = (lv_colorwheel_t *)obj;
 543:Middlewares/lvgl/src/extra/widgets/colorwheel/lv_colorwheel.c ****     lv_coord_t w = lv_obj_get_width(obj);
ARM GAS  /tmp/ccyILfU7.s 			page 11


 544:Middlewares/lvgl/src/extra/widgets/colorwheel/lv_colorwheel.c **** 
 545:Middlewares/lvgl/src/extra/widgets/colorwheel/lv_colorwheel.c ****     lv_coord_t scale_w = lv_obj_get_style_arc_width(obj, LV_PART_MAIN);
 546:Middlewares/lvgl/src/extra/widgets/colorwheel/lv_colorwheel.c ****     lv_coord_t r = (w - scale_w) / 2;
 547:Middlewares/lvgl/src/extra/widgets/colorwheel/lv_colorwheel.c ****     uint16_t angle = get_angle(obj);
 548:Middlewares/lvgl/src/extra/widgets/colorwheel/lv_colorwheel.c ****     colorwheel->knob.pos.x = (((int32_t)r * lv_trigo_sin(angle)) >> LV_TRIGO_SHIFT);
 549:Middlewares/lvgl/src/extra/widgets/colorwheel/lv_colorwheel.c ****     colorwheel->knob.pos.y = (((int32_t)r * lv_trigo_cos(angle)) >> LV_TRIGO_SHIFT);
 550:Middlewares/lvgl/src/extra/widgets/colorwheel/lv_colorwheel.c ****     colorwheel->knob.pos.x = colorwheel->knob.pos.x + w / 2;
 551:Middlewares/lvgl/src/extra/widgets/colorwheel/lv_colorwheel.c ****     colorwheel->knob.pos.y = colorwheel->knob.pos.y + w / 2;
 552:Middlewares/lvgl/src/extra/widgets/colorwheel/lv_colorwheel.c **** 
 553:Middlewares/lvgl/src/extra/widgets/colorwheel/lv_colorwheel.c ****     invalidate_knob(obj);
 554:Middlewares/lvgl/src/extra/widgets/colorwheel/lv_colorwheel.c **** }
 555:Middlewares/lvgl/src/extra/widgets/colorwheel/lv_colorwheel.c **** 
 556:Middlewares/lvgl/src/extra/widgets/colorwheel/lv_colorwheel.c **** static lv_res_t double_click_reset(lv_obj_t * obj)
 557:Middlewares/lvgl/src/extra/widgets/colorwheel/lv_colorwheel.c **** {
 558:Middlewares/lvgl/src/extra/widgets/colorwheel/lv_colorwheel.c ****     lv_colorwheel_t * colorwheel = (lv_colorwheel_t *)obj;
 559:Middlewares/lvgl/src/extra/widgets/colorwheel/lv_colorwheel.c ****     lv_indev_t * indev = lv_indev_get_act();
 560:Middlewares/lvgl/src/extra/widgets/colorwheel/lv_colorwheel.c ****     /*Double clicked? Use long press time as double click time out*/
 561:Middlewares/lvgl/src/extra/widgets/colorwheel/lv_colorwheel.c ****     if(lv_tick_elaps(colorwheel->last_click_time) < indev->driver->long_press_time) {
 562:Middlewares/lvgl/src/extra/widgets/colorwheel/lv_colorwheel.c ****         lv_color_hsv_t hsv_cur;
 563:Middlewares/lvgl/src/extra/widgets/colorwheel/lv_colorwheel.c ****         hsv_cur = colorwheel->hsv;
 564:Middlewares/lvgl/src/extra/widgets/colorwheel/lv_colorwheel.c **** 
 565:Middlewares/lvgl/src/extra/widgets/colorwheel/lv_colorwheel.c ****         switch(colorwheel->mode) {
 566:Middlewares/lvgl/src/extra/widgets/colorwheel/lv_colorwheel.c ****             case LV_COLORWHEEL_MODE_HUE:
 567:Middlewares/lvgl/src/extra/widgets/colorwheel/lv_colorwheel.c ****                 hsv_cur.h = 0;
 568:Middlewares/lvgl/src/extra/widgets/colorwheel/lv_colorwheel.c ****                 break;
 569:Middlewares/lvgl/src/extra/widgets/colorwheel/lv_colorwheel.c ****             case LV_COLORWHEEL_MODE_SATURATION:
 570:Middlewares/lvgl/src/extra/widgets/colorwheel/lv_colorwheel.c ****                 hsv_cur.s = 100;
 571:Middlewares/lvgl/src/extra/widgets/colorwheel/lv_colorwheel.c ****                 break;
 572:Middlewares/lvgl/src/extra/widgets/colorwheel/lv_colorwheel.c ****             case LV_COLORWHEEL_MODE_VALUE:
 573:Middlewares/lvgl/src/extra/widgets/colorwheel/lv_colorwheel.c ****                 hsv_cur.v = 100;
 574:Middlewares/lvgl/src/extra/widgets/colorwheel/lv_colorwheel.c ****                 break;
 575:Middlewares/lvgl/src/extra/widgets/colorwheel/lv_colorwheel.c ****         }
 576:Middlewares/lvgl/src/extra/widgets/colorwheel/lv_colorwheel.c **** 
 577:Middlewares/lvgl/src/extra/widgets/colorwheel/lv_colorwheel.c ****         lv_indev_wait_release(indev);
 578:Middlewares/lvgl/src/extra/widgets/colorwheel/lv_colorwheel.c **** 
 579:Middlewares/lvgl/src/extra/widgets/colorwheel/lv_colorwheel.c ****         if(lv_colorwheel_set_hsv(obj, hsv_cur)) {
 580:Middlewares/lvgl/src/extra/widgets/colorwheel/lv_colorwheel.c ****             lv_res_t res = lv_event_send(obj, LV_EVENT_VALUE_CHANGED, NULL);
 581:Middlewares/lvgl/src/extra/widgets/colorwheel/lv_colorwheel.c ****             if(res != LV_RES_OK) return res;
 582:Middlewares/lvgl/src/extra/widgets/colorwheel/lv_colorwheel.c ****         }
 583:Middlewares/lvgl/src/extra/widgets/colorwheel/lv_colorwheel.c ****     }
 584:Middlewares/lvgl/src/extra/widgets/colorwheel/lv_colorwheel.c ****     colorwheel->last_click_time = lv_tick_get();
 585:Middlewares/lvgl/src/extra/widgets/colorwheel/lv_colorwheel.c **** 
 586:Middlewares/lvgl/src/extra/widgets/colorwheel/lv_colorwheel.c ****     return LV_RES_OK;
 587:Middlewares/lvgl/src/extra/widgets/colorwheel/lv_colorwheel.c **** }
 588:Middlewares/lvgl/src/extra/widgets/colorwheel/lv_colorwheel.c **** 
 589:Middlewares/lvgl/src/extra/widgets/colorwheel/lv_colorwheel.c **** #define SWAPPTR(A, B) do { uint8_t * t = A; A = B; B = t; } while(0)
 590:Middlewares/lvgl/src/extra/widgets/colorwheel/lv_colorwheel.c **** #define HSV_PTR_SWAP(sextant,r,g,b)     if((sextant) & 2) { SWAPPTR((r), (b)); } if((sextant) & 4) 
 591:Middlewares/lvgl/src/extra/widgets/colorwheel/lv_colorwheel.c ****                                                 if(!((sextant) & 1)) { SWAPPTR((r), (g)); } } else 
 592:Middlewares/lvgl/src/extra/widgets/colorwheel/lv_colorwheel.c **** 
 593:Middlewares/lvgl/src/extra/widgets/colorwheel/lv_colorwheel.c **** /**
 594:Middlewares/lvgl/src/extra/widgets/colorwheel/lv_colorwheel.c ****  * Based on the idea from https://www.vagrearg.org/content/hsvrgb
 595:Middlewares/lvgl/src/extra/widgets/colorwheel/lv_colorwheel.c ****  * Here we want to compute an approximate RGB value from a HSV input color space. We don't want to 
 596:Middlewares/lvgl/src/extra/widgets/colorwheel/lv_colorwheel.c ****  * (for that, there's lv_color_hsv_to_rgb), but we want to be fast.
 597:Middlewares/lvgl/src/extra/widgets/colorwheel/lv_colorwheel.c ****  *
 598:Middlewares/lvgl/src/extra/widgets/colorwheel/lv_colorwheel.c ****  * Few tricks are used here: Hue is in range [0; 6 * 256] (so that the sextant is in the high byte 
 599:Middlewares/lvgl/src/extra/widgets/colorwheel/lv_colorwheel.c ****  * both s and v are in [0; 255] range (very convenient to avoid divisions).
 600:Middlewares/lvgl/src/extra/widgets/colorwheel/lv_colorwheel.c ****  *
ARM GAS  /tmp/ccyILfU7.s 			page 12


 601:Middlewares/lvgl/src/extra/widgets/colorwheel/lv_colorwheel.c ****  * We fold all symmetry by swapping the R, G, B pointers so that the code is the same for all sexta
 602:Middlewares/lvgl/src/extra/widgets/colorwheel/lv_colorwheel.c ****  * We replace division by 255 by a division by 256, a.k.a a shift right by 8 bits.
 603:Middlewares/lvgl/src/extra/widgets/colorwheel/lv_colorwheel.c ****  * This is wrong, but since this is only used to compute the pixels on the screen and not the final
 604:Middlewares/lvgl/src/extra/widgets/colorwheel/lv_colorwheel.c ****  */
 605:Middlewares/lvgl/src/extra/widgets/colorwheel/lv_colorwheel.c **** static void fast_hsv2rgb(uint16_t h, uint8_t s, uint8_t v, uint8_t *r, uint8_t *g , uint8_t *b);
 606:Middlewares/lvgl/src/extra/widgets/colorwheel/lv_colorwheel.c **** static void fast_hsv2rgb(uint16_t h, uint8_t s, uint8_t v, uint8_t *r, uint8_t *g , uint8_t *b)
 607:Middlewares/lvgl/src/extra/widgets/colorwheel/lv_colorwheel.c **** {
  29              		.loc 1 607 1 view -0
  30              		.cfi_startproc
  31              		@ args = 8, pretend = 0, frame = 0
  32              		@ frame_needed = 0, uses_anonymous_args = 0
  33              		.loc 1 607 1 is_stmt 0 view .LVU1
  34 0000 70B5     		push	{r4, r5, r6, lr}
  35              	.LCFI0:
  36              		.cfi_def_cfa_offset 16
  37              		.cfi_offset 4, -16
  38              		.cfi_offset 5, -12
  39              		.cfi_offset 6, -8
  40              		.cfi_offset 14, -4
  41 0002 049C     		ldr	r4, [sp, #16]
  42 0004 059E     		ldr	r6, [sp, #20]
 608:Middlewares/lvgl/src/extra/widgets/colorwheel/lv_colorwheel.c ****     if (!s) { *r = *g = *b = v; return; }
  43              		.loc 1 608 5 is_stmt 1 view .LVU2
  44              		.loc 1 608 8 is_stmt 0 view .LVU3
  45 0006 41B3     		cbz	r1, .L12
  46 0008 8C46     		mov	ip, r1
 609:Middlewares/lvgl/src/extra/widgets/colorwheel/lv_colorwheel.c **** 
 610:Middlewares/lvgl/src/extra/widgets/colorwheel/lv_colorwheel.c ****     uint8_t sextant = h >> 8;
  47              		.loc 1 610 5 is_stmt 1 view .LVU4
  48              		.loc 1 610 13 is_stmt 0 view .LVU5
  49 000a 050A     		lsrs	r5, r0, #8
  50              	.LVL1:
 611:Middlewares/lvgl/src/extra/widgets/colorwheel/lv_colorwheel.c ****     HSV_PTR_SWAP(sextant, r, g, b); /*Swap pointers so the conversion code is the same*/
  51              		.loc 1 611 5 is_stmt 1 view .LVU6
  52 000c 10F4007F 		tst	r0, #512
  53 0010 02D1     		bne	.L4
  54 0012 3146     		mov	r1, r6
  55              	.LVL2:
  56              		.loc 1 611 5 is_stmt 0 view .LVU7
  57 0014 1E46     		mov	r6, r3
  58 0016 0B46     		mov	r3, r1
  59              	.LVL3:
  60              	.L4:
  61              		.loc 1 611 5 is_stmt 1 discriminator 3 view .LVU8
  62              		.loc 1 611 5 discriminator 3 view .LVU9
  63 0018 15F0040F 		tst	r5, #4
  64 001c 02D1     		bne	.L5
  65              		.loc 1 611 5 is_stmt 0 view .LVU10
  66 001e 1946     		mov	r1, r3
  67 0020 2346     		mov	r3, r4
  68              	.LVL4:
  69              		.loc 1 611 5 view .LVU11
  70 0022 0C46     		mov	r4, r1
  71              	.LVL5:
  72              	.L5:
  73              		.loc 1 611 5 is_stmt 1 discriminator 6 view .LVU12
  74              		.loc 1 611 5 discriminator 6 view .LVU13
ARM GAS  /tmp/ccyILfU7.s 			page 13


  75 0024 15F0060F 		tst	r5, #6
  76 0028 1BD1     		bne	.L6
  77              		.loc 1 611 5 discriminator 7 view .LVU14
  78 002a 15F0010F 		tst	r5, #1
  79 002e 02D0     		beq	.L7
  80              		.loc 1 611 5 is_stmt 0 view .LVU15
  81 0030 1946     		mov	r1, r3
  82 0032 3346     		mov	r3, r6
  83              	.LVL6:
  84              		.loc 1 611 5 view .LVU16
  85 0034 0E46     		mov	r6, r1
  86              	.LVL7:
  87              	.L7:
  88              		.loc 1 611 5 is_stmt 1 discriminator 14 view .LVU17
  89              		.loc 1 611 35 discriminator 14 view .LVU18
 612:Middlewares/lvgl/src/extra/widgets/colorwheel/lv_colorwheel.c **** 
 613:Middlewares/lvgl/src/extra/widgets/colorwheel/lv_colorwheel.c ****     *g = v;
  90              		.loc 1 613 5 discriminator 14 view .LVU19
  91              		.loc 1 613 8 is_stmt 0 discriminator 14 view .LVU20
  92 0036 3270     		strb	r2, [r6]
 614:Middlewares/lvgl/src/extra/widgets/colorwheel/lv_colorwheel.c **** 
 615:Middlewares/lvgl/src/extra/widgets/colorwheel/lv_colorwheel.c ****     uint8_t bb = ~s;
  93              		.loc 1 615 5 is_stmt 1 discriminator 14 view .LVU21
  94              		.loc 1 615 13 is_stmt 0 discriminator 14 view .LVU22
  95 0038 6FEA0C01 		mvn	r1, ip
 616:Middlewares/lvgl/src/extra/widgets/colorwheel/lv_colorwheel.c ****     uint16_t ww = v * bb; /*Don't try to be precise, but instead, be fast*/
  96              		.loc 1 616 5 is_stmt 1 discriminator 14 view .LVU23
  97              		.loc 1 616 21 is_stmt 0 discriminator 14 view .LVU24
  98 003c 1FFA82FE 		uxth	lr, r2
  99 0040 C9B2     		uxtb	r1, r1
 100              		.loc 1 616 14 discriminator 14 view .LVU25
 101 0042 02FB01F1 		mul	r1, r2, r1
 102              	.LVL8:
 617:Middlewares/lvgl/src/extra/widgets/colorwheel/lv_colorwheel.c ****     *b = ww >> 8;
 103              		.loc 1 617 5 is_stmt 1 discriminator 14 view .LVU26
 104              		.loc 1 617 8 is_stmt 0 discriminator 14 view .LVU27
 105 0046 090A     		lsrs	r1, r1, #8
 106              	.LVL9:
 107              		.loc 1 617 8 discriminator 14 view .LVU28
 108 0048 2170     		strb	r1, [r4]
 618:Middlewares/lvgl/src/extra/widgets/colorwheel/lv_colorwheel.c **** 
 619:Middlewares/lvgl/src/extra/widgets/colorwheel/lv_colorwheel.c ****     uint8_t h_frac = h & 0xff;
 109              		.loc 1 619 5 is_stmt 1 discriminator 14 view .LVU29
 110              		.loc 1 619 13 is_stmt 0 discriminator 14 view .LVU30
 111 004a C2B2     		uxtb	r2, r0
 112              	.LVL10:
 620:Middlewares/lvgl/src/extra/widgets/colorwheel/lv_colorwheel.c **** 
 621:Middlewares/lvgl/src/extra/widgets/colorwheel/lv_colorwheel.c ****     if(!(sextant & 1)) {
 113              		.loc 1 621 5 is_stmt 1 discriminator 14 view .LVU31
 114              		.loc 1 621 7 is_stmt 0 discriminator 14 view .LVU32
 115 004c 15F0010F 		tst	r5, #1
 116 0050 13D1     		bne	.L8
 622:Middlewares/lvgl/src/extra/widgets/colorwheel/lv_colorwheel.c ****         /*Up slope*/
 623:Middlewares/lvgl/src/extra/widgets/colorwheel/lv_colorwheel.c ****         ww = !h_frac ? ((uint16_t)s << 8) : (s * (uint8_t)(-h_frac)); /*Skip multiply if not requir
 117              		.loc 1 623 9 is_stmt 1 view .LVU33
 118              		.loc 1 623 12 is_stmt 0 view .LVU34
 119 0052 6AB9     		cbnz	r2, .L9
ARM GAS  /tmp/ccyILfU7.s 			page 14


 120              		.loc 1 623 12 discriminator 1 view .LVU35
 121 0054 4FEA0C22 		lsl	r2, ip, #8
 122              	.LVL11:
 123              		.loc 1 623 12 discriminator 1 view .LVU36
 124 0058 12E0     		b	.L10
 125              	.LVL12:
 126              	.L12:
 608:Middlewares/lvgl/src/extra/widgets/colorwheel/lv_colorwheel.c **** 
 127              		.loc 1 608 15 is_stmt 1 discriminator 1 view .LVU37
 608:Middlewares/lvgl/src/extra/widgets/colorwheel/lv_colorwheel.c **** 
 128              		.loc 1 608 28 is_stmt 0 discriminator 1 view .LVU38
 129 005a 3270     		strb	r2, [r6]
 608:Middlewares/lvgl/src/extra/widgets/colorwheel/lv_colorwheel.c **** 
 130              		.loc 1 608 23 discriminator 1 view .LVU39
 131 005c 2270     		strb	r2, [r4]
 608:Middlewares/lvgl/src/extra/widgets/colorwheel/lv_colorwheel.c **** 
 132              		.loc 1 608 18 discriminator 1 view .LVU40
 133 005e 1A70     		strb	r2, [r3]
 608:Middlewares/lvgl/src/extra/widgets/colorwheel/lv_colorwheel.c **** 
 134              		.loc 1 608 33 is_stmt 1 discriminator 1 view .LVU41
 135 0060 15E0     		b	.L1
 136              	.LVL13:
 137              	.L6:
 611:Middlewares/lvgl/src/extra/widgets/colorwheel/lv_colorwheel.c **** 
 138              		.loc 1 611 5 discriminator 8 view .LVU42
 139 0062 15F0010F 		tst	r5, #1
 140 0066 E6D1     		bne	.L7
 611:Middlewares/lvgl/src/extra/widgets/colorwheel/lv_colorwheel.c **** 
 141              		.loc 1 611 5 is_stmt 0 view .LVU43
 142 0068 1946     		mov	r1, r3
 143 006a 3346     		mov	r3, r6
 144              	.LVL14:
 611:Middlewares/lvgl/src/extra/widgets/colorwheel/lv_colorwheel.c **** 
 145              		.loc 1 611 5 view .LVU44
 146 006c 0E46     		mov	r6, r1
 147              	.LVL15:
 611:Middlewares/lvgl/src/extra/widgets/colorwheel/lv_colorwheel.c **** 
 148              		.loc 1 611 5 view .LVU45
 149 006e E2E7     		b	.L7
 150              	.LVL16:
 151              	.L9:
 152              		.loc 1 623 50 discriminator 2 view .LVU46
 153 0070 5242     		rsbs	r2, r2, #0
 154              	.LVL17:
 155              		.loc 1 623 50 discriminator 2 view .LVU47
 156 0072 D2B2     		uxtb	r2, r2
 157              	.LVL18:
 158              		.loc 1 623 12 discriminator 2 view .LVU48
 159 0074 0CFB02F2 		mul	r2, ip, r2
 160 0078 02E0     		b	.L10
 161              	.LVL19:
 162              	.L8:
 624:Middlewares/lvgl/src/extra/widgets/colorwheel/lv_colorwheel.c ****     } else {
 625:Middlewares/lvgl/src/extra/widgets/colorwheel/lv_colorwheel.c ****         /*Down slope*/
 626:Middlewares/lvgl/src/extra/widgets/colorwheel/lv_colorwheel.c ****         ww = s * h_frac;
 163              		.loc 1 626 9 is_stmt 1 view .LVU49
 164              		.loc 1 626 12 is_stmt 0 view .LVU50
ARM GAS  /tmp/ccyILfU7.s 			page 15


 165 007a C2B2     		uxtb	r2, r0
 166              	.LVL20:
 167              		.loc 1 626 12 view .LVU51
 168 007c 02FB0CF2 		mul	r2, r2, ip
 169              	.LVL21:
 170              	.L10:
 627:Middlewares/lvgl/src/extra/widgets/colorwheel/lv_colorwheel.c ****     }
 628:Middlewares/lvgl/src/extra/widgets/colorwheel/lv_colorwheel.c ****     bb = ww >> 8;
 171              		.loc 1 628 5 is_stmt 1 view .LVU52
 629:Middlewares/lvgl/src/extra/widgets/colorwheel/lv_colorwheel.c ****     bb = ~bb;
 172              		.loc 1 629 5 view .LVU53
 173              		.loc 1 629 8 is_stmt 0 view .LVU54
 174 0080 6FEA1222 		mvn	r2, r2, lsr #8
 175              	.LVL22:
 630:Middlewares/lvgl/src/extra/widgets/colorwheel/lv_colorwheel.c ****     ww = v * bb;
 176              		.loc 1 630 5 is_stmt 1 view .LVU55
 177              		.loc 1 630 12 is_stmt 0 view .LVU56
 178 0084 D2B2     		uxtb	r2, r2
 179              		.loc 1 630 8 view .LVU57
 180 0086 0EFB02F2 		mul	r2, lr, r2
 181              	.LVL23:
 631:Middlewares/lvgl/src/extra/widgets/colorwheel/lv_colorwheel.c ****     *r = ww >> 8;
 182              		.loc 1 631 5 is_stmt 1 view .LVU58
 183              		.loc 1 631 8 is_stmt 0 view .LVU59
 184 008a 120A     		lsrs	r2, r2, #8
 185              	.LVL24:
 186              		.loc 1 631 8 view .LVU60
 187 008c 1A70     		strb	r2, [r3]
 188              	.LVL25:
 189              	.L1:
 632:Middlewares/lvgl/src/extra/widgets/colorwheel/lv_colorwheel.c **** }
 190              		.loc 1 632 1 view .LVU61
 191 008e 70BD     		pop	{r4, r5, r6, pc}
 192              		.cfi_endproc
 193              	.LFE202:
 195              		.section	.text.angle_to_mode_color_fast,"ax",%progbits
 196              		.align	1
 197              		.syntax unified
 198              		.thumb
 199              		.thumb_func
 200              		.fpu fpv4-sp-d16
 202              	angle_to_mode_color_fast:
 203              	.LVL26:
 204              	.LFB203:
 633:Middlewares/lvgl/src/extra/widgets/colorwheel/lv_colorwheel.c **** 
 634:Middlewares/lvgl/src/extra/widgets/colorwheel/lv_colorwheel.c **** static lv_color_t angle_to_mode_color_fast(lv_obj_t * obj, uint16_t angle)
 635:Middlewares/lvgl/src/extra/widgets/colorwheel/lv_colorwheel.c **** {
 205              		.loc 1 635 1 is_stmt 1 view -0
 206              		.cfi_startproc
 207              		@ args = 0, pretend = 0, frame = 8
 208              		@ frame_needed = 0, uses_anonymous_args = 0
 209              		.loc 1 635 1 is_stmt 0 view .LVU63
 210 0000 10B5     		push	{r4, lr}
 211              	.LCFI1:
 212              		.cfi_def_cfa_offset 8
 213              		.cfi_offset 4, -8
 214              		.cfi_offset 14, -4
ARM GAS  /tmp/ccyILfU7.s 			page 16


 215 0002 84B0     		sub	sp, sp, #16
 216              	.LCFI2:
 217              		.cfi_def_cfa_offset 24
 636:Middlewares/lvgl/src/extra/widgets/colorwheel/lv_colorwheel.c ****     lv_colorwheel_t * ext = (lv_colorwheel_t*)obj;
 218              		.loc 1 636 5 is_stmt 1 view .LVU64
 219              	.LVL27:
 637:Middlewares/lvgl/src/extra/widgets/colorwheel/lv_colorwheel.c ****     uint8_t r = 0, g = 0, b = 0;
 220              		.loc 1 637 5 view .LVU65
 221              		.loc 1 637 13 is_stmt 0 view .LVU66
 222 0004 0023     		movs	r3, #0
 223 0006 8DF80F30 		strb	r3, [sp, #15]
 224              		.loc 1 637 20 view .LVU67
 225 000a 8DF80E30 		strb	r3, [sp, #14]
 226              		.loc 1 637 27 view .LVU68
 227 000e 8DF80D30 		strb	r3, [sp, #13]
 638:Middlewares/lvgl/src/extra/widgets/colorwheel/lv_colorwheel.c ****     static uint16_t h = 0;
 228              		.loc 1 638 5 is_stmt 1 view .LVU69
 639:Middlewares/lvgl/src/extra/widgets/colorwheel/lv_colorwheel.c ****     static uint8_t s = 0, v = 0, m = 255;
 229              		.loc 1 639 5 view .LVU70
 640:Middlewares/lvgl/src/extra/widgets/colorwheel/lv_colorwheel.c **** 
 641:Middlewares/lvgl/src/extra/widgets/colorwheel/lv_colorwheel.c ****     switch(ext->mode) {
 230              		.loc 1 641 5 view .LVU71
 231              		.loc 1 641 15 is_stmt 0 view .LVU72
 232 0012 90F83C30 		ldrb	r3, [r0, #60]	@ zero_extendqisi2
 233 0016 C3F30102 		ubfx	r2, r3, #0, #2
 234 001a 03F00303 		and	r3, r3, #3
 235              		.loc 1 641 5 view .LVU73
 236 001e 012B     		cmp	r3, #1
 237 0020 46D0     		beq	.L14
 238 0022 022B     		cmp	r3, #2
 239 0024 72D0     		beq	.L15
 642:Middlewares/lvgl/src/extra/widgets/colorwheel/lv_colorwheel.c ****         default:
 643:Middlewares/lvgl/src/extra/widgets/colorwheel/lv_colorwheel.c ****         case LV_COLORWHEEL_MODE_HUE:
 644:Middlewares/lvgl/src/extra/widgets/colorwheel/lv_colorwheel.c ****             /*Don't recompute costly scaling if it does not change*/
 645:Middlewares/lvgl/src/extra/widgets/colorwheel/lv_colorwheel.c ****             if (m != ext->mode) {
 240              		.loc 1 645 13 is_stmt 1 view .LVU74
 241              		.loc 1 645 19 is_stmt 0 view .LVU75
 242 0026 514C     		ldr	r4, .L21
 243 0028 2478     		ldrb	r4, [r4]	@ zero_extendqisi2
 244              		.loc 1 645 16 view .LVU76
 245 002a A342     		cmp	r3, r4
 246 002c 1BD0     		beq	.L16
 646:Middlewares/lvgl/src/extra/widgets/colorwheel/lv_colorwheel.c ****               s = (uint8_t)(((uint16_t)ext->hsv.s * 51) / 20); v = (uint8_t)(((uint16_t)ext->hsv.v 
 247              		.loc 1 646 15 is_stmt 1 view .LVU77
 248              		.loc 1 646 48 is_stmt 0 view .LVU78
 249 002e 90F82630 		ldrb	r3, [r0, #38]	@ zero_extendqisi2
 250              		.loc 1 646 51 view .LVU79
 251 0032 03EB4303 		add	r3, r3, r3, lsl #1
 252 0036 03EB031C 		add	ip, r3, r3, lsl #4
 253              		.loc 1 646 57 view .LVU80
 254 003a 4D4C     		ldr	r4, .L21+4
 255 003c 84FB0C3C 		smull	r3, ip, r4, ip
 256              		.loc 1 646 19 view .LVU81
 257 0040 CCF3C70C 		ubfx	ip, ip, #3, #8
 258              		.loc 1 646 17 view .LVU82
 259 0044 4B4B     		ldr	r3, .L21+8
 260 0046 83F800C0 		strb	ip, [r3]
ARM GAS  /tmp/ccyILfU7.s 			page 17


 261              		.loc 1 646 64 is_stmt 1 view .LVU83
 262              		.loc 1 646 97 is_stmt 0 view .LVU84
 263 004a 90F82730 		ldrb	r3, [r0, #39]	@ zero_extendqisi2
 264              		.loc 1 646 100 view .LVU85
 265 004e 03EB4303 		add	r3, r3, r3, lsl #1
 266 0052 03EB0313 		add	r3, r3, r3, lsl #4
 267              		.loc 1 646 106 view .LVU86
 268 0056 84FB0303 		smull	r0, r3, r4, r3
 269              	.LVL28:
 270              		.loc 1 646 68 view .LVU87
 271 005a C3F3C703 		ubfx	r3, r3, #3, #8
 272              		.loc 1 646 66 view .LVU88
 273 005e 4648     		ldr	r0, .L21+12
 274 0060 0370     		strb	r3, [r0]
 647:Middlewares/lvgl/src/extra/widgets/colorwheel/lv_colorwheel.c ****               m = ext->mode;
 275              		.loc 1 647 15 is_stmt 1 view .LVU89
 276              		.loc 1 647 17 is_stmt 0 view .LVU90
 277 0062 424B     		ldr	r3, .L21
 278 0064 1A70     		strb	r2, [r3]
 279              	.L16:
 648:Middlewares/lvgl/src/extra/widgets/colorwheel/lv_colorwheel.c ****             }
 649:Middlewares/lvgl/src/extra/widgets/colorwheel/lv_colorwheel.c ****             fast_hsv2rgb(angle * 6, s, v, &r, &g, &b); /*A smart compiler will replace x * 6 by (x 
 280              		.loc 1 649 13 is_stmt 1 view .LVU91
 281 0066 01EB4101 		add	r1, r1, r1, lsl #1
 282              	.LVL29:
 283              		.loc 1 649 13 is_stmt 0 view .LVU92
 284 006a 4800     		lsls	r0, r1, #1
 285 006c 80B2     		uxth	r0, r0
 286 006e 0DF10D03 		add	r3, sp, #13
 287 0072 0193     		str	r3, [sp, #4]
 288 0074 0DF10E03 		add	r3, sp, #14
 289 0078 0093     		str	r3, [sp]
 290 007a 0DF10F03 		add	r3, sp, #15
 291 007e 3E4A     		ldr	r2, .L21+12
 292 0080 1278     		ldrb	r2, [r2]	@ zero_extendqisi2
 293 0082 3C49     		ldr	r1, .L21+8
 294 0084 0978     		ldrb	r1, [r1]	@ zero_extendqisi2
 295 0086 FFF7FEFF 		bl	fast_hsv2rgb
 296              	.LVL30:
 650:Middlewares/lvgl/src/extra/widgets/colorwheel/lv_colorwheel.c ****             break;
 297              		.loc 1 650 13 is_stmt 1 view .LVU93
 298              	.L17:
 651:Middlewares/lvgl/src/extra/widgets/colorwheel/lv_colorwheel.c ****         case LV_COLORWHEEL_MODE_SATURATION:
 652:Middlewares/lvgl/src/extra/widgets/colorwheel/lv_colorwheel.c ****             /*Don't recompute costly scaling if it does not change*/
 653:Middlewares/lvgl/src/extra/widgets/colorwheel/lv_colorwheel.c ****             if (m != ext->mode) {
 654:Middlewares/lvgl/src/extra/widgets/colorwheel/lv_colorwheel.c ****               h = (uint16_t)(((uint32_t)ext->hsv.h * 6 * 256) / 360); v = (uint8_t)(((uint16_t)ext-
 655:Middlewares/lvgl/src/extra/widgets/colorwheel/lv_colorwheel.c ****               m = ext->mode;
 656:Middlewares/lvgl/src/extra/widgets/colorwheel/lv_colorwheel.c ****             }
 657:Middlewares/lvgl/src/extra/widgets/colorwheel/lv_colorwheel.c ****             fast_hsv2rgb(h, angle, v, &r, &g, &b);
 658:Middlewares/lvgl/src/extra/widgets/colorwheel/lv_colorwheel.c ****             break;
 659:Middlewares/lvgl/src/extra/widgets/colorwheel/lv_colorwheel.c ****         case LV_COLORWHEEL_MODE_VALUE:
 660:Middlewares/lvgl/src/extra/widgets/colorwheel/lv_colorwheel.c ****             /*Don't recompute costly scaling if it does not change*/
 661:Middlewares/lvgl/src/extra/widgets/colorwheel/lv_colorwheel.c ****             if (m != ext->mode) {
 662:Middlewares/lvgl/src/extra/widgets/colorwheel/lv_colorwheel.c ****               h = (uint16_t)(((uint32_t)ext->hsv.h * 6 * 256) / 360); s = (uint8_t)(((uint16_t)ext-
 663:Middlewares/lvgl/src/extra/widgets/colorwheel/lv_colorwheel.c ****               m = ext->mode;
 664:Middlewares/lvgl/src/extra/widgets/colorwheel/lv_colorwheel.c ****             }
 665:Middlewares/lvgl/src/extra/widgets/colorwheel/lv_colorwheel.c ****             fast_hsv2rgb(h, s, angle, &r, &g, &b);
ARM GAS  /tmp/ccyILfU7.s 			page 18


 666:Middlewares/lvgl/src/extra/widgets/colorwheel/lv_colorwheel.c ****             break;
 667:Middlewares/lvgl/src/extra/widgets/colorwheel/lv_colorwheel.c ****     }
 668:Middlewares/lvgl/src/extra/widgets/colorwheel/lv_colorwheel.c ****     return lv_color_make(r, g, b);
 299              		.loc 1 668 5 view .LVU94
 300              		.loc 1 668 12 is_stmt 0 view .LVU95
 301 008a 9DF80F30 		ldrb	r3, [sp, #15]	@ zero_extendqisi2
 302 008e 9DF80E20 		ldrb	r2, [sp, #14]	@ zero_extendqisi2
 303 0092 9DF80D10 		ldrb	r1, [sp, #13]	@ zero_extendqisi2
 304              	.LVL31:
 305              	.LBB50:
 306              	.LBI50:
 307              		.file 2 "Middlewares/lvgl/src/extra/widgets/colorwheel/../../../../src/hal/../misc/lv_color.h"
   1:Middlewares/lvgl/src/extra/widgets/colorwheel/../../../../src/hal/../misc/lv_color.h **** /**
   2:Middlewares/lvgl/src/extra/widgets/colorwheel/../../../../src/hal/../misc/lv_color.h ****  * @file lv_color.h
   3:Middlewares/lvgl/src/extra/widgets/colorwheel/../../../../src/hal/../misc/lv_color.h ****  *
   4:Middlewares/lvgl/src/extra/widgets/colorwheel/../../../../src/hal/../misc/lv_color.h ****  */
   5:Middlewares/lvgl/src/extra/widgets/colorwheel/../../../../src/hal/../misc/lv_color.h **** 
   6:Middlewares/lvgl/src/extra/widgets/colorwheel/../../../../src/hal/../misc/lv_color.h **** #ifndef LV_COLOR_H
   7:Middlewares/lvgl/src/extra/widgets/colorwheel/../../../../src/hal/../misc/lv_color.h **** #define LV_COLOR_H
   8:Middlewares/lvgl/src/extra/widgets/colorwheel/../../../../src/hal/../misc/lv_color.h **** 
   9:Middlewares/lvgl/src/extra/widgets/colorwheel/../../../../src/hal/../misc/lv_color.h **** #ifdef __cplusplus
  10:Middlewares/lvgl/src/extra/widgets/colorwheel/../../../../src/hal/../misc/lv_color.h **** extern "C" {
  11:Middlewares/lvgl/src/extra/widgets/colorwheel/../../../../src/hal/../misc/lv_color.h **** #endif
  12:Middlewares/lvgl/src/extra/widgets/colorwheel/../../../../src/hal/../misc/lv_color.h **** 
  13:Middlewares/lvgl/src/extra/widgets/colorwheel/../../../../src/hal/../misc/lv_color.h **** /*********************
  14:Middlewares/lvgl/src/extra/widgets/colorwheel/../../../../src/hal/../misc/lv_color.h ****  *      INCLUDES
  15:Middlewares/lvgl/src/extra/widgets/colorwheel/../../../../src/hal/../misc/lv_color.h ****  *********************/
  16:Middlewares/lvgl/src/extra/widgets/colorwheel/../../../../src/hal/../misc/lv_color.h **** #include "../lv_conf_internal.h"
  17:Middlewares/lvgl/src/extra/widgets/colorwheel/../../../../src/hal/../misc/lv_color.h **** #include "lv_math.h"
  18:Middlewares/lvgl/src/extra/widgets/colorwheel/../../../../src/hal/../misc/lv_color.h **** #include "lv_types.h"
  19:Middlewares/lvgl/src/extra/widgets/colorwheel/../../../../src/hal/../misc/lv_color.h **** 
  20:Middlewares/lvgl/src/extra/widgets/colorwheel/../../../../src/hal/../misc/lv_color.h **** /*Error checking*/
  21:Middlewares/lvgl/src/extra/widgets/colorwheel/../../../../src/hal/../misc/lv_color.h **** #if LV_COLOR_DEPTH == 24
  22:Middlewares/lvgl/src/extra/widgets/colorwheel/../../../../src/hal/../misc/lv_color.h **** #error "LV_COLOR_DEPTH 24 is deprecated. Use LV_COLOR_DEPTH 32 instead (lv_conf.h)"
  23:Middlewares/lvgl/src/extra/widgets/colorwheel/../../../../src/hal/../misc/lv_color.h **** #endif
  24:Middlewares/lvgl/src/extra/widgets/colorwheel/../../../../src/hal/../misc/lv_color.h **** 
  25:Middlewares/lvgl/src/extra/widgets/colorwheel/../../../../src/hal/../misc/lv_color.h **** #if LV_COLOR_DEPTH != 32 && LV_COLOR_SCREEN_TRANSP != 0
  26:Middlewares/lvgl/src/extra/widgets/colorwheel/../../../../src/hal/../misc/lv_color.h **** #error "LV_COLOR_SCREEN_TRANSP requires LV_COLOR_DEPTH == 32. Set it in lv_conf.h"
  27:Middlewares/lvgl/src/extra/widgets/colorwheel/../../../../src/hal/../misc/lv_color.h **** #endif
  28:Middlewares/lvgl/src/extra/widgets/colorwheel/../../../../src/hal/../misc/lv_color.h **** 
  29:Middlewares/lvgl/src/extra/widgets/colorwheel/../../../../src/hal/../misc/lv_color.h **** #if LV_COLOR_DEPTH != 16 && LV_COLOR_16_SWAP != 0
  30:Middlewares/lvgl/src/extra/widgets/colorwheel/../../../../src/hal/../misc/lv_color.h **** #error "LV_COLOR_16_SWAP requires LV_COLOR_DEPTH == 16. Set it in lv_conf.h"
  31:Middlewares/lvgl/src/extra/widgets/colorwheel/../../../../src/hal/../misc/lv_color.h **** #endif
  32:Middlewares/lvgl/src/extra/widgets/colorwheel/../../../../src/hal/../misc/lv_color.h **** 
  33:Middlewares/lvgl/src/extra/widgets/colorwheel/../../../../src/hal/../misc/lv_color.h **** #include <stdint.h>
  34:Middlewares/lvgl/src/extra/widgets/colorwheel/../../../../src/hal/../misc/lv_color.h **** 
  35:Middlewares/lvgl/src/extra/widgets/colorwheel/../../../../src/hal/../misc/lv_color.h **** /*********************
  36:Middlewares/lvgl/src/extra/widgets/colorwheel/../../../../src/hal/../misc/lv_color.h ****  *      DEFINES
  37:Middlewares/lvgl/src/extra/widgets/colorwheel/../../../../src/hal/../misc/lv_color.h ****  *********************/
  38:Middlewares/lvgl/src/extra/widgets/colorwheel/../../../../src/hal/../misc/lv_color.h **** 
  39:Middlewares/lvgl/src/extra/widgets/colorwheel/../../../../src/hal/../misc/lv_color.h **** /**
  40:Middlewares/lvgl/src/extra/widgets/colorwheel/../../../../src/hal/../misc/lv_color.h ****  * Opacity percentages.
  41:Middlewares/lvgl/src/extra/widgets/colorwheel/../../../../src/hal/../misc/lv_color.h ****  */
  42:Middlewares/lvgl/src/extra/widgets/colorwheel/../../../../src/hal/../misc/lv_color.h **** enum {
  43:Middlewares/lvgl/src/extra/widgets/colorwheel/../../../../src/hal/../misc/lv_color.h ****     LV_OPA_TRANSP = 0,
  44:Middlewares/lvgl/src/extra/widgets/colorwheel/../../../../src/hal/../misc/lv_color.h ****     LV_OPA_0      = 0,
  45:Middlewares/lvgl/src/extra/widgets/colorwheel/../../../../src/hal/../misc/lv_color.h ****     LV_OPA_10     = 25,
ARM GAS  /tmp/ccyILfU7.s 			page 19


  46:Middlewares/lvgl/src/extra/widgets/colorwheel/../../../../src/hal/../misc/lv_color.h ****     LV_OPA_20     = 51,
  47:Middlewares/lvgl/src/extra/widgets/colorwheel/../../../../src/hal/../misc/lv_color.h ****     LV_OPA_30     = 76,
  48:Middlewares/lvgl/src/extra/widgets/colorwheel/../../../../src/hal/../misc/lv_color.h ****     LV_OPA_40     = 102,
  49:Middlewares/lvgl/src/extra/widgets/colorwheel/../../../../src/hal/../misc/lv_color.h ****     LV_OPA_50     = 127,
  50:Middlewares/lvgl/src/extra/widgets/colorwheel/../../../../src/hal/../misc/lv_color.h ****     LV_OPA_60     = 153,
  51:Middlewares/lvgl/src/extra/widgets/colorwheel/../../../../src/hal/../misc/lv_color.h ****     LV_OPA_70     = 178,
  52:Middlewares/lvgl/src/extra/widgets/colorwheel/../../../../src/hal/../misc/lv_color.h ****     LV_OPA_80     = 204,
  53:Middlewares/lvgl/src/extra/widgets/colorwheel/../../../../src/hal/../misc/lv_color.h ****     LV_OPA_90     = 229,
  54:Middlewares/lvgl/src/extra/widgets/colorwheel/../../../../src/hal/../misc/lv_color.h ****     LV_OPA_100    = 255,
  55:Middlewares/lvgl/src/extra/widgets/colorwheel/../../../../src/hal/../misc/lv_color.h ****     LV_OPA_COVER  = 255,
  56:Middlewares/lvgl/src/extra/widgets/colorwheel/../../../../src/hal/../misc/lv_color.h **** };
  57:Middlewares/lvgl/src/extra/widgets/colorwheel/../../../../src/hal/../misc/lv_color.h **** 
  58:Middlewares/lvgl/src/extra/widgets/colorwheel/../../../../src/hal/../misc/lv_color.h **** #define LV_OPA_MIN 2    /*Opacities below this will be transparent*/
  59:Middlewares/lvgl/src/extra/widgets/colorwheel/../../../../src/hal/../misc/lv_color.h **** #define LV_OPA_MAX 253  /*Opacities above this will fully cover*/
  60:Middlewares/lvgl/src/extra/widgets/colorwheel/../../../../src/hal/../misc/lv_color.h **** 
  61:Middlewares/lvgl/src/extra/widgets/colorwheel/../../../../src/hal/../misc/lv_color.h **** #if LV_COLOR_DEPTH == 1
  62:Middlewares/lvgl/src/extra/widgets/colorwheel/../../../../src/hal/../misc/lv_color.h **** #define LV_COLOR_SIZE 8
  63:Middlewares/lvgl/src/extra/widgets/colorwheel/../../../../src/hal/../misc/lv_color.h **** #elif LV_COLOR_DEPTH == 8
  64:Middlewares/lvgl/src/extra/widgets/colorwheel/../../../../src/hal/../misc/lv_color.h **** #define LV_COLOR_SIZE 8
  65:Middlewares/lvgl/src/extra/widgets/colorwheel/../../../../src/hal/../misc/lv_color.h **** #elif LV_COLOR_DEPTH == 16
  66:Middlewares/lvgl/src/extra/widgets/colorwheel/../../../../src/hal/../misc/lv_color.h **** #define LV_COLOR_SIZE 16
  67:Middlewares/lvgl/src/extra/widgets/colorwheel/../../../../src/hal/../misc/lv_color.h **** #elif LV_COLOR_DEPTH == 32
  68:Middlewares/lvgl/src/extra/widgets/colorwheel/../../../../src/hal/../misc/lv_color.h **** #define LV_COLOR_SIZE 32
  69:Middlewares/lvgl/src/extra/widgets/colorwheel/../../../../src/hal/../misc/lv_color.h **** #else
  70:Middlewares/lvgl/src/extra/widgets/colorwheel/../../../../src/hal/../misc/lv_color.h **** #error "Invalid LV_COLOR_DEPTH in lv_conf.h! Set it to 1, 8, 16 or 32!"
  71:Middlewares/lvgl/src/extra/widgets/colorwheel/../../../../src/hal/../misc/lv_color.h **** #endif
  72:Middlewares/lvgl/src/extra/widgets/colorwheel/../../../../src/hal/../misc/lv_color.h **** 
  73:Middlewares/lvgl/src/extra/widgets/colorwheel/../../../../src/hal/../misc/lv_color.h **** /**
  74:Middlewares/lvgl/src/extra/widgets/colorwheel/../../../../src/hal/../misc/lv_color.h ****  * Adjust color mix functions rounding.
  75:Middlewares/lvgl/src/extra/widgets/colorwheel/../../../../src/hal/../misc/lv_color.h ****  * GPUs might calculate color mix (blending) differently.
  76:Middlewares/lvgl/src/extra/widgets/colorwheel/../../../../src/hal/../misc/lv_color.h ****  * Should be in range of 0..254
  77:Middlewares/lvgl/src/extra/widgets/colorwheel/../../../../src/hal/../misc/lv_color.h ****  * 0: no adjustment, get the integer part of the result (round down)
  78:Middlewares/lvgl/src/extra/widgets/colorwheel/../../../../src/hal/../misc/lv_color.h ****  * 64: round up from x.75
  79:Middlewares/lvgl/src/extra/widgets/colorwheel/../../../../src/hal/../misc/lv_color.h ****  * 128: round up from half
  80:Middlewares/lvgl/src/extra/widgets/colorwheel/../../../../src/hal/../misc/lv_color.h ****  * 192: round up from x.25
  81:Middlewares/lvgl/src/extra/widgets/colorwheel/../../../../src/hal/../misc/lv_color.h ****  * 254: round up*/
  82:Middlewares/lvgl/src/extra/widgets/colorwheel/../../../../src/hal/../misc/lv_color.h **** #ifndef LV_COLOR_MIX_ROUND_OFS
  83:Middlewares/lvgl/src/extra/widgets/colorwheel/../../../../src/hal/../misc/lv_color.h **** #if LV_COLOR_DEPTH == 32
  84:Middlewares/lvgl/src/extra/widgets/colorwheel/../../../../src/hal/../misc/lv_color.h **** #define LV_COLOR_MIX_ROUND_OFS 0
  85:Middlewares/lvgl/src/extra/widgets/colorwheel/../../../../src/hal/../misc/lv_color.h **** #else
  86:Middlewares/lvgl/src/extra/widgets/colorwheel/../../../../src/hal/../misc/lv_color.h **** #define LV_COLOR_MIX_ROUND_OFS 128
  87:Middlewares/lvgl/src/extra/widgets/colorwheel/../../../../src/hal/../misc/lv_color.h **** #endif
  88:Middlewares/lvgl/src/extra/widgets/colorwheel/../../../../src/hal/../misc/lv_color.h **** #endif
  89:Middlewares/lvgl/src/extra/widgets/colorwheel/../../../../src/hal/../misc/lv_color.h **** 
  90:Middlewares/lvgl/src/extra/widgets/colorwheel/../../../../src/hal/../misc/lv_color.h **** #if defined(__cplusplus) && !defined(_LV_COLOR_HAS_MODERN_CPP)
  91:Middlewares/lvgl/src/extra/widgets/colorwheel/../../../../src/hal/../misc/lv_color.h **** /**
  92:Middlewares/lvgl/src/extra/widgets/colorwheel/../../../../src/hal/../misc/lv_color.h **** * MSVC compiler's definition of the __cplusplus indicating 199711L regardless to C++ standard versi
  93:Middlewares/lvgl/src/extra/widgets/colorwheel/../../../../src/hal/../misc/lv_color.h **** * see https://devblogs.microsoft.com/cppblog/msvc-now-correctly-reports-cplusplus
  94:Middlewares/lvgl/src/extra/widgets/colorwheel/../../../../src/hal/../misc/lv_color.h **** * so we use _MSC_VER macro instead of __cplusplus
  95:Middlewares/lvgl/src/extra/widgets/colorwheel/../../../../src/hal/../misc/lv_color.h **** */
  96:Middlewares/lvgl/src/extra/widgets/colorwheel/../../../../src/hal/../misc/lv_color.h **** #ifdef _MSC_VER
  97:Middlewares/lvgl/src/extra/widgets/colorwheel/../../../../src/hal/../misc/lv_color.h **** #if _MSC_VER >= 1900 /*Visual Studio 2015*/
  98:Middlewares/lvgl/src/extra/widgets/colorwheel/../../../../src/hal/../misc/lv_color.h **** #define _LV_COLOR_HAS_MODERN_CPP 1
  99:Middlewares/lvgl/src/extra/widgets/colorwheel/../../../../src/hal/../misc/lv_color.h **** #endif
 100:Middlewares/lvgl/src/extra/widgets/colorwheel/../../../../src/hal/../misc/lv_color.h **** #else
 101:Middlewares/lvgl/src/extra/widgets/colorwheel/../../../../src/hal/../misc/lv_color.h **** #if __cplusplus >= 201103L
 102:Middlewares/lvgl/src/extra/widgets/colorwheel/../../../../src/hal/../misc/lv_color.h **** #define _LV_COLOR_HAS_MODERN_CPP 1
ARM GAS  /tmp/ccyILfU7.s 			page 20


 103:Middlewares/lvgl/src/extra/widgets/colorwheel/../../../../src/hal/../misc/lv_color.h **** #endif
 104:Middlewares/lvgl/src/extra/widgets/colorwheel/../../../../src/hal/../misc/lv_color.h **** #endif
 105:Middlewares/lvgl/src/extra/widgets/colorwheel/../../../../src/hal/../misc/lv_color.h **** #endif /*__cplusplus*/
 106:Middlewares/lvgl/src/extra/widgets/colorwheel/../../../../src/hal/../misc/lv_color.h **** 
 107:Middlewares/lvgl/src/extra/widgets/colorwheel/../../../../src/hal/../misc/lv_color.h **** #ifndef _LV_COLOR_HAS_MODERN_CPP
 108:Middlewares/lvgl/src/extra/widgets/colorwheel/../../../../src/hal/../misc/lv_color.h **** #define _LV_COLOR_HAS_MODERN_CPP 0
 109:Middlewares/lvgl/src/extra/widgets/colorwheel/../../../../src/hal/../misc/lv_color.h **** #endif
 110:Middlewares/lvgl/src/extra/widgets/colorwheel/../../../../src/hal/../misc/lv_color.h **** 
 111:Middlewares/lvgl/src/extra/widgets/colorwheel/../../../../src/hal/../misc/lv_color.h **** #if _LV_COLOR_HAS_MODERN_CPP
 112:Middlewares/lvgl/src/extra/widgets/colorwheel/../../../../src/hal/../misc/lv_color.h **** /*Fix msvc compiler error C4576 inside C++ code*/
 113:Middlewares/lvgl/src/extra/widgets/colorwheel/../../../../src/hal/../misc/lv_color.h **** #define _LV_COLOR_MAKE_TYPE_HELPER lv_color_t
 114:Middlewares/lvgl/src/extra/widgets/colorwheel/../../../../src/hal/../misc/lv_color.h **** #else
 115:Middlewares/lvgl/src/extra/widgets/colorwheel/../../../../src/hal/../misc/lv_color.h **** #define _LV_COLOR_MAKE_TYPE_HELPER (lv_color_t)
 116:Middlewares/lvgl/src/extra/widgets/colorwheel/../../../../src/hal/../misc/lv_color.h **** #endif
 117:Middlewares/lvgl/src/extra/widgets/colorwheel/../../../../src/hal/../misc/lv_color.h **** 
 118:Middlewares/lvgl/src/extra/widgets/colorwheel/../../../../src/hal/../misc/lv_color.h **** /*---------------------------------------
 119:Middlewares/lvgl/src/extra/widgets/colorwheel/../../../../src/hal/../misc/lv_color.h ****  * Macros for all existing color depths
 120:Middlewares/lvgl/src/extra/widgets/colorwheel/../../../../src/hal/../misc/lv_color.h ****  * to set/get values of the color channels
 121:Middlewares/lvgl/src/extra/widgets/colorwheel/../../../../src/hal/../misc/lv_color.h ****  *------------------------------------------*/
 122:Middlewares/lvgl/src/extra/widgets/colorwheel/../../../../src/hal/../misc/lv_color.h **** # define LV_COLOR_SET_R1(c, v) (c).ch.red = (uint8_t)((v) & 0x1)
 123:Middlewares/lvgl/src/extra/widgets/colorwheel/../../../../src/hal/../misc/lv_color.h **** # define LV_COLOR_SET_G1(c, v) (c).ch.green = (uint8_t)((v) & 0x1)
 124:Middlewares/lvgl/src/extra/widgets/colorwheel/../../../../src/hal/../misc/lv_color.h **** # define LV_COLOR_SET_B1(c, v) (c).ch.blue = (uint8_t)((v) & 0x1)
 125:Middlewares/lvgl/src/extra/widgets/colorwheel/../../../../src/hal/../misc/lv_color.h **** # define LV_COLOR_SET_A1(c, v) do {} while(0)
 126:Middlewares/lvgl/src/extra/widgets/colorwheel/../../../../src/hal/../misc/lv_color.h **** 
 127:Middlewares/lvgl/src/extra/widgets/colorwheel/../../../../src/hal/../misc/lv_color.h **** # define LV_COLOR_GET_R1(c) (c).ch.red
 128:Middlewares/lvgl/src/extra/widgets/colorwheel/../../../../src/hal/../misc/lv_color.h **** # define LV_COLOR_GET_G1(c) (c).ch.green
 129:Middlewares/lvgl/src/extra/widgets/colorwheel/../../../../src/hal/../misc/lv_color.h **** # define LV_COLOR_GET_B1(c) (c).ch.blue
 130:Middlewares/lvgl/src/extra/widgets/colorwheel/../../../../src/hal/../misc/lv_color.h **** # define LV_COLOR_GET_A1(c) 0xFF
 131:Middlewares/lvgl/src/extra/widgets/colorwheel/../../../../src/hal/../misc/lv_color.h **** 
 132:Middlewares/lvgl/src/extra/widgets/colorwheel/../../../../src/hal/../misc/lv_color.h **** # define _LV_COLOR_ZERO_INITIALIZER1 {0x00}
 133:Middlewares/lvgl/src/extra/widgets/colorwheel/../../../../src/hal/../misc/lv_color.h **** # define LV_COLOR_MAKE1(r8, g8, b8)  {(uint8_t)((b8 >> 7) | (g8 >> 7) | (r8 >> 7))}
 134:Middlewares/lvgl/src/extra/widgets/colorwheel/../../../../src/hal/../misc/lv_color.h **** 
 135:Middlewares/lvgl/src/extra/widgets/colorwheel/../../../../src/hal/../misc/lv_color.h **** # define LV_COLOR_SET_R8(c, v) (c).ch.red = (uint8_t)((v) & 0x7U)
 136:Middlewares/lvgl/src/extra/widgets/colorwheel/../../../../src/hal/../misc/lv_color.h **** # define LV_COLOR_SET_G8(c, v) (c).ch.green = (uint8_t)((v) & 0x7U)
 137:Middlewares/lvgl/src/extra/widgets/colorwheel/../../../../src/hal/../misc/lv_color.h **** # define LV_COLOR_SET_B8(c, v) (c).ch.blue = (uint8_t)((v) & 0x3U)
 138:Middlewares/lvgl/src/extra/widgets/colorwheel/../../../../src/hal/../misc/lv_color.h **** # define LV_COLOR_SET_A8(c, v) do {} while(0)
 139:Middlewares/lvgl/src/extra/widgets/colorwheel/../../../../src/hal/../misc/lv_color.h **** 
 140:Middlewares/lvgl/src/extra/widgets/colorwheel/../../../../src/hal/../misc/lv_color.h **** # define LV_COLOR_GET_R8(c) (c).ch.red
 141:Middlewares/lvgl/src/extra/widgets/colorwheel/../../../../src/hal/../misc/lv_color.h **** # define LV_COLOR_GET_G8(c) (c).ch.green
 142:Middlewares/lvgl/src/extra/widgets/colorwheel/../../../../src/hal/../misc/lv_color.h **** # define LV_COLOR_GET_B8(c) (c).ch.blue
 143:Middlewares/lvgl/src/extra/widgets/colorwheel/../../../../src/hal/../misc/lv_color.h **** # define LV_COLOR_GET_A8(c) 0xFF
 144:Middlewares/lvgl/src/extra/widgets/colorwheel/../../../../src/hal/../misc/lv_color.h **** 
 145:Middlewares/lvgl/src/extra/widgets/colorwheel/../../../../src/hal/../misc/lv_color.h **** # define _LV_COLOR_ZERO_INITIALIZER8 _LV_COLOR_MAKE_TYPE_HELPER {{0x00, 0x00, 0x00}}
 146:Middlewares/lvgl/src/extra/widgets/colorwheel/../../../../src/hal/../misc/lv_color.h **** # define LV_COLOR_MAKE8(r8, g8, b8) _LV_COLOR_MAKE_TYPE_HELPER  {{(uint8_t)((b8 >> 6) & 0x3U), (uin
 147:Middlewares/lvgl/src/extra/widgets/colorwheel/../../../../src/hal/../misc/lv_color.h **** 
 148:Middlewares/lvgl/src/extra/widgets/colorwheel/../../../../src/hal/../misc/lv_color.h **** # define LV_COLOR_SET_R16(c, v) (c).ch.red = (uint8_t)((v) & 0x1FU)
 149:Middlewares/lvgl/src/extra/widgets/colorwheel/../../../../src/hal/../misc/lv_color.h **** #if LV_COLOR_16_SWAP == 0
 150:Middlewares/lvgl/src/extra/widgets/colorwheel/../../../../src/hal/../misc/lv_color.h **** # define LV_COLOR_SET_G16(c, v) (c).ch.green = (uint8_t)((v) & 0x3FU)
 151:Middlewares/lvgl/src/extra/widgets/colorwheel/../../../../src/hal/../misc/lv_color.h **** #else
 152:Middlewares/lvgl/src/extra/widgets/colorwheel/../../../../src/hal/../misc/lv_color.h **** # define LV_COLOR_SET_G16(c, v) {(c).ch.green_h = (uint8_t)(((v) >> 3) & 0x7); (c).ch.green_l = (ui
 153:Middlewares/lvgl/src/extra/widgets/colorwheel/../../../../src/hal/../misc/lv_color.h **** #endif
 154:Middlewares/lvgl/src/extra/widgets/colorwheel/../../../../src/hal/../misc/lv_color.h **** # define LV_COLOR_SET_B16(c, v) (c).ch.blue = (uint8_t)((v) & 0x1FU)
 155:Middlewares/lvgl/src/extra/widgets/colorwheel/../../../../src/hal/../misc/lv_color.h **** # define LV_COLOR_SET_A16(c, v) do {} while(0)
 156:Middlewares/lvgl/src/extra/widgets/colorwheel/../../../../src/hal/../misc/lv_color.h **** 
 157:Middlewares/lvgl/src/extra/widgets/colorwheel/../../../../src/hal/../misc/lv_color.h **** # define LV_COLOR_GET_R16(c) (c).ch.red
 158:Middlewares/lvgl/src/extra/widgets/colorwheel/../../../../src/hal/../misc/lv_color.h **** #if LV_COLOR_16_SWAP == 0
 159:Middlewares/lvgl/src/extra/widgets/colorwheel/../../../../src/hal/../misc/lv_color.h **** # define LV_COLOR_GET_G16(c) (c).ch.green
ARM GAS  /tmp/ccyILfU7.s 			page 21


 160:Middlewares/lvgl/src/extra/widgets/colorwheel/../../../../src/hal/../misc/lv_color.h **** #else
 161:Middlewares/lvgl/src/extra/widgets/colorwheel/../../../../src/hal/../misc/lv_color.h **** # define LV_COLOR_GET_G16(c) (((c).ch.green_h << 3) + (c).ch.green_l)
 162:Middlewares/lvgl/src/extra/widgets/colorwheel/../../../../src/hal/../misc/lv_color.h **** #endif
 163:Middlewares/lvgl/src/extra/widgets/colorwheel/../../../../src/hal/../misc/lv_color.h **** # define LV_COLOR_GET_B16(c) (c).ch.blue
 164:Middlewares/lvgl/src/extra/widgets/colorwheel/../../../../src/hal/../misc/lv_color.h **** # define LV_COLOR_GET_A16(c) 0xFF
 165:Middlewares/lvgl/src/extra/widgets/colorwheel/../../../../src/hal/../misc/lv_color.h **** 
 166:Middlewares/lvgl/src/extra/widgets/colorwheel/../../../../src/hal/../misc/lv_color.h **** #if LV_COLOR_16_SWAP == 0
 167:Middlewares/lvgl/src/extra/widgets/colorwheel/../../../../src/hal/../misc/lv_color.h **** # define _LV_COLOR_ZERO_INITIALIZER16  {{0x00, 0x00, 0x00}}
 168:Middlewares/lvgl/src/extra/widgets/colorwheel/../../../../src/hal/../misc/lv_color.h **** # define LV_COLOR_MAKE16(r8, g8, b8) {{(uint8_t)((b8 >> 3) & 0x1FU), (uint8_t)((g8 >> 2) & 0x3FU), 
 169:Middlewares/lvgl/src/extra/widgets/colorwheel/../../../../src/hal/../misc/lv_color.h **** #else
 170:Middlewares/lvgl/src/extra/widgets/colorwheel/../../../../src/hal/../misc/lv_color.h **** # define _LV_COLOR_ZERO_INITIALIZER16 {{0x00, 0x00, 0x00, 0x00}}
 171:Middlewares/lvgl/src/extra/widgets/colorwheel/../../../../src/hal/../misc/lv_color.h **** # define LV_COLOR_MAKE16(r8, g8, b8) {{(uint8_t)((g8 >> 5) & 0x7U), (uint8_t)((r8 >> 3) & 0x1FU), (
 172:Middlewares/lvgl/src/extra/widgets/colorwheel/../../../../src/hal/../misc/lv_color.h **** #endif
 173:Middlewares/lvgl/src/extra/widgets/colorwheel/../../../../src/hal/../misc/lv_color.h **** 
 174:Middlewares/lvgl/src/extra/widgets/colorwheel/../../../../src/hal/../misc/lv_color.h **** # define LV_COLOR_SET_R32(c, v) (c).ch.red = (uint8_t)((v) & 0xFF)
 175:Middlewares/lvgl/src/extra/widgets/colorwheel/../../../../src/hal/../misc/lv_color.h **** # define LV_COLOR_SET_G32(c, v) (c).ch.green = (uint8_t)((v) & 0xFF)
 176:Middlewares/lvgl/src/extra/widgets/colorwheel/../../../../src/hal/../misc/lv_color.h **** # define LV_COLOR_SET_B32(c, v) (c).ch.blue = (uint8_t)((v) & 0xFF)
 177:Middlewares/lvgl/src/extra/widgets/colorwheel/../../../../src/hal/../misc/lv_color.h **** # define LV_COLOR_SET_A32(c, v) (c).ch.alpha = (uint8_t)((v) & 0xFF)
 178:Middlewares/lvgl/src/extra/widgets/colorwheel/../../../../src/hal/../misc/lv_color.h **** 
 179:Middlewares/lvgl/src/extra/widgets/colorwheel/../../../../src/hal/../misc/lv_color.h **** # define LV_COLOR_GET_R32(c) (c).ch.red
 180:Middlewares/lvgl/src/extra/widgets/colorwheel/../../../../src/hal/../misc/lv_color.h **** # define LV_COLOR_GET_G32(c) (c).ch.green
 181:Middlewares/lvgl/src/extra/widgets/colorwheel/../../../../src/hal/../misc/lv_color.h **** # define LV_COLOR_GET_B32(c) (c).ch.blue
 182:Middlewares/lvgl/src/extra/widgets/colorwheel/../../../../src/hal/../misc/lv_color.h **** # define LV_COLOR_GET_A32(c) (c).ch.alpha
 183:Middlewares/lvgl/src/extra/widgets/colorwheel/../../../../src/hal/../misc/lv_color.h **** 
 184:Middlewares/lvgl/src/extra/widgets/colorwheel/../../../../src/hal/../misc/lv_color.h **** # define _LV_COLOR_ZERO_INITIALIZER32  {{0x00, 0x00, 0x00, 0x00}}
 185:Middlewares/lvgl/src/extra/widgets/colorwheel/../../../../src/hal/../misc/lv_color.h **** # define LV_COLOR_MAKE32(r8, g8, b8) {{b8, g8, r8, 0xff}} /*Fix 0xff alpha*/
 186:Middlewares/lvgl/src/extra/widgets/colorwheel/../../../../src/hal/../misc/lv_color.h **** 
 187:Middlewares/lvgl/src/extra/widgets/colorwheel/../../../../src/hal/../misc/lv_color.h **** /*---------------------------------------
 188:Middlewares/lvgl/src/extra/widgets/colorwheel/../../../../src/hal/../misc/lv_color.h ****  * Macros for the current color depth
 189:Middlewares/lvgl/src/extra/widgets/colorwheel/../../../../src/hal/../misc/lv_color.h ****  * to set/get values of the color channels
 190:Middlewares/lvgl/src/extra/widgets/colorwheel/../../../../src/hal/../misc/lv_color.h ****  *------------------------------------------*/
 191:Middlewares/lvgl/src/extra/widgets/colorwheel/../../../../src/hal/../misc/lv_color.h **** #define LV_COLOR_SET_R(c, v) LV_CONCAT(LV_COLOR_SET_R, LV_COLOR_DEPTH)(c, v)
 192:Middlewares/lvgl/src/extra/widgets/colorwheel/../../../../src/hal/../misc/lv_color.h **** #define LV_COLOR_SET_G(c, v) LV_CONCAT(LV_COLOR_SET_G, LV_COLOR_DEPTH)(c, v)
 193:Middlewares/lvgl/src/extra/widgets/colorwheel/../../../../src/hal/../misc/lv_color.h **** #define LV_COLOR_SET_B(c, v) LV_CONCAT(LV_COLOR_SET_B, LV_COLOR_DEPTH)(c, v)
 194:Middlewares/lvgl/src/extra/widgets/colorwheel/../../../../src/hal/../misc/lv_color.h **** #define LV_COLOR_SET_A(c, v) LV_CONCAT(LV_COLOR_SET_A, LV_COLOR_DEPTH)(c, v)
 195:Middlewares/lvgl/src/extra/widgets/colorwheel/../../../../src/hal/../misc/lv_color.h **** 
 196:Middlewares/lvgl/src/extra/widgets/colorwheel/../../../../src/hal/../misc/lv_color.h **** #define LV_COLOR_GET_R(c) LV_CONCAT(LV_COLOR_GET_R, LV_COLOR_DEPTH)(c)
 197:Middlewares/lvgl/src/extra/widgets/colorwheel/../../../../src/hal/../misc/lv_color.h **** #define LV_COLOR_GET_G(c) LV_CONCAT(LV_COLOR_GET_G, LV_COLOR_DEPTH)(c)
 198:Middlewares/lvgl/src/extra/widgets/colorwheel/../../../../src/hal/../misc/lv_color.h **** #define LV_COLOR_GET_B(c) LV_CONCAT(LV_COLOR_GET_B, LV_COLOR_DEPTH)(c)
 199:Middlewares/lvgl/src/extra/widgets/colorwheel/../../../../src/hal/../misc/lv_color.h **** #define LV_COLOR_GET_A(c) LV_CONCAT(LV_COLOR_GET_A, LV_COLOR_DEPTH)(c)
 200:Middlewares/lvgl/src/extra/widgets/colorwheel/../../../../src/hal/../misc/lv_color.h **** 
 201:Middlewares/lvgl/src/extra/widgets/colorwheel/../../../../src/hal/../misc/lv_color.h **** #define _LV_COLOR_ZERO_INITIALIZER LV_CONCAT(_LV_COLOR_ZERO_INITIALIZER, LV_COLOR_DEPTH)
 202:Middlewares/lvgl/src/extra/widgets/colorwheel/../../../../src/hal/../misc/lv_color.h **** #define LV_COLOR_MAKE(r8, g8, b8) LV_CONCAT(LV_COLOR_MAKE, LV_COLOR_DEPTH)(r8, g8, b8)
 203:Middlewares/lvgl/src/extra/widgets/colorwheel/../../../../src/hal/../misc/lv_color.h **** 
 204:Middlewares/lvgl/src/extra/widgets/colorwheel/../../../../src/hal/../misc/lv_color.h **** #define LV_UDIV255(x) ((uint32_t)((uint32_t) (x) * 0x8081) >> 0x17)
 205:Middlewares/lvgl/src/extra/widgets/colorwheel/../../../../src/hal/../misc/lv_color.h **** 
 206:Middlewares/lvgl/src/extra/widgets/colorwheel/../../../../src/hal/../misc/lv_color.h **** /**********************
 207:Middlewares/lvgl/src/extra/widgets/colorwheel/../../../../src/hal/../misc/lv_color.h ****  *      TYPEDEFS
 208:Middlewares/lvgl/src/extra/widgets/colorwheel/../../../../src/hal/../misc/lv_color.h ****  **********************/
 209:Middlewares/lvgl/src/extra/widgets/colorwheel/../../../../src/hal/../misc/lv_color.h **** 
 210:Middlewares/lvgl/src/extra/widgets/colorwheel/../../../../src/hal/../misc/lv_color.h **** typedef union {
 211:Middlewares/lvgl/src/extra/widgets/colorwheel/../../../../src/hal/../misc/lv_color.h ****     uint8_t full; /*must be declared first to set all bits of byte via initializer list*/
 212:Middlewares/lvgl/src/extra/widgets/colorwheel/../../../../src/hal/../misc/lv_color.h ****     union {
 213:Middlewares/lvgl/src/extra/widgets/colorwheel/../../../../src/hal/../misc/lv_color.h ****         uint8_t blue : 1;
 214:Middlewares/lvgl/src/extra/widgets/colorwheel/../../../../src/hal/../misc/lv_color.h ****         uint8_t green : 1;
 215:Middlewares/lvgl/src/extra/widgets/colorwheel/../../../../src/hal/../misc/lv_color.h ****         uint8_t red : 1;
 216:Middlewares/lvgl/src/extra/widgets/colorwheel/../../../../src/hal/../misc/lv_color.h ****     } ch;
ARM GAS  /tmp/ccyILfU7.s 			page 22


 217:Middlewares/lvgl/src/extra/widgets/colorwheel/../../../../src/hal/../misc/lv_color.h **** } lv_color1_t;
 218:Middlewares/lvgl/src/extra/widgets/colorwheel/../../../../src/hal/../misc/lv_color.h **** 
 219:Middlewares/lvgl/src/extra/widgets/colorwheel/../../../../src/hal/../misc/lv_color.h **** typedef union {
 220:Middlewares/lvgl/src/extra/widgets/colorwheel/../../../../src/hal/../misc/lv_color.h ****     struct {
 221:Middlewares/lvgl/src/extra/widgets/colorwheel/../../../../src/hal/../misc/lv_color.h ****         uint8_t blue : 2;
 222:Middlewares/lvgl/src/extra/widgets/colorwheel/../../../../src/hal/../misc/lv_color.h ****         uint8_t green : 3;
 223:Middlewares/lvgl/src/extra/widgets/colorwheel/../../../../src/hal/../misc/lv_color.h ****         uint8_t red : 3;
 224:Middlewares/lvgl/src/extra/widgets/colorwheel/../../../../src/hal/../misc/lv_color.h ****     } ch;
 225:Middlewares/lvgl/src/extra/widgets/colorwheel/../../../../src/hal/../misc/lv_color.h ****     uint8_t full;
 226:Middlewares/lvgl/src/extra/widgets/colorwheel/../../../../src/hal/../misc/lv_color.h **** } lv_color8_t;
 227:Middlewares/lvgl/src/extra/widgets/colorwheel/../../../../src/hal/../misc/lv_color.h **** 
 228:Middlewares/lvgl/src/extra/widgets/colorwheel/../../../../src/hal/../misc/lv_color.h **** typedef union {
 229:Middlewares/lvgl/src/extra/widgets/colorwheel/../../../../src/hal/../misc/lv_color.h ****     struct {
 230:Middlewares/lvgl/src/extra/widgets/colorwheel/../../../../src/hal/../misc/lv_color.h **** #if LV_COLOR_16_SWAP == 0
 231:Middlewares/lvgl/src/extra/widgets/colorwheel/../../../../src/hal/../misc/lv_color.h ****         uint16_t blue : 5;
 232:Middlewares/lvgl/src/extra/widgets/colorwheel/../../../../src/hal/../misc/lv_color.h ****         uint16_t green : 6;
 233:Middlewares/lvgl/src/extra/widgets/colorwheel/../../../../src/hal/../misc/lv_color.h ****         uint16_t red : 5;
 234:Middlewares/lvgl/src/extra/widgets/colorwheel/../../../../src/hal/../misc/lv_color.h **** #else
 235:Middlewares/lvgl/src/extra/widgets/colorwheel/../../../../src/hal/../misc/lv_color.h ****         uint16_t green_h : 3;
 236:Middlewares/lvgl/src/extra/widgets/colorwheel/../../../../src/hal/../misc/lv_color.h ****         uint16_t red : 5;
 237:Middlewares/lvgl/src/extra/widgets/colorwheel/../../../../src/hal/../misc/lv_color.h ****         uint16_t blue : 5;
 238:Middlewares/lvgl/src/extra/widgets/colorwheel/../../../../src/hal/../misc/lv_color.h ****         uint16_t green_l : 3;
 239:Middlewares/lvgl/src/extra/widgets/colorwheel/../../../../src/hal/../misc/lv_color.h **** #endif
 240:Middlewares/lvgl/src/extra/widgets/colorwheel/../../../../src/hal/../misc/lv_color.h ****     } ch;
 241:Middlewares/lvgl/src/extra/widgets/colorwheel/../../../../src/hal/../misc/lv_color.h ****     uint16_t full;
 242:Middlewares/lvgl/src/extra/widgets/colorwheel/../../../../src/hal/../misc/lv_color.h **** } lv_color16_t;
 243:Middlewares/lvgl/src/extra/widgets/colorwheel/../../../../src/hal/../misc/lv_color.h **** 
 244:Middlewares/lvgl/src/extra/widgets/colorwheel/../../../../src/hal/../misc/lv_color.h **** typedef union {
 245:Middlewares/lvgl/src/extra/widgets/colorwheel/../../../../src/hal/../misc/lv_color.h ****     struct {
 246:Middlewares/lvgl/src/extra/widgets/colorwheel/../../../../src/hal/../misc/lv_color.h ****         uint8_t blue;
 247:Middlewares/lvgl/src/extra/widgets/colorwheel/../../../../src/hal/../misc/lv_color.h ****         uint8_t green;
 248:Middlewares/lvgl/src/extra/widgets/colorwheel/../../../../src/hal/../misc/lv_color.h ****         uint8_t red;
 249:Middlewares/lvgl/src/extra/widgets/colorwheel/../../../../src/hal/../misc/lv_color.h ****         uint8_t alpha;
 250:Middlewares/lvgl/src/extra/widgets/colorwheel/../../../../src/hal/../misc/lv_color.h ****     } ch;
 251:Middlewares/lvgl/src/extra/widgets/colorwheel/../../../../src/hal/../misc/lv_color.h ****     uint32_t full;
 252:Middlewares/lvgl/src/extra/widgets/colorwheel/../../../../src/hal/../misc/lv_color.h **** } lv_color32_t;
 253:Middlewares/lvgl/src/extra/widgets/colorwheel/../../../../src/hal/../misc/lv_color.h **** 
 254:Middlewares/lvgl/src/extra/widgets/colorwheel/../../../../src/hal/../misc/lv_color.h **** typedef LV_CONCAT3(uint, LV_COLOR_SIZE, _t) lv_color_int_t;
 255:Middlewares/lvgl/src/extra/widgets/colorwheel/../../../../src/hal/../misc/lv_color.h **** typedef LV_CONCAT3(lv_color, LV_COLOR_DEPTH, _t) lv_color_t;
 256:Middlewares/lvgl/src/extra/widgets/colorwheel/../../../../src/hal/../misc/lv_color.h **** 
 257:Middlewares/lvgl/src/extra/widgets/colorwheel/../../../../src/hal/../misc/lv_color.h **** typedef struct {
 258:Middlewares/lvgl/src/extra/widgets/colorwheel/../../../../src/hal/../misc/lv_color.h ****     uint16_t h;
 259:Middlewares/lvgl/src/extra/widgets/colorwheel/../../../../src/hal/../misc/lv_color.h ****     uint8_t s;
 260:Middlewares/lvgl/src/extra/widgets/colorwheel/../../../../src/hal/../misc/lv_color.h ****     uint8_t v;
 261:Middlewares/lvgl/src/extra/widgets/colorwheel/../../../../src/hal/../misc/lv_color.h **** } lv_color_hsv_t;
 262:Middlewares/lvgl/src/extra/widgets/colorwheel/../../../../src/hal/../misc/lv_color.h **** 
 263:Middlewares/lvgl/src/extra/widgets/colorwheel/../../../../src/hal/../misc/lv_color.h **** //! @cond Doxygen_Suppress
 264:Middlewares/lvgl/src/extra/widgets/colorwheel/../../../../src/hal/../misc/lv_color.h **** /*No idea where the guard is required but else throws warnings in the docs*/
 265:Middlewares/lvgl/src/extra/widgets/colorwheel/../../../../src/hal/../misc/lv_color.h **** typedef uint8_t lv_opa_t;
 266:Middlewares/lvgl/src/extra/widgets/colorwheel/../../../../src/hal/../misc/lv_color.h **** //! @endcond
 267:Middlewares/lvgl/src/extra/widgets/colorwheel/../../../../src/hal/../misc/lv_color.h **** 
 268:Middlewares/lvgl/src/extra/widgets/colorwheel/../../../../src/hal/../misc/lv_color.h **** struct _lv_color_filter_dsc_t;
 269:Middlewares/lvgl/src/extra/widgets/colorwheel/../../../../src/hal/../misc/lv_color.h **** 
 270:Middlewares/lvgl/src/extra/widgets/colorwheel/../../../../src/hal/../misc/lv_color.h **** typedef lv_color_t (*lv_color_filter_cb_t)(const struct _lv_color_filter_dsc_t *, lv_color_t, lv_op
 271:Middlewares/lvgl/src/extra/widgets/colorwheel/../../../../src/hal/../misc/lv_color.h **** 
 272:Middlewares/lvgl/src/extra/widgets/colorwheel/../../../../src/hal/../misc/lv_color.h **** typedef struct _lv_color_filter_dsc_t {
 273:Middlewares/lvgl/src/extra/widgets/colorwheel/../../../../src/hal/../misc/lv_color.h ****     lv_color_filter_cb_t filter_cb;
ARM GAS  /tmp/ccyILfU7.s 			page 23


 274:Middlewares/lvgl/src/extra/widgets/colorwheel/../../../../src/hal/../misc/lv_color.h ****     void * user_data;
 275:Middlewares/lvgl/src/extra/widgets/colorwheel/../../../../src/hal/../misc/lv_color.h **** }lv_color_filter_dsc_t;
 276:Middlewares/lvgl/src/extra/widgets/colorwheel/../../../../src/hal/../misc/lv_color.h **** 
 277:Middlewares/lvgl/src/extra/widgets/colorwheel/../../../../src/hal/../misc/lv_color.h **** 
 278:Middlewares/lvgl/src/extra/widgets/colorwheel/../../../../src/hal/../misc/lv_color.h **** typedef enum {
 279:Middlewares/lvgl/src/extra/widgets/colorwheel/../../../../src/hal/../misc/lv_color.h ****     LV_PALETTE_RED,
 280:Middlewares/lvgl/src/extra/widgets/colorwheel/../../../../src/hal/../misc/lv_color.h ****     LV_PALETTE_PINK,
 281:Middlewares/lvgl/src/extra/widgets/colorwheel/../../../../src/hal/../misc/lv_color.h ****     LV_PALETTE_PURPLE,
 282:Middlewares/lvgl/src/extra/widgets/colorwheel/../../../../src/hal/../misc/lv_color.h ****     LV_PALETTE_DEEP_PURPLE,
 283:Middlewares/lvgl/src/extra/widgets/colorwheel/../../../../src/hal/../misc/lv_color.h ****     LV_PALETTE_INDIGO,
 284:Middlewares/lvgl/src/extra/widgets/colorwheel/../../../../src/hal/../misc/lv_color.h ****     LV_PALETTE_BLUE,
 285:Middlewares/lvgl/src/extra/widgets/colorwheel/../../../../src/hal/../misc/lv_color.h ****     LV_PALETTE_LIGHT_BLUE,
 286:Middlewares/lvgl/src/extra/widgets/colorwheel/../../../../src/hal/../misc/lv_color.h ****     LV_PALETTE_CYAN,
 287:Middlewares/lvgl/src/extra/widgets/colorwheel/../../../../src/hal/../misc/lv_color.h ****     LV_PALETTE_TEAL,
 288:Middlewares/lvgl/src/extra/widgets/colorwheel/../../../../src/hal/../misc/lv_color.h ****     LV_PALETTE_GREEN,
 289:Middlewares/lvgl/src/extra/widgets/colorwheel/../../../../src/hal/../misc/lv_color.h ****     LV_PALETTE_LIGHT_GREEN,
 290:Middlewares/lvgl/src/extra/widgets/colorwheel/../../../../src/hal/../misc/lv_color.h ****     LV_PALETTE_LIME,
 291:Middlewares/lvgl/src/extra/widgets/colorwheel/../../../../src/hal/../misc/lv_color.h ****     LV_PALETTE_YELLOW,
 292:Middlewares/lvgl/src/extra/widgets/colorwheel/../../../../src/hal/../misc/lv_color.h ****     LV_PALETTE_AMBER,
 293:Middlewares/lvgl/src/extra/widgets/colorwheel/../../../../src/hal/../misc/lv_color.h ****     LV_PALETTE_ORANGE,
 294:Middlewares/lvgl/src/extra/widgets/colorwheel/../../../../src/hal/../misc/lv_color.h ****     LV_PALETTE_DEEP_ORANGE,
 295:Middlewares/lvgl/src/extra/widgets/colorwheel/../../../../src/hal/../misc/lv_color.h ****     LV_PALETTE_BROWN,
 296:Middlewares/lvgl/src/extra/widgets/colorwheel/../../../../src/hal/../misc/lv_color.h ****     LV_PALETTE_BLUE_GREY,
 297:Middlewares/lvgl/src/extra/widgets/colorwheel/../../../../src/hal/../misc/lv_color.h ****     LV_PALETTE_GREY,
 298:Middlewares/lvgl/src/extra/widgets/colorwheel/../../../../src/hal/../misc/lv_color.h ****     _LV_PALETTE_LAST,
 299:Middlewares/lvgl/src/extra/widgets/colorwheel/../../../../src/hal/../misc/lv_color.h ****     LV_PALETTE_NONE = 0xff,
 300:Middlewares/lvgl/src/extra/widgets/colorwheel/../../../../src/hal/../misc/lv_color.h **** }lv_palette_t;
 301:Middlewares/lvgl/src/extra/widgets/colorwheel/../../../../src/hal/../misc/lv_color.h **** 
 302:Middlewares/lvgl/src/extra/widgets/colorwheel/../../../../src/hal/../misc/lv_color.h **** /**********************
 303:Middlewares/lvgl/src/extra/widgets/colorwheel/../../../../src/hal/../misc/lv_color.h ****  * GLOBAL PROTOTYPES
 304:Middlewares/lvgl/src/extra/widgets/colorwheel/../../../../src/hal/../misc/lv_color.h ****  **********************/
 305:Middlewares/lvgl/src/extra/widgets/colorwheel/../../../../src/hal/../misc/lv_color.h **** 
 306:Middlewares/lvgl/src/extra/widgets/colorwheel/../../../../src/hal/../misc/lv_color.h **** /*In color conversations:
 307:Middlewares/lvgl/src/extra/widgets/colorwheel/../../../../src/hal/../misc/lv_color.h ****  * - When converting to bigger color type the LSB weight of 1 LSB is calculated
 308:Middlewares/lvgl/src/extra/widgets/colorwheel/../../../../src/hal/../misc/lv_color.h ****  *   E.g. 16 bit Red has 5 bits
 309:Middlewares/lvgl/src/extra/widgets/colorwheel/../../../../src/hal/../misc/lv_color.h ****  *         8 bit Red has 3 bits
 310:Middlewares/lvgl/src/extra/widgets/colorwheel/../../../../src/hal/../misc/lv_color.h ****  *        ----------------------
 311:Middlewares/lvgl/src/extra/widgets/colorwheel/../../../../src/hal/../misc/lv_color.h ****  *        8 bit red LSB = (2^5 - 1) / (2^3 - 1) = 31 / 7 = 4
 312:Middlewares/lvgl/src/extra/widgets/colorwheel/../../../../src/hal/../misc/lv_color.h ****  *
 313:Middlewares/lvgl/src/extra/widgets/colorwheel/../../../../src/hal/../misc/lv_color.h ****  * - When calculating to smaller color type simply shift out the LSBs
 314:Middlewares/lvgl/src/extra/widgets/colorwheel/../../../../src/hal/../misc/lv_color.h ****  *   E.g.  8 bit Red has 3 bits
 315:Middlewares/lvgl/src/extra/widgets/colorwheel/../../../../src/hal/../misc/lv_color.h ****  *        16 bit Red has 5 bits
 316:Middlewares/lvgl/src/extra/widgets/colorwheel/../../../../src/hal/../misc/lv_color.h ****  *        ----------------------
 317:Middlewares/lvgl/src/extra/widgets/colorwheel/../../../../src/hal/../misc/lv_color.h ****  *         Shift right with 5 - 3 = 2
 318:Middlewares/lvgl/src/extra/widgets/colorwheel/../../../../src/hal/../misc/lv_color.h ****  */
 319:Middlewares/lvgl/src/extra/widgets/colorwheel/../../../../src/hal/../misc/lv_color.h **** static inline uint8_t lv_color_to1(lv_color_t color)
 320:Middlewares/lvgl/src/extra/widgets/colorwheel/../../../../src/hal/../misc/lv_color.h **** {
 321:Middlewares/lvgl/src/extra/widgets/colorwheel/../../../../src/hal/../misc/lv_color.h **** #if LV_COLOR_DEPTH == 1
 322:Middlewares/lvgl/src/extra/widgets/colorwheel/../../../../src/hal/../misc/lv_color.h ****     return color.full;
 323:Middlewares/lvgl/src/extra/widgets/colorwheel/../../../../src/hal/../misc/lv_color.h **** #elif LV_COLOR_DEPTH == 8
 324:Middlewares/lvgl/src/extra/widgets/colorwheel/../../../../src/hal/../misc/lv_color.h ****     if((LV_COLOR_GET_R(color) & 0x4) || (LV_COLOR_GET_G(color) & 0x4) || (LV_COLOR_GET_B(color) & 0
 325:Middlewares/lvgl/src/extra/widgets/colorwheel/../../../../src/hal/../misc/lv_color.h ****         return 1;
 326:Middlewares/lvgl/src/extra/widgets/colorwheel/../../../../src/hal/../misc/lv_color.h ****     }
 327:Middlewares/lvgl/src/extra/widgets/colorwheel/../../../../src/hal/../misc/lv_color.h ****     else {
 328:Middlewares/lvgl/src/extra/widgets/colorwheel/../../../../src/hal/../misc/lv_color.h ****         return 0;
 329:Middlewares/lvgl/src/extra/widgets/colorwheel/../../../../src/hal/../misc/lv_color.h ****     }
 330:Middlewares/lvgl/src/extra/widgets/colorwheel/../../../../src/hal/../misc/lv_color.h **** #elif LV_COLOR_DEPTH == 16
ARM GAS  /tmp/ccyILfU7.s 			page 24


 331:Middlewares/lvgl/src/extra/widgets/colorwheel/../../../../src/hal/../misc/lv_color.h ****     if((LV_COLOR_GET_R(color) & 0x10) || (LV_COLOR_GET_G(color) & 0x20) || (LV_COLOR_GET_B(color) &
 332:Middlewares/lvgl/src/extra/widgets/colorwheel/../../../../src/hal/../misc/lv_color.h ****         return 1;
 333:Middlewares/lvgl/src/extra/widgets/colorwheel/../../../../src/hal/../misc/lv_color.h ****     }
 334:Middlewares/lvgl/src/extra/widgets/colorwheel/../../../../src/hal/../misc/lv_color.h ****     else {
 335:Middlewares/lvgl/src/extra/widgets/colorwheel/../../../../src/hal/../misc/lv_color.h ****         return 0;
 336:Middlewares/lvgl/src/extra/widgets/colorwheel/../../../../src/hal/../misc/lv_color.h ****     }
 337:Middlewares/lvgl/src/extra/widgets/colorwheel/../../../../src/hal/../misc/lv_color.h **** #elif LV_COLOR_DEPTH == 32
 338:Middlewares/lvgl/src/extra/widgets/colorwheel/../../../../src/hal/../misc/lv_color.h ****     if((LV_COLOR_GET_R(color) & 0x80) || (LV_COLOR_GET_G(color) & 0x80) || (LV_COLOR_GET_B(color) &
 339:Middlewares/lvgl/src/extra/widgets/colorwheel/../../../../src/hal/../misc/lv_color.h ****         return 1;
 340:Middlewares/lvgl/src/extra/widgets/colorwheel/../../../../src/hal/../misc/lv_color.h ****     }
 341:Middlewares/lvgl/src/extra/widgets/colorwheel/../../../../src/hal/../misc/lv_color.h ****     else {
 342:Middlewares/lvgl/src/extra/widgets/colorwheel/../../../../src/hal/../misc/lv_color.h ****         return 0;
 343:Middlewares/lvgl/src/extra/widgets/colorwheel/../../../../src/hal/../misc/lv_color.h ****     }
 344:Middlewares/lvgl/src/extra/widgets/colorwheel/../../../../src/hal/../misc/lv_color.h **** #endif
 345:Middlewares/lvgl/src/extra/widgets/colorwheel/../../../../src/hal/../misc/lv_color.h **** }
 346:Middlewares/lvgl/src/extra/widgets/colorwheel/../../../../src/hal/../misc/lv_color.h **** 
 347:Middlewares/lvgl/src/extra/widgets/colorwheel/../../../../src/hal/../misc/lv_color.h **** static inline uint8_t lv_color_to8(lv_color_t color)
 348:Middlewares/lvgl/src/extra/widgets/colorwheel/../../../../src/hal/../misc/lv_color.h **** {
 349:Middlewares/lvgl/src/extra/widgets/colorwheel/../../../../src/hal/../misc/lv_color.h **** #if LV_COLOR_DEPTH == 1
 350:Middlewares/lvgl/src/extra/widgets/colorwheel/../../../../src/hal/../misc/lv_color.h ****     if(color.full == 0)
 351:Middlewares/lvgl/src/extra/widgets/colorwheel/../../../../src/hal/../misc/lv_color.h ****         return 0;
 352:Middlewares/lvgl/src/extra/widgets/colorwheel/../../../../src/hal/../misc/lv_color.h ****     else
 353:Middlewares/lvgl/src/extra/widgets/colorwheel/../../../../src/hal/../misc/lv_color.h ****         return 0xFF;
 354:Middlewares/lvgl/src/extra/widgets/colorwheel/../../../../src/hal/../misc/lv_color.h **** #elif LV_COLOR_DEPTH == 8
 355:Middlewares/lvgl/src/extra/widgets/colorwheel/../../../../src/hal/../misc/lv_color.h ****     return color.full;
 356:Middlewares/lvgl/src/extra/widgets/colorwheel/../../../../src/hal/../misc/lv_color.h **** #elif LV_COLOR_DEPTH == 16
 357:Middlewares/lvgl/src/extra/widgets/colorwheel/../../../../src/hal/../misc/lv_color.h ****     lv_color8_t ret;
 358:Middlewares/lvgl/src/extra/widgets/colorwheel/../../../../src/hal/../misc/lv_color.h ****     LV_COLOR_SET_R8(ret, LV_COLOR_GET_R(color) >> 2); /*5 - 3  = 2*/
 359:Middlewares/lvgl/src/extra/widgets/colorwheel/../../../../src/hal/../misc/lv_color.h ****     LV_COLOR_SET_G8(ret, LV_COLOR_GET_G(color) >> 3); /*6 - 3  = 3*/
 360:Middlewares/lvgl/src/extra/widgets/colorwheel/../../../../src/hal/../misc/lv_color.h ****     LV_COLOR_SET_B8(ret, LV_COLOR_GET_B(color) >> 3); /*5 - 2  = 3*/
 361:Middlewares/lvgl/src/extra/widgets/colorwheel/../../../../src/hal/../misc/lv_color.h ****     return ret.full;
 362:Middlewares/lvgl/src/extra/widgets/colorwheel/../../../../src/hal/../misc/lv_color.h **** #elif LV_COLOR_DEPTH == 32
 363:Middlewares/lvgl/src/extra/widgets/colorwheel/../../../../src/hal/../misc/lv_color.h ****     lv_color8_t ret;
 364:Middlewares/lvgl/src/extra/widgets/colorwheel/../../../../src/hal/../misc/lv_color.h ****     LV_COLOR_SET_R8(ret, LV_COLOR_GET_R(color) >> 5); /*8 - 3  = 5*/
 365:Middlewares/lvgl/src/extra/widgets/colorwheel/../../../../src/hal/../misc/lv_color.h ****     LV_COLOR_SET_G8(ret, LV_COLOR_GET_G(color) >> 5); /*8 - 3  = 5*/
 366:Middlewares/lvgl/src/extra/widgets/colorwheel/../../../../src/hal/../misc/lv_color.h ****     LV_COLOR_SET_B8(ret, LV_COLOR_GET_B(color) >> 6); /*8 - 2  = 6*/
 367:Middlewares/lvgl/src/extra/widgets/colorwheel/../../../../src/hal/../misc/lv_color.h ****     return ret.full;
 368:Middlewares/lvgl/src/extra/widgets/colorwheel/../../../../src/hal/../misc/lv_color.h **** #endif
 369:Middlewares/lvgl/src/extra/widgets/colorwheel/../../../../src/hal/../misc/lv_color.h **** }
 370:Middlewares/lvgl/src/extra/widgets/colorwheel/../../../../src/hal/../misc/lv_color.h **** 
 371:Middlewares/lvgl/src/extra/widgets/colorwheel/../../../../src/hal/../misc/lv_color.h **** static inline uint16_t lv_color_to16(lv_color_t color)
 372:Middlewares/lvgl/src/extra/widgets/colorwheel/../../../../src/hal/../misc/lv_color.h **** {
 373:Middlewares/lvgl/src/extra/widgets/colorwheel/../../../../src/hal/../misc/lv_color.h **** #if LV_COLOR_DEPTH == 1
 374:Middlewares/lvgl/src/extra/widgets/colorwheel/../../../../src/hal/../misc/lv_color.h ****     if(color.full == 0)
 375:Middlewares/lvgl/src/extra/widgets/colorwheel/../../../../src/hal/../misc/lv_color.h ****         return 0;
 376:Middlewares/lvgl/src/extra/widgets/colorwheel/../../../../src/hal/../misc/lv_color.h ****     else
 377:Middlewares/lvgl/src/extra/widgets/colorwheel/../../../../src/hal/../misc/lv_color.h ****         return 0xFFFF;
 378:Middlewares/lvgl/src/extra/widgets/colorwheel/../../../../src/hal/../misc/lv_color.h **** #elif LV_COLOR_DEPTH == 8
 379:Middlewares/lvgl/src/extra/widgets/colorwheel/../../../../src/hal/../misc/lv_color.h ****     lv_color16_t ret;
 380:Middlewares/lvgl/src/extra/widgets/colorwheel/../../../../src/hal/../misc/lv_color.h ****     LV_COLOR_SET_R16(ret, LV_COLOR_GET_R(color) * 4);  /*(2^5 - 1)/(2^3 - 1) = 31/7 = 4*/
 381:Middlewares/lvgl/src/extra/widgets/colorwheel/../../../../src/hal/../misc/lv_color.h ****     LV_COLOR_SET_G16(ret, LV_COLOR_GET_G(color) * 9);  /*(2^6 - 1)/(2^3 - 1) = 63/7 = 9*/
 382:Middlewares/lvgl/src/extra/widgets/colorwheel/../../../../src/hal/../misc/lv_color.h ****     LV_COLOR_SET_B16(ret, LV_COLOR_GET_B(color) * 10); /*(2^5 - 1)/(2^2 - 1) = 31/3 = 10*/
 383:Middlewares/lvgl/src/extra/widgets/colorwheel/../../../../src/hal/../misc/lv_color.h ****     return ret.full;
 384:Middlewares/lvgl/src/extra/widgets/colorwheel/../../../../src/hal/../misc/lv_color.h **** #elif LV_COLOR_DEPTH == 16
 385:Middlewares/lvgl/src/extra/widgets/colorwheel/../../../../src/hal/../misc/lv_color.h ****     return color.full;
 386:Middlewares/lvgl/src/extra/widgets/colorwheel/../../../../src/hal/../misc/lv_color.h **** #elif LV_COLOR_DEPTH == 32
 387:Middlewares/lvgl/src/extra/widgets/colorwheel/../../../../src/hal/../misc/lv_color.h ****     lv_color16_t ret;
ARM GAS  /tmp/ccyILfU7.s 			page 25


 388:Middlewares/lvgl/src/extra/widgets/colorwheel/../../../../src/hal/../misc/lv_color.h ****     LV_COLOR_SET_R16(ret, LV_COLOR_GET_R(color) >> 3); /*8 - 5  = 3*/
 389:Middlewares/lvgl/src/extra/widgets/colorwheel/../../../../src/hal/../misc/lv_color.h ****     LV_COLOR_SET_G16(ret, LV_COLOR_GET_G(color) >> 2); /*8 - 6  = 2*/
 390:Middlewares/lvgl/src/extra/widgets/colorwheel/../../../../src/hal/../misc/lv_color.h ****     LV_COLOR_SET_B16(ret, LV_COLOR_GET_B(color) >> 3); /*8 - 5  = 3*/
 391:Middlewares/lvgl/src/extra/widgets/colorwheel/../../../../src/hal/../misc/lv_color.h ****     return ret.full;
 392:Middlewares/lvgl/src/extra/widgets/colorwheel/../../../../src/hal/../misc/lv_color.h **** #endif
 393:Middlewares/lvgl/src/extra/widgets/colorwheel/../../../../src/hal/../misc/lv_color.h **** }
 394:Middlewares/lvgl/src/extra/widgets/colorwheel/../../../../src/hal/../misc/lv_color.h **** 
 395:Middlewares/lvgl/src/extra/widgets/colorwheel/../../../../src/hal/../misc/lv_color.h **** static inline uint32_t lv_color_to32(lv_color_t color)
 396:Middlewares/lvgl/src/extra/widgets/colorwheel/../../../../src/hal/../misc/lv_color.h **** {
 397:Middlewares/lvgl/src/extra/widgets/colorwheel/../../../../src/hal/../misc/lv_color.h **** #if LV_COLOR_DEPTH == 1
 398:Middlewares/lvgl/src/extra/widgets/colorwheel/../../../../src/hal/../misc/lv_color.h ****     if(color.full == 0)
 399:Middlewares/lvgl/src/extra/widgets/colorwheel/../../../../src/hal/../misc/lv_color.h ****         return 0xFF000000;
 400:Middlewares/lvgl/src/extra/widgets/colorwheel/../../../../src/hal/../misc/lv_color.h ****     else
 401:Middlewares/lvgl/src/extra/widgets/colorwheel/../../../../src/hal/../misc/lv_color.h ****         return 0xFFFFFFFF;
 402:Middlewares/lvgl/src/extra/widgets/colorwheel/../../../../src/hal/../misc/lv_color.h **** #elif LV_COLOR_DEPTH == 8
 403:Middlewares/lvgl/src/extra/widgets/colorwheel/../../../../src/hal/../misc/lv_color.h ****     lv_color32_t ret;
 404:Middlewares/lvgl/src/extra/widgets/colorwheel/../../../../src/hal/../misc/lv_color.h ****     LV_COLOR_SET_R32(ret, LV_COLOR_GET_R(color) * 36); /*(2^8 - 1)/(2^3 - 1) = 255/7 = 36*/
 405:Middlewares/lvgl/src/extra/widgets/colorwheel/../../../../src/hal/../misc/lv_color.h ****     LV_COLOR_SET_G32(ret, LV_COLOR_GET_G(color) * 36); /*(2^8 - 1)/(2^3 - 1) = 255/7 = 36*/
 406:Middlewares/lvgl/src/extra/widgets/colorwheel/../../../../src/hal/../misc/lv_color.h ****     LV_COLOR_SET_B32(ret, LV_COLOR_GET_B(color) * 85); /*(2^8 - 1)/(2^2 - 1) = 255/3 = 85*/
 407:Middlewares/lvgl/src/extra/widgets/colorwheel/../../../../src/hal/../misc/lv_color.h ****     LV_COLOR_SET_A32(ret, 0xFF);
 408:Middlewares/lvgl/src/extra/widgets/colorwheel/../../../../src/hal/../misc/lv_color.h ****     return ret.full;
 409:Middlewares/lvgl/src/extra/widgets/colorwheel/../../../../src/hal/../misc/lv_color.h **** #elif LV_COLOR_DEPTH == 16
 410:Middlewares/lvgl/src/extra/widgets/colorwheel/../../../../src/hal/../misc/lv_color.h ****     /**
 411:Middlewares/lvgl/src/extra/widgets/colorwheel/../../../../src/hal/../misc/lv_color.h ****      * The floating point math for conversion is:
 412:Middlewares/lvgl/src/extra/widgets/colorwheel/../../../../src/hal/../misc/lv_color.h ****      *  valueto = valuefrom * ( (2^bitsto - 1) / (float)(2^bitsfrom - 1) )
 413:Middlewares/lvgl/src/extra/widgets/colorwheel/../../../../src/hal/../misc/lv_color.h ****      * The faster integer math for conversion is:
 414:Middlewares/lvgl/src/extra/widgets/colorwheel/../../../../src/hal/../misc/lv_color.h ****      *  valueto = ( valuefrom * multiplier + adder ) >> divisor
 415:Middlewares/lvgl/src/extra/widgets/colorwheel/../../../../src/hal/../misc/lv_color.h ****      *   multiplier = FLOOR( ( (2^bitsto - 1) << divisor ) / (float)(2^bitsfrom - 1) )
 416:Middlewares/lvgl/src/extra/widgets/colorwheel/../../../../src/hal/../misc/lv_color.h ****      *
 417:Middlewares/lvgl/src/extra/widgets/colorwheel/../../../../src/hal/../misc/lv_color.h ****      * Find the first divisor where ( adder >> divisor ) <= 0
 418:Middlewares/lvgl/src/extra/widgets/colorwheel/../../../../src/hal/../misc/lv_color.h ****      *
 419:Middlewares/lvgl/src/extra/widgets/colorwheel/../../../../src/hal/../misc/lv_color.h ****      * 5-bit to 8-bit: ( 31 * multiplier + adder ) >> divisor = 255
 420:Middlewares/lvgl/src/extra/widgets/colorwheel/../../../../src/hal/../misc/lv_color.h ****      * divisor  multiplier  adder  min (0)  max (31)
 421:Middlewares/lvgl/src/extra/widgets/colorwheel/../../../../src/hal/../misc/lv_color.h ****      *       0           8      7        7       255
 422:Middlewares/lvgl/src/extra/widgets/colorwheel/../../../../src/hal/../misc/lv_color.h ****      *       1          16     14        7       255
 423:Middlewares/lvgl/src/extra/widgets/colorwheel/../../../../src/hal/../misc/lv_color.h ****      *       2          32     28        7       255
 424:Middlewares/lvgl/src/extra/widgets/colorwheel/../../../../src/hal/../misc/lv_color.h ****      *       3          65     25        3       255
 425:Middlewares/lvgl/src/extra/widgets/colorwheel/../../../../src/hal/../misc/lv_color.h ****      *       4         131     19        1       255
 426:Middlewares/lvgl/src/extra/widgets/colorwheel/../../../../src/hal/../misc/lv_color.h ****      *       5         263      7        0       255
 427:Middlewares/lvgl/src/extra/widgets/colorwheel/../../../../src/hal/../misc/lv_color.h ****      *
 428:Middlewares/lvgl/src/extra/widgets/colorwheel/../../../../src/hal/../misc/lv_color.h ****      * 6-bit to 8-bit: 255 = ( 63 * multiplier + adder ) >> divisor
 429:Middlewares/lvgl/src/extra/widgets/colorwheel/../../../../src/hal/../misc/lv_color.h ****      * divisor  multiplier  adder  min (0)  max (63)
 430:Middlewares/lvgl/src/extra/widgets/colorwheel/../../../../src/hal/../misc/lv_color.h ****      *       0           4      3        3       255
 431:Middlewares/lvgl/src/extra/widgets/colorwheel/../../../../src/hal/../misc/lv_color.h ****      *       1           8      6        3       255
 432:Middlewares/lvgl/src/extra/widgets/colorwheel/../../../../src/hal/../misc/lv_color.h ****      *       2          16     12        3       255
 433:Middlewares/lvgl/src/extra/widgets/colorwheel/../../../../src/hal/../misc/lv_color.h ****      *       3          32     24        3       255
 434:Middlewares/lvgl/src/extra/widgets/colorwheel/../../../../src/hal/../misc/lv_color.h ****      *       4          64     48        3       255
 435:Middlewares/lvgl/src/extra/widgets/colorwheel/../../../../src/hal/../misc/lv_color.h ****      *       5         129     33        1       255
 436:Middlewares/lvgl/src/extra/widgets/colorwheel/../../../../src/hal/../misc/lv_color.h ****      *       6         259      3        0       255
 437:Middlewares/lvgl/src/extra/widgets/colorwheel/../../../../src/hal/../misc/lv_color.h ****      */
 438:Middlewares/lvgl/src/extra/widgets/colorwheel/../../../../src/hal/../misc/lv_color.h **** 
 439:Middlewares/lvgl/src/extra/widgets/colorwheel/../../../../src/hal/../misc/lv_color.h ****     lv_color32_t ret;
 440:Middlewares/lvgl/src/extra/widgets/colorwheel/../../../../src/hal/../misc/lv_color.h ****     LV_COLOR_SET_R32(ret, (LV_COLOR_GET_R(color) * 263 + 7) >> 5);
 441:Middlewares/lvgl/src/extra/widgets/colorwheel/../../../../src/hal/../misc/lv_color.h ****     LV_COLOR_SET_G32(ret, (LV_COLOR_GET_G(color) * 259 + 3) >> 6);
 442:Middlewares/lvgl/src/extra/widgets/colorwheel/../../../../src/hal/../misc/lv_color.h ****     LV_COLOR_SET_B32(ret, (LV_COLOR_GET_B(color) * 263 + 7) >> 5);
 443:Middlewares/lvgl/src/extra/widgets/colorwheel/../../../../src/hal/../misc/lv_color.h ****     LV_COLOR_SET_A32(ret, 0xFF);
 444:Middlewares/lvgl/src/extra/widgets/colorwheel/../../../../src/hal/../misc/lv_color.h ****     return ret.full;
ARM GAS  /tmp/ccyILfU7.s 			page 26


 445:Middlewares/lvgl/src/extra/widgets/colorwheel/../../../../src/hal/../misc/lv_color.h **** #elif LV_COLOR_DEPTH == 32
 446:Middlewares/lvgl/src/extra/widgets/colorwheel/../../../../src/hal/../misc/lv_color.h ****     return color.full;
 447:Middlewares/lvgl/src/extra/widgets/colorwheel/../../../../src/hal/../misc/lv_color.h **** #endif
 448:Middlewares/lvgl/src/extra/widgets/colorwheel/../../../../src/hal/../misc/lv_color.h **** }
 449:Middlewares/lvgl/src/extra/widgets/colorwheel/../../../../src/hal/../misc/lv_color.h **** 
 450:Middlewares/lvgl/src/extra/widgets/colorwheel/../../../../src/hal/../misc/lv_color.h **** //! @cond Doxygen_Suppress
 451:Middlewares/lvgl/src/extra/widgets/colorwheel/../../../../src/hal/../misc/lv_color.h **** 
 452:Middlewares/lvgl/src/extra/widgets/colorwheel/../../../../src/hal/../misc/lv_color.h **** /**
 453:Middlewares/lvgl/src/extra/widgets/colorwheel/../../../../src/hal/../misc/lv_color.h ****  * Mix two colors with a given ratio.
 454:Middlewares/lvgl/src/extra/widgets/colorwheel/../../../../src/hal/../misc/lv_color.h ****  * @param c1 the first color to mix (usually the foreground)
 455:Middlewares/lvgl/src/extra/widgets/colorwheel/../../../../src/hal/../misc/lv_color.h ****  * @param c2 the second color to mix (usually the background)
 456:Middlewares/lvgl/src/extra/widgets/colorwheel/../../../../src/hal/../misc/lv_color.h ****  * @param mix The ratio of the colors. 0: full `c2`, 255: full `c1`, 127: half `c1` and half`c2`
 457:Middlewares/lvgl/src/extra/widgets/colorwheel/../../../../src/hal/../misc/lv_color.h ****  * @return the mixed color
 458:Middlewares/lvgl/src/extra/widgets/colorwheel/../../../../src/hal/../misc/lv_color.h ****  */
 459:Middlewares/lvgl/src/extra/widgets/colorwheel/../../../../src/hal/../misc/lv_color.h **** LV_ATTRIBUTE_FAST_MEM static inline lv_color_t lv_color_mix(lv_color_t c1, lv_color_t c2, uint8_t m
 460:Middlewares/lvgl/src/extra/widgets/colorwheel/../../../../src/hal/../misc/lv_color.h **** {
 461:Middlewares/lvgl/src/extra/widgets/colorwheel/../../../../src/hal/../misc/lv_color.h ****     lv_color_t ret;
 462:Middlewares/lvgl/src/extra/widgets/colorwheel/../../../../src/hal/../misc/lv_color.h **** #if LV_COLOR_DEPTH != 1
 463:Middlewares/lvgl/src/extra/widgets/colorwheel/../../../../src/hal/../misc/lv_color.h ****     /*LV_COLOR_DEPTH == 8, 16 or 32*/
 464:Middlewares/lvgl/src/extra/widgets/colorwheel/../../../../src/hal/../misc/lv_color.h ****     LV_COLOR_SET_R(ret, LV_UDIV255((uint16_t) LV_COLOR_GET_R(c1) * mix + LV_COLOR_GET_R(c2) *
 465:Middlewares/lvgl/src/extra/widgets/colorwheel/../../../../src/hal/../misc/lv_color.h ****                                         (255 - mix) + LV_COLOR_MIX_ROUND_OFS));
 466:Middlewares/lvgl/src/extra/widgets/colorwheel/../../../../src/hal/../misc/lv_color.h ****     LV_COLOR_SET_G(ret, LV_UDIV255((uint16_t) LV_COLOR_GET_G(c1) * mix + LV_COLOR_GET_G(c2) *
 467:Middlewares/lvgl/src/extra/widgets/colorwheel/../../../../src/hal/../misc/lv_color.h ****                                         (255 - mix) + LV_COLOR_MIX_ROUND_OFS));
 468:Middlewares/lvgl/src/extra/widgets/colorwheel/../../../../src/hal/../misc/lv_color.h ****     LV_COLOR_SET_B(ret, LV_UDIV255((uint16_t) LV_COLOR_GET_B(c1) * mix + LV_COLOR_GET_B(c2) *
 469:Middlewares/lvgl/src/extra/widgets/colorwheel/../../../../src/hal/../misc/lv_color.h ****                                         (255 - mix) + LV_COLOR_MIX_ROUND_OFS));
 470:Middlewares/lvgl/src/extra/widgets/colorwheel/../../../../src/hal/../misc/lv_color.h ****     LV_COLOR_SET_A(ret, 0xFF);
 471:Middlewares/lvgl/src/extra/widgets/colorwheel/../../../../src/hal/../misc/lv_color.h **** #else
 472:Middlewares/lvgl/src/extra/widgets/colorwheel/../../../../src/hal/../misc/lv_color.h ****     /*LV_COLOR_DEPTH == 1*/
 473:Middlewares/lvgl/src/extra/widgets/colorwheel/../../../../src/hal/../misc/lv_color.h ****     ret.full = mix > LV_OPA_50 ? c1.full : c2.full;
 474:Middlewares/lvgl/src/extra/widgets/colorwheel/../../../../src/hal/../misc/lv_color.h **** #endif
 475:Middlewares/lvgl/src/extra/widgets/colorwheel/../../../../src/hal/../misc/lv_color.h **** 
 476:Middlewares/lvgl/src/extra/widgets/colorwheel/../../../../src/hal/../misc/lv_color.h ****     return ret;
 477:Middlewares/lvgl/src/extra/widgets/colorwheel/../../../../src/hal/../misc/lv_color.h **** }
 478:Middlewares/lvgl/src/extra/widgets/colorwheel/../../../../src/hal/../misc/lv_color.h **** 
 479:Middlewares/lvgl/src/extra/widgets/colorwheel/../../../../src/hal/../misc/lv_color.h **** LV_ATTRIBUTE_FAST_MEM static inline void lv_color_premult(lv_color_t c, uint8_t mix, uint16_t * out
 480:Middlewares/lvgl/src/extra/widgets/colorwheel/../../../../src/hal/../misc/lv_color.h **** {
 481:Middlewares/lvgl/src/extra/widgets/colorwheel/../../../../src/hal/../misc/lv_color.h **** #if LV_COLOR_DEPTH != 1
 482:Middlewares/lvgl/src/extra/widgets/colorwheel/../../../../src/hal/../misc/lv_color.h ****     out[0] = (uint16_t) LV_COLOR_GET_R(c) * mix;
 483:Middlewares/lvgl/src/extra/widgets/colorwheel/../../../../src/hal/../misc/lv_color.h ****     out[1] = (uint16_t) LV_COLOR_GET_G(c) * mix;
 484:Middlewares/lvgl/src/extra/widgets/colorwheel/../../../../src/hal/../misc/lv_color.h ****     out[2] = (uint16_t) LV_COLOR_GET_B(c) * mix;
 485:Middlewares/lvgl/src/extra/widgets/colorwheel/../../../../src/hal/../misc/lv_color.h **** #else
 486:Middlewares/lvgl/src/extra/widgets/colorwheel/../../../../src/hal/../misc/lv_color.h ****     (void) mix;
 487:Middlewares/lvgl/src/extra/widgets/colorwheel/../../../../src/hal/../misc/lv_color.h ****     /*Pre-multiplication can't be used with 1 bpp*/
 488:Middlewares/lvgl/src/extra/widgets/colorwheel/../../../../src/hal/../misc/lv_color.h ****     out[0] = LV_COLOR_GET_R(c);
 489:Middlewares/lvgl/src/extra/widgets/colorwheel/../../../../src/hal/../misc/lv_color.h ****     out[1] = LV_COLOR_GET_G(c);
 490:Middlewares/lvgl/src/extra/widgets/colorwheel/../../../../src/hal/../misc/lv_color.h ****     out[2] = LV_COLOR_GET_B(c);
 491:Middlewares/lvgl/src/extra/widgets/colorwheel/../../../../src/hal/../misc/lv_color.h **** #endif
 492:Middlewares/lvgl/src/extra/widgets/colorwheel/../../../../src/hal/../misc/lv_color.h **** 
 493:Middlewares/lvgl/src/extra/widgets/colorwheel/../../../../src/hal/../misc/lv_color.h **** }
 494:Middlewares/lvgl/src/extra/widgets/colorwheel/../../../../src/hal/../misc/lv_color.h **** 
 495:Middlewares/lvgl/src/extra/widgets/colorwheel/../../../../src/hal/../misc/lv_color.h **** /**
 496:Middlewares/lvgl/src/extra/widgets/colorwheel/../../../../src/hal/../misc/lv_color.h ****  * Mix two colors with a given ratio. It runs faster then `lv_color_mix` but requires some pre comp
 497:Middlewares/lvgl/src/extra/widgets/colorwheel/../../../../src/hal/../misc/lv_color.h ****  * @param premult_c1 The first color. Should be preprocessed with `lv_color_premult(c1)`
 498:Middlewares/lvgl/src/extra/widgets/colorwheel/../../../../src/hal/../misc/lv_color.h ****  * @param c2 The second color. As it is no pre computation required on it
 499:Middlewares/lvgl/src/extra/widgets/colorwheel/../../../../src/hal/../misc/lv_color.h ****  * @param mix The ratio of the colors. 0: full `c1`, 255: full `c2`, 127: half `c1` and half `c2`.
 500:Middlewares/lvgl/src/extra/widgets/colorwheel/../../../../src/hal/../misc/lv_color.h ****  *            Should be modified like mix = `255 - mix`
 501:Middlewares/lvgl/src/extra/widgets/colorwheel/../../../../src/hal/../misc/lv_color.h ****  * @return the mixed color
ARM GAS  /tmp/ccyILfU7.s 			page 27


 502:Middlewares/lvgl/src/extra/widgets/colorwheel/../../../../src/hal/../misc/lv_color.h ****  * @note 255 won't give clearly `c1`.
 503:Middlewares/lvgl/src/extra/widgets/colorwheel/../../../../src/hal/../misc/lv_color.h ****  */
 504:Middlewares/lvgl/src/extra/widgets/colorwheel/../../../../src/hal/../misc/lv_color.h **** LV_ATTRIBUTE_FAST_MEM static inline lv_color_t lv_color_mix_premult(uint16_t * premult_c1, lv_color
 505:Middlewares/lvgl/src/extra/widgets/colorwheel/../../../../src/hal/../misc/lv_color.h **** {
 506:Middlewares/lvgl/src/extra/widgets/colorwheel/../../../../src/hal/../misc/lv_color.h ****     lv_color_t ret;
 507:Middlewares/lvgl/src/extra/widgets/colorwheel/../../../../src/hal/../misc/lv_color.h **** #if LV_COLOR_DEPTH != 1
 508:Middlewares/lvgl/src/extra/widgets/colorwheel/../../../../src/hal/../misc/lv_color.h ****     /*LV_COLOR_DEPTH == 8, 16 or 32*/
 509:Middlewares/lvgl/src/extra/widgets/colorwheel/../../../../src/hal/../misc/lv_color.h ****     LV_COLOR_SET_R(ret, LV_UDIV255(premult_c1[0] + LV_COLOR_GET_R(c2) * mix + LV_COLOR_MIX_ROUND_OF
 510:Middlewares/lvgl/src/extra/widgets/colorwheel/../../../../src/hal/../misc/lv_color.h ****     LV_COLOR_SET_G(ret, LV_UDIV255(premult_c1[1] + LV_COLOR_GET_G(c2) * mix + LV_COLOR_MIX_ROUND_OF
 511:Middlewares/lvgl/src/extra/widgets/colorwheel/../../../../src/hal/../misc/lv_color.h ****     LV_COLOR_SET_B(ret, LV_UDIV255(premult_c1[2] + LV_COLOR_GET_B(c2) * mix + LV_COLOR_MIX_ROUND_OF
 512:Middlewares/lvgl/src/extra/widgets/colorwheel/../../../../src/hal/../misc/lv_color.h ****     LV_COLOR_SET_A(ret, 0xFF);
 513:Middlewares/lvgl/src/extra/widgets/colorwheel/../../../../src/hal/../misc/lv_color.h **** #else
 514:Middlewares/lvgl/src/extra/widgets/colorwheel/../../../../src/hal/../misc/lv_color.h ****     /*LV_COLOR_DEPTH == 1*/
 515:Middlewares/lvgl/src/extra/widgets/colorwheel/../../../../src/hal/../misc/lv_color.h ****     /*Restore color1*/
 516:Middlewares/lvgl/src/extra/widgets/colorwheel/../../../../src/hal/../misc/lv_color.h ****     lv_color_t c1;
 517:Middlewares/lvgl/src/extra/widgets/colorwheel/../../../../src/hal/../misc/lv_color.h ****     LV_COLOR_SET_R(c1, premult_c1[0]);
 518:Middlewares/lvgl/src/extra/widgets/colorwheel/../../../../src/hal/../misc/lv_color.h ****     LV_COLOR_SET_G(c1, premult_c1[1]);
 519:Middlewares/lvgl/src/extra/widgets/colorwheel/../../../../src/hal/../misc/lv_color.h ****     LV_COLOR_SET_B(c1, premult_c1[2]);
 520:Middlewares/lvgl/src/extra/widgets/colorwheel/../../../../src/hal/../misc/lv_color.h ****     ret.full = mix > LV_OPA_50 ? c2.full : c1.full;
 521:Middlewares/lvgl/src/extra/widgets/colorwheel/../../../../src/hal/../misc/lv_color.h **** #endif
 522:Middlewares/lvgl/src/extra/widgets/colorwheel/../../../../src/hal/../misc/lv_color.h **** 
 523:Middlewares/lvgl/src/extra/widgets/colorwheel/../../../../src/hal/../misc/lv_color.h ****     return ret;
 524:Middlewares/lvgl/src/extra/widgets/colorwheel/../../../../src/hal/../misc/lv_color.h **** }
 525:Middlewares/lvgl/src/extra/widgets/colorwheel/../../../../src/hal/../misc/lv_color.h **** 
 526:Middlewares/lvgl/src/extra/widgets/colorwheel/../../../../src/hal/../misc/lv_color.h **** /**
 527:Middlewares/lvgl/src/extra/widgets/colorwheel/../../../../src/hal/../misc/lv_color.h ****  * Mix two colors. Both color can have alpha value.
 528:Middlewares/lvgl/src/extra/widgets/colorwheel/../../../../src/hal/../misc/lv_color.h ****  * @param bg_color background color
 529:Middlewares/lvgl/src/extra/widgets/colorwheel/../../../../src/hal/../misc/lv_color.h ****  * @param bg_opa alpha of the background color
 530:Middlewares/lvgl/src/extra/widgets/colorwheel/../../../../src/hal/../misc/lv_color.h ****  * @param fg_color foreground color
 531:Middlewares/lvgl/src/extra/widgets/colorwheel/../../../../src/hal/../misc/lv_color.h ****  * @param fg_opa alpha of the foreground color
 532:Middlewares/lvgl/src/extra/widgets/colorwheel/../../../../src/hal/../misc/lv_color.h ****  * @param res_color the result color
 533:Middlewares/lvgl/src/extra/widgets/colorwheel/../../../../src/hal/../misc/lv_color.h ****  * @param res_opa the result opacity
 534:Middlewares/lvgl/src/extra/widgets/colorwheel/../../../../src/hal/../misc/lv_color.h ****  */
 535:Middlewares/lvgl/src/extra/widgets/colorwheel/../../../../src/hal/../misc/lv_color.h **** LV_ATTRIBUTE_FAST_MEM static inline void lv_color_mix_with_alpha(lv_color_t bg_color, lv_opa_t bg_o
 536:Middlewares/lvgl/src/extra/widgets/colorwheel/../../../../src/hal/../misc/lv_color.h ****                                                                  lv_color_t fg_color, lv_opa_t fg_o
 537:Middlewares/lvgl/src/extra/widgets/colorwheel/../../../../src/hal/../misc/lv_color.h ****                                                                  lv_color_t * res_color, lv_opa_t *
 538:Middlewares/lvgl/src/extra/widgets/colorwheel/../../../../src/hal/../misc/lv_color.h **** {
 539:Middlewares/lvgl/src/extra/widgets/colorwheel/../../../../src/hal/../misc/lv_color.h ****     /*Pick the foreground if it's fully opaque or the Background is fully transparent*/
 540:Middlewares/lvgl/src/extra/widgets/colorwheel/../../../../src/hal/../misc/lv_color.h ****     if(fg_opa >= LV_OPA_MAX || bg_opa <= LV_OPA_MIN) {
 541:Middlewares/lvgl/src/extra/widgets/colorwheel/../../../../src/hal/../misc/lv_color.h ****         res_color->full = fg_color.full;
 542:Middlewares/lvgl/src/extra/widgets/colorwheel/../../../../src/hal/../misc/lv_color.h ****         *res_opa = fg_opa;
 543:Middlewares/lvgl/src/extra/widgets/colorwheel/../../../../src/hal/../misc/lv_color.h ****     }
 544:Middlewares/lvgl/src/extra/widgets/colorwheel/../../../../src/hal/../misc/lv_color.h ****     /*Transparent foreground: use the Background*/
 545:Middlewares/lvgl/src/extra/widgets/colorwheel/../../../../src/hal/../misc/lv_color.h ****     else if(fg_opa <= LV_OPA_MIN) {
 546:Middlewares/lvgl/src/extra/widgets/colorwheel/../../../../src/hal/../misc/lv_color.h ****         res_color->full = bg_color.full;
 547:Middlewares/lvgl/src/extra/widgets/colorwheel/../../../../src/hal/../misc/lv_color.h ****         *res_opa = bg_opa;
 548:Middlewares/lvgl/src/extra/widgets/colorwheel/../../../../src/hal/../misc/lv_color.h ****     }
 549:Middlewares/lvgl/src/extra/widgets/colorwheel/../../../../src/hal/../misc/lv_color.h ****     /*Opaque background: use simple mix*/
 550:Middlewares/lvgl/src/extra/widgets/colorwheel/../../../../src/hal/../misc/lv_color.h ****     else if(bg_opa >= LV_OPA_MAX) {
 551:Middlewares/lvgl/src/extra/widgets/colorwheel/../../../../src/hal/../misc/lv_color.h ****         *res_color = lv_color_mix(fg_color, bg_color, fg_opa);
 552:Middlewares/lvgl/src/extra/widgets/colorwheel/../../../../src/hal/../misc/lv_color.h ****         *res_opa = LV_OPA_COVER;
 553:Middlewares/lvgl/src/extra/widgets/colorwheel/../../../../src/hal/../misc/lv_color.h ****     }
 554:Middlewares/lvgl/src/extra/widgets/colorwheel/../../../../src/hal/../misc/lv_color.h ****     /*Both colors have alpha. Expensive calculation need to be applied*/
 555:Middlewares/lvgl/src/extra/widgets/colorwheel/../../../../src/hal/../misc/lv_color.h ****     else {
 556:Middlewares/lvgl/src/extra/widgets/colorwheel/../../../../src/hal/../misc/lv_color.h ****         /*Save the parameters and the result. If they will be asked again don't compute again*/
 557:Middlewares/lvgl/src/extra/widgets/colorwheel/../../../../src/hal/../misc/lv_color.h ****         static lv_opa_t fg_opa_save     = 0;
 558:Middlewares/lvgl/src/extra/widgets/colorwheel/../../../../src/hal/../misc/lv_color.h ****         static lv_opa_t bg_opa_save     = 0;
ARM GAS  /tmp/ccyILfU7.s 			page 28


 559:Middlewares/lvgl/src/extra/widgets/colorwheel/../../../../src/hal/../misc/lv_color.h ****         static lv_color_t fg_color_save = _LV_COLOR_ZERO_INITIALIZER;
 560:Middlewares/lvgl/src/extra/widgets/colorwheel/../../../../src/hal/../misc/lv_color.h ****         static lv_color_t bg_color_save = _LV_COLOR_ZERO_INITIALIZER;
 561:Middlewares/lvgl/src/extra/widgets/colorwheel/../../../../src/hal/../misc/lv_color.h ****         static lv_color_t res_color_saved = _LV_COLOR_ZERO_INITIALIZER;
 562:Middlewares/lvgl/src/extra/widgets/colorwheel/../../../../src/hal/../misc/lv_color.h ****         static lv_opa_t res_opa_saved = 0;
 563:Middlewares/lvgl/src/extra/widgets/colorwheel/../../../../src/hal/../misc/lv_color.h **** 
 564:Middlewares/lvgl/src/extra/widgets/colorwheel/../../../../src/hal/../misc/lv_color.h ****         if(fg_opa != fg_opa_save || bg_opa != bg_opa_save || fg_color.full != fg_color_save.full ||
 565:Middlewares/lvgl/src/extra/widgets/colorwheel/../../../../src/hal/../misc/lv_color.h ****            bg_color.full != bg_color_save.full) {
 566:Middlewares/lvgl/src/extra/widgets/colorwheel/../../../../src/hal/../misc/lv_color.h ****             fg_opa_save        = fg_opa;
 567:Middlewares/lvgl/src/extra/widgets/colorwheel/../../../../src/hal/../misc/lv_color.h ****             bg_opa_save        = bg_opa;
 568:Middlewares/lvgl/src/extra/widgets/colorwheel/../../../../src/hal/../misc/lv_color.h ****             fg_color_save.full = fg_color.full;
 569:Middlewares/lvgl/src/extra/widgets/colorwheel/../../../../src/hal/../misc/lv_color.h ****             bg_color_save.full = bg_color.full;
 570:Middlewares/lvgl/src/extra/widgets/colorwheel/../../../../src/hal/../misc/lv_color.h ****             /*Info:
 571:Middlewares/lvgl/src/extra/widgets/colorwheel/../../../../src/hal/../misc/lv_color.h ****              * https://en.wikipedia.org/wiki/Alpha_compositing#Analytical_derivation_of_the_over_op
 572:Middlewares/lvgl/src/extra/widgets/colorwheel/../../../../src/hal/../misc/lv_color.h ****             res_opa_saved = 255 - ((uint16_t)((uint16_t)(255 - fg_opa) * (255 - bg_opa)) >> 8);
 573:Middlewares/lvgl/src/extra/widgets/colorwheel/../../../../src/hal/../misc/lv_color.h ****             if(res_opa_saved == 0) {
 574:Middlewares/lvgl/src/extra/widgets/colorwheel/../../../../src/hal/../misc/lv_color.h ****                 while(1)
 575:Middlewares/lvgl/src/extra/widgets/colorwheel/../../../../src/hal/../misc/lv_color.h ****                     ;
 576:Middlewares/lvgl/src/extra/widgets/colorwheel/../../../../src/hal/../misc/lv_color.h ****             }
 577:Middlewares/lvgl/src/extra/widgets/colorwheel/../../../../src/hal/../misc/lv_color.h ****             lv_opa_t ratio = (uint16_t)((uint16_t)fg_opa * 255) / res_opa_saved;
 578:Middlewares/lvgl/src/extra/widgets/colorwheel/../../../../src/hal/../misc/lv_color.h ****             res_color_saved = lv_color_mix(fg_color, bg_color, ratio);
 579:Middlewares/lvgl/src/extra/widgets/colorwheel/../../../../src/hal/../misc/lv_color.h **** 
 580:Middlewares/lvgl/src/extra/widgets/colorwheel/../../../../src/hal/../misc/lv_color.h ****         }
 581:Middlewares/lvgl/src/extra/widgets/colorwheel/../../../../src/hal/../misc/lv_color.h **** 
 582:Middlewares/lvgl/src/extra/widgets/colorwheel/../../../../src/hal/../misc/lv_color.h ****         res_color->full = res_color_saved.full;
 583:Middlewares/lvgl/src/extra/widgets/colorwheel/../../../../src/hal/../misc/lv_color.h ****         *res_opa = res_opa_saved;
 584:Middlewares/lvgl/src/extra/widgets/colorwheel/../../../../src/hal/../misc/lv_color.h ****     }
 585:Middlewares/lvgl/src/extra/widgets/colorwheel/../../../../src/hal/../misc/lv_color.h **** }
 586:Middlewares/lvgl/src/extra/widgets/colorwheel/../../../../src/hal/../misc/lv_color.h **** 
 587:Middlewares/lvgl/src/extra/widgets/colorwheel/../../../../src/hal/../misc/lv_color.h **** //! @endcond
 588:Middlewares/lvgl/src/extra/widgets/colorwheel/../../../../src/hal/../misc/lv_color.h **** 
 589:Middlewares/lvgl/src/extra/widgets/colorwheel/../../../../src/hal/../misc/lv_color.h **** /**
 590:Middlewares/lvgl/src/extra/widgets/colorwheel/../../../../src/hal/../misc/lv_color.h ****  * Get the brightness of a color
 591:Middlewares/lvgl/src/extra/widgets/colorwheel/../../../../src/hal/../misc/lv_color.h ****  * @param color a color
 592:Middlewares/lvgl/src/extra/widgets/colorwheel/../../../../src/hal/../misc/lv_color.h ****  * @return the brightness [0..255]
 593:Middlewares/lvgl/src/extra/widgets/colorwheel/../../../../src/hal/../misc/lv_color.h ****  */
 594:Middlewares/lvgl/src/extra/widgets/colorwheel/../../../../src/hal/../misc/lv_color.h **** static inline uint8_t lv_color_brightness(lv_color_t color)
 595:Middlewares/lvgl/src/extra/widgets/colorwheel/../../../../src/hal/../misc/lv_color.h **** {
 596:Middlewares/lvgl/src/extra/widgets/colorwheel/../../../../src/hal/../misc/lv_color.h ****     lv_color32_t c32;
 597:Middlewares/lvgl/src/extra/widgets/colorwheel/../../../../src/hal/../misc/lv_color.h ****     c32.full        = lv_color_to32(color);
 598:Middlewares/lvgl/src/extra/widgets/colorwheel/../../../../src/hal/../misc/lv_color.h ****     uint16_t bright = (uint16_t)(3u * LV_COLOR_GET_R32(c32) + LV_COLOR_GET_B32(c32) + 4u * LV_COLOR
 599:Middlewares/lvgl/src/extra/widgets/colorwheel/../../../../src/hal/../misc/lv_color.h ****     return (uint8_t)(bright >> 3);
 600:Middlewares/lvgl/src/extra/widgets/colorwheel/../../../../src/hal/../misc/lv_color.h **** }
 601:Middlewares/lvgl/src/extra/widgets/colorwheel/../../../../src/hal/../misc/lv_color.h **** 
 602:Middlewares/lvgl/src/extra/widgets/colorwheel/../../../../src/hal/../misc/lv_color.h **** static inline lv_color_t lv_color_make(uint8_t r, uint8_t g, uint8_t b)
 308              		.loc 2 602 26 is_stmt 1 view .LVU96
 309              	.LBB51:
 603:Middlewares/lvgl/src/extra/widgets/colorwheel/../../../../src/hal/../misc/lv_color.h **** {
 604:Middlewares/lvgl/src/extra/widgets/colorwheel/../../../../src/hal/../misc/lv_color.h ****     return _LV_COLOR_MAKE_TYPE_HELPER LV_COLOR_MAKE(r, g, b);
 310              		.loc 2 604 5 view .LVU97
 311              		.loc 2 604 39 is_stmt 0 view .LVU98
 312 0096 C908     		lsrs	r1, r1, #3
 313              	.LVL32:
 314              		.loc 2 604 39 view .LVU99
 315 0098 9208     		lsrs	r2, r2, #2
 316              	.LVL33:
 317              		.loc 2 604 39 view .LVU100
 318 009a DB08     		lsrs	r3, r3, #3
ARM GAS  /tmp/ccyILfU7.s 			page 29


 319              	.LVL34:
 320              		.loc 2 604 12 view .LVU101
 321 009c 4FF00000 		mov	r0, #0	@ movhi
 322 00a0 61F30400 		bfi	r0, r1, #0, #5
 323 00a4 62F34A10 		bfi	r0, r2, #5, #6
 324 00a8 63F3CF20 		bfi	r0, r3, #11, #5
 325              	.LVL35:
 326              		.loc 2 604 12 view .LVU102
 327              	.LBE51:
 328              	.LBE50:
 669:Middlewares/lvgl/src/extra/widgets/colorwheel/lv_colorwheel.c **** }
 329              		.loc 1 669 1 view .LVU103
 330 00ac 04B0     		add	sp, sp, #16
 331              	.LCFI3:
 332              		.cfi_remember_state
 333              		.cfi_def_cfa_offset 8
 334              		@ sp needed
 335 00ae 10BD     		pop	{r4, pc}
 336              	.LVL36:
 337              	.L14:
 338              	.LCFI4:
 339              		.cfi_restore_state
 653:Middlewares/lvgl/src/extra/widgets/colorwheel/lv_colorwheel.c ****               h = (uint16_t)(((uint32_t)ext->hsv.h * 6 * 256) / 360); v = (uint8_t)(((uint16_t)ext-
 340              		.loc 1 653 13 is_stmt 1 view .LVU104
 653:Middlewares/lvgl/src/extra/widgets/colorwheel/lv_colorwheel.c ****               h = (uint16_t)(((uint32_t)ext->hsv.h * 6 * 256) / 360); v = (uint8_t)(((uint16_t)ext-
 341              		.loc 1 653 19 is_stmt 0 view .LVU105
 342 00b0 2E4C     		ldr	r4, .L21
 343 00b2 2478     		ldrb	r4, [r4]	@ zero_extendqisi2
 653:Middlewares/lvgl/src/extra/widgets/colorwheel/lv_colorwheel.c ****               h = (uint16_t)(((uint32_t)ext->hsv.h * 6 * 256) / 360); v = (uint8_t)(((uint16_t)ext-
 344              		.loc 1 653 16 view .LVU106
 345 00b4 A342     		cmp	r3, r4
 346 00b6 19D0     		beq	.L18
 654:Middlewares/lvgl/src/extra/widgets/colorwheel/lv_colorwheel.c ****               m = ext->mode;
 347              		.loc 1 654 15 is_stmt 1 view .LVU107
 654:Middlewares/lvgl/src/extra/widgets/colorwheel/lv_colorwheel.c ****               m = ext->mode;
 348              		.loc 1 654 49 is_stmt 0 view .LVU108
 349 00b8 838C     		ldrh	r3, [r0, #36]
 654:Middlewares/lvgl/src/extra/widgets/colorwheel/lv_colorwheel.c ****               m = ext->mode;
 350              		.loc 1 654 56 view .LVU109
 351 00ba 03EB4303 		add	r3, r3, r3, lsl #1
 654:Middlewares/lvgl/src/extra/widgets/colorwheel/lv_colorwheel.c ****               m = ext->mode;
 352              		.loc 1 654 63 view .LVU110
 353 00be 9B01     		lsls	r3, r3, #6
 354 00c0 2E4C     		ldr	r4, .L21+16
 355 00c2 A4FB0343 		umull	r4, r3, r4, r3
 654:Middlewares/lvgl/src/extra/widgets/colorwheel/lv_colorwheel.c ****               m = ext->mode;
 356              		.loc 1 654 19 view .LVU111
 357 00c6 C3F38F03 		ubfx	r3, r3, #2, #16
 654:Middlewares/lvgl/src/extra/widgets/colorwheel/lv_colorwheel.c ****               m = ext->mode;
 358              		.loc 1 654 17 view .LVU112
 359 00ca 2D4C     		ldr	r4, .L21+20
 360 00cc 2380     		strh	r3, [r4]	@ movhi
 654:Middlewares/lvgl/src/extra/widgets/colorwheel/lv_colorwheel.c ****               m = ext->mode;
 361              		.loc 1 654 71 is_stmt 1 view .LVU113
 654:Middlewares/lvgl/src/extra/widgets/colorwheel/lv_colorwheel.c ****               m = ext->mode;
 362              		.loc 1 654 104 is_stmt 0 view .LVU114
 363 00ce 90F82730 		ldrb	r3, [r0, #39]	@ zero_extendqisi2
ARM GAS  /tmp/ccyILfU7.s 			page 30


 654:Middlewares/lvgl/src/extra/widgets/colorwheel/lv_colorwheel.c ****               m = ext->mode;
 364              		.loc 1 654 107 view .LVU115
 365 00d2 03EB4303 		add	r3, r3, r3, lsl #1
 366 00d6 03EB0313 		add	r3, r3, r3, lsl #4
 654:Middlewares/lvgl/src/extra/widgets/colorwheel/lv_colorwheel.c ****               m = ext->mode;
 367              		.loc 1 654 113 view .LVU116
 368 00da 2548     		ldr	r0, .L21+4
 369              	.LVL37:
 654:Middlewares/lvgl/src/extra/widgets/colorwheel/lv_colorwheel.c ****               m = ext->mode;
 370              		.loc 1 654 113 view .LVU117
 371 00dc 80FB0303 		smull	r0, r3, r0, r3
 654:Middlewares/lvgl/src/extra/widgets/colorwheel/lv_colorwheel.c ****               m = ext->mode;
 372              		.loc 1 654 75 view .LVU118
 373 00e0 C3F3C703 		ubfx	r3, r3, #3, #8
 654:Middlewares/lvgl/src/extra/widgets/colorwheel/lv_colorwheel.c ****               m = ext->mode;
 374              		.loc 1 654 73 view .LVU119
 375 00e4 2448     		ldr	r0, .L21+12
 376 00e6 0370     		strb	r3, [r0]
 655:Middlewares/lvgl/src/extra/widgets/colorwheel/lv_colorwheel.c ****             }
 377              		.loc 1 655 15 is_stmt 1 view .LVU120
 655:Middlewares/lvgl/src/extra/widgets/colorwheel/lv_colorwheel.c ****             }
 378              		.loc 1 655 17 is_stmt 0 view .LVU121
 379 00e8 204B     		ldr	r3, .L21
 380 00ea 1A70     		strb	r2, [r3]
 381              	.L18:
 657:Middlewares/lvgl/src/extra/widgets/colorwheel/lv_colorwheel.c ****             break;
 382              		.loc 1 657 13 is_stmt 1 view .LVU122
 383 00ec 0DF10D03 		add	r3, sp, #13
 384 00f0 0193     		str	r3, [sp, #4]
 385 00f2 0DF10E03 		add	r3, sp, #14
 386 00f6 0093     		str	r3, [sp]
 387 00f8 0DF10F03 		add	r3, sp, #15
 388 00fc 1E4A     		ldr	r2, .L21+12
 389 00fe 1278     		ldrb	r2, [r2]	@ zero_extendqisi2
 390 0100 C9B2     		uxtb	r1, r1
 391              	.LVL38:
 657:Middlewares/lvgl/src/extra/widgets/colorwheel/lv_colorwheel.c ****             break;
 392              		.loc 1 657 13 is_stmt 0 view .LVU123
 393 0102 1F48     		ldr	r0, .L21+20
 394 0104 0088     		ldrh	r0, [r0]
 395 0106 FFF7FEFF 		bl	fast_hsv2rgb
 396              	.LVL39:
 658:Middlewares/lvgl/src/extra/widgets/colorwheel/lv_colorwheel.c ****         case LV_COLORWHEEL_MODE_VALUE:
 397              		.loc 1 658 13 is_stmt 1 view .LVU124
 398 010a BEE7     		b	.L17
 399              	.LVL40:
 400              	.L15:
 661:Middlewares/lvgl/src/extra/widgets/colorwheel/lv_colorwheel.c ****               h = (uint16_t)(((uint32_t)ext->hsv.h * 6 * 256) / 360); s = (uint8_t)(((uint16_t)ext-
 401              		.loc 1 661 13 view .LVU125
 661:Middlewares/lvgl/src/extra/widgets/colorwheel/lv_colorwheel.c ****               h = (uint16_t)(((uint32_t)ext->hsv.h * 6 * 256) / 360); s = (uint8_t)(((uint16_t)ext-
 402              		.loc 1 661 19 is_stmt 0 view .LVU126
 403 010c 174C     		ldr	r4, .L21
 404 010e 94F800C0 		ldrb	ip, [r4]	@ zero_extendqisi2
 661:Middlewares/lvgl/src/extra/widgets/colorwheel/lv_colorwheel.c ****               h = (uint16_t)(((uint32_t)ext->hsv.h * 6 * 256) / 360); s = (uint8_t)(((uint16_t)ext-
 405              		.loc 1 661 16 view .LVU127
 406 0112 6345     		cmp	r3, ip
 407 0114 19D0     		beq	.L19
ARM GAS  /tmp/ccyILfU7.s 			page 31


 662:Middlewares/lvgl/src/extra/widgets/colorwheel/lv_colorwheel.c ****               m = ext->mode;
 408              		.loc 1 662 15 is_stmt 1 view .LVU128
 662:Middlewares/lvgl/src/extra/widgets/colorwheel/lv_colorwheel.c ****               m = ext->mode;
 409              		.loc 1 662 49 is_stmt 0 view .LVU129
 410 0116 838C     		ldrh	r3, [r0, #36]
 662:Middlewares/lvgl/src/extra/widgets/colorwheel/lv_colorwheel.c ****               m = ext->mode;
 411              		.loc 1 662 56 view .LVU130
 412 0118 03EB4303 		add	r3, r3, r3, lsl #1
 662:Middlewares/lvgl/src/extra/widgets/colorwheel/lv_colorwheel.c ****               m = ext->mode;
 413              		.loc 1 662 63 view .LVU131
 414 011c 9B01     		lsls	r3, r3, #6
 415 011e 174C     		ldr	r4, .L21+16
 416 0120 A4FB0343 		umull	r4, r3, r4, r3
 662:Middlewares/lvgl/src/extra/widgets/colorwheel/lv_colorwheel.c ****               m = ext->mode;
 417              		.loc 1 662 19 view .LVU132
 418 0124 C3F38F03 		ubfx	r3, r3, #2, #16
 662:Middlewares/lvgl/src/extra/widgets/colorwheel/lv_colorwheel.c ****               m = ext->mode;
 419              		.loc 1 662 17 view .LVU133
 420 0128 154C     		ldr	r4, .L21+20
 421 012a 2380     		strh	r3, [r4]	@ movhi
 662:Middlewares/lvgl/src/extra/widgets/colorwheel/lv_colorwheel.c ****               m = ext->mode;
 422              		.loc 1 662 71 is_stmt 1 view .LVU134
 662:Middlewares/lvgl/src/extra/widgets/colorwheel/lv_colorwheel.c ****               m = ext->mode;
 423              		.loc 1 662 104 is_stmt 0 view .LVU135
 424 012c 90F82630 		ldrb	r3, [r0, #38]	@ zero_extendqisi2
 662:Middlewares/lvgl/src/extra/widgets/colorwheel/lv_colorwheel.c ****               m = ext->mode;
 425              		.loc 1 662 107 view .LVU136
 426 0130 03EB4303 		add	r3, r3, r3, lsl #1
 427 0134 03EB0313 		add	r3, r3, r3, lsl #4
 662:Middlewares/lvgl/src/extra/widgets/colorwheel/lv_colorwheel.c ****               m = ext->mode;
 428              		.loc 1 662 113 view .LVU137
 429 0138 0D48     		ldr	r0, .L21+4
 430              	.LVL41:
 662:Middlewares/lvgl/src/extra/widgets/colorwheel/lv_colorwheel.c ****               m = ext->mode;
 431              		.loc 1 662 113 view .LVU138
 432 013a 80FB0303 		smull	r0, r3, r0, r3
 662:Middlewares/lvgl/src/extra/widgets/colorwheel/lv_colorwheel.c ****               m = ext->mode;
 433              		.loc 1 662 75 view .LVU139
 434 013e C3F3C703 		ubfx	r3, r3, #3, #8
 662:Middlewares/lvgl/src/extra/widgets/colorwheel/lv_colorwheel.c ****               m = ext->mode;
 435              		.loc 1 662 73 view .LVU140
 436 0142 0C48     		ldr	r0, .L21+8
 437 0144 0370     		strb	r3, [r0]
 663:Middlewares/lvgl/src/extra/widgets/colorwheel/lv_colorwheel.c ****             }
 438              		.loc 1 663 15 is_stmt 1 view .LVU141
 663:Middlewares/lvgl/src/extra/widgets/colorwheel/lv_colorwheel.c ****             }
 439              		.loc 1 663 17 is_stmt 0 view .LVU142
 440 0146 094B     		ldr	r3, .L21
 441 0148 1A70     		strb	r2, [r3]
 442              	.L19:
 665:Middlewares/lvgl/src/extra/widgets/colorwheel/lv_colorwheel.c ****             break;
 443              		.loc 1 665 13 is_stmt 1 view .LVU143
 444 014a 0DF10D03 		add	r3, sp, #13
 445 014e 0193     		str	r3, [sp, #4]
 446 0150 0DF10E03 		add	r3, sp, #14
 447 0154 0093     		str	r3, [sp]
 448 0156 0DF10F03 		add	r3, sp, #15
ARM GAS  /tmp/ccyILfU7.s 			page 32


 449 015a CAB2     		uxtb	r2, r1
 450 015c 0549     		ldr	r1, .L21+8
 451              	.LVL42:
 665:Middlewares/lvgl/src/extra/widgets/colorwheel/lv_colorwheel.c ****             break;
 452              		.loc 1 665 13 is_stmt 0 view .LVU144
 453 015e 0978     		ldrb	r1, [r1]	@ zero_extendqisi2
 454 0160 0748     		ldr	r0, .L21+20
 455 0162 0088     		ldrh	r0, [r0]
 456 0164 FFF7FEFF 		bl	fast_hsv2rgb
 457              	.LVL43:
 666:Middlewares/lvgl/src/extra/widgets/colorwheel/lv_colorwheel.c ****     }
 458              		.loc 1 666 13 is_stmt 1 view .LVU145
 459 0168 8FE7     		b	.L17
 460              	.L22:
 461 016a 00BF     		.align	2
 462              	.L21:
 463 016c 00000000 		.word	.LANCHOR0
 464 0170 67666666 		.word	1717986919
 465 0174 00000000 		.word	.LANCHOR1
 466 0178 00000000 		.word	.LANCHOR2
 467 017c 176CC116 		.word	381774871
 468 0180 00000000 		.word	.LANCHOR3
 469              		.cfi_endproc
 470              	.LFE203:
 472              		.section	.text.get_angle,"ax",%progbits
 473              		.align	1
 474              		.syntax unified
 475              		.thumb
 476              		.thumb_func
 477              		.fpu fpv4-sp-d16
 479              	get_angle:
 480              	.LVL44:
 481              	.LFB204:
 670:Middlewares/lvgl/src/extra/widgets/colorwheel/lv_colorwheel.c **** 
 671:Middlewares/lvgl/src/extra/widgets/colorwheel/lv_colorwheel.c **** static uint16_t get_angle(lv_obj_t * obj)
 672:Middlewares/lvgl/src/extra/widgets/colorwheel/lv_colorwheel.c **** {
 482              		.loc 1 672 1 view -0
 483              		.cfi_startproc
 484              		@ args = 0, pretend = 0, frame = 0
 485              		@ frame_needed = 0, uses_anonymous_args = 0
 486              		@ link register save eliminated.
 673:Middlewares/lvgl/src/extra/widgets/colorwheel/lv_colorwheel.c ****     lv_colorwheel_t * colorwheel = (lv_colorwheel_t *)obj;
 487              		.loc 1 673 5 view .LVU147
 674:Middlewares/lvgl/src/extra/widgets/colorwheel/lv_colorwheel.c ****     uint16_t angle;
 488              		.loc 1 674 5 view .LVU148
 675:Middlewares/lvgl/src/extra/widgets/colorwheel/lv_colorwheel.c ****     switch(colorwheel->mode) {
 489              		.loc 1 675 5 view .LVU149
 490              		.loc 1 675 22 is_stmt 0 view .LVU150
 491 0000 90F83C30 		ldrb	r3, [r0, #60]	@ zero_extendqisi2
 492 0004 03F00303 		and	r3, r3, #3
 493              		.loc 1 675 5 view .LVU151
 494 0008 012B     		cmp	r3, #1
 495 000a 03D0     		beq	.L24
 496 000c 022B     		cmp	r3, #2
 497 000e 0CD0     		beq	.L25
 676:Middlewares/lvgl/src/extra/widgets/colorwheel/lv_colorwheel.c ****         default:
 677:Middlewares/lvgl/src/extra/widgets/colorwheel/lv_colorwheel.c ****         case LV_COLORWHEEL_MODE_HUE:
ARM GAS  /tmp/ccyILfU7.s 			page 33


 678:Middlewares/lvgl/src/extra/widgets/colorwheel/lv_colorwheel.c ****             angle = colorwheel->hsv.h;
 498              		.loc 1 678 13 is_stmt 1 view .LVU152
 499              		.loc 1 678 19 is_stmt 0 view .LVU153
 500 0010 808C     		ldrh	r0, [r0, #36]
 501              	.LVL45:
 679:Middlewares/lvgl/src/extra/widgets/colorwheel/lv_colorwheel.c ****             break;
 502              		.loc 1 679 13 is_stmt 1 view .LVU154
 503 0012 7047     		bx	lr
 504              	.LVL46:
 505              	.L24:
 680:Middlewares/lvgl/src/extra/widgets/colorwheel/lv_colorwheel.c ****         case LV_COLORWHEEL_MODE_SATURATION:
 681:Middlewares/lvgl/src/extra/widgets/colorwheel/lv_colorwheel.c ****             angle = (colorwheel->hsv.s * 360) / 100;
 506              		.loc 1 681 13 view .LVU155
 507              		.loc 1 681 37 is_stmt 0 view .LVU156
 508 0014 90F82600 		ldrb	r0, [r0, #38]	@ zero_extendqisi2
 509              	.LVL47:
 510              		.loc 1 681 40 view .LVU157
 511 0018 4FF4B473 		mov	r3, #360
 512 001c 03FB00F0 		mul	r0, r3, r0
 513              		.loc 1 681 47 view .LVU158
 514 0020 074B     		ldr	r3, .L27
 515 0022 83FB0030 		smull	r3, r0, r3, r0
 516              		.loc 1 681 19 view .LVU159
 517 0026 4009     		lsrs	r0, r0, #5
 518              	.LVL48:
 682:Middlewares/lvgl/src/extra/widgets/colorwheel/lv_colorwheel.c ****             break;
 519              		.loc 1 682 13 is_stmt 1 view .LVU160
 520 0028 7047     		bx	lr
 521              	.LVL49:
 522              	.L25:
 683:Middlewares/lvgl/src/extra/widgets/colorwheel/lv_colorwheel.c ****         case LV_COLORWHEEL_MODE_VALUE:
 684:Middlewares/lvgl/src/extra/widgets/colorwheel/lv_colorwheel.c ****             angle = (colorwheel->hsv.v * 360) / 100 ;
 523              		.loc 1 684 13 view .LVU161
 524              		.loc 1 684 37 is_stmt 0 view .LVU162
 525 002a 90F82700 		ldrb	r0, [r0, #39]	@ zero_extendqisi2
 526              	.LVL50:
 527              		.loc 1 684 40 view .LVU163
 528 002e 4FF4B473 		mov	r3, #360
 529 0032 03FB00F0 		mul	r0, r3, r0
 530              		.loc 1 684 47 view .LVU164
 531 0036 024B     		ldr	r3, .L27
 532 0038 83FB0030 		smull	r3, r0, r3, r0
 533              		.loc 1 684 19 view .LVU165
 534 003c 4009     		lsrs	r0, r0, #5
 535              	.LVL51:
 685:Middlewares/lvgl/src/extra/widgets/colorwheel/lv_colorwheel.c ****             break;
 536              		.loc 1 685 13 is_stmt 1 view .LVU166
 686:Middlewares/lvgl/src/extra/widgets/colorwheel/lv_colorwheel.c ****     }
 687:Middlewares/lvgl/src/extra/widgets/colorwheel/lv_colorwheel.c ****     return angle;
 537              		.loc 1 687 5 view .LVU167
 688:Middlewares/lvgl/src/extra/widgets/colorwheel/lv_colorwheel.c **** }
 538              		.loc 1 688 1 is_stmt 0 view .LVU168
 539 003e 7047     		bx	lr
 540              	.L28:
 541              		.align	2
 542              	.L27:
 543 0040 1F85EB51 		.word	1374389535
ARM GAS  /tmp/ccyILfU7.s 			page 34


 544              		.cfi_endproc
 545              	.LFE204:
 547              		.section	.text.get_knob_area,"ax",%progbits
 548              		.align	1
 549              		.syntax unified
 550              		.thumb
 551              		.thumb_func
 552              		.fpu fpv4-sp-d16
 554              	get_knob_area:
 555              	.LVL52:
 556              	.LFB197:
 324:Middlewares/lvgl/src/extra/widgets/colorwheel/lv_colorwheel.c ****     lv_colorwheel_t * colorwheel = (lv_colorwheel_t *)obj;
 557              		.loc 1 324 1 is_stmt 1 view -0
 558              		.cfi_startproc
 559              		@ args = 0, pretend = 0, frame = 0
 560              		@ frame_needed = 0, uses_anonymous_args = 0
 324:Middlewares/lvgl/src/extra/widgets/colorwheel/lv_colorwheel.c ****     lv_colorwheel_t * colorwheel = (lv_colorwheel_t *)obj;
 561              		.loc 1 324 1 is_stmt 0 view .LVU170
 562 0000 2DE9F843 		push	{r3, r4, r5, r6, r7, r8, r9, lr}
 563              	.LCFI5:
 564              		.cfi_def_cfa_offset 32
 565              		.cfi_offset 3, -32
 566              		.cfi_offset 4, -28
 567              		.cfi_offset 5, -24
 568              		.cfi_offset 6, -20
 569              		.cfi_offset 7, -16
 570              		.cfi_offset 8, -12
 571              		.cfi_offset 9, -8
 572              		.cfi_offset 14, -4
 573 0004 0646     		mov	r6, r0
 574 0006 0C46     		mov	r4, r1
 325:Middlewares/lvgl/src/extra/widgets/colorwheel/lv_colorwheel.c **** 
 575              		.loc 1 325 5 is_stmt 1 view .LVU171
 576              	.LVL53:
 328:Middlewares/lvgl/src/extra/widgets/colorwheel/lv_colorwheel.c ****     r = lv_obj_get_style_arc_width(obj, LV_PART_MAIN) / 2;
 577              		.loc 1 328 5 view .LVU172
 329:Middlewares/lvgl/src/extra/widgets/colorwheel/lv_colorwheel.c **** 
 578              		.loc 1 329 5 view .LVU173
 579              	.LBB52:
 580              	.LBI52:
 581              		.file 3 "Middlewares/lvgl/src/extra/widgets/colorwheel/../../../../src/core/lv_obj_style_gen.h"
   1:Middlewares/lvgl/src/extra/widgets/colorwheel/../../../../src/core/lv_obj_style_gen.h **** static inline lv_coord_t lv_obj_get_style_width(const struct _lv_obj_t * obj, uint32_t part)
   2:Middlewares/lvgl/src/extra/widgets/colorwheel/../../../../src/core/lv_obj_style_gen.h **** {
   3:Middlewares/lvgl/src/extra/widgets/colorwheel/../../../../src/core/lv_obj_style_gen.h ****     lv_style_value_t v = lv_obj_get_style_prop(obj, part, LV_STYLE_WIDTH);
   4:Middlewares/lvgl/src/extra/widgets/colorwheel/../../../../src/core/lv_obj_style_gen.h ****     return (lv_coord_t)v.num;
   5:Middlewares/lvgl/src/extra/widgets/colorwheel/../../../../src/core/lv_obj_style_gen.h **** }
   6:Middlewares/lvgl/src/extra/widgets/colorwheel/../../../../src/core/lv_obj_style_gen.h **** 
   7:Middlewares/lvgl/src/extra/widgets/colorwheel/../../../../src/core/lv_obj_style_gen.h **** static inline lv_coord_t lv_obj_get_style_min_width(const struct _lv_obj_t * obj, uint32_t part)
   8:Middlewares/lvgl/src/extra/widgets/colorwheel/../../../../src/core/lv_obj_style_gen.h **** {
   9:Middlewares/lvgl/src/extra/widgets/colorwheel/../../../../src/core/lv_obj_style_gen.h ****     lv_style_value_t v = lv_obj_get_style_prop(obj, part, LV_STYLE_MIN_WIDTH);
  10:Middlewares/lvgl/src/extra/widgets/colorwheel/../../../../src/core/lv_obj_style_gen.h ****     return (lv_coord_t)v.num;
  11:Middlewares/lvgl/src/extra/widgets/colorwheel/../../../../src/core/lv_obj_style_gen.h **** }
  12:Middlewares/lvgl/src/extra/widgets/colorwheel/../../../../src/core/lv_obj_style_gen.h **** 
  13:Middlewares/lvgl/src/extra/widgets/colorwheel/../../../../src/core/lv_obj_style_gen.h **** static inline lv_coord_t lv_obj_get_style_max_width(const struct _lv_obj_t * obj, uint32_t part)
  14:Middlewares/lvgl/src/extra/widgets/colorwheel/../../../../src/core/lv_obj_style_gen.h **** {
  15:Middlewares/lvgl/src/extra/widgets/colorwheel/../../../../src/core/lv_obj_style_gen.h ****     lv_style_value_t v = lv_obj_get_style_prop(obj, part, LV_STYLE_MAX_WIDTH);
  16:Middlewares/lvgl/src/extra/widgets/colorwheel/../../../../src/core/lv_obj_style_gen.h ****     return (lv_coord_t)v.num;
ARM GAS  /tmp/ccyILfU7.s 			page 35


  17:Middlewares/lvgl/src/extra/widgets/colorwheel/../../../../src/core/lv_obj_style_gen.h **** }
  18:Middlewares/lvgl/src/extra/widgets/colorwheel/../../../../src/core/lv_obj_style_gen.h **** 
  19:Middlewares/lvgl/src/extra/widgets/colorwheel/../../../../src/core/lv_obj_style_gen.h **** static inline lv_coord_t lv_obj_get_style_height(const struct _lv_obj_t * obj, uint32_t part)
  20:Middlewares/lvgl/src/extra/widgets/colorwheel/../../../../src/core/lv_obj_style_gen.h **** {
  21:Middlewares/lvgl/src/extra/widgets/colorwheel/../../../../src/core/lv_obj_style_gen.h ****     lv_style_value_t v = lv_obj_get_style_prop(obj, part, LV_STYLE_HEIGHT);
  22:Middlewares/lvgl/src/extra/widgets/colorwheel/../../../../src/core/lv_obj_style_gen.h ****     return (lv_coord_t)v.num;
  23:Middlewares/lvgl/src/extra/widgets/colorwheel/../../../../src/core/lv_obj_style_gen.h **** }
  24:Middlewares/lvgl/src/extra/widgets/colorwheel/../../../../src/core/lv_obj_style_gen.h **** 
  25:Middlewares/lvgl/src/extra/widgets/colorwheel/../../../../src/core/lv_obj_style_gen.h **** static inline lv_coord_t lv_obj_get_style_min_height(const struct _lv_obj_t * obj, uint32_t part)
  26:Middlewares/lvgl/src/extra/widgets/colorwheel/../../../../src/core/lv_obj_style_gen.h **** {
  27:Middlewares/lvgl/src/extra/widgets/colorwheel/../../../../src/core/lv_obj_style_gen.h ****     lv_style_value_t v = lv_obj_get_style_prop(obj, part, LV_STYLE_MIN_HEIGHT);
  28:Middlewares/lvgl/src/extra/widgets/colorwheel/../../../../src/core/lv_obj_style_gen.h ****     return (lv_coord_t)v.num;
  29:Middlewares/lvgl/src/extra/widgets/colorwheel/../../../../src/core/lv_obj_style_gen.h **** }
  30:Middlewares/lvgl/src/extra/widgets/colorwheel/../../../../src/core/lv_obj_style_gen.h **** 
  31:Middlewares/lvgl/src/extra/widgets/colorwheel/../../../../src/core/lv_obj_style_gen.h **** static inline lv_coord_t lv_obj_get_style_max_height(const struct _lv_obj_t * obj, uint32_t part)
  32:Middlewares/lvgl/src/extra/widgets/colorwheel/../../../../src/core/lv_obj_style_gen.h **** {
  33:Middlewares/lvgl/src/extra/widgets/colorwheel/../../../../src/core/lv_obj_style_gen.h ****     lv_style_value_t v = lv_obj_get_style_prop(obj, part, LV_STYLE_MAX_HEIGHT);
  34:Middlewares/lvgl/src/extra/widgets/colorwheel/../../../../src/core/lv_obj_style_gen.h ****     return (lv_coord_t)v.num;
  35:Middlewares/lvgl/src/extra/widgets/colorwheel/../../../../src/core/lv_obj_style_gen.h **** }
  36:Middlewares/lvgl/src/extra/widgets/colorwheel/../../../../src/core/lv_obj_style_gen.h **** 
  37:Middlewares/lvgl/src/extra/widgets/colorwheel/../../../../src/core/lv_obj_style_gen.h **** static inline lv_coord_t lv_obj_get_style_x(const struct _lv_obj_t * obj, uint32_t part)
  38:Middlewares/lvgl/src/extra/widgets/colorwheel/../../../../src/core/lv_obj_style_gen.h **** {
  39:Middlewares/lvgl/src/extra/widgets/colorwheel/../../../../src/core/lv_obj_style_gen.h ****     lv_style_value_t v = lv_obj_get_style_prop(obj, part, LV_STYLE_X);
  40:Middlewares/lvgl/src/extra/widgets/colorwheel/../../../../src/core/lv_obj_style_gen.h ****     return (lv_coord_t)v.num;
  41:Middlewares/lvgl/src/extra/widgets/colorwheel/../../../../src/core/lv_obj_style_gen.h **** }
  42:Middlewares/lvgl/src/extra/widgets/colorwheel/../../../../src/core/lv_obj_style_gen.h **** 
  43:Middlewares/lvgl/src/extra/widgets/colorwheel/../../../../src/core/lv_obj_style_gen.h **** static inline lv_coord_t lv_obj_get_style_y(const struct _lv_obj_t * obj, uint32_t part)
  44:Middlewares/lvgl/src/extra/widgets/colorwheel/../../../../src/core/lv_obj_style_gen.h **** {
  45:Middlewares/lvgl/src/extra/widgets/colorwheel/../../../../src/core/lv_obj_style_gen.h ****     lv_style_value_t v = lv_obj_get_style_prop(obj, part, LV_STYLE_Y);
  46:Middlewares/lvgl/src/extra/widgets/colorwheel/../../../../src/core/lv_obj_style_gen.h ****     return (lv_coord_t)v.num;
  47:Middlewares/lvgl/src/extra/widgets/colorwheel/../../../../src/core/lv_obj_style_gen.h **** }
  48:Middlewares/lvgl/src/extra/widgets/colorwheel/../../../../src/core/lv_obj_style_gen.h **** 
  49:Middlewares/lvgl/src/extra/widgets/colorwheel/../../../../src/core/lv_obj_style_gen.h **** static inline lv_align_t lv_obj_get_style_align(const struct _lv_obj_t * obj, uint32_t part)
  50:Middlewares/lvgl/src/extra/widgets/colorwheel/../../../../src/core/lv_obj_style_gen.h **** {
  51:Middlewares/lvgl/src/extra/widgets/colorwheel/../../../../src/core/lv_obj_style_gen.h ****     lv_style_value_t v = lv_obj_get_style_prop(obj, part, LV_STYLE_ALIGN);
  52:Middlewares/lvgl/src/extra/widgets/colorwheel/../../../../src/core/lv_obj_style_gen.h ****     return (lv_align_t)v.num;
  53:Middlewares/lvgl/src/extra/widgets/colorwheel/../../../../src/core/lv_obj_style_gen.h **** }
  54:Middlewares/lvgl/src/extra/widgets/colorwheel/../../../../src/core/lv_obj_style_gen.h **** 
  55:Middlewares/lvgl/src/extra/widgets/colorwheel/../../../../src/core/lv_obj_style_gen.h **** static inline lv_coord_t lv_obj_get_style_transform_width(const struct _lv_obj_t * obj, uint32_t pa
  56:Middlewares/lvgl/src/extra/widgets/colorwheel/../../../../src/core/lv_obj_style_gen.h **** {
  57:Middlewares/lvgl/src/extra/widgets/colorwheel/../../../../src/core/lv_obj_style_gen.h ****     lv_style_value_t v = lv_obj_get_style_prop(obj, part, LV_STYLE_TRANSFORM_WIDTH);
  58:Middlewares/lvgl/src/extra/widgets/colorwheel/../../../../src/core/lv_obj_style_gen.h ****     return (lv_coord_t)v.num;
  59:Middlewares/lvgl/src/extra/widgets/colorwheel/../../../../src/core/lv_obj_style_gen.h **** }
  60:Middlewares/lvgl/src/extra/widgets/colorwheel/../../../../src/core/lv_obj_style_gen.h **** 
  61:Middlewares/lvgl/src/extra/widgets/colorwheel/../../../../src/core/lv_obj_style_gen.h **** static inline lv_coord_t lv_obj_get_style_transform_height(const struct _lv_obj_t * obj, uint32_t p
  62:Middlewares/lvgl/src/extra/widgets/colorwheel/../../../../src/core/lv_obj_style_gen.h **** {
  63:Middlewares/lvgl/src/extra/widgets/colorwheel/../../../../src/core/lv_obj_style_gen.h ****     lv_style_value_t v = lv_obj_get_style_prop(obj, part, LV_STYLE_TRANSFORM_HEIGHT);
  64:Middlewares/lvgl/src/extra/widgets/colorwheel/../../../../src/core/lv_obj_style_gen.h ****     return (lv_coord_t)v.num;
  65:Middlewares/lvgl/src/extra/widgets/colorwheel/../../../../src/core/lv_obj_style_gen.h **** }
  66:Middlewares/lvgl/src/extra/widgets/colorwheel/../../../../src/core/lv_obj_style_gen.h **** 
  67:Middlewares/lvgl/src/extra/widgets/colorwheel/../../../../src/core/lv_obj_style_gen.h **** static inline lv_coord_t lv_obj_get_style_translate_x(const struct _lv_obj_t * obj, uint32_t part)
  68:Middlewares/lvgl/src/extra/widgets/colorwheel/../../../../src/core/lv_obj_style_gen.h **** {
  69:Middlewares/lvgl/src/extra/widgets/colorwheel/../../../../src/core/lv_obj_style_gen.h ****     lv_style_value_t v = lv_obj_get_style_prop(obj, part, LV_STYLE_TRANSLATE_X);
  70:Middlewares/lvgl/src/extra/widgets/colorwheel/../../../../src/core/lv_obj_style_gen.h ****     return (lv_coord_t)v.num;
  71:Middlewares/lvgl/src/extra/widgets/colorwheel/../../../../src/core/lv_obj_style_gen.h **** }
  72:Middlewares/lvgl/src/extra/widgets/colorwheel/../../../../src/core/lv_obj_style_gen.h **** 
  73:Middlewares/lvgl/src/extra/widgets/colorwheel/../../../../src/core/lv_obj_style_gen.h **** static inline lv_coord_t lv_obj_get_style_translate_y(const struct _lv_obj_t * obj, uint32_t part)
ARM GAS  /tmp/ccyILfU7.s 			page 36


  74:Middlewares/lvgl/src/extra/widgets/colorwheel/../../../../src/core/lv_obj_style_gen.h **** {
  75:Middlewares/lvgl/src/extra/widgets/colorwheel/../../../../src/core/lv_obj_style_gen.h ****     lv_style_value_t v = lv_obj_get_style_prop(obj, part, LV_STYLE_TRANSLATE_Y);
  76:Middlewares/lvgl/src/extra/widgets/colorwheel/../../../../src/core/lv_obj_style_gen.h ****     return (lv_coord_t)v.num;
  77:Middlewares/lvgl/src/extra/widgets/colorwheel/../../../../src/core/lv_obj_style_gen.h **** }
  78:Middlewares/lvgl/src/extra/widgets/colorwheel/../../../../src/core/lv_obj_style_gen.h **** 
  79:Middlewares/lvgl/src/extra/widgets/colorwheel/../../../../src/core/lv_obj_style_gen.h **** static inline lv_coord_t lv_obj_get_style_transform_zoom(const struct _lv_obj_t * obj, uint32_t par
  80:Middlewares/lvgl/src/extra/widgets/colorwheel/../../../../src/core/lv_obj_style_gen.h **** {
  81:Middlewares/lvgl/src/extra/widgets/colorwheel/../../../../src/core/lv_obj_style_gen.h ****     lv_style_value_t v = lv_obj_get_style_prop(obj, part, LV_STYLE_TRANSFORM_ZOOM);
  82:Middlewares/lvgl/src/extra/widgets/colorwheel/../../../../src/core/lv_obj_style_gen.h ****     return (lv_coord_t)v.num;
  83:Middlewares/lvgl/src/extra/widgets/colorwheel/../../../../src/core/lv_obj_style_gen.h **** }
  84:Middlewares/lvgl/src/extra/widgets/colorwheel/../../../../src/core/lv_obj_style_gen.h **** 
  85:Middlewares/lvgl/src/extra/widgets/colorwheel/../../../../src/core/lv_obj_style_gen.h **** static inline lv_coord_t lv_obj_get_style_transform_angle(const struct _lv_obj_t * obj, uint32_t pa
  86:Middlewares/lvgl/src/extra/widgets/colorwheel/../../../../src/core/lv_obj_style_gen.h **** {
  87:Middlewares/lvgl/src/extra/widgets/colorwheel/../../../../src/core/lv_obj_style_gen.h ****     lv_style_value_t v = lv_obj_get_style_prop(obj, part, LV_STYLE_TRANSFORM_ANGLE);
  88:Middlewares/lvgl/src/extra/widgets/colorwheel/../../../../src/core/lv_obj_style_gen.h ****     return (lv_coord_t)v.num;
  89:Middlewares/lvgl/src/extra/widgets/colorwheel/../../../../src/core/lv_obj_style_gen.h **** }
  90:Middlewares/lvgl/src/extra/widgets/colorwheel/../../../../src/core/lv_obj_style_gen.h **** 
  91:Middlewares/lvgl/src/extra/widgets/colorwheel/../../../../src/core/lv_obj_style_gen.h **** static inline lv_coord_t lv_obj_get_style_pad_top(const struct _lv_obj_t * obj, uint32_t part)
  92:Middlewares/lvgl/src/extra/widgets/colorwheel/../../../../src/core/lv_obj_style_gen.h **** {
  93:Middlewares/lvgl/src/extra/widgets/colorwheel/../../../../src/core/lv_obj_style_gen.h ****     lv_style_value_t v = lv_obj_get_style_prop(obj, part, LV_STYLE_PAD_TOP);
  94:Middlewares/lvgl/src/extra/widgets/colorwheel/../../../../src/core/lv_obj_style_gen.h ****     return (lv_coord_t)v.num;
  95:Middlewares/lvgl/src/extra/widgets/colorwheel/../../../../src/core/lv_obj_style_gen.h **** }
  96:Middlewares/lvgl/src/extra/widgets/colorwheel/../../../../src/core/lv_obj_style_gen.h **** 
  97:Middlewares/lvgl/src/extra/widgets/colorwheel/../../../../src/core/lv_obj_style_gen.h **** static inline lv_coord_t lv_obj_get_style_pad_bottom(const struct _lv_obj_t * obj, uint32_t part)
  98:Middlewares/lvgl/src/extra/widgets/colorwheel/../../../../src/core/lv_obj_style_gen.h **** {
  99:Middlewares/lvgl/src/extra/widgets/colorwheel/../../../../src/core/lv_obj_style_gen.h ****     lv_style_value_t v = lv_obj_get_style_prop(obj, part, LV_STYLE_PAD_BOTTOM);
 100:Middlewares/lvgl/src/extra/widgets/colorwheel/../../../../src/core/lv_obj_style_gen.h ****     return (lv_coord_t)v.num;
 101:Middlewares/lvgl/src/extra/widgets/colorwheel/../../../../src/core/lv_obj_style_gen.h **** }
 102:Middlewares/lvgl/src/extra/widgets/colorwheel/../../../../src/core/lv_obj_style_gen.h **** 
 103:Middlewares/lvgl/src/extra/widgets/colorwheel/../../../../src/core/lv_obj_style_gen.h **** static inline lv_coord_t lv_obj_get_style_pad_left(const struct _lv_obj_t * obj, uint32_t part)
 104:Middlewares/lvgl/src/extra/widgets/colorwheel/../../../../src/core/lv_obj_style_gen.h **** {
 105:Middlewares/lvgl/src/extra/widgets/colorwheel/../../../../src/core/lv_obj_style_gen.h ****     lv_style_value_t v = lv_obj_get_style_prop(obj, part, LV_STYLE_PAD_LEFT);
 106:Middlewares/lvgl/src/extra/widgets/colorwheel/../../../../src/core/lv_obj_style_gen.h ****     return (lv_coord_t)v.num;
 107:Middlewares/lvgl/src/extra/widgets/colorwheel/../../../../src/core/lv_obj_style_gen.h **** }
 108:Middlewares/lvgl/src/extra/widgets/colorwheel/../../../../src/core/lv_obj_style_gen.h **** 
 109:Middlewares/lvgl/src/extra/widgets/colorwheel/../../../../src/core/lv_obj_style_gen.h **** static inline lv_coord_t lv_obj_get_style_pad_right(const struct _lv_obj_t * obj, uint32_t part)
 110:Middlewares/lvgl/src/extra/widgets/colorwheel/../../../../src/core/lv_obj_style_gen.h **** {
 111:Middlewares/lvgl/src/extra/widgets/colorwheel/../../../../src/core/lv_obj_style_gen.h ****     lv_style_value_t v = lv_obj_get_style_prop(obj, part, LV_STYLE_PAD_RIGHT);
 112:Middlewares/lvgl/src/extra/widgets/colorwheel/../../../../src/core/lv_obj_style_gen.h ****     return (lv_coord_t)v.num;
 113:Middlewares/lvgl/src/extra/widgets/colorwheel/../../../../src/core/lv_obj_style_gen.h **** }
 114:Middlewares/lvgl/src/extra/widgets/colorwheel/../../../../src/core/lv_obj_style_gen.h **** 
 115:Middlewares/lvgl/src/extra/widgets/colorwheel/../../../../src/core/lv_obj_style_gen.h **** static inline lv_coord_t lv_obj_get_style_pad_row(const struct _lv_obj_t * obj, uint32_t part)
 116:Middlewares/lvgl/src/extra/widgets/colorwheel/../../../../src/core/lv_obj_style_gen.h **** {
 117:Middlewares/lvgl/src/extra/widgets/colorwheel/../../../../src/core/lv_obj_style_gen.h ****     lv_style_value_t v = lv_obj_get_style_prop(obj, part, LV_STYLE_PAD_ROW);
 118:Middlewares/lvgl/src/extra/widgets/colorwheel/../../../../src/core/lv_obj_style_gen.h ****     return (lv_coord_t)v.num;
 119:Middlewares/lvgl/src/extra/widgets/colorwheel/../../../../src/core/lv_obj_style_gen.h **** }
 120:Middlewares/lvgl/src/extra/widgets/colorwheel/../../../../src/core/lv_obj_style_gen.h **** 
 121:Middlewares/lvgl/src/extra/widgets/colorwheel/../../../../src/core/lv_obj_style_gen.h **** static inline lv_coord_t lv_obj_get_style_pad_column(const struct _lv_obj_t * obj, uint32_t part)
 122:Middlewares/lvgl/src/extra/widgets/colorwheel/../../../../src/core/lv_obj_style_gen.h **** {
 123:Middlewares/lvgl/src/extra/widgets/colorwheel/../../../../src/core/lv_obj_style_gen.h ****     lv_style_value_t v = lv_obj_get_style_prop(obj, part, LV_STYLE_PAD_COLUMN);
 124:Middlewares/lvgl/src/extra/widgets/colorwheel/../../../../src/core/lv_obj_style_gen.h ****     return (lv_coord_t)v.num;
 125:Middlewares/lvgl/src/extra/widgets/colorwheel/../../../../src/core/lv_obj_style_gen.h **** }
 126:Middlewares/lvgl/src/extra/widgets/colorwheel/../../../../src/core/lv_obj_style_gen.h **** 
 127:Middlewares/lvgl/src/extra/widgets/colorwheel/../../../../src/core/lv_obj_style_gen.h **** static inline lv_coord_t lv_obj_get_style_radius(const struct _lv_obj_t * obj, uint32_t part)
 128:Middlewares/lvgl/src/extra/widgets/colorwheel/../../../../src/core/lv_obj_style_gen.h **** {
 129:Middlewares/lvgl/src/extra/widgets/colorwheel/../../../../src/core/lv_obj_style_gen.h ****     lv_style_value_t v = lv_obj_get_style_prop(obj, part, LV_STYLE_RADIUS);
 130:Middlewares/lvgl/src/extra/widgets/colorwheel/../../../../src/core/lv_obj_style_gen.h ****     return (lv_coord_t)v.num;
ARM GAS  /tmp/ccyILfU7.s 			page 37


 131:Middlewares/lvgl/src/extra/widgets/colorwheel/../../../../src/core/lv_obj_style_gen.h **** }
 132:Middlewares/lvgl/src/extra/widgets/colorwheel/../../../../src/core/lv_obj_style_gen.h **** 
 133:Middlewares/lvgl/src/extra/widgets/colorwheel/../../../../src/core/lv_obj_style_gen.h **** static inline bool lv_obj_get_style_clip_corner(const struct _lv_obj_t * obj, uint32_t part)
 134:Middlewares/lvgl/src/extra/widgets/colorwheel/../../../../src/core/lv_obj_style_gen.h **** {
 135:Middlewares/lvgl/src/extra/widgets/colorwheel/../../../../src/core/lv_obj_style_gen.h ****     lv_style_value_t v = lv_obj_get_style_prop(obj, part, LV_STYLE_CLIP_CORNER);
 136:Middlewares/lvgl/src/extra/widgets/colorwheel/../../../../src/core/lv_obj_style_gen.h ****     return (bool)v.num;
 137:Middlewares/lvgl/src/extra/widgets/colorwheel/../../../../src/core/lv_obj_style_gen.h **** }
 138:Middlewares/lvgl/src/extra/widgets/colorwheel/../../../../src/core/lv_obj_style_gen.h **** 
 139:Middlewares/lvgl/src/extra/widgets/colorwheel/../../../../src/core/lv_obj_style_gen.h **** static inline lv_opa_t lv_obj_get_style_opa(const struct _lv_obj_t * obj, uint32_t part)
 140:Middlewares/lvgl/src/extra/widgets/colorwheel/../../../../src/core/lv_obj_style_gen.h **** {
 141:Middlewares/lvgl/src/extra/widgets/colorwheel/../../../../src/core/lv_obj_style_gen.h ****     lv_style_value_t v = lv_obj_get_style_prop(obj, part, LV_STYLE_OPA);
 142:Middlewares/lvgl/src/extra/widgets/colorwheel/../../../../src/core/lv_obj_style_gen.h ****     return (lv_opa_t)v.num;
 143:Middlewares/lvgl/src/extra/widgets/colorwheel/../../../../src/core/lv_obj_style_gen.h **** }
 144:Middlewares/lvgl/src/extra/widgets/colorwheel/../../../../src/core/lv_obj_style_gen.h **** 
 145:Middlewares/lvgl/src/extra/widgets/colorwheel/../../../../src/core/lv_obj_style_gen.h **** static inline const lv_color_filter_dsc_t * lv_obj_get_style_color_filter_dsc(const struct _lv_obj_
 146:Middlewares/lvgl/src/extra/widgets/colorwheel/../../../../src/core/lv_obj_style_gen.h **** {
 147:Middlewares/lvgl/src/extra/widgets/colorwheel/../../../../src/core/lv_obj_style_gen.h ****     lv_style_value_t v = lv_obj_get_style_prop(obj, part, LV_STYLE_COLOR_FILTER_DSC);
 148:Middlewares/lvgl/src/extra/widgets/colorwheel/../../../../src/core/lv_obj_style_gen.h ****     return (const lv_color_filter_dsc_t *)v.ptr;
 149:Middlewares/lvgl/src/extra/widgets/colorwheel/../../../../src/core/lv_obj_style_gen.h **** }
 150:Middlewares/lvgl/src/extra/widgets/colorwheel/../../../../src/core/lv_obj_style_gen.h **** 
 151:Middlewares/lvgl/src/extra/widgets/colorwheel/../../../../src/core/lv_obj_style_gen.h **** static inline lv_opa_t lv_obj_get_style_color_filter_opa(const struct _lv_obj_t * obj, uint32_t par
 152:Middlewares/lvgl/src/extra/widgets/colorwheel/../../../../src/core/lv_obj_style_gen.h **** {
 153:Middlewares/lvgl/src/extra/widgets/colorwheel/../../../../src/core/lv_obj_style_gen.h ****     lv_style_value_t v = lv_obj_get_style_prop(obj, part, LV_STYLE_COLOR_FILTER_OPA);
 154:Middlewares/lvgl/src/extra/widgets/colorwheel/../../../../src/core/lv_obj_style_gen.h ****     return (lv_opa_t)v.num;
 155:Middlewares/lvgl/src/extra/widgets/colorwheel/../../../../src/core/lv_obj_style_gen.h **** }
 156:Middlewares/lvgl/src/extra/widgets/colorwheel/../../../../src/core/lv_obj_style_gen.h **** 
 157:Middlewares/lvgl/src/extra/widgets/colorwheel/../../../../src/core/lv_obj_style_gen.h **** static inline uint32_t lv_obj_get_style_anim_time(const struct _lv_obj_t * obj, uint32_t part)
 158:Middlewares/lvgl/src/extra/widgets/colorwheel/../../../../src/core/lv_obj_style_gen.h **** {
 159:Middlewares/lvgl/src/extra/widgets/colorwheel/../../../../src/core/lv_obj_style_gen.h ****     lv_style_value_t v = lv_obj_get_style_prop(obj, part, LV_STYLE_ANIM_TIME);
 160:Middlewares/lvgl/src/extra/widgets/colorwheel/../../../../src/core/lv_obj_style_gen.h ****     return (uint32_t)v.num;
 161:Middlewares/lvgl/src/extra/widgets/colorwheel/../../../../src/core/lv_obj_style_gen.h **** }
 162:Middlewares/lvgl/src/extra/widgets/colorwheel/../../../../src/core/lv_obj_style_gen.h **** 
 163:Middlewares/lvgl/src/extra/widgets/colorwheel/../../../../src/core/lv_obj_style_gen.h **** static inline uint32_t lv_obj_get_style_anim_speed(const struct _lv_obj_t * obj, uint32_t part)
 164:Middlewares/lvgl/src/extra/widgets/colorwheel/../../../../src/core/lv_obj_style_gen.h **** {
 165:Middlewares/lvgl/src/extra/widgets/colorwheel/../../../../src/core/lv_obj_style_gen.h ****     lv_style_value_t v = lv_obj_get_style_prop(obj, part, LV_STYLE_ANIM_SPEED);
 166:Middlewares/lvgl/src/extra/widgets/colorwheel/../../../../src/core/lv_obj_style_gen.h ****     return (uint32_t)v.num;
 167:Middlewares/lvgl/src/extra/widgets/colorwheel/../../../../src/core/lv_obj_style_gen.h **** }
 168:Middlewares/lvgl/src/extra/widgets/colorwheel/../../../../src/core/lv_obj_style_gen.h **** 
 169:Middlewares/lvgl/src/extra/widgets/colorwheel/../../../../src/core/lv_obj_style_gen.h **** static inline const lv_style_transition_dsc_t * lv_obj_get_style_transition(const struct _lv_obj_t 
 170:Middlewares/lvgl/src/extra/widgets/colorwheel/../../../../src/core/lv_obj_style_gen.h **** {
 171:Middlewares/lvgl/src/extra/widgets/colorwheel/../../../../src/core/lv_obj_style_gen.h ****     lv_style_value_t v = lv_obj_get_style_prop(obj, part, LV_STYLE_TRANSITION);
 172:Middlewares/lvgl/src/extra/widgets/colorwheel/../../../../src/core/lv_obj_style_gen.h ****     return (const lv_style_transition_dsc_t *)v.ptr;
 173:Middlewares/lvgl/src/extra/widgets/colorwheel/../../../../src/core/lv_obj_style_gen.h **** }
 174:Middlewares/lvgl/src/extra/widgets/colorwheel/../../../../src/core/lv_obj_style_gen.h **** 
 175:Middlewares/lvgl/src/extra/widgets/colorwheel/../../../../src/core/lv_obj_style_gen.h **** static inline lv_blend_mode_t lv_obj_get_style_blend_mode(const struct _lv_obj_t * obj, uint32_t pa
 176:Middlewares/lvgl/src/extra/widgets/colorwheel/../../../../src/core/lv_obj_style_gen.h **** {
 177:Middlewares/lvgl/src/extra/widgets/colorwheel/../../../../src/core/lv_obj_style_gen.h ****     lv_style_value_t v = lv_obj_get_style_prop(obj, part, LV_STYLE_BLEND_MODE);
 178:Middlewares/lvgl/src/extra/widgets/colorwheel/../../../../src/core/lv_obj_style_gen.h ****     return (lv_blend_mode_t)v.num;
 179:Middlewares/lvgl/src/extra/widgets/colorwheel/../../../../src/core/lv_obj_style_gen.h **** }
 180:Middlewares/lvgl/src/extra/widgets/colorwheel/../../../../src/core/lv_obj_style_gen.h **** 
 181:Middlewares/lvgl/src/extra/widgets/colorwheel/../../../../src/core/lv_obj_style_gen.h **** static inline uint16_t lv_obj_get_style_layout(const struct _lv_obj_t * obj, uint32_t part)
 182:Middlewares/lvgl/src/extra/widgets/colorwheel/../../../../src/core/lv_obj_style_gen.h **** {
 183:Middlewares/lvgl/src/extra/widgets/colorwheel/../../../../src/core/lv_obj_style_gen.h ****     lv_style_value_t v = lv_obj_get_style_prop(obj, part, LV_STYLE_LAYOUT);
 184:Middlewares/lvgl/src/extra/widgets/colorwheel/../../../../src/core/lv_obj_style_gen.h ****     return (uint16_t)v.num;
 185:Middlewares/lvgl/src/extra/widgets/colorwheel/../../../../src/core/lv_obj_style_gen.h **** }
 186:Middlewares/lvgl/src/extra/widgets/colorwheel/../../../../src/core/lv_obj_style_gen.h **** 
 187:Middlewares/lvgl/src/extra/widgets/colorwheel/../../../../src/core/lv_obj_style_gen.h **** static inline lv_base_dir_t lv_obj_get_style_base_dir(const struct _lv_obj_t * obj, uint32_t part)
ARM GAS  /tmp/ccyILfU7.s 			page 38


 188:Middlewares/lvgl/src/extra/widgets/colorwheel/../../../../src/core/lv_obj_style_gen.h **** {
 189:Middlewares/lvgl/src/extra/widgets/colorwheel/../../../../src/core/lv_obj_style_gen.h ****     lv_style_value_t v = lv_obj_get_style_prop(obj, part, LV_STYLE_BASE_DIR);
 190:Middlewares/lvgl/src/extra/widgets/colorwheel/../../../../src/core/lv_obj_style_gen.h ****     return (lv_base_dir_t)v.num;
 191:Middlewares/lvgl/src/extra/widgets/colorwheel/../../../../src/core/lv_obj_style_gen.h **** }
 192:Middlewares/lvgl/src/extra/widgets/colorwheel/../../../../src/core/lv_obj_style_gen.h **** 
 193:Middlewares/lvgl/src/extra/widgets/colorwheel/../../../../src/core/lv_obj_style_gen.h **** static inline lv_color_t lv_obj_get_style_bg_color(const struct _lv_obj_t * obj, uint32_t part)
 194:Middlewares/lvgl/src/extra/widgets/colorwheel/../../../../src/core/lv_obj_style_gen.h **** {
 195:Middlewares/lvgl/src/extra/widgets/colorwheel/../../../../src/core/lv_obj_style_gen.h ****     lv_style_value_t v = lv_obj_get_style_prop(obj, part, LV_STYLE_BG_COLOR);
 196:Middlewares/lvgl/src/extra/widgets/colorwheel/../../../../src/core/lv_obj_style_gen.h ****     return v.color;
 197:Middlewares/lvgl/src/extra/widgets/colorwheel/../../../../src/core/lv_obj_style_gen.h **** }
 198:Middlewares/lvgl/src/extra/widgets/colorwheel/../../../../src/core/lv_obj_style_gen.h **** 
 199:Middlewares/lvgl/src/extra/widgets/colorwheel/../../../../src/core/lv_obj_style_gen.h **** static inline lv_color_t lv_obj_get_style_bg_color_filtered(const struct _lv_obj_t * obj, uint32_t 
 200:Middlewares/lvgl/src/extra/widgets/colorwheel/../../../../src/core/lv_obj_style_gen.h **** {
 201:Middlewares/lvgl/src/extra/widgets/colorwheel/../../../../src/core/lv_obj_style_gen.h ****     lv_style_value_t v = lv_obj_get_style_prop(obj, part, LV_STYLE_BG_COLOR_FILTERED);
 202:Middlewares/lvgl/src/extra/widgets/colorwheel/../../../../src/core/lv_obj_style_gen.h ****     return v.color;
 203:Middlewares/lvgl/src/extra/widgets/colorwheel/../../../../src/core/lv_obj_style_gen.h **** }
 204:Middlewares/lvgl/src/extra/widgets/colorwheel/../../../../src/core/lv_obj_style_gen.h **** 
 205:Middlewares/lvgl/src/extra/widgets/colorwheel/../../../../src/core/lv_obj_style_gen.h **** static inline lv_opa_t lv_obj_get_style_bg_opa(const struct _lv_obj_t * obj, uint32_t part)
 206:Middlewares/lvgl/src/extra/widgets/colorwheel/../../../../src/core/lv_obj_style_gen.h **** {
 207:Middlewares/lvgl/src/extra/widgets/colorwheel/../../../../src/core/lv_obj_style_gen.h ****     lv_style_value_t v = lv_obj_get_style_prop(obj, part, LV_STYLE_BG_OPA);
 208:Middlewares/lvgl/src/extra/widgets/colorwheel/../../../../src/core/lv_obj_style_gen.h ****     return (lv_opa_t)v.num;
 209:Middlewares/lvgl/src/extra/widgets/colorwheel/../../../../src/core/lv_obj_style_gen.h **** }
 210:Middlewares/lvgl/src/extra/widgets/colorwheel/../../../../src/core/lv_obj_style_gen.h **** 
 211:Middlewares/lvgl/src/extra/widgets/colorwheel/../../../../src/core/lv_obj_style_gen.h **** static inline lv_color_t lv_obj_get_style_bg_grad_color(const struct _lv_obj_t * obj, uint32_t part
 212:Middlewares/lvgl/src/extra/widgets/colorwheel/../../../../src/core/lv_obj_style_gen.h **** {
 213:Middlewares/lvgl/src/extra/widgets/colorwheel/../../../../src/core/lv_obj_style_gen.h ****     lv_style_value_t v = lv_obj_get_style_prop(obj, part, LV_STYLE_BG_GRAD_COLOR);
 214:Middlewares/lvgl/src/extra/widgets/colorwheel/../../../../src/core/lv_obj_style_gen.h ****     return v.color;
 215:Middlewares/lvgl/src/extra/widgets/colorwheel/../../../../src/core/lv_obj_style_gen.h **** }
 216:Middlewares/lvgl/src/extra/widgets/colorwheel/../../../../src/core/lv_obj_style_gen.h **** 
 217:Middlewares/lvgl/src/extra/widgets/colorwheel/../../../../src/core/lv_obj_style_gen.h **** static inline lv_color_t lv_obj_get_style_bg_grad_color_filtered(const struct _lv_obj_t * obj, uint
 218:Middlewares/lvgl/src/extra/widgets/colorwheel/../../../../src/core/lv_obj_style_gen.h **** {
 219:Middlewares/lvgl/src/extra/widgets/colorwheel/../../../../src/core/lv_obj_style_gen.h ****     lv_style_value_t v = lv_obj_get_style_prop(obj, part, LV_STYLE_BG_GRAD_COLOR_FILTERED);
 220:Middlewares/lvgl/src/extra/widgets/colorwheel/../../../../src/core/lv_obj_style_gen.h ****     return v.color;
 221:Middlewares/lvgl/src/extra/widgets/colorwheel/../../../../src/core/lv_obj_style_gen.h **** }
 222:Middlewares/lvgl/src/extra/widgets/colorwheel/../../../../src/core/lv_obj_style_gen.h **** 
 223:Middlewares/lvgl/src/extra/widgets/colorwheel/../../../../src/core/lv_obj_style_gen.h **** static inline lv_grad_dir_t lv_obj_get_style_bg_grad_dir(const struct _lv_obj_t * obj, uint32_t par
 224:Middlewares/lvgl/src/extra/widgets/colorwheel/../../../../src/core/lv_obj_style_gen.h **** {
 225:Middlewares/lvgl/src/extra/widgets/colorwheel/../../../../src/core/lv_obj_style_gen.h ****     lv_style_value_t v = lv_obj_get_style_prop(obj, part, LV_STYLE_BG_GRAD_DIR);
 226:Middlewares/lvgl/src/extra/widgets/colorwheel/../../../../src/core/lv_obj_style_gen.h ****     return (lv_grad_dir_t)v.num;
 227:Middlewares/lvgl/src/extra/widgets/colorwheel/../../../../src/core/lv_obj_style_gen.h **** }
 228:Middlewares/lvgl/src/extra/widgets/colorwheel/../../../../src/core/lv_obj_style_gen.h **** 
 229:Middlewares/lvgl/src/extra/widgets/colorwheel/../../../../src/core/lv_obj_style_gen.h **** static inline lv_coord_t lv_obj_get_style_bg_main_stop(const struct _lv_obj_t * obj, uint32_t part)
 230:Middlewares/lvgl/src/extra/widgets/colorwheel/../../../../src/core/lv_obj_style_gen.h **** {
 231:Middlewares/lvgl/src/extra/widgets/colorwheel/../../../../src/core/lv_obj_style_gen.h ****     lv_style_value_t v = lv_obj_get_style_prop(obj, part, LV_STYLE_BG_MAIN_STOP);
 232:Middlewares/lvgl/src/extra/widgets/colorwheel/../../../../src/core/lv_obj_style_gen.h ****     return (lv_coord_t)v.num;
 233:Middlewares/lvgl/src/extra/widgets/colorwheel/../../../../src/core/lv_obj_style_gen.h **** }
 234:Middlewares/lvgl/src/extra/widgets/colorwheel/../../../../src/core/lv_obj_style_gen.h **** 
 235:Middlewares/lvgl/src/extra/widgets/colorwheel/../../../../src/core/lv_obj_style_gen.h **** static inline lv_coord_t lv_obj_get_style_bg_grad_stop(const struct _lv_obj_t * obj, uint32_t part)
 236:Middlewares/lvgl/src/extra/widgets/colorwheel/../../../../src/core/lv_obj_style_gen.h **** {
 237:Middlewares/lvgl/src/extra/widgets/colorwheel/../../../../src/core/lv_obj_style_gen.h ****     lv_style_value_t v = lv_obj_get_style_prop(obj, part, LV_STYLE_BG_GRAD_STOP);
 238:Middlewares/lvgl/src/extra/widgets/colorwheel/../../../../src/core/lv_obj_style_gen.h ****     return (lv_coord_t)v.num;
 239:Middlewares/lvgl/src/extra/widgets/colorwheel/../../../../src/core/lv_obj_style_gen.h **** }
 240:Middlewares/lvgl/src/extra/widgets/colorwheel/../../../../src/core/lv_obj_style_gen.h **** 
 241:Middlewares/lvgl/src/extra/widgets/colorwheel/../../../../src/core/lv_obj_style_gen.h **** static inline const void * lv_obj_get_style_bg_img_src(const struct _lv_obj_t * obj, uint32_t part)
 242:Middlewares/lvgl/src/extra/widgets/colorwheel/../../../../src/core/lv_obj_style_gen.h **** {
 243:Middlewares/lvgl/src/extra/widgets/colorwheel/../../../../src/core/lv_obj_style_gen.h ****     lv_style_value_t v = lv_obj_get_style_prop(obj, part, LV_STYLE_BG_IMG_SRC);
 244:Middlewares/lvgl/src/extra/widgets/colorwheel/../../../../src/core/lv_obj_style_gen.h ****     return (const void *)v.ptr;
ARM GAS  /tmp/ccyILfU7.s 			page 39


 245:Middlewares/lvgl/src/extra/widgets/colorwheel/../../../../src/core/lv_obj_style_gen.h **** }
 246:Middlewares/lvgl/src/extra/widgets/colorwheel/../../../../src/core/lv_obj_style_gen.h **** 
 247:Middlewares/lvgl/src/extra/widgets/colorwheel/../../../../src/core/lv_obj_style_gen.h **** static inline lv_opa_t lv_obj_get_style_bg_img_opa(const struct _lv_obj_t * obj, uint32_t part)
 248:Middlewares/lvgl/src/extra/widgets/colorwheel/../../../../src/core/lv_obj_style_gen.h **** {
 249:Middlewares/lvgl/src/extra/widgets/colorwheel/../../../../src/core/lv_obj_style_gen.h ****     lv_style_value_t v = lv_obj_get_style_prop(obj, part, LV_STYLE_BG_IMG_OPA);
 250:Middlewares/lvgl/src/extra/widgets/colorwheel/../../../../src/core/lv_obj_style_gen.h ****     return (lv_opa_t)v.num;
 251:Middlewares/lvgl/src/extra/widgets/colorwheel/../../../../src/core/lv_obj_style_gen.h **** }
 252:Middlewares/lvgl/src/extra/widgets/colorwheel/../../../../src/core/lv_obj_style_gen.h **** 
 253:Middlewares/lvgl/src/extra/widgets/colorwheel/../../../../src/core/lv_obj_style_gen.h **** static inline lv_color_t lv_obj_get_style_bg_img_recolor(const struct _lv_obj_t * obj, uint32_t par
 254:Middlewares/lvgl/src/extra/widgets/colorwheel/../../../../src/core/lv_obj_style_gen.h **** {
 255:Middlewares/lvgl/src/extra/widgets/colorwheel/../../../../src/core/lv_obj_style_gen.h ****     lv_style_value_t v = lv_obj_get_style_prop(obj, part, LV_STYLE_BG_IMG_RECOLOR);
 256:Middlewares/lvgl/src/extra/widgets/colorwheel/../../../../src/core/lv_obj_style_gen.h ****     return v.color;
 257:Middlewares/lvgl/src/extra/widgets/colorwheel/../../../../src/core/lv_obj_style_gen.h **** }
 258:Middlewares/lvgl/src/extra/widgets/colorwheel/../../../../src/core/lv_obj_style_gen.h **** 
 259:Middlewares/lvgl/src/extra/widgets/colorwheel/../../../../src/core/lv_obj_style_gen.h **** static inline lv_color_t lv_obj_get_style_bg_img_recolor_filtered(const struct _lv_obj_t * obj, uin
 260:Middlewares/lvgl/src/extra/widgets/colorwheel/../../../../src/core/lv_obj_style_gen.h **** {
 261:Middlewares/lvgl/src/extra/widgets/colorwheel/../../../../src/core/lv_obj_style_gen.h ****     lv_style_value_t v = lv_obj_get_style_prop(obj, part, LV_STYLE_BG_IMG_RECOLOR_FILTERED);
 262:Middlewares/lvgl/src/extra/widgets/colorwheel/../../../../src/core/lv_obj_style_gen.h ****     return v.color;
 263:Middlewares/lvgl/src/extra/widgets/colorwheel/../../../../src/core/lv_obj_style_gen.h **** }
 264:Middlewares/lvgl/src/extra/widgets/colorwheel/../../../../src/core/lv_obj_style_gen.h **** 
 265:Middlewares/lvgl/src/extra/widgets/colorwheel/../../../../src/core/lv_obj_style_gen.h **** static inline lv_opa_t lv_obj_get_style_bg_img_recolor_opa(const struct _lv_obj_t * obj, uint32_t p
 266:Middlewares/lvgl/src/extra/widgets/colorwheel/../../../../src/core/lv_obj_style_gen.h **** {
 267:Middlewares/lvgl/src/extra/widgets/colorwheel/../../../../src/core/lv_obj_style_gen.h ****     lv_style_value_t v = lv_obj_get_style_prop(obj, part, LV_STYLE_BG_IMG_RECOLOR_OPA);
 268:Middlewares/lvgl/src/extra/widgets/colorwheel/../../../../src/core/lv_obj_style_gen.h ****     return (lv_opa_t)v.num;
 269:Middlewares/lvgl/src/extra/widgets/colorwheel/../../../../src/core/lv_obj_style_gen.h **** }
 270:Middlewares/lvgl/src/extra/widgets/colorwheel/../../../../src/core/lv_obj_style_gen.h **** 
 271:Middlewares/lvgl/src/extra/widgets/colorwheel/../../../../src/core/lv_obj_style_gen.h **** static inline bool lv_obj_get_style_bg_img_tiled(const struct _lv_obj_t * obj, uint32_t part)
 272:Middlewares/lvgl/src/extra/widgets/colorwheel/../../../../src/core/lv_obj_style_gen.h **** {
 273:Middlewares/lvgl/src/extra/widgets/colorwheel/../../../../src/core/lv_obj_style_gen.h ****     lv_style_value_t v = lv_obj_get_style_prop(obj, part, LV_STYLE_BG_IMG_TILED);
 274:Middlewares/lvgl/src/extra/widgets/colorwheel/../../../../src/core/lv_obj_style_gen.h ****     return (bool)v.num;
 275:Middlewares/lvgl/src/extra/widgets/colorwheel/../../../../src/core/lv_obj_style_gen.h **** }
 276:Middlewares/lvgl/src/extra/widgets/colorwheel/../../../../src/core/lv_obj_style_gen.h **** 
 277:Middlewares/lvgl/src/extra/widgets/colorwheel/../../../../src/core/lv_obj_style_gen.h **** static inline lv_color_t lv_obj_get_style_border_color(const struct _lv_obj_t * obj, uint32_t part)
 278:Middlewares/lvgl/src/extra/widgets/colorwheel/../../../../src/core/lv_obj_style_gen.h **** {
 279:Middlewares/lvgl/src/extra/widgets/colorwheel/../../../../src/core/lv_obj_style_gen.h ****     lv_style_value_t v = lv_obj_get_style_prop(obj, part, LV_STYLE_BORDER_COLOR);
 280:Middlewares/lvgl/src/extra/widgets/colorwheel/../../../../src/core/lv_obj_style_gen.h ****     return v.color;
 281:Middlewares/lvgl/src/extra/widgets/colorwheel/../../../../src/core/lv_obj_style_gen.h **** }
 282:Middlewares/lvgl/src/extra/widgets/colorwheel/../../../../src/core/lv_obj_style_gen.h **** 
 283:Middlewares/lvgl/src/extra/widgets/colorwheel/../../../../src/core/lv_obj_style_gen.h **** static inline lv_color_t lv_obj_get_style_border_color_filtered(const struct _lv_obj_t * obj, uint3
 284:Middlewares/lvgl/src/extra/widgets/colorwheel/../../../../src/core/lv_obj_style_gen.h **** {
 285:Middlewares/lvgl/src/extra/widgets/colorwheel/../../../../src/core/lv_obj_style_gen.h ****     lv_style_value_t v = lv_obj_get_style_prop(obj, part, LV_STYLE_BORDER_COLOR_FILTERED);
 286:Middlewares/lvgl/src/extra/widgets/colorwheel/../../../../src/core/lv_obj_style_gen.h ****     return v.color;
 287:Middlewares/lvgl/src/extra/widgets/colorwheel/../../../../src/core/lv_obj_style_gen.h **** }
 288:Middlewares/lvgl/src/extra/widgets/colorwheel/../../../../src/core/lv_obj_style_gen.h **** 
 289:Middlewares/lvgl/src/extra/widgets/colorwheel/../../../../src/core/lv_obj_style_gen.h **** static inline lv_opa_t lv_obj_get_style_border_opa(const struct _lv_obj_t * obj, uint32_t part)
 290:Middlewares/lvgl/src/extra/widgets/colorwheel/../../../../src/core/lv_obj_style_gen.h **** {
 291:Middlewares/lvgl/src/extra/widgets/colorwheel/../../../../src/core/lv_obj_style_gen.h ****     lv_style_value_t v = lv_obj_get_style_prop(obj, part, LV_STYLE_BORDER_OPA);
 292:Middlewares/lvgl/src/extra/widgets/colorwheel/../../../../src/core/lv_obj_style_gen.h ****     return (lv_opa_t)v.num;
 293:Middlewares/lvgl/src/extra/widgets/colorwheel/../../../../src/core/lv_obj_style_gen.h **** }
 294:Middlewares/lvgl/src/extra/widgets/colorwheel/../../../../src/core/lv_obj_style_gen.h **** 
 295:Middlewares/lvgl/src/extra/widgets/colorwheel/../../../../src/core/lv_obj_style_gen.h **** static inline lv_coord_t lv_obj_get_style_border_width(const struct _lv_obj_t * obj, uint32_t part)
 296:Middlewares/lvgl/src/extra/widgets/colorwheel/../../../../src/core/lv_obj_style_gen.h **** {
 297:Middlewares/lvgl/src/extra/widgets/colorwheel/../../../../src/core/lv_obj_style_gen.h ****     lv_style_value_t v = lv_obj_get_style_prop(obj, part, LV_STYLE_BORDER_WIDTH);
 298:Middlewares/lvgl/src/extra/widgets/colorwheel/../../../../src/core/lv_obj_style_gen.h ****     return (lv_coord_t)v.num;
 299:Middlewares/lvgl/src/extra/widgets/colorwheel/../../../../src/core/lv_obj_style_gen.h **** }
 300:Middlewares/lvgl/src/extra/widgets/colorwheel/../../../../src/core/lv_obj_style_gen.h **** 
 301:Middlewares/lvgl/src/extra/widgets/colorwheel/../../../../src/core/lv_obj_style_gen.h **** static inline lv_border_side_t lv_obj_get_style_border_side(const struct _lv_obj_t * obj, uint32_t 
ARM GAS  /tmp/ccyILfU7.s 			page 40


 302:Middlewares/lvgl/src/extra/widgets/colorwheel/../../../../src/core/lv_obj_style_gen.h **** {
 303:Middlewares/lvgl/src/extra/widgets/colorwheel/../../../../src/core/lv_obj_style_gen.h ****     lv_style_value_t v = lv_obj_get_style_prop(obj, part, LV_STYLE_BORDER_SIDE);
 304:Middlewares/lvgl/src/extra/widgets/colorwheel/../../../../src/core/lv_obj_style_gen.h ****     return (lv_border_side_t)v.num;
 305:Middlewares/lvgl/src/extra/widgets/colorwheel/../../../../src/core/lv_obj_style_gen.h **** }
 306:Middlewares/lvgl/src/extra/widgets/colorwheel/../../../../src/core/lv_obj_style_gen.h **** 
 307:Middlewares/lvgl/src/extra/widgets/colorwheel/../../../../src/core/lv_obj_style_gen.h **** static inline bool lv_obj_get_style_border_post(const struct _lv_obj_t * obj, uint32_t part)
 308:Middlewares/lvgl/src/extra/widgets/colorwheel/../../../../src/core/lv_obj_style_gen.h **** {
 309:Middlewares/lvgl/src/extra/widgets/colorwheel/../../../../src/core/lv_obj_style_gen.h ****     lv_style_value_t v = lv_obj_get_style_prop(obj, part, LV_STYLE_BORDER_POST);
 310:Middlewares/lvgl/src/extra/widgets/colorwheel/../../../../src/core/lv_obj_style_gen.h ****     return (bool)v.num;
 311:Middlewares/lvgl/src/extra/widgets/colorwheel/../../../../src/core/lv_obj_style_gen.h **** }
 312:Middlewares/lvgl/src/extra/widgets/colorwheel/../../../../src/core/lv_obj_style_gen.h **** 
 313:Middlewares/lvgl/src/extra/widgets/colorwheel/../../../../src/core/lv_obj_style_gen.h **** static inline lv_color_t lv_obj_get_style_text_color(const struct _lv_obj_t * obj, uint32_t part)
 314:Middlewares/lvgl/src/extra/widgets/colorwheel/../../../../src/core/lv_obj_style_gen.h **** {
 315:Middlewares/lvgl/src/extra/widgets/colorwheel/../../../../src/core/lv_obj_style_gen.h ****     lv_style_value_t v = lv_obj_get_style_prop(obj, part, LV_STYLE_TEXT_COLOR);
 316:Middlewares/lvgl/src/extra/widgets/colorwheel/../../../../src/core/lv_obj_style_gen.h ****     return v.color;
 317:Middlewares/lvgl/src/extra/widgets/colorwheel/../../../../src/core/lv_obj_style_gen.h **** }
 318:Middlewares/lvgl/src/extra/widgets/colorwheel/../../../../src/core/lv_obj_style_gen.h **** 
 319:Middlewares/lvgl/src/extra/widgets/colorwheel/../../../../src/core/lv_obj_style_gen.h **** static inline lv_color_t lv_obj_get_style_text_color_filtered(const struct _lv_obj_t * obj, uint32_
 320:Middlewares/lvgl/src/extra/widgets/colorwheel/../../../../src/core/lv_obj_style_gen.h **** {
 321:Middlewares/lvgl/src/extra/widgets/colorwheel/../../../../src/core/lv_obj_style_gen.h ****     lv_style_value_t v = lv_obj_get_style_prop(obj, part, LV_STYLE_TEXT_COLOR_FILTERED);
 322:Middlewares/lvgl/src/extra/widgets/colorwheel/../../../../src/core/lv_obj_style_gen.h ****     return v.color;
 323:Middlewares/lvgl/src/extra/widgets/colorwheel/../../../../src/core/lv_obj_style_gen.h **** }
 324:Middlewares/lvgl/src/extra/widgets/colorwheel/../../../../src/core/lv_obj_style_gen.h **** 
 325:Middlewares/lvgl/src/extra/widgets/colorwheel/../../../../src/core/lv_obj_style_gen.h **** static inline lv_opa_t lv_obj_get_style_text_opa(const struct _lv_obj_t * obj, uint32_t part)
 326:Middlewares/lvgl/src/extra/widgets/colorwheel/../../../../src/core/lv_obj_style_gen.h **** {
 327:Middlewares/lvgl/src/extra/widgets/colorwheel/../../../../src/core/lv_obj_style_gen.h ****     lv_style_value_t v = lv_obj_get_style_prop(obj, part, LV_STYLE_TEXT_OPA);
 328:Middlewares/lvgl/src/extra/widgets/colorwheel/../../../../src/core/lv_obj_style_gen.h ****     return (lv_opa_t)v.num;
 329:Middlewares/lvgl/src/extra/widgets/colorwheel/../../../../src/core/lv_obj_style_gen.h **** }
 330:Middlewares/lvgl/src/extra/widgets/colorwheel/../../../../src/core/lv_obj_style_gen.h **** 
 331:Middlewares/lvgl/src/extra/widgets/colorwheel/../../../../src/core/lv_obj_style_gen.h **** static inline const lv_font_t * lv_obj_get_style_text_font(const struct _lv_obj_t * obj, uint32_t p
 332:Middlewares/lvgl/src/extra/widgets/colorwheel/../../../../src/core/lv_obj_style_gen.h **** {
 333:Middlewares/lvgl/src/extra/widgets/colorwheel/../../../../src/core/lv_obj_style_gen.h ****     lv_style_value_t v = lv_obj_get_style_prop(obj, part, LV_STYLE_TEXT_FONT);
 334:Middlewares/lvgl/src/extra/widgets/colorwheel/../../../../src/core/lv_obj_style_gen.h ****     return (const lv_font_t *)v.ptr;
 335:Middlewares/lvgl/src/extra/widgets/colorwheel/../../../../src/core/lv_obj_style_gen.h **** }
 336:Middlewares/lvgl/src/extra/widgets/colorwheel/../../../../src/core/lv_obj_style_gen.h **** 
 337:Middlewares/lvgl/src/extra/widgets/colorwheel/../../../../src/core/lv_obj_style_gen.h **** static inline lv_coord_t lv_obj_get_style_text_letter_space(const struct _lv_obj_t * obj, uint32_t 
 338:Middlewares/lvgl/src/extra/widgets/colorwheel/../../../../src/core/lv_obj_style_gen.h **** {
 339:Middlewares/lvgl/src/extra/widgets/colorwheel/../../../../src/core/lv_obj_style_gen.h ****     lv_style_value_t v = lv_obj_get_style_prop(obj, part, LV_STYLE_TEXT_LETTER_SPACE);
 340:Middlewares/lvgl/src/extra/widgets/colorwheel/../../../../src/core/lv_obj_style_gen.h ****     return (lv_coord_t)v.num;
 341:Middlewares/lvgl/src/extra/widgets/colorwheel/../../../../src/core/lv_obj_style_gen.h **** }
 342:Middlewares/lvgl/src/extra/widgets/colorwheel/../../../../src/core/lv_obj_style_gen.h **** 
 343:Middlewares/lvgl/src/extra/widgets/colorwheel/../../../../src/core/lv_obj_style_gen.h **** static inline lv_coord_t lv_obj_get_style_text_line_space(const struct _lv_obj_t * obj, uint32_t pa
 344:Middlewares/lvgl/src/extra/widgets/colorwheel/../../../../src/core/lv_obj_style_gen.h **** {
 345:Middlewares/lvgl/src/extra/widgets/colorwheel/../../../../src/core/lv_obj_style_gen.h ****     lv_style_value_t v = lv_obj_get_style_prop(obj, part, LV_STYLE_TEXT_LINE_SPACE);
 346:Middlewares/lvgl/src/extra/widgets/colorwheel/../../../../src/core/lv_obj_style_gen.h ****     return (lv_coord_t)v.num;
 347:Middlewares/lvgl/src/extra/widgets/colorwheel/../../../../src/core/lv_obj_style_gen.h **** }
 348:Middlewares/lvgl/src/extra/widgets/colorwheel/../../../../src/core/lv_obj_style_gen.h **** 
 349:Middlewares/lvgl/src/extra/widgets/colorwheel/../../../../src/core/lv_obj_style_gen.h **** static inline lv_text_decor_t lv_obj_get_style_text_decor(const struct _lv_obj_t * obj, uint32_t pa
 350:Middlewares/lvgl/src/extra/widgets/colorwheel/../../../../src/core/lv_obj_style_gen.h **** {
 351:Middlewares/lvgl/src/extra/widgets/colorwheel/../../../../src/core/lv_obj_style_gen.h ****     lv_style_value_t v = lv_obj_get_style_prop(obj, part, LV_STYLE_TEXT_DECOR);
 352:Middlewares/lvgl/src/extra/widgets/colorwheel/../../../../src/core/lv_obj_style_gen.h ****     return (lv_text_decor_t)v.num;
 353:Middlewares/lvgl/src/extra/widgets/colorwheel/../../../../src/core/lv_obj_style_gen.h **** }
 354:Middlewares/lvgl/src/extra/widgets/colorwheel/../../../../src/core/lv_obj_style_gen.h **** 
 355:Middlewares/lvgl/src/extra/widgets/colorwheel/../../../../src/core/lv_obj_style_gen.h **** static inline lv_text_align_t lv_obj_get_style_text_align(const struct _lv_obj_t * obj, uint32_t pa
 356:Middlewares/lvgl/src/extra/widgets/colorwheel/../../../../src/core/lv_obj_style_gen.h **** {
 357:Middlewares/lvgl/src/extra/widgets/colorwheel/../../../../src/core/lv_obj_style_gen.h ****     lv_style_value_t v = lv_obj_get_style_prop(obj, part, LV_STYLE_TEXT_ALIGN);
 358:Middlewares/lvgl/src/extra/widgets/colorwheel/../../../../src/core/lv_obj_style_gen.h ****     return (lv_text_align_t)v.num;
ARM GAS  /tmp/ccyILfU7.s 			page 41


 359:Middlewares/lvgl/src/extra/widgets/colorwheel/../../../../src/core/lv_obj_style_gen.h **** }
 360:Middlewares/lvgl/src/extra/widgets/colorwheel/../../../../src/core/lv_obj_style_gen.h **** 
 361:Middlewares/lvgl/src/extra/widgets/colorwheel/../../../../src/core/lv_obj_style_gen.h **** static inline lv_opa_t lv_obj_get_style_img_opa(const struct _lv_obj_t * obj, uint32_t part)
 362:Middlewares/lvgl/src/extra/widgets/colorwheel/../../../../src/core/lv_obj_style_gen.h **** {
 363:Middlewares/lvgl/src/extra/widgets/colorwheel/../../../../src/core/lv_obj_style_gen.h ****     lv_style_value_t v = lv_obj_get_style_prop(obj, part, LV_STYLE_IMG_OPA);
 364:Middlewares/lvgl/src/extra/widgets/colorwheel/../../../../src/core/lv_obj_style_gen.h ****     return (lv_opa_t)v.num;
 365:Middlewares/lvgl/src/extra/widgets/colorwheel/../../../../src/core/lv_obj_style_gen.h **** }
 366:Middlewares/lvgl/src/extra/widgets/colorwheel/../../../../src/core/lv_obj_style_gen.h **** 
 367:Middlewares/lvgl/src/extra/widgets/colorwheel/../../../../src/core/lv_obj_style_gen.h **** static inline lv_color_t lv_obj_get_style_img_recolor(const struct _lv_obj_t * obj, uint32_t part)
 368:Middlewares/lvgl/src/extra/widgets/colorwheel/../../../../src/core/lv_obj_style_gen.h **** {
 369:Middlewares/lvgl/src/extra/widgets/colorwheel/../../../../src/core/lv_obj_style_gen.h ****     lv_style_value_t v = lv_obj_get_style_prop(obj, part, LV_STYLE_IMG_RECOLOR);
 370:Middlewares/lvgl/src/extra/widgets/colorwheel/../../../../src/core/lv_obj_style_gen.h ****     return v.color;
 371:Middlewares/lvgl/src/extra/widgets/colorwheel/../../../../src/core/lv_obj_style_gen.h **** }
 372:Middlewares/lvgl/src/extra/widgets/colorwheel/../../../../src/core/lv_obj_style_gen.h **** 
 373:Middlewares/lvgl/src/extra/widgets/colorwheel/../../../../src/core/lv_obj_style_gen.h **** static inline lv_color_t lv_obj_get_style_img_recolor_filtered(const struct _lv_obj_t * obj, uint32
 374:Middlewares/lvgl/src/extra/widgets/colorwheel/../../../../src/core/lv_obj_style_gen.h **** {
 375:Middlewares/lvgl/src/extra/widgets/colorwheel/../../../../src/core/lv_obj_style_gen.h ****     lv_style_value_t v = lv_obj_get_style_prop(obj, part, LV_STYLE_IMG_RECOLOR_FILTERED);
 376:Middlewares/lvgl/src/extra/widgets/colorwheel/../../../../src/core/lv_obj_style_gen.h ****     return v.color;
 377:Middlewares/lvgl/src/extra/widgets/colorwheel/../../../../src/core/lv_obj_style_gen.h **** }
 378:Middlewares/lvgl/src/extra/widgets/colorwheel/../../../../src/core/lv_obj_style_gen.h **** 
 379:Middlewares/lvgl/src/extra/widgets/colorwheel/../../../../src/core/lv_obj_style_gen.h **** static inline lv_opa_t lv_obj_get_style_img_recolor_opa(const struct _lv_obj_t * obj, uint32_t part
 380:Middlewares/lvgl/src/extra/widgets/colorwheel/../../../../src/core/lv_obj_style_gen.h **** {
 381:Middlewares/lvgl/src/extra/widgets/colorwheel/../../../../src/core/lv_obj_style_gen.h ****     lv_style_value_t v = lv_obj_get_style_prop(obj, part, LV_STYLE_IMG_RECOLOR_OPA);
 382:Middlewares/lvgl/src/extra/widgets/colorwheel/../../../../src/core/lv_obj_style_gen.h ****     return (lv_opa_t)v.num;
 383:Middlewares/lvgl/src/extra/widgets/colorwheel/../../../../src/core/lv_obj_style_gen.h **** }
 384:Middlewares/lvgl/src/extra/widgets/colorwheel/../../../../src/core/lv_obj_style_gen.h **** 
 385:Middlewares/lvgl/src/extra/widgets/colorwheel/../../../../src/core/lv_obj_style_gen.h **** static inline lv_coord_t lv_obj_get_style_outline_width(const struct _lv_obj_t * obj, uint32_t part
 386:Middlewares/lvgl/src/extra/widgets/colorwheel/../../../../src/core/lv_obj_style_gen.h **** {
 387:Middlewares/lvgl/src/extra/widgets/colorwheel/../../../../src/core/lv_obj_style_gen.h ****     lv_style_value_t v = lv_obj_get_style_prop(obj, part, LV_STYLE_OUTLINE_WIDTH);
 388:Middlewares/lvgl/src/extra/widgets/colorwheel/../../../../src/core/lv_obj_style_gen.h ****     return (lv_coord_t)v.num;
 389:Middlewares/lvgl/src/extra/widgets/colorwheel/../../../../src/core/lv_obj_style_gen.h **** }
 390:Middlewares/lvgl/src/extra/widgets/colorwheel/../../../../src/core/lv_obj_style_gen.h **** 
 391:Middlewares/lvgl/src/extra/widgets/colorwheel/../../../../src/core/lv_obj_style_gen.h **** static inline lv_color_t lv_obj_get_style_outline_color(const struct _lv_obj_t * obj, uint32_t part
 392:Middlewares/lvgl/src/extra/widgets/colorwheel/../../../../src/core/lv_obj_style_gen.h **** {
 393:Middlewares/lvgl/src/extra/widgets/colorwheel/../../../../src/core/lv_obj_style_gen.h ****     lv_style_value_t v = lv_obj_get_style_prop(obj, part, LV_STYLE_OUTLINE_COLOR);
 394:Middlewares/lvgl/src/extra/widgets/colorwheel/../../../../src/core/lv_obj_style_gen.h ****     return v.color;
 395:Middlewares/lvgl/src/extra/widgets/colorwheel/../../../../src/core/lv_obj_style_gen.h **** }
 396:Middlewares/lvgl/src/extra/widgets/colorwheel/../../../../src/core/lv_obj_style_gen.h **** 
 397:Middlewares/lvgl/src/extra/widgets/colorwheel/../../../../src/core/lv_obj_style_gen.h **** static inline lv_color_t lv_obj_get_style_outline_color_filtered(const struct _lv_obj_t * obj, uint
 398:Middlewares/lvgl/src/extra/widgets/colorwheel/../../../../src/core/lv_obj_style_gen.h **** {
 399:Middlewares/lvgl/src/extra/widgets/colorwheel/../../../../src/core/lv_obj_style_gen.h ****     lv_style_value_t v = lv_obj_get_style_prop(obj, part, LV_STYLE_OUTLINE_COLOR_FILTERED);
 400:Middlewares/lvgl/src/extra/widgets/colorwheel/../../../../src/core/lv_obj_style_gen.h ****     return v.color;
 401:Middlewares/lvgl/src/extra/widgets/colorwheel/../../../../src/core/lv_obj_style_gen.h **** }
 402:Middlewares/lvgl/src/extra/widgets/colorwheel/../../../../src/core/lv_obj_style_gen.h **** 
 403:Middlewares/lvgl/src/extra/widgets/colorwheel/../../../../src/core/lv_obj_style_gen.h **** static inline lv_opa_t lv_obj_get_style_outline_opa(const struct _lv_obj_t * obj, uint32_t part)
 404:Middlewares/lvgl/src/extra/widgets/colorwheel/../../../../src/core/lv_obj_style_gen.h **** {
 405:Middlewares/lvgl/src/extra/widgets/colorwheel/../../../../src/core/lv_obj_style_gen.h ****     lv_style_value_t v = lv_obj_get_style_prop(obj, part, LV_STYLE_OUTLINE_OPA);
 406:Middlewares/lvgl/src/extra/widgets/colorwheel/../../../../src/core/lv_obj_style_gen.h ****     return (lv_opa_t)v.num;
 407:Middlewares/lvgl/src/extra/widgets/colorwheel/../../../../src/core/lv_obj_style_gen.h **** }
 408:Middlewares/lvgl/src/extra/widgets/colorwheel/../../../../src/core/lv_obj_style_gen.h **** 
 409:Middlewares/lvgl/src/extra/widgets/colorwheel/../../../../src/core/lv_obj_style_gen.h **** static inline lv_coord_t lv_obj_get_style_outline_pad(const struct _lv_obj_t * obj, uint32_t part)
 410:Middlewares/lvgl/src/extra/widgets/colorwheel/../../../../src/core/lv_obj_style_gen.h **** {
 411:Middlewares/lvgl/src/extra/widgets/colorwheel/../../../../src/core/lv_obj_style_gen.h ****     lv_style_value_t v = lv_obj_get_style_prop(obj, part, LV_STYLE_OUTLINE_PAD);
 412:Middlewares/lvgl/src/extra/widgets/colorwheel/../../../../src/core/lv_obj_style_gen.h ****     return (lv_coord_t)v.num;
 413:Middlewares/lvgl/src/extra/widgets/colorwheel/../../../../src/core/lv_obj_style_gen.h **** }
 414:Middlewares/lvgl/src/extra/widgets/colorwheel/../../../../src/core/lv_obj_style_gen.h **** 
 415:Middlewares/lvgl/src/extra/widgets/colorwheel/../../../../src/core/lv_obj_style_gen.h **** static inline lv_coord_t lv_obj_get_style_shadow_width(const struct _lv_obj_t * obj, uint32_t part)
ARM GAS  /tmp/ccyILfU7.s 			page 42


 416:Middlewares/lvgl/src/extra/widgets/colorwheel/../../../../src/core/lv_obj_style_gen.h **** {
 417:Middlewares/lvgl/src/extra/widgets/colorwheel/../../../../src/core/lv_obj_style_gen.h ****     lv_style_value_t v = lv_obj_get_style_prop(obj, part, LV_STYLE_SHADOW_WIDTH);
 418:Middlewares/lvgl/src/extra/widgets/colorwheel/../../../../src/core/lv_obj_style_gen.h ****     return (lv_coord_t)v.num;
 419:Middlewares/lvgl/src/extra/widgets/colorwheel/../../../../src/core/lv_obj_style_gen.h **** }
 420:Middlewares/lvgl/src/extra/widgets/colorwheel/../../../../src/core/lv_obj_style_gen.h **** 
 421:Middlewares/lvgl/src/extra/widgets/colorwheel/../../../../src/core/lv_obj_style_gen.h **** static inline lv_coord_t lv_obj_get_style_shadow_ofs_x(const struct _lv_obj_t * obj, uint32_t part)
 422:Middlewares/lvgl/src/extra/widgets/colorwheel/../../../../src/core/lv_obj_style_gen.h **** {
 423:Middlewares/lvgl/src/extra/widgets/colorwheel/../../../../src/core/lv_obj_style_gen.h ****     lv_style_value_t v = lv_obj_get_style_prop(obj, part, LV_STYLE_SHADOW_OFS_X);
 424:Middlewares/lvgl/src/extra/widgets/colorwheel/../../../../src/core/lv_obj_style_gen.h ****     return (lv_coord_t)v.num;
 425:Middlewares/lvgl/src/extra/widgets/colorwheel/../../../../src/core/lv_obj_style_gen.h **** }
 426:Middlewares/lvgl/src/extra/widgets/colorwheel/../../../../src/core/lv_obj_style_gen.h **** 
 427:Middlewares/lvgl/src/extra/widgets/colorwheel/../../../../src/core/lv_obj_style_gen.h **** static inline lv_coord_t lv_obj_get_style_shadow_ofs_y(const struct _lv_obj_t * obj, uint32_t part)
 428:Middlewares/lvgl/src/extra/widgets/colorwheel/../../../../src/core/lv_obj_style_gen.h **** {
 429:Middlewares/lvgl/src/extra/widgets/colorwheel/../../../../src/core/lv_obj_style_gen.h ****     lv_style_value_t v = lv_obj_get_style_prop(obj, part, LV_STYLE_SHADOW_OFS_Y);
 430:Middlewares/lvgl/src/extra/widgets/colorwheel/../../../../src/core/lv_obj_style_gen.h ****     return (lv_coord_t)v.num;
 431:Middlewares/lvgl/src/extra/widgets/colorwheel/../../../../src/core/lv_obj_style_gen.h **** }
 432:Middlewares/lvgl/src/extra/widgets/colorwheel/../../../../src/core/lv_obj_style_gen.h **** 
 433:Middlewares/lvgl/src/extra/widgets/colorwheel/../../../../src/core/lv_obj_style_gen.h **** static inline lv_coord_t lv_obj_get_style_shadow_spread(const struct _lv_obj_t * obj, uint32_t part
 434:Middlewares/lvgl/src/extra/widgets/colorwheel/../../../../src/core/lv_obj_style_gen.h **** {
 435:Middlewares/lvgl/src/extra/widgets/colorwheel/../../../../src/core/lv_obj_style_gen.h ****     lv_style_value_t v = lv_obj_get_style_prop(obj, part, LV_STYLE_SHADOW_SPREAD);
 436:Middlewares/lvgl/src/extra/widgets/colorwheel/../../../../src/core/lv_obj_style_gen.h ****     return (lv_coord_t)v.num;
 437:Middlewares/lvgl/src/extra/widgets/colorwheel/../../../../src/core/lv_obj_style_gen.h **** }
 438:Middlewares/lvgl/src/extra/widgets/colorwheel/../../../../src/core/lv_obj_style_gen.h **** 
 439:Middlewares/lvgl/src/extra/widgets/colorwheel/../../../../src/core/lv_obj_style_gen.h **** static inline lv_color_t lv_obj_get_style_shadow_color(const struct _lv_obj_t * obj, uint32_t part)
 440:Middlewares/lvgl/src/extra/widgets/colorwheel/../../../../src/core/lv_obj_style_gen.h **** {
 441:Middlewares/lvgl/src/extra/widgets/colorwheel/../../../../src/core/lv_obj_style_gen.h ****     lv_style_value_t v = lv_obj_get_style_prop(obj, part, LV_STYLE_SHADOW_COLOR);
 442:Middlewares/lvgl/src/extra/widgets/colorwheel/../../../../src/core/lv_obj_style_gen.h ****     return v.color;
 443:Middlewares/lvgl/src/extra/widgets/colorwheel/../../../../src/core/lv_obj_style_gen.h **** }
 444:Middlewares/lvgl/src/extra/widgets/colorwheel/../../../../src/core/lv_obj_style_gen.h **** 
 445:Middlewares/lvgl/src/extra/widgets/colorwheel/../../../../src/core/lv_obj_style_gen.h **** static inline lv_color_t lv_obj_get_style_shadow_color_filtered(const struct _lv_obj_t * obj, uint3
 446:Middlewares/lvgl/src/extra/widgets/colorwheel/../../../../src/core/lv_obj_style_gen.h **** {
 447:Middlewares/lvgl/src/extra/widgets/colorwheel/../../../../src/core/lv_obj_style_gen.h ****     lv_style_value_t v = lv_obj_get_style_prop(obj, part, LV_STYLE_SHADOW_COLOR_FILTERED);
 448:Middlewares/lvgl/src/extra/widgets/colorwheel/../../../../src/core/lv_obj_style_gen.h ****     return v.color;
 449:Middlewares/lvgl/src/extra/widgets/colorwheel/../../../../src/core/lv_obj_style_gen.h **** }
 450:Middlewares/lvgl/src/extra/widgets/colorwheel/../../../../src/core/lv_obj_style_gen.h **** 
 451:Middlewares/lvgl/src/extra/widgets/colorwheel/../../../../src/core/lv_obj_style_gen.h **** static inline lv_opa_t lv_obj_get_style_shadow_opa(const struct _lv_obj_t * obj, uint32_t part)
 452:Middlewares/lvgl/src/extra/widgets/colorwheel/../../../../src/core/lv_obj_style_gen.h **** {
 453:Middlewares/lvgl/src/extra/widgets/colorwheel/../../../../src/core/lv_obj_style_gen.h ****     lv_style_value_t v = lv_obj_get_style_prop(obj, part, LV_STYLE_SHADOW_OPA);
 454:Middlewares/lvgl/src/extra/widgets/colorwheel/../../../../src/core/lv_obj_style_gen.h ****     return (lv_opa_t)v.num;
 455:Middlewares/lvgl/src/extra/widgets/colorwheel/../../../../src/core/lv_obj_style_gen.h **** }
 456:Middlewares/lvgl/src/extra/widgets/colorwheel/../../../../src/core/lv_obj_style_gen.h **** 
 457:Middlewares/lvgl/src/extra/widgets/colorwheel/../../../../src/core/lv_obj_style_gen.h **** static inline lv_coord_t lv_obj_get_style_line_width(const struct _lv_obj_t * obj, uint32_t part)
 458:Middlewares/lvgl/src/extra/widgets/colorwheel/../../../../src/core/lv_obj_style_gen.h **** {
 459:Middlewares/lvgl/src/extra/widgets/colorwheel/../../../../src/core/lv_obj_style_gen.h ****     lv_style_value_t v = lv_obj_get_style_prop(obj, part, LV_STYLE_LINE_WIDTH);
 460:Middlewares/lvgl/src/extra/widgets/colorwheel/../../../../src/core/lv_obj_style_gen.h ****     return (lv_coord_t)v.num;
 461:Middlewares/lvgl/src/extra/widgets/colorwheel/../../../../src/core/lv_obj_style_gen.h **** }
 462:Middlewares/lvgl/src/extra/widgets/colorwheel/../../../../src/core/lv_obj_style_gen.h **** 
 463:Middlewares/lvgl/src/extra/widgets/colorwheel/../../../../src/core/lv_obj_style_gen.h **** static inline lv_coord_t lv_obj_get_style_line_dash_width(const struct _lv_obj_t * obj, uint32_t pa
 464:Middlewares/lvgl/src/extra/widgets/colorwheel/../../../../src/core/lv_obj_style_gen.h **** {
 465:Middlewares/lvgl/src/extra/widgets/colorwheel/../../../../src/core/lv_obj_style_gen.h ****     lv_style_value_t v = lv_obj_get_style_prop(obj, part, LV_STYLE_LINE_DASH_WIDTH);
 466:Middlewares/lvgl/src/extra/widgets/colorwheel/../../../../src/core/lv_obj_style_gen.h ****     return (lv_coord_t)v.num;
 467:Middlewares/lvgl/src/extra/widgets/colorwheel/../../../../src/core/lv_obj_style_gen.h **** }
 468:Middlewares/lvgl/src/extra/widgets/colorwheel/../../../../src/core/lv_obj_style_gen.h **** 
 469:Middlewares/lvgl/src/extra/widgets/colorwheel/../../../../src/core/lv_obj_style_gen.h **** static inline lv_coord_t lv_obj_get_style_line_dash_gap(const struct _lv_obj_t * obj, uint32_t part
 470:Middlewares/lvgl/src/extra/widgets/colorwheel/../../../../src/core/lv_obj_style_gen.h **** {
 471:Middlewares/lvgl/src/extra/widgets/colorwheel/../../../../src/core/lv_obj_style_gen.h ****     lv_style_value_t v = lv_obj_get_style_prop(obj, part, LV_STYLE_LINE_DASH_GAP);
 472:Middlewares/lvgl/src/extra/widgets/colorwheel/../../../../src/core/lv_obj_style_gen.h ****     return (lv_coord_t)v.num;
ARM GAS  /tmp/ccyILfU7.s 			page 43


 473:Middlewares/lvgl/src/extra/widgets/colorwheel/../../../../src/core/lv_obj_style_gen.h **** }
 474:Middlewares/lvgl/src/extra/widgets/colorwheel/../../../../src/core/lv_obj_style_gen.h **** 
 475:Middlewares/lvgl/src/extra/widgets/colorwheel/../../../../src/core/lv_obj_style_gen.h **** static inline lv_coord_t lv_obj_get_style_line_rounded(const struct _lv_obj_t * obj, uint32_t part)
 476:Middlewares/lvgl/src/extra/widgets/colorwheel/../../../../src/core/lv_obj_style_gen.h **** {
 477:Middlewares/lvgl/src/extra/widgets/colorwheel/../../../../src/core/lv_obj_style_gen.h ****     lv_style_value_t v = lv_obj_get_style_prop(obj, part, LV_STYLE_LINE_ROUNDED);
 478:Middlewares/lvgl/src/extra/widgets/colorwheel/../../../../src/core/lv_obj_style_gen.h ****     return (lv_coord_t)v.num;
 479:Middlewares/lvgl/src/extra/widgets/colorwheel/../../../../src/core/lv_obj_style_gen.h **** }
 480:Middlewares/lvgl/src/extra/widgets/colorwheel/../../../../src/core/lv_obj_style_gen.h **** 
 481:Middlewares/lvgl/src/extra/widgets/colorwheel/../../../../src/core/lv_obj_style_gen.h **** static inline lv_color_t lv_obj_get_style_line_color(const struct _lv_obj_t * obj, uint32_t part)
 482:Middlewares/lvgl/src/extra/widgets/colorwheel/../../../../src/core/lv_obj_style_gen.h **** {
 483:Middlewares/lvgl/src/extra/widgets/colorwheel/../../../../src/core/lv_obj_style_gen.h ****     lv_style_value_t v = lv_obj_get_style_prop(obj, part, LV_STYLE_LINE_COLOR);
 484:Middlewares/lvgl/src/extra/widgets/colorwheel/../../../../src/core/lv_obj_style_gen.h ****     return v.color;
 485:Middlewares/lvgl/src/extra/widgets/colorwheel/../../../../src/core/lv_obj_style_gen.h **** }
 486:Middlewares/lvgl/src/extra/widgets/colorwheel/../../../../src/core/lv_obj_style_gen.h **** 
 487:Middlewares/lvgl/src/extra/widgets/colorwheel/../../../../src/core/lv_obj_style_gen.h **** static inline lv_color_t lv_obj_get_style_line_color_filtered(const struct _lv_obj_t * obj, uint32_
 488:Middlewares/lvgl/src/extra/widgets/colorwheel/../../../../src/core/lv_obj_style_gen.h **** {
 489:Middlewares/lvgl/src/extra/widgets/colorwheel/../../../../src/core/lv_obj_style_gen.h ****     lv_style_value_t v = lv_obj_get_style_prop(obj, part, LV_STYLE_LINE_COLOR_FILTERED);
 490:Middlewares/lvgl/src/extra/widgets/colorwheel/../../../../src/core/lv_obj_style_gen.h ****     return v.color;
 491:Middlewares/lvgl/src/extra/widgets/colorwheel/../../../../src/core/lv_obj_style_gen.h **** }
 492:Middlewares/lvgl/src/extra/widgets/colorwheel/../../../../src/core/lv_obj_style_gen.h **** 
 493:Middlewares/lvgl/src/extra/widgets/colorwheel/../../../../src/core/lv_obj_style_gen.h **** static inline lv_opa_t lv_obj_get_style_line_opa(const struct _lv_obj_t * obj, uint32_t part)
 494:Middlewares/lvgl/src/extra/widgets/colorwheel/../../../../src/core/lv_obj_style_gen.h **** {
 495:Middlewares/lvgl/src/extra/widgets/colorwheel/../../../../src/core/lv_obj_style_gen.h ****     lv_style_value_t v = lv_obj_get_style_prop(obj, part, LV_STYLE_LINE_OPA);
 496:Middlewares/lvgl/src/extra/widgets/colorwheel/../../../../src/core/lv_obj_style_gen.h ****     return (lv_opa_t)v.num;
 497:Middlewares/lvgl/src/extra/widgets/colorwheel/../../../../src/core/lv_obj_style_gen.h **** }
 498:Middlewares/lvgl/src/extra/widgets/colorwheel/../../../../src/core/lv_obj_style_gen.h **** 
 499:Middlewares/lvgl/src/extra/widgets/colorwheel/../../../../src/core/lv_obj_style_gen.h **** static inline lv_coord_t lv_obj_get_style_arc_width(const struct _lv_obj_t * obj, uint32_t part)
 582              		.loc 3 499 26 view .LVU174
 583              	.LBB53:
 500:Middlewares/lvgl/src/extra/widgets/colorwheel/../../../../src/core/lv_obj_style_gen.h **** {
 501:Middlewares/lvgl/src/extra/widgets/colorwheel/../../../../src/core/lv_obj_style_gen.h ****     lv_style_value_t v = lv_obj_get_style_prop(obj, part, LV_STYLE_ARC_WIDTH);
 584              		.loc 3 501 5 view .LVU175
 585              		.loc 3 501 26 is_stmt 0 view .LVU176
 586 0008 4FF40562 		mov	r2, #2128
 587 000c 0021     		movs	r1, #0
 588              	.LVL54:
 589              		.loc 3 501 26 view .LVU177
 590 000e 2046     		mov	r0, r4
 591              	.LVL55:
 592              		.loc 3 501 26 view .LVU178
 593 0010 FFF7FEFF 		bl	lv_obj_get_style_prop
 594              	.LVL56:
 502:Middlewares/lvgl/src/extra/widgets/colorwheel/../../../../src/core/lv_obj_style_gen.h ****     return (lv_coord_t)v.num;
 595              		.loc 3 502 5 is_stmt 1 view .LVU179
 596              		.loc 3 502 5 is_stmt 0 view .LVU180
 597              	.LBE53:
 598              	.LBE52:
 329:Middlewares/lvgl/src/extra/widgets/colorwheel/lv_colorwheel.c **** 
 599              		.loc 1 329 7 view .LVU181
 600 0014 C0F3C033 		ubfx	r3, r0, #15, #1
 601 0018 03FA80F3 		sxtah	r3, r3, r0
 602 001c C3F34F05 		ubfx	r5, r3, #1, #16
 603              	.LVL57:
 331:Middlewares/lvgl/src/extra/widgets/colorwheel/lv_colorwheel.c ****     lv_coord_t right = lv_obj_get_style_pad_right(obj, LV_PART_KNOB);
 604              		.loc 1 331 5 is_stmt 1 view .LVU182
 605              	.LBB54:
 606              	.LBI54:
ARM GAS  /tmp/ccyILfU7.s 			page 44


 103:Middlewares/lvgl/src/extra/widgets/colorwheel/../../../../src/core/lv_obj_style_gen.h **** {
 607              		.loc 3 103 26 view .LVU183
 608              	.LBB55:
 105:Middlewares/lvgl/src/extra/widgets/colorwheel/../../../../src/core/lv_obj_style_gen.h ****     return (lv_coord_t)v.num;
 609              		.loc 3 105 5 view .LVU184
 105:Middlewares/lvgl/src/extra/widgets/colorwheel/../../../../src/core/lv_obj_style_gen.h ****     return (lv_coord_t)v.num;
 610              		.loc 3 105 26 is_stmt 0 view .LVU185
 611 0020 41F21202 		movw	r2, #4114
 612 0024 4FF44031 		mov	r1, #196608
 613 0028 2046     		mov	r0, r4
 614 002a FFF7FEFF 		bl	lv_obj_get_style_prop
 615              	.LVL58:
 616 002e 8146     		mov	r9, r0
 617              	.LVL59:
 106:Middlewares/lvgl/src/extra/widgets/colorwheel/../../../../src/core/lv_obj_style_gen.h **** }
 618              		.loc 3 106 5 is_stmt 1 view .LVU186
 106:Middlewares/lvgl/src/extra/widgets/colorwheel/../../../../src/core/lv_obj_style_gen.h **** }
 619              		.loc 3 106 5 is_stmt 0 view .LVU187
 620              	.LBE55:
 621              	.LBE54:
 332:Middlewares/lvgl/src/extra/widgets/colorwheel/lv_colorwheel.c ****     lv_coord_t top = lv_obj_get_style_pad_top(obj, LV_PART_KNOB);
 622              		.loc 1 332 5 is_stmt 1 view .LVU188
 623              	.LBB56:
 624              	.LBI56:
 109:Middlewares/lvgl/src/extra/widgets/colorwheel/../../../../src/core/lv_obj_style_gen.h **** {
 625              		.loc 3 109 26 view .LVU189
 626              	.LBB57:
 111:Middlewares/lvgl/src/extra/widgets/colorwheel/../../../../src/core/lv_obj_style_gen.h ****     return (lv_coord_t)v.num;
 627              		.loc 3 111 5 view .LVU190
 111:Middlewares/lvgl/src/extra/widgets/colorwheel/../../../../src/core/lv_obj_style_gen.h ****     return (lv_coord_t)v.num;
 628              		.loc 3 111 26 is_stmt 0 view .LVU191
 629 0030 41F21302 		movw	r2, #4115
 630 0034 4FF44031 		mov	r1, #196608
 631 0038 2046     		mov	r0, r4
 632 003a FFF7FEFF 		bl	lv_obj_get_style_prop
 633              	.LVL60:
 634 003e 8046     		mov	r8, r0
 635              	.LVL61:
 112:Middlewares/lvgl/src/extra/widgets/colorwheel/../../../../src/core/lv_obj_style_gen.h **** }
 636              		.loc 3 112 5 is_stmt 1 view .LVU192
 112:Middlewares/lvgl/src/extra/widgets/colorwheel/../../../../src/core/lv_obj_style_gen.h **** }
 637              		.loc 3 112 5 is_stmt 0 view .LVU193
 638              	.LBE57:
 639              	.LBE56:
 333:Middlewares/lvgl/src/extra/widgets/colorwheel/lv_colorwheel.c ****     lv_coord_t bottom = lv_obj_get_style_pad_bottom(obj, LV_PART_KNOB);
 640              		.loc 1 333 5 is_stmt 1 view .LVU194
 641              	.LBB58:
 642              	.LBI58:
  91:Middlewares/lvgl/src/extra/widgets/colorwheel/../../../../src/core/lv_obj_style_gen.h **** {
 643              		.loc 3 91 26 view .LVU195
 644              	.LBB59:
  93:Middlewares/lvgl/src/extra/widgets/colorwheel/../../../../src/core/lv_obj_style_gen.h ****     return (lv_coord_t)v.num;
 645              		.loc 3 93 5 view .LVU196
  93:Middlewares/lvgl/src/extra/widgets/colorwheel/../../../../src/core/lv_obj_style_gen.h ****     return (lv_coord_t)v.num;
 646              		.loc 3 93 26 is_stmt 0 view .LVU197
 647 0040 41F21002 		movw	r2, #4112
 648 0044 4FF44031 		mov	r1, #196608
ARM GAS  /tmp/ccyILfU7.s 			page 45


 649 0048 2046     		mov	r0, r4
 650 004a FFF7FEFF 		bl	lv_obj_get_style_prop
 651              	.LVL62:
 652 004e 0746     		mov	r7, r0
 653              	.LVL63:
  94:Middlewares/lvgl/src/extra/widgets/colorwheel/../../../../src/core/lv_obj_style_gen.h **** }
 654              		.loc 3 94 5 is_stmt 1 view .LVU198
  94:Middlewares/lvgl/src/extra/widgets/colorwheel/../../../../src/core/lv_obj_style_gen.h **** }
 655              		.loc 3 94 5 is_stmt 0 view .LVU199
 656              	.LBE59:
 657              	.LBE58:
 334:Middlewares/lvgl/src/extra/widgets/colorwheel/lv_colorwheel.c **** 
 658              		.loc 1 334 5 is_stmt 1 view .LVU200
 659              	.LBB60:
 660              	.LBI60:
  97:Middlewares/lvgl/src/extra/widgets/colorwheel/../../../../src/core/lv_obj_style_gen.h **** {
 661              		.loc 3 97 26 view .LVU201
 662              	.LBB61:
  99:Middlewares/lvgl/src/extra/widgets/colorwheel/../../../../src/core/lv_obj_style_gen.h ****     return (lv_coord_t)v.num;
 663              		.loc 3 99 5 view .LVU202
  99:Middlewares/lvgl/src/extra/widgets/colorwheel/../../../../src/core/lv_obj_style_gen.h ****     return (lv_coord_t)v.num;
 664              		.loc 3 99 26 is_stmt 0 view .LVU203
 665 0050 41F21102 		movw	r2, #4113
 666 0054 4FF44031 		mov	r1, #196608
 667 0058 2046     		mov	r0, r4
 668 005a FFF7FEFF 		bl	lv_obj_get_style_prop
 669              	.LVL64:
 100:Middlewares/lvgl/src/extra/widgets/colorwheel/../../../../src/core/lv_obj_style_gen.h **** }
 670              		.loc 3 100 5 is_stmt 1 view .LVU204
 100:Middlewares/lvgl/src/extra/widgets/colorwheel/../../../../src/core/lv_obj_style_gen.h **** }
 671              		.loc 3 100 5 is_stmt 0 view .LVU205
 672              	.LBE61:
 673              	.LBE60:
 336:Middlewares/lvgl/src/extra/widgets/colorwheel/lv_colorwheel.c ****     knob_area.x1 = obj->coords.x1 + colorwheel->knob.pos.x - r - left;
 674              		.loc 1 336 5 is_stmt 1 view .LVU206
 337:Middlewares/lvgl/src/extra/widgets/colorwheel/lv_colorwheel.c ****     knob_area.y1 = obj->coords.y1 + colorwheel->knob.pos.y - r - right;
 675              		.loc 1 337 5 view .LVU207
 337:Middlewares/lvgl/src/extra/widgets/colorwheel/lv_colorwheel.c ****     knob_area.y1 = obj->coords.y1 + colorwheel->knob.pos.y - r - right;
 676              		.loc 1 337 31 is_stmt 0 view .LVU208
 677 005e A28A     		ldrh	r2, [r4, #20]
 337:Middlewares/lvgl/src/extra/widgets/colorwheel/lv_colorwheel.c ****     knob_area.y1 = obj->coords.y1 + colorwheel->knob.pos.y - r - right;
 678              		.loc 1 337 57 view .LVU209
 679 0060 238D     		ldrh	r3, [r4, #40]
 337:Middlewares/lvgl/src/extra/widgets/colorwheel/lv_colorwheel.c ****     knob_area.y1 = obj->coords.y1 + colorwheel->knob.pos.y - r - right;
 680              		.loc 1 337 35 view .LVU210
 681 0062 1A44     		add	r2, r2, r3
 682 0064 92B2     		uxth	r2, r2
 337:Middlewares/lvgl/src/extra/widgets/colorwheel/lv_colorwheel.c ****     knob_area.y1 = obj->coords.y1 + colorwheel->knob.pos.y - r - right;
 683              		.loc 1 337 60 view .LVU211
 684 0066 531B     		subs	r3, r2, r5
 685 0068 9BB2     		uxth	r3, r3
 337:Middlewares/lvgl/src/extra/widgets/colorwheel/lv_colorwheel.c ****     knob_area.y1 = obj->coords.y1 + colorwheel->knob.pos.y - r - right;
 686              		.loc 1 337 64 view .LVU212
 687 006a A3EB0903 		sub	r3, r3, r9
 337:Middlewares/lvgl/src/extra/widgets/colorwheel/lv_colorwheel.c ****     knob_area.y1 = obj->coords.y1 + colorwheel->knob.pos.y - r - right;
 688              		.loc 1 337 18 view .LVU213
 689 006e 3380     		strh	r3, [r6]	@ movhi
ARM GAS  /tmp/ccyILfU7.s 			page 46


 338:Middlewares/lvgl/src/extra/widgets/colorwheel/lv_colorwheel.c ****     knob_area.x2 = obj->coords.x1 + colorwheel->knob.pos.x + r + top;
 690              		.loc 1 338 5 is_stmt 1 view .LVU214
 338:Middlewares/lvgl/src/extra/widgets/colorwheel/lv_colorwheel.c ****     knob_area.x2 = obj->coords.x1 + colorwheel->knob.pos.x + r + top;
 691              		.loc 1 338 31 is_stmt 0 view .LVU215
 692 0070 E38A     		ldrh	r3, [r4, #22]
 338:Middlewares/lvgl/src/extra/widgets/colorwheel/lv_colorwheel.c ****     knob_area.x2 = obj->coords.x1 + colorwheel->knob.pos.x + r + top;
 693              		.loc 1 338 57 view .LVU216
 694 0072 618D     		ldrh	r1, [r4, #42]
 338:Middlewares/lvgl/src/extra/widgets/colorwheel/lv_colorwheel.c ****     knob_area.x2 = obj->coords.x1 + colorwheel->knob.pos.x + r + top;
 695              		.loc 1 338 35 view .LVU217
 696 0074 0B44     		add	r3, r3, r1
 697 0076 9BB2     		uxth	r3, r3
 338:Middlewares/lvgl/src/extra/widgets/colorwheel/lv_colorwheel.c ****     knob_area.x2 = obj->coords.x1 + colorwheel->knob.pos.x + r + top;
 698              		.loc 1 338 60 view .LVU218
 699 0078 591B     		subs	r1, r3, r5
 700 007a 89B2     		uxth	r1, r1
 338:Middlewares/lvgl/src/extra/widgets/colorwheel/lv_colorwheel.c ****     knob_area.x2 = obj->coords.x1 + colorwheel->knob.pos.x + r + top;
 701              		.loc 1 338 64 view .LVU219
 702 007c A1EB0808 		sub	r8, r1, r8
 703              	.LVL65:
 338:Middlewares/lvgl/src/extra/widgets/colorwheel/lv_colorwheel.c ****     knob_area.x2 = obj->coords.x1 + colorwheel->knob.pos.x + r + top;
 704              		.loc 1 338 18 view .LVU220
 705 0080 A6F80280 		strh	r8, [r6, #2]	@ movhi
 339:Middlewares/lvgl/src/extra/widgets/colorwheel/lv_colorwheel.c ****     knob_area.y2 = obj->coords.y1 + colorwheel->knob.pos.y + r + bottom;
 706              		.loc 1 339 5 is_stmt 1 view .LVU221
 339:Middlewares/lvgl/src/extra/widgets/colorwheel/lv_colorwheel.c ****     knob_area.y2 = obj->coords.y1 + colorwheel->knob.pos.y + r + bottom;
 707              		.loc 1 339 60 is_stmt 0 view .LVU222
 708 0084 2A44     		add	r2, r2, r5
 339:Middlewares/lvgl/src/extra/widgets/colorwheel/lv_colorwheel.c ****     knob_area.y2 = obj->coords.y1 + colorwheel->knob.pos.y + r + bottom;
 709              		.loc 1 339 64 view .LVU223
 710 0086 17FA82F7 		uxtah	r7, r7, r2
 711              	.LVL66:
 339:Middlewares/lvgl/src/extra/widgets/colorwheel/lv_colorwheel.c ****     knob_area.y2 = obj->coords.y1 + colorwheel->knob.pos.y + r + bottom;
 712              		.loc 1 339 18 view .LVU224
 713 008a B780     		strh	r7, [r6, #4]	@ movhi
 340:Middlewares/lvgl/src/extra/widgets/colorwheel/lv_colorwheel.c **** 
 714              		.loc 1 340 5 is_stmt 1 view .LVU225
 340:Middlewares/lvgl/src/extra/widgets/colorwheel/lv_colorwheel.c **** 
 715              		.loc 1 340 60 is_stmt 0 view .LVU226
 716 008c 2B44     		add	r3, r3, r5
 340:Middlewares/lvgl/src/extra/widgets/colorwheel/lv_colorwheel.c **** 
 717              		.loc 1 340 64 view .LVU227
 718 008e 10FA83F3 		uxtah	r3, r0, r3
 340:Middlewares/lvgl/src/extra/widgets/colorwheel/lv_colorwheel.c **** 
 719              		.loc 1 340 18 view .LVU228
 720 0092 F380     		strh	r3, [r6, #6]	@ movhi
 342:Middlewares/lvgl/src/extra/widgets/colorwheel/lv_colorwheel.c **** }
 721              		.loc 1 342 5 is_stmt 1 view .LVU229
 343:Middlewares/lvgl/src/extra/widgets/colorwheel/lv_colorwheel.c **** 
 722              		.loc 1 343 1 is_stmt 0 view .LVU230
 723 0094 3046     		mov	r0, r6
 724              	.LVL67:
 343:Middlewares/lvgl/src/extra/widgets/colorwheel/lv_colorwheel.c **** 
 725              		.loc 1 343 1 view .LVU231
 726 0096 BDE8F883 		pop	{r3, r4, r5, r6, r7, r8, r9, pc}
 343:Middlewares/lvgl/src/extra/widgets/colorwheel/lv_colorwheel.c **** 
 727              		.loc 1 343 1 view .LVU232
ARM GAS  /tmp/ccyILfU7.s 			page 47


 728              		.cfi_endproc
 729              	.LFE197:
 731              		.section	.text.invalidate_knob,"ax",%progbits
 732              		.align	1
 733              		.syntax unified
 734              		.thumb
 735              		.thumb_func
 736              		.fpu fpv4-sp-d16
 738              	invalidate_knob:
 739              	.LVL68:
 740              	.LFB196:
 317:Middlewares/lvgl/src/extra/widgets/colorwheel/lv_colorwheel.c ****     lv_area_t knob_area = get_knob_area(obj);
 741              		.loc 1 317 1 is_stmt 1 view -0
 742              		.cfi_startproc
 743              		@ args = 0, pretend = 0, frame = 8
 744              		@ frame_needed = 0, uses_anonymous_args = 0
 317:Middlewares/lvgl/src/extra/widgets/colorwheel/lv_colorwheel.c ****     lv_area_t knob_area = get_knob_area(obj);
 745              		.loc 1 317 1 is_stmt 0 view .LVU234
 746 0000 10B5     		push	{r4, lr}
 747              	.LCFI6:
 748              		.cfi_def_cfa_offset 8
 749              		.cfi_offset 4, -8
 750              		.cfi_offset 14, -4
 751 0002 82B0     		sub	sp, sp, #8
 752              	.LCFI7:
 753              		.cfi_def_cfa_offset 16
 754 0004 0446     		mov	r4, r0
 318:Middlewares/lvgl/src/extra/widgets/colorwheel/lv_colorwheel.c **** 
 755              		.loc 1 318 5 is_stmt 1 view .LVU235
 318:Middlewares/lvgl/src/extra/widgets/colorwheel/lv_colorwheel.c **** 
 756              		.loc 1 318 27 is_stmt 0 view .LVU236
 757 0006 0146     		mov	r1, r0
 758 0008 6846     		mov	r0, sp
 759              	.LVL69:
 318:Middlewares/lvgl/src/extra/widgets/colorwheel/lv_colorwheel.c **** 
 760              		.loc 1 318 27 view .LVU237
 761 000a FFF7FEFF 		bl	get_knob_area
 762              	.LVL70:
 320:Middlewares/lvgl/src/extra/widgets/colorwheel/lv_colorwheel.c **** }
 763              		.loc 1 320 5 is_stmt 1 view .LVU238
 764 000e 6946     		mov	r1, sp
 765 0010 2046     		mov	r0, r4
 766 0012 FFF7FEFF 		bl	lv_obj_invalidate_area
 767              	.LVL71:
 321:Middlewares/lvgl/src/extra/widgets/colorwheel/lv_colorwheel.c **** 
 768              		.loc 1 321 1 is_stmt 0 view .LVU239
 769 0016 02B0     		add	sp, sp, #8
 770              	.LCFI8:
 771              		.cfi_def_cfa_offset 8
 772              		@ sp needed
 773 0018 10BD     		pop	{r4, pc}
 321:Middlewares/lvgl/src/extra/widgets/colorwheel/lv_colorwheel.c **** 
 774              		.loc 1 321 1 view .LVU240
 775              		.cfi_endproc
 776              	.LFE196:
 778              		.section	.text.refr_knob_pos,"ax",%progbits
 779              		.align	1
ARM GAS  /tmp/ccyILfU7.s 			page 48


 780              		.syntax unified
 781              		.thumb
 782              		.thumb_func
 783              		.fpu fpv4-sp-d16
 785              	refr_knob_pos:
 786              	.LVL72:
 787              	.LFB200:
 539:Middlewares/lvgl/src/extra/widgets/colorwheel/lv_colorwheel.c ****     invalidate_knob(obj);
 788              		.loc 1 539 1 is_stmt 1 view -0
 789              		.cfi_startproc
 790              		@ args = 0, pretend = 0, frame = 0
 791              		@ frame_needed = 0, uses_anonymous_args = 0
 539:Middlewares/lvgl/src/extra/widgets/colorwheel/lv_colorwheel.c ****     invalidate_knob(obj);
 792              		.loc 1 539 1 is_stmt 0 view .LVU242
 793 0000 F8B5     		push	{r3, r4, r5, r6, r7, lr}
 794              	.LCFI9:
 795              		.cfi_def_cfa_offset 24
 796              		.cfi_offset 3, -24
 797              		.cfi_offset 4, -20
 798              		.cfi_offset 5, -16
 799              		.cfi_offset 6, -12
 800              		.cfi_offset 7, -8
 801              		.cfi_offset 14, -4
 802 0002 0546     		mov	r5, r0
 540:Middlewares/lvgl/src/extra/widgets/colorwheel/lv_colorwheel.c **** 
 803              		.loc 1 540 5 is_stmt 1 view .LVU243
 804 0004 FFF7FEFF 		bl	invalidate_knob
 805              	.LVL73:
 542:Middlewares/lvgl/src/extra/widgets/colorwheel/lv_colorwheel.c ****     lv_coord_t w = lv_obj_get_width(obj);
 806              		.loc 1 542 5 view .LVU244
 543:Middlewares/lvgl/src/extra/widgets/colorwheel/lv_colorwheel.c **** 
 807              		.loc 1 543 5 view .LVU245
 543:Middlewares/lvgl/src/extra/widgets/colorwheel/lv_colorwheel.c **** 
 808              		.loc 1 543 20 is_stmt 0 view .LVU246
 809 0008 2846     		mov	r0, r5
 810 000a FFF7FEFF 		bl	lv_obj_get_width
 811              	.LVL74:
 812 000e 0646     		mov	r6, r0
 813              	.LVL75:
 545:Middlewares/lvgl/src/extra/widgets/colorwheel/lv_colorwheel.c ****     lv_coord_t r = (w - scale_w) / 2;
 814              		.loc 1 545 5 is_stmt 1 view .LVU247
 815              	.LBB62:
 816              	.LBI62:
 499:Middlewares/lvgl/src/extra/widgets/colorwheel/../../../../src/core/lv_obj_style_gen.h **** {
 817              		.loc 3 499 26 view .LVU248
 818              	.LBB63:
 501:Middlewares/lvgl/src/extra/widgets/colorwheel/../../../../src/core/lv_obj_style_gen.h ****     return (lv_coord_t)v.num;
 819              		.loc 3 501 5 view .LVU249
 501:Middlewares/lvgl/src/extra/widgets/colorwheel/../../../../src/core/lv_obj_style_gen.h ****     return (lv_coord_t)v.num;
 820              		.loc 3 501 26 is_stmt 0 view .LVU250
 821 0010 4FF40562 		mov	r2, #2128
 822 0014 0021     		movs	r1, #0
 823 0016 2846     		mov	r0, r5
 824 0018 FFF7FEFF 		bl	lv_obj_get_style_prop
 825              	.LVL76:
 826              		.loc 3 502 5 is_stmt 1 view .LVU251
 827              		.loc 3 502 12 is_stmt 0 view .LVU252
ARM GAS  /tmp/ccyILfU7.s 			page 49


 828 001c 02B2     		sxth	r2, r0
 829              	.LVL77:
 830              		.loc 3 502 12 view .LVU253
 831              	.LBE63:
 832              	.LBE62:
 546:Middlewares/lvgl/src/extra/widgets/colorwheel/lv_colorwheel.c ****     uint16_t angle = get_angle(obj);
 833              		.loc 1 546 5 is_stmt 1 view .LVU254
 546:Middlewares/lvgl/src/extra/widgets/colorwheel/lv_colorwheel.c ****     uint16_t angle = get_angle(obj);
 834              		.loc 1 546 23 is_stmt 0 view .LVU255
 835 001e B21A     		subs	r2, r6, r2
 836              	.LVL78:
 546:Middlewares/lvgl/src/extra/widgets/colorwheel/lv_colorwheel.c ****     uint16_t angle = get_angle(obj);
 837              		.loc 1 546 34 view .LVU256
 838 0020 02EBD272 		add	r2, r2, r2, lsr #31
 546:Middlewares/lvgl/src/extra/widgets/colorwheel/lv_colorwheel.c ****     uint16_t angle = get_angle(obj);
 839              		.loc 1 546 16 view .LVU257
 840 0024 42F34F04 		sbfx	r4, r2, #1, #16
 841              	.LVL79:
 547:Middlewares/lvgl/src/extra/widgets/colorwheel/lv_colorwheel.c ****     colorwheel->knob.pos.x = (((int32_t)r * lv_trigo_sin(angle)) >> LV_TRIGO_SHIFT);
 842              		.loc 1 547 5 is_stmt 1 view .LVU258
 547:Middlewares/lvgl/src/extra/widgets/colorwheel/lv_colorwheel.c ****     colorwheel->knob.pos.x = (((int32_t)r * lv_trigo_sin(angle)) >> LV_TRIGO_SHIFT);
 843              		.loc 1 547 22 is_stmt 0 view .LVU259
 844 0028 2846     		mov	r0, r5
 845              	.LVL80:
 547:Middlewares/lvgl/src/extra/widgets/colorwheel/lv_colorwheel.c ****     colorwheel->knob.pos.x = (((int32_t)r * lv_trigo_sin(angle)) >> LV_TRIGO_SHIFT);
 846              		.loc 1 547 22 view .LVU260
 847 002a FFF7FEFF 		bl	get_angle
 848              	.LVL81:
 849 002e 0746     		mov	r7, r0
 850              	.LVL82:
 548:Middlewares/lvgl/src/extra/widgets/colorwheel/lv_colorwheel.c ****     colorwheel->knob.pos.y = (((int32_t)r * lv_trigo_cos(angle)) >> LV_TRIGO_SHIFT);
 851              		.loc 1 548 5 is_stmt 1 view .LVU261
 548:Middlewares/lvgl/src/extra/widgets/colorwheel/lv_colorwheel.c ****     colorwheel->knob.pos.y = (((int32_t)r * lv_trigo_cos(angle)) >> LV_TRIGO_SHIFT);
 852              		.loc 1 548 45 is_stmt 0 view .LVU262
 853 0030 00B2     		sxth	r0, r0
 548:Middlewares/lvgl/src/extra/widgets/colorwheel/lv_colorwheel.c ****     colorwheel->knob.pos.y = (((int32_t)r * lv_trigo_cos(angle)) >> LV_TRIGO_SHIFT);
 854              		.loc 1 548 45 view .LVU263
 855 0032 FFF7FEFF 		bl	lv_trigo_sin
 856              	.LVL83:
 548:Middlewares/lvgl/src/extra/widgets/colorwheel/lv_colorwheel.c ****     colorwheel->knob.pos.y = (((int32_t)r * lv_trigo_cos(angle)) >> LV_TRIGO_SHIFT);
 857              		.loc 1 548 43 view .LVU264
 858 0036 04FB00F0 		mul	r0, r4, r0
 548:Middlewares/lvgl/src/extra/widgets/colorwheel/lv_colorwheel.c ****     colorwheel->knob.pos.y = (((int32_t)r * lv_trigo_cos(angle)) >> LV_TRIGO_SHIFT);
 859              		.loc 1 548 66 view .LVU265
 860 003a C013     		asrs	r0, r0, #15
 548:Middlewares/lvgl/src/extra/widgets/colorwheel/lv_colorwheel.c ****     colorwheel->knob.pos.y = (((int32_t)r * lv_trigo_cos(angle)) >> LV_TRIGO_SHIFT);
 861              		.loc 1 548 28 view .LVU266
 862 003c 2885     		strh	r0, [r5, #40]	@ movhi
 549:Middlewares/lvgl/src/extra/widgets/colorwheel/lv_colorwheel.c ****     colorwheel->knob.pos.x = colorwheel->knob.pos.x + w / 2;
 863              		.loc 1 549 5 is_stmt 1 view .LVU267
 864              	.LVL84:
 865              	.LBB64:
 866              	.LBI64:
 867              		.file 4 "Middlewares/lvgl/src/extra/widgets/colorwheel/../../../../src/misc/lv_math.h"
   1:Middlewares/lvgl/src/extra/widgets/colorwheel/../../../../src/misc/lv_math.h **** /**
   2:Middlewares/lvgl/src/extra/widgets/colorwheel/../../../../src/misc/lv_math.h ****  * @file lv_math.h
   3:Middlewares/lvgl/src/extra/widgets/colorwheel/../../../../src/misc/lv_math.h ****  *
ARM GAS  /tmp/ccyILfU7.s 			page 50


   4:Middlewares/lvgl/src/extra/widgets/colorwheel/../../../../src/misc/lv_math.h ****  */
   5:Middlewares/lvgl/src/extra/widgets/colorwheel/../../../../src/misc/lv_math.h **** 
   6:Middlewares/lvgl/src/extra/widgets/colorwheel/../../../../src/misc/lv_math.h **** #ifndef LV_MATH_H
   7:Middlewares/lvgl/src/extra/widgets/colorwheel/../../../../src/misc/lv_math.h **** #define LV_MATH_H
   8:Middlewares/lvgl/src/extra/widgets/colorwheel/../../../../src/misc/lv_math.h **** 
   9:Middlewares/lvgl/src/extra/widgets/colorwheel/../../../../src/misc/lv_math.h **** #ifdef __cplusplus
  10:Middlewares/lvgl/src/extra/widgets/colorwheel/../../../../src/misc/lv_math.h **** extern "C" {
  11:Middlewares/lvgl/src/extra/widgets/colorwheel/../../../../src/misc/lv_math.h **** #endif
  12:Middlewares/lvgl/src/extra/widgets/colorwheel/../../../../src/misc/lv_math.h **** 
  13:Middlewares/lvgl/src/extra/widgets/colorwheel/../../../../src/misc/lv_math.h **** /*********************
  14:Middlewares/lvgl/src/extra/widgets/colorwheel/../../../../src/misc/lv_math.h ****  *      INCLUDES
  15:Middlewares/lvgl/src/extra/widgets/colorwheel/../../../../src/misc/lv_math.h ****  *********************/
  16:Middlewares/lvgl/src/extra/widgets/colorwheel/../../../../src/misc/lv_math.h **** #include "../lv_conf_internal.h"
  17:Middlewares/lvgl/src/extra/widgets/colorwheel/../../../../src/misc/lv_math.h **** #include <stdint.h>
  18:Middlewares/lvgl/src/extra/widgets/colorwheel/../../../../src/misc/lv_math.h **** 
  19:Middlewares/lvgl/src/extra/widgets/colorwheel/../../../../src/misc/lv_math.h **** /*********************
  20:Middlewares/lvgl/src/extra/widgets/colorwheel/../../../../src/misc/lv_math.h ****  *      DEFINES
  21:Middlewares/lvgl/src/extra/widgets/colorwheel/../../../../src/misc/lv_math.h ****  *********************/
  22:Middlewares/lvgl/src/extra/widgets/colorwheel/../../../../src/misc/lv_math.h **** #define LV_TRIGO_SIN_MAX 32767
  23:Middlewares/lvgl/src/extra/widgets/colorwheel/../../../../src/misc/lv_math.h **** #define LV_TRIGO_SHIFT 15 /**<  >> LV_TRIGO_SHIFT to normalize*/
  24:Middlewares/lvgl/src/extra/widgets/colorwheel/../../../../src/misc/lv_math.h **** 
  25:Middlewares/lvgl/src/extra/widgets/colorwheel/../../../../src/misc/lv_math.h **** #define LV_BEZIER_VAL_MAX 1024 /**< Max time in Bezier functions (not [0..1] to use integers)*/
  26:Middlewares/lvgl/src/extra/widgets/colorwheel/../../../../src/misc/lv_math.h **** #define LV_BEZIER_VAL_SHIFT 10 /**< log2(LV_BEZIER_VAL_MAX): used to normalize up scaled values*/
  27:Middlewares/lvgl/src/extra/widgets/colorwheel/../../../../src/misc/lv_math.h **** 
  28:Middlewares/lvgl/src/extra/widgets/colorwheel/../../../../src/misc/lv_math.h **** /**********************
  29:Middlewares/lvgl/src/extra/widgets/colorwheel/../../../../src/misc/lv_math.h ****  *      TYPEDEFS
  30:Middlewares/lvgl/src/extra/widgets/colorwheel/../../../../src/misc/lv_math.h ****  **********************/
  31:Middlewares/lvgl/src/extra/widgets/colorwheel/../../../../src/misc/lv_math.h **** 
  32:Middlewares/lvgl/src/extra/widgets/colorwheel/../../../../src/misc/lv_math.h **** typedef struct {
  33:Middlewares/lvgl/src/extra/widgets/colorwheel/../../../../src/misc/lv_math.h ****     uint16_t i;
  34:Middlewares/lvgl/src/extra/widgets/colorwheel/../../../../src/misc/lv_math.h ****     uint16_t f;
  35:Middlewares/lvgl/src/extra/widgets/colorwheel/../../../../src/misc/lv_math.h **** } lv_sqrt_res_t;
  36:Middlewares/lvgl/src/extra/widgets/colorwheel/../../../../src/misc/lv_math.h **** 
  37:Middlewares/lvgl/src/extra/widgets/colorwheel/../../../../src/misc/lv_math.h **** /**********************
  38:Middlewares/lvgl/src/extra/widgets/colorwheel/../../../../src/misc/lv_math.h ****  * GLOBAL PROTOTYPES
  39:Middlewares/lvgl/src/extra/widgets/colorwheel/../../../../src/misc/lv_math.h ****  **********************/
  40:Middlewares/lvgl/src/extra/widgets/colorwheel/../../../../src/misc/lv_math.h **** 
  41:Middlewares/lvgl/src/extra/widgets/colorwheel/../../../../src/misc/lv_math.h **** //! @cond Doxygen_Suppress
  42:Middlewares/lvgl/src/extra/widgets/colorwheel/../../../../src/misc/lv_math.h **** /**
  43:Middlewares/lvgl/src/extra/widgets/colorwheel/../../../../src/misc/lv_math.h ****  * Return with sinus of an angle
  44:Middlewares/lvgl/src/extra/widgets/colorwheel/../../../../src/misc/lv_math.h ****  * @param angle
  45:Middlewares/lvgl/src/extra/widgets/colorwheel/../../../../src/misc/lv_math.h ****  * @return sinus of 'angle'. sin(-90) = -32767, sin(90) = 32767
  46:Middlewares/lvgl/src/extra/widgets/colorwheel/../../../../src/misc/lv_math.h ****  */
  47:Middlewares/lvgl/src/extra/widgets/colorwheel/../../../../src/misc/lv_math.h **** LV_ATTRIBUTE_FAST_MEM int16_t lv_trigo_sin(int16_t angle);
  48:Middlewares/lvgl/src/extra/widgets/colorwheel/../../../../src/misc/lv_math.h **** 
  49:Middlewares/lvgl/src/extra/widgets/colorwheel/../../../../src/misc/lv_math.h **** static inline LV_ATTRIBUTE_FAST_MEM int16_t lv_trigo_cos(int16_t angle)
 868              		.loc 4 49 45 view .LVU268
 869              	.LBB65:
  50:Middlewares/lvgl/src/extra/widgets/colorwheel/../../../../src/misc/lv_math.h **** {
  51:Middlewares/lvgl/src/extra/widgets/colorwheel/../../../../src/misc/lv_math.h ****     return lv_trigo_sin(angle + 90);
 870              		.loc 4 51 5 view .LVU269
 871              		.loc 4 51 31 is_stmt 0 view .LVU270
 872 003e 07F15A00 		add	r0, r7, #90
 873              		.loc 4 51 12 view .LVU271
 874 0042 00B2     		sxth	r0, r0
 875 0044 FFF7FEFF 		bl	lv_trigo_sin
 876              	.LVL85:
ARM GAS  /tmp/ccyILfU7.s 			page 51


 877              		.loc 4 51 12 view .LVU272
 878              	.LBE65:
 879              	.LBE64:
 549:Middlewares/lvgl/src/extra/widgets/colorwheel/lv_colorwheel.c ****     colorwheel->knob.pos.x = colorwheel->knob.pos.x + w / 2;
 880              		.loc 1 549 43 view .LVU273
 881 0048 00FB04F4 		mul	r4, r0, r4
 882              	.LVL86:
 549:Middlewares/lvgl/src/extra/widgets/colorwheel/lv_colorwheel.c ****     colorwheel->knob.pos.x = colorwheel->knob.pos.x + w / 2;
 883              		.loc 1 549 28 view .LVU274
 884 004c 44F3CF34 		sbfx	r4, r4, #15, #16
 885 0050 6C85     		strh	r4, [r5, #42]	@ movhi
 550:Middlewares/lvgl/src/extra/widgets/colorwheel/lv_colorwheel.c ****     colorwheel->knob.pos.y = colorwheel->knob.pos.y + w / 2;
 886              		.loc 1 550 5 is_stmt 1 view .LVU275
 550:Middlewares/lvgl/src/extra/widgets/colorwheel/lv_colorwheel.c ****     colorwheel->knob.pos.y = colorwheel->knob.pos.y + w / 2;
 887              		.loc 1 550 50 is_stmt 0 view .LVU276
 888 0052 2A8D     		ldrh	r2, [r5, #40]
 550:Middlewares/lvgl/src/extra/widgets/colorwheel/lv_colorwheel.c ****     colorwheel->knob.pos.y = colorwheel->knob.pos.y + w / 2;
 889              		.loc 1 550 53 view .LVU277
 890 0054 06EBD673 		add	r3, r6, r6, lsr #31
 891 0058 C3F34F03 		ubfx	r3, r3, #1, #16
 892 005c 1A44     		add	r2, r2, r3
 550:Middlewares/lvgl/src/extra/widgets/colorwheel/lv_colorwheel.c ****     colorwheel->knob.pos.y = colorwheel->knob.pos.y + w / 2;
 893              		.loc 1 550 28 view .LVU278
 894 005e 2A85     		strh	r2, [r5, #40]	@ movhi
 551:Middlewares/lvgl/src/extra/widgets/colorwheel/lv_colorwheel.c **** 
 895              		.loc 1 551 5 is_stmt 1 view .LVU279
 551:Middlewares/lvgl/src/extra/widgets/colorwheel/lv_colorwheel.c **** 
 896              		.loc 1 551 53 is_stmt 0 view .LVU280
 897 0060 13FA84F4 		uxtah	r4, r3, r4
 551:Middlewares/lvgl/src/extra/widgets/colorwheel/lv_colorwheel.c **** 
 898              		.loc 1 551 28 view .LVU281
 899 0064 6C85     		strh	r4, [r5, #42]	@ movhi
 553:Middlewares/lvgl/src/extra/widgets/colorwheel/lv_colorwheel.c **** }
 900              		.loc 1 553 5 is_stmt 1 view .LVU282
 901 0066 2846     		mov	r0, r5
 902 0068 FFF7FEFF 		bl	invalidate_knob
 903              	.LVL87:
 554:Middlewares/lvgl/src/extra/widgets/colorwheel/lv_colorwheel.c **** 
 904              		.loc 1 554 1 is_stmt 0 view .LVU283
 905 006c F8BD     		pop	{r3, r4, r5, r6, r7, pc}
 554:Middlewares/lvgl/src/extra/widgets/colorwheel/lv_colorwheel.c **** 
 906              		.loc 1 554 1 view .LVU284
 907              		.cfi_endproc
 908              	.LFE200:
 910              		.section	.text.next_color_mode,"ax",%progbits
 911              		.align	1
 912              		.syntax unified
 913              		.thumb
 914              		.thumb_func
 915              		.fpu fpv4-sp-d16
 917              	next_color_mode:
 918              	.LVL88:
 919              	.LFB199:
 531:Middlewares/lvgl/src/extra/widgets/colorwheel/lv_colorwheel.c ****     lv_colorwheel_t * colorwheel = (lv_colorwheel_t *)obj;
 920              		.loc 1 531 1 is_stmt 1 view -0
 921              		.cfi_startproc
 922              		@ args = 0, pretend = 0, frame = 0
ARM GAS  /tmp/ccyILfU7.s 			page 52


 923              		@ frame_needed = 0, uses_anonymous_args = 0
 531:Middlewares/lvgl/src/extra/widgets/colorwheel/lv_colorwheel.c ****     lv_colorwheel_t * colorwheel = (lv_colorwheel_t *)obj;
 924              		.loc 1 531 1 is_stmt 0 view .LVU286
 925 0000 10B5     		push	{r4, lr}
 926              	.LCFI10:
 927              		.cfi_def_cfa_offset 8
 928              		.cfi_offset 4, -8
 929              		.cfi_offset 14, -4
 930 0002 0446     		mov	r4, r0
 532:Middlewares/lvgl/src/extra/widgets/colorwheel/lv_colorwheel.c ****     colorwheel->mode = (colorwheel->mode + 1) % 3;
 931              		.loc 1 532 5 is_stmt 1 view .LVU287
 932              	.LVL89:
 533:Middlewares/lvgl/src/extra/widgets/colorwheel/lv_colorwheel.c ****     refr_knob_pos(obj);
 933              		.loc 1 533 5 view .LVU288
 533:Middlewares/lvgl/src/extra/widgets/colorwheel/lv_colorwheel.c ****     refr_knob_pos(obj);
 934              		.loc 1 533 35 is_stmt 0 view .LVU289
 935 0004 90F83C10 		ldrb	r1, [r0, #60]	@ zero_extendqisi2
 936 0008 01F00303 		and	r3, r1, #3
 533:Middlewares/lvgl/src/extra/widgets/colorwheel/lv_colorwheel.c ****     refr_knob_pos(obj);
 937              		.loc 1 533 42 view .LVU290
 938 000c 0133     		adds	r3, r3, #1
 533:Middlewares/lvgl/src/extra/widgets/colorwheel/lv_colorwheel.c ****     refr_knob_pos(obj);
 939              		.loc 1 533 47 view .LVU291
 940 000e 084A     		ldr	r2, .L37
 941 0010 82FB03C2 		smull	ip, r2, r2, r3
 942 0014 02EB4202 		add	r2, r2, r2, lsl #1
 943 0018 9B1A     		subs	r3, r3, r2
 533:Middlewares/lvgl/src/extra/widgets/colorwheel/lv_colorwheel.c ****     refr_knob_pos(obj);
 944              		.loc 1 533 22 view .LVU292
 945 001a 0A46     		mov	r2, r1
 946 001c 63F30102 		bfi	r2, r3, #0, #2
 947 0020 80F83C20 		strb	r2, [r0, #60]
 534:Middlewares/lvgl/src/extra/widgets/colorwheel/lv_colorwheel.c ****     lv_obj_invalidate(obj);
 948              		.loc 1 534 5 is_stmt 1 view .LVU293
 949 0024 FFF7FEFF 		bl	refr_knob_pos
 950              	.LVL90:
 535:Middlewares/lvgl/src/extra/widgets/colorwheel/lv_colorwheel.c **** }
 951              		.loc 1 535 5 view .LVU294
 952 0028 2046     		mov	r0, r4
 953 002a FFF7FEFF 		bl	lv_obj_invalidate
 954              	.LVL91:
 536:Middlewares/lvgl/src/extra/widgets/colorwheel/lv_colorwheel.c **** 
 955              		.loc 1 536 1 is_stmt 0 view .LVU295
 956 002e 10BD     		pop	{r4, pc}
 957              	.LVL92:
 958              	.L38:
 536:Middlewares/lvgl/src/extra/widgets/colorwheel/lv_colorwheel.c **** 
 959              		.loc 1 536 1 view .LVU296
 960              		.align	2
 961              	.L37:
 962 0030 56555555 		.word	1431655766
 963              		.cfi_endproc
 964              	.LFE199:
 966              		.section	.text.draw_disc_grad,"ax",%progbits
 967              		.align	1
 968              		.syntax unified
 969              		.thumb
ARM GAS  /tmp/ccyILfU7.s 			page 53


 970              		.thumb_func
 971              		.fpu fpv4-sp-d16
 973              	draw_disc_grad:
 974              	.LVL93:
 975              	.LFB194:
 234:Middlewares/lvgl/src/extra/widgets/colorwheel/lv_colorwheel.c ****     lv_obj_t * obj = lv_event_get_target(e);
 976              		.loc 1 234 1 is_stmt 1 view -0
 977              		.cfi_startproc
 978              		@ args = 0, pretend = 0, frame = 112
 979              		@ frame_needed = 0, uses_anonymous_args = 0
 234:Middlewares/lvgl/src/extra/widgets/colorwheel/lv_colorwheel.c ****     lv_obj_t * obj = lv_event_get_target(e);
 980              		.loc 1 234 1 is_stmt 0 view .LVU298
 981 0000 2DE9F04F 		push	{r4, r5, r6, r7, r8, r9, r10, fp, lr}
 982              	.LCFI11:
 983              		.cfi_def_cfa_offset 36
 984              		.cfi_offset 4, -36
 985              		.cfi_offset 5, -32
 986              		.cfi_offset 6, -28
 987              		.cfi_offset 7, -24
 988              		.cfi_offset 8, -20
 989              		.cfi_offset 9, -16
 990              		.cfi_offset 10, -12
 991              		.cfi_offset 11, -8
 992              		.cfi_offset 14, -4
 993 0004 9DB0     		sub	sp, sp, #116
 994              	.LCFI12:
 995              		.cfi_def_cfa_offset 152
 996 0006 0446     		mov	r4, r0
 235:Middlewares/lvgl/src/extra/widgets/colorwheel/lv_colorwheel.c ****     const lv_area_t * clip_area = lv_event_get_param(e);
 997              		.loc 1 235 5 is_stmt 1 view .LVU299
 235:Middlewares/lvgl/src/extra/widgets/colorwheel/lv_colorwheel.c ****     const lv_area_t * clip_area = lv_event_get_param(e);
 998              		.loc 1 235 22 is_stmt 0 view .LVU300
 999 0008 FFF7FEFF 		bl	lv_event_get_target
 1000              	.LVL94:
 235:Middlewares/lvgl/src/extra/widgets/colorwheel/lv_colorwheel.c ****     const lv_area_t * clip_area = lv_event_get_param(e);
 1001              		.loc 1 235 22 view .LVU301
 1002 000c 0546     		mov	r5, r0
 1003 000e 0190     		str	r0, [sp, #4]
 1004              	.LVL95:
 236:Middlewares/lvgl/src/extra/widgets/colorwheel/lv_colorwheel.c ****     lv_coord_t w = lv_obj_get_width(obj);
 1005              		.loc 1 236 5 is_stmt 1 view .LVU302
 236:Middlewares/lvgl/src/extra/widgets/colorwheel/lv_colorwheel.c ****     lv_coord_t w = lv_obj_get_width(obj);
 1006              		.loc 1 236 35 is_stmt 0 view .LVU303
 1007 0010 2046     		mov	r0, r4
 1008              	.LVL96:
 236:Middlewares/lvgl/src/extra/widgets/colorwheel/lv_colorwheel.c ****     lv_coord_t w = lv_obj_get_width(obj);
 1009              		.loc 1 236 35 view .LVU304
 1010 0012 FFF7FEFF 		bl	lv_event_get_param
 1011              	.LVL97:
 1012 0016 0290     		str	r0, [sp, #8]
 1013              	.LVL98:
 237:Middlewares/lvgl/src/extra/widgets/colorwheel/lv_colorwheel.c ****     lv_coord_t h = lv_obj_get_height(obj);
 1014              		.loc 1 237 5 is_stmt 1 view .LVU305
 237:Middlewares/lvgl/src/extra/widgets/colorwheel/lv_colorwheel.c ****     lv_coord_t h = lv_obj_get_height(obj);
 1015              		.loc 1 237 20 is_stmt 0 view .LVU306
 1016 0018 2846     		mov	r0, r5
 1017              	.LVL99:
ARM GAS  /tmp/ccyILfU7.s 			page 54


 237:Middlewares/lvgl/src/extra/widgets/colorwheel/lv_colorwheel.c ****     lv_coord_t h = lv_obj_get_height(obj);
 1018              		.loc 1 237 20 view .LVU307
 1019 001a FFF7FEFF 		bl	lv_obj_get_width
 1020              	.LVL100:
 1021 001e 8146     		mov	r9, r0
 1022              	.LVL101:
 238:Middlewares/lvgl/src/extra/widgets/colorwheel/lv_colorwheel.c ****     lv_coord_t cx = obj->coords.x1 + w / 2;
 1023              		.loc 1 238 5 is_stmt 1 view .LVU308
 238:Middlewares/lvgl/src/extra/widgets/colorwheel/lv_colorwheel.c ****     lv_coord_t cx = obj->coords.x1 + w / 2;
 1024              		.loc 1 238 20 is_stmt 0 view .LVU309
 1025 0020 2846     		mov	r0, r5
 1026 0022 FFF7FEFF 		bl	lv_obj_get_height
 1027              	.LVL102:
 239:Middlewares/lvgl/src/extra/widgets/colorwheel/lv_colorwheel.c ****     lv_coord_t cy = obj->coords.y1 + h / 2;
 1028              		.loc 1 239 5 is_stmt 1 view .LVU310
 239:Middlewares/lvgl/src/extra/widgets/colorwheel/lv_colorwheel.c ****     lv_coord_t cy = obj->coords.y1 + h / 2;
 1029              		.loc 1 239 32 is_stmt 0 view .LVU311
 1030 0026 B5F814B0 		ldrh	fp, [r5, #20]
 239:Middlewares/lvgl/src/extra/widgets/colorwheel/lv_colorwheel.c ****     lv_coord_t cy = obj->coords.y1 + h / 2;
 1031              		.loc 1 239 36 view .LVU312
 1032 002a 09EBD979 		add	r9, r9, r9, lsr #31
 1033              	.LVL103:
 239:Middlewares/lvgl/src/extra/widgets/colorwheel/lv_colorwheel.c ****     lv_coord_t cy = obj->coords.y1 + h / 2;
 1034              		.loc 1 239 36 view .LVU313
 1035 002e 49F34F09 		sbfx	r9, r9, #1, #16
 1036 0032 CB44     		add	fp, fp, r9
 1037 0034 1FFA8BFB 		uxth	fp, fp
 1038              	.LVL104:
 240:Middlewares/lvgl/src/extra/widgets/colorwheel/lv_colorwheel.c ****     lv_coord_t r = w / 2;
 1039              		.loc 1 240 5 is_stmt 1 view .LVU314
 240:Middlewares/lvgl/src/extra/widgets/colorwheel/lv_colorwheel.c ****     lv_coord_t r = w / 2;
 1040              		.loc 1 240 32 is_stmt 0 view .LVU315
 1041 0038 EB8A     		ldrh	r3, [r5, #22]
 240:Middlewares/lvgl/src/extra/widgets/colorwheel/lv_colorwheel.c ****     lv_coord_t r = w / 2;
 1042              		.loc 1 240 36 view .LVU316
 1043 003a 00EBD070 		add	r0, r0, r0, lsr #31
 1044              	.LVL105:
 240:Middlewares/lvgl/src/extra/widgets/colorwheel/lv_colorwheel.c ****     lv_coord_t r = w / 2;
 1045              		.loc 1 240 36 view .LVU317
 1046 003e 03EB6000 		add	r0, r3, r0, asr #1
 1047 0042 1FFA80FA 		uxth	r10, r0
 1048              	.LVL106:
 241:Middlewares/lvgl/src/extra/widgets/colorwheel/lv_colorwheel.c **** 
 1049              		.loc 1 241 5 is_stmt 1 view .LVU318
 243:Middlewares/lvgl/src/extra/widgets/colorwheel/lv_colorwheel.c ****     lv_draw_line_dsc_init(&line_dsc);
 1050              		.loc 1 243 5 view .LVU319
 244:Middlewares/lvgl/src/extra/widgets/colorwheel/lv_colorwheel.c ****     lv_obj_init_draw_line_dsc(obj, LV_PART_MAIN, &line_dsc);
 1051              		.loc 1 244 5 view .LVU320
 1052 0046 19A8     		add	r0, sp, #100
 1053 0048 FFF7FEFF 		bl	lv_draw_line_dsc_init
 1054              	.LVL107:
 245:Middlewares/lvgl/src/extra/widgets/colorwheel/lv_colorwheel.c **** 
 1055              		.loc 1 245 5 view .LVU321
 1056 004c 19AA     		add	r2, sp, #100
 1057 004e 0021     		movs	r1, #0
 1058 0050 2846     		mov	r0, r5
 1059 0052 FFF7FEFF 		bl	lv_obj_init_draw_line_dsc
ARM GAS  /tmp/ccyILfU7.s 			page 55


 1060              	.LVL108:
 247:Middlewares/lvgl/src/extra/widgets/colorwheel/lv_colorwheel.c ****     line_dsc.width += 2;
 1061              		.loc 1 247 5 view .LVU322
 247:Middlewares/lvgl/src/extra/widgets/colorwheel/lv_colorwheel.c ****     line_dsc.width += 2;
 1062              		.loc 1 247 25 is_stmt 0 view .LVU323
 1063 0056 4FF41D73 		mov	r3, #628
 1064 005a 03FB09F3 		mul	r3, r3, r9
 247:Middlewares/lvgl/src/extra/widgets/colorwheel/lv_colorwheel.c ****     line_dsc.width += 2;
 1065              		.loc 1 247 60 view .LVU324
 1066 005e 4F4A     		ldr	r2, .L43
 1067 0060 82FB0312 		smull	r1, r2, r2, r3
 1068 0064 DB17     		asrs	r3, r3, #31
 1069 0066 C3EB2233 		rsb	r3, r3, r2, asr #12
 247:Middlewares/lvgl/src/extra/widgets/colorwheel/lv_colorwheel.c ****     line_dsc.width += 2;
 1070              		.loc 1 247 20 view .LVU325
 1071 006a 1BB2     		sxth	r3, r3
 1072 006c ADF86630 		strh	r3, [sp, #102]	@ movhi
 248:Middlewares/lvgl/src/extra/widgets/colorwheel/lv_colorwheel.c ****     uint16_t i;
 1073              		.loc 1 248 5 is_stmt 1 view .LVU326
 248:Middlewares/lvgl/src/extra/widgets/colorwheel/lv_colorwheel.c ****     uint16_t i;
 1074              		.loc 1 248 20 is_stmt 0 view .LVU327
 1075 0070 0233     		adds	r3, r3, #2
 1076 0072 ADF86630 		strh	r3, [sp, #102]	@ movhi
 249:Middlewares/lvgl/src/extra/widgets/colorwheel/lv_colorwheel.c ****     uint32_t a = 0;
 1077              		.loc 1 249 5 is_stmt 1 view .LVU328
 250:Middlewares/lvgl/src/extra/widgets/colorwheel/lv_colorwheel.c ****     lv_coord_t cir_w = lv_obj_get_style_arc_width(obj, LV_PART_MAIN);
 1078              		.loc 1 250 5 view .LVU329
 1079              	.LVL109:
 251:Middlewares/lvgl/src/extra/widgets/colorwheel/lv_colorwheel.c **** 
 1080              		.loc 1 251 5 view .LVU330
 1081              	.LBB66:
 1082              	.LBI66:
 499:Middlewares/lvgl/src/extra/widgets/colorwheel/../../../../src/core/lv_obj_style_gen.h **** {
 1083              		.loc 3 499 26 view .LVU331
 1084              	.LBB67:
 501:Middlewares/lvgl/src/extra/widgets/colorwheel/../../../../src/core/lv_obj_style_gen.h ****     return (lv_coord_t)v.num;
 1085              		.loc 3 501 5 view .LVU332
 501:Middlewares/lvgl/src/extra/widgets/colorwheel/../../../../src/core/lv_obj_style_gen.h ****     return (lv_coord_t)v.num;
 1086              		.loc 3 501 26 is_stmt 0 view .LVU333
 1087 0076 4FF40562 		mov	r2, #2128
 1088 007a 0021     		movs	r1, #0
 1089 007c 2846     		mov	r0, r5
 1090 007e FFF7FEFF 		bl	lv_obj_get_style_prop
 1091              	.LVL110:
 1092 0082 0446     		mov	r4, r0
 1093              	.LVL111:
 1094              		.loc 3 502 5 is_stmt 1 view .LVU334
 1095              		.loc 3 502 12 is_stmt 0 view .LVU335
 1096 0084 03B2     		sxth	r3, r0
 1097 0086 0393     		str	r3, [sp, #12]
 1098              	.LVL112:
 1099              		.loc 3 502 12 view .LVU336
 1100              	.LBE67:
 1101              	.LBE66:
 255:Middlewares/lvgl/src/extra/widgets/colorwheel/lv_colorwheel.c ****     lv_draw_mask_radius_init(&mask_out_param, &obj->coords, LV_RADIUS_CIRCLE, false);
 1102              		.loc 1 255 5 is_stmt 1 view .LVU337
 256:Middlewares/lvgl/src/extra/widgets/colorwheel/lv_colorwheel.c ****     int16_t mask_out_id = lv_draw_mask_add(&mask_out_param, 0);
ARM GAS  /tmp/ccyILfU7.s 			page 56


 1103              		.loc 1 256 5 view .LVU338
 1104 0088 0023     		movs	r3, #0
 1105 008a 47F6FF72 		movw	r2, #32767
 1106 008e 2946     		mov	r1, r5
 1107 0090 1431     		adds	r1, r1, #20
 1108 0092 12A8     		add	r0, sp, #72
 256:Middlewares/lvgl/src/extra/widgets/colorwheel/lv_colorwheel.c ****     int16_t mask_out_id = lv_draw_mask_add(&mask_out_param, 0);
 1109              		.loc 1 256 5 is_stmt 0 view .LVU339
 1110 0094 FFF7FEFF 		bl	lv_draw_mask_radius_init
 1111              	.LVL113:
 257:Middlewares/lvgl/src/extra/widgets/colorwheel/lv_colorwheel.c **** 
 1112              		.loc 1 257 5 is_stmt 1 view .LVU340
 257:Middlewares/lvgl/src/extra/widgets/colorwheel/lv_colorwheel.c **** 
 1113              		.loc 1 257 27 is_stmt 0 view .LVU341
 1114 0098 0021     		movs	r1, #0
 1115 009a 12A8     		add	r0, sp, #72
 1116 009c FFF7FEFF 		bl	lv_draw_mask_add
 1117              	.LVL114:
 1118 00a0 0490     		str	r0, [sp, #16]
 1119              	.LVL115:
 259:Middlewares/lvgl/src/extra/widgets/colorwheel/lv_colorwheel.c ****     lv_area_copy(&mask_area, &obj->coords);
 1120              		.loc 1 259 5 is_stmt 1 view .LVU342
 260:Middlewares/lvgl/src/extra/widgets/colorwheel/lv_colorwheel.c ****     mask_area.x1 += cir_w;
 1121              		.loc 1 260 5 view .LVU343
 1122              	.LBB68:
 1123              	.LBI68:
 1124              		.file 5 "Middlewares/lvgl/src/extra/widgets/colorwheel/../../../../src/hal/../misc/lv_area.h"
   1:Middlewares/lvgl/src/extra/widgets/colorwheel/../../../../src/hal/../misc/lv_area.h **** /**
   2:Middlewares/lvgl/src/extra/widgets/colorwheel/../../../../src/hal/../misc/lv_area.h ****  * @file lv_area.h
   3:Middlewares/lvgl/src/extra/widgets/colorwheel/../../../../src/hal/../misc/lv_area.h ****  *
   4:Middlewares/lvgl/src/extra/widgets/colorwheel/../../../../src/hal/../misc/lv_area.h ****  */
   5:Middlewares/lvgl/src/extra/widgets/colorwheel/../../../../src/hal/../misc/lv_area.h **** 
   6:Middlewares/lvgl/src/extra/widgets/colorwheel/../../../../src/hal/../misc/lv_area.h **** #ifndef LV_AREA_H
   7:Middlewares/lvgl/src/extra/widgets/colorwheel/../../../../src/hal/../misc/lv_area.h **** #define LV_AREA_H
   8:Middlewares/lvgl/src/extra/widgets/colorwheel/../../../../src/hal/../misc/lv_area.h **** 
   9:Middlewares/lvgl/src/extra/widgets/colorwheel/../../../../src/hal/../misc/lv_area.h **** #ifdef __cplusplus
  10:Middlewares/lvgl/src/extra/widgets/colorwheel/../../../../src/hal/../misc/lv_area.h **** extern "C" {
  11:Middlewares/lvgl/src/extra/widgets/colorwheel/../../../../src/hal/../misc/lv_area.h **** #endif
  12:Middlewares/lvgl/src/extra/widgets/colorwheel/../../../../src/hal/../misc/lv_area.h **** 
  13:Middlewares/lvgl/src/extra/widgets/colorwheel/../../../../src/hal/../misc/lv_area.h **** /*********************
  14:Middlewares/lvgl/src/extra/widgets/colorwheel/../../../../src/hal/../misc/lv_area.h ****  *      INCLUDES
  15:Middlewares/lvgl/src/extra/widgets/colorwheel/../../../../src/hal/../misc/lv_area.h ****  *********************/
  16:Middlewares/lvgl/src/extra/widgets/colorwheel/../../../../src/hal/../misc/lv_area.h **** #include "../lv_conf_internal.h"
  17:Middlewares/lvgl/src/extra/widgets/colorwheel/../../../../src/hal/../misc/lv_area.h **** #include <string.h>
  18:Middlewares/lvgl/src/extra/widgets/colorwheel/../../../../src/hal/../misc/lv_area.h **** #include <stdbool.h>
  19:Middlewares/lvgl/src/extra/widgets/colorwheel/../../../../src/hal/../misc/lv_area.h **** #include <stdint.h>
  20:Middlewares/lvgl/src/extra/widgets/colorwheel/../../../../src/hal/../misc/lv_area.h **** 
  21:Middlewares/lvgl/src/extra/widgets/colorwheel/../../../../src/hal/../misc/lv_area.h **** /*********************
  22:Middlewares/lvgl/src/extra/widgets/colorwheel/../../../../src/hal/../misc/lv_area.h ****  *      DEFINES
  23:Middlewares/lvgl/src/extra/widgets/colorwheel/../../../../src/hal/../misc/lv_area.h ****  *********************/
  24:Middlewares/lvgl/src/extra/widgets/colorwheel/../../../../src/hal/../misc/lv_area.h **** 
  25:Middlewares/lvgl/src/extra/widgets/colorwheel/../../../../src/hal/../misc/lv_area.h **** #define _LV_COORD_MAX_REDUCE    8192
  26:Middlewares/lvgl/src/extra/widgets/colorwheel/../../../../src/hal/../misc/lv_area.h **** 
  27:Middlewares/lvgl/src/extra/widgets/colorwheel/../../../../src/hal/../misc/lv_area.h **** #if LV_USE_LARGE_COORD
  28:Middlewares/lvgl/src/extra/widgets/colorwheel/../../../../src/hal/../misc/lv_area.h **** typedef int32_t lv_coord_t;
  29:Middlewares/lvgl/src/extra/widgets/colorwheel/../../../../src/hal/../misc/lv_area.h **** #else
  30:Middlewares/lvgl/src/extra/widgets/colorwheel/../../../../src/hal/../misc/lv_area.h **** typedef int16_t lv_coord_t;
ARM GAS  /tmp/ccyILfU7.s 			page 57


  31:Middlewares/lvgl/src/extra/widgets/colorwheel/../../../../src/hal/../misc/lv_area.h **** #endif
  32:Middlewares/lvgl/src/extra/widgets/colorwheel/../../../../src/hal/../misc/lv_area.h **** 
  33:Middlewares/lvgl/src/extra/widgets/colorwheel/../../../../src/hal/../misc/lv_area.h **** /*To allow some special values in the end reduce the max value*/
  34:Middlewares/lvgl/src/extra/widgets/colorwheel/../../../../src/hal/../misc/lv_area.h **** #define LV_COORD_MAX ((lv_coord_t)((uint32_t)((uint32_t)1 << (8 * sizeof(lv_coord_t) - 1)) - _LV_CO
  35:Middlewares/lvgl/src/extra/widgets/colorwheel/../../../../src/hal/../misc/lv_area.h **** #define LV_COORD_MIN (-LV_COORD_MAX)
  36:Middlewares/lvgl/src/extra/widgets/colorwheel/../../../../src/hal/../misc/lv_area.h **** 
  37:Middlewares/lvgl/src/extra/widgets/colorwheel/../../../../src/hal/../misc/lv_area.h **** LV_EXPORT_CONST_INT(LV_COORD_MAX);
  38:Middlewares/lvgl/src/extra/widgets/colorwheel/../../../../src/hal/../misc/lv_area.h **** LV_EXPORT_CONST_INT(LV_COORD_MIN);
  39:Middlewares/lvgl/src/extra/widgets/colorwheel/../../../../src/hal/../misc/lv_area.h **** 
  40:Middlewares/lvgl/src/extra/widgets/colorwheel/../../../../src/hal/../misc/lv_area.h **** /**********************
  41:Middlewares/lvgl/src/extra/widgets/colorwheel/../../../../src/hal/../misc/lv_area.h ****  *      TYPEDEFS
  42:Middlewares/lvgl/src/extra/widgets/colorwheel/../../../../src/hal/../misc/lv_area.h ****  **********************/
  43:Middlewares/lvgl/src/extra/widgets/colorwheel/../../../../src/hal/../misc/lv_area.h **** 
  44:Middlewares/lvgl/src/extra/widgets/colorwheel/../../../../src/hal/../misc/lv_area.h **** /**
  45:Middlewares/lvgl/src/extra/widgets/colorwheel/../../../../src/hal/../misc/lv_area.h ****  * Represents a point on the screen.
  46:Middlewares/lvgl/src/extra/widgets/colorwheel/../../../../src/hal/../misc/lv_area.h ****  */
  47:Middlewares/lvgl/src/extra/widgets/colorwheel/../../../../src/hal/../misc/lv_area.h **** typedef struct {
  48:Middlewares/lvgl/src/extra/widgets/colorwheel/../../../../src/hal/../misc/lv_area.h ****     lv_coord_t x;
  49:Middlewares/lvgl/src/extra/widgets/colorwheel/../../../../src/hal/../misc/lv_area.h ****     lv_coord_t y;
  50:Middlewares/lvgl/src/extra/widgets/colorwheel/../../../../src/hal/../misc/lv_area.h **** } lv_point_t;
  51:Middlewares/lvgl/src/extra/widgets/colorwheel/../../../../src/hal/../misc/lv_area.h **** 
  52:Middlewares/lvgl/src/extra/widgets/colorwheel/../../../../src/hal/../misc/lv_area.h **** /** Represents an area of the screen.*/
  53:Middlewares/lvgl/src/extra/widgets/colorwheel/../../../../src/hal/../misc/lv_area.h **** typedef struct {
  54:Middlewares/lvgl/src/extra/widgets/colorwheel/../../../../src/hal/../misc/lv_area.h ****     lv_coord_t x1;
  55:Middlewares/lvgl/src/extra/widgets/colorwheel/../../../../src/hal/../misc/lv_area.h ****     lv_coord_t y1;
  56:Middlewares/lvgl/src/extra/widgets/colorwheel/../../../../src/hal/../misc/lv_area.h ****     lv_coord_t x2;
  57:Middlewares/lvgl/src/extra/widgets/colorwheel/../../../../src/hal/../misc/lv_area.h ****     lv_coord_t y2;
  58:Middlewares/lvgl/src/extra/widgets/colorwheel/../../../../src/hal/../misc/lv_area.h **** } lv_area_t;
  59:Middlewares/lvgl/src/extra/widgets/colorwheel/../../../../src/hal/../misc/lv_area.h **** 
  60:Middlewares/lvgl/src/extra/widgets/colorwheel/../../../../src/hal/../misc/lv_area.h **** /** Alignments*/
  61:Middlewares/lvgl/src/extra/widgets/colorwheel/../../../../src/hal/../misc/lv_area.h **** enum {
  62:Middlewares/lvgl/src/extra/widgets/colorwheel/../../../../src/hal/../misc/lv_area.h ****     LV_ALIGN_DEFAULT = 0,
  63:Middlewares/lvgl/src/extra/widgets/colorwheel/../../../../src/hal/../misc/lv_area.h ****     LV_ALIGN_TOP_LEFT,
  64:Middlewares/lvgl/src/extra/widgets/colorwheel/../../../../src/hal/../misc/lv_area.h ****     LV_ALIGN_TOP_MID,
  65:Middlewares/lvgl/src/extra/widgets/colorwheel/../../../../src/hal/../misc/lv_area.h ****     LV_ALIGN_TOP_RIGHT,
  66:Middlewares/lvgl/src/extra/widgets/colorwheel/../../../../src/hal/../misc/lv_area.h ****     LV_ALIGN_BOTTOM_LEFT,
  67:Middlewares/lvgl/src/extra/widgets/colorwheel/../../../../src/hal/../misc/lv_area.h ****     LV_ALIGN_BOTTOM_MID,
  68:Middlewares/lvgl/src/extra/widgets/colorwheel/../../../../src/hal/../misc/lv_area.h ****     LV_ALIGN_BOTTOM_RIGHT,
  69:Middlewares/lvgl/src/extra/widgets/colorwheel/../../../../src/hal/../misc/lv_area.h ****     LV_ALIGN_LEFT_MID,
  70:Middlewares/lvgl/src/extra/widgets/colorwheel/../../../../src/hal/../misc/lv_area.h ****     LV_ALIGN_RIGHT_MID,
  71:Middlewares/lvgl/src/extra/widgets/colorwheel/../../../../src/hal/../misc/lv_area.h ****     LV_ALIGN_CENTER,
  72:Middlewares/lvgl/src/extra/widgets/colorwheel/../../../../src/hal/../misc/lv_area.h **** 
  73:Middlewares/lvgl/src/extra/widgets/colorwheel/../../../../src/hal/../misc/lv_area.h ****     LV_ALIGN_OUT_TOP_LEFT,
  74:Middlewares/lvgl/src/extra/widgets/colorwheel/../../../../src/hal/../misc/lv_area.h ****     LV_ALIGN_OUT_TOP_MID,
  75:Middlewares/lvgl/src/extra/widgets/colorwheel/../../../../src/hal/../misc/lv_area.h ****     LV_ALIGN_OUT_TOP_RIGHT,
  76:Middlewares/lvgl/src/extra/widgets/colorwheel/../../../../src/hal/../misc/lv_area.h ****     LV_ALIGN_OUT_BOTTOM_LEFT,
  77:Middlewares/lvgl/src/extra/widgets/colorwheel/../../../../src/hal/../misc/lv_area.h ****     LV_ALIGN_OUT_BOTTOM_MID,
  78:Middlewares/lvgl/src/extra/widgets/colorwheel/../../../../src/hal/../misc/lv_area.h ****     LV_ALIGN_OUT_BOTTOM_RIGHT,
  79:Middlewares/lvgl/src/extra/widgets/colorwheel/../../../../src/hal/../misc/lv_area.h ****     LV_ALIGN_OUT_LEFT_TOP,
  80:Middlewares/lvgl/src/extra/widgets/colorwheel/../../../../src/hal/../misc/lv_area.h ****     LV_ALIGN_OUT_LEFT_MID,
  81:Middlewares/lvgl/src/extra/widgets/colorwheel/../../../../src/hal/../misc/lv_area.h ****     LV_ALIGN_OUT_LEFT_BOTTOM,
  82:Middlewares/lvgl/src/extra/widgets/colorwheel/../../../../src/hal/../misc/lv_area.h ****     LV_ALIGN_OUT_RIGHT_TOP,
  83:Middlewares/lvgl/src/extra/widgets/colorwheel/../../../../src/hal/../misc/lv_area.h ****     LV_ALIGN_OUT_RIGHT_MID,
  84:Middlewares/lvgl/src/extra/widgets/colorwheel/../../../../src/hal/../misc/lv_area.h ****     LV_ALIGN_OUT_RIGHT_BOTTOM,
  85:Middlewares/lvgl/src/extra/widgets/colorwheel/../../../../src/hal/../misc/lv_area.h **** };
  86:Middlewares/lvgl/src/extra/widgets/colorwheel/../../../../src/hal/../misc/lv_area.h **** typedef uint8_t lv_align_t;
  87:Middlewares/lvgl/src/extra/widgets/colorwheel/../../../../src/hal/../misc/lv_area.h **** 
ARM GAS  /tmp/ccyILfU7.s 			page 58


  88:Middlewares/lvgl/src/extra/widgets/colorwheel/../../../../src/hal/../misc/lv_area.h **** enum {
  89:Middlewares/lvgl/src/extra/widgets/colorwheel/../../../../src/hal/../misc/lv_area.h ****     LV_DIR_NONE     = 0x00,
  90:Middlewares/lvgl/src/extra/widgets/colorwheel/../../../../src/hal/../misc/lv_area.h ****     LV_DIR_LEFT     = (1 << 0),
  91:Middlewares/lvgl/src/extra/widgets/colorwheel/../../../../src/hal/../misc/lv_area.h ****     LV_DIR_RIGHT    = (1 << 1),
  92:Middlewares/lvgl/src/extra/widgets/colorwheel/../../../../src/hal/../misc/lv_area.h ****     LV_DIR_TOP      = (1 << 2),
  93:Middlewares/lvgl/src/extra/widgets/colorwheel/../../../../src/hal/../misc/lv_area.h ****     LV_DIR_BOTTOM   = (1 << 3),
  94:Middlewares/lvgl/src/extra/widgets/colorwheel/../../../../src/hal/../misc/lv_area.h ****     LV_DIR_HOR      = LV_DIR_LEFT | LV_DIR_RIGHT,
  95:Middlewares/lvgl/src/extra/widgets/colorwheel/../../../../src/hal/../misc/lv_area.h ****     LV_DIR_VER      = LV_DIR_TOP | LV_DIR_BOTTOM,
  96:Middlewares/lvgl/src/extra/widgets/colorwheel/../../../../src/hal/../misc/lv_area.h ****     LV_DIR_ALL      = LV_DIR_HOR | LV_DIR_VER,
  97:Middlewares/lvgl/src/extra/widgets/colorwheel/../../../../src/hal/../misc/lv_area.h **** };
  98:Middlewares/lvgl/src/extra/widgets/colorwheel/../../../../src/hal/../misc/lv_area.h **** 
  99:Middlewares/lvgl/src/extra/widgets/colorwheel/../../../../src/hal/../misc/lv_area.h **** typedef uint8_t lv_dir_t;
 100:Middlewares/lvgl/src/extra/widgets/colorwheel/../../../../src/hal/../misc/lv_area.h **** 
 101:Middlewares/lvgl/src/extra/widgets/colorwheel/../../../../src/hal/../misc/lv_area.h **** /**********************
 102:Middlewares/lvgl/src/extra/widgets/colorwheel/../../../../src/hal/../misc/lv_area.h ****  * GLOBAL PROTOTYPES
 103:Middlewares/lvgl/src/extra/widgets/colorwheel/../../../../src/hal/../misc/lv_area.h ****  **********************/
 104:Middlewares/lvgl/src/extra/widgets/colorwheel/../../../../src/hal/../misc/lv_area.h **** 
 105:Middlewares/lvgl/src/extra/widgets/colorwheel/../../../../src/hal/../misc/lv_area.h **** /**
 106:Middlewares/lvgl/src/extra/widgets/colorwheel/../../../../src/hal/../misc/lv_area.h ****  * Initialize an area
 107:Middlewares/lvgl/src/extra/widgets/colorwheel/../../../../src/hal/../misc/lv_area.h ****  * @param area_p pointer to an area
 108:Middlewares/lvgl/src/extra/widgets/colorwheel/../../../../src/hal/../misc/lv_area.h ****  * @param x1 left coordinate of the area
 109:Middlewares/lvgl/src/extra/widgets/colorwheel/../../../../src/hal/../misc/lv_area.h ****  * @param y1 top coordinate of the area
 110:Middlewares/lvgl/src/extra/widgets/colorwheel/../../../../src/hal/../misc/lv_area.h ****  * @param x2 right coordinate of the area
 111:Middlewares/lvgl/src/extra/widgets/colorwheel/../../../../src/hal/../misc/lv_area.h ****  * @param y2 bottom coordinate of the area
 112:Middlewares/lvgl/src/extra/widgets/colorwheel/../../../../src/hal/../misc/lv_area.h ****  */
 113:Middlewares/lvgl/src/extra/widgets/colorwheel/../../../../src/hal/../misc/lv_area.h **** void lv_area_set(lv_area_t * area_p, lv_coord_t x1, lv_coord_t y1, lv_coord_t x2, lv_coord_t y2);
 114:Middlewares/lvgl/src/extra/widgets/colorwheel/../../../../src/hal/../misc/lv_area.h **** 
 115:Middlewares/lvgl/src/extra/widgets/colorwheel/../../../../src/hal/../misc/lv_area.h **** /**
 116:Middlewares/lvgl/src/extra/widgets/colorwheel/../../../../src/hal/../misc/lv_area.h ****  * Copy an area
 117:Middlewares/lvgl/src/extra/widgets/colorwheel/../../../../src/hal/../misc/lv_area.h ****  * @param dest pointer to the destination area
 118:Middlewares/lvgl/src/extra/widgets/colorwheel/../../../../src/hal/../misc/lv_area.h ****  * @param src pointer to the source area
 119:Middlewares/lvgl/src/extra/widgets/colorwheel/../../../../src/hal/../misc/lv_area.h ****  */
 120:Middlewares/lvgl/src/extra/widgets/colorwheel/../../../../src/hal/../misc/lv_area.h **** inline static void lv_area_copy(lv_area_t * dest, const lv_area_t * src)
 1125              		.loc 5 120 20 view .LVU344
 1126              	.LBB69:
 121:Middlewares/lvgl/src/extra/widgets/colorwheel/../../../../src/hal/../misc/lv_area.h **** {
 122:Middlewares/lvgl/src/extra/widgets/colorwheel/../../../../src/hal/../misc/lv_area.h ****     dest->x1 = src->x1;
 1127              		.loc 5 122 5 view .LVU345
 1128              		.loc 5 122 19 is_stmt 0 view .LVU346
 1129 00a2 B5F91400 		ldrsh	r0, [r5, #20]
 1130              		.loc 5 122 14 view .LVU347
 1131 00a6 ADF84000 		strh	r0, [sp, #64]	@ movhi
 123:Middlewares/lvgl/src/extra/widgets/colorwheel/../../../../src/hal/../misc/lv_area.h ****     dest->y1 = src->y1;
 1132              		.loc 5 123 5 is_stmt 1 view .LVU348
 1133              		.loc 5 123 19 is_stmt 0 view .LVU349
 1134 00aa B5F91620 		ldrsh	r2, [r5, #22]
 1135              		.loc 5 123 14 view .LVU350
 1136 00ae ADF84220 		strh	r2, [sp, #66]	@ movhi
 124:Middlewares/lvgl/src/extra/widgets/colorwheel/../../../../src/hal/../misc/lv_area.h ****     dest->x2 = src->x2;
 1137              		.loc 5 124 5 is_stmt 1 view .LVU351
 1138              		.loc 5 124 19 is_stmt 0 view .LVU352
 1139 00b2 B5F91810 		ldrsh	r1, [r5, #24]
 1140              		.loc 5 124 14 view .LVU353
 1141 00b6 ADF84410 		strh	r1, [sp, #68]	@ movhi
 125:Middlewares/lvgl/src/extra/widgets/colorwheel/../../../../src/hal/../misc/lv_area.h ****     dest->y2 = src->y2;
 1142              		.loc 5 125 5 is_stmt 1 view .LVU354
 1143              		.loc 5 125 19 is_stmt 0 view .LVU355
ARM GAS  /tmp/ccyILfU7.s 			page 59


 1144 00ba B5F91A30 		ldrsh	r3, [r5, #26]
 1145              		.loc 5 125 14 view .LVU356
 1146 00be ADF84630 		strh	r3, [sp, #70]	@ movhi
 1147              	.LVL116:
 1148              		.loc 5 125 14 view .LVU357
 1149              	.LBE69:
 1150              	.LBE68:
 261:Middlewares/lvgl/src/extra/widgets/colorwheel/lv_colorwheel.c ****     mask_area.x2 -= cir_w;
 1151              		.loc 1 261 5 is_stmt 1 view .LVU358
 261:Middlewares/lvgl/src/extra/widgets/colorwheel/lv_colorwheel.c ****     mask_area.x2 -= cir_w;
 1152              		.loc 1 261 18 is_stmt 0 view .LVU359
 1153 00c2 A4B2     		uxth	r4, r4
 261:Middlewares/lvgl/src/extra/widgets/colorwheel/lv_colorwheel.c ****     mask_area.x2 -= cir_w;
 1154              		.loc 1 261 18 view .LVU360
 1155 00c4 2044     		add	r0, r0, r4
 1156 00c6 ADF84000 		strh	r0, [sp, #64]	@ movhi
 262:Middlewares/lvgl/src/extra/widgets/colorwheel/lv_colorwheel.c ****     mask_area.y1 += cir_w;
 1157              		.loc 1 262 5 is_stmt 1 view .LVU361
 262:Middlewares/lvgl/src/extra/widgets/colorwheel/lv_colorwheel.c ****     mask_area.y1 += cir_w;
 1158              		.loc 1 262 18 is_stmt 0 view .LVU362
 1159 00ca 091B     		subs	r1, r1, r4
 1160 00cc ADF84410 		strh	r1, [sp, #68]	@ movhi
 263:Middlewares/lvgl/src/extra/widgets/colorwheel/lv_colorwheel.c ****     mask_area.y2 -= cir_w;
 1161              		.loc 1 263 5 is_stmt 1 view .LVU363
 263:Middlewares/lvgl/src/extra/widgets/colorwheel/lv_colorwheel.c ****     mask_area.y2 -= cir_w;
 1162              		.loc 1 263 18 is_stmt 0 view .LVU364
 1163 00d0 2244     		add	r2, r2, r4
 1164 00d2 ADF84220 		strh	r2, [sp, #66]	@ movhi
 264:Middlewares/lvgl/src/extra/widgets/colorwheel/lv_colorwheel.c ****     lv_draw_mask_radius_param_t mask_in_param;
 1165              		.loc 1 264 5 is_stmt 1 view .LVU365
 264:Middlewares/lvgl/src/extra/widgets/colorwheel/lv_colorwheel.c ****     lv_draw_mask_radius_param_t mask_in_param;
 1166              		.loc 1 264 18 is_stmt 0 view .LVU366
 1167 00d6 1B1B     		subs	r3, r3, r4
 1168 00d8 ADF84630 		strh	r3, [sp, #70]	@ movhi
 265:Middlewares/lvgl/src/extra/widgets/colorwheel/lv_colorwheel.c ****     lv_draw_mask_radius_init(&mask_in_param, &mask_area, LV_RADIUS_CIRCLE, true);
 1169              		.loc 1 265 5 is_stmt 1 view .LVU367
 266:Middlewares/lvgl/src/extra/widgets/colorwheel/lv_colorwheel.c ****     int16_t mask_in_id = lv_draw_mask_add(&mask_in_param, 0);
 1170              		.loc 1 266 5 view .LVU368
 1171 00dc 0123     		movs	r3, #1
 1172 00de 47F6FF72 		movw	r2, #32767
 1173 00e2 10A9     		add	r1, sp, #64
 1174 00e4 09A8     		add	r0, sp, #36
 1175 00e6 FFF7FEFF 		bl	lv_draw_mask_radius_init
 1176              	.LVL117:
 267:Middlewares/lvgl/src/extra/widgets/colorwheel/lv_colorwheel.c **** 
 1177              		.loc 1 267 5 view .LVU369
 267:Middlewares/lvgl/src/extra/widgets/colorwheel/lv_colorwheel.c **** 
 1178              		.loc 1 267 26 is_stmt 0 view .LVU370
 1179 00ea 0021     		movs	r1, #0
 1180 00ec 09A8     		add	r0, sp, #36
 1181 00ee FFF7FEFF 		bl	lv_draw_mask_add
 1182              	.LVL118:
 1183 00f2 0590     		str	r0, [sp, #20]
 1184              	.LVL119:
 271:Middlewares/lvgl/src/extra/widgets/colorwheel/lv_colorwheel.c **** #else
 1185              		.loc 1 271 5 is_stmt 1 view .LVU371
 271:Middlewares/lvgl/src/extra/widgets/colorwheel/lv_colorwheel.c **** #else
ARM GAS  /tmp/ccyILfU7.s 			page 60


 1186              		.loc 1 271 16 is_stmt 0 view .LVU372
 1187 00f4 BDF96630 		ldrsh	r3, [sp, #102]
 1188 00f8 0093     		str	r3, [sp]
 1189              	.LVL120:
 276:Middlewares/lvgl/src/extra/widgets/colorwheel/lv_colorwheel.c ****         line_dsc.color = angle_to_mode_color_fast(obj, i);
 1190              		.loc 1 276 5 is_stmt 1 view .LVU373
 250:Middlewares/lvgl/src/extra/widgets/colorwheel/lv_colorwheel.c ****     lv_coord_t cir_w = lv_obj_get_style_arc_width(obj, LV_PART_MAIN);
 1191              		.loc 1 250 14 is_stmt 0 view .LVU374
 1192 00fa 0027     		movs	r7, #0
 276:Middlewares/lvgl/src/extra/widgets/colorwheel/lv_colorwheel.c ****         line_dsc.color = angle_to_mode_color_fast(obj, i);
 1193              		.loc 1 276 11 view .LVU375
 1194 00fc 3E46     		mov	r6, r7
 276:Middlewares/lvgl/src/extra/widgets/colorwheel/lv_colorwheel.c ****         line_dsc.color = angle_to_mode_color_fast(obj, i);
 1195              		.loc 1 276 5 view .LVU376
 1196 00fe 41E0     		b	.L40
 1197              	.LVL121:
 1198              	.L41:
 1199              	.LBB70:
 277:Middlewares/lvgl/src/extra/widgets/colorwheel/lv_colorwheel.c ****         uint16_t angle_trigo = (uint16_t)(a >> 8); /*i * 360 / 256 is the scale to apply, but we ca
 1200              		.loc 1 277 9 is_stmt 1 discriminator 3 view .LVU377
 277:Middlewares/lvgl/src/extra/widgets/colorwheel/lv_colorwheel.c ****         uint16_t angle_trigo = (uint16_t)(a >> 8); /*i * 360 / 256 is the scale to apply, but we ca
 1201              		.loc 1 277 26 is_stmt 0 discriminator 3 view .LVU378
 1202 0100 3146     		mov	r1, r6
 1203 0102 0198     		ldr	r0, [sp, #4]
 1204 0104 FFF7FEFF 		bl	angle_to_mode_color_fast
 1205              	.LVL122:
 1206 0108 ADF86400 		strh	r0, [sp, #100]	@ movhi
 278:Middlewares/lvgl/src/extra/widgets/colorwheel/lv_colorwheel.c **** 
 1207              		.loc 1 278 9 is_stmt 1 discriminator 3 view .LVU379
 278:Middlewares/lvgl/src/extra/widgets/colorwheel/lv_colorwheel.c **** 
 1208              		.loc 1 278 18 is_stmt 0 discriminator 3 view .LVU380
 1209 010c C7F30F25 		ubfx	r5, r7, #8, #16
 1210              	.LVL123:
 280:Middlewares/lvgl/src/extra/widgets/colorwheel/lv_colorwheel.c ****         p[0].x = cx + ((r + cir_w_extra) * lv_trigo_sin(angle_trigo) >> LV_TRIGO_SHIFT);
 1211              		.loc 1 280 9 is_stmt 1 discriminator 3 view .LVU381
 281:Middlewares/lvgl/src/extra/widgets/colorwheel/lv_colorwheel.c ****         p[0].y = cy + ((r + cir_w_extra) * lv_trigo_cos(angle_trigo) >> LV_TRIGO_SHIFT);
 1212              		.loc 1 281 9 discriminator 3 view .LVU382
 281:Middlewares/lvgl/src/extra/widgets/colorwheel/lv_colorwheel.c ****         p[0].y = cy + ((r + cir_w_extra) * lv_trigo_cos(angle_trigo) >> LV_TRIGO_SHIFT);
 1213              		.loc 1 281 27 is_stmt 0 discriminator 3 view .LVU383
 1214 0110 009B     		ldr	r3, [sp]
 1215 0112 09EB0304 		add	r4, r9, r3
 281:Middlewares/lvgl/src/extra/widgets/colorwheel/lv_colorwheel.c ****         p[0].y = cy + ((r + cir_w_extra) * lv_trigo_cos(angle_trigo) >> LV_TRIGO_SHIFT);
 1216              		.loc 1 281 44 discriminator 3 view .LVU384
 1217 0116 47F30F28 		sbfx	r8, r7, #8, #16
 1218 011a 4046     		mov	r0, r8
 1219 011c FFF7FEFF 		bl	lv_trigo_sin
 1220              	.LVL124:
 281:Middlewares/lvgl/src/extra/widgets/colorwheel/lv_colorwheel.c ****         p[0].y = cy + ((r + cir_w_extra) * lv_trigo_cos(angle_trigo) >> LV_TRIGO_SHIFT);
 1221              		.loc 1 281 42 discriminator 3 view .LVU385
 1222 0120 04FB00F0 		mul	r0, r4, r0
 281:Middlewares/lvgl/src/extra/widgets/colorwheel/lv_colorwheel.c ****         p[0].y = cy + ((r + cir_w_extra) * lv_trigo_cos(angle_trigo) >> LV_TRIGO_SHIFT);
 1223              		.loc 1 281 21 discriminator 3 view .LVU386
 1224 0124 0BEBE030 		add	r0, fp, r0, asr #15
 281:Middlewares/lvgl/src/extra/widgets/colorwheel/lv_colorwheel.c ****         p[0].y = cy + ((r + cir_w_extra) * lv_trigo_cos(angle_trigo) >> LV_TRIGO_SHIFT);
 1225              		.loc 1 281 16 discriminator 3 view .LVU387
 1226 0128 ADF81C00 		strh	r0, [sp, #28]	@ movhi
 282:Middlewares/lvgl/src/extra/widgets/colorwheel/lv_colorwheel.c ****         p[1].x = cx + ((r - cir_w - cir_w_extra) * lv_trigo_sin(angle_trigo) >> LV_TRIGO_SHIFT);
ARM GAS  /tmp/ccyILfU7.s 			page 61


 1227              		.loc 1 282 9 is_stmt 1 discriminator 3 view .LVU388
 1228              	.LVL125:
 1229              	.LBB71:
 1230              	.LBI71:
  49:Middlewares/lvgl/src/extra/widgets/colorwheel/../../../../src/misc/lv_math.h **** {
 1231              		.loc 4 49 45 discriminator 3 view .LVU389
 1232              	.LBB72:
 1233              		.loc 4 51 5 discriminator 3 view .LVU390
 1234              		.loc 4 51 31 is_stmt 0 discriminator 3 view .LVU391
 1235 012c 5A35     		adds	r5, r5, #90
 1236              	.LVL126:
 1237              		.loc 4 51 12 discriminator 3 view .LVU392
 1238 012e 2DB2     		sxth	r5, r5
 1239              	.LVL127:
 1240              		.loc 4 51 12 discriminator 3 view .LVU393
 1241 0130 2846     		mov	r0, r5
 1242 0132 FFF7FEFF 		bl	lv_trigo_sin
 1243              	.LVL128:
 1244              		.loc 4 51 12 discriminator 3 view .LVU394
 1245              	.LBE72:
 1246              	.LBE71:
 282:Middlewares/lvgl/src/extra/widgets/colorwheel/lv_colorwheel.c ****         p[1].x = cx + ((r - cir_w - cir_w_extra) * lv_trigo_sin(angle_trigo) >> LV_TRIGO_SHIFT);
 1247              		.loc 1 282 42 discriminator 3 view .LVU395
 1248 0136 00FB04F4 		mul	r4, r0, r4
 282:Middlewares/lvgl/src/extra/widgets/colorwheel/lv_colorwheel.c ****         p[1].x = cx + ((r - cir_w - cir_w_extra) * lv_trigo_sin(angle_trigo) >> LV_TRIGO_SHIFT);
 1249              		.loc 1 282 21 discriminator 3 view .LVU396
 1250 013a 0AEBE434 		add	r4, r10, r4, asr #15
 282:Middlewares/lvgl/src/extra/widgets/colorwheel/lv_colorwheel.c ****         p[1].x = cx + ((r - cir_w - cir_w_extra) * lv_trigo_sin(angle_trigo) >> LV_TRIGO_SHIFT);
 1251              		.loc 1 282 16 discriminator 3 view .LVU397
 1252 013e ADF81E40 		strh	r4, [sp, #30]	@ movhi
 283:Middlewares/lvgl/src/extra/widgets/colorwheel/lv_colorwheel.c ****         p[1].y = cy + ((r - cir_w - cir_w_extra) * lv_trigo_cos(angle_trigo) >> LV_TRIGO_SHIFT);
 1253              		.loc 1 283 9 is_stmt 1 discriminator 3 view .LVU398
 283:Middlewares/lvgl/src/extra/widgets/colorwheel/lv_colorwheel.c ****         p[1].y = cy + ((r - cir_w - cir_w_extra) * lv_trigo_cos(angle_trigo) >> LV_TRIGO_SHIFT);
 1254              		.loc 1 283 27 is_stmt 0 discriminator 3 view .LVU399
 1255 0142 039A     		ldr	r2, [sp, #12]
 1256 0144 A9EB0204 		sub	r4, r9, r2
 283:Middlewares/lvgl/src/extra/widgets/colorwheel/lv_colorwheel.c ****         p[1].y = cy + ((r - cir_w - cir_w_extra) * lv_trigo_cos(angle_trigo) >> LV_TRIGO_SHIFT);
 1257              		.loc 1 283 35 discriminator 3 view .LVU400
 1258 0148 009B     		ldr	r3, [sp]
 1259 014a E41A     		subs	r4, r4, r3
 283:Middlewares/lvgl/src/extra/widgets/colorwheel/lv_colorwheel.c ****         p[1].y = cy + ((r - cir_w - cir_w_extra) * lv_trigo_cos(angle_trigo) >> LV_TRIGO_SHIFT);
 1260              		.loc 1 283 52 discriminator 3 view .LVU401
 1261 014c 4046     		mov	r0, r8
 1262 014e FFF7FEFF 		bl	lv_trigo_sin
 1263              	.LVL129:
 283:Middlewares/lvgl/src/extra/widgets/colorwheel/lv_colorwheel.c ****         p[1].y = cy + ((r - cir_w - cir_w_extra) * lv_trigo_cos(angle_trigo) >> LV_TRIGO_SHIFT);
 1264              		.loc 1 283 50 discriminator 3 view .LVU402
 1265 0152 04FB00F0 		mul	r0, r4, r0
 283:Middlewares/lvgl/src/extra/widgets/colorwheel/lv_colorwheel.c ****         p[1].y = cy + ((r - cir_w - cir_w_extra) * lv_trigo_cos(angle_trigo) >> LV_TRIGO_SHIFT);
 1266              		.loc 1 283 21 discriminator 3 view .LVU403
 1267 0156 0BEBE030 		add	r0, fp, r0, asr #15
 283:Middlewares/lvgl/src/extra/widgets/colorwheel/lv_colorwheel.c ****         p[1].y = cy + ((r - cir_w - cir_w_extra) * lv_trigo_cos(angle_trigo) >> LV_TRIGO_SHIFT);
 1268              		.loc 1 283 16 discriminator 3 view .LVU404
 1269 015a ADF82000 		strh	r0, [sp, #32]	@ movhi
 284:Middlewares/lvgl/src/extra/widgets/colorwheel/lv_colorwheel.c **** 
 1270              		.loc 1 284 9 is_stmt 1 discriminator 3 view .LVU405
 1271              	.LVL130:
ARM GAS  /tmp/ccyILfU7.s 			page 62


 1272              	.LBB73:
 1273              	.LBI73:
  49:Middlewares/lvgl/src/extra/widgets/colorwheel/../../../../src/misc/lv_math.h **** {
 1274              		.loc 4 49 45 discriminator 3 view .LVU406
 1275              	.LBB74:
 1276              		.loc 4 51 5 discriminator 3 view .LVU407
 1277              		.loc 4 51 12 is_stmt 0 discriminator 3 view .LVU408
 1278 015e 2846     		mov	r0, r5
 1279 0160 FFF7FEFF 		bl	lv_trigo_sin
 1280              	.LVL131:
 1281              		.loc 4 51 12 discriminator 3 view .LVU409
 1282              	.LBE74:
 1283              	.LBE73:
 284:Middlewares/lvgl/src/extra/widgets/colorwheel/lv_colorwheel.c **** 
 1284              		.loc 1 284 50 discriminator 3 view .LVU410
 1285 0164 00FB04F4 		mul	r4, r0, r4
 284:Middlewares/lvgl/src/extra/widgets/colorwheel/lv_colorwheel.c **** 
 1286              		.loc 1 284 21 discriminator 3 view .LVU411
 1287 0168 0AEBE434 		add	r4, r10, r4, asr #15
 284:Middlewares/lvgl/src/extra/widgets/colorwheel/lv_colorwheel.c **** 
 1288              		.loc 1 284 16 discriminator 3 view .LVU412
 1289 016c ADF82240 		strh	r4, [sp, #34]	@ movhi
 286:Middlewares/lvgl/src/extra/widgets/colorwheel/lv_colorwheel.c ****     }
 1290              		.loc 1 286 9 is_stmt 1 discriminator 3 view .LVU413
 1291 0170 19AB     		add	r3, sp, #100
 1292 0172 029A     		ldr	r2, [sp, #8]
 1293 0174 08A9     		add	r1, sp, #32
 1294 0176 07A8     		add	r0, sp, #28
 1295 0178 FFF7FEFF 		bl	lv_draw_line
 1296              	.LVL132:
 1297              	.LBE70:
 276:Middlewares/lvgl/src/extra/widgets/colorwheel/lv_colorwheel.c ****         line_dsc.color = angle_to_mode_color_fast(obj, i);
 1298              		.loc 1 276 26 discriminator 3 view .LVU414
 276:Middlewares/lvgl/src/extra/widgets/colorwheel/lv_colorwheel.c ****         line_dsc.color = angle_to_mode_color_fast(obj, i);
 1299              		.loc 1 276 28 is_stmt 0 discriminator 3 view .LVU415
 1300 017c 0336     		adds	r6, r6, #3
 1301              	.LVL133:
 276:Middlewares/lvgl/src/extra/widgets/colorwheel/lv_colorwheel.c ****         line_dsc.color = angle_to_mode_color_fast(obj, i);
 1302              		.loc 1 276 28 discriminator 3 view .LVU416
 1303 017e B6B2     		uxth	r6, r6
 1304              	.LVL134:
 276:Middlewares/lvgl/src/extra/widgets/colorwheel/lv_colorwheel.c ****         line_dsc.color = angle_to_mode_color_fast(obj, i);
 1305              		.loc 1 276 52 discriminator 3 view .LVU417
 1306 0180 07F58767 		add	r7, r7, #1080
 1307              	.LVL135:
 1308              	.L40:
 276:Middlewares/lvgl/src/extra/widgets/colorwheel/lv_colorwheel.c ****         line_dsc.color = angle_to_mode_color_fast(obj, i);
 1309              		.loc 1 276 16 is_stmt 1 discriminator 1 view .LVU418
 276:Middlewares/lvgl/src/extra/widgets/colorwheel/lv_colorwheel.c ****         line_dsc.color = angle_to_mode_color_fast(obj, i);
 1310              		.loc 1 276 5 is_stmt 0 discriminator 1 view .LVU419
 1311 0184 B6F5807F 		cmp	r6, #256
 1312 0188 BAD9     		bls	.L41
 290:Middlewares/lvgl/src/extra/widgets/colorwheel/lv_colorwheel.c ****     lv_draw_mask_remove_id(mask_in_id);
 1313              		.loc 1 290 5 is_stmt 1 view .LVU420
 1314 018a 0498     		ldr	r0, [sp, #16]
 1315 018c FFF7FEFF 		bl	lv_draw_mask_remove_id
 1316              	.LVL136:
ARM GAS  /tmp/ccyILfU7.s 			page 63


 291:Middlewares/lvgl/src/extra/widgets/colorwheel/lv_colorwheel.c **** #endif
 1317              		.loc 1 291 5 view .LVU421
 1318 0190 0598     		ldr	r0, [sp, #20]
 1319 0192 FFF7FEFF 		bl	lv_draw_mask_remove_id
 1320              	.LVL137:
 293:Middlewares/lvgl/src/extra/widgets/colorwheel/lv_colorwheel.c **** 
 1321              		.loc 1 293 1 is_stmt 0 view .LVU422
 1322 0196 1DB0     		add	sp, sp, #116
 1323              	.LCFI13:
 1324              		.cfi_def_cfa_offset 36
 1325              	.LVL138:
 293:Middlewares/lvgl/src/extra/widgets/colorwheel/lv_colorwheel.c **** 
 1326              		.loc 1 293 1 view .LVU423
 1327              		@ sp needed
 1328 0198 BDE8F08F 		pop	{r4, r5, r6, r7, r8, r9, r10, fp, pc}
 1329              	.LVL139:
 1330              	.L44:
 293:Middlewares/lvgl/src/extra/widgets/colorwheel/lv_colorwheel.c **** 
 1331              		.loc 1 293 1 view .LVU424
 1332              		.align	2
 1333              	.L43:
 1334 019c 53A45C7B 		.word	2069668947
 1335              		.cfi_endproc
 1336              	.LFE194:
 1338              		.section	.text.lv_colorwheel_constructor,"ax",%progbits
 1339              		.align	1
 1340              		.syntax unified
 1341              		.thumb
 1342              		.thumb_func
 1343              		.fpu fpv4-sp-d16
 1345              	lv_colorwheel_constructor:
 1346              	.LVL140:
 1347              	.LFB193:
 216:Middlewares/lvgl/src/extra/widgets/colorwheel/lv_colorwheel.c ****     LV_UNUSED(class_p);
 1348              		.loc 1 216 1 is_stmt 1 view -0
 1349              		.cfi_startproc
 1350              		@ args = 0, pretend = 0, frame = 0
 1351              		@ frame_needed = 0, uses_anonymous_args = 0
 216:Middlewares/lvgl/src/extra/widgets/colorwheel/lv_colorwheel.c ****     LV_UNUSED(class_p);
 1352              		.loc 1 216 1 is_stmt 0 view .LVU426
 1353 0000 10B5     		push	{r4, lr}
 1354              	.LCFI14:
 1355              		.cfi_def_cfa_offset 8
 1356              		.cfi_offset 4, -8
 1357              		.cfi_offset 14, -4
 1358 0002 0C46     		mov	r4, r1
 217:Middlewares/lvgl/src/extra/widgets/colorwheel/lv_colorwheel.c ****     lv_colorwheel_t * colorwheel = (lv_colorwheel_t *)obj;
 1359              		.loc 1 217 5 is_stmt 1 view .LVU427
 218:Middlewares/lvgl/src/extra/widgets/colorwheel/lv_colorwheel.c ****     colorwheel->hsv.h = 0;
 1360              		.loc 1 218 5 view .LVU428
 1361              	.LVL141:
 219:Middlewares/lvgl/src/extra/widgets/colorwheel/lv_colorwheel.c ****     colorwheel->hsv.s = 100;
 1362              		.loc 1 219 5 view .LVU429
 219:Middlewares/lvgl/src/extra/widgets/colorwheel/lv_colorwheel.c ****     colorwheel->hsv.s = 100;
 1363              		.loc 1 219 23 is_stmt 0 view .LVU430
 1364 0004 0023     		movs	r3, #0
 1365 0006 8B84     		strh	r3, [r1, #36]	@ movhi
ARM GAS  /tmp/ccyILfU7.s 			page 64


 220:Middlewares/lvgl/src/extra/widgets/colorwheel/lv_colorwheel.c ****     colorwheel->hsv.v = 100;
 1366              		.loc 1 220 5 is_stmt 1 view .LVU431
 220:Middlewares/lvgl/src/extra/widgets/colorwheel/lv_colorwheel.c ****     colorwheel->hsv.v = 100;
 1367              		.loc 1 220 23 is_stmt 0 view .LVU432
 1368 0008 6422     		movs	r2, #100
 1369 000a 81F82620 		strb	r2, [r1, #38]
 221:Middlewares/lvgl/src/extra/widgets/colorwheel/lv_colorwheel.c ****     colorwheel->mode = LV_COLORWHEEL_MODE_HUE;
 1370              		.loc 1 221 5 is_stmt 1 view .LVU433
 221:Middlewares/lvgl/src/extra/widgets/colorwheel/lv_colorwheel.c ****     colorwheel->mode = LV_COLORWHEEL_MODE_HUE;
 1371              		.loc 1 221 23 is_stmt 0 view .LVU434
 1372 000e 81F82720 		strb	r2, [r1, #39]
 222:Middlewares/lvgl/src/extra/widgets/colorwheel/lv_colorwheel.c ****     colorwheel->mode_fixed = 0;
 1373              		.loc 1 222 5 is_stmt 1 view .LVU435
 222:Middlewares/lvgl/src/extra/widgets/colorwheel/lv_colorwheel.c ****     colorwheel->mode_fixed = 0;
 1374              		.loc 1 222 22 is_stmt 0 view .LVU436
 1375 0012 91F83C20 		ldrb	r2, [r1, #60]	@ zero_extendqisi2
 1376 0016 63F30102 		bfi	r2, r3, #0, #2
 1377 001a 81F83C20 		strb	r2, [r1, #60]
 223:Middlewares/lvgl/src/extra/widgets/colorwheel/lv_colorwheel.c ****     colorwheel->last_click_time = 0;
 1378              		.loc 1 223 5 is_stmt 1 view .LVU437
 223:Middlewares/lvgl/src/extra/widgets/colorwheel/lv_colorwheel.c ****     colorwheel->last_click_time = 0;
 1379              		.loc 1 223 28 is_stmt 0 view .LVU438
 1380 001e D2B2     		uxtb	r2, r2
 1381 0020 63F38202 		bfi	r2, r3, #2, #1
 1382 0024 81F83C20 		strb	r2, [r1, #60]
 224:Middlewares/lvgl/src/extra/widgets/colorwheel/lv_colorwheel.c ****     colorwheel->last_change_time = 0;
 1383              		.loc 1 224 5 is_stmt 1 view .LVU439
 224:Middlewares/lvgl/src/extra/widgets/colorwheel/lv_colorwheel.c ****     colorwheel->last_change_time = 0;
 1384              		.loc 1 224 33 is_stmt 0 view .LVU440
 1385 0028 0B63     		str	r3, [r1, #48]
 225:Middlewares/lvgl/src/extra/widgets/colorwheel/lv_colorwheel.c ****     colorwheel->knob.recolor = create_knob_recolor;
 1386              		.loc 1 225 5 is_stmt 1 view .LVU441
 225:Middlewares/lvgl/src/extra/widgets/colorwheel/lv_colorwheel.c ****     colorwheel->knob.recolor = create_knob_recolor;
 1387              		.loc 1 225 34 is_stmt 0 view .LVU442
 1388 002a 4B63     		str	r3, [r1, #52]
 226:Middlewares/lvgl/src/extra/widgets/colorwheel/lv_colorwheel.c **** 
 1389              		.loc 1 226 5 is_stmt 1 view .LVU443
 226:Middlewares/lvgl/src/extra/widgets/colorwheel/lv_colorwheel.c **** 
 1390              		.loc 1 226 30 is_stmt 0 view .LVU444
 1391 002c 91F82C30 		ldrb	r3, [r1, #44]	@ zero_extendqisi2
 1392 0030 094A     		ldr	r2, .L47
 1393 0032 1278     		ldrb	r2, [r2]	@ zero_extendqisi2
 1394 0034 62F30003 		bfi	r3, r2, #0, #1
 1395 0038 81F82C30 		strb	r3, [r1, #44]
 228:Middlewares/lvgl/src/extra/widgets/colorwheel/lv_colorwheel.c ****     lv_obj_clear_flag(obj, LV_OBJ_FLAG_SCROLL_CHAIN);
 1396              		.loc 1 228 5 is_stmt 1 view .LVU445
 1397 003c 4FF48041 		mov	r1, #16384
 1398              	.LVL142:
 228:Middlewares/lvgl/src/extra/widgets/colorwheel/lv_colorwheel.c ****     lv_obj_clear_flag(obj, LV_OBJ_FLAG_SCROLL_CHAIN);
 1399              		.loc 1 228 5 is_stmt 0 view .LVU446
 1400 0040 2046     		mov	r0, r4
 1401              	.LVL143:
 228:Middlewares/lvgl/src/extra/widgets/colorwheel/lv_colorwheel.c ****     lv_obj_clear_flag(obj, LV_OBJ_FLAG_SCROLL_CHAIN);
 1402              		.loc 1 228 5 view .LVU447
 1403 0042 FFF7FEFF 		bl	lv_obj_add_flag
 1404              	.LVL144:
 229:Middlewares/lvgl/src/extra/widgets/colorwheel/lv_colorwheel.c ****     refr_knob_pos(obj);
ARM GAS  /tmp/ccyILfU7.s 			page 65


 1405              		.loc 1 229 5 is_stmt 1 view .LVU448
 1406 0046 4FF48071 		mov	r1, #256
 1407 004a 2046     		mov	r0, r4
 1408 004c FFF7FEFF 		bl	lv_obj_clear_flag
 1409              	.LVL145:
 230:Middlewares/lvgl/src/extra/widgets/colorwheel/lv_colorwheel.c **** }
 1410              		.loc 1 230 5 view .LVU449
 1411 0050 2046     		mov	r0, r4
 1412 0052 FFF7FEFF 		bl	refr_knob_pos
 1413              	.LVL146:
 231:Middlewares/lvgl/src/extra/widgets/colorwheel/lv_colorwheel.c **** 
 1414              		.loc 1 231 1 is_stmt 0 view .LVU450
 1415 0056 10BD     		pop	{r4, pc}
 1416              	.LVL147:
 1417              	.L48:
 231:Middlewares/lvgl/src/extra/widgets/colorwheel/lv_colorwheel.c **** 
 1418              		.loc 1 231 1 view .LVU451
 1419              		.align	2
 1420              	.L47:
 1421 0058 00000000 		.word	.LANCHOR4
 1422              		.cfi_endproc
 1423              	.LFE193:
 1425              		.section	.text.lv_colorwheel_create,"ax",%progbits
 1426              		.align	1
 1427              		.global	lv_colorwheel_create
 1428              		.syntax unified
 1429              		.thumb
 1430              		.thumb_func
 1431              		.fpu fpv4-sp-d16
 1433              	lv_colorwheel_create:
 1434              	.LVL148:
 1435              	.LFB184:
  76:Middlewares/lvgl/src/extra/widgets/colorwheel/lv_colorwheel.c ****     LV_LOG_INFO("begin")
 1436              		.loc 1 76 1 is_stmt 1 view -0
 1437              		.cfi_startproc
 1438              		@ args = 0, pretend = 0, frame = 0
 1439              		@ frame_needed = 0, uses_anonymous_args = 0
  76:Middlewares/lvgl/src/extra/widgets/colorwheel/lv_colorwheel.c ****     LV_LOG_INFO("begin")
 1440              		.loc 1 76 1 is_stmt 0 view .LVU453
 1441 0000 10B5     		push	{r4, lr}
 1442              	.LCFI15:
 1443              		.cfi_def_cfa_offset 8
 1444              		.cfi_offset 4, -8
 1445              		.cfi_offset 14, -4
  78:Middlewares/lvgl/src/extra/widgets/colorwheel/lv_colorwheel.c **** 
 1446              		.loc 1 78 5 is_stmt 1 view .LVU454
  78:Middlewares/lvgl/src/extra/widgets/colorwheel/lv_colorwheel.c **** 
 1447              		.loc 1 78 25 is_stmt 0 view .LVU455
 1448 0002 054B     		ldr	r3, .L51
 1449 0004 1970     		strb	r1, [r3]
  80:Middlewares/lvgl/src/extra/widgets/colorwheel/lv_colorwheel.c ****     lv_obj_class_init_obj(obj);
 1450              		.loc 1 80 5 is_stmt 1 view .LVU456
  80:Middlewares/lvgl/src/extra/widgets/colorwheel/lv_colorwheel.c ****     lv_obj_class_init_obj(obj);
 1451              		.loc 1 80 22 is_stmt 0 view .LVU457
 1452 0006 0146     		mov	r1, r0
 1453              	.LVL149:
  80:Middlewares/lvgl/src/extra/widgets/colorwheel/lv_colorwheel.c ****     lv_obj_class_init_obj(obj);
ARM GAS  /tmp/ccyILfU7.s 			page 66


 1454              		.loc 1 80 22 view .LVU458
 1455 0008 0448     		ldr	r0, .L51+4
 1456              	.LVL150:
  80:Middlewares/lvgl/src/extra/widgets/colorwheel/lv_colorwheel.c ****     lv_obj_class_init_obj(obj);
 1457              		.loc 1 80 22 view .LVU459
 1458 000a FFF7FEFF 		bl	lv_obj_class_create_obj
 1459              	.LVL151:
  80:Middlewares/lvgl/src/extra/widgets/colorwheel/lv_colorwheel.c ****     lv_obj_class_init_obj(obj);
 1460              		.loc 1 80 22 view .LVU460
 1461 000e 0446     		mov	r4, r0
 1462              	.LVL152:
  81:Middlewares/lvgl/src/extra/widgets/colorwheel/lv_colorwheel.c ****     return obj;
 1463              		.loc 1 81 5 is_stmt 1 view .LVU461
 1464 0010 FFF7FEFF 		bl	lv_obj_class_init_obj
 1465              	.LVL153:
  82:Middlewares/lvgl/src/extra/widgets/colorwheel/lv_colorwheel.c **** }
 1466              		.loc 1 82 5 view .LVU462
  83:Middlewares/lvgl/src/extra/widgets/colorwheel/lv_colorwheel.c **** 
 1467              		.loc 1 83 1 is_stmt 0 view .LVU463
 1468 0014 2046     		mov	r0, r4
 1469 0016 10BD     		pop	{r4, pc}
 1470              	.LVL154:
 1471              	.L52:
  83:Middlewares/lvgl/src/extra/widgets/colorwheel/lv_colorwheel.c **** 
 1472              		.loc 1 83 1 view .LVU464
 1473              		.align	2
 1474              	.L51:
 1475 0018 00000000 		.word	.LANCHOR4
 1476 001c 00000000 		.word	.LANCHOR5
 1477              		.cfi_endproc
 1478              	.LFE184:
 1480              		.section	.text.lv_colorwheel_set_hsv,"ax",%progbits
 1481              		.align	1
 1482              		.global	lv_colorwheel_set_hsv
 1483              		.syntax unified
 1484              		.thumb
 1485              		.thumb_func
 1486              		.fpu fpv4-sp-d16
 1488              	lv_colorwheel_set_hsv:
 1489              	.LVL155:
 1490              	.LFB185:
  96:Middlewares/lvgl/src/extra/widgets/colorwheel/lv_colorwheel.c ****     if(hsv.h > 360) hsv.h %= 360;
 1491              		.loc 1 96 1 is_stmt 1 view -0
 1492              		.cfi_startproc
 1493              		@ args = 0, pretend = 0, frame = 8
 1494              		@ frame_needed = 0, uses_anonymous_args = 0
  96:Middlewares/lvgl/src/extra/widgets/colorwheel/lv_colorwheel.c ****     if(hsv.h > 360) hsv.h %= 360;
 1495              		.loc 1 96 1 is_stmt 0 view .LVU466
 1496 0000 10B5     		push	{r4, lr}
 1497              	.LCFI16:
 1498              		.cfi_def_cfa_offset 8
 1499              		.cfi_offset 4, -8
 1500              		.cfi_offset 14, -4
 1501 0002 82B0     		sub	sp, sp, #8
 1502              	.LCFI17:
 1503              		.cfi_def_cfa_offset 16
 1504 0004 0446     		mov	r4, r0
ARM GAS  /tmp/ccyILfU7.s 			page 67


 1505 0006 0191     		str	r1, [sp, #4]
  97:Middlewares/lvgl/src/extra/widgets/colorwheel/lv_colorwheel.c ****     if(hsv.s > 100) hsv.s = 100;
 1506              		.loc 1 97 5 is_stmt 1 view .LVU467
  97:Middlewares/lvgl/src/extra/widgets/colorwheel/lv_colorwheel.c ****     if(hsv.s > 100) hsv.s = 100;
 1507              		.loc 1 97 11 is_stmt 0 view .LVU468
 1508 0008 BDF80430 		ldrh	r3, [sp, #4]
  97:Middlewares/lvgl/src/extra/widgets/colorwheel/lv_colorwheel.c ****     if(hsv.s > 100) hsv.s = 100;
 1509              		.loc 1 97 7 view .LVU469
 1510 000c B3F5B47F 		cmp	r3, #360
 1511 0010 0AD9     		bls	.L54
  97:Middlewares/lvgl/src/extra/widgets/colorwheel/lv_colorwheel.c ****     if(hsv.s > 100) hsv.s = 100;
 1512              		.loc 1 97 21 is_stmt 1 discriminator 1 view .LVU470
  97:Middlewares/lvgl/src/extra/widgets/colorwheel/lv_colorwheel.c ****     if(hsv.s > 100) hsv.s = 100;
 1513              		.loc 1 97 27 is_stmt 0 discriminator 1 view .LVU471
 1514 0012 DA08     		lsrs	r2, r3, #3
 1515 0014 1749     		ldr	r1, .L61
 1516 0016 A1FB0212 		umull	r1, r2, r1, r2
 1517 001a 9208     		lsrs	r2, r2, #2
 1518 001c 4FF4B471 		mov	r1, #360
 1519 0020 01FB1233 		mls	r3, r1, r2, r3
 1520 0024 ADF80430 		strh	r3, [sp, #4]	@ movhi
 1521              	.L54:
  98:Middlewares/lvgl/src/extra/widgets/colorwheel/lv_colorwheel.c ****     if(hsv.v > 100) hsv.v = 100;
 1522              		.loc 1 98 5 is_stmt 1 view .LVU472
  98:Middlewares/lvgl/src/extra/widgets/colorwheel/lv_colorwheel.c ****     if(hsv.v > 100) hsv.v = 100;
 1523              		.loc 1 98 11 is_stmt 0 view .LVU473
 1524 0028 9DF80630 		ldrb	r3, [sp, #6]	@ zero_extendqisi2
  98:Middlewares/lvgl/src/extra/widgets/colorwheel/lv_colorwheel.c ****     if(hsv.v > 100) hsv.v = 100;
 1525              		.loc 1 98 7 view .LVU474
 1526 002c 642B     		cmp	r3, #100
 1527 002e 02D9     		bls	.L55
  98:Middlewares/lvgl/src/extra/widgets/colorwheel/lv_colorwheel.c ****     if(hsv.v > 100) hsv.v = 100;
 1528              		.loc 1 98 21 is_stmt 1 discriminator 1 view .LVU475
  98:Middlewares/lvgl/src/extra/widgets/colorwheel/lv_colorwheel.c ****     if(hsv.v > 100) hsv.v = 100;
 1529              		.loc 1 98 27 is_stmt 0 discriminator 1 view .LVU476
 1530 0030 6423     		movs	r3, #100
 1531 0032 8DF80630 		strb	r3, [sp, #6]
 1532              	.L55:
  99:Middlewares/lvgl/src/extra/widgets/colorwheel/lv_colorwheel.c **** 
 1533              		.loc 1 99 5 is_stmt 1 view .LVU477
  99:Middlewares/lvgl/src/extra/widgets/colorwheel/lv_colorwheel.c **** 
 1534              		.loc 1 99 11 is_stmt 0 view .LVU478
 1535 0036 9DF80730 		ldrb	r3, [sp, #7]	@ zero_extendqisi2
  99:Middlewares/lvgl/src/extra/widgets/colorwheel/lv_colorwheel.c **** 
 1536              		.loc 1 99 7 view .LVU479
 1537 003a 642B     		cmp	r3, #100
 1538 003c 02D9     		bls	.L56
  99:Middlewares/lvgl/src/extra/widgets/colorwheel/lv_colorwheel.c **** 
 1539              		.loc 1 99 21 is_stmt 1 discriminator 1 view .LVU480
  99:Middlewares/lvgl/src/extra/widgets/colorwheel/lv_colorwheel.c **** 
 1540              		.loc 1 99 27 is_stmt 0 discriminator 1 view .LVU481
 1541 003e 6423     		movs	r3, #100
 1542 0040 8DF80730 		strb	r3, [sp, #7]
 1543              	.L56:
 101:Middlewares/lvgl/src/extra/widgets/colorwheel/lv_colorwheel.c **** 
 1544              		.loc 1 101 5 is_stmt 1 view .LVU482
 1545              	.LVL156:
ARM GAS  /tmp/ccyILfU7.s 			page 68


 103:Middlewares/lvgl/src/extra/widgets/colorwheel/lv_colorwheel.c **** 
 1546              		.loc 1 103 5 view .LVU483
 103:Middlewares/lvgl/src/extra/widgets/colorwheel/lv_colorwheel.c **** 
 1547              		.loc 1 103 23 is_stmt 0 view .LVU484
 1548 0044 A28C     		ldrh	r2, [r4, #36]
 103:Middlewares/lvgl/src/extra/widgets/colorwheel/lv_colorwheel.c **** 
 1549              		.loc 1 103 32 view .LVU485
 1550 0046 BDF80430 		ldrh	r3, [sp, #4]
 103:Middlewares/lvgl/src/extra/widgets/colorwheel/lv_colorwheel.c **** 
 1551              		.loc 1 103 7 view .LVU486
 1552 004a 9A42     		cmp	r2, r3
 1553 004c 04D1     		bne	.L57
 103:Middlewares/lvgl/src/extra/widgets/colorwheel/lv_colorwheel.c **** 
 1554              		.loc 1 103 65 discriminator 1 view .LVU487
 1555 004e E28C     		ldrh	r2, [r4, #38]
 1556 0050 BDF80630 		ldrh	r3, [sp, #6]
 1557 0054 9A42     		cmp	r2, r3
 1558 0056 0AD0     		beq	.L59
 1559              	.L57:
 105:Middlewares/lvgl/src/extra/widgets/colorwheel/lv_colorwheel.c **** 
 1560              		.loc 1 105 5 is_stmt 1 view .LVU488
 105:Middlewares/lvgl/src/extra/widgets/colorwheel/lv_colorwheel.c **** 
 1561              		.loc 1 105 21 is_stmt 0 view .LVU489
 1562 0058 019B     		ldr	r3, [sp, #4]
 1563 005a 6362     		str	r3, [r4, #36]
 107:Middlewares/lvgl/src/extra/widgets/colorwheel/lv_colorwheel.c **** 
 1564              		.loc 1 107 5 is_stmt 1 view .LVU490
 1565 005c 2046     		mov	r0, r4
 1566              	.LVL157:
 107:Middlewares/lvgl/src/extra/widgets/colorwheel/lv_colorwheel.c **** 
 1567              		.loc 1 107 5 is_stmt 0 view .LVU491
 1568 005e FFF7FEFF 		bl	refr_knob_pos
 1569              	.LVL158:
 109:Middlewares/lvgl/src/extra/widgets/colorwheel/lv_colorwheel.c **** 
 1570              		.loc 1 109 5 is_stmt 1 view .LVU492
 1571 0062 2046     		mov	r0, r4
 1572 0064 FFF7FEFF 		bl	lv_obj_invalidate
 1573              	.LVL159:
 111:Middlewares/lvgl/src/extra/widgets/colorwheel/lv_colorwheel.c **** }
 1574              		.loc 1 111 5 view .LVU493
 111:Middlewares/lvgl/src/extra/widgets/colorwheel/lv_colorwheel.c **** }
 1575              		.loc 1 111 12 is_stmt 0 view .LVU494
 1576 0068 0120     		movs	r0, #1
 1577              	.L58:
 112:Middlewares/lvgl/src/extra/widgets/colorwheel/lv_colorwheel.c **** 
 1578              		.loc 1 112 1 view .LVU495
 1579 006a 02B0     		add	sp, sp, #8
 1580              	.LCFI18:
 1581              		.cfi_remember_state
 1582              		.cfi_def_cfa_offset 8
 1583              		@ sp needed
 1584 006c 10BD     		pop	{r4, pc}
 1585              	.LVL160:
 1586              	.L59:
 1587              	.LCFI19:
 1588              		.cfi_restore_state
 103:Middlewares/lvgl/src/extra/widgets/colorwheel/lv_colorwheel.c **** 
ARM GAS  /tmp/ccyILfU7.s 			page 69


 1589              		.loc 1 103 103 view .LVU496
 1590 006e 0020     		movs	r0, #0
 1591              	.LVL161:
 103:Middlewares/lvgl/src/extra/widgets/colorwheel/lv_colorwheel.c **** 
 1592              		.loc 1 103 103 view .LVU497
 1593 0070 FBE7     		b	.L58
 1594              	.L62:
 1595 0072 00BF     		.align	2
 1596              	.L61:
 1597 0074 176CC116 		.word	381774871
 1598              		.cfi_endproc
 1599              	.LFE185:
 1601              		.section	.text.double_click_reset,"ax",%progbits
 1602              		.align	1
 1603              		.syntax unified
 1604              		.thumb
 1605              		.thumb_func
 1606              		.fpu fpv4-sp-d16
 1608              	double_click_reset:
 1609              	.LVL162:
 1610              	.LFB201:
 557:Middlewares/lvgl/src/extra/widgets/colorwheel/lv_colorwheel.c ****     lv_colorwheel_t * colorwheel = (lv_colorwheel_t *)obj;
 1611              		.loc 1 557 1 is_stmt 1 view -0
 1612              		.cfi_startproc
 1613              		@ args = 0, pretend = 0, frame = 8
 1614              		@ frame_needed = 0, uses_anonymous_args = 0
 557:Middlewares/lvgl/src/extra/widgets/colorwheel/lv_colorwheel.c ****     lv_colorwheel_t * colorwheel = (lv_colorwheel_t *)obj;
 1615              		.loc 1 557 1 is_stmt 0 view .LVU499
 1616 0000 30B5     		push	{r4, r5, lr}
 1617              	.LCFI20:
 1618              		.cfi_def_cfa_offset 12
 1619              		.cfi_offset 4, -12
 1620              		.cfi_offset 5, -8
 1621              		.cfi_offset 14, -4
 1622 0002 83B0     		sub	sp, sp, #12
 1623              	.LCFI21:
 1624              		.cfi_def_cfa_offset 24
 1625 0004 0446     		mov	r4, r0
 558:Middlewares/lvgl/src/extra/widgets/colorwheel/lv_colorwheel.c ****     lv_indev_t * indev = lv_indev_get_act();
 1626              		.loc 1 558 5 is_stmt 1 view .LVU500
 1627              	.LVL163:
 559:Middlewares/lvgl/src/extra/widgets/colorwheel/lv_colorwheel.c ****     /*Double clicked? Use long press time as double click time out*/
 1628              		.loc 1 559 5 view .LVU501
 559:Middlewares/lvgl/src/extra/widgets/colorwheel/lv_colorwheel.c ****     /*Double clicked? Use long press time as double click time out*/
 1629              		.loc 1 559 26 is_stmt 0 view .LVU502
 1630 0006 FFF7FEFF 		bl	lv_indev_get_act
 1631              	.LVL164:
 559:Middlewares/lvgl/src/extra/widgets/colorwheel/lv_colorwheel.c ****     /*Double clicked? Use long press time as double click time out*/
 1632              		.loc 1 559 26 view .LVU503
 1633 000a 0546     		mov	r5, r0
 1634              	.LVL165:
 561:Middlewares/lvgl/src/extra/widgets/colorwheel/lv_colorwheel.c ****         lv_color_hsv_t hsv_cur;
 1635              		.loc 1 561 5 is_stmt 1 view .LVU504
 561:Middlewares/lvgl/src/extra/widgets/colorwheel/lv_colorwheel.c ****         lv_color_hsv_t hsv_cur;
 1636              		.loc 1 561 8 is_stmt 0 view .LVU505
 1637 000c 206B     		ldr	r0, [r4, #48]
 1638              	.LVL166:
ARM GAS  /tmp/ccyILfU7.s 			page 70


 561:Middlewares/lvgl/src/extra/widgets/colorwheel/lv_colorwheel.c ****         lv_color_hsv_t hsv_cur;
 1639              		.loc 1 561 8 view .LVU506
 1640 000e FFF7FEFF 		bl	lv_tick_elaps
 1641              	.LVL167:
 561:Middlewares/lvgl/src/extra/widgets/colorwheel/lv_colorwheel.c ****         lv_color_hsv_t hsv_cur;
 1642              		.loc 1 561 58 view .LVU507
 1643 0012 2B68     		ldr	r3, [r5]
 561:Middlewares/lvgl/src/extra/widgets/colorwheel/lv_colorwheel.c ****         lv_color_hsv_t hsv_cur;
 1644              		.loc 1 561 66 view .LVU508
 1645 0014 9B8B     		ldrh	r3, [r3, #28]
 561:Middlewares/lvgl/src/extra/widgets/colorwheel/lv_colorwheel.c ****         lv_color_hsv_t hsv_cur;
 1646              		.loc 1 561 7 view .LVU509
 1647 0016 9842     		cmp	r0, r3
 1648 0018 12D2     		bcs	.L64
 1649              	.LBB75:
 562:Middlewares/lvgl/src/extra/widgets/colorwheel/lv_colorwheel.c ****         hsv_cur = colorwheel->hsv;
 1650              		.loc 1 562 9 is_stmt 1 view .LVU510
 563:Middlewares/lvgl/src/extra/widgets/colorwheel/lv_colorwheel.c **** 
 1651              		.loc 1 563 9 view .LVU511
 563:Middlewares/lvgl/src/extra/widgets/colorwheel/lv_colorwheel.c **** 
 1652              		.loc 1 563 17 is_stmt 0 view .LVU512
 1653 001a 636A     		ldr	r3, [r4, #36]
 1654 001c 0193     		str	r3, [sp, #4]
 565:Middlewares/lvgl/src/extra/widgets/colorwheel/lv_colorwheel.c ****             case LV_COLORWHEEL_MODE_HUE:
 1655              		.loc 1 565 9 is_stmt 1 view .LVU513
 565:Middlewares/lvgl/src/extra/widgets/colorwheel/lv_colorwheel.c ****             case LV_COLORWHEEL_MODE_HUE:
 1656              		.loc 1 565 26 is_stmt 0 view .LVU514
 1657 001e 94F83C30 		ldrb	r3, [r4, #60]	@ zero_extendqisi2
 1658 0022 03F00303 		and	r3, r3, #3
 565:Middlewares/lvgl/src/extra/widgets/colorwheel/lv_colorwheel.c ****             case LV_COLORWHEEL_MODE_HUE:
 1659              		.loc 1 565 9 view .LVU515
 1660 0026 012B     		cmp	r3, #1
 1661 0028 13D0     		beq	.L65
 1662 002a 022B     		cmp	r3, #2
 1663 002c 15D0     		beq	.L66
 1664 002e 6BB1     		cbz	r3, .L71
 1665              	.L67:
 577:Middlewares/lvgl/src/extra/widgets/colorwheel/lv_colorwheel.c **** 
 1666              		.loc 1 577 9 is_stmt 1 view .LVU516
 1667 0030 2846     		mov	r0, r5
 1668 0032 FFF7FEFF 		bl	lv_indev_wait_release
 1669              	.LVL168:
 579:Middlewares/lvgl/src/extra/widgets/colorwheel/lv_colorwheel.c ****             lv_res_t res = lv_event_send(obj, LV_EVENT_VALUE_CHANGED, NULL);
 1670              		.loc 1 579 9 view .LVU517
 579:Middlewares/lvgl/src/extra/widgets/colorwheel/lv_colorwheel.c ****             lv_res_t res = lv_event_send(obj, LV_EVENT_VALUE_CHANGED, NULL);
 1671              		.loc 1 579 12 is_stmt 0 view .LVU518
 1672 0036 0199     		ldr	r1, [sp, #4]
 1673 0038 2046     		mov	r0, r4
 1674 003a FFF7FEFF 		bl	lv_colorwheel_set_hsv
 1675              	.LVL169:
 579:Middlewares/lvgl/src/extra/widgets/colorwheel/lv_colorwheel.c ****             lv_res_t res = lv_event_send(obj, LV_EVENT_VALUE_CHANGED, NULL);
 1676              		.loc 1 579 11 view .LVU519
 1677 003e 80B9     		cbnz	r0, .L72
 1678              	.L64:
 579:Middlewares/lvgl/src/extra/widgets/colorwheel/lv_colorwheel.c ****             lv_res_t res = lv_event_send(obj, LV_EVENT_VALUE_CHANGED, NULL);
 1679              		.loc 1 579 11 view .LVU520
 1680              	.LBE75:
ARM GAS  /tmp/ccyILfU7.s 			page 71


 584:Middlewares/lvgl/src/extra/widgets/colorwheel/lv_colorwheel.c **** 
 1681              		.loc 1 584 5 is_stmt 1 view .LVU521
 584:Middlewares/lvgl/src/extra/widgets/colorwheel/lv_colorwheel.c **** 
 1682              		.loc 1 584 35 is_stmt 0 view .LVU522
 1683 0040 FFF7FEFF 		bl	lv_tick_get
 1684              	.LVL170:
 584:Middlewares/lvgl/src/extra/widgets/colorwheel/lv_colorwheel.c **** 
 1685              		.loc 1 584 33 view .LVU523
 1686 0044 2063     		str	r0, [r4, #48]
 586:Middlewares/lvgl/src/extra/widgets/colorwheel/lv_colorwheel.c **** }
 1687              		.loc 1 586 5 is_stmt 1 view .LVU524
 586:Middlewares/lvgl/src/extra/widgets/colorwheel/lv_colorwheel.c **** }
 1688              		.loc 1 586 12 is_stmt 0 view .LVU525
 1689 0046 0120     		movs	r0, #1
 1690              	.L69:
 587:Middlewares/lvgl/src/extra/widgets/colorwheel/lv_colorwheel.c **** 
 1691              		.loc 1 587 1 view .LVU526
 1692 0048 03B0     		add	sp, sp, #12
 1693              	.LCFI22:
 1694              		.cfi_remember_state
 1695              		.cfi_def_cfa_offset 12
 1696              		@ sp needed
 1697 004a 30BD     		pop	{r4, r5, pc}
 1698              	.LVL171:
 1699              	.L71:
 1700              	.LCFI23:
 1701              		.cfi_restore_state
 1702              	.LBB77:
 567:Middlewares/lvgl/src/extra/widgets/colorwheel/lv_colorwheel.c ****                 break;
 1703              		.loc 1 567 17 is_stmt 1 view .LVU527
 567:Middlewares/lvgl/src/extra/widgets/colorwheel/lv_colorwheel.c ****                 break;
 1704              		.loc 1 567 27 is_stmt 0 view .LVU528
 1705 004c ADF80430 		strh	r3, [sp, #4]	@ movhi
 568:Middlewares/lvgl/src/extra/widgets/colorwheel/lv_colorwheel.c ****             case LV_COLORWHEEL_MODE_SATURATION:
 1706              		.loc 1 568 17 is_stmt 1 view .LVU529
 1707 0050 EEE7     		b	.L67
 1708              	.L65:
 570:Middlewares/lvgl/src/extra/widgets/colorwheel/lv_colorwheel.c ****                 break;
 1709              		.loc 1 570 17 view .LVU530
 570:Middlewares/lvgl/src/extra/widgets/colorwheel/lv_colorwheel.c ****                 break;
 1710              		.loc 1 570 27 is_stmt 0 view .LVU531
 1711 0052 6423     		movs	r3, #100
 1712 0054 8DF80630 		strb	r3, [sp, #6]
 571:Middlewares/lvgl/src/extra/widgets/colorwheel/lv_colorwheel.c ****             case LV_COLORWHEEL_MODE_VALUE:
 1713              		.loc 1 571 17 is_stmt 1 view .LVU532
 1714 0058 EAE7     		b	.L67
 1715              	.L66:
 573:Middlewares/lvgl/src/extra/widgets/colorwheel/lv_colorwheel.c ****                 break;
 1716              		.loc 1 573 17 view .LVU533
 573:Middlewares/lvgl/src/extra/widgets/colorwheel/lv_colorwheel.c ****                 break;
 1717              		.loc 1 573 27 is_stmt 0 view .LVU534
 1718 005a 6423     		movs	r3, #100
 1719 005c 8DF80730 		strb	r3, [sp, #7]
 574:Middlewares/lvgl/src/extra/widgets/colorwheel/lv_colorwheel.c ****         }
 1720              		.loc 1 574 17 is_stmt 1 view .LVU535
 1721 0060 E6E7     		b	.L67
 1722              	.L72:
ARM GAS  /tmp/ccyILfU7.s 			page 72


 1723              	.LBB76:
 580:Middlewares/lvgl/src/extra/widgets/colorwheel/lv_colorwheel.c ****             if(res != LV_RES_OK) return res;
 1724              		.loc 1 580 13 view .LVU536
 580:Middlewares/lvgl/src/extra/widgets/colorwheel/lv_colorwheel.c ****             if(res != LV_RES_OK) return res;
 1725              		.loc 1 580 28 is_stmt 0 view .LVU537
 1726 0062 0022     		movs	r2, #0
 1727 0064 1C21     		movs	r1, #28
 1728 0066 2046     		mov	r0, r4
 1729 0068 FFF7FEFF 		bl	lv_event_send
 1730              	.LVL172:
 581:Middlewares/lvgl/src/extra/widgets/colorwheel/lv_colorwheel.c ****         }
 1731              		.loc 1 581 13 is_stmt 1 view .LVU538
 581:Middlewares/lvgl/src/extra/widgets/colorwheel/lv_colorwheel.c ****         }
 1732              		.loc 1 581 15 is_stmt 0 view .LVU539
 1733 006c 0128     		cmp	r0, #1
 1734 006e EBD1     		bne	.L69
 1735 0070 E6E7     		b	.L64
 1736              	.LBE76:
 1737              	.LBE77:
 1738              		.cfi_endproc
 1739              	.LFE201:
 1741              		.section	.text.lv_colorwheel_set_rgb,"ax",%progbits
 1742              		.align	1
 1743              		.global	lv_colorwheel_set_rgb
 1744              		.syntax unified
 1745              		.thumb
 1746              		.thumb_func
 1747              		.fpu fpv4-sp-d16
 1749              	lv_colorwheel_set_rgb:
 1750              	.LVL173:
 1751              	.LFB186:
 121:Middlewares/lvgl/src/extra/widgets/colorwheel/lv_colorwheel.c ****     lv_color32_t c32;
 1752              		.loc 1 121 1 is_stmt 1 view -0
 1753              		.cfi_startproc
 1754              		@ args = 0, pretend = 0, frame = 8
 1755              		@ frame_needed = 0, uses_anonymous_args = 0
 121:Middlewares/lvgl/src/extra/widgets/colorwheel/lv_colorwheel.c ****     lv_color32_t c32;
 1756              		.loc 1 121 1 is_stmt 0 view .LVU541
 1757 0000 10B5     		push	{r4, lr}
 1758              	.LCFI24:
 1759              		.cfi_def_cfa_offset 8
 1760              		.cfi_offset 4, -8
 1761              		.cfi_offset 14, -4
 1762 0002 82B0     		sub	sp, sp, #8
 1763              	.LCFI25:
 1764              		.cfi_def_cfa_offset 16
 1765 0004 0446     		mov	r4, r0
 122:Middlewares/lvgl/src/extra/widgets/colorwheel/lv_colorwheel.c ****     c32.full = lv_color_to32(color);
 1766              		.loc 1 122 5 is_stmt 1 view .LVU542
 123:Middlewares/lvgl/src/extra/widgets/colorwheel/lv_colorwheel.c **** 
 1767              		.loc 1 123 5 view .LVU543
 1768              	.LBB80:
 1769              	.LBI80:
 395:Middlewares/lvgl/src/extra/widgets/colorwheel/../../../../src/hal/../misc/lv_color.h **** {
 1770              		.loc 2 395 24 view .LVU544
 1771              	.LBB81:
 439:Middlewares/lvgl/src/extra/widgets/colorwheel/../../../../src/hal/../misc/lv_color.h ****     LV_COLOR_SET_R32(ret, (LV_COLOR_GET_R(color) * 263 + 7) >> 5);
ARM GAS  /tmp/ccyILfU7.s 			page 73


 1772              		.loc 2 439 5 view .LVU545
 440:Middlewares/lvgl/src/extra/widgets/colorwheel/../../../../src/hal/../misc/lv_color.h ****     LV_COLOR_SET_G32(ret, (LV_COLOR_GET_G(color) * 259 + 3) >> 6);
 1773              		.loc 2 440 5 view .LVU546
 1774 0006 C1F3C423 		ubfx	r3, r1, #11, #5
 1775 000a 03EB4312 		add	r2, r3, r3, lsl #5
 1776 000e C3EBC203 		rsb	r3, r3, r2, lsl #3
 1777 0012 0733     		adds	r3, r3, #7
 1778 0014 C3F34713 		ubfx	r3, r3, #5, #8
 1779 0018 0020     		movs	r0, #0
 1780              	.LVL174:
 440:Middlewares/lvgl/src/extra/widgets/colorwheel/../../../../src/hal/../misc/lv_color.h ****     LV_COLOR_SET_G32(ret, (LV_COLOR_GET_G(color) * 259 + 3) >> 6);
 1781              		.loc 2 440 5 is_stmt 0 view .LVU547
 1782 001a 63F31740 		bfi	r0, r3, #16, #8
 1783              	.LVL175:
 441:Middlewares/lvgl/src/extra/widgets/colorwheel/../../../../src/hal/../misc/lv_color.h ****     LV_COLOR_SET_B32(ret, (LV_COLOR_GET_B(color) * 263 + 7) >> 5);
 1784              		.loc 2 441 5 is_stmt 1 view .LVU548
 1785 001e C1F34513 		ubfx	r3, r1, #5, #6
 1786 0022 03EBC312 		add	r2, r3, r3, lsl #7
 1787 0026 03EB4203 		add	r3, r3, r2, lsl #1
 1788 002a 0333     		adds	r3, r3, #3
 1789 002c C3F38713 		ubfx	r3, r3, #6, #8
 1790 0030 63F30F20 		bfi	r0, r3, #8, #8
 442:Middlewares/lvgl/src/extra/widgets/colorwheel/../../../../src/hal/../misc/lv_color.h ****     LV_COLOR_SET_A32(ret, 0xFF);
 1791              		.loc 2 442 5 view .LVU549
 1792 0034 01F01F01 		and	r1, r1, #31
 1793              	.LVL176:
 442:Middlewares/lvgl/src/extra/widgets/colorwheel/../../../../src/hal/../misc/lv_color.h ****     LV_COLOR_SET_A32(ret, 0xFF);
 1794              		.loc 2 442 5 is_stmt 0 view .LVU550
 1795 0038 01EB4113 		add	r3, r1, r1, lsl #5
 1796 003c C1EBC301 		rsb	r1, r1, r3, lsl #3
 1797 0040 0731     		adds	r1, r1, #7
 1798 0042 C1F34711 		ubfx	r1, r1, #5, #8
 1799 0046 61F30700 		bfi	r0, r1, #0, #8
 443:Middlewares/lvgl/src/extra/widgets/colorwheel/../../../../src/hal/../misc/lv_color.h ****     return ret.full;
 1800              		.loc 2 443 5 is_stmt 1 view .LVU551
 1801 004a 40F07F40 		orr	r0, r0, #-16777216
 1802              	.LVL177:
 444:Middlewares/lvgl/src/extra/widgets/colorwheel/../../../../src/hal/../misc/lv_color.h **** #elif LV_COLOR_DEPTH == 32
 1803              		.loc 2 444 5 view .LVU552
 1804              	.LBE81:
 1805              	.LBE80:
 125:Middlewares/lvgl/src/extra/widgets/colorwheel/lv_colorwheel.c **** }
 1806              		.loc 1 125 5 view .LVU553
 125:Middlewares/lvgl/src/extra/widgets/colorwheel/lv_colorwheel.c **** }
 1807              		.loc 1 125 12 is_stmt 0 view .LVU554
 1808 004e C2B2     		uxtb	r2, r0
 1809 0050 C0F30721 		ubfx	r1, r0, #8, #8
 1810 0054 C0F30740 		ubfx	r0, r0, #16, #8
 125:Middlewares/lvgl/src/extra/widgets/colorwheel/lv_colorwheel.c **** }
 1811              		.loc 1 125 12 view .LVU555
 1812 0058 FFF7FEFF 		bl	lv_color_rgb_to_hsv
 1813              	.LVL178:
 1814 005c 0146     		mov	r1, r0
 1815 005e 0190     		str	r0, [sp, #4]
 1816 0060 2046     		mov	r0, r4
 1817 0062 FFF7FEFF 		bl	lv_colorwheel_set_hsv
 1818              	.LVL179:
ARM GAS  /tmp/ccyILfU7.s 			page 74


 126:Middlewares/lvgl/src/extra/widgets/colorwheel/lv_colorwheel.c **** 
 1819              		.loc 1 126 1 view .LVU556
 1820 0066 02B0     		add	sp, sp, #8
 1821              	.LCFI26:
 1822              		.cfi_def_cfa_offset 8
 1823              		@ sp needed
 1824 0068 10BD     		pop	{r4, pc}
 126:Middlewares/lvgl/src/extra/widgets/colorwheel/lv_colorwheel.c **** 
 1825              		.loc 1 126 1 view .LVU557
 1826              		.cfi_endproc
 1827              	.LFE186:
 1829              		.section	.text.lv_colorwheel_set_mode,"ax",%progbits
 1830              		.align	1
 1831              		.global	lv_colorwheel_set_mode
 1832              		.syntax unified
 1833              		.thumb
 1834              		.thumb_func
 1835              		.fpu fpv4-sp-d16
 1837              	lv_colorwheel_set_mode:
 1838              	.LVL180:
 1839              	.LFB187:
 134:Middlewares/lvgl/src/extra/widgets/colorwheel/lv_colorwheel.c ****     lv_colorwheel_t * colorwheel = (lv_colorwheel_t *)obj;
 1840              		.loc 1 134 1 is_stmt 1 view -0
 1841              		.cfi_startproc
 1842              		@ args = 0, pretend = 0, frame = 0
 1843              		@ frame_needed = 0, uses_anonymous_args = 0
 134:Middlewares/lvgl/src/extra/widgets/colorwheel/lv_colorwheel.c ****     lv_colorwheel_t * colorwheel = (lv_colorwheel_t *)obj;
 1844              		.loc 1 134 1 is_stmt 0 view .LVU559
 1845 0000 10B5     		push	{r4, lr}
 1846              	.LCFI27:
 1847              		.cfi_def_cfa_offset 8
 1848              		.cfi_offset 4, -8
 1849              		.cfi_offset 14, -4
 1850 0002 0446     		mov	r4, r0
 135:Middlewares/lvgl/src/extra/widgets/colorwheel/lv_colorwheel.c **** 
 1851              		.loc 1 135 5 is_stmt 1 view .LVU560
 1852              	.LVL181:
 137:Middlewares/lvgl/src/extra/widgets/colorwheel/lv_colorwheel.c ****     refr_knob_pos(obj);
 1853              		.loc 1 137 5 view .LVU561
 137:Middlewares/lvgl/src/extra/widgets/colorwheel/lv_colorwheel.c ****     refr_knob_pos(obj);
 1854              		.loc 1 137 22 is_stmt 0 view .LVU562
 1855 0004 90F83C30 		ldrb	r3, [r0, #60]	@ zero_extendqisi2
 1856 0008 61F30103 		bfi	r3, r1, #0, #2
 1857 000c 80F83C30 		strb	r3, [r0, #60]
 138:Middlewares/lvgl/src/extra/widgets/colorwheel/lv_colorwheel.c ****     lv_obj_invalidate(obj);
 1858              		.loc 1 138 5 is_stmt 1 view .LVU563
 1859 0010 FFF7FEFF 		bl	refr_knob_pos
 1860              	.LVL182:
 139:Middlewares/lvgl/src/extra/widgets/colorwheel/lv_colorwheel.c **** }
 1861              		.loc 1 139 5 view .LVU564
 1862 0014 2046     		mov	r0, r4
 1863 0016 FFF7FEFF 		bl	lv_obj_invalidate
 1864              	.LVL183:
 140:Middlewares/lvgl/src/extra/widgets/colorwheel/lv_colorwheel.c **** 
 1865              		.loc 1 140 1 is_stmt 0 view .LVU565
 1866 001a 10BD     		pop	{r4, pc}
 140:Middlewares/lvgl/src/extra/widgets/colorwheel/lv_colorwheel.c **** 
ARM GAS  /tmp/ccyILfU7.s 			page 75


 1867              		.loc 1 140 1 view .LVU566
 1868              		.cfi_endproc
 1869              	.LFE187:
 1871              		.section	.text.lv_colorwheel_set_mode_fixed,"ax",%progbits
 1872              		.align	1
 1873              		.global	lv_colorwheel_set_mode_fixed
 1874              		.syntax unified
 1875              		.thumb
 1876              		.thumb_func
 1877              		.fpu fpv4-sp-d16
 1879              	lv_colorwheel_set_mode_fixed:
 1880              	.LVL184:
 1881              	.LFB188:
 148:Middlewares/lvgl/src/extra/widgets/colorwheel/lv_colorwheel.c ****     lv_colorwheel_t * colorwheel = (lv_colorwheel_t *)obj;
 1882              		.loc 1 148 1 is_stmt 1 view -0
 1883              		.cfi_startproc
 1884              		@ args = 0, pretend = 0, frame = 0
 1885              		@ frame_needed = 0, uses_anonymous_args = 0
 1886              		@ link register save eliminated.
 149:Middlewares/lvgl/src/extra/widgets/colorwheel/lv_colorwheel.c **** 
 1887              		.loc 1 149 5 view .LVU568
 151:Middlewares/lvgl/src/extra/widgets/colorwheel/lv_colorwheel.c **** }
 1888              		.loc 1 151 5 view .LVU569
 151:Middlewares/lvgl/src/extra/widgets/colorwheel/lv_colorwheel.c **** }
 1889              		.loc 1 151 28 is_stmt 0 view .LVU570
 1890 0000 90F83C30 		ldrb	r3, [r0, #60]	@ zero_extendqisi2
 1891 0004 61F38203 		bfi	r3, r1, #2, #1
 1892 0008 80F83C30 		strb	r3, [r0, #60]
 152:Middlewares/lvgl/src/extra/widgets/colorwheel/lv_colorwheel.c **** 
 1893              		.loc 1 152 1 view .LVU571
 1894 000c 7047     		bx	lr
 1895              		.cfi_endproc
 1896              	.LFE188:
 1898              		.section	.text.lv_colorwheel_get_hsv,"ax",%progbits
 1899              		.align	1
 1900              		.global	lv_colorwheel_get_hsv
 1901              		.syntax unified
 1902              		.thumb
 1903              		.thumb_func
 1904              		.fpu fpv4-sp-d16
 1906              	lv_colorwheel_get_hsv:
 1907              	.LVL185:
 1908              	.LFB189:
 165:Middlewares/lvgl/src/extra/widgets/colorwheel/lv_colorwheel.c ****     lv_colorwheel_t * colorwheel = (lv_colorwheel_t *)obj;
 1909              		.loc 1 165 1 is_stmt 1 view -0
 1910              		.cfi_startproc
 1911              		@ args = 0, pretend = 0, frame = 8
 1912              		@ frame_needed = 0, uses_anonymous_args = 0
 1913              		@ link register save eliminated.
 165:Middlewares/lvgl/src/extra/widgets/colorwheel/lv_colorwheel.c ****     lv_colorwheel_t * colorwheel = (lv_colorwheel_t *)obj;
 1914              		.loc 1 165 1 is_stmt 0 view .LVU573
 1915 0000 82B0     		sub	sp, sp, #8
 1916              	.LCFI28:
 1917              		.cfi_def_cfa_offset 8
 166:Middlewares/lvgl/src/extra/widgets/colorwheel/lv_colorwheel.c **** 
 1918              		.loc 1 166 5 is_stmt 1 view .LVU574
 1919              	.LVL186:
ARM GAS  /tmp/ccyILfU7.s 			page 76


 168:Middlewares/lvgl/src/extra/widgets/colorwheel/lv_colorwheel.c **** }
 1920              		.loc 1 168 5 view .LVU575
 168:Middlewares/lvgl/src/extra/widgets/colorwheel/lv_colorwheel.c **** }
 1921              		.loc 1 168 22 is_stmt 0 view .LVU576
 1922 0002 436A     		ldr	r3, [r0, #36]
 1923 0004 0193     		str	r3, [sp, #4]
 1924 0006 0020     		movs	r0, #0
 1925              	.LVL187:
 168:Middlewares/lvgl/src/extra/widgets/colorwheel/lv_colorwheel.c **** }
 1926              		.loc 1 168 22 view .LVU577
 1927 0008 BDF80430 		ldrh	r3, [sp, #4]
 1928 000c 63F30F00 		bfi	r0, r3, #0, #16
 1929 0010 BDF80630 		ldrh	r3, [sp, #6]
 1930 0014 63F31F40 		bfi	r0, r3, #16, #16
 169:Middlewares/lvgl/src/extra/widgets/colorwheel/lv_colorwheel.c **** 
 1931              		.loc 1 169 1 view .LVU578
 1932 0018 02B0     		add	sp, sp, #8
 1933              	.LCFI29:
 1934              		.cfi_def_cfa_offset 0
 1935              		@ sp needed
 1936 001a 7047     		bx	lr
 1937              		.cfi_endproc
 1938              	.LFE189:
 1940              		.section	.text.lv_colorwheel_get_rgb,"ax",%progbits
 1941              		.align	1
 1942              		.global	lv_colorwheel_get_rgb
 1943              		.syntax unified
 1944              		.thumb
 1945              		.thumb_func
 1946              		.fpu fpv4-sp-d16
 1948              	lv_colorwheel_get_rgb:
 1949              	.LVL188:
 1950              	.LFB190:
 177:Middlewares/lvgl/src/extra/widgets/colorwheel/lv_colorwheel.c ****     lv_colorwheel_t * colorwheel = (lv_colorwheel_t *)obj;
 1951              		.loc 1 177 1 is_stmt 1 view -0
 1952              		.cfi_startproc
 1953              		@ args = 0, pretend = 0, frame = 0
 1954              		@ frame_needed = 0, uses_anonymous_args = 0
 177:Middlewares/lvgl/src/extra/widgets/colorwheel/lv_colorwheel.c ****     lv_colorwheel_t * colorwheel = (lv_colorwheel_t *)obj;
 1955              		.loc 1 177 1 is_stmt 0 view .LVU580
 1956 0000 08B5     		push	{r3, lr}
 1957              	.LCFI30:
 1958              		.cfi_def_cfa_offset 8
 1959              		.cfi_offset 3, -8
 1960              		.cfi_offset 14, -4
 178:Middlewares/lvgl/src/extra/widgets/colorwheel/lv_colorwheel.c **** 
 1961              		.loc 1 178 5 is_stmt 1 view .LVU581
 1962              	.LVL189:
 180:Middlewares/lvgl/src/extra/widgets/colorwheel/lv_colorwheel.c **** }
 1963              		.loc 1 180 5 view .LVU582
 180:Middlewares/lvgl/src/extra/widgets/colorwheel/lv_colorwheel.c **** }
 1964              		.loc 1 180 12 is_stmt 0 view .LVU583
 1965 0002 90F82720 		ldrb	r2, [r0, #39]	@ zero_extendqisi2
 1966 0006 90F82610 		ldrb	r1, [r0, #38]	@ zero_extendqisi2
 1967 000a 808C     		ldrh	r0, [r0, #36]
 1968              	.LVL190:
 180:Middlewares/lvgl/src/extra/widgets/colorwheel/lv_colorwheel.c **** }
ARM GAS  /tmp/ccyILfU7.s 			page 77


 1969              		.loc 1 180 12 view .LVU584
 1970 000c FFF7FEFF 		bl	lv_color_hsv_to_rgb
 1971              	.LVL191:
 181:Middlewares/lvgl/src/extra/widgets/colorwheel/lv_colorwheel.c **** 
 1972              		.loc 1 181 1 view .LVU585
 1973 0010 08BD     		pop	{r3, pc}
 1974              		.cfi_endproc
 1975              	.LFE190:
 1977              		.section	.text.draw_knob,"ax",%progbits
 1978              		.align	1
 1979              		.syntax unified
 1980              		.thumb
 1981              		.thumb_func
 1982              		.fpu fpv4-sp-d16
 1984              	draw_knob:
 1985              	.LVL192:
 1986              	.LFB195:
 296:Middlewares/lvgl/src/extra/widgets/colorwheel/lv_colorwheel.c ****     lv_obj_t * obj = lv_event_get_target(e);
 1987              		.loc 1 296 1 is_stmt 1 view -0
 1988              		.cfi_startproc
 1989              		@ args = 0, pretend = 0, frame = 64
 1990              		@ frame_needed = 0, uses_anonymous_args = 0
 296:Middlewares/lvgl/src/extra/widgets/colorwheel/lv_colorwheel.c ****     lv_obj_t * obj = lv_event_get_target(e);
 1991              		.loc 1 296 1 is_stmt 0 view .LVU587
 1992 0000 30B5     		push	{r4, r5, lr}
 1993              	.LCFI31:
 1994              		.cfi_def_cfa_offset 12
 1995              		.cfi_offset 4, -12
 1996              		.cfi_offset 5, -8
 1997              		.cfi_offset 14, -4
 1998 0002 91B0     		sub	sp, sp, #68
 1999              	.LCFI32:
 2000              		.cfi_def_cfa_offset 80
 2001 0004 0546     		mov	r5, r0
 297:Middlewares/lvgl/src/extra/widgets/colorwheel/lv_colorwheel.c ****     const lv_area_t * clip_area = lv_event_get_param(e);
 2002              		.loc 1 297 5 is_stmt 1 view .LVU588
 297:Middlewares/lvgl/src/extra/widgets/colorwheel/lv_colorwheel.c ****     const lv_area_t * clip_area = lv_event_get_param(e);
 2003              		.loc 1 297 22 is_stmt 0 view .LVU589
 2004 0006 FFF7FEFF 		bl	lv_event_get_target
 2005              	.LVL193:
 297:Middlewares/lvgl/src/extra/widgets/colorwheel/lv_colorwheel.c ****     const lv_area_t * clip_area = lv_event_get_param(e);
 2006              		.loc 1 297 22 view .LVU590
 2007 000a 0446     		mov	r4, r0
 2008              	.LVL194:
 298:Middlewares/lvgl/src/extra/widgets/colorwheel/lv_colorwheel.c ****     lv_colorwheel_t * colorwheel = (lv_colorwheel_t *)obj;
 2009              		.loc 1 298 5 is_stmt 1 view .LVU591
 298:Middlewares/lvgl/src/extra/widgets/colorwheel/lv_colorwheel.c ****     lv_colorwheel_t * colorwheel = (lv_colorwheel_t *)obj;
 2010              		.loc 1 298 35 is_stmt 0 view .LVU592
 2011 000c 2846     		mov	r0, r5
 2012              	.LVL195:
 298:Middlewares/lvgl/src/extra/widgets/colorwheel/lv_colorwheel.c ****     lv_colorwheel_t * colorwheel = (lv_colorwheel_t *)obj;
 2013              		.loc 1 298 35 view .LVU593
 2014 000e FFF7FEFF 		bl	lv_event_get_param
 2015              	.LVL196:
 2016 0012 0546     		mov	r5, r0
 2017              	.LVL197:
 299:Middlewares/lvgl/src/extra/widgets/colorwheel/lv_colorwheel.c **** 
ARM GAS  /tmp/ccyILfU7.s 			page 78


 2018              		.loc 1 299 5 is_stmt 1 view .LVU594
 301:Middlewares/lvgl/src/extra/widgets/colorwheel/lv_colorwheel.c ****     lv_draw_rect_dsc_init(&cir_dsc);
 2019              		.loc 1 301 5 view .LVU595
 302:Middlewares/lvgl/src/extra/widgets/colorwheel/lv_colorwheel.c ****     lv_obj_init_draw_rect_dsc(obj, LV_PART_KNOB, &cir_dsc);
 2020              		.loc 1 302 5 view .LVU596
 2021 0014 03A8     		add	r0, sp, #12
 2022              	.LVL198:
 302:Middlewares/lvgl/src/extra/widgets/colorwheel/lv_colorwheel.c ****     lv_obj_init_draw_rect_dsc(obj, LV_PART_KNOB, &cir_dsc);
 2023              		.loc 1 302 5 is_stmt 0 view .LVU597
 2024 0016 FFF7FEFF 		bl	lv_draw_rect_dsc_init
 2025              	.LVL199:
 303:Middlewares/lvgl/src/extra/widgets/colorwheel/lv_colorwheel.c **** 
 2026              		.loc 1 303 5 is_stmt 1 view .LVU598
 2027 001a 03AA     		add	r2, sp, #12
 2028 001c 4FF44031 		mov	r1, #196608
 2029 0020 2046     		mov	r0, r4
 2030 0022 FFF7FEFF 		bl	lv_obj_init_draw_rect_dsc
 2031              	.LVL200:
 305:Middlewares/lvgl/src/extra/widgets/colorwheel/lv_colorwheel.c **** 
 2032              		.loc 1 305 5 view .LVU599
 305:Middlewares/lvgl/src/extra/widgets/colorwheel/lv_colorwheel.c **** 
 2033              		.loc 1 305 20 is_stmt 0 view .LVU600
 2034 0026 47F6FF73 		movw	r3, #32767
 2035 002a ADF80C30 		strh	r3, [sp, #12]	@ movhi
 307:Middlewares/lvgl/src/extra/widgets/colorwheel/lv_colorwheel.c ****         cir_dsc.bg_color = lv_colorwheel_get_rgb(obj);
 2036              		.loc 1 307 5 is_stmt 1 view .LVU601
 307:Middlewares/lvgl/src/extra/widgets/colorwheel/lv_colorwheel.c ****         cir_dsc.bg_color = lv_colorwheel_get_rgb(obj);
 2037              		.loc 1 307 8 is_stmt 0 view .LVU602
 2038 002e 94F82C30 		ldrb	r3, [r4, #44]	@ zero_extendqisi2
 307:Middlewares/lvgl/src/extra/widgets/colorwheel/lv_colorwheel.c ****         cir_dsc.bg_color = lv_colorwheel_get_rgb(obj);
 2039              		.loc 1 307 7 view .LVU603
 2040 0032 13F0010F 		tst	r3, #1
 2041 0036 0AD1     		bne	.L85
 2042              	.L83:
 311:Middlewares/lvgl/src/extra/widgets/colorwheel/lv_colorwheel.c **** 
 2043              		.loc 1 311 5 is_stmt 1 view .LVU604
 311:Middlewares/lvgl/src/extra/widgets/colorwheel/lv_colorwheel.c **** 
 2044              		.loc 1 311 27 is_stmt 0 view .LVU605
 2045 0038 2146     		mov	r1, r4
 2046 003a 01A8     		add	r0, sp, #4
 2047 003c FFF7FEFF 		bl	get_knob_area
 2048              	.LVL201:
 313:Middlewares/lvgl/src/extra/widgets/colorwheel/lv_colorwheel.c **** }
 2049              		.loc 1 313 5 is_stmt 1 view .LVU606
 2050 0040 03AA     		add	r2, sp, #12
 2051 0042 2946     		mov	r1, r5
 2052 0044 01A8     		add	r0, sp, #4
 2053 0046 FFF7FEFF 		bl	lv_draw_rect
 2054              	.LVL202:
 314:Middlewares/lvgl/src/extra/widgets/colorwheel/lv_colorwheel.c **** 
 2055              		.loc 1 314 1 is_stmt 0 view .LVU607
 2056 004a 11B0     		add	sp, sp, #68
 2057              	.LCFI33:
 2058              		.cfi_remember_state
 2059              		.cfi_def_cfa_offset 12
 2060              		@ sp needed
 2061 004c 30BD     		pop	{r4, r5, pc}
ARM GAS  /tmp/ccyILfU7.s 			page 79


 2062              	.LVL203:
 2063              	.L85:
 2064              	.LCFI34:
 2065              		.cfi_restore_state
 308:Middlewares/lvgl/src/extra/widgets/colorwheel/lv_colorwheel.c ****     }
 2066              		.loc 1 308 9 is_stmt 1 view .LVU608
 308:Middlewares/lvgl/src/extra/widgets/colorwheel/lv_colorwheel.c ****     }
 2067              		.loc 1 308 28 is_stmt 0 view .LVU609
 2068 004e 2046     		mov	r0, r4
 2069 0050 FFF7FEFF 		bl	lv_colorwheel_get_rgb
 2070              	.LVL204:
 2071 0054 ADF81000 		strh	r0, [sp, #16]	@ movhi
 2072 0058 EEE7     		b	.L83
 2073              		.cfi_endproc
 2074              	.LFE195:
 2076              		.section	.text.lv_colorwheel_event,"ax",%progbits
 2077              		.align	1
 2078              		.syntax unified
 2079              		.thumb
 2080              		.thumb_func
 2081              		.fpu fpv4-sp-d16
 2083              	lv_colorwheel_event:
 2084              	.LVL205:
 2085              	.LFB198:
 346:Middlewares/lvgl/src/extra/widgets/colorwheel/lv_colorwheel.c ****     LV_UNUSED(class_p);
 2086              		.loc 1 346 1 is_stmt 1 view -0
 2087              		.cfi_startproc
 2088              		@ args = 0, pretend = 0, frame = 8
 2089              		@ frame_needed = 0, uses_anonymous_args = 0
 346:Middlewares/lvgl/src/extra/widgets/colorwheel/lv_colorwheel.c ****     LV_UNUSED(class_p);
 2090              		.loc 1 346 1 is_stmt 0 view .LVU611
 2091 0000 2DE9F043 		push	{r4, r5, r6, r7, r8, r9, lr}
 2092              	.LCFI35:
 2093              		.cfi_def_cfa_offset 28
 2094              		.cfi_offset 4, -28
 2095              		.cfi_offset 5, -24
 2096              		.cfi_offset 6, -20
 2097              		.cfi_offset 7, -16
 2098              		.cfi_offset 8, -12
 2099              		.cfi_offset 9, -8
 2100              		.cfi_offset 14, -4
 2101 0004 83B0     		sub	sp, sp, #12
 2102              	.LCFI36:
 2103              		.cfi_def_cfa_offset 40
 2104 0006 0D46     		mov	r5, r1
 347:Middlewares/lvgl/src/extra/widgets/colorwheel/lv_colorwheel.c **** 
 2105              		.loc 1 347 5 is_stmt 1 view .LVU612
 350:Middlewares/lvgl/src/extra/widgets/colorwheel/lv_colorwheel.c **** 
 2106              		.loc 1 350 5 view .LVU613
 350:Middlewares/lvgl/src/extra/widgets/colorwheel/lv_colorwheel.c **** 
 2107              		.loc 1 350 20 is_stmt 0 view .LVU614
 2108 0008 8C48     		ldr	r0, .L144
 2109              	.LVL206:
 350:Middlewares/lvgl/src/extra/widgets/colorwheel/lv_colorwheel.c **** 
 2110              		.loc 1 350 20 view .LVU615
 2111 000a FFF7FEFF 		bl	lv_obj_event_base
 2112              	.LVL207:
ARM GAS  /tmp/ccyILfU7.s 			page 80


 352:Middlewares/lvgl/src/extra/widgets/colorwheel/lv_colorwheel.c **** 
 2113              		.loc 1 352 5 is_stmt 1 view .LVU616
 352:Middlewares/lvgl/src/extra/widgets/colorwheel/lv_colorwheel.c **** 
 2114              		.loc 1 352 7 is_stmt 0 view .LVU617
 2115 000e 0128     		cmp	r0, #1
 2116 0010 02D0     		beq	.L130
 2117              	.LVL208:
 2118              	.L86:
 526:Middlewares/lvgl/src/extra/widgets/colorwheel/lv_colorwheel.c **** 
 2119              		.loc 1 526 1 view .LVU618
 2120 0012 03B0     		add	sp, sp, #12
 2121              	.LCFI37:
 2122              		.cfi_remember_state
 2123              		.cfi_def_cfa_offset 28
 2124              		@ sp needed
 2125 0014 BDE8F083 		pop	{r4, r5, r6, r7, r8, r9, pc}
 2126              	.LVL209:
 2127              	.L130:
 2128              	.LCFI38:
 2129              		.cfi_restore_state
 354:Middlewares/lvgl/src/extra/widgets/colorwheel/lv_colorwheel.c ****     lv_obj_t * obj = lv_event_get_target(e);
 2130              		.loc 1 354 5 is_stmt 1 view .LVU619
 354:Middlewares/lvgl/src/extra/widgets/colorwheel/lv_colorwheel.c ****     lv_obj_t * obj = lv_event_get_target(e);
 2131              		.loc 1 354 28 is_stmt 0 view .LVU620
 2132 0018 2846     		mov	r0, r5
 2133              	.LVL210:
 354:Middlewares/lvgl/src/extra/widgets/colorwheel/lv_colorwheel.c ****     lv_obj_t * obj = lv_event_get_target(e);
 2134              		.loc 1 354 28 view .LVU621
 2135 001a FFF7FEFF 		bl	lv_event_get_code
 2136              	.LVL211:
 2137 001e 0446     		mov	r4, r0
 2138              	.LVL212:
 355:Middlewares/lvgl/src/extra/widgets/colorwheel/lv_colorwheel.c ****     lv_colorwheel_t * colorwheel = (lv_colorwheel_t *)obj;
 2139              		.loc 1 355 5 is_stmt 1 view .LVU622
 355:Middlewares/lvgl/src/extra/widgets/colorwheel/lv_colorwheel.c ****     lv_colorwheel_t * colorwheel = (lv_colorwheel_t *)obj;
 2140              		.loc 1 355 22 is_stmt 0 view .LVU623
 2141 0020 2846     		mov	r0, r5
 2142 0022 FFF7FEFF 		bl	lv_event_get_target
 2143              	.LVL213:
 2144 0026 0646     		mov	r6, r0
 2145              	.LVL214:
 356:Middlewares/lvgl/src/extra/widgets/colorwheel/lv_colorwheel.c **** 
 2146              		.loc 1 356 5 is_stmt 1 view .LVU624
 358:Middlewares/lvgl/src/extra/widgets/colorwheel/lv_colorwheel.c ****         lv_coord_t left = lv_obj_get_style_pad_left(obj, LV_PART_KNOB);
 2147              		.loc 1 358 5 view .LVU625
 358:Middlewares/lvgl/src/extra/widgets/colorwheel/lv_colorwheel.c ****         lv_coord_t left = lv_obj_get_style_pad_left(obj, LV_PART_KNOB);
 2148              		.loc 1 358 7 is_stmt 0 view .LVU626
 2149 0028 132C     		cmp	r4, #19
 2150 002a 1CD0     		beq	.L131
 368:Middlewares/lvgl/src/extra/widgets/colorwheel/lv_colorwheel.c ****         void * param = lv_event_get_param(e);
 2151              		.loc 1 368 10 is_stmt 1 view .LVU627
 368:Middlewares/lvgl/src/extra/widgets/colorwheel/lv_colorwheel.c ****         void * param = lv_event_get_param(e);
 2152              		.loc 1 368 12 is_stmt 0 view .LVU628
 2153 002c 232C     		cmp	r4, #35
 2154 002e 51D0     		beq	.L132
 376:Middlewares/lvgl/src/extra/widgets/colorwheel/lv_colorwheel.c ****         /*Refresh extended draw area to make knob visible*/
 2155              		.loc 1 376 10 is_stmt 1 view .LVU629
ARM GAS  /tmp/ccyILfU7.s 			page 81


 376:Middlewares/lvgl/src/extra/widgets/colorwheel/lv_colorwheel.c ****         /*Refresh extended draw area to make knob visible*/
 2156              		.loc 1 376 12 is_stmt 0 view .LVU630
 2157 0030 242C     		cmp	r4, #36
 2158 0032 6ED0     		beq	.L133
 380:Middlewares/lvgl/src/extra/widgets/colorwheel/lv_colorwheel.c ****         uint32_t c = *((uint32_t *)lv_event_get_param(e)); /*uint32_t because can be UTF-8*/
 2159              		.loc 1 380 10 is_stmt 1 view .LVU631
 380:Middlewares/lvgl/src/extra/widgets/colorwheel/lv_colorwheel.c ****         uint32_t c = *((uint32_t *)lv_event_get_param(e)); /*uint32_t because can be UTF-8*/
 2160              		.loc 1 380 12 is_stmt 0 view .LVU632
 2161 0034 0D2C     		cmp	r4, #13
 2162 0036 6FD0     		beq	.L134
 426:Middlewares/lvgl/src/extra/widgets/colorwheel/lv_colorwheel.c ****         colorwheel->last_change_time = lv_tick_get();
 2163              		.loc 1 426 10 is_stmt 1 view .LVU633
 426:Middlewares/lvgl/src/extra/widgets/colorwheel/lv_colorwheel.c ****         colorwheel->last_change_time = lv_tick_get();
 2164              		.loc 1 426 12 is_stmt 0 view .LVU634
 2165 0038 012C     		cmp	r4, #1
 2166 003a 00F0F180 		beq	.L135
 432:Middlewares/lvgl/src/extra/widgets/colorwheel/lv_colorwheel.c ****         lv_indev_t * indev = lv_indev_get_act();
 2167              		.loc 1 432 10 is_stmt 1 view .LVU635
 432:Middlewares/lvgl/src/extra/widgets/colorwheel/lv_colorwheel.c ****         lv_indev_t * indev = lv_indev_get_act();
 2168              		.loc 1 432 12 is_stmt 0 view .LVU636
 2169 003e 022C     		cmp	r4, #2
 2170 0040 00F00281 		beq	.L136
 512:Middlewares/lvgl/src/extra/widgets/colorwheel/lv_colorwheel.c ****         lv_hit_test_info_t * info = lv_event_get_param(e);;
 2171              		.loc 1 512 10 is_stmt 1 view .LVU637
 512:Middlewares/lvgl/src/extra/widgets/colorwheel/lv_colorwheel.c ****         lv_hit_test_info_t * info = lv_event_get_param(e);;
 2172              		.loc 1 512 12 is_stmt 0 view .LVU638
 2173 0044 112C     		cmp	r4, #17
 2174 0046 00F0E081 		beq	.L137
 518:Middlewares/lvgl/src/extra/widgets/colorwheel/lv_colorwheel.c ****         draw_disc_grad(e);
 2175              		.loc 1 518 10 is_stmt 1 view .LVU639
 518:Middlewares/lvgl/src/extra/widgets/colorwheel/lv_colorwheel.c ****         draw_disc_grad(e);
 2176              		.loc 1 518 12 is_stmt 0 view .LVU640
 2177 004a 152C     		cmp	r4, #21
 2178 004c 00F0EA81 		beq	.L138
 522:Middlewares/lvgl/src/extra/widgets/colorwheel/lv_colorwheel.c ****         lv_cover_check_info_t * info = lv_event_get_param(e);
 2179              		.loc 1 522 10 is_stmt 1 view .LVU641
 522:Middlewares/lvgl/src/extra/widgets/colorwheel/lv_colorwheel.c ****         lv_cover_check_info_t * info = lv_event_get_param(e);
 2180              		.loc 1 522 12 is_stmt 0 view .LVU642
 2181 0050 122C     		cmp	r4, #18
 2182 0052 DED1     		bne	.L86
 2183              	.LBB82:
 523:Middlewares/lvgl/src/extra/widgets/colorwheel/lv_colorwheel.c ****         if(info->res != LV_COVER_RES_MASKED) info->res = LV_COVER_RES_NOT_COVER;
 2184              		.loc 1 523 9 is_stmt 1 view .LVU643
 523:Middlewares/lvgl/src/extra/widgets/colorwheel/lv_colorwheel.c ****         if(info->res != LV_COVER_RES_MASKED) info->res = LV_COVER_RES_NOT_COVER;
 2185              		.loc 1 523 40 is_stmt 0 view .LVU644
 2186 0054 2846     		mov	r0, r5
 2187              	.LVL215:
 523:Middlewares/lvgl/src/extra/widgets/colorwheel/lv_colorwheel.c ****         if(info->res != LV_COVER_RES_MASKED) info->res = LV_COVER_RES_NOT_COVER;
 2188              		.loc 1 523 40 view .LVU645
 2189 0056 FFF7FEFF 		bl	lv_event_get_param
 2190              	.LVL216:
 524:Middlewares/lvgl/src/extra/widgets/colorwheel/lv_colorwheel.c ****     }
 2191              		.loc 1 524 9 is_stmt 1 view .LVU646
 524:Middlewares/lvgl/src/extra/widgets/colorwheel/lv_colorwheel.c ****     }
 2192              		.loc 1 524 16 is_stmt 0 view .LVU647
 2193 005a 0378     		ldrb	r3, [r0]	@ zero_extendqisi2
 524:Middlewares/lvgl/src/extra/widgets/colorwheel/lv_colorwheel.c ****     }
ARM GAS  /tmp/ccyILfU7.s 			page 82


 2194              		.loc 1 524 11 view .LVU648
 2195 005c 022B     		cmp	r3, #2
 2196 005e D8D0     		beq	.L86
 524:Middlewares/lvgl/src/extra/widgets/colorwheel/lv_colorwheel.c ****     }
 2197              		.loc 1 524 46 is_stmt 1 discriminator 1 view .LVU649
 524:Middlewares/lvgl/src/extra/widgets/colorwheel/lv_colorwheel.c ****     }
 2198              		.loc 1 524 56 is_stmt 0 discriminator 1 view .LVU650
 2199 0060 0123     		movs	r3, #1
 2200 0062 0370     		strb	r3, [r0]
 2201 0064 D5E7     		b	.L86
 2202              	.LVL217:
 2203              	.L131:
 524:Middlewares/lvgl/src/extra/widgets/colorwheel/lv_colorwheel.c ****     }
 2204              		.loc 1 524 56 discriminator 1 view .LVU651
 2205              	.LBE82:
 2206              	.LBB83:
 359:Middlewares/lvgl/src/extra/widgets/colorwheel/lv_colorwheel.c ****         lv_coord_t right = lv_obj_get_style_pad_right(obj, LV_PART_KNOB);
 2207              		.loc 1 359 9 is_stmt 1 view .LVU652
 2208              	.LBB84:
 2209              	.LBI84:
 103:Middlewares/lvgl/src/extra/widgets/colorwheel/../../../../src/core/lv_obj_style_gen.h **** {
 2210              		.loc 3 103 26 view .LVU653
 2211              	.LBB85:
 105:Middlewares/lvgl/src/extra/widgets/colorwheel/../../../../src/core/lv_obj_style_gen.h ****     return (lv_coord_t)v.num;
 2212              		.loc 3 105 5 view .LVU654
 105:Middlewares/lvgl/src/extra/widgets/colorwheel/../../../../src/core/lv_obj_style_gen.h ****     return (lv_coord_t)v.num;
 2213              		.loc 3 105 26 is_stmt 0 view .LVU655
 2214 0066 41F21202 		movw	r2, #4114
 2215 006a 4FF44031 		mov	r1, #196608
 2216 006e FFF7FEFF 		bl	lv_obj_get_style_prop
 2217              	.LVL218:
 106:Middlewares/lvgl/src/extra/widgets/colorwheel/../../../../src/core/lv_obj_style_gen.h **** }
 2218              		.loc 3 106 5 is_stmt 1 view .LVU656
 106:Middlewares/lvgl/src/extra/widgets/colorwheel/../../../../src/core/lv_obj_style_gen.h **** }
 2219              		.loc 3 106 12 is_stmt 0 view .LVU657
 2220 0072 0FFA80F8 		sxth	r8, r0
 2221              	.LVL219:
 106:Middlewares/lvgl/src/extra/widgets/colorwheel/../../../../src/core/lv_obj_style_gen.h **** }
 2222              		.loc 3 106 12 view .LVU658
 2223              	.LBE85:
 2224              	.LBE84:
 360:Middlewares/lvgl/src/extra/widgets/colorwheel/lv_colorwheel.c ****         lv_coord_t top = lv_obj_get_style_pad_top(obj, LV_PART_KNOB);
 2225              		.loc 1 360 9 is_stmt 1 view .LVU659
 2226              	.LBB86:
 2227              	.LBI86:
 109:Middlewares/lvgl/src/extra/widgets/colorwheel/../../../../src/core/lv_obj_style_gen.h **** {
 2228              		.loc 3 109 26 view .LVU660
 2229              	.LBB87:
 111:Middlewares/lvgl/src/extra/widgets/colorwheel/../../../../src/core/lv_obj_style_gen.h ****     return (lv_coord_t)v.num;
 2230              		.loc 3 111 5 view .LVU661
 111:Middlewares/lvgl/src/extra/widgets/colorwheel/../../../../src/core/lv_obj_style_gen.h ****     return (lv_coord_t)v.num;
 2231              		.loc 3 111 26 is_stmt 0 view .LVU662
 2232 0076 41F21302 		movw	r2, #4115
 2233 007a 4FF44031 		mov	r1, #196608
 2234 007e 3046     		mov	r0, r6
 2235 0080 FFF7FEFF 		bl	lv_obj_get_style_prop
 2236              	.LVL220:
ARM GAS  /tmp/ccyILfU7.s 			page 83


 112:Middlewares/lvgl/src/extra/widgets/colorwheel/../../../../src/core/lv_obj_style_gen.h **** }
 2237              		.loc 3 112 5 is_stmt 1 view .LVU663
 112:Middlewares/lvgl/src/extra/widgets/colorwheel/../../../../src/core/lv_obj_style_gen.h **** }
 2238              		.loc 3 112 12 is_stmt 0 view .LVU664
 2239 0084 07B2     		sxth	r7, r0
 2240              	.LVL221:
 112:Middlewares/lvgl/src/extra/widgets/colorwheel/../../../../src/core/lv_obj_style_gen.h **** }
 2241              		.loc 3 112 12 view .LVU665
 2242              	.LBE87:
 2243              	.LBE86:
 361:Middlewares/lvgl/src/extra/widgets/colorwheel/lv_colorwheel.c ****         lv_coord_t bottom = lv_obj_get_style_pad_bottom(obj, LV_PART_KNOB);
 2244              		.loc 1 361 9 is_stmt 1 view .LVU666
 2245              	.LBB88:
 2246              	.LBI88:
  91:Middlewares/lvgl/src/extra/widgets/colorwheel/../../../../src/core/lv_obj_style_gen.h **** {
 2247              		.loc 3 91 26 view .LVU667
 2248              	.LBB89:
  93:Middlewares/lvgl/src/extra/widgets/colorwheel/../../../../src/core/lv_obj_style_gen.h ****     return (lv_coord_t)v.num;
 2249              		.loc 3 93 5 view .LVU668
  93:Middlewares/lvgl/src/extra/widgets/colorwheel/../../../../src/core/lv_obj_style_gen.h ****     return (lv_coord_t)v.num;
 2250              		.loc 3 93 26 is_stmt 0 view .LVU669
 2251 0086 41F21002 		movw	r2, #4112
 2252 008a 4FF44031 		mov	r1, #196608
 2253 008e 3046     		mov	r0, r6
 2254 0090 FFF7FEFF 		bl	lv_obj_get_style_prop
 2255              	.LVL222:
  94:Middlewares/lvgl/src/extra/widgets/colorwheel/../../../../src/core/lv_obj_style_gen.h **** }
 2256              		.loc 3 94 5 is_stmt 1 view .LVU670
  94:Middlewares/lvgl/src/extra/widgets/colorwheel/../../../../src/core/lv_obj_style_gen.h **** }
 2257              		.loc 3 94 12 is_stmt 0 view .LVU671
 2258 0094 0FFA80F9 		sxth	r9, r0
 2259              	.LVL223:
  94:Middlewares/lvgl/src/extra/widgets/colorwheel/../../../../src/core/lv_obj_style_gen.h **** }
 2260              		.loc 3 94 12 view .LVU672
 2261              	.LBE89:
 2262              	.LBE88:
 362:Middlewares/lvgl/src/extra/widgets/colorwheel/lv_colorwheel.c **** 
 2263              		.loc 1 362 9 is_stmt 1 view .LVU673
 2264              	.LBB90:
 2265              	.LBI90:
  97:Middlewares/lvgl/src/extra/widgets/colorwheel/../../../../src/core/lv_obj_style_gen.h **** {
 2266              		.loc 3 97 26 view .LVU674
 2267              	.LBB91:
  99:Middlewares/lvgl/src/extra/widgets/colorwheel/../../../../src/core/lv_obj_style_gen.h ****     return (lv_coord_t)v.num;
 2268              		.loc 3 99 5 view .LVU675
  99:Middlewares/lvgl/src/extra/widgets/colorwheel/../../../../src/core/lv_obj_style_gen.h ****     return (lv_coord_t)v.num;
 2269              		.loc 3 99 26 is_stmt 0 view .LVU676
 2270 0098 41F21102 		movw	r2, #4113
 2271 009c 4FF44031 		mov	r1, #196608
 2272 00a0 3046     		mov	r0, r6
 2273 00a2 FFF7FEFF 		bl	lv_obj_get_style_prop
 2274              	.LVL224:
 100:Middlewares/lvgl/src/extra/widgets/colorwheel/../../../../src/core/lv_obj_style_gen.h **** }
 2275              		.loc 3 100 5 is_stmt 1 view .LVU677
 100:Middlewares/lvgl/src/extra/widgets/colorwheel/../../../../src/core/lv_obj_style_gen.h **** }
 2276              		.loc 3 100 12 is_stmt 0 view .LVU678
 2277 00a6 04B2     		sxth	r4, r0
ARM GAS  /tmp/ccyILfU7.s 			page 84


 2278              	.LVL225:
 100:Middlewares/lvgl/src/extra/widgets/colorwheel/../../../../src/core/lv_obj_style_gen.h **** }
 2279              		.loc 3 100 12 view .LVU679
 2280              	.LBE91:
 2281              	.LBE90:
 364:Middlewares/lvgl/src/extra/widgets/colorwheel/lv_colorwheel.c ****         lv_coord_t * s = lv_event_get_param(e);
 2282              		.loc 1 364 9 is_stmt 1 view .LVU680
 364:Middlewares/lvgl/src/extra/widgets/colorwheel/lv_colorwheel.c ****         lv_coord_t * s = lv_event_get_param(e);
 2283              		.loc 1 364 31 is_stmt 0 view .LVU681
 2284 00a8 4C45     		cmp	r4, r9
 2285 00aa B8BF     		it	lt
 2286 00ac 4C46     		movlt	r4, r9
 2287              	.LVL226:
 364:Middlewares/lvgl/src/extra/widgets/colorwheel/lv_colorwheel.c ****         lv_coord_t * s = lv_event_get_param(e);
 2288              		.loc 1 364 31 view .LVU682
 2289 00ae 4745     		cmp	r7, r8
 2290 00b0 B8BF     		it	lt
 2291 00b2 4746     		movlt	r7, r8
 2292              	.LVL227:
 364:Middlewares/lvgl/src/extra/widgets/colorwheel/lv_colorwheel.c ****         lv_coord_t * s = lv_event_get_param(e);
 2293              		.loc 1 364 31 view .LVU683
 2294 00b4 BC42     		cmp	r4, r7
 2295 00b6 B8BF     		it	lt
 2296 00b8 3C46     		movlt	r4, r7
 2297 00ba A4B2     		uxth	r4, r4
 364:Middlewares/lvgl/src/extra/widgets/colorwheel/lv_colorwheel.c ****         lv_coord_t * s = lv_event_get_param(e);
 2298              		.loc 1 364 65 view .LVU684
 2299 00bc 0234     		adds	r4, r4, #2
 364:Middlewares/lvgl/src/extra/widgets/colorwheel/lv_colorwheel.c ****         lv_coord_t * s = lv_event_get_param(e);
 2300              		.loc 1 364 20 view .LVU685
 2301 00be 24B2     		sxth	r4, r4
 2302              	.LVL228:
 365:Middlewares/lvgl/src/extra/widgets/colorwheel/lv_colorwheel.c ****         *s = LV_MAX(*s, knob_pad);
 2303              		.loc 1 365 9 is_stmt 1 view .LVU686
 365:Middlewares/lvgl/src/extra/widgets/colorwheel/lv_colorwheel.c ****         *s = LV_MAX(*s, knob_pad);
 2304              		.loc 1 365 26 is_stmt 0 view .LVU687
 2305 00c0 2846     		mov	r0, r5
 2306              	.LVL229:
 365:Middlewares/lvgl/src/extra/widgets/colorwheel/lv_colorwheel.c ****         *s = LV_MAX(*s, knob_pad);
 2307              		.loc 1 365 26 view .LVU688
 2308 00c2 FFF7FEFF 		bl	lv_event_get_param
 2309              	.LVL230:
 366:Middlewares/lvgl/src/extra/widgets/colorwheel/lv_colorwheel.c ****     }
 2310              		.loc 1 366 9 is_stmt 1 view .LVU689
 366:Middlewares/lvgl/src/extra/widgets/colorwheel/lv_colorwheel.c ****     }
 2311              		.loc 1 366 14 is_stmt 0 view .LVU690
 2312 00c6 B0F90030 		ldrsh	r3, [r0]
 2313 00ca 9C42     		cmp	r4, r3
 2314 00cc B8BF     		it	lt
 2315 00ce 1C46     		movlt	r4, r3
 2316              	.LVL231:
 366:Middlewares/lvgl/src/extra/widgets/colorwheel/lv_colorwheel.c ****     }
 2317              		.loc 1 366 12 view .LVU691
 2318 00d0 0480     		strh	r4, [r0]	@ movhi
 2319              	.LBE83:
 2320 00d2 9EE7     		b	.L86
 2321              	.LVL232:
ARM GAS  /tmp/ccyILfU7.s 			page 85


 2322              	.L132:
 2323              	.LBB92:
 369:Middlewares/lvgl/src/extra/widgets/colorwheel/lv_colorwheel.c ****         /*Refresh extended draw area to make knob visible*/
 2324              		.loc 1 369 9 is_stmt 1 view .LVU692
 369:Middlewares/lvgl/src/extra/widgets/colorwheel/lv_colorwheel.c ****         /*Refresh extended draw area to make knob visible*/
 2325              		.loc 1 369 24 is_stmt 0 view .LVU693
 2326 00d4 2846     		mov	r0, r5
 2327              	.LVL233:
 369:Middlewares/lvgl/src/extra/widgets/colorwheel/lv_colorwheel.c ****         /*Refresh extended draw area to make knob visible*/
 2328              		.loc 1 369 24 view .LVU694
 2329 00d6 FFF7FEFF 		bl	lv_event_get_param
 2330              	.LVL234:
 2331 00da 0446     		mov	r4, r0
 2332              	.LVL235:
 371:Middlewares/lvgl/src/extra/widgets/colorwheel/lv_colorwheel.c ****            lv_obj_get_height(obj) != lv_area_get_height(param)) {
 2333              		.loc 1 371 9 is_stmt 1 view .LVU695
 371:Middlewares/lvgl/src/extra/widgets/colorwheel/lv_colorwheel.c ****            lv_obj_get_height(obj) != lv_area_get_height(param)) {
 2334              		.loc 1 371 12 is_stmt 0 view .LVU696
 2335 00dc 3046     		mov	r0, r6
 2336              	.LVL236:
 371:Middlewares/lvgl/src/extra/widgets/colorwheel/lv_colorwheel.c ****            lv_obj_get_height(obj) != lv_area_get_height(param)) {
 2337              		.loc 1 371 12 view .LVU697
 2338 00de FFF7FEFF 		bl	lv_obj_get_width
 2339              	.LVL237:
 2340              	.LBB93:
 2341              	.LBI93:
 126:Middlewares/lvgl/src/extra/widgets/colorwheel/../../../../src/hal/../misc/lv_area.h **** }
 127:Middlewares/lvgl/src/extra/widgets/colorwheel/../../../../src/hal/../misc/lv_area.h **** 
 128:Middlewares/lvgl/src/extra/widgets/colorwheel/../../../../src/hal/../misc/lv_area.h **** /**
 129:Middlewares/lvgl/src/extra/widgets/colorwheel/../../../../src/hal/../misc/lv_area.h ****  * Get the width of an area
 130:Middlewares/lvgl/src/extra/widgets/colorwheel/../../../../src/hal/../misc/lv_area.h ****  * @param area_p pointer to an area
 131:Middlewares/lvgl/src/extra/widgets/colorwheel/../../../../src/hal/../misc/lv_area.h ****  * @return the width of the area (if x1 == x2 -> width = 1)
 132:Middlewares/lvgl/src/extra/widgets/colorwheel/../../../../src/hal/../misc/lv_area.h ****  */
 133:Middlewares/lvgl/src/extra/widgets/colorwheel/../../../../src/hal/../misc/lv_area.h **** static inline lv_coord_t lv_area_get_width(const lv_area_t * area_p)
 2342              		.loc 5 133 26 is_stmt 1 view .LVU698
 2343              	.LBB94:
 134:Middlewares/lvgl/src/extra/widgets/colorwheel/../../../../src/hal/../misc/lv_area.h **** {
 135:Middlewares/lvgl/src/extra/widgets/colorwheel/../../../../src/hal/../misc/lv_area.h ****     return (lv_coord_t)(area_p->x2 - area_p->x1 + 1);
 2344              		.loc 5 135 5 view .LVU699
 2345              		.loc 5 135 31 is_stmt 0 view .LVU700
 2346 00e2 A388     		ldrh	r3, [r4, #4]
 2347              		.loc 5 135 44 view .LVU701
 2348 00e4 2288     		ldrh	r2, [r4]
 2349              		.loc 5 135 36 view .LVU702
 2350 00e6 9B1A     		subs	r3, r3, r2
 2351 00e8 9BB2     		uxth	r3, r3
 2352              		.loc 5 135 49 view .LVU703
 2353 00ea 0133     		adds	r3, r3, #1
 2354              		.loc 5 135 12 view .LVU704
 2355 00ec 1BB2     		sxth	r3, r3
 2356              	.LVL238:
 2357              		.loc 5 135 12 view .LVU705
 2358              	.LBE94:
 2359              	.LBE93:
 371:Middlewares/lvgl/src/extra/widgets/colorwheel/lv_colorwheel.c ****            lv_obj_get_height(obj) != lv_area_get_height(param)) {
 2360              		.loc 1 371 11 view .LVU706
 2361 00ee 9842     		cmp	r0, r3
ARM GAS  /tmp/ccyILfU7.s 			page 86


 2362 00f0 03D0     		beq	.L139
 2363              	.L90:
 373:Middlewares/lvgl/src/extra/widgets/colorwheel/lv_colorwheel.c ****         }
 2364              		.loc 1 373 13 is_stmt 1 view .LVU707
 2365 00f2 3046     		mov	r0, r6
 2366 00f4 FFF7FEFF 		bl	refr_knob_pos
 2367              	.LVL239:
 2368 00f8 8BE7     		b	.L86
 2369              	.L139:
 372:Middlewares/lvgl/src/extra/widgets/colorwheel/lv_colorwheel.c ****             refr_knob_pos(obj);
 2370              		.loc 1 372 12 is_stmt 0 discriminator 1 view .LVU708
 2371 00fa 3046     		mov	r0, r6
 2372 00fc FFF7FEFF 		bl	lv_obj_get_height
 2373              	.LVL240:
 2374              	.LBB95:
 2375              	.LBI95:
 136:Middlewares/lvgl/src/extra/widgets/colorwheel/../../../../src/hal/../misc/lv_area.h **** }
 137:Middlewares/lvgl/src/extra/widgets/colorwheel/../../../../src/hal/../misc/lv_area.h **** 
 138:Middlewares/lvgl/src/extra/widgets/colorwheel/../../../../src/hal/../misc/lv_area.h **** /**
 139:Middlewares/lvgl/src/extra/widgets/colorwheel/../../../../src/hal/../misc/lv_area.h ****  * Get the height of an area
 140:Middlewares/lvgl/src/extra/widgets/colorwheel/../../../../src/hal/../misc/lv_area.h ****  * @param area_p pointer to an area
 141:Middlewares/lvgl/src/extra/widgets/colorwheel/../../../../src/hal/../misc/lv_area.h ****  * @return the height of the area (if y1 == y2 -> height = 1)
 142:Middlewares/lvgl/src/extra/widgets/colorwheel/../../../../src/hal/../misc/lv_area.h ****  */
 143:Middlewares/lvgl/src/extra/widgets/colorwheel/../../../../src/hal/../misc/lv_area.h **** static inline lv_coord_t lv_area_get_height(const lv_area_t * area_p)
 2376              		.loc 5 143 26 is_stmt 1 discriminator 1 view .LVU709
 2377              	.LBB96:
 144:Middlewares/lvgl/src/extra/widgets/colorwheel/../../../../src/hal/../misc/lv_area.h **** {
 145:Middlewares/lvgl/src/extra/widgets/colorwheel/../../../../src/hal/../misc/lv_area.h ****     return (lv_coord_t)(area_p->y2 - area_p->y1 + 1);
 2378              		.loc 5 145 5 discriminator 1 view .LVU710
 2379              		.loc 5 145 31 is_stmt 0 discriminator 1 view .LVU711
 2380 0100 E388     		ldrh	r3, [r4, #6]
 2381              		.loc 5 145 44 discriminator 1 view .LVU712
 2382 0102 6288     		ldrh	r2, [r4, #2]
 2383              		.loc 5 145 36 discriminator 1 view .LVU713
 2384 0104 9B1A     		subs	r3, r3, r2
 2385 0106 9BB2     		uxth	r3, r3
 2386              		.loc 5 145 49 discriminator 1 view .LVU714
 2387 0108 0133     		adds	r3, r3, #1
 2388              		.loc 5 145 12 discriminator 1 view .LVU715
 2389 010a 1BB2     		sxth	r3, r3
 2390              	.LVL241:
 2391              		.loc 5 145 12 discriminator 1 view .LVU716
 2392              	.LBE96:
 2393              	.LBE95:
 371:Middlewares/lvgl/src/extra/widgets/colorwheel/lv_colorwheel.c ****            lv_obj_get_height(obj) != lv_area_get_height(param)) {
 2394              		.loc 1 371 62 discriminator 1 view .LVU717
 2395 010c 9842     		cmp	r0, r3
 2396 010e F0D1     		bne	.L90
 2397 0110 7FE7     		b	.L86
 2398              	.LVL242:
 2399              	.L133:
 371:Middlewares/lvgl/src/extra/widgets/colorwheel/lv_colorwheel.c ****            lv_obj_get_height(obj) != lv_area_get_height(param)) {
 2400              		.loc 1 371 62 discriminator 1 view .LVU718
 2401              	.LBE92:
 378:Middlewares/lvgl/src/extra/widgets/colorwheel/lv_colorwheel.c ****     }
 2402              		.loc 1 378 9 is_stmt 1 view .LVU719
 2403 0112 FFF7FEFF 		bl	refr_knob_pos
ARM GAS  /tmp/ccyILfU7.s 			page 87


 2404              	.LVL243:
 378:Middlewares/lvgl/src/extra/widgets/colorwheel/lv_colorwheel.c ****     }
 2405              		.loc 1 378 9 is_stmt 0 view .LVU720
 2406 0116 7CE7     		b	.L86
 2407              	.LVL244:
 2408              	.L134:
 2409              	.LBB97:
 381:Middlewares/lvgl/src/extra/widgets/colorwheel/lv_colorwheel.c **** 
 2410              		.loc 1 381 9 is_stmt 1 view .LVU721
 381:Middlewares/lvgl/src/extra/widgets/colorwheel/lv_colorwheel.c **** 
 2411              		.loc 1 381 36 is_stmt 0 view .LVU722
 2412 0118 2846     		mov	r0, r5
 2413              	.LVL245:
 381:Middlewares/lvgl/src/extra/widgets/colorwheel/lv_colorwheel.c **** 
 2414              		.loc 1 381 36 view .LVU723
 2415 011a FFF7FEFF 		bl	lv_event_get_param
 2416              	.LVL246:
 381:Middlewares/lvgl/src/extra/widgets/colorwheel/lv_colorwheel.c **** 
 2417              		.loc 1 381 18 view .LVU724
 2418 011e 0368     		ldr	r3, [r0]
 2419              	.LVL247:
 383:Middlewares/lvgl/src/extra/widgets/colorwheel/lv_colorwheel.c ****             lv_color_hsv_t hsv_cur;
 2420              		.loc 1 383 9 is_stmt 1 view .LVU725
 383:Middlewares/lvgl/src/extra/widgets/colorwheel/lv_colorwheel.c ****             lv_color_hsv_t hsv_cur;
 2421              		.loc 1 383 11 is_stmt 0 view .LVU726
 2422 0120 132B     		cmp	r3, #19
 2423 0122 1FD0     		beq	.L93
 383:Middlewares/lvgl/src/extra/widgets/colorwheel/lv_colorwheel.c ****             lv_color_hsv_t hsv_cur;
 2424              		.loc 1 383 30 discriminator 1 view .LVU727
 2425 0124 112B     		cmp	r3, #17
 2426 0126 1DD0     		beq	.L93
 404:Middlewares/lvgl/src/extra/widgets/colorwheel/lv_colorwheel.c ****             lv_color_hsv_t hsv_cur;
 2427              		.loc 1 404 14 is_stmt 1 view .LVU728
 404:Middlewares/lvgl/src/extra/widgets/colorwheel/lv_colorwheel.c ****             lv_color_hsv_t hsv_cur;
 2428              		.loc 1 404 16 is_stmt 0 view .LVU729
 2429 0128 142B     		cmp	r3, #20
 2430 012a 02D0     		beq	.L99
 404:Middlewares/lvgl/src/extra/widgets/colorwheel/lv_colorwheel.c ****             lv_color_hsv_t hsv_cur;
 2431              		.loc 1 404 34 discriminator 1 view .LVU730
 2432 012c 122B     		cmp	r3, #18
 2433 012e 7FF470AF 		bne	.L86
 2434              	.L99:
 2435              	.LBB98:
 405:Middlewares/lvgl/src/extra/widgets/colorwheel/lv_colorwheel.c ****             hsv_cur = colorwheel->hsv;
 2436              		.loc 1 405 13 is_stmt 1 view .LVU731
 406:Middlewares/lvgl/src/extra/widgets/colorwheel/lv_colorwheel.c **** 
 2437              		.loc 1 406 13 view .LVU732
 406:Middlewares/lvgl/src/extra/widgets/colorwheel/lv_colorwheel.c **** 
 2438              		.loc 1 406 21 is_stmt 0 view .LVU733
 2439 0132 736A     		ldr	r3, [r6, #36]
 2440              	.LVL248:
 406:Middlewares/lvgl/src/extra/widgets/colorwheel/lv_colorwheel.c **** 
 2441              		.loc 1 406 21 view .LVU734
 2442 0134 0193     		str	r3, [sp, #4]
 2443              	.LVL249:
 408:Middlewares/lvgl/src/extra/widgets/colorwheel/lv_colorwheel.c ****                 case LV_COLORWHEEL_MODE_HUE:
 2444              		.loc 1 408 13 is_stmt 1 view .LVU735
ARM GAS  /tmp/ccyILfU7.s 			page 88


 408:Middlewares/lvgl/src/extra/widgets/colorwheel/lv_colorwheel.c ****                 case LV_COLORWHEEL_MODE_HUE:
 2445              		.loc 1 408 30 is_stmt 0 view .LVU736
 2446 0136 96F83C30 		ldrb	r3, [r6, #60]	@ zero_extendqisi2
 2447 013a 03F00303 		and	r3, r3, #3
 408:Middlewares/lvgl/src/extra/widgets/colorwheel/lv_colorwheel.c ****                 case LV_COLORWHEEL_MODE_HUE:
 2448              		.loc 1 408 13 view .LVU737
 2449 013e 012B     		cmp	r3, #1
 2450 0140 5AD0     		beq	.L100
 2451 0142 022B     		cmp	r3, #2
 2452 0144 62D0     		beq	.L101
 2453 0146 002B     		cmp	r3, #0
 2454 0148 4CD0     		beq	.L140
 2455              	.L102:
 420:Middlewares/lvgl/src/extra/widgets/colorwheel/lv_colorwheel.c ****                 res = lv_event_send(obj, LV_EVENT_VALUE_CHANGED, NULL);
 2456              		.loc 1 420 13 is_stmt 1 view .LVU738
 420:Middlewares/lvgl/src/extra/widgets/colorwheel/lv_colorwheel.c ****                 res = lv_event_send(obj, LV_EVENT_VALUE_CHANGED, NULL);
 2457              		.loc 1 420 16 is_stmt 0 view .LVU739
 2458 014a 0199     		ldr	r1, [sp, #4]
 2459 014c 3046     		mov	r0, r6
 2460 014e FFF7FEFF 		bl	lv_colorwheel_set_hsv
 2461              	.LVL250:
 420:Middlewares/lvgl/src/extra/widgets/colorwheel/lv_colorwheel.c ****                 res = lv_event_send(obj, LV_EVENT_VALUE_CHANGED, NULL);
 2462              		.loc 1 420 15 view .LVU740
 2463 0152 0028     		cmp	r0, #0
 2464 0154 3FF45DAF 		beq	.L86
 421:Middlewares/lvgl/src/extra/widgets/colorwheel/lv_colorwheel.c ****                 if(res != LV_RES_OK) return;
 2465              		.loc 1 421 17 is_stmt 1 view .LVU741
 421:Middlewares/lvgl/src/extra/widgets/colorwheel/lv_colorwheel.c ****                 if(res != LV_RES_OK) return;
 2466              		.loc 1 421 23 is_stmt 0 view .LVU742
 2467 0158 0022     		movs	r2, #0
 2468 015a 1C21     		movs	r1, #28
 2469 015c 3046     		mov	r0, r6
 2470 015e FFF7FEFF 		bl	lv_event_send
 2471              	.LVL251:
 422:Middlewares/lvgl/src/extra/widgets/colorwheel/lv_colorwheel.c ****             }
 2472              		.loc 1 422 17 is_stmt 1 view .LVU743
 2473 0162 56E7     		b	.L86
 2474              	.LVL252:
 2475              	.L93:
 422:Middlewares/lvgl/src/extra/widgets/colorwheel/lv_colorwheel.c ****             }
 2476              		.loc 1 422 17 is_stmt 0 view .LVU744
 2477              	.LBE98:
 2478              	.LBB99:
 384:Middlewares/lvgl/src/extra/widgets/colorwheel/lv_colorwheel.c ****             hsv_cur = colorwheel->hsv;
 2479              		.loc 1 384 13 is_stmt 1 view .LVU745
 385:Middlewares/lvgl/src/extra/widgets/colorwheel/lv_colorwheel.c **** 
 2480              		.loc 1 385 13 view .LVU746
 385:Middlewares/lvgl/src/extra/widgets/colorwheel/lv_colorwheel.c **** 
 2481              		.loc 1 385 21 is_stmt 0 view .LVU747
 2482 0164 736A     		ldr	r3, [r6, #36]
 2483              	.LVL253:
 385:Middlewares/lvgl/src/extra/widgets/colorwheel/lv_colorwheel.c **** 
 2484              		.loc 1 385 21 view .LVU748
 2485 0166 0193     		str	r3, [sp, #4]
 2486              	.LVL254:
 387:Middlewares/lvgl/src/extra/widgets/colorwheel/lv_colorwheel.c ****                 case LV_COLORWHEEL_MODE_HUE:
 2487              		.loc 1 387 13 is_stmt 1 view .LVU749
ARM GAS  /tmp/ccyILfU7.s 			page 89


 387:Middlewares/lvgl/src/extra/widgets/colorwheel/lv_colorwheel.c ****                 case LV_COLORWHEEL_MODE_HUE:
 2488              		.loc 1 387 30 is_stmt 0 view .LVU750
 2489 0168 96F83C30 		ldrb	r3, [r6, #60]	@ zero_extendqisi2
 2490 016c 03F00303 		and	r3, r3, #3
 387:Middlewares/lvgl/src/extra/widgets/colorwheel/lv_colorwheel.c ****                 case LV_COLORWHEEL_MODE_HUE:
 2491              		.loc 1 387 13 view .LVU751
 2492 0170 012B     		cmp	r3, #1
 2493 0172 1DD0     		beq	.L95
 2494 0174 022B     		cmp	r3, #2
 2495 0176 28D0     		beq	.L96
 2496 0178 63B1     		cbz	r3, .L141
 2497              	.L97:
 399:Middlewares/lvgl/src/extra/widgets/colorwheel/lv_colorwheel.c ****                 res = lv_event_send(obj, LV_EVENT_VALUE_CHANGED, NULL);
 2498              		.loc 1 399 13 is_stmt 1 view .LVU752
 399:Middlewares/lvgl/src/extra/widgets/colorwheel/lv_colorwheel.c ****                 res = lv_event_send(obj, LV_EVENT_VALUE_CHANGED, NULL);
 2499              		.loc 1 399 16 is_stmt 0 view .LVU753
 2500 017a 0199     		ldr	r1, [sp, #4]
 2501 017c 3046     		mov	r0, r6
 2502 017e FFF7FEFF 		bl	lv_colorwheel_set_hsv
 2503              	.LVL255:
 399:Middlewares/lvgl/src/extra/widgets/colorwheel/lv_colorwheel.c ****                 res = lv_event_send(obj, LV_EVENT_VALUE_CHANGED, NULL);
 2504              		.loc 1 399 15 view .LVU754
 2505 0182 0028     		cmp	r0, #0
 2506 0184 3FF445AF 		beq	.L86
 400:Middlewares/lvgl/src/extra/widgets/colorwheel/lv_colorwheel.c ****                 if(res != LV_RES_OK) return;
 2507              		.loc 1 400 17 is_stmt 1 view .LVU755
 400:Middlewares/lvgl/src/extra/widgets/colorwheel/lv_colorwheel.c ****                 if(res != LV_RES_OK) return;
 2508              		.loc 1 400 23 is_stmt 0 view .LVU756
 2509 0188 0022     		movs	r2, #0
 2510 018a 1C21     		movs	r1, #28
 2511 018c 3046     		mov	r0, r6
 2512 018e FFF7FEFF 		bl	lv_event_send
 2513              	.LVL256:
 401:Middlewares/lvgl/src/extra/widgets/colorwheel/lv_colorwheel.c ****             }
 2514              		.loc 1 401 17 is_stmt 1 view .LVU757
 2515 0192 3EE7     		b	.L86
 2516              	.LVL257:
 2517              	.L141:
 389:Middlewares/lvgl/src/extra/widgets/colorwheel/lv_colorwheel.c ****                     break;
 2518              		.loc 1 389 21 view .LVU758
 389:Middlewares/lvgl/src/extra/widgets/colorwheel/lv_colorwheel.c ****                     break;
 2519              		.loc 1 389 49 is_stmt 0 view .LVU759
 2520 0194 B28C     		ldrh	r2, [r6, #36]
 389:Middlewares/lvgl/src/extra/widgets/colorwheel/lv_colorwheel.c ****                     break;
 2521              		.loc 1 389 52 view .LVU760
 2522 0196 0132     		adds	r2, r2, #1
 389:Middlewares/lvgl/src/extra/widgets/colorwheel/lv_colorwheel.c ****                     break;
 2523              		.loc 1 389 57 view .LVU761
 2524 0198 294B     		ldr	r3, .L144+4
 2525 019a 83FB0213 		smull	r1, r3, r3, r2
 2526 019e 1344     		add	r3, r3, r2
 2527 01a0 1B12     		asrs	r3, r3, #8
 2528 01a2 4FF4B471 		mov	r1, #360
 2529 01a6 01FB1323 		mls	r3, r1, r3, r2
 389:Middlewares/lvgl/src/extra/widgets/colorwheel/lv_colorwheel.c ****                     break;
 2530              		.loc 1 389 31 view .LVU762
 2531 01aa ADF80430 		strh	r3, [sp, #4]	@ movhi
ARM GAS  /tmp/ccyILfU7.s 			page 90


 390:Middlewares/lvgl/src/extra/widgets/colorwheel/lv_colorwheel.c ****                 case LV_COLORWHEEL_MODE_SATURATION:
 2532              		.loc 1 390 21 is_stmt 1 view .LVU763
 2533 01ae E4E7     		b	.L97
 2534              	.L95:
 392:Middlewares/lvgl/src/extra/widgets/colorwheel/lv_colorwheel.c ****                     break;
 2535              		.loc 1 392 21 view .LVU764
 392:Middlewares/lvgl/src/extra/widgets/colorwheel/lv_colorwheel.c ****                     break;
 2536              		.loc 1 392 49 is_stmt 0 view .LVU765
 2537 01b0 96F82620 		ldrb	r2, [r6, #38]	@ zero_extendqisi2
 392:Middlewares/lvgl/src/extra/widgets/colorwheel/lv_colorwheel.c ****                     break;
 2538              		.loc 1 392 52 view .LVU766
 2539 01b4 0132     		adds	r2, r2, #1
 392:Middlewares/lvgl/src/extra/widgets/colorwheel/lv_colorwheel.c ****                     break;
 2540              		.loc 1 392 57 view .LVU767
 2541 01b6 234B     		ldr	r3, .L144+8
 2542 01b8 83FB0213 		smull	r1, r3, r3, r2
 2543 01bc 5B11     		asrs	r3, r3, #5
 2544 01be 6421     		movs	r1, #100
 2545 01c0 01FB1323 		mls	r3, r1, r3, r2
 392:Middlewares/lvgl/src/extra/widgets/colorwheel/lv_colorwheel.c ****                     break;
 2546              		.loc 1 392 31 view .LVU768
 2547 01c4 8DF80630 		strb	r3, [sp, #6]
 393:Middlewares/lvgl/src/extra/widgets/colorwheel/lv_colorwheel.c ****                 case LV_COLORWHEEL_MODE_VALUE:
 2548              		.loc 1 393 21 is_stmt 1 view .LVU769
 2549 01c8 D7E7     		b	.L97
 2550              	.L96:
 395:Middlewares/lvgl/src/extra/widgets/colorwheel/lv_colorwheel.c ****                     break;
 2551              		.loc 1 395 21 view .LVU770
 395:Middlewares/lvgl/src/extra/widgets/colorwheel/lv_colorwheel.c ****                     break;
 2552              		.loc 1 395 49 is_stmt 0 view .LVU771
 2553 01ca 96F82720 		ldrb	r2, [r6, #39]	@ zero_extendqisi2
 395:Middlewares/lvgl/src/extra/widgets/colorwheel/lv_colorwheel.c ****                     break;
 2554              		.loc 1 395 52 view .LVU772
 2555 01ce 0132     		adds	r2, r2, #1
 395:Middlewares/lvgl/src/extra/widgets/colorwheel/lv_colorwheel.c ****                     break;
 2556              		.loc 1 395 57 view .LVU773
 2557 01d0 1C4B     		ldr	r3, .L144+8
 2558 01d2 83FB0213 		smull	r1, r3, r3, r2
 2559 01d6 5B11     		asrs	r3, r3, #5
 2560 01d8 6421     		movs	r1, #100
 2561 01da 01FB1323 		mls	r3, r1, r3, r2
 395:Middlewares/lvgl/src/extra/widgets/colorwheel/lv_colorwheel.c ****                     break;
 2562              		.loc 1 395 31 view .LVU774
 2563 01de 8DF80730 		strb	r3, [sp, #7]
 396:Middlewares/lvgl/src/extra/widgets/colorwheel/lv_colorwheel.c ****             }
 2564              		.loc 1 396 21 is_stmt 1 view .LVU775
 2565 01e2 CAE7     		b	.L97
 2566              	.L140:
 396:Middlewares/lvgl/src/extra/widgets/colorwheel/lv_colorwheel.c ****             }
 2567              		.loc 1 396 21 is_stmt 0 view .LVU776
 2568              	.LBE99:
 2569              	.LBB100:
 410:Middlewares/lvgl/src/extra/widgets/colorwheel/lv_colorwheel.c ****                     break;
 2570              		.loc 1 410 21 is_stmt 1 view .LVU777
 410:Middlewares/lvgl/src/extra/widgets/colorwheel/lv_colorwheel.c ****                     break;
 2571              		.loc 1 410 48 is_stmt 0 view .LVU778
 2572 01e4 B38C     		ldrh	r3, [r6, #36]
ARM GAS  /tmp/ccyILfU7.s 			page 91


 410:Middlewares/lvgl/src/extra/widgets/colorwheel/lv_colorwheel.c ****                     break;
 2573              		.loc 1 410 31 view .LVU779
 2574 01e6 13B1     		cbz	r3, .L124
 410:Middlewares/lvgl/src/extra/widgets/colorwheel/lv_colorwheel.c ****                     break;
 2575              		.loc 1 410 31 discriminator 1 view .LVU780
 2576 01e8 013B     		subs	r3, r3, #1
 2577 01ea 9BB2     		uxth	r3, r3
 2578 01ec 01E0     		b	.L103
 2579              	.L124:
 410:Middlewares/lvgl/src/extra/widgets/colorwheel/lv_colorwheel.c ****                     break;
 2580              		.loc 1 410 31 view .LVU781
 2581 01ee 4FF4B473 		mov	r3, #360
 2582              	.L103:
 410:Middlewares/lvgl/src/extra/widgets/colorwheel/lv_colorwheel.c ****                     break;
 2583              		.loc 1 410 31 discriminator 4 view .LVU782
 2584 01f2 ADF80430 		strh	r3, [sp, #4]	@ movhi
 411:Middlewares/lvgl/src/extra/widgets/colorwheel/lv_colorwheel.c ****                 case LV_COLORWHEEL_MODE_SATURATION:
 2585              		.loc 1 411 21 is_stmt 1 discriminator 4 view .LVU783
 2586 01f6 A8E7     		b	.L102
 2587              	.L100:
 413:Middlewares/lvgl/src/extra/widgets/colorwheel/lv_colorwheel.c ****                     break;
 2588              		.loc 1 413 21 view .LVU784
 413:Middlewares/lvgl/src/extra/widgets/colorwheel/lv_colorwheel.c ****                     break;
 2589              		.loc 1 413 48 is_stmt 0 view .LVU785
 2590 01f8 96F82630 		ldrb	r3, [r6, #38]	@ zero_extendqisi2
 413:Middlewares/lvgl/src/extra/widgets/colorwheel/lv_colorwheel.c ****                     break;
 2591              		.loc 1 413 31 view .LVU786
 2592 01fc 13B1     		cbz	r3, .L125
 413:Middlewares/lvgl/src/extra/widgets/colorwheel/lv_colorwheel.c ****                     break;
 2593              		.loc 1 413 31 discriminator 1 view .LVU787
 2594 01fe 013B     		subs	r3, r3, #1
 2595 0200 DBB2     		uxtb	r3, r3
 2596 0202 00E0     		b	.L104
 2597              	.L125:
 413:Middlewares/lvgl/src/extra/widgets/colorwheel/lv_colorwheel.c ****                     break;
 2598              		.loc 1 413 31 view .LVU788
 2599 0204 6423     		movs	r3, #100
 2600              	.L104:
 413:Middlewares/lvgl/src/extra/widgets/colorwheel/lv_colorwheel.c ****                     break;
 2601              		.loc 1 413 31 discriminator 4 view .LVU789
 2602 0206 8DF80630 		strb	r3, [sp, #6]
 414:Middlewares/lvgl/src/extra/widgets/colorwheel/lv_colorwheel.c ****                 case LV_COLORWHEEL_MODE_VALUE:
 2603              		.loc 1 414 21 is_stmt 1 discriminator 4 view .LVU790
 2604 020a 9EE7     		b	.L102
 2605              	.L101:
 416:Middlewares/lvgl/src/extra/widgets/colorwheel/lv_colorwheel.c ****                     break;
 2606              		.loc 1 416 21 view .LVU791
 416:Middlewares/lvgl/src/extra/widgets/colorwheel/lv_colorwheel.c ****                     break;
 2607              		.loc 1 416 48 is_stmt 0 view .LVU792
 2608 020c 96F82730 		ldrb	r3, [r6, #39]	@ zero_extendqisi2
 416:Middlewares/lvgl/src/extra/widgets/colorwheel/lv_colorwheel.c ****                     break;
 2609              		.loc 1 416 31 view .LVU793
 2610 0210 13B1     		cbz	r3, .L126
 416:Middlewares/lvgl/src/extra/widgets/colorwheel/lv_colorwheel.c ****                     break;
 2611              		.loc 1 416 31 discriminator 1 view .LVU794
 2612 0212 013B     		subs	r3, r3, #1
 2613 0214 DBB2     		uxtb	r3, r3
ARM GAS  /tmp/ccyILfU7.s 			page 92


 2614 0216 00E0     		b	.L105
 2615              	.L126:
 416:Middlewares/lvgl/src/extra/widgets/colorwheel/lv_colorwheel.c ****                     break;
 2616              		.loc 1 416 31 view .LVU795
 2617 0218 6423     		movs	r3, #100
 2618              	.L105:
 416:Middlewares/lvgl/src/extra/widgets/colorwheel/lv_colorwheel.c ****                     break;
 2619              		.loc 1 416 31 discriminator 4 view .LVU796
 2620 021a 8DF80730 		strb	r3, [sp, #7]
 417:Middlewares/lvgl/src/extra/widgets/colorwheel/lv_colorwheel.c ****             }
 2621              		.loc 1 417 21 is_stmt 1 discriminator 4 view .LVU797
 2622 021e 94E7     		b	.L102
 2623              	.LVL258:
 2624              	.L135:
 417:Middlewares/lvgl/src/extra/widgets/colorwheel/lv_colorwheel.c ****             }
 2625              		.loc 1 417 21 is_stmt 0 discriminator 4 view .LVU798
 2626              	.LBE100:
 2627              	.LBE97:
 427:Middlewares/lvgl/src/extra/widgets/colorwheel/lv_colorwheel.c ****         lv_indev_get_point(lv_indev_get_act(), &colorwheel->last_press_point);
 2628              		.loc 1 427 9 is_stmt 1 view .LVU799
 427:Middlewares/lvgl/src/extra/widgets/colorwheel/lv_colorwheel.c ****         lv_indev_get_point(lv_indev_get_act(), &colorwheel->last_press_point);
 2629              		.loc 1 427 40 is_stmt 0 view .LVU800
 2630 0220 FFF7FEFF 		bl	lv_tick_get
 2631              	.LVL259:
 427:Middlewares/lvgl/src/extra/widgets/colorwheel/lv_colorwheel.c ****         lv_indev_get_point(lv_indev_get_act(), &colorwheel->last_press_point);
 2632              		.loc 1 427 38 view .LVU801
 2633 0224 7063     		str	r0, [r6, #52]
 428:Middlewares/lvgl/src/extra/widgets/colorwheel/lv_colorwheel.c ****         res = double_click_reset(obj);
 2634              		.loc 1 428 9 is_stmt 1 view .LVU802
 428:Middlewares/lvgl/src/extra/widgets/colorwheel/lv_colorwheel.c ****         res = double_click_reset(obj);
 2635              		.loc 1 428 28 is_stmt 0 view .LVU803
 2636 0226 FFF7FEFF 		bl	lv_indev_get_act
 2637              	.LVL260:
 428:Middlewares/lvgl/src/extra/widgets/colorwheel/lv_colorwheel.c ****         res = double_click_reset(obj);
 2638              		.loc 1 428 9 view .LVU804
 2639 022a 06F13801 		add	r1, r6, #56
 2640 022e FFF7FEFF 		bl	lv_indev_get_point
 2641              	.LVL261:
 429:Middlewares/lvgl/src/extra/widgets/colorwheel/lv_colorwheel.c ****         if(res != LV_RES_OK) return;
 2642              		.loc 1 429 9 is_stmt 1 view .LVU805
 429:Middlewares/lvgl/src/extra/widgets/colorwheel/lv_colorwheel.c ****         if(res != LV_RES_OK) return;
 2643              		.loc 1 429 15 is_stmt 0 view .LVU806
 2644 0232 3046     		mov	r0, r6
 2645 0234 FFF7FEFF 		bl	double_click_reset
 2646              	.LVL262:
 430:Middlewares/lvgl/src/extra/widgets/colorwheel/lv_colorwheel.c ****     }
 2647              		.loc 1 430 9 is_stmt 1 view .LVU807
 2648 0238 EBE6     		b	.L86
 2649              	.L145:
 2650 023a 00BF     		.align	2
 2651              	.L144:
 2652 023c 00000000 		.word	.LANCHOR5
 2653 0240 B7600BB6 		.word	-1240768329
 2654 0244 1F85EB51 		.word	1374389535
 2655              	.LVL263:
 2656              	.L136:
 2657              	.LBB101:
ARM GAS  /tmp/ccyILfU7.s 			page 93


 433:Middlewares/lvgl/src/extra/widgets/colorwheel/lv_colorwheel.c ****         if(indev == NULL) return;
 2658              		.loc 1 433 9 view .LVU808
 433:Middlewares/lvgl/src/extra/widgets/colorwheel/lv_colorwheel.c ****         if(indev == NULL) return;
 2659              		.loc 1 433 30 is_stmt 0 view .LVU809
 2660 0248 FFF7FEFF 		bl	lv_indev_get_act
 2661              	.LVL264:
 434:Middlewares/lvgl/src/extra/widgets/colorwheel/lv_colorwheel.c **** 
 2662              		.loc 1 434 9 is_stmt 1 view .LVU810
 434:Middlewares/lvgl/src/extra/widgets/colorwheel/lv_colorwheel.c **** 
 2663              		.loc 1 434 11 is_stmt 0 view .LVU811
 2664 024c 0446     		mov	r4, r0
 2665              	.LVL265:
 434:Middlewares/lvgl/src/extra/widgets/colorwheel/lv_colorwheel.c **** 
 2666              		.loc 1 434 11 view .LVU812
 2667 024e 0028     		cmp	r0, #0
 2668 0250 3FF4DFAE 		beq	.L86
 436:Middlewares/lvgl/src/extra/widgets/colorwheel/lv_colorwheel.c ****         lv_point_t p;
 2669              		.loc 1 436 9 is_stmt 1 view .LVU813
 436:Middlewares/lvgl/src/extra/widgets/colorwheel/lv_colorwheel.c ****         lv_point_t p;
 2670              		.loc 1 436 38 is_stmt 0 view .LVU814
 2671 0254 FFF7FEFF 		bl	lv_indev_get_type
 2672              	.LVL266:
 437:Middlewares/lvgl/src/extra/widgets/colorwheel/lv_colorwheel.c ****         if(indev_type == LV_INDEV_TYPE_ENCODER || indev_type == LV_INDEV_TYPE_KEYPAD) {
 2673              		.loc 1 437 9 is_stmt 1 view .LVU815
 438:Middlewares/lvgl/src/extra/widgets/colorwheel/lv_colorwheel.c ****             p.x = obj->coords.x1 + lv_obj_get_width(obj) / 2;
 2674              		.loc 1 438 9 view .LVU816
 438:Middlewares/lvgl/src/extra/widgets/colorwheel/lv_colorwheel.c ****             p.x = obj->coords.x1 + lv_obj_get_width(obj) / 2;
 2675              		.loc 1 438 11 is_stmt 0 view .LVU817
 2676 0258 0428     		cmp	r0, #4
 2677 025a 02D0     		beq	.L110
 438:Middlewares/lvgl/src/extra/widgets/colorwheel/lv_colorwheel.c ****             p.x = obj->coords.x1 + lv_obj_get_width(obj) / 2;
 2678              		.loc 1 438 48 discriminator 1 view .LVU818
 2679 025c 0228     		cmp	r0, #2
 2680 025e 40F0A880 		bne	.L111
 2681              	.L110:
 439:Middlewares/lvgl/src/extra/widgets/colorwheel/lv_colorwheel.c ****             p.y = obj->coords.y1 + lv_obj_get_height(obj) / 2;
 2682              		.loc 1 439 13 is_stmt 1 view .LVU819
 439:Middlewares/lvgl/src/extra/widgets/colorwheel/lv_colorwheel.c ****             p.y = obj->coords.y1 + lv_obj_get_height(obj) / 2;
 2683              		.loc 1 439 30 is_stmt 0 view .LVU820
 2684 0262 B58A     		ldrh	r5, [r6, #20]
 2685              	.LVL267:
 439:Middlewares/lvgl/src/extra/widgets/colorwheel/lv_colorwheel.c ****             p.y = obj->coords.y1 + lv_obj_get_height(obj) / 2;
 2686              		.loc 1 439 36 view .LVU821
 2687 0264 3046     		mov	r0, r6
 2688              	.LVL268:
 439:Middlewares/lvgl/src/extra/widgets/colorwheel/lv_colorwheel.c ****             p.y = obj->coords.y1 + lv_obj_get_height(obj) / 2;
 2689              		.loc 1 439 36 view .LVU822
 2690 0266 FFF7FEFF 		bl	lv_obj_get_width
 2691              	.LVL269:
 439:Middlewares/lvgl/src/extra/widgets/colorwheel/lv_colorwheel.c ****             p.y = obj->coords.y1 + lv_obj_get_height(obj) / 2;
 2692              		.loc 1 439 34 view .LVU823
 2693 026a 00EBD070 		add	r0, r0, r0, lsr #31
 2694 026e 05EB6000 		add	r0, r5, r0, asr #1
 439:Middlewares/lvgl/src/extra/widgets/colorwheel/lv_colorwheel.c ****             p.y = obj->coords.y1 + lv_obj_get_height(obj) / 2;
 2695              		.loc 1 439 17 view .LVU824
 2696 0272 ADF80000 		strh	r0, [sp]	@ movhi
 440:Middlewares/lvgl/src/extra/widgets/colorwheel/lv_colorwheel.c ****         }
ARM GAS  /tmp/ccyILfU7.s 			page 94


 2697              		.loc 1 440 13 is_stmt 1 view .LVU825
 440:Middlewares/lvgl/src/extra/widgets/colorwheel/lv_colorwheel.c ****         }
 2698              		.loc 1 440 30 is_stmt 0 view .LVU826
 2699 0276 F58A     		ldrh	r5, [r6, #22]
 440:Middlewares/lvgl/src/extra/widgets/colorwheel/lv_colorwheel.c ****         }
 2700              		.loc 1 440 36 view .LVU827
 2701 0278 3046     		mov	r0, r6
 2702 027a FFF7FEFF 		bl	lv_obj_get_height
 2703              	.LVL270:
 440:Middlewares/lvgl/src/extra/widgets/colorwheel/lv_colorwheel.c ****         }
 2704              		.loc 1 440 34 view .LVU828
 2705 027e 00EBD070 		add	r0, r0, r0, lsr #31
 2706 0282 05EB6000 		add	r0, r5, r0, asr #1
 440:Middlewares/lvgl/src/extra/widgets/colorwheel/lv_colorwheel.c ****         }
 2707              		.loc 1 440 17 view .LVU829
 2708 0286 ADF80200 		strh	r0, [sp, #2]	@ movhi
 2709              	.L112:
 446:Middlewares/lvgl/src/extra/widgets/colorwheel/lv_colorwheel.c ****         if((LV_ABS(p.x - colorwheel->last_press_point.x) > drag_limit) ||
 2710              		.loc 1 446 9 is_stmt 1 view .LVU830
 446:Middlewares/lvgl/src/extra/widgets/colorwheel/lv_colorwheel.c ****         if((LV_ABS(p.x - colorwheel->last_press_point.x) > drag_limit) ||
 2711              		.loc 1 446 38 is_stmt 0 view .LVU831
 2712 028a 2368     		ldr	r3, [r4]
 446:Middlewares/lvgl/src/extra/widgets/colorwheel/lv_colorwheel.c ****         if((LV_ABS(p.x - colorwheel->last_press_point.x) > drag_limit) ||
 2713              		.loc 1 446 46 view .LVU832
 2714 028c 1A7E     		ldrb	r2, [r3, #24]	@ zero_extendqisi2
 2715              	.LVL271:
 447:Middlewares/lvgl/src/extra/widgets/colorwheel/lv_colorwheel.c ****            (LV_ABS(p.y - colorwheel->last_press_point.y) > drag_limit)) {
 2716              		.loc 1 447 9 is_stmt 1 view .LVU833
 447:Middlewares/lvgl/src/extra/widgets/colorwheel/lv_colorwheel.c ****            (LV_ABS(p.y - colorwheel->last_press_point.y) > drag_limit)) {
 2717              		.loc 1 447 13 is_stmt 0 view .LVU834
 2718 028e BDF90030 		ldrsh	r3, [sp]
 2719 0292 B6F93810 		ldrsh	r1, [r6, #56]
 2720 0296 5B1A     		subs	r3, r3, r1
 2721 0298 002B     		cmp	r3, #0
 2722 029a B8BF     		it	lt
 2723 029c 5B42     		rsblt	r3, r3, #0
 447:Middlewares/lvgl/src/extra/widgets/colorwheel/lv_colorwheel.c ****            (LV_ABS(p.y - colorwheel->last_press_point.y) > drag_limit)) {
 2724              		.loc 1 447 11 view .LVU835
 2725 029e 9342     		cmp	r3, r2
 2726 02a0 09DC     		bgt	.L113
 448:Middlewares/lvgl/src/extra/widgets/colorwheel/lv_colorwheel.c ****             colorwheel->last_change_time = lv_tick_get();
 2727              		.loc 1 448 13 discriminator 1 view .LVU836
 2728 02a2 BDF90230 		ldrsh	r3, [sp, #2]
 2729 02a6 B6F93A10 		ldrsh	r1, [r6, #58]
 2730 02aa 5B1A     		subs	r3, r3, r1
 2731 02ac 002B     		cmp	r3, #0
 2732 02ae B8BF     		it	lt
 2733 02b0 5B42     		rsblt	r3, r3, #0
 447:Middlewares/lvgl/src/extra/widgets/colorwheel/lv_colorwheel.c ****            (LV_ABS(p.y - colorwheel->last_press_point.y) > drag_limit)) {
 2734              		.loc 1 447 72 discriminator 1 view .LVU837
 2735 02b2 9A42     		cmp	r2, r3
 2736 02b4 08DA     		bge	.L114
 2737              	.L113:
 449:Middlewares/lvgl/src/extra/widgets/colorwheel/lv_colorwheel.c ****             colorwheel->last_press_point.x = p.x;
 2738              		.loc 1 449 13 is_stmt 1 view .LVU838
 449:Middlewares/lvgl/src/extra/widgets/colorwheel/lv_colorwheel.c ****             colorwheel->last_press_point.x = p.x;
 2739              		.loc 1 449 44 is_stmt 0 view .LVU839
ARM GAS  /tmp/ccyILfU7.s 			page 95


 2740 02b6 FFF7FEFF 		bl	lv_tick_get
 2741              	.LVL272:
 449:Middlewares/lvgl/src/extra/widgets/colorwheel/lv_colorwheel.c ****             colorwheel->last_press_point.x = p.x;
 2742              		.loc 1 449 42 view .LVU840
 2743 02ba 7063     		str	r0, [r6, #52]
 450:Middlewares/lvgl/src/extra/widgets/colorwheel/lv_colorwheel.c ****             colorwheel->last_press_point.y = p.y;
 2744              		.loc 1 450 13 is_stmt 1 view .LVU841
 450:Middlewares/lvgl/src/extra/widgets/colorwheel/lv_colorwheel.c ****             colorwheel->last_press_point.y = p.y;
 2745              		.loc 1 450 47 is_stmt 0 view .LVU842
 2746 02bc BDF90030 		ldrsh	r3, [sp]
 450:Middlewares/lvgl/src/extra/widgets/colorwheel/lv_colorwheel.c ****             colorwheel->last_press_point.y = p.y;
 2747              		.loc 1 450 44 view .LVU843
 2748 02c0 3387     		strh	r3, [r6, #56]	@ movhi
 451:Middlewares/lvgl/src/extra/widgets/colorwheel/lv_colorwheel.c ****         }
 2749              		.loc 1 451 13 is_stmt 1 view .LVU844
 451:Middlewares/lvgl/src/extra/widgets/colorwheel/lv_colorwheel.c ****         }
 2750              		.loc 1 451 47 is_stmt 0 view .LVU845
 2751 02c2 BDF90230 		ldrsh	r3, [sp, #2]
 451:Middlewares/lvgl/src/extra/widgets/colorwheel/lv_colorwheel.c ****         }
 2752              		.loc 1 451 44 view .LVU846
 2753 02c6 7387     		strh	r3, [r6, #58]	@ movhi
 2754              	.L114:
 454:Middlewares/lvgl/src/extra/widgets/colorwheel/lv_colorwheel.c ****         p.y -= obj->coords.y1;
 2755              		.loc 1 454 9 is_stmt 1 view .LVU847
 454:Middlewares/lvgl/src/extra/widgets/colorwheel/lv_colorwheel.c ****         p.y -= obj->coords.y1;
 2756              		.loc 1 454 27 is_stmt 0 view .LVU848
 2757 02c8 B28A     		ldrh	r2, [r6, #20]
 454:Middlewares/lvgl/src/extra/widgets/colorwheel/lv_colorwheel.c ****         p.y -= obj->coords.y1;
 2758              		.loc 1 454 13 view .LVU849
 2759 02ca BDF80030 		ldrh	r3, [sp]
 2760 02ce 9B1A     		subs	r3, r3, r2
 2761 02d0 ADF80030 		strh	r3, [sp]	@ movhi
 455:Middlewares/lvgl/src/extra/widgets/colorwheel/lv_colorwheel.c **** 
 2762              		.loc 1 455 9 is_stmt 1 view .LVU850
 455:Middlewares/lvgl/src/extra/widgets/colorwheel/lv_colorwheel.c **** 
 2763              		.loc 1 455 27 is_stmt 0 view .LVU851
 2764 02d4 F28A     		ldrh	r2, [r6, #22]
 455:Middlewares/lvgl/src/extra/widgets/colorwheel/lv_colorwheel.c **** 
 2765              		.loc 1 455 13 view .LVU852
 2766 02d6 BDF80230 		ldrh	r3, [sp, #2]
 2767 02da 9B1A     		subs	r3, r3, r2
 2768 02dc ADF80230 		strh	r3, [sp, #2]	@ movhi
 458:Middlewares/lvgl/src/extra/widgets/colorwheel/lv_colorwheel.c **** 
 2769              		.loc 1 458 9 is_stmt 1 view .LVU853
 458:Middlewares/lvgl/src/extra/widgets/colorwheel/lv_colorwheel.c **** 
 2770              		.loc 1 458 22 is_stmt 0 view .LVU854
 2771 02e0 3046     		mov	r0, r6
 2772 02e2 FFF7FEFF 		bl	lv_obj_get_width
 2773              	.LVL273:
 458:Middlewares/lvgl/src/extra/widgets/colorwheel/lv_colorwheel.c **** 
 2774              		.loc 1 458 18 view .LVU855
 2775 02e6 85B2     		uxth	r5, r0
 2776              	.LVL274:
 460:Middlewares/lvgl/src/extra/widgets/colorwheel/lv_colorwheel.c ****         lv_coord_t cir_w = lv_obj_get_style_arc_width(obj, LV_PART_MAIN);
 2777              		.loc 1 460 9 is_stmt 1 view .LVU856
 461:Middlewares/lvgl/src/extra/widgets/colorwheel/lv_colorwheel.c **** 
 2778              		.loc 1 461 9 view .LVU857
ARM GAS  /tmp/ccyILfU7.s 			page 96


 2779              	.LBB102:
 2780              	.LBI102:
 499:Middlewares/lvgl/src/extra/widgets/colorwheel/../../../../src/core/lv_obj_style_gen.h **** {
 2781              		.loc 3 499 26 view .LVU858
 2782              	.LBB103:
 501:Middlewares/lvgl/src/extra/widgets/colorwheel/../../../../src/core/lv_obj_style_gen.h ****     return (lv_coord_t)v.num;
 2783              		.loc 3 501 5 view .LVU859
 501:Middlewares/lvgl/src/extra/widgets/colorwheel/../../../../src/core/lv_obj_style_gen.h ****     return (lv_coord_t)v.num;
 2784              		.loc 3 501 26 is_stmt 0 view .LVU860
 2785 02e8 4FF40562 		mov	r2, #2128
 2786 02ec 0021     		movs	r1, #0
 2787 02ee 3046     		mov	r0, r6
 2788 02f0 FFF7FEFF 		bl	lv_obj_get_style_prop
 2789              	.LVL275:
 2790              		.loc 3 502 5 is_stmt 1 view .LVU861
 2791              		.loc 3 502 12 is_stmt 0 view .LVU862
 2792 02f4 07B2     		sxth	r7, r0
 2793              	.LVL276:
 2794              		.loc 3 502 12 view .LVU863
 2795              	.LBE103:
 2796              	.LBE102:
 463:Middlewares/lvgl/src/extra/widgets/colorwheel/lv_colorwheel.c ****         p.x -= r_in;
 2797              		.loc 1 463 9 is_stmt 1 view .LVU864
 464:Middlewares/lvgl/src/extra/widgets/colorwheel/lv_colorwheel.c ****         p.y -= r_in;
 2798              		.loc 1 464 9 view .LVU865
 464:Middlewares/lvgl/src/extra/widgets/colorwheel/lv_colorwheel.c ****         p.y -= r_in;
 2799              		.loc 1 464 13 is_stmt 0 view .LVU866
 2800 02f6 BDF80020 		ldrh	r2, [sp]
 2801 02fa A2EB5502 		sub	r2, r2, r5, lsr #1
 2802 02fe 12B2     		sxth	r2, r2
 2803 0300 ADF80020 		strh	r2, [sp]	@ movhi
 465:Middlewares/lvgl/src/extra/widgets/colorwheel/lv_colorwheel.c ****         bool on_ring = true;
 2804              		.loc 1 465 9 is_stmt 1 view .LVU867
 465:Middlewares/lvgl/src/extra/widgets/colorwheel/lv_colorwheel.c ****         bool on_ring = true;
 2805              		.loc 1 465 13 is_stmt 0 view .LVU868
 2806 0304 BDF80210 		ldrh	r1, [sp, #2]
 2807 0308 A1EB5501 		sub	r1, r1, r5, lsr #1
 2808 030c 09B2     		sxth	r1, r1
 2809 030e ADF80210 		strh	r1, [sp, #2]	@ movhi
 466:Middlewares/lvgl/src/extra/widgets/colorwheel/lv_colorwheel.c ****         r_in -= cir_w;
 2810              		.loc 1 466 9 is_stmt 1 view .LVU869
 2811              	.LVL277:
 467:Middlewares/lvgl/src/extra/widgets/colorwheel/lv_colorwheel.c ****         if(r_in > LV_DPI_DEF / 2) {
 2812              		.loc 1 467 9 view .LVU870
 467:Middlewares/lvgl/src/extra/widgets/colorwheel/lv_colorwheel.c ****         if(r_in > LV_DPI_DEF / 2) {
 2813              		.loc 1 467 14 is_stmt 0 view .LVU871
 2814 0312 C0EB5503 		rsb	r3, r0, r5, lsr #1
 2815 0316 98B2     		uxth	r0, r3
 467:Middlewares/lvgl/src/extra/widgets/colorwheel/lv_colorwheel.c ****         if(r_in > LV_DPI_DEF / 2) {
 2816              		.loc 1 467 14 view .LVU872
 2817 0318 1BB2     		sxth	r3, r3
 2818              	.LVL278:
 468:Middlewares/lvgl/src/extra/widgets/colorwheel/lv_colorwheel.c ****             lv_coord_t inner = cir_w / 2;
 2819              		.loc 1 468 9 is_stmt 1 view .LVU873
 468:Middlewares/lvgl/src/extra/widgets/colorwheel/lv_colorwheel.c ****             lv_coord_t inner = cir_w / 2;
 2820              		.loc 1 468 11 is_stmt 0 view .LVU874
 2821 031a 412B     		cmp	r3, #65
ARM GAS  /tmp/ccyILfU7.s 			page 97


 2822 031c 07DD     		ble	.L115
 2823              	.LBB104:
 469:Middlewares/lvgl/src/extra/widgets/colorwheel/lv_colorwheel.c ****             r_in -= inner;
 2824              		.loc 1 469 13 is_stmt 1 view .LVU875
 469:Middlewares/lvgl/src/extra/widgets/colorwheel/lv_colorwheel.c ****             r_in -= inner;
 2825              		.loc 1 469 24 is_stmt 0 view .LVU876
 2826 031e 07EBD777 		add	r7, r7, r7, lsr #31
 2827              	.LVL279:
 470:Middlewares/lvgl/src/extra/widgets/colorwheel/lv_colorwheel.c **** 
 2828              		.loc 1 470 13 is_stmt 1 view .LVU877
 470:Middlewares/lvgl/src/extra/widgets/colorwheel/lv_colorwheel.c **** 
 2829              		.loc 1 470 18 is_stmt 0 view .LVU878
 2830 0322 A0EB6707 		sub	r7, r0, r7, asr #1
 2831              	.LVL280:
 470:Middlewares/lvgl/src/extra/widgets/colorwheel/lv_colorwheel.c **** 
 2832              		.loc 1 470 18 view .LVU879
 2833 0326 3BB2     		sxth	r3, r7
 2834              	.LVL281:
 472:Middlewares/lvgl/src/extra/widgets/colorwheel/lv_colorwheel.c ****         }
 2835              		.loc 1 472 13 is_stmt 1 view .LVU880
 472:Middlewares/lvgl/src/extra/widgets/colorwheel/lv_colorwheel.c ****         }
 2836              		.loc 1 472 15 is_stmt 0 view .LVU881
 2837 0328 402B     		cmp	r3, #64
 2838 032a 00DC     		bgt	.L115
 472:Middlewares/lvgl/src/extra/widgets/colorwheel/lv_colorwheel.c ****         }
 2839              		.loc 1 472 44 view .LVU882
 2840 032c 4123     		movs	r3, #65
 2841              	.LVL282:
 2842              	.L115:
 472:Middlewares/lvgl/src/extra/widgets/colorwheel/lv_colorwheel.c ****         }
 2843              		.loc 1 472 44 view .LVU883
 2844              	.LBE104:
 475:Middlewares/lvgl/src/extra/widgets/colorwheel/lv_colorwheel.c ****             on_ring = false;
 2845              		.loc 1 475 9 is_stmt 1 view .LVU884
 475:Middlewares/lvgl/src/extra/widgets/colorwheel/lv_colorwheel.c ****             on_ring = false;
 2846              		.loc 1 475 28 is_stmt 0 view .LVU885
 2847 032e 01FB01F1 		mul	r1, r1, r1
 475:Middlewares/lvgl/src/extra/widgets/colorwheel/lv_colorwheel.c ****             on_ring = false;
 2848              		.loc 1 475 22 view .LVU886
 2849 0332 02FB0212 		mla	r2, r2, r2, r1
 475:Middlewares/lvgl/src/extra/widgets/colorwheel/lv_colorwheel.c ****             on_ring = false;
 2850              		.loc 1 475 41 view .LVU887
 2851 0336 03FB03F3 		mul	r3, r3, r3
 2852              	.LVL283:
 475:Middlewares/lvgl/src/extra/widgets/colorwheel/lv_colorwheel.c ****             on_ring = false;
 2853              		.loc 1 475 11 view .LVU888
 2854 033a 9A42     		cmp	r2, r3
 2855 033c 3EDB     		blt	.L128
 466:Middlewares/lvgl/src/extra/widgets/colorwheel/lv_colorwheel.c ****         r_in -= cir_w;
 2856              		.loc 1 466 14 view .LVU889
 2857 033e 0125     		movs	r5, #1
 2858              	.LVL284:
 2859              	.L116:
 480:Middlewares/lvgl/src/extra/widgets/colorwheel/lv_colorwheel.c ****         if(!on_ring && diff > indev->driver->long_press_time && !colorwheel->mode_fixed) {
 2860              		.loc 1 480 9 is_stmt 1 view .LVU890
 480:Middlewares/lvgl/src/extra/widgets/colorwheel/lv_colorwheel.c ****         if(!on_ring && diff > indev->driver->long_press_time && !colorwheel->mode_fixed) {
 2861              		.loc 1 480 25 is_stmt 0 view .LVU891
ARM GAS  /tmp/ccyILfU7.s 			page 98


 2862 0340 706B     		ldr	r0, [r6, #52]
 2863 0342 FFF7FEFF 		bl	lv_tick_elaps
 2864              	.LVL285:
 481:Middlewares/lvgl/src/extra/widgets/colorwheel/lv_colorwheel.c ****             next_color_mode(obj);
 2865              		.loc 1 481 9 is_stmt 1 view .LVU892
 481:Middlewares/lvgl/src/extra/widgets/colorwheel/lv_colorwheel.c ****             next_color_mode(obj);
 2866              		.loc 1 481 11 is_stmt 0 view .LVU893
 2867 0346 45B9     		cbnz	r5, .L117
 481:Middlewares/lvgl/src/extra/widgets/colorwheel/lv_colorwheel.c ****             next_color_mode(obj);
 2868              		.loc 1 481 36 discriminator 1 view .LVU894
 2869 0348 2368     		ldr	r3, [r4]
 481:Middlewares/lvgl/src/extra/widgets/colorwheel/lv_colorwheel.c ****             next_color_mode(obj);
 2870              		.loc 1 481 44 discriminator 1 view .LVU895
 2871 034a 9B8B     		ldrh	r3, [r3, #28]
 481:Middlewares/lvgl/src/extra/widgets/colorwheel/lv_colorwheel.c ****             next_color_mode(obj);
 2872              		.loc 1 481 21 discriminator 1 view .LVU896
 2873 034c 8342     		cmp	r3, r0
 2874 034e 04D2     		bcs	.L117
 481:Middlewares/lvgl/src/extra/widgets/colorwheel/lv_colorwheel.c ****             next_color_mode(obj);
 2875              		.loc 1 481 65 discriminator 2 view .LVU897
 2876 0350 96F83C30 		ldrb	r3, [r6, #60]	@ zero_extendqisi2
 481:Middlewares/lvgl/src/extra/widgets/colorwheel/lv_colorwheel.c ****             next_color_mode(obj);
 2877              		.loc 1 481 62 discriminator 2 view .LVU898
 2878 0354 13F0040F 		tst	r3, #4
 2879 0358 32D0     		beq	.L142
 2880              	.L117:
 488:Middlewares/lvgl/src/extra/widgets/colorwheel/lv_colorwheel.c **** 
 2881              		.loc 1 488 9 is_stmt 1 view .LVU899
 488:Middlewares/lvgl/src/extra/widgets/colorwheel/lv_colorwheel.c **** 
 2882              		.loc 1 488 11 is_stmt 0 view .LVU900
 2883 035a 002D     		cmp	r5, #0
 2884 035c 3FF459AE 		beq	.L86
 490:Middlewares/lvgl/src/extra/widgets/colorwheel/lv_colorwheel.c **** 
 2885              		.loc 1 490 9 is_stmt 1 view .LVU901
 490:Middlewares/lvgl/src/extra/widgets/colorwheel/lv_colorwheel.c **** 
 2886              		.loc 1 490 17 is_stmt 0 view .LVU902
 2887 0360 BDF90210 		ldrsh	r1, [sp, #2]
 2888 0364 BDF90000 		ldrsh	r0, [sp]
 2889              	.LVL286:
 490:Middlewares/lvgl/src/extra/widgets/colorwheel/lv_colorwheel.c **** 
 2890              		.loc 1 490 17 view .LVU903
 2891 0368 FFF7FEFF 		bl	lv_atan2
 2892              	.LVL287:
 490:Middlewares/lvgl/src/extra/widgets/colorwheel/lv_colorwheel.c **** 
 2893              		.loc 1 490 15 view .LVU904
 2894 036c C308     		lsrs	r3, r0, #3
 2895 036e 314A     		ldr	r2, .L146
 2896 0370 A2FB0323 		umull	r2, r3, r2, r3
 2897 0374 9B08     		lsrs	r3, r3, #2
 2898 0376 4FF4B472 		mov	r2, #360
 2899 037a 02FB1303 		mls	r3, r2, r3, r0
 2900 037e 99B2     		uxth	r1, r3
 2901 0380 1BB2     		sxth	r3, r3
 2902              	.LVL288:
 492:Middlewares/lvgl/src/extra/widgets/colorwheel/lv_colorwheel.c ****         hsv_cur = colorwheel->hsv;
 2903              		.loc 1 492 9 is_stmt 1 view .LVU905
 493:Middlewares/lvgl/src/extra/widgets/colorwheel/lv_colorwheel.c **** 
ARM GAS  /tmp/ccyILfU7.s 			page 99


 2904              		.loc 1 493 9 view .LVU906
 493:Middlewares/lvgl/src/extra/widgets/colorwheel/lv_colorwheel.c **** 
 2905              		.loc 1 493 17 is_stmt 0 view .LVU907
 2906 0382 726A     		ldr	r2, [r6, #36]
 2907 0384 0192     		str	r2, [sp, #4]
 495:Middlewares/lvgl/src/extra/widgets/colorwheel/lv_colorwheel.c ****             case LV_COLORWHEEL_MODE_HUE:
 2908              		.loc 1 495 9 is_stmt 1 view .LVU908
 495:Middlewares/lvgl/src/extra/widgets/colorwheel/lv_colorwheel.c ****             case LV_COLORWHEEL_MODE_HUE:
 2909              		.loc 1 495 26 is_stmt 0 view .LVU909
 2910 0386 96F83C20 		ldrb	r2, [r6, #60]	@ zero_extendqisi2
 2911 038a 02F00302 		and	r2, r2, #3
 495:Middlewares/lvgl/src/extra/widgets/colorwheel/lv_colorwheel.c ****             case LV_COLORWHEEL_MODE_HUE:
 2912              		.loc 1 495 9 view .LVU910
 2913 038e 012A     		cmp	r2, #1
 2914 0390 21D0     		beq	.L118
 2915 0392 022A     		cmp	r2, #2
 2916 0394 2CD0     		beq	.L119
 2917 0396 DAB1     		cbz	r2, .L143
 2918              	.LVL289:
 2919              	.L120:
 507:Middlewares/lvgl/src/extra/widgets/colorwheel/lv_colorwheel.c ****             res = lv_event_send(obj, LV_EVENT_VALUE_CHANGED, NULL);
 2920              		.loc 1 507 9 is_stmt 1 view .LVU911
 507:Middlewares/lvgl/src/extra/widgets/colorwheel/lv_colorwheel.c ****             res = lv_event_send(obj, LV_EVENT_VALUE_CHANGED, NULL);
 2921              		.loc 1 507 12 is_stmt 0 view .LVU912
 2922 0398 0199     		ldr	r1, [sp, #4]
 2923 039a 3046     		mov	r0, r6
 2924              	.LVL290:
 507:Middlewares/lvgl/src/extra/widgets/colorwheel/lv_colorwheel.c ****             res = lv_event_send(obj, LV_EVENT_VALUE_CHANGED, NULL);
 2925              		.loc 1 507 12 view .LVU913
 2926 039c FFF7FEFF 		bl	lv_colorwheel_set_hsv
 2927              	.LVL291:
 507:Middlewares/lvgl/src/extra/widgets/colorwheel/lv_colorwheel.c ****             res = lv_event_send(obj, LV_EVENT_VALUE_CHANGED, NULL);
 2928              		.loc 1 507 11 view .LVU914
 2929 03a0 0028     		cmp	r0, #0
 2930 03a2 3FF436AE 		beq	.L86
 508:Middlewares/lvgl/src/extra/widgets/colorwheel/lv_colorwheel.c ****             if(res != LV_RES_OK) return;
 2931              		.loc 1 508 13 is_stmt 1 view .LVU915
 508:Middlewares/lvgl/src/extra/widgets/colorwheel/lv_colorwheel.c ****             if(res != LV_RES_OK) return;
 2932              		.loc 1 508 19 is_stmt 0 view .LVU916
 2933 03a6 0022     		movs	r2, #0
 2934 03a8 1C21     		movs	r1, #28
 2935 03aa 3046     		mov	r0, r6
 2936 03ac FFF7FEFF 		bl	lv_event_send
 2937              	.LVL292:
 509:Middlewares/lvgl/src/extra/widgets/colorwheel/lv_colorwheel.c ****         }
 2938              		.loc 1 509 13 is_stmt 1 view .LVU917
 2939 03b0 2FE6     		b	.L86
 2940              	.LVL293:
 2941              	.L111:
 443:Middlewares/lvgl/src/extra/widgets/colorwheel/lv_colorwheel.c ****         }
 2942              		.loc 1 443 13 view .LVU918
 2943 03b2 6946     		mov	r1, sp
 2944 03b4 2046     		mov	r0, r4
 2945              	.LVL294:
 443:Middlewares/lvgl/src/extra/widgets/colorwheel/lv_colorwheel.c ****         }
 2946              		.loc 1 443 13 is_stmt 0 view .LVU919
 2947 03b6 FFF7FEFF 		bl	lv_indev_get_point
ARM GAS  /tmp/ccyILfU7.s 			page 100


 2948              	.LVL295:
 2949 03ba 66E7     		b	.L112
 2950              	.LVL296:
 2951              	.L128:
 476:Middlewares/lvgl/src/extra/widgets/colorwheel/lv_colorwheel.c ****         }
 2952              		.loc 1 476 21 view .LVU920
 2953 03bc 0025     		movs	r5, #0
 2954              	.LVL297:
 476:Middlewares/lvgl/src/extra/widgets/colorwheel/lv_colorwheel.c ****         }
 2955              		.loc 1 476 21 view .LVU921
 2956 03be BFE7     		b	.L116
 2957              	.LVL298:
 2958              	.L142:
 482:Middlewares/lvgl/src/extra/widgets/colorwheel/lv_colorwheel.c ****             lv_indev_wait_release(lv_indev_get_act());
 2959              		.loc 1 482 13 is_stmt 1 view .LVU922
 2960 03c0 3046     		mov	r0, r6
 2961              	.LVL299:
 482:Middlewares/lvgl/src/extra/widgets/colorwheel/lv_colorwheel.c ****             lv_indev_wait_release(lv_indev_get_act());
 2962              		.loc 1 482 13 is_stmt 0 view .LVU923
 2963 03c2 FFF7FEFF 		bl	next_color_mode
 2964              	.LVL300:
 483:Middlewares/lvgl/src/extra/widgets/colorwheel/lv_colorwheel.c ****             return;
 2965              		.loc 1 483 13 is_stmt 1 view .LVU924
 2966 03c6 FFF7FEFF 		bl	lv_indev_get_act
 2967              	.LVL301:
 2968 03ca FFF7FEFF 		bl	lv_indev_wait_release
 2969              	.LVL302:
 484:Middlewares/lvgl/src/extra/widgets/colorwheel/lv_colorwheel.c ****         }
 2970              		.loc 1 484 13 view .LVU925
 2971 03ce 20E6     		b	.L86
 2972              	.LVL303:
 2973              	.L143:
 497:Middlewares/lvgl/src/extra/widgets/colorwheel/lv_colorwheel.c ****                 break;
 2974              		.loc 1 497 17 view .LVU926
 497:Middlewares/lvgl/src/extra/widgets/colorwheel/lv_colorwheel.c ****                 break;
 2975              		.loc 1 497 27 is_stmt 0 view .LVU927
 2976 03d0 ADF80410 		strh	r1, [sp, #4]	@ movhi
 498:Middlewares/lvgl/src/extra/widgets/colorwheel/lv_colorwheel.c ****             case LV_COLORWHEEL_MODE_SATURATION:
 2977              		.loc 1 498 17 is_stmt 1 view .LVU928
 2978 03d4 E0E7     		b	.L120
 2979              	.L118:
 500:Middlewares/lvgl/src/extra/widgets/colorwheel/lv_colorwheel.c ****                 break;
 2980              		.loc 1 500 17 view .LVU929
 500:Middlewares/lvgl/src/extra/widgets/colorwheel/lv_colorwheel.c ****                 break;
 2981              		.loc 1 500 36 is_stmt 0 view .LVU930
 2982 03d6 6422     		movs	r2, #100
 2983 03d8 02FB03F3 		mul	r3, r2, r3
 2984              	.LVL304:
 500:Middlewares/lvgl/src/extra/widgets/colorwheel/lv_colorwheel.c ****                 break;
 2985              		.loc 1 500 43 view .LVU931
 2986 03dc 164A     		ldr	r2, .L146+4
 2987 03de 82FB0312 		smull	r1, r2, r2, r3
 2988              	.LVL305:
 500:Middlewares/lvgl/src/extra/widgets/colorwheel/lv_colorwheel.c ****                 break;
 2989              		.loc 1 500 43 view .LVU932
 2990 03e2 1A44     		add	r2, r2, r3
 2991 03e4 DB17     		asrs	r3, r3, #31
ARM GAS  /tmp/ccyILfU7.s 			page 101


 2992 03e6 C3EB2223 		rsb	r3, r3, r2, asr #8
 500:Middlewares/lvgl/src/extra/widgets/colorwheel/lv_colorwheel.c ****                 break;
 2993              		.loc 1 500 27 view .LVU933
 2994 03ea 8DF80630 		strb	r3, [sp, #6]
 501:Middlewares/lvgl/src/extra/widgets/colorwheel/lv_colorwheel.c ****             case LV_COLORWHEEL_MODE_VALUE:
 2995              		.loc 1 501 17 is_stmt 1 view .LVU934
 2996 03ee D3E7     		b	.L120
 2997              	.LVL306:
 2998              	.L119:
 503:Middlewares/lvgl/src/extra/widgets/colorwheel/lv_colorwheel.c ****                 break;
 2999              		.loc 1 503 17 view .LVU935
 503:Middlewares/lvgl/src/extra/widgets/colorwheel/lv_colorwheel.c ****                 break;
 3000              		.loc 1 503 36 is_stmt 0 view .LVU936
 3001 03f0 6422     		movs	r2, #100
 3002 03f2 02FB03F3 		mul	r3, r2, r3
 3003              	.LVL307:
 503:Middlewares/lvgl/src/extra/widgets/colorwheel/lv_colorwheel.c ****                 break;
 3004              		.loc 1 503 43 view .LVU937
 3005 03f6 104A     		ldr	r2, .L146+4
 3006 03f8 82FB0312 		smull	r1, r2, r2, r3
 3007 03fc 1A44     		add	r2, r2, r3
 3008 03fe DB17     		asrs	r3, r3, #31
 3009 0400 C3EB2223 		rsb	r3, r3, r2, asr #8
 503:Middlewares/lvgl/src/extra/widgets/colorwheel/lv_colorwheel.c ****                 break;
 3010              		.loc 1 503 27 view .LVU938
 3011 0404 8DF80730 		strb	r3, [sp, #7]
 504:Middlewares/lvgl/src/extra/widgets/colorwheel/lv_colorwheel.c ****         }
 3012              		.loc 1 504 17 is_stmt 1 view .LVU939
 3013 0408 C6E7     		b	.L120
 3014              	.LVL308:
 3015              	.L137:
 504:Middlewares/lvgl/src/extra/widgets/colorwheel/lv_colorwheel.c ****         }
 3016              		.loc 1 504 17 is_stmt 0 view .LVU940
 3017              	.LBE101:
 3018              	.LBB105:
 513:Middlewares/lvgl/src/extra/widgets/colorwheel/lv_colorwheel.c **** 
 3019              		.loc 1 513 9 is_stmt 1 view .LVU941
 513:Middlewares/lvgl/src/extra/widgets/colorwheel/lv_colorwheel.c **** 
 3020              		.loc 1 513 37 is_stmt 0 view .LVU942
 3021 040a 2846     		mov	r0, r5
 3022              	.LVL309:
 513:Middlewares/lvgl/src/extra/widgets/colorwheel/lv_colorwheel.c **** 
 3023              		.loc 1 513 37 view .LVU943
 3024 040c FFF7FEFF 		bl	lv_event_get_param
 3025              	.LVL310:
 3026 0410 0446     		mov	r4, r0
 3027              	.LVL311:
 513:Middlewares/lvgl/src/extra/widgets/colorwheel/lv_colorwheel.c **** 
 3028              		.loc 1 513 59 is_stmt 1 view .LVU944
 516:Middlewares/lvgl/src/extra/widgets/colorwheel/lv_colorwheel.c ****     }
 3029              		.loc 1 516 9 view .LVU945
 516:Middlewares/lvgl/src/extra/widgets/colorwheel/lv_colorwheel.c ****     }
 3030              		.loc 1 516 21 is_stmt 0 view .LVU946
 3031 0412 47F6FF72 		movw	r2, #32767
 3032 0416 0168     		ldr	r1, [r0]
 3033 0418 06F11400 		add	r0, r6, #20
 3034              	.LVL312:
ARM GAS  /tmp/ccyILfU7.s 			page 102


 516:Middlewares/lvgl/src/extra/widgets/colorwheel/lv_colorwheel.c ****     }
 3035              		.loc 1 516 21 view .LVU947
 3036 041c FFF7FEFF 		bl	_lv_area_is_point_on
 3037              	.LVL313:
 516:Middlewares/lvgl/src/extra/widgets/colorwheel/lv_colorwheel.c ****     }
 3038              		.loc 1 516 19 view .LVU948
 3039 0420 2071     		strb	r0, [r4, #4]
 3040              	.LBE105:
 3041 0422 F6E5     		b	.L86
 3042              	.LVL314:
 3043              	.L138:
 519:Middlewares/lvgl/src/extra/widgets/colorwheel/lv_colorwheel.c ****         draw_knob(e);
 3044              		.loc 1 519 9 is_stmt 1 view .LVU949
 3045 0424 2846     		mov	r0, r5
 3046              	.LVL315:
 519:Middlewares/lvgl/src/extra/widgets/colorwheel/lv_colorwheel.c ****         draw_knob(e);
 3047              		.loc 1 519 9 is_stmt 0 view .LVU950
 3048 0426 FFF7FEFF 		bl	draw_disc_grad
 3049              	.LVL316:
 520:Middlewares/lvgl/src/extra/widgets/colorwheel/lv_colorwheel.c ****     }
 3050              		.loc 1 520 9 is_stmt 1 view .LVU951
 3051 042a 2846     		mov	r0, r5
 3052 042c FFF7FEFF 		bl	draw_knob
 3053              	.LVL317:
 3054 0430 EFE5     		b	.L86
 3055              	.L147:
 3056 0432 00BF     		.align	2
 3057              	.L146:
 3058 0434 176CC116 		.word	381774871
 3059 0438 B7600BB6 		.word	-1240768329
 3060              		.cfi_endproc
 3061              	.LFE198:
 3063              		.section	.text.lv_colorwheel_get_color_mode,"ax",%progbits
 3064              		.align	1
 3065              		.global	lv_colorwheel_get_color_mode
 3066              		.syntax unified
 3067              		.thumb
 3068              		.thumb_func
 3069              		.fpu fpv4-sp-d16
 3071              	lv_colorwheel_get_color_mode:
 3072              	.LVL318:
 3073              	.LFB191:
 189:Middlewares/lvgl/src/extra/widgets/colorwheel/lv_colorwheel.c ****     lv_colorwheel_t * colorwheel = (lv_colorwheel_t *)obj;
 3074              		.loc 1 189 1 view -0
 3075              		.cfi_startproc
 3076              		@ args = 0, pretend = 0, frame = 0
 3077              		@ frame_needed = 0, uses_anonymous_args = 0
 3078              		@ link register save eliminated.
 190:Middlewares/lvgl/src/extra/widgets/colorwheel/lv_colorwheel.c **** 
 3079              		.loc 1 190 5 view .LVU953
 192:Middlewares/lvgl/src/extra/widgets/colorwheel/lv_colorwheel.c **** }
 3080              		.loc 1 192 5 view .LVU954
 192:Middlewares/lvgl/src/extra/widgets/colorwheel/lv_colorwheel.c **** }
 3081              		.loc 1 192 22 is_stmt 0 view .LVU955
 3082 0000 90F83C00 		ldrb	r0, [r0, #60]	@ zero_extendqisi2
 3083              	.LVL319:
 193:Middlewares/lvgl/src/extra/widgets/colorwheel/lv_colorwheel.c **** 
ARM GAS  /tmp/ccyILfU7.s 			page 103


 3084              		.loc 1 193 1 view .LVU956
 3085 0004 00F00300 		and	r0, r0, #3
 3086 0008 7047     		bx	lr
 3087              		.cfi_endproc
 3088              	.LFE191:
 3090              		.section	.text.lv_colorwheel_get_color_mode_fixed,"ax",%progbits
 3091              		.align	1
 3092              		.global	lv_colorwheel_get_color_mode_fixed
 3093              		.syntax unified
 3094              		.thumb
 3095              		.thumb_func
 3096              		.fpu fpv4-sp-d16
 3098              	lv_colorwheel_get_color_mode_fixed:
 3099              	.LVL320:
 3100              	.LFB192:
 201:Middlewares/lvgl/src/extra/widgets/colorwheel/lv_colorwheel.c ****     lv_colorwheel_t * colorwheel = (lv_colorwheel_t *)obj;
 3101              		.loc 1 201 1 is_stmt 1 view -0
 3102              		.cfi_startproc
 3103              		@ args = 0, pretend = 0, frame = 0
 3104              		@ frame_needed = 0, uses_anonymous_args = 0
 3105              		@ link register save eliminated.
 202:Middlewares/lvgl/src/extra/widgets/colorwheel/lv_colorwheel.c **** 
 3106              		.loc 1 202 5 view .LVU958
 204:Middlewares/lvgl/src/extra/widgets/colorwheel/lv_colorwheel.c **** }
 3107              		.loc 1 204 5 view .LVU959
 204:Middlewares/lvgl/src/extra/widgets/colorwheel/lv_colorwheel.c **** }
 3108              		.loc 1 204 22 is_stmt 0 view .LVU960
 3109 0000 90F83C00 		ldrb	r0, [r0, #60]	@ zero_extendqisi2
 3110              	.LVL321:
 205:Middlewares/lvgl/src/extra/widgets/colorwheel/lv_colorwheel.c **** 
 3111              		.loc 1 205 1 view .LVU961
 3112 0004 C0F38000 		ubfx	r0, r0, #2, #1
 3113 0008 7047     		bx	lr
 3114              		.cfi_endproc
 3115              	.LFE192:
 3117              		.global	lv_colorwheel_class
 3118              		.section	.bss.create_knob_recolor,"aw",%nobits
 3119              		.set	.LANCHOR4,. + 0
 3122              	create_knob_recolor:
 3123 0000 00       		.space	1
 3124              		.section	.bss.h.0,"aw",%nobits
 3125              		.align	1
 3126              		.set	.LANCHOR3,. + 0
 3129              	h.0:
 3130 0000 0000     		.space	2
 3131              		.section	.bss.s.2,"aw",%nobits
 3132              		.set	.LANCHOR1,. + 0
 3135              	s.2:
 3136 0000 00       		.space	1
 3137              		.section	.bss.v.1,"aw",%nobits
 3138              		.set	.LANCHOR2,. + 0
 3141              	v.1:
 3142 0000 00       		.space	1
 3143              		.section	.data.m.3,"aw"
 3144              		.set	.LANCHOR0,. + 0
 3147              	m.3:
 3148 0000 FF       		.byte	-1
ARM GAS  /tmp/ccyILfU7.s 			page 104


 3149              		.section	.rodata.lv_colorwheel_class,"a"
 3150              		.align	2
 3151              		.set	.LANCHOR5,. + 0
 3154              	lv_colorwheel_class:
 3155 0000 00000000 		.word	lv_obj_class
 3156 0004 00000000 		.word	lv_colorwheel_constructor
 3157 0008 00000000 		.space	8
 3157      00000000 
 3158 0010 00000000 		.word	lv_colorwheel_event
 3159 0014 0401     		.short	260
 3160 0016 0401     		.short	260
 3161 0018 01       		.byte	1
 3162 0019 04       		.byte	4
 3163 001a 00       		.byte	0
 3164 001b 00       		.space	1
 3165              		.text
 3166              	.Letext0:
 3167              		.file 6 "/home/akinya/gcc-arm-none-eabi/arm-none-eabi/include/machine/_default_types.h"
 3168              		.file 7 "/home/akinya/gcc-arm-none-eabi/arm-none-eabi/include/sys/_stdint.h"
 3169              		.file 8 "Middlewares/lvgl/src/extra/widgets/colorwheel/../../../../src/misc/lv_types.h"
 3170              		.file 9 "Middlewares/lvgl/src/extra/widgets/colorwheel/../../../../src/misc/lv_ll.h"
 3171              		.file 10 "Middlewares/lvgl/src/extra/widgets/colorwheel/../../../../src/misc/lv_timer.h"
 3172              		.file 11 "Middlewares/lvgl/src/extra/widgets/colorwheel/../../../../src/hal/lv_hal_disp.h"
 3173              		.file 12 "Middlewares/lvgl/src/extra/widgets/colorwheel/../../../../src/core/lv_theme.h"
 3174              		.file 13 "Middlewares/lvgl/src/extra/widgets/colorwheel/../../../../src/core/lv_obj.h"
 3175              		.file 14 "Middlewares/lvgl/src/extra/widgets/colorwheel/../../../../src/hal/lv_hal_indev.h"
 3176              		.file 15 "Middlewares/lvgl/src/extra/widgets/colorwheel/../../../../src/core/lv_group.h"
 3177              		.file 16 "Middlewares/lvgl/src/extra/widgets/colorwheel/../../../../src/core/../misc/../font/lv_fo
 3178              		.file 17 "Middlewares/lvgl/src/extra/widgets/colorwheel/../../../../src/core/../misc/lv_style.h"
 3179              		.file 18 "Middlewares/lvgl/src/extra/widgets/colorwheel/../../../../src/core/lv_obj_scroll.h"
 3180              		.file 19 "Middlewares/lvgl/src/extra/widgets/colorwheel/../../../../src/core/lv_obj_style.h"
 3181              		.file 20 "Middlewares/lvgl/src/extra/widgets/colorwheel/../../../../src/core/../draw/lv_draw_mask.
 3182              		.file 21 "Middlewares/lvgl/src/extra/widgets/colorwheel/../../../../src/core/../draw/lv_draw_rect.
 3183              		.file 22 "Middlewares/lvgl/src/extra/widgets/colorwheel/../../../../src/core/../draw/lv_draw_line.
 3184              		.file 23 "Middlewares/lvgl/src/extra/widgets/colorwheel/../../../../src/core/lv_obj_draw.h"
 3185              		.file 24 "Middlewares/lvgl/src/extra/widgets/colorwheel/../../../../src/core/lv_obj_class.h"
 3186              		.file 25 "Middlewares/lvgl/src/extra/widgets/colorwheel/../../../../src/core/lv_event.h"
 3187              		.file 26 "Middlewares/lvgl/src/extra/widgets/colorwheel/../../../../src/widgets/lv_bar.h"
 3188              		.file 27 "Middlewares/lvgl/src/extra/widgets/colorwheel/../../../../src/extra/widgets/imgbtn/lv_im
 3189              		.file 28 "Middlewares/lvgl/src/extra/widgets/colorwheel/lv_colorwheel.h"
 3190              		.file 29 "Middlewares/lvgl/src/extra/widgets/colorwheel/../../../../src/core/lv_indev.h"
 3191              		.file 30 "Middlewares/lvgl/src/extra/widgets/colorwheel/../../../../src/hal/lv_hal_tick.h"
 3192              		.file 31 "Middlewares/lvgl/src/extra/widgets/colorwheel/../../../../src/core/lv_obj_pos.h"
ARM GAS  /tmp/ccyILfU7.s 			page 105


DEFINED SYMBOLS
                            *ABS*:0000000000000000 lv_colorwheel.c
     /tmp/ccyILfU7.s:18     .text.fast_hsv2rgb:0000000000000000 $t
     /tmp/ccyILfU7.s:25     .text.fast_hsv2rgb:0000000000000000 fast_hsv2rgb
     /tmp/ccyILfU7.s:196    .text.angle_to_mode_color_fast:0000000000000000 $t
     /tmp/ccyILfU7.s:202    .text.angle_to_mode_color_fast:0000000000000000 angle_to_mode_color_fast
     /tmp/ccyILfU7.s:463    .text.angle_to_mode_color_fast:000000000000016c $d
     /tmp/ccyILfU7.s:473    .text.get_angle:0000000000000000 $t
     /tmp/ccyILfU7.s:479    .text.get_angle:0000000000000000 get_angle
     /tmp/ccyILfU7.s:543    .text.get_angle:0000000000000040 $d
     /tmp/ccyILfU7.s:548    .text.get_knob_area:0000000000000000 $t
     /tmp/ccyILfU7.s:554    .text.get_knob_area:0000000000000000 get_knob_area
     /tmp/ccyILfU7.s:732    .text.invalidate_knob:0000000000000000 $t
     /tmp/ccyILfU7.s:738    .text.invalidate_knob:0000000000000000 invalidate_knob
     /tmp/ccyILfU7.s:779    .text.refr_knob_pos:0000000000000000 $t
     /tmp/ccyILfU7.s:785    .text.refr_knob_pos:0000000000000000 refr_knob_pos
     /tmp/ccyILfU7.s:911    .text.next_color_mode:0000000000000000 $t
     /tmp/ccyILfU7.s:917    .text.next_color_mode:0000000000000000 next_color_mode
     /tmp/ccyILfU7.s:962    .text.next_color_mode:0000000000000030 $d
     /tmp/ccyILfU7.s:967    .text.draw_disc_grad:0000000000000000 $t
     /tmp/ccyILfU7.s:973    .text.draw_disc_grad:0000000000000000 draw_disc_grad
     /tmp/ccyILfU7.s:1334   .text.draw_disc_grad:000000000000019c $d
     /tmp/ccyILfU7.s:1339   .text.lv_colorwheel_constructor:0000000000000000 $t
     /tmp/ccyILfU7.s:1345   .text.lv_colorwheel_constructor:0000000000000000 lv_colorwheel_constructor
     /tmp/ccyILfU7.s:1421   .text.lv_colorwheel_constructor:0000000000000058 $d
     /tmp/ccyILfU7.s:1426   .text.lv_colorwheel_create:0000000000000000 $t
     /tmp/ccyILfU7.s:1433   .text.lv_colorwheel_create:0000000000000000 lv_colorwheel_create
     /tmp/ccyILfU7.s:1475   .text.lv_colorwheel_create:0000000000000018 $d
     /tmp/ccyILfU7.s:1481   .text.lv_colorwheel_set_hsv:0000000000000000 $t
     /tmp/ccyILfU7.s:1488   .text.lv_colorwheel_set_hsv:0000000000000000 lv_colorwheel_set_hsv
     /tmp/ccyILfU7.s:1597   .text.lv_colorwheel_set_hsv:0000000000000074 $d
     /tmp/ccyILfU7.s:1602   .text.double_click_reset:0000000000000000 $t
     /tmp/ccyILfU7.s:1608   .text.double_click_reset:0000000000000000 double_click_reset
     /tmp/ccyILfU7.s:1742   .text.lv_colorwheel_set_rgb:0000000000000000 $t
     /tmp/ccyILfU7.s:1749   .text.lv_colorwheel_set_rgb:0000000000000000 lv_colorwheel_set_rgb
     /tmp/ccyILfU7.s:1830   .text.lv_colorwheel_set_mode:0000000000000000 $t
     /tmp/ccyILfU7.s:1837   .text.lv_colorwheel_set_mode:0000000000000000 lv_colorwheel_set_mode
     /tmp/ccyILfU7.s:1872   .text.lv_colorwheel_set_mode_fixed:0000000000000000 $t
     /tmp/ccyILfU7.s:1879   .text.lv_colorwheel_set_mode_fixed:0000000000000000 lv_colorwheel_set_mode_fixed
     /tmp/ccyILfU7.s:1899   .text.lv_colorwheel_get_hsv:0000000000000000 $t
     /tmp/ccyILfU7.s:1906   .text.lv_colorwheel_get_hsv:0000000000000000 lv_colorwheel_get_hsv
     /tmp/ccyILfU7.s:1941   .text.lv_colorwheel_get_rgb:0000000000000000 $t
     /tmp/ccyILfU7.s:1948   .text.lv_colorwheel_get_rgb:0000000000000000 lv_colorwheel_get_rgb
     /tmp/ccyILfU7.s:1978   .text.draw_knob:0000000000000000 $t
     /tmp/ccyILfU7.s:1984   .text.draw_knob:0000000000000000 draw_knob
     /tmp/ccyILfU7.s:2077   .text.lv_colorwheel_event:0000000000000000 $t
     /tmp/ccyILfU7.s:2083   .text.lv_colorwheel_event:0000000000000000 lv_colorwheel_event
     /tmp/ccyILfU7.s:2652   .text.lv_colorwheel_event:000000000000023c $d
     /tmp/ccyILfU7.s:2660   .text.lv_colorwheel_event:0000000000000248 $t
     /tmp/ccyILfU7.s:3058   .text.lv_colorwheel_event:0000000000000434 $d
     /tmp/ccyILfU7.s:3064   .text.lv_colorwheel_get_color_mode:0000000000000000 $t
     /tmp/ccyILfU7.s:3071   .text.lv_colorwheel_get_color_mode:0000000000000000 lv_colorwheel_get_color_mode
     /tmp/ccyILfU7.s:3091   .text.lv_colorwheel_get_color_mode_fixed:0000000000000000 $t
     /tmp/ccyILfU7.s:3098   .text.lv_colorwheel_get_color_mode_fixed:0000000000000000 lv_colorwheel_get_color_mode_fixed
     /tmp/ccyILfU7.s:3154   .rodata.lv_colorwheel_class:0000000000000000 lv_colorwheel_class
     /tmp/ccyILfU7.s:3122   .bss.create_knob_recolor:0000000000000000 create_knob_recolor
     /tmp/ccyILfU7.s:3123   .bss.create_knob_recolor:0000000000000000 $d
ARM GAS  /tmp/ccyILfU7.s 			page 106


     /tmp/ccyILfU7.s:3125   .bss.h.0:0000000000000000 $d
     /tmp/ccyILfU7.s:3129   .bss.h.0:0000000000000000 h.0
     /tmp/ccyILfU7.s:3135   .bss.s.2:0000000000000000 s.2
     /tmp/ccyILfU7.s:3136   .bss.s.2:0000000000000000 $d
     /tmp/ccyILfU7.s:3141   .bss.v.1:0000000000000000 v.1
     /tmp/ccyILfU7.s:3142   .bss.v.1:0000000000000000 $d
     /tmp/ccyILfU7.s:3147   .data.m.3:0000000000000000 m.3
     /tmp/ccyILfU7.s:3150   .rodata.lv_colorwheel_class:0000000000000000 $d

UNDEFINED SYMBOLS
lv_obj_get_style_prop
lv_obj_invalidate_area
lv_obj_get_width
lv_trigo_sin
lv_obj_invalidate
lv_event_get_target
lv_event_get_param
lv_obj_get_height
lv_draw_line_dsc_init
lv_obj_init_draw_line_dsc
lv_draw_mask_radius_init
lv_draw_mask_add
lv_draw_line
lv_draw_mask_remove_id
lv_obj_add_flag
lv_obj_clear_flag
lv_obj_class_create_obj
lv_obj_class_init_obj
lv_indev_get_act
lv_tick_elaps
lv_indev_wait_release
lv_tick_get
lv_event_send
lv_color_rgb_to_hsv
lv_color_hsv_to_rgb
lv_draw_rect_dsc_init
lv_obj_init_draw_rect_dsc
lv_draw_rect
lv_obj_event_base
lv_event_get_code
lv_indev_get_point
lv_indev_get_type
lv_atan2
_lv_area_is_point_on
lv_obj_class
