ARM GAS  /tmp/ccyILfU7.s 			page 1


   1              		.cpu cortex-m4
   2              		.eabi_attribute 27, 1
   3              		.eabi_attribute 28, 1
   4              		.eabi_attribute 20, 1
   5              		.eabi_attribute 21, 1
   6              		.eabi_attribute 23, 3
   7              		.eabi_attribute 24, 1
   8              		.eabi_attribute 25, 1
   9              		.eabi_attribute 26, 1
  10              		.eabi_attribute 30, 1
  11              		.eabi_attribute 34, 1
  12              		.eabi_attribute 18, 4
  13              		.file	"lv_colorwheel.c"
  14              		.text
  15              	.Ltext0:
  16              		.cfi_sections	.debug_frame
  17              		.section	.text.fast_hsv2rgb,"ax",%progbits
  18              		.align	1
  19              		.arch armv7e-m
  20              		.syntax unified
  21              		.thumb
  22              		.thumb_func
  23              		.fpu fpv4-sp-d16
  25              	fast_hsv2rgb:
  26              	.LVL0:
  27              	.LFB202:
  28              		.file 1 "Middlewares/lvgl/src/extra/widgets/colorwheel/lv_colorwheel.c"
   1:Middlewares/lvgl/src/extra/widgets/colorwheel/lv_colorwheel.c **** /**
   2:Middlewares/lvgl/src/extra/widgets/colorwheel/lv_colorwheel.c ****  * @file lv_colorwheel.c
   3:Middlewares/lvgl/src/extra/widgets/colorwheel/lv_colorwheel.c ****  *
   4:Middlewares/lvgl/src/extra/widgets/colorwheel/lv_colorwheel.c ****  * Based on the work of @AloyseTech and @paulpv.
   5:Middlewares/lvgl/src/extra/widgets/colorwheel/lv_colorwheel.c ****  */
   6:Middlewares/lvgl/src/extra/widgets/colorwheel/lv_colorwheel.c **** 
   7:Middlewares/lvgl/src/extra/widgets/colorwheel/lv_colorwheel.c **** /*********************
   8:Middlewares/lvgl/src/extra/widgets/colorwheel/lv_colorwheel.c ****  *      INCLUDES
   9:Middlewares/lvgl/src/extra/widgets/colorwheel/lv_colorwheel.c ****  *********************/
  10:Middlewares/lvgl/src/extra/widgets/colorwheel/lv_colorwheel.c **** #include "lv_colorwheel.h"
  11:Middlewares/lvgl/src/extra/widgets/colorwheel/lv_colorwheel.c **** #if LV_USE_COLORWHEEL
  12:Middlewares/lvgl/src/extra/widgets/colorwheel/lv_colorwheel.c **** 
  13:Middlewares/lvgl/src/extra/widgets/colorwheel/lv_colorwheel.c **** /*********************
  14:Middlewares/lvgl/src/extra/widgets/colorwheel/lv_colorwheel.c ****  *      DEFINES
  15:Middlewares/lvgl/src/extra/widgets/colorwheel/lv_colorwheel.c ****  *********************/
  16:Middlewares/lvgl/src/extra/widgets/colorwheel/lv_colorwheel.c **** #define MY_CLASS &lv_colorwheel_class
  17:Middlewares/lvgl/src/extra/widgets/colorwheel/lv_colorwheel.c **** 
  18:Middlewares/lvgl/src/extra/widgets/colorwheel/lv_colorwheel.c **** #define LV_CPICKER_DEF_QF 3
  19:Middlewares/lvgl/src/extra/widgets/colorwheel/lv_colorwheel.c **** 
  20:Middlewares/lvgl/src/extra/widgets/colorwheel/lv_colorwheel.c **** /**
  21:Middlewares/lvgl/src/extra/widgets/colorwheel/lv_colorwheel.c ****  * The OUTER_MASK_WIDTH define is required to assist with the placing of a mask over the outer ring
  22:Middlewares/lvgl/src/extra/widgets/colorwheel/lv_colorwheel.c ****  * multicoloured radial lines are calculated for the outer ring of the widget their lengths are jit
  23:Middlewares/lvgl/src/extra/widgets/colorwheel/lv_colorwheel.c ****  * integer based arithmetic. From tests the maximum delta was found to be 2 so the current value is
  24:Middlewares/lvgl/src/extra/widgets/colorwheel/lv_colorwheel.c ****  * appropriate masking.
  25:Middlewares/lvgl/src/extra/widgets/colorwheel/lv_colorwheel.c ****  */
  26:Middlewares/lvgl/src/extra/widgets/colorwheel/lv_colorwheel.c **** #define OUTER_MASK_WIDTH 3
  27:Middlewares/lvgl/src/extra/widgets/colorwheel/lv_colorwheel.c **** 
  28:Middlewares/lvgl/src/extra/widgets/colorwheel/lv_colorwheel.c **** /**********************
  29:Middlewares/lvgl/src/extra/widgets/colorwheel/lv_colorwheel.c ****  *      TYPEDEFS
  30:Middlewares/lvgl/src/extra/widgets/colorwheel/lv_colorwheel.c ****  **********************/
ARM GAS  /tmp/ccyILfU7.s 			page 2


  31:Middlewares/lvgl/src/extra/widgets/colorwheel/lv_colorwheel.c **** 
  32:Middlewares/lvgl/src/extra/widgets/colorwheel/lv_colorwheel.c **** /**********************
  33:Middlewares/lvgl/src/extra/widgets/colorwheel/lv_colorwheel.c ****  *  STATIC PROTOTYPES
  34:Middlewares/lvgl/src/extra/widgets/colorwheel/lv_colorwheel.c ****  **********************/
  35:Middlewares/lvgl/src/extra/widgets/colorwheel/lv_colorwheel.c **** static void lv_colorwheel_constructor(const lv_obj_class_t * class_p, lv_obj_t * obj);
  36:Middlewares/lvgl/src/extra/widgets/colorwheel/lv_colorwheel.c **** static void lv_colorwheel_event(const lv_obj_class_t * class_p, lv_event_t * e);
  37:Middlewares/lvgl/src/extra/widgets/colorwheel/lv_colorwheel.c **** 
  38:Middlewares/lvgl/src/extra/widgets/colorwheel/lv_colorwheel.c **** static void draw_disc_grad(lv_event_t * e);
  39:Middlewares/lvgl/src/extra/widgets/colorwheel/lv_colorwheel.c **** static void draw_knob(lv_event_t * e);
  40:Middlewares/lvgl/src/extra/widgets/colorwheel/lv_colorwheel.c **** static void invalidate_knob(lv_obj_t * obj);
  41:Middlewares/lvgl/src/extra/widgets/colorwheel/lv_colorwheel.c **** static lv_area_t get_knob_area(lv_obj_t * obj);
  42:Middlewares/lvgl/src/extra/widgets/colorwheel/lv_colorwheel.c **** 
  43:Middlewares/lvgl/src/extra/widgets/colorwheel/lv_colorwheel.c **** static void next_color_mode(lv_obj_t * obj);
  44:Middlewares/lvgl/src/extra/widgets/colorwheel/lv_colorwheel.c **** static lv_res_t double_click_reset(lv_obj_t * obj);
  45:Middlewares/lvgl/src/extra/widgets/colorwheel/lv_colorwheel.c **** static void refr_knob_pos(lv_obj_t * obj);
  46:Middlewares/lvgl/src/extra/widgets/colorwheel/lv_colorwheel.c **** static lv_color_t angle_to_mode_color_fast(lv_obj_t * obj, uint16_t angle);
  47:Middlewares/lvgl/src/extra/widgets/colorwheel/lv_colorwheel.c **** static uint16_t get_angle(lv_obj_t * obj);
  48:Middlewares/lvgl/src/extra/widgets/colorwheel/lv_colorwheel.c **** 
  49:Middlewares/lvgl/src/extra/widgets/colorwheel/lv_colorwheel.c **** /**********************
  50:Middlewares/lvgl/src/extra/widgets/colorwheel/lv_colorwheel.c ****  *  STATIC VARIABLES
  51:Middlewares/lvgl/src/extra/widgets/colorwheel/lv_colorwheel.c ****  **********************/
  52:Middlewares/lvgl/src/extra/widgets/colorwheel/lv_colorwheel.c **** const lv_obj_class_t lv_colorwheel_class = {.instance_size = sizeof(lv_colorwheel_t), .base_class =
  53:Middlewares/lvgl/src/extra/widgets/colorwheel/lv_colorwheel.c ****         .constructor_cb = lv_colorwheel_constructor,
  54:Middlewares/lvgl/src/extra/widgets/colorwheel/lv_colorwheel.c ****         .event_cb = lv_colorwheel_event,
  55:Middlewares/lvgl/src/extra/widgets/colorwheel/lv_colorwheel.c ****         .width_def = LV_DPI_DEF * 2,
  56:Middlewares/lvgl/src/extra/widgets/colorwheel/lv_colorwheel.c ****         .height_def = LV_DPI_DEF * 2,
  57:Middlewares/lvgl/src/extra/widgets/colorwheel/lv_colorwheel.c ****         .editable = LV_OBJ_CLASS_EDITABLE_TRUE,
  58:Middlewares/lvgl/src/extra/widgets/colorwheel/lv_colorwheel.c **** };
  59:Middlewares/lvgl/src/extra/widgets/colorwheel/lv_colorwheel.c **** 
  60:Middlewares/lvgl/src/extra/widgets/colorwheel/lv_colorwheel.c **** static bool create_knob_recolor;
  61:Middlewares/lvgl/src/extra/widgets/colorwheel/lv_colorwheel.c **** 
  62:Middlewares/lvgl/src/extra/widgets/colorwheel/lv_colorwheel.c **** /**********************
  63:Middlewares/lvgl/src/extra/widgets/colorwheel/lv_colorwheel.c ****  *      MACROS
  64:Middlewares/lvgl/src/extra/widgets/colorwheel/lv_colorwheel.c ****  **********************/
  65:Middlewares/lvgl/src/extra/widgets/colorwheel/lv_colorwheel.c **** 
  66:Middlewares/lvgl/src/extra/widgets/colorwheel/lv_colorwheel.c **** /**********************
  67:Middlewares/lvgl/src/extra/widgets/colorwheel/lv_colorwheel.c ****  *   GLOBAL FUNCTIONS
  68:Middlewares/lvgl/src/extra/widgets/colorwheel/lv_colorwheel.c ****  **********************/
  69:Middlewares/lvgl/src/extra/widgets/colorwheel/lv_colorwheel.c **** 
  70:Middlewares/lvgl/src/extra/widgets/colorwheel/lv_colorwheel.c **** /**
  71:Middlewares/lvgl/src/extra/widgets/colorwheel/lv_colorwheel.c ****  * Create a color_picker object
  72:Middlewares/lvgl/src/extra/widgets/colorwheel/lv_colorwheel.c ****  * @param par pointer to an object, it will be the parent of the new color_picker
  73:Middlewares/lvgl/src/extra/widgets/colorwheel/lv_colorwheel.c ****  * @return pointer to the created color_picker
  74:Middlewares/lvgl/src/extra/widgets/colorwheel/lv_colorwheel.c ****  */
  75:Middlewares/lvgl/src/extra/widgets/colorwheel/lv_colorwheel.c **** lv_obj_t * lv_colorwheel_create(lv_obj_t * parent, bool knob_recolor)
  76:Middlewares/lvgl/src/extra/widgets/colorwheel/lv_colorwheel.c **** {
  77:Middlewares/lvgl/src/extra/widgets/colorwheel/lv_colorwheel.c ****     LV_LOG_INFO("begin")
  78:Middlewares/lvgl/src/extra/widgets/colorwheel/lv_colorwheel.c ****     create_knob_recolor = knob_recolor;
  79:Middlewares/lvgl/src/extra/widgets/colorwheel/lv_colorwheel.c **** 
  80:Middlewares/lvgl/src/extra/widgets/colorwheel/lv_colorwheel.c ****     lv_obj_t * obj = lv_obj_class_create_obj(MY_CLASS, parent);
  81:Middlewares/lvgl/src/extra/widgets/colorwheel/lv_colorwheel.c ****     lv_obj_class_init_obj(obj);
  82:Middlewares/lvgl/src/extra/widgets/colorwheel/lv_colorwheel.c ****     return obj;
  83:Middlewares/lvgl/src/extra/widgets/colorwheel/lv_colorwheel.c **** }
  84:Middlewares/lvgl/src/extra/widgets/colorwheel/lv_colorwheel.c **** 
  85:Middlewares/lvgl/src/extra/widgets/colorwheel/lv_colorwheel.c **** /*=====================
  86:Middlewares/lvgl/src/extra/widgets/colorwheel/lv_colorwheel.c ****  * Setter functions
  87:Middlewares/lvgl/src/extra/widgets/colorwheel/lv_colorwheel.c ****  *====================*/
ARM GAS  /tmp/ccyILfU7.s 			page 3


  88:Middlewares/lvgl/src/extra/widgets/colorwheel/lv_colorwheel.c **** 
  89:Middlewares/lvgl/src/extra/widgets/colorwheel/lv_colorwheel.c **** /**
  90:Middlewares/lvgl/src/extra/widgets/colorwheel/lv_colorwheel.c ****  * Set the current hsv of a color wheel.
  91:Middlewares/lvgl/src/extra/widgets/colorwheel/lv_colorwheel.c ****  * @param colorwheel pointer to color wheel object
  92:Middlewares/lvgl/src/extra/widgets/colorwheel/lv_colorwheel.c ****  * @param color current selected hsv
  93:Middlewares/lvgl/src/extra/widgets/colorwheel/lv_colorwheel.c ****  * @return true if changed, otherwise false
  94:Middlewares/lvgl/src/extra/widgets/colorwheel/lv_colorwheel.c ****  */
  95:Middlewares/lvgl/src/extra/widgets/colorwheel/lv_colorwheel.c **** bool lv_colorwheel_set_hsv(lv_obj_t * obj, lv_color_hsv_t hsv)
  96:Middlewares/lvgl/src/extra/widgets/colorwheel/lv_colorwheel.c **** {
  97:Middlewares/lvgl/src/extra/widgets/colorwheel/lv_colorwheel.c ****     if(hsv.h > 360) hsv.h %= 360;
  98:Middlewares/lvgl/src/extra/widgets/colorwheel/lv_colorwheel.c ****     if(hsv.s > 100) hsv.s = 100;
  99:Middlewares/lvgl/src/extra/widgets/colorwheel/lv_colorwheel.c ****     if(hsv.v > 100) hsv.v = 100;
 100:Middlewares/lvgl/src/extra/widgets/colorwheel/lv_colorwheel.c **** 
 101:Middlewares/lvgl/src/extra/widgets/colorwheel/lv_colorwheel.c ****     lv_colorwheel_t * colorwheel = (lv_colorwheel_t *)obj;
 102:Middlewares/lvgl/src/extra/widgets/colorwheel/lv_colorwheel.c **** 
 103:Middlewares/lvgl/src/extra/widgets/colorwheel/lv_colorwheel.c ****     if(colorwheel->hsv.h == hsv.h && colorwheel->hsv.s == hsv.s && colorwheel->hsv.v == hsv.v) retu
 104:Middlewares/lvgl/src/extra/widgets/colorwheel/lv_colorwheel.c **** 
 105:Middlewares/lvgl/src/extra/widgets/colorwheel/lv_colorwheel.c ****     colorwheel->hsv = hsv;
 106:Middlewares/lvgl/src/extra/widgets/colorwheel/lv_colorwheel.c **** 
 107:Middlewares/lvgl/src/extra/widgets/colorwheel/lv_colorwheel.c ****     refr_knob_pos(obj);
 108:Middlewares/lvgl/src/extra/widgets/colorwheel/lv_colorwheel.c **** 
 109:Middlewares/lvgl/src/extra/widgets/colorwheel/lv_colorwheel.c ****     lv_obj_invalidate(obj);
 110:Middlewares/lvgl/src/extra/widgets/colorwheel/lv_colorwheel.c **** 
 111:Middlewares/lvgl/src/extra/widgets/colorwheel/lv_colorwheel.c ****     return true;
 112:Middlewares/lvgl/src/extra/widgets/colorwheel/lv_colorwheel.c **** }
 113:Middlewares/lvgl/src/extra/widgets/colorwheel/lv_colorwheel.c **** 
 114:Middlewares/lvgl/src/extra/widgets/colorwheel/lv_colorwheel.c **** /**
 115:Middlewares/lvgl/src/extra/widgets/colorwheel/lv_colorwheel.c ****  * Set the current color of a color wheel.
 116:Middlewares/lvgl/src/extra/widgets/colorwheel/lv_colorwheel.c ****  * @param colorwheel pointer to color wheel object
 117:Middlewares/lvgl/src/extra/widgets/colorwheel/lv_colorwheel.c ****  * @param color current selected color
 118:Middlewares/lvgl/src/extra/widgets/colorwheel/lv_colorwheel.c ****  * @return true if changed, otherwise false
 119:Middlewares/lvgl/src/extra/widgets/colorwheel/lv_colorwheel.c ****  */
 120:Middlewares/lvgl/src/extra/widgets/colorwheel/lv_colorwheel.c **** bool lv_colorwheel_set_rgb(lv_obj_t * obj, lv_color_t color)
 121:Middlewares/lvgl/src/extra/widgets/colorwheel/lv_colorwheel.c **** {
 122:Middlewares/lvgl/src/extra/widgets/colorwheel/lv_colorwheel.c ****     lv_color32_t c32;
 123:Middlewares/lvgl/src/extra/widgets/colorwheel/lv_colorwheel.c ****     c32.full = lv_color_to32(color);
 124:Middlewares/lvgl/src/extra/widgets/colorwheel/lv_colorwheel.c **** 
 125:Middlewares/lvgl/src/extra/widgets/colorwheel/lv_colorwheel.c ****     return lv_colorwheel_set_hsv(obj,  lv_color_rgb_to_hsv(c32.ch.red, c32.ch.green, c32.ch.blue));
 126:Middlewares/lvgl/src/extra/widgets/colorwheel/lv_colorwheel.c **** }
 127:Middlewares/lvgl/src/extra/widgets/colorwheel/lv_colorwheel.c **** 
 128:Middlewares/lvgl/src/extra/widgets/colorwheel/lv_colorwheel.c **** /**
 129:Middlewares/lvgl/src/extra/widgets/colorwheel/lv_colorwheel.c ****  * Set the current color mode.
 130:Middlewares/lvgl/src/extra/widgets/colorwheel/lv_colorwheel.c ****  * @param colorwheel pointer to color wheel object
 131:Middlewares/lvgl/src/extra/widgets/colorwheel/lv_colorwheel.c ****  * @param mode color mode (hue/sat/val)
 132:Middlewares/lvgl/src/extra/widgets/colorwheel/lv_colorwheel.c ****  */
 133:Middlewares/lvgl/src/extra/widgets/colorwheel/lv_colorwheel.c **** void lv_colorwheel_set_mode(lv_obj_t * obj, lv_colorwheel_mode_t mode)
 134:Middlewares/lvgl/src/extra/widgets/colorwheel/lv_colorwheel.c **** {
 135:Middlewares/lvgl/src/extra/widgets/colorwheel/lv_colorwheel.c ****     lv_colorwheel_t * colorwheel = (lv_colorwheel_t *)obj;
 136:Middlewares/lvgl/src/extra/widgets/colorwheel/lv_colorwheel.c **** 
 137:Middlewares/lvgl/src/extra/widgets/colorwheel/lv_colorwheel.c ****     colorwheel->mode = mode;
 138:Middlewares/lvgl/src/extra/widgets/colorwheel/lv_colorwheel.c ****     refr_knob_pos(obj);
 139:Middlewares/lvgl/src/extra/widgets/colorwheel/lv_colorwheel.c ****     lv_obj_invalidate(obj);
 140:Middlewares/lvgl/src/extra/widgets/colorwheel/lv_colorwheel.c **** }
 141:Middlewares/lvgl/src/extra/widgets/colorwheel/lv_colorwheel.c **** 
 142:Middlewares/lvgl/src/extra/widgets/colorwheel/lv_colorwheel.c **** /**
 143:Middlewares/lvgl/src/extra/widgets/colorwheel/lv_colorwheel.c ****  * Set if the color mode is changed on long press on center
 144:Middlewares/lvgl/src/extra/widgets/colorwheel/lv_colorwheel.c ****  * @param colorwheel pointer to color wheel object
ARM GAS  /tmp/ccyILfU7.s 			page 4


 145:Middlewares/lvgl/src/extra/widgets/colorwheel/lv_colorwheel.c ****  * @param fixed color mode cannot be changed on long press
 146:Middlewares/lvgl/src/extra/widgets/colorwheel/lv_colorwheel.c ****  */
 147:Middlewares/lvgl/src/extra/widgets/colorwheel/lv_colorwheel.c **** void lv_colorwheel_set_mode_fixed(lv_obj_t * obj, bool fixed)
 148:Middlewares/lvgl/src/extra/widgets/colorwheel/lv_colorwheel.c **** {
 149:Middlewares/lvgl/src/extra/widgets/colorwheel/lv_colorwheel.c ****     lv_colorwheel_t * colorwheel = (lv_colorwheel_t *)obj;
 150:Middlewares/lvgl/src/extra/widgets/colorwheel/lv_colorwheel.c **** 
 151:Middlewares/lvgl/src/extra/widgets/colorwheel/lv_colorwheel.c ****     colorwheel->mode_fixed = fixed;
 152:Middlewares/lvgl/src/extra/widgets/colorwheel/lv_colorwheel.c **** }
 153:Middlewares/lvgl/src/extra/widgets/colorwheel/lv_colorwheel.c **** 
 154:Middlewares/lvgl/src/extra/widgets/colorwheel/lv_colorwheel.c **** /*=====================
 155:Middlewares/lvgl/src/extra/widgets/colorwheel/lv_colorwheel.c ****  * Getter functions
 156:Middlewares/lvgl/src/extra/widgets/colorwheel/lv_colorwheel.c ****  *====================*/
 157:Middlewares/lvgl/src/extra/widgets/colorwheel/lv_colorwheel.c **** 
 158:Middlewares/lvgl/src/extra/widgets/colorwheel/lv_colorwheel.c **** 
 159:Middlewares/lvgl/src/extra/widgets/colorwheel/lv_colorwheel.c **** /**
 160:Middlewares/lvgl/src/extra/widgets/colorwheel/lv_colorwheel.c ****  * Get the current selected hsv of a color wheel.
 161:Middlewares/lvgl/src/extra/widgets/colorwheel/lv_colorwheel.c ****  * @param colorwheel pointer to color wheel object
 162:Middlewares/lvgl/src/extra/widgets/colorwheel/lv_colorwheel.c ****  * @return current selected hsv
 163:Middlewares/lvgl/src/extra/widgets/colorwheel/lv_colorwheel.c ****  */
 164:Middlewares/lvgl/src/extra/widgets/colorwheel/lv_colorwheel.c **** lv_color_hsv_t lv_colorwheel_get_hsv(lv_obj_t * obj)
 165:Middlewares/lvgl/src/extra/widgets/colorwheel/lv_colorwheel.c **** {
 166:Middlewares/lvgl/src/extra/widgets/colorwheel/lv_colorwheel.c ****     lv_colorwheel_t * colorwheel = (lv_colorwheel_t *)obj;
 167:Middlewares/lvgl/src/extra/widgets/colorwheel/lv_colorwheel.c **** 
 168:Middlewares/lvgl/src/extra/widgets/colorwheel/lv_colorwheel.c ****     return colorwheel->hsv;
 169:Middlewares/lvgl/src/extra/widgets/colorwheel/lv_colorwheel.c **** }
 170:Middlewares/lvgl/src/extra/widgets/colorwheel/lv_colorwheel.c **** 
 171:Middlewares/lvgl/src/extra/widgets/colorwheel/lv_colorwheel.c **** /**
 172:Middlewares/lvgl/src/extra/widgets/colorwheel/lv_colorwheel.c ****  * Get the current selected color of a color wheel.
 173:Middlewares/lvgl/src/extra/widgets/colorwheel/lv_colorwheel.c ****  * @param colorwheel pointer to color wheel object
 174:Middlewares/lvgl/src/extra/widgets/colorwheel/lv_colorwheel.c ****  * @return color current selected color
 175:Middlewares/lvgl/src/extra/widgets/colorwheel/lv_colorwheel.c ****  */
 176:Middlewares/lvgl/src/extra/widgets/colorwheel/lv_colorwheel.c **** lv_color_t lv_colorwheel_get_rgb(lv_obj_t * obj)
 177:Middlewares/lvgl/src/extra/widgets/colorwheel/lv_colorwheel.c **** {
 178:Middlewares/lvgl/src/extra/widgets/colorwheel/lv_colorwheel.c ****     lv_colorwheel_t * colorwheel = (lv_colorwheel_t *)obj;
 179:Middlewares/lvgl/src/extra/widgets/colorwheel/lv_colorwheel.c **** 
 180:Middlewares/lvgl/src/extra/widgets/colorwheel/lv_colorwheel.c ****     return lv_color_hsv_to_rgb(colorwheel->hsv.h, colorwheel->hsv.s, colorwheel->hsv.v);
 181:Middlewares/lvgl/src/extra/widgets/colorwheel/lv_colorwheel.c **** }
 182:Middlewares/lvgl/src/extra/widgets/colorwheel/lv_colorwheel.c **** 
 183:Middlewares/lvgl/src/extra/widgets/colorwheel/lv_colorwheel.c **** /**
 184:Middlewares/lvgl/src/extra/widgets/colorwheel/lv_colorwheel.c ****  * Get the current color mode.
 185:Middlewares/lvgl/src/extra/widgets/colorwheel/lv_colorwheel.c ****  * @param colorwheel pointer to color wheel object
 186:Middlewares/lvgl/src/extra/widgets/colorwheel/lv_colorwheel.c ****  * @return color mode (hue/sat/val)
 187:Middlewares/lvgl/src/extra/widgets/colorwheel/lv_colorwheel.c ****  */
 188:Middlewares/lvgl/src/extra/widgets/colorwheel/lv_colorwheel.c **** lv_colorwheel_mode_t lv_colorwheel_get_color_mode(lv_obj_t * obj)
 189:Middlewares/lvgl/src/extra/widgets/colorwheel/lv_colorwheel.c **** {
 190:Middlewares/lvgl/src/extra/widgets/colorwheel/lv_colorwheel.c ****     lv_colorwheel_t * colorwheel = (lv_colorwheel_t *)obj;
 191:Middlewares/lvgl/src/extra/widgets/colorwheel/lv_colorwheel.c **** 
 192:Middlewares/lvgl/src/extra/widgets/colorwheel/lv_colorwheel.c ****     return colorwheel->mode;
 193:Middlewares/lvgl/src/extra/widgets/colorwheel/lv_colorwheel.c **** }
 194:Middlewares/lvgl/src/extra/widgets/colorwheel/lv_colorwheel.c **** 
 195:Middlewares/lvgl/src/extra/widgets/colorwheel/lv_colorwheel.c **** /**
 196:Middlewares/lvgl/src/extra/widgets/colorwheel/lv_colorwheel.c ****  * Get if the color mode is changed on long press on center
 197:Middlewares/lvgl/src/extra/widgets/colorwheel/lv_colorwheel.c ****  * @param colorwheel pointer to color wheel object
 198:Middlewares/lvgl/src/extra/widgets/colorwheel/lv_colorwheel.c ****  * @return mode cannot be changed on long press
 199:Middlewares/lvgl/src/extra/widgets/colorwheel/lv_colorwheel.c ****  */
 200:Middlewares/lvgl/src/extra/widgets/colorwheel/lv_colorwheel.c **** bool lv_colorwheel_get_color_mode_fixed(lv_obj_t * obj)
 201:Middlewares/lvgl/src/extra/widgets/colorwheel/lv_colorwheel.c **** {
ARM GAS  /tmp/ccyILfU7.s 			page 5


 202:Middlewares/lvgl/src/extra/widgets/colorwheel/lv_colorwheel.c ****     lv_colorwheel_t * colorwheel = (lv_colorwheel_t *)obj;
 203:Middlewares/lvgl/src/extra/widgets/colorwheel/lv_colorwheel.c **** 
 204:Middlewares/lvgl/src/extra/widgets/colorwheel/lv_colorwheel.c ****     return colorwheel->mode_fixed;
 205:Middlewares/lvgl/src/extra/widgets/colorwheel/lv_colorwheel.c **** }
 206:Middlewares/lvgl/src/extra/widgets/colorwheel/lv_colorwheel.c **** 
 207:Middlewares/lvgl/src/extra/widgets/colorwheel/lv_colorwheel.c **** /*=====================
 208:Middlewares/lvgl/src/extra/widgets/colorwheel/lv_colorwheel.c ****  * Other functions
 209:Middlewares/lvgl/src/extra/widgets/colorwheel/lv_colorwheel.c ****  *====================*/
 210:Middlewares/lvgl/src/extra/widgets/colorwheel/lv_colorwheel.c **** 
 211:Middlewares/lvgl/src/extra/widgets/colorwheel/lv_colorwheel.c **** /**********************
 212:Middlewares/lvgl/src/extra/widgets/colorwheel/lv_colorwheel.c ****  *   STATIC FUNCTIONS
 213:Middlewares/lvgl/src/extra/widgets/colorwheel/lv_colorwheel.c ****  **********************/
 214:Middlewares/lvgl/src/extra/widgets/colorwheel/lv_colorwheel.c **** 
 215:Middlewares/lvgl/src/extra/widgets/colorwheel/lv_colorwheel.c **** static void lv_colorwheel_constructor(const lv_obj_class_t * class_p, lv_obj_t * obj)
 216:Middlewares/lvgl/src/extra/widgets/colorwheel/lv_colorwheel.c **** {
 217:Middlewares/lvgl/src/extra/widgets/colorwheel/lv_colorwheel.c ****     LV_UNUSED(class_p);
 218:Middlewares/lvgl/src/extra/widgets/colorwheel/lv_colorwheel.c ****     lv_colorwheel_t * colorwheel = (lv_colorwheel_t *)obj;
 219:Middlewares/lvgl/src/extra/widgets/colorwheel/lv_colorwheel.c ****     colorwheel->hsv.h = 0;
 220:Middlewares/lvgl/src/extra/widgets/colorwheel/lv_colorwheel.c ****     colorwheel->hsv.s = 100;
 221:Middlewares/lvgl/src/extra/widgets/colorwheel/lv_colorwheel.c ****     colorwheel->hsv.v = 100;
 222:Middlewares/lvgl/src/extra/widgets/colorwheel/lv_colorwheel.c ****     colorwheel->mode = LV_COLORWHEEL_MODE_HUE;
 223:Middlewares/lvgl/src/extra/widgets/colorwheel/lv_colorwheel.c ****     colorwheel->mode_fixed = 0;
 224:Middlewares/lvgl/src/extra/widgets/colorwheel/lv_colorwheel.c ****     colorwheel->last_click_time = 0;
 225:Middlewares/lvgl/src/extra/widgets/colorwheel/lv_colorwheel.c ****     colorwheel->last_change_time = 0;
 226:Middlewares/lvgl/src/extra/widgets/colorwheel/lv_colorwheel.c ****     colorwheel->knob.recolor = create_knob_recolor;
 227:Middlewares/lvgl/src/extra/widgets/colorwheel/lv_colorwheel.c **** 
 228:Middlewares/lvgl/src/extra/widgets/colorwheel/lv_colorwheel.c ****     lv_obj_add_flag(obj, LV_OBJ_FLAG_ADV_HITTEST);
 229:Middlewares/lvgl/src/extra/widgets/colorwheel/lv_colorwheel.c ****     lv_obj_clear_flag(obj, LV_OBJ_FLAG_SCROLL_CHAIN);
 230:Middlewares/lvgl/src/extra/widgets/colorwheel/lv_colorwheel.c ****     refr_knob_pos(obj);
 231:Middlewares/lvgl/src/extra/widgets/colorwheel/lv_colorwheel.c **** }
 232:Middlewares/lvgl/src/extra/widgets/colorwheel/lv_colorwheel.c **** 
 233:Middlewares/lvgl/src/extra/widgets/colorwheel/lv_colorwheel.c **** static void draw_disc_grad(lv_event_t * e)
 234:Middlewares/lvgl/src/extra/widgets/colorwheel/lv_colorwheel.c **** {
 235:Middlewares/lvgl/src/extra/widgets/colorwheel/lv_colorwheel.c ****     lv_obj_t * obj = lv_event_get_target(e);
 236:Middlewares/lvgl/src/extra/widgets/colorwheel/lv_colorwheel.c ****     const lv_area_t * clip_area = lv_event_get_param(e);
 237:Middlewares/lvgl/src/extra/widgets/colorwheel/lv_colorwheel.c ****     lv_coord_t w = lv_obj_get_width(obj);
 238:Middlewares/lvgl/src/extra/widgets/colorwheel/lv_colorwheel.c ****     lv_coord_t h = lv_obj_get_height(obj);
 239:Middlewares/lvgl/src/extra/widgets/colorwheel/lv_colorwheel.c ****     lv_coord_t cx = obj->coords.x1 + w / 2;
 240:Middlewares/lvgl/src/extra/widgets/colorwheel/lv_colorwheel.c ****     lv_coord_t cy = obj->coords.y1 + h / 2;
 241:Middlewares/lvgl/src/extra/widgets/colorwheel/lv_colorwheel.c ****     lv_coord_t r = w / 2;
 242:Middlewares/lvgl/src/extra/widgets/colorwheel/lv_colorwheel.c **** 
 243:Middlewares/lvgl/src/extra/widgets/colorwheel/lv_colorwheel.c ****     lv_draw_line_dsc_t line_dsc;
 244:Middlewares/lvgl/src/extra/widgets/colorwheel/lv_colorwheel.c ****     lv_draw_line_dsc_init(&line_dsc);
 245:Middlewares/lvgl/src/extra/widgets/colorwheel/lv_colorwheel.c ****     lv_obj_init_draw_line_dsc(obj, LV_PART_MAIN, &line_dsc);
 246:Middlewares/lvgl/src/extra/widgets/colorwheel/lv_colorwheel.c **** 
 247:Middlewares/lvgl/src/extra/widgets/colorwheel/lv_colorwheel.c ****     line_dsc.width = (r * 628 / (256 / LV_CPICKER_DEF_QF)) / 100;
 248:Middlewares/lvgl/src/extra/widgets/colorwheel/lv_colorwheel.c ****     line_dsc.width += 2;
 249:Middlewares/lvgl/src/extra/widgets/colorwheel/lv_colorwheel.c ****     uint16_t i;
 250:Middlewares/lvgl/src/extra/widgets/colorwheel/lv_colorwheel.c ****     uint32_t a = 0;
 251:Middlewares/lvgl/src/extra/widgets/colorwheel/lv_colorwheel.c ****     lv_coord_t cir_w = lv_obj_get_style_arc_width(obj, LV_PART_MAIN);
 252:Middlewares/lvgl/src/extra/widgets/colorwheel/lv_colorwheel.c **** 
 253:Middlewares/lvgl/src/extra/widgets/colorwheel/lv_colorwheel.c **** #if LV_DRAW_COMPLEX
 254:Middlewares/lvgl/src/extra/widgets/colorwheel/lv_colorwheel.c ****     /*Mask outer and inner ring of widget to tidy up ragged edges of lines while drawing outer ring
 255:Middlewares/lvgl/src/extra/widgets/colorwheel/lv_colorwheel.c ****     lv_draw_mask_radius_param_t mask_out_param;
 256:Middlewares/lvgl/src/extra/widgets/colorwheel/lv_colorwheel.c ****     lv_draw_mask_radius_init(&mask_out_param, &obj->coords, LV_RADIUS_CIRCLE, false);
 257:Middlewares/lvgl/src/extra/widgets/colorwheel/lv_colorwheel.c ****     int16_t mask_out_id = lv_draw_mask_add(&mask_out_param, 0);
 258:Middlewares/lvgl/src/extra/widgets/colorwheel/lv_colorwheel.c **** 
ARM GAS  /tmp/ccyILfU7.s 			page 6


 259:Middlewares/lvgl/src/extra/widgets/colorwheel/lv_colorwheel.c ****     lv_area_t mask_area;
 260:Middlewares/lvgl/src/extra/widgets/colorwheel/lv_colorwheel.c ****     lv_area_copy(&mask_area, &obj->coords);
 261:Middlewares/lvgl/src/extra/widgets/colorwheel/lv_colorwheel.c ****     mask_area.x1 += cir_w;
 262:Middlewares/lvgl/src/extra/widgets/colorwheel/lv_colorwheel.c ****     mask_area.x2 -= cir_w;
 263:Middlewares/lvgl/src/extra/widgets/colorwheel/lv_colorwheel.c ****     mask_area.y1 += cir_w;
 264:Middlewares/lvgl/src/extra/widgets/colorwheel/lv_colorwheel.c ****     mask_area.y2 -= cir_w;
 265:Middlewares/lvgl/src/extra/widgets/colorwheel/lv_colorwheel.c ****     lv_draw_mask_radius_param_t mask_in_param;
 266:Middlewares/lvgl/src/extra/widgets/colorwheel/lv_colorwheel.c ****     lv_draw_mask_radius_init(&mask_in_param, &mask_area, LV_RADIUS_CIRCLE, true);
 267:Middlewares/lvgl/src/extra/widgets/colorwheel/lv_colorwheel.c ****     int16_t mask_in_id = lv_draw_mask_add(&mask_in_param, 0);
 268:Middlewares/lvgl/src/extra/widgets/colorwheel/lv_colorwheel.c **** 
 269:Middlewares/lvgl/src/extra/widgets/colorwheel/lv_colorwheel.c ****     /*The inner and outer line ends will be masked out.
 270:Middlewares/lvgl/src/extra/widgets/colorwheel/lv_colorwheel.c ****      *So make lines a little bit longer because the masking makes a more even result*/
 271:Middlewares/lvgl/src/extra/widgets/colorwheel/lv_colorwheel.c ****     lv_coord_t cir_w_extra = line_dsc.width;
 272:Middlewares/lvgl/src/extra/widgets/colorwheel/lv_colorwheel.c **** #else
 273:Middlewares/lvgl/src/extra/widgets/colorwheel/lv_colorwheel.c ****     lv_coord_t cir_w_extra = 0;
 274:Middlewares/lvgl/src/extra/widgets/colorwheel/lv_colorwheel.c **** #endif
 275:Middlewares/lvgl/src/extra/widgets/colorwheel/lv_colorwheel.c **** 
 276:Middlewares/lvgl/src/extra/widgets/colorwheel/lv_colorwheel.c ****     for(i = 0; i <= 256; i += LV_CPICKER_DEF_QF, a += 360 * LV_CPICKER_DEF_QF) {
 277:Middlewares/lvgl/src/extra/widgets/colorwheel/lv_colorwheel.c ****         line_dsc.color = angle_to_mode_color_fast(obj, i);
 278:Middlewares/lvgl/src/extra/widgets/colorwheel/lv_colorwheel.c ****         uint16_t angle_trigo = (uint16_t)(a >> 8); /*i * 360 / 256 is the scale to apply, but we ca
 279:Middlewares/lvgl/src/extra/widgets/colorwheel/lv_colorwheel.c **** 
 280:Middlewares/lvgl/src/extra/widgets/colorwheel/lv_colorwheel.c ****         lv_point_t p[2];
 281:Middlewares/lvgl/src/extra/widgets/colorwheel/lv_colorwheel.c ****         p[0].x = cx + ((r + cir_w_extra) * lv_trigo_sin(angle_trigo) >> LV_TRIGO_SHIFT);
 282:Middlewares/lvgl/src/extra/widgets/colorwheel/lv_colorwheel.c ****         p[0].y = cy + ((r + cir_w_extra) * lv_trigo_cos(angle_trigo) >> LV_TRIGO_SHIFT);
 283:Middlewares/lvgl/src/extra/widgets/colorwheel/lv_colorwheel.c ****         p[1].x = cx + ((r - cir_w - cir_w_extra) * lv_trigo_sin(angle_trigo) >> LV_TRIGO_SHIFT);
 284:Middlewares/lvgl/src/extra/widgets/colorwheel/lv_colorwheel.c ****         p[1].y = cy + ((r - cir_w - cir_w_extra) * lv_trigo_cos(angle_trigo) >> LV_TRIGO_SHIFT);
 285:Middlewares/lvgl/src/extra/widgets/colorwheel/lv_colorwheel.c **** 
 286:Middlewares/lvgl/src/extra/widgets/colorwheel/lv_colorwheel.c ****         lv_draw_line(&p[0], &p[1], clip_area, &line_dsc);
 287:Middlewares/lvgl/src/extra/widgets/colorwheel/lv_colorwheel.c ****     }
 288:Middlewares/lvgl/src/extra/widgets/colorwheel/lv_colorwheel.c **** 
 289:Middlewares/lvgl/src/extra/widgets/colorwheel/lv_colorwheel.c **** #if LV_DRAW_COMPLEX
 290:Middlewares/lvgl/src/extra/widgets/colorwheel/lv_colorwheel.c ****     lv_draw_mask_remove_id(mask_out_id);
 291:Middlewares/lvgl/src/extra/widgets/colorwheel/lv_colorwheel.c ****     lv_draw_mask_remove_id(mask_in_id);
 292:Middlewares/lvgl/src/extra/widgets/colorwheel/lv_colorwheel.c **** #endif
 293:Middlewares/lvgl/src/extra/widgets/colorwheel/lv_colorwheel.c **** }
 294:Middlewares/lvgl/src/extra/widgets/colorwheel/lv_colorwheel.c **** 
 295:Middlewares/lvgl/src/extra/widgets/colorwheel/lv_colorwheel.c **** static void draw_knob(lv_event_t * e)
 296:Middlewares/lvgl/src/extra/widgets/colorwheel/lv_colorwheel.c **** {
 297:Middlewares/lvgl/src/extra/widgets/colorwheel/lv_colorwheel.c ****     lv_obj_t * obj = lv_event_get_target(e);
 298:Middlewares/lvgl/src/extra/widgets/colorwheel/lv_colorwheel.c ****     const lv_area_t * clip_area = lv_event_get_param(e);
 299:Middlewares/lvgl/src/extra/widgets/colorwheel/lv_colorwheel.c ****     lv_colorwheel_t * colorwheel = (lv_colorwheel_t *)obj;
 300:Middlewares/lvgl/src/extra/widgets/colorwheel/lv_colorwheel.c **** 
 301:Middlewares/lvgl/src/extra/widgets/colorwheel/lv_colorwheel.c ****     lv_draw_rect_dsc_t cir_dsc;
 302:Middlewares/lvgl/src/extra/widgets/colorwheel/lv_colorwheel.c ****     lv_draw_rect_dsc_init(&cir_dsc);
 303:Middlewares/lvgl/src/extra/widgets/colorwheel/lv_colorwheel.c ****     lv_obj_init_draw_rect_dsc(obj, LV_PART_KNOB, &cir_dsc);
 304:Middlewares/lvgl/src/extra/widgets/colorwheel/lv_colorwheel.c **** 
 305:Middlewares/lvgl/src/extra/widgets/colorwheel/lv_colorwheel.c ****     cir_dsc.radius = LV_RADIUS_CIRCLE;
 306:Middlewares/lvgl/src/extra/widgets/colorwheel/lv_colorwheel.c **** 
 307:Middlewares/lvgl/src/extra/widgets/colorwheel/lv_colorwheel.c ****     if(colorwheel->knob.recolor) {
 308:Middlewares/lvgl/src/extra/widgets/colorwheel/lv_colorwheel.c ****         cir_dsc.bg_color = lv_colorwheel_get_rgb(obj);
 309:Middlewares/lvgl/src/extra/widgets/colorwheel/lv_colorwheel.c ****     }
 310:Middlewares/lvgl/src/extra/widgets/colorwheel/lv_colorwheel.c **** 
 311:Middlewares/lvgl/src/extra/widgets/colorwheel/lv_colorwheel.c ****     lv_area_t knob_area = get_knob_area(obj);
 312:Middlewares/lvgl/src/extra/widgets/colorwheel/lv_colorwheel.c **** 
 313:Middlewares/lvgl/src/extra/widgets/colorwheel/lv_colorwheel.c ****     lv_draw_rect(&knob_area, clip_area, &cir_dsc);
 314:Middlewares/lvgl/src/extra/widgets/colorwheel/lv_colorwheel.c **** }
 315:Middlewares/lvgl/src/extra/widgets/colorwheel/lv_colorwheel.c **** 
ARM GAS  /tmp/ccyILfU7.s 			page 7


 316:Middlewares/lvgl/src/extra/widgets/colorwheel/lv_colorwheel.c **** static void invalidate_knob(lv_obj_t * obj)
 317:Middlewares/lvgl/src/extra/widgets/colorwheel/lv_colorwheel.c **** {
 318:Middlewares/lvgl/src/extra/widgets/colorwheel/lv_colorwheel.c ****     lv_area_t knob_area = get_knob_area(obj);
 319:Middlewares/lvgl/src/extra/widgets/colorwheel/lv_colorwheel.c **** 
 320:Middlewares/lvgl/src/extra/widgets/colorwheel/lv_colorwheel.c ****     lv_obj_invalidate_area(obj, &knob_area);
 321:Middlewares/lvgl/src/extra/widgets/colorwheel/lv_colorwheel.c **** }
 322:Middlewares/lvgl/src/extra/widgets/colorwheel/lv_colorwheel.c **** 
 323:Middlewares/lvgl/src/extra/widgets/colorwheel/lv_colorwheel.c **** static lv_area_t get_knob_area(lv_obj_t * obj)
 324:Middlewares/lvgl/src/extra/widgets/colorwheel/lv_colorwheel.c **** {
 325:Middlewares/lvgl/src/extra/widgets/colorwheel/lv_colorwheel.c ****     lv_colorwheel_t * colorwheel = (lv_colorwheel_t *)obj;
 326:Middlewares/lvgl/src/extra/widgets/colorwheel/lv_colorwheel.c **** 
 327:Middlewares/lvgl/src/extra/widgets/colorwheel/lv_colorwheel.c ****     /*Get knob's radius*/
 328:Middlewares/lvgl/src/extra/widgets/colorwheel/lv_colorwheel.c ****     uint16_t r = 0;
 329:Middlewares/lvgl/src/extra/widgets/colorwheel/lv_colorwheel.c ****     r = lv_obj_get_style_arc_width(obj, LV_PART_MAIN) / 2;
 330:Middlewares/lvgl/src/extra/widgets/colorwheel/lv_colorwheel.c **** 
 331:Middlewares/lvgl/src/extra/widgets/colorwheel/lv_colorwheel.c ****     lv_coord_t left = lv_obj_get_style_pad_left(obj, LV_PART_KNOB);
 332:Middlewares/lvgl/src/extra/widgets/colorwheel/lv_colorwheel.c ****     lv_coord_t right = lv_obj_get_style_pad_right(obj, LV_PART_KNOB);
 333:Middlewares/lvgl/src/extra/widgets/colorwheel/lv_colorwheel.c ****     lv_coord_t top = lv_obj_get_style_pad_top(obj, LV_PART_KNOB);
 334:Middlewares/lvgl/src/extra/widgets/colorwheel/lv_colorwheel.c ****     lv_coord_t bottom = lv_obj_get_style_pad_bottom(obj, LV_PART_KNOB);
 335:Middlewares/lvgl/src/extra/widgets/colorwheel/lv_colorwheel.c **** 
 336:Middlewares/lvgl/src/extra/widgets/colorwheel/lv_colorwheel.c ****     lv_area_t knob_area;
 337:Middlewares/lvgl/src/extra/widgets/colorwheel/lv_colorwheel.c ****     knob_area.x1 = obj->coords.x1 + colorwheel->knob.pos.x - r - left;
 338:Middlewares/lvgl/src/extra/widgets/colorwheel/lv_colorwheel.c ****     knob_area.y1 = obj->coords.y1 + colorwheel->knob.pos.y - r - right;
 339:Middlewares/lvgl/src/extra/widgets/colorwheel/lv_colorwheel.c ****     knob_area.x2 = obj->coords.x1 + colorwheel->knob.pos.x + r + top;
 340:Middlewares/lvgl/src/extra/widgets/colorwheel/lv_colorwheel.c ****     knob_area.y2 = obj->coords.y1 + colorwheel->knob.pos.y + r + bottom;
 341:Middlewares/lvgl/src/extra/widgets/colorwheel/lv_colorwheel.c **** 
 342:Middlewares/lvgl/src/extra/widgets/colorwheel/lv_colorwheel.c ****     return knob_area;
 343:Middlewares/lvgl/src/extra/widgets/colorwheel/lv_colorwheel.c **** }
 344:Middlewares/lvgl/src/extra/widgets/colorwheel/lv_colorwheel.c **** 
 345:Middlewares/lvgl/src/extra/widgets/colorwheel/lv_colorwheel.c **** static void lv_colorwheel_event(const lv_obj_class_t * class_p, lv_event_t * e)
 346:Middlewares/lvgl/src/extra/widgets/colorwheel/lv_colorwheel.c **** {
 347:Middlewares/lvgl/src/extra/widgets/colorwheel/lv_colorwheel.c ****     LV_UNUSED(class_p);
 348:Middlewares/lvgl/src/extra/widgets/colorwheel/lv_colorwheel.c **** 
 349:Middlewares/lvgl/src/extra/widgets/colorwheel/lv_colorwheel.c ****     /*Call the ancestor's event handler*/
 350:Middlewares/lvgl/src/extra/widgets/colorwheel/lv_colorwheel.c ****     lv_res_t res = lv_obj_event_base(MY_CLASS, e);
 351:Middlewares/lvgl/src/extra/widgets/colorwheel/lv_colorwheel.c **** 
 352:Middlewares/lvgl/src/extra/widgets/colorwheel/lv_colorwheel.c ****     if(res != LV_RES_OK) return;
 353:Middlewares/lvgl/src/extra/widgets/colorwheel/lv_colorwheel.c **** 
 354:Middlewares/lvgl/src/extra/widgets/colorwheel/lv_colorwheel.c ****     lv_event_code_t code = lv_event_get_code(e);
 355:Middlewares/lvgl/src/extra/widgets/colorwheel/lv_colorwheel.c ****     lv_obj_t * obj = lv_event_get_target(e);
 356:Middlewares/lvgl/src/extra/widgets/colorwheel/lv_colorwheel.c ****     lv_colorwheel_t * colorwheel = (lv_colorwheel_t *)obj;
 357:Middlewares/lvgl/src/extra/widgets/colorwheel/lv_colorwheel.c **** 
 358:Middlewares/lvgl/src/extra/widgets/colorwheel/lv_colorwheel.c ****     if(code == LV_EVENT_REFR_EXT_DRAW_SIZE) {
 359:Middlewares/lvgl/src/extra/widgets/colorwheel/lv_colorwheel.c ****         lv_coord_t left = lv_obj_get_style_pad_left(obj, LV_PART_KNOB);
 360:Middlewares/lvgl/src/extra/widgets/colorwheel/lv_colorwheel.c ****         lv_coord_t right = lv_obj_get_style_pad_right(obj, LV_PART_KNOB);
 361:Middlewares/lvgl/src/extra/widgets/colorwheel/lv_colorwheel.c ****         lv_coord_t top = lv_obj_get_style_pad_top(obj, LV_PART_KNOB);
 362:Middlewares/lvgl/src/extra/widgets/colorwheel/lv_colorwheel.c ****         lv_coord_t bottom = lv_obj_get_style_pad_bottom(obj, LV_PART_KNOB);
 363:Middlewares/lvgl/src/extra/widgets/colorwheel/lv_colorwheel.c **** 
 364:Middlewares/lvgl/src/extra/widgets/colorwheel/lv_colorwheel.c ****         lv_coord_t knob_pad = LV_MAX4(left, right, top, bottom) + 2;
 365:Middlewares/lvgl/src/extra/widgets/colorwheel/lv_colorwheel.c ****         lv_coord_t * s = lv_event_get_param(e);
 366:Middlewares/lvgl/src/extra/widgets/colorwheel/lv_colorwheel.c ****         *s = LV_MAX(*s, knob_pad);
 367:Middlewares/lvgl/src/extra/widgets/colorwheel/lv_colorwheel.c ****     }
 368:Middlewares/lvgl/src/extra/widgets/colorwheel/lv_colorwheel.c ****     else if(code == LV_EVENT_SIZE_CHANGED) {
 369:Middlewares/lvgl/src/extra/widgets/colorwheel/lv_colorwheel.c ****         void * param = lv_event_get_param(e);
 370:Middlewares/lvgl/src/extra/widgets/colorwheel/lv_colorwheel.c ****         /*Refresh extended draw area to make knob visible*/
 371:Middlewares/lvgl/src/extra/widgets/colorwheel/lv_colorwheel.c ****         if(lv_obj_get_width(obj) != lv_area_get_width(param) ||
 372:Middlewares/lvgl/src/extra/widgets/colorwheel/lv_colorwheel.c ****            lv_obj_get_height(obj) != lv_area_get_height(param)) {
ARM GAS  /tmp/ccyILfU7.s 			page 8


 373:Middlewares/lvgl/src/extra/widgets/colorwheel/lv_colorwheel.c ****             refr_knob_pos(obj);
 374:Middlewares/lvgl/src/extra/widgets/colorwheel/lv_colorwheel.c ****         }
 375:Middlewares/lvgl/src/extra/widgets/colorwheel/lv_colorwheel.c ****     }
 376:Middlewares/lvgl/src/extra/widgets/colorwheel/lv_colorwheel.c ****     else if(code == LV_EVENT_STYLE_CHANGED) {
 377:Middlewares/lvgl/src/extra/widgets/colorwheel/lv_colorwheel.c ****         /*Refresh extended draw area to make knob visible*/
 378:Middlewares/lvgl/src/extra/widgets/colorwheel/lv_colorwheel.c ****         refr_knob_pos(obj);
 379:Middlewares/lvgl/src/extra/widgets/colorwheel/lv_colorwheel.c ****     }
 380:Middlewares/lvgl/src/extra/widgets/colorwheel/lv_colorwheel.c ****     else if(code == LV_EVENT_KEY) {
 381:Middlewares/lvgl/src/extra/widgets/colorwheel/lv_colorwheel.c ****         uint32_t c = *((uint32_t *)lv_event_get_param(e)); /*uint32_t because can be UTF-8*/
 382:Middlewares/lvgl/src/extra/widgets/colorwheel/lv_colorwheel.c **** 
 383:Middlewares/lvgl/src/extra/widgets/colorwheel/lv_colorwheel.c ****         if(c == LV_KEY_RIGHT || c == LV_KEY_UP) {
 384:Middlewares/lvgl/src/extra/widgets/colorwheel/lv_colorwheel.c ****             lv_color_hsv_t hsv_cur;
 385:Middlewares/lvgl/src/extra/widgets/colorwheel/lv_colorwheel.c ****             hsv_cur = colorwheel->hsv;
 386:Middlewares/lvgl/src/extra/widgets/colorwheel/lv_colorwheel.c **** 
 387:Middlewares/lvgl/src/extra/widgets/colorwheel/lv_colorwheel.c ****             switch(colorwheel->mode) {
 388:Middlewares/lvgl/src/extra/widgets/colorwheel/lv_colorwheel.c ****                 case LV_COLORWHEEL_MODE_HUE:
 389:Middlewares/lvgl/src/extra/widgets/colorwheel/lv_colorwheel.c ****                     hsv_cur.h = (colorwheel->hsv.h + 1) % 360;
 390:Middlewares/lvgl/src/extra/widgets/colorwheel/lv_colorwheel.c ****                     break;
 391:Middlewares/lvgl/src/extra/widgets/colorwheel/lv_colorwheel.c ****                 case LV_COLORWHEEL_MODE_SATURATION:
 392:Middlewares/lvgl/src/extra/widgets/colorwheel/lv_colorwheel.c ****                     hsv_cur.s = (colorwheel->hsv.s + 1) % 100;
 393:Middlewares/lvgl/src/extra/widgets/colorwheel/lv_colorwheel.c ****                     break;
 394:Middlewares/lvgl/src/extra/widgets/colorwheel/lv_colorwheel.c ****                 case LV_COLORWHEEL_MODE_VALUE:
 395:Middlewares/lvgl/src/extra/widgets/colorwheel/lv_colorwheel.c ****                     hsv_cur.v = (colorwheel->hsv.v + 1) % 100;
 396:Middlewares/lvgl/src/extra/widgets/colorwheel/lv_colorwheel.c ****                     break;
 397:Middlewares/lvgl/src/extra/widgets/colorwheel/lv_colorwheel.c ****             }
 398:Middlewares/lvgl/src/extra/widgets/colorwheel/lv_colorwheel.c **** 
 399:Middlewares/lvgl/src/extra/widgets/colorwheel/lv_colorwheel.c ****             if(lv_colorwheel_set_hsv(obj, hsv_cur)) {
 400:Middlewares/lvgl/src/extra/widgets/colorwheel/lv_colorwheel.c ****                 res = lv_event_send(obj, LV_EVENT_VALUE_CHANGED, NULL);
 401:Middlewares/lvgl/src/extra/widgets/colorwheel/lv_colorwheel.c ****                 if(res != LV_RES_OK) return;
 402:Middlewares/lvgl/src/extra/widgets/colorwheel/lv_colorwheel.c ****             }
 403:Middlewares/lvgl/src/extra/widgets/colorwheel/lv_colorwheel.c ****         }
 404:Middlewares/lvgl/src/extra/widgets/colorwheel/lv_colorwheel.c ****         else if(c == LV_KEY_LEFT || c == LV_KEY_DOWN) {
 405:Middlewares/lvgl/src/extra/widgets/colorwheel/lv_colorwheel.c ****             lv_color_hsv_t hsv_cur;
 406:Middlewares/lvgl/src/extra/widgets/colorwheel/lv_colorwheel.c ****             hsv_cur = colorwheel->hsv;
 407:Middlewares/lvgl/src/extra/widgets/colorwheel/lv_colorwheel.c **** 
 408:Middlewares/lvgl/src/extra/widgets/colorwheel/lv_colorwheel.c ****             switch(colorwheel->mode) {
 409:Middlewares/lvgl/src/extra/widgets/colorwheel/lv_colorwheel.c ****                 case LV_COLORWHEEL_MODE_HUE:
 410:Middlewares/lvgl/src/extra/widgets/colorwheel/lv_colorwheel.c ****                     hsv_cur.h = colorwheel->hsv.h > 0 ? (colorwheel->hsv.h - 1) : 360;
 411:Middlewares/lvgl/src/extra/widgets/colorwheel/lv_colorwheel.c ****                     break;
 412:Middlewares/lvgl/src/extra/widgets/colorwheel/lv_colorwheel.c ****                 case LV_COLORWHEEL_MODE_SATURATION:
 413:Middlewares/lvgl/src/extra/widgets/colorwheel/lv_colorwheel.c ****                     hsv_cur.s = colorwheel->hsv.s > 0 ? (colorwheel->hsv.s - 1) : 100;
 414:Middlewares/lvgl/src/extra/widgets/colorwheel/lv_colorwheel.c ****                     break;
 415:Middlewares/lvgl/src/extra/widgets/colorwheel/lv_colorwheel.c ****                 case LV_COLORWHEEL_MODE_VALUE:
 416:Middlewares/lvgl/src/extra/widgets/colorwheel/lv_colorwheel.c ****                     hsv_cur.v = colorwheel->hsv.v > 0 ? (colorwheel->hsv.v - 1) : 100;
 417:Middlewares/lvgl/src/extra/widgets/colorwheel/lv_colorwheel.c ****                     break;
 418:Middlewares/lvgl/src/extra/widgets/colorwheel/lv_colorwheel.c ****             }
 419:Middlewares/lvgl/src/extra/widgets/colorwheel/lv_colorwheel.c **** 
 420:Middlewares/lvgl/src/extra/widgets/colorwheel/lv_colorwheel.c ****             if(lv_colorwheel_set_hsv(obj, hsv_cur)) {
 421:Middlewares/lvgl/src/extra/widgets/colorwheel/lv_colorwheel.c ****                 res = lv_event_send(obj, LV_EVENT_VALUE_CHANGED, NULL);
 422:Middlewares/lvgl/src/extra/widgets/colorwheel/lv_colorwheel.c ****                 if(res != LV_RES_OK) return;
 423:Middlewares/lvgl/src/extra/widgets/colorwheel/lv_colorwheel.c ****             }
 424:Middlewares/lvgl/src/extra/widgets/colorwheel/lv_colorwheel.c ****         }
 425:Middlewares/lvgl/src/extra/widgets/colorwheel/lv_colorwheel.c ****     }
 426:Middlewares/lvgl/src/extra/widgets/colorwheel/lv_colorwheel.c ****     else if(code == LV_EVENT_PRESSED) {
 427:Middlewares/lvgl/src/extra/widgets/colorwheel/lv_colorwheel.c ****         colorwheel->last_change_time = lv_tick_get();
 428:Middlewares/lvgl/src/extra/widgets/colorwheel/lv_colorwheel.c ****         lv_indev_get_point(lv_indev_get_act(), &colorwheel->last_press_point);
 429:Middlewares/lvgl/src/extra/widgets/colorwheel/lv_colorwheel.c ****         res = double_click_reset(obj);
ARM GAS  /tmp/ccyILfU7.s 			page 9


 430:Middlewares/lvgl/src/extra/widgets/colorwheel/lv_colorwheel.c ****         if(res != LV_RES_OK) return;
 431:Middlewares/lvgl/src/extra/widgets/colorwheel/lv_colorwheel.c ****     }
 432:Middlewares/lvgl/src/extra/widgets/colorwheel/lv_colorwheel.c ****     else if(code == LV_EVENT_PRESSING) {
 433:Middlewares/lvgl/src/extra/widgets/colorwheel/lv_colorwheel.c ****         lv_indev_t * indev = lv_indev_get_act();
 434:Middlewares/lvgl/src/extra/widgets/colorwheel/lv_colorwheel.c ****         if(indev == NULL) return;
 435:Middlewares/lvgl/src/extra/widgets/colorwheel/lv_colorwheel.c **** 
 436:Middlewares/lvgl/src/extra/widgets/colorwheel/lv_colorwheel.c ****         lv_indev_type_t indev_type = lv_indev_get_type(indev);
 437:Middlewares/lvgl/src/extra/widgets/colorwheel/lv_colorwheel.c ****         lv_point_t p;
 438:Middlewares/lvgl/src/extra/widgets/colorwheel/lv_colorwheel.c ****         if(indev_type == LV_INDEV_TYPE_ENCODER || indev_type == LV_INDEV_TYPE_KEYPAD) {
 439:Middlewares/lvgl/src/extra/widgets/colorwheel/lv_colorwheel.c ****             p.x = obj->coords.x1 + lv_obj_get_width(obj) / 2;
 440:Middlewares/lvgl/src/extra/widgets/colorwheel/lv_colorwheel.c ****             p.y = obj->coords.y1 + lv_obj_get_height(obj) / 2;
 441:Middlewares/lvgl/src/extra/widgets/colorwheel/lv_colorwheel.c ****         }
 442:Middlewares/lvgl/src/extra/widgets/colorwheel/lv_colorwheel.c ****         else {
 443:Middlewares/lvgl/src/extra/widgets/colorwheel/lv_colorwheel.c ****             lv_indev_get_point(indev, &p);
 444:Middlewares/lvgl/src/extra/widgets/colorwheel/lv_colorwheel.c ****         }
 445:Middlewares/lvgl/src/extra/widgets/colorwheel/lv_colorwheel.c **** 
 446:Middlewares/lvgl/src/extra/widgets/colorwheel/lv_colorwheel.c ****         lv_coord_t drag_limit = indev->driver->scroll_limit;
 447:Middlewares/lvgl/src/extra/widgets/colorwheel/lv_colorwheel.c ****         if((LV_ABS(p.x - colorwheel->last_press_point.x) > drag_limit) ||
 448:Middlewares/lvgl/src/extra/widgets/colorwheel/lv_colorwheel.c ****            (LV_ABS(p.y - colorwheel->last_press_point.y) > drag_limit)) {
 449:Middlewares/lvgl/src/extra/widgets/colorwheel/lv_colorwheel.c ****             colorwheel->last_change_time = lv_tick_get();
 450:Middlewares/lvgl/src/extra/widgets/colorwheel/lv_colorwheel.c ****             colorwheel->last_press_point.x = p.x;
 451:Middlewares/lvgl/src/extra/widgets/colorwheel/lv_colorwheel.c ****             colorwheel->last_press_point.y = p.y;
 452:Middlewares/lvgl/src/extra/widgets/colorwheel/lv_colorwheel.c ****         }
 453:Middlewares/lvgl/src/extra/widgets/colorwheel/lv_colorwheel.c **** 
 454:Middlewares/lvgl/src/extra/widgets/colorwheel/lv_colorwheel.c ****         p.x -= obj->coords.x1;
 455:Middlewares/lvgl/src/extra/widgets/colorwheel/lv_colorwheel.c ****         p.y -= obj->coords.y1;
 456:Middlewares/lvgl/src/extra/widgets/colorwheel/lv_colorwheel.c **** 
 457:Middlewares/lvgl/src/extra/widgets/colorwheel/lv_colorwheel.c ****         /*Ignore pressing in the inner area*/
 458:Middlewares/lvgl/src/extra/widgets/colorwheel/lv_colorwheel.c ****         uint16_t w = lv_obj_get_width(obj);
 459:Middlewares/lvgl/src/extra/widgets/colorwheel/lv_colorwheel.c **** 
 460:Middlewares/lvgl/src/extra/widgets/colorwheel/lv_colorwheel.c ****         int16_t angle = 0;
 461:Middlewares/lvgl/src/extra/widgets/colorwheel/lv_colorwheel.c ****         lv_coord_t cir_w = lv_obj_get_style_arc_width(obj, LV_PART_MAIN);
 462:Middlewares/lvgl/src/extra/widgets/colorwheel/lv_colorwheel.c **** 
 463:Middlewares/lvgl/src/extra/widgets/colorwheel/lv_colorwheel.c ****         lv_coord_t r_in = w / 2;
 464:Middlewares/lvgl/src/extra/widgets/colorwheel/lv_colorwheel.c ****         p.x -= r_in;
 465:Middlewares/lvgl/src/extra/widgets/colorwheel/lv_colorwheel.c ****         p.y -= r_in;
 466:Middlewares/lvgl/src/extra/widgets/colorwheel/lv_colorwheel.c ****         bool on_ring = true;
 467:Middlewares/lvgl/src/extra/widgets/colorwheel/lv_colorwheel.c ****         r_in -= cir_w;
 468:Middlewares/lvgl/src/extra/widgets/colorwheel/lv_colorwheel.c ****         if(r_in > LV_DPI_DEF / 2) {
 469:Middlewares/lvgl/src/extra/widgets/colorwheel/lv_colorwheel.c ****             lv_coord_t inner = cir_w / 2;
 470:Middlewares/lvgl/src/extra/widgets/colorwheel/lv_colorwheel.c ****             r_in -= inner;
 471:Middlewares/lvgl/src/extra/widgets/colorwheel/lv_colorwheel.c **** 
 472:Middlewares/lvgl/src/extra/widgets/colorwheel/lv_colorwheel.c ****             if(r_in < LV_DPI_DEF / 2) r_in = LV_DPI_DEF / 2;
 473:Middlewares/lvgl/src/extra/widgets/colorwheel/lv_colorwheel.c ****         }
 474:Middlewares/lvgl/src/extra/widgets/colorwheel/lv_colorwheel.c **** 
 475:Middlewares/lvgl/src/extra/widgets/colorwheel/lv_colorwheel.c ****         if(p.x * p.x + p.y * p.y < r_in * r_in) {
 476:Middlewares/lvgl/src/extra/widgets/colorwheel/lv_colorwheel.c ****             on_ring = false;
 477:Middlewares/lvgl/src/extra/widgets/colorwheel/lv_colorwheel.c ****         }
 478:Middlewares/lvgl/src/extra/widgets/colorwheel/lv_colorwheel.c **** 
 479:Middlewares/lvgl/src/extra/widgets/colorwheel/lv_colorwheel.c ****         /*If the inner area is being pressed, go to the next color mode on long press*/
 480:Middlewares/lvgl/src/extra/widgets/colorwheel/lv_colorwheel.c ****         uint32_t diff = lv_tick_elaps(colorwheel->last_change_time);
 481:Middlewares/lvgl/src/extra/widgets/colorwheel/lv_colorwheel.c ****         if(!on_ring && diff > indev->driver->long_press_time && !colorwheel->mode_fixed) {
 482:Middlewares/lvgl/src/extra/widgets/colorwheel/lv_colorwheel.c ****             next_color_mode(obj);
 483:Middlewares/lvgl/src/extra/widgets/colorwheel/lv_colorwheel.c ****             lv_indev_wait_release(lv_indev_get_act());
 484:Middlewares/lvgl/src/extra/widgets/colorwheel/lv_colorwheel.c ****             return;
 485:Middlewares/lvgl/src/extra/widgets/colorwheel/lv_colorwheel.c ****         }
 486:Middlewares/lvgl/src/extra/widgets/colorwheel/lv_colorwheel.c **** 
ARM GAS  /tmp/ccyILfU7.s 			page 10


 487:Middlewares/lvgl/src/extra/widgets/colorwheel/lv_colorwheel.c ****         /*Set the angle only if pressed on the ring*/
 488:Middlewares/lvgl/src/extra/widgets/colorwheel/lv_colorwheel.c ****         if(!on_ring) return;
 489:Middlewares/lvgl/src/extra/widgets/colorwheel/lv_colorwheel.c **** 
 490:Middlewares/lvgl/src/extra/widgets/colorwheel/lv_colorwheel.c ****         angle = lv_atan2(p.x, p.y) % 360;
 491:Middlewares/lvgl/src/extra/widgets/colorwheel/lv_colorwheel.c **** 
 492:Middlewares/lvgl/src/extra/widgets/colorwheel/lv_colorwheel.c ****         lv_color_hsv_t hsv_cur;
 493:Middlewares/lvgl/src/extra/widgets/colorwheel/lv_colorwheel.c ****         hsv_cur = colorwheel->hsv;
 494:Middlewares/lvgl/src/extra/widgets/colorwheel/lv_colorwheel.c **** 
 495:Middlewares/lvgl/src/extra/widgets/colorwheel/lv_colorwheel.c ****         switch(colorwheel->mode) {
 496:Middlewares/lvgl/src/extra/widgets/colorwheel/lv_colorwheel.c ****             case LV_COLORWHEEL_MODE_HUE:
 497:Middlewares/lvgl/src/extra/widgets/colorwheel/lv_colorwheel.c ****                 hsv_cur.h = angle;
 498:Middlewares/lvgl/src/extra/widgets/colorwheel/lv_colorwheel.c ****                 break;
 499:Middlewares/lvgl/src/extra/widgets/colorwheel/lv_colorwheel.c ****             case LV_COLORWHEEL_MODE_SATURATION:
 500:Middlewares/lvgl/src/extra/widgets/colorwheel/lv_colorwheel.c ****                 hsv_cur.s = (angle * 100) / 360;
 501:Middlewares/lvgl/src/extra/widgets/colorwheel/lv_colorwheel.c ****                 break;
 502:Middlewares/lvgl/src/extra/widgets/colorwheel/lv_colorwheel.c ****             case LV_COLORWHEEL_MODE_VALUE:
 503:Middlewares/lvgl/src/extra/widgets/colorwheel/lv_colorwheel.c ****                 hsv_cur.v = (angle * 100) / 360;
 504:Middlewares/lvgl/src/extra/widgets/colorwheel/lv_colorwheel.c ****                 break;
 505:Middlewares/lvgl/src/extra/widgets/colorwheel/lv_colorwheel.c ****         }
 506:Middlewares/lvgl/src/extra/widgets/colorwheel/lv_colorwheel.c **** 
 507:Middlewares/lvgl/src/extra/widgets/colorwheel/lv_colorwheel.c ****         if(lv_colorwheel_set_hsv(obj, hsv_cur)) {
 508:Middlewares/lvgl/src/extra/widgets/colorwheel/lv_colorwheel.c ****             res = lv_event_send(obj, LV_EVENT_VALUE_CHANGED, NULL);
 509:Middlewares/lvgl/src/extra/widgets/colorwheel/lv_colorwheel.c ****             if(res != LV_RES_OK) return;
 510:Middlewares/lvgl/src/extra/widgets/colorwheel/lv_colorwheel.c ****         }
 511:Middlewares/lvgl/src/extra/widgets/colorwheel/lv_colorwheel.c ****     }
 512:Middlewares/lvgl/src/extra/widgets/colorwheel/lv_colorwheel.c ****     else if(code == LV_EVENT_HIT_TEST) {
 513:Middlewares/lvgl/src/extra/widgets/colorwheel/lv_colorwheel.c ****         lv_hit_test_info_t * info = lv_event_get_param(e);;
 514:Middlewares/lvgl/src/extra/widgets/colorwheel/lv_colorwheel.c **** 
 515:Middlewares/lvgl/src/extra/widgets/colorwheel/lv_colorwheel.c ****         /*Valid clicks can be only in the circle*/
 516:Middlewares/lvgl/src/extra/widgets/colorwheel/lv_colorwheel.c ****         info->res = _lv_area_is_point_on(&obj->coords, info->point, LV_RADIUS_CIRCLE);
 517:Middlewares/lvgl/src/extra/widgets/colorwheel/lv_colorwheel.c ****     }
 518:Middlewares/lvgl/src/extra/widgets/colorwheel/lv_colorwheel.c ****     else if(code == LV_EVENT_DRAW_MAIN) {
 519:Middlewares/lvgl/src/extra/widgets/colorwheel/lv_colorwheel.c ****         draw_disc_grad(e);
 520:Middlewares/lvgl/src/extra/widgets/colorwheel/lv_colorwheel.c ****         draw_knob(e);
 521:Middlewares/lvgl/src/extra/widgets/colorwheel/lv_colorwheel.c ****     }
 522:Middlewares/lvgl/src/extra/widgets/colorwheel/lv_colorwheel.c ****     else if(code == LV_EVENT_COVER_CHECK) {
 523:Middlewares/lvgl/src/extra/widgets/colorwheel/lv_colorwheel.c ****         lv_cover_check_info_t * info = lv_event_get_param(e);
 524:Middlewares/lvgl/src/extra/widgets/colorwheel/lv_colorwheel.c ****         if(info->res != LV_COVER_RES_MASKED) info->res = LV_COVER_RES_NOT_COVER;
 525:Middlewares/lvgl/src/extra/widgets/colorwheel/lv_colorwheel.c ****     }
 526:Middlewares/lvgl/src/extra/widgets/colorwheel/lv_colorwheel.c **** }
 527:Middlewares/lvgl/src/extra/widgets/colorwheel/lv_colorwheel.c **** 
 528:Middlewares/lvgl/src/extra/widgets/colorwheel/lv_colorwheel.c **** 
 529:Middlewares/lvgl/src/extra/widgets/colorwheel/lv_colorwheel.c **** 
 530:Middlewares/lvgl/src/extra/widgets/colorwheel/lv_colorwheel.c **** static void next_color_mode(lv_obj_t * obj)
 531:Middlewares/lvgl/src/extra/widgets/colorwheel/lv_colorwheel.c **** {
 532:Middlewares/lvgl/src/extra/widgets/colorwheel/lv_colorwheel.c ****     lv_colorwheel_t * colorwheel = (lv_colorwheel_t *)obj;
 533:Middlewares/lvgl/src/extra/widgets/colorwheel/lv_colorwheel.c ****     colorwheel->mode = (colorwheel->mode + 1) % 3;
 534:Middlewares/lvgl/src/extra/widgets/colorwheel/lv_colorwheel.c ****     refr_knob_pos(obj);
 535:Middlewares/lvgl/src/extra/widgets/colorwheel/lv_colorwheel.c ****     lv_obj_invalidate(obj);
 536:Middlewares/lvgl/src/extra/widgets/colorwheel/lv_colorwheel.c **** }
 537:Middlewares/lvgl/src/extra/widgets/colorwheel/lv_colorwheel.c **** 
 538:Middlewares/lvgl/src/extra/widgets/colorwheel/lv_colorwheel.c **** static void refr_knob_pos(lv_obj_t * obj)
 539:Middlewares/lvgl/src/extra/widgets/colorwheel/lv_colorwheel.c **** {
 540:Middlewares/lvgl/src/extra/widgets/colorwheel/lv_colorwheel.c ****     invalidate_knob(obj);
 541:Middlewares/lvgl/src/extra/widgets/colorwheel/lv_colorwheel.c **** 
 542:Middlewares/lvgl/src/extra/widgets/colorwheel/lv_colorwheel.c ****     lv_colorwheel_t * colorwheel = (lv_colorwheel_t *)obj;
 543:Middlewares/lvgl/src/extra/widgets/colorwheel/lv_colorwheel.c ****     lv_coord_t w = lv_obj_get_width(obj);
ARM GAS  /tmp/ccyILfU7.s 			page 11


 544:Middlewares/lvgl/src/extra/widgets/colorwheel/lv_colorwheel.c **** 
 545:Middlewares/lvgl/src/extra/widgets/colorwheel/lv_colorwheel.c ****     lv_coord_t scale_w = lv_obj_get_style_arc_width(obj, LV_PART_MAIN);
 546:Middlewares/lvgl/src/extra/widgets/colorwheel/lv_colorwheel.c ****     lv_coord_t r = (w - scale_w) / 2;
 547:Middlewares/lvgl/src/extra/widgets/colorwheel/lv_colorwheel.c ****     uint16_t angle = get_angle(obj);
 548:Middlewares/lvgl/src/extra/widgets/colorwheel/lv_colorwheel.c ****     colorwheel->knob.pos.x = (((int32_t)r * lv_trigo_sin(angle)) >> LV_TRIGO_SHIFT);
 549:Middlewares/lvgl/src/extra/widgets/colorwheel/lv_colorwheel.c ****     colorwheel->knob.pos.y = (((int32_t)r * lv_trigo_cos(angle)) >> LV_TRIGO_SHIFT);
 550:Middlewares/lvgl/src/extra/widgets/colorwheel/lv_colorwheel.c ****     colorwheel->knob.pos.x = colorwheel->knob.pos.x + w / 2;
 551:Middlewares/lvgl/src/extra/widgets/colorwheel/lv_colorwheel.c ****     colorwheel->knob.pos.y = colorwheel->knob.pos.y + w / 2;
 552:Middlewares/lvgl/src/extra/widgets/colorwheel/lv_colorwheel.c **** 
 553:Middlewares/lvgl/src/extra/widgets/colorwheel/lv_colorwheel.c ****     invalidate_knob(obj);
 554:Middlewares/lvgl/src/extra/widgets/colorwheel/lv_colorwheel.c **** }
 555:Middlewares/lvgl/src/extra/widgets/colorwheel/lv_colorwheel.c **** 
 556:Middlewares/lvgl/src/extra/widgets/colorwheel/lv_colorwheel.c **** static lv_res_t double_click_reset(lv_obj_t * obj)
 557:Middlewares/lvgl/src/extra/widgets/colorwheel/lv_colorwheel.c **** {
 558:Middlewares/lvgl/src/extra/widgets/colorwheel/lv_colorwheel.c ****     lv_colorwheel_t * colorwheel = (lv_colorwheel_t *)obj;
 559:Middlewares/lvgl/src/extra/widgets/colorwheel/lv_colorwheel.c ****     lv_indev_t * indev = lv_indev_get_act();
 560:Middlewares/lvgl/src/extra/widgets/colorwheel/lv_colorwheel.c ****     /*Double clicked? Use long press time as double click time out*/
 561:Middlewares/lvgl/src/extra/widgets/colorwheel/lv_colorwheel.c ****     if(lv_tick_elaps(colorwheel->last_click_time) < indev->driver->long_press_time) {
 562:Middlewares/lvgl/src/extra/widgets/colorwheel/lv_colorwheel.c ****         lv_color_hsv_t hsv_cur;
 563:Middlewares/lvgl/src/extra/widgets/colorwheel/lv_colorwheel.c ****         hsv_cur = colorwheel->hsv;
 564:Middlewares/lvgl/src/extra/widgets/colorwheel/lv_colorwheel.c **** 
 565:Middlewares/lvgl/src/extra/widgets/colorwheel/lv_colorwheel.c ****         switch(colorwheel->mode) {
 566:Middlewares/lvgl/src/extra/widgets/colorwheel/lv_colorwheel.c ****             case LV_COLORWHEEL_MODE_HUE:
 567:Middlewares/lvgl/src/extra/widgets/colorwheel/lv_colorwheel.c ****                 hsv_cur.h = 0;
 568:Middlewares/lvgl/src/extra/widgets/colorwheel/lv_colorwheel.c ****                 break;
 569:Middlewares/lvgl/src/extra/widgets/colorwheel/lv_colorwheel.c ****             case LV_COLORWHEEL_MODE_SATURATION:
 570:Middlewares/lvgl/src/extra/widgets/colorwheel/lv_colorwheel.c ****                 hsv_cur.s = 100;
 571:Middlewares/lvgl/src/extra/widgets/colorwheel/lv_colorwheel.c ****                 break;
 572:Middlewares/lvgl/src/extra/widgets/colorwheel/lv_colorwheel.c ****             case LV_COLORWHEEL_MODE_VALUE:
 573:Middlewares/lvgl/src/extra/widgets/colorwheel/lv_colorwheel.c ****                 hsv_cur.v = 100;
 574:Middlewares/lvgl/src/extra/widgets/colorwheel/lv_colorwheel.c ****                 break;
 575:Middlewares/lvgl/src/extra/widgets/colorwheel/lv_colorwheel.c ****         }
 576:Middlewares/lvgl/src/extra/widgets/colorwheel/lv_colorwheel.c **** 
 577:Middlewares/lvgl/src/extra/widgets/colorwheel/lv_colorwheel.c ****         lv_indev_wait_release(indev);
 578:Middlewares/lvgl/src/extra/widgets/colorwheel/lv_colorwheel.c **** 
 579:Middlewares/lvgl/src/extra/widgets/colorwheel/lv_colorwheel.c ****         if(lv_colorwheel_set_hsv(obj, hsv_cur)) {
 580:Middlewares/lvgl/src/extra/widgets/colorwheel/lv_colorwheel.c ****             lv_res_t res = lv_event_send(obj, LV_EVENT_VALUE_CHANGED, NULL);
 581:Middlewares/lvgl/src/extra/widgets/colorwheel/lv_colorwheel.c ****             if(res != LV_RES_OK) return res;
 582:Middlewares/lvgl/src/extra/widgets/colorwheel/lv_colorwheel.c ****         }
 583:Middlewares/lvgl/src/extra/widgets/colorwheel/lv_colorwheel.c ****     }
 584:Middlewares/lvgl/src/extra/widgets/colorwheel/lv_colorwheel.c ****     colorwheel->last_click_time = lv_tick_get();
 585:Middlewares/lvgl/src/extra/widgets/colorwheel/lv_colorwheel.c **** 
 586:Middlewares/lvgl/src/extra/widgets/colorwheel/lv_colorwheel.c ****     return LV_RES_OK;
 587:Middlewares/lvgl/src/extra/widgets/colorwheel/lv_colorwheel.c **** }
 588:Middlewares/lvgl/src/extra/widgets/colorwheel/lv_colorwheel.c **** 
 589:Middlewares/lvgl/src/extra/widgets/colorwheel/lv_colorwheel.c **** #define SWAPPTR(A, B) do { uint8_t * t = A; A = B; B = t; } while(0)
 590:Middlewares/lvgl/src/extra/widgets/colorwheel/lv_colorwheel.c **** #define HSV_PTR_SWAP(sextant,r,g,b)     if((sextant) & 2) { SWAPPTR((r), (b)); } if((sextant) & 4) 
 591:Middlewares/lvgl/src/extra/widgets/colorwheel/lv_colorwheel.c ****                                                 if(!((sextant) & 1)) { SWAPPTR((r), (g)); } } else 
 592:Middlewares/lvgl/src/extra/widgets/colorwheel/lv_colorwheel.c **** 
 593:Middlewares/lvgl/src/extra/widgets/colorwheel/lv_colorwheel.c **** /**
 594:Middlewares/lvgl/src/extra/widgets/colorwheel/lv_colorwheel.c ****  * Based on the idea from https://www.vagrearg.org/content/hsvrgb
 595:Middlewares/lvgl/src/extra/widgets/colorwheel/lv_colorwheel.c ****  * Here we want to compute an approximate RGB value from a HSV input color space. We don't want to 
 596:Middlewares/lvgl/src/extra/widgets/colorwheel/lv_colorwheel.c ****  * (for that, there's lv_color_hsv_to_rgb), but we want to be fast.
 597:Middlewares/lvgl/src/extra/widgets/colorwheel/lv_colorwheel.c ****  *
 598:Middlewares/lvgl/src/extra/widgets/colorwheel/lv_colorwheel.c ****  * Few tricks are used here: Hue is in range [0; 6 * 256] (so that the sextant is in the high byte 
 599:Middlewares/lvgl/src/extra/widgets/colorwheel/lv_colorwheel.c ****  * both s and v are in [0; 255] range (very convenient to avoid divisions).
 600:Middlewares/lvgl/src/extra/widgets/colorwheel/lv_colorwheel.c ****  *
ARM GAS  /tmp/ccyILfU7.s 			page 12


 601:Middlewares/lvgl/src/extra/widgets/colorwheel/lv_colorwheel.c ****  * We fold all symmetry by swapping the R, G, B pointers so that the code is the same for all sexta
 602:Middlewares/lvgl/src/extra/widgets/colorwheel/lv_colorwheel.c ****  * We replace division by 255 by a division by 256, a.k.a a shift right by 8 bits.
 603:Middlewares/lvgl/src/extra/widgets/colorwheel/lv_colorwheel.c ****  * This is wrong, but since this is only used to compute the pixels on the screen and not the final
 604:Middlewares/lvgl/src/extra/widgets/colorwheel/lv_colorwheel.c ****  */
 605:Middlewares/lvgl/src/extra/widgets/colorwheel/lv_colorwheel.c **** static void fast_hsv2rgb(uint16_t h, uint8_t s, uint8_t v, uint8_t *r, uint8_t *g , uint8_t *b);
 606:Middlewares/lvgl/src/extra/widgets/colorwheel/lv_colorwheel.c **** static void fast_hsv2rgb(uint16_t h, uint8_t s, uint8_t v, uint8_t *r, uint8_t *g , uint8_t *b)
 607:Middlewares/lvgl/src/extra/widgets/colorwheel/lv_colorwheel.c **** {
  29              		.loc 1 607 1 view -0
  30              		.cfi_startproc
  31              		@ args = 8, pretend = 0, frame = 0
  32              		@ frame_needed = 0, uses_anonymous_args = 0
  33              		.loc 1 607 1 is_stmt 0 view .LVU1
  34 0000 70B5     		push	{r4, r5, r6, lr}
  35              	.LCFI0:
  36              		.cfi_def_cfa_offset 16
  37              		.cfi_offset 4, -16
  38              		.cfi_offset 5, -12
  39              		.cfi_offset 6, -8
  40              		.cfi_offset 14, -4
  41 0002 049C     		ldr	r4, [sp, #16]
  42 0004 059E     		ldr	r6, [sp, #20]
 608:Middlewares/lvgl/src/extra/widgets/colorwheel/lv_colorwheel.c ****     if (!s) { *r = *g = *b = v; return; }
  43              		.loc 1 608 5 is_stmt 1 view .LVU2
  44              		.loc 1 608 8 is_stmt 0 view .LVU3
  45 0006 41B3     		cbz	r1, .L12
  46 0008 8C46     		mov	ip, r1
 609:Middlewares/lvgl/src/extra/widgets/colorwheel/lv_colorwheel.c **** 
 610:Middlewares/lvgl/src/extra/widgets/colorwheel/lv_colorwheel.c ****     uint8_t sextant = h >> 8;
  47              		.loc 1 610 5 is_stmt 1 view .LVU4
  48              		.loc 1 610 13 is_stmt 0 view .LVU5
  49 000a 050A     		lsrs	r5, r0, #8
  50              	.LVL1:
 611:Middlewares/lvgl/src/extra/widgets/colorwheel/lv_colorwheel.c ****     HSV_PTR_SWAP(sextant, r, g, b); /*Swap pointers so the conversion code is the same*/
  51              		.loc 1 611 5 is_stmt 1 view .LVU6
  52 000c 10F4007F 		tst	r0, #512
  53 0010 02D1     		bne	.L4
  54 0012 3146     		mov	r1, r6
  55              	.LVL2:
  56              		.loc 1 611 5 is_stmt 0 view .LVU7
  57 0014 1E46     		mov	r6, r3
  58 0016 0B46     		mov	r3, r1
  59              	.LVL3:
  60              	.L4:
  61              		.loc 1 611 5 is_stmt 1 discriminator 3 view .LVU8
  62              		.loc 1 611 5 discriminator 3 view .LVU9
  63 0018 15F0040F 		tst	r5, #4
  64 001c 02D1     		bne	.L5
  65              		.loc 1 611 5 is_stmt 0 view .LVU10
  66 001e 1946     		mov	r1, r3
  67 0020 2346     		mov	r3, r4
  68              	.LVL4:
  69              		.loc 1 611 5 view .LVU11
  70 0022 0C46     		mov	r4, r1
  71              	.LVL5:
  72              	.L5:
  73              		.loc 1 611 5 is_stmt 1 discriminator 6 view .LVU12
  74              		.loc 1 611 5 discriminator 6 view .LVU13
ARM GAS  /tmp/ccyILfU7.s 			page 13


  75 0024 15F0060F 		tst	r5, #6
  76 0028 1BD1     		bne	.L6
  77              		.loc 1 611 5 discriminator 7 view .LVU14
  78 002a 15F0010F 		tst	r5, #1
  79 002e 02D0     		beq	.L7
  80              		.loc 1 611 5 is_stmt 0 view .LVU15
  81 0030 1946     		mov	r1, r3
  82 0032 3346     		mov	r3, r6
  83              	.LVL6:
  84              		.loc 1 611 5 view .LVU16
  85 0034 0E46     		mov	r6, r1
  86              	.LVL7:
  87              	.L7:
  88              		.loc 1 611 5 is_stmt 1 discriminator 14 view .LVU17
  89              		.loc 1 611 35 discriminator 14 view .LVU18
 612:Middlewares/lvgl/src/extra/widgets/colorwheel/lv_colorwheel.c **** 
 613:Middlewares/lvgl/src/extra/widgets/colorwheel/lv_colorwheel.c ****     *g = v;
  90              		.loc 1 613 5 discriminator 14 view .LVU19
  91              		.loc 1 613 8 is_stmt 0 discriminator 14 view .LVU20
  92 0036 3270     		strb	r2, [r6]
 614:Middlewares/lvgl/src/extra/widgets/colorwheel/lv_colorwheel.c **** 
 615:Middlewares/lvgl/src/extra/widgets/colorwheel/lv_colorwheel.c ****     uint8_t bb = ~s;
  93              		.loc 1 615 5 is_stmt 1 discriminator 14 view .LVU21
  94              		.loc 1 615 13 is_stmt 0 discriminator 14 view .LVU22
  95 0038 6FEA0C01 		mvn	r1, ip
 616:Middlewares/lvgl/src/extra/widgets/colorwheel/lv_colorwheel.c ****     uint16_t ww = v * bb; /*Don't try to be precise, but instead, be fast*/
  96              		.loc 1 616 5 is_stmt 1 discriminator 14 view .LVU23
  97              		.loc 1 616 21 is_stmt 0 discriminator 14 view .LVU24
  98 003c 1FFA82FE 		uxth	lr, r2
  99 0040 C9B2     		uxtb	r1, r1
 100              		.loc 1 616 14 discriminator 14 view .LVU25
 101 0042 02FB01F1 		mul	r1, r2, r1
 102              	.LVL8:
 617:Middlewares/lvgl/src/extra/widgets/colorwheel/lv_colorwheel.c ****     *b = ww >> 8;
 103              		.loc 1 617 5 is_stmt 1 discriminator 14 view .LVU26
 104              		.loc 1 617 8 is_stmt 0 discriminator 14 view .LVU27
 105 0046 090A     		lsrs	r1, r1, #8
 106              	.LVL9:
 107              		.loc 1 617 8 discriminator 14 view .LVU28
 108 0048 2170     		strb	r1, [r4]
 618:Middlewares/lvgl/src/extra/widgets/colorwheel/lv_colorwheel.c **** 
 619:Middlewares/lvgl/src/extra/widgets/colorwheel/lv_colorwheel.c ****     uint8_t h_frac = h & 0xff;
 109              		.loc 1 619 5 is_stmt 1 discriminator 14 view .LVU29
 110              		.loc 1 619 13 is_stmt 0 discriminator 14 view .LVU30
 111 004a C2B2     		uxtb	r2, r0
 112              	.LVL10:
 620:Middlewares/lvgl/src/extra/widgets/colorwheel/lv_colorwheel.c **** 
 621:Middlewares/lvgl/src/extra/widgets/colorwheel/lv_colorwheel.c ****     if(!(sextant & 1)) {
 113              		.loc 1 621 5 is_stmt 1 discriminator 14 view .LVU31
 114              		.loc 1 621 7 is_stmt 0 discriminator 14 view .LVU32
 115 004c 15F0010F 		tst	r5, #1
 116 0050 13D1     		bne	.L8
 622:Middlewares/lvgl/src/extra/widgets/colorwheel/lv_colorwheel.c ****         /*Up slope*/
 623:Middlewares/lvgl/src/extra/widgets/colorwheel/lv_colorwheel.c ****         ww = !h_frac ? ((uint16_t)s << 8) : (s * (uint8_t)(-h_frac)); /*Skip multiply if not requir
 117              		.loc 1 623 9 is_stmt 1 view .LVU33
 118              		.loc 1 623 12 is_stmt 0 view .LVU34
 119 0052 6AB9     		cbnz	r2, .L9
ARM GAS  /tmp/ccyILfU7.s 			page 14


 120              		.loc 1 623 12 discriminator 1 view .LVU35
 121 0054 4FEA0C22 		lsl	r2, ip, #8
 122              	.LVL11:
 123              		.loc 1 623 12 discriminator 1 view .LVU36
 124 0058 12E0     		b	.L10
 125              	.LVL12:
 126              	.L12:
 608:Middlewares/lvgl/src/extra/widgets/colorwheel/lv_colorwheel.c **** 
 127              		.loc 1 608 15 is_stmt 1 discriminator 1 view .LVU37
 608:Middlewares/lvgl/src/extra/widgets/colorwheel/lv_colorwheel.c **** 
 128              		.loc 1 608 28 is_stmt 0 discriminator 1 view .LVU38
 129 005a 3270     		strb	r2, [r6]
 608:Middlewares/lvgl/src/extra/widgets/colorwheel/lv_colorwheel.c **** 
 130              		.loc 1 608 23 discriminator 1 view .LVU39
 131 005c 2270     		strb	r2, [r4]
 608:Middlewares/lvgl/src/extra/widgets/colorwheel/lv_colorwheel.c **** 
 132              		.loc 1 608 18 discriminator 1 view .LVU40
 133 005e 1A70     		strb	r2, [r3]
 608:Middlewares/lvgl/src/extra/widgets/colorwheel/lv_colorwheel.c **** 
 134              		.loc 1 608 33 is_stmt 1 discriminator 1 view .LVU41
 135 0060 15E0     		b	.L1
 136              	.LVL13:
 137              	.L6:
 611:Middlewares/lvgl/src/extra/widgets/colorwheel/lv_colorwheel.c **** 
 138              		.loc 1 611 5 discriminator 8 view .LVU42
 139 0062 15F0010F 		tst	r5, #1
 140 0066 E6D1     		bne	.L7
 611:Middlewares/lvgl/src/extra/widgets/colorwheel/lv_colorwheel.c **** 
 141              		.loc 1 611 5 is_stmt 0 view .LVU43
 142 0068 1946     		mov	r1, r3
 143 006a 3346     		mov	r3, r6
 144              	.LVL14:
 611:Middlewares/lvgl/src/extra/widgets/colorwheel/lv_colorwheel.c **** 
 145              		.loc 1 611 5 view .LVU44
 146 006c 0E46     		mov	r6, r1
 147              	.LVL15:
 611:Middlewares/lvgl/src/extra/widgets/colorwheel/lv_colorwheel.c **** 
 148              		.loc 1 611 5 view .LVU45
 149 006e E2E7     		b	.L7
 150              	.LVL16:
 151              	.L9:
 152              		.loc 1 623 50 discriminator 2 view .LVU46
 153 0070 5242     		rsbs	r2, r2, #0
 154              	.LVL17:
 155              		.loc 1 623 50 discriminator 2 view .LVU47
 156 0072 D2B2     		uxtb	r2, r2
 157              	.LVL18:
 158              		.loc 1 623 12 discriminator 2 view .LVU48
 159 0074 0CFB02F2 		mul	r2, ip, r2
 160 0078 02E0     		b	.L10
 161              	.LVL19:
 162              	.L8:
 624:Middlewares/lvgl/src/extra/widgets/colorwheel/lv_colorwheel.c ****     } else {
 625:Middlewares/lvgl/src/extra/widgets/colorwheel/lv_colorwheel.c ****         /*Down slope*/
 626:Middlewares/lvgl/src/extra/widgets/colorwheel/lv_colorwheel.c ****         ww = s * h_frac;
 163              		.loc 1 626 9 is_stmt 1 view .LVU49
 164              		.loc 1 626 12 is_stmt 0 view .LVU50
ARM GAS  /tmp/ccyILfU7.s 			page 15


 165 007a C2B2     		uxtb	r2, r0
 166              	.LVL20:
 167              		.loc 1 626 12 view .LVU51
 168 007c 02FB0CF2 		mul	r2, r2, ip
 169              	.LVL21:
 170              	.L10:
 627:Middlewares/lvgl/src/extra/widgets/colorwheel/lv_colorwheel.c ****     }
 628:Middlewares/lvgl/src/extra/widgets/colorwheel/lv_colorwheel.c ****     bb = ww >> 8;
 171              		.loc 1 628 5 is_stmt 1 view .LVU52
 629:Middlewares/lvgl/src/extra/widgets/colorwheel/lv_colorwheel.c ****     bb = ~bb;
 172              		.loc 1 629 5 view .LVU53
 173              		.loc 1 629 8 is_stmt 0 view .LVU54
 174 0080 6FEA1222 		mvn	r2, r2, lsr #8
 175              	.LVL22:
 630:Middlewares/lvgl/src/extra/widgets/colorwheel/lv_colorwheel.c ****     ww = v * bb;
 176              		.loc 1 630 5 is_stmt 1 view .LVU55
 177              		.loc 1 630 12 is_stmt 0 view .LVU56
 178 0084 D2B2     		uxtb	r2, r2
 179              		.loc 1 630 8 view .LVU57
 180 0086 0EFB02F2 		mul	r2, lr, r2
 181              	.LVL23:
 631:Middlewares/lvgl/src/extra/widgets/colorwheel/lv_colorwheel.c ****     *r = ww >> 8;
 182              		.loc 1 631 5 is_stmt 1 view .LVU58
 183              		.loc 1 631 8 is_stmt 0 view .LVU59
 184 008a 120A     		lsrs	r2, r2, #8
 185              	.LVL24:
 186              		.loc 1 631 8 view .LVU60
 187 008c 1A70     		strb	r2, [r3]
 188              	.LVL25:
 189              	.L1:
 632:Middlewares/lvgl/src/extra/widgets/colorwheel/lv_colorwheel.c **** }
 190              		.loc 1 632 1 view .LVU61
 191 008e 70BD     		pop	{r4, r5, r6, pc}
 192              		.cfi_endproc
 193              	.LFE202:
 195              		.section	.text.angle_to_mode_color_fast,"ax",%progbits
 196              		.align	1
 197              		.syntax unified
 198              		.thumb
 199              		.thumb_func
 200              		.fpu fpv4-sp-d16
 202              	angle_to_mode_color_fast:
 203              	.LVL26:
 204              	.LFB203:
 633:Middlewares/lvgl/src/extra/widgets/colorwheel/lv_colorwheel.c **** 
 634:Middlewares/lvgl/src/extra/widgets/colorwheel/lv_colorwheel.c **** static lv_color_t angle_to_mode_color_fast(lv_obj_t * obj, uint16_t angle)
 635:Middlewares/lvgl/src/extra/widgets/colorwheel/lv_colorwheel.c **** {
 205              		.loc 1 635 1 is_stmt 1 view -0
 206              		.cfi_startproc
 207              		@ args = 0, pretend = 0, frame = 8
 208              		@ frame_needed = 0, uses_anonymous_args = 0
 209              		.loc 1 635 1 is_stmt 0 view .LVU63
 210 0000 10B5     		push	{r4, lr}
 211              	.LCFI1:
 212              		.cfi_def_cfa_offset 8
 213              		.cfi_offset 4, -8
 214              		.cfi_offset 14, -4
ARM GAS  /tmp/ccyILfU7.s 			page 16


 215 0002 84B0     		sub	sp, sp, #16
 216              	.LCFI2:
 217              		.cfi_def_cfa_offset 24
 636:Middlewares/lvgl/src/extra/widgets/colorwheel/lv_colorwheel.c ****     lv_colorwheel_t * ext = (lv_colorwheel_t*)obj;
 218              		.loc 1 636 5 is_stmt 1 view .LVU64
 219              	.LVL27:
 637:Middlewares/lvgl/src/extra/widgets/colorwheel/lv_colorwheel.c ****     uint8_t r = 0, g = 0, b = 0;
 220              		.loc 1 637 5 view .LVU65
 221              		.loc 1 637 13 is_stmt 0 view .LVU66
 222 0004 0023     		movs	r3, #0
 223 0006 8DF80F30 		strb	r3, [sp, #15]
 224              		.loc 1 637 20 view .LVU67
 225 000a 8DF80E30 		strb	r3, [sp, #14]
 226              		.loc 1 637 27 view .LVU68
 227 000e 8DF80D30 		strb	r3, [sp, #13]
 638:Middlewares/lvgl/src/extra/widgets/colorwheel/lv_colorwheel.c ****     static uint16_t h = 0;
 228              		.loc 1 638 5 is_stmt 1 view .LVU69
 639:Middlewares/lvgl/src/extra/widgets/colorwheel/lv_colorwheel.c ****     static uint8_t s = 0, v = 0, m = 255;
 229              		.loc 1 639 5 view .LVU70
 640:Middlewares/lvgl/src/extra/widgets/colorwheel/lv_colorwheel.c **** 
 641:Middlewares/lvgl/src/extra/widgets/colorwheel/lv_colorwheel.c ****     switch(ext->mode) {
 230              		.loc 1 641 5 view .LVU71
 231              		.loc 1 641 15 is_stmt 0 view .LVU72
 232 0012 90F83C30 		ldrb	r3, [r0, #60]	@ zero_extendqisi2
 233 0016 C3F30102 		ubfx	r2, r3, #0, #2
 234 001a 03F00303 		and	r3, r3, #3
 235              		.loc 1 641 5 view .LVU73
 236 001e 012B     		cmp	r3, #1
 237 0020 46D0     		beq	.L14
 238 0022 022B     		cmp	r3, #2
 239 0024 72D0     		beq	.L15
 642:Middlewares/lvgl/src/extra/widgets/colorwheel/lv_colorwheel.c ****         default:
 643:Middlewares/lvgl/src/extra/widgets/colorwheel/lv_colorwheel.c ****         case LV_COLORWHEEL_MODE_HUE:
 644:Middlewares/lvgl/src/extra/widgets/colorwheel/lv_colorwheel.c ****             /*Don't recompute costly scaling if it does not change*/
 645:Middlewares/lvgl/src/extra/widgets/colorwheel/lv_colorwheel.c ****             if (m != ext->mode) {
 240              		.loc 1 645 13 is_stmt 1 view .LVU74
 241              		.loc 1 645 19 is_stmt 0 view .LVU75
 242 0026 514C     		ldr	r4, .L21
 243 0028 2478     		ldrb	r4, [r4]	@ zero_extendqisi2
 244              		.loc 1 645 16 view .LVU76
 245 002a A342     		cmp	r3, r4
 246 002c 1BD0     		beq	.L16
 646:Middlewares/lvgl/src/extra/widgets/colorwheel/lv_colorwheel.c ****               s = (uint8_t)(((uint16_t)ext->hsv.s * 51) / 20); v = (uint8_t)(((uint16_t)ext->hsv.v 
 247              		.loc 1 646 15 is_stmt 1 view .LVU77
 248              		.loc 1 646 48 is_stmt 0 view .LVU78
 249 002e 90F82630 		ldrb	r3, [r0, #38]	@ zero_extendqisi2
 250              		.loc 1 646 51 view .LVU79
 251 0032 03EB4303 		add	r3, r3, r3, lsl #1
 252 0036 03EB031C 		add	ip, r3, r3, lsl #4
 253              		.loc 1 646 57 view .LVU80
 254 003a 4D4C     		ldr	r4, .L21+4
 255 003c 84FB0C3C 		smull	r3, ip, r4, ip
 256              		.loc 1 646 19 view .LVU81
 257 0040 CCF3C70C 		ubfx	ip, ip, #3, #8
 258              		.loc 1 646 17 view .LVU82
 259 0044 4B4B     		ldr	r3, .L21+8
 260 0046 83F800C0 		strb	ip, [r3]
ARM GAS  /tmp/ccyILfU7.s 			page 17


 261              		.loc 1 646 64 is_stmt 1 view .LVU83
 262              		.loc 1 646 97 is_stmt 0 view .LVU84
 263 004a 90F82730 		ldrb	r3, [r0, #39]	@ zero_extendqisi2
 264              		.loc 1 646 100 view .LVU85
 265 004e 03EB4303 		add	r3, r3, r3, lsl #1
 266 0052 03EB0313 		add	r3, r3, r3, lsl #4
 267              		.loc 1 646 106 view .LVU86
 268 0056 84FB0303 		smull	r0, r3, r4, r3
 269              	.LVL28:
 270              		.loc 1 646 68 view .LVU87
 271 005a C3F3C703 		ubfx	r3, r3, #3, #8
 272              		.loc 1 646 66 view .LVU88
 273 005e 4648     		ldr	r0, .L21+12
 274 0060 0370     		strb	r3, [r0]
 647:Middlewares/lvgl/src/extra/widgets/colorwheel/lv_colorwheel.c ****               m = ext->mode;
 275              		.loc 1 647 15 is_stmt 1 view .LVU89
 276              		.loc 1 647 17 is_stmt 0 view .LVU90
 277 0062 424B     		ldr	r3, .L21
 278 0064 1A70     		strb	r2, [r3]
 279              	.L16:
 648:Middlewares/lvgl/src/extra/widgets/colorwheel/lv_colorwheel.c ****             }
 649:Middlewares/lvgl/src/extra/widgets/colorwheel/lv_colorwheel.c ****             fast_hsv2rgb(angle * 6, s, v, &r, &g, &b); /*A smart compiler will replace x * 6 by (x 
 280              		.loc 1 649 13 is_stmt 1 view .LVU91
 281 0066 01EB4101 		add	r1, r1, r1, lsl #1
 282              	.LVL29:
 283              		.loc 1 649 13 is_stmt 0 view .LVU92
 284 006a 4800     		lsls	r0, r1, #1
 285 006c 80B2     		uxth	r0, r0
 286 006e 0DF10D03 		add	r3, sp, #13
 287 0072 0193     		str	r3, [sp, #4]
 288 0074 0DF10E03 		add	r3, sp, #14
 289 0078 0093     		str	r3, [sp]
 290 007a 0DF10F03 		add	r3, sp, #15
 291 007e 3E4A     		ldr	r2, .L21+12
 292 0080 1278     		ldrb	r2, [r2]	@ zero_extendqisi2
 293 0082 3C49     		ldr	r1, .L21+8
 294 0084 0978     		ldrb	r1, [r1]	@ zero_extendqisi2
 295 0086 FFF7FEFF 		bl	fast_hsv2rgb
 296              	.LVL30:
 650:Middlewares/lvgl/src/extra/widgets/colorwheel/lv_colorwheel.c ****             break;
 297              		.loc 1 650 13 is_stmt 1 view .LVU93
 298              	.L17:
 651:Middlewares/lvgl/src/extra/widgets/colorwheel/lv_colorwheel.c ****         case LV_COLORWHEEL_MODE_SATURATION:
 652:Middlewares/lvgl/src/extra/widgets/colorwheel/lv_colorwheel.c ****             /*Don't recompute costly scaling if it does not change*/
 653:Middlewares/lvgl/src/extra/widgets/colorwheel/lv_colorwheel.c ****             if (m != ext->mode) {
 654:Middlewares/lvgl/src/extra/widgets/colorwheel/lv_colorwheel.c ****               h = (uint16_t)(((uint32_t)ext->hsv.h * 6 * 256) / 360); v = (uint8_t)(((uint16_t)ext-
 655:Middlewares/lvgl/src/extra/widgets/colorwheel/lv_colorwheel.c ****               m = ext->mode;
 656:Middlewares/lvgl/src/extra/widgets/colorwheel/lv_colorwheel.c ****             }
 657:Middlewares/lvgl/src/extra/widgets/colorwheel/lv_colorwheel.c ****             fast_hsv2rgb(h, angle, v, &r, &g, &b);
 658:Middlewares/lvgl/src/extra/widgets/colorwheel/lv_colorwheel.c ****             break;
 659:Middlewares/lvgl/src/extra/widgets/colorwheel/lv_colorwheel.c ****         case LV_COLORWHEEL_MODE_VALUE:
 660:Middlewares/lvgl/src/extra/widgets/colorwheel/lv_colorwheel.c ****             /*Don't recompute costly scaling if it does not change*/
 661:Middlewares/lvgl/src/extra/widgets/colorwheel/lv_colorwheel.c ****             if (m != ext->mode) {
 662:Middlewares/lvgl/src/extra/widgets/colorwheel/lv_colorwheel.c ****               h = (uint16_t)(((uint32_t)ext->hsv.h * 6 * 256) / 360); s = (uint8_t)(((uint16_t)ext-
 663:Middlewares/lvgl/src/extra/widgets/colorwheel/lv_colorwheel.c ****               m = ext->mode;
 664:Middlewares/lvgl/src/extra/widgets/colorwheel/lv_colorwheel.c ****             }
 665:Middlewares/lvgl/src/extra/widgets/colorwheel/lv_colorwheel.c ****             fast_hsv2rgb(h, s, angle, &r, &g, &b);
ARM GAS  /tmp/ccyILfU7.s 			page 18


 666:Middlewares/lvgl/src/extra/widgets/colorwheel/lv_colorwheel.c ****             break;
 667:Middlewares/lvgl/src/extra/widgets/colorwheel/lv_colorwheel.c ****     }
 668:Middlewares/lvgl/src/extra/widgets/colorwheel/lv_colorwheel.c ****     return lv_color_make(r, g, b);
 299              		.loc 1 668 5 view .LVU94
 300              		.loc 1 668 12 is_stmt 0 view .LVU95
 301 008a 9DF80F30 		ldrb	r3, [sp, #15]	@ zero_extendqisi2
 302 008e 9DF80E20 		ldrb	r2, [sp, #14]	@ zero_extendqisi2
 303 0092 9DF80D10 		ldrb	r1, [sp, #13]	@ zero_extendqisi2
 304              	.LVL31:
 305              	.LBB50:
 306              	.LBI50:
 307              		.file 2 "Middlewares/lvgl/src/extra/widgets/colorwheel/../../../../src/hal/../misc/lv_color.h"
   1:Middlewares/lvgl/src/extra/widgets/colorwheel/../../../../src/hal/../misc/lv_color.h **** /**
   2:Middlewares/lvgl/src/extra/widgets/colorwheel/../../../../src/hal/../misc/lv_color.h ****  * @file lv_color.h
   3:Middlewares/lvgl/src/extra/widgets/colorwheel/../../../../src/hal/../misc/lv_color.h ****  *
   4:Middlewares/lvgl/src/extra/widgets/colorwheel/../../../../src/hal/../misc/lv_color.h ****  */
   5:Middlewares/lvgl/src/extra/widgets/colorwheel/../../../../src/hal/../misc/lv_color.h **** 
   6:Middlewares/lvgl/src/extra/widgets/colorwheel/../../../../src/hal/../misc/lv_color.h **** #ifndef LV_COLOR_H
   7:Middlewares/lvgl/src/extra/widgets/colorwheel/../../../../src/hal/../misc/lv_color.h **** #define LV_COLOR_H
   8:Middlewares/lvgl/src/extra/widgets/colorwheel/../../../../src/hal/../misc/lv_color.h **** 
   9:Middlewares/lvgl/src/extra/widgets/colorwheel/../../../../src/hal/../misc/lv_color.h **** #ifdef __cplusplus
  10:Middlewares/lvgl/src/extra/widgets/colorwheel/../../../../src/hal/../misc/lv_color.h **** extern "C" {
  11:Middlewares/lvgl/src/extra/widgets/colorwheel/../../../../src/hal/../misc/lv_color.h **** #endif
  12:Middlewares/lvgl/src/extra/widgets/colorwheel/../../../../src/hal/../misc/lv_color.h **** 
  13:Middlewares/lvgl/src/extra/widgets/colorwheel/../../../../src/hal/../misc/lv_color.h **** /*********************
  14:Middlewares/lvgl/src/extra/widgets/colorwheel/../../../../src/hal/../misc/lv_color.h ****  *      INCLUDES
  15:Middlewares/lvgl/src/extra/widgets/colorwheel/../../../../src/hal/../misc/lv_color.h ****  *********************/
  16:Middlewares/lvgl/src/extra/widgets/colorwheel/../../../../src/hal/../misc/lv_color.h **** #include "../lv_conf_internal.h"
  17:Middlewares/lvgl/src/extra/widgets/colorwheel/../../../../src/hal/../misc/lv_color.h **** #include "lv_math.h"
  18:Middlewares/lvgl/src/extra/widgets/colorwheel/../../../../src/hal/../misc/lv_color.h **** #include "lv_types.h"
  19:Middlewares/lvgl/src/extra/widgets/colorwheel/../../../../src/hal/../misc/lv_color.h **** 
  20:Middlewares/lvgl/src/extra/widgets/colorwheel/../../../../src/hal/../misc/lv_color.h **** /*Error checking*/
  21:Middlewares/lvgl/src/extra/widgets/colorwheel/../../../../src/hal/../misc/lv_color.h **** #if LV_COLOR_DEPTH == 24
  22:Middlewares/lvgl/src/extra/widgets/colorwheel/../../../../src/hal/../misc/lv_color.h **** #error "LV_COLOR_DEPTH 24 is deprecated. Use LV_COLOR_DEPTH 32 instead (lv_conf.h)"
  23:Middlewares/lvgl/src/extra/widgets/colorwheel/../../../../src/hal/../misc/lv_color.h **** #endif
  24:Middlewares/lvgl/src/extra/widgets/colorwheel/../../../../src/hal/../misc/lv_color.h **** 
  25:Middlewares/lvgl/src/extra/widgets/colorwheel/../../../../src/hal/../misc/lv_color.h **** #if LV_COLOR_DEPTH != 32 && LV_COLOR_SCREEN_TRANSP != 0
  26:Middlewares/lvgl/src/extra/widgets/colorwheel/../../../../src/hal/../misc/lv_color.h **** #error "LV_COLOR_SCREEN_TRANSP requires LV_COLOR_DEPTH == 32. Set it in lv_conf.h"
  27:Middlewares/lvgl/src/extra/widgets/colorwheel/../../../../src/hal/../misc/lv_color.h **** #endif
  28:Middlewares/lvgl/src/extra/widgets/colorwheel/../../../../src/hal/../misc/lv_color.h **** 
  29:Middlewares/lvgl/src/extra/widgets/colorwheel/../../../../src/hal/../misc/lv_color.h **** #if LV_COLOR_DEPTH != 16 && LV_COLOR_16_SWAP != 0
  30:Middlewares/lvgl/src/extra/widgets/colorwheel/../../../../src/hal/../misc/lv_color.h **** #error "LV_COLOR_16_SWAP requires LV_COLOR_DEPTH == 16. Set it in lv_conf.h"
  31:Middlewares/lvgl/src/extra/widgets/colorwheel/../../../../src/hal/../misc/lv_color.h **** #endif
  32:Middlewares/lvgl/src/extra/widgets/colorwheel/../../../../src/hal/../misc/lv_color.h **** 
  33:Middlewares/lvgl/src/extra/widgets/colorwheel/../../../../src/hal/../misc/lv_color.h **** #include <stdint.h>
  34:Middlewares/lvgl/src/extra/widgets/colorwheel/../../../../src/hal/../misc/lv_color.h **** 
  35:Middlewares/lvgl/src/extra/widgets/colorwheel/../../../../src/hal/../misc/lv_color.h **** /*********************
  36:Middlewares/lvgl/src/extra/widgets/colorwheel/../../../../src/hal/../misc/lv_color.h ****  *      DEFINES
  37:Middlewares/lvgl/src/extra/widgets/colorwheel/../../../../src/hal/../misc/lv_color.h ****  *********************/
  38:Middlewares/lvgl/src/extra/widgets/colorwheel/../../../../src/hal/../misc/lv_color.h **** 
  39:Middlewares/lvgl/src/extra/widgets/colorwheel/../../../../src/hal/../misc/lv_color.h **** /**
  40:Middlewares/lvgl/src/extra/widgets/colorwheel/../../../../src/hal/../misc/lv_color.h ****  * Opacity percentages.
  41:Middlewares/lvgl/src/extra/widgets/colorwheel/../../../../src/hal/../misc/lv_color.h ****  */
  42:Middlewares/lvgl/src/extra/widgets/colorwheel/../../../../src/hal/../misc/lv_color.h **** enum {
  43:Middlewares/lvgl/src/extra/widgets/colorwheel/../../../../src/hal/../misc/lv_color.h ****     LV_OPA_TRANSP = 0,
  44:Middlewares/lvgl/src/extra/widgets/colorwheel/../../../../src/hal/../misc/lv_color.h ****     LV_OPA_0      = 0,
  45:Middlewares/lvgl/src/extra/widgets/colorwheel/../../../../src/hal/../misc/lv_color.h ****     LV_OPA_10     = 25,
ARM GAS  /tmp/ccyILfU7.s 			page 19


  46:Middlewares/lvgl/src/extra/widgets/colorwheel/../../../../src/hal/../misc/lv_color.h ****     LV_OPA_20     = 51,
  47:Middlewares/lvgl/src/extra/widgets/colorwheel/../../../../src/hal/../misc/lv_color.h ****     LV_OPA_30     = 76,
  48:Middlewares/lvgl/src/extra/widgets/colorwheel/../../../../src/hal/../misc/lv_color.h ****     LV_OPA_40     = 102,
  49:Middlewares/lvgl/src/extra/widgets/colorwheel/../../../../src/hal/../misc/lv_color.h ****     LV_OPA_50     = 127,
  50:Middlewares/lvgl/src/extra/widgets/colorwheel/../../../../src/hal/../misc/lv_color.h ****     LV_OPA_60     = 153,
  51:Middlewares/lvgl/src/extra/widgets/colorwheel/../../../../src/hal/../misc/lv_color.h ****     LV_OPA_70     = 178,
  52:Middlewares/lvgl/src/extra/widgets/colorwheel/../../../../src/hal/../misc/lv_color.h ****     LV_OPA_80     = 204,
  53:Middlewares/lvgl/src/extra/widgets/colorwheel/../../../../src/hal/../misc/lv_color.h ****     LV_OPA_90     = 229,
  54:Middlewares/lvgl/src/extra/widgets/colorwheel/../../../../src/hal/../misc/lv_color.h ****     LV_OPA_100    = 255,
  55:Middlewares/lvgl/src/extra/widgets/colorwheel/../../../../src/hal/../misc/lv_color.h ****     LV_OPA_COVER  = 255,
  56:Middlewares/lvgl/src/extra/widgets/colorwheel/../../../../src/hal/../misc/lv_color.h **** };
  57:Middlewares/lvgl/src/extra/widgets/colorwheel/../../../../src/hal/../misc/lv_color.h **** 
  58:Middlewares/lvgl/src/extra/widgets/colorwheel/../../../../src/hal/../misc/lv_color.h **** #define LV_OPA_MIN 2    /*Opacities below this will be transparent*/
  59:Middlewares/lvgl/src/extra/widgets/colorwheel/../../../../src/hal/../misc/lv_color.h **** #define LV_OPA_MAX 253  /*Opacities above this will fully cover*/
  60:Middlewares/lvgl/src/extra/widgets/colorwheel/../../../../src/hal/../misc/lv_color.h **** 
  61:Middlewares/lvgl/src/extra/widgets/colorwheel/../../../../src/hal/../misc/lv_color.h **** #if LV_COLOR_DEPTH == 1
  62:Middlewares/lvgl/src/extra/widgets/colorwheel/../../../../src/hal/../misc/lv_color.h **** #define LV_COLOR_SIZE 8
  63:Middlewares/lvgl/src/extra/widgets/colorwheel/../../../../src/hal/../misc/lv_color.h **** #elif LV_COLOR_DEPTH == 8
  64:Middlewares/lvgl/src/extra/widgets/colorwheel/../../../../src/hal/../misc/lv_color.h **** #define LV_COLOR_SIZE 8
  65:Middlewares/lvgl/src/extra/widgets/colorwheel/../../../../src/hal/../misc/lv_color.h **** #elif LV_COLOR_DEPTH == 16
  66:Middlewares/lvgl/src/extra/widgets/colorwheel/../../../../src/hal/../misc/lv_color.h **** #define LV_COLOR_SIZE 16
  67:Middlewares/lvgl/src/extra/widgets/colorwheel/../../../../src/hal/../misc/lv_color.h **** #elif LV_COLOR_DEPTH == 32
  68:Middlewares/lvgl/src/extra/widgets/colorwheel/../../../../src/hal/../misc/lv_color.h **** #define LV_COLOR_SIZE 32
  69:Middlewares/lvgl/src/extra/widgets/colorwheel/../../../../src/hal/../misc/lv_color.h **** #else
  70:Middlewares/lvgl/src/extra/widgets/colorwheel/../../../../src/hal/../misc/lv_color.h **** #error "Invalid LV_COLOR_DEPTH in lv_conf.h! Set it to 1, 8, 16 or 32!"
  71:Middlewares/lvgl/src/extra/widgets/colorwheel/../../../../src/hal/../misc/lv_color.h **** #endif
  72:Middlewares/lvgl/src/extra/widgets/colorwheel/../../../../src/hal/../misc/lv_color.h **** 
  73:Middlewares/lvgl/src/extra/widgets/colorwheel/../../../../src/hal/../misc/lv_color.h **** /**
  74:Middlewares/lvgl/src/extra/widgets/colorwheel/../../../../src/hal/../misc/lv_color.h ****  * Adjust color mix functions rounding.
  75:Middlewares/lvgl/src/extra/widgets/colorwheel/../../../../src/hal/../misc/lv_color.h ****  * GPUs might calculate color mix (blending) differently.
  76:Middlewares/lvgl/src/extra/widgets/colorwheel/../../../../src/hal/../misc/lv_color.h ****  * Should be in range of 0..254
  77:Middlewares/lvgl/src/extra/widgets/colorwheel/../../../../src/hal/../misc/lv_color.h ****  * 0: no adjustment, get the integer part of the result (round down)
  78:Middlewares/lvgl/src/extra/widgets/colorwheel/../../../../src/hal/../misc/lv_color.h ****  * 64: round up from x.75
  79:Middlewares/lvgl/src/extra/widgets/colorwheel/../../../../src/hal/../misc/lv_color.h ****  * 128: round up from half
  80:Middlewares/lvgl/src/extra/widgets/colorwheel/../../../../src/hal/../misc/lv_color.h ****  * 192: round up from x.25
  81:Middlewares/lvgl/src/extra/widgets/colorwheel/../../../../src/hal/../misc/lv_color.h ****  * 254: round up*/
  82:Middlewares/lvgl/src/extra/widgets/colorwheel/../../../../src/hal/../misc/lv_color.h **** #ifndef LV_COLOR_MIX_ROUND_OFS
  83:Middlewares/lvgl/src/extra/widgets/colorwheel/../../../../src/hal/../misc/lv_color.h **** #if LV_COLOR_DEPTH == 32
  84:Middlewares/lvgl/src/extra/widgets/colorwheel/../../../../src/hal/../misc/lv_color.h **** #define LV_COLOR_MIX_ROUND_OFS 0
  85:Middlewares/lvgl/src/extra/widgets/colorwheel/../../../../src/hal/../misc/lv_color.h **** #else
  86:Middlewares/lvgl/src/extra/widgets/colorwheel/../../../../src/hal/../misc/lv_color.h **** #define LV_COLOR_MIX_ROUND_OFS 128
  87:Middlewares/lvgl/src/extra/widgets/colorwheel/../../../../src/hal/../misc/lv_color.h **** #endif
  88:Middlewares/lvgl/src/extra/widgets/colorwheel/../../../../src/hal/../misc/lv_color.h **** #endif
  89:Middlewares/lvgl/src/extra/widgets/colorwheel/../../../../src/hal/../misc/lv_color.h **** 
  90:Middlewares/lvgl/src/extra/widgets/colorwheel/../../../../src/hal/../misc/lv_color.h **** #if defined(__cplusplus) && !defined(_LV_COLOR_HAS_MODERN_CPP)
  91:Middlewares/lvgl/src/extra/widgets/colorwheel/../../../../src/hal/../misc/lv_color.h **** /**
  92:Middlewares/lvgl/src/extra/widgets/colorwheel/../../../../src/hal/../misc/lv_color.h **** * MSVC compiler's definition of the __cplusplus indicating 199711L regardless to C++ standard versi
  93:Middlewares/lvgl/src/extra/widgets/colorwheel/../../../../src/hal/../misc/lv_color.h **** * see https://devblogs.microsoft.com/cppblog/msvc-now-correctly-reports-cplusplus
  94:Middlewares/lvgl/src/extra/widgets/colorwheel/../../../../src/hal/../misc/lv_color.h **** * so we use _MSC_VER macro instead of __cplusplus
  95:Middlewares/lvgl/src/extra/widgets/colorwheel/../../../../src/hal/../misc/lv_color.h **** */
  96:Middlewares/lvgl/src/extra/widgets/colorwheel/../../../../src/hal/../misc/lv_color.h **** #ifdef _MSC_VER
  97:Middlewares/lvgl/src/extra/widgets/colorwheel/../../../../src/hal/../misc/lv_color.h **** #if _MSC_VER >= 1900 /*Visual Studio 2015*/
  98:Middlewares/lvgl/src/extra/widgets/colorwheel/../../../../src/hal/../misc/lv_color.h **** #define _LV_COLOR_HAS_MODERN_CPP 1
  99:Middlewares/lvgl/src/extra/widgets/colorwheel/../../../../src/hal/../misc/lv_color.h **** #endif
 100:Middlewares/lvgl/src/extra/widgets/colorwheel/../../../../src/hal/../misc/lv_color.h **** #else
 101:Middlewares/lvgl/src/extra/widgets/colorwheel/../../../../src/hal/../misc/lv_color.h **** #if __cplusplus >= 201103L
 102:Middlewares/lvgl/src/extra/widgets/colorwheel/../../../../src/hal/../misc/lv_color.h **** #define _LV_COLOR_HAS_MODERN_CPP 1
ARM GAS  /tmp/ccyILfU7.s 			page 20


 103:Middlewares/lvgl/src/extra/widgets/colorwheel/../../../../src/hal/../misc/lv_color.h **** #endif
 104:Middlewares/lvgl/src/extra/widgets/colorwheel/../../../../src/hal/../misc/lv_color.h **** #endif
 105:Middlewares/lvgl/src/extra/widgets/colorwheel/../../../../src/hal/../misc/lv_color.h **** #endif /*__cplusplus*/
 106:Middlewares/lvgl/src/extra/widgets/colorwheel/../../../../src/hal/../misc/lv_color.h **** 
 107:Middlewares/lvgl/src/extra/widgets/colorwheel/../../../../src/hal/../misc/lv_color.h **** #ifndef _LV_COLOR_HAS_MODERN_CPP
 108:Middlewares/lvgl/src/extra/widgets/colorwheel/../../../../src/hal/../misc/lv_color.h **** #define _LV_COLOR_HAS_MODERN_CPP 0
 109:Middlewares/lvgl/src/extra/widgets/colorwheel/../../../../src/hal/../misc/lv_color.h **** #endif
 110:Middlewares/lvgl/src/extra/widgets/colorwheel/../../../../src/hal/../misc/lv_color.h **** 
 111:Middlewares/lvgl/src/extra/widgets/colorwheel/../../../../src/hal/../misc/lv_color.h **** #if _LV_COLOR_HAS_MODERN_CPP
 112:Middlewares/lvgl/src/extra/widgets/colorwheel/../../../../src/hal/../misc/lv_color.h **** /*Fix msvc compiler error C4576 inside C++ code*/
 113:Middlewares/lvgl/src/extra/widgets/colorwheel/../../../../src/hal/../misc/lv_color.h **** #define _LV_COLOR_MAKE_TYPE_HELPER lv_color_t
 114:Middlewares/lvgl/src/extra/widgets/colorwheel/../../../../src/hal/../misc/lv_color.h **** #else
 115:Middlewares/lvgl/src/extra/widgets/colorwheel/../../../../src/hal/../misc/lv_color.h **** #define _LV_COLOR_MAKE_TYPE_HELPER (lv_color_t)
 116:Middlewares/lvgl/src/extra/widgets/colorwheel/../../../../src/hal/../misc/lv_color.h **** #endif
 117:Middlewares/lvgl/src/extra/widgets/colorwheel/../../../../src/hal/../misc/lv_color.h **** 
 118:Middlewares/lvgl/src/extra/widgets/colorwheel/../../../../src/hal/../misc/lv_color.h **** /*---------------------------------------
 119:Middlewares/lvgl/src/extra/widgets/colorwheel/../../../../src/hal/../misc/lv_color.h ****  * Macros for all existing color depths
 120:Middlewares/lvgl/src/extra/widgets/colorwheel/../../../../src/hal/../misc/lv_color.h ****  * to set/get values of the color channels
 121:Middlewares/lvgl/src/extra/widgets/colorwheel/../../../../src/hal/../misc/lv_color.h ****  *------------------------------------------*/
 122:Middlewares/lvgl/src/extra/widgets/colorwheel/../../../../src/hal/../misc/lv_color.h **** # define LV_COLOR_SET_R1(c, v) (c).ch.red = (uint8_t)((v) & 0x1)
 123:Middlewares/lvgl/src/extra/widgets/colorwheel/../../../../src/hal/../misc/lv_color.h **** # define LV_COLOR_SET_G1(c, v) (c).ch.green = (uint8_t)((v) & 0x1)
 124:Middlewares/lvgl/src/extra/widgets/colorwheel/../../../../src/hal/../misc/lv_color.h **** # define LV_COLOR_SET_B1(c, v) (c).ch.blue = (uint8_t)((v) & 0x1)
 125:Middlewares/lvgl/src/extra/widgets/colorwheel/../../../../src/hal/../misc/lv_color.h **** # define LV_COLOR_SET_A1(c, v) do {} while(0)
 126:Middlewares/lvgl/src/extra/widgets/colorwheel/../../../../src/hal/../misc/lv_color.h **** 
 127:Middlewares/lvgl/src/extra/widgets/colorwheel/../../../../src/hal/../misc/lv_color.h **** # define LV_COLOR_GET_R1(c) (c).ch.red
 128:Middlewares/lvgl/src/extra/widgets/colorwheel/../../../../src/hal/../misc/lv_color.h **** # define LV_COLOR_GET_G1(c) (c).ch.green
 129:Middlewares/lvgl/src/extra/widgets/colorwheel/../../../../src/hal/../misc/lv_color.h **** # define LV_COLOR_GET_B1(c) (c).ch.blue
 130:Middlewares/lvgl/src/extra/widgets/colorwheel/../../../../src/hal/../misc/lv_color.h **** # define LV_COLOR_GET_A1(c) 0xFF
 131:Middlewares/lvgl/src/extra/widgets/colorwheel/../../../../src/hal/../misc/lv_color.h **** 
 132:Middlewares/lvgl/src/extra/widgets/colorwheel/../../../../src/hal/../misc/lv_color.h **** # define _LV_COLOR_ZERO_INITIALIZER1 {0x00}
 133:Middlewares/lvgl/src/extra/widgets/colorwheel/../../../../src/hal/../misc/lv_color.h **** # define LV_COLOR_MAKE1(r8, g8, b8)  {(uint8_t)((b8 >> 7) | (g8 >> 7) | (r8 >> 7))}
 134:Middlewares/lvgl/src/extra/widgets/colorwheel/../../../../src/hal/../misc/lv_color.h **** 
 135:Middlewares/lvgl/src/extra/widgets/colorwheel/../../../../src/hal/../misc/lv_color.h **** # define LV_COLOR_SET_R8(c, v) (c).ch.red = (uint8_t)((v) & 0x7U)
 136:Middlewares/lvgl/src/extra/widgets/colorwheel/../../../../src/hal/../misc/lv_color.h **** # define LV_COLOR_SET_G8(c, v) (c).ch.green = (uint8_t)((v) & 0x7U)
 137:Middlewares/lvgl/src/extra/widgets/colorwheel/../../../../src/hal/../misc/lv_color.h **** # define LV_COLOR_SET_B8(c, v) (c).ch.blue = (uint8_t)((v) & 0x3U)
 138:Middlewares/lvgl/src/extra/widgets/colorwheel/../../../../src/hal/../misc/lv_color.h **** # define LV_COLOR_SET_A8(c, v) do {} while(0)
 139:Middlewares/lvgl/src/extra/widgets/colorwheel/../../../../src/hal/../misc/lv_color.h **** 
 140:Middlewares/lvgl/src/extra/widgets/colorwheel/../../../../src/hal/../misc/lv_color.h **** # define LV_COLOR_GET_R8(c) (c).ch.red
 141:Middlewares/lvgl/src/extra/widgets/colorwheel/../../../../src/hal/../misc/lv_color.h **** # define LV_COLOR_GET_G8(c) (c).ch.green
 142:Middlewares/lvgl/src/extra/widgets/colorwheel/../../../../src/hal/../misc/lv_color.h **** # define LV_COLOR_GET_B8(c) (c).ch.blue
 143:Middlewares/lvgl/src/extra/widgets/colorwheel/../../../../src/hal/../misc/lv_color.h **** # define LV_COLOR_GET_A8(c) 0xFF
 144:Middlewares/lvgl/src/extra/widgets/colorwheel/../../../../src/hal/../misc/lv_color.h **** 
 145:Middlewares/lvgl/src/extra/widgets/colorwheel/../../../../src/hal/../misc/lv_color.h **** # define _LV_COLOR_ZERO_INITIALIZER8 _LV_COLOR_MAKE_TYPE_HELPER {{0x00, 0x00, 0x00}}
 146:Middlewares/lvgl/src/extra/widgets/colorwheel/../../../../src/hal/../misc/lv_color.h **** # define LV_COLOR_MAKE8(r8, g8, b8) _LV_COLOR_MAKE_TYPE_HELPER  {{(uint8_t)((b8 >> 6) & 0x3U), (uin
 147:Middlewares/lvgl/src/extra/widgets/colorwheel/../../../../src/hal/../misc/lv_color.h **** 
 148:Middlewares/lvgl/src/extra/widgets/colorwheel/../../../../src/hal/../misc/lv_color.h **** # define LV_COLOR_SET_R16(c, v) (c).ch.red = (uint8_t)((v) & 0x1FU)
 149:Middlewares/lvgl/src/extra/widgets/colorwheel/../../../../src/hal/../misc/lv_color.h **** #if LV_COLOR_16_SWAP == 0
 150:Middlewares/lvgl/src/extra/widgets/colorwheel/../../../../src/hal/../misc/lv_color.h **** # define LV_COLOR_SET_G16(c, v) (c).ch.green = (uint8_t)((v) & 0x3FU)
 151:Middlewares/lvgl/src/extra/widgets/colorwheel/../../../../src/hal/../misc/lv_color.h **** #else
 152:Middlewares/lvgl/src/extra/widgets/colorwheel/../../../../src/hal/../misc/lv_color.h **** # define LV_COLOR_SET_G16(c, v) {(c).ch.green_h = (uint8_t)(((v) >> 3) & 0x7); (c).ch.green_l = (ui
 153:Middlewares/lvgl/src/extra/widgets/colorwheel/../../../../src/hal/../misc/lv_color.h **** #endif
 154:Middlewares/lvgl/src/extra/widgets/colorwheel/../../../../src/hal/../misc/lv_color.h **** # define LV_COLOR_SET_B16(c, v) (c).ch.blue = (uint8_t)((v) & 0x1FU)
 155:Middlewares/lvgl/src/extra/widgets/colorwheel/../../../../src/hal/../misc/lv_color.h **** # define LV_COLOR_SET_A16(c, v) do {} while(0)
 156:Middlewares/lvgl/src/extra/widgets/colorwheel/../../../../src/hal/../misc/lv_color.h **** 
 157:Middlewares/lvgl/src/extra/widgets/colorwheel/../../../../src/hal/../misc/lv_color.h **** # define LV_COLOR_GET_R16(c) (c).ch.red
 158:Middlewares/lvgl/src/extra/widgets/colorwheel/../../../../src/hal/../misc/lv_color.h **** #if LV_COLOR_16_SWAP == 0
 159:Middlewares/lvgl/src/extra/widgets/colorwheel/../../../../src/hal/../misc/lv_color.h **** # define LV_COLOR_GET_G16(c) (c).ch.green
ARM GAS  /tmp/ccyILfU7.s 			page 21


 160:Middlewares/lvgl/src/extra/widgets/colorwheel/../../../../src/hal/../misc/lv_color.h **** #else
 161:Middlewares/lvgl/src/extra/widgets/colorwheel/../../../../src/hal/../misc/lv_color.h **** # define LV_COLOR_GET_G16(c) (((c).ch.green_h << 3) + (c).ch.green_l)
 162:Middlewares/lvgl/src/extra/widgets/colorwheel/../../../../src/hal/../misc/lv_color.h **** #endif
 163:Middlewares/lvgl/src/extra/widgets/colorwheel/../../../../src/hal/../misc/lv_color.h **** # define LV_COLOR_GET_B16(c) (c).ch.blue
 164:Middlewares/lvgl/src/extra/widgets/colorwheel/../../../../src/hal/../misc/lv_color.h **** # define LV_COLOR_GET_A16(c) 0xFF
 165:Middlewares/lvgl/src/extra/widgets/colorwheel/../../../../src/hal/../misc/lv_color.h **** 
 166:Middlewares/lvgl/src/extra/widgets/colorwheel/../../../../src/hal/../misc/lv_color.h **** #if LV_COLOR_16_SWAP == 0
 167:Middlewares/lvgl/src/extra/widgets/colorwheel/../../../../src/hal/../misc/lv_color.h **** # define _LV_COLOR_ZERO_INITIALIZER16  {{0x00, 0x00, 0x00}}
 168:Middlewares/lvgl/src/extra/widgets/colorwheel/../../../../src/hal/../misc/lv_color.h **** # define LV_COLOR_MAKE16(r8, g8, b8) {{(uint8_t)((b8 >> 3) & 0x1FU), (uint8_t)((g8 >> 2) & 0x3FU), 
 169:Middlewares/lvgl/src/extra/widgets/colorwheel/../../../../src/hal/../misc/lv_color.h **** #else
 170:Middlewares/lvgl/src/extra/widgets/colorwheel/../../../../src/hal/../misc/lv_color.h **** # define _LV_COLOR_ZERO_INITIALIZER16 {{0x00, 0x00, 0x00, 0x00}}
 171:Middlewares/lvgl/src/extra/widgets/colorwheel/../../../../src/hal/../misc/lv_color.h **** # define LV_COLOR_MAKE16(r8, g8, b8) {{(uint8_t)((g8 >> 5) & 0x7U), (uint8_t)((r8 >> 3) & 0x1FU), (
 172:Middlewares/lvgl/src/extra/widgets/colorwheel/../../../../src/hal/../misc/lv_color.h **** #endif
 173:Middlewares/lvgl/src/extra/widgets/colorwheel/../../../../src/hal/../misc/lv_color.h **** 
 174:Middlewares/lvgl/src/extra/widgets/colorwheel/../../../../src/hal/../misc/lv_color.h **** # define LV_COLOR_SET_R32(c, v) (c).ch.red = (uint8_t)((v) & 0xFF)
 175:Middlewares/lvgl/src/extra/widgets/colorwheel/../../../../src/hal/../misc/lv_color.h **** # define LV_COLOR_SET_G32(c, v) (c).ch.green = (uint8_t)((v) & 0xFF)
 176:Middlewares/lvgl/src/extra/widgets/colorwheel/../../../../src/hal/../misc/lv_color.h **** # define LV_COLOR_SET_B32(c, v) (c).ch.blue = (uint8_t)((v) & 0xFF)
 177:Middlewares/lvgl/src/extra/widgets/colorwheel/../../../../src/hal/../misc/lv_color.h **** # define LV_COLOR_SET_A32(c, v) (c).ch.alpha = (uint8_t)((v) & 0xFF)
 178:Middlewares/lvgl/src/extra/widgets/colorwheel/../../../../src/hal/../misc/lv_color.h **** 
 179:Middlewares/lvgl/src/extra/widgets/colorwheel/../../../../src/hal/../misc/lv_color.h **** # define LV_COLOR_GET_R32(c) (c).ch.red
 180:Middlewares/lvgl/src/extra/widgets/colorwheel/../../../../src/hal/../misc/lv_color.h **** # define LV_COLOR_GET_G32(c) (c).ch.green
 181:Middlewares/lvgl/src/extra/widgets/colorwheel/../../../../src/hal/../misc/lv_color.h **** # define LV_COLOR_GET_B32(c) (c).ch.blue
 182:Middlewares/lvgl/src/extra/widgets/colorwheel/../../../../src/hal/../misc/lv_color.h **** # define LV_COLOR_GET_A32(c) (c).ch.alpha
 183:Middlewares/lvgl/src/extra/widgets/colorwheel/../../../../src/hal/../misc/lv_color.h **** 
 184:Middlewares/lvgl/src/extra/widgets/colorwheel/../../../../src/hal/../misc/lv_color.h **** # define _LV_COLOR_ZERO_INITIALIZER32  {{0x00, 0x00, 0x00, 0x00}}
 185:Middlewares/lvgl/src/extra/widgets/colorwheel/../../../../src/hal/../misc/lv_color.h **** # define LV_COLOR_MAKE32(r8, g8, b8) {{b8, g8, r8, 0xff}} /*Fix 0xff alpha*/
 186:Middlewares/lvgl/src/extra/widgets/colorwheel/../../../../src/hal/../misc/lv_color.h **** 
 187:Middlewares/lvgl/src/extra/widgets/colorwheel/../../../../src/hal/../misc/lv_color.h **** /*---------------------------------------
 188:Middlewares/lvgl/src/extra/widgets/colorwheel/../../../../src/hal/../misc/lv_color.h ****  * Macros for the current color depth
 189:Middlewares/lvgl/src/extra/widgets/colorwheel/../../../../src/hal/../misc/lv_color.h ****  * to set/get values of the color channels
 190:Middlewares/lvgl/src/extra/widgets/colorwheel/../../../../src/hal/../misc/lv_color.h ****  *------------------------------------------*/
 191:Middlewares/lvgl/src/extra/widgets/colorwheel/../../../../src/hal/../misc/lv_color.h **** #define LV_COLOR_SET_R(c, v) LV_CONCAT(LV_COLOR_SET_R, LV_COLOR_DEPTH)(c, v)
 192:Middlewares/lvgl/src/extra/widgets/colorwheel/../../../../src/hal/../misc/lv_color.h **** #define LV_COLOR_SET_G(c, v) LV_CONCAT(LV_COLOR_SET_G, LV_COLOR_DEPTH)(c, v)
 193:Middlewares/lvgl/src/extra/widgets/colorwheel/../../../../src/hal/../misc/lv_color.h **** #define LV_COLOR_SET_B(c, v) LV_CONCAT(LV_COLOR_SET_B, LV_COLOR_DEPTH)(c, v)
 194:Middlewares/lvgl/src/extra/widgets/colorwheel/../../../../src/hal/../misc/lv_color.h **** #define LV_COLOR_SET_A(c, v) LV_CONCAT(LV_COLOR_SET_A, LV_COLOR_DEPTH)(c, v)
 195:Middlewares/lvgl/src/extra/widgets/colorwheel/../../../../src/hal/../misc/lv_color.h **** 
 196:Middlewares/lvgl/src/extra/widgets/colorwheel/../../../../src/hal/../misc/lv_color.h **** #define LV_COLOR_GET_R(c) LV_CONCAT(LV_COLOR_GET_R, LV_COLOR_DEPTH)(c)
 197:Middlewares/lvgl/src/extra/widgets/colorwheel/../../../../src/hal/../misc/lv_color.h **** #define LV_COLOR_GET_G(c) LV_CONCAT(LV_COLOR_GET_G, LV_COLOR_DEPTH)(c)
 198:Middlewares/lvgl/src/extra/widgets/colorwheel/../../../../src/hal/../misc/lv_color.h **** #define LV_COLOR_GET_B(c) LV_CONCAT(LV_COLOR_GET_B, LV_COLOR_DEPTH)(c)
 199:Middlewares/lvgl/src/extra/widgets/colorwheel/../../../../src/hal/../misc/lv_color.h **** #define LV_COLOR_GET_A(c) LV_CONCAT(LV_COLOR_GET_A, LV_COLOR_DEPTH)(c)
 200:Middlewares/lvgl/src/extra/widgets/colorwheel/../../../../src/hal/../misc/lv_color.h **** 
 201:Middlewares/lvgl/src/extra/widgets/colorwheel/../../../../src/hal/../misc/lv_color.h **** #define _LV_COLOR_ZERO_INITIALIZER LV_CONCAT(_LV_COLOR_ZERO_INITIALIZER, LV_COLOR_DEPTH)
 202:Middlewares/lvgl/src/extra/widgets/colorwheel/../../../../src/hal/../misc/lv_color.h **** #define LV_COLOR_MAKE(r8, g8, b8) LV_CONCAT(LV_COLOR_MAKE, LV_COLOR_DEPTH)(r8, g8, b8)
 203:Middlewares/lvgl/src/extra/widgets/colorwheel/../../../../src/hal/../misc/lv_color.h **** 
 204:Middlewares/lvgl/src/extra/widgets/colorwheel/../../../../src/hal/../misc/lv_color.h **** #define LV_UDIV255(x) ((uint32_t)((uint32_t) (x) * 0x8081) >> 0x17)
 205:Middlewares/lvgl/src/extra/widgets/colorwheel/../../../../src/hal/../misc/lv_color.h **** 
 206:Middlewares/lvgl/src/extra/widgets/colorwheel/../../../../src/hal/../misc/lv_color.h **** /**********************
 207:Middlewares/lvgl/src/extra/widgets/colorwheel/../../../../src/hal/../misc/lv_color.h ****  *      TYPEDEFS
 208:Middlewares/lvgl/src/extra/widgets/colorwheel/../../../../src/hal/../misc/lv_color.h ****  **********************/
 209:Middlewares/lvgl/src/extra/widgets/colorwheel/../../../../src/hal/../misc/lv_color.h **** 
 210:Middlewares/lvgl/src/extra/widgets/colorwheel/../../../../src/hal/../misc/lv_color.h **** typedef union {
 211:Middlewares/lvgl/src/extra/widgets/colorwheel/../../../../src/hal/../misc/lv_color.h ****     uint8_t full; /*must be declared first to set all bits of byte via initializer list*/
 212:Middlewares/lvgl/src/extra/widgets/colorwheel/../../../../src/hal/../misc/lv_color.h ****     union {
 213:Middlewares/lvgl/src/extra/widgets/colorwheel/../../../../src/hal/../misc/lv_color.h ****         uint8_t blue : 1;
 214:Middlewares/lvgl/src/extra/widgets/colorwheel/../../../../src/hal/../misc/lv_color.h ****         uint8_t green : 1;
 215:Middlewares/lvgl/src/extra/widgets/colorwheel/../../../../src/hal/../misc/lv_color.h ****         uint8_t red : 1;
 216:Middlewares/lvgl/src/extra/widgets/colorwheel/../../../../src/hal/../misc/lv_color.h ****     } ch;
ARM GAS  /tmp/ccyILfU7.s 			page 22


 217:Middlewares/lvgl/src/extra/widgets/colorwheel/../../../../src/hal/../misc/lv_color.h **** } lv_color1_t;
 218:Middlewares/lvgl/src/extra/widgets/colorwheel/../../../../src/hal/../misc/lv_color.h **** 
 219:Middlewares/lvgl/src/extra/widgets/colorwheel/../../../../src/hal/../misc/lv_color.h **** typedef union {
 220:Middlewares/lvgl/src/extra/widgets/colorwheel/../../../../src/hal/../misc/lv_color.h ****     struct {
 221:Middlewares/lvgl/src/extra/widgets/colorwheel/../../../../src/hal/../misc/lv_color.h ****         uint8_t blue : 2;
 222:Middlewares/lvgl/src/extra/widgets/colorwheel/../../../../src/hal/../misc/lv_color.h ****         uint8_t green : 3;
 223:Middlewares/lvgl/src/extra/widgets/colorwheel/../../../../src/hal/../misc/lv_color.h ****         uint8_t red : 3;
 224:Middlewares/lvgl/src/extra/widgets/colorwheel/../../../../src/hal/../misc/lv_color.h ****     } ch;
 225:Middlewares/lvgl/src/extra/widgets/colorwheel/../../../../src/hal/../misc/lv_color.h ****     uint8_t full;
 226:Middlewares/lvgl/src/extra/widgets/colorwheel/../../../../src/hal/../misc/lv_color.h **** } lv_color8_t;
 227:Middlewares/lvgl/src/extra/widgets/colorwheel/../../../../src/hal/../misc/lv_color.h **** 
 228:Middlewares/lvgl/src/extra/widgets/colorwheel/../../../../src/hal/../misc/lv_color.h **** typedef union {
 229:Middlewares/lvgl/src/extra/widgets/colorwheel/../../../../src/hal/../misc/lv_color.h ****     struct {
 230:Middlewares/lvgl/src/extra/widgets/colorwheel/../../../../src/hal/../misc/lv_color.h **** #if LV_COLOR_16_SWAP == 0
 231:Middlewares/lvgl/src/extra/widgets/colorwheel/../../../../src/hal/../misc/lv_color.h ****         uint16_t blue : 5;
 232:Middlewares/lvgl/src/extra/widgets/colorwheel/../../../../src/hal/../misc/lv_color.h ****         uint16_t green : 6;
 233:Middlewares/lvgl/src/extra/widgets/colorwheel/../../../../src/hal/../misc/lv_color.h ****         uint16_t red : 5;
 234:Middlewares/lvgl/src/extra/widgets/colorwheel/../../../../src/hal/../misc/lv_color.h **** #else
 235:Middlewares/lvgl/src/extra/widgets/colorwheel/../../../../src/hal/../misc/lv_color.h ****         uint16_t green_h : 3;
 236:Middlewares/lvgl/src/extra/widgets/colorwheel/../../../../src/hal/../misc/lv_color.h ****         uint16_t red : 5;
 237:Middlewares/lvgl/src/extra/widgets/colorwheel/../../../../src/hal/../misc/lv_color.h ****         uint16_t blue : 5;
 238:Middlewares/lvgl/src/extra/widgets/colorwheel/../../../../src/hal/../misc/lv_color.h ****         uint16_t green_l : 3;
 239:Middlewares/lvgl/src/extra/widgets/colorwheel/../../../../src/hal/../misc/lv_color.h **** #endif
 240:Middlewares/lvgl/src/extra/widgets/colorwheel/../../../../src/hal/../misc/lv_color.h ****     } ch;
 241:Middlewares/lvgl/src/extra/widgets/colorwheel/../../../../src/hal/../misc/lv_color.h ****     uint16_t full;
 242:Middlewares/lvgl/src/extra/widgets/colorwheel/../../../../src/hal/../misc/lv_color.h **** } lv_color16_t;
 243:Middlewares/lvgl/src/extra/widgets/colorwheel/../../../../src/hal/../misc/lv_color.h **** 
 244:Middlewares/lvgl/src/extra/widgets/colorwheel/../../../../src/hal/../misc/lv_color.h **** typedef union {
 245:Middlewares/lvgl/src/extra/widgets/colorwheel/../../../../src/hal/../misc/lv_color.h ****     struct {
 246:Middlewares/lvgl/src/extra/widgets/colorwheel/../../../../src/hal/../misc/lv_color.h ****         uint8_t blue;
 247:Middlewares/lvgl/src/extra/widgets/colorwheel/../../../../src/hal/../misc/lv_color.h ****         uint8_t green;
 248:Middlewares/lvgl/src/extra/widgets/colorwheel/../../../../src/hal/../misc/lv_color.h ****         uint8_t red;
 249:Middlewares/lvgl/src/extra/widgets/colorwheel/../../../../src/hal/../misc/lv_color.h ****         uint8_t alpha;
 250:Middlewares/lvgl/src/extra/widgets/colorwheel/../../../../src/hal/../misc/lv_color.h ****     } ch;
 251:Middlewares/lvgl/src/extra/widgets/colorwheel/../../../../src/hal/../misc/lv_color.h ****     uint32_t full;
 252:Middlewares/lvgl/src/extra/widgets/colorwheel/../../../../src/hal/../misc/lv_color.h **** } lv_color32_t;
 253:Middlewares/lvgl/src/extra/widgets/colorwheel/../../../../src/hal/../misc/lv_color.h **** 
 254:Middlewares/lvgl/src/extra/widgets/colorwheel/../../../../src/hal/../misc/lv_color.h **** typedef LV_CONCAT3(uint, LV_COLOR_SIZE, _t) lv_color_int_t;
 255:Middlewares/lvgl/src/extra/widgets/colorwheel/../../../../src/hal/../misc/lv_color.h **** typedef LV_CONCAT3(lv_color, LV_COLOR_DEPTH, _t) lv_color_t;
 256:Middlewares/lvgl/src/extra/widgets/colorwheel/../../../../src/hal/../misc/lv_color.h **** 
 257:Middlewares/lvgl/src/extra/widgets/colorwheel/../../../../src/hal/../misc/lv_color.h **** typedef struct {
 258:Middlewares/lvgl/src/extra/widgets/colorwheel/../../../../src/hal/../misc/lv_color.h ****     uint16_t h;
 259:Middlewares/lvgl/src/extra/widgets/colorwheel/../../../../src/hal/../misc/lv_color.h ****     uint8_t s;
 260:Middlewares/lvgl/src/extra/widgets/colorwheel/../../../../src/hal/../misc/lv_color.h ****     uint8_t v;
 261:Middlewares/lvgl/src/extra/widgets/colorwheel/../../../../src/hal/../misc/lv_color.h **** } lv_color_hsv_t;
 262:Middlewares/lvgl/src/extra/widgets/colorwheel/../../../../src/hal/../misc/lv_color.h **** 
 263:Middlewares/lvgl/src/extra/widgets/colorwheel/../../../../src/hal/../misc/lv_color.h **** //! @cond Doxygen_Suppress
 264:Middlewares/lvgl/src/extra/widgets/colorwheel/../../../../src/hal/../misc/lv_color.h **** /*No idea where the guard is required but else throws warnings in the docs*/
 265:Middlewares/lvgl/src/extra/widgets/colorwheel/../../../../src/hal/../misc/lv_color.h **** typedef uint8_t lv_opa_t;
 266:Middlewares/lvgl/src/extra/widgets/colorwheel/../../../../src/hal/../misc/lv_color.h **** //! @endcond
 267:Middlewares/lvgl/src/extra/widgets/colorwheel/../../../../src/hal/../misc/lv_color.h **** 
 268:Middlewares/lvgl/src/extra/widgets/colorwheel/../../../../src/hal/../misc/lv_color.h **** struct _lv_color_filter_dsc_t;
 269:Middlewares/lvgl/src/extra/widgets/colorwheel/../../../../src/hal/../misc/lv_color.h **** 
 270:Middlewares/lvgl/src/extra/widgets/colorwheel/../../../../src/hal/../misc/lv_color.h **** typedef lv_color_t (*lv_color_filter_cb_t)(const struct _lv_color_filter_dsc_t *, lv_color_t, lv_op
 271:Middlewares/lvgl/src/extra/widgets/colorwheel/../../../../src/hal/../misc/lv_color.h **** 
 272:Middlewares/lvgl/src/extra/widgets/colorwheel/../../../../src/hal/../misc/lv_color.h **** typedef struct _lv_color_filter_dsc_t {
 273:Middlewares/lvgl/src/extra/widgets/colorwheel/../../../../src/hal/../misc/lv_color.h ****     lv_color_filter_cb_t filter_cb;
ARM GAS  /tmp/ccyILfU7.s 			page 23


 274:Middlewares/lvgl/src/extra/widgets/colorwheel/../../../../src/hal/../misc/lv_color.h ****     void * user_data;
 275:Middlewares/lvgl/src/extra/widgets/colorwheel/../../../../src/hal/../misc/lv_color.h **** }lv_color_filter_dsc_t;
 276:Middlewares/lvgl/src/extra/widgets/colorwheel/../../../../src/hal/../misc/lv_color.h **** 
 277:Middlewares/lvgl/src/extra/widgets/colorwheel/../../../../src/hal/../misc/lv_color.h **** 
 278:Middlewares/lvgl/src/extra/widgets/colorwheel/../../../../src/hal/../misc/lv_color.h **** typedef enum {
 279:Middlewares/lvgl/src/extra/widgets/colorwheel/../../../../src/hal/../misc/lv_color.h ****     LV_PALETTE_RED,
 280:Middlewares/lvgl/src/extra/widgets/colorwheel/../../../../src/hal/../misc/lv_color.h ****     LV_PALETTE_PINK,
 281:Middlewares/lvgl/src/extra/widgets/colorwheel/../../../../src/hal/../misc/lv_color.h ****     LV_PALETTE_PURPLE,
 282:Middlewares/lvgl/src/extra/widgets/colorwheel/../../../../src/hal/../misc/lv_color.h ****     LV_PALETTE_DEEP_PURPLE,
 283:Middlewares/lvgl/src/extra/widgets/colorwheel/../../../../src/hal/../misc/lv_color.h ****     LV_PALETTE_INDIGO,
 284:Middlewares/lvgl/src/extra/widgets/colorwheel/../../../../src/hal/../misc/lv_color.h ****     LV_PALETTE_BLUE,
 285:Middlewares/lvgl/src/extra/widgets/colorwheel/../../../../src/hal/../misc/lv_color.h ****     LV_PALETTE_LIGHT_BLUE,
 286:Middlewares/lvgl/src/extra/widgets/colorwheel/../../../../src/hal/../misc/lv_color.h ****     LV_PALETTE_CYAN,
 287:Middlewares/lvgl/src/extra/widgets/colorwheel/../../../../src/hal/../misc/lv_color.h ****     LV_PALETTE_TEAL,
 288:Middlewares/lvgl/src/extra/widgets/colorwheel/../../../../src/hal/../misc/lv_color.h ****     LV_PALETTE_GREEN,
 289:Middlewares/lvgl/src/extra/widgets/colorwheel/../../../../src/hal/../misc/lv_color.h ****     LV_PALETTE_LIGHT_GREEN,
 290:Middlewares/lvgl/src/extra/widgets/colorwheel/../../../../src/hal/../misc/lv_color.h ****     LV_PALETTE_LIME,
 291:Middlewares/lvgl/src/extra/widgets/colorwheel/../../../../src/hal/../misc/lv_color.h ****     LV_PALETTE_YELLOW,
 292:Middlewares/lvgl/src/extra/widgets/colorwheel/../../../../src/hal/../misc/lv_color.h ****     LV_PALETTE_AMBER,
 293:Middlewares/lvgl/src/extra/widgets/colorwheel/../../../../src/hal/../misc/lv_color.h ****     LV_PALETTE_ORANGE,
 294:Middlewares/lvgl/src/extra/widgets/colorwheel/../../../../src/hal/../misc/lv_color.h ****     LV_PALETTE_DEEP_ORANGE,
 295:Middlewares/lvgl/src/extra/widgets/colorwheel/../../../../src/hal/../misc/lv_color.h ****     LV_PALETTE_BROWN,
 296:Middlewares/lvgl/src/extra/widgets/colorwheel/../../../../src/hal/../misc/lv_color.h ****     LV_PALETTE_BLUE_GREY,
 297:Middlewares/lvgl/src/extra/widgets/colorwheel/../../../../src/hal/../misc/lv_color.h ****     LV_PALETTE_GREY,
 298:Middlewares/lvgl/src/extra/widgets/colorwheel/../../../../src/hal/../misc/lv_color.h ****     _LV_PALETTE_LAST,
 299:Middlewares/lvgl/src/extra/widgets/colorwheel/../../../../src/hal/../misc/lv_color.h ****     LV_PALETTE_NONE = 0xff,
 300:Middlewares/lvgl/src/extra/widgets/colorwheel/../../../../src/hal/../misc/lv_color.h **** }lv_palette_t;
 301:Middlewares/lvgl/src/extra/widgets/colorwheel/../../../../src/hal/../misc/lv_color.h **** 
 302:Middlewares/lvgl/src/extra/widgets/colorwheel/../../../../src/hal/../misc/lv_color.h **** /**********************
 303:Middlewares/lvgl/src/extra/widgets/colorwheel/../../../../src/hal/../misc/lv_color.h ****  * GLOBAL PROTOTYPES
 304:Middlewares/lvgl/src/extra/widgets/colorwheel/../../../../src/hal/../misc/lv_color.h ****  **********************/
 305:Middlewares/lvgl/src/extra/widgets/colorwheel/../../../../src/hal/../misc/lv_color.h **** 
 306:Middlewares/lvgl/src/extra/widgets/colorwheel/../../../../src/hal/../misc/lv_color.h **** /*In color conversations:
 307:Middlewares/lvgl/src/extra/widgets/colorwheel/../../../../src/hal/../misc/lv_color.h ****  * - When converting to bigger color type the LSB weight of 1 LSB is calculated
 308:Middlewares/lvgl/src/extra/widgets/colorwheel/../../../../src/hal/../misc/lv_color.h ****  *   E.g. 16 bit Red has 5 bits
 309:Middlewares/lvgl/src/extra/widgets/colorwheel/../../../../src/hal/../misc/lv_color.h ****  *         8 bit Red has 3 bits
 310:Middlewares/lvgl/src/extra/widgets/colorwheel/../../../../src/hal/../misc/lv_color.h ****  *        ----------------------
 311:Middlewares/lvgl/src/extra/widgets/colorwheel/../../../../src/hal/../misc/lv_color.h ****  *        8 bit red LSB = (2^5 - 1) / (2^3 - 1) = 31 / 7 = 4
 312:Middlewares/lvgl/src/extra/widgets/colorwheel/../../../../src/hal/../misc/lv_color.h ****  *
 313:Middlewares/lvgl/src/extra/widgets/colorwheel/../../../../src/hal/../misc/lv_color.h ****  * - When calculating to smaller color type simply shift out the LSBs
 314:Middlewares/lvgl/src/extra/widgets/colorwheel/../../../../src/hal/../misc/lv_color.h ****  *   E.g.  8 bit Red has 3 bits
 315:Middlewares/lvgl/src/extra/widgets/colorwheel/../../../../src/hal/../misc/lv_color.h ****  *        16 bit Red has 5 bits
 316:Middlewares/lvgl/src/extra/widgets/colorwheel/../../../../src/hal/../misc/lv_color.h ****  *        ----------------------
 317:Middlewares/lvgl/src/extra/widgets/colorwheel/../../../../src/hal/../misc/lv_color.h ****  *         Shift right with 5 - 3 = 2
 318:Middlewares/lvgl/src/extra/widgets/colorwheel/../../../../src/hal/../misc/lv_color.h ****  */
 319:Middlewares/lvgl/src/extra/widgets/colorwheel/../../../../src/hal/../misc/lv_color.h **** static inline uint8_t lv_color_to1(lv_color_t color)
 320:Middlewares/lvgl/src/extra/widgets/colorwheel/../../../../src/hal/../misc/lv_color.h **** {
 321:Middlewares/lvgl/src/extra/widgets/colorwheel/../../../../src/hal/../misc/lv_color.h **** #if LV_COLOR_DEPTH == 1
 322:Middlewares/lvgl/src/extra/widgets/colorwheel/../../../../src/hal/../misc/lv_color.h ****     return color.full;
 323:Middlewares/lvgl/src/extra/widgets/colorwheel/../../../../src/hal/../misc/lv_color.h **** #elif LV_COLOR_DEPTH == 8
 324:Middlewares/lvgl/src/extra/widgets/colorwheel/../../../../src/hal/../misc/lv_color.h ****     if((LV_COLOR_GET_R(color) & 0x4) || (LV_COLOR_GET_G(color) & 0x4) || (LV_COLOR_GET_B(color) & 0
 325:Middlewares/lvgl/src/extra/widgets/colorwheel/../../../../src/hal/../misc/lv_color.h ****         return 1;
 326:Middlewares/lvgl/src/extra/widgets/colorwheel/../../../../src/hal/../misc/lv_color.h ****     }
 327:Middlewares/lvgl/src/extra/widgets/colorwheel/../../../../src/hal/../misc/lv_color.h ****     else {
 328:Middlewares/lvgl/src/extra/widgets/colorwheel/../../../../src/hal/../misc/lv_color.h ****         return 0;
 329:Middlewares/lvgl/src/extra/widgets/colorwheel/../../../../src/hal/../misc/lv_color.h ****     }
 330:Middlewares/lvgl/src/extra/widgets/colorwheel/../../../../src/hal/../misc/lv_color.h **** #elif LV_COLOR_DEPTH == 16
ARM GAS  /tmp/ccyILfU7.s 			page 24


 331:Middlewares/lvgl/src/extra/widgets/colorwheel/../../../../src/hal/../misc/lv_color.h ****     if((LV_COLOR_GET_R(color) & 0x10) || (LV_COLOR_GET_G(color) & 0x20) || (LV_COLOR_GET_B(color) &
 332:Middlewares/lvgl/src/extra/widgets/colorwheel/../../../../src/hal/../misc/lv_color.h ****         return 1;
 333:Middlewares/lvgl/src/extra/widgets/colorwheel/../../../../src/hal/../misc/lv_color.h ****     }
 334:Middlewares/lvgl/src/extra/widgets/colorwheel/../../../../src/hal/../misc/lv_color.h ****     else {
 335:Middlewares/lvgl/src/extra/widgets/colorwheel/../../../../src/hal/../misc/lv_color.h ****         return 0;
 336:Middlewares/lvgl/src/extra/widgets/colorwheel/../../../../src/hal/../misc/lv_color.h ****     }
 337:Middlewares/lvgl/src/extra/widgets/colorwheel/../../../../src/hal/../misc/lv_color.h **** #elif LV_COLOR_DEPTH == 32
 338:Middlewares/lvgl/src/extra/widgets/colorwheel/../../../../src/hal/../misc/lv_color.h ****     if((LV_COLOR_GET_R(color) & 0x80) || (LV_COLOR_GET_G(color) & 0x80) || (LV_COLOR_GET_B(color) &
 339:Middlewares/lvgl/src/extra/widgets/colorwheel/../../../../src/hal/../misc/lv_color.h ****         return 1;
 340:Middlewares/lvgl/src/extra/widgets/colorwheel/../../../../src/hal/../misc/lv_color.h ****     }
 341:Middlewares/lvgl/src/extra/widgets/colorwheel/../../../../src/hal/../misc/lv_color.h ****     else {
 342:Middlewares/lvgl/src/extra/widgets/colorwheel/../../../../src/hal/../misc/lv_color.h ****         return 0;
 343:Middlewares/lvgl/src/extra/widgets/colorwheel/../../../../src/hal/../misc/lv_color.h ****     }
 344:Middlewares/lvgl/src/extra/widgets/colorwheel/../../../../src/hal/../misc/lv_color.h **** #endif
 345:Middlewares/lvgl/src/extra/widgets/colorwheel/../../../../src/hal/../misc/lv_color.h **** }
 346:Middlewares/lvgl/src/extra/widgets/colorwheel/../../../../src/hal/../misc/lv_color.h **** 
 347:Middlewares/lvgl/src/extra/widgets/colorwheel/../../../../src/hal/../misc/lv_color.h **** static inline uint8_t lv_color_to8(lv_color_t color)
 348:Middlewares/lvgl/src/extra/widgets/colorwheel/../../../../src/hal/../misc/lv_color.h **** {
 349:Middlewares/lvgl/src/extra/widgets/colorwheel/../../../../src/hal/../misc/lv_color.h **** #if LV_COLOR_DEPTH == 1
 350:Middlewares/lvgl/src/extra/widgets/colorwheel/../../../../src/hal/../misc/lv_color.h ****     if(color.full == 0)
 351:Middlewares/lvgl/src/extra/widgets/colorwheel/../../../../src/hal/../misc/lv_color.h ****         return 0;
 352:Middlewares/lvgl/src/extra/widgets/colorwheel/../../../../src/hal/../misc/lv_color.h ****     else
 353:Middlewares/lvgl/src/extra/widgets/colorwheel/../../../../src/hal/../misc/lv_color.h ****         return 0xFF;
 354:Middlewares/lvgl/src/extra/widgets/colorwheel/../../../../src/hal/../misc/lv_color.h **** #elif LV_COLOR_DEPTH == 8
 355:Middlewares/lvgl/src/extra/widgets/colorwheel/../../../../src/hal/../misc/lv_color.h ****     return color.full;
 356:Middlewares/lvgl/src/extra/widgets/colorwheel/../../../../src/hal/../misc/lv_color.h **** #elif LV_COLOR_DEPTH == 16
 357:Middlewares/lvgl/src/extra/widgets/colorwheel/../../../../src/hal/../misc/lv_color.h ****     lv_color8_t ret;
 358:Middlewares/lvgl/src/extra/widgets/colorwheel/../../../../src/hal/../misc/lv_color.h ****     LV_COLOR_SET_R8(ret, LV_COLOR_GET_R(color) >> 2); /*5 - 3  = 2*/
 359:Middlewares/lvgl/src/extra/widgets/colorwheel/../../../../src/hal/../misc/lv_color.h ****     LV_COLOR_SET_G8(ret, LV_COLOR_GET_G(color) >> 3); /*6 - 3  = 3*/
 360:Middlewares/lvgl/src/extra/widgets/colorwheel/../../../../src/hal/../misc/lv_color.h ****     LV_COLOR_SET_B8(ret, LV_COLOR_GET_B(color) >> 3); /*5 - 2  = 3*/
 361:Middlewares/lvgl/src/extra/widgets/colorwheel/../../../../src/hal/../misc/lv_color.h ****     return ret.full;
 362:Middlewares/lvgl/src/extra/widgets/colorwheel/../../../../src/hal/../misc/lv_color.h **** #elif LV_COLOR_DEPTH == 32
 363:Middlewares/lvgl/src/extra/widgets/colorwheel/../../../../src/hal/../misc/lv_color.h ****     lv_color8_t ret;
 364:Middlewares/lvgl/src/extra/widgets/colorwheel/../../../../src/hal/../misc/lv_color.h ****     LV_COLOR_SET_R8(ret, LV_COLOR_GET_R(color) >> 5); /*8 - 3  = 5*/
 365:Middlewares/lvgl/src/extra/widgets/colorwheel/../../../../src/hal/../misc/lv_color.h ****     LV_COLOR_SET_G8(ret, LV_COLOR_GET_G(color) >> 5); /*8 - 3  = 5*/
 366:Middlewares/lvgl/src/extra/widgets/colorwheel/../../../../src/hal/../misc/lv_color.h ****     LV_COLOR_SET_B8(ret, LV_COLOR_GET_B(color) >> 6); /*8 - 2  = 6*/
 367:Middlewares/lvgl/src/extra/widgets/colorwheel/../../../../src/hal/../misc/lv_color.h ****     return ret.full;
 368:Middlewares/lvgl/src/extra/widgets/colorwheel/../../../../src/hal/../misc/lv_color.h **** #endif
 369:Middlewares/lvgl/src/extra/widgets/colorwheel/../../../../src/hal/../misc/lv_color.h **** }
 370:Middlewares/lvgl/src/extra/widgets/colorwheel/../../../../src/hal/../misc/lv_color.h **** 
 371:Middlewares/lvgl/src/extra/widgets/colorwheel/../../../../src/hal/../misc/lv_color.h **** static inline uint16_t lv_color_to16(lv_color_t color)
 372:Middlewares/lvgl/src/extra/widgets/colorwheel/../../../../src/hal/../misc/lv_color.h **** {
 373:Middlewares/lvgl/src/extra/widgets/colorwheel/../../../../src/hal/../misc/lv_color.h **** #if LV_COLOR_DEPTH == 1
 374:Middlewares/lvgl/src/extra/widgets/colorwheel/../../../../src/hal/../misc/lv_color.h ****     if(color.full == 0)
 375:Middlewares/lvgl/src/extra/widgets/colorwheel/../../../../src/hal/../misc/lv_color.h ****         return 0;
 376:Middlewares/lvgl/src/extra/widgets/colorwheel/../../../../src/hal/../misc/lv_color.h ****     else
 377:Middlewares/lvgl/src/extra/widgets/colorwheel/../../../../src/hal/../misc/lv_color.h ****         return 0xFFFF;
 378:Middlewares/lvgl/src/extra/widgets/colorwheel/../../../../src/hal/../misc/lv_color.h **** #elif LV_COLOR_DEPTH == 8
 379:Middlewares/lvgl/src/extra/widgets/colorwheel/../../../../src/hal/../misc/lv_color.h ****     lv_color16_t ret;
 380:Middlewares/lvgl/src/extra/widgets/colorwheel/../../../../src/hal/../misc/lv_color.h ****     LV_COLOR_SET_R16(ret, LV_COLOR_GET_R(color) * 4);  /*(2^5 - 1)/(2^3 - 1) = 31/7 = 4*/
 381:Middlewares/lvgl/src/extra/widgets/colorwheel/../../../../src/hal/../misc/lv_color.h ****     LV_COLOR_SET_G16(ret, LV_COLOR_GET_G(color) * 9);  /*(2^6 - 1)/(2^3 - 1) = 63/7 = 9*/
 382:Middlewares/lvgl/src/extra/widgets/colorwheel/../../../../src/hal/../misc/lv_color.h ****     LV_COLOR_SET_B16(ret, LV_COLOR_GET_B(color) * 10); /*(2^5 - 1)/(2^2 - 1) = 31/3 = 10*/
 383:Middlewares/lvgl/src/extra/widgets/colorwheel/../../../../src/hal/../misc/lv_color.h ****     return ret.full;
 384:Middlewares/lvgl/src/extra/widgets/colorwheel/../../../../src/hal/../misc/lv_color.h **** #elif LV_COLOR_DEPTH == 16
 385:Middlewares/lvgl/src/extra/widgets/colorwheel/../../../../src/hal/../misc/lv_color.h ****     return color.full;
 386:Middlewares/lvgl/src/extra/widgets/colorwheel/../../../../src/hal/../misc/lv_color.h **** #elif LV_COLOR_DEPTH == 32
 387:Middlewares/lvgl/src/extra/widgets/colorwheel/../../../../src/hal/../misc/lv_color.h ****     lv_color16_t ret;
ARM GAS  /tmp/ccyILfU7.s 			page 25


 388:Middlewares/lvgl/src/extra/widgets/colorwheel/../../../../src/hal/../misc/lv_color.h ****     LV_COLOR_SET_R16(ret, LV_COLOR_GET_R(color) >> 3); /*8 - 5  = 3*/
 389:Middlewares/lvgl/src/extra/widgets/colorwheel/../../../../src/hal/../misc/lv_color.h ****     LV_COLOR_SET_G16(ret, LV_COLOR_GET_G(color) >> 2); /*8 - 6  = 2*/
 390:Middlewares/lvgl/src/extra/widgets/colorwheel/../../../../src/hal/../misc/lv_color.h ****     LV_COLOR_SET_B16(ret, LV_COLOR_GET_B(color) >> 3); /*8 - 5  = 3*/
 391:Middlewares/lvgl/src/extra/widgets/colorwheel/../../../../src/hal/../misc/lv_color.h ****     return ret.full;
 392:Middlewares/lvgl/src/extra/widgets/colorwheel/../../../../src/hal/../misc/lv_color.h **** #endif
 393:Middlewares/lvgl/src/extra/widgets/colorwheel/../../../../src/hal/../misc/lv_color.h **** }
 394:Middlewares/lvgl/src/extra/widgets/colorwheel/../../../../src/hal/../misc/lv_color.h **** 
 395:Middlewares/lvgl/src/extra/widgets/colorwheel/../../../../src/hal/../misc/lv_color.h **** static inline uint32_t lv_color_to32(lv_color_t color)
 396:Middlewares/lvgl/src/extra/widgets/colorwheel/../../../../src/hal/../misc/lv_color.h **** {
 397:Middlewares/lvgl/src/extra/widgets/colorwheel/../../../../src/hal/../misc/lv_color.h **** #if LV_COLOR_DEPTH == 1
 398:Middlewares/lvgl/src/extra/widgets/colorwheel/../../../../src/hal/../misc/lv_color.h ****     if(color.full == 0)
 399:Middlewares/lvgl/src/extra/widgets/colorwheel/../../../../src/hal/../misc/lv_color.h ****         return 0xFF000000;
 400:Middlewares/lvgl/src/extra/widgets/colorwheel/../../../../src/hal/../misc/lv_color.h ****     else
 401:Middlewares/lvgl/src/extra/widgets/colorwheel/../../../../src/hal/../misc/lv_color.h ****         return 0xFFFFFFFF;
 402:Middlewares/lvgl/src/extra/widgets/colorwheel/../../../../src/hal/../misc/lv_color.h **** #elif LV_COLOR_DEPTH == 8
 403:Middlewares/lvgl/src/extra/widgets/colorwheel/../../../../src/hal/../misc/lv_color.h ****     lv_color32_t ret;
 404:Middlewares/lvgl/src/extra/widgets/colorwheel/../../../../src/hal/../misc/lv_color.h ****     LV_COLOR_SET_R32(ret, LV_COLOR_GET_R(color) * 36); /*(2^8 - 1)/(2^3 - 1) = 255/7 = 36*/
 405:Middlewares/lvgl/src/extra/widgets/colorwheel/../../../../src/hal/../misc/lv_color.h ****     LV_COLOR_SET_G32(ret, LV_COLOR_GET_G(color) * 36); /*(2^8 - 1)/(2^3 - 1) = 255/7 = 36*/
 406:Middlewares/lvgl/src/extra/widgets/colorwheel/../../../../src/hal/../misc/lv_color.h ****     LV_COLOR_SET_B32(ret, LV_COLOR_GET_B(color) * 85); /*(2^8 - 1)/(2^2 - 1) = 255/3 = 85*/
 407:Middlewares/lvgl/src/extra/widgets/colorwheel/../../../../src/hal/../misc/lv_color.h ****     LV_COLOR_SET_A32(ret, 0xFF);
 408:Middlewares/lvgl/src/extra/widgets/colorwheel/../../../../src/hal/../misc/lv_color.h ****     return ret.full;
 409:Middlewares/lvgl/src/extra/widgets/colorwheel/../../../../src/hal/../misc/lv_color.h **** #elif LV_COLOR_DEPTH == 16
 410:Middlewares/lvgl/src/extra/widgets/colorwheel/../../../../src/hal/../misc/lv_color.h ****     /**
 411:Middlewares/lvgl/src/extra/widgets/colorwheel/../../../../src/hal/../misc/lv_color.h ****      * The floating point math for conversion is:
 412:Middlewares/lvgl/src/extra/widgets/colorwheel/../../../../src/hal/../misc/lv_color.h ****      *  valueto = valuefrom * ( (2^bitsto - 1) / (float)(2^bitsfrom - 1) )
 413:Middlewares/lvgl/src/extra/widgets/colorwheel/../../../../src/hal/../misc/lv_color.h ****      * The faster integer math for conversion is:
 414:Middlewares/lvgl/src/extra/widgets/colorwheel/../../../../src/hal/../misc/lv_color.h ****      *  valueto = ( valuefrom * multiplier + adder ) >> divisor
 415:Middlewares/lvgl/src/extra/widgets/colorwheel/../../../../src/hal/../misc/lv_color.h ****      *   multiplier = FLOOR( ( (2^bitsto - 1) << divisor ) / (float)(2^bitsfrom - 1) )
 416:Middlewares/lvgl/src/extra/widgets/colorwheel/../../../../src/hal/../misc/lv_color.h ****      *
 417:Middlewares/lvgl/src/extra/widgets/colorwheel/../../../../src/hal/../misc/lv_color.h ****      * Find the first divisor where ( adder >> divisor ) <= 0
 418:Middlewares/lvgl/src/extra/widgets/colorwheel/../../../../src/hal/../misc/lv_color.h ****      *
 419:Middlewares/lvgl/src/extra/widgets/colorwheel/../../../../src/hal/../misc/lv_color.h ****      * 5-bit to 8-bit: ( 31 * multiplier + adder ) >> divisor = 255
 420:Middlewares/lvgl/src/extra/widgets/colorwheel/../../../../src/hal/../misc/lv_color.h ****      * divisor  multiplier  adder  min (0)  max (31)
 421:Middlewares/lvgl/src/extra/widgets/colorwheel/../../../../src/hal/../misc/lv_color.h ****      *       0           8      7        7       255
 422:Middlewares/lvgl/src/extra/widgets/colorwheel/../../../../src/hal/../misc/lv_color.h ****      *       1          16     14        7       255
 423:Middlewares/lvgl/src/extra/widgets/colorwheel/../../../../src/hal/../misc/lv_color.h ****      *       2          32     28        7       255
 424:Middlewares/lvgl/src/extra/widgets/colorwheel/../../../../src/hal/../misc/lv_color.h ****      *       3          65     25        3       255
 425:Middlewares/lvgl/src/extra/widgets/colorwheel/../../../../src/hal/../misc/lv_color.h ****      *       4         131     19        1       255
 426:Middlewares/lvgl/src/extra/widgets/colorwheel/../../../../src/hal/../misc/lv_color.h ****      *       5         263      7        0       255
 427:Middlewares/lvgl/src/extra/widgets/colorwheel/../../../../src/hal/../misc/lv_color.h ****      *
 428:Middlewares/lvgl/src/extra/widgets/colorwheel/../../../../src/hal/../misc/lv_color.h ****      * 6-bit to 8-bit: 255 = ( 63 * multiplier + adder ) >> divisor
 429:Middlewares/lvgl/src/extra/widgets/colorwheel/../../../../src/hal/../misc/lv_color.h ****      * divisor  multiplier  adder  min (0)  max (63)
 430:Middlewares/lvgl/src/extra/widgets/colorwheel/../../../../src/hal/../misc/lv_color.h ****      *       0           4      3        3       255
 431:Middlewares/lvgl/src/extra/widgets/colorwheel/../../../../src/hal/../misc/lv_color.h ****      *       1           8      6        3       255
 432:Middlewares/lvgl/src/extra/widgets/colorwheel/../../../../src/hal/../misc/lv_color.h ****      *       2          16     12        3       255
 433:Middlewares/lvgl/src/extra/widgets/colorwheel/../../../../src/hal/../misc/lv_color.h ****      *       3          32     24        3       255
 434:Middlewares/lvgl/src/extra/widgets/colorwheel/../../../../src/hal/../misc/lv_color.h ****      *       4          64     48        3       255
 435:Middlewares/lvgl/src/extra/widgets/colorwheel/../../../../src/hal/../misc/lv_color.h ****      *       5         129     33        1       255
 436:Middlewares/lvgl/src/extra/widgets/colorwheel/../../../../src/hal/../misc/lv_color.h ****      *       6         259      3        0       255
 437:Middlewares/lvgl/src/extra/widgets/colorwheel/../../../../src/hal/../misc/lv_color.h ****      */
 438:Middlewares/lvgl/src/extra/widgets/colorwheel/../../../../src/hal/../misc/lv_color.h **** 
 439:Middlewares/lvgl/src/extra/widgets/colorwheel/../../../../src/hal/../misc/lv_color.h ****     lv_color32_t ret;
 440:Middlewares/lvgl/src/extra/widgets/colorwheel/../../../../src/hal/../misc/lv_color.h ****     LV_COLOR_SET_R32(ret, (LV_COLOR_GET_R(color) * 263 + 7) >> 5);
 441:Middlewares/lvgl/src/extra/widgets/colorwheel/../../../../src/hal/../misc/lv_color.h ****     LV_COLOR_SET_G32(ret, (LV_COLOR_GET_G(color) * 259 + 3) >> 6);
 442:Middlewares/lvgl/src/extra/widgets/colorwheel/../../../../src/hal/../misc/lv_color.h ****     LV_COLOR_SET_B32(ret, (LV_COLOR_GET_B(color) * 263 + 7) >> 5);
 443:Middlewares/lvgl/src/extra/widgets/colorwheel/../../../../src/hal/../misc/lv_color.h ****     LV_COLOR_SET_A32(ret, 0xFF);
 444:Middlewares/lvgl/src/extra/widgets/colorwheel/../../../../src/hal/../misc/lv_color.h ****     return ret.full;
ARM GAS  /tmp/ccyILfU7.s 			page 26


 445:Middlewares/lvgl/src/extra/widgets/colorwheel/../../../../src/hal/../misc/lv_color.h **** #elif LV_COLOR_DEPTH == 32
 446:Middlewares/lvgl/src/extra/widgets/colorwheel/../../../../src/hal/../misc/lv_color.h ****     return color.full;
 447:Middlewares/lvgl/src/extra/widgets/colorwheel/../../../../src/hal/../misc/lv_color.h **** #endif
 448:Middlewares/lvgl/src/extra/widgets/colorwheel/../../../../src/hal/../misc/lv_color.h **** }
 449:Middlewares/lvgl/src/extra/widgets/colorwheel/../../../../src/hal/../misc/lv_color.h **** 
 450:Middlewares/lvgl/src/extra/widgets/colorwheel/../../../../src/hal/../misc/lv_color.h **** //! @cond Doxygen_Suppress
 451:Middlewares/lvgl/src/extra/widgets/colorwheel/../../../../src/hal/../misc/lv_color.h **** 
 452:Middlewares/lvgl/src/extra/widgets/colorwheel/../../../../src/hal/../misc/lv_color.h **** /**
 453:Middlewares/lvgl/src/extra/widgets/colorwheel/../../../../src/hal/../misc/lv_color.h ****  * Mix two colors with a given ratio.
 454:Middlewares/lvgl/src/extra/widgets/colorwheel/../../../../src/hal/../misc/lv_color.h ****  * @param c1 the first color to mix (usually the foreground)
 455:Middlewares/lvgl/src/extra/widgets/colorwheel/../../../../src/hal/../misc/lv_color.h ****  * @param c2 the second color to mix (usually the background)
 456:Middlewares/lvgl/src/extra/widgets/colorwheel/../../../../src/hal/../misc/lv_color.h ****  * @param mix The ratio of the colors. 0: full `c2`, 255: full `c1`, 127: half `c1` and half`c2`
 457:Middlewares/lvgl/src/extra/widgets/colorwheel/../../../../src/hal/../misc/lv_color.h ****  * @return the mixed color
 458:Middlewares/lvgl/src/extra/widgets/colorwheel/../../../../src/hal/../misc/lv_color.h ****  */
 459:Middlewares/lvgl/src/extra/widgets/colorwheel/../../../../src/hal/../misc/lv_color.h **** LV_ATTRIBUTE_FAST_MEM static inline lv_color_t lv_color_mix(lv_color_t c1, lv_color_t c2, uint8_t m
 460:Middlewares/lvgl/src/extra/widgets/colorwheel/../../../../src/hal/../misc/lv_color.h **** {
 461:Middlewares/lvgl/src/extra/widgets/colorwheel/../../../../src/hal/../misc/lv_color.h ****     lv_color_t ret;
 462:Middlewares/lvgl/src/extra/widgets/colorwheel/../../../../src/hal/../misc/lv_color.h **** #if LV_COLOR_DEPTH != 1
 463:Middlewares/lvgl/src/extra/widgets/colorwheel/../../../../src/hal/../misc/lv_color.h ****     /*LV_COLOR_DEPTH == 8, 16 or 32*/
 464:Middlewares/lvgl/src/extra/widgets/colorwheel/../../../../src/hal/../misc/lv_color.h ****     LV_COLOR_SET_R(ret, LV_UDIV255((uint16_t) LV_COLOR_GET_R(c1) * mix + LV_COLOR_GET_R(c2) *
 465:Middlewares/lvgl/src/extra/widgets/colorwheel/../../../../src/hal/../misc/lv_color.h ****                                         (255 - mix) + LV_COLOR_MIX_ROUND_OFS));
 466:Middlewares/lvgl/src/extra/widgets/colorwheel/../../../../src/hal/../misc/lv_color.h ****     LV_COLOR_SET_G(ret, LV_UDIV255((uint16_t) LV_COLOR_GET_G(c1) * mix + LV_COLOR_GET_G(c2) *
 467:Middlewares/lvgl/src/extra/widgets/colorwheel/../../../../src/hal/../misc/lv_color.h ****                                         (255 - mix) + LV_COLOR_MIX_ROUND_OFS));
 468:Middlewares/lvgl/src/extra/widgets/colorwheel/../../../../src/hal/../misc/lv_color.h ****     LV_COLOR_SET_B(ret, LV_UDIV255((uint16_t) LV_COLOR_GET_B(c1) * mix + LV_COLOR_GET_B(c2) *
 469:Middlewares/lvgl/src/extra/widgets/colorwheel/../../../../src/hal/../misc/lv_color.h ****                                         (255 - mix) + LV_COLOR_MIX_ROUND_OFS));
 470:Middlewares/lvgl/src/extra/widgets/colorwheel/../../../../src/hal/../misc/lv_color.h ****     LV_COLOR_SET_A(ret, 0xFF);
 471:Middlewares/lvgl/src/extra/widgets/colorwheel/../../../../src/hal/../misc/lv_color.h **** #else
 472:Middlewares/lvgl/src/extra/widgets/colorwheel/../../../../src/hal/../misc/lv_color.h ****     /*LV_COLOR_DEPTH == 1*/
 473:Middlewares/lvgl/src/extra/widgets/colorwheel/../../../../src/hal/../misc/lv_color.h ****     ret.full = mix > LV_OPA_50 ? c1.full : c2.full;
 474:Middlewares/lvgl/src/extra/widgets/colorwheel/../../../../src/hal/../misc/lv_color.h **** #endif
 475:Middlewares/lvgl/src/extra/widgets/colorwheel/../../../../src/hal/../misc/lv_color.h **** 
 476:Middlewares/lvgl/src/extra/widgets/colorwheel/../../../../src/hal/../misc/lv_color.h ****     return ret;
 477:Middlewares/lvgl/src/extra/widgets/colorwheel/../../../../src/hal/../misc/lv_color.h **** }
 478:Middlewares/lvgl/src/extra/widgets/colorwheel/../../../../src/hal/../misc/lv_color.h **** 
 479:Middlewares/lvgl/src/extra/widgets/colorwheel/../../../../src/hal/../misc/lv_color.h **** LV_ATTRIBUTE_FAST_MEM static inline void lv_color_premult(lv_color_t c, uint8_t mix, uint16_t * out
 480:Middlewares/lvgl/src/extra/widgets/colorwheel/../../../../src/hal/../misc/lv_color.h **** {
 481:Middlewares/lvgl/src/extra/widgets/colorwheel/../../../../src/hal/../misc/lv_color.h **** #if LV_COLOR_DEPTH != 1
 482:Middlewares/lvgl/src/extra/widgets/colorwheel/../../../../src/hal/../misc/lv_color.h ****     out[0] = (uint16_t) LV_COLOR_GET_R(c) * mix;
 483:Middlewares/lvgl/src/extra/widgets/colorwheel/../../../../src/hal/../misc/lv_color.h ****     out[1] = (uint16_t) LV_COLOR_GET_G(c) * mix;
 484:Middlewares/lvgl/src/extra/widgets/colorwheel/../../../../src/hal/../misc/lv_color.h ****     out[2] = (uint16_t) LV_COLOR_GET_B(c) * mix;
 485:Middlewares/lvgl/src/extra/widgets/colorwheel/../../../../src/hal/../misc/lv_color.h **** #else
 486:Middlewares/lvgl/src/extra/widgets/colorwheel/../../../../src/hal/../misc/lv_color.h ****     (void) mix;
 487:Middlewares/lvgl/src/extra/widgets/colorwheel/../../../../src/hal/../misc/lv_color.h ****     /*Pre-multiplication can't be used with 1 bpp*/
 488:Middlewares/lvgl/src/extra/widgets/colorwheel/../../../../src/hal/../misc/lv_color.h ****     out[0] = LV_COLOR_GET_R(c);
 489:Middlewares/lvgl/src/extra/widgets/colorwheel/../../../../src/hal/../misc/lv_color.h ****     out[1] = LV_COLOR_GET_G(c);
 490:Middlewares/lvgl/src/extra/widgets/colorwheel/../../../../src/hal/../misc/lv_color.h ****     out[2] = LV_COLOR_GET_B(c);
 491:Middlewares/lvgl/src/extra/widgets/colorwheel/../../../../src/hal/../misc/lv_color.h **** #endif
 492:Middlewares/lvgl/src/extra/widgets/colorwheel/../../../../src/hal/../misc/lv_color.h **** 
 493:Middlewares/lvgl/src/extra/widgets/colorwheel/../../../../src/hal/../misc/lv_color.h **** }
 494:Middlewares/lvgl/src/extra/widgets/colorwheel/../../../../src/hal/../misc/lv_color.h **** 
 495:Middlewares/lvgl/src/extra/widgets/colorwheel/../../../../src/hal/../misc/lv_color.h **** /**
 496:Middlewares/lvgl/src/extra/widgets/colorwheel/../../../../src/hal/../misc/lv_color.h ****  * Mix two colors with a given ratio. It runs faster then `lv_color_mix` but requires some pre comp
 497:Middlewares/lvgl/src/extra/widgets/colorwheel/../../../../src/hal/../misc/lv_color.h ****  * @param premult_c1 The first color. Should be preprocessed with `lv_color_premult(c1)`
 498:Middlewares/lvgl/src/extra/widgets/colorwheel/../../../../src/hal/../misc/lv_color.h ****  * @param c2 The second color. As it is no pre computation required on it
 499:Middlewares/lvgl/src/extra/widgets/colorwheel/../../../../src/hal/../misc/lv_color.h ****  * @param mix The ratio of the colors. 0: full `c1`, 255: full `c2`, 127: half `c1` and half `c2`.
 500:Middlewares/lvgl/src/extra/widgets/colorwheel/../../../../src/hal/../misc/lv_color.h ****  *            Should be modified like mix = `255 - mix`
 501:Middlewares/lvgl/src/extra/widgets/colorwheel/../../../../src/hal/../misc/lv_color.h ****  * @return the mixed color
ARM GAS  /tmp/ccyILfU7.s 			page 27


 502:Middlewares/lvgl/src/extra/widgets/colorwheel/../../../../src/hal/../misc/lv_color.h ****  * @note 255 won't give clearly `c1`.
 503:Middlewares/lvgl/src/extra/widgets/colorwheel/../../../../src/hal/../misc/lv_color.h ****  */
 504:Middlewares/lvgl/src/extra/widgets/colorwheel/../../../../src/hal/../misc/lv_color.h **** LV_ATTRIBUTE_FAST_MEM static inline lv_color_t lv_color_mix_premult(uint16_t * premult_c1, lv_color
 505:Middlewares/lvgl/src/extra/widgets/colorwheel/../../../../src/hal/../misc/lv_color.h **** {
 506:Middlewares/lvgl/src/extra/widgets/colorwheel/../../../../src/hal/../misc/lv_color.h ****     lv_color_t ret;
 507:Middlewares/lvgl/src/extra/widgets/colorwheel/../../../../src/hal/../misc/lv_color.h **** #if LV_COLOR_DEPTH != 1
 508:Middlewares/lvgl/src/extra/widgets/colorwheel/../../../../src/hal/../misc/lv_color.h ****     /*LV_COLOR_DEPTH == 8, 16 or 32*/
 509:Middlewares/lvgl/src/extra/widgets/colorwheel/../../../../src/hal/../misc/lv_color.h ****     LV_COLOR_SET_R(ret, LV_UDIV255(premult_c1[0] + LV_COLOR_GET_R(c2) * mix + LV_COLOR_MIX_ROUND_OF
 510:Middlewares/lvgl/src/extra/widgets/colorwheel/../../../../src/hal/../misc/lv_color.h ****     LV_COLOR_SET_G(ret, LV_UDIV255(premult_c1[1] + LV_COLOR_GET_G(c2) * mix + LV_COLOR_MIX_ROUND_OF
 511:Middlewares/lvgl/src/extra/widgets/colorwheel/../../../../src/hal/../misc/lv_color.h ****     LV_COLOR_SET_B(ret, LV_UDIV255(premult_c1[2] + LV_COLOR_GET_B(c2) * mix + LV_COLOR_MIX_ROUND_OF
 512:Middlewares/lvgl/src/extra/widgets/colorwheel/../../../../src/hal/../misc/lv_color.h ****     LV_COLOR_SET_A(ret, 0xFF);
 513:Middlewares/lvgl/src/extra/widgets/colorwheel/../../../../src/hal/../misc/lv_color.h **** #else
 514:Middlewares/lvgl/src/extra/widgets/colorwheel/../../../../src/hal/../misc/lv_color.h ****     /*LV_COLOR_DEPTH == 1*/
 515:Middlewares/lvgl/src/extra/widgets/colorwheel/../../../../src/hal/../misc/lv_color.h ****     /*Restore color1*/
 516:Middlewares/lvgl/src/extra/widgets/colorwheel/../../../../src/hal/../misc/lv_color.h ****     lv_color_t c1;
 517:Middlewares/lvgl/src/extra/widgets/colorwheel/../../../../src/hal/../misc/lv_color.h ****     LV_COLOR_SET_R(c1, premult_c1[0]);
 518:Middlewares/lvgl/src/extra/widgets/colorwheel/../../../../src/hal/../misc/lv_color.h ****     LV_COLOR_SET_G(c1, premult_c1[1]);
 519:Middlewares/lvgl/src/extra/widgets/colorwheel/../../../../src/hal/../misc/lv_color.h ****     LV_COLOR_SET_B(c1, premult_c1[2]);
 520:Middlewares/lvgl/src/extra/widgets/colorwheel/../../../../src/hal/../misc/lv_color.h ****     ret.full = mix > LV_OPA_50 ? c2.full : c1.full;
 521:Middlewares/lvgl/src/extra/widgets/colorwheel/../../../../src/hal/../misc/lv_color.h **** #endif
 522:Middlewares/lvgl/src/extra/widgets/colorwheel/../../../../src/hal/../misc/lv_color.h **** 
 523:Middlewares/lvgl/src/extra/widgets/colorwheel/../../../../src/hal/../misc/lv_color.h ****     return ret;
 524:Middlewares/lvgl/src/extra/widgets/colorwheel/../../../../src/hal/../misc/lv_color.h **** }
 525:Middlewares/lvgl/src/extra/widgets/colorwheel/../../../../src/hal/../misc/lv_color.h **** 
 526:Middlewares/lvgl/src/extra/widgets/colorwheel/../../../../src/hal/../misc/lv_color.h **** /**
 527:Middlewares/lvgl/src/extra/widgets/colorwheel/../../../../src/hal/../misc/lv_color.h ****  * Mix two colors. Both color can have alpha value.
 528:Middlewares/lvgl/src/extra/widgets/colorwheel/../../../../src/hal/../misc/lv_color.h ****  * @param bg_color background color
 529:Middlewares/lvgl/src/extra/widgets/colorwheel/../../../../src/hal/../misc/lv_color.h ****  * @param bg_opa alpha of the background color
 530:Middlewares/lvgl/src/extra/widgets/colorwheel/../../../../src/hal/../misc/lv_color.h ****  * @param fg_color foreground color
 531:Middlewares/lvgl/src/extra/widgets/colorwheel/../../../../src/hal/../misc/lv_color.h ****  * @param fg_opa alpha of the foreground color
 532:Middlewares/lvgl/src/extra/widgets/colorwheel/../../../../src/hal/../misc/lv_color.h ****  * @param res_color the result color
 533:Middlewares/lvgl/src/extra/widgets/colorwheel/../../../../src/hal/../misc/lv_color.h ****  * @param res_opa the result opacity
 534:Middlewares/lvgl/src/extra/widgets/colorwheel/../../../../src/hal/../misc/lv_color.h ****  */
 535:Middlewares/lvgl/src/extra/widgets/colorwheel/../../../../src/hal/../misc/lv_color.h **** LV_ATTRIBUTE_FAST_MEM static inline void lv_color_mix_with_alpha(lv_color_t bg_color, lv_opa_t bg_o
 536:Middlewares/lvgl/src/extra/widgets/colorwheel/../../../../src/hal/../misc/lv_color.h ****                                                                  lv_color_t fg_color, lv_opa_t fg_o
 537:Middlewares/lvgl/src/extra/widgets/colorwheel/../../../../src/hal/../misc/lv_color.h ****                                                                  lv_color_t * res_color, lv_opa_t *
 538:Middlewares/lvgl/src/extra/widgets/colorwheel/../../../../src/hal/../misc/lv_color.h **** {
 539:Middlewares/lvgl/src/extra/widgets/colorwheel/../../../../src/hal/../misc/lv_color.h ****     /*Pick the foreground if it's fully opaque or the Background is fully transparent*/
 540:Middlewares/lvgl/src/extra/widgets/colorwheel/../../../../src/hal/../misc/lv_color.h ****     if(fg_opa >= LV_OPA_MAX || bg_opa <= LV_OPA_MIN) {
 541:Middlewares/lvgl/src/extra/widgets/colorwheel/../../../../src/hal/../misc/lv_color.h ****         res_color->full = fg_color.full;
 542:Middlewares/lvgl/src/extra/widgets/colorwheel/../../../../src/hal/../misc/lv_color.h ****         *res_opa = fg_opa;
 543:Middlewares/lvgl/src/extra/widgets/colorwheel/../../../../src/hal/../misc/lv_color.h ****     }
 544:Middlewares/lvgl/src/extra/widgets/colorwheel/../../../../src/hal/../misc/lv_color.h ****     /*Transparent foreground: use the Background*/
 545:Middlewares/lvgl/src/extra/widgets/colorwheel/../../../../src/hal/../misc/lv_color.h ****     else if(fg_opa <= LV_OPA_MIN) {
 546:Middlewares/lvgl/src/extra/widgets/colorwheel/../../../../src/hal/../misc/lv_color.h ****         res_color->full = bg_color.full;
 547:Middlewares/lvgl/src/extra/widgets/colorwheel/../../../../src/hal/../misc/lv_color.h ****         *res_opa = bg_opa;
 548:Middlewares/lvgl/src/extra/widgets/colorwheel/../../../../src/hal/../misc/lv_color.h ****     }
 549:Middlewares/lvgl/src/extra/widgets/colorwheel/../../../../src/hal/../misc/lv_color.h ****     /*Opaque background: use simple mix*/
 550:Middlewares/lvgl/src/extra/widgets/colorwheel/../../../../src/hal/../misc/lv_color.h ****     else if(bg_opa >= LV_OPA_MAX) {
 551:Middlewares/lvgl/src/extra/widgets/colorwheel/../../../../src/hal/../misc/lv_color.h ****         *res_color = lv_color_mix(fg_color, bg_color, fg_opa);
 552:Middlewares/lvgl/src/extra/widgets/colorwheel/../../../../src/hal/../misc/lv_color.h ****         *res_opa = LV_OPA_COVER;
 553:Middlewares/lvgl/src/extra/widgets/colorwheel/../../../../src/hal/../misc/lv_color.h ****     }
 554:Middlewares/lvgl/src/extra/widgets/colorwheel/../../../../src/hal/../misc/lv_color.h ****     /*Both colors have alpha. Expensive calculation need to be applied*/
 555:Middlewares/lvgl/src/extra/widgets/colorwheel/../../../../src/hal/../misc/lv_color.h ****     else {
 556:Middlewares/lvgl/src/extra/widgets/colorwheel/../../../../src/hal/../misc/lv_color.h ****         /*Save the parameters and the result. If they will be asked again don't compute again*/
 557:Middlewares/lvgl/src/extra/widgets/colorwheel/../../../../src/hal/../misc/lv_color.h ****         static lv_opa_t fg_opa_save     = 0;
 558:Middlewares/lvgl/src/extra/widgets/colorwheel/../../../../src/hal/../misc/lv_color.h ****         static lv_opa_t bg_opa_save     = 0;
ARM GAS  /tmp/ccyILfU7.s 			page 28


 559:Middlewares/lvgl/src/extra/widgets/colorwheel/../../../../src/hal/../misc/lv_color.h ****         static lv_color_t fg_color_save = _LV_COLOR_ZERO_INITIALIZER;
 560:Middlewares/lvgl/src/extra/widgets/colorwheel/../../../../src/hal/../misc/lv_color.h ****         static lv_color_t bg_color_save = _LV_COLOR_ZERO_INITIALIZER;
 561:Middlewares/lvgl/src/extra/widgets/colorwheel/../../../../src/hal/../misc/lv_color.h ****         static lv_color_t res_color_saved = _LV_COLOR_ZERO_INITIALIZER;
 562:Middlewares/lvgl/src/extra/widgets/colorwheel/../../../../src/hal/../misc/lv_color.h ****         static lv_opa_t res_opa_saved = 0;
 563:Middlewares/lvgl/src/extra/widgets/colorwheel/../../../../src/hal/../misc/lv_color.h **** 
 564:Middlewares/lvgl/src/extra/widgets/colorwheel/../../../../src/hal/../misc/lv_color.h ****         if(fg_opa != fg_opa_save || bg_opa != bg_opa_save || fg_color.full != fg_color_save.full ||
 565:Middlewares/lvgl/src/extra/widgets/colorwheel/../../../../src/hal/../misc/lv_color.h ****            bg_color.full != bg_color_save.full) {
 566:Middlewares/lvgl/src/extra/widgets/colorwheel/../../../../src/hal/../misc/lv_color.h ****             fg_opa_save        = fg_opa;
 567:Middlewares/lvgl/src/extra/widgets/colorwheel/../../../../src/hal/../misc/lv_color.h ****             bg_opa_save        = bg_opa;
 568:Middlewares/lvgl/src/extra/widgets/colorwheel/../../../../src/hal/../misc/lv_color.h ****             fg_color_save.full = fg_color.full;
 569:Middlewares/lvgl/src/extra/widgets/colorwheel/../../../../src/hal/../misc/lv_color.h ****             bg_color_save.full = bg_color.full;
 570:Middlewares/lvgl/src/extra/widgets/colorwheel/../../../../src/hal/../misc/lv_color.h ****             /*Info:
 571:Middlewares/lvgl/src/extra/widgets/colorwheel/../../../../src/hal/../misc/lv_color.h ****              * https://en.wikipedia.org/wiki/Alpha_compositing#Analytical_derivation_of_the_over_op
 572:Middlewares/lvgl/src/extra/widgets/colorwheel/../../../../src/hal/../misc/lv_color.h ****             res_opa_saved = 255 - ((uint16_t)((uint16_t)(255 - fg_opa) * (255 - bg_opa)) >> 8);
 573:Middlewares/lvgl/src/extra/widgets/colorwheel/../../../../src/hal/../misc/lv_color.h ****             if(res_opa_saved == 0) {
 574:Middlewares/lvgl/src/extra/widgets/colorwheel/../../../../src/hal/../misc/lv_color.h ****                 while(1)
 575:Middlewares/lvgl/src/extra/widgets/colorwheel/../../../../src/hal/../misc/lv_color.h ****                     ;
 576:Middlewares/lvgl/src/extra/widgets/colorwheel/../../../../src/hal/../misc/lv_color.h ****             }
 577:Middlewares/lvgl/src/extra/widgets/colorwheel/../../../../src/hal/../misc/lv_color.h ****             lv_opa_t ratio = (uint16_t)((uint16_t)fg_opa * 255) / res_opa_saved;
 578:Middlewares/lvgl/src/extra/widgets/colorwheel/../../../../src/hal/../misc/lv_color.h ****             res_color_saved = lv_color_mix(fg_color, bg_color, ratio);
 579:Middlewares/lvgl/src/extra/widgets/colorwheel/../../../../src/hal/../misc/lv_color.h **** 
 580:Middlewares/lvgl/src/extra/widgets/colorwheel/../../../../src/hal/../misc/lv_color.h ****         }
 581:Middlewares/lvgl/src/extra/widgets/colorwheel/../../../../src/hal/../misc/lv_color.h **** 
 582:Middlewares/lvgl/src/extra/widgets/colorwheel/../../../../src/hal/../misc/lv_color.h ****         res_color->full = res_color_saved.full;
 583:Middlewares/lvgl/src/extra/widgets/colorwheel/../../../../src/hal/../misc/lv_color.h ****         *res_opa = res_opa_saved;
 584:Middlewares/lvgl/src/extra/widgets/colorwheel/../../../../src/hal/../misc/lv_color.h ****     }
 585:Middlewares/lvgl/src/extra/widgets/colorwheel/../../../../src/hal/../misc/lv_color.h **** }
 586:Middlewares/lvgl/src/extra/widgets/colorwheel/../../../../src/hal/../misc/lv_color.h **** 
 587:Middlewares/lvgl/src/extra/widgets/colorwheel/../../../../src/hal/../misc/lv_color.h **** //! @endcond
 588:Middlewares/lvgl/src/extra/widgets/colorwheel/../../../../src/hal/../misc/lv_color.h **** 
 589:Middlewares/lvgl/src/extra/widgets/colorwheel/../../../../src/hal/../misc/lv_color.h **** /**
 590:Middlewares/lvgl/src/extra/widgets/colorwheel/../../../../src/hal/../misc/lv_color.h ****  * Get the brightness of a color
 591:Middlewares/lvgl/src/extra/widgets/colorwheel/../../../../src/hal/../misc/lv_color.h ****  * @param color a color
 592:Middlewares/lvgl/src/extra/widgets/colorwheel/../../../../src/hal/../misc/lv_color.h ****  * @return the brightness [0..255]
 593:Middlewares/lvgl/src/extra/widgets/colorwheel/../../../../src/hal/../misc/lv_color.h ****  */
 594:Middlewares/lvgl/src/extra/widgets/colorwheel/../../../../src/hal/../misc/lv_color.h **** static inline uint8_t lv_color_brightness(lv_color_t color)
 595:Middlewares/lvgl/src/extra/widgets/colorwheel/../../../../src/hal/../misc/lv_color.h **** {
 596:Middlewares/lvgl/src/extra/widgets/colorwheel/../../../../src/hal/../misc/lv_color.h ****     lv_color32_t c32;
 597:Middlewares/lvgl/src/extra/widgets/colorwheel/../../../../src/hal/../misc/lv_color.h ****     c32.full        = lv_color_to32(color);
 598:Middlewares/lvgl/src/extra/widgets/colorwheel/../../../../src/hal/../misc/lv_color.h ****     uint16_t bright = (uint16_t)(3u * LV_COLOR_GET_R32(c32) + LV_COLOR_GET_B32(c32) + 4u * LV_COLOR
 599:Middlewares/lvgl/src/extra/widgets/colorwheel/../../../../src/hal/../misc/lv_color.h ****     return (uint8_t)(bright >> 3);
 600:Middlewares/lvgl/src/extra/widgets/colorwheel/../../../../src/hal/../misc/lv_color.h **** }
 601:Middlewares/lvgl/src/extra/widgets/colorwheel/../../../../src/hal/../misc/lv_color.h **** 
 602:Middlewares/lvgl/src/extra/widgets/colorwheel/../../../../src/hal/../misc/lv_color.h **** static inline lv_color_t lv_color_make(uint8_t r, uint8_t g, uint8_t b)
 308              		.loc 2 602 26 is_stmt 1 view .LVU96
 309              	.LBB51:
 603:Middlewares/lvgl/src/extra/widgets/colorwheel/../../../../src/hal/../misc/lv_color.h **** {
 604:Middlewares/lvgl/src/extra/widgets/colorwheel/../../../../src/hal/../misc/lv_color.h ****     return _LV_COLOR_MAKE_TYPE_HELPER LV_COLOR_MAKE(r, g, b);
 310              		.loc 2 604 5 view .LVU97
 311              		.loc 2 604 39 is_stmt 0 view .LVU98
 312 0096 C908     		lsrs	r1, r1, #3
 313              	.LVL32:
 314              		.loc 2 604 39 view .LVU99
 315 0098 9208     		lsrs	r2, r2, #2
 316              	.LVL33:
 317              		.loc 2 604 39 view .LVU100
 318 009a DB08     		lsrs	r3, r3, #3
ARM GAS  /tmp/ccyILfU7.s 			page 29


 319              	.LVL34:
 320              		.loc 2 604 12 view .LVU101
 321 009c 4FF00000 		mov	r0, #0	@ movhi
 322 00a0 61F30400 		bfi	r0, r1, #0, #5
 323 00a4 62F34A10 		bfi	r0, r2, #5, #6
 324 00a8 63F3CF20 		bfi	r0, r3, #11, #5
 325              	.LVL35:
 326              		.loc 2 604 12 view .LVU102
 327              	.LBE51:
 328              	.LBE50:
 669:Middlewares/lvgl/src/extra/widgets/colorwheel/lv_colorwheel.c **** }
 329              		.loc 1 669 1 view .LVU103
 330 00ac 04B0     		add	sp, sp, #16
 331              	.LCFI3:
 332              		.cfi_remember_state
 333              		.cfi_def_cfa_offset 8
 334              		@ sp needed
 335 00ae 10BD     		pop	{r4, pc}
 336              	.LVL36:
 337              	.L14:
 338              	.LCFI4:
 339              		.cfi_restore_state
 653:Middlewares/lvgl/src/extra/widgets/colorwheel/lv_colorwheel.c ****               h = (uint16_t)(((uint32_t)ext->hsv.h * 6 * 256) / 360); v = (uint8_t)(((uint16_t)ext-
 340              		.loc 1 653 13 is_stmt 1 view .LVU104
 653:Middlewares/lvgl/src/extra/widgets/colorwheel/lv_colorwheel.c ****               h = (uint16_t)(((uint32_t)ext->hsv.h * 6 * 256) / 360); v = (uint8_t)(((uint16_t)ext-
 341              		.loc 1 653 19 is_stmt 0 view .LVU105
 342 00b0 2E4C     		ldr	r4, .L21
 343 00b2 2478     		ldrb	r4, [r4]	@ zero_extendqisi2
 653:Middlewares/lvgl/src/extra/widgets/colorwheel/lv_colorwheel.c ****               h = (uint16_t)(((uint32_t)ext->hsv.h * 6 * 256) / 360); v = (uint8_t)(((uint16_t)ext-
 344              		.loc 1 653 16 view .LVU106
 345 00b4 A342     		cmp	r3, r4
 346 00b6 19D0     		beq	.L18
 654:Middlewares/lvgl/src/extra/widgets/colorwheel/lv_colorwheel.c ****               m = ext->mode;
 347              		.loc 1 654 15 is_stmt 1 view .LVU107
 654:Middlewares/lvgl/src/extra/widgets/colorwheel/lv_colorwheel.c ****               m = ext->mode;
 348              		.loc 1 654 49 is_stmt 0 view .LVU108
 349 00b8 838C     		ldrh	r3, [r0, #36]
 654:Middlewares/lvgl/src/extra/widgets/colorwheel/lv_colorwheel.c ****               m = ext->mode;
 350              		.loc 1 654 56 view .LVU109
 351 00ba 03EB4303 		add	r3, r3, r3, lsl #1
 654:Middlewares/lvgl/src/extra/widgets/colorwheel/lv_colorwheel.c ****               m = ext->mode;
 352              		.loc 1 654 63 view .LVU110
 353 00be 9B01     		lsls	r3, r3, #6
 354 00c0 2E4C     		ldr	r4, .L21+16
 355 00c2 A4FB0343 		umull	r4, r3, r4, r3
 654:Middlewares/lvgl/src/extra/widgets/colorwheel/lv_colorwheel.c ****               m = ext->mode;
 356              		.loc 1 654 19 view .LVU111
 357 00c6 C3F38F03 		ubfx	r3, r3, #2, #16
 654:Middlewares/lvgl/src/extra/widgets/colorwheel/lv_colorwheel.c ****               m = ext->mode;
 358              		.loc 1 654 17 view .LVU112
 359 00ca 2D4C     		ldr	r4, .L21+20
 360 00cc 2380     		strh	r3, [r4]	@ movhi
 654:Middlewares/lvgl/src/extra/widgets/colorwheel/lv_colorwheel.c ****               m = ext->mode;
 361              		.loc 1 654 71 is_stmt 1 view .LVU113
 654:Middlewares/lvgl/src/extra/widgets/colorwheel/lv_colorwheel.c ****               m = ext->mode;
 362              		.loc 1 654 104 is_stmt 0 view .LVU114
 363 00ce 90F82730 		ldrb	r3, [r0, #39]	@ zero_extendqisi2
ARM GAS  /tmp/ccyILfU7.s 			page 30


 654:Middlewares/lvgl/src/extra/widgets/colorwheel/lv_colorwheel.c ****               m = ext->mode;
 364              		.loc 1 654 107 view .LVU115
 365 00d2 03EB4303 		add	r3, r3, r3, lsl #1
 366 00d6 03EB0313 		add	r3, r3, r3, lsl #4
 654:Middlewares/lvgl/src/extra/widgets/colorwheel/lv_colorwheel.c ****               m = ext->mode;
 367              		.loc 1 654 113 view .LVU116
 368 00da 2548     		ldr	r0, .L21+4
 369              	.LVL37:
 654:Middlewares/lvgl/src/extra/widgets/colorwheel/lv_colorwheel.c ****               m = ext->mode;
 370              		.loc 1 654 113 view .LVU117
 371 00dc 80FB0303 		smull	r0, r3, r0, r3
 654:Middlewares/lvgl/src/extra/widgets/colorwheel/lv_colorwheel.c ****               m = ext->mode;
 372              		.loc 1 654 75 view .LVU118
 373 00e0 C3F3C703 		ubfx	r3, r3, #3, #8
 654:Middlewares/lvgl/src/extra/widgets/colorwheel/lv_colorwheel.c ****               m = ext->mode;
 374              		.loc 1 654 73 view .LVU119
 375 00e4 2448     		ldr	r0, .L21+12
 376 00e6 0370     		strb	r3, [r0]
 655:Middlewares/lvgl/src/extra/widgets/colorwheel/lv_colorwheel.c ****             }
 377              		.loc 1 655 15 is_stmt 1 view .LVU120
 655:Middlewares/lvgl/src/extra/widgets/colorwheel/lv_colorwheel.c ****             }
 378              		.loc 1 655 17 is_stmt 0 view .LVU121
 379 00e8 204B     		ldr	r3, .L21
 380 00ea 1A70     		strb	r2, [r3]
 381              	.L18:
 657:Middlewares/lvgl/src/extra/widgets/colorwheel/lv_colorwheel.c ****             break;
 382              		.loc 1 657 13 is_stmt 1 view .LVU122
 383 00ec 0DF10D03 		add	r3, sp, #13
 384 00f0 0193     		str	r3, [sp, #4]
 385 00f2 0DF10E03 		add	r3, sp, #14
 386 00f6 0093     		str	r3, [sp]
 387 00f8 0DF10F03 		add	r3, sp, #15
 388 00fc 1E4A     		ldr	r2, .L21+12
 389 00fe 1278     		ldrb	r2, [r2]	@ zero_extendqisi2
 390 0100 C9B2     		uxtb	r1, r1
 391              	.LVL38:
 657:Middlewares/lvgl/src/extra/widgets/colorwheel/lv_colorwheel.c ****             break;
 392              		.loc 1 657 13 is_stmt 0 view .LVU123
 393 0102 1F48     		ldr	r0, .L21+20
 394 0104 0088     		ldrh	r0, [r0]
 395 0106 FFF7FEFF 		bl	fast_hsv2rgb
 396              	.LVL39:
 658:Middlewares/lvgl/src/extra/widgets/colorwheel/lv_colorwheel.c ****         case LV_COLORWHEEL_MODE_VALUE:
 397              		.loc 1 658 13 is_stmt 1 view .LVU124
 398 010a BEE7     		b	.L17
 399              	.LVL40:
 400              	.L15:
 661:Middlewares/lvgl/src/extra/widgets/colorwheel/lv_colorwheel.c ****               h = (uint16_t)(((uint32_t)ext->hsv.h * 6 * 256) / 360); s = (uint8_t)(((uint16_t)ext-
 401              		.loc 1 661 13 view .LVU125
 661:Middlewares/lvgl/src/extra/widgets/colorwheel/lv_colorwheel.c ****               h = (uint16_t)(((uint32_t)ext->hsv.h * 6 * 256) / 360); s = (uint8_t)(((uint16_t)ext-
 402              		.loc 1 661 19 is_stmt 0 view .LVU126
 403 010c 174C     		ldr	r4, .L21
 404 010e 94F800C0 		ldrb	ip, [r4]	@ zero_extendqisi2
 661:Middlewares/lvgl/src/extra/widgets/colorwheel/lv_colorwheel.c ****               h = (uint16_t)(((uint32_t)ext->hsv.h * 6 * 256) / 360); s = (uint8_t)(((uint16_t)ext-
 405              		.loc 1 661 16 view .LVU127
 406 0112 6345     		cmp	r3, ip
 407 0114 19D0     		beq	.L19
ARM GAS  /tmp/ccyILfU7.s 			page 31


 662:Middlewares/lvgl/src/extra/widgets/colorwheel/lv_colorwheel.c ****               m = ext->mode;
 408              		.loc 1 662 15 is_stmt 1 view .LVU128
 662:Middlewares/lvgl/src/extra/widgets/colorwheel/lv_colorwheel.c ****               m = ext->mode;
 409              		.loc 1 662 49 is_stmt 0 view .LVU129
 410 0116 838C     		ldrh	r3, [r0, #36]
 662:Middlewares/lvgl/src/extra/widgets/colorwheel/lv_colorwheel.c ****               m = ext->mode;
 411              		.loc 1 662 56 view .LVU130
 412 0118 03EB4303 		add	r3, r3, r3, lsl #1
 662:Middlewares/lvgl/src/extra/widgets/colorwheel/lv_colorwheel.c ****               m = ext->mode;
 413              		.loc 1 662 63 view .LVU131
 414 011c 9B01     		lsls	r3, r3, #6
 415 011e 174C     		ldr	r4, .L21+16
 416 0120 A4FB0343 		umull	r4, r3, r4, r3
 662:Middlewares/lvgl/src/extra/widgets/colorwheel/lv_colorwheel.c ****               m = ext->mode;
 417              		.loc 1 662 19 view .LVU132
 418 0124 C3F38F03 		ubfx	r3, r3, #2, #16
 662:Middlewares/lvgl/src/extra/widgets/colorwheel/lv_colorwheel.c ****               m = ext->mode;
 419              		.loc 1 662 17 view .LVU133
 420 0128 154C     		ldr	r4, .L21+20
 421 012a 2380     		strh	r3, [r4]	@ movhi
 662:Middlewares/lvgl/src/extra/widgets/colorwheel/lv_colorwheel.c ****               m = ext->mode;
 422              		.loc 1 662 71 is_stmt 1 view .LVU134
 662:Middlewares/lvgl/src/extra/widgets/colorwheel/lv_colorwheel.c ****               m = ext->mode;
 423              		.loc 1 662 104 is_stmt 0 view .LVU135
 424 012c 90F82630 		ldrb	r3, [r0, #38]	@ zero_extendqisi2
 662:Middlewares/lvgl/src/extra/widgets/colorwheel/lv_colorwheel.c ****               m = ext->mode;
 425              		.loc 1 662 107 view .LVU136
 426 0130 03EB4303 		add	r3, r3, r3, lsl #1
 427 0134 03EB0313 		add	r3, r3, r3, lsl #4
 662:Middlewares/lvgl/src/extra/widgets/colorwheel/lv_colorwheel.c ****               m = ext->mode;
 428              		.loc 1 662 113 view .LVU137
 429 0138 0D48     		ldr	r0, .L21+4
 430              	.LVL41:
 662:Middlewares/lvgl/src/extra/widgets/colorwheel/lv_colorwheel.c ****               m = ext->mode;
 431              		.loc 1 662 113 view .LVU138
 432 013a 80FB0303 		smull	r0, r3, r0, r3
 662:Middlewares/lvgl/src/extra/widgets/colorwheel/lv_colorwheel.c ****               m = ext->mode;
 433              		.loc 1 662 75 view .LVU139
 434 013e C3F3C703 		ubfx	r3, r3, #3, #8
 662:Middlewares/lvgl/src/extra/widgets/colorwheel/lv_colorwheel.c ****               m = ext->mode;
 435              		.loc 1 662 73 view .LVU140
 436 0142 0C48     		ldr	r0, .L21+8
 437 0144 0370     		strb	r3, [r0]
 663:Middlewares/lvgl/src/extra/widgets/colorwheel/lv_colorwheel.c ****             }
 438              		.loc 1 663 15 is_stmt 1 view .LVU141
 663:Middlewares/lvgl/src/extra/widgets/colorwheel/lv_colorwheel.c ****             }
 439              		.loc 1 663 17 is_stmt 0 view .LVU142
 440 0146 094B     		ldr	r3, .L21
 441 0148 1A70     		strb	r2, [r3]
 442              	.L19:
 665:Middlewares/lvgl/src/extra/widgets/colorwheel/lv_colorwheel.c ****             break;
 443              		.loc 1 665 13 is_stmt 1 view .LVU143
 444 014a 0DF10D03 		add	r3, sp, #13
 445 014e 0193     		str	r3, [sp, #4]
 446 0150 0DF10E03 		add	r3, sp, #14
 447 0154 0093     		str	r3, [sp]
 448 0156 0DF10F03 		add	r3, sp, #15
ARM GAS  /tmp/ccyILfU7.s 			page 32


 449 015a CAB2     		uxtb	r2, r1
 450 015c 0549     		ldr	r1, .L21+8
 451              	.LVL42:
 665:Middlewares/lvgl/src/extra/widgets/colorwheel/lv_colorwheel.c ****             break;
 452              		.loc 1 665 13 is_stmt 0 view .LVU144
 453 015e 0978     		ldrb	r1, [r1]	@ zero_extendqisi2
 454 0160 0748     		ldr	r0, .L21+20
 455 0162 0088     		ldrh	r0, [r0]
 456 0164 FFF7FEFF 		bl	fast_hsv2rgb
 457              	.LVL43:
 666:Middlewares/lvgl/src/extra/widgets/colorwheel/lv_colorwheel.c ****     }
 458              		.loc 1 666 13 is_stmt 1 view .LVU145
 459 0168 8FE7     		b	.L17
 460              	.L22:
 461 016a 00BF     		.align	2
 462              	.L21:
 463 016c 00000000 		.word	.LANCHOR0
 464 0170 67666666 		.word	1717986919
 465 0174 00000000 		.word	.LANCHOR1
 466 0178 00000000 		.word	.LANCHOR2
 467 017c 176CC116 		.word	381774871
 468 0180 00000000 		.word	.LANCHOR3
 469              		.cfi_endproc
 470              	.LFE203:
 472              		.section	.text.get_angle,"ax",%progbits
 473              		.align	1
 474              		.syntax unified
 475              		.thumb
 476              		.thumb_func
 477              		.fpu fpv4-sp-d16
 479              	get_angle:
 480              	.LVL44:
 481              	.LFB204:
 670:Middlewares/lvgl/src/extra/widgets/colorwheel/lv_colorwheel.c **** 
 671:Middlewares/lvgl/src/extra/widgets/colorwheel/lv_colorwheel.c **** static uint16_t get_angle(lv_obj_t * obj)
 672:Middlewares/lvgl/src/extra/widgets/colorwheel/lv_colorwheel.c **** {
 482              		.loc 1 672 1 view -0
 483              		.cfi_startproc
 484              		@ args = 0, pretend = 0, frame = 0
 485              		@ frame_needed = 0, uses_anonymous_args = 0
 486              		@ link register save eliminated.
 673:Middlewares/lvgl/src/extra/widgets/colorwheel/lv_colorwheel.c ****     lv_colorwheel_t * colorwheel = (lv_colorwheel_t *)obj;
 487              		.loc 1 673 5 view .LVU147
 674:Middlewares/lvgl/src/extra/widgets/colorwheel/lv_colorwheel.c ****     uint16_t angle;
 488              		.loc 1 674 5 view .LVU148
 675:Middlewares/lvgl/src/extra/widgets/colorwheel/lv_colorwheel.c ****     switch(colorwheel->mode) {
 489              		.loc 1 675 5 view .LVU149
 490              		.loc 1 675 22 is_stmt 0 view .LVU150
 491 0000 90F83C30 		ldrb	r3, [r0, #60]	@ zero_extendqisi2
 492 0004 03F00303 		and	r3, r3, #3
 493              		.loc 1 675 5 view .LVU151
 494 0008 012B     		cmp	r3, #1
 495 000a 03D0     		beq	.L24
 496 000c 022B     		cmp	r3, #2
 497 000e 0CD0     		beq	.L25
 676:Middlewares/lvgl/src/extra/widgets/colorwheel/lv_colorwheel.c ****         default:
 677:Middlewares/lvgl/src/extra/widgets/colorwheel/lv_colorwheel.c ****         case LV_COLORWHEEL_MODE_HUE:
ARM GAS  /tmp/ccyILfU7.s 			page 33


 678:Middlewares/lvgl/src/extra/widgets/colorwheel/lv_colorwheel.c ****             angle = colorwheel->hsv.h;
 498              		.loc 1 678 13 is_stmt 1 view .LVU152
 499              		.loc 1 678 19 is_stmt 0 view .LVU153
 500 0010 808C     		ldrh	r0, [r0, #36]
 501              	.LVL45:
 679:Middlewares/lvgl/src/extra/widgets/colorwheel/lv_colorwheel.c ****             break;
 502              		.loc 1 679 13 is_stmt 1 view .LVU154
 503 0012 7047     		bx	lr
 504              	.LVL46:
 505              	.L24:
 680:Middlewares/lvgl/src/extra/widgets/colorwheel/lv_colorwheel.c ****         case LV_COLORWHEEL_MODE_SATURATION:
 681:Middlewares/lvgl/src/extra/widgets/colorwheel/lv_colorwheel.c ****             angle = (colorwheel->hsv.s * 360) / 100;
 506              		.loc 1 681 13 view .LVU155
 507              		.loc 1 681 37 is_stmt 0 view .LVU156
 508 0014 90F82600 		ldrb	r0, [r0, #38]	@ zero_extendqisi2
 509              	.LVL47:
 510              		.loc 1 681 40 view .LVU157
 511 0018 4FF4B473 		mov	r3, #360
 512 001c 03FB00F0 		mul	r0, r3, r0
 513              		.loc 1 681 47 view .LVU158
 514 0020 074B     		ldr	r3, .L27
 515 0022 83FB0030 		smull	r3, r0, r3, r0
 516              		.loc 1 681 19 view .LVU159
 517 0026 4009     		lsrs	r0, r0, #5
 518              	.LVL48:
 682:Middlewares/lvgl/src/extra/widgets/colorwheel/lv_colorwheel.c ****             break;
 519              		.loc 1 682 13 is_stmt 1 view .LVU160
 520 0028 7047     		bx	lr
 521              	.LVL49:
 522              	.L25:
 683:Middlewares/lvgl/src/extra/widgets/colorwheel/lv_colorwheel.c ****         case LV_COLORWHEEL_MODE_VALUE:
 684:Middlewares/lvgl/src/extra/widgets/colorwheel/lv_colorwheel.c ****             angle = (colorwheel->hsv.v * 360) / 100 ;
 523              		.loc 1 684 13 view .LVU161
 524              		.loc 1 684 37 is_stmt 0 view .LVU162
 525 002a 90F82700 		ldrb	r0, [r0, #39]	@ zero_extendqisi2
 526              	.LVL50:
 527              		.loc 1 684 40 view .LVU163
 528 002e 4FF4B473 		mov	r3, #360
 529 0032 03FB00F0 		mul	r0, r3, r0
 530              		.loc 1 684 47 view .LVU164
 531 0036 024B     		ldr	r3, .L27
 532 0038 83FB0030 		smull	r3, r0, r3, r0
 533              		.loc 1 684 19 view .LVU165
 534 003c 4009     		lsrs	r0, r0, #5
 535              	.LVL51:
 685:Middlewares/lvgl/src/extra/widgets/colorwheel/lv_colorwheel.c ****             break;
 536              		.loc 1 685 13 is_stmt 1 view .LVU166
 686:Middlewares/lvgl/src/extra/widgets/colorwheel/lv_colorwheel.c ****     }
 687:Middlewares/lvgl/src/extra/widgets/colorwheel/lv_colorwheel.c ****     return angle;
 537              		.loc 1 687 5 view .LVU167
 688:Middlewares/lvgl/src/extra/widgets/colorwheel/lv_colorwheel.c **** }
 538              		.loc 1 688 1 is_stmt 0 view .LVU168
 539 003e 7047     		bx	lr
 540              	.L28:
 541              		.align	2
 542              	.L27:
 543 0040 1F85EB51 		.word	1374389535
ARM GAS  /tmp/ccyILfU7.s 			page 34


 544              		.cfi_endproc
 545              	.LFE204:
 547              		.section	.text.get_knob_area,"ax",%progbits
 548              		.align	1
 549              		.syntax unified
 550              		.thumb
 551              		.thumb_func
 552              		.fpu fpv4-sp-d16
 554              	get_knob_area:
 555              	.LVL52:
 556              	.LFB197:
 324:Middlewares/lvgl/src/extra/widgets/colorwheel/lv_colorwheel.c ****     lv_colorwheel_t * colorwheel = (lv_colorwheel_t *)obj;
 557              		.loc 1 324 1 is_stmt 1 view -0
 558              		.cfi_startproc
 559              		@ args = 0, pretend = 0, frame = 0
 560              		@ frame_needed = 0, uses_anonymous_args = 0
 324:Middlewares/lvgl/src/extra/widgets/colorwheel/lv_colorwheel.c ****     lv_colorwheel_t * colorwheel = (lv_colorwheel_t *)obj;
 561              		.loc 1 324 1 is_stmt 0 view .LVU170
 562 0000 2DE9F843 		push	{r3, r4, r5, r6, r7, r8, r9, lr}
 563              	.LCFI5:
 564              		.cfi_def_cfa_offset 32
 565              		.cfi_offset 3, -32
 566              		.cfi_offset 4, -28
 567              		.cfi_offset 5, -24
 568              		.cfi_offset 6, -20
 569              		.cfi_offset 7, -16
 570              		.cfi_offset 8, -12
 571              		.cfi_offset 9, -8
 572              		.cfi_offset 14, -4
 573 0004 0646     		mov	r6, r0
 574 0006 0C46     		mov	r4, r1
 325:Middlewares/lvgl/src/extra/widgets/colorwheel/lv_colorwheel.c **** 
 575              		.loc 1 325 5 is_stmt 1 view .LVU171
 576              	.LVL53:
 328:Middlewares/lvgl/src/extra/widgets/colorwheel/lv_colorwheel.c ****     r = lv_obj_get_style_arc_width(obj, LV_PART_MAIN) / 2;
 577              		.loc 1 328 5 view .LVU172
 329:Middlewares/lvgl/src/extra/widgets/colorwheel/lv_colorwheel.c **** 
 578              		.loc 1 329 5 view .LVU173
 579              	.LBB52:
 580              	.LBI52:
 581              		.file 3 "Middlewares/lvgl/src/extra/widgets/colorwheel/../../../../src/core/lv_obj_style_gen.h"
   1:Middlewares/lvgl/src/extra/widgets/colorwheel/../../../../src/core/lv_obj_style_gen.h **** static inline lv_coord_t lv_obj_get_style_width(const struct _lv_obj_t * obj, uint32_t part)
   2:Middlewares/lvgl/src/extra/widgets/colorwheel/../../../../src/core/lv_obj_style_gen.h **** {
   3:Middlewares/lvgl/src/extra/widgets/colorwheel/../../../../src/core/lv_obj_style_gen.h ****     lv_style_value_t v = lv_obj_get_style_prop(obj, part, LV_STYLE_WIDTH);
   4:Middlewares/lvgl/src/extra/widgets/colorwheel/../../../../src/core/lv_obj_style_gen.h ****     return (lv_coord_t)v.num;
   5:Middlewares/lvgl/src/extra/widgets/colorwheel/../../../../src/core/lv_obj_style_gen.h **** }
   6:Middlewares/lvgl/src/extra/widgets/colorwheel/../../../../src/core/lv_obj_style_gen.h **** 
   7:Middlewares/lvgl/src/extra/widgets/colorwheel/../../../../src/core/lv_obj_style_gen.h **** static inline lv_coord_t lv_obj_get_style_min_width(const struct _lv_obj_t * obj, uint32_t part)
   8:Middlewares/lvgl/src/extra/widgets/colorwheel/../../../../src/core/lv_obj_style_gen.h **** {
   9:Middlewares/lvgl/src/extra/widgets/colorwheel/../../../../src/core/lv_obj_style_gen.h ****     lv_style_value_t v = lv_obj_get_style_prop(obj, part, LV_STYLE_MIN_WIDTH);
  10:Middlewares/lvgl/src/extra/widgets/colorwheel/../../../../src/core/lv_obj_style_gen.h ****     return (lv_coord_t)v.num;
  11:Middlewares/lvgl/src/extra/widgets/colorwheel/../../../../src/core/lv_obj_style_gen.h **** }
  12:Middlewares/lvgl/src/extra/widgets/colorwheel/../../../../src/core/lv_obj_style_gen.h **** 
  13:Middlewares/lvgl/src/extra/widgets/colorwheel/../../../../src/core/lv_obj_style_gen.h **** static inline lv_coord_t lv_obj_get_style_max_width(const struct _lv_obj_t * obj, uint32_t part)
  14:Middlewares/lvgl/src/extra/widgets/colorwheel/../../../../src/core/lv_obj_style_gen.h **** {
  15:Middlewares/lvgl/src/extra/widgets/colorwheel/../../../../src/core/lv_obj_style_gen.h ****     lv_style_value_t v = lv_obj_get_style_prop(obj, part, LV_STYLE_MAX_WIDTH);
  16:Middlewares/lvgl/src/extra/widgets/colorwheel/../../../../src/core/lv_obj_style_gen.h ****     return (lv_coord_t)v.num;
ARM GAS  /tmp/ccyILfU7.s 			page 35


  17:Middlewares/lvgl/src/extra/widgets/colorwheel/../../../../src/core/lv_obj_style_gen.h **** }
  18:Middlewares/lvgl/src/extra/widgets/colorwheel/../../../../src/core/lv_obj_style_gen.h **** 
  19:Middlewares/lvgl/src/extra/widgets/colorwheel/../../../../src/core/lv_obj_style_gen.h **** static inline lv_coord_t lv_obj_get_style_height(const struct _lv_obj_t * obj, uint32_t part)
  20:Middlewares/lvgl/src/extra/widgets/colorwheel/../../../../src/core/lv_obj_style_gen.h **** {
  21:Middlewares/lvgl/src/extra/widgets/colorwheel/../../../../src/core/lv_obj_style_gen.h ****     lv_style_value_t v = lv_obj_get_style_prop(obj, part, LV_STYLE_HEIGHT);
  22:Middlewares/lvgl/src/extra/widgets/colorwheel/../../../../src/core/lv_obj_style_gen.h ****     return (lv_coord_t)v.num;
  23:Middlewares/lvgl/src/extra/widgets/colorwheel/../../../../src/core/lv_obj_style_gen.h **** }
  24:Middlewares/lvgl/src/extra/widgets/colorwheel/../../../../src/core/lv_obj_style_gen.h **** 
  25:Middlewares/lvgl/src/extra/widgets/colorwheel/../../../../src/core/lv_obj_style_gen.h **** static inline lv_coord_t lv_obj_get_style_min_height(const struct _lv_obj_t * obj, uint32_t part)
  26:Middlewares/lvgl/src/extra/widgets/colorwheel/../../../../src/core/lv_obj_style_gen.h **** {
  27:Middlewares/lvgl/src/extra/widgets/colorwheel/../../../../src/core/lv_obj_style_gen.h ****     lv_style_value_t v = lv_obj_get_style_prop(obj, part, LV_STYLE_MIN_HEIGHT);
  28:Middlewares/lvgl/src/extra/widgets/colorwheel/../../../../src/core/lv_obj_style_gen.h ****     return (lv_coord_t)v.num;
  29:Middlewares/lvgl/src/extra/widgets/colorwheel/../../../../src/core/lv_obj_style_gen.h **** }
  30:Middlewares/lvgl/src/extra/widgets/colorwheel/../../../../src/core/lv_obj_style_gen.h **** 
  31:Middlewares/lvgl/src/extra/widgets/colorwheel/../../../../src/core/lv_obj_style_gen.h **** static inline lv_coord_t lv_obj_get_style_max_height(const struct _lv_obj_t * obj, uint32_t part)
  32:Middlewares/lvgl/src/extra/widgets/colorwheel/../../../../src/core/lv_obj_style_gen.h **** {
  33:Middlewares/lvgl/src/extra/widgets/colorwheel/../../../../src/core/lv_obj_style_gen.h ****     lv_style_value_t v = lv_obj_get_style_prop(obj, part, LV_STYLE_MAX_HEIGHT);
  34:Middlewares/lvgl/src/extra/widgets/colorwheel/../../../../src/core/lv_obj_style_gen.h ****     return (lv_coord_t)v.num;
  35:Middlewares/lvgl/src/extra/widgets/colorwheel/../../../../src/core/lv_obj_style_gen.h **** }
  36:Middlewares/lvgl/src/extra/widgets/colorwheel/../../../../src/core/lv_obj_style_gen.h **** 
  37:Middlewares/lvgl/src/extra/widgets/colorwheel/../../../../src/core/lv_obj_style_gen.h **** static inline lv_coord_t lv_obj_get_style_x(const struct _lv_obj_t * obj, uint32_t part)
  38:Middlewares/lvgl/src/extra/widgets/colorwheel/../../../../src/core/lv_obj_style_gen.h **** {
  39:Middlewares/lvgl/src/extra/widgets/colorwheel/../../../../src/core/lv_obj_style_gen.h ****     lv_style_value_t v = lv_obj_get_style_prop(obj, part, LV_STYLE_X);
  40:Middlewares/lvgl/src/extra/widgets/colorwheel/../../../../src/core/lv_obj_style_gen.h ****     return (lv_coord_t)v.num;
  41:Middlewares/lvgl/src/extra/widgets/colorwheel/../../../../src/core/lv_obj_style_gen.h **** }
  42:Middlewares/lvgl/src/extra/widgets/colorwheel/../../../../src/core/lv_obj_style_gen.h **** 
  43:Middlewares/lvgl/src/extra/widgets/colorwheel/../../../../src/core/lv_obj_style_gen.h **** static inline lv_coord_t lv_obj_get_style_y(const struct _lv_obj_t * obj, uint32_t part)
  44:Middlewares/lvgl/src/extra/widgets/colorwheel/../../../../src/core/lv_obj_style_gen.h **** {
  45:Middlewares/lvgl/src/extra/widgets/colorwheel/../../../../src/core/lv_obj_style_gen.h ****     lv_style_value_t v = lv_obj_get_style_prop(obj, part, LV_STYLE_Y);
  46:Middlewares/lvgl/src/extra/widgets/colorwheel/../../../../src/core/lv_obj_style_gen.h ****     return (lv_coord_t)v.num;
  47:Middlewares/lvgl/src/extra/widgets/colorwheel/../../../../src/core/lv_obj_style_gen.h **** }
  48:Middlewares/lvgl/src/extra/widgets/colorwheel/../../../../src/core/lv_obj_style_gen.h **** 
  49:Middlewares/lvgl/src/extra/widgets/colorwheel/../../../../src/core/lv_obj_style_gen.h **** static inline lv_align_t lv_obj_get_style_align(const struct _lv_obj_t * obj, uint32_t part)
  50:Middlewares/lvgl/src/extra/widgets/colorwheel/../../../../src/core/lv_obj_style_gen.h **** {
  51:Middlewares/lvgl/src/extra/widgets/colorwheel/../../../../src/core/lv_obj_style_gen.h ****     lv_style_value_t v = lv_obj_get_style_prop(obj, part, LV_STYLE_ALIGN);
  52:Middlewares/lvgl/src/extra/widgets/colorwheel/../../../../src/core/lv_obj_style_gen.h ****     return (lv_align_t)v.num;
  53:Middlewares/lvgl/src/extra/widgets/colorwheel/../../../../src/core/lv_obj_style_gen.h **** }
  54:Middlewares/lvgl/src/extra/widgets/colorwheel/../../../../src/core/lv_obj_style_gen.h **** 
  55:Middlewares/lvgl/src/extra/widgets/colorwheel/../../../../src/core/lv_obj_style_gen.h **** static inline lv_coord_t lv_obj_get_style_transform_width(const struct _lv_obj_t * obj, uint32_t pa
  56:Middlewares/lvgl/src/extra/widgets/colorwheel/../../../../src/core/lv_obj_style_gen.h **** {
  57:Middlewares/lvgl/src/extra/widgets/colorwheel/../../../../src/core/lv_obj_style_gen.h ****     lv_style_value_t v = lv_obj_get_style_prop(obj, part, LV_STYLE_TRANSFORM_WIDTH);
  58:Middlewares/lvgl/src/extra/widgets/colorwheel/../../../../src/core/lv_obj_style_gen.h ****     return (lv_coord_t)v.num;
  59:Middlewares/lvgl/src/extra/widgets/colorwheel/../../../../src/core/lv_obj_style_gen.h **** }
  60:Middlewares/lvgl/src/extra/widgets/colorwheel/../../../../src/core/lv_obj_style_gen.h **** 
  61:Middlewares/lvgl/src/extra/widgets/colorwheel/../../../../src/core/lv_obj_style_gen.h **** static inline lv_coord_t lv_obj_get_style_transform_height(const struct _lv_obj_t * obj, uint32_t p
  62:Middlewares/lvgl/src/extra/widgets/colorwheel/../../../../src/core/lv_obj_style_gen.h **** {
  63:Middlewares/lvgl/src/extra/widgets/colorwheel/../../../../src/core/lv_obj_style_gen.h ****     lv_style_value_t v = lv_obj_get_style_prop(obj, part, LV_STYLE_TRANSFORM_HEIGHT);
  64:Middlewares/lvgl/src/extra/widgets/colorwheel/../../../../src/core/lv_obj_style_gen.h ****     return (lv_coord_t)v.num;
  65:Middlewares/lvgl/src/extra/widgets/colorwheel/../../../../src/core/lv_obj_style_gen.h **** }
  66:Middlewares/lvgl/src/extra/widgets/colorwheel/../../../../src/core/lv_obj_style_gen.h **** 
  67:Middlewares/lvgl/src/extra/widgets/colorwheel/../../../../src/core/lv_obj_style_gen.h **** static inline lv_coord_t lv_obj_get_style_translate_x(const struct _lv_obj_t * obj, uint32_t part)
  68:Middlewares/lvgl/src/extra/widgets/colorwheel/../../../../src/core/lv_obj_style_gen.h **** {
  69:Middlewares/lvgl/src/extra/widgets/colorwheel/../../../../src/core/lv_obj_style_gen.h ****     lv_style_value_t v = lv_obj_get_style_prop(obj, part, LV_STYLE_TRANSLATE_X);
  70:Middlewares/lvgl/src/extra/widgets/colorwheel/../../../../src/core/lv_obj_style_gen.h ****     return (lv_coord_t)v.num;
  71:Middlewares/lvgl/src/extra/widgets/colorwheel/../../../../src/core/lv_obj_style_gen.h **** }
  72:Middlewares/lvgl/src/extra/widgets/colorwheel/../../../../src/core/lv_obj_style_gen.h **** 
  73:Middlewares/lvgl/src/extra/widgets/colorwheel/../../../../src/core/lv_obj_style_gen.h **** static inline lv_coord_t lv_obj_get_style_translate_y(const struct _lv_obj_t * obj, uint32_t part)
ARM GAS  /tmp/ccyILfU7.s 			page 36


  74:Middlewares/lvgl/src/extra/widgets/colorwheel/../../../../src/core/lv_obj_style_gen.h **** {
  75:Middlewares/lvgl/src/extra/widgets/colorwheel/../../../../src/core/lv_obj_style_gen.h ****     lv_style_value_t v = lv_obj_get_style_prop(obj, part, LV_STYLE_TRANSLATE_Y);
  76:Middlewares/lvgl/src/extra/widgets/colorwheel/../../../../src/core/lv_obj_style_gen.h ****     return (lv_coord_t)v.num;
  77:Middlewares/lvgl/src/extra/widgets/colorwheel/../../../../src/core/lv_obj_style_gen.h **** }
  78:Middlewares/lvgl/src/extra/widgets/colorwheel/../../../../src/core/lv_obj_style_gen.h **** 
  79:Middlewares/lvgl/src/extra/widgets/colorwheel/../../../../src/core/lv_obj_style_gen.h **** static inline lv_coord_t lv_obj_get_style_transform_zoom(const struct _lv_obj_t * obj, uint32_t par
  80:Middlewares/lvgl/src/extra/widgets/colorwheel/../../../../src/core/lv_obj_style_gen.h **** {
  81:Middlewares/lvgl/src/extra/widgets/colorwheel/../../../../src/core/lv_obj_style_gen.h ****     lv_style_value_t v = lv_obj_get_style_prop(obj, part, LV_STYLE_TRANSFORM_ZOOM);
  82:Middlewares/lvgl/src/extra/widgets/colorwheel/../../../../src/core/lv_obj_style_gen.h ****     return (lv_coord_t)v.num;
  83:Middlewares/lvgl/src/extra/widgets/colorwheel/../../../../src/core/lv_obj_style_gen.h **** }
  84:Middlewares/lvgl/src/extra/widgets/colorwheel/../../../../src/core/lv_obj_style_gen.h **** 
  85:Middlewares/lvgl/src/extra/widgets/colorwheel/../../../../src/core/lv_obj_style_gen.h **** static inline lv_coord_t lv_obj_get_style_transform_angle(const struct _lv_obj_t * obj, uint32_t pa
  86:Middlewares/lvgl/src/extra/widgets/colorwheel/../../../../src/core/lv_obj_style_gen.h **** {
  87:Middlewares/lvgl/src/extra/widgets/colorwheel/../../../../src/core/lv_obj_style_gen.h ****     lv_style_value_t v = lv_obj_get_style_prop(obj, part, LV_STYLE_TRANSFORM_ANGLE);
  88:Middlewares/lvgl/src/extra/widgets/colorwheel/../../../../src/core/lv_obj_style_gen.h ****     return (lv_coord_t)v.num;
  89:Middlewares/lvgl/src/extra/widgets/colorwheel/../../../../src/core/lv_obj_style_gen.h **** }
  90:Middlewares/lvgl/src/extra/widgets/colorwheel/../../../../src/core/lv_obj_style_gen.h **** 
  91:Middlewares/lvgl/src/extra/widgets/colorwheel/../../../../src/core/lv_obj_style_gen.h **** static inline lv_coord_t lv_obj_get_style_pad_top(const struct _lv_obj_t * obj, uint32_t part)
  92:Middlewares/lvgl/src/extra/widgets/colorwheel/../../../../src/core/lv_obj_style_gen.h **** {
  93:Middlewares/lvgl/src/extra/widgets/colorwheel/../../../../src/core/lv_obj_style_gen.h ****     lv_style_value_t v = lv_obj_get_style_prop(obj, part, LV_STYLE_PAD_TOP);
  94:Middlewares/lvgl/src/extra/widgets/colorwheel/../../../../src/core/lv_obj_style_gen.h ****     return (lv_coord_t)v.num;
  95:Middlewares/lvgl/src/extra/widgets/colorwheel/../../../../src/core/lv_obj_style_gen.h **** }
  96:Middlewares/lvgl/src/extra/widgets/colorwheel/../../../../src/core/lv_obj_style_gen.h **** 
  97:Middlewares/lvgl/src/extra/widgets/colorwheel/../../../../src/core/lv_obj_style_gen.h **** static inline lv_coord_t lv_obj_get_style_pad_bottom(const struct _lv_obj_t * obj, uint32_t part)
  98:Middlewares/lvgl/src/extra/widgets/colorwheel/../../../../src/core/lv_obj_style_gen.h **** {
  99:Middlewares/lvgl/src/extra/widgets/colorwheel/../../../../src/core/lv_obj_style_gen.h ****     lv_style_value_t v = lv_obj_get_style_prop(obj, part, LV_STYLE_PAD_BOTTOM);
 100:Middlewares/lvgl/src/extra/widgets/colorwheel/../../../../src/core/lv_obj_style_gen.h ****     return (lv_coord_t)v.num;
 101:Middlewares/lvgl/src/extra/widgets/colorwheel/../../../../src/core/lv_obj_style_gen.h **** }
 102:Middlewares/lvgl/src/extra/widgets/colorwheel/../../../../src/core/lv_obj_style_gen.h **** 
 103:Middlewares/lvgl/src/extra/widgets/colorwheel/../../../../src/core/lv_obj_style_gen.h **** static inline lv_coord_t lv_obj_get_style_pad_left(const struct _lv_obj_t * obj, uint32_t part)
 104:Middlewares/lvgl/src/extra/widgets/colorwheel/../../../../src/core/lv_obj_style_gen.h **** {
 105:Middlewares/lvgl/src/extra/widgets/colorwheel/../../../../src/core/lv_obj_style_gen.h ****     lv_style_value_t v = lv_obj_get_style_prop(obj, part, LV_STYLE_PAD_LEFT);
 106:Middlewares/lvgl/src/extra/widgets/colorwheel/../../../../src/core/lv_obj_style_gen.h ****     return (lv_coord_t)v.num;
 107:Middlewares/lvgl/src/extra/widgets/colorwheel/../../../../src/core/lv_obj_style_gen.h **** }
 108:Middlewares/lvgl/src/extra/widgets/colorwheel/../../../../src/core/lv_obj_style_gen.h **** 
 109:Middlewares/lvgl/src/extra/widgets/colorwheel/../../../../src/core/lv_obj_style_gen.h **** static inline lv_coord_t lv_obj_get_style_pad_right(const struct _lv_obj_t * obj, uint32_t part)
 110:Middlewares/lvgl/src/extra/widgets/colorwheel/../../../../src/core/lv_obj_style_gen.h **** {
 111:Middlewares/lvgl/src/extra/widgets/colorwheel/../../../../src/core/lv_obj_style_gen.h ****     lv_style_value_t v = lv_obj_get_style_prop(obj, part, LV_STYLE_PAD_RIGHT);
 112:Middlewares/lvgl/src/extra/widgets/colorwheel/../../../../src/core/lv_obj_style_gen.h ****     return (lv_coord_t)v.num;
 113:Middlewares/lvgl/src/extra/widgets/colorwheel/../../../../src/core/lv_obj_style_gen.h **** }
 114:Middlewares/lvgl/src/extra/widgets/colorwheel/../../../../src/core/lv_obj_style_gen.h **** 
 115:Middlewares/lvgl/src/extra/widgets/colorwheel/../../../../src/core/lv_obj_style_gen.h **** static inline lv_coord_t lv_obj_get_style_pad_row(const struct _lv_obj_t * obj, uint32_t part)
 116:Middlewares/lvgl/src/extra/widgets/colorwheel/../../../../src/core/lv_obj_style_gen.h **** {
 117:Middlewares/lvgl/src/extra/widgets/colorwheel/../../../../src/core/lv_obj_style_gen.h ****     lv_style_value_t v = lv_obj_get_style_prop(obj, part, LV_STYLE_PAD_ROW);
 118:Middlewares/lvgl/src/extra/widgets/colorwheel/../../../../src/core/lv_obj_style_gen.h ****     return (lv_coord_t)v.num;
 119:Middlewares/lvgl/src/extra/widgets/colorwheel/../../../../src/core/lv_obj_style_gen.h **** }
 120:Middlewares/lvgl/src/extra/widgets/colorwheel/../../../../src/core/lv_obj_style_gen.h **** 
 121:Middlewares/lvgl/src/extra/widgets/colorwheel/../../../../src/core/lv_obj_style_gen.h **** static inline lv_coord_t lv_obj_get_style_pad_column(const struct _lv_obj_t * obj, uint32_t part)
 122:Middlewares/lvgl/src/extra/widgets/colorwheel/../../../../src/core/lv_obj_style_gen.h **** {
 123:Middlewares/lvgl/src/extra/widgets/colorwheel/../../../../src/core/lv_obj_style_gen.h ****     lv_style_value_t v = lv_obj_get_style_prop(obj, part, LV_STYLE_PAD_COLUMN);
 124:Middlewares/lvgl/src/extra/widgets/colorwheel/../../../../src/core/lv_obj_style_gen.h ****     return (lv_coord_t)v.num;
 125:Middlewares/lvgl/src/extra/widgets/colorwheel/../../../../src/core/lv_obj_style_gen.h **** }
 126:Middlewares/lvgl/src/extra/widgets/colorwheel/../../../../src/core/lv_obj_style_gen.h **** 
 127:Middlewares/lvgl/src/extra/widgets/colorwheel/../../../../src/core/lv_obj_style_gen.h **** static inline lv_coord_t lv_obj_get_style_radius(const struct _lv_obj_t * obj, uint32_t part)
 128:Middlewares/lvgl/src/extra/widgets/colorwheel/../../../../src/core/lv_obj_style_gen.h **** {
 129:Middlewares/lvgl/src/extra/widgets/colorwheel/../../../../src/core/lv_obj_style_gen.h ****     lv_style_value_t v = lv_obj_get_style_prop(obj, part, LV_STYLE_RADIUS);
 130:Middlewares/lvgl/src/extra/widgets/colorwheel/../../../../src/core/lv_obj_style_gen.h ****     return (lv_coord_t)v.num;
ARM GAS  /tmp/ccyILfU7.s 			page 37


 131:Middlewares/lvgl/src/extra/widgets/colorwheel/../../../../src/core/lv_obj_style_gen.h **** }
 132:Middlewares/lvgl/src/extra/widgets/colorwheel/../../../../src/core/lv_obj_style_gen.h **** 
 133:Middlewares/lvgl/src/extra/widgets/colorwheel/../../../../src/core/lv_obj_style_gen.h **** static inline bool lv_obj_get_style_clip_corner(const struct _lv_obj_t * obj, uint32_t part)
 134:Middlewares/lvgl/src/extra/widgets/colorwheel/../../../../src/core/lv_obj_style_gen.h **** {
 135:Middlewares/lvgl/src/extra/widgets/colorwheel/../../../../src/core/lv_obj_style_gen.h ****     lv_style_value_t v = lv_obj_get_style_prop(obj, part, LV_STYLE_CLIP_CORNER);
 136:Middlewares/lvgl/src/extra/widgets/colorwheel/../../../../src/core/lv_obj_style_gen.h ****     return (bool)v.num;
 137:Middlewares/lvgl/src/extra/widgets/colorwheel/../../../../src/core/lv_obj_style_gen.h **** }
 138:Middlewares/lvgl/src/extra/widgets/colorwheel/../../../../src/core/lv_obj_style_gen.h **** 
 139:Middlewares/lvgl/src/extra/widgets/colorwheel/../../../../src/core/lv_obj_style_gen.h **** static inline lv_opa_t lv_obj_get_style_opa(const struct _lv_obj_t * obj, uint32_t part)
 140:Middlewares/lvgl/src/extra/widgets/colorwheel/../../../../src/core/lv_obj_style_gen.h **** {
 141:Middlewares/lvgl/src/extra/widgets/colorwheel/../../../../src/core/lv_obj_style_gen.h ****     lv_style_value_t v = lv_obj_get_style_prop(obj, part, LV_STYLE_OPA);
 142:Middlewares/lvgl/src/extra/widgets/colorwheel/../../../../src/core/lv_obj_style_gen.h ****     return (lv_opa_t)v.num;
 143:Middlewares/lvgl/src/extra/widgets/colorwheel/../../../../src/core/lv_obj_style_gen.h **** }
 144:Middlewares/lvgl/src/extra/widgets/colorwheel/../../../../src/core/lv_obj_style_gen.h **** 
 145:Middlewares/lvgl/src/extra/widgets/colorwheel/../../../../src/core/lv_obj_style_gen.h **** static inline const lv_color_filter_dsc_t * lv_obj_get_style_color_filter_dsc(const struct _lv_obj_
 146:Middlewares/lvgl/src/extra/widgets/colorwheel/../../../../src/core/lv_obj_style_gen.h **** {
 147:Middlewares/lvgl/src/extra/widgets/colorwheel/../../../../src/core/lv_obj_style_gen.h ****     lv_style_value_t v = lv_obj_get_style_prop(obj, part, LV_STYLE_COLOR_FILTER_DSC);
 148:Middlewares/lvgl/src/extra/widgets/colorwheel/../../../../src/core/lv_obj_style_gen.h ****     return (const lv_color_filter_dsc_t *)v.ptr;
 149:Middlewares/lvgl/src/extra/widgets/colorwheel/../../../../src/core/lv_obj_style_gen.h **** }
 150:Middlewares/lvgl/src/extra/widgets/colorwheel/../../../../src/core/lv_obj_style_gen.h **** 
 151:Middlewares/lvgl/src/extra/widgets/colorwheel/../../../../src/core/lv_obj_style_gen.h **** static inline lv_opa_t lv_obj_get_style_color_filter_opa(const struct _lv_obj_t * obj, uint32_t par
 152:Middlewares/lvgl/src/extra/widgets/colorwheel/../../../../src/core/lv_obj_style_gen.h **** {
 153:Middlewares/lvgl/src/extra/widgets/colorwheel/../../../../src/core/lv_obj_style_gen.h ****     lv_style_value_t v = lv_obj_get_style_prop(obj, part, LV_STYLE_COLOR_FILTER_OPA);
 154:Middlewares/lvgl/src/extra/widgets/colorwheel/../../../../src/core/lv_obj_style_gen.h ****     return (lv_opa_t)v.num;
 155:Middlewares/lvgl/src/extra/widgets/colorwheel/../../../../src/core/lv_obj_style_gen.h **** }
 156:Middlewares/lvgl/src/extra/widgets/colorwheel/../../../../src/core/lv_obj_style_gen.h **** 
 157:Middlewares/lvgl/src/extra/widgets/colorwheel/../../../../src/core/lv_obj_style_gen.h **** static inline uint32_t lv_obj_get_style_anim_time(const struct _lv_obj_t * obj, uint32_t part)
 158:Middlewares/lvgl/src/extra/widgets/colorwheel/../../../../src/core/lv_obj_style_gen.h **** {
 159:Middlewares/lvgl/src/extra/widgets/colorwheel/../../../../src/core/lv_obj_style_gen.h ****     lv_style_value_t v = lv_obj_get_style_prop(obj, part, LV_STYLE_ANIM_TIME);
 160:Middlewares/lvgl/src/extra/widgets/colorwheel/../../../../src/core/lv_obj_style_gen.h ****     return (uint32_t)v.num;
 161:Middlewares/lvgl/src/extra/widgets/colorwheel/../../../../src/core/lv_obj_style_gen.h **** }
 162:Middlewares/lvgl/src/extra/widgets/colorwheel/../../../../src/core/lv_obj_style_gen.h **** 
 163:Middlewares/lvgl/src/extra/widgets/colorwheel/../../../../src/core/lv_obj_style_gen.h **** static inline uint32_t lv_obj_get_style_anim_speed(const struct _lv_obj_t * obj, uint32_t part)
 164:Middlewares/lvgl/src/extra/widgets/colorwheel/../../../../src/core/lv_obj_style_gen.h **** {
 165:Middlewares/lvgl/src/extra/widgets/colorwheel/../../../../src/core/lv_obj_style_gen.h ****     lv_style_value_t v = lv_obj_get_style_prop(obj, part, LV_STYLE_ANIM_SPEED);
 166:Middlewares/lvgl/src/extra/widgets/colorwheel/../../../../src/core/lv_obj_style_gen.h ****     return (uint32_t)v.num;
 167:Middlewares/lvgl/src/extra/widgets/colorwheel/../../../../src/core/lv_obj_style_gen.h **** }
 168:Middlewares/lvgl/src/extra/widgets/colorwheel/../../../../src/core/lv_obj_style_gen.h **** 
 169:Middlewares/lvgl/src/extra/widgets/colorwheel/../../../../src/core/lv_obj_style_gen.h **** static inline const lv_style_transition_dsc_t * lv_obj_get_style_transition(const struct _lv_obj_t 
 170:Middlewares/lvgl/src/extra/widgets/colorwheel/../../../../src/core/lv_obj_style_gen.h **** {
 171:Middlewares/lvgl/src/extra/widgets/colorwheel/../../../../src/core/lv_obj_style_gen.h ****     lv_style_value_t v = lv_obj_get_style_prop(obj, part, LV_STYLE_TRANSITION);
 172:Middlewares/lvgl/src/extra/widgets/colorwheel/../../../../src/core/lv_obj_style_gen.h ****     return (const lv_style_transition_dsc_t *)v.ptr;
 173:Middlewares/lvgl/src/extra/widgets/colorwheel/../../../../src/core/lv_obj_style_gen.h **** }
 174:Middlewares/lvgl/src/extra/widgets/colorwheel/../../../../src/core/lv_obj_style_gen.h **** 
 175:Middlewares/lvgl/src/extra/widgets/colorwheel/../../../../src/core/lv_obj_style_gen.h **** static inline lv_blend_mode_t lv_obj_get_style_blend_mode(const struct _lv_obj_t * obj, uint32_t pa
 176:Middlewares/lvgl/src/extra/widgets/colorwheel/../../../../src/core/lv_obj_style_gen.h **** {
 177:Middlewares/lvgl/src/extra/widgets/colorwheel/../../../../src/core/lv_obj_style_gen.h ****     lv_style_value_t v = lv_obj_get_style_prop(obj, part, LV_STYLE_BLEND_MODE);
 178:Middlewares/lvgl/src/extra/widgets/colorwheel/../../../../src/core/lv_obj_style_gen.h ****     return (lv_blend_mode_t)v.num;
 179:Middlewares/lvgl/src/extra/widgets/colorwheel/../../../../src/core/lv_obj_style_gen.h **** }
 180:Middlewares/lvgl/src/extra/widgets/colorwheel/../../../../src/core/lv_obj_style_gen.h **** 
 181:Middlewares/lvgl/src/extra/widgets/colorwheel/../../../../src/core/lv_obj_style_gen.h **** static inline uint16_t lv_obj_get_style_layout(const struct _lv_obj_t * obj, uint32_t part)
 182:Middlewares/lvgl/src/extra/widgets/colorwheel/../../../../src/core/lv_obj_style_gen.h **** {
 183:Middlewares/lvgl/src/extra/widgets/colorwheel/../../../../src/core/lv_obj_style_gen.h ****     lv_style_value_t v = lv_obj_get_style_prop(obj, part, LV_STYLE_LAYOUT);
 184:Middlewares/lvgl/src/extra/widgets/colorwheel/../../../../src/core/lv_obj_style_gen.h ****     return (uint16_t)v.num;
 185:Middlewares/lvgl/src/extra/widgets/colorwheel/../../../../src/core/lv_obj_style_gen.h **** }
 186:Middlewares/lvgl/src/extra/widgets/colorwheel/../../../../src/core/lv_obj_style_gen.h **** 
 187:Middlewares/lvgl/src/extra/widgets/colorwheel/../../../../src/core/lv_obj_style_gen.h **** static inline lv_base_dir_t lv_obj_get_style_base_dir(const struct _lv_obj_t * obj, uint32_t part)
ARM GAS  /tmp/ccyILfU7.s 			page 38


 188:Middlewares/lvgl/src/extra/widgets/colorwheel/../../../../src/core/lv_obj_style_gen.h **** {
 189:Middlewares/lvgl/src/extra/widgets/colorwheel/../../../../src/core/lv_obj_style_gen.h ****     lv_style_value_t v = lv_obj_get_style_prop(obj, part, LV_STYLE_BASE_DIR);
 190:Middlewares/lvgl/src/extra/widgets/colorwheel/../../../../src/core/lv_obj_style_gen.h ****     return (lv_base_dir_t)v.num;
 191:Middlewares/lvgl/src/extra/widgets/colorwheel/../../../../src/core/lv_obj_style_gen.h **** }
 192:Middlewares/lvgl/src/extra/widgets/colorwheel/../../../../src/core/lv_obj_style_gen.h **** 
 193:Middlewares/lvgl/src/extra/widgets/colorwheel/../../../../src/core/lv_obj_style_gen.h **** static inline lv_color_t lv_obj_get_style_bg_color(const struct _lv_obj_t * obj, uint32_t part)
 194:Middlewares/lvgl/src/extra/widgets/colorwheel/../../../../src/core/lv_obj_style_gen.h **** {
 195:Middlewares/lvgl/src/extra/widgets/colorwheel/../../../../src/core/lv_obj_style_gen.h ****     lv_style_value_t v = lv_obj_get_style_prop(obj, part, LV_STYLE_BG_COLOR);
 196:Middlewares/lvgl/src/extra/widgets/colorwheel/../../../../src/core/lv_obj_style_gen.h ****     return v.color;
 197:Middlewares/lvgl/src/extra/widgets/colorwheel/../../../../src/core/lv_obj_style_gen.h **** }
 198:Middlewares/lvgl/src/extra/widgets/colorwheel/../../../../src/core/lv_obj_style_gen.h **** 
 199:Middlewares/lvgl/src/extra/widgets/colorwheel/../../../../src/core/lv_obj_style_gen.h **** static inline lv_color_t lv_obj_get_style_bg_color_filtered(const struct _lv_obj_t * obj, uint32_t 
 200:Middlewares/lvgl/src/extra/widgets/colorwheel/../../../../src/core/lv_obj_style_gen.h **** {
 201:Middlewares/lvgl/src/extra/widgets/colorwheel/../../../../src/core/lv_obj_style_gen.h ****     lv_style_value_t v = lv_obj_get_style_prop(obj, part, LV_STYLE_BG_COLOR_FILTERED);
 202:Middlewares/lvgl/src/extra/widgets/colorwheel/../../../../src/core/lv_obj_style_gen.h ****     return v.color;
 203:Middlewares/lvgl/src/extra/widgets/colorwheel/../../../../src/core/lv_obj_style_gen.h **** }
 204:Middlewares/lvgl/src/extra/widgets/colorwheel/../../../../src/core/lv_obj_style_gen.h **** 
 205:Middlewares/lvgl/src/extra/widgets/colorwheel/../../../../src/core/lv_obj_style_gen.h **** static inline lv_opa_t lv_obj_get_style_bg_opa(const struct _lv_obj_t * obj, uint32_t part)
 206:Middlewares/lvgl/src/extra/widgets/colorwheel/../../../../src/core/lv_obj_style_gen.h **** {
 207:Middlewares/lvgl/src/extra/widgets/colorwheel/../../../../src/core/lv_obj_style_gen.h ****     lv_style_value_t v = lv_obj_get_style_prop(obj, part, LV_STYLE_BG_OPA);
 208:Middlewares/lvgl/src/extra/widgets/colorwheel/../../../../src/core/lv_obj_style_gen.h ****     return (lv_opa_t)v.num;
 209:Middlewares/lvgl/src/extra/widgets/colorwheel/../../../../src/core/lv_obj_style_gen.h **** }
 210:Middlewares/lvgl/src/extra/widgets/colorwheel/../../../../src/core/lv_obj_style_gen.h **** 
 211:Middlewares/lvgl/src/extra/widgets/colorwheel/../../../../src/core/lv_obj_style_gen.h **** static inline lv_color_t lv_obj_get_style_bg_grad_color(const struct _lv_obj_t * obj, uint32_t part
 212:Middlewares/lvgl/src/extra/widgets/colorwheel/../../../../src/core/lv_obj_style_gen.h **** {
 213:Middlewares/lvgl/src/extra/widgets/colorwheel/../../../../src/core/lv_obj_style_gen.h ****     lv_style_value_t v = lv_obj_get_style_prop(obj, part, LV_STYLE_BG_GRAD_COLOR);
 214:Middlewares/lvgl/src/extra/widgets/colorwheel/../../../../src/core/lv_obj_style_gen.h ****     return v.color;
 215:Middlewares/lvgl/src/extra/widgets/colorwheel/../../../../src/core/lv_obj_style_gen.h **** }
 216:Middlewares/lvgl/src/extra/widgets/colorwheel/../../../../src/core/lv_obj_style_gen.h **** 
 217:Middlewares/lvgl/src/extra/widgets/colorwheel/../../../../src/core/lv_obj_style_gen.h **** static inline lv_color_t lv_obj_get_style_bg_grad_color_filtered(const struct _lv_obj_t * obj, uint
 218:Middlewares/lvgl/src/extra/widgets/colorwheel/../../../../src/core/lv_obj_style_gen.h **** {
 219:Middlewares/lvgl/src/extra/widgets/colorwheel/../../../../src/core/lv_obj_style_gen.h ****     lv_style_value_t v = lv_obj_get_style_prop(obj, part, LV_STYLE_BG_GRAD_COLOR_FILTERED);
 220:Middlewares/lvgl/src/extra/widgets/colorwheel/../../../../src/core/lv_obj_style_gen.h ****     return v.color;
 221:Middlewares/lvgl/src/extra/widgets/colorwheel/../../../../src/core/lv_obj_style_gen.h **** }
 222:Middlewares/lvgl/src/extra/widgets/colorwheel/../../../../src/core/lv_obj_style_gen.h **** 
 223:Middlewares/lvgl/src/extra/widgets/colorwheel/../../../../src/core/lv_obj_style_gen.h **** static inline lv_grad_dir_t lv_obj_get_style_bg_grad_dir(const struct _lv_obj_t * obj, uint32_t par
 224:Middlewares/lvgl/src/extra/widgets/colorwheel/../../../../src/core/lv_obj_style_gen.h **** {
 225:Middlewares/lvgl/src/extra/widgets/colorwheel/../../../../src/core/lv_obj_style_gen.h ****     lv_style_value_t v = lv_obj_get_style_prop(obj, part, LV_STYLE_BG_GRAD_DIR);
 226:Middlewares/lvgl/src/extra/widgets/colorwheel/../../../../src/core/lv_obj_style_gen.h ****     return (lv_grad_dir_t)v.num;
 227:Middlewares/lvgl/src/extra/widgets/colorwheel/../../../../src/core/lv_obj_style_gen.h **** }
 228:Middlewares/lvgl/src/extra/widgets/colorwheel/../../../../src/core/lv_obj_style_gen.h **** 
 229:Middlewares/lvgl/src/extra/widgets/colorwheel/../../../../src/core/lv_obj_style_gen.h **** static inline lv_coord_t lv_obj_get_style_bg_main_stop(const struct _lv_obj_t * obj, uint32_t part)
 230:Middlewares/lvgl/src/extra/widgets/colorwheel/../../../../src/core/lv_obj_style_gen.h **** {
 231:Middlewares/lvgl/src/extra/widgets/colorwheel/../../../../src/core/lv_obj_style_gen.h ****     lv_style_value_t v = lv_obj_get_style_prop(obj, part, LV_STYLE_BG_MAIN_STOP);
 232:Middlewares/lvgl/src/extra/widgets/colorwheel/../../../../src/core/lv_obj_style_gen.h ****     return (lv_coord_t)v.num;
 233:Middlewares/lvgl/src/extra/widgets/colorwheel/../../../../src/core/lv_obj_style_gen.h **** }
 234:Middlewares/lvgl/src/extra/widgets/colorwheel/../../../../src/core/lv_obj_style_gen.h **** 
 235:Middlewares/lvgl/src/extra/widgets/colorwheel/../../../../src/core/lv_obj_style_gen.h **** static inline lv_coord_t lv_obj_get_style_bg_grad_stop(const struct _lv_obj_t * obj, uint32_t part)
 236:Middlewares/lvgl/src/extra/widgets/colorwheel/../../../../src/core/lv_obj_style_gen.h **** {
 237:Middlewares/lvgl/src/extra/widgets/colorwheel/../../../../src/core/lv_obj_style_gen.h ****     lv_style_value_t v = lv_obj_get_style_prop(obj, part, LV_STYLE_BG_GRAD_STOP);
 238:Middlewares/lvgl/src/extra/widgets/colorwheel/../../../../src/core/lv_obj_style_gen.h ****     return (lv_coord_t)v.num;
 239:Middlewares/lvgl/src/extra/widgets/colorwheel/../../../../src/core/lv_obj_style_gen.h **** }
 240:Middlewares/lvgl/src/extra/widgets/colorwheel/../../../../src/core/lv_obj_style_gen.h **** 
 241:Middlewares/lvgl/src/extra/widgets/colorwheel/../../../../src/core/lv_obj_style_gen.h **** static inline const void * lv_obj_get_style_bg_img_src(const struct _lv_obj_t * obj, uint32_t part)
 242:Middlewares/lvgl/src/extra/widgets/colorwheel/../../../../src/core/lv_obj_style_gen.h **** {
 243:Middlewares/lvgl/src/extra/widgets/colorwheel/../../../../src/core/lv_obj_style_gen.h ****     lv_style_value_t v = lv_obj_get_style_prop(obj, part, LV_STYLE_BG_IMG_SRC);
 244:Middlewares/lvgl/src/extra/widgets/colorwheel/../../../../src/core/lv_obj_style_gen.h ****     return (const void *)v.ptr;
ARM GAS  /tmp/ccyILfU7.s 			page 39


 245:Middlewares/lvgl/src/extra/widgets/colorwheel/../../../../src/core/lv_obj_style_gen.h **** }
 246:Middlewares/lvgl/src/extra/widgets/colorwheel/../../../../src/core/lv_obj_style_gen.h **** 
 247:Middlewares/lvgl/src/extra/widgets/colorwheel/../../../../src/core/lv_obj_style_gen.h **** static inline lv_opa_t lv_obj_get_style_bg_img_opa(const struct _lv_obj_t * obj, uint32_t part)
 248:Middlewares/lvgl/src/extra/widgets/colorwheel/../../../../src/core/lv_obj_style_gen.h **** {
 249:Middlewares/lvgl/src/extra/widgets/colorwheel/../../../../src/core/lv_obj_style_gen.h ****     lv_style_value_t v = lv_obj_get_style_prop(obj, part, LV_STYLE_BG_IMG_OPA);
 250:Middlewares/lvgl/src/extra/widgets/colorwheel/../../../../src/core/lv_obj_style_gen.h ****     return (lv_opa_t)v.num;
 251:Middlewares/lvgl/src/extra/widgets/colorwheel/../../../../src/core/lv_obj_style_gen.h **** }
 252:Middlewares/lvgl/src/extra/widgets/colorwheel/../../../../src/core/lv_obj_style_gen.h **** 
 253:Middlewares/lvgl/src/extra/widgets/colorwheel/../../../../src/core/lv_obj_style_gen.h **** static inline lv_color_t lv_obj_get_style_bg_img_recolor(const struct _lv_obj_t * obj, uint32_t par
 254:Middlewares/lvgl/src/extra/widgets/colorwheel/../../../../src/core/lv_obj_style_gen.h **** {
 255:Middlewares/lvgl/src/extra/widgets/colorwheel/../../../../src/core/lv_obj_style_gen.h ****     lv_style_value_t v = lv_obj_get_style_prop(obj, part, LV_STYLE_BG_IMG_RECOLOR);
 256:Middlewares/lvgl/src/extra/widgets/colorwheel/../../../../src/core/lv_obj_style_gen.h ****     return v.color;
 257:Middlewares/lvgl/src/extra/widgets/colorwheel/../../../../src/core/lv_obj_style_gen.h **** }
 258:Middlewares/lvgl/src/extra/widgets/colorwheel/../../../../src/core/lv_obj_style_gen.h **** 
 259:Middlewares/lvgl/src/extra/widgets/colorwheel/../../../../src/core/lv_obj_style_gen.h **** static inline lv_color_t lv_obj_get_style_bg_img_recolor_filtered(const struct _lv_obj_t * obj, uin
 260:Middlewares/lvgl/src/extra/widgets/colorwheel/../../../../src/core/lv_obj_style_gen.h **** {
 261:Middlewares/lvgl/src/extra/widgets/colorwheel/../../../../src/core/lv_obj_style_gen.h ****     lv_style_value_t v = lv_obj_get_style_prop(obj, part, LV_STYLE_BG_IMG_RECOLOR_FILTERED);
 262:Middlewares/lvgl/src/extra/widgets/colorwheel/../../../../src/core/lv_obj_style_gen.h ****     return v.color;
 263:Middlewares/lvgl/src/extra/widgets/colorwheel/../../../../src/core/lv_obj_style_gen.h **** }
 264:Middlewares/lvgl/src/extra/widgets/colorwheel/../../../../src/core/lv_obj_style_gen.h **** 
 265:Middlewares/lvgl/src/extra/widgets/colorwheel/../../../../src/core/lv_obj_style_gen.h **** static inline lv_opa_t lv_obj_get_style_bg_img_recolor_opa(const struct _lv_obj_t * obj, uint32_t p
 266:Middlewares/lvgl/src/extra/widgets/colorwheel/../../../../src/core/lv_obj_style_gen.h **** {
 267:Middlewares/lvgl/src/extra/widgets/colorwheel/../../../../src/core/lv_obj_style_gen.h ****     lv_style_value_t v = lv_obj_get_style_prop(obj, part, LV_STYLE_BG_IMG_RECOLOR_OPA);
 268:Middlewares/lvgl/src/extra/widgets/colorwheel/../../../../src/core/lv_obj_style_gen.h ****     return (lv_opa_t)v.num;
 269:Middlewares/lvgl/src/extra/widgets/colorwheel/../../../../src/core/lv_obj_style_gen.h **** }
 270:Middlewares/lvgl/src/extra/widgets/colorwheel/../../../../src/core/lv_obj_style_gen.h **** 
 271:Middlewares/lvgl/src/extra/widgets/colorwheel/../../../../src/core/lv_obj_style_gen.h **** static inline bool lv_obj_get_style_bg_img_tiled(const struct _lv_obj_t * obj, uint32_t part)
 272:Middlewares/lvgl/src/extra/widgets/colorwheel/../../../../src/core/lv_obj_style_gen.h **** {
 273:Middlewares/lvgl/src/extra/widgets/colorwheel/../../../../src/core/lv_obj_style_gen.h ****     lv_style_value_t v = lv_obj_get_style_prop(obj, part, LV_STYLE_BG_IMG_TILED);
 274:Middlewares/lvgl/src/extra/widgets/colorwheel/../../../../src/core/lv_obj_style_gen.h ****     return (bool)v.num;
 275:Middlewares/lvgl/src/extra/widgets/colorwheel/../../../../src/core/lv_obj_style_gen.h **** }
 276:Middlewares/lvgl/src/extra/widgets/colorwheel/../../../../src/core/lv_obj_style_gen.h **** 
 277:Middlewares/lvgl/src/extra/widgets/colorwheel/../../../../src/core/lv_obj_style_gen.h **** static inline lv_color_t lv_obj_get_style_border_color(const struct _lv_obj_t * obj, uint32_t part)
 278:Middlewares/lvgl/src/extra/widgets/colorwheel/../../../../src/core/lv_obj_style_gen.h **** {
 279:Middlewares/lvgl/src/extra/widgets/colorwheel/../../../../src/core/lv_obj_style_gen.h ****     lv_style_value_t v = lv_obj_get_style_prop(obj, part, LV_STYLE_BORDER_COLOR);
 280:Middlewares/lvgl/src/extra/widgets/colorwheel/../../../../src/core/lv_obj_style_gen.h ****     return v.color;
 281:Middlewares/lvgl/src/extra/widgets/colorwheel/../../../../src/core/lv_obj_style_gen.h **** }
 282:Middlewares/lvgl/src/extra/widgets/colorwheel/../../../../src/core/lv_obj_style_gen.h **** 
 283:Middlewares/lvgl/src/extra/widgets/colorwheel/../../../../src/core/lv_obj_style_gen.h **** static inline lv_color_t lv_obj_get_style_border_color_filtered(const struct _lv_obj_t * obj, uint3
 284:Middlewares/lvgl/src/extra/widgets/colorwheel/../../../../src/core/lv_obj_style_gen.h **** {
 285:Middlewares/lvgl/src/extra/widgets/colorwheel/../../../../src/core/lv_obj_style_gen.h ****     lv_style_value_t v = lv_obj_get_style_prop(obj, part, LV_STYLE_BORDER_COLOR_FILTERED);
 286:Middlewares/lvgl/src/extra/widgets/colorwheel/../../../../src/core/lv_obj_style_gen.h ****     return v.color;
 287:Middlewares/lvgl/src/extra/widgets/colorwheel/../../../../src/core/lv_obj_style_gen.h **** }
 288:Middlewares/lvgl/src/extra/widgets/colorwheel/../../../../src/core/lv_obj_style_gen.h **** 
 289:Middlewares/lvgl/src/extra/widgets/colorwheel/../../../../src/core/lv_obj_style_gen.h **** static inline lv_opa_t lv_obj_get_style_border_opa(const struct _lv_obj_t * obj, uint32_t part)
 290:Middlewares/lvgl/src/extra/widgets/colorwheel/../../../../src/core/lv_obj_style_gen.h **** {
 291:Middlewares/lvgl/src/extra/widgets/colorwheel/../../../../src/core/lv_obj_style_gen.h ****     lv_style_value_t v = lv_obj_get_style_prop(obj, part, LV_STYLE_BORDER_OPA);
 292:Middlewares/lvgl/src/extra/widgets/colorwheel/../../../../src/core/lv_obj_style_gen.h ****     return (lv_opa_t)v.num;
 293:Middlewares/lvgl/src/extra/widgets/colorwheel/../../../../src/core/lv_obj_style_gen.h **** }
 294:Middlewares/lvgl/src/extra/widgets/colorwheel/../../../../src/core/lv_obj_style_gen.h **** 
 295:Middlewares/lvgl/src/extra/widgets/colorwheel/../../../../src/core/lv_obj_style_gen.h **** static inline lv_coord_t lv_obj_get_style_border_width(const struct _lv_obj_t * obj, uint32_t part)
 296:Middlewares/lvgl/src/extra/widgets/colorwheel/../../../../src/core/lv_obj_style_gen.h **** {
 297:Middlewares/lvgl/src/extra/widgets/colorwheel/../../../../src/core/lv_obj_style_gen.h ****     lv_style_value_t v = lv_obj_get_style_prop(obj, part, LV_STYLE_BORDER_WIDTH);
 298:Middlewares/lvgl/src/extra/widgets/colorwheel/../../../../src/core/lv_obj_style_gen.h ****     return (lv_coord_t)v.num;
 299:Middlewares/lvgl/src/extra/widgets/colorwheel/../../../../src/core/lv_obj_style_gen.h **** }
 300:Middlewares/lvgl/src/extra/widgets/colorwheel/../../../../src/core/lv_obj_style_gen.h **** 
 301:Middlewares/lvgl/src/extra/widgets/colorwheel/../../../../src/core/lv_obj_style_gen.h **** static inline lv_border_side_t lv_obj_get_style_border_side(const struct _lv_obj_t * obj, uint32_t 
ARM GAS  /tmp/ccyILfU7.s 			page 40


 302:Middlewares/lvgl/src/extra/widgets/colorwheel/../../../../src/core/lv_obj_style_gen.h **** {
 303:Middlewares/lvgl/src/extra/widgets/colorwheel/../../../../src/core/lv_obj_style_gen.h ****     lv_style_value_t v = lv_obj_get_style_prop(obj, part, LV_STYLE_BORDER_SIDE);
 304:Middlewares/lvgl/src/extra/widgets/colorwheel/../../../../src/core/lv_obj_style_gen.h ****     return (lv_border_side_t)v.num;
 305:Middlewares/lvgl/src/extra/widgets/colorwheel/../../../../src/core/lv_obj_style_gen.h **** }
 306:Middlewares/lvgl/src/extra/widgets/colorwheel/../../../../src/core/lv_obj_style_gen.h **** 
 307:Middlewares/lvgl/src/extra/widgets/colorwheel/../../../../src/core/lv_obj_style_gen.h **** static inline bool lv_obj_get_style_border_post(const struct _lv_obj_t * obj, uint32_t part)
 308:Middlewares/lvgl/src/extra/widgets/colorwheel/../../../../src/core/lv_obj_style_gen.h **** {
 309:Middlewares/lvgl/src/extra/widgets/colorwheel/../../../../src/core/lv_obj_style_gen.h ****     lv_style_value_t v = lv_obj_get_style_prop(obj, part, LV_STYLE_BORDER_POST);
 310:Middlewares/lvgl/src/extra/widgets/colorwheel/../../../../src/core/lv_obj_style_gen.h ****     return (bool)v.num;
 311:Middlewares/lvgl/src/extra/widgets/colorwheel/../../../../src/core/lv_obj_style_gen.h **** }
 312:Middlewares/lvgl/src/extra/widgets/colorwheel/../../../../src/core/lv_obj_style_gen.h **** 
 313:Middlewares/lvgl/src/extra/widgets/colorwheel/../../../../src/core/lv_obj_style_gen.h **** static inline lv_color_t lv_obj_get_style_text_color(const struct _lv_obj_t * obj, uint32_t part)
 314:Middlewares/lvgl/src/extra/widgets/colorwheel/../../../../src/core/lv_obj_style_gen.h **** {
 315:Middlewares/lvgl/src/extra/widgets/colorwheel/../../../../src/core/lv_obj_style_gen.h ****     lv_style_value_t v = lv_obj_get_style_prop(obj, part, LV_STYLE_TEXT_COLOR);
 316:Middlewares/lvgl/src/extra/widgets/colorwheel/../../../../src/core/lv_obj_style_gen.h ****     return v.color;
 317:Middlewares/lvgl/src/extra/widgets/colorwheel/../../../../src/core/lv_obj_style_gen.h **** }
 318:Middlewares/lvgl/src/extra/widgets/colorwheel/../../../../src/core/lv_obj_style_gen.h **** 
 319:Middlewares/lvgl/src/extra/widgets/colorwheel/../../../../src/core/lv_obj_style_gen.h **** static inline lv_color_t lv_obj_get_style_text_color_filtered(const struct _lv_obj_t * obj, uint32_
 320:Middlewares/lvgl/src/extra/widgets/colorwheel/../../../../src/core/lv_obj_style_gen.h **** {
 321:Middlewares/lvgl/src/extra/widgets/colorwheel/../../../../src/core/lv_obj_style_gen.h ****     lv_style_value_t v = lv_obj_get_style_prop(obj, part, LV_STYLE_TEXT_COLOR_FILTERED);
 322:Middlewares/lvgl/src/extra/widgets/colorwheel/../../../../src/core/lv_obj_style_gen.h ****     return v.color;
 323:Middlewares/lvgl/src/extra/widgets/colorwheel/../../../../src/core/lv_obj_style_gen.h **** }
 324:Middlewares/lvgl/src/extra/widgets/colorwheel/../../../../src/core/lv_obj_style_gen.h **** 
 325:Middlewares/lvgl/src/extra/widgets/colorwheel/../../../../src/core/lv_obj_style_gen.h **** static inline lv_opa_t lv_obj_get_style_text_opa(const struct _lv_obj_t * obj, uint32_t part)
 326:Middlewares/lvgl/src/extra/widgets/colorwheel/../../../../src/core/lv_obj_style_gen.h **** {
 327:Middlewares/lvgl/src/extra/widgets/colorwheel/../../../../src/core/lv_obj_style_gen.h ****     lv_style_value_t v = lv_obj_get_style_prop(obj, part, LV_STYLE_TEXT_OPA);
 328:Middlewares/lvgl/src/extra/widgets/colorwheel/../../../../src/core/lv_obj_style_gen.h ****     return (lv_opa_t)v.num;
 329:Middlewares/lvgl/src/extra/widgets/colorwheel/../../../../src/core/lv_obj_style_gen.h **** }
 330:Middlewares/lvgl/src/extra/widgets/colorwheel/../../../../src/core/lv_obj_style_gen.h **** 
 331:Middlewares/lvgl/src/extra/widgets/colorwheel/../../../../src/core/lv_obj_style_gen.h **** static inline const lv_font_t * lv_obj_get_style_text_font(const struct _lv_obj_t * obj, uint32_t p
 332:Middlewares/lvgl/src/extra/widgets/colorwheel/../../../../src/core/lv_obj_style_gen.h **** {
 333:Middlewares/lvgl/src/extra/widgets/colorwheel/../../../../src/core/lv_obj_style_gen.h ****     lv_style_value_t v = lv_obj_get_style_prop(obj, part, LV_STYLE_TEXT_FONT);
 334:Middlewares/lvgl/src/extra/widgets/colorwheel/../../../../src/core/lv_obj_style_gen.h ****     return (const lv_font_t *)v.ptr;
 335:Middlewares/lvgl/src/extra/widgets/colorwheel/../../../../src/core/lv_obj_style_gen.h **** }
 336:Middlewares/lvgl/src/extra/widgets/colorwheel/../../../../src/core/lv_obj_style_gen.h **** 
 337:Middlewares/lvgl/src/extra/widgets/colorwheel/../../../../src/core/lv_obj_style_gen.h **** static inline lv_coord_t lv_obj_get_style_text_letter_space(const struct _lv_obj_t * obj, uint32_t 
 338:Middlewares/lvgl/src/extra/widgets/colorwheel/../../../../src/core/lv_obj_style_gen.h **** {
 339:Middlewares/lvgl/src/extra/widgets/colorwheel/../../../../src/core/lv_obj_style_gen.h ****     lv_style_value_t v = lv_obj_get_style_prop(obj, part, LV_STYLE_TEXT_LETTER_SPACE);
 340:Middlewares/lvgl/src/extra/widgets/colorwheel/../../../../src/core/lv_obj_style_gen.h ****     return (lv_coord_t)v.num;
 341:Middlewares/lvgl/src/extra/widgets/colorwheel/../../../../src/core/lv_obj_style_gen.h **** }
 342:Middlewares/lvgl/src/extra/widgets/colorwheel/../../../../src/core/lv_obj_style_gen.h **** 
 343:Middlewares/lvgl/src/extra/widgets/colorwheel/../../../../src/core/lv_obj_style_gen.h **** static inline lv_coord_t lv_obj_get_style_text_line_space(const struct _lv_obj_t * obj, uint32_t pa
 344:Middlewares/lvgl/src/extra/widgets/colorwheel/../../../../src/core/lv_obj_style_gen.h **** {
 345:Middlewares/lvgl/src/extra/widgets/colorwheel/../../../../src/core/lv_obj_style_gen.h ****     lv_style_value_t v = lv_obj_get_style_prop(obj, part, LV_STYLE_TEXT_LINE_SPACE);
 346:Middlewares/lvgl/src/extra/widgets/colorwheel/../../../../src/core/lv_obj_style_gen.h ****     return (lv_coord_t)v.num;
 347:Middlewares/lvgl/src/extra/widgets/colorwheel/../../../../src/core/lv_obj_style_gen.h **** }
 348:Middlewares/lvgl/src/extra/widgets/colorwheel/../../../../src/core/lv_obj_style_gen.h **** 
 349:Middlewares/lvgl/src/extra/widgets/colorwheel/../../../../src/core/lv_obj_style_gen.h **** static inline lv_text_decor_t lv_obj_get_style_text_decor(const struct _lv_obj_t * obj, uint32_t pa
 350:Middlewares/lvgl/src/extra/widgets/colorwheel/../../../../src/core/lv_obj_style_gen.h **** {
 351:Middlewares/lvgl/src/extra/widgets/colorwheel/../../../../src/core/lv_obj_style_gen.h ****     lv_style_value_t v = lv_obj_get_style_prop(obj, part, LV_STYLE_TEXT_DECOR);
 352:Middlewares/lvgl/src/extra/widgets/colorwheel/../../../../src/core/lv_obj_style_gen.h ****     return (lv_text_decor_t)v.num;
 353:Middlewares/lvgl/src/extra/widgets/colorwheel/../../../../src/core/lv_obj_style_gen.h **** }
 354:Middlewares/lvgl/src/extra/widgets/colorwheel/../../../../src/core/lv_obj_style_gen.h **** 
 355:Middlewares/lvgl/src/extra/widgets/colorwheel/../../../../src/core/lv_obj_style_gen.h **** static inline lv_text_align_t lv_obj_get_style_text_align(const struct _lv_obj_t * obj, uint32_t pa
 356:Middlewares/lvgl/src/extra/widgets/colorwheel/../../../../src/core/lv_obj_style_gen.h **** {
 357:Middlewares/lvgl/src/extra/widgets/colorwheel/../../../../src/core/lv_obj_style_gen.h ****     lv_style_value_t v = lv_obj_get_style_prop(obj, part, LV_STYLE_TEXT_ALIGN);
 358:Middlewares/lvgl/src/extra/widgets/colorwheel/../../../../src/core/lv_obj_style_gen.h ****     return (lv_text_align_t)v.num;
ARM GAS  /tmp/ccyILfU7.s 			page 41


 359:Middlewares/lvgl/src/extra/widgets/colorwheel/../../../../src/core/lv_obj_style_gen.h **** }
 360:Middlewares/lvgl/src/extra/widgets/colorwheel/../../../../src/core/lv_obj_style_gen.h **** 
 361:Middlewares/lvgl/src/extra/widgets/colorwheel/../../../../src/core/lv_obj_style_gen.h **** static inline lv_opa_t lv_obj_get_style_img_opa(const struct _lv_obj_t * obj, uint32_t part)
 362:Middlewares/lvgl/src/extra/widgets/colorwheel/../../../../src/core/lv_obj_style_gen.h **** {
 363:Middlewares/lvgl/src/extra/widgets/colorwheel/../../../../src/core/lv_obj_style_gen.h ****     lv_style_value_t v = lv_obj_get_style_prop(obj, part, LV_STYLE_IMG_OPA);
 364:Middlewares/lvgl/src/extra/widgets/colorwheel/../../../../src/core/lv_obj_style_gen.h ****     return (lv_opa_t)v.num;
 365:Middlewares/lvgl/src/extra/widgets/colorwheel/../../../../src/core/lv_obj_style_gen.h **** }
 366:Middlewares/lvgl/src/extra/widgets/colorwheel/../../../../src/core/lv_obj_style_gen.h **** 
 367:Middlewares/lvgl/src/extra/widgets/colorwheel/../../../../src/core/lv_obj_style_gen.h **** static inline lv_color_t lv_obj_get_style_img_recolor(const struct _lv_obj_t * obj, uint32_t part)
 368:Middlewares/lvgl/src/extra/widgets/colorwheel/../../../../src/core/lv_obj_style_gen.h **** {
 369:Middlewares/lvgl/src/extra/widgets/colorwheel/../../../../src/core/lv_obj_style_gen.h ****     lv_style_value_t v = lv_obj_get_style_prop(obj, part, LV_STYLE_IMG_RECOLOR);
 370:Middlewares/lvgl/src/extra/widgets/colorwheel/../../../../src/core/lv_obj_style_gen.h ****     return v.color;
 371:Middlewares/lvgl/src/extra/widgets/colorwheel/../../../../src/core/lv_obj_style_gen.h **** }
 372:Middlewares/lvgl/src/extra/widgets/colorwheel/../../../../src/core/lv_obj_style_gen.h **** 
 373:Middlewares/lvgl/src/extra/widgets/colorwheel/../../../../src/core/lv_obj_style_gen.h **** static inline lv_color_t lv_obj_get_style_img_recolor_filtered(const struct _lv_obj_t * obj, uint32
 374:Middlewares/lvgl/src/extra/widgets/colorwheel/../../../../src/core/lv_obj_style_gen.h **** {
 375:Middlewares/lvgl/src/extra/widgets/colorwheel/../../../../src/core/lv_obj_style_gen.h ****     lv_style_value_t v = lv_obj_get_style_prop(obj, part, LV_STYLE_IMG_RECOLOR_FILTERED);
 376:Middlewares/lvgl/src/extra/widgets/colorwheel/../../../../src/core/lv_obj_style_gen.h ****     return v.color;
 377:Middlewares/lvgl/src/extra/widgets/colorwheel/../../../../src/core/lv_obj_style_gen.h **** }
 378:Middlewares/lvgl/src/extra/widgets/colorwheel/../../../../src/core/lv_obj_style_gen.h **** 
 379:Middlewares/lvgl/src/extra/widgets/colorwheel/../../../../src/core/lv_obj_style_gen.h **** static inline lv_opa_t lv_obj_get_style_img_recolor_opa(const struct _lv_obj_t * obj, uint32_t part
 380:Middlewares/lvgl/src/extra/widgets/colorwheel/../../../../src/core/lv_obj_style_gen.h **** {
 381:Middlewares/lvgl/src/extra/widgets/colorwheel/../../../../src/core/lv_obj_style_gen.h ****     lv_style_value_t v = lv_obj_get_style_prop(obj, part, LV_STYLE_IMG_RECOLOR_OPA);
 382:Middlewares/lvgl/src/extra/widgets/colorwheel/../../../../src/core/lv_obj_style_gen.h ****     return (lv_opa_t)v.num;
 383:Middlewares/lvgl/src/extra/widgets/colorwheel/../../../../src/core/lv_obj_style_gen.h **** }
 384:Middlewares/lvgl/src/extra/widgets/colorwheel/../../../../src/core/lv_obj_style_gen.h **** 
 385:Middlewares/lvgl/src/extra/widgets/colorwheel/../../../../src/core/lv_obj_style_gen.h **** static inline lv_coord_t lv_obj_get_style_outline_width(const struct _lv_obj_t * obj, uint32_t part
 386:Middlewares/lvgl/src/extra/widgets/colorwheel/../../../../src/core/lv_obj_style_gen.h **** {
 387:Middlewares/lvgl/src/extra/widgets/colorwheel/../../../../src/core/lv_obj_style_gen.h ****     lv_style_value_t v = lv_obj_get_style_prop(obj, part, LV_STYLE_OUTLINE_WIDTH);
 388:Middlewares/lvgl/src/extra/widgets/colorwheel/../../../../src/core/lv_obj_style_gen.h ****     return (lv_coord_t)v.num;
 389:Middlewares/lvgl/src/extra/widgets/colorwheel/../../../../src/core/lv_obj_style_gen.h **** }
 390:Middlewares/lvgl/src/extra/widgets/colorwheel/../../../../src/core/lv_obj_style_gen.h **** 
 391:Middlewares/lvgl/src/extra/widgets/colorwheel/../../../../src/core/lv_obj_style_gen.h **** static inline lv_color_t lv_obj_get_style_outline_color(const struct _lv_obj_t * obj, uint32_t part
 392:Middlewares/lvgl/src/extra/widgets/colorwheel/../../../../src/core/lv_obj_style_gen.h **** {
 393:Middlewares/lvgl/src/extra/widgets/colorwheel/../../../../src/core/lv_obj_style_gen.h ****     lv_style_value_t v = lv_obj_get_style_prop(obj, part, LV_STYLE_OUTLINE_COLOR);
 394:Middlewares/lvgl/src/extra/widgets/colorwheel/../../../../src/core/lv_obj_style_gen.h ****     return v.color;
 395:Middlewares/lvgl/src/extra/widgets/colorwheel/../../../../src/core/lv_obj_style_gen.h **** }
 396:Middlewares/lvgl/src/extra/widgets/colorwheel/../../../../src/core/lv_obj_style_gen.h **** 
 397:Middlewares/lvgl/src/extra/widgets/colorwheel/../../../../src/core/lv_obj_style_gen.h **** static inline lv_color_t lv_obj_get_style_outline_color_filtered(const struct _lv_obj_t * obj, uint
 398:Middlewares/lvgl/src/extra/widgets/colorwheel/../../../../src/core/lv_obj_style_gen.h **** {
 399:Middlewares/lvgl/src/extra/widgets/colorwheel/../../../../src/core/lv_obj_style_gen.h ****     lv_style_value_t v = lv_obj_get_style_prop(obj, part, LV_STYLE_OUTLINE_COLOR_FILTERED);
 400:Middlewares/lvgl/src/extra/widgets/colorwheel/../../../../src/core/lv_obj_style_gen.h ****     return v.color;
 401:Middlewares/lvgl/src/extra/widgets/colorwheel/../../../../src/core/lv_obj_style_gen.h **** }
 402:Middlewares/lvgl/src/extra/widgets/colorwheel/../../../../src/core/lv_obj_style_gen.h **** 
 403:Middlewares/lvgl/src/extra/widgets/colorwheel/../../../../src/core/lv_obj_style_gen.h **** static inline lv_opa_t lv_obj_get_style_outline_opa(const struct _lv_obj_t * obj, uint32_t part)
 404:Middlewares/lvgl/src/extra/widgets/colorwheel/../../../../src/core/lv_obj_style_gen.h **** {
 405:Middlewares/lvgl/src/extra/widgets/colorwheel/../../../../src/core/lv_obj_style_gen.h ****     lv_style_value_t v = lv_obj_get_style_prop(obj, part, LV_STYLE_OUTLINE_OPA);
 406:Middlewares/lvgl/src/extra/widgets/colorwheel/../../../../src/core/lv_obj_style_gen.h ****     return (lv_opa_t)v.num;
 407:Middlewares/lvgl/src/extra/widgets/colorwheel/../../../../src/core/lv_obj_style_gen.h **** }
 408:Middlewares/lvgl/src/extra/widgets/colorwheel/../../../../src/core/lv_obj_style_gen.h **** 
 409:Middlewares/lvgl/src/extra/widgets/colorwheel/../../../../src/core/lv_obj_style_gen.h **** static inline lv_coord_t lv_obj_get_style_outline_pad(const struct _lv_obj_t * obj, uint32_t part)
 410:Middlewares/lvgl/src/extra/widgets/colorwheel/../../../../src/core/lv_obj_style_gen.h **** {
 411:Middlewares/lvgl/src/extra/widgets/colorwheel/../../../../src/core/lv_obj_style_gen.h ****     lv_style_value_t v = lv_obj_get_style_prop(obj, part, LV_STYLE_OUTLINE_PAD);
 412:Middlewares/lvgl/src/extra/widgets/colorwheel/../../../../src/core/lv_obj_style_gen.h ****     return (lv_coord_t)v.num;
 413:Middlewares/lvgl/src/extra/widgets/colorwheel/../../../../src/core/lv_obj_style_gen.h **** }
 414:Middlewares/lvgl/src/extra/widgets/colorwheel/../../../../src/core/lv_obj_style_gen.h **** 
 415:Middlewares/lvgl/src/extra/widgets/colorwheel/../../../../src/core/lv_obj_style_gen.h **** static inline lv_coord_t lv_obj_get_style_shadow_width(const struct _lv_obj_t * obj, uint32_t part)
ARM GAS  /tmp/ccyILfU7.s 			page 42


 416:Middlewares/lvgl/src/extra/widgets/colorwheel/../../../../src/core/lv_obj_style_gen.h **** {
 417:Middlewares/lvgl/src/extra/widgets/colorwheel/../../../../src/core/lv_obj_style_gen.h ****     lv_style_value_t v = lv_obj_get_style_prop(obj, part, LV_STYLE_SHADOW_WIDTH);
 418:Middlewares/lvgl/src/extra/widgets/colorwheel/../../../../src/core/lv_obj_style_gen.h ****     return (lv_coord_t)v.num;
 419:Middlewares/lvgl/src/extra/widgets/colorwheel/../../../../src/core/lv_obj_style_gen.h **** }
 420:Middlewares/lvgl/src/extra/widgets/colorwheel/../../../../src/core/lv_obj_style_gen.h **** 
 421:Middlewares/lvgl/src/extra/widgets/colorwheel/../../../../src/core/lv_obj_style_gen.h **** static inline lv_coord_t lv_obj_get_style_shadow_ofs_x(const struct _lv_obj_t * obj, uint32_t part)
 422:Middlewares/lvgl/src/extra/widgets/colorwheel/../../../../src/core/lv_obj_style_gen.h **** {
 423:Middlewares/lvgl/src/extra/widgets/colorwheel/../../../../src/core/lv_obj_style_gen.h ****     lv_style_value_t v = lv_obj_get_style_prop(obj, part, LV_STYLE_SHADOW_OFS_X);
 424:Middlewares/lvgl/src/extra/widgets/colorwheel/../../../../src/core/lv_obj_style_gen.h ****     return (lv_coord_t)v.num;
 425:Middlewares/lvgl/src/extra/widgets/colorwheel/../../../../src/core/lv_obj_style_gen.h **** }
 426:Middlewares/lvgl/src/extra/widgets/colorwheel/../../../../src/core/lv_obj_style_gen.h **** 
 427:Middlewares/lvgl/src/extra/widgets/colorwheel/../../../../src/core/lv_obj_style_gen.h **** static inline lv_coord_t lv_obj_get_style_shadow_ofs_y(const struct _lv_obj_t * obj, uint32_t part)
 428:Middlewares/lvgl/src/extra/widgets/colorwheel/../../../../src/core/lv_obj_style_gen.h **** {
 429:Middlewares/lvgl/src/extra/widgets/colorwheel/../../../../src/core/lv_obj_style_gen.h ****     lv_style_value_t v = lv_obj_get_style_prop(obj, part, LV_STYLE_SHADOW_OFS_Y);
 430:Middlewares/lvgl/src/extra/widgets/colorwheel/../../../../src/core/lv_obj_style_gen.h ****     return (lv_coord_t)v.num;
 431:Middlewares/lvgl/src/extra/widgets/colorwheel/../../../../src/core/lv_obj_style_gen.h **** }
 432:Middlewares/lvgl/src/extra/widgets/colorwheel/../../../../src/core/lv_obj_style_gen.h **** 
 433:Middlewares/lvgl/src/extra/widgets/colorwheel/../../../../src/core/lv_obj_style_gen.h **** static inline lv_coord_t lv_obj_get_style_shadow_spread(const struct _lv_obj_t * obj, uint32_t part
 434:Middlewares/lvgl/src/extra/widgets/colorwheel/../../../../src/core/lv_obj_style_gen.h **** {
 435:Middlewares/lvgl/src/extra/widgets/colorwheel/../../../../src/core/lv_obj_style_gen.h ****     lv_style_value_t v = lv_obj_get_style_prop(obj, part, LV_STYLE_SHADOW_SPREAD);
 436:Middlewares/lvgl/src/extra/widgets/colorwheel/../../../../src/core/lv_obj_style_gen.h ****     return (lv_coord_t)v.num;
 437:Middlewares/lvgl/src/extra/widgets/colorwheel/../../../../src/core/lv_obj_style_gen.h **** }
 438:Middlewares/lvgl/src/extra/widgets/colorwheel/../../../../src/core/lv_obj_style_gen.h **** 
 439:Middlewares/lvgl/src/extra/widgets/colorwheel/../../../../src/core/lv_obj_style_gen.h **** static inline lv_color_t lv_obj_get_style_shadow_color(const struct _lv_obj_t * obj, uint32_t part)
 440:Middlewares/lvgl/src/extra/widgets/colorwheel/../../../../src/core/lv_obj_style_gen.h **** {
 441:Middlewares/lvgl/src/extra/widgets/colorwheel/../../../../src/core/lv_obj_style_gen.h ****     lv_style_value_t v = lv_obj_get_style_prop(obj, part, LV_STYLE_SHADOW_COLOR);
 442:Middlewares/lvgl/src/extra/widgets/colorwheel/../../../../src/core/lv_obj_style_gen.h ****     return v.color;
 443:Middlewares/lvgl/src/extra/widgets/colorwheel/../../../../src/core/lv_obj_style_gen.h **** }
 444:Middlewares/lvgl/src/extra/widgets/colorwheel/../../../../src/core/lv_obj_style_gen.h **** 
 445:Middlewares/lvgl/src/extra/widgets/colorwheel/../../../../src/core/lv_obj_style_gen.h **** static inline lv_color_t lv_obj_get_style_shadow_color_filtered(const struct _lv_obj_t * obj, uint3
 446:Middlewares/lvgl/src/extra/widgets/colorwheel/../../../../src/core/lv_obj_style_gen.h **** {
 447:Middlewares/lvgl/src/extra/widgets/colorwheel/../../../../src/core/lv_obj_style_gen.h ****     lv_style_value_t v = lv_obj_get_style_prop(obj, part, LV_STYLE_SHADOW_COLOR_FILTERED);
 448:Middlewares/lvgl/src/extra/widgets/colorwheel/../../../../src/core/lv_obj_style_gen.h ****     return v.color;
 449:Middlewares/lvgl/src/extra/widgets/colorwheel/../../../../src/core/lv_obj_style_gen.h **** }
 450:Middlewares/lvgl/src/extra/widgets/colorwheel/../../../../src/core/lv_obj_style_gen.h **** 
 451:Middlewares/lvgl/src/extra/widgets/colorwheel/../../../../src/core/lv_obj_style_gen.h **** static inline lv_opa_t lv_obj_get_style_shadow_opa(const struct _lv_obj_t * obj, uint32_t part)
 452:Middlewares/lvgl/src/extra/widgets/colorwheel/../../../../src/core/lv_obj_style_gen.h **** {
 453:Middlewares/lvgl/src/extra/widgets/colorwheel/../../../../src/core/lv_obj_style_gen.h ****     lv_style_value_t v = lv_obj_get_style_prop(obj, part, LV_STYLE_SHADOW_OPA);
 454:Middlewares/lvgl/src/extra/widgets/colorwheel/../../../../src/core/lv_obj_style_gen.h ****     return (lv_opa_t)v.num;
 455:Middlewares/lvgl/src/extra/widgets/colorwheel/../../../../src/core/lv_obj_style_gen.h **** }
 456:Middlewares/lvgl/src/extra/widgets/colorwheel/../../../../src/core/lv_obj_style_gen.h **** 
 457:Middlewares/lvgl/src/extra/widgets/colorwheel/../../../../src/core/lv_obj_style_gen.h **** static inline lv_coord_t lv_obj_get_style_line_width(const struct _lv_obj_t * obj, uint32_t part)
 458:Middlewares/lvgl/src/extra/widgets/colorwheel/../../../../src/core/lv_obj_style_gen.h **** {
 459:Middlewares/lvgl/src/extra/widgets/colorwheel/../../../../src/core/lv_obj_style_gen.h ****     lv_style_value_t v = lv_obj_get_style_prop(obj, part, LV_STYLE_LINE_WIDTH);
 460:Middlewares/lvgl/src/extra/widgets/colorwheel/../../../../src/core/lv_obj_style_gen.h ****     return (lv_coord_t)v.num;
 461:Middlewares/lvgl/src/extra/widgets/colorwheel/../../../../src/core/lv_obj_style_gen.h **** }
 462:Middlewares/lvgl/src/extra/widgets/colorwheel/../../../../src/core/lv_obj_style_gen.h **** 
 463:Middlewares/lvgl/src/extra/widgets/colorwheel/../../../../src/core/lv_obj_style_gen.h **** static inline lv_coord_t lv_obj_get_style_line_dash_width(const struct _lv_obj_t * obj, uint32_t pa
 464:Middlewares/lvgl/src/extra/widgets/colorwheel/../../../../src/core/lv_obj_style_gen.h **** {
 465:Middlewares/lvgl/src/extra/widgets/colorwheel/../../../../src/core/lv_obj_style_gen.h ****     lv_style_value_t v = lv_obj_get_style_prop(obj, part, LV_STYLE_LINE_DASH_WIDTH);
 466:Middlewares/lvgl/src/extra/widgets/colorwheel/../../../../src/core/lv_obj_style_gen.h ****     return (lv_coord_t)v.num;
 467:Middlewares/lvgl/src/extra/widgets/colorwheel/../../../../src/core/lv_obj_style_gen.h **** }
 468:Middlewares/lvgl/src/extra/widgets/colorwheel/../../../../src/core/lv_obj_style_gen.h **** 
 469:Middlewares/lvgl/src/extra/widgets/colorwheel/../../../../src/core/lv_obj_style_gen.h **** static inline lv_coord_t lv_obj_get_style_line_dash_gap(const struct _lv_obj_t * obj, uint32_t part
 470:Middlewares/lvgl/src/extra/widgets/colorwheel/../../../../src/core/lv_obj_style_gen.h **** {
 471:Middlewares/lvgl/src/extra/widgets/colorwheel/../../../../src/core/lv_obj_style_gen.h ****     lv_style_value_t v = lv_obj_get_style_prop(obj, part, LV_STYLE_LINE_DASH_GAP);
 472:Middlewares/lvgl/src/extra/widgets/colorwheel/../../../../src/core/lv_obj_style_gen.h ****     return (lv_coord_t)v.num;
ARM GAS  /tmp/ccyILfU7.s 			page 43


 473:Middlewares/lvgl/src/extra/widgets/colorwheel/../../../../src/core/lv_obj_style_gen.h **** }
 474:Middlewares/lvgl/src/extra/widgets/colorwheel/../../../../src/core/lv_obj_style_gen.h **** 
 475:Middlewares/lvgl/src/extra/widgets/colorwheel/../../../../src/core/lv_obj_style_gen.h **** static inline lv_coord_t lv_obj_get_style_line_rounded(const struct _lv_obj_t * obj, uint32_t part)
 476:Middlewares/lvgl/src/extra/widgets/colorwheel/../../../../src/core/lv_obj_style_gen.h **** {
 477:Middlewares/lvgl/src/extra/widgets/colorwheel/../../../../src/core/lv_obj_style_gen.h ****     lv_style_value_t v = lv_obj_get_style_prop(obj, part, LV_STYLE_LINE_ROUNDED);
 478:Middlewares/lvgl/src/extra/widgets/colorwheel/../../../../src/core/lv_obj_style_gen.h ****     return (lv_coord_t)v.num;
 479:Middlewares/lvgl/src/extra/widgets/colorwheel/../../../../src/core/lv_obj_style_gen.h **** }
 480:Middlewares/lvgl/src/extra/widgets/colorwheel/../../../../src/core/lv_obj_style_gen.h **** 
 481:Middlewares/lvgl/src/extra/widgets/colorwheel/../../../../src/core/lv_obj_style_gen.h **** static inline lv_color_t lv_obj_get_style_line_color(const struct _lv_obj_t * obj, uint32_t part)
 482:Middlewares/lvgl/src/extra/widgets/colorwheel/../../../../src/core/lv_obj_style_gen.h **** {
 483:Middlewares/lvgl/src/extra/widgets/colorwheel/../../../../src/core/lv_obj_style_gen.h ****     lv_style_value_t v = lv_obj_get_style_prop(obj, part, LV_STYLE_LINE_COLOR);
 484:Middlewares/lvgl/src/extra/widgets/colorwheel/../../../../src/core/lv_obj_style_gen.h ****     return v.color;
 485:Middlewares/lvgl/src/extra/widgets/colorwheel/../../../../src/core/lv_obj_style_gen.h **** }
 486:Middlewares/lvgl/src/extra/widgets/colorwheel/../../../../src/core/lv_obj_style_gen.h **** 
 487:Middlewares/lvgl/src/extra/widgets/colorwheel/../../../../src/core/lv_obj_style_gen.h **** static inline lv_color_t lv_obj_get_style_line_color_filtered(const struct _lv_obj_t * obj, uint32_
 488:Middlewares/lvgl/src/extra/widgets/colorwheel/../../../../src/core/lv_obj_style_gen.h **** {
 489:Middlewares/lvgl/src/extra/widgets/colorwheel/../../../../src/core/lv_obj_style_gen.h ****     lv_style_value_t v = lv_obj_get_style_prop(obj, part, LV_STYLE_LINE_COLOR_FILTERED);
 490:Middlewares/lvgl/src/extra/widgets/colorwheel/../../../../src/core/lv_obj_style_gen.h ****     return v.color;
 491:Middlewares/lvgl/src/extra/widgets/colorwheel/../../../../src/core/lv_obj_style_gen.h **** }
 492:Middlewares/lvgl/src/extra/widgets/colorwheel/../../../../src/core/lv_obj_style_gen.h **** 
 493:Middlewares/lvgl/src/extra/widgets/colorwheel/../../../../src/core/lv_obj_style_gen.h **** static inline lv_opa_t lv_obj_get_style_line_opa(const struct _lv_obj_t * obj, uint32_t part)
 494:Middlewares/lvgl/src/extra/widgets/colorwheel/../../../../src/core/lv_obj_style_gen.h **** {
 495:Middlewares/lvgl/src/extra/widgets/colorwheel/../../../../src/core/lv_obj_style_gen.h ****     lv_style_value_t v = lv_obj_get_style_prop(obj, part, LV_STYLE_LINE_OPA);
 496:Middlewares/lvgl/src/extra/widgets/colorwheel/../../../../src/core/lv_obj_style_gen.h ****     return (lv_opa_t)v.num;
 497:Middlewares/lvgl/src/extra/widgets/colorwheel/../../../../src/core/lv_obj_style_gen.h **** }
 498:Middlewares/lvgl/src/extra/widgets/colorwheel/../../../../src/core/lv_obj_style_gen.h **** 
 499:Middlewares/lvgl/src/extra/widgets/colorwheel/../../../../src/core/lv_obj_style_gen.h **** static inline lv_coord_t lv_obj_get_style_arc_width(const struct _lv_obj_t * obj, uint32_t part)
 582              		.loc 3 499 26 view .LVU174
 583              	.LBB53:
 500:Middlewares/lvgl/src/extra/widgets/colorwheel/../../../../src/core/lv_obj_style_gen.h **** {
 501:Middlewares/lvgl/src/extra/widgets/colorwheel/../../../../src/core/lv_obj_style_gen.h ****     lv_style_value_t v = lv_obj_get_style_prop(obj, part, LV_STYLE_ARC_WIDTH);
 584              		.loc 3 501 5 view .LVU175
 585              		.loc 3 501 26 is_stmt 0 view .LVU176
 586 0008 4FF40562 		mov	r2, #2128
 587 000c 0021     		movs	r1, #0
 588              	.LVL54:
 589              		.loc 3 501 26 view .LVU177
 590 000e 2046     		mov	r0, r4
 591              	.LVL55:
 592              		.loc 3 501 26 view .LVU178
 593 0010 FFF7FEFF 		bl	lv_obj_get_style_prop
 594              	.LVL56:
 502:Middlewares/lvgl/src/extra/widgets/colorwheel/../../../../src/core/lv_obj_style_gen.h ****     return (lv_coord_t)v.num;
 595              		.loc 3 502 5 is_stmt 1 view .LVU179
 596              		.loc 3 502 5 is_stmt 0 view .LVU180
 597              	.LBE53:
 598              	.LBE52:
 329:Middlewares/lvgl/src/extra/widgets/colorwheel/lv_colorwheel.c **** 
 599              		.loc 1 329 7 view .LVU181
 600 0014 C0F3C033 		ubfx	r3, r0, #15, #1
 601 0018 03FA80F3 		sxtah	r3, r3, r0
 602 001c C3F34F05 		ubfx	r5, r3, #1, #16
 603              	.LVL57:
 331:Middlewares/lvgl/src/extra/widgets/colorwheel/lv_colorwheel.c ****     lv_coord_t right = lv_obj_get_style_pad_right(obj, LV_PART_KNOB);
 604              		.loc 1 331 5 is_stmt 1 view .LVU182
 605              	.LBB54:
 606              	.LBI54:
ARM GAS  /tmp/ccyILfU7.s 			page 44


 103:Middlewares/lvgl/src/extra/widgets/colorwheel/../../../../src/core/lv_obj_style_gen.h **** {
 607              		.loc 3 103 26 view .LVU183
 608              	.LBB55:
 105:Middlewares/lvgl/src/extra/widgets/colorwheel/../../../../src/core/lv_obj_style_gen.h ****     return (lv_coord_t)v.num;
 609              		.loc 3 105 5 view .LVU184
 105:Middlewares/lvgl/src/extra/widgets/colorwheel/../../../../src/core/lv_obj_style_gen.h ****     return (lv_coord_t)v.num;
 610              		.loc 3 105 26 is_stmt 0 view .LVU185
 611 0020 41F21202 		movw	r2, #4114
 612 0024 4FF44031 		mov	r1, #196608
 613 0028 2046     		mov	r0, r4
 614 002a FFF7FEFF 		bl	lv_obj_get_style_prop
 615              	.LVL58:
 616 002e 8146     		mov	r9, r0
 617              	.LVL59:
 106:Middlewares/lvgl/src/extra/widgets/colorwheel/../../../../src/core/lv_obj_style_gen.h **** }
 618              		.loc 3 106 5 is_stmt 1 view .LVU186
 106:Middlewares/lvgl/src/extra/widgets/colorwheel/../../../../src/core/lv_obj_style_gen.h **** }
 619              		.loc 3 106 5 is_stmt 0 view .LVU187
 620              	.LBE55:
 621              	.LBE54:
 332:Middlewares/lvgl/src/extra/widgets/colorwheel/lv_colorwheel.c ****     lv_coord_t top = lv_obj_get_style_pad_top(obj, LV_PART_KNOB);
 622              		.loc 1 332 5 is_stmt 1 view .LVU188
 623              	.LBB56:
 624              	.LBI56:
 109:Middlewares/lvgl/src/extra/widgets/colorwheel/../../../../src/core/lv_obj_style_gen.h **** {
 625              		.loc 3 109 26 view .LVU189
 626              	.LBB57:
 111:Middlewares/lvgl/src/extra/widgets/colorwheel/../../../../src/core/lv_obj_style_gen.h ****     return (lv_coord_t)v.num;
 627              		.loc 3 111 5 view .LVU190
 111:Middlewares/lvgl/src/extra/widgets/colorwheel/../../../../src/core/lv_obj_style_gen.h ****     return (lv_coord_t)v.num;
 628              		.loc 3 111 26 is_stmt 0 view .LVU191
 629 0030 41F21302 		movw	r2, #4115
 630 0034 4FF44031 		mov	r1, #196608
 631 0038 2046     		mov	r0, r4
 632 003a FFF7FEFF 		bl	lv_obj_get_style_prop
 633              	.LVL60:
 634 003e 8046     		mov	r8, r0
 635              	.LVL61:
 112:Middlewares/lvgl/src/extra/widgets/colorwheel/../../../../src/core/lv_obj_style_gen.h **** }
 636              		.loc 3 112 5 is_stmt 1 view .LVU192
