ARM GAS  /tmp/ccsQASY8.s 			page 1


   1              		.cpu cortex-m4
   2              		.eabi_attribute 27, 1
   3              		.eabi_attribute 28, 1
   4              		.eabi_attribute 20, 1
   5              		.eabi_attribute 21, 1
   6              		.eabi_attribute 23, 3
   7              		.eabi_attribute 24, 1
   8              		.eabi_attribute 25, 1
   9              		.eabi_attribute 26, 1
  10              		.eabi_attribute 30, 1
  11              		.eabi_attribute 34, 1
  12              		.eabi_attribute 18, 4
  13              		.file	"lv_example_btn_1.c"
  14              		.text
  15              	.Ltext0:
  16              		.cfi_sections	.debug_frame
  17              		.section	.rodata.event_handler.str1.4,"aMS",%progbits,1
  18              		.align	2
  19              	.LC0:
  20 0000 636C6963 		.ascii	"clicked\015\000"
  20      6B65640D 
  20      00
  21 0009 000000   		.align	2
  22              	.LC1:
  23 000c 746F6767 		.ascii	"toggled\015\000"
  23      6C65640D 
  23      00
  24              		.section	.text.event_handler,"ax",%progbits
  25              		.align	1
  26              		.arch armv7e-m
  27              		.syntax unified
  28              		.thumb
  29              		.thumb_func
  30              		.fpu fpv4-sp-d16
  32              	event_handler:
  33              	.LVL0:
  34              	.LFB187:
  35              		.file 1 "Middlewares/lvgl/examples/widgets/btn/lv_example_btn_1.c"
   1:Middlewares/lvgl/examples/widgets/btn/lv_example_btn_1.c **** #include "../../lv_examples.h"
   2:Middlewares/lvgl/examples/widgets/btn/lv_example_btn_1.c **** #include <stdio.h>
   3:Middlewares/lvgl/examples/widgets/btn/lv_example_btn_1.c **** 
   4:Middlewares/lvgl/examples/widgets/btn/lv_example_btn_1.c **** #if LV_USE_BTN && LV_BUILD_EXAMPLES
   5:Middlewares/lvgl/examples/widgets/btn/lv_example_btn_1.c **** 
   6:Middlewares/lvgl/examples/widgets/btn/lv_example_btn_1.c **** static void event_handler(lv_event_t * e)
   7:Middlewares/lvgl/examples/widgets/btn/lv_example_btn_1.c **** {
  36              		.loc 1 7 1 view -0
  37              		.cfi_startproc
  38              		@ args = 0, pretend = 0, frame = 0
  39              		@ frame_needed = 0, uses_anonymous_args = 0
  40              		.loc 1 7 1 is_stmt 0 view .LVU1
  41 0000 08B5     		push	{r3, lr}
  42              	.LCFI0:
  43              		.cfi_def_cfa_offset 8
  44              		.cfi_offset 3, -8
  45              		.cfi_offset 14, -4
   8:Middlewares/lvgl/examples/widgets/btn/lv_example_btn_1.c ****     lv_event_code_t code = lv_event_get_code(e);
  46              		.loc 1 8 5 is_stmt 1 view .LVU2
ARM GAS  /tmp/ccsQASY8.s 			page 2


  47              		.loc 1 8 28 is_stmt 0 view .LVU3
  48 0002 FFF7FEFF 		bl	lv_event_get_code
  49              	.LVL1:
   9:Middlewares/lvgl/examples/widgets/btn/lv_example_btn_1.c **** 
  10:Middlewares/lvgl/examples/widgets/btn/lv_example_btn_1.c ****     if(code == LV_EVENT_CLICKED) {
  50              		.loc 1 10 5 is_stmt 1 view .LVU4
  51              		.loc 1 10 7 is_stmt 0 view .LVU5
  52 0006 0728     		cmp	r0, #7
  53 0008 02D0     		beq	.L5
  11:Middlewares/lvgl/examples/widgets/btn/lv_example_btn_1.c ****         LV_LOG_USER("Clicked");
  12:Middlewares/lvgl/examples/widgets/btn/lv_example_btn_1.c ****         printf("clicked\r\n");
  13:Middlewares/lvgl/examples/widgets/btn/lv_example_btn_1.c ****     }
  14:Middlewares/lvgl/examples/widgets/btn/lv_example_btn_1.c ****     else if(code == LV_EVENT_VALUE_CHANGED) {
  54              		.loc 1 14 10 is_stmt 1 view .LVU6
  55              		.loc 1 14 12 is_stmt 0 view .LVU7
  56 000a 1C28     		cmp	r0, #28
  57 000c 04D0     		beq	.L6
  58              	.LVL2:
  59              	.L1:
  15:Middlewares/lvgl/examples/widgets/btn/lv_example_btn_1.c ****         LV_LOG_USER("Toggled");
  16:Middlewares/lvgl/examples/widgets/btn/lv_example_btn_1.c ****         printf("toggled\r\n");
  17:Middlewares/lvgl/examples/widgets/btn/lv_example_btn_1.c ****     }
  18:Middlewares/lvgl/examples/widgets/btn/lv_example_btn_1.c **** }
  60              		.loc 1 18 1 view .LVU8
  61 000e 08BD     		pop	{r3, pc}
  62              	.LVL3:
  63              	.L5:
  11:Middlewares/lvgl/examples/widgets/btn/lv_example_btn_1.c ****         LV_LOG_USER("Clicked");
  64              		.loc 1 11 31 is_stmt 1 view .LVU9
  12:Middlewares/lvgl/examples/widgets/btn/lv_example_btn_1.c ****     }
  65              		.loc 1 12 9 view .LVU10
  66 0010 0348     		ldr	r0, .L7
  67              	.LVL4:
  12:Middlewares/lvgl/examples/widgets/btn/lv_example_btn_1.c ****     }
  68              		.loc 1 12 9 is_stmt 0 view .LVU11
  69 0012 FFF7FEFF 		bl	puts
  70              	.LVL5:
  71 0016 FAE7     		b	.L1
  72              	.LVL6:
  73              	.L6:
  15:Middlewares/lvgl/examples/widgets/btn/lv_example_btn_1.c ****         LV_LOG_USER("Toggled");
  74              		.loc 1 15 31 is_stmt 1 view .LVU12
  16:Middlewares/lvgl/examples/widgets/btn/lv_example_btn_1.c ****     }
  75              		.loc 1 16 9 view .LVU13
  76 0018 0248     		ldr	r0, .L7+4
  77              	.LVL7:
  16:Middlewares/lvgl/examples/widgets/btn/lv_example_btn_1.c ****     }
  78              		.loc 1 16 9 is_stmt 0 view .LVU14
  79 001a FFF7FEFF 		bl	puts
  80              	.LVL8:
  81              		.loc 1 18 1 view .LVU15
  82 001e F6E7     		b	.L1
  83              	.L8:
  84              		.align	2
  85              	.L7:
  86 0020 00000000 		.word	.LC0
  87 0024 0C000000 		.word	.LC1
ARM GAS  /tmp/ccsQASY8.s 			page 3


  88              		.cfi_endproc
  89              	.LFE187:
  91              		.section	.rodata.lv_example_btn_1.str1.4,"aMS",%progbits,1
  92              		.align	2
  93              	.LC2:
  94 0000 42757474 		.ascii	"Button\000"
  94      6F6E00
  95 0007 00       		.align	2
  96              	.LC3:
  97 0008 546F6767 		.ascii	"Toggle\000"
  97      6C6500
  98              		.section	.text.lv_example_btn_1,"ax",%progbits
  99              		.align	1
 100              		.global	lv_example_btn_1
 101              		.syntax unified
 102              		.thumb
 103              		.thumb_func
 104              		.fpu fpv4-sp-d16
 106              	lv_example_btn_1:
 107              	.LFB188:
  19:Middlewares/lvgl/examples/widgets/btn/lv_example_btn_1.c **** 
  20:Middlewares/lvgl/examples/widgets/btn/lv_example_btn_1.c **** void lv_example_btn_1(void)
  21:Middlewares/lvgl/examples/widgets/btn/lv_example_btn_1.c **** {
 108              		.loc 1 21 1 is_stmt 1 view -0
 109              		.cfi_startproc
 110              		@ args = 0, pretend = 0, frame = 0
 111              		@ frame_needed = 0, uses_anonymous_args = 0
 112 0000 38B5     		push	{r3, r4, r5, lr}
 113              	.LCFI1:
 114              		.cfi_def_cfa_offset 16
 115              		.cfi_offset 3, -16
 116              		.cfi_offset 4, -12
 117              		.cfi_offset 5, -8
 118              		.cfi_offset 14, -4
  22:Middlewares/lvgl/examples/widgets/btn/lv_example_btn_1.c ****     lv_obj_t * label;
 119              		.loc 1 22 5 view .LVU17
  23:Middlewares/lvgl/examples/widgets/btn/lv_example_btn_1.c **** 
  24:Middlewares/lvgl/examples/widgets/btn/lv_example_btn_1.c ****     lv_obj_t * btn1 = lv_btn_create(lv_scr_act());
 120              		.loc 1 24 5 view .LVU18
 121              	.LBB14:
 122              	.LBI14:
 123              		.file 2 "Middlewares/lvgl/examples/widgets/btn/../../../src/core/lv_disp.h"
   1:Middlewares/lvgl/examples/widgets/btn/../../../src/core/lv_disp.h **** /**
   2:Middlewares/lvgl/examples/widgets/btn/../../../src/core/lv_disp.h ****  * @file lv_disp.h
   3:Middlewares/lvgl/examples/widgets/btn/../../../src/core/lv_disp.h ****  *
   4:Middlewares/lvgl/examples/widgets/btn/../../../src/core/lv_disp.h ****  */
   5:Middlewares/lvgl/examples/widgets/btn/../../../src/core/lv_disp.h **** 
   6:Middlewares/lvgl/examples/widgets/btn/../../../src/core/lv_disp.h **** #ifndef LV_DISP_H
   7:Middlewares/lvgl/examples/widgets/btn/../../../src/core/lv_disp.h **** #define LV_DISP_H
   8:Middlewares/lvgl/examples/widgets/btn/../../../src/core/lv_disp.h **** 
   9:Middlewares/lvgl/examples/widgets/btn/../../../src/core/lv_disp.h **** #ifdef __cplusplus
  10:Middlewares/lvgl/examples/widgets/btn/../../../src/core/lv_disp.h **** extern "C" {
  11:Middlewares/lvgl/examples/widgets/btn/../../../src/core/lv_disp.h **** #endif
  12:Middlewares/lvgl/examples/widgets/btn/../../../src/core/lv_disp.h **** 
  13:Middlewares/lvgl/examples/widgets/btn/../../../src/core/lv_disp.h **** /*********************
  14:Middlewares/lvgl/examples/widgets/btn/../../../src/core/lv_disp.h ****  *      INCLUDES
  15:Middlewares/lvgl/examples/widgets/btn/../../../src/core/lv_disp.h ****  *********************/
ARM GAS  /tmp/ccsQASY8.s 			page 4


  16:Middlewares/lvgl/examples/widgets/btn/../../../src/core/lv_disp.h **** #include "../hal/lv_hal.h"
  17:Middlewares/lvgl/examples/widgets/btn/../../../src/core/lv_disp.h **** #include "lv_obj.h"
  18:Middlewares/lvgl/examples/widgets/btn/../../../src/core/lv_disp.h **** #include "lv_theme.h"
  19:Middlewares/lvgl/examples/widgets/btn/../../../src/core/lv_disp.h **** 
  20:Middlewares/lvgl/examples/widgets/btn/../../../src/core/lv_disp.h **** /*********************
  21:Middlewares/lvgl/examples/widgets/btn/../../../src/core/lv_disp.h ****  *      DEFINES
  22:Middlewares/lvgl/examples/widgets/btn/../../../src/core/lv_disp.h ****  *********************/
  23:Middlewares/lvgl/examples/widgets/btn/../../../src/core/lv_disp.h **** 
  24:Middlewares/lvgl/examples/widgets/btn/../../../src/core/lv_disp.h **** /**********************
  25:Middlewares/lvgl/examples/widgets/btn/../../../src/core/lv_disp.h ****  *      TYPEDEFS
  26:Middlewares/lvgl/examples/widgets/btn/../../../src/core/lv_disp.h ****  **********************/
  27:Middlewares/lvgl/examples/widgets/btn/../../../src/core/lv_disp.h **** 
  28:Middlewares/lvgl/examples/widgets/btn/../../../src/core/lv_disp.h **** typedef enum {
  29:Middlewares/lvgl/examples/widgets/btn/../../../src/core/lv_disp.h ****     LV_SCR_LOAD_ANIM_NONE,
  30:Middlewares/lvgl/examples/widgets/btn/../../../src/core/lv_disp.h ****     LV_SCR_LOAD_ANIM_OVER_LEFT,
  31:Middlewares/lvgl/examples/widgets/btn/../../../src/core/lv_disp.h ****     LV_SCR_LOAD_ANIM_OVER_RIGHT,
  32:Middlewares/lvgl/examples/widgets/btn/../../../src/core/lv_disp.h ****     LV_SCR_LOAD_ANIM_OVER_TOP,
  33:Middlewares/lvgl/examples/widgets/btn/../../../src/core/lv_disp.h ****     LV_SCR_LOAD_ANIM_OVER_BOTTOM,
  34:Middlewares/lvgl/examples/widgets/btn/../../../src/core/lv_disp.h ****     LV_SCR_LOAD_ANIM_MOVE_LEFT,
  35:Middlewares/lvgl/examples/widgets/btn/../../../src/core/lv_disp.h ****     LV_SCR_LOAD_ANIM_MOVE_RIGHT,
  36:Middlewares/lvgl/examples/widgets/btn/../../../src/core/lv_disp.h ****     LV_SCR_LOAD_ANIM_MOVE_TOP,
  37:Middlewares/lvgl/examples/widgets/btn/../../../src/core/lv_disp.h ****     LV_SCR_LOAD_ANIM_MOVE_BOTTOM,
  38:Middlewares/lvgl/examples/widgets/btn/../../../src/core/lv_disp.h ****     LV_SCR_LOAD_ANIM_FADE_ON,
  39:Middlewares/lvgl/examples/widgets/btn/../../../src/core/lv_disp.h **** } lv_scr_load_anim_t;
  40:Middlewares/lvgl/examples/widgets/btn/../../../src/core/lv_disp.h **** 
  41:Middlewares/lvgl/examples/widgets/btn/../../../src/core/lv_disp.h **** /**********************
  42:Middlewares/lvgl/examples/widgets/btn/../../../src/core/lv_disp.h ****  * GLOBAL PROTOTYPES
  43:Middlewares/lvgl/examples/widgets/btn/../../../src/core/lv_disp.h ****  **********************/
  44:Middlewares/lvgl/examples/widgets/btn/../../../src/core/lv_disp.h **** 
  45:Middlewares/lvgl/examples/widgets/btn/../../../src/core/lv_disp.h **** /**
  46:Middlewares/lvgl/examples/widgets/btn/../../../src/core/lv_disp.h ****  * Return with a pointer to the active screen
  47:Middlewares/lvgl/examples/widgets/btn/../../../src/core/lv_disp.h ****  * @param disp pointer to display which active screen should be get. (NULL to use the default
  48:Middlewares/lvgl/examples/widgets/btn/../../../src/core/lv_disp.h ****  * screen)
  49:Middlewares/lvgl/examples/widgets/btn/../../../src/core/lv_disp.h ****  * @return pointer to the active screen object (loaded by 'lv_scr_load()')
  50:Middlewares/lvgl/examples/widgets/btn/../../../src/core/lv_disp.h ****  */
  51:Middlewares/lvgl/examples/widgets/btn/../../../src/core/lv_disp.h **** lv_obj_t * lv_disp_get_scr_act(lv_disp_t * disp);
  52:Middlewares/lvgl/examples/widgets/btn/../../../src/core/lv_disp.h **** 
  53:Middlewares/lvgl/examples/widgets/btn/../../../src/core/lv_disp.h **** /**
  54:Middlewares/lvgl/examples/widgets/btn/../../../src/core/lv_disp.h ****  * Return with a pointer to the previous screen. Only used during screen transitions.
  55:Middlewares/lvgl/examples/widgets/btn/../../../src/core/lv_disp.h ****  * @param disp pointer to display which previous screen should be get. (NULL to use the default
  56:Middlewares/lvgl/examples/widgets/btn/../../../src/core/lv_disp.h ****  * screen)
  57:Middlewares/lvgl/examples/widgets/btn/../../../src/core/lv_disp.h ****  * @return pointer to the previous screen object or NULL if not used now
  58:Middlewares/lvgl/examples/widgets/btn/../../../src/core/lv_disp.h ****  */
  59:Middlewares/lvgl/examples/widgets/btn/../../../src/core/lv_disp.h **** lv_obj_t * lv_disp_get_scr_prev(lv_disp_t * disp);
  60:Middlewares/lvgl/examples/widgets/btn/../../../src/core/lv_disp.h **** 
  61:Middlewares/lvgl/examples/widgets/btn/../../../src/core/lv_disp.h **** /**
  62:Middlewares/lvgl/examples/widgets/btn/../../../src/core/lv_disp.h ****  * Make a screen active
  63:Middlewares/lvgl/examples/widgets/btn/../../../src/core/lv_disp.h ****  * @param scr pointer to a screen
  64:Middlewares/lvgl/examples/widgets/btn/../../../src/core/lv_disp.h ****  */
  65:Middlewares/lvgl/examples/widgets/btn/../../../src/core/lv_disp.h **** void lv_disp_load_scr(lv_obj_t * scr);
  66:Middlewares/lvgl/examples/widgets/btn/../../../src/core/lv_disp.h **** 
  67:Middlewares/lvgl/examples/widgets/btn/../../../src/core/lv_disp.h **** /**
  68:Middlewares/lvgl/examples/widgets/btn/../../../src/core/lv_disp.h ****  * Return with the top layer. (Same on every screen and it is above the normal screen layer)
  69:Middlewares/lvgl/examples/widgets/btn/../../../src/core/lv_disp.h ****  * @param disp pointer to display which top layer should be get. (NULL to use the default screen)
  70:Middlewares/lvgl/examples/widgets/btn/../../../src/core/lv_disp.h ****  * @return pointer to the top layer object  (transparent screen sized lv_obj)
  71:Middlewares/lvgl/examples/widgets/btn/../../../src/core/lv_disp.h ****  */
  72:Middlewares/lvgl/examples/widgets/btn/../../../src/core/lv_disp.h **** lv_obj_t * lv_disp_get_layer_top(lv_disp_t * disp);
ARM GAS  /tmp/ccsQASY8.s 			page 5


  73:Middlewares/lvgl/examples/widgets/btn/../../../src/core/lv_disp.h **** 
  74:Middlewares/lvgl/examples/widgets/btn/../../../src/core/lv_disp.h **** /**
  75:Middlewares/lvgl/examples/widgets/btn/../../../src/core/lv_disp.h ****  * Return with the sys. layer. (Same on every screen and it is above the normal screen and the top
  76:Middlewares/lvgl/examples/widgets/btn/../../../src/core/lv_disp.h ****  * layer)
  77:Middlewares/lvgl/examples/widgets/btn/../../../src/core/lv_disp.h ****  * @param disp pointer to display which sys. layer  should be get. (NULL to use the default screen)
  78:Middlewares/lvgl/examples/widgets/btn/../../../src/core/lv_disp.h ****  * @return pointer to the sys layer object  (transparent screen sized lv_obj)
  79:Middlewares/lvgl/examples/widgets/btn/../../../src/core/lv_disp.h ****  */
  80:Middlewares/lvgl/examples/widgets/btn/../../../src/core/lv_disp.h **** lv_obj_t * lv_disp_get_layer_sys(lv_disp_t * disp);
  81:Middlewares/lvgl/examples/widgets/btn/../../../src/core/lv_disp.h **** 
  82:Middlewares/lvgl/examples/widgets/btn/../../../src/core/lv_disp.h **** /**
  83:Middlewares/lvgl/examples/widgets/btn/../../../src/core/lv_disp.h ****  * Get the theme of a display
  84:Middlewares/lvgl/examples/widgets/btn/../../../src/core/lv_disp.h ****  * @param disp pointer to a display
  85:Middlewares/lvgl/examples/widgets/btn/../../../src/core/lv_disp.h ****  * @return the display's theme (can be NULL)
  86:Middlewares/lvgl/examples/widgets/btn/../../../src/core/lv_disp.h ****  */
  87:Middlewares/lvgl/examples/widgets/btn/../../../src/core/lv_disp.h **** void lv_disp_set_theme(lv_disp_t * disp, lv_theme_t * th);
  88:Middlewares/lvgl/examples/widgets/btn/../../../src/core/lv_disp.h **** 
  89:Middlewares/lvgl/examples/widgets/btn/../../../src/core/lv_disp.h **** /**
  90:Middlewares/lvgl/examples/widgets/btn/../../../src/core/lv_disp.h ****  * Get the theme of a display
  91:Middlewares/lvgl/examples/widgets/btn/../../../src/core/lv_disp.h ****  * @param disp pointer to a display
  92:Middlewares/lvgl/examples/widgets/btn/../../../src/core/lv_disp.h ****  * @return the display's theme (can be NULL)
  93:Middlewares/lvgl/examples/widgets/btn/../../../src/core/lv_disp.h ****  */
  94:Middlewares/lvgl/examples/widgets/btn/../../../src/core/lv_disp.h **** lv_theme_t * lv_disp_get_theme(lv_disp_t * disp);
  95:Middlewares/lvgl/examples/widgets/btn/../../../src/core/lv_disp.h **** 
  96:Middlewares/lvgl/examples/widgets/btn/../../../src/core/lv_disp.h **** /**
  97:Middlewares/lvgl/examples/widgets/btn/../../../src/core/lv_disp.h ****  * Set the background color of a display
  98:Middlewares/lvgl/examples/widgets/btn/../../../src/core/lv_disp.h ****  * @param disp pointer to a display
  99:Middlewares/lvgl/examples/widgets/btn/../../../src/core/lv_disp.h ****  * @param color color of the background
 100:Middlewares/lvgl/examples/widgets/btn/../../../src/core/lv_disp.h ****  */
 101:Middlewares/lvgl/examples/widgets/btn/../../../src/core/lv_disp.h **** void lv_disp_set_bg_color(lv_disp_t * disp, lv_color_t color);
 102:Middlewares/lvgl/examples/widgets/btn/../../../src/core/lv_disp.h **** 
 103:Middlewares/lvgl/examples/widgets/btn/../../../src/core/lv_disp.h **** /**
 104:Middlewares/lvgl/examples/widgets/btn/../../../src/core/lv_disp.h ****  * Set the background image of a display
 105:Middlewares/lvgl/examples/widgets/btn/../../../src/core/lv_disp.h ****  * @param disp pointer to a display
 106:Middlewares/lvgl/examples/widgets/btn/../../../src/core/lv_disp.h ****  * @param img_src path to file or pointer to an `lv_img_dsc_t` variable
 107:Middlewares/lvgl/examples/widgets/btn/../../../src/core/lv_disp.h ****  */
 108:Middlewares/lvgl/examples/widgets/btn/../../../src/core/lv_disp.h **** void lv_disp_set_bg_image(lv_disp_t * disp, const void  * img_src);
 109:Middlewares/lvgl/examples/widgets/btn/../../../src/core/lv_disp.h **** 
 110:Middlewares/lvgl/examples/widgets/btn/../../../src/core/lv_disp.h **** /**
 111:Middlewares/lvgl/examples/widgets/btn/../../../src/core/lv_disp.h ****  * Opacity of the background
 112:Middlewares/lvgl/examples/widgets/btn/../../../src/core/lv_disp.h ****  * @param disp pointer to a display
 113:Middlewares/lvgl/examples/widgets/btn/../../../src/core/lv_disp.h ****  * @param opa opacity (0..255)
 114:Middlewares/lvgl/examples/widgets/btn/../../../src/core/lv_disp.h ****  */
 115:Middlewares/lvgl/examples/widgets/btn/../../../src/core/lv_disp.h **** void lv_disp_set_bg_opa(lv_disp_t * disp, lv_opa_t opa);
 116:Middlewares/lvgl/examples/widgets/btn/../../../src/core/lv_disp.h **** 
 117:Middlewares/lvgl/examples/widgets/btn/../../../src/core/lv_disp.h **** /**
 118:Middlewares/lvgl/examples/widgets/btn/../../../src/core/lv_disp.h ****  * Switch screen with animation
 119:Middlewares/lvgl/examples/widgets/btn/../../../src/core/lv_disp.h ****  * @param scr pointer to the new screen to load
 120:Middlewares/lvgl/examples/widgets/btn/../../../src/core/lv_disp.h ****  * @param anim_type type of the animation from `lv_scr_load_anim_t`. E.g.  `LV_SCR_LOAD_ANIM_MOVE_L
 121:Middlewares/lvgl/examples/widgets/btn/../../../src/core/lv_disp.h ****  * @param time time of the animation
 122:Middlewares/lvgl/examples/widgets/btn/../../../src/core/lv_disp.h ****  * @param delay delay before the transition
 123:Middlewares/lvgl/examples/widgets/btn/../../../src/core/lv_disp.h ****  * @param auto_del true: automatically delete the old screen
 124:Middlewares/lvgl/examples/widgets/btn/../../../src/core/lv_disp.h ****  */
 125:Middlewares/lvgl/examples/widgets/btn/../../../src/core/lv_disp.h **** void lv_scr_load_anim(lv_obj_t * scr, lv_scr_load_anim_t anim_type, uint32_t time, uint32_t delay, 
 126:Middlewares/lvgl/examples/widgets/btn/../../../src/core/lv_disp.h **** 
 127:Middlewares/lvgl/examples/widgets/btn/../../../src/core/lv_disp.h **** /**
 128:Middlewares/lvgl/examples/widgets/btn/../../../src/core/lv_disp.h ****  * Get elapsed time since last user activity on a display (e.g. click)
 129:Middlewares/lvgl/examples/widgets/btn/../../../src/core/lv_disp.h ****  * @param disp pointer to an display (NULL to get the overall smallest inactivity)
ARM GAS  /tmp/ccsQASY8.s 			page 6


 130:Middlewares/lvgl/examples/widgets/btn/../../../src/core/lv_disp.h ****  * @return elapsed ticks (milliseconds) since the last activity
 131:Middlewares/lvgl/examples/widgets/btn/../../../src/core/lv_disp.h ****  */
 132:Middlewares/lvgl/examples/widgets/btn/../../../src/core/lv_disp.h **** uint32_t lv_disp_get_inactive_time(const lv_disp_t * disp);
 133:Middlewares/lvgl/examples/widgets/btn/../../../src/core/lv_disp.h **** 
 134:Middlewares/lvgl/examples/widgets/btn/../../../src/core/lv_disp.h **** /**
 135:Middlewares/lvgl/examples/widgets/btn/../../../src/core/lv_disp.h ****  * Manually trigger an activity on a display
 136:Middlewares/lvgl/examples/widgets/btn/../../../src/core/lv_disp.h ****  * @param disp pointer to an display (NULL to use the default display)
 137:Middlewares/lvgl/examples/widgets/btn/../../../src/core/lv_disp.h ****  */
 138:Middlewares/lvgl/examples/widgets/btn/../../../src/core/lv_disp.h **** void lv_disp_trig_activity(lv_disp_t * disp);
 139:Middlewares/lvgl/examples/widgets/btn/../../../src/core/lv_disp.h **** 
 140:Middlewares/lvgl/examples/widgets/btn/../../../src/core/lv_disp.h **** /**
 141:Middlewares/lvgl/examples/widgets/btn/../../../src/core/lv_disp.h ****  * Clean any CPU cache that is related to the display.
 142:Middlewares/lvgl/examples/widgets/btn/../../../src/core/lv_disp.h ****  * @param disp pointer to an display (NULL to use the default display)
 143:Middlewares/lvgl/examples/widgets/btn/../../../src/core/lv_disp.h ****  */
 144:Middlewares/lvgl/examples/widgets/btn/../../../src/core/lv_disp.h **** void lv_disp_clean_dcache(lv_disp_t * disp);
 145:Middlewares/lvgl/examples/widgets/btn/../../../src/core/lv_disp.h **** 
 146:Middlewares/lvgl/examples/widgets/btn/../../../src/core/lv_disp.h **** /**
 147:Middlewares/lvgl/examples/widgets/btn/../../../src/core/lv_disp.h ****  * Get a pointer to the screen refresher timer to
 148:Middlewares/lvgl/examples/widgets/btn/../../../src/core/lv_disp.h ****  * modify its parameters with `lv_timer_...` functions.
 149:Middlewares/lvgl/examples/widgets/btn/../../../src/core/lv_disp.h ****  * @param disp pointer to a display
 150:Middlewares/lvgl/examples/widgets/btn/../../../src/core/lv_disp.h ****  * @return pointer to the display refresher timer. (NULL on error)
 151:Middlewares/lvgl/examples/widgets/btn/../../../src/core/lv_disp.h ****  */
 152:Middlewares/lvgl/examples/widgets/btn/../../../src/core/lv_disp.h **** lv_timer_t * _lv_disp_get_refr_timer(lv_disp_t * disp);
 153:Middlewares/lvgl/examples/widgets/btn/../../../src/core/lv_disp.h **** 
 154:Middlewares/lvgl/examples/widgets/btn/../../../src/core/lv_disp.h **** /*------------------------------------------------
 155:Middlewares/lvgl/examples/widgets/btn/../../../src/core/lv_disp.h ****  * To improve backward compatibility
 156:Middlewares/lvgl/examples/widgets/btn/../../../src/core/lv_disp.h ****  * Recommended only if you have one display
 157:Middlewares/lvgl/examples/widgets/btn/../../../src/core/lv_disp.h ****  *------------------------------------------------*/
 158:Middlewares/lvgl/examples/widgets/btn/../../../src/core/lv_disp.h **** 
 159:Middlewares/lvgl/examples/widgets/btn/../../../src/core/lv_disp.h **** /**
 160:Middlewares/lvgl/examples/widgets/btn/../../../src/core/lv_disp.h ****  * Get the active screen of the default display
 161:Middlewares/lvgl/examples/widgets/btn/../../../src/core/lv_disp.h ****  * @return pointer to the active screen
 162:Middlewares/lvgl/examples/widgets/btn/../../../src/core/lv_disp.h ****  */
 163:Middlewares/lvgl/examples/widgets/btn/../../../src/core/lv_disp.h **** static inline lv_obj_t * lv_scr_act(void)
 124              		.loc 2 163 26 view .LVU19
 125              	.LBB15:
 164:Middlewares/lvgl/examples/widgets/btn/../../../src/core/lv_disp.h **** {
 165:Middlewares/lvgl/examples/widgets/btn/../../../src/core/lv_disp.h ****     return lv_disp_get_scr_act(lv_disp_get_default());
 126              		.loc 2 165 5 view .LVU20
 127              		.loc 2 165 12 is_stmt 0 view .LVU21
 128 0002 FFF7FEFF 		bl	lv_disp_get_default
 129              	.LVL9:
 130 0006 FFF7FEFF 		bl	lv_disp_get_scr_act
 131              	.LVL10:
 132              	.LBE15:
 133              	.LBE14:
 134              		.loc 1 24 23 view .LVU22
 135 000a FFF7FEFF 		bl	lv_btn_create
 136              	.LVL11:
 137 000e 0446     		mov	r4, r0
 138              	.LVL12:
  25:Middlewares/lvgl/examples/widgets/btn/lv_example_btn_1.c ****     lv_obj_add_event_cb(btn1, event_handler, LV_EVENT_ALL, NULL);
 139              		.loc 1 25 5 is_stmt 1 view .LVU23
 140 0010 204D     		ldr	r5, .L11
 141 0012 0023     		movs	r3, #0
 142 0014 1A46     		mov	r2, r3
 143 0016 2946     		mov	r1, r5
ARM GAS  /tmp/ccsQASY8.s 			page 7


 144 0018 FFF7FEFF 		bl	lv_obj_add_event_cb
 145              	.LVL13:
  26:Middlewares/lvgl/examples/widgets/btn/lv_example_btn_1.c ****     lv_obj_align(btn1, LV_ALIGN_TOP_LEFT, 20, 20);
 146              		.loc 1 26 5 view .LVU24
 147 001c 1423     		movs	r3, #20
 148 001e 1A46     		mov	r2, r3
 149 0020 0121     		movs	r1, #1
 150 0022 2046     		mov	r0, r4
 151 0024 FFF7FEFF 		bl	lv_obj_align
 152              	.LVL14:
  27:Middlewares/lvgl/examples/widgets/btn/lv_example_btn_1.c **** 
  28:Middlewares/lvgl/examples/widgets/btn/lv_example_btn_1.c ****     label = lv_label_create(btn1);
 153              		.loc 1 28 5 view .LVU25
 154              		.loc 1 28 13 is_stmt 0 view .LVU26
 155 0028 2046     		mov	r0, r4
 156 002a FFF7FEFF 		bl	lv_label_create
 157              	.LVL15:
 158 002e 0446     		mov	r4, r0
 159              	.LVL16:
  29:Middlewares/lvgl/examples/widgets/btn/lv_example_btn_1.c ****     lv_label_set_text(label, "Button");
 160              		.loc 1 29 5 is_stmt 1 view .LVU27
 161 0030 1949     		ldr	r1, .L11+4
 162 0032 FFF7FEFF 		bl	lv_label_set_text
 163              	.LVL17:
  30:Middlewares/lvgl/examples/widgets/btn/lv_example_btn_1.c ****     lv_obj_center(label);
 164              		.loc 1 30 5 view .LVU28
 165              	.LBB16:
 166              	.LBI16:
 167              		.file 3 "Middlewares/lvgl/examples/widgets/btn/../../../src/core/lv_obj_pos.h"
   1:Middlewares/lvgl/examples/widgets/btn/../../../src/core/lv_obj_pos.h **** /**
   2:Middlewares/lvgl/examples/widgets/btn/../../../src/core/lv_obj_pos.h ****  * @file lv_obj_pos.h
   3:Middlewares/lvgl/examples/widgets/btn/../../../src/core/lv_obj_pos.h ****  *
   4:Middlewares/lvgl/examples/widgets/btn/../../../src/core/lv_obj_pos.h ****  */
   5:Middlewares/lvgl/examples/widgets/btn/../../../src/core/lv_obj_pos.h **** 
   6:Middlewares/lvgl/examples/widgets/btn/../../../src/core/lv_obj_pos.h **** #ifndef LV_OBJ_POS_H
   7:Middlewares/lvgl/examples/widgets/btn/../../../src/core/lv_obj_pos.h **** #define LV_OBJ_POS_H
   8:Middlewares/lvgl/examples/widgets/btn/../../../src/core/lv_obj_pos.h **** 
   9:Middlewares/lvgl/examples/widgets/btn/../../../src/core/lv_obj_pos.h **** #ifdef __cplusplus
  10:Middlewares/lvgl/examples/widgets/btn/../../../src/core/lv_obj_pos.h **** extern "C" {
  11:Middlewares/lvgl/examples/widgets/btn/../../../src/core/lv_obj_pos.h **** #endif
  12:Middlewares/lvgl/examples/widgets/btn/../../../src/core/lv_obj_pos.h **** 
  13:Middlewares/lvgl/examples/widgets/btn/../../../src/core/lv_obj_pos.h **** /*********************
  14:Middlewares/lvgl/examples/widgets/btn/../../../src/core/lv_obj_pos.h ****  *      INCLUDES
  15:Middlewares/lvgl/examples/widgets/btn/../../../src/core/lv_obj_pos.h ****  *********************/
  16:Middlewares/lvgl/examples/widgets/btn/../../../src/core/lv_obj_pos.h **** #include "../misc/lv_area.h"
  17:Middlewares/lvgl/examples/widgets/btn/../../../src/core/lv_obj_pos.h **** 
  18:Middlewares/lvgl/examples/widgets/btn/../../../src/core/lv_obj_pos.h **** /*********************
  19:Middlewares/lvgl/examples/widgets/btn/../../../src/core/lv_obj_pos.h ****  *      DEFINES
  20:Middlewares/lvgl/examples/widgets/btn/../../../src/core/lv_obj_pos.h ****  *********************/
  21:Middlewares/lvgl/examples/widgets/btn/../../../src/core/lv_obj_pos.h **** 
  22:Middlewares/lvgl/examples/widgets/btn/../../../src/core/lv_obj_pos.h **** /**********************
  23:Middlewares/lvgl/examples/widgets/btn/../../../src/core/lv_obj_pos.h ****  *      TYPEDEFS
  24:Middlewares/lvgl/examples/widgets/btn/../../../src/core/lv_obj_pos.h ****  **********************/
  25:Middlewares/lvgl/examples/widgets/btn/../../../src/core/lv_obj_pos.h **** struct _lv_obj_t;
  26:Middlewares/lvgl/examples/widgets/btn/../../../src/core/lv_obj_pos.h **** 
  27:Middlewares/lvgl/examples/widgets/btn/../../../src/core/lv_obj_pos.h **** typedef void (*lv_layout_update_cb_t)(struct _lv_obj_t *, void * user_data);
  28:Middlewares/lvgl/examples/widgets/btn/../../../src/core/lv_obj_pos.h **** typedef struct {
ARM GAS  /tmp/ccsQASY8.s 			page 8


  29:Middlewares/lvgl/examples/widgets/btn/../../../src/core/lv_obj_pos.h ****     lv_layout_update_cb_t cb;
  30:Middlewares/lvgl/examples/widgets/btn/../../../src/core/lv_obj_pos.h ****     void * user_data;
  31:Middlewares/lvgl/examples/widgets/btn/../../../src/core/lv_obj_pos.h **** }lv_layout_dsc_t;
  32:Middlewares/lvgl/examples/widgets/btn/../../../src/core/lv_obj_pos.h **** 
  33:Middlewares/lvgl/examples/widgets/btn/../../../src/core/lv_obj_pos.h **** /**********************
  34:Middlewares/lvgl/examples/widgets/btn/../../../src/core/lv_obj_pos.h ****  * GLOBAL PROTOTYPES
  35:Middlewares/lvgl/examples/widgets/btn/../../../src/core/lv_obj_pos.h ****  **********************/
  36:Middlewares/lvgl/examples/widgets/btn/../../../src/core/lv_obj_pos.h **** 
  37:Middlewares/lvgl/examples/widgets/btn/../../../src/core/lv_obj_pos.h **** /**
  38:Middlewares/lvgl/examples/widgets/btn/../../../src/core/lv_obj_pos.h ****  * Set the relative the position of an object (relative to the parent's top left corner)
  39:Middlewares/lvgl/examples/widgets/btn/../../../src/core/lv_obj_pos.h ****  * @param obj       pointer to an object
  40:Middlewares/lvgl/examples/widgets/btn/../../../src/core/lv_obj_pos.h ****  * @param x         new distance from the left side of the parent plus the parent's left padding
  41:Middlewares/lvgl/examples/widgets/btn/../../../src/core/lv_obj_pos.h ****  * @param y         new distance from the top side of the parent  plus the parent's right padding
  42:Middlewares/lvgl/examples/widgets/btn/../../../src/core/lv_obj_pos.h ****  */
  43:Middlewares/lvgl/examples/widgets/btn/../../../src/core/lv_obj_pos.h **** void lv_obj_set_pos(struct _lv_obj_t * obj, lv_coord_t x, lv_coord_t y);
  44:Middlewares/lvgl/examples/widgets/btn/../../../src/core/lv_obj_pos.h **** 
  45:Middlewares/lvgl/examples/widgets/btn/../../../src/core/lv_obj_pos.h **** /**
  46:Middlewares/lvgl/examples/widgets/btn/../../../src/core/lv_obj_pos.h ****  * Set the x coordinate of a object
  47:Middlewares/lvgl/examples/widgets/btn/../../../src/core/lv_obj_pos.h ****  * @param obj       pointer to an object
  48:Middlewares/lvgl/examples/widgets/btn/../../../src/core/lv_obj_pos.h ****  * @param x         new distance from the left side from the parent plus the parent's left padding
  49:Middlewares/lvgl/examples/widgets/btn/../../../src/core/lv_obj_pos.h ****  */
  50:Middlewares/lvgl/examples/widgets/btn/../../../src/core/lv_obj_pos.h **** void lv_obj_set_x(struct _lv_obj_t * obj, lv_coord_t x);
  51:Middlewares/lvgl/examples/widgets/btn/../../../src/core/lv_obj_pos.h **** 
  52:Middlewares/lvgl/examples/widgets/btn/../../../src/core/lv_obj_pos.h **** /**
  53:Middlewares/lvgl/examples/widgets/btn/../../../src/core/lv_obj_pos.h ****  * Set the y coordinate of a object
  54:Middlewares/lvgl/examples/widgets/btn/../../../src/core/lv_obj_pos.h ****  * @param obj       pointer to an object
  55:Middlewares/lvgl/examples/widgets/btn/../../../src/core/lv_obj_pos.h ****  * @param y         new distance from the top of the parent  plus the parent's top padding
  56:Middlewares/lvgl/examples/widgets/btn/../../../src/core/lv_obj_pos.h ****  */
  57:Middlewares/lvgl/examples/widgets/btn/../../../src/core/lv_obj_pos.h **** void lv_obj_set_y(struct _lv_obj_t * obj, lv_coord_t y);
  58:Middlewares/lvgl/examples/widgets/btn/../../../src/core/lv_obj_pos.h **** 
  59:Middlewares/lvgl/examples/widgets/btn/../../../src/core/lv_obj_pos.h **** /**
  60:Middlewares/lvgl/examples/widgets/btn/../../../src/core/lv_obj_pos.h ****  * Set the size of an object.
  61:Middlewares/lvgl/examples/widgets/btn/../../../src/core/lv_obj_pos.h ****  * @param obj       pointer to an object
  62:Middlewares/lvgl/examples/widgets/btn/../../../src/core/lv_obj_pos.h ****  * @param w         the new width
  63:Middlewares/lvgl/examples/widgets/btn/../../../src/core/lv_obj_pos.h ****  * @param h         the new height
  64:Middlewares/lvgl/examples/widgets/btn/../../../src/core/lv_obj_pos.h ****  * @note            possible values are:
  65:Middlewares/lvgl/examples/widgets/btn/../../../src/core/lv_obj_pos.h ****  *                  pixel               simple set the size accordingly
  66:Middlewares/lvgl/examples/widgets/btn/../../../src/core/lv_obj_pos.h ****  *                  LV_SIZE_CONTENT     set the size to involve all children in the given direction
  67:Middlewares/lvgl/examples/widgets/btn/../../../src/core/lv_obj_pos.h ****  *                  LV_SIZE_PCT(x)     to set size in percentage of the parent's content area size 
  68:Middlewares/lvgl/examples/widgets/btn/../../../src/core/lv_obj_pos.h ****  *                                      x should be in [0..1000]% range
  69:Middlewares/lvgl/examples/widgets/btn/../../../src/core/lv_obj_pos.h ****  */
  70:Middlewares/lvgl/examples/widgets/btn/../../../src/core/lv_obj_pos.h **** void lv_obj_set_size(struct _lv_obj_t * obj, lv_coord_t w, lv_coord_t h);
  71:Middlewares/lvgl/examples/widgets/btn/../../../src/core/lv_obj_pos.h **** 
  72:Middlewares/lvgl/examples/widgets/btn/../../../src/core/lv_obj_pos.h **** /**
  73:Middlewares/lvgl/examples/widgets/btn/../../../src/core/lv_obj_pos.h ****  * Recalculate the size of the object
  74:Middlewares/lvgl/examples/widgets/btn/../../../src/core/lv_obj_pos.h ****  * @param obj       pointer to an object
  75:Middlewares/lvgl/examples/widgets/btn/../../../src/core/lv_obj_pos.h ****  * @return          true: the size has been changed
  76:Middlewares/lvgl/examples/widgets/btn/../../../src/core/lv_obj_pos.h ****  */
  77:Middlewares/lvgl/examples/widgets/btn/../../../src/core/lv_obj_pos.h **** bool lv_obj_refr_size(struct _lv_obj_t * obj);
  78:Middlewares/lvgl/examples/widgets/btn/../../../src/core/lv_obj_pos.h **** 
  79:Middlewares/lvgl/examples/widgets/btn/../../../src/core/lv_obj_pos.h **** /**
  80:Middlewares/lvgl/examples/widgets/btn/../../../src/core/lv_obj_pos.h ****  * Set the width of an object
  81:Middlewares/lvgl/examples/widgets/btn/../../../src/core/lv_obj_pos.h ****  * @param obj       pointer to an object
  82:Middlewares/lvgl/examples/widgets/btn/../../../src/core/lv_obj_pos.h ****  * @param w         the new width
  83:Middlewares/lvgl/examples/widgets/btn/../../../src/core/lv_obj_pos.h ****  * @note            possible values are:
  84:Middlewares/lvgl/examples/widgets/btn/../../../src/core/lv_obj_pos.h ****  *                  pixel               simple set the size accordingly
  85:Middlewares/lvgl/examples/widgets/btn/../../../src/core/lv_obj_pos.h ****  *                  LV_SIZE_CONTENT     set the size to involve all children in the given direction
ARM GAS  /tmp/ccsQASY8.s 			page 9


  86:Middlewares/lvgl/examples/widgets/btn/../../../src/core/lv_obj_pos.h ****  *                  lv_pct(x)           to set size in percentage of the parent's content area size
  87:Middlewares/lvgl/examples/widgets/btn/../../../src/core/lv_obj_pos.h ****  *                                      x should be in [0..1000]% range
  88:Middlewares/lvgl/examples/widgets/btn/../../../src/core/lv_obj_pos.h ****  */
  89:Middlewares/lvgl/examples/widgets/btn/../../../src/core/lv_obj_pos.h **** void lv_obj_set_width(struct _lv_obj_t * obj, lv_coord_t w);
  90:Middlewares/lvgl/examples/widgets/btn/../../../src/core/lv_obj_pos.h **** 
  91:Middlewares/lvgl/examples/widgets/btn/../../../src/core/lv_obj_pos.h **** /**
  92:Middlewares/lvgl/examples/widgets/btn/../../../src/core/lv_obj_pos.h ****  * Set the height of an object
  93:Middlewares/lvgl/examples/widgets/btn/../../../src/core/lv_obj_pos.h ****  * @param obj       pointer to an object
  94:Middlewares/lvgl/examples/widgets/btn/../../../src/core/lv_obj_pos.h ****  * @param h         the new height
  95:Middlewares/lvgl/examples/widgets/btn/../../../src/core/lv_obj_pos.h ****  * @note            possible values are:
  96:Middlewares/lvgl/examples/widgets/btn/../../../src/core/lv_obj_pos.h ****  *                  pixel               simple set the size accordingly
  97:Middlewares/lvgl/examples/widgets/btn/../../../src/core/lv_obj_pos.h ****  *                  LV_SIZE_CONTENT     set the size to involve all children in the given direction
  98:Middlewares/lvgl/examples/widgets/btn/../../../src/core/lv_obj_pos.h ****  *                  lv_pct(x)           to set size in percentage of the parent's content area size
  99:Middlewares/lvgl/examples/widgets/btn/../../../src/core/lv_obj_pos.h ****  *                                      x should be in [0..1000]% range
 100:Middlewares/lvgl/examples/widgets/btn/../../../src/core/lv_obj_pos.h ****  */
 101:Middlewares/lvgl/examples/widgets/btn/../../../src/core/lv_obj_pos.h **** void lv_obj_set_height(struct _lv_obj_t * obj, lv_coord_t h);
 102:Middlewares/lvgl/examples/widgets/btn/../../../src/core/lv_obj_pos.h **** 
 103:Middlewares/lvgl/examples/widgets/btn/../../../src/core/lv_obj_pos.h **** /**
 104:Middlewares/lvgl/examples/widgets/btn/../../../src/core/lv_obj_pos.h ****  * Set the width reduced by the left and right padding and the border width.
 105:Middlewares/lvgl/examples/widgets/btn/../../../src/core/lv_obj_pos.h ****  * @param obj       pointer to an object
 106:Middlewares/lvgl/examples/widgets/btn/../../../src/core/lv_obj_pos.h ****  * @param w         the width without paddings in pixels
 107:Middlewares/lvgl/examples/widgets/btn/../../../src/core/lv_obj_pos.h ****  */
 108:Middlewares/lvgl/examples/widgets/btn/../../../src/core/lv_obj_pos.h **** void lv_obj_set_content_width(struct _lv_obj_t * obj, lv_coord_t w);
 109:Middlewares/lvgl/examples/widgets/btn/../../../src/core/lv_obj_pos.h **** 
 110:Middlewares/lvgl/examples/widgets/btn/../../../src/core/lv_obj_pos.h **** /**
 111:Middlewares/lvgl/examples/widgets/btn/../../../src/core/lv_obj_pos.h ****  * Set the height reduced by the top and bottom padding and the border width.
 112:Middlewares/lvgl/examples/widgets/btn/../../../src/core/lv_obj_pos.h ****  * @param obj       pointer to an object
 113:Middlewares/lvgl/examples/widgets/btn/../../../src/core/lv_obj_pos.h ****  * @param h         the height without paddings in pixels
 114:Middlewares/lvgl/examples/widgets/btn/../../../src/core/lv_obj_pos.h ****  */
 115:Middlewares/lvgl/examples/widgets/btn/../../../src/core/lv_obj_pos.h **** void lv_obj_set_content_height(struct _lv_obj_t * obj, lv_coord_t h);
 116:Middlewares/lvgl/examples/widgets/btn/../../../src/core/lv_obj_pos.h **** 
 117:Middlewares/lvgl/examples/widgets/btn/../../../src/core/lv_obj_pos.h **** /**
 118:Middlewares/lvgl/examples/widgets/btn/../../../src/core/lv_obj_pos.h ****  * Set a layout for an object
 119:Middlewares/lvgl/examples/widgets/btn/../../../src/core/lv_obj_pos.h ****  * @param obj       pointer to an object
 120:Middlewares/lvgl/examples/widgets/btn/../../../src/core/lv_obj_pos.h ****  * @param layout    pointer to a layout descriptor to set
 121:Middlewares/lvgl/examples/widgets/btn/../../../src/core/lv_obj_pos.h ****  */
 122:Middlewares/lvgl/examples/widgets/btn/../../../src/core/lv_obj_pos.h **** void lv_obj_set_layout(struct _lv_obj_t * obj, uint32_t layout);
 123:Middlewares/lvgl/examples/widgets/btn/../../../src/core/lv_obj_pos.h **** 
 124:Middlewares/lvgl/examples/widgets/btn/../../../src/core/lv_obj_pos.h **** /**
 125:Middlewares/lvgl/examples/widgets/btn/../../../src/core/lv_obj_pos.h ****  * Test whether the and object is positioned by a layout or not
 126:Middlewares/lvgl/examples/widgets/btn/../../../src/core/lv_obj_pos.h ****  * @param obj       pointer to an object to test
 127:Middlewares/lvgl/examples/widgets/btn/../../../src/core/lv_obj_pos.h ****  * @return true:    positioned by a layout; false: not positioned by a layout
 128:Middlewares/lvgl/examples/widgets/btn/../../../src/core/lv_obj_pos.h ****  */
 129:Middlewares/lvgl/examples/widgets/btn/../../../src/core/lv_obj_pos.h **** bool lv_obj_is_layout_positioned(const struct _lv_obj_t * obj);
 130:Middlewares/lvgl/examples/widgets/btn/../../../src/core/lv_obj_pos.h **** 
 131:Middlewares/lvgl/examples/widgets/btn/../../../src/core/lv_obj_pos.h **** /**
 132:Middlewares/lvgl/examples/widgets/btn/../../../src/core/lv_obj_pos.h ****  * Mark the object for layout update.
 133:Middlewares/lvgl/examples/widgets/btn/../../../src/core/lv_obj_pos.h ****  * @param obj      pointer to an object whose children needs to be updated
 134:Middlewares/lvgl/examples/widgets/btn/../../../src/core/lv_obj_pos.h ****  */
 135:Middlewares/lvgl/examples/widgets/btn/../../../src/core/lv_obj_pos.h **** void lv_obj_mark_layout_as_dirty(struct _lv_obj_t * obj);
 136:Middlewares/lvgl/examples/widgets/btn/../../../src/core/lv_obj_pos.h **** 
 137:Middlewares/lvgl/examples/widgets/btn/../../../src/core/lv_obj_pos.h **** /**
 138:Middlewares/lvgl/examples/widgets/btn/../../../src/core/lv_obj_pos.h ****  * Update the layout of an object.
 139:Middlewares/lvgl/examples/widgets/btn/../../../src/core/lv_obj_pos.h ****  * @param obj      pointer to an object whose children needs to be updated
 140:Middlewares/lvgl/examples/widgets/btn/../../../src/core/lv_obj_pos.h ****  */
 141:Middlewares/lvgl/examples/widgets/btn/../../../src/core/lv_obj_pos.h **** void lv_obj_update_layout(const struct _lv_obj_t * obj);
 142:Middlewares/lvgl/examples/widgets/btn/../../../src/core/lv_obj_pos.h **** 
ARM GAS  /tmp/ccsQASY8.s 			page 10


 143:Middlewares/lvgl/examples/widgets/btn/../../../src/core/lv_obj_pos.h **** /**
 144:Middlewares/lvgl/examples/widgets/btn/../../../src/core/lv_obj_pos.h ****  * Regsiter a new layout
 145:Middlewares/lvgl/examples/widgets/btn/../../../src/core/lv_obj_pos.h ****  * @param cb        the layout update callback
 146:Middlewares/lvgl/examples/widgets/btn/../../../src/core/lv_obj_pos.h ****  * @param user_data custom data that will be passed to `cb`
 147:Middlewares/lvgl/examples/widgets/btn/../../../src/core/lv_obj_pos.h ****  * @return          the ID of the new layout
 148:Middlewares/lvgl/examples/widgets/btn/../../../src/core/lv_obj_pos.h ****  */
 149:Middlewares/lvgl/examples/widgets/btn/../../../src/core/lv_obj_pos.h **** uint32_t lv_layout_register(lv_layout_update_cb_t cb, void * user_data);
 150:Middlewares/lvgl/examples/widgets/btn/../../../src/core/lv_obj_pos.h **** 
 151:Middlewares/lvgl/examples/widgets/btn/../../../src/core/lv_obj_pos.h **** /**
 152:Middlewares/lvgl/examples/widgets/btn/../../../src/core/lv_obj_pos.h ****  * Change the alignment of an object.
 153:Middlewares/lvgl/examples/widgets/btn/../../../src/core/lv_obj_pos.h ****  * @param obj       pointer to an object to align
 154:Middlewares/lvgl/examples/widgets/btn/../../../src/core/lv_obj_pos.h ****  * @param align     type of alignment (see 'lv_align_t' enum) `LV_ALIGN_OUT_...` can't be used.
 155:Middlewares/lvgl/examples/widgets/btn/../../../src/core/lv_obj_pos.h ****  */
 156:Middlewares/lvgl/examples/widgets/btn/../../../src/core/lv_obj_pos.h **** void lv_obj_set_align(struct _lv_obj_t * obj, lv_align_t align);
 157:Middlewares/lvgl/examples/widgets/btn/../../../src/core/lv_obj_pos.h **** 
 158:Middlewares/lvgl/examples/widgets/btn/../../../src/core/lv_obj_pos.h **** /**
 159:Middlewares/lvgl/examples/widgets/btn/../../../src/core/lv_obj_pos.h ****  * Change the alignment of an object and set new coordinates.
 160:Middlewares/lvgl/examples/widgets/btn/../../../src/core/lv_obj_pos.h ****  * Equivalent to:
 161:Middlewares/lvgl/examples/widgets/btn/../../../src/core/lv_obj_pos.h ****  * lv_obj_set_align(obj, align);
 162:Middlewares/lvgl/examples/widgets/btn/../../../src/core/lv_obj_pos.h ****  * lv_obj_set_pos(obj, x_ofs, y_ofs);
 163:Middlewares/lvgl/examples/widgets/btn/../../../src/core/lv_obj_pos.h ****  * @param obj       pointer to an object to align
 164:Middlewares/lvgl/examples/widgets/btn/../../../src/core/lv_obj_pos.h ****  * @param align     type of alignment (see 'lv_align_t' enum) `LV_ALIGN_OUT_...` can't be used.
 165:Middlewares/lvgl/examples/widgets/btn/../../../src/core/lv_obj_pos.h ****  * @param x_ofs     x coordinate offset after alignment
 166:Middlewares/lvgl/examples/widgets/btn/../../../src/core/lv_obj_pos.h ****  * @param y_ofs     y coordinate offset after alignment
 167:Middlewares/lvgl/examples/widgets/btn/../../../src/core/lv_obj_pos.h ****  */
 168:Middlewares/lvgl/examples/widgets/btn/../../../src/core/lv_obj_pos.h **** void lv_obj_align(struct _lv_obj_t * obj, lv_align_t align, lv_coord_t x_ofs, lv_coord_t y_ofs);
 169:Middlewares/lvgl/examples/widgets/btn/../../../src/core/lv_obj_pos.h **** 
 170:Middlewares/lvgl/examples/widgets/btn/../../../src/core/lv_obj_pos.h **** /**
 171:Middlewares/lvgl/examples/widgets/btn/../../../src/core/lv_obj_pos.h ****  * Align an object to an other object.
 172:Middlewares/lvgl/examples/widgets/btn/../../../src/core/lv_obj_pos.h ****  * @param obj       pointer to an object to align
 173:Middlewares/lvgl/examples/widgets/btn/../../../src/core/lv_obj_pos.h ****  * @param base      pointer to an other object (if NULL `obj`s parent is used). 'obj' will be align
 174:Middlewares/lvgl/examples/widgets/btn/../../../src/core/lv_obj_pos.h ****  * @param align     type of alignment (see 'lv_align_t' enum)
 175:Middlewares/lvgl/examples/widgets/btn/../../../src/core/lv_obj_pos.h ****  * @param x_ofs     x coordinate offset after alignment
 176:Middlewares/lvgl/examples/widgets/btn/../../../src/core/lv_obj_pos.h ****  * @param y_ofs     y coordinate offset after alignment
 177:Middlewares/lvgl/examples/widgets/btn/../../../src/core/lv_obj_pos.h ****  * @note            if the position or size of `base` changes `obj` needs to be aligned manually ag
 178:Middlewares/lvgl/examples/widgets/btn/../../../src/core/lv_obj_pos.h ****  */
 179:Middlewares/lvgl/examples/widgets/btn/../../../src/core/lv_obj_pos.h **** void lv_obj_align_to(struct _lv_obj_t * obj, const struct _lv_obj_t * base, lv_align_t align, lv_co
 180:Middlewares/lvgl/examples/widgets/btn/../../../src/core/lv_obj_pos.h **** 
 181:Middlewares/lvgl/examples/widgets/btn/../../../src/core/lv_obj_pos.h **** /**
 182:Middlewares/lvgl/examples/widgets/btn/../../../src/core/lv_obj_pos.h ****  * Align an object to the center on its parent.
 183:Middlewares/lvgl/examples/widgets/btn/../../../src/core/lv_obj_pos.h ****  * @param obj       pointer to an object to align
 184:Middlewares/lvgl/examples/widgets/btn/../../../src/core/lv_obj_pos.h ****  * @note            if the parent size changes `obj` needs to be aligned manually again
 185:Middlewares/lvgl/examples/widgets/btn/../../../src/core/lv_obj_pos.h ****  */
 186:Middlewares/lvgl/examples/widgets/btn/../../../src/core/lv_obj_pos.h **** static inline void lv_obj_center(struct _lv_obj_t * obj)
 168              		.loc 3 186 20 view .LVU29
 169              	.LBB17:
 187:Middlewares/lvgl/examples/widgets/btn/../../../src/core/lv_obj_pos.h **** {
 188:Middlewares/lvgl/examples/widgets/btn/../../../src/core/lv_obj_pos.h ****     lv_obj_align(obj, LV_ALIGN_CENTER, 0, 0);
 170              		.loc 3 188 5 view .LVU30
 171 0036 0023     		movs	r3, #0
 172 0038 1A46     		mov	r2, r3
 173 003a 0921     		movs	r1, #9
 174 003c 2046     		mov	r0, r4
 175 003e FFF7FEFF 		bl	lv_obj_align
 176              	.LVL18:
 177              		.loc 3 188 5 is_stmt 0 view .LVU31
 178              	.LBE17:
ARM GAS  /tmp/ccsQASY8.s 			page 11


 179              	.LBE16:
  31:Middlewares/lvgl/examples/widgets/btn/lv_example_btn_1.c **** 
  32:Middlewares/lvgl/examples/widgets/btn/lv_example_btn_1.c ****     lv_obj_t * btn2 = lv_btn_create(lv_scr_act());
 180              		.loc 1 32 5 is_stmt 1 view .LVU32
 181              	.LBB18:
 182              	.LBI18:
 163:Middlewares/lvgl/examples/widgets/btn/../../../src/core/lv_disp.h **** {
 183              		.loc 2 163 26 view .LVU33
 184              	.LBB19:
 185              		.loc 2 165 5 view .LVU34
 186              		.loc 2 165 12 is_stmt 0 view .LVU35
 187 0042 FFF7FEFF 		bl	lv_disp_get_default
 188              	.LVL19:
 189 0046 FFF7FEFF 		bl	lv_disp_get_scr_act
 190              	.LVL20:
 191              	.LBE19:
 192              	.LBE18:
 193              		.loc 1 32 23 view .LVU36
 194 004a FFF7FEFF 		bl	lv_btn_create
 195              	.LVL21:
 196 004e 0446     		mov	r4, r0
 197              	.LVL22:
  33:Middlewares/lvgl/examples/widgets/btn/lv_example_btn_1.c ****     lv_obj_add_event_cb(btn2, event_handler, LV_EVENT_ALL, NULL);
 198              		.loc 1 33 5 is_stmt 1 view .LVU37
 199 0050 0023     		movs	r3, #0
 200 0052 1A46     		mov	r2, r3
 201 0054 2946     		mov	r1, r5
 202 0056 FFF7FEFF 		bl	lv_obj_add_event_cb
 203              	.LVL23:
  34:Middlewares/lvgl/examples/widgets/btn/lv_example_btn_1.c ****     lv_obj_align(btn2, LV_ALIGN_TOP_LEFT, 20, 60);
 204              		.loc 1 34 5 view .LVU38
 205 005a 3C23     		movs	r3, #60
 206 005c 1422     		movs	r2, #20
 207 005e 0121     		movs	r1, #1
 208 0060 2046     		mov	r0, r4
 209 0062 FFF7FEFF 		bl	lv_obj_align
 210              	.LVL24:
  35:Middlewares/lvgl/examples/widgets/btn/lv_example_btn_1.c ****     lv_obj_add_flag(btn2, LV_OBJ_FLAG_CHECKABLE);
 211              		.loc 1 35 5 view .LVU39
 212 0066 0821     		movs	r1, #8
 213 0068 2046     		mov	r0, r4
 214 006a FFF7FEFF 		bl	lv_obj_add_flag
 215              	.LVL25:
  36:Middlewares/lvgl/examples/widgets/btn/lv_example_btn_1.c ****     lv_obj_set_height(btn2, LV_SIZE_CONTENT);
 216              		.loc 1 36 5 view .LVU40
 217 006e 42F2D171 		movw	r1, #10193
 218 0072 2046     		mov	r0, r4
 219 0074 FFF7FEFF 		bl	lv_obj_set_height
 220              	.LVL26:
  37:Middlewares/lvgl/examples/widgets/btn/lv_example_btn_1.c **** 
  38:Middlewares/lvgl/examples/widgets/btn/lv_example_btn_1.c ****     label = lv_label_create(btn2);
 221              		.loc 1 38 5 view .LVU41
 222              		.loc 1 38 13 is_stmt 0 view .LVU42
 223 0078 2046     		mov	r0, r4
 224 007a FFF7FEFF 		bl	lv_label_create
 225              	.LVL27:
 226 007e 0446     		mov	r4, r0
ARM GAS  /tmp/ccsQASY8.s 			page 12


 227              	.LVL28:
  39:Middlewares/lvgl/examples/widgets/btn/lv_example_btn_1.c ****     lv_label_set_text(label, "Toggle");
 228              		.loc 1 39 5 is_stmt 1 view .LVU43
 229 0080 0649     		ldr	r1, .L11+8
 230 0082 FFF7FEFF 		bl	lv_label_set_text
 231              	.LVL29:
  40:Middlewares/lvgl/examples/widgets/btn/lv_example_btn_1.c ****     lv_obj_center(label);
 232              		.loc 1 40 5 view .LVU44
 233              	.LBB20:
 234              	.LBI20:
 186:Middlewares/lvgl/examples/widgets/btn/../../../src/core/lv_obj_pos.h **** {
 235              		.loc 3 186 20 view .LVU45
 236              	.LBB21:
 237              		.loc 3 188 5 view .LVU46
 238 0086 0023     		movs	r3, #0
 239 0088 1A46     		mov	r2, r3
 240 008a 0921     		movs	r1, #9
 241 008c 2046     		mov	r0, r4
 242 008e FFF7FEFF 		bl	lv_obj_align
 243              	.LVL30:
 244              		.loc 3 188 5 is_stmt 0 view .LVU47
 245              	.LBE21:
 246              	.LBE20:
  41:Middlewares/lvgl/examples/widgets/btn/lv_example_btn_1.c **** }
 247              		.loc 1 41 1 view .LVU48
 248 0092 38BD     		pop	{r3, r4, r5, pc}
 249              	.LVL31:
 250              	.L12:
 251              		.loc 1 41 1 view .LVU49
 252              		.align	2
 253              	.L11:
 254 0094 00000000 		.word	event_handler
 255 0098 00000000 		.word	.LC2
 256 009c 08000000 		.word	.LC3
 257              		.cfi_endproc
 258              	.LFE188:
 260              		.text
 261              	.Letext0:
 262              		.file 4 "/home/akinya/gcc-arm-none-eabi/arm-none-eabi/include/machine/_default_types.h"
 263              		.file 5 "/home/akinya/gcc-arm-none-eabi/arm-none-eabi/include/sys/_stdint.h"
 264              		.file 6 "Middlewares/lvgl/examples/widgets/btn/../../../src/misc/lv_ll.h"
 265              		.file 7 "Middlewares/lvgl/examples/widgets/btn/../../../src/hal/../misc/lv_color.h"
 266              		.file 8 "Middlewares/lvgl/examples/widgets/btn/../../../src/hal/../misc/lv_area.h"
 267              		.file 9 "Middlewares/lvgl/examples/widgets/btn/../../../src/core/lv_obj.h"
 268              		.file 10 "Middlewares/lvgl/examples/widgets/btn/../../../src/core/lv_group.h"
 269              		.file 11 "Middlewares/lvgl/examples/widgets/btn/../../../src/core/../misc/lv_style.h"
 270              		.file 12 "Middlewares/lvgl/examples/widgets/btn/../../../src/core/lv_obj_scroll.h"
 271              		.file 13 "Middlewares/lvgl/examples/widgets/btn/../../../src/core/lv_obj_style.h"
 272              		.file 14 "Middlewares/lvgl/examples/widgets/btn/../../../src/core/lv_obj_class.h"
 273              		.file 15 "Middlewares/lvgl/examples/widgets/btn/../../../src/core/lv_event.h"
 274              		.file 16 "Middlewares/lvgl/examples/widgets/btn/../../../src/hal/lv_hal_disp.h"
 275              		.file 17 "Middlewares/lvgl/examples/widgets/btn/../../../src/widgets/lv_btn.h"
 276              		.file 18 "Middlewares/lvgl/examples/widgets/btn/../../../src/widgets/lv_label.h"
 277              		.file 19 "<built-in>"
ARM GAS  /tmp/ccsQASY8.s 			page 13

