ARM GAS  /tmp/cckDkQG7.s 			page 1


   1              		.cpu cortex-m4
   2              		.eabi_attribute 27, 1
   3              		.eabi_attribute 28, 1
   4              		.eabi_attribute 20, 1
   5              		.eabi_attribute 21, 1
   6              		.eabi_attribute 23, 3
   7              		.eabi_attribute 24, 1
   8              		.eabi_attribute 25, 1
   9              		.eabi_attribute 26, 1
  10              		.eabi_attribute 30, 1
  11              		.eabi_attribute 34, 1
  12              		.eabi_attribute 18, 4
  13              		.file	"lv_example_table_2.c"
  14              		.text
  15              	.Ltext0:
  16              		.cfi_sections	.debug_frame
  17              		.section	.text.change_event_cb,"ax",%progbits
  18              		.align	1
  19              		.arch armv7e-m
  20              		.syntax unified
  21              		.thumb
  22              		.thumb_func
  23              		.fpu fpv4-sp-d16
  25              	change_event_cb:
  26              	.LVL0:
  27              	.LFB185:
  28              		.file 1 "Middlewares/lvgl/examples/widgets/table/lv_example_table_2.c"
   1:Middlewares/lvgl/examples/widgets/table/lv_example_table_2.c **** #include "../../lv_examples.h"
   2:Middlewares/lvgl/examples/widgets/table/lv_example_table_2.c **** #if LV_USE_TABLE && LV_BUILD_EXAMPLES
   3:Middlewares/lvgl/examples/widgets/table/lv_example_table_2.c **** 
   4:Middlewares/lvgl/examples/widgets/table/lv_example_table_2.c **** #define ITEM_CNT 200
   5:Middlewares/lvgl/examples/widgets/table/lv_example_table_2.c **** 
   6:Middlewares/lvgl/examples/widgets/table/lv_example_table_2.c **** static void draw_event_cb(lv_event_t * e)
   7:Middlewares/lvgl/examples/widgets/table/lv_example_table_2.c **** {
   8:Middlewares/lvgl/examples/widgets/table/lv_example_table_2.c ****     lv_obj_t * obj = lv_event_get_target(e);
   9:Middlewares/lvgl/examples/widgets/table/lv_example_table_2.c ****     lv_obj_draw_part_dsc_t * dsc = lv_event_get_draw_part_dsc(e);
  10:Middlewares/lvgl/examples/widgets/table/lv_example_table_2.c ****     /*If the cells are drawn...*/
  11:Middlewares/lvgl/examples/widgets/table/lv_example_table_2.c ****     if(dsc->part == LV_PART_ITEMS) {
  12:Middlewares/lvgl/examples/widgets/table/lv_example_table_2.c ****         bool chk = lv_table_has_cell_ctrl(obj, dsc->id, 0, LV_TABLE_CELL_CTRL_CUSTOM_1);
  13:Middlewares/lvgl/examples/widgets/table/lv_example_table_2.c **** 
  14:Middlewares/lvgl/examples/widgets/table/lv_example_table_2.c ****         lv_draw_rect_dsc_t rect_dsc;
  15:Middlewares/lvgl/examples/widgets/table/lv_example_table_2.c ****         lv_draw_rect_dsc_init(&rect_dsc);
  16:Middlewares/lvgl/examples/widgets/table/lv_example_table_2.c ****         rect_dsc.bg_color = chk ? lv_theme_get_color_primary(obj) : lv_palette_lighten(LV_PALETTE_G
  17:Middlewares/lvgl/examples/widgets/table/lv_example_table_2.c ****         rect_dsc.radius = LV_RADIUS_CIRCLE;
  18:Middlewares/lvgl/examples/widgets/table/lv_example_table_2.c **** 
  19:Middlewares/lvgl/examples/widgets/table/lv_example_table_2.c ****         lv_area_t sw_area;
  20:Middlewares/lvgl/examples/widgets/table/lv_example_table_2.c ****         sw_area.x1 = dsc->draw_area->x2 - 50;
  21:Middlewares/lvgl/examples/widgets/table/lv_example_table_2.c ****         sw_area.x2 = sw_area.x1 + 40;
  22:Middlewares/lvgl/examples/widgets/table/lv_example_table_2.c ****         sw_area.y1 =  dsc->draw_area->y1 + lv_area_get_height(dsc->draw_area) / 2 - 10;
  23:Middlewares/lvgl/examples/widgets/table/lv_example_table_2.c ****         sw_area.y2 = sw_area.y1 + 20;
  24:Middlewares/lvgl/examples/widgets/table/lv_example_table_2.c ****         lv_draw_rect(&sw_area, dsc->clip_area, &rect_dsc);
  25:Middlewares/lvgl/examples/widgets/table/lv_example_table_2.c **** 
  26:Middlewares/lvgl/examples/widgets/table/lv_example_table_2.c ****         rect_dsc.bg_color = lv_color_white();
  27:Middlewares/lvgl/examples/widgets/table/lv_example_table_2.c ****         if(chk) {
  28:Middlewares/lvgl/examples/widgets/table/lv_example_table_2.c ****             sw_area.x2 -= 2;
  29:Middlewares/lvgl/examples/widgets/table/lv_example_table_2.c ****             sw_area.x1 = sw_area.x2 - 16;
  30:Middlewares/lvgl/examples/widgets/table/lv_example_table_2.c ****         } else {
ARM GAS  /tmp/cckDkQG7.s 			page 2


  31:Middlewares/lvgl/examples/widgets/table/lv_example_table_2.c ****             sw_area.x1 += 2;
  32:Middlewares/lvgl/examples/widgets/table/lv_example_table_2.c ****             sw_area.x2 = sw_area.x1 + 16;
  33:Middlewares/lvgl/examples/widgets/table/lv_example_table_2.c ****         }
  34:Middlewares/lvgl/examples/widgets/table/lv_example_table_2.c ****         sw_area.y1 += 2;
  35:Middlewares/lvgl/examples/widgets/table/lv_example_table_2.c ****         sw_area.y2 -= 2;
  36:Middlewares/lvgl/examples/widgets/table/lv_example_table_2.c ****         lv_draw_rect(&sw_area, dsc->clip_area, &rect_dsc);
  37:Middlewares/lvgl/examples/widgets/table/lv_example_table_2.c ****     }
  38:Middlewares/lvgl/examples/widgets/table/lv_example_table_2.c **** }
  39:Middlewares/lvgl/examples/widgets/table/lv_example_table_2.c **** 
  40:Middlewares/lvgl/examples/widgets/table/lv_example_table_2.c **** static void change_event_cb(lv_event_t * e)
  41:Middlewares/lvgl/examples/widgets/table/lv_example_table_2.c **** {
  29              		.loc 1 41 1 view -0
  30              		.cfi_startproc
  31              		@ args = 0, pretend = 0, frame = 8
  32              		@ frame_needed = 0, uses_anonymous_args = 0
  33              		.loc 1 41 1 is_stmt 0 view .LVU1
  34 0000 10B5     		push	{r4, lr}
  35              	.LCFI0:
  36              		.cfi_def_cfa_offset 8
  37              		.cfi_offset 4, -8
  38              		.cfi_offset 14, -4
  39 0002 82B0     		sub	sp, sp, #8
  40              	.LCFI1:
  41              		.cfi_def_cfa_offset 16
  42:Middlewares/lvgl/examples/widgets/table/lv_example_table_2.c ****     lv_obj_t * obj = lv_event_get_target(e);
  42              		.loc 1 42 5 is_stmt 1 view .LVU2
  43              		.loc 1 42 22 is_stmt 0 view .LVU3
  44 0004 FFF7FEFF 		bl	lv_event_get_target
  45              	.LVL1:
  46              		.loc 1 42 22 view .LVU4
  47 0008 0446     		mov	r4, r0
  48              	.LVL2:
  43:Middlewares/lvgl/examples/widgets/table/lv_example_table_2.c ****     uint16_t col;
  49              		.loc 1 43 5 is_stmt 1 view .LVU5
  44:Middlewares/lvgl/examples/widgets/table/lv_example_table_2.c ****     uint16_t row;
  50              		.loc 1 44 5 view .LVU6
  45:Middlewares/lvgl/examples/widgets/table/lv_example_table_2.c ****     lv_table_get_selected_cell(obj, &row, &col);
  51              		.loc 1 45 5 view .LVU7
  52 000a 0DF10602 		add	r2, sp, #6
  53 000e 01A9     		add	r1, sp, #4
  54 0010 FFF7FEFF 		bl	lv_table_get_selected_cell
  55              	.LVL3:
  46:Middlewares/lvgl/examples/widgets/table/lv_example_table_2.c ****     bool chk = lv_table_has_cell_ctrl(obj, row, 0, LV_TABLE_CELL_CTRL_CUSTOM_1);
  56              		.loc 1 46 5 view .LVU8
  57              		.loc 1 46 16 is_stmt 0 view .LVU9
  58 0014 1023     		movs	r3, #16
  59 0016 0022     		movs	r2, #0
  60 0018 BDF80410 		ldrh	r1, [sp, #4]
  61 001c 2046     		mov	r0, r4
  62 001e FFF7FEFF 		bl	lv_table_has_cell_ctrl
  63              	.LVL4:
  47:Middlewares/lvgl/examples/widgets/table/lv_example_table_2.c ****     if(chk) lv_table_clear_cell_ctrl(obj, row, 0, LV_TABLE_CELL_CTRL_CUSTOM_1);
  64              		.loc 1 47 5 is_stmt 1 view .LVU10
  65              		.loc 1 47 7 is_stmt 0 view .LVU11
  66 0022 40B1     		cbz	r0, .L2
  67              		.loc 1 47 13 is_stmt 1 discriminator 1 view .LVU12
  68 0024 1023     		movs	r3, #16
ARM GAS  /tmp/cckDkQG7.s 			page 3


  69 0026 0022     		movs	r2, #0
  70 0028 BDF80410 		ldrh	r1, [sp, #4]
  71 002c 2046     		mov	r0, r4
  72              	.LVL5:
  73              		.loc 1 47 13 is_stmt 0 discriminator 1 view .LVU13
  74 002e FFF7FEFF 		bl	lv_table_clear_cell_ctrl
  75              	.LVL6:
  76              	.L1:
  48:Middlewares/lvgl/examples/widgets/table/lv_example_table_2.c ****     else lv_table_add_cell_ctrl(obj, row, 0, LV_TABLE_CELL_CTRL_CUSTOM_1);
  49:Middlewares/lvgl/examples/widgets/table/lv_example_table_2.c **** }
  77              		.loc 1 49 1 view .LVU14
  78 0032 02B0     		add	sp, sp, #8
  79              	.LCFI2:
  80              		.cfi_remember_state
  81              		.cfi_def_cfa_offset 8
  82              		@ sp needed
  83 0034 10BD     		pop	{r4, pc}
  84              	.LVL7:
  85              	.L2:
  86              	.LCFI3:
  87              		.cfi_restore_state
  48:Middlewares/lvgl/examples/widgets/table/lv_example_table_2.c ****     else lv_table_add_cell_ctrl(obj, row, 0, LV_TABLE_CELL_CTRL_CUSTOM_1);
  88              		.loc 1 48 10 is_stmt 1 view .LVU15
  89 0036 1023     		movs	r3, #16
  90 0038 0022     		movs	r2, #0
  91 003a BDF80410 		ldrh	r1, [sp, #4]
  92 003e 2046     		mov	r0, r4
  93              	.LVL8:
  48:Middlewares/lvgl/examples/widgets/table/lv_example_table_2.c ****     else lv_table_add_cell_ctrl(obj, row, 0, LV_TABLE_CELL_CTRL_CUSTOM_1);
  94              		.loc 1 48 10 is_stmt 0 view .LVU16
  95 0040 FFF7FEFF 		bl	lv_table_add_cell_ctrl
  96              	.LVL9:
  97              		.loc 1 49 1 view .LVU17
  98 0044 F5E7     		b	.L1
  99              		.cfi_endproc
 100              	.LFE185:
 102              		.section	.text.draw_event_cb,"ax",%progbits
 103              		.align	1
 104              		.syntax unified
 105              		.thumb
 106              		.thumb_func
 107              		.fpu fpv4-sp-d16
 109              	draw_event_cb:
 110              	.LVL10:
 111              	.LFB184:
   7:Middlewares/lvgl/examples/widgets/table/lv_example_table_2.c ****     lv_obj_t * obj = lv_event_get_target(e);
 112              		.loc 1 7 1 is_stmt 1 view -0
 113              		.cfi_startproc
 114              		@ args = 0, pretend = 0, frame = 64
 115              		@ frame_needed = 0, uses_anonymous_args = 0
   7:Middlewares/lvgl/examples/widgets/table/lv_example_table_2.c ****     lv_obj_t * obj = lv_event_get_target(e);
 116              		.loc 1 7 1 is_stmt 0 view .LVU19
 117 0000 70B5     		push	{r4, r5, r6, lr}
 118              	.LCFI4:
 119              		.cfi_def_cfa_offset 16
 120              		.cfi_offset 4, -16
 121              		.cfi_offset 5, -12
ARM GAS  /tmp/cckDkQG7.s 			page 4


 122              		.cfi_offset 6, -8
 123              		.cfi_offset 14, -4
 124 0002 90B0     		sub	sp, sp, #64
 125              	.LCFI5:
 126              		.cfi_def_cfa_offset 80
 127 0004 0446     		mov	r4, r0
   8:Middlewares/lvgl/examples/widgets/table/lv_example_table_2.c ****     lv_obj_draw_part_dsc_t * dsc = lv_event_get_draw_part_dsc(e);
 128              		.loc 1 8 5 is_stmt 1 view .LVU20
   8:Middlewares/lvgl/examples/widgets/table/lv_example_table_2.c ****     lv_obj_draw_part_dsc_t * dsc = lv_event_get_draw_part_dsc(e);
 129              		.loc 1 8 22 is_stmt 0 view .LVU21
 130 0006 FFF7FEFF 		bl	lv_event_get_target
 131              	.LVL11:
   8:Middlewares/lvgl/examples/widgets/table/lv_example_table_2.c ****     lv_obj_draw_part_dsc_t * dsc = lv_event_get_draw_part_dsc(e);
 132              		.loc 1 8 22 view .LVU22
 133 000a 0546     		mov	r5, r0
 134              	.LVL12:
   9:Middlewares/lvgl/examples/widgets/table/lv_example_table_2.c ****     /*If the cells are drawn...*/
 135              		.loc 1 9 5 is_stmt 1 view .LVU23
   9:Middlewares/lvgl/examples/widgets/table/lv_example_table_2.c ****     /*If the cells are drawn...*/
 136              		.loc 1 9 36 is_stmt 0 view .LVU24
 137 000c 2046     		mov	r0, r4
 138              	.LVL13:
   9:Middlewares/lvgl/examples/widgets/table/lv_example_table_2.c ****     /*If the cells are drawn...*/
 139              		.loc 1 9 36 view .LVU25
 140 000e FFF7FEFF 		bl	lv_event_get_draw_part_dsc
 141              	.LVL14:
  11:Middlewares/lvgl/examples/widgets/table/lv_example_table_2.c ****         bool chk = lv_table_has_cell_ctrl(obj, dsc->id, 0, LV_TABLE_CELL_CTRL_CUSTOM_1);
 142              		.loc 1 11 5 is_stmt 1 view .LVU26
  11:Middlewares/lvgl/examples/widgets/table/lv_example_table_2.c ****         bool chk = lv_table_has_cell_ctrl(obj, dsc->id, 0, LV_TABLE_CELL_CTRL_CUSTOM_1);
 143              		.loc 1 11 11 is_stmt 0 view .LVU27
 144 0012 436B     		ldr	r3, [r0, #52]
  11:Middlewares/lvgl/examples/widgets/table/lv_example_table_2.c ****         bool chk = lv_table_has_cell_ctrl(obj, dsc->id, 0, LV_TABLE_CELL_CTRL_CUSTOM_1);
 145              		.loc 1 11 7 view .LVU28
 146 0014 B3F5A02F 		cmp	r3, #327680
 147 0018 01D0     		beq	.L12
 148              	.LVL15:
 149              	.L5:
  38:Middlewares/lvgl/examples/widgets/table/lv_example_table_2.c **** 
 150              		.loc 1 38 1 view .LVU29
 151 001a 10B0     		add	sp, sp, #64
 152              	.LCFI6:
 153              		.cfi_remember_state
 154              		.cfi_def_cfa_offset 16
 155              		@ sp needed
 156 001c 70BD     		pop	{r4, r5, r6, pc}
 157              	.LVL16:
 158              	.L12:
 159              	.LCFI7:
 160              		.cfi_restore_state
  38:Middlewares/lvgl/examples/widgets/table/lv_example_table_2.c **** 
 161              		.loc 1 38 1 view .LVU30
 162 001e 0446     		mov	r4, r0
 163              	.LVL17:
 164              	.LBB11:
  12:Middlewares/lvgl/examples/widgets/table/lv_example_table_2.c **** 
 165              		.loc 1 12 9 is_stmt 1 view .LVU31
  12:Middlewares/lvgl/examples/widgets/table/lv_example_table_2.c **** 
ARM GAS  /tmp/cckDkQG7.s 			page 5


 166              		.loc 1 12 20 is_stmt 0 view .LVU32
 167 0020 1023     		movs	r3, #16
 168 0022 0022     		movs	r2, #0
 169 0024 018F     		ldrh	r1, [r0, #56]
 170 0026 2846     		mov	r0, r5
 171              	.LVL18:
  12:Middlewares/lvgl/examples/widgets/table/lv_example_table_2.c **** 
 172              		.loc 1 12 20 view .LVU33
 173 0028 FFF7FEFF 		bl	lv_table_has_cell_ctrl
 174              	.LVL19:
 175 002c 0646     		mov	r6, r0
 176              	.LVL20:
  14:Middlewares/lvgl/examples/widgets/table/lv_example_table_2.c ****         lv_draw_rect_dsc_init(&rect_dsc);
 177              		.loc 1 14 9 is_stmt 1 view .LVU34
  15:Middlewares/lvgl/examples/widgets/table/lv_example_table_2.c ****         rect_dsc.bg_color = chk ? lv_theme_get_color_primary(obj) : lv_palette_lighten(LV_PALETTE_G
 178              		.loc 1 15 9 view .LVU35
 179 002e 03A8     		add	r0, sp, #12
 180 0030 FFF7FEFF 		bl	lv_draw_rect_dsc_init
 181              	.LVL21:
  16:Middlewares/lvgl/examples/widgets/table/lv_example_table_2.c ****         rect_dsc.radius = LV_RADIUS_CIRCLE;
 182              		.loc 1 16 9 view .LVU36
  16:Middlewares/lvgl/examples/widgets/table/lv_example_table_2.c ****         rect_dsc.radius = LV_RADIUS_CIRCLE;
 183              		.loc 1 16 27 is_stmt 0 view .LVU37
 184 0034 002E     		cmp	r6, #0
 185 0036 4AD0     		beq	.L7
  16:Middlewares/lvgl/examples/widgets/table/lv_example_table_2.c ****         rect_dsc.radius = LV_RADIUS_CIRCLE;
 186              		.loc 1 16 35 discriminator 1 view .LVU38
 187 0038 2846     		mov	r0, r5
 188 003a FFF7FEFF 		bl	lv_theme_get_color_primary
 189              	.LVL22:
 190 003e ADF81000 		strh	r0, [sp, #16]	@ movhi
 191              	.L8:
  17:Middlewares/lvgl/examples/widgets/table/lv_example_table_2.c **** 
 192              		.loc 1 17 9 is_stmt 1 view .LVU39
  17:Middlewares/lvgl/examples/widgets/table/lv_example_table_2.c **** 
 193              		.loc 1 17 25 is_stmt 0 view .LVU40
 194 0042 47F6FF73 		movw	r3, #32767
 195 0046 ADF80C30 		strh	r3, [sp, #12]	@ movhi
  19:Middlewares/lvgl/examples/widgets/table/lv_example_table_2.c ****         sw_area.x1 = dsc->draw_area->x2 - 50;
 196              		.loc 1 19 9 is_stmt 1 view .LVU41
  20:Middlewares/lvgl/examples/widgets/table/lv_example_table_2.c ****         sw_area.x2 = sw_area.x1 + 40;
 197              		.loc 1 20 9 view .LVU42
  20:Middlewares/lvgl/examples/widgets/table/lv_example_table_2.c ****         sw_area.x2 = sw_area.x1 + 40;
 198              		.loc 1 20 25 is_stmt 0 view .LVU43
 199 004a 6368     		ldr	r3, [r4, #4]
  20:Middlewares/lvgl/examples/widgets/table/lv_example_table_2.c ****         sw_area.x2 = sw_area.x1 + 40;
 200              		.loc 1 20 36 view .LVU44
 201 004c 9B88     		ldrh	r3, [r3, #4]
  20:Middlewares/lvgl/examples/widgets/table/lv_example_table_2.c ****         sw_area.x2 = sw_area.x1 + 40;
 202              		.loc 1 20 41 view .LVU45
 203 004e 323B     		subs	r3, r3, #50
 204 0050 9AB2     		uxth	r2, r3
  20:Middlewares/lvgl/examples/widgets/table/lv_example_table_2.c ****         sw_area.x2 = sw_area.x1 + 40;
 205              		.loc 1 20 20 view .LVU46
 206 0052 ADF80430 		strh	r3, [sp, #4]	@ movhi
  21:Middlewares/lvgl/examples/widgets/table/lv_example_table_2.c ****         sw_area.y1 =  dsc->draw_area->y1 + lv_area_get_height(dsc->draw_area) / 2 - 10;
 207              		.loc 1 21 9 is_stmt 1 view .LVU47
ARM GAS  /tmp/cckDkQG7.s 			page 6


  21:Middlewares/lvgl/examples/widgets/table/lv_example_table_2.c ****         sw_area.y1 =  dsc->draw_area->y1 + lv_area_get_height(dsc->draw_area) / 2 - 10;
 208              		.loc 1 21 33 is_stmt 0 view .LVU48
 209 0056 02F12803 		add	r3, r2, #40
  21:Middlewares/lvgl/examples/widgets/table/lv_example_table_2.c ****         sw_area.y1 =  dsc->draw_area->y1 + lv_area_get_height(dsc->draw_area) / 2 - 10;
 210              		.loc 1 21 20 view .LVU49
 211 005a ADF80830 		strh	r3, [sp, #8]	@ movhi
  22:Middlewares/lvgl/examples/widgets/table/lv_example_table_2.c ****         sw_area.y2 = sw_area.y1 + 20;
 212              		.loc 1 22 9 is_stmt 1 view .LVU50
  22:Middlewares/lvgl/examples/widgets/table/lv_example_table_2.c ****         sw_area.y2 = sw_area.y1 + 20;
 213              		.loc 1 22 26 is_stmt 0 view .LVU51
 214 005e 6368     		ldr	r3, [r4, #4]
  22:Middlewares/lvgl/examples/widgets/table/lv_example_table_2.c ****         sw_area.y2 = sw_area.y1 + 20;
 215              		.loc 1 22 37 view .LVU52
 216 0060 5A88     		ldrh	r2, [r3, #2]
 217              	.LVL23:
 218              	.LBB12:
 219              	.LBI12:
 220              		.file 2 "Middlewares/lvgl/examples/widgets/table/../../../src/hal/../misc/lv_area.h"
   1:Middlewares/lvgl/examples/widgets/table/../../../src/hal/../misc/lv_area.h **** /**
   2:Middlewares/lvgl/examples/widgets/table/../../../src/hal/../misc/lv_area.h ****  * @file lv_area.h
   3:Middlewares/lvgl/examples/widgets/table/../../../src/hal/../misc/lv_area.h ****  *
   4:Middlewares/lvgl/examples/widgets/table/../../../src/hal/../misc/lv_area.h ****  */
   5:Middlewares/lvgl/examples/widgets/table/../../../src/hal/../misc/lv_area.h **** 
   6:Middlewares/lvgl/examples/widgets/table/../../../src/hal/../misc/lv_area.h **** #ifndef LV_AREA_H
   7:Middlewares/lvgl/examples/widgets/table/../../../src/hal/../misc/lv_area.h **** #define LV_AREA_H
   8:Middlewares/lvgl/examples/widgets/table/../../../src/hal/../misc/lv_area.h **** 
   9:Middlewares/lvgl/examples/widgets/table/../../../src/hal/../misc/lv_area.h **** #ifdef __cplusplus
  10:Middlewares/lvgl/examples/widgets/table/../../../src/hal/../misc/lv_area.h **** extern "C" {
  11:Middlewares/lvgl/examples/widgets/table/../../../src/hal/../misc/lv_area.h **** #endif
  12:Middlewares/lvgl/examples/widgets/table/../../../src/hal/../misc/lv_area.h **** 
  13:Middlewares/lvgl/examples/widgets/table/../../../src/hal/../misc/lv_area.h **** /*********************
  14:Middlewares/lvgl/examples/widgets/table/../../../src/hal/../misc/lv_area.h ****  *      INCLUDES
  15:Middlewares/lvgl/examples/widgets/table/../../../src/hal/../misc/lv_area.h ****  *********************/
  16:Middlewares/lvgl/examples/widgets/table/../../../src/hal/../misc/lv_area.h **** #include "../lv_conf_internal.h"
  17:Middlewares/lvgl/examples/widgets/table/../../../src/hal/../misc/lv_area.h **** #include <string.h>
  18:Middlewares/lvgl/examples/widgets/table/../../../src/hal/../misc/lv_area.h **** #include <stdbool.h>
  19:Middlewares/lvgl/examples/widgets/table/../../../src/hal/../misc/lv_area.h **** #include <stdint.h>
  20:Middlewares/lvgl/examples/widgets/table/../../../src/hal/../misc/lv_area.h **** 
  21:Middlewares/lvgl/examples/widgets/table/../../../src/hal/../misc/lv_area.h **** /*********************
  22:Middlewares/lvgl/examples/widgets/table/../../../src/hal/../misc/lv_area.h ****  *      DEFINES
  23:Middlewares/lvgl/examples/widgets/table/../../../src/hal/../misc/lv_area.h ****  *********************/
  24:Middlewares/lvgl/examples/widgets/table/../../../src/hal/../misc/lv_area.h **** 
  25:Middlewares/lvgl/examples/widgets/table/../../../src/hal/../misc/lv_area.h **** #define _LV_COORD_MAX_REDUCE    8192
  26:Middlewares/lvgl/examples/widgets/table/../../../src/hal/../misc/lv_area.h **** 
  27:Middlewares/lvgl/examples/widgets/table/../../../src/hal/../misc/lv_area.h **** #if LV_USE_LARGE_COORD
  28:Middlewares/lvgl/examples/widgets/table/../../../src/hal/../misc/lv_area.h **** typedef int32_t lv_coord_t;
  29:Middlewares/lvgl/examples/widgets/table/../../../src/hal/../misc/lv_area.h **** #else
  30:Middlewares/lvgl/examples/widgets/table/../../../src/hal/../misc/lv_area.h **** typedef int16_t lv_coord_t;
  31:Middlewares/lvgl/examples/widgets/table/../../../src/hal/../misc/lv_area.h **** #endif
  32:Middlewares/lvgl/examples/widgets/table/../../../src/hal/../misc/lv_area.h **** 
  33:Middlewares/lvgl/examples/widgets/table/../../../src/hal/../misc/lv_area.h **** /*To allow some special values in the end reduce the max value*/
  34:Middlewares/lvgl/examples/widgets/table/../../../src/hal/../misc/lv_area.h **** #define LV_COORD_MAX ((lv_coord_t)((uint32_t)((uint32_t)1 << (8 * sizeof(lv_coord_t) - 1)) - _LV_CO
  35:Middlewares/lvgl/examples/widgets/table/../../../src/hal/../misc/lv_area.h **** #define LV_COORD_MIN (-LV_COORD_MAX)
  36:Middlewares/lvgl/examples/widgets/table/../../../src/hal/../misc/lv_area.h **** 
  37:Middlewares/lvgl/examples/widgets/table/../../../src/hal/../misc/lv_area.h **** LV_EXPORT_CONST_INT(LV_COORD_MAX);
  38:Middlewares/lvgl/examples/widgets/table/../../../src/hal/../misc/lv_area.h **** LV_EXPORT_CONST_INT(LV_COORD_MIN);
  39:Middlewares/lvgl/examples/widgets/table/../../../src/hal/../misc/lv_area.h **** 
ARM GAS  /tmp/cckDkQG7.s 			page 7


  40:Middlewares/lvgl/examples/widgets/table/../../../src/hal/../misc/lv_area.h **** /**********************
  41:Middlewares/lvgl/examples/widgets/table/../../../src/hal/../misc/lv_area.h ****  *      TYPEDEFS
  42:Middlewares/lvgl/examples/widgets/table/../../../src/hal/../misc/lv_area.h ****  **********************/
  43:Middlewares/lvgl/examples/widgets/table/../../../src/hal/../misc/lv_area.h **** 
  44:Middlewares/lvgl/examples/widgets/table/../../../src/hal/../misc/lv_area.h **** /**
  45:Middlewares/lvgl/examples/widgets/table/../../../src/hal/../misc/lv_area.h ****  * Represents a point on the screen.
  46:Middlewares/lvgl/examples/widgets/table/../../../src/hal/../misc/lv_area.h ****  */
  47:Middlewares/lvgl/examples/widgets/table/../../../src/hal/../misc/lv_area.h **** typedef struct {
  48:Middlewares/lvgl/examples/widgets/table/../../../src/hal/../misc/lv_area.h ****     lv_coord_t x;
  49:Middlewares/lvgl/examples/widgets/table/../../../src/hal/../misc/lv_area.h ****     lv_coord_t y;
  50:Middlewares/lvgl/examples/widgets/table/../../../src/hal/../misc/lv_area.h **** } lv_point_t;
  51:Middlewares/lvgl/examples/widgets/table/../../../src/hal/../misc/lv_area.h **** 
  52:Middlewares/lvgl/examples/widgets/table/../../../src/hal/../misc/lv_area.h **** /** Represents an area of the screen.*/
  53:Middlewares/lvgl/examples/widgets/table/../../../src/hal/../misc/lv_area.h **** typedef struct {
  54:Middlewares/lvgl/examples/widgets/table/../../../src/hal/../misc/lv_area.h ****     lv_coord_t x1;
  55:Middlewares/lvgl/examples/widgets/table/../../../src/hal/../misc/lv_area.h ****     lv_coord_t y1;
  56:Middlewares/lvgl/examples/widgets/table/../../../src/hal/../misc/lv_area.h ****     lv_coord_t x2;
  57:Middlewares/lvgl/examples/widgets/table/../../../src/hal/../misc/lv_area.h ****     lv_coord_t y2;
  58:Middlewares/lvgl/examples/widgets/table/../../../src/hal/../misc/lv_area.h **** } lv_area_t;
  59:Middlewares/lvgl/examples/widgets/table/../../../src/hal/../misc/lv_area.h **** 
  60:Middlewares/lvgl/examples/widgets/table/../../../src/hal/../misc/lv_area.h **** /** Alignments*/
  61:Middlewares/lvgl/examples/widgets/table/../../../src/hal/../misc/lv_area.h **** enum {
  62:Middlewares/lvgl/examples/widgets/table/../../../src/hal/../misc/lv_area.h ****     LV_ALIGN_DEFAULT = 0,
  63:Middlewares/lvgl/examples/widgets/table/../../../src/hal/../misc/lv_area.h ****     LV_ALIGN_TOP_LEFT,
  64:Middlewares/lvgl/examples/widgets/table/../../../src/hal/../misc/lv_area.h ****     LV_ALIGN_TOP_MID,
  65:Middlewares/lvgl/examples/widgets/table/../../../src/hal/../misc/lv_area.h ****     LV_ALIGN_TOP_RIGHT,
  66:Middlewares/lvgl/examples/widgets/table/../../../src/hal/../misc/lv_area.h ****     LV_ALIGN_BOTTOM_LEFT,
  67:Middlewares/lvgl/examples/widgets/table/../../../src/hal/../misc/lv_area.h ****     LV_ALIGN_BOTTOM_MID,
  68:Middlewares/lvgl/examples/widgets/table/../../../src/hal/../misc/lv_area.h ****     LV_ALIGN_BOTTOM_RIGHT,
  69:Middlewares/lvgl/examples/widgets/table/../../../src/hal/../misc/lv_area.h ****     LV_ALIGN_LEFT_MID,
  70:Middlewares/lvgl/examples/widgets/table/../../../src/hal/../misc/lv_area.h ****     LV_ALIGN_RIGHT_MID,
  71:Middlewares/lvgl/examples/widgets/table/../../../src/hal/../misc/lv_area.h ****     LV_ALIGN_CENTER,
  72:Middlewares/lvgl/examples/widgets/table/../../../src/hal/../misc/lv_area.h **** 
  73:Middlewares/lvgl/examples/widgets/table/../../../src/hal/../misc/lv_area.h ****     LV_ALIGN_OUT_TOP_LEFT,
  74:Middlewares/lvgl/examples/widgets/table/../../../src/hal/../misc/lv_area.h ****     LV_ALIGN_OUT_TOP_MID,
  75:Middlewares/lvgl/examples/widgets/table/../../../src/hal/../misc/lv_area.h ****     LV_ALIGN_OUT_TOP_RIGHT,
  76:Middlewares/lvgl/examples/widgets/table/../../../src/hal/../misc/lv_area.h ****     LV_ALIGN_OUT_BOTTOM_LEFT,
  77:Middlewares/lvgl/examples/widgets/table/../../../src/hal/../misc/lv_area.h ****     LV_ALIGN_OUT_BOTTOM_MID,
  78:Middlewares/lvgl/examples/widgets/table/../../../src/hal/../misc/lv_area.h ****     LV_ALIGN_OUT_BOTTOM_RIGHT,
  79:Middlewares/lvgl/examples/widgets/table/../../../src/hal/../misc/lv_area.h ****     LV_ALIGN_OUT_LEFT_TOP,
  80:Middlewares/lvgl/examples/widgets/table/../../../src/hal/../misc/lv_area.h ****     LV_ALIGN_OUT_LEFT_MID,
  81:Middlewares/lvgl/examples/widgets/table/../../../src/hal/../misc/lv_area.h ****     LV_ALIGN_OUT_LEFT_BOTTOM,
  82:Middlewares/lvgl/examples/widgets/table/../../../src/hal/../misc/lv_area.h ****     LV_ALIGN_OUT_RIGHT_TOP,
  83:Middlewares/lvgl/examples/widgets/table/../../../src/hal/../misc/lv_area.h ****     LV_ALIGN_OUT_RIGHT_MID,
  84:Middlewares/lvgl/examples/widgets/table/../../../src/hal/../misc/lv_area.h ****     LV_ALIGN_OUT_RIGHT_BOTTOM,
  85:Middlewares/lvgl/examples/widgets/table/../../../src/hal/../misc/lv_area.h **** };
  86:Middlewares/lvgl/examples/widgets/table/../../../src/hal/../misc/lv_area.h **** typedef uint8_t lv_align_t;
  87:Middlewares/lvgl/examples/widgets/table/../../../src/hal/../misc/lv_area.h **** 
  88:Middlewares/lvgl/examples/widgets/table/../../../src/hal/../misc/lv_area.h **** enum {
  89:Middlewares/lvgl/examples/widgets/table/../../../src/hal/../misc/lv_area.h ****     LV_DIR_NONE     = 0x00,
  90:Middlewares/lvgl/examples/widgets/table/../../../src/hal/../misc/lv_area.h ****     LV_DIR_LEFT     = (1 << 0),
  91:Middlewares/lvgl/examples/widgets/table/../../../src/hal/../misc/lv_area.h ****     LV_DIR_RIGHT    = (1 << 1),
  92:Middlewares/lvgl/examples/widgets/table/../../../src/hal/../misc/lv_area.h ****     LV_DIR_TOP      = (1 << 2),
  93:Middlewares/lvgl/examples/widgets/table/../../../src/hal/../misc/lv_area.h ****     LV_DIR_BOTTOM   = (1 << 3),
  94:Middlewares/lvgl/examples/widgets/table/../../../src/hal/../misc/lv_area.h ****     LV_DIR_HOR      = LV_DIR_LEFT | LV_DIR_RIGHT,
  95:Middlewares/lvgl/examples/widgets/table/../../../src/hal/../misc/lv_area.h ****     LV_DIR_VER      = LV_DIR_TOP | LV_DIR_BOTTOM,
  96:Middlewares/lvgl/examples/widgets/table/../../../src/hal/../misc/lv_area.h ****     LV_DIR_ALL      = LV_DIR_HOR | LV_DIR_VER,
ARM GAS  /tmp/cckDkQG7.s 			page 8


  97:Middlewares/lvgl/examples/widgets/table/../../../src/hal/../misc/lv_area.h **** };
  98:Middlewares/lvgl/examples/widgets/table/../../../src/hal/../misc/lv_area.h **** 
  99:Middlewares/lvgl/examples/widgets/table/../../../src/hal/../misc/lv_area.h **** typedef uint8_t lv_dir_t;
 100:Middlewares/lvgl/examples/widgets/table/../../../src/hal/../misc/lv_area.h **** 
 101:Middlewares/lvgl/examples/widgets/table/../../../src/hal/../misc/lv_area.h **** /**********************
 102:Middlewares/lvgl/examples/widgets/table/../../../src/hal/../misc/lv_area.h ****  * GLOBAL PROTOTYPES
 103:Middlewares/lvgl/examples/widgets/table/../../../src/hal/../misc/lv_area.h ****  **********************/
 104:Middlewares/lvgl/examples/widgets/table/../../../src/hal/../misc/lv_area.h **** 
 105:Middlewares/lvgl/examples/widgets/table/../../../src/hal/../misc/lv_area.h **** /**
 106:Middlewares/lvgl/examples/widgets/table/../../../src/hal/../misc/lv_area.h ****  * Initialize an area
 107:Middlewares/lvgl/examples/widgets/table/../../../src/hal/../misc/lv_area.h ****  * @param area_p pointer to an area
 108:Middlewares/lvgl/examples/widgets/table/../../../src/hal/../misc/lv_area.h ****  * @param x1 left coordinate of the area
 109:Middlewares/lvgl/examples/widgets/table/../../../src/hal/../misc/lv_area.h ****  * @param y1 top coordinate of the area
 110:Middlewares/lvgl/examples/widgets/table/../../../src/hal/../misc/lv_area.h ****  * @param x2 right coordinate of the area
 111:Middlewares/lvgl/examples/widgets/table/../../../src/hal/../misc/lv_area.h ****  * @param y2 bottom coordinate of the area
 112:Middlewares/lvgl/examples/widgets/table/../../../src/hal/../misc/lv_area.h ****  */
 113:Middlewares/lvgl/examples/widgets/table/../../../src/hal/../misc/lv_area.h **** void lv_area_set(lv_area_t * area_p, lv_coord_t x1, lv_coord_t y1, lv_coord_t x2, lv_coord_t y2);
 114:Middlewares/lvgl/examples/widgets/table/../../../src/hal/../misc/lv_area.h **** 
 115:Middlewares/lvgl/examples/widgets/table/../../../src/hal/../misc/lv_area.h **** /**
 116:Middlewares/lvgl/examples/widgets/table/../../../src/hal/../misc/lv_area.h ****  * Copy an area
 117:Middlewares/lvgl/examples/widgets/table/../../../src/hal/../misc/lv_area.h ****  * @param dest pointer to the destination area
 118:Middlewares/lvgl/examples/widgets/table/../../../src/hal/../misc/lv_area.h ****  * @param src pointer to the source area
 119:Middlewares/lvgl/examples/widgets/table/../../../src/hal/../misc/lv_area.h ****  */
 120:Middlewares/lvgl/examples/widgets/table/../../../src/hal/../misc/lv_area.h **** inline static void lv_area_copy(lv_area_t * dest, const lv_area_t * src)
 121:Middlewares/lvgl/examples/widgets/table/../../../src/hal/../misc/lv_area.h **** {
 122:Middlewares/lvgl/examples/widgets/table/../../../src/hal/../misc/lv_area.h ****     dest->x1 = src->x1;
 123:Middlewares/lvgl/examples/widgets/table/../../../src/hal/../misc/lv_area.h ****     dest->y1 = src->y1;
 124:Middlewares/lvgl/examples/widgets/table/../../../src/hal/../misc/lv_area.h ****     dest->x2 = src->x2;
 125:Middlewares/lvgl/examples/widgets/table/../../../src/hal/../misc/lv_area.h ****     dest->y2 = src->y2;
 126:Middlewares/lvgl/examples/widgets/table/../../../src/hal/../misc/lv_area.h **** }
 127:Middlewares/lvgl/examples/widgets/table/../../../src/hal/../misc/lv_area.h **** 
 128:Middlewares/lvgl/examples/widgets/table/../../../src/hal/../misc/lv_area.h **** /**
 129:Middlewares/lvgl/examples/widgets/table/../../../src/hal/../misc/lv_area.h ****  * Get the width of an area
 130:Middlewares/lvgl/examples/widgets/table/../../../src/hal/../misc/lv_area.h ****  * @param area_p pointer to an area
 131:Middlewares/lvgl/examples/widgets/table/../../../src/hal/../misc/lv_area.h ****  * @return the width of the area (if x1 == x2 -> width = 1)
 132:Middlewares/lvgl/examples/widgets/table/../../../src/hal/../misc/lv_area.h ****  */
 133:Middlewares/lvgl/examples/widgets/table/../../../src/hal/../misc/lv_area.h **** static inline lv_coord_t lv_area_get_width(const lv_area_t * area_p)
 134:Middlewares/lvgl/examples/widgets/table/../../../src/hal/../misc/lv_area.h **** {
 135:Middlewares/lvgl/examples/widgets/table/../../../src/hal/../misc/lv_area.h ****     return (lv_coord_t)(area_p->x2 - area_p->x1 + 1);
 136:Middlewares/lvgl/examples/widgets/table/../../../src/hal/../misc/lv_area.h **** }
 137:Middlewares/lvgl/examples/widgets/table/../../../src/hal/../misc/lv_area.h **** 
 138:Middlewares/lvgl/examples/widgets/table/../../../src/hal/../misc/lv_area.h **** /**
 139:Middlewares/lvgl/examples/widgets/table/../../../src/hal/../misc/lv_area.h ****  * Get the height of an area
 140:Middlewares/lvgl/examples/widgets/table/../../../src/hal/../misc/lv_area.h ****  * @param area_p pointer to an area
 141:Middlewares/lvgl/examples/widgets/table/../../../src/hal/../misc/lv_area.h ****  * @return the height of the area (if y1 == y2 -> height = 1)
 142:Middlewares/lvgl/examples/widgets/table/../../../src/hal/../misc/lv_area.h ****  */
 143:Middlewares/lvgl/examples/widgets/table/../../../src/hal/../misc/lv_area.h **** static inline lv_coord_t lv_area_get_height(const lv_area_t * area_p)
 221              		.loc 2 143 26 is_stmt 1 view .LVU53
 222              	.LBB13:
 144:Middlewares/lvgl/examples/widgets/table/../../../src/hal/../misc/lv_area.h **** {
 145:Middlewares/lvgl/examples/widgets/table/../../../src/hal/../misc/lv_area.h ****     return (lv_coord_t)(area_p->y2 - area_p->y1 + 1);
 223              		.loc 2 145 5 view .LVU54
 224              		.loc 2 145 31 is_stmt 0 view .LVU55
 225 0062 DB88     		ldrh	r3, [r3, #6]
 226              	.LVL24:
 227              		.loc 2 145 36 view .LVU56
 228 0064 9B1A     		subs	r3, r3, r2
ARM GAS  /tmp/cckDkQG7.s 			page 9


 229 0066 9BB2     		uxth	r3, r3
 230              		.loc 2 145 49 view .LVU57
 231 0068 0133     		adds	r3, r3, #1
 232              	.LVL25:
 233              		.loc 2 145 49 view .LVU58
 234              	.LBE13:
 235              	.LBE12:
  22:Middlewares/lvgl/examples/widgets/table/lv_example_table_2.c ****         sw_area.y2 = sw_area.y1 + 20;
 236              		.loc 1 22 42 view .LVU59
 237 006a C3F3C031 		ubfx	r1, r3, #15, #1
 238 006e 01FA83F3 		sxtah	r3, r1, r3
 239 0072 02EB6303 		add	r3, r2, r3, asr #1
 240 0076 9BB2     		uxth	r3, r3
  22:Middlewares/lvgl/examples/widgets/table/lv_example_table_2.c ****         sw_area.y2 = sw_area.y1 + 20;
 241              		.loc 1 22 83 view .LVU60
 242 0078 0A3B     		subs	r3, r3, #10
 243 007a 9AB2     		uxth	r2, r3
  22:Middlewares/lvgl/examples/widgets/table/lv_example_table_2.c ****         sw_area.y2 = sw_area.y1 + 20;
 244              		.loc 1 22 20 view .LVU61
 245 007c ADF80630 		strh	r3, [sp, #6]	@ movhi
  23:Middlewares/lvgl/examples/widgets/table/lv_example_table_2.c ****         lv_draw_rect(&sw_area, dsc->clip_area, &rect_dsc);
 246              		.loc 1 23 9 is_stmt 1 view .LVU62
  23:Middlewares/lvgl/examples/widgets/table/lv_example_table_2.c ****         lv_draw_rect(&sw_area, dsc->clip_area, &rect_dsc);
 247              		.loc 1 23 33 is_stmt 0 view .LVU63
 248 0080 02F11403 		add	r3, r2, #20
  23:Middlewares/lvgl/examples/widgets/table/lv_example_table_2.c ****         lv_draw_rect(&sw_area, dsc->clip_area, &rect_dsc);
 249              		.loc 1 23 20 view .LVU64
 250 0084 ADF80A30 		strh	r3, [sp, #10]	@ movhi
  24:Middlewares/lvgl/examples/widgets/table/lv_example_table_2.c **** 
 251              		.loc 1 24 9 is_stmt 1 view .LVU65
 252 0088 03AA     		add	r2, sp, #12
 253 008a 2168     		ldr	r1, [r4]
 254 008c 01A8     		add	r0, sp, #4
 255 008e FFF7FEFF 		bl	lv_draw_rect
 256              	.LVL26:
  26:Middlewares/lvgl/examples/widgets/table/lv_example_table_2.c ****         if(chk) {
 257              		.loc 1 26 9 view .LVU66
 258              	.LBB14:
 259              	.LBI14:
 260              		.file 3 "Middlewares/lvgl/examples/widgets/table/../../../src/hal/../misc/lv_color.h"
   1:Middlewares/lvgl/examples/widgets/table/../../../src/hal/../misc/lv_color.h **** /**
   2:Middlewares/lvgl/examples/widgets/table/../../../src/hal/../misc/lv_color.h ****  * @file lv_color.h
   3:Middlewares/lvgl/examples/widgets/table/../../../src/hal/../misc/lv_color.h ****  *
   4:Middlewares/lvgl/examples/widgets/table/../../../src/hal/../misc/lv_color.h ****  */
   5:Middlewares/lvgl/examples/widgets/table/../../../src/hal/../misc/lv_color.h **** 
   6:Middlewares/lvgl/examples/widgets/table/../../../src/hal/../misc/lv_color.h **** #ifndef LV_COLOR_H
   7:Middlewares/lvgl/examples/widgets/table/../../../src/hal/../misc/lv_color.h **** #define LV_COLOR_H
   8:Middlewares/lvgl/examples/widgets/table/../../../src/hal/../misc/lv_color.h **** 
   9:Middlewares/lvgl/examples/widgets/table/../../../src/hal/../misc/lv_color.h **** #ifdef __cplusplus
  10:Middlewares/lvgl/examples/widgets/table/../../../src/hal/../misc/lv_color.h **** extern "C" {
  11:Middlewares/lvgl/examples/widgets/table/../../../src/hal/../misc/lv_color.h **** #endif
  12:Middlewares/lvgl/examples/widgets/table/../../../src/hal/../misc/lv_color.h **** 
  13:Middlewares/lvgl/examples/widgets/table/../../../src/hal/../misc/lv_color.h **** /*********************
  14:Middlewares/lvgl/examples/widgets/table/../../../src/hal/../misc/lv_color.h ****  *      INCLUDES
  15:Middlewares/lvgl/examples/widgets/table/../../../src/hal/../misc/lv_color.h ****  *********************/
  16:Middlewares/lvgl/examples/widgets/table/../../../src/hal/../misc/lv_color.h **** #include "../lv_conf_internal.h"
  17:Middlewares/lvgl/examples/widgets/table/../../../src/hal/../misc/lv_color.h **** #include "lv_math.h"
ARM GAS  /tmp/cckDkQG7.s 			page 10


  18:Middlewares/lvgl/examples/widgets/table/../../../src/hal/../misc/lv_color.h **** #include "lv_types.h"
  19:Middlewares/lvgl/examples/widgets/table/../../../src/hal/../misc/lv_color.h **** 
  20:Middlewares/lvgl/examples/widgets/table/../../../src/hal/../misc/lv_color.h **** /*Error checking*/
  21:Middlewares/lvgl/examples/widgets/table/../../../src/hal/../misc/lv_color.h **** #if LV_COLOR_DEPTH == 24
  22:Middlewares/lvgl/examples/widgets/table/../../../src/hal/../misc/lv_color.h **** #error "LV_COLOR_DEPTH 24 is deprecated. Use LV_COLOR_DEPTH 32 instead (lv_conf.h)"
  23:Middlewares/lvgl/examples/widgets/table/../../../src/hal/../misc/lv_color.h **** #endif
  24:Middlewares/lvgl/examples/widgets/table/../../../src/hal/../misc/lv_color.h **** 
  25:Middlewares/lvgl/examples/widgets/table/../../../src/hal/../misc/lv_color.h **** #if LV_COLOR_DEPTH != 32 && LV_COLOR_SCREEN_TRANSP != 0
  26:Middlewares/lvgl/examples/widgets/table/../../../src/hal/../misc/lv_color.h **** #error "LV_COLOR_SCREEN_TRANSP requires LV_COLOR_DEPTH == 32. Set it in lv_conf.h"
  27:Middlewares/lvgl/examples/widgets/table/../../../src/hal/../misc/lv_color.h **** #endif
  28:Middlewares/lvgl/examples/widgets/table/../../../src/hal/../misc/lv_color.h **** 
  29:Middlewares/lvgl/examples/widgets/table/../../../src/hal/../misc/lv_color.h **** #if LV_COLOR_DEPTH != 16 && LV_COLOR_16_SWAP != 0
  30:Middlewares/lvgl/examples/widgets/table/../../../src/hal/../misc/lv_color.h **** #error "LV_COLOR_16_SWAP requires LV_COLOR_DEPTH == 16. Set it in lv_conf.h"
  31:Middlewares/lvgl/examples/widgets/table/../../../src/hal/../misc/lv_color.h **** #endif
  32:Middlewares/lvgl/examples/widgets/table/../../../src/hal/../misc/lv_color.h **** 
  33:Middlewares/lvgl/examples/widgets/table/../../../src/hal/../misc/lv_color.h **** #include <stdint.h>
  34:Middlewares/lvgl/examples/widgets/table/../../../src/hal/../misc/lv_color.h **** 
  35:Middlewares/lvgl/examples/widgets/table/../../../src/hal/../misc/lv_color.h **** /*********************
  36:Middlewares/lvgl/examples/widgets/table/../../../src/hal/../misc/lv_color.h ****  *      DEFINES
  37:Middlewares/lvgl/examples/widgets/table/../../../src/hal/../misc/lv_color.h ****  *********************/
  38:Middlewares/lvgl/examples/widgets/table/../../../src/hal/../misc/lv_color.h **** 
  39:Middlewares/lvgl/examples/widgets/table/../../../src/hal/../misc/lv_color.h **** /**
  40:Middlewares/lvgl/examples/widgets/table/../../../src/hal/../misc/lv_color.h ****  * Opacity percentages.
  41:Middlewares/lvgl/examples/widgets/table/../../../src/hal/../misc/lv_color.h ****  */
  42:Middlewares/lvgl/examples/widgets/table/../../../src/hal/../misc/lv_color.h **** enum {
  43:Middlewares/lvgl/examples/widgets/table/../../../src/hal/../misc/lv_color.h ****     LV_OPA_TRANSP = 0,
  44:Middlewares/lvgl/examples/widgets/table/../../../src/hal/../misc/lv_color.h ****     LV_OPA_0      = 0,
  45:Middlewares/lvgl/examples/widgets/table/../../../src/hal/../misc/lv_color.h ****     LV_OPA_10     = 25,
  46:Middlewares/lvgl/examples/widgets/table/../../../src/hal/../misc/lv_color.h ****     LV_OPA_20     = 51,
  47:Middlewares/lvgl/examples/widgets/table/../../../src/hal/../misc/lv_color.h ****     LV_OPA_30     = 76,
  48:Middlewares/lvgl/examples/widgets/table/../../../src/hal/../misc/lv_color.h ****     LV_OPA_40     = 102,
  49:Middlewares/lvgl/examples/widgets/table/../../../src/hal/../misc/lv_color.h ****     LV_OPA_50     = 127,
  50:Middlewares/lvgl/examples/widgets/table/../../../src/hal/../misc/lv_color.h ****     LV_OPA_60     = 153,
  51:Middlewares/lvgl/examples/widgets/table/../../../src/hal/../misc/lv_color.h ****     LV_OPA_70     = 178,
  52:Middlewares/lvgl/examples/widgets/table/../../../src/hal/../misc/lv_color.h ****     LV_OPA_80     = 204,
  53:Middlewares/lvgl/examples/widgets/table/../../../src/hal/../misc/lv_color.h ****     LV_OPA_90     = 229,
  54:Middlewares/lvgl/examples/widgets/table/../../../src/hal/../misc/lv_color.h ****     LV_OPA_100    = 255,
  55:Middlewares/lvgl/examples/widgets/table/../../../src/hal/../misc/lv_color.h ****     LV_OPA_COVER  = 255,
  56:Middlewares/lvgl/examples/widgets/table/../../../src/hal/../misc/lv_color.h **** };
  57:Middlewares/lvgl/examples/widgets/table/../../../src/hal/../misc/lv_color.h **** 
  58:Middlewares/lvgl/examples/widgets/table/../../../src/hal/../misc/lv_color.h **** #define LV_OPA_MIN 2    /*Opacities below this will be transparent*/
  59:Middlewares/lvgl/examples/widgets/table/../../../src/hal/../misc/lv_color.h **** #define LV_OPA_MAX 253  /*Opacities above this will fully cover*/
  60:Middlewares/lvgl/examples/widgets/table/../../../src/hal/../misc/lv_color.h **** 
  61:Middlewares/lvgl/examples/widgets/table/../../../src/hal/../misc/lv_color.h **** #if LV_COLOR_DEPTH == 1
  62:Middlewares/lvgl/examples/widgets/table/../../../src/hal/../misc/lv_color.h **** #define LV_COLOR_SIZE 8
  63:Middlewares/lvgl/examples/widgets/table/../../../src/hal/../misc/lv_color.h **** #elif LV_COLOR_DEPTH == 8
  64:Middlewares/lvgl/examples/widgets/table/../../../src/hal/../misc/lv_color.h **** #define LV_COLOR_SIZE 8
  65:Middlewares/lvgl/examples/widgets/table/../../../src/hal/../misc/lv_color.h **** #elif LV_COLOR_DEPTH == 16
  66:Middlewares/lvgl/examples/widgets/table/../../../src/hal/../misc/lv_color.h **** #define LV_COLOR_SIZE 16
  67:Middlewares/lvgl/examples/widgets/table/../../../src/hal/../misc/lv_color.h **** #elif LV_COLOR_DEPTH == 32
  68:Middlewares/lvgl/examples/widgets/table/../../../src/hal/../misc/lv_color.h **** #define LV_COLOR_SIZE 32
  69:Middlewares/lvgl/examples/widgets/table/../../../src/hal/../misc/lv_color.h **** #else
  70:Middlewares/lvgl/examples/widgets/table/../../../src/hal/../misc/lv_color.h **** #error "Invalid LV_COLOR_DEPTH in lv_conf.h! Set it to 1, 8, 16 or 32!"
  71:Middlewares/lvgl/examples/widgets/table/../../../src/hal/../misc/lv_color.h **** #endif
  72:Middlewares/lvgl/examples/widgets/table/../../../src/hal/../misc/lv_color.h **** 
  73:Middlewares/lvgl/examples/widgets/table/../../../src/hal/../misc/lv_color.h **** /**
  74:Middlewares/lvgl/examples/widgets/table/../../../src/hal/../misc/lv_color.h ****  * Adjust color mix functions rounding.
ARM GAS  /tmp/cckDkQG7.s 			page 11


  75:Middlewares/lvgl/examples/widgets/table/../../../src/hal/../misc/lv_color.h ****  * GPUs might calculate color mix (blending) differently.
  76:Middlewares/lvgl/examples/widgets/table/../../../src/hal/../misc/lv_color.h ****  * Should be in range of 0..254
  77:Middlewares/lvgl/examples/widgets/table/../../../src/hal/../misc/lv_color.h ****  * 0: no adjustment, get the integer part of the result (round down)
  78:Middlewares/lvgl/examples/widgets/table/../../../src/hal/../misc/lv_color.h ****  * 64: round up from x.75
  79:Middlewares/lvgl/examples/widgets/table/../../../src/hal/../misc/lv_color.h ****  * 128: round up from half
  80:Middlewares/lvgl/examples/widgets/table/../../../src/hal/../misc/lv_color.h ****  * 192: round up from x.25
  81:Middlewares/lvgl/examples/widgets/table/../../../src/hal/../misc/lv_color.h ****  * 254: round up*/
  82:Middlewares/lvgl/examples/widgets/table/../../../src/hal/../misc/lv_color.h **** #ifndef LV_COLOR_MIX_ROUND_OFS
  83:Middlewares/lvgl/examples/widgets/table/../../../src/hal/../misc/lv_color.h **** #if LV_COLOR_DEPTH == 32
  84:Middlewares/lvgl/examples/widgets/table/../../../src/hal/../misc/lv_color.h **** #define LV_COLOR_MIX_ROUND_OFS 0
  85:Middlewares/lvgl/examples/widgets/table/../../../src/hal/../misc/lv_color.h **** #else
  86:Middlewares/lvgl/examples/widgets/table/../../../src/hal/../misc/lv_color.h **** #define LV_COLOR_MIX_ROUND_OFS 128
  87:Middlewares/lvgl/examples/widgets/table/../../../src/hal/../misc/lv_color.h **** #endif
  88:Middlewares/lvgl/examples/widgets/table/../../../src/hal/../misc/lv_color.h **** #endif
  89:Middlewares/lvgl/examples/widgets/table/../../../src/hal/../misc/lv_color.h **** 
  90:Middlewares/lvgl/examples/widgets/table/../../../src/hal/../misc/lv_color.h **** #if defined(__cplusplus) && !defined(_LV_COLOR_HAS_MODERN_CPP)
  91:Middlewares/lvgl/examples/widgets/table/../../../src/hal/../misc/lv_color.h **** /**
  92:Middlewares/lvgl/examples/widgets/table/../../../src/hal/../misc/lv_color.h **** * MSVC compiler's definition of the __cplusplus indicating 199711L regardless to C++ standard versi
  93:Middlewares/lvgl/examples/widgets/table/../../../src/hal/../misc/lv_color.h **** * see https://devblogs.microsoft.com/cppblog/msvc-now-correctly-reports-cplusplus
  94:Middlewares/lvgl/examples/widgets/table/../../../src/hal/../misc/lv_color.h **** * so we use _MSC_VER macro instead of __cplusplus
  95:Middlewares/lvgl/examples/widgets/table/../../../src/hal/../misc/lv_color.h **** */
  96:Middlewares/lvgl/examples/widgets/table/../../../src/hal/../misc/lv_color.h **** #ifdef _MSC_VER
  97:Middlewares/lvgl/examples/widgets/table/../../../src/hal/../misc/lv_color.h **** #if _MSC_VER >= 1900 /*Visual Studio 2015*/
  98:Middlewares/lvgl/examples/widgets/table/../../../src/hal/../misc/lv_color.h **** #define _LV_COLOR_HAS_MODERN_CPP 1
  99:Middlewares/lvgl/examples/widgets/table/../../../src/hal/../misc/lv_color.h **** #endif
 100:Middlewares/lvgl/examples/widgets/table/../../../src/hal/../misc/lv_color.h **** #else
 101:Middlewares/lvgl/examples/widgets/table/../../../src/hal/../misc/lv_color.h **** #if __cplusplus >= 201103L
 102:Middlewares/lvgl/examples/widgets/table/../../../src/hal/../misc/lv_color.h **** #define _LV_COLOR_HAS_MODERN_CPP 1
 103:Middlewares/lvgl/examples/widgets/table/../../../src/hal/../misc/lv_color.h **** #endif
 104:Middlewares/lvgl/examples/widgets/table/../../../src/hal/../misc/lv_color.h **** #endif
 105:Middlewares/lvgl/examples/widgets/table/../../../src/hal/../misc/lv_color.h **** #endif /*__cplusplus*/
 106:Middlewares/lvgl/examples/widgets/table/../../../src/hal/../misc/lv_color.h **** 
 107:Middlewares/lvgl/examples/widgets/table/../../../src/hal/../misc/lv_color.h **** #ifndef _LV_COLOR_HAS_MODERN_CPP
 108:Middlewares/lvgl/examples/widgets/table/../../../src/hal/../misc/lv_color.h **** #define _LV_COLOR_HAS_MODERN_CPP 0
 109:Middlewares/lvgl/examples/widgets/table/../../../src/hal/../misc/lv_color.h **** #endif
 110:Middlewares/lvgl/examples/widgets/table/../../../src/hal/../misc/lv_color.h **** 
 111:Middlewares/lvgl/examples/widgets/table/../../../src/hal/../misc/lv_color.h **** #if _LV_COLOR_HAS_MODERN_CPP
 112:Middlewares/lvgl/examples/widgets/table/../../../src/hal/../misc/lv_color.h **** /*Fix msvc compiler error C4576 inside C++ code*/
 113:Middlewares/lvgl/examples/widgets/table/../../../src/hal/../misc/lv_color.h **** #define _LV_COLOR_MAKE_TYPE_HELPER lv_color_t
 114:Middlewares/lvgl/examples/widgets/table/../../../src/hal/../misc/lv_color.h **** #else
 115:Middlewares/lvgl/examples/widgets/table/../../../src/hal/../misc/lv_color.h **** #define _LV_COLOR_MAKE_TYPE_HELPER (lv_color_t)
 116:Middlewares/lvgl/examples/widgets/table/../../../src/hal/../misc/lv_color.h **** #endif
 117:Middlewares/lvgl/examples/widgets/table/../../../src/hal/../misc/lv_color.h **** 
 118:Middlewares/lvgl/examples/widgets/table/../../../src/hal/../misc/lv_color.h **** /*---------------------------------------
 119:Middlewares/lvgl/examples/widgets/table/../../../src/hal/../misc/lv_color.h ****  * Macros for all existing color depths
 120:Middlewares/lvgl/examples/widgets/table/../../../src/hal/../misc/lv_color.h ****  * to set/get values of the color channels
 121:Middlewares/lvgl/examples/widgets/table/../../../src/hal/../misc/lv_color.h ****  *------------------------------------------*/
 122:Middlewares/lvgl/examples/widgets/table/../../../src/hal/../misc/lv_color.h **** # define LV_COLOR_SET_R1(c, v) (c).ch.red = (uint8_t)((v) & 0x1)
 123:Middlewares/lvgl/examples/widgets/table/../../../src/hal/../misc/lv_color.h **** # define LV_COLOR_SET_G1(c, v) (c).ch.green = (uint8_t)((v) & 0x1)
 124:Middlewares/lvgl/examples/widgets/table/../../../src/hal/../misc/lv_color.h **** # define LV_COLOR_SET_B1(c, v) (c).ch.blue = (uint8_t)((v) & 0x1)
 125:Middlewares/lvgl/examples/widgets/table/../../../src/hal/../misc/lv_color.h **** # define LV_COLOR_SET_A1(c, v) do {} while(0)
 126:Middlewares/lvgl/examples/widgets/table/../../../src/hal/../misc/lv_color.h **** 
 127:Middlewares/lvgl/examples/widgets/table/../../../src/hal/../misc/lv_color.h **** # define LV_COLOR_GET_R1(c) (c).ch.red
 128:Middlewares/lvgl/examples/widgets/table/../../../src/hal/../misc/lv_color.h **** # define LV_COLOR_GET_G1(c) (c).ch.green
 129:Middlewares/lvgl/examples/widgets/table/../../../src/hal/../misc/lv_color.h **** # define LV_COLOR_GET_B1(c) (c).ch.blue
 130:Middlewares/lvgl/examples/widgets/table/../../../src/hal/../misc/lv_color.h **** # define LV_COLOR_GET_A1(c) 0xFF
 131:Middlewares/lvgl/examples/widgets/table/../../../src/hal/../misc/lv_color.h **** 
ARM GAS  /tmp/cckDkQG7.s 			page 12


 132:Middlewares/lvgl/examples/widgets/table/../../../src/hal/../misc/lv_color.h **** # define _LV_COLOR_ZERO_INITIALIZER1 {0x00}
 133:Middlewares/lvgl/examples/widgets/table/../../../src/hal/../misc/lv_color.h **** # define LV_COLOR_MAKE1(r8, g8, b8)  {(uint8_t)((b8 >> 7) | (g8 >> 7) | (r8 >> 7))}
 134:Middlewares/lvgl/examples/widgets/table/../../../src/hal/../misc/lv_color.h **** 
 135:Middlewares/lvgl/examples/widgets/table/../../../src/hal/../misc/lv_color.h **** # define LV_COLOR_SET_R8(c, v) (c).ch.red = (uint8_t)((v) & 0x7U)
 136:Middlewares/lvgl/examples/widgets/table/../../../src/hal/../misc/lv_color.h **** # define LV_COLOR_SET_G8(c, v) (c).ch.green = (uint8_t)((v) & 0x7U)
 137:Middlewares/lvgl/examples/widgets/table/../../../src/hal/../misc/lv_color.h **** # define LV_COLOR_SET_B8(c, v) (c).ch.blue = (uint8_t)((v) & 0x3U)
 138:Middlewares/lvgl/examples/widgets/table/../../../src/hal/../misc/lv_color.h **** # define LV_COLOR_SET_A8(c, v) do {} while(0)
 139:Middlewares/lvgl/examples/widgets/table/../../../src/hal/../misc/lv_color.h **** 
 140:Middlewares/lvgl/examples/widgets/table/../../../src/hal/../misc/lv_color.h **** # define LV_COLOR_GET_R8(c) (c).ch.red
 141:Middlewares/lvgl/examples/widgets/table/../../../src/hal/../misc/lv_color.h **** # define LV_COLOR_GET_G8(c) (c).ch.green
 142:Middlewares/lvgl/examples/widgets/table/../../../src/hal/../misc/lv_color.h **** # define LV_COLOR_GET_B8(c) (c).ch.blue
 143:Middlewares/lvgl/examples/widgets/table/../../../src/hal/../misc/lv_color.h **** # define LV_COLOR_GET_A8(c) 0xFF
 144:Middlewares/lvgl/examples/widgets/table/../../../src/hal/../misc/lv_color.h **** 
 145:Middlewares/lvgl/examples/widgets/table/../../../src/hal/../misc/lv_color.h **** # define _LV_COLOR_ZERO_INITIALIZER8 _LV_COLOR_MAKE_TYPE_HELPER {{0x00, 0x00, 0x00}}
 146:Middlewares/lvgl/examples/widgets/table/../../../src/hal/../misc/lv_color.h **** # define LV_COLOR_MAKE8(r8, g8, b8) _LV_COLOR_MAKE_TYPE_HELPER  {{(uint8_t)((b8 >> 6) & 0x3U), (uin
 147:Middlewares/lvgl/examples/widgets/table/../../../src/hal/../misc/lv_color.h **** 
 148:Middlewares/lvgl/examples/widgets/table/../../../src/hal/../misc/lv_color.h **** # define LV_COLOR_SET_R16(c, v) (c).ch.red = (uint8_t)((v) & 0x1FU)
 149:Middlewares/lvgl/examples/widgets/table/../../../src/hal/../misc/lv_color.h **** #if LV_COLOR_16_SWAP == 0
 150:Middlewares/lvgl/examples/widgets/table/../../../src/hal/../misc/lv_color.h **** # define LV_COLOR_SET_G16(c, v) (c).ch.green = (uint8_t)((v) & 0x3FU)
 151:Middlewares/lvgl/examples/widgets/table/../../../src/hal/../misc/lv_color.h **** #else
 152:Middlewares/lvgl/examples/widgets/table/../../../src/hal/../misc/lv_color.h **** # define LV_COLOR_SET_G16(c, v) {(c).ch.green_h = (uint8_t)(((v) >> 3) & 0x7); (c).ch.green_l = (ui
 153:Middlewares/lvgl/examples/widgets/table/../../../src/hal/../misc/lv_color.h **** #endif
 154:Middlewares/lvgl/examples/widgets/table/../../../src/hal/../misc/lv_color.h **** # define LV_COLOR_SET_B16(c, v) (c).ch.blue = (uint8_t)((v) & 0x1FU)
 155:Middlewares/lvgl/examples/widgets/table/../../../src/hal/../misc/lv_color.h **** # define LV_COLOR_SET_A16(c, v) do {} while(0)
 156:Middlewares/lvgl/examples/widgets/table/../../../src/hal/../misc/lv_color.h **** 
 157:Middlewares/lvgl/examples/widgets/table/../../../src/hal/../misc/lv_color.h **** # define LV_COLOR_GET_R16(c) (c).ch.red
 158:Middlewares/lvgl/examples/widgets/table/../../../src/hal/../misc/lv_color.h **** #if LV_COLOR_16_SWAP == 0
 159:Middlewares/lvgl/examples/widgets/table/../../../src/hal/../misc/lv_color.h **** # define LV_COLOR_GET_G16(c) (c).ch.green
 160:Middlewares/lvgl/examples/widgets/table/../../../src/hal/../misc/lv_color.h **** #else
 161:Middlewares/lvgl/examples/widgets/table/../../../src/hal/../misc/lv_color.h **** # define LV_COLOR_GET_G16(c) (((c).ch.green_h << 3) + (c).ch.green_l)
 162:Middlewares/lvgl/examples/widgets/table/../../../src/hal/../misc/lv_color.h **** #endif
 163:Middlewares/lvgl/examples/widgets/table/../../../src/hal/../misc/lv_color.h **** # define LV_COLOR_GET_B16(c) (c).ch.blue
 164:Middlewares/lvgl/examples/widgets/table/../../../src/hal/../misc/lv_color.h **** # define LV_COLOR_GET_A16(c) 0xFF
 165:Middlewares/lvgl/examples/widgets/table/../../../src/hal/../misc/lv_color.h **** 
 166:Middlewares/lvgl/examples/widgets/table/../../../src/hal/../misc/lv_color.h **** #if LV_COLOR_16_SWAP == 0
 167:Middlewares/lvgl/examples/widgets/table/../../../src/hal/../misc/lv_color.h **** # define _LV_COLOR_ZERO_INITIALIZER16  {{0x00, 0x00, 0x00}}
 168:Middlewares/lvgl/examples/widgets/table/../../../src/hal/../misc/lv_color.h **** # define LV_COLOR_MAKE16(r8, g8, b8) {{(uint8_t)((b8 >> 3) & 0x1FU), (uint8_t)((g8 >> 2) & 0x3FU), 
 169:Middlewares/lvgl/examples/widgets/table/../../../src/hal/../misc/lv_color.h **** #else
 170:Middlewares/lvgl/examples/widgets/table/../../../src/hal/../misc/lv_color.h **** # define _LV_COLOR_ZERO_INITIALIZER16 {{0x00, 0x00, 0x00, 0x00}}
 171:Middlewares/lvgl/examples/widgets/table/../../../src/hal/../misc/lv_color.h **** # define LV_COLOR_MAKE16(r8, g8, b8) {{(uint8_t)((g8 >> 5) & 0x7U), (uint8_t)((r8 >> 3) & 0x1FU), (
 172:Middlewares/lvgl/examples/widgets/table/../../../src/hal/../misc/lv_color.h **** #endif
 173:Middlewares/lvgl/examples/widgets/table/../../../src/hal/../misc/lv_color.h **** 
 174:Middlewares/lvgl/examples/widgets/table/../../../src/hal/../misc/lv_color.h **** # define LV_COLOR_SET_R32(c, v) (c).ch.red = (uint8_t)((v) & 0xFF)
 175:Middlewares/lvgl/examples/widgets/table/../../../src/hal/../misc/lv_color.h **** # define LV_COLOR_SET_G32(c, v) (c).ch.green = (uint8_t)((v) & 0xFF)
 176:Middlewares/lvgl/examples/widgets/table/../../../src/hal/../misc/lv_color.h **** # define LV_COLOR_SET_B32(c, v) (c).ch.blue = (uint8_t)((v) & 0xFF)
 177:Middlewares/lvgl/examples/widgets/table/../../../src/hal/../misc/lv_color.h **** # define LV_COLOR_SET_A32(c, v) (c).ch.alpha = (uint8_t)((v) & 0xFF)
 178:Middlewares/lvgl/examples/widgets/table/../../../src/hal/../misc/lv_color.h **** 
 179:Middlewares/lvgl/examples/widgets/table/../../../src/hal/../misc/lv_color.h **** # define LV_COLOR_GET_R32(c) (c).ch.red
 180:Middlewares/lvgl/examples/widgets/table/../../../src/hal/../misc/lv_color.h **** # define LV_COLOR_GET_G32(c) (c).ch.green
 181:Middlewares/lvgl/examples/widgets/table/../../../src/hal/../misc/lv_color.h **** # define LV_COLOR_GET_B32(c) (c).ch.blue
 182:Middlewares/lvgl/examples/widgets/table/../../../src/hal/../misc/lv_color.h **** # define LV_COLOR_GET_A32(c) (c).ch.alpha
 183:Middlewares/lvgl/examples/widgets/table/../../../src/hal/../misc/lv_color.h **** 
 184:Middlewares/lvgl/examples/widgets/table/../../../src/hal/../misc/lv_color.h **** # define _LV_COLOR_ZERO_INITIALIZER32  {{0x00, 0x00, 0x00, 0x00}}
 185:Middlewares/lvgl/examples/widgets/table/../../../src/hal/../misc/lv_color.h **** # define LV_COLOR_MAKE32(r8, g8, b8) {{b8, g8, r8, 0xff}} /*Fix 0xff alpha*/
 186:Middlewares/lvgl/examples/widgets/table/../../../src/hal/../misc/lv_color.h **** 
 187:Middlewares/lvgl/examples/widgets/table/../../../src/hal/../misc/lv_color.h **** /*---------------------------------------
 188:Middlewares/lvgl/examples/widgets/table/../../../src/hal/../misc/lv_color.h ****  * Macros for the current color depth
ARM GAS  /tmp/cckDkQG7.s 			page 13


 189:Middlewares/lvgl/examples/widgets/table/../../../src/hal/../misc/lv_color.h ****  * to set/get values of the color channels
 190:Middlewares/lvgl/examples/widgets/table/../../../src/hal/../misc/lv_color.h ****  *------------------------------------------*/
 191:Middlewares/lvgl/examples/widgets/table/../../../src/hal/../misc/lv_color.h **** #define LV_COLOR_SET_R(c, v) LV_CONCAT(LV_COLOR_SET_R, LV_COLOR_DEPTH)(c, v)
 192:Middlewares/lvgl/examples/widgets/table/../../../src/hal/../misc/lv_color.h **** #define LV_COLOR_SET_G(c, v) LV_CONCAT(LV_COLOR_SET_G, LV_COLOR_DEPTH)(c, v)
 193:Middlewares/lvgl/examples/widgets/table/../../../src/hal/../misc/lv_color.h **** #define LV_COLOR_SET_B(c, v) LV_CONCAT(LV_COLOR_SET_B, LV_COLOR_DEPTH)(c, v)
 194:Middlewares/lvgl/examples/widgets/table/../../../src/hal/../misc/lv_color.h **** #define LV_COLOR_SET_A(c, v) LV_CONCAT(LV_COLOR_SET_A, LV_COLOR_DEPTH)(c, v)
 195:Middlewares/lvgl/examples/widgets/table/../../../src/hal/../misc/lv_color.h **** 
 196:Middlewares/lvgl/examples/widgets/table/../../../src/hal/../misc/lv_color.h **** #define LV_COLOR_GET_R(c) LV_CONCAT(LV_COLOR_GET_R, LV_COLOR_DEPTH)(c)
 197:Middlewares/lvgl/examples/widgets/table/../../../src/hal/../misc/lv_color.h **** #define LV_COLOR_GET_G(c) LV_CONCAT(LV_COLOR_GET_G, LV_COLOR_DEPTH)(c)
 198:Middlewares/lvgl/examples/widgets/table/../../../src/hal/../misc/lv_color.h **** #define LV_COLOR_GET_B(c) LV_CONCAT(LV_COLOR_GET_B, LV_COLOR_DEPTH)(c)
 199:Middlewares/lvgl/examples/widgets/table/../../../src/hal/../misc/lv_color.h **** #define LV_COLOR_GET_A(c) LV_CONCAT(LV_COLOR_GET_A, LV_COLOR_DEPTH)(c)
 200:Middlewares/lvgl/examples/widgets/table/../../../src/hal/../misc/lv_color.h **** 
 201:Middlewares/lvgl/examples/widgets/table/../../../src/hal/../misc/lv_color.h **** #define _LV_COLOR_ZERO_INITIALIZER LV_CONCAT(_LV_COLOR_ZERO_INITIALIZER, LV_COLOR_DEPTH)
 202:Middlewares/lvgl/examples/widgets/table/../../../src/hal/../misc/lv_color.h **** #define LV_COLOR_MAKE(r8, g8, b8) LV_CONCAT(LV_COLOR_MAKE, LV_COLOR_DEPTH)(r8, g8, b8)
 203:Middlewares/lvgl/examples/widgets/table/../../../src/hal/../misc/lv_color.h **** 
 204:Middlewares/lvgl/examples/widgets/table/../../../src/hal/../misc/lv_color.h **** #define LV_UDIV255(x) ((uint32_t)((uint32_t) (x) * 0x8081) >> 0x17)
 205:Middlewares/lvgl/examples/widgets/table/../../../src/hal/../misc/lv_color.h **** 
 206:Middlewares/lvgl/examples/widgets/table/../../../src/hal/../misc/lv_color.h **** /**********************
 207:Middlewares/lvgl/examples/widgets/table/../../../src/hal/../misc/lv_color.h ****  *      TYPEDEFS
 208:Middlewares/lvgl/examples/widgets/table/../../../src/hal/../misc/lv_color.h ****  **********************/
 209:Middlewares/lvgl/examples/widgets/table/../../../src/hal/../misc/lv_color.h **** 
 210:Middlewares/lvgl/examples/widgets/table/../../../src/hal/../misc/lv_color.h **** typedef union {
 211:Middlewares/lvgl/examples/widgets/table/../../../src/hal/../misc/lv_color.h ****     uint8_t full; /*must be declared first to set all bits of byte via initializer list*/
 212:Middlewares/lvgl/examples/widgets/table/../../../src/hal/../misc/lv_color.h ****     union {
 213:Middlewares/lvgl/examples/widgets/table/../../../src/hal/../misc/lv_color.h ****         uint8_t blue : 1;
 214:Middlewares/lvgl/examples/widgets/table/../../../src/hal/../misc/lv_color.h ****         uint8_t green : 1;
 215:Middlewares/lvgl/examples/widgets/table/../../../src/hal/../misc/lv_color.h ****         uint8_t red : 1;
 216:Middlewares/lvgl/examples/widgets/table/../../../src/hal/../misc/lv_color.h ****     } ch;
 217:Middlewares/lvgl/examples/widgets/table/../../../src/hal/../misc/lv_color.h **** } lv_color1_t;
 218:Middlewares/lvgl/examples/widgets/table/../../../src/hal/../misc/lv_color.h **** 
 219:Middlewares/lvgl/examples/widgets/table/../../../src/hal/../misc/lv_color.h **** typedef union {
 220:Middlewares/lvgl/examples/widgets/table/../../../src/hal/../misc/lv_color.h ****     struct {
 221:Middlewares/lvgl/examples/widgets/table/../../../src/hal/../misc/lv_color.h ****         uint8_t blue : 2;
 222:Middlewares/lvgl/examples/widgets/table/../../../src/hal/../misc/lv_color.h ****         uint8_t green : 3;
 223:Middlewares/lvgl/examples/widgets/table/../../../src/hal/../misc/lv_color.h ****         uint8_t red : 3;
 224:Middlewares/lvgl/examples/widgets/table/../../../src/hal/../misc/lv_color.h ****     } ch;
 225:Middlewares/lvgl/examples/widgets/table/../../../src/hal/../misc/lv_color.h ****     uint8_t full;
 226:Middlewares/lvgl/examples/widgets/table/../../../src/hal/../misc/lv_color.h **** } lv_color8_t;
 227:Middlewares/lvgl/examples/widgets/table/../../../src/hal/../misc/lv_color.h **** 
 228:Middlewares/lvgl/examples/widgets/table/../../../src/hal/../misc/lv_color.h **** typedef union {
 229:Middlewares/lvgl/examples/widgets/table/../../../src/hal/../misc/lv_color.h ****     struct {
 230:Middlewares/lvgl/examples/widgets/table/../../../src/hal/../misc/lv_color.h **** #if LV_COLOR_16_SWAP == 0
 231:Middlewares/lvgl/examples/widgets/table/../../../src/hal/../misc/lv_color.h ****         uint16_t blue : 5;
 232:Middlewares/lvgl/examples/widgets/table/../../../src/hal/../misc/lv_color.h ****         uint16_t green : 6;
 233:Middlewares/lvgl/examples/widgets/table/../../../src/hal/../misc/lv_color.h ****         uint16_t red : 5;
 234:Middlewares/lvgl/examples/widgets/table/../../../src/hal/../misc/lv_color.h **** #else
 235:Middlewares/lvgl/examples/widgets/table/../../../src/hal/../misc/lv_color.h ****         uint16_t green_h : 3;
 236:Middlewares/lvgl/examples/widgets/table/../../../src/hal/../misc/lv_color.h ****         uint16_t red : 5;
 237:Middlewares/lvgl/examples/widgets/table/../../../src/hal/../misc/lv_color.h ****         uint16_t blue : 5;
 238:Middlewares/lvgl/examples/widgets/table/../../../src/hal/../misc/lv_color.h ****         uint16_t green_l : 3;
 239:Middlewares/lvgl/examples/widgets/table/../../../src/hal/../misc/lv_color.h **** #endif
 240:Middlewares/lvgl/examples/widgets/table/../../../src/hal/../misc/lv_color.h ****     } ch;
 241:Middlewares/lvgl/examples/widgets/table/../../../src/hal/../misc/lv_color.h ****     uint16_t full;
 242:Middlewares/lvgl/examples/widgets/table/../../../src/hal/../misc/lv_color.h **** } lv_color16_t;
 243:Middlewares/lvgl/examples/widgets/table/../../../src/hal/../misc/lv_color.h **** 
 244:Middlewares/lvgl/examples/widgets/table/../../../src/hal/../misc/lv_color.h **** typedef union {
 245:Middlewares/lvgl/examples/widgets/table/../../../src/hal/../misc/lv_color.h ****     struct {
ARM GAS  /tmp/cckDkQG7.s 			page 14


 246:Middlewares/lvgl/examples/widgets/table/../../../src/hal/../misc/lv_color.h ****         uint8_t blue;
 247:Middlewares/lvgl/examples/widgets/table/../../../src/hal/../misc/lv_color.h ****         uint8_t green;
 248:Middlewares/lvgl/examples/widgets/table/../../../src/hal/../misc/lv_color.h ****         uint8_t red;
 249:Middlewares/lvgl/examples/widgets/table/../../../src/hal/../misc/lv_color.h ****         uint8_t alpha;
 250:Middlewares/lvgl/examples/widgets/table/../../../src/hal/../misc/lv_color.h ****     } ch;
 251:Middlewares/lvgl/examples/widgets/table/../../../src/hal/../misc/lv_color.h ****     uint32_t full;
 252:Middlewares/lvgl/examples/widgets/table/../../../src/hal/../misc/lv_color.h **** } lv_color32_t;
 253:Middlewares/lvgl/examples/widgets/table/../../../src/hal/../misc/lv_color.h **** 
 254:Middlewares/lvgl/examples/widgets/table/../../../src/hal/../misc/lv_color.h **** typedef LV_CONCAT3(uint, LV_COLOR_SIZE, _t) lv_color_int_t;
 255:Middlewares/lvgl/examples/widgets/table/../../../src/hal/../misc/lv_color.h **** typedef LV_CONCAT3(lv_color, LV_COLOR_DEPTH, _t) lv_color_t;
 256:Middlewares/lvgl/examples/widgets/table/../../../src/hal/../misc/lv_color.h **** 
 257:Middlewares/lvgl/examples/widgets/table/../../../src/hal/../misc/lv_color.h **** typedef struct {
 258:Middlewares/lvgl/examples/widgets/table/../../../src/hal/../misc/lv_color.h ****     uint16_t h;
 259:Middlewares/lvgl/examples/widgets/table/../../../src/hal/../misc/lv_color.h ****     uint8_t s;
 260:Middlewares/lvgl/examples/widgets/table/../../../src/hal/../misc/lv_color.h ****     uint8_t v;
 261:Middlewares/lvgl/examples/widgets/table/../../../src/hal/../misc/lv_color.h **** } lv_color_hsv_t;
 262:Middlewares/lvgl/examples/widgets/table/../../../src/hal/../misc/lv_color.h **** 
 263:Middlewares/lvgl/examples/widgets/table/../../../src/hal/../misc/lv_color.h **** //! @cond Doxygen_Suppress
 264:Middlewares/lvgl/examples/widgets/table/../../../src/hal/../misc/lv_color.h **** /*No idea where the guard is required but else throws warnings in the docs*/
 265:Middlewares/lvgl/examples/widgets/table/../../../src/hal/../misc/lv_color.h **** typedef uint8_t lv_opa_t;
 266:Middlewares/lvgl/examples/widgets/table/../../../src/hal/../misc/lv_color.h **** //! @endcond
 267:Middlewares/lvgl/examples/widgets/table/../../../src/hal/../misc/lv_color.h **** 
 268:Middlewares/lvgl/examples/widgets/table/../../../src/hal/../misc/lv_color.h **** struct _lv_color_filter_dsc_t;
 269:Middlewares/lvgl/examples/widgets/table/../../../src/hal/../misc/lv_color.h **** 
 270:Middlewares/lvgl/examples/widgets/table/../../../src/hal/../misc/lv_color.h **** typedef lv_color_t (*lv_color_filter_cb_t)(const struct _lv_color_filter_dsc_t *, lv_color_t, lv_op
 271:Middlewares/lvgl/examples/widgets/table/../../../src/hal/../misc/lv_color.h **** 
 272:Middlewares/lvgl/examples/widgets/table/../../../src/hal/../misc/lv_color.h **** typedef struct _lv_color_filter_dsc_t {
 273:Middlewares/lvgl/examples/widgets/table/../../../src/hal/../misc/lv_color.h ****     lv_color_filter_cb_t filter_cb;
 274:Middlewares/lvgl/examples/widgets/table/../../../src/hal/../misc/lv_color.h ****     void * user_data;
 275:Middlewares/lvgl/examples/widgets/table/../../../src/hal/../misc/lv_color.h **** }lv_color_filter_dsc_t;
 276:Middlewares/lvgl/examples/widgets/table/../../../src/hal/../misc/lv_color.h **** 
 277:Middlewares/lvgl/examples/widgets/table/../../../src/hal/../misc/lv_color.h **** 
 278:Middlewares/lvgl/examples/widgets/table/../../../src/hal/../misc/lv_color.h **** typedef enum {
 279:Middlewares/lvgl/examples/widgets/table/../../../src/hal/../misc/lv_color.h ****     LV_PALETTE_RED,
 280:Middlewares/lvgl/examples/widgets/table/../../../src/hal/../misc/lv_color.h ****     LV_PALETTE_PINK,
 281:Middlewares/lvgl/examples/widgets/table/../../../src/hal/../misc/lv_color.h ****     LV_PALETTE_PURPLE,
 282:Middlewares/lvgl/examples/widgets/table/../../../src/hal/../misc/lv_color.h ****     LV_PALETTE_DEEP_PURPLE,
 283:Middlewares/lvgl/examples/widgets/table/../../../src/hal/../misc/lv_color.h ****     LV_PALETTE_INDIGO,
 284:Middlewares/lvgl/examples/widgets/table/../../../src/hal/../misc/lv_color.h ****     LV_PALETTE_BLUE,
 285:Middlewares/lvgl/examples/widgets/table/../../../src/hal/../misc/lv_color.h ****     LV_PALETTE_LIGHT_BLUE,
 286:Middlewares/lvgl/examples/widgets/table/../../../src/hal/../misc/lv_color.h ****     LV_PALETTE_CYAN,
 287:Middlewares/lvgl/examples/widgets/table/../../../src/hal/../misc/lv_color.h ****     LV_PALETTE_TEAL,
 288:Middlewares/lvgl/examples/widgets/table/../../../src/hal/../misc/lv_color.h ****     LV_PALETTE_GREEN,
 289:Middlewares/lvgl/examples/widgets/table/../../../src/hal/../misc/lv_color.h ****     LV_PALETTE_LIGHT_GREEN,
 290:Middlewares/lvgl/examples/widgets/table/../../../src/hal/../misc/lv_color.h ****     LV_PALETTE_LIME,
 291:Middlewares/lvgl/examples/widgets/table/../../../src/hal/../misc/lv_color.h ****     LV_PALETTE_YELLOW,
 292:Middlewares/lvgl/examples/widgets/table/../../../src/hal/../misc/lv_color.h ****     LV_PALETTE_AMBER,
 293:Middlewares/lvgl/examples/widgets/table/../../../src/hal/../misc/lv_color.h ****     LV_PALETTE_ORANGE,
 294:Middlewares/lvgl/examples/widgets/table/../../../src/hal/../misc/lv_color.h ****     LV_PALETTE_DEEP_ORANGE,
 295:Middlewares/lvgl/examples/widgets/table/../../../src/hal/../misc/lv_color.h ****     LV_PALETTE_BROWN,
 296:Middlewares/lvgl/examples/widgets/table/../../../src/hal/../misc/lv_color.h ****     LV_PALETTE_BLUE_GREY,
 297:Middlewares/lvgl/examples/widgets/table/../../../src/hal/../misc/lv_color.h ****     LV_PALETTE_GREY,
 298:Middlewares/lvgl/examples/widgets/table/../../../src/hal/../misc/lv_color.h ****     _LV_PALETTE_LAST,
 299:Middlewares/lvgl/examples/widgets/table/../../../src/hal/../misc/lv_color.h ****     LV_PALETTE_NONE = 0xff,
 300:Middlewares/lvgl/examples/widgets/table/../../../src/hal/../misc/lv_color.h **** }lv_palette_t;
 301:Middlewares/lvgl/examples/widgets/table/../../../src/hal/../misc/lv_color.h **** 
 302:Middlewares/lvgl/examples/widgets/table/../../../src/hal/../misc/lv_color.h **** /**********************
ARM GAS  /tmp/cckDkQG7.s 			page 15


 303:Middlewares/lvgl/examples/widgets/table/../../../src/hal/../misc/lv_color.h ****  * GLOBAL PROTOTYPES
 304:Middlewares/lvgl/examples/widgets/table/../../../src/hal/../misc/lv_color.h ****  **********************/
 305:Middlewares/lvgl/examples/widgets/table/../../../src/hal/../misc/lv_color.h **** 
 306:Middlewares/lvgl/examples/widgets/table/../../../src/hal/../misc/lv_color.h **** /*In color conversations:
 307:Middlewares/lvgl/examples/widgets/table/../../../src/hal/../misc/lv_color.h ****  * - When converting to bigger color type the LSB weight of 1 LSB is calculated
 308:Middlewares/lvgl/examples/widgets/table/../../../src/hal/../misc/lv_color.h ****  *   E.g. 16 bit Red has 5 bits
 309:Middlewares/lvgl/examples/widgets/table/../../../src/hal/../misc/lv_color.h ****  *         8 bit Red has 3 bits
 310:Middlewares/lvgl/examples/widgets/table/../../../src/hal/../misc/lv_color.h ****  *        ----------------------
 311:Middlewares/lvgl/examples/widgets/table/../../../src/hal/../misc/lv_color.h ****  *        8 bit red LSB = (2^5 - 1) / (2^3 - 1) = 31 / 7 = 4
 312:Middlewares/lvgl/examples/widgets/table/../../../src/hal/../misc/lv_color.h ****  *
 313:Middlewares/lvgl/examples/widgets/table/../../../src/hal/../misc/lv_color.h ****  * - When calculating to smaller color type simply shift out the LSBs
 314:Middlewares/lvgl/examples/widgets/table/../../../src/hal/../misc/lv_color.h ****  *   E.g.  8 bit Red has 3 bits
 315:Middlewares/lvgl/examples/widgets/table/../../../src/hal/../misc/lv_color.h ****  *        16 bit Red has 5 bits
 316:Middlewares/lvgl/examples/widgets/table/../../../src/hal/../misc/lv_color.h ****  *        ----------------------
 317:Middlewares/lvgl/examples/widgets/table/../../../src/hal/../misc/lv_color.h ****  *         Shift right with 5 - 3 = 2
 318:Middlewares/lvgl/examples/widgets/table/../../../src/hal/../misc/lv_color.h ****  */
 319:Middlewares/lvgl/examples/widgets/table/../../../src/hal/../misc/lv_color.h **** static inline uint8_t lv_color_to1(lv_color_t color)
 320:Middlewares/lvgl/examples/widgets/table/../../../src/hal/../misc/lv_color.h **** {
 321:Middlewares/lvgl/examples/widgets/table/../../../src/hal/../misc/lv_color.h **** #if LV_COLOR_DEPTH == 1
 322:Middlewares/lvgl/examples/widgets/table/../../../src/hal/../misc/lv_color.h ****     return color.full;
 323:Middlewares/lvgl/examples/widgets/table/../../../src/hal/../misc/lv_color.h **** #elif LV_COLOR_DEPTH == 8
 324:Middlewares/lvgl/examples/widgets/table/../../../src/hal/../misc/lv_color.h ****     if((LV_COLOR_GET_R(color) & 0x4) || (LV_COLOR_GET_G(color) & 0x4) || (LV_COLOR_GET_B(color) & 0
 325:Middlewares/lvgl/examples/widgets/table/../../../src/hal/../misc/lv_color.h ****         return 1;
 326:Middlewares/lvgl/examples/widgets/table/../../../src/hal/../misc/lv_color.h ****     }
 327:Middlewares/lvgl/examples/widgets/table/../../../src/hal/../misc/lv_color.h ****     else {
 328:Middlewares/lvgl/examples/widgets/table/../../../src/hal/../misc/lv_color.h ****         return 0;
 329:Middlewares/lvgl/examples/widgets/table/../../../src/hal/../misc/lv_color.h ****     }
 330:Middlewares/lvgl/examples/widgets/table/../../../src/hal/../misc/lv_color.h **** #elif LV_COLOR_DEPTH == 16
 331:Middlewares/lvgl/examples/widgets/table/../../../src/hal/../misc/lv_color.h ****     if((LV_COLOR_GET_R(color) & 0x10) || (LV_COLOR_GET_G(color) & 0x20) || (LV_COLOR_GET_B(color) &
 332:Middlewares/lvgl/examples/widgets/table/../../../src/hal/../misc/lv_color.h ****         return 1;
 333:Middlewares/lvgl/examples/widgets/table/../../../src/hal/../misc/lv_color.h ****     }
 334:Middlewares/lvgl/examples/widgets/table/../../../src/hal/../misc/lv_color.h ****     else {
 335:Middlewares/lvgl/examples/widgets/table/../../../src/hal/../misc/lv_color.h ****         return 0;
 336:Middlewares/lvgl/examples/widgets/table/../../../src/hal/../misc/lv_color.h ****     }
 337:Middlewares/lvgl/examples/widgets/table/../../../src/hal/../misc/lv_color.h **** #elif LV_COLOR_DEPTH == 32
 338:Middlewares/lvgl/examples/widgets/table/../../../src/hal/../misc/lv_color.h ****     if((LV_COLOR_GET_R(color) & 0x80) || (LV_COLOR_GET_G(color) & 0x80) || (LV_COLOR_GET_B(color) &
 339:Middlewares/lvgl/examples/widgets/table/../../../src/hal/../misc/lv_color.h ****         return 1;
 340:Middlewares/lvgl/examples/widgets/table/../../../src/hal/../misc/lv_color.h ****     }
 341:Middlewares/lvgl/examples/widgets/table/../../../src/hal/../misc/lv_color.h ****     else {
 342:Middlewares/lvgl/examples/widgets/table/../../../src/hal/../misc/lv_color.h ****         return 0;
 343:Middlewares/lvgl/examples/widgets/table/../../../src/hal/../misc/lv_color.h ****     }
 344:Middlewares/lvgl/examples/widgets/table/../../../src/hal/../misc/lv_color.h **** #endif
 345:Middlewares/lvgl/examples/widgets/table/../../../src/hal/../misc/lv_color.h **** }
 346:Middlewares/lvgl/examples/widgets/table/../../../src/hal/../misc/lv_color.h **** 
 347:Middlewares/lvgl/examples/widgets/table/../../../src/hal/../misc/lv_color.h **** static inline uint8_t lv_color_to8(lv_color_t color)
 348:Middlewares/lvgl/examples/widgets/table/../../../src/hal/../misc/lv_color.h **** {
 349:Middlewares/lvgl/examples/widgets/table/../../../src/hal/../misc/lv_color.h **** #if LV_COLOR_DEPTH == 1
 350:Middlewares/lvgl/examples/widgets/table/../../../src/hal/../misc/lv_color.h ****     if(color.full == 0)
 351:Middlewares/lvgl/examples/widgets/table/../../../src/hal/../misc/lv_color.h ****         return 0;
 352:Middlewares/lvgl/examples/widgets/table/../../../src/hal/../misc/lv_color.h ****     else
 353:Middlewares/lvgl/examples/widgets/table/../../../src/hal/../misc/lv_color.h ****         return 0xFF;
 354:Middlewares/lvgl/examples/widgets/table/../../../src/hal/../misc/lv_color.h **** #elif LV_COLOR_DEPTH == 8
 355:Middlewares/lvgl/examples/widgets/table/../../../src/hal/../misc/lv_color.h ****     return color.full;
 356:Middlewares/lvgl/examples/widgets/table/../../../src/hal/../misc/lv_color.h **** #elif LV_COLOR_DEPTH == 16
 357:Middlewares/lvgl/examples/widgets/table/../../../src/hal/../misc/lv_color.h ****     lv_color8_t ret;
 358:Middlewares/lvgl/examples/widgets/table/../../../src/hal/../misc/lv_color.h ****     LV_COLOR_SET_R8(ret, LV_COLOR_GET_R(color) >> 2); /*5 - 3  = 2*/
 359:Middlewares/lvgl/examples/widgets/table/../../../src/hal/../misc/lv_color.h ****     LV_COLOR_SET_G8(ret, LV_COLOR_GET_G(color) >> 3); /*6 - 3  = 3*/
ARM GAS  /tmp/cckDkQG7.s 			page 16


 360:Middlewares/lvgl/examples/widgets/table/../../../src/hal/../misc/lv_color.h ****     LV_COLOR_SET_B8(ret, LV_COLOR_GET_B(color) >> 3); /*5 - 2  = 3*/
 361:Middlewares/lvgl/examples/widgets/table/../../../src/hal/../misc/lv_color.h ****     return ret.full;
 362:Middlewares/lvgl/examples/widgets/table/../../../src/hal/../misc/lv_color.h **** #elif LV_COLOR_DEPTH == 32
 363:Middlewares/lvgl/examples/widgets/table/../../../src/hal/../misc/lv_color.h ****     lv_color8_t ret;
 364:Middlewares/lvgl/examples/widgets/table/../../../src/hal/../misc/lv_color.h ****     LV_COLOR_SET_R8(ret, LV_COLOR_GET_R(color) >> 5); /*8 - 3  = 5*/
 365:Middlewares/lvgl/examples/widgets/table/../../../src/hal/../misc/lv_color.h ****     LV_COLOR_SET_G8(ret, LV_COLOR_GET_G(color) >> 5); /*8 - 3  = 5*/
 366:Middlewares/lvgl/examples/widgets/table/../../../src/hal/../misc/lv_color.h ****     LV_COLOR_SET_B8(ret, LV_COLOR_GET_B(color) >> 6); /*8 - 2  = 6*/
 367:Middlewares/lvgl/examples/widgets/table/../../../src/hal/../misc/lv_color.h ****     return ret.full;
 368:Middlewares/lvgl/examples/widgets/table/../../../src/hal/../misc/lv_color.h **** #endif
 369:Middlewares/lvgl/examples/widgets/table/../../../src/hal/../misc/lv_color.h **** }
 370:Middlewares/lvgl/examples/widgets/table/../../../src/hal/../misc/lv_color.h **** 
 371:Middlewares/lvgl/examples/widgets/table/../../../src/hal/../misc/lv_color.h **** static inline uint16_t lv_color_to16(lv_color_t color)
 372:Middlewares/lvgl/examples/widgets/table/../../../src/hal/../misc/lv_color.h **** {
 373:Middlewares/lvgl/examples/widgets/table/../../../src/hal/../misc/lv_color.h **** #if LV_COLOR_DEPTH == 1
 374:Middlewares/lvgl/examples/widgets/table/../../../src/hal/../misc/lv_color.h ****     if(color.full == 0)
 375:Middlewares/lvgl/examples/widgets/table/../../../src/hal/../misc/lv_color.h ****         return 0;
 376:Middlewares/lvgl/examples/widgets/table/../../../src/hal/../misc/lv_color.h ****     else
 377:Middlewares/lvgl/examples/widgets/table/../../../src/hal/../misc/lv_color.h ****         return 0xFFFF;
 378:Middlewares/lvgl/examples/widgets/table/../../../src/hal/../misc/lv_color.h **** #elif LV_COLOR_DEPTH == 8
 379:Middlewares/lvgl/examples/widgets/table/../../../src/hal/../misc/lv_color.h ****     lv_color16_t ret;
 380:Middlewares/lvgl/examples/widgets/table/../../../src/hal/../misc/lv_color.h ****     LV_COLOR_SET_R16(ret, LV_COLOR_GET_R(color) * 4);  /*(2^5 - 1)/(2^3 - 1) = 31/7 = 4*/
 381:Middlewares/lvgl/examples/widgets/table/../../../src/hal/../misc/lv_color.h ****     LV_COLOR_SET_G16(ret, LV_COLOR_GET_G(color) * 9);  /*(2^6 - 1)/(2^3 - 1) = 63/7 = 9*/
 382:Middlewares/lvgl/examples/widgets/table/../../../src/hal/../misc/lv_color.h ****     LV_COLOR_SET_B16(ret, LV_COLOR_GET_B(color) * 10); /*(2^5 - 1)/(2^2 - 1) = 31/3 = 10*/
 383:Middlewares/lvgl/examples/widgets/table/../../../src/hal/../misc/lv_color.h ****     return ret.full;
 384:Middlewares/lvgl/examples/widgets/table/../../../src/hal/../misc/lv_color.h **** #elif LV_COLOR_DEPTH == 16
 385:Middlewares/lvgl/examples/widgets/table/../../../src/hal/../misc/lv_color.h ****     return color.full;
 386:Middlewares/lvgl/examples/widgets/table/../../../src/hal/../misc/lv_color.h **** #elif LV_COLOR_DEPTH == 32
 387:Middlewares/lvgl/examples/widgets/table/../../../src/hal/../misc/lv_color.h ****     lv_color16_t ret;
 388:Middlewares/lvgl/examples/widgets/table/../../../src/hal/../misc/lv_color.h ****     LV_COLOR_SET_R16(ret, LV_COLOR_GET_R(color) >> 3); /*8 - 5  = 3*/
 389:Middlewares/lvgl/examples/widgets/table/../../../src/hal/../misc/lv_color.h ****     LV_COLOR_SET_G16(ret, LV_COLOR_GET_G(color) >> 2); /*8 - 6  = 2*/
 390:Middlewares/lvgl/examples/widgets/table/../../../src/hal/../misc/lv_color.h ****     LV_COLOR_SET_B16(ret, LV_COLOR_GET_B(color) >> 3); /*8 - 5  = 3*/
 391:Middlewares/lvgl/examples/widgets/table/../../../src/hal/../misc/lv_color.h ****     return ret.full;
 392:Middlewares/lvgl/examples/widgets/table/../../../src/hal/../misc/lv_color.h **** #endif
 393:Middlewares/lvgl/examples/widgets/table/../../../src/hal/../misc/lv_color.h **** }
 394:Middlewares/lvgl/examples/widgets/table/../../../src/hal/../misc/lv_color.h **** 
 395:Middlewares/lvgl/examples/widgets/table/../../../src/hal/../misc/lv_color.h **** static inline uint32_t lv_color_to32(lv_color_t color)
 396:Middlewares/lvgl/examples/widgets/table/../../../src/hal/../misc/lv_color.h **** {
 397:Middlewares/lvgl/examples/widgets/table/../../../src/hal/../misc/lv_color.h **** #if LV_COLOR_DEPTH == 1
 398:Middlewares/lvgl/examples/widgets/table/../../../src/hal/../misc/lv_color.h ****     if(color.full == 0)
 399:Middlewares/lvgl/examples/widgets/table/../../../src/hal/../misc/lv_color.h ****         return 0xFF000000;
 400:Middlewares/lvgl/examples/widgets/table/../../../src/hal/../misc/lv_color.h ****     else
 401:Middlewares/lvgl/examples/widgets/table/../../../src/hal/../misc/lv_color.h ****         return 0xFFFFFFFF;
 402:Middlewares/lvgl/examples/widgets/table/../../../src/hal/../misc/lv_color.h **** #elif LV_COLOR_DEPTH == 8
 403:Middlewares/lvgl/examples/widgets/table/../../../src/hal/../misc/lv_color.h ****     lv_color32_t ret;
 404:Middlewares/lvgl/examples/widgets/table/../../../src/hal/../misc/lv_color.h ****     LV_COLOR_SET_R32(ret, LV_COLOR_GET_R(color) * 36); /*(2^8 - 1)/(2^3 - 1) = 255/7 = 36*/
 405:Middlewares/lvgl/examples/widgets/table/../../../src/hal/../misc/lv_color.h ****     LV_COLOR_SET_G32(ret, LV_COLOR_GET_G(color) * 36); /*(2^8 - 1)/(2^3 - 1) = 255/7 = 36*/
 406:Middlewares/lvgl/examples/widgets/table/../../../src/hal/../misc/lv_color.h ****     LV_COLOR_SET_B32(ret, LV_COLOR_GET_B(color) * 85); /*(2^8 - 1)/(2^2 - 1) = 255/3 = 85*/
 407:Middlewares/lvgl/examples/widgets/table/../../../src/hal/../misc/lv_color.h ****     LV_COLOR_SET_A32(ret, 0xFF);
 408:Middlewares/lvgl/examples/widgets/table/../../../src/hal/../misc/lv_color.h ****     return ret.full;
 409:Middlewares/lvgl/examples/widgets/table/../../../src/hal/../misc/lv_color.h **** #elif LV_COLOR_DEPTH == 16
 410:Middlewares/lvgl/examples/widgets/table/../../../src/hal/../misc/lv_color.h ****     /**
 411:Middlewares/lvgl/examples/widgets/table/../../../src/hal/../misc/lv_color.h ****      * The floating point math for conversion is:
 412:Middlewares/lvgl/examples/widgets/table/../../../src/hal/../misc/lv_color.h ****      *  valueto = valuefrom * ( (2^bitsto - 1) / (float)(2^bitsfrom - 1) )
 413:Middlewares/lvgl/examples/widgets/table/../../../src/hal/../misc/lv_color.h ****      * The faster integer math for conversion is:
 414:Middlewares/lvgl/examples/widgets/table/../../../src/hal/../misc/lv_color.h ****      *  valueto = ( valuefrom * multiplier + adder ) >> divisor
 415:Middlewares/lvgl/examples/widgets/table/../../../src/hal/../misc/lv_color.h ****      *   multiplier = FLOOR( ( (2^bitsto - 1) << divisor ) / (float)(2^bitsfrom - 1) )
 416:Middlewares/lvgl/examples/widgets/table/../../../src/hal/../misc/lv_color.h ****      *
ARM GAS  /tmp/cckDkQG7.s 			page 17


 417:Middlewares/lvgl/examples/widgets/table/../../../src/hal/../misc/lv_color.h ****      * Find the first divisor where ( adder >> divisor ) <= 0
 418:Middlewares/lvgl/examples/widgets/table/../../../src/hal/../misc/lv_color.h ****      *
 419:Middlewares/lvgl/examples/widgets/table/../../../src/hal/../misc/lv_color.h ****      * 5-bit to 8-bit: ( 31 * multiplier + adder ) >> divisor = 255
 420:Middlewares/lvgl/examples/widgets/table/../../../src/hal/../misc/lv_color.h ****      * divisor  multiplier  adder  min (0)  max (31)
 421:Middlewares/lvgl/examples/widgets/table/../../../src/hal/../misc/lv_color.h ****      *       0           8      7        7       255
 422:Middlewares/lvgl/examples/widgets/table/../../../src/hal/../misc/lv_color.h ****      *       1          16     14        7       255
 423:Middlewares/lvgl/examples/widgets/table/../../../src/hal/../misc/lv_color.h ****      *       2          32     28        7       255
 424:Middlewares/lvgl/examples/widgets/table/../../../src/hal/../misc/lv_color.h ****      *       3          65     25        3       255
 425:Middlewares/lvgl/examples/widgets/table/../../../src/hal/../misc/lv_color.h ****      *       4         131     19        1       255
 426:Middlewares/lvgl/examples/widgets/table/../../../src/hal/../misc/lv_color.h ****      *       5         263      7        0       255
 427:Middlewares/lvgl/examples/widgets/table/../../../src/hal/../misc/lv_color.h ****      *
 428:Middlewares/lvgl/examples/widgets/table/../../../src/hal/../misc/lv_color.h ****      * 6-bit to 8-bit: 255 = ( 63 * multiplier + adder ) >> divisor
 429:Middlewares/lvgl/examples/widgets/table/../../../src/hal/../misc/lv_color.h ****      * divisor  multiplier  adder  min (0)  max (63)
 430:Middlewares/lvgl/examples/widgets/table/../../../src/hal/../misc/lv_color.h ****      *       0           4      3        3       255
 431:Middlewares/lvgl/examples/widgets/table/../../../src/hal/../misc/lv_color.h ****      *       1           8      6        3       255
 432:Middlewares/lvgl/examples/widgets/table/../../../src/hal/../misc/lv_color.h ****      *       2          16     12        3       255
 433:Middlewares/lvgl/examples/widgets/table/../../../src/hal/../misc/lv_color.h ****      *       3          32     24        3       255
 434:Middlewares/lvgl/examples/widgets/table/../../../src/hal/../misc/lv_color.h ****      *       4          64     48        3       255
 435:Middlewares/lvgl/examples/widgets/table/../../../src/hal/../misc/lv_color.h ****      *       5         129     33        1       255
 436:Middlewares/lvgl/examples/widgets/table/../../../src/hal/../misc/lv_color.h ****      *       6         259      3        0       255
 437:Middlewares/lvgl/examples/widgets/table/../../../src/hal/../misc/lv_color.h ****      */
 438:Middlewares/lvgl/examples/widgets/table/../../../src/hal/../misc/lv_color.h **** 
 439:Middlewares/lvgl/examples/widgets/table/../../../src/hal/../misc/lv_color.h ****     lv_color32_t ret;
 440:Middlewares/lvgl/examples/widgets/table/../../../src/hal/../misc/lv_color.h ****     LV_COLOR_SET_R32(ret, (LV_COLOR_GET_R(color) * 263 + 7) >> 5);
 441:Middlewares/lvgl/examples/widgets/table/../../../src/hal/../misc/lv_color.h ****     LV_COLOR_SET_G32(ret, (LV_COLOR_GET_G(color) * 259 + 3) >> 6);
 442:Middlewares/lvgl/examples/widgets/table/../../../src/hal/../misc/lv_color.h ****     LV_COLOR_SET_B32(ret, (LV_COLOR_GET_B(color) * 263 + 7) >> 5);
 443:Middlewares/lvgl/examples/widgets/table/../../../src/hal/../misc/lv_color.h ****     LV_COLOR_SET_A32(ret, 0xFF);
 444:Middlewares/lvgl/examples/widgets/table/../../../src/hal/../misc/lv_color.h ****     return ret.full;
 445:Middlewares/lvgl/examples/widgets/table/../../../src/hal/../misc/lv_color.h **** #elif LV_COLOR_DEPTH == 32
 446:Middlewares/lvgl/examples/widgets/table/../../../src/hal/../misc/lv_color.h ****     return color.full;
 447:Middlewares/lvgl/examples/widgets/table/../../../src/hal/../misc/lv_color.h **** #endif
 448:Middlewares/lvgl/examples/widgets/table/../../../src/hal/../misc/lv_color.h **** }
 449:Middlewares/lvgl/examples/widgets/table/../../../src/hal/../misc/lv_color.h **** 
 450:Middlewares/lvgl/examples/widgets/table/../../../src/hal/../misc/lv_color.h **** //! @cond Doxygen_Suppress
 451:Middlewares/lvgl/examples/widgets/table/../../../src/hal/../misc/lv_color.h **** 
 452:Middlewares/lvgl/examples/widgets/table/../../../src/hal/../misc/lv_color.h **** /**
 453:Middlewares/lvgl/examples/widgets/table/../../../src/hal/../misc/lv_color.h ****  * Mix two colors with a given ratio.
 454:Middlewares/lvgl/examples/widgets/table/../../../src/hal/../misc/lv_color.h ****  * @param c1 the first color to mix (usually the foreground)
 455:Middlewares/lvgl/examples/widgets/table/../../../src/hal/../misc/lv_color.h ****  * @param c2 the second color to mix (usually the background)
 456:Middlewares/lvgl/examples/widgets/table/../../../src/hal/../misc/lv_color.h ****  * @param mix The ratio of the colors. 0: full `c2`, 255: full `c1`, 127: half `c1` and half`c2`
 457:Middlewares/lvgl/examples/widgets/table/../../../src/hal/../misc/lv_color.h ****  * @return the mixed color
 458:Middlewares/lvgl/examples/widgets/table/../../../src/hal/../misc/lv_color.h ****  */
 459:Middlewares/lvgl/examples/widgets/table/../../../src/hal/../misc/lv_color.h **** LV_ATTRIBUTE_FAST_MEM static inline lv_color_t lv_color_mix(lv_color_t c1, lv_color_t c2, uint8_t m
 460:Middlewares/lvgl/examples/widgets/table/../../../src/hal/../misc/lv_color.h **** {
 461:Middlewares/lvgl/examples/widgets/table/../../../src/hal/../misc/lv_color.h ****     lv_color_t ret;
 462:Middlewares/lvgl/examples/widgets/table/../../../src/hal/../misc/lv_color.h **** #if LV_COLOR_DEPTH != 1
 463:Middlewares/lvgl/examples/widgets/table/../../../src/hal/../misc/lv_color.h ****     /*LV_COLOR_DEPTH == 8, 16 or 32*/
 464:Middlewares/lvgl/examples/widgets/table/../../../src/hal/../misc/lv_color.h ****     LV_COLOR_SET_R(ret, LV_UDIV255((uint16_t) LV_COLOR_GET_R(c1) * mix + LV_COLOR_GET_R(c2) *
 465:Middlewares/lvgl/examples/widgets/table/../../../src/hal/../misc/lv_color.h ****                                         (255 - mix) + LV_COLOR_MIX_ROUND_OFS));
 466:Middlewares/lvgl/examples/widgets/table/../../../src/hal/../misc/lv_color.h ****     LV_COLOR_SET_G(ret, LV_UDIV255((uint16_t) LV_COLOR_GET_G(c1) * mix + LV_COLOR_GET_G(c2) *
 467:Middlewares/lvgl/examples/widgets/table/../../../src/hal/../misc/lv_color.h ****                                         (255 - mix) + LV_COLOR_MIX_ROUND_OFS));
 468:Middlewares/lvgl/examples/widgets/table/../../../src/hal/../misc/lv_color.h ****     LV_COLOR_SET_B(ret, LV_UDIV255((uint16_t) LV_COLOR_GET_B(c1) * mix + LV_COLOR_GET_B(c2) *
 469:Middlewares/lvgl/examples/widgets/table/../../../src/hal/../misc/lv_color.h ****                                         (255 - mix) + LV_COLOR_MIX_ROUND_OFS));
 470:Middlewares/lvgl/examples/widgets/table/../../../src/hal/../misc/lv_color.h ****     LV_COLOR_SET_A(ret, 0xFF);
 471:Middlewares/lvgl/examples/widgets/table/../../../src/hal/../misc/lv_color.h **** #else
 472:Middlewares/lvgl/examples/widgets/table/../../../src/hal/../misc/lv_color.h ****     /*LV_COLOR_DEPTH == 1*/
 473:Middlewares/lvgl/examples/widgets/table/../../../src/hal/../misc/lv_color.h ****     ret.full = mix > LV_OPA_50 ? c1.full : c2.full;
ARM GAS  /tmp/cckDkQG7.s 			page 18


 474:Middlewares/lvgl/examples/widgets/table/../../../src/hal/../misc/lv_color.h **** #endif
 475:Middlewares/lvgl/examples/widgets/table/../../../src/hal/../misc/lv_color.h **** 
 476:Middlewares/lvgl/examples/widgets/table/../../../src/hal/../misc/lv_color.h ****     return ret;
 477:Middlewares/lvgl/examples/widgets/table/../../../src/hal/../misc/lv_color.h **** }
 478:Middlewares/lvgl/examples/widgets/table/../../../src/hal/../misc/lv_color.h **** 
 479:Middlewares/lvgl/examples/widgets/table/../../../src/hal/../misc/lv_color.h **** LV_ATTRIBUTE_FAST_MEM static inline void lv_color_premult(lv_color_t c, uint8_t mix, uint16_t * out
 480:Middlewares/lvgl/examples/widgets/table/../../../src/hal/../misc/lv_color.h **** {
 481:Middlewares/lvgl/examples/widgets/table/../../../src/hal/../misc/lv_color.h **** #if LV_COLOR_DEPTH != 1
 482:Middlewares/lvgl/examples/widgets/table/../../../src/hal/../misc/lv_color.h ****     out[0] = (uint16_t) LV_COLOR_GET_R(c) * mix;
 483:Middlewares/lvgl/examples/widgets/table/../../../src/hal/../misc/lv_color.h ****     out[1] = (uint16_t) LV_COLOR_GET_G(c) * mix;
 484:Middlewares/lvgl/examples/widgets/table/../../../src/hal/../misc/lv_color.h ****     out[2] = (uint16_t) LV_COLOR_GET_B(c) * mix;
 485:Middlewares/lvgl/examples/widgets/table/../../../src/hal/../misc/lv_color.h **** #else
 486:Middlewares/lvgl/examples/widgets/table/../../../src/hal/../misc/lv_color.h ****     (void) mix;
 487:Middlewares/lvgl/examples/widgets/table/../../../src/hal/../misc/lv_color.h ****     /*Pre-multiplication can't be used with 1 bpp*/
 488:Middlewares/lvgl/examples/widgets/table/../../../src/hal/../misc/lv_color.h ****     out[0] = LV_COLOR_GET_R(c);
 489:Middlewares/lvgl/examples/widgets/table/../../../src/hal/../misc/lv_color.h ****     out[1] = LV_COLOR_GET_G(c);
 490:Middlewares/lvgl/examples/widgets/table/../../../src/hal/../misc/lv_color.h ****     out[2] = LV_COLOR_GET_B(c);
 491:Middlewares/lvgl/examples/widgets/table/../../../src/hal/../misc/lv_color.h **** #endif
 492:Middlewares/lvgl/examples/widgets/table/../../../src/hal/../misc/lv_color.h **** 
 493:Middlewares/lvgl/examples/widgets/table/../../../src/hal/../misc/lv_color.h **** }
 494:Middlewares/lvgl/examples/widgets/table/../../../src/hal/../misc/lv_color.h **** 
 495:Middlewares/lvgl/examples/widgets/table/../../../src/hal/../misc/lv_color.h **** /**
 496:Middlewares/lvgl/examples/widgets/table/../../../src/hal/../misc/lv_color.h ****  * Mix two colors with a given ratio. It runs faster then `lv_color_mix` but requires some pre comp
 497:Middlewares/lvgl/examples/widgets/table/../../../src/hal/../misc/lv_color.h ****  * @param premult_c1 The first color. Should be preprocessed with `lv_color_premult(c1)`
 498:Middlewares/lvgl/examples/widgets/table/../../../src/hal/../misc/lv_color.h ****  * @param c2 The second color. As it is no pre computation required on it
 499:Middlewares/lvgl/examples/widgets/table/../../../src/hal/../misc/lv_color.h ****  * @param mix The ratio of the colors. 0: full `c1`, 255: full `c2`, 127: half `c1` and half `c2`.
 500:Middlewares/lvgl/examples/widgets/table/../../../src/hal/../misc/lv_color.h ****  *            Should be modified like mix = `255 - mix`
 501:Middlewares/lvgl/examples/widgets/table/../../../src/hal/../misc/lv_color.h ****  * @return the mixed color
 502:Middlewares/lvgl/examples/widgets/table/../../../src/hal/../misc/lv_color.h ****  * @note 255 won't give clearly `c1`.
 503:Middlewares/lvgl/examples/widgets/table/../../../src/hal/../misc/lv_color.h ****  */
 504:Middlewares/lvgl/examples/widgets/table/../../../src/hal/../misc/lv_color.h **** LV_ATTRIBUTE_FAST_MEM static inline lv_color_t lv_color_mix_premult(uint16_t * premult_c1, lv_color
 505:Middlewares/lvgl/examples/widgets/table/../../../src/hal/../misc/lv_color.h **** {
 506:Middlewares/lvgl/examples/widgets/table/../../../src/hal/../misc/lv_color.h ****     lv_color_t ret;
 507:Middlewares/lvgl/examples/widgets/table/../../../src/hal/../misc/lv_color.h **** #if LV_COLOR_DEPTH != 1
 508:Middlewares/lvgl/examples/widgets/table/../../../src/hal/../misc/lv_color.h ****     /*LV_COLOR_DEPTH == 8, 16 or 32*/
 509:Middlewares/lvgl/examples/widgets/table/../../../src/hal/../misc/lv_color.h ****     LV_COLOR_SET_R(ret, LV_UDIV255(premult_c1[0] + LV_COLOR_GET_R(c2) * mix + LV_COLOR_MIX_ROUND_OF
 510:Middlewares/lvgl/examples/widgets/table/../../../src/hal/../misc/lv_color.h ****     LV_COLOR_SET_G(ret, LV_UDIV255(premult_c1[1] + LV_COLOR_GET_G(c2) * mix + LV_COLOR_MIX_ROUND_OF
 511:Middlewares/lvgl/examples/widgets/table/../../../src/hal/../misc/lv_color.h ****     LV_COLOR_SET_B(ret, LV_UDIV255(premult_c1[2] + LV_COLOR_GET_B(c2) * mix + LV_COLOR_MIX_ROUND_OF
 512:Middlewares/lvgl/examples/widgets/table/../../../src/hal/../misc/lv_color.h ****     LV_COLOR_SET_A(ret, 0xFF);
 513:Middlewares/lvgl/examples/widgets/table/../../../src/hal/../misc/lv_color.h **** #else
 514:Middlewares/lvgl/examples/widgets/table/../../../src/hal/../misc/lv_color.h ****     /*LV_COLOR_DEPTH == 1*/
 515:Middlewares/lvgl/examples/widgets/table/../../../src/hal/../misc/lv_color.h ****     /*Restore color1*/
 516:Middlewares/lvgl/examples/widgets/table/../../../src/hal/../misc/lv_color.h ****     lv_color_t c1;
 517:Middlewares/lvgl/examples/widgets/table/../../../src/hal/../misc/lv_color.h ****     LV_COLOR_SET_R(c1, premult_c1[0]);
 518:Middlewares/lvgl/examples/widgets/table/../../../src/hal/../misc/lv_color.h ****     LV_COLOR_SET_G(c1, premult_c1[1]);
 519:Middlewares/lvgl/examples/widgets/table/../../../src/hal/../misc/lv_color.h ****     LV_COLOR_SET_B(c1, premult_c1[2]);
 520:Middlewares/lvgl/examples/widgets/table/../../../src/hal/../misc/lv_color.h ****     ret.full = mix > LV_OPA_50 ? c2.full : c1.full;
 521:Middlewares/lvgl/examples/widgets/table/../../../src/hal/../misc/lv_color.h **** #endif
 522:Middlewares/lvgl/examples/widgets/table/../../../src/hal/../misc/lv_color.h **** 
 523:Middlewares/lvgl/examples/widgets/table/../../../src/hal/../misc/lv_color.h ****     return ret;
 524:Middlewares/lvgl/examples/widgets/table/../../../src/hal/../misc/lv_color.h **** }
 525:Middlewares/lvgl/examples/widgets/table/../../../src/hal/../misc/lv_color.h **** 
 526:Middlewares/lvgl/examples/widgets/table/../../../src/hal/../misc/lv_color.h **** /**
 527:Middlewares/lvgl/examples/widgets/table/../../../src/hal/../misc/lv_color.h ****  * Mix two colors. Both color can have alpha value.
 528:Middlewares/lvgl/examples/widgets/table/../../../src/hal/../misc/lv_color.h ****  * @param bg_color background color
 529:Middlewares/lvgl/examples/widgets/table/../../../src/hal/../misc/lv_color.h ****  * @param bg_opa alpha of the background color
 530:Middlewares/lvgl/examples/widgets/table/../../../src/hal/../misc/lv_color.h ****  * @param fg_color foreground color
ARM GAS  /tmp/cckDkQG7.s 			page 19


 531:Middlewares/lvgl/examples/widgets/table/../../../src/hal/../misc/lv_color.h ****  * @param fg_opa alpha of the foreground color
 532:Middlewares/lvgl/examples/widgets/table/../../../src/hal/../misc/lv_color.h ****  * @param res_color the result color
 533:Middlewares/lvgl/examples/widgets/table/../../../src/hal/../misc/lv_color.h ****  * @param res_opa the result opacity
 534:Middlewares/lvgl/examples/widgets/table/../../../src/hal/../misc/lv_color.h ****  */
 535:Middlewares/lvgl/examples/widgets/table/../../../src/hal/../misc/lv_color.h **** LV_ATTRIBUTE_FAST_MEM static inline void lv_color_mix_with_alpha(lv_color_t bg_color, lv_opa_t bg_o
 536:Middlewares/lvgl/examples/widgets/table/../../../src/hal/../misc/lv_color.h ****                                                                  lv_color_t fg_color, lv_opa_t fg_o
 537:Middlewares/lvgl/examples/widgets/table/../../../src/hal/../misc/lv_color.h ****                                                                  lv_color_t * res_color, lv_opa_t *
 538:Middlewares/lvgl/examples/widgets/table/../../../src/hal/../misc/lv_color.h **** {
 539:Middlewares/lvgl/examples/widgets/table/../../../src/hal/../misc/lv_color.h ****     /*Pick the foreground if it's fully opaque or the Background is fully transparent*/
 540:Middlewares/lvgl/examples/widgets/table/../../../src/hal/../misc/lv_color.h ****     if(fg_opa >= LV_OPA_MAX || bg_opa <= LV_OPA_MIN) {
 541:Middlewares/lvgl/examples/widgets/table/../../../src/hal/../misc/lv_color.h ****         res_color->full = fg_color.full;
 542:Middlewares/lvgl/examples/widgets/table/../../../src/hal/../misc/lv_color.h ****         *res_opa = fg_opa;
 543:Middlewares/lvgl/examples/widgets/table/../../../src/hal/../misc/lv_color.h ****     }
 544:Middlewares/lvgl/examples/widgets/table/../../../src/hal/../misc/lv_color.h ****     /*Transparent foreground: use the Background*/
 545:Middlewares/lvgl/examples/widgets/table/../../../src/hal/../misc/lv_color.h ****     else if(fg_opa <= LV_OPA_MIN) {
 546:Middlewares/lvgl/examples/widgets/table/../../../src/hal/../misc/lv_color.h ****         res_color->full = bg_color.full;
 547:Middlewares/lvgl/examples/widgets/table/../../../src/hal/../misc/lv_color.h ****         *res_opa = bg_opa;
 548:Middlewares/lvgl/examples/widgets/table/../../../src/hal/../misc/lv_color.h ****     }
 549:Middlewares/lvgl/examples/widgets/table/../../../src/hal/../misc/lv_color.h ****     /*Opaque background: use simple mix*/
 550:Middlewares/lvgl/examples/widgets/table/../../../src/hal/../misc/lv_color.h ****     else if(bg_opa >= LV_OPA_MAX) {
 551:Middlewares/lvgl/examples/widgets/table/../../../src/hal/../misc/lv_color.h ****         *res_color = lv_color_mix(fg_color, bg_color, fg_opa);
 552:Middlewares/lvgl/examples/widgets/table/../../../src/hal/../misc/lv_color.h ****         *res_opa = LV_OPA_COVER;
 553:Middlewares/lvgl/examples/widgets/table/../../../src/hal/../misc/lv_color.h ****     }
 554:Middlewares/lvgl/examples/widgets/table/../../../src/hal/../misc/lv_color.h ****     /*Both colors have alpha. Expensive calculation need to be applied*/
 555:Middlewares/lvgl/examples/widgets/table/../../../src/hal/../misc/lv_color.h ****     else {
 556:Middlewares/lvgl/examples/widgets/table/../../../src/hal/../misc/lv_color.h ****         /*Save the parameters and the result. If they will be asked again don't compute again*/
 557:Middlewares/lvgl/examples/widgets/table/../../../src/hal/../misc/lv_color.h ****         static lv_opa_t fg_opa_save     = 0;
 558:Middlewares/lvgl/examples/widgets/table/../../../src/hal/../misc/lv_color.h ****         static lv_opa_t bg_opa_save     = 0;
 559:Middlewares/lvgl/examples/widgets/table/../../../src/hal/../misc/lv_color.h ****         static lv_color_t fg_color_save = _LV_COLOR_ZERO_INITIALIZER;
 560:Middlewares/lvgl/examples/widgets/table/../../../src/hal/../misc/lv_color.h ****         static lv_color_t bg_color_save = _LV_COLOR_ZERO_INITIALIZER;
 561:Middlewares/lvgl/examples/widgets/table/../../../src/hal/../misc/lv_color.h ****         static lv_color_t res_color_saved = _LV_COLOR_ZERO_INITIALIZER;
 562:Middlewares/lvgl/examples/widgets/table/../../../src/hal/../misc/lv_color.h ****         static lv_opa_t res_opa_saved = 0;
 563:Middlewares/lvgl/examples/widgets/table/../../../src/hal/../misc/lv_color.h **** 
 564:Middlewares/lvgl/examples/widgets/table/../../../src/hal/../misc/lv_color.h ****         if(fg_opa != fg_opa_save || bg_opa != bg_opa_save || fg_color.full != fg_color_save.full ||
 565:Middlewares/lvgl/examples/widgets/table/../../../src/hal/../misc/lv_color.h ****            bg_color.full != bg_color_save.full) {
 566:Middlewares/lvgl/examples/widgets/table/../../../src/hal/../misc/lv_color.h ****             fg_opa_save        = fg_opa;
 567:Middlewares/lvgl/examples/widgets/table/../../../src/hal/../misc/lv_color.h ****             bg_opa_save        = bg_opa;
 568:Middlewares/lvgl/examples/widgets/table/../../../src/hal/../misc/lv_color.h ****             fg_color_save.full = fg_color.full;
 569:Middlewares/lvgl/examples/widgets/table/../../../src/hal/../misc/lv_color.h ****             bg_color_save.full = bg_color.full;
 570:Middlewares/lvgl/examples/widgets/table/../../../src/hal/../misc/lv_color.h ****             /*Info:
 571:Middlewares/lvgl/examples/widgets/table/../../../src/hal/../misc/lv_color.h ****              * https://en.wikipedia.org/wiki/Alpha_compositing#Analytical_derivation_of_the_over_op
 572:Middlewares/lvgl/examples/widgets/table/../../../src/hal/../misc/lv_color.h ****             res_opa_saved = 255 - ((uint16_t)((uint16_t)(255 - fg_opa) * (255 - bg_opa)) >> 8);
 573:Middlewares/lvgl/examples/widgets/table/../../../src/hal/../misc/lv_color.h ****             if(res_opa_saved == 0) {
 574:Middlewares/lvgl/examples/widgets/table/../../../src/hal/../misc/lv_color.h ****                 while(1)
 575:Middlewares/lvgl/examples/widgets/table/../../../src/hal/../misc/lv_color.h ****                     ;
 576:Middlewares/lvgl/examples/widgets/table/../../../src/hal/../misc/lv_color.h ****             }
 577:Middlewares/lvgl/examples/widgets/table/../../../src/hal/../misc/lv_color.h ****             lv_opa_t ratio = (uint16_t)((uint16_t)fg_opa * 255) / res_opa_saved;
 578:Middlewares/lvgl/examples/widgets/table/../../../src/hal/../misc/lv_color.h ****             res_color_saved = lv_color_mix(fg_color, bg_color, ratio);
 579:Middlewares/lvgl/examples/widgets/table/../../../src/hal/../misc/lv_color.h **** 
 580:Middlewares/lvgl/examples/widgets/table/../../../src/hal/../misc/lv_color.h ****         }
 581:Middlewares/lvgl/examples/widgets/table/../../../src/hal/../misc/lv_color.h **** 
 582:Middlewares/lvgl/examples/widgets/table/../../../src/hal/../misc/lv_color.h ****         res_color->full = res_color_saved.full;
 583:Middlewares/lvgl/examples/widgets/table/../../../src/hal/../misc/lv_color.h ****         *res_opa = res_opa_saved;
 584:Middlewares/lvgl/examples/widgets/table/../../../src/hal/../misc/lv_color.h ****     }
 585:Middlewares/lvgl/examples/widgets/table/../../../src/hal/../misc/lv_color.h **** }
 586:Middlewares/lvgl/examples/widgets/table/../../../src/hal/../misc/lv_color.h **** 
 587:Middlewares/lvgl/examples/widgets/table/../../../src/hal/../misc/lv_color.h **** //! @endcond
ARM GAS  /tmp/cckDkQG7.s 			page 20


 588:Middlewares/lvgl/examples/widgets/table/../../../src/hal/../misc/lv_color.h **** 
 589:Middlewares/lvgl/examples/widgets/table/../../../src/hal/../misc/lv_color.h **** /**
 590:Middlewares/lvgl/examples/widgets/table/../../../src/hal/../misc/lv_color.h ****  * Get the brightness of a color
 591:Middlewares/lvgl/examples/widgets/table/../../../src/hal/../misc/lv_color.h ****  * @param color a color
 592:Middlewares/lvgl/examples/widgets/table/../../../src/hal/../misc/lv_color.h ****  * @return the brightness [0..255]
 593:Middlewares/lvgl/examples/widgets/table/../../../src/hal/../misc/lv_color.h ****  */
 594:Middlewares/lvgl/examples/widgets/table/../../../src/hal/../misc/lv_color.h **** static inline uint8_t lv_color_brightness(lv_color_t color)
 595:Middlewares/lvgl/examples/widgets/table/../../../src/hal/../misc/lv_color.h **** {
 596:Middlewares/lvgl/examples/widgets/table/../../../src/hal/../misc/lv_color.h ****     lv_color32_t c32;
 597:Middlewares/lvgl/examples/widgets/table/../../../src/hal/../misc/lv_color.h ****     c32.full        = lv_color_to32(color);
 598:Middlewares/lvgl/examples/widgets/table/../../../src/hal/../misc/lv_color.h ****     uint16_t bright = (uint16_t)(3u * LV_COLOR_GET_R32(c32) + LV_COLOR_GET_B32(c32) + 4u * LV_COLOR
 599:Middlewares/lvgl/examples/widgets/table/../../../src/hal/../misc/lv_color.h ****     return (uint8_t)(bright >> 3);
 600:Middlewares/lvgl/examples/widgets/table/../../../src/hal/../misc/lv_color.h **** }
 601:Middlewares/lvgl/examples/widgets/table/../../../src/hal/../misc/lv_color.h **** 
 602:Middlewares/lvgl/examples/widgets/table/../../../src/hal/../misc/lv_color.h **** static inline lv_color_t lv_color_make(uint8_t r, uint8_t g, uint8_t b)
 603:Middlewares/lvgl/examples/widgets/table/../../../src/hal/../misc/lv_color.h **** {
 604:Middlewares/lvgl/examples/widgets/table/../../../src/hal/../misc/lv_color.h ****     return _LV_COLOR_MAKE_TYPE_HELPER LV_COLOR_MAKE(r, g, b);
 605:Middlewares/lvgl/examples/widgets/table/../../../src/hal/../misc/lv_color.h **** }
 606:Middlewares/lvgl/examples/widgets/table/../../../src/hal/../misc/lv_color.h **** 
 607:Middlewares/lvgl/examples/widgets/table/../../../src/hal/../misc/lv_color.h **** static inline lv_color_t lv_color_hex(uint32_t c)
 608:Middlewares/lvgl/examples/widgets/table/../../../src/hal/../misc/lv_color.h **** {
 609:Middlewares/lvgl/examples/widgets/table/../../../src/hal/../misc/lv_color.h ****     return lv_color_make((uint8_t)((c >> 16) & 0xFF), (uint8_t)((c >> 8) & 0xFF), (uint8_t)(c & 0xF
 610:Middlewares/lvgl/examples/widgets/table/../../../src/hal/../misc/lv_color.h **** }
 611:Middlewares/lvgl/examples/widgets/table/../../../src/hal/../misc/lv_color.h **** 
 612:Middlewares/lvgl/examples/widgets/table/../../../src/hal/../misc/lv_color.h **** static inline lv_color_t lv_color_hex3(uint32_t c)
 613:Middlewares/lvgl/examples/widgets/table/../../../src/hal/../misc/lv_color.h **** {
 614:Middlewares/lvgl/examples/widgets/table/../../../src/hal/../misc/lv_color.h ****     return lv_color_make((uint8_t)(((c >> 4) & 0xF0) | ((c >> 8) & 0xF)), (uint8_t)((c & 0xF0) | ((
 615:Middlewares/lvgl/examples/widgets/table/../../../src/hal/../misc/lv_color.h ****                          (uint8_t)((c & 0xF) | ((c & 0xF) << 4)));
 616:Middlewares/lvgl/examples/widgets/table/../../../src/hal/../misc/lv_color.h **** }
 617:Middlewares/lvgl/examples/widgets/table/../../../src/hal/../misc/lv_color.h **** 
 618:Middlewares/lvgl/examples/widgets/table/../../../src/hal/../misc/lv_color.h **** static inline void lv_color_filter_dsc_init(lv_color_filter_dsc_t * dsc, lv_color_filter_cb_t cb)
 619:Middlewares/lvgl/examples/widgets/table/../../../src/hal/../misc/lv_color.h **** {
 620:Middlewares/lvgl/examples/widgets/table/../../../src/hal/../misc/lv_color.h ****     dsc->filter_cb = cb;
 621:Middlewares/lvgl/examples/widgets/table/../../../src/hal/../misc/lv_color.h **** }
 622:Middlewares/lvgl/examples/widgets/table/../../../src/hal/../misc/lv_color.h **** 
 623:Middlewares/lvgl/examples/widgets/table/../../../src/hal/../misc/lv_color.h **** //! @cond Doxygen_Suppress
 624:Middlewares/lvgl/examples/widgets/table/../../../src/hal/../misc/lv_color.h **** //!
 625:Middlewares/lvgl/examples/widgets/table/../../../src/hal/../misc/lv_color.h **** LV_ATTRIBUTE_FAST_MEM void lv_color_fill(lv_color_t * buf, lv_color_t color, uint32_t px_num);
 626:Middlewares/lvgl/examples/widgets/table/../../../src/hal/../misc/lv_color.h **** 
 627:Middlewares/lvgl/examples/widgets/table/../../../src/hal/../misc/lv_color.h **** //! @endcond
 628:Middlewares/lvgl/examples/widgets/table/../../../src/hal/../misc/lv_color.h **** lv_color_t lv_color_lighten(lv_color_t c, lv_opa_t lvl);
 629:Middlewares/lvgl/examples/widgets/table/../../../src/hal/../misc/lv_color.h **** 
 630:Middlewares/lvgl/examples/widgets/table/../../../src/hal/../misc/lv_color.h **** lv_color_t lv_color_darken(lv_color_t c, lv_opa_t lvl);
 631:Middlewares/lvgl/examples/widgets/table/../../../src/hal/../misc/lv_color.h **** 
 632:Middlewares/lvgl/examples/widgets/table/../../../src/hal/../misc/lv_color.h **** lv_color_t lv_color_change_lightness(lv_color_t c, lv_opa_t lvl);
 633:Middlewares/lvgl/examples/widgets/table/../../../src/hal/../misc/lv_color.h **** 
 634:Middlewares/lvgl/examples/widgets/table/../../../src/hal/../misc/lv_color.h **** /**
 635:Middlewares/lvgl/examples/widgets/table/../../../src/hal/../misc/lv_color.h ****  * Convert a HSV color to RGB
 636:Middlewares/lvgl/examples/widgets/table/../../../src/hal/../misc/lv_color.h ****  * @param h hue [0..359]
 637:Middlewares/lvgl/examples/widgets/table/../../../src/hal/../misc/lv_color.h ****  * @param s saturation [0..100]
 638:Middlewares/lvgl/examples/widgets/table/../../../src/hal/../misc/lv_color.h ****  * @param v value [0..100]
 639:Middlewares/lvgl/examples/widgets/table/../../../src/hal/../misc/lv_color.h ****  * @return the given RGB color in RGB (with LV_COLOR_DEPTH depth)
 640:Middlewares/lvgl/examples/widgets/table/../../../src/hal/../misc/lv_color.h ****  */
 641:Middlewares/lvgl/examples/widgets/table/../../../src/hal/../misc/lv_color.h **** lv_color_t lv_color_hsv_to_rgb(uint16_t h, uint8_t s, uint8_t v);
 642:Middlewares/lvgl/examples/widgets/table/../../../src/hal/../misc/lv_color.h **** 
 643:Middlewares/lvgl/examples/widgets/table/../../../src/hal/../misc/lv_color.h **** /**
 644:Middlewares/lvgl/examples/widgets/table/../../../src/hal/../misc/lv_color.h ****  * Convert a 32-bit RGB color to HSV
ARM GAS  /tmp/cckDkQG7.s 			page 21


 645:Middlewares/lvgl/examples/widgets/table/../../../src/hal/../misc/lv_color.h ****  * @param r8 8-bit red
 646:Middlewares/lvgl/examples/widgets/table/../../../src/hal/../misc/lv_color.h ****  * @param g8 8-bit green
 647:Middlewares/lvgl/examples/widgets/table/../../../src/hal/../misc/lv_color.h ****  * @param b8 8-bit blue
 648:Middlewares/lvgl/examples/widgets/table/../../../src/hal/../misc/lv_color.h ****  * @return the given RGB color in HSV
 649:Middlewares/lvgl/examples/widgets/table/../../../src/hal/../misc/lv_color.h ****  */
 650:Middlewares/lvgl/examples/widgets/table/../../../src/hal/../misc/lv_color.h **** lv_color_hsv_t lv_color_rgb_to_hsv(uint8_t r8, uint8_t g8, uint8_t b8);
 651:Middlewares/lvgl/examples/widgets/table/../../../src/hal/../misc/lv_color.h **** 
 652:Middlewares/lvgl/examples/widgets/table/../../../src/hal/../misc/lv_color.h **** /**
 653:Middlewares/lvgl/examples/widgets/table/../../../src/hal/../misc/lv_color.h ****  * Convert a color to HSV
 654:Middlewares/lvgl/examples/widgets/table/../../../src/hal/../misc/lv_color.h ****  * @param color color
 655:Middlewares/lvgl/examples/widgets/table/../../../src/hal/../misc/lv_color.h ****  * @return the given color in HSV
 656:Middlewares/lvgl/examples/widgets/table/../../../src/hal/../misc/lv_color.h ****  */
 657:Middlewares/lvgl/examples/widgets/table/../../../src/hal/../misc/lv_color.h **** lv_color_hsv_t lv_color_to_hsv(lv_color_t color);
 658:Middlewares/lvgl/examples/widgets/table/../../../src/hal/../misc/lv_color.h **** 
 659:Middlewares/lvgl/examples/widgets/table/../../../src/hal/../misc/lv_color.h **** /**
 660:Middlewares/lvgl/examples/widgets/table/../../../src/hal/../misc/lv_color.h ****  * Just a wrapper around LV_COLOR_CHROMA_KEY because it might be more convenient to use a function 
 661:Middlewares/lvgl/examples/widgets/table/../../../src/hal/../misc/lv_color.h ****  * @return LV_COLOR_CHROMA_KEY
 662:Middlewares/lvgl/examples/widgets/table/../../../src/hal/../misc/lv_color.h ****  */
 663:Middlewares/lvgl/examples/widgets/table/../../../src/hal/../misc/lv_color.h **** static inline lv_color_t lv_color_chroma_key(void)
 664:Middlewares/lvgl/examples/widgets/table/../../../src/hal/../misc/lv_color.h **** {
 665:Middlewares/lvgl/examples/widgets/table/../../../src/hal/../misc/lv_color.h ****     return LV_COLOR_CHROMA_KEY;
 666:Middlewares/lvgl/examples/widgets/table/../../../src/hal/../misc/lv_color.h **** }
 667:Middlewares/lvgl/examples/widgets/table/../../../src/hal/../misc/lv_color.h **** 
 668:Middlewares/lvgl/examples/widgets/table/../../../src/hal/../misc/lv_color.h **** /**********************
 669:Middlewares/lvgl/examples/widgets/table/../../../src/hal/../misc/lv_color.h ****  *  PREDEFINED COLORS
 670:Middlewares/lvgl/examples/widgets/table/../../../src/hal/../misc/lv_color.h ****  **********************/
 671:Middlewares/lvgl/examples/widgets/table/../../../src/hal/../misc/lv_color.h **** /*Source: https://vuetifyjs.com/en/styles/colors/#material-colors*/
 672:Middlewares/lvgl/examples/widgets/table/../../../src/hal/../misc/lv_color.h **** 
 673:Middlewares/lvgl/examples/widgets/table/../../../src/hal/../misc/lv_color.h **** lv_color_t lv_palette_main(lv_palette_t p);
 674:Middlewares/lvgl/examples/widgets/table/../../../src/hal/../misc/lv_color.h **** static inline lv_color_t lv_color_white(void) { return lv_color_make(0xff, 0xff, 0xff);}
 261              		.loc 3 674 26 view .LVU67
 262              	.LBE14:
 263              	.LBE11:
 264              		.loc 3 674 49 view .LVU68
 265              	.LBB18:
 266              	.LBB17:
 267              	.LBB15:
 268              	.LBI15:
 602:Middlewares/lvgl/examples/widgets/table/../../../src/hal/../misc/lv_color.h **** {
 269              		.loc 3 602 26 view .LVU69
 270              	.LBB16:
 604:Middlewares/lvgl/examples/widgets/table/../../../src/hal/../misc/lv_color.h **** }
 271              		.loc 3 604 5 view .LVU70
 604:Middlewares/lvgl/examples/widgets/table/../../../src/hal/../misc/lv_color.h **** }
 272              		.loc 3 604 12 is_stmt 0 view .LVU71
 273 0092 4FF6FF73 		movw	r3, #65535
 274              	.LVL27:
 604:Middlewares/lvgl/examples/widgets/table/../../../src/hal/../misc/lv_color.h **** }
 275              		.loc 3 604 12 view .LVU72
 276              	.LBE16:
 277              	.LBE15:
 278              	.LBE17:
  26:Middlewares/lvgl/examples/widgets/table/lv_example_table_2.c ****         if(chk) {
 279              		.loc 1 26 29 view .LVU73
 280 0096 ADF81030 		strh	r3, [sp, #16]	@ movhi
  27:Middlewares/lvgl/examples/widgets/table/lv_example_table_2.c ****             sw_area.x2 -= 2;
 281              		.loc 1 27 9 is_stmt 1 view .LVU74
ARM GAS  /tmp/cckDkQG7.s 			page 22


  27:Middlewares/lvgl/examples/widgets/table/lv_example_table_2.c ****             sw_area.x2 -= 2;
 282              		.loc 1 27 11 is_stmt 0 view .LVU75
 283 009a FEB1     		cbz	r6, .L9
  28:Middlewares/lvgl/examples/widgets/table/lv_example_table_2.c ****             sw_area.x1 = sw_area.x2 - 16;
 284              		.loc 1 28 13 is_stmt 1 view .LVU76
  28:Middlewares/lvgl/examples/widgets/table/lv_example_table_2.c ****             sw_area.x1 = sw_area.x2 - 16;
 285              		.loc 1 28 24 is_stmt 0 view .LVU77
 286 009c BDF80830 		ldrh	r3, [sp, #8]
 287 00a0 023B     		subs	r3, r3, #2
 288 00a2 9BB2     		uxth	r3, r3
 289 00a4 ADF80830 		strh	r3, [sp, #8]	@ movhi
  29:Middlewares/lvgl/examples/widgets/table/lv_example_table_2.c ****         } else {
 290              		.loc 1 29 13 is_stmt 1 view .LVU78
  29:Middlewares/lvgl/examples/widgets/table/lv_example_table_2.c ****         } else {
 291              		.loc 1 29 37 is_stmt 0 view .LVU79
 292 00a8 103B     		subs	r3, r3, #16
  29:Middlewares/lvgl/examples/widgets/table/lv_example_table_2.c ****         } else {
 293              		.loc 1 29 24 view .LVU80
 294 00aa ADF80430 		strh	r3, [sp, #4]	@ movhi
 295              	.L10:
  34:Middlewares/lvgl/examples/widgets/table/lv_example_table_2.c ****         sw_area.y2 -= 2;
 296              		.loc 1 34 9 is_stmt 1 view .LVU81
  34:Middlewares/lvgl/examples/widgets/table/lv_example_table_2.c ****         sw_area.y2 -= 2;
 297              		.loc 1 34 20 is_stmt 0 view .LVU82
 298 00ae BDF80630 		ldrh	r3, [sp, #6]
 299 00b2 0233     		adds	r3, r3, #2
 300 00b4 ADF80630 		strh	r3, [sp, #6]	@ movhi
  35:Middlewares/lvgl/examples/widgets/table/lv_example_table_2.c ****         lv_draw_rect(&sw_area, dsc->clip_area, &rect_dsc);
 301              		.loc 1 35 9 is_stmt 1 view .LVU83
  35:Middlewares/lvgl/examples/widgets/table/lv_example_table_2.c ****         lv_draw_rect(&sw_area, dsc->clip_area, &rect_dsc);
 302              		.loc 1 35 20 is_stmt 0 view .LVU84
 303 00b8 BDF80A30 		ldrh	r3, [sp, #10]
 304 00bc 023B     		subs	r3, r3, #2
 305 00be ADF80A30 		strh	r3, [sp, #10]	@ movhi
  36:Middlewares/lvgl/examples/widgets/table/lv_example_table_2.c ****     }
 306              		.loc 1 36 9 is_stmt 1 view .LVU85
 307 00c2 03AA     		add	r2, sp, #12
 308 00c4 2168     		ldr	r1, [r4]
 309 00c6 01A8     		add	r0, sp, #4
 310 00c8 FFF7FEFF 		bl	lv_draw_rect
 311              	.LVL28:
 312              	.LBE18:
  38:Middlewares/lvgl/examples/widgets/table/lv_example_table_2.c **** 
 313              		.loc 1 38 1 is_stmt 0 view .LVU86
 314 00cc A5E7     		b	.L5
 315              	.L7:
 316              	.LBB19:
  16:Middlewares/lvgl/examples/widgets/table/lv_example_table_2.c ****         rect_dsc.radius = LV_RADIUS_CIRCLE;
 317              		.loc 1 16 69 discriminator 2 view .LVU87
 318 00ce 0221     		movs	r1, #2
 319 00d0 1220     		movs	r0, #18
 320 00d2 FFF7FEFF 		bl	lv_palette_lighten
 321              	.LVL29:
 322 00d6 ADF81000 		strh	r0, [sp, #16]	@ movhi
 323 00da B2E7     		b	.L8
 324              	.L9:
  31:Middlewares/lvgl/examples/widgets/table/lv_example_table_2.c ****             sw_area.x2 = sw_area.x1 + 16;
ARM GAS  /tmp/cckDkQG7.s 			page 23


 325              		.loc 1 31 13 is_stmt 1 view .LVU88
  31:Middlewares/lvgl/examples/widgets/table/lv_example_table_2.c ****             sw_area.x2 = sw_area.x1 + 16;
 326              		.loc 1 31 24 is_stmt 0 view .LVU89
 327 00dc BDF80430 		ldrh	r3, [sp, #4]
 328 00e0 0233     		adds	r3, r3, #2
 329 00e2 9BB2     		uxth	r3, r3
 330 00e4 ADF80430 		strh	r3, [sp, #4]	@ movhi
  32:Middlewares/lvgl/examples/widgets/table/lv_example_table_2.c ****         }
 331              		.loc 1 32 13 is_stmt 1 view .LVU90
  32:Middlewares/lvgl/examples/widgets/table/lv_example_table_2.c ****         }
 332              		.loc 1 32 37 is_stmt 0 view .LVU91
 333 00e8 1033     		adds	r3, r3, #16
  32:Middlewares/lvgl/examples/widgets/table/lv_example_table_2.c ****         }
 334              		.loc 1 32 24 view .LVU92
 335 00ea ADF80830 		strh	r3, [sp, #8]	@ movhi
 336 00ee DEE7     		b	.L10
 337              	.LBE19:
 338              		.cfi_endproc
 339              	.LFE184:
 341              		.section	.rodata.lv_example_table_2.str1.4,"aMS",%progbits,1
 342              		.align	2
 343              	.LC0:
 344 0000 4974656D 		.ascii	"Item %d\000"
 344      20256400 
 345              		.align	2
 346              	.LC1:
 347 0008 25642069 		.ascii	"%d items were created in %d ms\012using %d bytes of"
 347      74656D73 
 347      20776572 
 347      65206372 
 347      65617465 
 348 0038 206D656D 		.ascii	" memory\000"
 348      6F727900 
 349              		.section	.text.lv_example_table_2,"ax",%progbits
 350              		.align	1
 351              		.global	lv_example_table_2
 352              		.syntax unified
 353              		.thumb
 354              		.thumb_func
 355              		.fpu fpv4-sp-d16
 357              	lv_example_table_2:
 358              	.LFB186:
  50:Middlewares/lvgl/examples/widgets/table/lv_example_table_2.c **** 
  51:Middlewares/lvgl/examples/widgets/table/lv_example_table_2.c **** 
  52:Middlewares/lvgl/examples/widgets/table/lv_example_table_2.c **** /**
  53:Middlewares/lvgl/examples/widgets/table/lv_example_table_2.c ****  * A very light-weighted list created from table
  54:Middlewares/lvgl/examples/widgets/table/lv_example_table_2.c ****  */
  55:Middlewares/lvgl/examples/widgets/table/lv_example_table_2.c **** void lv_example_table_2(void)
  56:Middlewares/lvgl/examples/widgets/table/lv_example_table_2.c **** {
 359              		.loc 1 56 1 is_stmt 1 view -0
 360              		.cfi_startproc
 361              		@ args = 0, pretend = 0, frame = 56
 362              		@ frame_needed = 0, uses_anonymous_args = 0
 363 0000 F0B5     		push	{r4, r5, r6, r7, lr}
 364              	.LCFI8:
 365              		.cfi_def_cfa_offset 20
 366              		.cfi_offset 4, -20
ARM GAS  /tmp/cckDkQG7.s 			page 24


 367              		.cfi_offset 5, -16
 368              		.cfi_offset 6, -12
 369              		.cfi_offset 7, -8
 370              		.cfi_offset 14, -4
 371 0002 91B0     		sub	sp, sp, #68
 372              	.LCFI9:
 373              		.cfi_def_cfa_offset 88
  57:Middlewares/lvgl/examples/widgets/table/lv_example_table_2.c ****     /*Measure memory usage*/
  58:Middlewares/lvgl/examples/widgets/table/lv_example_table_2.c ****     lv_mem_monitor_t mon1;
 374              		.loc 1 58 5 view .LVU94
  59:Middlewares/lvgl/examples/widgets/table/lv_example_table_2.c ****     lv_mem_monitor(&mon1);
 375              		.loc 1 59 5 view .LVU95
 376 0004 09A8     		add	r0, sp, #36
 377 0006 FFF7FEFF 		bl	lv_mem_monitor
 378              	.LVL30:
  60:Middlewares/lvgl/examples/widgets/table/lv_example_table_2.c **** 
  61:Middlewares/lvgl/examples/widgets/table/lv_example_table_2.c ****     uint32_t t = lv_tick_get();
 379              		.loc 1 61 5 view .LVU96
 380              		.loc 1 61 18 is_stmt 0 view .LVU97
 381 000a FFF7FEFF 		bl	lv_tick_get
 382              	.LVL31:
 383 000e 0746     		mov	r7, r0
 384              	.LVL32:
  62:Middlewares/lvgl/examples/widgets/table/lv_example_table_2.c **** 
  63:Middlewares/lvgl/examples/widgets/table/lv_example_table_2.c ****     lv_obj_t * table = lv_table_create(lv_scr_act());
 385              		.loc 1 63 5 is_stmt 1 view .LVU98
 386              	.LBB24:
 387              	.LBI24:
 388              		.file 4 "Middlewares/lvgl/examples/widgets/table/../../../src/core/lv_disp.h"
   1:Middlewares/lvgl/examples/widgets/table/../../../src/core/lv_disp.h **** /**
   2:Middlewares/lvgl/examples/widgets/table/../../../src/core/lv_disp.h ****  * @file lv_disp.h
   3:Middlewares/lvgl/examples/widgets/table/../../../src/core/lv_disp.h ****  *
   4:Middlewares/lvgl/examples/widgets/table/../../../src/core/lv_disp.h ****  */
   5:Middlewares/lvgl/examples/widgets/table/../../../src/core/lv_disp.h **** 
   6:Middlewares/lvgl/examples/widgets/table/../../../src/core/lv_disp.h **** #ifndef LV_DISP_H
   7:Middlewares/lvgl/examples/widgets/table/../../../src/core/lv_disp.h **** #define LV_DISP_H
   8:Middlewares/lvgl/examples/widgets/table/../../../src/core/lv_disp.h **** 
   9:Middlewares/lvgl/examples/widgets/table/../../../src/core/lv_disp.h **** #ifdef __cplusplus
  10:Middlewares/lvgl/examples/widgets/table/../../../src/core/lv_disp.h **** extern "C" {
  11:Middlewares/lvgl/examples/widgets/table/../../../src/core/lv_disp.h **** #endif
  12:Middlewares/lvgl/examples/widgets/table/../../../src/core/lv_disp.h **** 
  13:Middlewares/lvgl/examples/widgets/table/../../../src/core/lv_disp.h **** /*********************
  14:Middlewares/lvgl/examples/widgets/table/../../../src/core/lv_disp.h ****  *      INCLUDES
  15:Middlewares/lvgl/examples/widgets/table/../../../src/core/lv_disp.h ****  *********************/
  16:Middlewares/lvgl/examples/widgets/table/../../../src/core/lv_disp.h **** #include "../hal/lv_hal.h"
  17:Middlewares/lvgl/examples/widgets/table/../../../src/core/lv_disp.h **** #include "lv_obj.h"
  18:Middlewares/lvgl/examples/widgets/table/../../../src/core/lv_disp.h **** #include "lv_theme.h"
  19:Middlewares/lvgl/examples/widgets/table/../../../src/core/lv_disp.h **** 
  20:Middlewares/lvgl/examples/widgets/table/../../../src/core/lv_disp.h **** /*********************
  21:Middlewares/lvgl/examples/widgets/table/../../../src/core/lv_disp.h ****  *      DEFINES
  22:Middlewares/lvgl/examples/widgets/table/../../../src/core/lv_disp.h ****  *********************/
  23:Middlewares/lvgl/examples/widgets/table/../../../src/core/lv_disp.h **** 
  24:Middlewares/lvgl/examples/widgets/table/../../../src/core/lv_disp.h **** /**********************
  25:Middlewares/lvgl/examples/widgets/table/../../../src/core/lv_disp.h ****  *      TYPEDEFS
  26:Middlewares/lvgl/examples/widgets/table/../../../src/core/lv_disp.h ****  **********************/
  27:Middlewares/lvgl/examples/widgets/table/../../../src/core/lv_disp.h **** 
  28:Middlewares/lvgl/examples/widgets/table/../../../src/core/lv_disp.h **** typedef enum {
ARM GAS  /tmp/cckDkQG7.s 			page 25


  29:Middlewares/lvgl/examples/widgets/table/../../../src/core/lv_disp.h ****     LV_SCR_LOAD_ANIM_NONE,
  30:Middlewares/lvgl/examples/widgets/table/../../../src/core/lv_disp.h ****     LV_SCR_LOAD_ANIM_OVER_LEFT,
  31:Middlewares/lvgl/examples/widgets/table/../../../src/core/lv_disp.h ****     LV_SCR_LOAD_ANIM_OVER_RIGHT,
  32:Middlewares/lvgl/examples/widgets/table/../../../src/core/lv_disp.h ****     LV_SCR_LOAD_ANIM_OVER_TOP,
  33:Middlewares/lvgl/examples/widgets/table/../../../src/core/lv_disp.h ****     LV_SCR_LOAD_ANIM_OVER_BOTTOM,
  34:Middlewares/lvgl/examples/widgets/table/../../../src/core/lv_disp.h ****     LV_SCR_LOAD_ANIM_MOVE_LEFT,
  35:Middlewares/lvgl/examples/widgets/table/../../../src/core/lv_disp.h ****     LV_SCR_LOAD_ANIM_MOVE_RIGHT,
  36:Middlewares/lvgl/examples/widgets/table/../../../src/core/lv_disp.h ****     LV_SCR_LOAD_ANIM_MOVE_TOP,
  37:Middlewares/lvgl/examples/widgets/table/../../../src/core/lv_disp.h ****     LV_SCR_LOAD_ANIM_MOVE_BOTTOM,
  38:Middlewares/lvgl/examples/widgets/table/../../../src/core/lv_disp.h ****     LV_SCR_LOAD_ANIM_FADE_ON,
  39:Middlewares/lvgl/examples/widgets/table/../../../src/core/lv_disp.h **** } lv_scr_load_anim_t;
  40:Middlewares/lvgl/examples/widgets/table/../../../src/core/lv_disp.h **** 
  41:Middlewares/lvgl/examples/widgets/table/../../../src/core/lv_disp.h **** /**********************
  42:Middlewares/lvgl/examples/widgets/table/../../../src/core/lv_disp.h ****  * GLOBAL PROTOTYPES
  43:Middlewares/lvgl/examples/widgets/table/../../../src/core/lv_disp.h ****  **********************/
  44:Middlewares/lvgl/examples/widgets/table/../../../src/core/lv_disp.h **** 
  45:Middlewares/lvgl/examples/widgets/table/../../../src/core/lv_disp.h **** /**
  46:Middlewares/lvgl/examples/widgets/table/../../../src/core/lv_disp.h ****  * Return with a pointer to the active screen
  47:Middlewares/lvgl/examples/widgets/table/../../../src/core/lv_disp.h ****  * @param disp pointer to display which active screen should be get. (NULL to use the default
  48:Middlewares/lvgl/examples/widgets/table/../../../src/core/lv_disp.h ****  * screen)
  49:Middlewares/lvgl/examples/widgets/table/../../../src/core/lv_disp.h ****  * @return pointer to the active screen object (loaded by 'lv_scr_load()')
  50:Middlewares/lvgl/examples/widgets/table/../../../src/core/lv_disp.h ****  */
  51:Middlewares/lvgl/examples/widgets/table/../../../src/core/lv_disp.h **** lv_obj_t * lv_disp_get_scr_act(lv_disp_t * disp);
  52:Middlewares/lvgl/examples/widgets/table/../../../src/core/lv_disp.h **** 
  53:Middlewares/lvgl/examples/widgets/table/../../../src/core/lv_disp.h **** /**
  54:Middlewares/lvgl/examples/widgets/table/../../../src/core/lv_disp.h ****  * Return with a pointer to the previous screen. Only used during screen transitions.
  55:Middlewares/lvgl/examples/widgets/table/../../../src/core/lv_disp.h ****  * @param disp pointer to display which previous screen should be get. (NULL to use the default
  56:Middlewares/lvgl/examples/widgets/table/../../../src/core/lv_disp.h ****  * screen)
  57:Middlewares/lvgl/examples/widgets/table/../../../src/core/lv_disp.h ****  * @return pointer to the previous screen object or NULL if not used now
  58:Middlewares/lvgl/examples/widgets/table/../../../src/core/lv_disp.h ****  */
  59:Middlewares/lvgl/examples/widgets/table/../../../src/core/lv_disp.h **** lv_obj_t * lv_disp_get_scr_prev(lv_disp_t * disp);
  60:Middlewares/lvgl/examples/widgets/table/../../../src/core/lv_disp.h **** 
  61:Middlewares/lvgl/examples/widgets/table/../../../src/core/lv_disp.h **** /**
  62:Middlewares/lvgl/examples/widgets/table/../../../src/core/lv_disp.h ****  * Make a screen active
  63:Middlewares/lvgl/examples/widgets/table/../../../src/core/lv_disp.h ****  * @param scr pointer to a screen
  64:Middlewares/lvgl/examples/widgets/table/../../../src/core/lv_disp.h ****  */
  65:Middlewares/lvgl/examples/widgets/table/../../../src/core/lv_disp.h **** void lv_disp_load_scr(lv_obj_t * scr);
  66:Middlewares/lvgl/examples/widgets/table/../../../src/core/lv_disp.h **** 
  67:Middlewares/lvgl/examples/widgets/table/../../../src/core/lv_disp.h **** /**
  68:Middlewares/lvgl/examples/widgets/table/../../../src/core/lv_disp.h ****  * Return with the top layer. (Same on every screen and it is above the normal screen layer)
  69:Middlewares/lvgl/examples/widgets/table/../../../src/core/lv_disp.h ****  * @param disp pointer to display which top layer should be get. (NULL to use the default screen)
  70:Middlewares/lvgl/examples/widgets/table/../../../src/core/lv_disp.h ****  * @return pointer to the top layer object  (transparent screen sized lv_obj)
  71:Middlewares/lvgl/examples/widgets/table/../../../src/core/lv_disp.h ****  */
  72:Middlewares/lvgl/examples/widgets/table/../../../src/core/lv_disp.h **** lv_obj_t * lv_disp_get_layer_top(lv_disp_t * disp);
  73:Middlewares/lvgl/examples/widgets/table/../../../src/core/lv_disp.h **** 
  74:Middlewares/lvgl/examples/widgets/table/../../../src/core/lv_disp.h **** /**
  75:Middlewares/lvgl/examples/widgets/table/../../../src/core/lv_disp.h ****  * Return with the sys. layer. (Same on every screen and it is above the normal screen and the top
  76:Middlewares/lvgl/examples/widgets/table/../../../src/core/lv_disp.h ****  * layer)
  77:Middlewares/lvgl/examples/widgets/table/../../../src/core/lv_disp.h ****  * @param disp pointer to display which sys. layer  should be get. (NULL to use the default screen)
  78:Middlewares/lvgl/examples/widgets/table/../../../src/core/lv_disp.h ****  * @return pointer to the sys layer object  (transparent screen sized lv_obj)
  79:Middlewares/lvgl/examples/widgets/table/../../../src/core/lv_disp.h ****  */
  80:Middlewares/lvgl/examples/widgets/table/../../../src/core/lv_disp.h **** lv_obj_t * lv_disp_get_layer_sys(lv_disp_t * disp);
  81:Middlewares/lvgl/examples/widgets/table/../../../src/core/lv_disp.h **** 
  82:Middlewares/lvgl/examples/widgets/table/../../../src/core/lv_disp.h **** /**
  83:Middlewares/lvgl/examples/widgets/table/../../../src/core/lv_disp.h ****  * Get the theme of a display
  84:Middlewares/lvgl/examples/widgets/table/../../../src/core/lv_disp.h ****  * @param disp pointer to a display
  85:Middlewares/lvgl/examples/widgets/table/../../../src/core/lv_disp.h ****  * @return the display's theme (can be NULL)
ARM GAS  /tmp/cckDkQG7.s 			page 26


  86:Middlewares/lvgl/examples/widgets/table/../../../src/core/lv_disp.h ****  */
  87:Middlewares/lvgl/examples/widgets/table/../../../src/core/lv_disp.h **** void lv_disp_set_theme(lv_disp_t * disp, lv_theme_t * th);
  88:Middlewares/lvgl/examples/widgets/table/../../../src/core/lv_disp.h **** 
  89:Middlewares/lvgl/examples/widgets/table/../../../src/core/lv_disp.h **** /**
  90:Middlewares/lvgl/examples/widgets/table/../../../src/core/lv_disp.h ****  * Get the theme of a display
  91:Middlewares/lvgl/examples/widgets/table/../../../src/core/lv_disp.h ****  * @param disp pointer to a display
  92:Middlewares/lvgl/examples/widgets/table/../../../src/core/lv_disp.h ****  * @return the display's theme (can be NULL)
  93:Middlewares/lvgl/examples/widgets/table/../../../src/core/lv_disp.h ****  */
  94:Middlewares/lvgl/examples/widgets/table/../../../src/core/lv_disp.h **** lv_theme_t * lv_disp_get_theme(lv_disp_t * disp);
  95:Middlewares/lvgl/examples/widgets/table/../../../src/core/lv_disp.h **** 
  96:Middlewares/lvgl/examples/widgets/table/../../../src/core/lv_disp.h **** /**
  97:Middlewares/lvgl/examples/widgets/table/../../../src/core/lv_disp.h ****  * Set the background color of a display
  98:Middlewares/lvgl/examples/widgets/table/../../../src/core/lv_disp.h ****  * @param disp pointer to a display
  99:Middlewares/lvgl/examples/widgets/table/../../../src/core/lv_disp.h ****  * @param color color of the background
 100:Middlewares/lvgl/examples/widgets/table/../../../src/core/lv_disp.h ****  */
 101:Middlewares/lvgl/examples/widgets/table/../../../src/core/lv_disp.h **** void lv_disp_set_bg_color(lv_disp_t * disp, lv_color_t color);
 102:Middlewares/lvgl/examples/widgets/table/../../../src/core/lv_disp.h **** 
 103:Middlewares/lvgl/examples/widgets/table/../../../src/core/lv_disp.h **** /**
 104:Middlewares/lvgl/examples/widgets/table/../../../src/core/lv_disp.h ****  * Set the background image of a display
 105:Middlewares/lvgl/examples/widgets/table/../../../src/core/lv_disp.h ****  * @param disp pointer to a display
 106:Middlewares/lvgl/examples/widgets/table/../../../src/core/lv_disp.h ****  * @param img_src path to file or pointer to an `lv_img_dsc_t` variable
 107:Middlewares/lvgl/examples/widgets/table/../../../src/core/lv_disp.h ****  */
 108:Middlewares/lvgl/examples/widgets/table/../../../src/core/lv_disp.h **** void lv_disp_set_bg_image(lv_disp_t * disp, const void  * img_src);
 109:Middlewares/lvgl/examples/widgets/table/../../../src/core/lv_disp.h **** 
 110:Middlewares/lvgl/examples/widgets/table/../../../src/core/lv_disp.h **** /**
 111:Middlewares/lvgl/examples/widgets/table/../../../src/core/lv_disp.h ****  * Opacity of the background
 112:Middlewares/lvgl/examples/widgets/table/../../../src/core/lv_disp.h ****  * @param disp pointer to a display
 113:Middlewares/lvgl/examples/widgets/table/../../../src/core/lv_disp.h ****  * @param opa opacity (0..255)
 114:Middlewares/lvgl/examples/widgets/table/../../../src/core/lv_disp.h ****  */
 115:Middlewares/lvgl/examples/widgets/table/../../../src/core/lv_disp.h **** void lv_disp_set_bg_opa(lv_disp_t * disp, lv_opa_t opa);
 116:Middlewares/lvgl/examples/widgets/table/../../../src/core/lv_disp.h **** 
 117:Middlewares/lvgl/examples/widgets/table/../../../src/core/lv_disp.h **** /**
 118:Middlewares/lvgl/examples/widgets/table/../../../src/core/lv_disp.h ****  * Switch screen with animation
 119:Middlewares/lvgl/examples/widgets/table/../../../src/core/lv_disp.h ****  * @param scr pointer to the new screen to load
 120:Middlewares/lvgl/examples/widgets/table/../../../src/core/lv_disp.h ****  * @param anim_type type of the animation from `lv_scr_load_anim_t`. E.g.  `LV_SCR_LOAD_ANIM_MOVE_L
 121:Middlewares/lvgl/examples/widgets/table/../../../src/core/lv_disp.h ****  * @param time time of the animation
 122:Middlewares/lvgl/examples/widgets/table/../../../src/core/lv_disp.h ****  * @param delay delay before the transition
 123:Middlewares/lvgl/examples/widgets/table/../../../src/core/lv_disp.h ****  * @param auto_del true: automatically delete the old screen
 124:Middlewares/lvgl/examples/widgets/table/../../../src/core/lv_disp.h ****  */
 125:Middlewares/lvgl/examples/widgets/table/../../../src/core/lv_disp.h **** void lv_scr_load_anim(lv_obj_t * scr, lv_scr_load_anim_t anim_type, uint32_t time, uint32_t delay, 
 126:Middlewares/lvgl/examples/widgets/table/../../../src/core/lv_disp.h **** 
 127:Middlewares/lvgl/examples/widgets/table/../../../src/core/lv_disp.h **** /**
 128:Middlewares/lvgl/examples/widgets/table/../../../src/core/lv_disp.h ****  * Get elapsed time since last user activity on a display (e.g. click)
 129:Middlewares/lvgl/examples/widgets/table/../../../src/core/lv_disp.h ****  * @param disp pointer to an display (NULL to get the overall smallest inactivity)
 130:Middlewares/lvgl/examples/widgets/table/../../../src/core/lv_disp.h ****  * @return elapsed ticks (milliseconds) since the last activity
 131:Middlewares/lvgl/examples/widgets/table/../../../src/core/lv_disp.h ****  */
 132:Middlewares/lvgl/examples/widgets/table/../../../src/core/lv_disp.h **** uint32_t lv_disp_get_inactive_time(const lv_disp_t * disp);
 133:Middlewares/lvgl/examples/widgets/table/../../../src/core/lv_disp.h **** 
 134:Middlewares/lvgl/examples/widgets/table/../../../src/core/lv_disp.h **** /**
 135:Middlewares/lvgl/examples/widgets/table/../../../src/core/lv_disp.h ****  * Manually trigger an activity on a display
 136:Middlewares/lvgl/examples/widgets/table/../../../src/core/lv_disp.h ****  * @param disp pointer to an display (NULL to use the default display)
 137:Middlewares/lvgl/examples/widgets/table/../../../src/core/lv_disp.h ****  */
 138:Middlewares/lvgl/examples/widgets/table/../../../src/core/lv_disp.h **** void lv_disp_trig_activity(lv_disp_t * disp);
 139:Middlewares/lvgl/examples/widgets/table/../../../src/core/lv_disp.h **** 
 140:Middlewares/lvgl/examples/widgets/table/../../../src/core/lv_disp.h **** /**
 141:Middlewares/lvgl/examples/widgets/table/../../../src/core/lv_disp.h ****  * Clean any CPU cache that is related to the display.
 142:Middlewares/lvgl/examples/widgets/table/../../../src/core/lv_disp.h ****  * @param disp pointer to an display (NULL to use the default display)
ARM GAS  /tmp/cckDkQG7.s 			page 27


 143:Middlewares/lvgl/examples/widgets/table/../../../src/core/lv_disp.h ****  */
 144:Middlewares/lvgl/examples/widgets/table/../../../src/core/lv_disp.h **** void lv_disp_clean_dcache(lv_disp_t * disp);
 145:Middlewares/lvgl/examples/widgets/table/../../../src/core/lv_disp.h **** 
 146:Middlewares/lvgl/examples/widgets/table/../../../src/core/lv_disp.h **** /**
 147:Middlewares/lvgl/examples/widgets/table/../../../src/core/lv_disp.h ****  * Get a pointer to the screen refresher timer to
 148:Middlewares/lvgl/examples/widgets/table/../../../src/core/lv_disp.h ****  * modify its parameters with `lv_timer_...` functions.
 149:Middlewares/lvgl/examples/widgets/table/../../../src/core/lv_disp.h ****  * @param disp pointer to a display
 150:Middlewares/lvgl/examples/widgets/table/../../../src/core/lv_disp.h ****  * @return pointer to the display refresher timer. (NULL on error)
 151:Middlewares/lvgl/examples/widgets/table/../../../src/core/lv_disp.h ****  */
 152:Middlewares/lvgl/examples/widgets/table/../../../src/core/lv_disp.h **** lv_timer_t * _lv_disp_get_refr_timer(lv_disp_t * disp);
 153:Middlewares/lvgl/examples/widgets/table/../../../src/core/lv_disp.h **** 
 154:Middlewares/lvgl/examples/widgets/table/../../../src/core/lv_disp.h **** /*------------------------------------------------
 155:Middlewares/lvgl/examples/widgets/table/../../../src/core/lv_disp.h ****  * To improve backward compatibility
 156:Middlewares/lvgl/examples/widgets/table/../../../src/core/lv_disp.h ****  * Recommended only if you have one display
 157:Middlewares/lvgl/examples/widgets/table/../../../src/core/lv_disp.h ****  *------------------------------------------------*/
 158:Middlewares/lvgl/examples/widgets/table/../../../src/core/lv_disp.h **** 
 159:Middlewares/lvgl/examples/widgets/table/../../../src/core/lv_disp.h **** /**
 160:Middlewares/lvgl/examples/widgets/table/../../../src/core/lv_disp.h ****  * Get the active screen of the default display
 161:Middlewares/lvgl/examples/widgets/table/../../../src/core/lv_disp.h ****  * @return pointer to the active screen
 162:Middlewares/lvgl/examples/widgets/table/../../../src/core/lv_disp.h ****  */
 163:Middlewares/lvgl/examples/widgets/table/../../../src/core/lv_disp.h **** static inline lv_obj_t * lv_scr_act(void)
 389              		.loc 4 163 26 view .LVU99
 390              	.LBB25:
 164:Middlewares/lvgl/examples/widgets/table/../../../src/core/lv_disp.h **** {
 165:Middlewares/lvgl/examples/widgets/table/../../../src/core/lv_disp.h ****     return lv_disp_get_scr_act(lv_disp_get_default());
 391              		.loc 4 165 5 view .LVU100
 392              		.loc 4 165 12 is_stmt 0 view .LVU101
 393 0010 FFF7FEFF 		bl	lv_disp_get_default
 394              	.LVL33:
 395              		.loc 4 165 12 view .LVU102
 396 0014 FFF7FEFF 		bl	lv_disp_get_scr_act
 397              	.LVL34:
 398              	.LBE25:
 399              	.LBE24:
 400              		.loc 1 63 24 view .LVU103
 401 0018 FFF7FEFF 		bl	lv_table_create
 402              	.LVL35:
 403 001c 0546     		mov	r5, r0
 404              	.LVL36:
  64:Middlewares/lvgl/examples/widgets/table/lv_example_table_2.c **** 
  65:Middlewares/lvgl/examples/widgets/table/lv_example_table_2.c ****     /*Set a smaller height to the table. It'll make it scrollable*/
  66:Middlewares/lvgl/examples/widgets/table/lv_example_table_2.c ****     lv_obj_set_size(table, LV_SIZE_CONTENT, 200);
 405              		.loc 1 66 5 is_stmt 1 view .LVU104
 406 001e C822     		movs	r2, #200
 407 0020 42F2D171 		movw	r1, #10193
 408 0024 FFF7FEFF 		bl	lv_obj_set_size
 409              	.LVL37:
  67:Middlewares/lvgl/examples/widgets/table/lv_example_table_2.c **** 
  68:Middlewares/lvgl/examples/widgets/table/lv_example_table_2.c ****     lv_table_set_col_width(table, 0, 150);
 410              		.loc 1 68 5 view .LVU105
 411 0028 9622     		movs	r2, #150
 412 002a 0021     		movs	r1, #0
 413 002c 2846     		mov	r0, r5
 414 002e FFF7FEFF 		bl	lv_table_set_col_width
 415              	.LVL38:
  69:Middlewares/lvgl/examples/widgets/table/lv_example_table_2.c ****     lv_table_set_row_cnt(table, ITEM_CNT); /*Not required but avoids a lot of memory reallocation l
 416              		.loc 1 69 5 view .LVU106
ARM GAS  /tmp/cckDkQG7.s 			page 28


 417 0032 C821     		movs	r1, #200
 418 0034 2846     		mov	r0, r5
 419 0036 FFF7FEFF 		bl	lv_table_set_row_cnt
 420              	.LVL39:
  70:Middlewares/lvgl/examples/widgets/table/lv_example_table_2.c ****     lv_table_set_col_cnt(table, 1);
 421              		.loc 1 70 5 view .LVU107
 422 003a 0121     		movs	r1, #1
 423 003c 2846     		mov	r0, r5
 424 003e FFF7FEFF 		bl	lv_table_set_col_cnt
 425              	.LVL40:
  71:Middlewares/lvgl/examples/widgets/table/lv_example_table_2.c **** 
  72:Middlewares/lvgl/examples/widgets/table/lv_example_table_2.c ****     /*Don't make the cell pressed, we will draw something different in the event*/
  73:Middlewares/lvgl/examples/widgets/table/lv_example_table_2.c ****     lv_obj_remove_style(table, NULL, LV_PART_ITEMS | LV_STATE_PRESSED);
 426              		.loc 1 73 5 view .LVU108
 427 0042 224A     		ldr	r2, .L17
 428 0044 0021     		movs	r1, #0
 429 0046 2846     		mov	r0, r5
 430 0048 FFF7FEFF 		bl	lv_obj_remove_style
 431              	.LVL41:
  74:Middlewares/lvgl/examples/widgets/table/lv_example_table_2.c **** 
  75:Middlewares/lvgl/examples/widgets/table/lv_example_table_2.c ****     uint32_t i;
 432              		.loc 1 75 5 view .LVU109
  76:Middlewares/lvgl/examples/widgets/table/lv_example_table_2.c ****     for(i = 0; i < ITEM_CNT; i++) {
 433              		.loc 1 76 5 view .LVU110
 434              		.loc 1 76 11 is_stmt 0 view .LVU111
 435 004c 0024     		movs	r4, #0
 436              		.loc 1 76 5 view .LVU112
 437 004e 07E0     		b	.L14
 438              	.LVL42:
 439              	.L15:
  77:Middlewares/lvgl/examples/widgets/table/lv_example_table_2.c ****         lv_table_set_cell_value_fmt(table, i, 0, "Item %d", i + 1);
 440              		.loc 1 77 9 is_stmt 1 discriminator 3 view .LVU113
 441 0050 A1B2     		uxth	r1, r4
 442 0052 0134     		adds	r4, r4, #1
 443              	.LVL43:
 444              		.loc 1 77 9 is_stmt 0 discriminator 3 view .LVU114
 445 0054 0094     		str	r4, [sp]
 446 0056 1E4B     		ldr	r3, .L17+4
 447 0058 0022     		movs	r2, #0
 448 005a 2846     		mov	r0, r5
 449 005c FFF7FEFF 		bl	lv_table_set_cell_value_fmt
 450              	.LVL44:
  76:Middlewares/lvgl/examples/widgets/table/lv_example_table_2.c ****     for(i = 0; i < ITEM_CNT; i++) {
 451              		.loc 1 76 30 is_stmt 1 discriminator 3 view .LVU115
 452              	.L14:
  76:Middlewares/lvgl/examples/widgets/table/lv_example_table_2.c ****     for(i = 0; i < ITEM_CNT; i++) {
 453              		.loc 1 76 16 discriminator 1 view .LVU116
  76:Middlewares/lvgl/examples/widgets/table/lv_example_table_2.c ****     for(i = 0; i < ITEM_CNT; i++) {
 454              		.loc 1 76 5 is_stmt 0 discriminator 1 view .LVU117
 455 0060 C72C     		cmp	r4, #199
 456 0062 F5D9     		bls	.L15
  78:Middlewares/lvgl/examples/widgets/table/lv_example_table_2.c ****     }
  79:Middlewares/lvgl/examples/widgets/table/lv_example_table_2.c **** 
  80:Middlewares/lvgl/examples/widgets/table/lv_example_table_2.c ****     lv_obj_align(table, LV_ALIGN_CENTER, 0, -20);
 457              		.loc 1 80 5 is_stmt 1 view .LVU118
 458 0064 6FF01303 		mvn	r3, #19
 459 0068 0022     		movs	r2, #0
ARM GAS  /tmp/cckDkQG7.s 			page 29


 460 006a 0921     		movs	r1, #9
 461 006c 2846     		mov	r0, r5
 462 006e FFF7FEFF 		bl	lv_obj_align
 463              	.LVL45:
  81:Middlewares/lvgl/examples/widgets/table/lv_example_table_2.c **** 
  82:Middlewares/lvgl/examples/widgets/table/lv_example_table_2.c ****     /*Add an event callback to to apply some custom drawing*/
  83:Middlewares/lvgl/examples/widgets/table/lv_example_table_2.c ****     lv_obj_add_event_cb(table, draw_event_cb, LV_EVENT_DRAW_PART_END, NULL);
 464              		.loc 1 83 5 view .LVU119
 465 0072 0023     		movs	r3, #0
 466 0074 1B22     		movs	r2, #27
 467 0076 1749     		ldr	r1, .L17+8
 468 0078 2846     		mov	r0, r5
 469 007a FFF7FEFF 		bl	lv_obj_add_event_cb
 470              	.LVL46:
  84:Middlewares/lvgl/examples/widgets/table/lv_example_table_2.c ****     lv_obj_add_event_cb(table, change_event_cb, LV_EVENT_VALUE_CHANGED, NULL);
 471              		.loc 1 84 5 view .LVU120
 472 007e 0023     		movs	r3, #0
 473 0080 1C22     		movs	r2, #28
 474 0082 1549     		ldr	r1, .L17+12
 475 0084 2846     		mov	r0, r5
 476 0086 FFF7FEFF 		bl	lv_obj_add_event_cb
 477              	.LVL47:
  85:Middlewares/lvgl/examples/widgets/table/lv_example_table_2.c **** 
  86:Middlewares/lvgl/examples/widgets/table/lv_example_table_2.c ****     lv_mem_monitor_t mon2;
 478              		.loc 1 86 5 view .LVU121
  87:Middlewares/lvgl/examples/widgets/table/lv_example_table_2.c ****     lv_mem_monitor(&mon2);
 479              		.loc 1 87 5 view .LVU122
 480 008a 02A8     		add	r0, sp, #8
 481 008c FFF7FEFF 		bl	lv_mem_monitor
 482              	.LVL48:
  88:Middlewares/lvgl/examples/widgets/table/lv_example_table_2.c **** 
  89:Middlewares/lvgl/examples/widgets/table/lv_example_table_2.c ****     uint32_t mem_used = mon1.free_size - mon2.free_size;
 483              		.loc 1 89 5 view .LVU123
 484              		.loc 1 89 14 is_stmt 0 view .LVU124
 485 0090 0B9E     		ldr	r6, [sp, #44]
 486 0092 049B     		ldr	r3, [sp, #16]
 487 0094 F61A     		subs	r6, r6, r3
 488              	.LVL49:
  90:Middlewares/lvgl/examples/widgets/table/lv_example_table_2.c **** 
  91:Middlewares/lvgl/examples/widgets/table/lv_example_table_2.c ****     uint32_t elaps = lv_tick_elaps(t);
 489              		.loc 1 91 5 is_stmt 1 view .LVU125
 490              		.loc 1 91 22 is_stmt 0 view .LVU126
 491 0096 3846     		mov	r0, r7
 492 0098 FFF7FEFF 		bl	lv_tick_elaps
 493              	.LVL50:
 494 009c 0546     		mov	r5, r0
 495              	.LVL51:
  92:Middlewares/lvgl/examples/widgets/table/lv_example_table_2.c **** 
  93:Middlewares/lvgl/examples/widgets/table/lv_example_table_2.c ****     lv_obj_t * label = lv_label_create(lv_scr_act());
 496              		.loc 1 93 5 is_stmt 1 view .LVU127
 497              	.LBB26:
 498              	.LBI26:
 163:Middlewares/lvgl/examples/widgets/table/../../../src/core/lv_disp.h **** {
 499              		.loc 4 163 26 view .LVU128
 500              	.LBB27:
 501              		.loc 4 165 5 view .LVU129
 502              		.loc 4 165 12 is_stmt 0 view .LVU130
ARM GAS  /tmp/cckDkQG7.s 			page 30


 503 009e FFF7FEFF 		bl	lv_disp_get_default
 504              	.LVL52:
 505              		.loc 4 165 12 view .LVU131
 506 00a2 FFF7FEFF 		bl	lv_disp_get_scr_act
 507              	.LVL53:
 508              	.LBE27:
 509              	.LBE26:
 510              		.loc 1 93 24 view .LVU132
 511 00a6 FFF7FEFF 		bl	lv_label_create
 512              	.LVL54:
 513 00aa 0446     		mov	r4, r0
 514              	.LVL55:
  94:Middlewares/lvgl/examples/widgets/table/lv_example_table_2.c ****     lv_label_set_text_fmt(label, "%d items were created in %d ms\n"
 515              		.loc 1 94 5 is_stmt 1 view .LVU133
 516 00ac 0096     		str	r6, [sp]
 517 00ae 2B46     		mov	r3, r5
 518 00b0 C822     		movs	r2, #200
 519 00b2 0A49     		ldr	r1, .L17+16
 520 00b4 FFF7FEFF 		bl	lv_label_set_text_fmt
 521              	.LVL56:
  95:Middlewares/lvgl/examples/widgets/table/lv_example_table_2.c ****                                   "using %d bytes of memory",
  96:Middlewares/lvgl/examples/widgets/table/lv_example_table_2.c ****                                   ITEM_CNT, elaps, mem_used);
  97:Middlewares/lvgl/examples/widgets/table/lv_example_table_2.c **** 
  98:Middlewares/lvgl/examples/widgets/table/lv_example_table_2.c ****     lv_obj_align(label, LV_ALIGN_BOTTOM_MID, 0, -10);
 522              		.loc 1 98 5 view .LVU134
 523 00b8 6FF00903 		mvn	r3, #9
 524 00bc 0022     		movs	r2, #0
 525 00be 0521     		movs	r1, #5
 526 00c0 2046     		mov	r0, r4
 527 00c2 FFF7FEFF 		bl	lv_obj_align
 528              	.LVL57:
  99:Middlewares/lvgl/examples/widgets/table/lv_example_table_2.c **** 
 100:Middlewares/lvgl/examples/widgets/table/lv_example_table_2.c **** }
 529              		.loc 1 100 1 is_stmt 0 view .LVU135
 530 00c6 11B0     		add	sp, sp, #68
 531              	.LCFI10:
 532              		.cfi_def_cfa_offset 20
 533              		@ sp needed
 534 00c8 F0BD     		pop	{r4, r5, r6, r7, pc}
 535              	.LVL58:
 536              	.L18:
 537              		.loc 1 100 1 view .LVU136
 538 00ca 00BF     		.align	2
 539              	.L17:
 540 00cc 20000500 		.word	327712
 541 00d0 00000000 		.word	.LC0
 542 00d4 00000000 		.word	draw_event_cb
 543 00d8 00000000 		.word	change_event_cb
 544 00dc 08000000 		.word	.LC1
 545              		.cfi_endproc
 546              	.LFE186:
 548              		.text
 549              	.Letext0:
 550              		.file 5 "/home/akinya/gcc-arm-none-eabi/arm-none-eabi/include/machine/_default_types.h"
 551              		.file 6 "/home/akinya/gcc-arm-none-eabi/arm-none-eabi/include/sys/_stdint.h"
 552              		.file 7 "Middlewares/lvgl/examples/widgets/table/../../../src/misc/lv_mem.h"
 553              		.file 8 "Middlewares/lvgl/examples/widgets/table/../../../src/misc/lv_ll.h"
ARM GAS  /tmp/cckDkQG7.s 			page 31


 554              		.file 9 "Middlewares/lvgl/examples/widgets/table/../../../src/core/lv_obj.h"
 555              		.file 10 "Middlewares/lvgl/examples/widgets/table/../../../src/core/lv_group.h"
 556              		.file 11 "Middlewares/lvgl/examples/widgets/table/../../../src/core/../misc/../font/lv_font.h"
 557              		.file 12 "Middlewares/lvgl/examples/widgets/table/../../../src/core/../misc/lv_txt.h"
 558              		.file 13 "Middlewares/lvgl/examples/widgets/table/../../../src/core/../misc/lv_bidi.h"
 559              		.file 14 "Middlewares/lvgl/examples/widgets/table/../../../src/core/../misc/lv_style.h"
 560              		.file 15 "Middlewares/lvgl/examples/widgets/table/../../../src/core/lv_obj_scroll.h"
 561              		.file 16 "Middlewares/lvgl/examples/widgets/table/../../../src/core/lv_obj_style.h"
 562              		.file 17 "Middlewares/lvgl/examples/widgets/table/../../../src/core/../draw/lv_draw_rect.h"
 563              		.file 18 "Middlewares/lvgl/examples/widgets/table/../../../src/core/../draw/lv_draw_label.h"
 564              		.file 19 "Middlewares/lvgl/examples/widgets/table/../../../src/core/../draw/lv_draw_img.h"
 565              		.file 20 "Middlewares/lvgl/examples/widgets/table/../../../src/core/../draw/lv_draw_line.h"
 566              		.file 21 "Middlewares/lvgl/examples/widgets/table/../../../src/core/../draw/lv_draw_arc.h"
 567              		.file 22 "Middlewares/lvgl/examples/widgets/table/../../../src/core/lv_obj_draw.h"
 568              		.file 23 "Middlewares/lvgl/examples/widgets/table/../../../src/core/lv_obj_class.h"
 569              		.file 24 "Middlewares/lvgl/examples/widgets/table/../../../src/core/lv_event.h"
 570              		.file 25 "Middlewares/lvgl/examples/widgets/table/../../../src/widgets/lv_table.h"
 571              		.file 26 "Middlewares/lvgl/examples/widgets/table/../../../src/hal/lv_hal_disp.h"
 572              		.file 27 "Middlewares/lvgl/examples/widgets/table/../../../src/hal/lv_hal_tick.h"
 573              		.file 28 "Middlewares/lvgl/examples/widgets/table/../../../src/core/lv_obj_pos.h"
 574              		.file 29 "Middlewares/lvgl/examples/widgets/table/../../../src/widgets/lv_label.h"
 575              		.file 30 "Middlewares/lvgl/examples/widgets/table/../../../src/core/lv_theme.h"
ARM GAS  /tmp/cckDkQG7.s 			page 32

