ARM GAS  /tmp/cc5jorJA.s 			page 1


   1              		.cpu cortex-m4
   2              		.eabi_attribute 27, 1
   3              		.eabi_attribute 28, 1
   4              		.eabi_attribute 20, 1
   5              		.eabi_attribute 21, 1
   6              		.eabi_attribute 23, 3
   7              		.eabi_attribute 24, 1
   8              		.eabi_attribute 25, 1
   9              		.eabi_attribute 26, 1
  10              		.eabi_attribute 30, 1
  11              		.eabi_attribute 34, 1
  12              		.eabi_attribute 18, 4
  13              		.file	"lv_example_calendar_1.c"
  14              		.text
  15              	.Ltext0:
  16              		.cfi_sections	.debug_frame
  17              		.section	.text.event_handler,"ax",%progbits
  18              		.align	1
  19              		.arch armv7e-m
  20              		.syntax unified
  21              		.thumb
  22              		.thumb_func
  23              		.fpu fpv4-sp-d16
  25              	event_handler:
  26              	.LVL0:
  27              	.LFB184:
  28              		.file 1 "Middlewares/lvgl/examples/widgets/calendar/lv_example_calendar_1.c"
   1:Middlewares/lvgl/examples/widgets/calendar/lv_example_calendar_1.c **** #include "../../lv_examples.h"
   2:Middlewares/lvgl/examples/widgets/calendar/lv_example_calendar_1.c **** #if LV_USE_CALENDAR && LV_BUILD_EXAMPLES
   3:Middlewares/lvgl/examples/widgets/calendar/lv_example_calendar_1.c **** 
   4:Middlewares/lvgl/examples/widgets/calendar/lv_example_calendar_1.c **** static void event_handler(lv_event_t * e)
   5:Middlewares/lvgl/examples/widgets/calendar/lv_example_calendar_1.c **** {
  29              		.loc 1 5 1 view -0
  30              		.cfi_startproc
  31              		@ args = 0, pretend = 0, frame = 8
  32              		@ frame_needed = 0, uses_anonymous_args = 0
  33              		.loc 1 5 1 is_stmt 0 view .LVU1
  34 0000 30B5     		push	{r4, r5, lr}
  35              	.LCFI0:
  36              		.cfi_def_cfa_offset 12
  37              		.cfi_offset 4, -12
  38              		.cfi_offset 5, -8
  39              		.cfi_offset 14, -4
  40 0002 83B0     		sub	sp, sp, #12
  41              	.LCFI1:
  42              		.cfi_def_cfa_offset 24
  43 0004 0546     		mov	r5, r0
   6:Middlewares/lvgl/examples/widgets/calendar/lv_example_calendar_1.c ****     lv_event_code_t code = lv_event_get_code(e);
  44              		.loc 1 6 5 is_stmt 1 view .LVU2
  45              		.loc 1 6 28 is_stmt 0 view .LVU3
  46 0006 FFF7FEFF 		bl	lv_event_get_code
  47              	.LVL1:
  48              		.loc 1 6 28 view .LVU4
  49 000a 0446     		mov	r4, r0
  50              	.LVL2:
   7:Middlewares/lvgl/examples/widgets/calendar/lv_example_calendar_1.c ****     lv_obj_t * obj = lv_event_get_target(e);
  51              		.loc 1 7 5 is_stmt 1 view .LVU5
ARM GAS  /tmp/cc5jorJA.s 			page 2


  52              		.loc 1 7 22 is_stmt 0 view .LVU6
  53 000c 2846     		mov	r0, r5
  54 000e FFF7FEFF 		bl	lv_event_get_target
  55              	.LVL3:
   8:Middlewares/lvgl/examples/widgets/calendar/lv_example_calendar_1.c **** 
   9:Middlewares/lvgl/examples/widgets/calendar/lv_example_calendar_1.c ****     if(code == LV_EVENT_VALUE_CHANGED) {
  56              		.loc 1 9 5 is_stmt 1 view .LVU7
  57              		.loc 1 9 7 is_stmt 0 view .LVU8
  58 0012 1C2C     		cmp	r4, #28
  59 0014 01D0     		beq	.L4
  60              	.LVL4:
  61              	.L1:
  10:Middlewares/lvgl/examples/widgets/calendar/lv_example_calendar_1.c ****         lv_calendar_date_t date;
  11:Middlewares/lvgl/examples/widgets/calendar/lv_example_calendar_1.c ****         if(lv_calendar_get_pressed_date(obj, &date)) {
  12:Middlewares/lvgl/examples/widgets/calendar/lv_example_calendar_1.c ****             LV_LOG_USER("Clicked date: %02d.%02d.%d", date.day, date.month, date.year);
  13:Middlewares/lvgl/examples/widgets/calendar/lv_example_calendar_1.c ****         }
  14:Middlewares/lvgl/examples/widgets/calendar/lv_example_calendar_1.c ****     }
  15:Middlewares/lvgl/examples/widgets/calendar/lv_example_calendar_1.c **** }
  62              		.loc 1 15 1 view .LVU9
  63 0016 03B0     		add	sp, sp, #12
  64              	.LCFI2:
  65              		.cfi_remember_state
  66              		.cfi_def_cfa_offset 12
  67              		@ sp needed
  68 0018 30BD     		pop	{r4, r5, pc}
  69              	.LVL5:
  70              	.L4:
  71              	.LCFI3:
  72              		.cfi_restore_state
  73              	.LBB2:
  10:Middlewares/lvgl/examples/widgets/calendar/lv_example_calendar_1.c ****         lv_calendar_date_t date;
  74              		.loc 1 10 9 is_stmt 1 view .LVU10
  11:Middlewares/lvgl/examples/widgets/calendar/lv_example_calendar_1.c ****             LV_LOG_USER("Clicked date: %02d.%02d.%d", date.day, date.month, date.year);
  75              		.loc 1 11 9 view .LVU11
  11:Middlewares/lvgl/examples/widgets/calendar/lv_example_calendar_1.c ****             LV_LOG_USER("Clicked date: %02d.%02d.%d", date.day, date.month, date.year);
  76              		.loc 1 11 12 is_stmt 0 view .LVU12
  77 001a 01A9     		add	r1, sp, #4
  78 001c FFF7FEFF 		bl	lv_calendar_get_pressed_date
  79              	.LVL6:
  12:Middlewares/lvgl/examples/widgets/calendar/lv_example_calendar_1.c ****         }
  80              		.loc 1 12 87 is_stmt 1 view .LVU13
  81              	.LBE2:
  82              		.loc 1 15 1 is_stmt 0 view .LVU14
  83 0020 F9E7     		b	.L1
  84              		.cfi_endproc
  85              	.LFE184:
  87              		.section	.text.lv_example_calendar_1,"ax",%progbits
  88              		.align	1
  89              		.global	lv_example_calendar_1
  90              		.syntax unified
  91              		.thumb
  92              		.thumb_func
  93              		.fpu fpv4-sp-d16
  95              	lv_example_calendar_1:
  96              	.LFB185:
  16:Middlewares/lvgl/examples/widgets/calendar/lv_example_calendar_1.c **** 
  17:Middlewares/lvgl/examples/widgets/calendar/lv_example_calendar_1.c **** void lv_example_calendar_1(void)
ARM GAS  /tmp/cc5jorJA.s 			page 3


  18:Middlewares/lvgl/examples/widgets/calendar/lv_example_calendar_1.c **** {
  97              		.loc 1 18 1 is_stmt 1 view -0
  98              		.cfi_startproc
  99              		@ args = 0, pretend = 0, frame = 0
 100              		@ frame_needed = 0, uses_anonymous_args = 0
 101 0000 10B5     		push	{r4, lr}
 102              	.LCFI4:
 103              		.cfi_def_cfa_offset 8
 104              		.cfi_offset 4, -8
 105              		.cfi_offset 14, -4
  19:Middlewares/lvgl/examples/widgets/calendar/lv_example_calendar_1.c ****     lv_obj_t  * calendar = lv_calendar_create(lv_scr_act());
 106              		.loc 1 19 5 view .LVU16
 107              	.LBB7:
 108              	.LBI7:
 109              		.file 2 "Middlewares/lvgl/examples/widgets/calendar/../../../src/core/lv_disp.h"
   1:Middlewares/lvgl/examples/widgets/calendar/../../../src/core/lv_disp.h **** /**
   2:Middlewares/lvgl/examples/widgets/calendar/../../../src/core/lv_disp.h ****  * @file lv_disp.h
   3:Middlewares/lvgl/examples/widgets/calendar/../../../src/core/lv_disp.h ****  *
   4:Middlewares/lvgl/examples/widgets/calendar/../../../src/core/lv_disp.h ****  */
   5:Middlewares/lvgl/examples/widgets/calendar/../../../src/core/lv_disp.h **** 
   6:Middlewares/lvgl/examples/widgets/calendar/../../../src/core/lv_disp.h **** #ifndef LV_DISP_H
   7:Middlewares/lvgl/examples/widgets/calendar/../../../src/core/lv_disp.h **** #define LV_DISP_H
   8:Middlewares/lvgl/examples/widgets/calendar/../../../src/core/lv_disp.h **** 
   9:Middlewares/lvgl/examples/widgets/calendar/../../../src/core/lv_disp.h **** #ifdef __cplusplus
  10:Middlewares/lvgl/examples/widgets/calendar/../../../src/core/lv_disp.h **** extern "C" {
  11:Middlewares/lvgl/examples/widgets/calendar/../../../src/core/lv_disp.h **** #endif
  12:Middlewares/lvgl/examples/widgets/calendar/../../../src/core/lv_disp.h **** 
  13:Middlewares/lvgl/examples/widgets/calendar/../../../src/core/lv_disp.h **** /*********************
  14:Middlewares/lvgl/examples/widgets/calendar/../../../src/core/lv_disp.h ****  *      INCLUDES
  15:Middlewares/lvgl/examples/widgets/calendar/../../../src/core/lv_disp.h ****  *********************/
  16:Middlewares/lvgl/examples/widgets/calendar/../../../src/core/lv_disp.h **** #include "../hal/lv_hal.h"
  17:Middlewares/lvgl/examples/widgets/calendar/../../../src/core/lv_disp.h **** #include "lv_obj.h"
  18:Middlewares/lvgl/examples/widgets/calendar/../../../src/core/lv_disp.h **** #include "lv_theme.h"
  19:Middlewares/lvgl/examples/widgets/calendar/../../../src/core/lv_disp.h **** 
  20:Middlewares/lvgl/examples/widgets/calendar/../../../src/core/lv_disp.h **** /*********************
  21:Middlewares/lvgl/examples/widgets/calendar/../../../src/core/lv_disp.h ****  *      DEFINES
  22:Middlewares/lvgl/examples/widgets/calendar/../../../src/core/lv_disp.h ****  *********************/
  23:Middlewares/lvgl/examples/widgets/calendar/../../../src/core/lv_disp.h **** 
  24:Middlewares/lvgl/examples/widgets/calendar/../../../src/core/lv_disp.h **** /**********************
  25:Middlewares/lvgl/examples/widgets/calendar/../../../src/core/lv_disp.h ****  *      TYPEDEFS
  26:Middlewares/lvgl/examples/widgets/calendar/../../../src/core/lv_disp.h ****  **********************/
  27:Middlewares/lvgl/examples/widgets/calendar/../../../src/core/lv_disp.h **** 
  28:Middlewares/lvgl/examples/widgets/calendar/../../../src/core/lv_disp.h **** typedef enum {
  29:Middlewares/lvgl/examples/widgets/calendar/../../../src/core/lv_disp.h ****     LV_SCR_LOAD_ANIM_NONE,
  30:Middlewares/lvgl/examples/widgets/calendar/../../../src/core/lv_disp.h ****     LV_SCR_LOAD_ANIM_OVER_LEFT,
  31:Middlewares/lvgl/examples/widgets/calendar/../../../src/core/lv_disp.h ****     LV_SCR_LOAD_ANIM_OVER_RIGHT,
  32:Middlewares/lvgl/examples/widgets/calendar/../../../src/core/lv_disp.h ****     LV_SCR_LOAD_ANIM_OVER_TOP,
  33:Middlewares/lvgl/examples/widgets/calendar/../../../src/core/lv_disp.h ****     LV_SCR_LOAD_ANIM_OVER_BOTTOM,
  34:Middlewares/lvgl/examples/widgets/calendar/../../../src/core/lv_disp.h ****     LV_SCR_LOAD_ANIM_MOVE_LEFT,
  35:Middlewares/lvgl/examples/widgets/calendar/../../../src/core/lv_disp.h ****     LV_SCR_LOAD_ANIM_MOVE_RIGHT,
  36:Middlewares/lvgl/examples/widgets/calendar/../../../src/core/lv_disp.h ****     LV_SCR_LOAD_ANIM_MOVE_TOP,
  37:Middlewares/lvgl/examples/widgets/calendar/../../../src/core/lv_disp.h ****     LV_SCR_LOAD_ANIM_MOVE_BOTTOM,
  38:Middlewares/lvgl/examples/widgets/calendar/../../../src/core/lv_disp.h ****     LV_SCR_LOAD_ANIM_FADE_ON,
  39:Middlewares/lvgl/examples/widgets/calendar/../../../src/core/lv_disp.h **** } lv_scr_load_anim_t;
  40:Middlewares/lvgl/examples/widgets/calendar/../../../src/core/lv_disp.h **** 
  41:Middlewares/lvgl/examples/widgets/calendar/../../../src/core/lv_disp.h **** /**********************
  42:Middlewares/lvgl/examples/widgets/calendar/../../../src/core/lv_disp.h ****  * GLOBAL PROTOTYPES
ARM GAS  /tmp/cc5jorJA.s 			page 4


  43:Middlewares/lvgl/examples/widgets/calendar/../../../src/core/lv_disp.h ****  **********************/
  44:Middlewares/lvgl/examples/widgets/calendar/../../../src/core/lv_disp.h **** 
  45:Middlewares/lvgl/examples/widgets/calendar/../../../src/core/lv_disp.h **** /**
  46:Middlewares/lvgl/examples/widgets/calendar/../../../src/core/lv_disp.h ****  * Return with a pointer to the active screen
  47:Middlewares/lvgl/examples/widgets/calendar/../../../src/core/lv_disp.h ****  * @param disp pointer to display which active screen should be get. (NULL to use the default
  48:Middlewares/lvgl/examples/widgets/calendar/../../../src/core/lv_disp.h ****  * screen)
  49:Middlewares/lvgl/examples/widgets/calendar/../../../src/core/lv_disp.h ****  * @return pointer to the active screen object (loaded by 'lv_scr_load()')
  50:Middlewares/lvgl/examples/widgets/calendar/../../../src/core/lv_disp.h ****  */
  51:Middlewares/lvgl/examples/widgets/calendar/../../../src/core/lv_disp.h **** lv_obj_t * lv_disp_get_scr_act(lv_disp_t * disp);
  52:Middlewares/lvgl/examples/widgets/calendar/../../../src/core/lv_disp.h **** 
  53:Middlewares/lvgl/examples/widgets/calendar/../../../src/core/lv_disp.h **** /**
  54:Middlewares/lvgl/examples/widgets/calendar/../../../src/core/lv_disp.h ****  * Return with a pointer to the previous screen. Only used during screen transitions.
  55:Middlewares/lvgl/examples/widgets/calendar/../../../src/core/lv_disp.h ****  * @param disp pointer to display which previous screen should be get. (NULL to use the default
  56:Middlewares/lvgl/examples/widgets/calendar/../../../src/core/lv_disp.h ****  * screen)
  57:Middlewares/lvgl/examples/widgets/calendar/../../../src/core/lv_disp.h ****  * @return pointer to the previous screen object or NULL if not used now
  58:Middlewares/lvgl/examples/widgets/calendar/../../../src/core/lv_disp.h ****  */
  59:Middlewares/lvgl/examples/widgets/calendar/../../../src/core/lv_disp.h **** lv_obj_t * lv_disp_get_scr_prev(lv_disp_t * disp);
  60:Middlewares/lvgl/examples/widgets/calendar/../../../src/core/lv_disp.h **** 
  61:Middlewares/lvgl/examples/widgets/calendar/../../../src/core/lv_disp.h **** /**
  62:Middlewares/lvgl/examples/widgets/calendar/../../../src/core/lv_disp.h ****  * Make a screen active
  63:Middlewares/lvgl/examples/widgets/calendar/../../../src/core/lv_disp.h ****  * @param scr pointer to a screen
  64:Middlewares/lvgl/examples/widgets/calendar/../../../src/core/lv_disp.h ****  */
  65:Middlewares/lvgl/examples/widgets/calendar/../../../src/core/lv_disp.h **** void lv_disp_load_scr(lv_obj_t * scr);
  66:Middlewares/lvgl/examples/widgets/calendar/../../../src/core/lv_disp.h **** 
  67:Middlewares/lvgl/examples/widgets/calendar/../../../src/core/lv_disp.h **** /**
  68:Middlewares/lvgl/examples/widgets/calendar/../../../src/core/lv_disp.h ****  * Return with the top layer. (Same on every screen and it is above the normal screen layer)
  69:Middlewares/lvgl/examples/widgets/calendar/../../../src/core/lv_disp.h ****  * @param disp pointer to display which top layer should be get. (NULL to use the default screen)
  70:Middlewares/lvgl/examples/widgets/calendar/../../../src/core/lv_disp.h ****  * @return pointer to the top layer object  (transparent screen sized lv_obj)
  71:Middlewares/lvgl/examples/widgets/calendar/../../../src/core/lv_disp.h ****  */
  72:Middlewares/lvgl/examples/widgets/calendar/../../../src/core/lv_disp.h **** lv_obj_t * lv_disp_get_layer_top(lv_disp_t * disp);
  73:Middlewares/lvgl/examples/widgets/calendar/../../../src/core/lv_disp.h **** 
  74:Middlewares/lvgl/examples/widgets/calendar/../../../src/core/lv_disp.h **** /**
  75:Middlewares/lvgl/examples/widgets/calendar/../../../src/core/lv_disp.h ****  * Return with the sys. layer. (Same on every screen and it is above the normal screen and the top
  76:Middlewares/lvgl/examples/widgets/calendar/../../../src/core/lv_disp.h ****  * layer)
  77:Middlewares/lvgl/examples/widgets/calendar/../../../src/core/lv_disp.h ****  * @param disp pointer to display which sys. layer  should be get. (NULL to use the default screen)
  78:Middlewares/lvgl/examples/widgets/calendar/../../../src/core/lv_disp.h ****  * @return pointer to the sys layer object  (transparent screen sized lv_obj)
  79:Middlewares/lvgl/examples/widgets/calendar/../../../src/core/lv_disp.h ****  */
  80:Middlewares/lvgl/examples/widgets/calendar/../../../src/core/lv_disp.h **** lv_obj_t * lv_disp_get_layer_sys(lv_disp_t * disp);
  81:Middlewares/lvgl/examples/widgets/calendar/../../../src/core/lv_disp.h **** 
  82:Middlewares/lvgl/examples/widgets/calendar/../../../src/core/lv_disp.h **** /**
  83:Middlewares/lvgl/examples/widgets/calendar/../../../src/core/lv_disp.h ****  * Get the theme of a display
  84:Middlewares/lvgl/examples/widgets/calendar/../../../src/core/lv_disp.h ****  * @param disp pointer to a display
  85:Middlewares/lvgl/examples/widgets/calendar/../../../src/core/lv_disp.h ****  * @return the display's theme (can be NULL)
  86:Middlewares/lvgl/examples/widgets/calendar/../../../src/core/lv_disp.h ****  */
  87:Middlewares/lvgl/examples/widgets/calendar/../../../src/core/lv_disp.h **** void lv_disp_set_theme(lv_disp_t * disp, lv_theme_t * th);
  88:Middlewares/lvgl/examples/widgets/calendar/../../../src/core/lv_disp.h **** 
  89:Middlewares/lvgl/examples/widgets/calendar/../../../src/core/lv_disp.h **** /**
  90:Middlewares/lvgl/examples/widgets/calendar/../../../src/core/lv_disp.h ****  * Get the theme of a display
  91:Middlewares/lvgl/examples/widgets/calendar/../../../src/core/lv_disp.h ****  * @param disp pointer to a display
  92:Middlewares/lvgl/examples/widgets/calendar/../../../src/core/lv_disp.h ****  * @return the display's theme (can be NULL)
  93:Middlewares/lvgl/examples/widgets/calendar/../../../src/core/lv_disp.h ****  */
  94:Middlewares/lvgl/examples/widgets/calendar/../../../src/core/lv_disp.h **** lv_theme_t * lv_disp_get_theme(lv_disp_t * disp);
  95:Middlewares/lvgl/examples/widgets/calendar/../../../src/core/lv_disp.h **** 
  96:Middlewares/lvgl/examples/widgets/calendar/../../../src/core/lv_disp.h **** /**
  97:Middlewares/lvgl/examples/widgets/calendar/../../../src/core/lv_disp.h ****  * Set the background color of a display
  98:Middlewares/lvgl/examples/widgets/calendar/../../../src/core/lv_disp.h ****  * @param disp pointer to a display
  99:Middlewares/lvgl/examples/widgets/calendar/../../../src/core/lv_disp.h ****  * @param color color of the background
ARM GAS  /tmp/cc5jorJA.s 			page 5


 100:Middlewares/lvgl/examples/widgets/calendar/../../../src/core/lv_disp.h ****  */
 101:Middlewares/lvgl/examples/widgets/calendar/../../../src/core/lv_disp.h **** void lv_disp_set_bg_color(lv_disp_t * disp, lv_color_t color);
 102:Middlewares/lvgl/examples/widgets/calendar/../../../src/core/lv_disp.h **** 
 103:Middlewares/lvgl/examples/widgets/calendar/../../../src/core/lv_disp.h **** /**
 104:Middlewares/lvgl/examples/widgets/calendar/../../../src/core/lv_disp.h ****  * Set the background image of a display
 105:Middlewares/lvgl/examples/widgets/calendar/../../../src/core/lv_disp.h ****  * @param disp pointer to a display
 106:Middlewares/lvgl/examples/widgets/calendar/../../../src/core/lv_disp.h ****  * @param img_src path to file or pointer to an `lv_img_dsc_t` variable
 107:Middlewares/lvgl/examples/widgets/calendar/../../../src/core/lv_disp.h ****  */
 108:Middlewares/lvgl/examples/widgets/calendar/../../../src/core/lv_disp.h **** void lv_disp_set_bg_image(lv_disp_t * disp, const void  * img_src);
 109:Middlewares/lvgl/examples/widgets/calendar/../../../src/core/lv_disp.h **** 
 110:Middlewares/lvgl/examples/widgets/calendar/../../../src/core/lv_disp.h **** /**
 111:Middlewares/lvgl/examples/widgets/calendar/../../../src/core/lv_disp.h ****  * Opacity of the background
 112:Middlewares/lvgl/examples/widgets/calendar/../../../src/core/lv_disp.h ****  * @param disp pointer to a display
 113:Middlewares/lvgl/examples/widgets/calendar/../../../src/core/lv_disp.h ****  * @param opa opacity (0..255)
 114:Middlewares/lvgl/examples/widgets/calendar/../../../src/core/lv_disp.h ****  */
 115:Middlewares/lvgl/examples/widgets/calendar/../../../src/core/lv_disp.h **** void lv_disp_set_bg_opa(lv_disp_t * disp, lv_opa_t opa);
 116:Middlewares/lvgl/examples/widgets/calendar/../../../src/core/lv_disp.h **** 
 117:Middlewares/lvgl/examples/widgets/calendar/../../../src/core/lv_disp.h **** /**
 118:Middlewares/lvgl/examples/widgets/calendar/../../../src/core/lv_disp.h ****  * Switch screen with animation
 119:Middlewares/lvgl/examples/widgets/calendar/../../../src/core/lv_disp.h ****  * @param scr pointer to the new screen to load
 120:Middlewares/lvgl/examples/widgets/calendar/../../../src/core/lv_disp.h ****  * @param anim_type type of the animation from `lv_scr_load_anim_t`. E.g.  `LV_SCR_LOAD_ANIM_MOVE_L
 121:Middlewares/lvgl/examples/widgets/calendar/../../../src/core/lv_disp.h ****  * @param time time of the animation
 122:Middlewares/lvgl/examples/widgets/calendar/../../../src/core/lv_disp.h ****  * @param delay delay before the transition
 123:Middlewares/lvgl/examples/widgets/calendar/../../../src/core/lv_disp.h ****  * @param auto_del true: automatically delete the old screen
 124:Middlewares/lvgl/examples/widgets/calendar/../../../src/core/lv_disp.h ****  */
 125:Middlewares/lvgl/examples/widgets/calendar/../../../src/core/lv_disp.h **** void lv_scr_load_anim(lv_obj_t * scr, lv_scr_load_anim_t anim_type, uint32_t time, uint32_t delay, 
 126:Middlewares/lvgl/examples/widgets/calendar/../../../src/core/lv_disp.h **** 
 127:Middlewares/lvgl/examples/widgets/calendar/../../../src/core/lv_disp.h **** /**
 128:Middlewares/lvgl/examples/widgets/calendar/../../../src/core/lv_disp.h ****  * Get elapsed time since last user activity on a display (e.g. click)
 129:Middlewares/lvgl/examples/widgets/calendar/../../../src/core/lv_disp.h ****  * @param disp pointer to an display (NULL to get the overall smallest inactivity)
 130:Middlewares/lvgl/examples/widgets/calendar/../../../src/core/lv_disp.h ****  * @return elapsed ticks (milliseconds) since the last activity
 131:Middlewares/lvgl/examples/widgets/calendar/../../../src/core/lv_disp.h ****  */
 132:Middlewares/lvgl/examples/widgets/calendar/../../../src/core/lv_disp.h **** uint32_t lv_disp_get_inactive_time(const lv_disp_t * disp);
 133:Middlewares/lvgl/examples/widgets/calendar/../../../src/core/lv_disp.h **** 
 134:Middlewares/lvgl/examples/widgets/calendar/../../../src/core/lv_disp.h **** /**
 135:Middlewares/lvgl/examples/widgets/calendar/../../../src/core/lv_disp.h ****  * Manually trigger an activity on a display
 136:Middlewares/lvgl/examples/widgets/calendar/../../../src/core/lv_disp.h ****  * @param disp pointer to an display (NULL to use the default display)
 137:Middlewares/lvgl/examples/widgets/calendar/../../../src/core/lv_disp.h ****  */
 138:Middlewares/lvgl/examples/widgets/calendar/../../../src/core/lv_disp.h **** void lv_disp_trig_activity(lv_disp_t * disp);
 139:Middlewares/lvgl/examples/widgets/calendar/../../../src/core/lv_disp.h **** 
 140:Middlewares/lvgl/examples/widgets/calendar/../../../src/core/lv_disp.h **** /**
 141:Middlewares/lvgl/examples/widgets/calendar/../../../src/core/lv_disp.h ****  * Clean any CPU cache that is related to the display.
 142:Middlewares/lvgl/examples/widgets/calendar/../../../src/core/lv_disp.h ****  * @param disp pointer to an display (NULL to use the default display)
 143:Middlewares/lvgl/examples/widgets/calendar/../../../src/core/lv_disp.h ****  */
 144:Middlewares/lvgl/examples/widgets/calendar/../../../src/core/lv_disp.h **** void lv_disp_clean_dcache(lv_disp_t * disp);
 145:Middlewares/lvgl/examples/widgets/calendar/../../../src/core/lv_disp.h **** 
 146:Middlewares/lvgl/examples/widgets/calendar/../../../src/core/lv_disp.h **** /**
 147:Middlewares/lvgl/examples/widgets/calendar/../../../src/core/lv_disp.h ****  * Get a pointer to the screen refresher timer to
 148:Middlewares/lvgl/examples/widgets/calendar/../../../src/core/lv_disp.h ****  * modify its parameters with `lv_timer_...` functions.
 149:Middlewares/lvgl/examples/widgets/calendar/../../../src/core/lv_disp.h ****  * @param disp pointer to a display
 150:Middlewares/lvgl/examples/widgets/calendar/../../../src/core/lv_disp.h ****  * @return pointer to the display refresher timer. (NULL on error)
 151:Middlewares/lvgl/examples/widgets/calendar/../../../src/core/lv_disp.h ****  */
 152:Middlewares/lvgl/examples/widgets/calendar/../../../src/core/lv_disp.h **** lv_timer_t * _lv_disp_get_refr_timer(lv_disp_t * disp);
 153:Middlewares/lvgl/examples/widgets/calendar/../../../src/core/lv_disp.h **** 
 154:Middlewares/lvgl/examples/widgets/calendar/../../../src/core/lv_disp.h **** /*------------------------------------------------
 155:Middlewares/lvgl/examples/widgets/calendar/../../../src/core/lv_disp.h ****  * To improve backward compatibility
 156:Middlewares/lvgl/examples/widgets/calendar/../../../src/core/lv_disp.h ****  * Recommended only if you have one display
ARM GAS  /tmp/cc5jorJA.s 			page 6


 157:Middlewares/lvgl/examples/widgets/calendar/../../../src/core/lv_disp.h ****  *------------------------------------------------*/
 158:Middlewares/lvgl/examples/widgets/calendar/../../../src/core/lv_disp.h **** 
 159:Middlewares/lvgl/examples/widgets/calendar/../../../src/core/lv_disp.h **** /**
 160:Middlewares/lvgl/examples/widgets/calendar/../../../src/core/lv_disp.h ****  * Get the active screen of the default display
 161:Middlewares/lvgl/examples/widgets/calendar/../../../src/core/lv_disp.h ****  * @return pointer to the active screen
 162:Middlewares/lvgl/examples/widgets/calendar/../../../src/core/lv_disp.h ****  */
 163:Middlewares/lvgl/examples/widgets/calendar/../../../src/core/lv_disp.h **** static inline lv_obj_t * lv_scr_act(void)
 110              		.loc 2 163 26 view .LVU17
 111              	.LBB8:
 164:Middlewares/lvgl/examples/widgets/calendar/../../../src/core/lv_disp.h **** {
 165:Middlewares/lvgl/examples/widgets/calendar/../../../src/core/lv_disp.h ****     return lv_disp_get_scr_act(lv_disp_get_default());
 112              		.loc 2 165 5 view .LVU18
 113              		.loc 2 165 12 is_stmt 0 view .LVU19
 114 0002 FFF7FEFF 		bl	lv_disp_get_default
 115              	.LVL7:
 116 0006 FFF7FEFF 		bl	lv_disp_get_scr_act
 117              	.LVL8:
 118              	.LBE8:
 119              	.LBE7:
 120              		.loc 1 19 28 view .LVU20
 121 000a FFF7FEFF 		bl	lv_calendar_create
 122              	.LVL9:
 123 000e 0446     		mov	r4, r0
 124              	.LVL10:
  20:Middlewares/lvgl/examples/widgets/calendar/lv_example_calendar_1.c ****     lv_obj_set_size(calendar, 185, 185);
 125              		.loc 1 20 5 is_stmt 1 view .LVU21
 126 0010 B922     		movs	r2, #185
 127 0012 1146     		mov	r1, r2
 128 0014 FFF7FEFF 		bl	lv_obj_set_size
 129              	.LVL11:
  21:Middlewares/lvgl/examples/widgets/calendar/lv_example_calendar_1.c ****     lv_obj_align(calendar, LV_ALIGN_CENTER, 0, 27);
 130              		.loc 1 21 5 view .LVU22
 131 0018 1B23     		movs	r3, #27
 132 001a 0022     		movs	r2, #0
 133 001c 0921     		movs	r1, #9
 134 001e 2046     		mov	r0, r4
 135 0020 FFF7FEFF 		bl	lv_obj_align
 136              	.LVL12:
  22:Middlewares/lvgl/examples/widgets/calendar/lv_example_calendar_1.c ****     lv_obj_add_event_cb(calendar, event_handler, LV_EVENT_ALL, NULL);
 137              		.loc 1 22 5 view .LVU23
 138 0024 0023     		movs	r3, #0
 139 0026 1A46     		mov	r2, r3
 140 0028 1749     		ldr	r1, .L7
 141 002a 2046     		mov	r0, r4
 142 002c FFF7FEFF 		bl	lv_obj_add_event_cb
 143              	.LVL13:
  23:Middlewares/lvgl/examples/widgets/calendar/lv_example_calendar_1.c **** 
  24:Middlewares/lvgl/examples/widgets/calendar/lv_example_calendar_1.c ****     lv_calendar_set_today_date(calendar, 2021, 02, 23);
 144              		.loc 1 24 5 view .LVU24
 145 0030 1723     		movs	r3, #23
 146 0032 0222     		movs	r2, #2
 147 0034 40F2E571 		movw	r1, #2021
 148 0038 2046     		mov	r0, r4
 149 003a FFF7FEFF 		bl	lv_calendar_set_today_date
 150              	.LVL14:
  25:Middlewares/lvgl/examples/widgets/calendar/lv_example_calendar_1.c ****     lv_calendar_set_showed_date(calendar, 2021, 02);
 151              		.loc 1 25 5 view .LVU25
ARM GAS  /tmp/cc5jorJA.s 			page 7


 152 003e 0222     		movs	r2, #2
 153 0040 40F2E571 		movw	r1, #2021
 154 0044 2046     		mov	r0, r4
 155 0046 FFF7FEFF 		bl	lv_calendar_set_showed_date
 156              	.LVL15:
  26:Middlewares/lvgl/examples/widgets/calendar/lv_example_calendar_1.c **** 
  27:Middlewares/lvgl/examples/widgets/calendar/lv_example_calendar_1.c ****     /*Highlight a few days*/
  28:Middlewares/lvgl/examples/widgets/calendar/lv_example_calendar_1.c ****     static lv_calendar_date_t highlighted_days[3];       /*Only its pointer will be saved so should
 157              		.loc 1 28 5 view .LVU26
  29:Middlewares/lvgl/examples/widgets/calendar/lv_example_calendar_1.c ****     highlighted_days[0].year = 2021;
 158              		.loc 1 29 5 view .LVU27
 159              		.loc 1 29 30 is_stmt 0 view .LVU28
 160 004a 1049     		ldr	r1, .L7+4
 161 004c 40F2E572 		movw	r2, #2021
 162 0050 0A80     		strh	r2, [r1]	@ movhi
  30:Middlewares/lvgl/examples/widgets/calendar/lv_example_calendar_1.c ****     highlighted_days[0].month = 02;
 163              		.loc 1 30 5 is_stmt 1 view .LVU29
 164              		.loc 1 30 31 is_stmt 0 view .LVU30
 165 0052 0223     		movs	r3, #2
 166 0054 8B70     		strb	r3, [r1, #2]
  31:Middlewares/lvgl/examples/widgets/calendar/lv_example_calendar_1.c ****     highlighted_days[0].day = 6;
 167              		.loc 1 31 5 is_stmt 1 view .LVU31
 168              		.loc 1 31 29 is_stmt 0 view .LVU32
 169 0056 0620     		movs	r0, #6
 170 0058 C870     		strb	r0, [r1, #3]
  32:Middlewares/lvgl/examples/widgets/calendar/lv_example_calendar_1.c **** 
  33:Middlewares/lvgl/examples/widgets/calendar/lv_example_calendar_1.c ****     highlighted_days[1].year = 2021;
 171              		.loc 1 33 5 is_stmt 1 view .LVU33
 172              		.loc 1 33 30 is_stmt 0 view .LVU34
 173 005a 8A80     		strh	r2, [r1, #4]	@ movhi
  34:Middlewares/lvgl/examples/widgets/calendar/lv_example_calendar_1.c ****     highlighted_days[1].month = 02;
 174              		.loc 1 34 5 is_stmt 1 view .LVU35
 175              		.loc 1 34 31 is_stmt 0 view .LVU36
 176 005c 8B71     		strb	r3, [r1, #6]
  35:Middlewares/lvgl/examples/widgets/calendar/lv_example_calendar_1.c ****     highlighted_days[1].day = 11;
 177              		.loc 1 35 5 is_stmt 1 view .LVU37
 178              		.loc 1 35 29 is_stmt 0 view .LVU38
 179 005e 0B22     		movs	r2, #11
 180 0060 CA71     		strb	r2, [r1, #7]
  36:Middlewares/lvgl/examples/widgets/calendar/lv_example_calendar_1.c **** 
  37:Middlewares/lvgl/examples/widgets/calendar/lv_example_calendar_1.c ****     highlighted_days[2].year = 2022;
 181              		.loc 1 37 5 is_stmt 1 view .LVU39
 182              		.loc 1 37 30 is_stmt 0 view .LVU40
 183 0062 40F2E672 		movw	r2, #2022
 184 0066 0A81     		strh	r2, [r1, #8]	@ movhi
  38:Middlewares/lvgl/examples/widgets/calendar/lv_example_calendar_1.c ****     highlighted_days[2].month = 02;
 185              		.loc 1 38 5 is_stmt 1 view .LVU41
 186              		.loc 1 38 31 is_stmt 0 view .LVU42
 187 0068 8B72     		strb	r3, [r1, #10]
  39:Middlewares/lvgl/examples/widgets/calendar/lv_example_calendar_1.c ****     highlighted_days[2].day = 22;
 188              		.loc 1 39 5 is_stmt 1 view .LVU43
 189              		.loc 1 39 29 is_stmt 0 view .LVU44
 190 006a 1623     		movs	r3, #22
 191 006c CB72     		strb	r3, [r1, #11]
  40:Middlewares/lvgl/examples/widgets/calendar/lv_example_calendar_1.c **** 
  41:Middlewares/lvgl/examples/widgets/calendar/lv_example_calendar_1.c ****     lv_calendar_set_highlighted_dates(calendar, highlighted_days, 3);
 192              		.loc 1 41 5 is_stmt 1 view .LVU45
ARM GAS  /tmp/cc5jorJA.s 			page 8


 193 006e 0322     		movs	r2, #3
 194 0070 2046     		mov	r0, r4
 195 0072 FFF7FEFF 		bl	lv_calendar_set_highlighted_dates
 196              	.LVL16:
  42:Middlewares/lvgl/examples/widgets/calendar/lv_example_calendar_1.c **** 
  43:Middlewares/lvgl/examples/widgets/calendar/lv_example_calendar_1.c **** #if LV_USE_CALENDAR_HEADER_DROPDOWN
  44:Middlewares/lvgl/examples/widgets/calendar/lv_example_calendar_1.c ****     lv_calendar_header_dropdown_create(lv_scr_act(), calendar);
 197              		.loc 1 44 5 view .LVU46
 198              	.LBB9:
 199              	.LBI9:
 163:Middlewares/lvgl/examples/widgets/calendar/../../../src/core/lv_disp.h **** {
 200              		.loc 2 163 26 view .LVU47
 201              	.LBB10:
 202              		.loc 2 165 5 view .LVU48
 203              		.loc 2 165 12 is_stmt 0 view .LVU49
 204 0076 FFF7FEFF 		bl	lv_disp_get_default
 205              	.LVL17:
 206 007a FFF7FEFF 		bl	lv_disp_get_scr_act
 207              	.LVL18:
 208              	.LBE10:
 209              	.LBE9:
 210              		.loc 1 44 5 view .LVU50
 211 007e 2146     		mov	r1, r4
 212 0080 FFF7FEFF 		bl	lv_calendar_header_dropdown_create
 213              	.LVL19:
  45:Middlewares/lvgl/examples/widgets/calendar/lv_example_calendar_1.c **** #elif LV_USE_CALENDAR_HEADER_ARROW
  46:Middlewares/lvgl/examples/widgets/calendar/lv_example_calendar_1.c ****     lv_calendar_header_arrow_create(lv_scr_act(), calendar, 25);
  47:Middlewares/lvgl/examples/widgets/calendar/lv_example_calendar_1.c **** #endif
  48:Middlewares/lvgl/examples/widgets/calendar/lv_example_calendar_1.c **** }
 214              		.loc 1 48 1 view .LVU51
 215 0084 10BD     		pop	{r4, pc}
 216              	.LVL20:
 217              	.L8:
 218              		.loc 1 48 1 view .LVU52
 219 0086 00BF     		.align	2
 220              	.L7:
 221 0088 00000000 		.word	event_handler
 222 008c 00000000 		.word	.LANCHOR0
 223              		.cfi_endproc
 224              	.LFE185:
 226              		.section	.bss.highlighted_days.0,"aw",%nobits
 227              		.align	2
 228              		.set	.LANCHOR0,. + 0
 231              	highlighted_days.0:
 232 0000 00000000 		.space	12
 232      00000000 
 232      00000000 
 233              		.text
 234              	.Letext0:
 235              		.file 3 "/home/akinya/gcc-arm-none-eabi/arm-none-eabi/include/machine/_default_types.h"
 236              		.file 4 "/home/akinya/gcc-arm-none-eabi/arm-none-eabi/include/sys/_stdint.h"
 237              		.file 5 "Middlewares/lvgl/examples/widgets/calendar/../../../src/misc/lv_ll.h"
 238              		.file 6 "Middlewares/lvgl/examples/widgets/calendar/../../../src/hal/../misc/lv_color.h"
 239              		.file 7 "Middlewares/lvgl/examples/widgets/calendar/../../../src/hal/../misc/lv_area.h"
 240              		.file 8 "Middlewares/lvgl/examples/widgets/calendar/../../../src/core/lv_obj.h"
 241              		.file 9 "Middlewares/lvgl/examples/widgets/calendar/../../../src/core/lv_group.h"
 242              		.file 10 "Middlewares/lvgl/examples/widgets/calendar/../../../src/core/../misc/lv_style.h"
ARM GAS  /tmp/cc5jorJA.s 			page 9


 243              		.file 11 "Middlewares/lvgl/examples/widgets/calendar/../../../src/core/lv_obj_scroll.h"
 244              		.file 12 "Middlewares/lvgl/examples/widgets/calendar/../../../src/core/lv_obj_style.h"
 245              		.file 13 "Middlewares/lvgl/examples/widgets/calendar/../../../src/core/lv_obj_class.h"
 246              		.file 14 "Middlewares/lvgl/examples/widgets/calendar/../../../src/core/lv_event.h"
 247              		.file 15 "Middlewares/lvgl/examples/widgets/calendar/../../../src/extra/widgets/calendar/lv_calend
 248              		.file 16 "Middlewares/lvgl/examples/widgets/calendar/../../../src/hal/lv_hal_disp.h"
 249              		.file 17 "Middlewares/lvgl/examples/widgets/calendar/../../../src/core/lv_obj_pos.h"
 250              		.file 18 "Middlewares/lvgl/examples/widgets/calendar/../../../src/extra/widgets/calendar/lv_calend
ARM GAS  /tmp/cc5jorJA.s 			page 10

