ARM GAS  /tmp/ccj8xyx4.s 			page 1


   1              		.cpu cortex-m4
   2              		.eabi_attribute 27, 1
   3              		.eabi_attribute 28, 1
   4              		.eabi_attribute 20, 1
   5              		.eabi_attribute 21, 1
   6              		.eabi_attribute 23, 3
   7              		.eabi_attribute 24, 1
   8              		.eabi_attribute 25, 1
   9              		.eabi_attribute 26, 1
  10              		.eabi_attribute 30, 1
  11              		.eabi_attribute 34, 1
  12              		.eabi_attribute 18, 4
  13              		.file	"lv_imgbtn.c"
  14              		.text
  15              	.Ltext0:
  16              		.cfi_sections	.debug_frame
  17              		.section	.text.suggest_state,"ax",%progbits
  18              		.align	1
  19              		.arch armv7e-m
  20              		.syntax unified
  21              		.thumb
  22              		.thumb_func
  23              		.fpu fpv4-sp-d16
  25              	suggest_state:
  26              	.LVL0:
  27              	.LFB193:
  28              		.file 1 "Middlewares/lvgl/src/extra/widgets/imgbtn/lv_imgbtn.c"
   1:Middlewares/lvgl/src/extra/widgets/imgbtn/lv_imgbtn.c **** /**
   2:Middlewares/lvgl/src/extra/widgets/imgbtn/lv_imgbtn.c ****  * @file lv_imgbtn.c
   3:Middlewares/lvgl/src/extra/widgets/imgbtn/lv_imgbtn.c ****  *
   4:Middlewares/lvgl/src/extra/widgets/imgbtn/lv_imgbtn.c ****  */
   5:Middlewares/lvgl/src/extra/widgets/imgbtn/lv_imgbtn.c **** 
   6:Middlewares/lvgl/src/extra/widgets/imgbtn/lv_imgbtn.c **** /*********************
   7:Middlewares/lvgl/src/extra/widgets/imgbtn/lv_imgbtn.c ****  *      INCLUDES
   8:Middlewares/lvgl/src/extra/widgets/imgbtn/lv_imgbtn.c ****  *********************/
   9:Middlewares/lvgl/src/extra/widgets/imgbtn/lv_imgbtn.c **** 
  10:Middlewares/lvgl/src/extra/widgets/imgbtn/lv_imgbtn.c **** #include "lv_imgbtn.h"
  11:Middlewares/lvgl/src/extra/widgets/imgbtn/lv_imgbtn.c **** 
  12:Middlewares/lvgl/src/extra/widgets/imgbtn/lv_imgbtn.c **** #if LV_USE_IMGBTN != 0
  13:Middlewares/lvgl/src/extra/widgets/imgbtn/lv_imgbtn.c **** 
  14:Middlewares/lvgl/src/extra/widgets/imgbtn/lv_imgbtn.c **** /*********************
  15:Middlewares/lvgl/src/extra/widgets/imgbtn/lv_imgbtn.c ****  *      DEFINES
  16:Middlewares/lvgl/src/extra/widgets/imgbtn/lv_imgbtn.c ****  *********************/
  17:Middlewares/lvgl/src/extra/widgets/imgbtn/lv_imgbtn.c **** #define MY_CLASS &lv_imgbtn_class
  18:Middlewares/lvgl/src/extra/widgets/imgbtn/lv_imgbtn.c **** 
  19:Middlewares/lvgl/src/extra/widgets/imgbtn/lv_imgbtn.c **** /**********************
  20:Middlewares/lvgl/src/extra/widgets/imgbtn/lv_imgbtn.c ****  *      TYPEDEFS
  21:Middlewares/lvgl/src/extra/widgets/imgbtn/lv_imgbtn.c ****  **********************/
  22:Middlewares/lvgl/src/extra/widgets/imgbtn/lv_imgbtn.c **** 
  23:Middlewares/lvgl/src/extra/widgets/imgbtn/lv_imgbtn.c **** /**********************
  24:Middlewares/lvgl/src/extra/widgets/imgbtn/lv_imgbtn.c ****  *  STATIC PROTOTYPES
  25:Middlewares/lvgl/src/extra/widgets/imgbtn/lv_imgbtn.c ****  **********************/
  26:Middlewares/lvgl/src/extra/widgets/imgbtn/lv_imgbtn.c **** static void lv_imgbtn_constructor(const lv_obj_class_t * class_p, lv_obj_t * obj);
  27:Middlewares/lvgl/src/extra/widgets/imgbtn/lv_imgbtn.c **** static void draw_main(lv_event_t * e);
  28:Middlewares/lvgl/src/extra/widgets/imgbtn/lv_imgbtn.c **** static void lv_imgbtn_event(const lv_obj_class_t * class_p, lv_event_t * e);
  29:Middlewares/lvgl/src/extra/widgets/imgbtn/lv_imgbtn.c **** static void refr_img(lv_obj_t * imgbtn);
  30:Middlewares/lvgl/src/extra/widgets/imgbtn/lv_imgbtn.c **** static lv_imgbtn_state_t suggest_state(lv_obj_t * imgbtn, lv_imgbtn_state_t state);
ARM GAS  /tmp/ccj8xyx4.s 			page 2


  31:Middlewares/lvgl/src/extra/widgets/imgbtn/lv_imgbtn.c **** lv_imgbtn_state_t get_state(const lv_obj_t * imgbtn);
  32:Middlewares/lvgl/src/extra/widgets/imgbtn/lv_imgbtn.c **** 
  33:Middlewares/lvgl/src/extra/widgets/imgbtn/lv_imgbtn.c **** /**********************
  34:Middlewares/lvgl/src/extra/widgets/imgbtn/lv_imgbtn.c ****  *  STATIC VARIABLES
  35:Middlewares/lvgl/src/extra/widgets/imgbtn/lv_imgbtn.c ****  **********************/
  36:Middlewares/lvgl/src/extra/widgets/imgbtn/lv_imgbtn.c **** const lv_obj_class_t lv_imgbtn_class = {
  37:Middlewares/lvgl/src/extra/widgets/imgbtn/lv_imgbtn.c ****         .base_class = &lv_obj_class,
  38:Middlewares/lvgl/src/extra/widgets/imgbtn/lv_imgbtn.c ****         .instance_size = sizeof(lv_imgbtn_t),
  39:Middlewares/lvgl/src/extra/widgets/imgbtn/lv_imgbtn.c ****         .constructor_cb = lv_imgbtn_constructor,
  40:Middlewares/lvgl/src/extra/widgets/imgbtn/lv_imgbtn.c ****         .event_cb = lv_imgbtn_event,
  41:Middlewares/lvgl/src/extra/widgets/imgbtn/lv_imgbtn.c **** };
  42:Middlewares/lvgl/src/extra/widgets/imgbtn/lv_imgbtn.c **** 
  43:Middlewares/lvgl/src/extra/widgets/imgbtn/lv_imgbtn.c **** /**********************
  44:Middlewares/lvgl/src/extra/widgets/imgbtn/lv_imgbtn.c ****  *      MACROS
  45:Middlewares/lvgl/src/extra/widgets/imgbtn/lv_imgbtn.c ****  **********************/
  46:Middlewares/lvgl/src/extra/widgets/imgbtn/lv_imgbtn.c **** 
  47:Middlewares/lvgl/src/extra/widgets/imgbtn/lv_imgbtn.c **** /**********************
  48:Middlewares/lvgl/src/extra/widgets/imgbtn/lv_imgbtn.c ****  *   GLOBAL FUNCTIONS
  49:Middlewares/lvgl/src/extra/widgets/imgbtn/lv_imgbtn.c ****  **********************/
  50:Middlewares/lvgl/src/extra/widgets/imgbtn/lv_imgbtn.c **** 
  51:Middlewares/lvgl/src/extra/widgets/imgbtn/lv_imgbtn.c **** /**
  52:Middlewares/lvgl/src/extra/widgets/imgbtn/lv_imgbtn.c ****  * Create a image button object
  53:Middlewares/lvgl/src/extra/widgets/imgbtn/lv_imgbtn.c ****  * @param par pointer to an object, it will be the parent of the new image button
  54:Middlewares/lvgl/src/extra/widgets/imgbtn/lv_imgbtn.c ****  * @return pointer to the created image button
  55:Middlewares/lvgl/src/extra/widgets/imgbtn/lv_imgbtn.c ****  */
  56:Middlewares/lvgl/src/extra/widgets/imgbtn/lv_imgbtn.c **** lv_obj_t * lv_imgbtn_create(lv_obj_t * parent)
  57:Middlewares/lvgl/src/extra/widgets/imgbtn/lv_imgbtn.c **** {
  58:Middlewares/lvgl/src/extra/widgets/imgbtn/lv_imgbtn.c ****     LV_LOG_INFO("begin")
  59:Middlewares/lvgl/src/extra/widgets/imgbtn/lv_imgbtn.c ****     lv_obj_t * obj = lv_obj_class_create_obj(MY_CLASS, parent);
  60:Middlewares/lvgl/src/extra/widgets/imgbtn/lv_imgbtn.c ****     lv_obj_class_init_obj(obj);
  61:Middlewares/lvgl/src/extra/widgets/imgbtn/lv_imgbtn.c ****     return obj;
  62:Middlewares/lvgl/src/extra/widgets/imgbtn/lv_imgbtn.c **** }
  63:Middlewares/lvgl/src/extra/widgets/imgbtn/lv_imgbtn.c **** 
  64:Middlewares/lvgl/src/extra/widgets/imgbtn/lv_imgbtn.c **** /*=====================
  65:Middlewares/lvgl/src/extra/widgets/imgbtn/lv_imgbtn.c ****  * Setter functions
  66:Middlewares/lvgl/src/extra/widgets/imgbtn/lv_imgbtn.c ****  *====================*/
  67:Middlewares/lvgl/src/extra/widgets/imgbtn/lv_imgbtn.c **** 
  68:Middlewares/lvgl/src/extra/widgets/imgbtn/lv_imgbtn.c **** /**
  69:Middlewares/lvgl/src/extra/widgets/imgbtn/lv_imgbtn.c ****  * Set images for a state of the image button
  70:Middlewares/lvgl/src/extra/widgets/imgbtn/lv_imgbtn.c ****  * @param imgbtn pointer to an image button object
  71:Middlewares/lvgl/src/extra/widgets/imgbtn/lv_imgbtn.c ****  * @param state for which state set the new image
  72:Middlewares/lvgl/src/extra/widgets/imgbtn/lv_imgbtn.c ****  * @param src_left pointer to an image source for the left side of the button (a C array or path to
  73:Middlewares/lvgl/src/extra/widgets/imgbtn/lv_imgbtn.c ****  * a file)
  74:Middlewares/lvgl/src/extra/widgets/imgbtn/lv_imgbtn.c ****  * @param src_mid pointer to an image source for the middle of the button (ideally 1px wide) (a C
  75:Middlewares/lvgl/src/extra/widgets/imgbtn/lv_imgbtn.c ****  * array or path to a file)
  76:Middlewares/lvgl/src/extra/widgets/imgbtn/lv_imgbtn.c ****  * @param src_right pointer to an image source for the right side of the button (a C array or path
  77:Middlewares/lvgl/src/extra/widgets/imgbtn/lv_imgbtn.c ****  * to a file)
  78:Middlewares/lvgl/src/extra/widgets/imgbtn/lv_imgbtn.c ****  */
  79:Middlewares/lvgl/src/extra/widgets/imgbtn/lv_imgbtn.c **** void lv_imgbtn_set_src(lv_obj_t * obj, lv_imgbtn_state_t state, const void * src_left, const void *
  80:Middlewares/lvgl/src/extra/widgets/imgbtn/lv_imgbtn.c ****                              const void * src_right)
  81:Middlewares/lvgl/src/extra/widgets/imgbtn/lv_imgbtn.c **** {
  82:Middlewares/lvgl/src/extra/widgets/imgbtn/lv_imgbtn.c ****     LV_ASSERT_OBJ(obj, MY_CLASS);
  83:Middlewares/lvgl/src/extra/widgets/imgbtn/lv_imgbtn.c **** 
  84:Middlewares/lvgl/src/extra/widgets/imgbtn/lv_imgbtn.c ****     lv_imgbtn_t * imgbtn = (lv_imgbtn_t *)obj;
  85:Middlewares/lvgl/src/extra/widgets/imgbtn/lv_imgbtn.c **** 
  86:Middlewares/lvgl/src/extra/widgets/imgbtn/lv_imgbtn.c ****     imgbtn->img_src_left[state] = src_left;
  87:Middlewares/lvgl/src/extra/widgets/imgbtn/lv_imgbtn.c ****     imgbtn->img_src_mid[state] = src_mid;
ARM GAS  /tmp/ccj8xyx4.s 			page 3


  88:Middlewares/lvgl/src/extra/widgets/imgbtn/lv_imgbtn.c ****     imgbtn->img_src_right[state] = src_right;
  89:Middlewares/lvgl/src/extra/widgets/imgbtn/lv_imgbtn.c **** 
  90:Middlewares/lvgl/src/extra/widgets/imgbtn/lv_imgbtn.c ****     refr_img(obj);
  91:Middlewares/lvgl/src/extra/widgets/imgbtn/lv_imgbtn.c **** }
  92:Middlewares/lvgl/src/extra/widgets/imgbtn/lv_imgbtn.c **** 
  93:Middlewares/lvgl/src/extra/widgets/imgbtn/lv_imgbtn.c **** /*=====================
  94:Middlewares/lvgl/src/extra/widgets/imgbtn/lv_imgbtn.c ****  * Getter functions
  95:Middlewares/lvgl/src/extra/widgets/imgbtn/lv_imgbtn.c ****  *====================*/
  96:Middlewares/lvgl/src/extra/widgets/imgbtn/lv_imgbtn.c **** 
  97:Middlewares/lvgl/src/extra/widgets/imgbtn/lv_imgbtn.c **** 
  98:Middlewares/lvgl/src/extra/widgets/imgbtn/lv_imgbtn.c **** /**
  99:Middlewares/lvgl/src/extra/widgets/imgbtn/lv_imgbtn.c ****  * Get the left image in a given state
 100:Middlewares/lvgl/src/extra/widgets/imgbtn/lv_imgbtn.c ****  * @param imgbtn pointer to an image button object
 101:Middlewares/lvgl/src/extra/widgets/imgbtn/lv_imgbtn.c ****  * @param state the state where to get the image (from `lv_btn_state_t`) `
 102:Middlewares/lvgl/src/extra/widgets/imgbtn/lv_imgbtn.c ****  * @return pointer to the left image source (a C array or path to a file)
 103:Middlewares/lvgl/src/extra/widgets/imgbtn/lv_imgbtn.c ****  */
 104:Middlewares/lvgl/src/extra/widgets/imgbtn/lv_imgbtn.c **** const void * lv_imgbtn_get_src_left(lv_obj_t * obj, lv_imgbtn_state_t state)
 105:Middlewares/lvgl/src/extra/widgets/imgbtn/lv_imgbtn.c **** {
 106:Middlewares/lvgl/src/extra/widgets/imgbtn/lv_imgbtn.c ****     LV_ASSERT_OBJ(obj, MY_CLASS);
 107:Middlewares/lvgl/src/extra/widgets/imgbtn/lv_imgbtn.c **** 
 108:Middlewares/lvgl/src/extra/widgets/imgbtn/lv_imgbtn.c ****     lv_imgbtn_t * imgbtn = (lv_imgbtn_t *)obj;
 109:Middlewares/lvgl/src/extra/widgets/imgbtn/lv_imgbtn.c **** 
 110:Middlewares/lvgl/src/extra/widgets/imgbtn/lv_imgbtn.c ****     return imgbtn->img_src_left[state];
 111:Middlewares/lvgl/src/extra/widgets/imgbtn/lv_imgbtn.c **** }
 112:Middlewares/lvgl/src/extra/widgets/imgbtn/lv_imgbtn.c **** 
 113:Middlewares/lvgl/src/extra/widgets/imgbtn/lv_imgbtn.c **** /**
 114:Middlewares/lvgl/src/extra/widgets/imgbtn/lv_imgbtn.c ****  * Get the middle image in a given state
 115:Middlewares/lvgl/src/extra/widgets/imgbtn/lv_imgbtn.c ****  * @param imgbtn pointer to an image button object
 116:Middlewares/lvgl/src/extra/widgets/imgbtn/lv_imgbtn.c ****  * @param state the state where to get the image (from `lv_btn_state_t`) `
 117:Middlewares/lvgl/src/extra/widgets/imgbtn/lv_imgbtn.c ****  * @return pointer to the middle image source (a C array or path to a file)
 118:Middlewares/lvgl/src/extra/widgets/imgbtn/lv_imgbtn.c ****  */
 119:Middlewares/lvgl/src/extra/widgets/imgbtn/lv_imgbtn.c **** const void * lv_imgbtn_get_src_middle(lv_obj_t * obj, lv_imgbtn_state_t state)
 120:Middlewares/lvgl/src/extra/widgets/imgbtn/lv_imgbtn.c **** {
 121:Middlewares/lvgl/src/extra/widgets/imgbtn/lv_imgbtn.c ****     LV_ASSERT_OBJ(obj, MY_CLASS);
 122:Middlewares/lvgl/src/extra/widgets/imgbtn/lv_imgbtn.c ****     lv_imgbtn_t * imgbtn = (lv_imgbtn_t *)obj;
 123:Middlewares/lvgl/src/extra/widgets/imgbtn/lv_imgbtn.c **** 
 124:Middlewares/lvgl/src/extra/widgets/imgbtn/lv_imgbtn.c ****     return imgbtn->img_src_mid[state];
 125:Middlewares/lvgl/src/extra/widgets/imgbtn/lv_imgbtn.c **** }
 126:Middlewares/lvgl/src/extra/widgets/imgbtn/lv_imgbtn.c **** 
 127:Middlewares/lvgl/src/extra/widgets/imgbtn/lv_imgbtn.c **** /**
 128:Middlewares/lvgl/src/extra/widgets/imgbtn/lv_imgbtn.c ****  * Get the right image in a given state
 129:Middlewares/lvgl/src/extra/widgets/imgbtn/lv_imgbtn.c ****  * @param imgbtn pointer to an image button object
 130:Middlewares/lvgl/src/extra/widgets/imgbtn/lv_imgbtn.c ****  * @param state the state where to get the image (from `lv_btn_state_t`) `
 131:Middlewares/lvgl/src/extra/widgets/imgbtn/lv_imgbtn.c ****  * @return pointer to the left image source (a C array or path to a file)
 132:Middlewares/lvgl/src/extra/widgets/imgbtn/lv_imgbtn.c ****  */
 133:Middlewares/lvgl/src/extra/widgets/imgbtn/lv_imgbtn.c **** const void * lv_imgbtn_get_src_right(lv_obj_t * obj, lv_imgbtn_state_t state)
 134:Middlewares/lvgl/src/extra/widgets/imgbtn/lv_imgbtn.c **** {
 135:Middlewares/lvgl/src/extra/widgets/imgbtn/lv_imgbtn.c ****     LV_ASSERT_OBJ(obj, MY_CLASS);
 136:Middlewares/lvgl/src/extra/widgets/imgbtn/lv_imgbtn.c ****     lv_imgbtn_t * imgbtn = (lv_imgbtn_t *)obj;
 137:Middlewares/lvgl/src/extra/widgets/imgbtn/lv_imgbtn.c **** 
 138:Middlewares/lvgl/src/extra/widgets/imgbtn/lv_imgbtn.c ****     return imgbtn->img_src_right[state];
 139:Middlewares/lvgl/src/extra/widgets/imgbtn/lv_imgbtn.c **** }
 140:Middlewares/lvgl/src/extra/widgets/imgbtn/lv_imgbtn.c **** 
 141:Middlewares/lvgl/src/extra/widgets/imgbtn/lv_imgbtn.c **** 
 142:Middlewares/lvgl/src/extra/widgets/imgbtn/lv_imgbtn.c **** /**********************
 143:Middlewares/lvgl/src/extra/widgets/imgbtn/lv_imgbtn.c ****  *   STATIC FUNCTIONS
 144:Middlewares/lvgl/src/extra/widgets/imgbtn/lv_imgbtn.c ****  **********************/
ARM GAS  /tmp/ccj8xyx4.s 			page 4


 145:Middlewares/lvgl/src/extra/widgets/imgbtn/lv_imgbtn.c **** 
 146:Middlewares/lvgl/src/extra/widgets/imgbtn/lv_imgbtn.c **** static void lv_imgbtn_constructor(const lv_obj_class_t * class_p, lv_obj_t * obj)
 147:Middlewares/lvgl/src/extra/widgets/imgbtn/lv_imgbtn.c **** {
 148:Middlewares/lvgl/src/extra/widgets/imgbtn/lv_imgbtn.c ****     LV_UNUSED(class_p);
 149:Middlewares/lvgl/src/extra/widgets/imgbtn/lv_imgbtn.c ****    lv_imgbtn_t * imgbtn = (lv_imgbtn_t *)obj;
 150:Middlewares/lvgl/src/extra/widgets/imgbtn/lv_imgbtn.c ****    /*Initialize the allocated 'ext'*/
 151:Middlewares/lvgl/src/extra/widgets/imgbtn/lv_imgbtn.c ****    lv_memset_00((void *)imgbtn->img_src_mid, sizeof(imgbtn->img_src_mid));
 152:Middlewares/lvgl/src/extra/widgets/imgbtn/lv_imgbtn.c ****    lv_memset_00(imgbtn->img_src_left, sizeof(imgbtn->img_src_left));
 153:Middlewares/lvgl/src/extra/widgets/imgbtn/lv_imgbtn.c ****    lv_memset_00(imgbtn->img_src_right, sizeof(imgbtn->img_src_right));
 154:Middlewares/lvgl/src/extra/widgets/imgbtn/lv_imgbtn.c **** 
 155:Middlewares/lvgl/src/extra/widgets/imgbtn/lv_imgbtn.c ****    imgbtn->act_cf = LV_IMG_CF_UNKNOWN;
 156:Middlewares/lvgl/src/extra/widgets/imgbtn/lv_imgbtn.c **** }
 157:Middlewares/lvgl/src/extra/widgets/imgbtn/lv_imgbtn.c **** 
 158:Middlewares/lvgl/src/extra/widgets/imgbtn/lv_imgbtn.c **** 
 159:Middlewares/lvgl/src/extra/widgets/imgbtn/lv_imgbtn.c **** static void lv_imgbtn_event(const lv_obj_class_t * class_p, lv_event_t * e)
 160:Middlewares/lvgl/src/extra/widgets/imgbtn/lv_imgbtn.c **** {
 161:Middlewares/lvgl/src/extra/widgets/imgbtn/lv_imgbtn.c ****     LV_UNUSED(class_p);
 162:Middlewares/lvgl/src/extra/widgets/imgbtn/lv_imgbtn.c **** 
 163:Middlewares/lvgl/src/extra/widgets/imgbtn/lv_imgbtn.c ****     lv_res_t res = lv_obj_event_base(&lv_imgbtn_class, e);
 164:Middlewares/lvgl/src/extra/widgets/imgbtn/lv_imgbtn.c ****     if(res != LV_RES_OK) return;
 165:Middlewares/lvgl/src/extra/widgets/imgbtn/lv_imgbtn.c **** 
 166:Middlewares/lvgl/src/extra/widgets/imgbtn/lv_imgbtn.c ****     lv_event_code_t code = lv_event_get_code(e);
 167:Middlewares/lvgl/src/extra/widgets/imgbtn/lv_imgbtn.c ****     lv_obj_t * obj = lv_event_get_target(e);
 168:Middlewares/lvgl/src/extra/widgets/imgbtn/lv_imgbtn.c ****     if(code == LV_EVENT_PRESSED || code == LV_EVENT_RELEASED || code == LV_EVENT_PRESS_LOST) {
 169:Middlewares/lvgl/src/extra/widgets/imgbtn/lv_imgbtn.c ****         refr_img(obj);
 170:Middlewares/lvgl/src/extra/widgets/imgbtn/lv_imgbtn.c ****     }
 171:Middlewares/lvgl/src/extra/widgets/imgbtn/lv_imgbtn.c ****     else if(code == LV_EVENT_DRAW_MAIN) {
 172:Middlewares/lvgl/src/extra/widgets/imgbtn/lv_imgbtn.c ****         draw_main(e);
 173:Middlewares/lvgl/src/extra/widgets/imgbtn/lv_imgbtn.c ****     }
 174:Middlewares/lvgl/src/extra/widgets/imgbtn/lv_imgbtn.c ****     else if(code == LV_EVENT_COVER_CHECK) {
 175:Middlewares/lvgl/src/extra/widgets/imgbtn/lv_imgbtn.c ****         lv_cover_check_info_t * info = lv_event_get_param(e);
 176:Middlewares/lvgl/src/extra/widgets/imgbtn/lv_imgbtn.c ****         if(info->res != LV_COVER_RES_MASKED) info->res = LV_COVER_RES_NOT_COVER;
 177:Middlewares/lvgl/src/extra/widgets/imgbtn/lv_imgbtn.c ****     }
 178:Middlewares/lvgl/src/extra/widgets/imgbtn/lv_imgbtn.c ****     else if(code == LV_EVENT_GET_SELF_SIZE) {
 179:Middlewares/lvgl/src/extra/widgets/imgbtn/lv_imgbtn.c ****         lv_point_t * p = lv_event_get_self_size_info(e);
 180:Middlewares/lvgl/src/extra/widgets/imgbtn/lv_imgbtn.c ****         lv_imgbtn_t * imgbtn = (lv_imgbtn_t *)obj;
 181:Middlewares/lvgl/src/extra/widgets/imgbtn/lv_imgbtn.c ****         lv_imgbtn_state_t state  = suggest_state(obj, get_state(obj));
 182:Middlewares/lvgl/src/extra/widgets/imgbtn/lv_imgbtn.c ****         if(imgbtn->img_src_left[state] == NULL &&
 183:Middlewares/lvgl/src/extra/widgets/imgbtn/lv_imgbtn.c ****            imgbtn->img_src_mid[state] != NULL &&
 184:Middlewares/lvgl/src/extra/widgets/imgbtn/lv_imgbtn.c ****            imgbtn->img_src_right[state] == NULL)
 185:Middlewares/lvgl/src/extra/widgets/imgbtn/lv_imgbtn.c ****         {
 186:Middlewares/lvgl/src/extra/widgets/imgbtn/lv_imgbtn.c ****             lv_img_header_t header;
 187:Middlewares/lvgl/src/extra/widgets/imgbtn/lv_imgbtn.c ****             lv_img_decoder_get_info(imgbtn->img_src_mid, &header);
 188:Middlewares/lvgl/src/extra/widgets/imgbtn/lv_imgbtn.c ****             p->x = LV_MAX(p->x, header.w);
 189:Middlewares/lvgl/src/extra/widgets/imgbtn/lv_imgbtn.c ****         }
 190:Middlewares/lvgl/src/extra/widgets/imgbtn/lv_imgbtn.c ****     }
 191:Middlewares/lvgl/src/extra/widgets/imgbtn/lv_imgbtn.c **** }
 192:Middlewares/lvgl/src/extra/widgets/imgbtn/lv_imgbtn.c **** 
 193:Middlewares/lvgl/src/extra/widgets/imgbtn/lv_imgbtn.c **** static void draw_main(lv_event_t * e)
 194:Middlewares/lvgl/src/extra/widgets/imgbtn/lv_imgbtn.c **** {
 195:Middlewares/lvgl/src/extra/widgets/imgbtn/lv_imgbtn.c ****     lv_obj_t * obj = lv_event_get_target(e);
 196:Middlewares/lvgl/src/extra/widgets/imgbtn/lv_imgbtn.c ****     lv_imgbtn_t * imgbtn = (lv_imgbtn_t *)obj;
 197:Middlewares/lvgl/src/extra/widgets/imgbtn/lv_imgbtn.c ****     const lv_area_t * clip_area = lv_event_get_param(e);
 198:Middlewares/lvgl/src/extra/widgets/imgbtn/lv_imgbtn.c **** 
 199:Middlewares/lvgl/src/extra/widgets/imgbtn/lv_imgbtn.c ****     /*Just draw_main an image*/
 200:Middlewares/lvgl/src/extra/widgets/imgbtn/lv_imgbtn.c ****     lv_imgbtn_state_t state  = suggest_state(obj, get_state(obj));
 201:Middlewares/lvgl/src/extra/widgets/imgbtn/lv_imgbtn.c **** 
ARM GAS  /tmp/ccj8xyx4.s 			page 5


 202:Middlewares/lvgl/src/extra/widgets/imgbtn/lv_imgbtn.c ****     /*Simply draw the middle src if no tiled*/
 203:Middlewares/lvgl/src/extra/widgets/imgbtn/lv_imgbtn.c ****     const void * src = imgbtn->img_src_left[state];
 204:Middlewares/lvgl/src/extra/widgets/imgbtn/lv_imgbtn.c **** 
 205:Middlewares/lvgl/src/extra/widgets/imgbtn/lv_imgbtn.c ****     lv_coord_t tw = lv_obj_get_style_transform_width(obj, LV_PART_MAIN);
 206:Middlewares/lvgl/src/extra/widgets/imgbtn/lv_imgbtn.c ****     lv_coord_t th = lv_obj_get_style_transform_height(obj, LV_PART_MAIN);
 207:Middlewares/lvgl/src/extra/widgets/imgbtn/lv_imgbtn.c ****     lv_area_t coords;
 208:Middlewares/lvgl/src/extra/widgets/imgbtn/lv_imgbtn.c ****     lv_area_copy(&coords, &obj->coords);
 209:Middlewares/lvgl/src/extra/widgets/imgbtn/lv_imgbtn.c ****     coords.x1 -= tw;
 210:Middlewares/lvgl/src/extra/widgets/imgbtn/lv_imgbtn.c ****     coords.x2 += tw;
 211:Middlewares/lvgl/src/extra/widgets/imgbtn/lv_imgbtn.c ****     coords.y1 -= th;
 212:Middlewares/lvgl/src/extra/widgets/imgbtn/lv_imgbtn.c ****     coords.y2 += th;
 213:Middlewares/lvgl/src/extra/widgets/imgbtn/lv_imgbtn.c **** 
 214:Middlewares/lvgl/src/extra/widgets/imgbtn/lv_imgbtn.c ****     lv_draw_img_dsc_t img_dsc;
 215:Middlewares/lvgl/src/extra/widgets/imgbtn/lv_imgbtn.c ****     lv_draw_img_dsc_init(&img_dsc);
 216:Middlewares/lvgl/src/extra/widgets/imgbtn/lv_imgbtn.c ****     lv_obj_init_draw_img_dsc(obj, LV_PART_MAIN, &img_dsc);
 217:Middlewares/lvgl/src/extra/widgets/imgbtn/lv_imgbtn.c **** 
 218:Middlewares/lvgl/src/extra/widgets/imgbtn/lv_imgbtn.c ****     lv_img_header_t header;
 219:Middlewares/lvgl/src/extra/widgets/imgbtn/lv_imgbtn.c ****     lv_area_t coords_part;
 220:Middlewares/lvgl/src/extra/widgets/imgbtn/lv_imgbtn.c ****     lv_coord_t left_w = 0;
 221:Middlewares/lvgl/src/extra/widgets/imgbtn/lv_imgbtn.c ****     lv_coord_t right_w = 0;
 222:Middlewares/lvgl/src/extra/widgets/imgbtn/lv_imgbtn.c **** 
 223:Middlewares/lvgl/src/extra/widgets/imgbtn/lv_imgbtn.c ****     if(src) {
 224:Middlewares/lvgl/src/extra/widgets/imgbtn/lv_imgbtn.c ****         lv_img_decoder_get_info(src, &header);
 225:Middlewares/lvgl/src/extra/widgets/imgbtn/lv_imgbtn.c ****         left_w = header.w;
 226:Middlewares/lvgl/src/extra/widgets/imgbtn/lv_imgbtn.c ****         coords_part.x1 = coords.x1;
 227:Middlewares/lvgl/src/extra/widgets/imgbtn/lv_imgbtn.c ****         coords_part.y1 = coords.y1;
 228:Middlewares/lvgl/src/extra/widgets/imgbtn/lv_imgbtn.c ****         coords_part.x2 = coords.x1 + header.w - 1;
 229:Middlewares/lvgl/src/extra/widgets/imgbtn/lv_imgbtn.c ****         coords_part.y2 = coords.y1 + header.h - 1;
 230:Middlewares/lvgl/src/extra/widgets/imgbtn/lv_imgbtn.c ****         lv_draw_img(&coords_part, clip_area, src, &img_dsc);
 231:Middlewares/lvgl/src/extra/widgets/imgbtn/lv_imgbtn.c ****     }
 232:Middlewares/lvgl/src/extra/widgets/imgbtn/lv_imgbtn.c **** 
 233:Middlewares/lvgl/src/extra/widgets/imgbtn/lv_imgbtn.c ****     src = imgbtn->img_src_right[state];
 234:Middlewares/lvgl/src/extra/widgets/imgbtn/lv_imgbtn.c ****     if(src) {
 235:Middlewares/lvgl/src/extra/widgets/imgbtn/lv_imgbtn.c ****         lv_img_decoder_get_info(src, &header);
 236:Middlewares/lvgl/src/extra/widgets/imgbtn/lv_imgbtn.c ****         right_w = header.w;
 237:Middlewares/lvgl/src/extra/widgets/imgbtn/lv_imgbtn.c ****         coords_part.x1 = coords.x2 - header.w + 1;
 238:Middlewares/lvgl/src/extra/widgets/imgbtn/lv_imgbtn.c ****         coords_part.y1 = coords.y1;
 239:Middlewares/lvgl/src/extra/widgets/imgbtn/lv_imgbtn.c ****         coords_part.x2 = coords.x2;
 240:Middlewares/lvgl/src/extra/widgets/imgbtn/lv_imgbtn.c ****         coords_part.y2 = coords.y1 + header.h - 1;
 241:Middlewares/lvgl/src/extra/widgets/imgbtn/lv_imgbtn.c ****         lv_draw_img(&coords_part, clip_area, src, &img_dsc);
 242:Middlewares/lvgl/src/extra/widgets/imgbtn/lv_imgbtn.c ****     }
 243:Middlewares/lvgl/src/extra/widgets/imgbtn/lv_imgbtn.c **** 
 244:Middlewares/lvgl/src/extra/widgets/imgbtn/lv_imgbtn.c ****     src = imgbtn->img_src_mid[state];
 245:Middlewares/lvgl/src/extra/widgets/imgbtn/lv_imgbtn.c ****     if(src) {
 246:Middlewares/lvgl/src/extra/widgets/imgbtn/lv_imgbtn.c ****         lv_area_t clip_center_area;
 247:Middlewares/lvgl/src/extra/widgets/imgbtn/lv_imgbtn.c ****         clip_center_area.x1 = coords.x1 + left_w;
 248:Middlewares/lvgl/src/extra/widgets/imgbtn/lv_imgbtn.c ****         clip_center_area.x2 = coords.x2 - right_w;
 249:Middlewares/lvgl/src/extra/widgets/imgbtn/lv_imgbtn.c ****         clip_center_area.y1 = coords.y1;
 250:Middlewares/lvgl/src/extra/widgets/imgbtn/lv_imgbtn.c ****         clip_center_area.y2 = coords.y2;
 251:Middlewares/lvgl/src/extra/widgets/imgbtn/lv_imgbtn.c **** 
 252:Middlewares/lvgl/src/extra/widgets/imgbtn/lv_imgbtn.c ****         bool comm_res;
 253:Middlewares/lvgl/src/extra/widgets/imgbtn/lv_imgbtn.c ****         comm_res = _lv_area_intersect(&clip_center_area, &clip_center_area, clip_area);
 254:Middlewares/lvgl/src/extra/widgets/imgbtn/lv_imgbtn.c ****         if(comm_res) {
 255:Middlewares/lvgl/src/extra/widgets/imgbtn/lv_imgbtn.c ****             lv_coord_t i;
 256:Middlewares/lvgl/src/extra/widgets/imgbtn/lv_imgbtn.c ****             lv_img_decoder_get_info(src, &header);
 257:Middlewares/lvgl/src/extra/widgets/imgbtn/lv_imgbtn.c **** 
 258:Middlewares/lvgl/src/extra/widgets/imgbtn/lv_imgbtn.c ****             coords_part.x1 = coords.x1 + left_w;
ARM GAS  /tmp/ccj8xyx4.s 			page 6


 259:Middlewares/lvgl/src/extra/widgets/imgbtn/lv_imgbtn.c ****             coords_part.y1 = coords.y1;
 260:Middlewares/lvgl/src/extra/widgets/imgbtn/lv_imgbtn.c ****             coords_part.x2 = coords_part.x1 + header.w - 1;
 261:Middlewares/lvgl/src/extra/widgets/imgbtn/lv_imgbtn.c ****             coords_part.y2 = coords_part.y1 + header.h - 1;
 262:Middlewares/lvgl/src/extra/widgets/imgbtn/lv_imgbtn.c **** 
 263:Middlewares/lvgl/src/extra/widgets/imgbtn/lv_imgbtn.c ****             for(i = 0; i < clip_center_area.x2 + header.w - 1; i += header.w) {
 264:Middlewares/lvgl/src/extra/widgets/imgbtn/lv_imgbtn.c **** 
 265:Middlewares/lvgl/src/extra/widgets/imgbtn/lv_imgbtn.c ****                 lv_draw_img(&coords_part, &clip_center_area, src, &img_dsc);
 266:Middlewares/lvgl/src/extra/widgets/imgbtn/lv_imgbtn.c ****                 coords_part.x1 = coords_part.x2 + 1;
 267:Middlewares/lvgl/src/extra/widgets/imgbtn/lv_imgbtn.c ****                 coords_part.x2 += header.w;
 268:Middlewares/lvgl/src/extra/widgets/imgbtn/lv_imgbtn.c ****             }
 269:Middlewares/lvgl/src/extra/widgets/imgbtn/lv_imgbtn.c ****         }
 270:Middlewares/lvgl/src/extra/widgets/imgbtn/lv_imgbtn.c ****     }
 271:Middlewares/lvgl/src/extra/widgets/imgbtn/lv_imgbtn.c **** }
 272:Middlewares/lvgl/src/extra/widgets/imgbtn/lv_imgbtn.c **** 
 273:Middlewares/lvgl/src/extra/widgets/imgbtn/lv_imgbtn.c **** static void refr_img(lv_obj_t * obj)
 274:Middlewares/lvgl/src/extra/widgets/imgbtn/lv_imgbtn.c **** {
 275:Middlewares/lvgl/src/extra/widgets/imgbtn/lv_imgbtn.c ****     lv_imgbtn_t * imgbtn = (lv_imgbtn_t *)obj;
 276:Middlewares/lvgl/src/extra/widgets/imgbtn/lv_imgbtn.c ****     lv_imgbtn_state_t state  = suggest_state(obj, get_state(obj));
 277:Middlewares/lvgl/src/extra/widgets/imgbtn/lv_imgbtn.c ****     lv_img_header_t header;
 278:Middlewares/lvgl/src/extra/widgets/imgbtn/lv_imgbtn.c **** 
 279:Middlewares/lvgl/src/extra/widgets/imgbtn/lv_imgbtn.c ****     const void * src = imgbtn->img_src_mid[state];
 280:Middlewares/lvgl/src/extra/widgets/imgbtn/lv_imgbtn.c ****     if(src == NULL) return;
 281:Middlewares/lvgl/src/extra/widgets/imgbtn/lv_imgbtn.c **** 
 282:Middlewares/lvgl/src/extra/widgets/imgbtn/lv_imgbtn.c ****     lv_res_t info_res = LV_RES_OK;
 283:Middlewares/lvgl/src/extra/widgets/imgbtn/lv_imgbtn.c ****     info_res = lv_img_decoder_get_info(src, &header);
 284:Middlewares/lvgl/src/extra/widgets/imgbtn/lv_imgbtn.c **** 
 285:Middlewares/lvgl/src/extra/widgets/imgbtn/lv_imgbtn.c ****     if(info_res == LV_RES_OK) {
 286:Middlewares/lvgl/src/extra/widgets/imgbtn/lv_imgbtn.c ****         imgbtn->act_cf = header.cf;
 287:Middlewares/lvgl/src/extra/widgets/imgbtn/lv_imgbtn.c ****         lv_obj_refresh_self_size(obj);
 288:Middlewares/lvgl/src/extra/widgets/imgbtn/lv_imgbtn.c ****         lv_obj_set_height(obj, header.h); /*Keep the user defined width*/
 289:Middlewares/lvgl/src/extra/widgets/imgbtn/lv_imgbtn.c ****     }
 290:Middlewares/lvgl/src/extra/widgets/imgbtn/lv_imgbtn.c ****     else {
 291:Middlewares/lvgl/src/extra/widgets/imgbtn/lv_imgbtn.c ****         imgbtn->act_cf = LV_IMG_CF_UNKNOWN;
 292:Middlewares/lvgl/src/extra/widgets/imgbtn/lv_imgbtn.c ****     }
 293:Middlewares/lvgl/src/extra/widgets/imgbtn/lv_imgbtn.c **** 
 294:Middlewares/lvgl/src/extra/widgets/imgbtn/lv_imgbtn.c ****     lv_obj_invalidate(obj);
 295:Middlewares/lvgl/src/extra/widgets/imgbtn/lv_imgbtn.c **** }
 296:Middlewares/lvgl/src/extra/widgets/imgbtn/lv_imgbtn.c **** 
 297:Middlewares/lvgl/src/extra/widgets/imgbtn/lv_imgbtn.c **** /**
 298:Middlewares/lvgl/src/extra/widgets/imgbtn/lv_imgbtn.c ****  * If `src` is not defined for the current state try to get a state which is related to the current
 299:Middlewares/lvgl/src/extra/widgets/imgbtn/lv_imgbtn.c ****  * E.g. if the PRESSED src is not set but the RELEASED does, use the RELEASED.
 300:Middlewares/lvgl/src/extra/widgets/imgbtn/lv_imgbtn.c ****  * @param imgbtn pointer to an image button
 301:Middlewares/lvgl/src/extra/widgets/imgbtn/lv_imgbtn.c ****  * @param state the state to convert
 302:Middlewares/lvgl/src/extra/widgets/imgbtn/lv_imgbtn.c ****  * @return the suggested state
 303:Middlewares/lvgl/src/extra/widgets/imgbtn/lv_imgbtn.c ****  */
 304:Middlewares/lvgl/src/extra/widgets/imgbtn/lv_imgbtn.c **** static lv_imgbtn_state_t suggest_state(lv_obj_t * obj, lv_imgbtn_state_t state)
 305:Middlewares/lvgl/src/extra/widgets/imgbtn/lv_imgbtn.c **** {
  29              		.loc 1 305 1 view -0
  30              		.cfi_startproc
  31              		@ args = 0, pretend = 0, frame = 0
  32              		@ frame_needed = 0, uses_anonymous_args = 0
  33              		@ link register save eliminated.
  34              		.loc 1 305 1 is_stmt 0 view .LVU1
  35 0000 0346     		mov	r3, r0
  36 0002 0846     		mov	r0, r1
  37              	.LVL1:
 306:Middlewares/lvgl/src/extra/widgets/imgbtn/lv_imgbtn.c ****     lv_imgbtn_t * imgbtn = (lv_imgbtn_t *)obj;
ARM GAS  /tmp/ccj8xyx4.s 			page 7


  38              		.loc 1 306 5 is_stmt 1 view .LVU2
 307:Middlewares/lvgl/src/extra/widgets/imgbtn/lv_imgbtn.c ****     if(imgbtn->img_src_mid[state] == NULL) {
  39              		.loc 1 307 5 view .LVU3
  40              		.loc 1 307 27 is_stmt 0 view .LVU4
  41 0004 01F10802 		add	r2, r1, #8
  42 0008 03EB8202 		add	r2, r3, r2, lsl #2
  43 000c 5268     		ldr	r2, [r2, #4]
  44              		.loc 1 307 7 view .LVU5
  45 000e 02B1     		cbz	r2, .L17
  46              	.LVL2:
  47              	.L2:
 308:Middlewares/lvgl/src/extra/widgets/imgbtn/lv_imgbtn.c ****         switch(state) {
 309:Middlewares/lvgl/src/extra/widgets/imgbtn/lv_imgbtn.c ****             case LV_IMGBTN_STATE_PRESSED:
 310:Middlewares/lvgl/src/extra/widgets/imgbtn/lv_imgbtn.c ****                 if(imgbtn->img_src_mid[LV_IMGBTN_STATE_RELEASED]) return LV_IMGBTN_STATE_RELEASED;
 311:Middlewares/lvgl/src/extra/widgets/imgbtn/lv_imgbtn.c ****                 break;
 312:Middlewares/lvgl/src/extra/widgets/imgbtn/lv_imgbtn.c ****             case LV_IMGBTN_STATE_CHECKED_RELEASED:
 313:Middlewares/lvgl/src/extra/widgets/imgbtn/lv_imgbtn.c ****                 if(imgbtn->img_src_mid[LV_IMGBTN_STATE_RELEASED]) return LV_IMGBTN_STATE_RELEASED;
 314:Middlewares/lvgl/src/extra/widgets/imgbtn/lv_imgbtn.c ****                 break;
 315:Middlewares/lvgl/src/extra/widgets/imgbtn/lv_imgbtn.c ****             case LV_IMGBTN_STATE_CHECKED_PRESSED:
 316:Middlewares/lvgl/src/extra/widgets/imgbtn/lv_imgbtn.c ****                 if(imgbtn->img_src_mid[LV_IMGBTN_STATE_CHECKED_RELEASED]) return LV_IMGBTN_STATE_CH
 317:Middlewares/lvgl/src/extra/widgets/imgbtn/lv_imgbtn.c ****                 if(imgbtn->img_src_mid[LV_IMGBTN_STATE_PRESSED]) return LV_IMGBTN_STATE_PRESSED;
 318:Middlewares/lvgl/src/extra/widgets/imgbtn/lv_imgbtn.c ****                 if(imgbtn->img_src_mid[LV_IMGBTN_STATE_RELEASED]) return LV_IMGBTN_STATE_RELEASED;
 319:Middlewares/lvgl/src/extra/widgets/imgbtn/lv_imgbtn.c ****                 break;
 320:Middlewares/lvgl/src/extra/widgets/imgbtn/lv_imgbtn.c ****             case LV_IMGBTN_STATE_DISABLED:
 321:Middlewares/lvgl/src/extra/widgets/imgbtn/lv_imgbtn.c ****                 if(imgbtn->img_src_mid[LV_IMGBTN_STATE_RELEASED]) return LV_IMGBTN_STATE_RELEASED;
 322:Middlewares/lvgl/src/extra/widgets/imgbtn/lv_imgbtn.c ****                 break;
 323:Middlewares/lvgl/src/extra/widgets/imgbtn/lv_imgbtn.c ****             case LV_IMGBTN_STATE_CHECKED_DISABLED:
 324:Middlewares/lvgl/src/extra/widgets/imgbtn/lv_imgbtn.c ****                 if(imgbtn->img_src_mid[LV_IMGBTN_STATE_CHECKED_RELEASED]) return LV_IMGBTN_STATE_CH
 325:Middlewares/lvgl/src/extra/widgets/imgbtn/lv_imgbtn.c ****                 if(imgbtn->img_src_mid[LV_IMGBTN_STATE_RELEASED]) return LV_IMGBTN_STATE_RELEASED;
 326:Middlewares/lvgl/src/extra/widgets/imgbtn/lv_imgbtn.c ****                 break;
 327:Middlewares/lvgl/src/extra/widgets/imgbtn/lv_imgbtn.c ****             default:
 328:Middlewares/lvgl/src/extra/widgets/imgbtn/lv_imgbtn.c ****                 break;
 329:Middlewares/lvgl/src/extra/widgets/imgbtn/lv_imgbtn.c ****         }
 330:Middlewares/lvgl/src/extra/widgets/imgbtn/lv_imgbtn.c ****     }
 331:Middlewares/lvgl/src/extra/widgets/imgbtn/lv_imgbtn.c **** 
 332:Middlewares/lvgl/src/extra/widgets/imgbtn/lv_imgbtn.c ****     return state;
 333:Middlewares/lvgl/src/extra/widgets/imgbtn/lv_imgbtn.c **** }
  48              		.loc 1 333 1 view .LVU6
  49 0010 7047     		bx	lr
  50              	.LVL3:
  51              	.L17:
 308:Middlewares/lvgl/src/extra/widgets/imgbtn/lv_imgbtn.c ****         switch(state) {
  52              		.loc 1 308 9 is_stmt 1 view .LVU7
  53 0012 4A1E     		subs	r2, r1, #1
  54 0014 042A     		cmp	r2, #4
  55 0016 FBD8     		bhi	.L2
  56 0018 DFE802F0 		tbb	[pc, r2]
  57              	.LVL4:
  58              	.L4:
  59 001c 03       		.byte	(.L8-.L4)/2
  60 001d 18       		.byte	(.L7-.L4)/2
  61 001e 08       		.byte	(.L6-.L4)/2
  62 001f 0D       		.byte	(.L5-.L4)/2
  63 0020 1D       		.byte	(.L3-.L4)/2
  64 0021 00       		.p2align 1
  65              	.L8:
 310:Middlewares/lvgl/src/extra/widgets/imgbtn/lv_imgbtn.c ****                 break;
ARM GAS  /tmp/ccj8xyx4.s 			page 8


  66              		.loc 1 310 17 view .LVU8
 310:Middlewares/lvgl/src/extra/widgets/imgbtn/lv_imgbtn.c ****                 break;
  67              		.loc 1 310 39 is_stmt 0 view .LVU9
  68 0022 5B6A     		ldr	r3, [r3, #36]
  69              	.LVL5:
 310:Middlewares/lvgl/src/extra/widgets/imgbtn/lv_imgbtn.c ****                 break;
  70              		.loc 1 310 19 view .LVU10
  71 0024 0BB1     		cbz	r3, .L18
 310:Middlewares/lvgl/src/extra/widgets/imgbtn/lv_imgbtn.c ****                 break;
  72              		.loc 1 310 74 view .LVU11
  73 0026 0020     		movs	r0, #0
  74 0028 7047     		bx	lr
  75              	.L18:
  76 002a 7047     		bx	lr
  77              	.LVL6:
  78              	.L6:
 313:Middlewares/lvgl/src/extra/widgets/imgbtn/lv_imgbtn.c ****                 break;
  79              		.loc 1 313 17 is_stmt 1 view .LVU12
 313:Middlewares/lvgl/src/extra/widgets/imgbtn/lv_imgbtn.c ****                 break;
  80              		.loc 1 313 39 is_stmt 0 view .LVU13
  81 002c 5B6A     		ldr	r3, [r3, #36]
  82              	.LVL7:
 313:Middlewares/lvgl/src/extra/widgets/imgbtn/lv_imgbtn.c ****                 break;
  83              		.loc 1 313 19 view .LVU14
  84 002e 0BB1     		cbz	r3, .L19
 313:Middlewares/lvgl/src/extra/widgets/imgbtn/lv_imgbtn.c ****                 break;
  85              		.loc 1 313 74 view .LVU15
  86 0030 0020     		movs	r0, #0
  87 0032 7047     		bx	lr
  88              	.L19:
  89 0034 7047     		bx	lr
  90              	.LVL8:
  91              	.L5:
 316:Middlewares/lvgl/src/extra/widgets/imgbtn/lv_imgbtn.c ****                 if(imgbtn->img_src_mid[LV_IMGBTN_STATE_PRESSED]) return LV_IMGBTN_STATE_PRESSED;
  92              		.loc 1 316 17 is_stmt 1 view .LVU16
 316:Middlewares/lvgl/src/extra/widgets/imgbtn/lv_imgbtn.c ****                 if(imgbtn->img_src_mid[LV_IMGBTN_STATE_PRESSED]) return LV_IMGBTN_STATE_PRESSED;
  93              		.loc 1 316 39 is_stmt 0 view .LVU17
  94 0036 1A6B     		ldr	r2, [r3, #48]
 316:Middlewares/lvgl/src/extra/widgets/imgbtn/lv_imgbtn.c ****                 if(imgbtn->img_src_mid[LV_IMGBTN_STATE_PRESSED]) return LV_IMGBTN_STATE_PRESSED;
  95              		.loc 1 316 19 view .LVU18
  96 0038 A2B9     		cbnz	r2, .L11
 317:Middlewares/lvgl/src/extra/widgets/imgbtn/lv_imgbtn.c ****                 if(imgbtn->img_src_mid[LV_IMGBTN_STATE_RELEASED]) return LV_IMGBTN_STATE_RELEASED;
  97              		.loc 1 317 17 is_stmt 1 view .LVU19
 317:Middlewares/lvgl/src/extra/widgets/imgbtn/lv_imgbtn.c ****                 if(imgbtn->img_src_mid[LV_IMGBTN_STATE_RELEASED]) return LV_IMGBTN_STATE_RELEASED;
  98              		.loc 1 317 39 is_stmt 0 view .LVU20
  99 003a 9A6A     		ldr	r2, [r3, #40]
 317:Middlewares/lvgl/src/extra/widgets/imgbtn/lv_imgbtn.c ****                 if(imgbtn->img_src_mid[LV_IMGBTN_STATE_RELEASED]) return LV_IMGBTN_STATE_RELEASED;
 100              		.loc 1 317 19 view .LVU21
 101 003c 0AB1     		cbz	r2, .L20
 317:Middlewares/lvgl/src/extra/widgets/imgbtn/lv_imgbtn.c ****                 if(imgbtn->img_src_mid[LV_IMGBTN_STATE_RELEASED]) return LV_IMGBTN_STATE_RELEASED;
 102              		.loc 1 317 73 view .LVU22
 103 003e 0120     		movs	r0, #1
 104 0040 7047     		bx	lr
 105              	.L20:
 318:Middlewares/lvgl/src/extra/widgets/imgbtn/lv_imgbtn.c ****                 break;
 106              		.loc 1 318 17 is_stmt 1 view .LVU23
 318:Middlewares/lvgl/src/extra/widgets/imgbtn/lv_imgbtn.c ****                 break;
ARM GAS  /tmp/ccj8xyx4.s 			page 9


 107              		.loc 1 318 39 is_stmt 0 view .LVU24
 108 0042 5B6A     		ldr	r3, [r3, #36]
 109              	.LVL9:
 318:Middlewares/lvgl/src/extra/widgets/imgbtn/lv_imgbtn.c ****                 break;
 110              		.loc 1 318 19 view .LVU25
 111 0044 0BB1     		cbz	r3, .L21
 318:Middlewares/lvgl/src/extra/widgets/imgbtn/lv_imgbtn.c ****                 break;
 112              		.loc 1 318 74 view .LVU26
 113 0046 0020     		movs	r0, #0
 114 0048 7047     		bx	lr
 115              	.L21:
 116 004a 7047     		bx	lr
 117              	.LVL10:
 118              	.L7:
 321:Middlewares/lvgl/src/extra/widgets/imgbtn/lv_imgbtn.c ****                 break;
 119              		.loc 1 321 17 is_stmt 1 view .LVU27
 321:Middlewares/lvgl/src/extra/widgets/imgbtn/lv_imgbtn.c ****                 break;
 120              		.loc 1 321 39 is_stmt 0 view .LVU28
 121 004c 5B6A     		ldr	r3, [r3, #36]
 122              	.LVL11:
 321:Middlewares/lvgl/src/extra/widgets/imgbtn/lv_imgbtn.c ****                 break;
 123              		.loc 1 321 19 view .LVU29
 124 004e 0BB1     		cbz	r3, .L22
 321:Middlewares/lvgl/src/extra/widgets/imgbtn/lv_imgbtn.c ****                 break;
 125              		.loc 1 321 74 view .LVU30
 126 0050 0020     		movs	r0, #0
 127 0052 7047     		bx	lr
 128              	.L22:
 129 0054 7047     		bx	lr
 130              	.LVL12:
 131              	.L3:
 324:Middlewares/lvgl/src/extra/widgets/imgbtn/lv_imgbtn.c ****                 if(imgbtn->img_src_mid[LV_IMGBTN_STATE_RELEASED]) return LV_IMGBTN_STATE_RELEASED;
 132              		.loc 1 324 17 is_stmt 1 view .LVU31
 324:Middlewares/lvgl/src/extra/widgets/imgbtn/lv_imgbtn.c ****                 if(imgbtn->img_src_mid[LV_IMGBTN_STATE_RELEASED]) return LV_IMGBTN_STATE_RELEASED;
 133              		.loc 1 324 39 is_stmt 0 view .LVU32
 134 0056 1A6B     		ldr	r2, [r3, #48]
 324:Middlewares/lvgl/src/extra/widgets/imgbtn/lv_imgbtn.c ****                 if(imgbtn->img_src_mid[LV_IMGBTN_STATE_RELEASED]) return LV_IMGBTN_STATE_RELEASED;
 135              		.loc 1 324 19 view .LVU33
 136 0058 32B9     		cbnz	r2, .L15
 325:Middlewares/lvgl/src/extra/widgets/imgbtn/lv_imgbtn.c ****                 break;
 137              		.loc 1 325 17 is_stmt 1 view .LVU34
 325:Middlewares/lvgl/src/extra/widgets/imgbtn/lv_imgbtn.c ****                 break;
 138              		.loc 1 325 39 is_stmt 0 view .LVU35
 139 005a 5B6A     		ldr	r3, [r3, #36]
 140              	.LVL13:
 325:Middlewares/lvgl/src/extra/widgets/imgbtn/lv_imgbtn.c ****                 break;
 141              		.loc 1 325 19 view .LVU36
 142 005c 0BB1     		cbz	r3, .L23
 325:Middlewares/lvgl/src/extra/widgets/imgbtn/lv_imgbtn.c ****                 break;
 143              		.loc 1 325 74 view .LVU37
 144 005e 0020     		movs	r0, #0
 145 0060 D6E7     		b	.L2
 146              	.L23:
 147 0062 7047     		bx	lr
 148              	.LVL14:
 149              	.L11:
 316:Middlewares/lvgl/src/extra/widgets/imgbtn/lv_imgbtn.c ****                 if(imgbtn->img_src_mid[LV_IMGBTN_STATE_PRESSED]) return LV_IMGBTN_STATE_PRESSED;
ARM GAS  /tmp/ccj8xyx4.s 			page 10


 150              		.loc 1 316 82 view .LVU38
 151 0064 0320     		movs	r0, #3
 152 0066 7047     		bx	lr
 153              	.L15:
 324:Middlewares/lvgl/src/extra/widgets/imgbtn/lv_imgbtn.c ****                 if(imgbtn->img_src_mid[LV_IMGBTN_STATE_RELEASED]) return LV_IMGBTN_STATE_RELEASED;
 154              		.loc 1 324 82 view .LVU39
 155 0068 0320     		movs	r0, #3
 156 006a 7047     		bx	lr
 157              		.cfi_endproc
 158              	.LFE193:
 160              		.section	.text.lv_imgbtn_constructor,"ax",%progbits
 161              		.align	1
 162              		.syntax unified
 163              		.thumb
 164              		.thumb_func
 165              		.fpu fpv4-sp-d16
 167              	lv_imgbtn_constructor:
 168              	.LVL15:
 169              	.LFB189:
 147:Middlewares/lvgl/src/extra/widgets/imgbtn/lv_imgbtn.c ****     LV_UNUSED(class_p);
 170              		.loc 1 147 1 is_stmt 1 view -0
 171              		.cfi_startproc
 172              		@ args = 0, pretend = 0, frame = 0
 173              		@ frame_needed = 0, uses_anonymous_args = 0
 147:Middlewares/lvgl/src/extra/widgets/imgbtn/lv_imgbtn.c ****     LV_UNUSED(class_p);
 174              		.loc 1 147 1 is_stmt 0 view .LVU41
 175 0000 10B5     		push	{r4, lr}
 176              	.LCFI0:
 177              		.cfi_def_cfa_offset 8
 178              		.cfi_offset 4, -8
 179              		.cfi_offset 14, -4
 180 0002 0C46     		mov	r4, r1
 148:Middlewares/lvgl/src/extra/widgets/imgbtn/lv_imgbtn.c ****    lv_imgbtn_t * imgbtn = (lv_imgbtn_t *)obj;
 181              		.loc 1 148 5 is_stmt 1 view .LVU42
 149:Middlewares/lvgl/src/extra/widgets/imgbtn/lv_imgbtn.c ****    /*Initialize the allocated 'ext'*/
 182              		.loc 1 149 4 view .LVU43
 183              	.LVL16:
 151:Middlewares/lvgl/src/extra/widgets/imgbtn/lv_imgbtn.c ****    lv_memset_00(imgbtn->img_src_left, sizeof(imgbtn->img_src_left));
 184              		.loc 1 151 4 view .LVU44
 185 0004 1821     		movs	r1, #24
 186              	.LVL17:
 151:Middlewares/lvgl/src/extra/widgets/imgbtn/lv_imgbtn.c ****    lv_memset_00(imgbtn->img_src_left, sizeof(imgbtn->img_src_left));
 187              		.loc 1 151 4 is_stmt 0 view .LVU45
 188 0006 04F12400 		add	r0, r4, #36
 189              	.LVL18:
 151:Middlewares/lvgl/src/extra/widgets/imgbtn/lv_imgbtn.c ****    lv_memset_00(imgbtn->img_src_left, sizeof(imgbtn->img_src_left));
 190              		.loc 1 151 4 view .LVU46
 191 000a FFF7FEFF 		bl	lv_memset_00
 192              	.LVL19:
 152:Middlewares/lvgl/src/extra/widgets/imgbtn/lv_imgbtn.c ****    lv_memset_00(imgbtn->img_src_right, sizeof(imgbtn->img_src_right));
 193              		.loc 1 152 4 is_stmt 1 view .LVU47
 194 000e 1821     		movs	r1, #24
 195 0010 04F13C00 		add	r0, r4, #60
 196 0014 FFF7FEFF 		bl	lv_memset_00
 197              	.LVL20:
 153:Middlewares/lvgl/src/extra/widgets/imgbtn/lv_imgbtn.c **** 
 198              		.loc 1 153 4 view .LVU48
ARM GAS  /tmp/ccj8xyx4.s 			page 11


 199 0018 1821     		movs	r1, #24
 200 001a 04F15400 		add	r0, r4, #84
 201 001e FFF7FEFF 		bl	lv_memset_00
 202              	.LVL21:
 155:Middlewares/lvgl/src/extra/widgets/imgbtn/lv_imgbtn.c **** }
 203              		.loc 1 155 4 view .LVU49
 155:Middlewares/lvgl/src/extra/widgets/imgbtn/lv_imgbtn.c **** }
 204              		.loc 1 155 19 is_stmt 0 view .LVU50
 205 0022 0023     		movs	r3, #0
 206 0024 84F86C30 		strb	r3, [r4, #108]
 156:Middlewares/lvgl/src/extra/widgets/imgbtn/lv_imgbtn.c **** 
 207              		.loc 1 156 1 view .LVU51
 208 0028 10BD     		pop	{r4, pc}
 156:Middlewares/lvgl/src/extra/widgets/imgbtn/lv_imgbtn.c **** 
 209              		.loc 1 156 1 view .LVU52
 210              		.cfi_endproc
 211              	.LFE189:
 213              		.section	.text.lv_imgbtn_create,"ax",%progbits
 214              		.align	1
 215              		.global	lv_imgbtn_create
 216              		.syntax unified
 217              		.thumb
 218              		.thumb_func
 219              		.fpu fpv4-sp-d16
 221              	lv_imgbtn_create:
 222              	.LVL22:
 223              	.LFB184:
  57:Middlewares/lvgl/src/extra/widgets/imgbtn/lv_imgbtn.c ****     LV_LOG_INFO("begin")
 224              		.loc 1 57 1 is_stmt 1 view -0
 225              		.cfi_startproc
 226              		@ args = 0, pretend = 0, frame = 0
 227              		@ frame_needed = 0, uses_anonymous_args = 0
  57:Middlewares/lvgl/src/extra/widgets/imgbtn/lv_imgbtn.c ****     LV_LOG_INFO("begin")
 228              		.loc 1 57 1 is_stmt 0 view .LVU54
 229 0000 10B5     		push	{r4, lr}
 230              	.LCFI1:
 231              		.cfi_def_cfa_offset 8
 232              		.cfi_offset 4, -8
 233              		.cfi_offset 14, -4
 234 0002 0146     		mov	r1, r0
  59:Middlewares/lvgl/src/extra/widgets/imgbtn/lv_imgbtn.c ****     lv_obj_class_init_obj(obj);
 235              		.loc 1 59 5 is_stmt 1 view .LVU55
  59:Middlewares/lvgl/src/extra/widgets/imgbtn/lv_imgbtn.c ****     lv_obj_class_init_obj(obj);
 236              		.loc 1 59 22 is_stmt 0 view .LVU56
 237 0004 0348     		ldr	r0, .L28
 238              	.LVL23:
  59:Middlewares/lvgl/src/extra/widgets/imgbtn/lv_imgbtn.c ****     lv_obj_class_init_obj(obj);
 239              		.loc 1 59 22 view .LVU57
 240 0006 FFF7FEFF 		bl	lv_obj_class_create_obj
 241              	.LVL24:
  59:Middlewares/lvgl/src/extra/widgets/imgbtn/lv_imgbtn.c ****     lv_obj_class_init_obj(obj);
 242              		.loc 1 59 22 view .LVU58
 243 000a 0446     		mov	r4, r0
 244              	.LVL25:
  60:Middlewares/lvgl/src/extra/widgets/imgbtn/lv_imgbtn.c ****     return obj;
 245              		.loc 1 60 5 is_stmt 1 view .LVU59
 246 000c FFF7FEFF 		bl	lv_obj_class_init_obj
ARM GAS  /tmp/ccj8xyx4.s 			page 12


 247              	.LVL26:
  61:Middlewares/lvgl/src/extra/widgets/imgbtn/lv_imgbtn.c **** }
 248              		.loc 1 61 5 view .LVU60
  62:Middlewares/lvgl/src/extra/widgets/imgbtn/lv_imgbtn.c **** 
 249              		.loc 1 62 1 is_stmt 0 view .LVU61
 250 0010 2046     		mov	r0, r4
 251 0012 10BD     		pop	{r4, pc}
 252              	.LVL27:
 253              	.L29:
  62:Middlewares/lvgl/src/extra/widgets/imgbtn/lv_imgbtn.c **** 
 254              		.loc 1 62 1 view .LVU62
 255              		.align	2
 256              	.L28:
 257 0014 00000000 		.word	.LANCHOR0
 258              		.cfi_endproc
 259              	.LFE184:
 261              		.section	.text.lv_imgbtn_get_src_left,"ax",%progbits
 262              		.align	1
 263              		.global	lv_imgbtn_get_src_left
 264              		.syntax unified
 265              		.thumb
 266              		.thumb_func
 267              		.fpu fpv4-sp-d16
 269              	lv_imgbtn_get_src_left:
 270              	.LVL28:
 271              	.LFB186:
 105:Middlewares/lvgl/src/extra/widgets/imgbtn/lv_imgbtn.c ****     LV_ASSERT_OBJ(obj, MY_CLASS);
 272              		.loc 1 105 1 is_stmt 1 view -0
 273              		.cfi_startproc
 274              		@ args = 0, pretend = 0, frame = 0
 275              		@ frame_needed = 0, uses_anonymous_args = 0
 276              		@ link register save eliminated.
 106:Middlewares/lvgl/src/extra/widgets/imgbtn/lv_imgbtn.c **** 
 277              		.loc 1 106 5 view .LVU64
 106:Middlewares/lvgl/src/extra/widgets/imgbtn/lv_imgbtn.c **** 
 278              		.loc 1 106 5 view .LVU65
 106:Middlewares/lvgl/src/extra/widgets/imgbtn/lv_imgbtn.c **** 
 279              		.loc 1 106 5 view .LVU66
 108:Middlewares/lvgl/src/extra/widgets/imgbtn/lv_imgbtn.c **** 
 280              		.loc 1 108 5 view .LVU67
 110:Middlewares/lvgl/src/extra/widgets/imgbtn/lv_imgbtn.c **** }
 281              		.loc 1 110 5 view .LVU68
 110:Middlewares/lvgl/src/extra/widgets/imgbtn/lv_imgbtn.c **** }
 282              		.loc 1 110 32 is_stmt 0 view .LVU69
 283 0000 0E31     		adds	r1, r1, #14
 284              	.LVL29:
 110:Middlewares/lvgl/src/extra/widgets/imgbtn/lv_imgbtn.c **** }
 285              		.loc 1 110 32 view .LVU70
 286 0002 00EB8100 		add	r0, r0, r1, lsl #2
 287              	.LVL30:
 111:Middlewares/lvgl/src/extra/widgets/imgbtn/lv_imgbtn.c **** 
 288              		.loc 1 111 1 view .LVU71
 289 0006 4068     		ldr	r0, [r0, #4]
 290 0008 7047     		bx	lr
 291              		.cfi_endproc
 292              	.LFE186:
 294              		.section	.text.lv_imgbtn_get_src_middle,"ax",%progbits
ARM GAS  /tmp/ccj8xyx4.s 			page 13


 295              		.align	1
 296              		.global	lv_imgbtn_get_src_middle
 297              		.syntax unified
 298              		.thumb
 299              		.thumb_func
 300              		.fpu fpv4-sp-d16
 302              	lv_imgbtn_get_src_middle:
 303              	.LVL31:
 304              	.LFB187:
 120:Middlewares/lvgl/src/extra/widgets/imgbtn/lv_imgbtn.c ****     LV_ASSERT_OBJ(obj, MY_CLASS);
 305              		.loc 1 120 1 is_stmt 1 view -0
 306              		.cfi_startproc
 307              		@ args = 0, pretend = 0, frame = 0
 308              		@ frame_needed = 0, uses_anonymous_args = 0
 309              		@ link register save eliminated.
 121:Middlewares/lvgl/src/extra/widgets/imgbtn/lv_imgbtn.c ****     lv_imgbtn_t * imgbtn = (lv_imgbtn_t *)obj;
 310              		.loc 1 121 5 view .LVU73
 121:Middlewares/lvgl/src/extra/widgets/imgbtn/lv_imgbtn.c ****     lv_imgbtn_t * imgbtn = (lv_imgbtn_t *)obj;
 311              		.loc 1 121 5 view .LVU74
 121:Middlewares/lvgl/src/extra/widgets/imgbtn/lv_imgbtn.c ****     lv_imgbtn_t * imgbtn = (lv_imgbtn_t *)obj;
 312              		.loc 1 121 5 view .LVU75
 122:Middlewares/lvgl/src/extra/widgets/imgbtn/lv_imgbtn.c **** 
 313              		.loc 1 122 5 view .LVU76
 124:Middlewares/lvgl/src/extra/widgets/imgbtn/lv_imgbtn.c **** }
 314              		.loc 1 124 5 view .LVU77
 124:Middlewares/lvgl/src/extra/widgets/imgbtn/lv_imgbtn.c **** }
 315              		.loc 1 124 31 is_stmt 0 view .LVU78
 316 0000 0831     		adds	r1, r1, #8
 317              	.LVL32:
 124:Middlewares/lvgl/src/extra/widgets/imgbtn/lv_imgbtn.c **** }
 318              		.loc 1 124 31 view .LVU79
 319 0002 00EB8100 		add	r0, r0, r1, lsl #2
 320              	.LVL33:
 125:Middlewares/lvgl/src/extra/widgets/imgbtn/lv_imgbtn.c **** 
 321              		.loc 1 125 1 view .LVU80
 322 0006 4068     		ldr	r0, [r0, #4]
 323 0008 7047     		bx	lr
 324              		.cfi_endproc
 325              	.LFE187:
 327              		.section	.text.lv_imgbtn_get_src_right,"ax",%progbits
 328              		.align	1
 329              		.global	lv_imgbtn_get_src_right
 330              		.syntax unified
 331              		.thumb
 332              		.thumb_func
 333              		.fpu fpv4-sp-d16
 335              	lv_imgbtn_get_src_right:
 336              	.LVL34:
 337              	.LFB188:
 134:Middlewares/lvgl/src/extra/widgets/imgbtn/lv_imgbtn.c ****     LV_ASSERT_OBJ(obj, MY_CLASS);
 338              		.loc 1 134 1 is_stmt 1 view -0
 339              		.cfi_startproc
 340              		@ args = 0, pretend = 0, frame = 0
 341              		@ frame_needed = 0, uses_anonymous_args = 0
 342              		@ link register save eliminated.
 135:Middlewares/lvgl/src/extra/widgets/imgbtn/lv_imgbtn.c ****     lv_imgbtn_t * imgbtn = (lv_imgbtn_t *)obj;
 343              		.loc 1 135 5 view .LVU82
ARM GAS  /tmp/ccj8xyx4.s 			page 14


 135:Middlewares/lvgl/src/extra/widgets/imgbtn/lv_imgbtn.c ****     lv_imgbtn_t * imgbtn = (lv_imgbtn_t *)obj;
 344              		.loc 1 135 5 view .LVU83
 135:Middlewares/lvgl/src/extra/widgets/imgbtn/lv_imgbtn.c ****     lv_imgbtn_t * imgbtn = (lv_imgbtn_t *)obj;
 345              		.loc 1 135 5 view .LVU84
 136:Middlewares/lvgl/src/extra/widgets/imgbtn/lv_imgbtn.c **** 
 346              		.loc 1 136 5 view .LVU85
 138:Middlewares/lvgl/src/extra/widgets/imgbtn/lv_imgbtn.c **** }
 347              		.loc 1 138 5 view .LVU86
 138:Middlewares/lvgl/src/extra/widgets/imgbtn/lv_imgbtn.c **** }
 348              		.loc 1 138 33 is_stmt 0 view .LVU87
 349 0000 1431     		adds	r1, r1, #20
 350              	.LVL35:
 138:Middlewares/lvgl/src/extra/widgets/imgbtn/lv_imgbtn.c **** }
 351              		.loc 1 138 33 view .LVU88
 352 0002 00EB8100 		add	r0, r0, r1, lsl #2
 353              	.LVL36:
 139:Middlewares/lvgl/src/extra/widgets/imgbtn/lv_imgbtn.c **** 
 354              		.loc 1 139 1 view .LVU89
 355 0006 4068     		ldr	r0, [r0, #4]
 356 0008 7047     		bx	lr
 357              		.cfi_endproc
 358              	.LFE188:
 360              		.section	.text.get_state,"ax",%progbits
 361              		.align	1
 362              		.global	get_state
 363              		.syntax unified
 364              		.thumb
 365              		.thumb_func
 366              		.fpu fpv4-sp-d16
 368              	get_state:
 369              	.LVL37:
 370              	.LFB194:
 334:Middlewares/lvgl/src/extra/widgets/imgbtn/lv_imgbtn.c **** 
 335:Middlewares/lvgl/src/extra/widgets/imgbtn/lv_imgbtn.c **** lv_imgbtn_state_t get_state(const lv_obj_t * imgbtn)
 336:Middlewares/lvgl/src/extra/widgets/imgbtn/lv_imgbtn.c **** {
 371              		.loc 1 336 1 is_stmt 1 view -0
 372              		.cfi_startproc
 373              		@ args = 0, pretend = 0, frame = 0
 374              		@ frame_needed = 0, uses_anonymous_args = 0
 375              		.loc 1 336 1 is_stmt 0 view .LVU91
 376 0000 08B5     		push	{r3, lr}
 377              	.LCFI2:
 378              		.cfi_def_cfa_offset 8
 379              		.cfi_offset 3, -8
 380              		.cfi_offset 14, -4
 337:Middlewares/lvgl/src/extra/widgets/imgbtn/lv_imgbtn.c ****     LV_ASSERT_OBJ(imgbtn, MY_CLASS);
 381              		.loc 1 337 5 is_stmt 1 view .LVU92
 382              		.loc 1 337 5 view .LVU93
 383              		.loc 1 337 5 view .LVU94
 338:Middlewares/lvgl/src/extra/widgets/imgbtn/lv_imgbtn.c **** 
 339:Middlewares/lvgl/src/extra/widgets/imgbtn/lv_imgbtn.c ****     lv_state_t obj_state = lv_obj_get_state(imgbtn);
 384              		.loc 1 339 5 view .LVU95
 385              		.loc 1 339 28 is_stmt 0 view .LVU96
 386 0002 FFF7FEFF 		bl	lv_obj_get_state
 387              	.LVL38:
 340:Middlewares/lvgl/src/extra/widgets/imgbtn/lv_imgbtn.c **** 
 341:Middlewares/lvgl/src/extra/widgets/imgbtn/lv_imgbtn.c ****     if(obj_state & LV_STATE_DISABLED) {
ARM GAS  /tmp/ccj8xyx4.s 			page 15


 388              		.loc 1 341 5 is_stmt 1 view .LVU97
 389              		.loc 1 341 7 is_stmt 0 view .LVU98
 390 0006 10F0800F 		tst	r0, #128
 391 000a 04D0     		beq	.L34
 342:Middlewares/lvgl/src/extra/widgets/imgbtn/lv_imgbtn.c ****         if(obj_state & LV_STATE_CHECKED) return LV_IMGBTN_STATE_CHECKED_DISABLED;
 392              		.loc 1 342 9 is_stmt 1 view .LVU99
 393              		.loc 1 342 11 is_stmt 0 view .LVU100
 394 000c 10F0010F 		tst	r0, #1
 395 0010 0ED0     		beq	.L37
 396              		.loc 1 342 49 view .LVU101
 397 0012 0520     		movs	r0, #5
 398              	.LVL39:
 399              	.L35:
 343:Middlewares/lvgl/src/extra/widgets/imgbtn/lv_imgbtn.c ****         else return LV_IMGBTN_STATE_DISABLED;
 344:Middlewares/lvgl/src/extra/widgets/imgbtn/lv_imgbtn.c ****     }
 345:Middlewares/lvgl/src/extra/widgets/imgbtn/lv_imgbtn.c **** 
 346:Middlewares/lvgl/src/extra/widgets/imgbtn/lv_imgbtn.c ****     if(obj_state & LV_STATE_CHECKED) {
 347:Middlewares/lvgl/src/extra/widgets/imgbtn/lv_imgbtn.c ****         if(obj_state & LV_STATE_PRESSED) return LV_IMGBTN_STATE_CHECKED_PRESSED;
 348:Middlewares/lvgl/src/extra/widgets/imgbtn/lv_imgbtn.c ****         else return LV_IMGBTN_STATE_CHECKED_RELEASED;
 349:Middlewares/lvgl/src/extra/widgets/imgbtn/lv_imgbtn.c ****     }
 350:Middlewares/lvgl/src/extra/widgets/imgbtn/lv_imgbtn.c ****     else {
 351:Middlewares/lvgl/src/extra/widgets/imgbtn/lv_imgbtn.c ****         if(obj_state & LV_STATE_PRESSED) return LV_IMGBTN_STATE_PRESSED;
 352:Middlewares/lvgl/src/extra/widgets/imgbtn/lv_imgbtn.c ****         else return LV_IMGBTN_STATE_RELEASED;
 353:Middlewares/lvgl/src/extra/widgets/imgbtn/lv_imgbtn.c ****     }
 354:Middlewares/lvgl/src/extra/widgets/imgbtn/lv_imgbtn.c **** }
 400              		.loc 1 354 1 view .LVU102
 401 0014 08BD     		pop	{r3, pc}
 402              	.LVL40:
 403              	.L34:
 346:Middlewares/lvgl/src/extra/widgets/imgbtn/lv_imgbtn.c ****         if(obj_state & LV_STATE_PRESSED) return LV_IMGBTN_STATE_CHECKED_PRESSED;
 404              		.loc 1 346 5 is_stmt 1 view .LVU103
 346:Middlewares/lvgl/src/extra/widgets/imgbtn/lv_imgbtn.c ****         if(obj_state & LV_STATE_PRESSED) return LV_IMGBTN_STATE_CHECKED_PRESSED;
 405              		.loc 1 346 7 is_stmt 0 view .LVU104
 406 0016 10F0010F 		tst	r0, #1
 407 001a 04D0     		beq	.L36
 347:Middlewares/lvgl/src/extra/widgets/imgbtn/lv_imgbtn.c ****         else return LV_IMGBTN_STATE_CHECKED_RELEASED;
 408              		.loc 1 347 9 is_stmt 1 view .LVU105
 347:Middlewares/lvgl/src/extra/widgets/imgbtn/lv_imgbtn.c ****         else return LV_IMGBTN_STATE_CHECKED_RELEASED;
 409              		.loc 1 347 11 is_stmt 0 view .LVU106
 410 001c 10F0200F 		tst	r0, #32
 411 0020 08D0     		beq	.L38
 347:Middlewares/lvgl/src/extra/widgets/imgbtn/lv_imgbtn.c ****         else return LV_IMGBTN_STATE_CHECKED_RELEASED;
 412              		.loc 1 347 49 view .LVU107
 413 0022 0420     		movs	r0, #4
 414              	.LVL41:
 347:Middlewares/lvgl/src/extra/widgets/imgbtn/lv_imgbtn.c ****         else return LV_IMGBTN_STATE_CHECKED_RELEASED;
 415              		.loc 1 347 49 view .LVU108
 416 0024 F6E7     		b	.L35
 417              	.LVL42:
 418              	.L36:
 351:Middlewares/lvgl/src/extra/widgets/imgbtn/lv_imgbtn.c ****         else return LV_IMGBTN_STATE_RELEASED;
 419              		.loc 1 351 9 is_stmt 1 view .LVU109
 351:Middlewares/lvgl/src/extra/widgets/imgbtn/lv_imgbtn.c ****         else return LV_IMGBTN_STATE_RELEASED;
 420              		.loc 1 351 11 is_stmt 0 view .LVU110
 421 0026 10F0200F 		tst	r0, #32
 422 002a 05D0     		beq	.L39
 351:Middlewares/lvgl/src/extra/widgets/imgbtn/lv_imgbtn.c ****         else return LV_IMGBTN_STATE_RELEASED;
ARM GAS  /tmp/ccj8xyx4.s 			page 16


 423              		.loc 1 351 49 view .LVU111
 424 002c 0120     		movs	r0, #1
 425              	.LVL43:
 351:Middlewares/lvgl/src/extra/widgets/imgbtn/lv_imgbtn.c ****         else return LV_IMGBTN_STATE_RELEASED;
 426              		.loc 1 351 49 view .LVU112
 427 002e F1E7     		b	.L35
 428              	.LVL44:
 429              	.L37:
 343:Middlewares/lvgl/src/extra/widgets/imgbtn/lv_imgbtn.c ****     }
 430              		.loc 1 343 21 view .LVU113
 431 0030 0220     		movs	r0, #2
 432              	.LVL45:
 343:Middlewares/lvgl/src/extra/widgets/imgbtn/lv_imgbtn.c ****     }
 433              		.loc 1 343 21 view .LVU114
 434 0032 EFE7     		b	.L35
 435              	.LVL46:
 436              	.L38:
 348:Middlewares/lvgl/src/extra/widgets/imgbtn/lv_imgbtn.c ****     }
 437              		.loc 1 348 21 view .LVU115
 438 0034 0320     		movs	r0, #3
 439              	.LVL47:
 348:Middlewares/lvgl/src/extra/widgets/imgbtn/lv_imgbtn.c ****     }
 440              		.loc 1 348 21 view .LVU116
 441 0036 EDE7     		b	.L35
 442              	.LVL48:
 443              	.L39:
 352:Middlewares/lvgl/src/extra/widgets/imgbtn/lv_imgbtn.c ****     }
 444              		.loc 1 352 21 view .LVU117
 445 0038 0020     		movs	r0, #0
 446              	.LVL49:
 352:Middlewares/lvgl/src/extra/widgets/imgbtn/lv_imgbtn.c ****     }
 447              		.loc 1 352 21 view .LVU118
 448 003a EBE7     		b	.L35
 449              		.cfi_endproc
 450              	.LFE194:
 452              		.section	.text.refr_img,"ax",%progbits
 453              		.align	1
 454              		.syntax unified
 455              		.thumb
 456              		.thumb_func
 457              		.fpu fpv4-sp-d16
 459              	refr_img:
 460              	.LVL50:
 461              	.LFB192:
 274:Middlewares/lvgl/src/extra/widgets/imgbtn/lv_imgbtn.c ****     lv_imgbtn_t * imgbtn = (lv_imgbtn_t *)obj;
 462              		.loc 1 274 1 is_stmt 1 view -0
 463              		.cfi_startproc
 464              		@ args = 0, pretend = 0, frame = 8
 465              		@ frame_needed = 0, uses_anonymous_args = 0
 274:Middlewares/lvgl/src/extra/widgets/imgbtn/lv_imgbtn.c ****     lv_imgbtn_t * imgbtn = (lv_imgbtn_t *)obj;
 466              		.loc 1 274 1 is_stmt 0 view .LVU120
 467 0000 10B5     		push	{r4, lr}
 468              	.LCFI3:
 469              		.cfi_def_cfa_offset 8
 470              		.cfi_offset 4, -8
 471              		.cfi_offset 14, -4
 472 0002 82B0     		sub	sp, sp, #8
ARM GAS  /tmp/ccj8xyx4.s 			page 17


 473              	.LCFI4:
 474              		.cfi_def_cfa_offset 16
 475 0004 0446     		mov	r4, r0
 275:Middlewares/lvgl/src/extra/widgets/imgbtn/lv_imgbtn.c ****     lv_imgbtn_state_t state  = suggest_state(obj, get_state(obj));
 476              		.loc 1 275 5 is_stmt 1 view .LVU121
 477              	.LVL51:
 276:Middlewares/lvgl/src/extra/widgets/imgbtn/lv_imgbtn.c ****     lv_img_header_t header;
 478              		.loc 1 276 5 view .LVU122
 276:Middlewares/lvgl/src/extra/widgets/imgbtn/lv_imgbtn.c ****     lv_img_header_t header;
 479              		.loc 1 276 32 is_stmt 0 view .LVU123
 480 0006 FFF7FEFF 		bl	get_state
 481              	.LVL52:
 276:Middlewares/lvgl/src/extra/widgets/imgbtn/lv_imgbtn.c ****     lv_img_header_t header;
 482              		.loc 1 276 32 view .LVU124
 483 000a 0146     		mov	r1, r0
 484 000c 2046     		mov	r0, r4
 485 000e FFF7FEFF 		bl	suggest_state
 486              	.LVL53:
 277:Middlewares/lvgl/src/extra/widgets/imgbtn/lv_imgbtn.c **** 
 487              		.loc 1 277 5 is_stmt 1 view .LVU125
 279:Middlewares/lvgl/src/extra/widgets/imgbtn/lv_imgbtn.c ****     if(src == NULL) return;
 488              		.loc 1 279 5 view .LVU126
 279:Middlewares/lvgl/src/extra/widgets/imgbtn/lv_imgbtn.c ****     if(src == NULL) return;
 489              		.loc 1 279 18 is_stmt 0 view .LVU127
 490 0012 0830     		adds	r0, r0, #8
 491              	.LVL54:
 279:Middlewares/lvgl/src/extra/widgets/imgbtn/lv_imgbtn.c ****     if(src == NULL) return;
 492              		.loc 1 279 18 view .LVU128
 493 0014 04EB8000 		add	r0, r4, r0, lsl #2
 494 0018 4068     		ldr	r0, [r0, #4]
 495              	.LVL55:
 280:Middlewares/lvgl/src/extra/widgets/imgbtn/lv_imgbtn.c **** 
 496              		.loc 1 280 5 is_stmt 1 view .LVU129
 280:Middlewares/lvgl/src/extra/widgets/imgbtn/lv_imgbtn.c **** 
 497              		.loc 1 280 7 is_stmt 0 view .LVU130
 498 001a 50B1     		cbz	r0, .L41
 282:Middlewares/lvgl/src/extra/widgets/imgbtn/lv_imgbtn.c ****     info_res = lv_img_decoder_get_info(src, &header);
 499              		.loc 1 282 5 is_stmt 1 view .LVU131
 500              	.LVL56:
 283:Middlewares/lvgl/src/extra/widgets/imgbtn/lv_imgbtn.c **** 
 501              		.loc 1 283 5 view .LVU132
 283:Middlewares/lvgl/src/extra/widgets/imgbtn/lv_imgbtn.c **** 
 502              		.loc 1 283 16 is_stmt 0 view .LVU133
 503 001c 01A9     		add	r1, sp, #4
 504 001e FFF7FEFF 		bl	lv_img_decoder_get_info
 505              	.LVL57:
 285:Middlewares/lvgl/src/extra/widgets/imgbtn/lv_imgbtn.c ****         imgbtn->act_cf = header.cf;
 506              		.loc 1 285 5 is_stmt 1 view .LVU134
 285:Middlewares/lvgl/src/extra/widgets/imgbtn/lv_imgbtn.c ****         imgbtn->act_cf = header.cf;
 507              		.loc 1 285 7 is_stmt 0 view .LVU135
 508 0022 0128     		cmp	r0, #1
 509 0024 07D0     		beq	.L47
 291:Middlewares/lvgl/src/extra/widgets/imgbtn/lv_imgbtn.c ****     }
 510              		.loc 1 291 9 is_stmt 1 view .LVU136
 291:Middlewares/lvgl/src/extra/widgets/imgbtn/lv_imgbtn.c ****     }
 511              		.loc 1 291 24 is_stmt 0 view .LVU137
 512 0026 0023     		movs	r3, #0
ARM GAS  /tmp/ccj8xyx4.s 			page 18


 513 0028 84F86C30 		strb	r3, [r4, #108]
 514              	.LVL58:
 515              	.L45:
 294:Middlewares/lvgl/src/extra/widgets/imgbtn/lv_imgbtn.c **** }
 516              		.loc 1 294 5 is_stmt 1 view .LVU138
 517 002c 2046     		mov	r0, r4
 518 002e FFF7FEFF 		bl	lv_obj_invalidate
 519              	.LVL59:
 520              	.L41:
 295:Middlewares/lvgl/src/extra/widgets/imgbtn/lv_imgbtn.c **** 
 521              		.loc 1 295 1 is_stmt 0 view .LVU139
 522 0032 02B0     		add	sp, sp, #8
 523              	.LCFI5:
 524              		.cfi_remember_state
 525              		.cfi_def_cfa_offset 8
 526              		@ sp needed
 527 0034 10BD     		pop	{r4, pc}
 528              	.LVL60:
 529              	.L47:
 530              	.LCFI6:
 531              		.cfi_restore_state
 286:Middlewares/lvgl/src/extra/widgets/imgbtn/lv_imgbtn.c ****         lv_obj_refresh_self_size(obj);
 532              		.loc 1 286 9 is_stmt 1 view .LVU140
 286:Middlewares/lvgl/src/extra/widgets/imgbtn/lv_imgbtn.c ****         lv_obj_refresh_self_size(obj);
 533              		.loc 1 286 32 is_stmt 0 view .LVU141
 534 0036 9DF80430 		ldrb	r3, [sp, #4]	@ zero_extendqisi2
 535 003a C3F30403 		ubfx	r3, r3, #0, #5
 286:Middlewares/lvgl/src/extra/widgets/imgbtn/lv_imgbtn.c ****         lv_obj_refresh_self_size(obj);
 536              		.loc 1 286 24 view .LVU142
 537 003e 84F86C30 		strb	r3, [r4, #108]
 287:Middlewares/lvgl/src/extra/widgets/imgbtn/lv_imgbtn.c ****         lv_obj_set_height(obj, header.h); /*Keep the user defined width*/
 538              		.loc 1 287 9 is_stmt 1 view .LVU143
 539 0042 2046     		mov	r0, r4
 540              	.LVL61:
 287:Middlewares/lvgl/src/extra/widgets/imgbtn/lv_imgbtn.c ****         lv_obj_set_height(obj, header.h); /*Keep the user defined width*/
 541              		.loc 1 287 9 is_stmt 0 view .LVU144
 542 0044 FFF7FEFF 		bl	lv_obj_refresh_self_size
 543              	.LVL62:
 288:Middlewares/lvgl/src/extra/widgets/imgbtn/lv_imgbtn.c ****     }
 544              		.loc 1 288 9 is_stmt 1 view .LVU145
 288:Middlewares/lvgl/src/extra/widgets/imgbtn/lv_imgbtn.c ****     }
 545              		.loc 1 288 38 is_stmt 0 view .LVU146
 546 0048 BDF80610 		ldrh	r1, [sp, #6]
 288:Middlewares/lvgl/src/extra/widgets/imgbtn/lv_imgbtn.c ****     }
 547              		.loc 1 288 9 view .LVU147
 548 004c C1F34A11 		ubfx	r1, r1, #5, #11
 549 0050 2046     		mov	r0, r4
 550 0052 FFF7FEFF 		bl	lv_obj_set_height
 551              	.LVL63:
 552 0056 E9E7     		b	.L45
 553              		.cfi_endproc
 554              	.LFE192:
 556              		.section	.text.lv_imgbtn_set_src,"ax",%progbits
 557              		.align	1
 558              		.global	lv_imgbtn_set_src
 559              		.syntax unified
 560              		.thumb
ARM GAS  /tmp/ccj8xyx4.s 			page 19


 561              		.thumb_func
 562              		.fpu fpv4-sp-d16
 564              	lv_imgbtn_set_src:
 565              	.LVL64:
 566              	.LFB185:
  81:Middlewares/lvgl/src/extra/widgets/imgbtn/lv_imgbtn.c ****     LV_ASSERT_OBJ(obj, MY_CLASS);
 567              		.loc 1 81 1 is_stmt 1 view -0
 568              		.cfi_startproc
 569              		@ args = 4, pretend = 0, frame = 0
 570              		@ frame_needed = 0, uses_anonymous_args = 0
  81:Middlewares/lvgl/src/extra/widgets/imgbtn/lv_imgbtn.c ****     LV_ASSERT_OBJ(obj, MY_CLASS);
 571              		.loc 1 81 1 is_stmt 0 view .LVU149
 572 0000 08B5     		push	{r3, lr}
 573              	.LCFI7:
 574              		.cfi_def_cfa_offset 8
 575              		.cfi_offset 3, -8
 576              		.cfi_offset 14, -4
  82:Middlewares/lvgl/src/extra/widgets/imgbtn/lv_imgbtn.c **** 
 577              		.loc 1 82 5 is_stmt 1 view .LVU150
  82:Middlewares/lvgl/src/extra/widgets/imgbtn/lv_imgbtn.c **** 
 578              		.loc 1 82 5 view .LVU151
  82:Middlewares/lvgl/src/extra/widgets/imgbtn/lv_imgbtn.c **** 
 579              		.loc 1 82 5 view .LVU152
  84:Middlewares/lvgl/src/extra/widgets/imgbtn/lv_imgbtn.c **** 
 580              		.loc 1 84 5 view .LVU153
 581              	.LVL65:
  86:Middlewares/lvgl/src/extra/widgets/imgbtn/lv_imgbtn.c ****     imgbtn->img_src_mid[state] = src_mid;
 582              		.loc 1 86 5 view .LVU154
  86:Middlewares/lvgl/src/extra/widgets/imgbtn/lv_imgbtn.c ****     imgbtn->img_src_mid[state] = src_mid;
 583              		.loc 1 86 33 is_stmt 0 view .LVU155
 584 0002 01F10E0E 		add	lr, r1, #14
 585 0006 00EB8E0E 		add	lr, r0, lr, lsl #2
 586 000a CEF80420 		str	r2, [lr, #4]
  87:Middlewares/lvgl/src/extra/widgets/imgbtn/lv_imgbtn.c ****     imgbtn->img_src_right[state] = src_right;
 587              		.loc 1 87 5 is_stmt 1 view .LVU156
  87:Middlewares/lvgl/src/extra/widgets/imgbtn/lv_imgbtn.c ****     imgbtn->img_src_right[state] = src_right;
 588              		.loc 1 87 32 is_stmt 0 view .LVU157
 589 000e 01F10802 		add	r2, r1, #8
 590              	.LVL66:
  87:Middlewares/lvgl/src/extra/widgets/imgbtn/lv_imgbtn.c ****     imgbtn->img_src_right[state] = src_right;
 591              		.loc 1 87 32 view .LVU158
 592 0012 00EB8202 		add	r2, r0, r2, lsl #2
 593 0016 5360     		str	r3, [r2, #4]
 594              	.LVL67:
  88:Middlewares/lvgl/src/extra/widgets/imgbtn/lv_imgbtn.c **** 
 595              		.loc 1 88 5 is_stmt 1 view .LVU159
  88:Middlewares/lvgl/src/extra/widgets/imgbtn/lv_imgbtn.c **** 
 596              		.loc 1 88 34 is_stmt 0 view .LVU160
 597 0018 1431     		adds	r1, r1, #20
 598              	.LVL68:
  88:Middlewares/lvgl/src/extra/widgets/imgbtn/lv_imgbtn.c **** 
 599              		.loc 1 88 34 view .LVU161
 600 001a 00EB810C 		add	ip, r0, r1, lsl #2
 601 001e 029B     		ldr	r3, [sp, #8]
 602              	.LVL69:
  88:Middlewares/lvgl/src/extra/widgets/imgbtn/lv_imgbtn.c **** 
 603              		.loc 1 88 34 view .LVU162
ARM GAS  /tmp/ccj8xyx4.s 			page 20


 604 0020 CCF80430 		str	r3, [ip, #4]
 605              	.LVL70:
  90:Middlewares/lvgl/src/extra/widgets/imgbtn/lv_imgbtn.c **** }
 606              		.loc 1 90 5 is_stmt 1 view .LVU163
 607 0024 FFF7FEFF 		bl	refr_img
 608              	.LVL71:
  91:Middlewares/lvgl/src/extra/widgets/imgbtn/lv_imgbtn.c **** 
 609              		.loc 1 91 1 is_stmt 0 view .LVU164
 610 0028 08BD     		pop	{r3, pc}
  91:Middlewares/lvgl/src/extra/widgets/imgbtn/lv_imgbtn.c **** 
 611              		.loc 1 91 1 view .LVU165
 612              		.cfi_endproc
 613              	.LFE185:
 615              		.section	.text.draw_main,"ax",%progbits
 616              		.align	1
 617              		.syntax unified
 618              		.thumb
 619              		.thumb_func
 620              		.fpu fpv4-sp-d16
 622              	draw_main:
 623              	.LVL72:
 624              	.LFB191:
 194:Middlewares/lvgl/src/extra/widgets/imgbtn/lv_imgbtn.c ****     lv_obj_t * obj = lv_event_get_target(e);
 625              		.loc 1 194 1 is_stmt 1 view -0
 626              		.cfi_startproc
 627              		@ args = 0, pretend = 0, frame = 72
 628              		@ frame_needed = 0, uses_anonymous_args = 0
 194:Middlewares/lvgl/src/extra/widgets/imgbtn/lv_imgbtn.c ****     lv_obj_t * obj = lv_event_get_target(e);
 629              		.loc 1 194 1 is_stmt 0 view .LVU167
 630 0000 2DE9F04F 		push	{r4, r5, r6, r7, r8, r9, r10, fp, lr}
 631              	.LCFI8:
 632              		.cfi_def_cfa_offset 36
 633              		.cfi_offset 4, -36
 634              		.cfi_offset 5, -32
 635              		.cfi_offset 6, -28
 636              		.cfi_offset 7, -24
 637              		.cfi_offset 8, -20
 638              		.cfi_offset 9, -16
 639              		.cfi_offset 10, -12
 640              		.cfi_offset 11, -8
 641              		.cfi_offset 14, -4
 642 0004 93B0     		sub	sp, sp, #76
 643              	.LCFI9:
 644              		.cfi_def_cfa_offset 112
 645 0006 0546     		mov	r5, r0
 195:Middlewares/lvgl/src/extra/widgets/imgbtn/lv_imgbtn.c ****     lv_imgbtn_t * imgbtn = (lv_imgbtn_t *)obj;
 646              		.loc 1 195 5 is_stmt 1 view .LVU168
 195:Middlewares/lvgl/src/extra/widgets/imgbtn/lv_imgbtn.c ****     lv_imgbtn_t * imgbtn = (lv_imgbtn_t *)obj;
 647              		.loc 1 195 22 is_stmt 0 view .LVU169
 648 0008 FFF7FEFF 		bl	lv_event_get_target
 649              	.LVL73:
 195:Middlewares/lvgl/src/extra/widgets/imgbtn/lv_imgbtn.c ****     lv_imgbtn_t * imgbtn = (lv_imgbtn_t *)obj;
 650              		.loc 1 195 22 view .LVU170
 651 000c 0446     		mov	r4, r0
 652              	.LVL74:
 196:Middlewares/lvgl/src/extra/widgets/imgbtn/lv_imgbtn.c ****     const lv_area_t * clip_area = lv_event_get_param(e);
 653              		.loc 1 196 5 is_stmt 1 view .LVU171
ARM GAS  /tmp/ccj8xyx4.s 			page 21


 197:Middlewares/lvgl/src/extra/widgets/imgbtn/lv_imgbtn.c **** 
 654              		.loc 1 197 5 view .LVU172
 197:Middlewares/lvgl/src/extra/widgets/imgbtn/lv_imgbtn.c **** 
 655              		.loc 1 197 35 is_stmt 0 view .LVU173
 656 000e 2846     		mov	r0, r5
 657              	.LVL75:
 197:Middlewares/lvgl/src/extra/widgets/imgbtn/lv_imgbtn.c **** 
 658              		.loc 1 197 35 view .LVU174
 659 0010 FFF7FEFF 		bl	lv_event_get_param
 660              	.LVL76:
 661 0014 0090     		str	r0, [sp]
 662              	.LVL77:
 200:Middlewares/lvgl/src/extra/widgets/imgbtn/lv_imgbtn.c **** 
 663              		.loc 1 200 5 is_stmt 1 view .LVU175
 200:Middlewares/lvgl/src/extra/widgets/imgbtn/lv_imgbtn.c **** 
 664              		.loc 1 200 32 is_stmt 0 view .LVU176
 665 0016 2046     		mov	r0, r4
 666              	.LVL78:
 200:Middlewares/lvgl/src/extra/widgets/imgbtn/lv_imgbtn.c **** 
 667              		.loc 1 200 32 view .LVU177
 668 0018 FFF7FEFF 		bl	get_state
 669              	.LVL79:
 670 001c 0146     		mov	r1, r0
 671 001e 2046     		mov	r0, r4
 672 0020 FFF7FEFF 		bl	suggest_state
 673              	.LVL80:
 674 0024 8146     		mov	r9, r0
 675              	.LVL81:
 203:Middlewares/lvgl/src/extra/widgets/imgbtn/lv_imgbtn.c **** 
 676              		.loc 1 203 5 is_stmt 1 view .LVU178
 203:Middlewares/lvgl/src/extra/widgets/imgbtn/lv_imgbtn.c **** 
 677              		.loc 1 203 18 is_stmt 0 view .LVU179
 678 0026 00F10E03 		add	r3, r0, #14
 679 002a 04EB8303 		add	r3, r4, r3, lsl #2
 680 002e D3F804B0 		ldr	fp, [r3, #4]
 681              	.LVL82:
 205:Middlewares/lvgl/src/extra/widgets/imgbtn/lv_imgbtn.c ****     lv_coord_t th = lv_obj_get_style_transform_height(obj, LV_PART_MAIN);
 682              		.loc 1 205 5 is_stmt 1 view .LVU180
 683              	.LBB10:
 684              	.LBI10:
 685              		.file 2 "Middlewares/lvgl/src/extra/widgets/imgbtn/../../../../src/core/lv_obj_style_gen.h"
   1:Middlewares/lvgl/src/extra/widgets/imgbtn/../../../../src/core/lv_obj_style_gen.h **** static inline lv_coord_t lv_obj_get_style_width(const struct _lv_obj_t * obj, uint32_t part)
   2:Middlewares/lvgl/src/extra/widgets/imgbtn/../../../../src/core/lv_obj_style_gen.h **** {
   3:Middlewares/lvgl/src/extra/widgets/imgbtn/../../../../src/core/lv_obj_style_gen.h ****     lv_style_value_t v = lv_obj_get_style_prop(obj, part, LV_STYLE_WIDTH);
   4:Middlewares/lvgl/src/extra/widgets/imgbtn/../../../../src/core/lv_obj_style_gen.h ****     return (lv_coord_t)v.num;
   5:Middlewares/lvgl/src/extra/widgets/imgbtn/../../../../src/core/lv_obj_style_gen.h **** }
   6:Middlewares/lvgl/src/extra/widgets/imgbtn/../../../../src/core/lv_obj_style_gen.h **** 
   7:Middlewares/lvgl/src/extra/widgets/imgbtn/../../../../src/core/lv_obj_style_gen.h **** static inline lv_coord_t lv_obj_get_style_min_width(const struct _lv_obj_t * obj, uint32_t part)
   8:Middlewares/lvgl/src/extra/widgets/imgbtn/../../../../src/core/lv_obj_style_gen.h **** {
   9:Middlewares/lvgl/src/extra/widgets/imgbtn/../../../../src/core/lv_obj_style_gen.h ****     lv_style_value_t v = lv_obj_get_style_prop(obj, part, LV_STYLE_MIN_WIDTH);
  10:Middlewares/lvgl/src/extra/widgets/imgbtn/../../../../src/core/lv_obj_style_gen.h ****     return (lv_coord_t)v.num;
  11:Middlewares/lvgl/src/extra/widgets/imgbtn/../../../../src/core/lv_obj_style_gen.h **** }
  12:Middlewares/lvgl/src/extra/widgets/imgbtn/../../../../src/core/lv_obj_style_gen.h **** 
  13:Middlewares/lvgl/src/extra/widgets/imgbtn/../../../../src/core/lv_obj_style_gen.h **** static inline lv_coord_t lv_obj_get_style_max_width(const struct _lv_obj_t * obj, uint32_t part)
  14:Middlewares/lvgl/src/extra/widgets/imgbtn/../../../../src/core/lv_obj_style_gen.h **** {
  15:Middlewares/lvgl/src/extra/widgets/imgbtn/../../../../src/core/lv_obj_style_gen.h ****     lv_style_value_t v = lv_obj_get_style_prop(obj, part, LV_STYLE_MAX_WIDTH);
  16:Middlewares/lvgl/src/extra/widgets/imgbtn/../../../../src/core/lv_obj_style_gen.h ****     return (lv_coord_t)v.num;
ARM GAS  /tmp/ccj8xyx4.s 			page 22


  17:Middlewares/lvgl/src/extra/widgets/imgbtn/../../../../src/core/lv_obj_style_gen.h **** }
  18:Middlewares/lvgl/src/extra/widgets/imgbtn/../../../../src/core/lv_obj_style_gen.h **** 
  19:Middlewares/lvgl/src/extra/widgets/imgbtn/../../../../src/core/lv_obj_style_gen.h **** static inline lv_coord_t lv_obj_get_style_height(const struct _lv_obj_t * obj, uint32_t part)
  20:Middlewares/lvgl/src/extra/widgets/imgbtn/../../../../src/core/lv_obj_style_gen.h **** {
  21:Middlewares/lvgl/src/extra/widgets/imgbtn/../../../../src/core/lv_obj_style_gen.h ****     lv_style_value_t v = lv_obj_get_style_prop(obj, part, LV_STYLE_HEIGHT);
  22:Middlewares/lvgl/src/extra/widgets/imgbtn/../../../../src/core/lv_obj_style_gen.h ****     return (lv_coord_t)v.num;
  23:Middlewares/lvgl/src/extra/widgets/imgbtn/../../../../src/core/lv_obj_style_gen.h **** }
  24:Middlewares/lvgl/src/extra/widgets/imgbtn/../../../../src/core/lv_obj_style_gen.h **** 
  25:Middlewares/lvgl/src/extra/widgets/imgbtn/../../../../src/core/lv_obj_style_gen.h **** static inline lv_coord_t lv_obj_get_style_min_height(const struct _lv_obj_t * obj, uint32_t part)
  26:Middlewares/lvgl/src/extra/widgets/imgbtn/../../../../src/core/lv_obj_style_gen.h **** {
  27:Middlewares/lvgl/src/extra/widgets/imgbtn/../../../../src/core/lv_obj_style_gen.h ****     lv_style_value_t v = lv_obj_get_style_prop(obj, part, LV_STYLE_MIN_HEIGHT);
  28:Middlewares/lvgl/src/extra/widgets/imgbtn/../../../../src/core/lv_obj_style_gen.h ****     return (lv_coord_t)v.num;
  29:Middlewares/lvgl/src/extra/widgets/imgbtn/../../../../src/core/lv_obj_style_gen.h **** }
  30:Middlewares/lvgl/src/extra/widgets/imgbtn/../../../../src/core/lv_obj_style_gen.h **** 
  31:Middlewares/lvgl/src/extra/widgets/imgbtn/../../../../src/core/lv_obj_style_gen.h **** static inline lv_coord_t lv_obj_get_style_max_height(const struct _lv_obj_t * obj, uint32_t part)
  32:Middlewares/lvgl/src/extra/widgets/imgbtn/../../../../src/core/lv_obj_style_gen.h **** {
  33:Middlewares/lvgl/src/extra/widgets/imgbtn/../../../../src/core/lv_obj_style_gen.h ****     lv_style_value_t v = lv_obj_get_style_prop(obj, part, LV_STYLE_MAX_HEIGHT);
  34:Middlewares/lvgl/src/extra/widgets/imgbtn/../../../../src/core/lv_obj_style_gen.h ****     return (lv_coord_t)v.num;
  35:Middlewares/lvgl/src/extra/widgets/imgbtn/../../../../src/core/lv_obj_style_gen.h **** }
  36:Middlewares/lvgl/src/extra/widgets/imgbtn/../../../../src/core/lv_obj_style_gen.h **** 
  37:Middlewares/lvgl/src/extra/widgets/imgbtn/../../../../src/core/lv_obj_style_gen.h **** static inline lv_coord_t lv_obj_get_style_x(const struct _lv_obj_t * obj, uint32_t part)
  38:Middlewares/lvgl/src/extra/widgets/imgbtn/../../../../src/core/lv_obj_style_gen.h **** {
  39:Middlewares/lvgl/src/extra/widgets/imgbtn/../../../../src/core/lv_obj_style_gen.h ****     lv_style_value_t v = lv_obj_get_style_prop(obj, part, LV_STYLE_X);
  40:Middlewares/lvgl/src/extra/widgets/imgbtn/../../../../src/core/lv_obj_style_gen.h ****     return (lv_coord_t)v.num;
  41:Middlewares/lvgl/src/extra/widgets/imgbtn/../../../../src/core/lv_obj_style_gen.h **** }
  42:Middlewares/lvgl/src/extra/widgets/imgbtn/../../../../src/core/lv_obj_style_gen.h **** 
  43:Middlewares/lvgl/src/extra/widgets/imgbtn/../../../../src/core/lv_obj_style_gen.h **** static inline lv_coord_t lv_obj_get_style_y(const struct _lv_obj_t * obj, uint32_t part)
  44:Middlewares/lvgl/src/extra/widgets/imgbtn/../../../../src/core/lv_obj_style_gen.h **** {
  45:Middlewares/lvgl/src/extra/widgets/imgbtn/../../../../src/core/lv_obj_style_gen.h ****     lv_style_value_t v = lv_obj_get_style_prop(obj, part, LV_STYLE_Y);
  46:Middlewares/lvgl/src/extra/widgets/imgbtn/../../../../src/core/lv_obj_style_gen.h ****     return (lv_coord_t)v.num;
  47:Middlewares/lvgl/src/extra/widgets/imgbtn/../../../../src/core/lv_obj_style_gen.h **** }
  48:Middlewares/lvgl/src/extra/widgets/imgbtn/../../../../src/core/lv_obj_style_gen.h **** 
  49:Middlewares/lvgl/src/extra/widgets/imgbtn/../../../../src/core/lv_obj_style_gen.h **** static inline lv_align_t lv_obj_get_style_align(const struct _lv_obj_t * obj, uint32_t part)
  50:Middlewares/lvgl/src/extra/widgets/imgbtn/../../../../src/core/lv_obj_style_gen.h **** {
  51:Middlewares/lvgl/src/extra/widgets/imgbtn/../../../../src/core/lv_obj_style_gen.h ****     lv_style_value_t v = lv_obj_get_style_prop(obj, part, LV_STYLE_ALIGN);
  52:Middlewares/lvgl/src/extra/widgets/imgbtn/../../../../src/core/lv_obj_style_gen.h ****     return (lv_align_t)v.num;
  53:Middlewares/lvgl/src/extra/widgets/imgbtn/../../../../src/core/lv_obj_style_gen.h **** }
  54:Middlewares/lvgl/src/extra/widgets/imgbtn/../../../../src/core/lv_obj_style_gen.h **** 
  55:Middlewares/lvgl/src/extra/widgets/imgbtn/../../../../src/core/lv_obj_style_gen.h **** static inline lv_coord_t lv_obj_get_style_transform_width(const struct _lv_obj_t * obj, uint32_t pa
 686              		.loc 2 55 26 view .LVU181
 687              	.LBB11:
  56:Middlewares/lvgl/src/extra/widgets/imgbtn/../../../../src/core/lv_obj_style_gen.h **** {
  57:Middlewares/lvgl/src/extra/widgets/imgbtn/../../../../src/core/lv_obj_style_gen.h ****     lv_style_value_t v = lv_obj_get_style_prop(obj, part, LV_STYLE_TRANSFORM_WIDTH);
 688              		.loc 2 57 5 view .LVU182
 689              		.loc 2 57 26 is_stmt 0 view .LVU183
 690 0032 40F60A02 		movw	r2, #2058
 691 0036 0021     		movs	r1, #0
 692 0038 2046     		mov	r0, r4
 693              	.LVL83:
 694              		.loc 2 57 26 view .LVU184
 695 003a FFF7FEFF 		bl	lv_obj_get_style_prop
 696              	.LVL84:
 697 003e 0546     		mov	r5, r0
 698              	.LVL85:
  58:Middlewares/lvgl/src/extra/widgets/imgbtn/../../../../src/core/lv_obj_style_gen.h ****     return (lv_coord_t)v.num;
 699              		.loc 2 58 5 is_stmt 1 view .LVU185
 700              		.loc 2 58 5 is_stmt 0 view .LVU186
ARM GAS  /tmp/ccj8xyx4.s 			page 23


 701              	.LBE11:
 702              	.LBE10:
 206:Middlewares/lvgl/src/extra/widgets/imgbtn/lv_imgbtn.c ****     lv_area_t coords;
 703              		.loc 1 206 5 is_stmt 1 view .LVU187
 704              	.LBB12:
 705              	.LBI12:
  59:Middlewares/lvgl/src/extra/widgets/imgbtn/../../../../src/core/lv_obj_style_gen.h **** }
  60:Middlewares/lvgl/src/extra/widgets/imgbtn/../../../../src/core/lv_obj_style_gen.h **** 
  61:Middlewares/lvgl/src/extra/widgets/imgbtn/../../../../src/core/lv_obj_style_gen.h **** static inline lv_coord_t lv_obj_get_style_transform_height(const struct _lv_obj_t * obj, uint32_t p
 706              		.loc 2 61 26 view .LVU188
 707              	.LBB13:
  62:Middlewares/lvgl/src/extra/widgets/imgbtn/../../../../src/core/lv_obj_style_gen.h **** {
  63:Middlewares/lvgl/src/extra/widgets/imgbtn/../../../../src/core/lv_obj_style_gen.h ****     lv_style_value_t v = lv_obj_get_style_prop(obj, part, LV_STYLE_TRANSFORM_HEIGHT);
 708              		.loc 2 63 5 view .LVU189
 709              		.loc 2 63 26 is_stmt 0 view .LVU190
 710 0040 40F60B02 		movw	r2, #2059
 711 0044 0021     		movs	r1, #0
 712 0046 2046     		mov	r0, r4
 713 0048 FFF7FEFF 		bl	lv_obj_get_style_prop
 714              	.LVL86:
  64:Middlewares/lvgl/src/extra/widgets/imgbtn/../../../../src/core/lv_obj_style_gen.h ****     return (lv_coord_t)v.num;
 715              		.loc 2 64 5 is_stmt 1 view .LVU191
 716              		.loc 2 64 5 is_stmt 0 view .LVU192
 717              	.LBE13:
 718              	.LBE12:
 207:Middlewares/lvgl/src/extra/widgets/imgbtn/lv_imgbtn.c ****     lv_area_copy(&coords, &obj->coords);
 719              		.loc 1 207 5 is_stmt 1 view .LVU193
 208:Middlewares/lvgl/src/extra/widgets/imgbtn/lv_imgbtn.c ****     coords.x1 -= tw;
 720              		.loc 1 208 5 view .LVU194
 721              	.LBB14:
 722              	.LBI14:
 723              		.file 3 "Middlewares/lvgl/src/extra/widgets/imgbtn/../../../../src/hal/../misc/lv_area.h"
   1:Middlewares/lvgl/src/extra/widgets/imgbtn/../../../../src/hal/../misc/lv_area.h **** /**
   2:Middlewares/lvgl/src/extra/widgets/imgbtn/../../../../src/hal/../misc/lv_area.h ****  * @file lv_area.h
   3:Middlewares/lvgl/src/extra/widgets/imgbtn/../../../../src/hal/../misc/lv_area.h ****  *
   4:Middlewares/lvgl/src/extra/widgets/imgbtn/../../../../src/hal/../misc/lv_area.h ****  */
   5:Middlewares/lvgl/src/extra/widgets/imgbtn/../../../../src/hal/../misc/lv_area.h **** 
   6:Middlewares/lvgl/src/extra/widgets/imgbtn/../../../../src/hal/../misc/lv_area.h **** #ifndef LV_AREA_H
   7:Middlewares/lvgl/src/extra/widgets/imgbtn/../../../../src/hal/../misc/lv_area.h **** #define LV_AREA_H
   8:Middlewares/lvgl/src/extra/widgets/imgbtn/../../../../src/hal/../misc/lv_area.h **** 
   9:Middlewares/lvgl/src/extra/widgets/imgbtn/../../../../src/hal/../misc/lv_area.h **** #ifdef __cplusplus
  10:Middlewares/lvgl/src/extra/widgets/imgbtn/../../../../src/hal/../misc/lv_area.h **** extern "C" {
  11:Middlewares/lvgl/src/extra/widgets/imgbtn/../../../../src/hal/../misc/lv_area.h **** #endif
  12:Middlewares/lvgl/src/extra/widgets/imgbtn/../../../../src/hal/../misc/lv_area.h **** 
  13:Middlewares/lvgl/src/extra/widgets/imgbtn/../../../../src/hal/../misc/lv_area.h **** /*********************
  14:Middlewares/lvgl/src/extra/widgets/imgbtn/../../../../src/hal/../misc/lv_area.h ****  *      INCLUDES
  15:Middlewares/lvgl/src/extra/widgets/imgbtn/../../../../src/hal/../misc/lv_area.h ****  *********************/
  16:Middlewares/lvgl/src/extra/widgets/imgbtn/../../../../src/hal/../misc/lv_area.h **** #include "../lv_conf_internal.h"
  17:Middlewares/lvgl/src/extra/widgets/imgbtn/../../../../src/hal/../misc/lv_area.h **** #include <string.h>
  18:Middlewares/lvgl/src/extra/widgets/imgbtn/../../../../src/hal/../misc/lv_area.h **** #include <stdbool.h>
  19:Middlewares/lvgl/src/extra/widgets/imgbtn/../../../../src/hal/../misc/lv_area.h **** #include <stdint.h>
  20:Middlewares/lvgl/src/extra/widgets/imgbtn/../../../../src/hal/../misc/lv_area.h **** 
  21:Middlewares/lvgl/src/extra/widgets/imgbtn/../../../../src/hal/../misc/lv_area.h **** /*********************
  22:Middlewares/lvgl/src/extra/widgets/imgbtn/../../../../src/hal/../misc/lv_area.h ****  *      DEFINES
  23:Middlewares/lvgl/src/extra/widgets/imgbtn/../../../../src/hal/../misc/lv_area.h ****  *********************/
  24:Middlewares/lvgl/src/extra/widgets/imgbtn/../../../../src/hal/../misc/lv_area.h **** 
  25:Middlewares/lvgl/src/extra/widgets/imgbtn/../../../../src/hal/../misc/lv_area.h **** #define _LV_COORD_MAX_REDUCE    8192
ARM GAS  /tmp/ccj8xyx4.s 			page 24


  26:Middlewares/lvgl/src/extra/widgets/imgbtn/../../../../src/hal/../misc/lv_area.h **** 
  27:Middlewares/lvgl/src/extra/widgets/imgbtn/../../../../src/hal/../misc/lv_area.h **** #if LV_USE_LARGE_COORD
  28:Middlewares/lvgl/src/extra/widgets/imgbtn/../../../../src/hal/../misc/lv_area.h **** typedef int32_t lv_coord_t;
  29:Middlewares/lvgl/src/extra/widgets/imgbtn/../../../../src/hal/../misc/lv_area.h **** #else
  30:Middlewares/lvgl/src/extra/widgets/imgbtn/../../../../src/hal/../misc/lv_area.h **** typedef int16_t lv_coord_t;
  31:Middlewares/lvgl/src/extra/widgets/imgbtn/../../../../src/hal/../misc/lv_area.h **** #endif
  32:Middlewares/lvgl/src/extra/widgets/imgbtn/../../../../src/hal/../misc/lv_area.h **** 
  33:Middlewares/lvgl/src/extra/widgets/imgbtn/../../../../src/hal/../misc/lv_area.h **** /*To allow some special values in the end reduce the max value*/
  34:Middlewares/lvgl/src/extra/widgets/imgbtn/../../../../src/hal/../misc/lv_area.h **** #define LV_COORD_MAX ((lv_coord_t)((uint32_t)((uint32_t)1 << (8 * sizeof(lv_coord_t) - 1)) - _LV_CO
  35:Middlewares/lvgl/src/extra/widgets/imgbtn/../../../../src/hal/../misc/lv_area.h **** #define LV_COORD_MIN (-LV_COORD_MAX)
  36:Middlewares/lvgl/src/extra/widgets/imgbtn/../../../../src/hal/../misc/lv_area.h **** 
  37:Middlewares/lvgl/src/extra/widgets/imgbtn/../../../../src/hal/../misc/lv_area.h **** LV_EXPORT_CONST_INT(LV_COORD_MAX);
  38:Middlewares/lvgl/src/extra/widgets/imgbtn/../../../../src/hal/../misc/lv_area.h **** LV_EXPORT_CONST_INT(LV_COORD_MIN);
  39:Middlewares/lvgl/src/extra/widgets/imgbtn/../../../../src/hal/../misc/lv_area.h **** 
  40:Middlewares/lvgl/src/extra/widgets/imgbtn/../../../../src/hal/../misc/lv_area.h **** /**********************
  41:Middlewares/lvgl/src/extra/widgets/imgbtn/../../../../src/hal/../misc/lv_area.h ****  *      TYPEDEFS
  42:Middlewares/lvgl/src/extra/widgets/imgbtn/../../../../src/hal/../misc/lv_area.h ****  **********************/
  43:Middlewares/lvgl/src/extra/widgets/imgbtn/../../../../src/hal/../misc/lv_area.h **** 
  44:Middlewares/lvgl/src/extra/widgets/imgbtn/../../../../src/hal/../misc/lv_area.h **** /**
  45:Middlewares/lvgl/src/extra/widgets/imgbtn/../../../../src/hal/../misc/lv_area.h ****  * Represents a point on the screen.
  46:Middlewares/lvgl/src/extra/widgets/imgbtn/../../../../src/hal/../misc/lv_area.h ****  */
  47:Middlewares/lvgl/src/extra/widgets/imgbtn/../../../../src/hal/../misc/lv_area.h **** typedef struct {
  48:Middlewares/lvgl/src/extra/widgets/imgbtn/../../../../src/hal/../misc/lv_area.h ****     lv_coord_t x;
  49:Middlewares/lvgl/src/extra/widgets/imgbtn/../../../../src/hal/../misc/lv_area.h ****     lv_coord_t y;
  50:Middlewares/lvgl/src/extra/widgets/imgbtn/../../../../src/hal/../misc/lv_area.h **** } lv_point_t;
  51:Middlewares/lvgl/src/extra/widgets/imgbtn/../../../../src/hal/../misc/lv_area.h **** 
  52:Middlewares/lvgl/src/extra/widgets/imgbtn/../../../../src/hal/../misc/lv_area.h **** /** Represents an area of the screen.*/
  53:Middlewares/lvgl/src/extra/widgets/imgbtn/../../../../src/hal/../misc/lv_area.h **** typedef struct {
  54:Middlewares/lvgl/src/extra/widgets/imgbtn/../../../../src/hal/../misc/lv_area.h ****     lv_coord_t x1;
  55:Middlewares/lvgl/src/extra/widgets/imgbtn/../../../../src/hal/../misc/lv_area.h ****     lv_coord_t y1;
  56:Middlewares/lvgl/src/extra/widgets/imgbtn/../../../../src/hal/../misc/lv_area.h ****     lv_coord_t x2;
  57:Middlewares/lvgl/src/extra/widgets/imgbtn/../../../../src/hal/../misc/lv_area.h ****     lv_coord_t y2;
  58:Middlewares/lvgl/src/extra/widgets/imgbtn/../../../../src/hal/../misc/lv_area.h **** } lv_area_t;
  59:Middlewares/lvgl/src/extra/widgets/imgbtn/../../../../src/hal/../misc/lv_area.h **** 
  60:Middlewares/lvgl/src/extra/widgets/imgbtn/../../../../src/hal/../misc/lv_area.h **** /** Alignments*/
  61:Middlewares/lvgl/src/extra/widgets/imgbtn/../../../../src/hal/../misc/lv_area.h **** enum {
  62:Middlewares/lvgl/src/extra/widgets/imgbtn/../../../../src/hal/../misc/lv_area.h ****     LV_ALIGN_DEFAULT = 0,
  63:Middlewares/lvgl/src/extra/widgets/imgbtn/../../../../src/hal/../misc/lv_area.h ****     LV_ALIGN_TOP_LEFT,
  64:Middlewares/lvgl/src/extra/widgets/imgbtn/../../../../src/hal/../misc/lv_area.h ****     LV_ALIGN_TOP_MID,
  65:Middlewares/lvgl/src/extra/widgets/imgbtn/../../../../src/hal/../misc/lv_area.h ****     LV_ALIGN_TOP_RIGHT,
  66:Middlewares/lvgl/src/extra/widgets/imgbtn/../../../../src/hal/../misc/lv_area.h ****     LV_ALIGN_BOTTOM_LEFT,
  67:Middlewares/lvgl/src/extra/widgets/imgbtn/../../../../src/hal/../misc/lv_area.h ****     LV_ALIGN_BOTTOM_MID,
  68:Middlewares/lvgl/src/extra/widgets/imgbtn/../../../../src/hal/../misc/lv_area.h ****     LV_ALIGN_BOTTOM_RIGHT,
  69:Middlewares/lvgl/src/extra/widgets/imgbtn/../../../../src/hal/../misc/lv_area.h ****     LV_ALIGN_LEFT_MID,
  70:Middlewares/lvgl/src/extra/widgets/imgbtn/../../../../src/hal/../misc/lv_area.h ****     LV_ALIGN_RIGHT_MID,
  71:Middlewares/lvgl/src/extra/widgets/imgbtn/../../../../src/hal/../misc/lv_area.h ****     LV_ALIGN_CENTER,
  72:Middlewares/lvgl/src/extra/widgets/imgbtn/../../../../src/hal/../misc/lv_area.h **** 
  73:Middlewares/lvgl/src/extra/widgets/imgbtn/../../../../src/hal/../misc/lv_area.h ****     LV_ALIGN_OUT_TOP_LEFT,
  74:Middlewares/lvgl/src/extra/widgets/imgbtn/../../../../src/hal/../misc/lv_area.h ****     LV_ALIGN_OUT_TOP_MID,
  75:Middlewares/lvgl/src/extra/widgets/imgbtn/../../../../src/hal/../misc/lv_area.h ****     LV_ALIGN_OUT_TOP_RIGHT,
  76:Middlewares/lvgl/src/extra/widgets/imgbtn/../../../../src/hal/../misc/lv_area.h ****     LV_ALIGN_OUT_BOTTOM_LEFT,
  77:Middlewares/lvgl/src/extra/widgets/imgbtn/../../../../src/hal/../misc/lv_area.h ****     LV_ALIGN_OUT_BOTTOM_MID,
  78:Middlewares/lvgl/src/extra/widgets/imgbtn/../../../../src/hal/../misc/lv_area.h ****     LV_ALIGN_OUT_BOTTOM_RIGHT,
  79:Middlewares/lvgl/src/extra/widgets/imgbtn/../../../../src/hal/../misc/lv_area.h ****     LV_ALIGN_OUT_LEFT_TOP,
  80:Middlewares/lvgl/src/extra/widgets/imgbtn/../../../../src/hal/../misc/lv_area.h ****     LV_ALIGN_OUT_LEFT_MID,
  81:Middlewares/lvgl/src/extra/widgets/imgbtn/../../../../src/hal/../misc/lv_area.h ****     LV_ALIGN_OUT_LEFT_BOTTOM,
  82:Middlewares/lvgl/src/extra/widgets/imgbtn/../../../../src/hal/../misc/lv_area.h ****     LV_ALIGN_OUT_RIGHT_TOP,
ARM GAS  /tmp/ccj8xyx4.s 			page 25


  83:Middlewares/lvgl/src/extra/widgets/imgbtn/../../../../src/hal/../misc/lv_area.h ****     LV_ALIGN_OUT_RIGHT_MID,
  84:Middlewares/lvgl/src/extra/widgets/imgbtn/../../../../src/hal/../misc/lv_area.h ****     LV_ALIGN_OUT_RIGHT_BOTTOM,
  85:Middlewares/lvgl/src/extra/widgets/imgbtn/../../../../src/hal/../misc/lv_area.h **** };
  86:Middlewares/lvgl/src/extra/widgets/imgbtn/../../../../src/hal/../misc/lv_area.h **** typedef uint8_t lv_align_t;
  87:Middlewares/lvgl/src/extra/widgets/imgbtn/../../../../src/hal/../misc/lv_area.h **** 
  88:Middlewares/lvgl/src/extra/widgets/imgbtn/../../../../src/hal/../misc/lv_area.h **** enum {
  89:Middlewares/lvgl/src/extra/widgets/imgbtn/../../../../src/hal/../misc/lv_area.h ****     LV_DIR_NONE     = 0x00,
  90:Middlewares/lvgl/src/extra/widgets/imgbtn/../../../../src/hal/../misc/lv_area.h ****     LV_DIR_LEFT     = (1 << 0),
  91:Middlewares/lvgl/src/extra/widgets/imgbtn/../../../../src/hal/../misc/lv_area.h ****     LV_DIR_RIGHT    = (1 << 1),
  92:Middlewares/lvgl/src/extra/widgets/imgbtn/../../../../src/hal/../misc/lv_area.h ****     LV_DIR_TOP      = (1 << 2),
  93:Middlewares/lvgl/src/extra/widgets/imgbtn/../../../../src/hal/../misc/lv_area.h ****     LV_DIR_BOTTOM   = (1 << 3),
  94:Middlewares/lvgl/src/extra/widgets/imgbtn/../../../../src/hal/../misc/lv_area.h ****     LV_DIR_HOR      = LV_DIR_LEFT | LV_DIR_RIGHT,
  95:Middlewares/lvgl/src/extra/widgets/imgbtn/../../../../src/hal/../misc/lv_area.h ****     LV_DIR_VER      = LV_DIR_TOP | LV_DIR_BOTTOM,
  96:Middlewares/lvgl/src/extra/widgets/imgbtn/../../../../src/hal/../misc/lv_area.h ****     LV_DIR_ALL      = LV_DIR_HOR | LV_DIR_VER,
  97:Middlewares/lvgl/src/extra/widgets/imgbtn/../../../../src/hal/../misc/lv_area.h **** };
  98:Middlewares/lvgl/src/extra/widgets/imgbtn/../../../../src/hal/../misc/lv_area.h **** 
  99:Middlewares/lvgl/src/extra/widgets/imgbtn/../../../../src/hal/../misc/lv_area.h **** typedef uint8_t lv_dir_t;
 100:Middlewares/lvgl/src/extra/widgets/imgbtn/../../../../src/hal/../misc/lv_area.h **** 
 101:Middlewares/lvgl/src/extra/widgets/imgbtn/../../../../src/hal/../misc/lv_area.h **** /**********************
 102:Middlewares/lvgl/src/extra/widgets/imgbtn/../../../../src/hal/../misc/lv_area.h ****  * GLOBAL PROTOTYPES
 103:Middlewares/lvgl/src/extra/widgets/imgbtn/../../../../src/hal/../misc/lv_area.h ****  **********************/
 104:Middlewares/lvgl/src/extra/widgets/imgbtn/../../../../src/hal/../misc/lv_area.h **** 
 105:Middlewares/lvgl/src/extra/widgets/imgbtn/../../../../src/hal/../misc/lv_area.h **** /**
 106:Middlewares/lvgl/src/extra/widgets/imgbtn/../../../../src/hal/../misc/lv_area.h ****  * Initialize an area
 107:Middlewares/lvgl/src/extra/widgets/imgbtn/../../../../src/hal/../misc/lv_area.h ****  * @param area_p pointer to an area
 108:Middlewares/lvgl/src/extra/widgets/imgbtn/../../../../src/hal/../misc/lv_area.h ****  * @param x1 left coordinate of the area
 109:Middlewares/lvgl/src/extra/widgets/imgbtn/../../../../src/hal/../misc/lv_area.h ****  * @param y1 top coordinate of the area
 110:Middlewares/lvgl/src/extra/widgets/imgbtn/../../../../src/hal/../misc/lv_area.h ****  * @param x2 right coordinate of the area
 111:Middlewares/lvgl/src/extra/widgets/imgbtn/../../../../src/hal/../misc/lv_area.h ****  * @param y2 bottom coordinate of the area
 112:Middlewares/lvgl/src/extra/widgets/imgbtn/../../../../src/hal/../misc/lv_area.h ****  */
 113:Middlewares/lvgl/src/extra/widgets/imgbtn/../../../../src/hal/../misc/lv_area.h **** void lv_area_set(lv_area_t * area_p, lv_coord_t x1, lv_coord_t y1, lv_coord_t x2, lv_coord_t y2);
 114:Middlewares/lvgl/src/extra/widgets/imgbtn/../../../../src/hal/../misc/lv_area.h **** 
 115:Middlewares/lvgl/src/extra/widgets/imgbtn/../../../../src/hal/../misc/lv_area.h **** /**
 116:Middlewares/lvgl/src/extra/widgets/imgbtn/../../../../src/hal/../misc/lv_area.h ****  * Copy an area
 117:Middlewares/lvgl/src/extra/widgets/imgbtn/../../../../src/hal/../misc/lv_area.h ****  * @param dest pointer to the destination area
 118:Middlewares/lvgl/src/extra/widgets/imgbtn/../../../../src/hal/../misc/lv_area.h ****  * @param src pointer to the source area
 119:Middlewares/lvgl/src/extra/widgets/imgbtn/../../../../src/hal/../misc/lv_area.h ****  */
 120:Middlewares/lvgl/src/extra/widgets/imgbtn/../../../../src/hal/../misc/lv_area.h **** inline static void lv_area_copy(lv_area_t * dest, const lv_area_t * src)
 724              		.loc 3 120 20 view .LVU195
 725              	.LBB15:
 121:Middlewares/lvgl/src/extra/widgets/imgbtn/../../../../src/hal/../misc/lv_area.h **** {
 122:Middlewares/lvgl/src/extra/widgets/imgbtn/../../../../src/hal/../misc/lv_area.h ****     dest->x1 = src->x1;
 726              		.loc 3 122 5 view .LVU196
 727              		.loc 3 122 19 is_stmt 0 view .LVU197
 728 004c B4F91480 		ldrsh	r8, [r4, #20]
 729              		.loc 3 122 14 view .LVU198
 730 0050 ADF84080 		strh	r8, [sp, #64]	@ movhi
 123:Middlewares/lvgl/src/extra/widgets/imgbtn/../../../../src/hal/../misc/lv_area.h ****     dest->y1 = src->y1;
 731              		.loc 3 123 5 is_stmt 1 view .LVU199
 732              		.loc 3 123 19 is_stmt 0 view .LVU200
 733 0054 B4F91660 		ldrsh	r6, [r4, #22]
 734              		.loc 3 123 14 view .LVU201
 735 0058 ADF84260 		strh	r6, [sp, #66]	@ movhi
 124:Middlewares/lvgl/src/extra/widgets/imgbtn/../../../../src/hal/../misc/lv_area.h ****     dest->x2 = src->x2;
 736              		.loc 3 124 5 is_stmt 1 view .LVU202
 737              		.loc 3 124 19 is_stmt 0 view .LVU203
 738 005c B4F91830 		ldrsh	r3, [r4, #24]
ARM GAS  /tmp/ccj8xyx4.s 			page 26


 739              		.loc 3 124 14 view .LVU204
 740 0060 ADF84430 		strh	r3, [sp, #68]	@ movhi
 125:Middlewares/lvgl/src/extra/widgets/imgbtn/../../../../src/hal/../misc/lv_area.h ****     dest->y2 = src->y2;
 741              		.loc 3 125 5 is_stmt 1 view .LVU205
 742              		.loc 3 125 19 is_stmt 0 view .LVU206
 743 0064 B4F91A70 		ldrsh	r7, [r4, #26]
 744              		.loc 3 125 14 view .LVU207
 745 0068 ADF84670 		strh	r7, [sp, #70]	@ movhi
 746              	.LVL87:
 747              		.loc 3 125 14 view .LVU208
 748              	.LBE15:
 749              	.LBE14:
 209:Middlewares/lvgl/src/extra/widgets/imgbtn/lv_imgbtn.c ****     coords.x2 += tw;
 750              		.loc 1 209 5 is_stmt 1 view .LVU209
 209:Middlewares/lvgl/src/extra/widgets/imgbtn/lv_imgbtn.c ****     coords.x2 += tw;
 751              		.loc 1 209 15 is_stmt 0 view .LVU210
 752 006c ADB2     		uxth	r5, r5
 209:Middlewares/lvgl/src/extra/widgets/imgbtn/lv_imgbtn.c ****     coords.x2 += tw;
 753              		.loc 1 209 15 view .LVU211
 754 006e A8EB0508 		sub	r8, r8, r5
 755 0072 1FFA88F2 		uxth	r2, r8
 756 0076 0192     		str	r2, [sp, #4]
 757 0078 0FFA88F8 		sxth	r8, r8
 758 007c ADF84080 		strh	r8, [sp, #64]	@ movhi
 210:Middlewares/lvgl/src/extra/widgets/imgbtn/lv_imgbtn.c ****     coords.y1 -= th;
 759              		.loc 1 210 5 is_stmt 1 view .LVU212
 210:Middlewares/lvgl/src/extra/widgets/imgbtn/lv_imgbtn.c ****     coords.y1 -= th;
 760              		.loc 1 210 15 is_stmt 0 view .LVU213
 761 0080 1D44     		add	r5, r5, r3
 762              	.LVL88:
 210:Middlewares/lvgl/src/extra/widgets/imgbtn/lv_imgbtn.c ****     coords.y1 -= th;
 763              		.loc 1 210 15 view .LVU214
 764 0082 ABB2     		uxth	r3, r5
 765 0084 0293     		str	r3, [sp, #8]
 766 0086 2DB2     		sxth	r5, r5
 767 0088 ADF84450 		strh	r5, [sp, #68]	@ movhi
 211:Middlewares/lvgl/src/extra/widgets/imgbtn/lv_imgbtn.c ****     coords.y2 += th;
 768              		.loc 1 211 5 is_stmt 1 view .LVU215
 211:Middlewares/lvgl/src/extra/widgets/imgbtn/lv_imgbtn.c ****     coords.y2 += th;
 769              		.loc 1 211 15 is_stmt 0 view .LVU216
 770 008c 80B2     		uxth	r0, r0
 211:Middlewares/lvgl/src/extra/widgets/imgbtn/lv_imgbtn.c ****     coords.y2 += th;
 771              		.loc 1 211 15 view .LVU217
 772 008e 361A     		subs	r6, r6, r0
 773 0090 1FFA86FA 		uxth	r10, r6
 774 0094 36B2     		sxth	r6, r6
 775 0096 ADF84260 		strh	r6, [sp, #66]	@ movhi
 212:Middlewares/lvgl/src/extra/widgets/imgbtn/lv_imgbtn.c **** 
 776              		.loc 1 212 5 is_stmt 1 view .LVU218
 212:Middlewares/lvgl/src/extra/widgets/imgbtn/lv_imgbtn.c **** 
 777              		.loc 1 212 15 is_stmt 0 view .LVU219
 778 009a 3844     		add	r0, r0, r7
 779              	.LVL89:
 212:Middlewares/lvgl/src/extra/widgets/imgbtn/lv_imgbtn.c **** 
 780              		.loc 1 212 15 view .LVU220
 781 009c 07B2     		sxth	r7, r0
 782 009e ADF84670 		strh	r7, [sp, #70]	@ movhi
ARM GAS  /tmp/ccj8xyx4.s 			page 27


 214:Middlewares/lvgl/src/extra/widgets/imgbtn/lv_imgbtn.c ****     lv_draw_img_dsc_init(&img_dsc);
 783              		.loc 1 214 5 is_stmt 1 view .LVU221
 215:Middlewares/lvgl/src/extra/widgets/imgbtn/lv_imgbtn.c ****     lv_obj_init_draw_img_dsc(obj, LV_PART_MAIN, &img_dsc);
 784              		.loc 1 215 5 view .LVU222
 785 00a2 0AAB     		add	r3, sp, #40
 786 00a4 1846     		mov	r0, r3
 787 00a6 FFF7FEFF 		bl	lv_draw_img_dsc_init
 788              	.LVL90:
 216:Middlewares/lvgl/src/extra/widgets/imgbtn/lv_imgbtn.c **** 
 789              		.loc 1 216 5 view .LVU223
 790 00aa 0AAB     		add	r3, sp, #40
 791 00ac 1A46     		mov	r2, r3
 792 00ae 0021     		movs	r1, #0
 793 00b0 2046     		mov	r0, r4
 794 00b2 FFF7FEFF 		bl	lv_obj_init_draw_img_dsc
 795              	.LVL91:
 218:Middlewares/lvgl/src/extra/widgets/imgbtn/lv_imgbtn.c ****     lv_area_t coords_part;
 796              		.loc 1 218 5 view .LVU224
 219:Middlewares/lvgl/src/extra/widgets/imgbtn/lv_imgbtn.c ****     lv_coord_t left_w = 0;
 797              		.loc 1 219 5 view .LVU225
 220:Middlewares/lvgl/src/extra/widgets/imgbtn/lv_imgbtn.c ****     lv_coord_t right_w = 0;
 798              		.loc 1 220 5 view .LVU226
 221:Middlewares/lvgl/src/extra/widgets/imgbtn/lv_imgbtn.c **** 
 799              		.loc 1 221 5 view .LVU227
 223:Middlewares/lvgl/src/extra/widgets/imgbtn/lv_imgbtn.c ****         lv_img_decoder_get_info(src, &header);
 800              		.loc 1 223 5 view .LVU228
 223:Middlewares/lvgl/src/extra/widgets/imgbtn/lv_imgbtn.c ****         lv_img_decoder_get_info(src, &header);
 801              		.loc 1 223 7 is_stmt 0 view .LVU229
 802 00b6 BBF1000F 		cmp	fp, #0
 803 00ba 6AD0     		beq	.L57
 224:Middlewares/lvgl/src/extra/widgets/imgbtn/lv_imgbtn.c ****         left_w = header.w;
 804              		.loc 1 224 9 is_stmt 1 view .LVU230
 805 00bc 09A9     		add	r1, sp, #36
 806 00be 5846     		mov	r0, fp
 807 00c0 FFF7FEFF 		bl	lv_img_decoder_get_info
 808              	.LVL92:
 225:Middlewares/lvgl/src/extra/widgets/imgbtn/lv_imgbtn.c ****         coords_part.x1 = coords.x1;
 809              		.loc 1 225 9 view .LVU231
 225:Middlewares/lvgl/src/extra/widgets/imgbtn/lv_imgbtn.c ****         coords_part.x1 = coords.x1;
 810              		.loc 1 225 24 is_stmt 0 view .LVU232
 811 00c4 099A     		ldr	r2, [sp, #36]
 812 00c6 C2F38A23 		ubfx	r3, r2, #10, #11
 225:Middlewares/lvgl/src/extra/widgets/imgbtn/lv_imgbtn.c ****         coords_part.x1 = coords.x1;
 813              		.loc 1 225 16 view .LVU233
 814 00ca 0393     		str	r3, [sp, #12]
 815              	.LVL93:
 226:Middlewares/lvgl/src/extra/widgets/imgbtn/lv_imgbtn.c ****         coords_part.y1 = coords.y1;
 816              		.loc 1 226 9 is_stmt 1 view .LVU234
 226:Middlewares/lvgl/src/extra/widgets/imgbtn/lv_imgbtn.c ****         coords_part.y1 = coords.y1;
 817              		.loc 1 226 24 is_stmt 0 view .LVU235
 818 00cc ADF81C80 		strh	r8, [sp, #28]	@ movhi
 227:Middlewares/lvgl/src/extra/widgets/imgbtn/lv_imgbtn.c ****         coords_part.x2 = coords.x1 + header.w - 1;
 819              		.loc 1 227 9 is_stmt 1 view .LVU236
 227:Middlewares/lvgl/src/extra/widgets/imgbtn/lv_imgbtn.c ****         coords_part.x2 = coords.x1 + header.w - 1;
 820              		.loc 1 227 24 is_stmt 0 view .LVU237
 821 00d0 ADF81E60 		strh	r6, [sp, #30]	@ movhi
 228:Middlewares/lvgl/src/extra/widgets/imgbtn/lv_imgbtn.c ****         coords_part.y2 = coords.y1 + header.h - 1;
ARM GAS  /tmp/ccj8xyx4.s 			page 28


 822              		.loc 1 228 9 is_stmt 1 view .LVU238
 228:Middlewares/lvgl/src/extra/widgets/imgbtn/lv_imgbtn.c ****         coords_part.y2 = coords.y1 + header.h - 1;
 823              		.loc 1 228 36 is_stmt 0 view .LVU239
 824 00d4 019A     		ldr	r2, [sp, #4]
 825              	.LVL94:
 228:Middlewares/lvgl/src/extra/widgets/imgbtn/lv_imgbtn.c ****         coords_part.y2 = coords.y1 + header.h - 1;
 826              		.loc 1 228 36 view .LVU240
 827 00d6 1344     		add	r3, r3, r2
 828 00d8 9BB2     		uxth	r3, r3
 228:Middlewares/lvgl/src/extra/widgets/imgbtn/lv_imgbtn.c ****         coords_part.y2 = coords.y1 + header.h - 1;
 829              		.loc 1 228 47 view .LVU241
 830 00da 013B     		subs	r3, r3, #1
 228:Middlewares/lvgl/src/extra/widgets/imgbtn/lv_imgbtn.c ****         coords_part.y2 = coords.y1 + header.h - 1;
 831              		.loc 1 228 24 view .LVU242
 832 00dc ADF82030 		strh	r3, [sp, #32]	@ movhi
 229:Middlewares/lvgl/src/extra/widgets/imgbtn/lv_imgbtn.c ****         lv_draw_img(&coords_part, clip_area, src, &img_dsc);
 833              		.loc 1 229 9 is_stmt 1 view .LVU243
 229:Middlewares/lvgl/src/extra/widgets/imgbtn/lv_imgbtn.c ****         lv_draw_img(&coords_part, clip_area, src, &img_dsc);
 834              		.loc 1 229 44 is_stmt 0 view .LVU244
 835 00e0 BDF82630 		ldrh	r3, [sp, #38]
 836 00e4 C3F34A13 		ubfx	r3, r3, #5, #11
 229:Middlewares/lvgl/src/extra/widgets/imgbtn/lv_imgbtn.c ****         lv_draw_img(&coords_part, clip_area, src, &img_dsc);
 837              		.loc 1 229 36 view .LVU245
 838 00e8 5344     		add	r3, r3, r10
 839 00ea 9BB2     		uxth	r3, r3
 229:Middlewares/lvgl/src/extra/widgets/imgbtn/lv_imgbtn.c ****         lv_draw_img(&coords_part, clip_area, src, &img_dsc);
 840              		.loc 1 229 47 view .LVU246
 841 00ec 013B     		subs	r3, r3, #1
 229:Middlewares/lvgl/src/extra/widgets/imgbtn/lv_imgbtn.c ****         lv_draw_img(&coords_part, clip_area, src, &img_dsc);
 842              		.loc 1 229 24 view .LVU247
 843 00ee ADF82230 		strh	r3, [sp, #34]	@ movhi
 230:Middlewares/lvgl/src/extra/widgets/imgbtn/lv_imgbtn.c ****     }
 844              		.loc 1 230 9 is_stmt 1 view .LVU248
 845 00f2 0AAB     		add	r3, sp, #40
 846 00f4 5A46     		mov	r2, fp
 847 00f6 0099     		ldr	r1, [sp]
 848 00f8 07A8     		add	r0, sp, #28
 849 00fa FFF7FEFF 		bl	lv_draw_img
 850              	.LVL95:
 851              	.L51:
 233:Middlewares/lvgl/src/extra/widgets/imgbtn/lv_imgbtn.c ****     if(src) {
 852              		.loc 1 233 5 view .LVU249
 233:Middlewares/lvgl/src/extra/widgets/imgbtn/lv_imgbtn.c ****     if(src) {
 853              		.loc 1 233 9 is_stmt 0 view .LVU250
 854 00fe 09F11403 		add	r3, r9, #20
 855 0102 04EB8303 		add	r3, r4, r3, lsl #2
 856 0106 D3F804B0 		ldr	fp, [r3, #4]
 857              	.LVL96:
 234:Middlewares/lvgl/src/extra/widgets/imgbtn/lv_imgbtn.c ****         lv_img_decoder_get_info(src, &header);
 858              		.loc 1 234 5 is_stmt 1 view .LVU251
 234:Middlewares/lvgl/src/extra/widgets/imgbtn/lv_imgbtn.c ****         lv_img_decoder_get_info(src, &header);
 859              		.loc 1 234 7 is_stmt 0 view .LVU252
 860 010a BBF1000F 		cmp	fp, #0
 861 010e 43D0     		beq	.L58
 235:Middlewares/lvgl/src/extra/widgets/imgbtn/lv_imgbtn.c ****         right_w = header.w;
 862              		.loc 1 235 9 is_stmt 1 view .LVU253
 863 0110 09A9     		add	r1, sp, #36
ARM GAS  /tmp/ccj8xyx4.s 			page 29


 864 0112 5846     		mov	r0, fp
 865 0114 FFF7FEFF 		bl	lv_img_decoder_get_info
 866              	.LVL97:
 236:Middlewares/lvgl/src/extra/widgets/imgbtn/lv_imgbtn.c ****         coords_part.x1 = coords.x2 - header.w + 1;
 867              		.loc 1 236 9 view .LVU254
 236:Middlewares/lvgl/src/extra/widgets/imgbtn/lv_imgbtn.c ****         coords_part.x1 = coords.x2 - header.w + 1;
 868              		.loc 1 236 25 is_stmt 0 view .LVU255
 869 0118 099A     		ldr	r2, [sp, #36]
 870 011a C2F38A23 		ubfx	r3, r2, #10, #11
 236:Middlewares/lvgl/src/extra/widgets/imgbtn/lv_imgbtn.c ****         coords_part.x1 = coords.x2 - header.w + 1;
 871              		.loc 1 236 17 view .LVU256
 872 011e 9846     		mov	r8, r3
 873              	.LVL98:
 237:Middlewares/lvgl/src/extra/widgets/imgbtn/lv_imgbtn.c ****         coords_part.y1 = coords.y1;
 874              		.loc 1 237 9 is_stmt 1 view .LVU257
 237:Middlewares/lvgl/src/extra/widgets/imgbtn/lv_imgbtn.c ****         coords_part.y1 = coords.y1;
 875              		.loc 1 237 36 is_stmt 0 view .LVU258
 876 0120 029A     		ldr	r2, [sp, #8]
 877              	.LVL99:
 237:Middlewares/lvgl/src/extra/widgets/imgbtn/lv_imgbtn.c ****         coords_part.y1 = coords.y1;
 878              		.loc 1 237 36 view .LVU259
 879 0122 D31A     		subs	r3, r2, r3
 880 0124 9BB2     		uxth	r3, r3
 237:Middlewares/lvgl/src/extra/widgets/imgbtn/lv_imgbtn.c ****         coords_part.y1 = coords.y1;
 881              		.loc 1 237 47 view .LVU260
 882 0126 0133     		adds	r3, r3, #1
 237:Middlewares/lvgl/src/extra/widgets/imgbtn/lv_imgbtn.c ****         coords_part.y1 = coords.y1;
 883              		.loc 1 237 24 view .LVU261
 884 0128 ADF81C30 		strh	r3, [sp, #28]	@ movhi
 238:Middlewares/lvgl/src/extra/widgets/imgbtn/lv_imgbtn.c ****         coords_part.x2 = coords.x2;
 885              		.loc 1 238 9 is_stmt 1 view .LVU262
 238:Middlewares/lvgl/src/extra/widgets/imgbtn/lv_imgbtn.c ****         coords_part.x2 = coords.x2;
 886              		.loc 1 238 24 is_stmt 0 view .LVU263
 887 012c ADF81E60 		strh	r6, [sp, #30]	@ movhi
 239:Middlewares/lvgl/src/extra/widgets/imgbtn/lv_imgbtn.c ****         coords_part.y2 = coords.y1 + header.h - 1;
 888              		.loc 1 239 9 is_stmt 1 view .LVU264
 239:Middlewares/lvgl/src/extra/widgets/imgbtn/lv_imgbtn.c ****         coords_part.y2 = coords.y1 + header.h - 1;
 889              		.loc 1 239 24 is_stmt 0 view .LVU265
 890 0130 ADF82050 		strh	r5, [sp, #32]	@ movhi
 240:Middlewares/lvgl/src/extra/widgets/imgbtn/lv_imgbtn.c ****         lv_draw_img(&coords_part, clip_area, src, &img_dsc);
 891              		.loc 1 240 9 is_stmt 1 view .LVU266
 240:Middlewares/lvgl/src/extra/widgets/imgbtn/lv_imgbtn.c ****         lv_draw_img(&coords_part, clip_area, src, &img_dsc);
 892              		.loc 1 240 44 is_stmt 0 view .LVU267
 893 0134 BDF82630 		ldrh	r3, [sp, #38]
 894 0138 C3F34A13 		ubfx	r3, r3, #5, #11
 240:Middlewares/lvgl/src/extra/widgets/imgbtn/lv_imgbtn.c ****         lv_draw_img(&coords_part, clip_area, src, &img_dsc);
 895              		.loc 1 240 36 view .LVU268
 896 013c 5344     		add	r3, r3, r10
 897 013e 9BB2     		uxth	r3, r3
 240:Middlewares/lvgl/src/extra/widgets/imgbtn/lv_imgbtn.c ****         lv_draw_img(&coords_part, clip_area, src, &img_dsc);
 898              		.loc 1 240 47 view .LVU269
 899 0140 013B     		subs	r3, r3, #1
 240:Middlewares/lvgl/src/extra/widgets/imgbtn/lv_imgbtn.c ****         lv_draw_img(&coords_part, clip_area, src, &img_dsc);
 900              		.loc 1 240 24 view .LVU270
 901 0142 ADF82230 		strh	r3, [sp, #34]	@ movhi
 241:Middlewares/lvgl/src/extra/widgets/imgbtn/lv_imgbtn.c ****     }
 902              		.loc 1 241 9 is_stmt 1 view .LVU271
ARM GAS  /tmp/ccj8xyx4.s 			page 30


 903 0146 0AAB     		add	r3, sp, #40
 904 0148 5A46     		mov	r2, fp
 905 014a 0099     		ldr	r1, [sp]
 906 014c 07A8     		add	r0, sp, #28
 907 014e FFF7FEFF 		bl	lv_draw_img
 908              	.LVL100:
 909              	.L52:
 244:Middlewares/lvgl/src/extra/widgets/imgbtn/lv_imgbtn.c ****     if(src) {
 910              		.loc 1 244 5 view .LVU272
 244:Middlewares/lvgl/src/extra/widgets/imgbtn/lv_imgbtn.c ****     if(src) {
 911              		.loc 1 244 9 is_stmt 0 view .LVU273
 912 0152 09F10809 		add	r9, r9, #8
 913 0156 04EB8904 		add	r4, r4, r9, lsl #2
 914              	.LVL101:
 244:Middlewares/lvgl/src/extra/widgets/imgbtn/lv_imgbtn.c ****     if(src) {
 915              		.loc 1 244 9 view .LVU274
 916 015a 6468     		ldr	r4, [r4, #4]
 917              	.LVL102:
 245:Middlewares/lvgl/src/extra/widgets/imgbtn/lv_imgbtn.c ****         lv_area_t clip_center_area;
 918              		.loc 1 245 5 is_stmt 1 view .LVU275
 245:Middlewares/lvgl/src/extra/widgets/imgbtn/lv_imgbtn.c ****         lv_area_t clip_center_area;
 919              		.loc 1 245 7 is_stmt 0 view .LVU276
 920 015c B4B1     		cbz	r4, .L50
 921              	.LBB16:
 246:Middlewares/lvgl/src/extra/widgets/imgbtn/lv_imgbtn.c ****         clip_center_area.x1 = coords.x1 + left_w;
 922              		.loc 1 246 9 is_stmt 1 view .LVU277
 247:Middlewares/lvgl/src/extra/widgets/imgbtn/lv_imgbtn.c ****         clip_center_area.x2 = coords.x2 - right_w;
 923              		.loc 1 247 9 view .LVU278
 247:Middlewares/lvgl/src/extra/widgets/imgbtn/lv_imgbtn.c ****         clip_center_area.x2 = coords.x2 - right_w;
 924              		.loc 1 247 41 is_stmt 0 view .LVU279
 925 015e 019B     		ldr	r3, [sp, #4]
 926 0160 039A     		ldr	r2, [sp, #12]
 927 0162 1344     		add	r3, r3, r2
 928 0164 1FFA83F9 		uxth	r9, r3
 929 0168 1DB2     		sxth	r5, r3
 247:Middlewares/lvgl/src/extra/widgets/imgbtn/lv_imgbtn.c ****         clip_center_area.x2 = coords.x2 - right_w;
 930              		.loc 1 247 29 view .LVU280
 931 016a ADF81450 		strh	r5, [sp, #20]	@ movhi
 248:Middlewares/lvgl/src/extra/widgets/imgbtn/lv_imgbtn.c ****         clip_center_area.y1 = coords.y1;
 932              		.loc 1 248 9 is_stmt 1 view .LVU281
 248:Middlewares/lvgl/src/extra/widgets/imgbtn/lv_imgbtn.c ****         clip_center_area.y1 = coords.y1;
 933              		.loc 1 248 41 is_stmt 0 view .LVU282
 934 016e 029B     		ldr	r3, [sp, #8]
 935 0170 A3EB0808 		sub	r8, r3, r8
 936              	.LVL103:
 248:Middlewares/lvgl/src/extra/widgets/imgbtn/lv_imgbtn.c ****         clip_center_area.y1 = coords.y1;
 937              		.loc 1 248 29 view .LVU283
 938 0174 ADF81880 		strh	r8, [sp, #24]	@ movhi
 249:Middlewares/lvgl/src/extra/widgets/imgbtn/lv_imgbtn.c ****         clip_center_area.y2 = coords.y2;
 939              		.loc 1 249 9 is_stmt 1 view .LVU284
 249:Middlewares/lvgl/src/extra/widgets/imgbtn/lv_imgbtn.c ****         clip_center_area.y2 = coords.y2;
 940              		.loc 1 249 29 is_stmt 0 view .LVU285
 941 0178 ADF81660 		strh	r6, [sp, #22]	@ movhi
 250:Middlewares/lvgl/src/extra/widgets/imgbtn/lv_imgbtn.c **** 
 942              		.loc 1 250 9 is_stmt 1 view .LVU286
 250:Middlewares/lvgl/src/extra/widgets/imgbtn/lv_imgbtn.c **** 
 943              		.loc 1 250 29 is_stmt 0 view .LVU287
ARM GAS  /tmp/ccj8xyx4.s 			page 31


 944 017c ADF81A70 		strh	r7, [sp, #26]	@ movhi
 252:Middlewares/lvgl/src/extra/widgets/imgbtn/lv_imgbtn.c ****         comm_res = _lv_area_intersect(&clip_center_area, &clip_center_area, clip_area);
 945              		.loc 1 252 9 is_stmt 1 view .LVU288
 253:Middlewares/lvgl/src/extra/widgets/imgbtn/lv_imgbtn.c ****         if(comm_res) {
 946              		.loc 1 253 9 view .LVU289
 253:Middlewares/lvgl/src/extra/widgets/imgbtn/lv_imgbtn.c ****         if(comm_res) {
 947              		.loc 1 253 20 is_stmt 0 view .LVU290
 948 0180 009A     		ldr	r2, [sp]
 949 0182 05A9     		add	r1, sp, #20
 950 0184 0846     		mov	r0, r1
 951 0186 FFF7FEFF 		bl	_lv_area_intersect
 952              	.LVL104:
 254:Middlewares/lvgl/src/extra/widgets/imgbtn/lv_imgbtn.c ****             lv_coord_t i;
 953              		.loc 1 254 9 is_stmt 1 view .LVU291
 254:Middlewares/lvgl/src/extra/widgets/imgbtn/lv_imgbtn.c ****             lv_coord_t i;
 954              		.loc 1 254 11 is_stmt 0 view .LVU292
 955 018a 40B9     		cbnz	r0, .L60
 956              	.LVL105:
 957              	.L50:
 254:Middlewares/lvgl/src/extra/widgets/imgbtn/lv_imgbtn.c ****             lv_coord_t i;
 958              		.loc 1 254 11 view .LVU293
 959              	.LBE16:
 271:Middlewares/lvgl/src/extra/widgets/imgbtn/lv_imgbtn.c **** 
 960              		.loc 1 271 1 view .LVU294
 961 018c 13B0     		add	sp, sp, #76
 962              	.LCFI10:
 963              		.cfi_remember_state
 964              		.cfi_def_cfa_offset 36
 965              	.LVL106:
 271:Middlewares/lvgl/src/extra/widgets/imgbtn/lv_imgbtn.c **** 
 966              		.loc 1 271 1 view .LVU295
 967              		@ sp needed
 968 018e BDE8F08F 		pop	{r4, r5, r6, r7, r8, r9, r10, fp, pc}
 969              	.LVL107:
 970              	.L57:
 971              	.LCFI11:
 972              		.cfi_restore_state
 220:Middlewares/lvgl/src/extra/widgets/imgbtn/lv_imgbtn.c ****     lv_coord_t right_w = 0;
 973              		.loc 1 220 16 view .LVU296
 974 0192 0023     		movs	r3, #0
 975 0194 0393     		str	r3, [sp, #12]
 976 0196 B2E7     		b	.L51
 977              	.LVL108:
 978              	.L58:
 221:Middlewares/lvgl/src/extra/widgets/imgbtn/lv_imgbtn.c **** 
 979              		.loc 1 221 16 view .LVU297
 980 0198 4FF00008 		mov	r8, #0
 981 019c D9E7     		b	.L52
 982              	.LVL109:
 983              	.L60:
 984              	.LBB18:
 985              	.LBB17:
 255:Middlewares/lvgl/src/extra/widgets/imgbtn/lv_imgbtn.c ****             lv_img_decoder_get_info(src, &header);
 986              		.loc 1 255 13 is_stmt 1 view .LVU298
 256:Middlewares/lvgl/src/extra/widgets/imgbtn/lv_imgbtn.c **** 
 987              		.loc 1 256 13 view .LVU299
 988 019e 09A9     		add	r1, sp, #36
ARM GAS  /tmp/ccj8xyx4.s 			page 32


 989 01a0 2046     		mov	r0, r4
 990              	.LVL110:
 256:Middlewares/lvgl/src/extra/widgets/imgbtn/lv_imgbtn.c **** 
 991              		.loc 1 256 13 is_stmt 0 view .LVU300
 992 01a2 FFF7FEFF 		bl	lv_img_decoder_get_info
 993              	.LVL111:
 258:Middlewares/lvgl/src/extra/widgets/imgbtn/lv_imgbtn.c ****             coords_part.y1 = coords.y1;
 994              		.loc 1 258 13 is_stmt 1 view .LVU301
 258:Middlewares/lvgl/src/extra/widgets/imgbtn/lv_imgbtn.c ****             coords_part.y1 = coords.y1;
 995              		.loc 1 258 28 is_stmt 0 view .LVU302
 996 01a6 ADF81C50 		strh	r5, [sp, #28]	@ movhi
 259:Middlewares/lvgl/src/extra/widgets/imgbtn/lv_imgbtn.c ****             coords_part.x2 = coords_part.x1 + header.w - 1;
 997              		.loc 1 259 13 is_stmt 1 view .LVU303
 259:Middlewares/lvgl/src/extra/widgets/imgbtn/lv_imgbtn.c ****             coords_part.x2 = coords_part.x1 + header.w - 1;
 998              		.loc 1 259 28 is_stmt 0 view .LVU304
 999 01aa ADF81E60 		strh	r6, [sp, #30]	@ movhi
 260:Middlewares/lvgl/src/extra/widgets/imgbtn/lv_imgbtn.c ****             coords_part.y2 = coords_part.y1 + header.h - 1;
 1000              		.loc 1 260 13 is_stmt 1 view .LVU305
 260:Middlewares/lvgl/src/extra/widgets/imgbtn/lv_imgbtn.c ****             coords_part.y2 = coords_part.y1 + header.h - 1;
 1001              		.loc 1 260 53 is_stmt 0 view .LVU306
 1002 01ae 099B     		ldr	r3, [sp, #36]
 1003 01b0 C3F38A23 		ubfx	r3, r3, #10, #11
 260:Middlewares/lvgl/src/extra/widgets/imgbtn/lv_imgbtn.c ****             coords_part.y2 = coords_part.y1 + header.h - 1;
 1004              		.loc 1 260 45 view .LVU307
 1005 01b4 9944     		add	r9, r9, r3
 1006 01b6 1FFA89F9 		uxth	r9, r9
 260:Middlewares/lvgl/src/extra/widgets/imgbtn/lv_imgbtn.c ****             coords_part.y2 = coords_part.y1 + header.h - 1;
 1007              		.loc 1 260 56 view .LVU308
 1008 01ba 09F1FF39 		add	r9, r9, #-1
 260:Middlewares/lvgl/src/extra/widgets/imgbtn/lv_imgbtn.c ****             coords_part.y2 = coords_part.y1 + header.h - 1;
 1009              		.loc 1 260 28 view .LVU309
 1010 01be ADF82090 		strh	r9, [sp, #32]	@ movhi
 261:Middlewares/lvgl/src/extra/widgets/imgbtn/lv_imgbtn.c **** 
 1011              		.loc 1 261 13 is_stmt 1 view .LVU310
 261:Middlewares/lvgl/src/extra/widgets/imgbtn/lv_imgbtn.c **** 
 1012              		.loc 1 261 53 is_stmt 0 view .LVU311
 1013 01c2 BDF82630 		ldrh	r3, [sp, #38]
 1014 01c6 C3F34A13 		ubfx	r3, r3, #5, #11
 261:Middlewares/lvgl/src/extra/widgets/imgbtn/lv_imgbtn.c **** 
 1015              		.loc 1 261 45 view .LVU312
 1016 01ca 9A44     		add	r10, r10, r3
 1017 01cc 1FFA8AFA 		uxth	r10, r10
 261:Middlewares/lvgl/src/extra/widgets/imgbtn/lv_imgbtn.c **** 
 1018              		.loc 1 261 56 view .LVU313
 1019 01d0 0AF1FF3A 		add	r10, r10, #-1
 261:Middlewares/lvgl/src/extra/widgets/imgbtn/lv_imgbtn.c **** 
 1020              		.loc 1 261 28 view .LVU314
 1021 01d4 ADF822A0 		strh	r10, [sp, #34]	@ movhi
 263:Middlewares/lvgl/src/extra/widgets/imgbtn/lv_imgbtn.c **** 
 1022              		.loc 1 263 13 is_stmt 1 view .LVU315
 1023              	.LVL112:
 263:Middlewares/lvgl/src/extra/widgets/imgbtn/lv_imgbtn.c **** 
 1024              		.loc 1 263 19 is_stmt 0 view .LVU316
 1025 01d8 0025     		movs	r5, #0
 263:Middlewares/lvgl/src/extra/widgets/imgbtn/lv_imgbtn.c **** 
 1026              		.loc 1 263 13 view .LVU317
 1027 01da 12E0     		b	.L55
ARM GAS  /tmp/ccj8xyx4.s 			page 33


 1028              	.LVL113:
 1029              	.L56:
 265:Middlewares/lvgl/src/extra/widgets/imgbtn/lv_imgbtn.c ****                 coords_part.x1 = coords_part.x2 + 1;
 1030              		.loc 1 265 17 is_stmt 1 discriminator 3 view .LVU318
 1031 01dc 0AAB     		add	r3, sp, #40
 1032 01de 2246     		mov	r2, r4
 1033 01e0 05A9     		add	r1, sp, #20
 1034 01e2 07A8     		add	r0, sp, #28
 1035 01e4 FFF7FEFF 		bl	lv_draw_img
 1036              	.LVL114:
 266:Middlewares/lvgl/src/extra/widgets/imgbtn/lv_imgbtn.c ****                 coords_part.x2 += header.w;
 1037              		.loc 1 266 17 discriminator 3 view .LVU319
 266:Middlewares/lvgl/src/extra/widgets/imgbtn/lv_imgbtn.c ****                 coords_part.x2 += header.w;
 1038              		.loc 1 266 45 is_stmt 0 discriminator 3 view .LVU320
 1039 01e8 BDF82020 		ldrh	r2, [sp, #32]
 266:Middlewares/lvgl/src/extra/widgets/imgbtn/lv_imgbtn.c ****                 coords_part.x2 += header.w;
 1040              		.loc 1 266 49 discriminator 3 view .LVU321
 1041 01ec 531C     		adds	r3, r2, #1
 266:Middlewares/lvgl/src/extra/widgets/imgbtn/lv_imgbtn.c ****                 coords_part.x2 += header.w;
 1042              		.loc 1 266 32 discriminator 3 view .LVU322
 1043 01ee ADF81C30 		strh	r3, [sp, #28]	@ movhi
 267:Middlewares/lvgl/src/extra/widgets/imgbtn/lv_imgbtn.c ****             }
 1044              		.loc 1 267 17 is_stmt 1 discriminator 3 view .LVU323
 267:Middlewares/lvgl/src/extra/widgets/imgbtn/lv_imgbtn.c ****             }
 1045              		.loc 1 267 41 is_stmt 0 discriminator 3 view .LVU324
 1046 01f2 099B     		ldr	r3, [sp, #36]
 1047 01f4 C3F38A23 		ubfx	r3, r3, #10, #11
 267:Middlewares/lvgl/src/extra/widgets/imgbtn/lv_imgbtn.c ****             }
 1048              		.loc 1 267 32 discriminator 3 view .LVU325
 1049 01f8 1A44     		add	r2, r2, r3
 1050 01fa ADF82020 		strh	r2, [sp, #32]	@ movhi
 263:Middlewares/lvgl/src/extra/widgets/imgbtn/lv_imgbtn.c **** 
 1051              		.loc 1 263 64 is_stmt 1 discriminator 3 view .LVU326
 263:Middlewares/lvgl/src/extra/widgets/imgbtn/lv_imgbtn.c **** 
 1052              		.loc 1 263 66 is_stmt 0 discriminator 3 view .LVU327
 1053 01fe 2B44     		add	r3, r3, r5
 1054 0200 1DB2     		sxth	r5, r3
 1055              	.LVL115:
 1056              	.L55:
 263:Middlewares/lvgl/src/extra/widgets/imgbtn/lv_imgbtn.c **** 
 1057              		.loc 1 263 24 is_stmt 1 discriminator 1 view .LVU328
 263:Middlewares/lvgl/src/extra/widgets/imgbtn/lv_imgbtn.c **** 
 1058              		.loc 1 263 44 is_stmt 0 discriminator 1 view .LVU329
 1059 0202 BDF91830 		ldrsh	r3, [sp, #24]
 263:Middlewares/lvgl/src/extra/widgets/imgbtn/lv_imgbtn.c **** 
 1060              		.loc 1 263 56 discriminator 1 view .LVU330
 1061 0206 099A     		ldr	r2, [sp, #36]
 1062 0208 C2F38A22 		ubfx	r2, r2, #10, #11
 263:Middlewares/lvgl/src/extra/widgets/imgbtn/lv_imgbtn.c **** 
 1063              		.loc 1 263 48 discriminator 1 view .LVU331
 1064 020c 1344     		add	r3, r3, r2
 263:Middlewares/lvgl/src/extra/widgets/imgbtn/lv_imgbtn.c **** 
 1065              		.loc 1 263 59 discriminator 1 view .LVU332
 1066 020e 013B     		subs	r3, r3, #1
 263:Middlewares/lvgl/src/extra/widgets/imgbtn/lv_imgbtn.c **** 
 1067              		.loc 1 263 13 discriminator 1 view .LVU333
 1068 0210 9D42     		cmp	r5, r3
ARM GAS  /tmp/ccj8xyx4.s 			page 34


 1069 0212 E3DB     		blt	.L56
 1070 0214 BAE7     		b	.L50
 1071              	.LBE17:
 1072              	.LBE18:
 1073              		.cfi_endproc
 1074              	.LFE191:
 1076              		.section	.text.lv_imgbtn_event,"ax",%progbits
 1077              		.align	1
 1078              		.syntax unified
 1079              		.thumb
 1080              		.thumb_func
 1081              		.fpu fpv4-sp-d16
 1083              	lv_imgbtn_event:
 1084              	.LVL116:
 1085              	.LFB190:
 160:Middlewares/lvgl/src/extra/widgets/imgbtn/lv_imgbtn.c ****     LV_UNUSED(class_p);
 1086              		.loc 1 160 1 is_stmt 1 view -0
 1087              		.cfi_startproc
 1088              		@ args = 0, pretend = 0, frame = 8
 1089              		@ frame_needed = 0, uses_anonymous_args = 0
 160:Middlewares/lvgl/src/extra/widgets/imgbtn/lv_imgbtn.c ****     LV_UNUSED(class_p);
 1090              		.loc 1 160 1 is_stmt 0 view .LVU335
 1091 0000 70B5     		push	{r4, r5, r6, lr}
 1092              	.LCFI12:
 1093              		.cfi_def_cfa_offset 16
 1094              		.cfi_offset 4, -16
 1095              		.cfi_offset 5, -12
 1096              		.cfi_offset 6, -8
 1097              		.cfi_offset 14, -4
 1098 0002 82B0     		sub	sp, sp, #8
 1099              	.LCFI13:
 1100              		.cfi_def_cfa_offset 24
 1101 0004 0C46     		mov	r4, r1
 161:Middlewares/lvgl/src/extra/widgets/imgbtn/lv_imgbtn.c **** 
 1102              		.loc 1 161 5 is_stmt 1 view .LVU336
 163:Middlewares/lvgl/src/extra/widgets/imgbtn/lv_imgbtn.c ****     if(res != LV_RES_OK) return;
 1103              		.loc 1 163 5 view .LVU337
 163:Middlewares/lvgl/src/extra/widgets/imgbtn/lv_imgbtn.c ****     if(res != LV_RES_OK) return;
 1104              		.loc 1 163 20 is_stmt 0 view .LVU338
 1105 0006 2D48     		ldr	r0, .L71
 1106              	.LVL117:
 163:Middlewares/lvgl/src/extra/widgets/imgbtn/lv_imgbtn.c ****     if(res != LV_RES_OK) return;
 1107              		.loc 1 163 20 view .LVU339
 1108 0008 FFF7FEFF 		bl	lv_obj_event_base
 1109              	.LVL118:
 164:Middlewares/lvgl/src/extra/widgets/imgbtn/lv_imgbtn.c **** 
 1110              		.loc 1 164 5 is_stmt 1 view .LVU340
 164:Middlewares/lvgl/src/extra/widgets/imgbtn/lv_imgbtn.c **** 
 1111              		.loc 1 164 7 is_stmt 0 view .LVU341
 1112 000c 0128     		cmp	r0, #1
 1113 000e 01D0     		beq	.L68
 1114              	.LVL119:
 1115              	.L61:
 191:Middlewares/lvgl/src/extra/widgets/imgbtn/lv_imgbtn.c **** 
 1116              		.loc 1 191 1 view .LVU342
 1117 0010 02B0     		add	sp, sp, #8
 1118              	.LCFI14:
ARM GAS  /tmp/ccj8xyx4.s 			page 35


 1119              		.cfi_remember_state
 1120              		.cfi_def_cfa_offset 16
 1121              		@ sp needed
 1122 0012 70BD     		pop	{r4, r5, r6, pc}
 1123              	.LVL120:
 1124              	.L68:
 1125              	.LCFI15:
 1126              		.cfi_restore_state
 166:Middlewares/lvgl/src/extra/widgets/imgbtn/lv_imgbtn.c ****     lv_obj_t * obj = lv_event_get_target(e);
 1127              		.loc 1 166 5 is_stmt 1 view .LVU343
 166:Middlewares/lvgl/src/extra/widgets/imgbtn/lv_imgbtn.c ****     lv_obj_t * obj = lv_event_get_target(e);
 1128              		.loc 1 166 28 is_stmt 0 view .LVU344
 1129 0014 2046     		mov	r0, r4
 1130              	.LVL121:
 166:Middlewares/lvgl/src/extra/widgets/imgbtn/lv_imgbtn.c ****     lv_obj_t * obj = lv_event_get_target(e);
 1131              		.loc 1 166 28 view .LVU345
 1132 0016 FFF7FEFF 		bl	lv_event_get_code
 1133              	.LVL122:
 1134 001a 0546     		mov	r5, r0
 1135              	.LVL123:
 167:Middlewares/lvgl/src/extra/widgets/imgbtn/lv_imgbtn.c ****     if(code == LV_EVENT_PRESSED || code == LV_EVENT_RELEASED || code == LV_EVENT_PRESS_LOST) {
 1136              		.loc 1 167 5 is_stmt 1 view .LVU346
 167:Middlewares/lvgl/src/extra/widgets/imgbtn/lv_imgbtn.c ****     if(code == LV_EVENT_PRESSED || code == LV_EVENT_RELEASED || code == LV_EVENT_PRESS_LOST) {
 1137              		.loc 1 167 22 is_stmt 0 view .LVU347
 1138 001c 2046     		mov	r0, r4
 1139 001e FFF7FEFF 		bl	lv_event_get_target
 1140              	.LVL124:
 1141 0022 0646     		mov	r6, r0
 1142              	.LVL125:
 168:Middlewares/lvgl/src/extra/widgets/imgbtn/lv_imgbtn.c ****         refr_img(obj);
 1143              		.loc 1 168 5 is_stmt 1 view .LVU348
 168:Middlewares/lvgl/src/extra/widgets/imgbtn/lv_imgbtn.c ****         refr_img(obj);
 1144              		.loc 1 168 7 is_stmt 0 view .LVU349
 1145 0024 012D     		cmp	r5, #1
 1146 0026 38D0     		beq	.L63
 168:Middlewares/lvgl/src/extra/widgets/imgbtn/lv_imgbtn.c ****         refr_img(obj);
 1147              		.loc 1 168 33 discriminator 1 view .LVU350
 1148 0028 082D     		cmp	r5, #8
 1149 002a 36D0     		beq	.L63
 168:Middlewares/lvgl/src/extra/widgets/imgbtn/lv_imgbtn.c ****         refr_img(obj);
 1150              		.loc 1 168 62 discriminator 2 view .LVU351
 1151 002c 032D     		cmp	r5, #3
 1152 002e 34D0     		beq	.L63
 171:Middlewares/lvgl/src/extra/widgets/imgbtn/lv_imgbtn.c ****         draw_main(e);
 1153              		.loc 1 171 10 is_stmt 1 view .LVU352
 171:Middlewares/lvgl/src/extra/widgets/imgbtn/lv_imgbtn.c ****         draw_main(e);
 1154              		.loc 1 171 12 is_stmt 0 view .LVU353
 1155 0030 152D     		cmp	r5, #21
 1156 0032 36D0     		beq	.L69
 174:Middlewares/lvgl/src/extra/widgets/imgbtn/lv_imgbtn.c ****         lv_cover_check_info_t * info = lv_event_get_param(e);
 1157              		.loc 1 174 10 is_stmt 1 view .LVU354
 174:Middlewares/lvgl/src/extra/widgets/imgbtn/lv_imgbtn.c ****         lv_cover_check_info_t * info = lv_event_get_param(e);
 1158              		.loc 1 174 12 is_stmt 0 view .LVU355
 1159 0034 122D     		cmp	r5, #18
 1160 0036 38D0     		beq	.L70
 178:Middlewares/lvgl/src/extra/widgets/imgbtn/lv_imgbtn.c ****         lv_point_t * p = lv_event_get_self_size_info(e);
 1161              		.loc 1 178 10 is_stmt 1 view .LVU356
ARM GAS  /tmp/ccj8xyx4.s 			page 36


 178:Middlewares/lvgl/src/extra/widgets/imgbtn/lv_imgbtn.c ****         lv_point_t * p = lv_event_get_self_size_info(e);
 1162              		.loc 1 178 12 is_stmt 0 view .LVU357
 1163 0038 262D     		cmp	r5, #38
 1164 003a E9D1     		bne	.L61
 1165              	.LBB19:
 179:Middlewares/lvgl/src/extra/widgets/imgbtn/lv_imgbtn.c ****         lv_imgbtn_t * imgbtn = (lv_imgbtn_t *)obj;
 1166              		.loc 1 179 9 is_stmt 1 view .LVU358
 179:Middlewares/lvgl/src/extra/widgets/imgbtn/lv_imgbtn.c ****         lv_imgbtn_t * imgbtn = (lv_imgbtn_t *)obj;
 1167              		.loc 1 179 26 is_stmt 0 view .LVU359
 1168 003c 2046     		mov	r0, r4
 1169              	.LVL126:
 179:Middlewares/lvgl/src/extra/widgets/imgbtn/lv_imgbtn.c ****         lv_imgbtn_t * imgbtn = (lv_imgbtn_t *)obj;
 1170              		.loc 1 179 26 view .LVU360
 1171 003e FFF7FEFF 		bl	lv_event_get_self_size_info
 1172              	.LVL127:
 1173 0042 0446     		mov	r4, r0
 1174              	.LVL128:
 180:Middlewares/lvgl/src/extra/widgets/imgbtn/lv_imgbtn.c ****         lv_imgbtn_state_t state  = suggest_state(obj, get_state(obj));
 1175              		.loc 1 180 9 is_stmt 1 view .LVU361
 181:Middlewares/lvgl/src/extra/widgets/imgbtn/lv_imgbtn.c ****         if(imgbtn->img_src_left[state] == NULL &&
 1176              		.loc 1 181 9 view .LVU362
 181:Middlewares/lvgl/src/extra/widgets/imgbtn/lv_imgbtn.c ****         if(imgbtn->img_src_left[state] == NULL &&
 1177              		.loc 1 181 36 is_stmt 0 view .LVU363
 1178 0044 3046     		mov	r0, r6
 1179              	.LVL129:
 181:Middlewares/lvgl/src/extra/widgets/imgbtn/lv_imgbtn.c ****         if(imgbtn->img_src_left[state] == NULL &&
 1180              		.loc 1 181 36 view .LVU364
 1181 0046 FFF7FEFF 		bl	get_state
 1182              	.LVL130:
 1183 004a 0146     		mov	r1, r0
 1184 004c 3046     		mov	r0, r6
 1185 004e FFF7FEFF 		bl	suggest_state
 1186              	.LVL131:
 182:Middlewares/lvgl/src/extra/widgets/imgbtn/lv_imgbtn.c ****            imgbtn->img_src_mid[state] != NULL &&
 1187              		.loc 1 182 9 is_stmt 1 view .LVU365
 182:Middlewares/lvgl/src/extra/widgets/imgbtn/lv_imgbtn.c ****            imgbtn->img_src_mid[state] != NULL &&
 1188              		.loc 1 182 32 is_stmt 0 view .LVU366
 1189 0052 00F10E03 		add	r3, r0, #14
 1190 0056 06EB8303 		add	r3, r6, r3, lsl #2
 1191 005a 5B68     		ldr	r3, [r3, #4]
 182:Middlewares/lvgl/src/extra/widgets/imgbtn/lv_imgbtn.c ****            imgbtn->img_src_mid[state] != NULL &&
 1192              		.loc 1 182 11 view .LVU367
 1193 005c 002B     		cmp	r3, #0
 1194 005e D7D1     		bne	.L61
 183:Middlewares/lvgl/src/extra/widgets/imgbtn/lv_imgbtn.c ****            imgbtn->img_src_right[state] == NULL)
 1195              		.loc 1 183 31 discriminator 1 view .LVU368
 1196 0060 00F10803 		add	r3, r0, #8
 1197 0064 06EB8303 		add	r3, r6, r3, lsl #2
 1198 0068 5B68     		ldr	r3, [r3, #4]
 182:Middlewares/lvgl/src/extra/widgets/imgbtn/lv_imgbtn.c ****            imgbtn->img_src_mid[state] != NULL &&
 1199              		.loc 1 182 48 discriminator 1 view .LVU369
 1200 006a 002B     		cmp	r3, #0
 1201 006c D0D0     		beq	.L61
 184:Middlewares/lvgl/src/extra/widgets/imgbtn/lv_imgbtn.c ****         {
 1202              		.loc 1 184 33 view .LVU370
 1203 006e 00F11403 		add	r3, r0, #20
 1204 0072 06EB8303 		add	r3, r6, r3, lsl #2
ARM GAS  /tmp/ccj8xyx4.s 			page 37


 1205 0076 5B68     		ldr	r3, [r3, #4]
 183:Middlewares/lvgl/src/extra/widgets/imgbtn/lv_imgbtn.c ****            imgbtn->img_src_right[state] == NULL)
 1206              		.loc 1 183 47 view .LVU371
 1207 0078 002B     		cmp	r3, #0
 1208 007a C9D1     		bne	.L61
 1209              	.LBB20:
 186:Middlewares/lvgl/src/extra/widgets/imgbtn/lv_imgbtn.c ****             lv_img_decoder_get_info(imgbtn->img_src_mid, &header);
 1210              		.loc 1 186 13 is_stmt 1 discriminator 2 view .LVU372
 187:Middlewares/lvgl/src/extra/widgets/imgbtn/lv_imgbtn.c ****             p->x = LV_MAX(p->x, header.w);
 1211              		.loc 1 187 13 discriminator 2 view .LVU373
 1212 007c 01A9     		add	r1, sp, #4
 1213 007e 06F12400 		add	r0, r6, #36
 1214              	.LVL132:
 187:Middlewares/lvgl/src/extra/widgets/imgbtn/lv_imgbtn.c ****             p->x = LV_MAX(p->x, header.w);
 1215              		.loc 1 187 13 is_stmt 0 discriminator 2 view .LVU374
 1216 0082 FFF7FEFF 		bl	lv_img_decoder_get_info
 1217              	.LVL133:
 188:Middlewares/lvgl/src/extra/widgets/imgbtn/lv_imgbtn.c ****         }
 1218              		.loc 1 188 13 is_stmt 1 discriminator 2 view .LVU375
 188:Middlewares/lvgl/src/extra/widgets/imgbtn/lv_imgbtn.c ****         }
 1219              		.loc 1 188 20 is_stmt 0 discriminator 2 view .LVU376
 1220 0086 019B     		ldr	r3, [sp, #4]
 1221 0088 C3F38A23 		ubfx	r3, r3, #10, #11
 1222 008c B4F90020 		ldrsh	r2, [r4]
 1223 0090 9342     		cmp	r3, r2
 1224 0092 B8BF     		it	lt
 1225 0094 1346     		movlt	r3, r2
 188:Middlewares/lvgl/src/extra/widgets/imgbtn/lv_imgbtn.c ****         }
 1226              		.loc 1 188 18 discriminator 2 view .LVU377
 1227 0096 2380     		strh	r3, [r4]	@ movhi
 1228 0098 BAE7     		b	.L61
 1229              	.LVL134:
 1230              	.L63:
 188:Middlewares/lvgl/src/extra/widgets/imgbtn/lv_imgbtn.c ****         }
 1231              		.loc 1 188 18 discriminator 2 view .LVU378
 1232              	.LBE20:
 1233              	.LBE19:
 169:Middlewares/lvgl/src/extra/widgets/imgbtn/lv_imgbtn.c ****     }
 1234              		.loc 1 169 9 is_stmt 1 view .LVU379
 1235 009a 3046     		mov	r0, r6
 1236              	.LVL135:
 169:Middlewares/lvgl/src/extra/widgets/imgbtn/lv_imgbtn.c ****     }
 1237              		.loc 1 169 9 is_stmt 0 view .LVU380
 1238 009c FFF7FEFF 		bl	refr_img
 1239              	.LVL136:
 1240 00a0 B6E7     		b	.L61
 1241              	.LVL137:
 1242              	.L69:
 172:Middlewares/lvgl/src/extra/widgets/imgbtn/lv_imgbtn.c ****     }
 1243              		.loc 1 172 9 is_stmt 1 view .LVU381
 1244 00a2 2046     		mov	r0, r4
 1245              	.LVL138:
 172:Middlewares/lvgl/src/extra/widgets/imgbtn/lv_imgbtn.c ****     }
 1246              		.loc 1 172 9 is_stmt 0 view .LVU382
 1247 00a4 FFF7FEFF 		bl	draw_main
 1248              	.LVL139:
 1249 00a8 B2E7     		b	.L61
ARM GAS  /tmp/ccj8xyx4.s 			page 38


 1250              	.LVL140:
 1251              	.L70:
 1252              	.LBB21:
 175:Middlewares/lvgl/src/extra/widgets/imgbtn/lv_imgbtn.c ****         if(info->res != LV_COVER_RES_MASKED) info->res = LV_COVER_RES_NOT_COVER;
 1253              		.loc 1 175 9 is_stmt 1 view .LVU383
 175:Middlewares/lvgl/src/extra/widgets/imgbtn/lv_imgbtn.c ****         if(info->res != LV_COVER_RES_MASKED) info->res = LV_COVER_RES_NOT_COVER;
 1254              		.loc 1 175 40 is_stmt 0 view .LVU384
 1255 00aa 2046     		mov	r0, r4
 1256              	.LVL141:
 175:Middlewares/lvgl/src/extra/widgets/imgbtn/lv_imgbtn.c ****         if(info->res != LV_COVER_RES_MASKED) info->res = LV_COVER_RES_NOT_COVER;
 1257              		.loc 1 175 40 view .LVU385
 1258 00ac FFF7FEFF 		bl	lv_event_get_param
 1259              	.LVL142:
 176:Middlewares/lvgl/src/extra/widgets/imgbtn/lv_imgbtn.c ****     }
 1260              		.loc 1 176 9 is_stmt 1 view .LVU386
 176:Middlewares/lvgl/src/extra/widgets/imgbtn/lv_imgbtn.c ****     }
 1261              		.loc 1 176 16 is_stmt 0 view .LVU387
 1262 00b0 0378     		ldrb	r3, [r0]	@ zero_extendqisi2
 176:Middlewares/lvgl/src/extra/widgets/imgbtn/lv_imgbtn.c ****     }
 1263              		.loc 1 176 11 view .LVU388
 1264 00b2 022B     		cmp	r3, #2
 1265 00b4 ACD0     		beq	.L61
 176:Middlewares/lvgl/src/extra/widgets/imgbtn/lv_imgbtn.c ****     }
 1266              		.loc 1 176 46 is_stmt 1 discriminator 1 view .LVU389
 176:Middlewares/lvgl/src/extra/widgets/imgbtn/lv_imgbtn.c ****     }
 1267              		.loc 1 176 56 is_stmt 0 discriminator 1 view .LVU390
 1268 00b6 0123     		movs	r3, #1
 1269 00b8 0370     		strb	r3, [r0]
 1270 00ba A9E7     		b	.L61
 1271              	.L72:
 1272              		.align	2
 1273              	.L71:
 1274 00bc 00000000 		.word	.LANCHOR0
 1275              	.LBE21:
 1276              		.cfi_endproc
 1277              	.LFE190:
 1279              		.global	lv_imgbtn_class
 1280              		.section	.rodata.lv_imgbtn_class,"a"
 1281              		.align	2
 1282              		.set	.LANCHOR0,. + 0
 1285              	lv_imgbtn_class:
 1286 0000 00000000 		.word	lv_obj_class
 1287 0004 00000000 		.word	lv_imgbtn_constructor
 1288 0008 00000000 		.space	8
 1288      00000000 
 1289 0010 00000000 		.word	lv_imgbtn_event
 1290 0014 00000000 		.space	4
 1291 0018 00       		.byte	0
 1292 0019 07       		.byte	7
 1293 001a 00       		.byte	0
 1294 001b 00       		.space	1
 1295              		.text
 1296              	.Letext0:
 1297              		.file 4 "/home/akinya/gcc-arm-none-eabi/arm-none-eabi/include/machine/_default_types.h"
 1298              		.file 5 "/home/akinya/gcc-arm-none-eabi/arm-none-eabi/include/sys/_stdint.h"
 1299              		.file 6 "Middlewares/lvgl/src/extra/widgets/imgbtn/../../../../src/misc/lv_types.h"
 1300              		.file 7 "Middlewares/lvgl/src/extra/widgets/imgbtn/../../../../src/misc/lv_ll.h"
ARM GAS  /tmp/ccj8xyx4.s 			page 39


 1301              		.file 8 "Middlewares/lvgl/src/extra/widgets/imgbtn/../../../../src/hal/../misc/lv_color.h"
 1302              		.file 9 "Middlewares/lvgl/src/extra/widgets/imgbtn/../../../../src/core/lv_obj.h"
 1303              		.file 10 "Middlewares/lvgl/src/extra/widgets/imgbtn/../../../../src/core/lv_group.h"
 1304              		.file 11 "Middlewares/lvgl/src/extra/widgets/imgbtn/../../../../src/core/../misc/lv_style.h"
 1305              		.file 12 "Middlewares/lvgl/src/extra/widgets/imgbtn/../../../../src/core/lv_obj_scroll.h"
 1306              		.file 13 "Middlewares/lvgl/src/extra/widgets/imgbtn/../../../../src/core/lv_obj_style.h"
 1307              		.file 14 "Middlewares/lvgl/src/extra/widgets/imgbtn/../../../../src/core/../draw/lv_img_buf.h"
 1308              		.file 15 "Middlewares/lvgl/src/extra/widgets/imgbtn/../../../../src/core/../draw/lv_draw_img.h"
 1309              		.file 16 "Middlewares/lvgl/src/extra/widgets/imgbtn/../../../../src/core/lv_obj_draw.h"
 1310              		.file 17 "Middlewares/lvgl/src/extra/widgets/imgbtn/../../../../src/core/lv_obj_class.h"
 1311              		.file 18 "Middlewares/lvgl/src/extra/widgets/imgbtn/../../../../src/core/lv_event.h"
 1312              		.file 19 "Middlewares/lvgl/src/extra/widgets/imgbtn/../../../../src/widgets/lv_bar.h"
 1313              		.file 20 "Middlewares/lvgl/src/extra/widgets/imgbtn/lv_imgbtn.h"
 1314              		.file 21 "Middlewares/lvgl/src/extra/widgets/imgbtn/../../../../src/core/../draw/lv_img_decoder.h"
 1315              		.file 22 "Middlewares/lvgl/src/extra/widgets/imgbtn/../../../../src/core/lv_obj_pos.h"
 1316              		.file 23 "Middlewares/lvgl/src/extra/widgets/imgbtn/../../../../src/misc/lv_mem.h"
ARM GAS  /tmp/ccj8xyx4.s 			page 40

