ARM GAS  /tmp/cc6jSqZn.s 			page 1


   1              		.cpu cortex-m4
   2              		.eabi_attribute 27, 1
   3              		.eabi_attribute 28, 1
   4              		.eabi_attribute 20, 1
   5              		.eabi_attribute 21, 1
   6              		.eabi_attribute 23, 3
   7              		.eabi_attribute 24, 1
   8              		.eabi_attribute 25, 1
   9              		.eabi_attribute 26, 1
  10              		.eabi_attribute 30, 1
  11              		.eabi_attribute 34, 1
  12              		.eabi_attribute 18, 4
  13              		.file	"lv_img.c"
  14              		.text
  15              	.Ltext0:
  16              		.cfi_sections	.debug_frame
  17              		.section	.text.draw_img,"ax",%progbits
  18              		.align	1
  19              		.arch armv7e-m
  20              		.syntax unified
  21              		.thumb
  22              		.thumb_func
  23              		.fpu fpv4-sp-d16
  25              	draw_img:
  26              	.LVL0:
  27              	.LFB165:
  28              		.file 1 "Middlewares/lvgl/src/widgets/lv_img.c"
   1:Middlewares/lvgl/src/widgets/lv_img.c **** /**
   2:Middlewares/lvgl/src/widgets/lv_img.c ****  * @file lv_img.c
   3:Middlewares/lvgl/src/widgets/lv_img.c ****  *
   4:Middlewares/lvgl/src/widgets/lv_img.c ****  */
   5:Middlewares/lvgl/src/widgets/lv_img.c **** 
   6:Middlewares/lvgl/src/widgets/lv_img.c **** /*********************
   7:Middlewares/lvgl/src/widgets/lv_img.c ****  *      INCLUDES
   8:Middlewares/lvgl/src/widgets/lv_img.c ****  *********************/
   9:Middlewares/lvgl/src/widgets/lv_img.c **** #include "lv_img.h"
  10:Middlewares/lvgl/src/widgets/lv_img.c **** #if LV_USE_IMG != 0
  11:Middlewares/lvgl/src/widgets/lv_img.c **** 
  12:Middlewares/lvgl/src/widgets/lv_img.c **** #include "../misc/lv_assert.h"
  13:Middlewares/lvgl/src/widgets/lv_img.c **** #include "../draw/lv_img_decoder.h"
  14:Middlewares/lvgl/src/widgets/lv_img.c **** #include "../misc/lv_fs.h"
  15:Middlewares/lvgl/src/widgets/lv_img.c **** #include "../misc/lv_txt.h"
  16:Middlewares/lvgl/src/widgets/lv_img.c **** #include "../misc/lv_math.h"
  17:Middlewares/lvgl/src/widgets/lv_img.c **** #include "../misc/lv_log.h"
  18:Middlewares/lvgl/src/widgets/lv_img.c **** 
  19:Middlewares/lvgl/src/widgets/lv_img.c **** /*********************
  20:Middlewares/lvgl/src/widgets/lv_img.c ****  *      DEFINES
  21:Middlewares/lvgl/src/widgets/lv_img.c ****  *********************/
  22:Middlewares/lvgl/src/widgets/lv_img.c **** #define MY_CLASS &lv_img_class
  23:Middlewares/lvgl/src/widgets/lv_img.c **** 
  24:Middlewares/lvgl/src/widgets/lv_img.c **** /**********************
  25:Middlewares/lvgl/src/widgets/lv_img.c ****  *      TYPEDEFS
  26:Middlewares/lvgl/src/widgets/lv_img.c ****  **********************/
  27:Middlewares/lvgl/src/widgets/lv_img.c **** 
  28:Middlewares/lvgl/src/widgets/lv_img.c **** /**********************
  29:Middlewares/lvgl/src/widgets/lv_img.c ****  *  STATIC PROTOTYPES
  30:Middlewares/lvgl/src/widgets/lv_img.c ****  **********************/
ARM GAS  /tmp/cc6jSqZn.s 			page 2


  31:Middlewares/lvgl/src/widgets/lv_img.c **** static void lv_img_constructor(const lv_obj_class_t * class_p, lv_obj_t * obj);
  32:Middlewares/lvgl/src/widgets/lv_img.c **** static void lv_img_destructor(const lv_obj_class_t * class_p, lv_obj_t * obj);
  33:Middlewares/lvgl/src/widgets/lv_img.c **** static void lv_img_event(const lv_obj_class_t * class_p, lv_event_t * e);
  34:Middlewares/lvgl/src/widgets/lv_img.c **** static void draw_img(lv_event_t * e);
  35:Middlewares/lvgl/src/widgets/lv_img.c **** 
  36:Middlewares/lvgl/src/widgets/lv_img.c **** /**********************
  37:Middlewares/lvgl/src/widgets/lv_img.c ****  *  STATIC VARIABLES
  38:Middlewares/lvgl/src/widgets/lv_img.c ****  **********************/
  39:Middlewares/lvgl/src/widgets/lv_img.c **** const lv_obj_class_t lv_img_class = {
  40:Middlewares/lvgl/src/widgets/lv_img.c ****          .constructor_cb = lv_img_constructor,
  41:Middlewares/lvgl/src/widgets/lv_img.c ****          .destructor_cb = lv_img_destructor,
  42:Middlewares/lvgl/src/widgets/lv_img.c ****          .event_cb = lv_img_event,
  43:Middlewares/lvgl/src/widgets/lv_img.c ****          .width_def = LV_SIZE_CONTENT,
  44:Middlewares/lvgl/src/widgets/lv_img.c ****          .height_def = LV_SIZE_CONTENT,
  45:Middlewares/lvgl/src/widgets/lv_img.c ****          .instance_size = sizeof(lv_img_t),
  46:Middlewares/lvgl/src/widgets/lv_img.c ****          .base_class = &lv_obj_class
  47:Middlewares/lvgl/src/widgets/lv_img.c ****      };
  48:Middlewares/lvgl/src/widgets/lv_img.c **** 
  49:Middlewares/lvgl/src/widgets/lv_img.c **** /**********************
  50:Middlewares/lvgl/src/widgets/lv_img.c ****  *      MACROS
  51:Middlewares/lvgl/src/widgets/lv_img.c ****  **********************/
  52:Middlewares/lvgl/src/widgets/lv_img.c **** 
  53:Middlewares/lvgl/src/widgets/lv_img.c **** /**********************
  54:Middlewares/lvgl/src/widgets/lv_img.c ****  *   GLOBAL FUNCTIONS
  55:Middlewares/lvgl/src/widgets/lv_img.c ****  **********************/
  56:Middlewares/lvgl/src/widgets/lv_img.c **** 
  57:Middlewares/lvgl/src/widgets/lv_img.c **** lv_obj_t * lv_img_create(lv_obj_t * parent)
  58:Middlewares/lvgl/src/widgets/lv_img.c **** {
  59:Middlewares/lvgl/src/widgets/lv_img.c ****     LV_LOG_INFO("begin")
  60:Middlewares/lvgl/src/widgets/lv_img.c ****     lv_obj_t * obj = lv_obj_class_create_obj(MY_CLASS, parent);
  61:Middlewares/lvgl/src/widgets/lv_img.c ****     lv_obj_class_init_obj(obj);
  62:Middlewares/lvgl/src/widgets/lv_img.c ****     return obj;
  63:Middlewares/lvgl/src/widgets/lv_img.c **** }
  64:Middlewares/lvgl/src/widgets/lv_img.c **** 
  65:Middlewares/lvgl/src/widgets/lv_img.c **** /*=====================
  66:Middlewares/lvgl/src/widgets/lv_img.c ****  * Setter functions
  67:Middlewares/lvgl/src/widgets/lv_img.c ****  *====================*/
  68:Middlewares/lvgl/src/widgets/lv_img.c **** 
  69:Middlewares/lvgl/src/widgets/lv_img.c **** void lv_img_set_src(lv_obj_t * obj, const void * src)
  70:Middlewares/lvgl/src/widgets/lv_img.c **** {
  71:Middlewares/lvgl/src/widgets/lv_img.c ****     LV_ASSERT_OBJ(obj, MY_CLASS);
  72:Middlewares/lvgl/src/widgets/lv_img.c **** 
  73:Middlewares/lvgl/src/widgets/lv_img.c ****     lv_obj_invalidate(obj);
  74:Middlewares/lvgl/src/widgets/lv_img.c **** 
  75:Middlewares/lvgl/src/widgets/lv_img.c ****     lv_img_src_t src_type = lv_img_src_get_type(src);
  76:Middlewares/lvgl/src/widgets/lv_img.c ****     lv_img_t * img = (lv_img_t *)obj;
  77:Middlewares/lvgl/src/widgets/lv_img.c **** 
  78:Middlewares/lvgl/src/widgets/lv_img.c **** #if LV_USE_LOG && LV_LOG_LEVEL >= LV_LOG_LEVEL_INFO
  79:Middlewares/lvgl/src/widgets/lv_img.c ****     switch(src_type) {
  80:Middlewares/lvgl/src/widgets/lv_img.c ****         case LV_IMG_SRC_FILE:
  81:Middlewares/lvgl/src/widgets/lv_img.c ****             LV_LOG_TRACE("lv_img_set_src: `LV_IMG_SRC_FILE` type found");
  82:Middlewares/lvgl/src/widgets/lv_img.c ****             break;
  83:Middlewares/lvgl/src/widgets/lv_img.c ****         case LV_IMG_SRC_VARIABLE:
  84:Middlewares/lvgl/src/widgets/lv_img.c ****             LV_LOG_TRACE("lv_img_set_src: `LV_IMG_SRC_VARIABLE` type found");
  85:Middlewares/lvgl/src/widgets/lv_img.c ****             break;
  86:Middlewares/lvgl/src/widgets/lv_img.c ****         case LV_IMG_SRC_SYMBOL:
  87:Middlewares/lvgl/src/widgets/lv_img.c ****             LV_LOG_TRACE("lv_img_set_src: `LV_IMG_SRC_SYMBOL` type found");
ARM GAS  /tmp/cc6jSqZn.s 			page 3


  88:Middlewares/lvgl/src/widgets/lv_img.c ****             break;
  89:Middlewares/lvgl/src/widgets/lv_img.c ****         default:
  90:Middlewares/lvgl/src/widgets/lv_img.c ****             LV_LOG_WARN("lv_img_set_src: unknown type");
  91:Middlewares/lvgl/src/widgets/lv_img.c ****     }
  92:Middlewares/lvgl/src/widgets/lv_img.c **** #endif
  93:Middlewares/lvgl/src/widgets/lv_img.c **** 
  94:Middlewares/lvgl/src/widgets/lv_img.c ****     /*If the new source type is unknown free the memories of the old source*/
  95:Middlewares/lvgl/src/widgets/lv_img.c ****     if(src_type == LV_IMG_SRC_UNKNOWN) {
  96:Middlewares/lvgl/src/widgets/lv_img.c ****         LV_LOG_WARN("lv_img_set_src: unknown image type");
  97:Middlewares/lvgl/src/widgets/lv_img.c ****         if(img->src_type == LV_IMG_SRC_SYMBOL || img->src_type == LV_IMG_SRC_FILE) {
  98:Middlewares/lvgl/src/widgets/lv_img.c ****             lv_mem_free((void*)img->src);
  99:Middlewares/lvgl/src/widgets/lv_img.c ****         }
 100:Middlewares/lvgl/src/widgets/lv_img.c ****         img->src      = NULL;
 101:Middlewares/lvgl/src/widgets/lv_img.c ****         img->src_type = LV_IMG_SRC_UNKNOWN;
 102:Middlewares/lvgl/src/widgets/lv_img.c ****         return;
 103:Middlewares/lvgl/src/widgets/lv_img.c ****     }
 104:Middlewares/lvgl/src/widgets/lv_img.c **** 
 105:Middlewares/lvgl/src/widgets/lv_img.c ****     lv_img_header_t header;
 106:Middlewares/lvgl/src/widgets/lv_img.c ****     lv_img_decoder_get_info(src, &header);
 107:Middlewares/lvgl/src/widgets/lv_img.c **** 
 108:Middlewares/lvgl/src/widgets/lv_img.c ****     /*Save the source*/
 109:Middlewares/lvgl/src/widgets/lv_img.c ****     if(src_type == LV_IMG_SRC_VARIABLE) {
 110:Middlewares/lvgl/src/widgets/lv_img.c ****         /*If memory was allocated because of the previous `src_type` then free it*/
 111:Middlewares/lvgl/src/widgets/lv_img.c ****         if(img->src_type == LV_IMG_SRC_FILE || img->src_type == LV_IMG_SRC_SYMBOL) {
 112:Middlewares/lvgl/src/widgets/lv_img.c ****             lv_mem_free((void*)img->src);
 113:Middlewares/lvgl/src/widgets/lv_img.c ****         }
 114:Middlewares/lvgl/src/widgets/lv_img.c ****         img->src = src;
 115:Middlewares/lvgl/src/widgets/lv_img.c ****     }
 116:Middlewares/lvgl/src/widgets/lv_img.c ****     else if(src_type == LV_IMG_SRC_FILE || src_type == LV_IMG_SRC_SYMBOL) {
 117:Middlewares/lvgl/src/widgets/lv_img.c ****         /*If the new and the old src are the same then it was only a refresh.*/
 118:Middlewares/lvgl/src/widgets/lv_img.c ****         if(img->src != src) {
 119:Middlewares/lvgl/src/widgets/lv_img.c ****             const void * old_src = NULL;
 120:Middlewares/lvgl/src/widgets/lv_img.c ****             /*If memory was allocated because of the previous `src_type` then save its pointer and 
 121:Middlewares/lvgl/src/widgets/lv_img.c ****              *It's important to allocate first to be sure the new data will be on a new address.
 122:Middlewares/lvgl/src/widgets/lv_img.c ****              *Else `img_cache` wouldn't see the change in source.*/
 123:Middlewares/lvgl/src/widgets/lv_img.c ****             if(img->src_type == LV_IMG_SRC_FILE || img->src_type == LV_IMG_SRC_SYMBOL) {
 124:Middlewares/lvgl/src/widgets/lv_img.c ****                 old_src = img->src;
 125:Middlewares/lvgl/src/widgets/lv_img.c ****             }
 126:Middlewares/lvgl/src/widgets/lv_img.c ****             char * new_str = lv_mem_alloc(strlen(src) + 1);
 127:Middlewares/lvgl/src/widgets/lv_img.c ****             LV_ASSERT_MALLOC(new_str);
 128:Middlewares/lvgl/src/widgets/lv_img.c ****             if(new_str == NULL) return;
 129:Middlewares/lvgl/src/widgets/lv_img.c ****             strcpy(new_str, src);
 130:Middlewares/lvgl/src/widgets/lv_img.c ****             img->src = new_str;
 131:Middlewares/lvgl/src/widgets/lv_img.c **** 
 132:Middlewares/lvgl/src/widgets/lv_img.c ****             if(old_src) lv_mem_free((void*)old_src);
 133:Middlewares/lvgl/src/widgets/lv_img.c ****         }
 134:Middlewares/lvgl/src/widgets/lv_img.c ****     }
 135:Middlewares/lvgl/src/widgets/lv_img.c **** 
 136:Middlewares/lvgl/src/widgets/lv_img.c ****     if(src_type == LV_IMG_SRC_SYMBOL) {
 137:Middlewares/lvgl/src/widgets/lv_img.c ****         /*`lv_img_dsc_get_info` couldn't set the with and height of a font so set it here*/
 138:Middlewares/lvgl/src/widgets/lv_img.c ****         const lv_font_t * font = lv_obj_get_style_text_font(obj, LV_PART_MAIN);
 139:Middlewares/lvgl/src/widgets/lv_img.c ****         lv_coord_t letter_space = lv_obj_get_style_text_letter_space(obj, LV_PART_MAIN);
 140:Middlewares/lvgl/src/widgets/lv_img.c ****         lv_coord_t line_space = lv_obj_get_style_text_line_space(obj, LV_PART_MAIN);
 141:Middlewares/lvgl/src/widgets/lv_img.c ****         lv_point_t size;
 142:Middlewares/lvgl/src/widgets/lv_img.c ****         lv_txt_get_size(&size, src, font, letter_space, line_space, LV_COORD_MAX, LV_TEXT_FLAG_NONE
 143:Middlewares/lvgl/src/widgets/lv_img.c ****         header.w = size.x;
 144:Middlewares/lvgl/src/widgets/lv_img.c ****         header.h = size.y;
ARM GAS  /tmp/cc6jSqZn.s 			page 4


 145:Middlewares/lvgl/src/widgets/lv_img.c ****     }
 146:Middlewares/lvgl/src/widgets/lv_img.c **** 
 147:Middlewares/lvgl/src/widgets/lv_img.c ****     img->src_type = src_type;
 148:Middlewares/lvgl/src/widgets/lv_img.c ****     img->w        = header.w;
 149:Middlewares/lvgl/src/widgets/lv_img.c ****     img->h        = header.h;
 150:Middlewares/lvgl/src/widgets/lv_img.c ****     img->cf       = header.cf;
 151:Middlewares/lvgl/src/widgets/lv_img.c ****     img->pivot.x = header.w / 2;
 152:Middlewares/lvgl/src/widgets/lv_img.c ****     img->pivot.y = header.h / 2;
 153:Middlewares/lvgl/src/widgets/lv_img.c **** 
 154:Middlewares/lvgl/src/widgets/lv_img.c ****     lv_obj_refresh_self_size(obj);
 155:Middlewares/lvgl/src/widgets/lv_img.c **** 
 156:Middlewares/lvgl/src/widgets/lv_img.c ****     /*Provide enough room for the rotated corners*/
 157:Middlewares/lvgl/src/widgets/lv_img.c ****     if(img->angle || img->zoom != LV_IMG_ZOOM_NONE) lv_obj_refresh_ext_draw_size(obj);
 158:Middlewares/lvgl/src/widgets/lv_img.c **** 
 159:Middlewares/lvgl/src/widgets/lv_img.c ****     lv_obj_invalidate(obj);
 160:Middlewares/lvgl/src/widgets/lv_img.c **** }
 161:Middlewares/lvgl/src/widgets/lv_img.c **** 
 162:Middlewares/lvgl/src/widgets/lv_img.c **** void lv_img_set_offset_x(lv_obj_t * obj, lv_coord_t x)
 163:Middlewares/lvgl/src/widgets/lv_img.c **** {
 164:Middlewares/lvgl/src/widgets/lv_img.c ****     LV_ASSERT_OBJ(obj, MY_CLASS);
 165:Middlewares/lvgl/src/widgets/lv_img.c **** 
 166:Middlewares/lvgl/src/widgets/lv_img.c ****    lv_img_t * img = (lv_img_t *)obj;
 167:Middlewares/lvgl/src/widgets/lv_img.c **** 
 168:Middlewares/lvgl/src/widgets/lv_img.c ****     x = x % img->w;
 169:Middlewares/lvgl/src/widgets/lv_img.c **** 
 170:Middlewares/lvgl/src/widgets/lv_img.c ****     img->offset.x = x;
 171:Middlewares/lvgl/src/widgets/lv_img.c ****     lv_obj_invalidate(obj);
 172:Middlewares/lvgl/src/widgets/lv_img.c **** }
 173:Middlewares/lvgl/src/widgets/lv_img.c **** 
 174:Middlewares/lvgl/src/widgets/lv_img.c **** void lv_img_set_offset_y(lv_obj_t * obj, lv_coord_t y)
 175:Middlewares/lvgl/src/widgets/lv_img.c **** {
 176:Middlewares/lvgl/src/widgets/lv_img.c ****     LV_ASSERT_OBJ(obj, MY_CLASS);
 177:Middlewares/lvgl/src/widgets/lv_img.c **** 
 178:Middlewares/lvgl/src/widgets/lv_img.c ****    lv_img_t * img = (lv_img_t *)obj;
 179:Middlewares/lvgl/src/widgets/lv_img.c **** 
 180:Middlewares/lvgl/src/widgets/lv_img.c ****     y = y % img->h;
 181:Middlewares/lvgl/src/widgets/lv_img.c **** 
 182:Middlewares/lvgl/src/widgets/lv_img.c ****     img->offset.y = y;
 183:Middlewares/lvgl/src/widgets/lv_img.c ****     lv_obj_invalidate(obj);
 184:Middlewares/lvgl/src/widgets/lv_img.c **** }
 185:Middlewares/lvgl/src/widgets/lv_img.c **** 
 186:Middlewares/lvgl/src/widgets/lv_img.c **** void lv_img_set_angle(lv_obj_t * obj, int16_t angle)
 187:Middlewares/lvgl/src/widgets/lv_img.c **** {
 188:Middlewares/lvgl/src/widgets/lv_img.c ****     if(angle < 0 || angle >= 3600) angle = angle % 3600;
 189:Middlewares/lvgl/src/widgets/lv_img.c **** 
 190:Middlewares/lvgl/src/widgets/lv_img.c ****    lv_img_t * img = (lv_img_t *)obj;
 191:Middlewares/lvgl/src/widgets/lv_img.c ****     if(angle == img->angle) return;
 192:Middlewares/lvgl/src/widgets/lv_img.c **** 
 193:Middlewares/lvgl/src/widgets/lv_img.c ****     lv_coord_t transf_zoom = lv_obj_get_style_transform_zoom(obj, LV_PART_MAIN);
 194:Middlewares/lvgl/src/widgets/lv_img.c ****     transf_zoom = (transf_zoom * img->zoom) >> 8;
 195:Middlewares/lvgl/src/widgets/lv_img.c **** 
 196:Middlewares/lvgl/src/widgets/lv_img.c ****     lv_coord_t transf_angle = lv_obj_get_style_transform_angle(obj, LV_PART_MAIN);
 197:Middlewares/lvgl/src/widgets/lv_img.c **** 
 198:Middlewares/lvgl/src/widgets/lv_img.c ****     lv_coord_t w = lv_obj_get_width(obj);
 199:Middlewares/lvgl/src/widgets/lv_img.c ****     lv_coord_t h = lv_obj_get_height(obj);
 200:Middlewares/lvgl/src/widgets/lv_img.c ****     lv_area_t a;
 201:Middlewares/lvgl/src/widgets/lv_img.c ****     _lv_img_buf_get_transformed_area(&a, w, h, transf_angle + img->angle, transf_zoom, &img->pivot)
ARM GAS  /tmp/cc6jSqZn.s 			page 5


 202:Middlewares/lvgl/src/widgets/lv_img.c ****     a.x1 += obj->coords.x1;
 203:Middlewares/lvgl/src/widgets/lv_img.c ****     a.y1 += obj->coords.y1;
 204:Middlewares/lvgl/src/widgets/lv_img.c ****     a.x2 += obj->coords.x1;
 205:Middlewares/lvgl/src/widgets/lv_img.c ****     a.y2 += obj->coords.y1;
 206:Middlewares/lvgl/src/widgets/lv_img.c ****     lv_obj_invalidate_area(obj, &a);
 207:Middlewares/lvgl/src/widgets/lv_img.c **** 
 208:Middlewares/lvgl/src/widgets/lv_img.c ****     img->angle = angle;
 209:Middlewares/lvgl/src/widgets/lv_img.c ****     lv_obj_refresh_ext_draw_size(obj);
 210:Middlewares/lvgl/src/widgets/lv_img.c **** 
 211:Middlewares/lvgl/src/widgets/lv_img.c ****     _lv_img_buf_get_transformed_area(&a, w, h, transf_angle + img->angle, transf_zoom, &img->pivot)
 212:Middlewares/lvgl/src/widgets/lv_img.c ****     a.x1 += obj->coords.x1;
 213:Middlewares/lvgl/src/widgets/lv_img.c ****     a.y1 += obj->coords.y1;
 214:Middlewares/lvgl/src/widgets/lv_img.c ****     a.x2 += obj->coords.x1;
 215:Middlewares/lvgl/src/widgets/lv_img.c ****     a.y2 += obj->coords.y1;
 216:Middlewares/lvgl/src/widgets/lv_img.c ****     lv_obj_invalidate_area(obj, &a);
 217:Middlewares/lvgl/src/widgets/lv_img.c **** }
 218:Middlewares/lvgl/src/widgets/lv_img.c **** 
 219:Middlewares/lvgl/src/widgets/lv_img.c **** void lv_img_set_pivot(lv_obj_t * obj, lv_coord_t x, lv_coord_t y)
 220:Middlewares/lvgl/src/widgets/lv_img.c **** {
 221:Middlewares/lvgl/src/widgets/lv_img.c ****     lv_img_t * img = (lv_img_t *)obj;
 222:Middlewares/lvgl/src/widgets/lv_img.c ****     if(img->pivot.x == x && img->pivot.y == y) return;
 223:Middlewares/lvgl/src/widgets/lv_img.c **** 
 224:Middlewares/lvgl/src/widgets/lv_img.c ****     lv_coord_t transf_zoom = lv_obj_get_style_transform_zoom(obj, LV_PART_MAIN);
 225:Middlewares/lvgl/src/widgets/lv_img.c ****     transf_zoom = (transf_zoom * img->zoom) >> 8;
 226:Middlewares/lvgl/src/widgets/lv_img.c **** 
 227:Middlewares/lvgl/src/widgets/lv_img.c ****     lv_coord_t transf_angle = lv_obj_get_style_transform_angle(obj, LV_PART_MAIN);
 228:Middlewares/lvgl/src/widgets/lv_img.c ****     transf_angle += img->angle;
 229:Middlewares/lvgl/src/widgets/lv_img.c **** 
 230:Middlewares/lvgl/src/widgets/lv_img.c ****     lv_coord_t w = lv_obj_get_width(obj);
 231:Middlewares/lvgl/src/widgets/lv_img.c ****     lv_coord_t h = lv_obj_get_height(obj);
 232:Middlewares/lvgl/src/widgets/lv_img.c ****     lv_area_t a;
 233:Middlewares/lvgl/src/widgets/lv_img.c ****     _lv_img_buf_get_transformed_area(&a, w, h, transf_angle, transf_zoom, &img->pivot);
 234:Middlewares/lvgl/src/widgets/lv_img.c ****     a.x1 += obj->coords.x1;
 235:Middlewares/lvgl/src/widgets/lv_img.c ****     a.y1 += obj->coords.y1;
 236:Middlewares/lvgl/src/widgets/lv_img.c ****     a.x2 += obj->coords.x1;
 237:Middlewares/lvgl/src/widgets/lv_img.c ****     a.y2 += obj->coords.y1;
 238:Middlewares/lvgl/src/widgets/lv_img.c ****     lv_obj_invalidate_area(obj, &a);
 239:Middlewares/lvgl/src/widgets/lv_img.c **** 
 240:Middlewares/lvgl/src/widgets/lv_img.c ****     img->pivot.x = x;
 241:Middlewares/lvgl/src/widgets/lv_img.c ****     img->pivot.y = y;
 242:Middlewares/lvgl/src/widgets/lv_img.c ****     lv_obj_refresh_ext_draw_size(obj);
 243:Middlewares/lvgl/src/widgets/lv_img.c **** 
 244:Middlewares/lvgl/src/widgets/lv_img.c ****     _lv_img_buf_get_transformed_area(&a, w, h, transf_angle, transf_zoom, &img->pivot);
 245:Middlewares/lvgl/src/widgets/lv_img.c ****     a.x1 += obj->coords.x1;
 246:Middlewares/lvgl/src/widgets/lv_img.c ****     a.y1 += obj->coords.y1;
 247:Middlewares/lvgl/src/widgets/lv_img.c ****     a.x2 += obj->coords.x1;
 248:Middlewares/lvgl/src/widgets/lv_img.c ****     a.y2 += obj->coords.y1;
 249:Middlewares/lvgl/src/widgets/lv_img.c ****     lv_obj_invalidate_area(obj, &a);
 250:Middlewares/lvgl/src/widgets/lv_img.c **** }
 251:Middlewares/lvgl/src/widgets/lv_img.c **** 
 252:Middlewares/lvgl/src/widgets/lv_img.c **** void lv_img_set_zoom(lv_obj_t * obj, uint16_t zoom)
 253:Middlewares/lvgl/src/widgets/lv_img.c **** {
 254:Middlewares/lvgl/src/widgets/lv_img.c ****    lv_img_t * img = (lv_img_t *)obj;
 255:Middlewares/lvgl/src/widgets/lv_img.c ****     if(zoom == img->zoom) return;
 256:Middlewares/lvgl/src/widgets/lv_img.c **** 
 257:Middlewares/lvgl/src/widgets/lv_img.c ****     if(zoom == 0) zoom = 1;
 258:Middlewares/lvgl/src/widgets/lv_img.c **** 
ARM GAS  /tmp/cc6jSqZn.s 			page 6


 259:Middlewares/lvgl/src/widgets/lv_img.c ****     lv_coord_t transf_zoom = lv_obj_get_style_transform_zoom(obj, LV_PART_MAIN);
 260:Middlewares/lvgl/src/widgets/lv_img.c **** 
 261:Middlewares/lvgl/src/widgets/lv_img.c ****     lv_coord_t transf_angle = lv_obj_get_style_transform_angle(obj, LV_PART_MAIN);
 262:Middlewares/lvgl/src/widgets/lv_img.c ****     transf_angle += img->angle;
 263:Middlewares/lvgl/src/widgets/lv_img.c **** 
 264:Middlewares/lvgl/src/widgets/lv_img.c ****     lv_coord_t w = lv_obj_get_width(obj);
 265:Middlewares/lvgl/src/widgets/lv_img.c ****     lv_coord_t h = lv_obj_get_height(obj);
 266:Middlewares/lvgl/src/widgets/lv_img.c ****     lv_area_t a;
 267:Middlewares/lvgl/src/widgets/lv_img.c ****     _lv_img_buf_get_transformed_area(&a, w, h, transf_angle, (transf_zoom * img->zoom) >> 8, &img->
 268:Middlewares/lvgl/src/widgets/lv_img.c ****     a.x1 += obj->coords.x1 - 1;
 269:Middlewares/lvgl/src/widgets/lv_img.c ****     a.y1 += obj->coords.y1 - 1;
 270:Middlewares/lvgl/src/widgets/lv_img.c ****     a.x2 += obj->coords.x1 + 1;
 271:Middlewares/lvgl/src/widgets/lv_img.c ****     a.y2 += obj->coords.y1 + 1;
 272:Middlewares/lvgl/src/widgets/lv_img.c ****     lv_obj_invalidate_area(obj, &a);
 273:Middlewares/lvgl/src/widgets/lv_img.c **** 
 274:Middlewares/lvgl/src/widgets/lv_img.c ****     img->zoom = zoom;
 275:Middlewares/lvgl/src/widgets/lv_img.c ****     lv_obj_refresh_ext_draw_size(obj);
 276:Middlewares/lvgl/src/widgets/lv_img.c **** 
 277:Middlewares/lvgl/src/widgets/lv_img.c ****     _lv_img_buf_get_transformed_area(&a, w, h, transf_angle, (transf_zoom * img->zoom) >> 8, &img->
 278:Middlewares/lvgl/src/widgets/lv_img.c ****     a.x1 += obj->coords.x1 - 1;
 279:Middlewares/lvgl/src/widgets/lv_img.c ****     a.y1 += obj->coords.y1 - 1;
 280:Middlewares/lvgl/src/widgets/lv_img.c ****     a.x2 += obj->coords.x1 + 1;
 281:Middlewares/lvgl/src/widgets/lv_img.c ****     a.y2 += obj->coords.y1 + 1;
 282:Middlewares/lvgl/src/widgets/lv_img.c ****     lv_obj_invalidate_area(obj, &a);
 283:Middlewares/lvgl/src/widgets/lv_img.c **** }
 284:Middlewares/lvgl/src/widgets/lv_img.c **** 
 285:Middlewares/lvgl/src/widgets/lv_img.c **** void lv_img_set_antialias(lv_obj_t * obj, bool antialias)
 286:Middlewares/lvgl/src/widgets/lv_img.c **** {
 287:Middlewares/lvgl/src/widgets/lv_img.c ****    lv_img_t * img = (lv_img_t *)obj;
 288:Middlewares/lvgl/src/widgets/lv_img.c ****     if(antialias == img->antialias) return;
 289:Middlewares/lvgl/src/widgets/lv_img.c **** 
 290:Middlewares/lvgl/src/widgets/lv_img.c ****     img->antialias = antialias;
 291:Middlewares/lvgl/src/widgets/lv_img.c ****     lv_obj_invalidate(obj);
 292:Middlewares/lvgl/src/widgets/lv_img.c **** }
 293:Middlewares/lvgl/src/widgets/lv_img.c **** 
 294:Middlewares/lvgl/src/widgets/lv_img.c **** /*=====================
 295:Middlewares/lvgl/src/widgets/lv_img.c ****  * Getter functions
 296:Middlewares/lvgl/src/widgets/lv_img.c ****  *====================*/
 297:Middlewares/lvgl/src/widgets/lv_img.c **** 
 298:Middlewares/lvgl/src/widgets/lv_img.c **** const void * lv_img_get_src(lv_obj_t * obj)
 299:Middlewares/lvgl/src/widgets/lv_img.c **** {
 300:Middlewares/lvgl/src/widgets/lv_img.c ****     LV_ASSERT_OBJ(obj, MY_CLASS);
 301:Middlewares/lvgl/src/widgets/lv_img.c **** 
 302:Middlewares/lvgl/src/widgets/lv_img.c ****    lv_img_t * img = (lv_img_t *)obj;
 303:Middlewares/lvgl/src/widgets/lv_img.c **** 
 304:Middlewares/lvgl/src/widgets/lv_img.c ****     return img->src;
 305:Middlewares/lvgl/src/widgets/lv_img.c **** }
 306:Middlewares/lvgl/src/widgets/lv_img.c **** 
 307:Middlewares/lvgl/src/widgets/lv_img.c **** lv_coord_t lv_img_get_offset_x(lv_obj_t * obj)
 308:Middlewares/lvgl/src/widgets/lv_img.c **** {
 309:Middlewares/lvgl/src/widgets/lv_img.c ****     LV_ASSERT_OBJ(obj, MY_CLASS);
 310:Middlewares/lvgl/src/widgets/lv_img.c **** 
 311:Middlewares/lvgl/src/widgets/lv_img.c ****    lv_img_t * img = (lv_img_t *)obj;
 312:Middlewares/lvgl/src/widgets/lv_img.c **** 
 313:Middlewares/lvgl/src/widgets/lv_img.c ****     return img->offset.x;
 314:Middlewares/lvgl/src/widgets/lv_img.c **** }
 315:Middlewares/lvgl/src/widgets/lv_img.c **** 
ARM GAS  /tmp/cc6jSqZn.s 			page 7


 316:Middlewares/lvgl/src/widgets/lv_img.c **** lv_coord_t lv_img_get_offset_y(lv_obj_t * obj)
 317:Middlewares/lvgl/src/widgets/lv_img.c **** {
 318:Middlewares/lvgl/src/widgets/lv_img.c ****     LV_ASSERT_OBJ(obj, MY_CLASS);
 319:Middlewares/lvgl/src/widgets/lv_img.c **** 
 320:Middlewares/lvgl/src/widgets/lv_img.c ****    lv_img_t * img = (lv_img_t *)obj;
 321:Middlewares/lvgl/src/widgets/lv_img.c **** 
 322:Middlewares/lvgl/src/widgets/lv_img.c ****     return img->offset.y;
 323:Middlewares/lvgl/src/widgets/lv_img.c **** }
 324:Middlewares/lvgl/src/widgets/lv_img.c **** 
 325:Middlewares/lvgl/src/widgets/lv_img.c **** uint16_t lv_img_get_angle(lv_obj_t * obj)
 326:Middlewares/lvgl/src/widgets/lv_img.c **** {
 327:Middlewares/lvgl/src/widgets/lv_img.c ****     LV_ASSERT_OBJ(obj, MY_CLASS);
 328:Middlewares/lvgl/src/widgets/lv_img.c **** 
 329:Middlewares/lvgl/src/widgets/lv_img.c ****    lv_img_t * img = (lv_img_t *)obj;
 330:Middlewares/lvgl/src/widgets/lv_img.c **** 
 331:Middlewares/lvgl/src/widgets/lv_img.c ****     return img->angle;
 332:Middlewares/lvgl/src/widgets/lv_img.c **** }
 333:Middlewares/lvgl/src/widgets/lv_img.c **** 
 334:Middlewares/lvgl/src/widgets/lv_img.c **** void lv_img_get_pivot(lv_obj_t * obj, lv_point_t * pivot)
 335:Middlewares/lvgl/src/widgets/lv_img.c **** {
 336:Middlewares/lvgl/src/widgets/lv_img.c ****     LV_ASSERT_OBJ(obj, MY_CLASS);
 337:Middlewares/lvgl/src/widgets/lv_img.c **** 
 338:Middlewares/lvgl/src/widgets/lv_img.c ****    lv_img_t * img = (lv_img_t *)obj;
 339:Middlewares/lvgl/src/widgets/lv_img.c **** 
 340:Middlewares/lvgl/src/widgets/lv_img.c ****     *pivot = img->pivot;
 341:Middlewares/lvgl/src/widgets/lv_img.c **** }
 342:Middlewares/lvgl/src/widgets/lv_img.c **** 
 343:Middlewares/lvgl/src/widgets/lv_img.c **** uint16_t lv_img_get_zoom(lv_obj_t * obj)
 344:Middlewares/lvgl/src/widgets/lv_img.c **** {
 345:Middlewares/lvgl/src/widgets/lv_img.c ****     LV_ASSERT_OBJ(obj, MY_CLASS);
 346:Middlewares/lvgl/src/widgets/lv_img.c **** 
 347:Middlewares/lvgl/src/widgets/lv_img.c ****    lv_img_t * img = (lv_img_t *)obj;
 348:Middlewares/lvgl/src/widgets/lv_img.c **** 
 349:Middlewares/lvgl/src/widgets/lv_img.c ****     return img->zoom;
 350:Middlewares/lvgl/src/widgets/lv_img.c **** }
 351:Middlewares/lvgl/src/widgets/lv_img.c **** 
 352:Middlewares/lvgl/src/widgets/lv_img.c **** bool lv_img_get_antialias(lv_obj_t * obj)
 353:Middlewares/lvgl/src/widgets/lv_img.c **** {
 354:Middlewares/lvgl/src/widgets/lv_img.c ****     LV_ASSERT_OBJ(obj, MY_CLASS);
 355:Middlewares/lvgl/src/widgets/lv_img.c **** 
 356:Middlewares/lvgl/src/widgets/lv_img.c ****    lv_img_t * img = (lv_img_t *)obj;
 357:Middlewares/lvgl/src/widgets/lv_img.c **** 
 358:Middlewares/lvgl/src/widgets/lv_img.c ****     return img->antialias ? true : false;
 359:Middlewares/lvgl/src/widgets/lv_img.c **** }
 360:Middlewares/lvgl/src/widgets/lv_img.c **** 
 361:Middlewares/lvgl/src/widgets/lv_img.c **** /**********************
 362:Middlewares/lvgl/src/widgets/lv_img.c ****  *   STATIC FUNCTIONS
 363:Middlewares/lvgl/src/widgets/lv_img.c ****  **********************/
 364:Middlewares/lvgl/src/widgets/lv_img.c **** 
 365:Middlewares/lvgl/src/widgets/lv_img.c **** static void lv_img_constructor(const lv_obj_class_t * class_p, lv_obj_t * obj)
 366:Middlewares/lvgl/src/widgets/lv_img.c **** {
 367:Middlewares/lvgl/src/widgets/lv_img.c ****     LV_UNUSED(class_p);
 368:Middlewares/lvgl/src/widgets/lv_img.c ****     LV_TRACE_OBJ_CREATE("begin");
 369:Middlewares/lvgl/src/widgets/lv_img.c **** 
 370:Middlewares/lvgl/src/widgets/lv_img.c ****     lv_img_t * img = (lv_img_t *)obj;
 371:Middlewares/lvgl/src/widgets/lv_img.c **** 
 372:Middlewares/lvgl/src/widgets/lv_img.c ****     img->src       = NULL;
ARM GAS  /tmp/cc6jSqZn.s 			page 8


 373:Middlewares/lvgl/src/widgets/lv_img.c ****     img->src_type  = LV_IMG_SRC_UNKNOWN;
 374:Middlewares/lvgl/src/widgets/lv_img.c ****     img->cf        = LV_IMG_CF_UNKNOWN;
 375:Middlewares/lvgl/src/widgets/lv_img.c ****     img->w         = lv_obj_get_width(obj);
 376:Middlewares/lvgl/src/widgets/lv_img.c ****     img->h         = lv_obj_get_height(obj);
 377:Middlewares/lvgl/src/widgets/lv_img.c ****     img->angle = 0;
 378:Middlewares/lvgl/src/widgets/lv_img.c ****     img->zoom = LV_IMG_ZOOM_NONE;
 379:Middlewares/lvgl/src/widgets/lv_img.c ****     img->antialias = LV_COLOR_DEPTH > 8 ? 1 : 0;
 380:Middlewares/lvgl/src/widgets/lv_img.c ****     img->offset.x  = 0;
 381:Middlewares/lvgl/src/widgets/lv_img.c ****     img->offset.y  = 0;
 382:Middlewares/lvgl/src/widgets/lv_img.c ****     img->pivot.x = 0;
 383:Middlewares/lvgl/src/widgets/lv_img.c ****     img->pivot.y = 0;
 384:Middlewares/lvgl/src/widgets/lv_img.c **** 
 385:Middlewares/lvgl/src/widgets/lv_img.c ****     lv_obj_clear_flag(obj, LV_OBJ_FLAG_CLICKABLE);
 386:Middlewares/lvgl/src/widgets/lv_img.c ****     lv_obj_add_flag(obj, LV_OBJ_FLAG_ADV_HITTEST);
 387:Middlewares/lvgl/src/widgets/lv_img.c **** 
 388:Middlewares/lvgl/src/widgets/lv_img.c ****     LV_TRACE_OBJ_CREATE("finished");
 389:Middlewares/lvgl/src/widgets/lv_img.c **** }
 390:Middlewares/lvgl/src/widgets/lv_img.c **** 
 391:Middlewares/lvgl/src/widgets/lv_img.c **** static void lv_img_destructor(const lv_obj_class_t * class_p, lv_obj_t * obj)
 392:Middlewares/lvgl/src/widgets/lv_img.c **** {
 393:Middlewares/lvgl/src/widgets/lv_img.c ****     LV_UNUSED(class_p);
 394:Middlewares/lvgl/src/widgets/lv_img.c ****     lv_img_t * img = (lv_img_t *)obj;
 395:Middlewares/lvgl/src/widgets/lv_img.c ****     if(img->src_type == LV_IMG_SRC_FILE || img->src_type == LV_IMG_SRC_SYMBOL) {
 396:Middlewares/lvgl/src/widgets/lv_img.c ****         lv_mem_free((void*)img->src);
 397:Middlewares/lvgl/src/widgets/lv_img.c ****         img->src      = NULL;
 398:Middlewares/lvgl/src/widgets/lv_img.c ****         img->src_type = LV_IMG_SRC_UNKNOWN;
 399:Middlewares/lvgl/src/widgets/lv_img.c ****     }
 400:Middlewares/lvgl/src/widgets/lv_img.c **** }
 401:Middlewares/lvgl/src/widgets/lv_img.c **** 
 402:Middlewares/lvgl/src/widgets/lv_img.c **** static void lv_img_event(const lv_obj_class_t * class_p, lv_event_t * e)
 403:Middlewares/lvgl/src/widgets/lv_img.c **** {
 404:Middlewares/lvgl/src/widgets/lv_img.c ****     LV_UNUSED(class_p);
 405:Middlewares/lvgl/src/widgets/lv_img.c **** 
 406:Middlewares/lvgl/src/widgets/lv_img.c ****     lv_event_code_t code = lv_event_get_code(e);
 407:Middlewares/lvgl/src/widgets/lv_img.c **** 
 408:Middlewares/lvgl/src/widgets/lv_img.c ****     /*Ancestor events will be called during drawing*/
 409:Middlewares/lvgl/src/widgets/lv_img.c ****     if(code != LV_EVENT_DRAW_MAIN && code != LV_EVENT_DRAW_POST) {
 410:Middlewares/lvgl/src/widgets/lv_img.c ****         /*Call the ancestor's event handler*/
 411:Middlewares/lvgl/src/widgets/lv_img.c ****         lv_res_t res = lv_obj_event_base(MY_CLASS, e);
 412:Middlewares/lvgl/src/widgets/lv_img.c ****         if(res != LV_RES_OK) return;
 413:Middlewares/lvgl/src/widgets/lv_img.c ****     }
 414:Middlewares/lvgl/src/widgets/lv_img.c **** 
 415:Middlewares/lvgl/src/widgets/lv_img.c ****     lv_obj_t * obj = lv_event_get_target(e);
 416:Middlewares/lvgl/src/widgets/lv_img.c ****     lv_img_t * img = (lv_img_t *)obj;
 417:Middlewares/lvgl/src/widgets/lv_img.c **** 
 418:Middlewares/lvgl/src/widgets/lv_img.c ****     if(code == LV_EVENT_STYLE_CHANGED) {
 419:Middlewares/lvgl/src/widgets/lv_img.c ****         /*Refresh the file name to refresh the symbol text size*/
 420:Middlewares/lvgl/src/widgets/lv_img.c ****         if(img->src_type == LV_IMG_SRC_SYMBOL) {
 421:Middlewares/lvgl/src/widgets/lv_img.c ****             lv_img_set_src(obj, img->src);
 422:Middlewares/lvgl/src/widgets/lv_img.c ****         } else {
 423:Middlewares/lvgl/src/widgets/lv_img.c ****             /*With transformation it might change*/
 424:Middlewares/lvgl/src/widgets/lv_img.c ****             lv_obj_refresh_ext_draw_size(obj);
 425:Middlewares/lvgl/src/widgets/lv_img.c ****         }
 426:Middlewares/lvgl/src/widgets/lv_img.c ****     }
 427:Middlewares/lvgl/src/widgets/lv_img.c ****     else if(code == LV_EVENT_REFR_EXT_DRAW_SIZE) {
 428:Middlewares/lvgl/src/widgets/lv_img.c **** 
 429:Middlewares/lvgl/src/widgets/lv_img.c ****         lv_coord_t * s = lv_event_get_param(e);
ARM GAS  /tmp/cc6jSqZn.s 			page 9


 430:Middlewares/lvgl/src/widgets/lv_img.c ****         lv_coord_t transf_zoom = lv_obj_get_style_transform_zoom(obj, LV_PART_MAIN);
 431:Middlewares/lvgl/src/widgets/lv_img.c ****         transf_zoom = (transf_zoom * img->zoom) >> 8;
 432:Middlewares/lvgl/src/widgets/lv_img.c **** 
 433:Middlewares/lvgl/src/widgets/lv_img.c ****         lv_coord_t transf_angle = lv_obj_get_style_transform_angle(obj, LV_PART_MAIN);
 434:Middlewares/lvgl/src/widgets/lv_img.c ****         transf_angle += img->angle;
 435:Middlewares/lvgl/src/widgets/lv_img.c **** 
 436:Middlewares/lvgl/src/widgets/lv_img.c ****         /*If the image has angle provide enough room for the rotated corners*/
 437:Middlewares/lvgl/src/widgets/lv_img.c ****         if(transf_angle || transf_zoom != LV_IMG_ZOOM_NONE) {
 438:Middlewares/lvgl/src/widgets/lv_img.c ****             lv_area_t a;
 439:Middlewares/lvgl/src/widgets/lv_img.c ****             lv_coord_t w = lv_obj_get_width(obj);
 440:Middlewares/lvgl/src/widgets/lv_img.c ****             lv_coord_t h = lv_obj_get_height(obj);
 441:Middlewares/lvgl/src/widgets/lv_img.c ****             _lv_img_buf_get_transformed_area(&a, w, h, transf_angle, transf_zoom, &img->pivot);
 442:Middlewares/lvgl/src/widgets/lv_img.c ****             lv_coord_t pad_ori = *s;
 443:Middlewares/lvgl/src/widgets/lv_img.c ****             *s = LV_MAX(*s, pad_ori - a.x1);
 444:Middlewares/lvgl/src/widgets/lv_img.c ****             *s = LV_MAX(*s, pad_ori - a.y1);
 445:Middlewares/lvgl/src/widgets/lv_img.c ****             *s = LV_MAX(*s, pad_ori + a.x2 - w);
 446:Middlewares/lvgl/src/widgets/lv_img.c ****             *s = LV_MAX(*s, pad_ori + a.y2 - h);
 447:Middlewares/lvgl/src/widgets/lv_img.c ****         }
 448:Middlewares/lvgl/src/widgets/lv_img.c ****     }
 449:Middlewares/lvgl/src/widgets/lv_img.c ****     else if(code == LV_EVENT_HIT_TEST) {
 450:Middlewares/lvgl/src/widgets/lv_img.c ****         lv_hit_test_info_t * info = lv_event_get_param(e);
 451:Middlewares/lvgl/src/widgets/lv_img.c ****         lv_coord_t zoom = lv_obj_get_style_transform_zoom(obj, LV_PART_MAIN);
 452:Middlewares/lvgl/src/widgets/lv_img.c ****         zoom = (zoom * img->zoom) >> 8;
 453:Middlewares/lvgl/src/widgets/lv_img.c **** 
 454:Middlewares/lvgl/src/widgets/lv_img.c ****         lv_coord_t angle = lv_obj_get_style_transform_angle(obj, LV_PART_MAIN);
 455:Middlewares/lvgl/src/widgets/lv_img.c ****         angle += img->angle;
 456:Middlewares/lvgl/src/widgets/lv_img.c **** 
 457:Middlewares/lvgl/src/widgets/lv_img.c ****         /*If the object is exactly image sized (not cropped, not mosaic) and transformed
 458:Middlewares/lvgl/src/widgets/lv_img.c ****          *perform hit test on it's transformed area*/
 459:Middlewares/lvgl/src/widgets/lv_img.c ****         if(img->w == lv_obj_get_width(obj) && img->h == lv_obj_get_height(obj) &&
 460:Middlewares/lvgl/src/widgets/lv_img.c ****                 (zoom != LV_IMG_ZOOM_NONE || angle != 0 || img->pivot.x != img->w / 2 || img->pivot
 461:Middlewares/lvgl/src/widgets/lv_img.c **** 
 462:Middlewares/lvgl/src/widgets/lv_img.c ****             lv_coord_t w = lv_obj_get_width(obj);
 463:Middlewares/lvgl/src/widgets/lv_img.c ****             lv_coord_t h = lv_obj_get_height(obj);
 464:Middlewares/lvgl/src/widgets/lv_img.c ****             lv_area_t coords;
 465:Middlewares/lvgl/src/widgets/lv_img.c ****             _lv_img_buf_get_transformed_area(&coords, w, h, angle, zoom, &img->pivot);
 466:Middlewares/lvgl/src/widgets/lv_img.c ****             coords.x1 += obj->coords.x1;
 467:Middlewares/lvgl/src/widgets/lv_img.c ****             coords.y1 += obj->coords.y1;
 468:Middlewares/lvgl/src/widgets/lv_img.c ****             coords.x2 += obj->coords.x1;
 469:Middlewares/lvgl/src/widgets/lv_img.c ****             coords.y2 += obj->coords.y1;
 470:Middlewares/lvgl/src/widgets/lv_img.c **** 
 471:Middlewares/lvgl/src/widgets/lv_img.c ****             info->res = _lv_area_is_point_on(&coords, info->point, 0);
 472:Middlewares/lvgl/src/widgets/lv_img.c ****         }
 473:Middlewares/lvgl/src/widgets/lv_img.c ****         else {
 474:Middlewares/lvgl/src/widgets/lv_img.c ****             lv_area_t a;
 475:Middlewares/lvgl/src/widgets/lv_img.c ****             lv_obj_get_click_area(obj, &a);
 476:Middlewares/lvgl/src/widgets/lv_img.c ****             info->res = _lv_area_is_point_on(&a, info->point, 0);
 477:Middlewares/lvgl/src/widgets/lv_img.c ****         }
 478:Middlewares/lvgl/src/widgets/lv_img.c ****     }
 479:Middlewares/lvgl/src/widgets/lv_img.c ****     else if(code == LV_EVENT_GET_SELF_SIZE) {
 480:Middlewares/lvgl/src/widgets/lv_img.c ****         lv_point_t * p = lv_event_get_param(e);;
 481:Middlewares/lvgl/src/widgets/lv_img.c ****         p->x = img->w;
 482:Middlewares/lvgl/src/widgets/lv_img.c ****         p->y = img->h;
 483:Middlewares/lvgl/src/widgets/lv_img.c ****     }
 484:Middlewares/lvgl/src/widgets/lv_img.c ****     else if(code == LV_EVENT_DRAW_MAIN || code == LV_EVENT_DRAW_POST || code == LV_EVENT_COVER_CHEC
 485:Middlewares/lvgl/src/widgets/lv_img.c ****         draw_img(e);
 486:Middlewares/lvgl/src/widgets/lv_img.c ****     }
ARM GAS  /tmp/cc6jSqZn.s 			page 10


 487:Middlewares/lvgl/src/widgets/lv_img.c **** }
 488:Middlewares/lvgl/src/widgets/lv_img.c **** 
 489:Middlewares/lvgl/src/widgets/lv_img.c **** static void draw_img(lv_event_t * e)
 490:Middlewares/lvgl/src/widgets/lv_img.c **** {
  29              		.loc 1 490 1 view -0
  30              		.cfi_startproc
  31              		@ args = 0, pretend = 0, frame = 112
  32              		@ frame_needed = 0, uses_anonymous_args = 0
  33              		.loc 1 490 1 is_stmt 0 view .LVU1
  34 0000 2DE9F04F 		push	{r4, r5, r6, r7, r8, r9, r10, fp, lr}
  35              	.LCFI0:
  36              		.cfi_def_cfa_offset 36
  37              		.cfi_offset 4, -36
  38              		.cfi_offset 5, -32
  39              		.cfi_offset 6, -28
  40              		.cfi_offset 7, -24
  41              		.cfi_offset 8, -20
  42              		.cfi_offset 9, -16
  43              		.cfi_offset 10, -12
  44              		.cfi_offset 11, -8
  45              		.cfi_offset 14, -4
  46 0004 9FB0     		sub	sp, sp, #124
  47              	.LCFI1:
  48              		.cfi_def_cfa_offset 160
  49 0006 0646     		mov	r6, r0
 491:Middlewares/lvgl/src/widgets/lv_img.c ****     lv_event_code_t code = lv_event_get_code(e);
  50              		.loc 1 491 5 is_stmt 1 view .LVU2
  51              		.loc 1 491 28 is_stmt 0 view .LVU3
  52 0008 FFF7FEFF 		bl	lv_event_get_code
  53              	.LVL1:
  54              		.loc 1 491 28 view .LVU4
  55 000c 0546     		mov	r5, r0
  56              	.LVL2:
 492:Middlewares/lvgl/src/widgets/lv_img.c ****     lv_obj_t * obj = lv_event_get_target(e);
  57              		.loc 1 492 5 is_stmt 1 view .LVU5
  58              		.loc 1 492 22 is_stmt 0 view .LVU6
  59 000e 3046     		mov	r0, r6
  60 0010 FFF7FEFF 		bl	lv_event_get_target
  61              	.LVL3:
  62 0014 0446     		mov	r4, r0
  63              	.LVL4:
 493:Middlewares/lvgl/src/widgets/lv_img.c ****     lv_img_t * img = (lv_img_t *)obj;
  64              		.loc 1 493 5 is_stmt 1 view .LVU7
 494:Middlewares/lvgl/src/widgets/lv_img.c ****     if(code == LV_EVENT_COVER_CHECK) {
  65              		.loc 1 494 5 view .LVU8
  66              		.loc 1 494 7 is_stmt 0 view .LVU9
  67 0016 122D     		cmp	r5, #18
  68 0018 08D0     		beq	.L24
 495:Middlewares/lvgl/src/widgets/lv_img.c ****         lv_cover_check_info_t * info = lv_event_get_param(e);
 496:Middlewares/lvgl/src/widgets/lv_img.c ****         if(info->res == LV_COVER_RES_MASKED) return;
 497:Middlewares/lvgl/src/widgets/lv_img.c ****         if(img->src_type == LV_IMG_SRC_UNKNOWN || img->src_type == LV_IMG_SRC_SYMBOL) {
 498:Middlewares/lvgl/src/widgets/lv_img.c ****             info->res = LV_COVER_RES_NOT_COVER;
 499:Middlewares/lvgl/src/widgets/lv_img.c ****             return;
 500:Middlewares/lvgl/src/widgets/lv_img.c ****         }
 501:Middlewares/lvgl/src/widgets/lv_img.c **** 
 502:Middlewares/lvgl/src/widgets/lv_img.c ****         /*Non true color format might have "holes"*/
 503:Middlewares/lvgl/src/widgets/lv_img.c ****         if(img->cf != LV_IMG_CF_TRUE_COLOR && img->cf != LV_IMG_CF_RAW) {
ARM GAS  /tmp/cc6jSqZn.s 			page 11


 504:Middlewares/lvgl/src/widgets/lv_img.c ****             info->res = LV_COVER_RES_NOT_COVER;
 505:Middlewares/lvgl/src/widgets/lv_img.c ****             return;
 506:Middlewares/lvgl/src/widgets/lv_img.c ****         }
 507:Middlewares/lvgl/src/widgets/lv_img.c **** 
 508:Middlewares/lvgl/src/widgets/lv_img.c ****         /*With not LV_OPA_COVER images can't cover an area */
 509:Middlewares/lvgl/src/widgets/lv_img.c ****         if(lv_obj_get_style_img_opa(obj, LV_PART_MAIN) != LV_OPA_COVER) {
 510:Middlewares/lvgl/src/widgets/lv_img.c ****             info->res = LV_COVER_RES_NOT_COVER;
 511:Middlewares/lvgl/src/widgets/lv_img.c ****             return;
 512:Middlewares/lvgl/src/widgets/lv_img.c ****         }
 513:Middlewares/lvgl/src/widgets/lv_img.c **** 
 514:Middlewares/lvgl/src/widgets/lv_img.c ****         int32_t angle_final = lv_obj_get_style_transform_angle(obj, LV_PART_MAIN);
 515:Middlewares/lvgl/src/widgets/lv_img.c ****         angle_final += img->angle;
 516:Middlewares/lvgl/src/widgets/lv_img.c **** 
 517:Middlewares/lvgl/src/widgets/lv_img.c ****         if(angle_final != 0) {
 518:Middlewares/lvgl/src/widgets/lv_img.c ****             info->res = LV_COVER_RES_NOT_COVER;
 519:Middlewares/lvgl/src/widgets/lv_img.c ****             return;
 520:Middlewares/lvgl/src/widgets/lv_img.c ****         }
 521:Middlewares/lvgl/src/widgets/lv_img.c **** 
 522:Middlewares/lvgl/src/widgets/lv_img.c ****         int32_t zoom_final = lv_obj_get_style_transform_zoom(obj, LV_PART_MAIN);
 523:Middlewares/lvgl/src/widgets/lv_img.c ****         zoom_final = (zoom_final * img->zoom) >> 8;
 524:Middlewares/lvgl/src/widgets/lv_img.c **** 
 525:Middlewares/lvgl/src/widgets/lv_img.c ****         const lv_area_t * clip_area = lv_event_get_param(e);
 526:Middlewares/lvgl/src/widgets/lv_img.c ****         if(zoom_final == LV_IMG_ZOOM_NONE) {
 527:Middlewares/lvgl/src/widgets/lv_img.c ****             if(_lv_area_is_in(clip_area, &obj->coords, 0) == false) {
 528:Middlewares/lvgl/src/widgets/lv_img.c ****                 info->res = LV_COVER_RES_NOT_COVER;
 529:Middlewares/lvgl/src/widgets/lv_img.c ****                 return;
 530:Middlewares/lvgl/src/widgets/lv_img.c ****             }
 531:Middlewares/lvgl/src/widgets/lv_img.c ****         }
 532:Middlewares/lvgl/src/widgets/lv_img.c ****         else {
 533:Middlewares/lvgl/src/widgets/lv_img.c ****             lv_area_t a;
 534:Middlewares/lvgl/src/widgets/lv_img.c ****             _lv_img_buf_get_transformed_area(&a, lv_obj_get_width(obj), lv_obj_get_height(obj), 0, 
 535:Middlewares/lvgl/src/widgets/lv_img.c ****             a.x1 += obj->coords.x1;
 536:Middlewares/lvgl/src/widgets/lv_img.c ****             a.y1 += obj->coords.y1;
 537:Middlewares/lvgl/src/widgets/lv_img.c ****             a.x2 += obj->coords.x1;
 538:Middlewares/lvgl/src/widgets/lv_img.c ****             a.y2 += obj->coords.y1;
 539:Middlewares/lvgl/src/widgets/lv_img.c **** 
 540:Middlewares/lvgl/src/widgets/lv_img.c ****             if(_lv_area_is_in(clip_area, &a, 0) == false) {
 541:Middlewares/lvgl/src/widgets/lv_img.c ****                 info->res = LV_COVER_RES_NOT_COVER;
 542:Middlewares/lvgl/src/widgets/lv_img.c ****                 return;
 543:Middlewares/lvgl/src/widgets/lv_img.c ****             }
 544:Middlewares/lvgl/src/widgets/lv_img.c ****         }
 545:Middlewares/lvgl/src/widgets/lv_img.c ****     }
 546:Middlewares/lvgl/src/widgets/lv_img.c ****     else if(code == LV_EVENT_DRAW_MAIN || code == LV_EVENT_DRAW_POST) {
  69              		.loc 1 546 10 is_stmt 1 view .LVU10
  70              		.loc 1 546 12 is_stmt 0 view .LVU11
  71 001a 152D     		cmp	r5, #21
  72 001c 00F08480 		beq	.L10
  73              		.loc 1 546 40 discriminator 1 view .LVU12
  74 0020 182D     		cmp	r5, #24
  75 0022 00F08180 		beq	.L10
  76              	.LVL5:
  77              	.L1:
 547:Middlewares/lvgl/src/widgets/lv_img.c **** 
 548:Middlewares/lvgl/src/widgets/lv_img.c ****         int32_t zoom_final = lv_obj_get_style_transform_zoom(obj, LV_PART_MAIN);
 549:Middlewares/lvgl/src/widgets/lv_img.c ****         zoom_final = (zoom_final * img->zoom) >> 8;
 550:Middlewares/lvgl/src/widgets/lv_img.c **** 
 551:Middlewares/lvgl/src/widgets/lv_img.c ****         int32_t angle_final = lv_obj_get_style_transform_angle(obj, LV_PART_MAIN);
ARM GAS  /tmp/cc6jSqZn.s 			page 12


 552:Middlewares/lvgl/src/widgets/lv_img.c ****         angle_final += img->angle;
 553:Middlewares/lvgl/src/widgets/lv_img.c **** 
 554:Middlewares/lvgl/src/widgets/lv_img.c ****         lv_coord_t obj_w = lv_obj_get_width(obj);
 555:Middlewares/lvgl/src/widgets/lv_img.c ****         lv_coord_t obj_h = lv_obj_get_height(obj);
 556:Middlewares/lvgl/src/widgets/lv_img.c **** 
 557:Middlewares/lvgl/src/widgets/lv_img.c ****         lv_coord_t border_width = lv_obj_get_style_border_width(obj, LV_PART_MAIN);
 558:Middlewares/lvgl/src/widgets/lv_img.c ****         lv_coord_t pleft = lv_obj_get_style_pad_left(obj, LV_PART_MAIN) + border_width;
 559:Middlewares/lvgl/src/widgets/lv_img.c ****         lv_coord_t pright = lv_obj_get_style_pad_right(obj, LV_PART_MAIN) + border_width;
 560:Middlewares/lvgl/src/widgets/lv_img.c ****         lv_coord_t ptop = lv_obj_get_style_pad_top(obj, LV_PART_MAIN) + border_width;
 561:Middlewares/lvgl/src/widgets/lv_img.c ****         lv_coord_t pbottom = lv_obj_get_style_pad_bottom(obj, LV_PART_MAIN) + border_width;
 562:Middlewares/lvgl/src/widgets/lv_img.c **** 
 563:Middlewares/lvgl/src/widgets/lv_img.c ****         lv_point_t bg_pivot;
 564:Middlewares/lvgl/src/widgets/lv_img.c ****         bg_pivot.x = img->pivot.x + pleft;
 565:Middlewares/lvgl/src/widgets/lv_img.c ****         bg_pivot.y = img->pivot.y + ptop;
 566:Middlewares/lvgl/src/widgets/lv_img.c ****         lv_area_t bg_coords;
 567:Middlewares/lvgl/src/widgets/lv_img.c ****         _lv_img_buf_get_transformed_area(&bg_coords, obj_w, obj_h,
 568:Middlewares/lvgl/src/widgets/lv_img.c ****                 angle_final, zoom_final, &bg_pivot);
 569:Middlewares/lvgl/src/widgets/lv_img.c **** 
 570:Middlewares/lvgl/src/widgets/lv_img.c ****         /*Modify the coordinates to draw the background for the rotated and scaled coordinates*/
 571:Middlewares/lvgl/src/widgets/lv_img.c ****         bg_coords.x1 += obj->coords.x1;
 572:Middlewares/lvgl/src/widgets/lv_img.c ****         bg_coords.y1 += obj->coords.y1;
 573:Middlewares/lvgl/src/widgets/lv_img.c ****         bg_coords.x2 += obj->coords.x1;
 574:Middlewares/lvgl/src/widgets/lv_img.c ****         bg_coords.y2 += obj->coords.y1;
 575:Middlewares/lvgl/src/widgets/lv_img.c **** 
 576:Middlewares/lvgl/src/widgets/lv_img.c ****         lv_area_t ori_coords;
 577:Middlewares/lvgl/src/widgets/lv_img.c ****         lv_area_copy(&ori_coords, &obj->coords);
 578:Middlewares/lvgl/src/widgets/lv_img.c ****         lv_area_copy(&obj->coords, &bg_coords);
 579:Middlewares/lvgl/src/widgets/lv_img.c **** 
 580:Middlewares/lvgl/src/widgets/lv_img.c ****         lv_res_t res = lv_obj_event_base(MY_CLASS, e);
 581:Middlewares/lvgl/src/widgets/lv_img.c ****         if(res != LV_RES_OK) return;
 582:Middlewares/lvgl/src/widgets/lv_img.c **** 
 583:Middlewares/lvgl/src/widgets/lv_img.c ****         lv_area_copy(&obj->coords, &ori_coords);
 584:Middlewares/lvgl/src/widgets/lv_img.c **** 
 585:Middlewares/lvgl/src/widgets/lv_img.c ****         if(code == LV_EVENT_DRAW_MAIN) {
 586:Middlewares/lvgl/src/widgets/lv_img.c ****             if(img->h == 0 || img->w == 0) return;
 587:Middlewares/lvgl/src/widgets/lv_img.c ****             if(zoom_final == 0) return;
 588:Middlewares/lvgl/src/widgets/lv_img.c **** 
 589:Middlewares/lvgl/src/widgets/lv_img.c ****             const lv_area_t * clip_area = lv_event_get_param(e);
 590:Middlewares/lvgl/src/widgets/lv_img.c **** 
 591:Middlewares/lvgl/src/widgets/lv_img.c ****             lv_area_t img_max_area;
 592:Middlewares/lvgl/src/widgets/lv_img.c ****             lv_area_copy(&img_max_area, &obj->coords);
 593:Middlewares/lvgl/src/widgets/lv_img.c ****             img_max_area.x1 += pleft;
 594:Middlewares/lvgl/src/widgets/lv_img.c ****             img_max_area.y1 += ptop;
 595:Middlewares/lvgl/src/widgets/lv_img.c ****             img_max_area.x2 -= pright;
 596:Middlewares/lvgl/src/widgets/lv_img.c ****             img_max_area.y2 -= pbottom;
 597:Middlewares/lvgl/src/widgets/lv_img.c **** 
 598:Middlewares/lvgl/src/widgets/lv_img.c ****             if(img->src_type == LV_IMG_SRC_FILE || img->src_type == LV_IMG_SRC_VARIABLE) {
 599:Middlewares/lvgl/src/widgets/lv_img.c ****                 lv_draw_img_dsc_t img_dsc;
 600:Middlewares/lvgl/src/widgets/lv_img.c ****                 lv_draw_img_dsc_init(&img_dsc);
 601:Middlewares/lvgl/src/widgets/lv_img.c ****                 lv_obj_init_draw_img_dsc(obj, LV_PART_MAIN, &img_dsc);
 602:Middlewares/lvgl/src/widgets/lv_img.c **** 
 603:Middlewares/lvgl/src/widgets/lv_img.c ****                 img_dsc.zoom = zoom_final;
 604:Middlewares/lvgl/src/widgets/lv_img.c ****                 img_dsc.angle = angle_final;
 605:Middlewares/lvgl/src/widgets/lv_img.c ****                 img_dsc.pivot.x = img->pivot.x;
 606:Middlewares/lvgl/src/widgets/lv_img.c ****                 img_dsc.pivot.y = img->pivot.y;
 607:Middlewares/lvgl/src/widgets/lv_img.c ****                 img_dsc.antialias = img->antialias;
 608:Middlewares/lvgl/src/widgets/lv_img.c **** 
ARM GAS  /tmp/cc6jSqZn.s 			page 13


 609:Middlewares/lvgl/src/widgets/lv_img.c ****                 lv_area_t img_clip_area;
 610:Middlewares/lvgl/src/widgets/lv_img.c ****                 img_clip_area.x1 = bg_coords.x1 + pleft;
 611:Middlewares/lvgl/src/widgets/lv_img.c ****                 img_clip_area.y1 = bg_coords.y1 + ptop;
 612:Middlewares/lvgl/src/widgets/lv_img.c ****                 img_clip_area.x2 = bg_coords.x2 - pright;
 613:Middlewares/lvgl/src/widgets/lv_img.c ****                 img_clip_area.y2 = bg_coords.y2 - pbottom;
 614:Middlewares/lvgl/src/widgets/lv_img.c **** 
 615:Middlewares/lvgl/src/widgets/lv_img.c ****                 _lv_area_intersect(&img_clip_area, clip_area, &img_clip_area);
 616:Middlewares/lvgl/src/widgets/lv_img.c **** 
 617:Middlewares/lvgl/src/widgets/lv_img.c ****                 lv_area_t coords_tmp;
 618:Middlewares/lvgl/src/widgets/lv_img.c ****                 coords_tmp.y1 = img_max_area.y1 + img->offset.y;
 619:Middlewares/lvgl/src/widgets/lv_img.c ****                 if(coords_tmp.y1 > img_max_area.y1) coords_tmp.y1 -= img->h;
 620:Middlewares/lvgl/src/widgets/lv_img.c ****                 coords_tmp.y2 = coords_tmp.y1 + img->h - 1;
 621:Middlewares/lvgl/src/widgets/lv_img.c **** 
 622:Middlewares/lvgl/src/widgets/lv_img.c ****                 for(; coords_tmp.y1 < img_max_area.y2; coords_tmp.y1 += img->h, coords_tmp.y2 += im
 623:Middlewares/lvgl/src/widgets/lv_img.c ****                     coords_tmp.x1 = img_max_area.x1 + img->offset.x;
 624:Middlewares/lvgl/src/widgets/lv_img.c ****                     if(coords_tmp.x1 > img_max_area.x1) coords_tmp.x1 -= img->w;
 625:Middlewares/lvgl/src/widgets/lv_img.c ****                     coords_tmp.x2 = coords_tmp.x1 + img->w - 1;
 626:Middlewares/lvgl/src/widgets/lv_img.c **** 
 627:Middlewares/lvgl/src/widgets/lv_img.c ****                     for(; coords_tmp.x1 < img_max_area.x2; coords_tmp.x1 += img->w, coords_tmp.x2 +
 628:Middlewares/lvgl/src/widgets/lv_img.c ****                         lv_draw_img(&coords_tmp, &img_clip_area, img->src, &img_dsc);
 629:Middlewares/lvgl/src/widgets/lv_img.c ****                     }
 630:Middlewares/lvgl/src/widgets/lv_img.c ****                 }
 631:Middlewares/lvgl/src/widgets/lv_img.c ****             }
 632:Middlewares/lvgl/src/widgets/lv_img.c ****             else if(img->src_type == LV_IMG_SRC_SYMBOL) {
 633:Middlewares/lvgl/src/widgets/lv_img.c ****                 lv_draw_label_dsc_t label_dsc;
 634:Middlewares/lvgl/src/widgets/lv_img.c ****                 lv_draw_label_dsc_init(&label_dsc);
 635:Middlewares/lvgl/src/widgets/lv_img.c ****                 lv_obj_init_draw_label_dsc(obj, LV_PART_MAIN, &label_dsc);
 636:Middlewares/lvgl/src/widgets/lv_img.c **** 
 637:Middlewares/lvgl/src/widgets/lv_img.c ****                 lv_draw_label(&obj->coords, clip_area, &label_dsc, img->src, NULL);
 638:Middlewares/lvgl/src/widgets/lv_img.c ****             }
 639:Middlewares/lvgl/src/widgets/lv_img.c ****             else {
 640:Middlewares/lvgl/src/widgets/lv_img.c ****                 /*Trigger the error handler of image draw*/
 641:Middlewares/lvgl/src/widgets/lv_img.c ****                 LV_LOG_WARN("draw_img: image source type is unknown");
 642:Middlewares/lvgl/src/widgets/lv_img.c ****                 lv_draw_img(&obj->coords, clip_area, NULL, NULL);
 643:Middlewares/lvgl/src/widgets/lv_img.c ****             }
 644:Middlewares/lvgl/src/widgets/lv_img.c ****         }
 645:Middlewares/lvgl/src/widgets/lv_img.c ****     }
 646:Middlewares/lvgl/src/widgets/lv_img.c **** }
  78              		.loc 1 646 1 view .LVU13
  79 0026 1FB0     		add	sp, sp, #124
  80              	.LCFI2:
  81              		.cfi_remember_state
  82              		.cfi_def_cfa_offset 36
  83              		@ sp needed
  84 0028 BDE8F08F 		pop	{r4, r5, r6, r7, r8, r9, r10, fp, pc}
  85              	.LVL6:
  86              	.L24:
  87              	.LCFI3:
  88              		.cfi_restore_state
  89              	.LBB71:
 495:Middlewares/lvgl/src/widgets/lv_img.c ****         lv_cover_check_info_t * info = lv_event_get_param(e);
  90              		.loc 1 495 9 is_stmt 1 view .LVU14
 495:Middlewares/lvgl/src/widgets/lv_img.c ****         lv_cover_check_info_t * info = lv_event_get_param(e);
  91              		.loc 1 495 40 is_stmt 0 view .LVU15
  92 002c 3046     		mov	r0, r6
  93              	.LVL7:
 495:Middlewares/lvgl/src/widgets/lv_img.c ****         lv_cover_check_info_t * info = lv_event_get_param(e);
ARM GAS  /tmp/cc6jSqZn.s 			page 14


  94              		.loc 1 495 40 view .LVU16
  95 002e FFF7FEFF 		bl	lv_event_get_param
  96              	.LVL8:
  97 0032 0546     		mov	r5, r0
  98              	.LVL9:
 496:Middlewares/lvgl/src/widgets/lv_img.c ****         if(img->src_type == LV_IMG_SRC_UNKNOWN || img->src_type == LV_IMG_SRC_SYMBOL) {
  99              		.loc 1 496 9 is_stmt 1 view .LVU17
 496:Middlewares/lvgl/src/widgets/lv_img.c ****         if(img->src_type == LV_IMG_SRC_UNKNOWN || img->src_type == LV_IMG_SRC_SYMBOL) {
 100              		.loc 1 496 16 is_stmt 0 view .LVU18
 101 0034 0378     		ldrb	r3, [r0]	@ zero_extendqisi2
 496:Middlewares/lvgl/src/widgets/lv_img.c ****         if(img->src_type == LV_IMG_SRC_UNKNOWN || img->src_type == LV_IMG_SRC_SYMBOL) {
 102              		.loc 1 496 11 view .LVU19
 103 0036 022B     		cmp	r3, #2
 104 0038 F5D0     		beq	.L1
 497:Middlewares/lvgl/src/widgets/lv_img.c ****             info->res = LV_COVER_RES_NOT_COVER;
 105              		.loc 1 497 9 is_stmt 1 view .LVU20
 497:Middlewares/lvgl/src/widgets/lv_img.c ****             info->res = LV_COVER_RES_NOT_COVER;
 106              		.loc 1 497 26 is_stmt 0 view .LVU21
 107 003a 94F83830 		ldrb	r3, [r4, #56]	@ zero_extendqisi2
 497:Middlewares/lvgl/src/widgets/lv_img.c ****             info->res = LV_COVER_RES_NOT_COVER;
 108              		.loc 1 497 11 view .LVU22
 109 003e 13F0020F 		tst	r3, #2
 110 0042 08D1     		bne	.L25
 503:Middlewares/lvgl/src/widgets/lv_img.c ****             info->res = LV_COVER_RES_NOT_COVER;
 111              		.loc 1 503 9 is_stmt 1 view .LVU23
 503:Middlewares/lvgl/src/widgets/lv_img.c ****             info->res = LV_COVER_RES_NOT_COVER;
 112              		.loc 1 503 20 is_stmt 0 view .LVU24
 113 0044 03F07C03 		and	r3, r3, #124
 503:Middlewares/lvgl/src/widgets/lv_img.c ****             info->res = LV_COVER_RES_NOT_COVER;
 114              		.loc 1 503 11 view .LVU25
 115 0048 102B     		cmp	r3, #16
 116 004a 07D0     		beq	.L5
 503:Middlewares/lvgl/src/widgets/lv_img.c ****             info->res = LV_COVER_RES_NOT_COVER;
 117              		.loc 1 503 44 discriminator 1 view .LVU26
 118 004c 042B     		cmp	r3, #4
 119 004e 05D0     		beq	.L5
 504:Middlewares/lvgl/src/widgets/lv_img.c ****             return;
 120              		.loc 1 504 13 is_stmt 1 view .LVU27
 504:Middlewares/lvgl/src/widgets/lv_img.c ****             return;
 121              		.loc 1 504 23 is_stmt 0 view .LVU28
 122 0050 0123     		movs	r3, #1
 123 0052 0370     		strb	r3, [r0]
 505:Middlewares/lvgl/src/widgets/lv_img.c ****         }
 124              		.loc 1 505 13 is_stmt 1 view .LVU29
 125 0054 E7E7     		b	.L1
 126              	.L25:
 498:Middlewares/lvgl/src/widgets/lv_img.c ****             return;
 127              		.loc 1 498 13 view .LVU30
 498:Middlewares/lvgl/src/widgets/lv_img.c ****             return;
 128              		.loc 1 498 23 is_stmt 0 view .LVU31
 129 0056 0123     		movs	r3, #1
 130 0058 0370     		strb	r3, [r0]
 499:Middlewares/lvgl/src/widgets/lv_img.c ****         }
 131              		.loc 1 499 13 is_stmt 1 view .LVU32
 132 005a E4E7     		b	.L1
 133              	.L5:
 509:Middlewares/lvgl/src/widgets/lv_img.c ****             info->res = LV_COVER_RES_NOT_COVER;
ARM GAS  /tmp/cc6jSqZn.s 			page 15


 134              		.loc 1 509 9 view .LVU33
 135              	.LVL10:
 136              	.LBB72:
 137              	.LBI72:
 138              		.file 2 "Middlewares/lvgl/src/widgets/../core/lv_obj_style_gen.h"
   1:Middlewares/lvgl/src/widgets/../core/lv_obj_style_gen.h **** static inline lv_coord_t lv_obj_get_style_width(const struct _lv_obj_t * obj, uint32_t part)
   2:Middlewares/lvgl/src/widgets/../core/lv_obj_style_gen.h **** {
   3:Middlewares/lvgl/src/widgets/../core/lv_obj_style_gen.h ****     lv_style_value_t v = lv_obj_get_style_prop(obj, part, LV_STYLE_WIDTH);
   4:Middlewares/lvgl/src/widgets/../core/lv_obj_style_gen.h ****     return (lv_coord_t)v.num;
   5:Middlewares/lvgl/src/widgets/../core/lv_obj_style_gen.h **** }
   6:Middlewares/lvgl/src/widgets/../core/lv_obj_style_gen.h **** 
   7:Middlewares/lvgl/src/widgets/../core/lv_obj_style_gen.h **** static inline lv_coord_t lv_obj_get_style_min_width(const struct _lv_obj_t * obj, uint32_t part)
   8:Middlewares/lvgl/src/widgets/../core/lv_obj_style_gen.h **** {
   9:Middlewares/lvgl/src/widgets/../core/lv_obj_style_gen.h ****     lv_style_value_t v = lv_obj_get_style_prop(obj, part, LV_STYLE_MIN_WIDTH);
  10:Middlewares/lvgl/src/widgets/../core/lv_obj_style_gen.h ****     return (lv_coord_t)v.num;
  11:Middlewares/lvgl/src/widgets/../core/lv_obj_style_gen.h **** }
  12:Middlewares/lvgl/src/widgets/../core/lv_obj_style_gen.h **** 
  13:Middlewares/lvgl/src/widgets/../core/lv_obj_style_gen.h **** static inline lv_coord_t lv_obj_get_style_max_width(const struct _lv_obj_t * obj, uint32_t part)
  14:Middlewares/lvgl/src/widgets/../core/lv_obj_style_gen.h **** {
  15:Middlewares/lvgl/src/widgets/../core/lv_obj_style_gen.h ****     lv_style_value_t v = lv_obj_get_style_prop(obj, part, LV_STYLE_MAX_WIDTH);
  16:Middlewares/lvgl/src/widgets/../core/lv_obj_style_gen.h ****     return (lv_coord_t)v.num;
  17:Middlewares/lvgl/src/widgets/../core/lv_obj_style_gen.h **** }
  18:Middlewares/lvgl/src/widgets/../core/lv_obj_style_gen.h **** 
  19:Middlewares/lvgl/src/widgets/../core/lv_obj_style_gen.h **** static inline lv_coord_t lv_obj_get_style_height(const struct _lv_obj_t * obj, uint32_t part)
  20:Middlewares/lvgl/src/widgets/../core/lv_obj_style_gen.h **** {
  21:Middlewares/lvgl/src/widgets/../core/lv_obj_style_gen.h ****     lv_style_value_t v = lv_obj_get_style_prop(obj, part, LV_STYLE_HEIGHT);
  22:Middlewares/lvgl/src/widgets/../core/lv_obj_style_gen.h ****     return (lv_coord_t)v.num;
  23:Middlewares/lvgl/src/widgets/../core/lv_obj_style_gen.h **** }
  24:Middlewares/lvgl/src/widgets/../core/lv_obj_style_gen.h **** 
  25:Middlewares/lvgl/src/widgets/../core/lv_obj_style_gen.h **** static inline lv_coord_t lv_obj_get_style_min_height(const struct _lv_obj_t * obj, uint32_t part)
  26:Middlewares/lvgl/src/widgets/../core/lv_obj_style_gen.h **** {
  27:Middlewares/lvgl/src/widgets/../core/lv_obj_style_gen.h ****     lv_style_value_t v = lv_obj_get_style_prop(obj, part, LV_STYLE_MIN_HEIGHT);
  28:Middlewares/lvgl/src/widgets/../core/lv_obj_style_gen.h ****     return (lv_coord_t)v.num;
  29:Middlewares/lvgl/src/widgets/../core/lv_obj_style_gen.h **** }
  30:Middlewares/lvgl/src/widgets/../core/lv_obj_style_gen.h **** 
  31:Middlewares/lvgl/src/widgets/../core/lv_obj_style_gen.h **** static inline lv_coord_t lv_obj_get_style_max_height(const struct _lv_obj_t * obj, uint32_t part)
  32:Middlewares/lvgl/src/widgets/../core/lv_obj_style_gen.h **** {
  33:Middlewares/lvgl/src/widgets/../core/lv_obj_style_gen.h ****     lv_style_value_t v = lv_obj_get_style_prop(obj, part, LV_STYLE_MAX_HEIGHT);
  34:Middlewares/lvgl/src/widgets/../core/lv_obj_style_gen.h ****     return (lv_coord_t)v.num;
  35:Middlewares/lvgl/src/widgets/../core/lv_obj_style_gen.h **** }
  36:Middlewares/lvgl/src/widgets/../core/lv_obj_style_gen.h **** 
  37:Middlewares/lvgl/src/widgets/../core/lv_obj_style_gen.h **** static inline lv_coord_t lv_obj_get_style_x(const struct _lv_obj_t * obj, uint32_t part)
  38:Middlewares/lvgl/src/widgets/../core/lv_obj_style_gen.h **** {
  39:Middlewares/lvgl/src/widgets/../core/lv_obj_style_gen.h ****     lv_style_value_t v = lv_obj_get_style_prop(obj, part, LV_STYLE_X);
  40:Middlewares/lvgl/src/widgets/../core/lv_obj_style_gen.h ****     return (lv_coord_t)v.num;
  41:Middlewares/lvgl/src/widgets/../core/lv_obj_style_gen.h **** }
  42:Middlewares/lvgl/src/widgets/../core/lv_obj_style_gen.h **** 
  43:Middlewares/lvgl/src/widgets/../core/lv_obj_style_gen.h **** static inline lv_coord_t lv_obj_get_style_y(const struct _lv_obj_t * obj, uint32_t part)
  44:Middlewares/lvgl/src/widgets/../core/lv_obj_style_gen.h **** {
  45:Middlewares/lvgl/src/widgets/../core/lv_obj_style_gen.h ****     lv_style_value_t v = lv_obj_get_style_prop(obj, part, LV_STYLE_Y);
  46:Middlewares/lvgl/src/widgets/../core/lv_obj_style_gen.h ****     return (lv_coord_t)v.num;
  47:Middlewares/lvgl/src/widgets/../core/lv_obj_style_gen.h **** }
  48:Middlewares/lvgl/src/widgets/../core/lv_obj_style_gen.h **** 
  49:Middlewares/lvgl/src/widgets/../core/lv_obj_style_gen.h **** static inline lv_align_t lv_obj_get_style_align(const struct _lv_obj_t * obj, uint32_t part)
  50:Middlewares/lvgl/src/widgets/../core/lv_obj_style_gen.h **** {
  51:Middlewares/lvgl/src/widgets/../core/lv_obj_style_gen.h ****     lv_style_value_t v = lv_obj_get_style_prop(obj, part, LV_STYLE_ALIGN);
  52:Middlewares/lvgl/src/widgets/../core/lv_obj_style_gen.h ****     return (lv_align_t)v.num;
ARM GAS  /tmp/cc6jSqZn.s 			page 16


  53:Middlewares/lvgl/src/widgets/../core/lv_obj_style_gen.h **** }
  54:Middlewares/lvgl/src/widgets/../core/lv_obj_style_gen.h **** 
  55:Middlewares/lvgl/src/widgets/../core/lv_obj_style_gen.h **** static inline lv_coord_t lv_obj_get_style_transform_width(const struct _lv_obj_t * obj, uint32_t pa
  56:Middlewares/lvgl/src/widgets/../core/lv_obj_style_gen.h **** {
  57:Middlewares/lvgl/src/widgets/../core/lv_obj_style_gen.h ****     lv_style_value_t v = lv_obj_get_style_prop(obj, part, LV_STYLE_TRANSFORM_WIDTH);
  58:Middlewares/lvgl/src/widgets/../core/lv_obj_style_gen.h ****     return (lv_coord_t)v.num;
  59:Middlewares/lvgl/src/widgets/../core/lv_obj_style_gen.h **** }
  60:Middlewares/lvgl/src/widgets/../core/lv_obj_style_gen.h **** 
  61:Middlewares/lvgl/src/widgets/../core/lv_obj_style_gen.h **** static inline lv_coord_t lv_obj_get_style_transform_height(const struct _lv_obj_t * obj, uint32_t p
  62:Middlewares/lvgl/src/widgets/../core/lv_obj_style_gen.h **** {
  63:Middlewares/lvgl/src/widgets/../core/lv_obj_style_gen.h ****     lv_style_value_t v = lv_obj_get_style_prop(obj, part, LV_STYLE_TRANSFORM_HEIGHT);
  64:Middlewares/lvgl/src/widgets/../core/lv_obj_style_gen.h ****     return (lv_coord_t)v.num;
  65:Middlewares/lvgl/src/widgets/../core/lv_obj_style_gen.h **** }
  66:Middlewares/lvgl/src/widgets/../core/lv_obj_style_gen.h **** 
  67:Middlewares/lvgl/src/widgets/../core/lv_obj_style_gen.h **** static inline lv_coord_t lv_obj_get_style_translate_x(const struct _lv_obj_t * obj, uint32_t part)
  68:Middlewares/lvgl/src/widgets/../core/lv_obj_style_gen.h **** {
  69:Middlewares/lvgl/src/widgets/../core/lv_obj_style_gen.h ****     lv_style_value_t v = lv_obj_get_style_prop(obj, part, LV_STYLE_TRANSLATE_X);
  70:Middlewares/lvgl/src/widgets/../core/lv_obj_style_gen.h ****     return (lv_coord_t)v.num;
  71:Middlewares/lvgl/src/widgets/../core/lv_obj_style_gen.h **** }
  72:Middlewares/lvgl/src/widgets/../core/lv_obj_style_gen.h **** 
  73:Middlewares/lvgl/src/widgets/../core/lv_obj_style_gen.h **** static inline lv_coord_t lv_obj_get_style_translate_y(const struct _lv_obj_t * obj, uint32_t part)
  74:Middlewares/lvgl/src/widgets/../core/lv_obj_style_gen.h **** {
  75:Middlewares/lvgl/src/widgets/../core/lv_obj_style_gen.h ****     lv_style_value_t v = lv_obj_get_style_prop(obj, part, LV_STYLE_TRANSLATE_Y);
  76:Middlewares/lvgl/src/widgets/../core/lv_obj_style_gen.h ****     return (lv_coord_t)v.num;
  77:Middlewares/lvgl/src/widgets/../core/lv_obj_style_gen.h **** }
  78:Middlewares/lvgl/src/widgets/../core/lv_obj_style_gen.h **** 
  79:Middlewares/lvgl/src/widgets/../core/lv_obj_style_gen.h **** static inline lv_coord_t lv_obj_get_style_transform_zoom(const struct _lv_obj_t * obj, uint32_t par
  80:Middlewares/lvgl/src/widgets/../core/lv_obj_style_gen.h **** {
  81:Middlewares/lvgl/src/widgets/../core/lv_obj_style_gen.h ****     lv_style_value_t v = lv_obj_get_style_prop(obj, part, LV_STYLE_TRANSFORM_ZOOM);
  82:Middlewares/lvgl/src/widgets/../core/lv_obj_style_gen.h ****     return (lv_coord_t)v.num;
  83:Middlewares/lvgl/src/widgets/../core/lv_obj_style_gen.h **** }
  84:Middlewares/lvgl/src/widgets/../core/lv_obj_style_gen.h **** 
  85:Middlewares/lvgl/src/widgets/../core/lv_obj_style_gen.h **** static inline lv_coord_t lv_obj_get_style_transform_angle(const struct _lv_obj_t * obj, uint32_t pa
  86:Middlewares/lvgl/src/widgets/../core/lv_obj_style_gen.h **** {
  87:Middlewares/lvgl/src/widgets/../core/lv_obj_style_gen.h ****     lv_style_value_t v = lv_obj_get_style_prop(obj, part, LV_STYLE_TRANSFORM_ANGLE);
  88:Middlewares/lvgl/src/widgets/../core/lv_obj_style_gen.h ****     return (lv_coord_t)v.num;
  89:Middlewares/lvgl/src/widgets/../core/lv_obj_style_gen.h **** }
  90:Middlewares/lvgl/src/widgets/../core/lv_obj_style_gen.h **** 
  91:Middlewares/lvgl/src/widgets/../core/lv_obj_style_gen.h **** static inline lv_coord_t lv_obj_get_style_pad_top(const struct _lv_obj_t * obj, uint32_t part)
  92:Middlewares/lvgl/src/widgets/../core/lv_obj_style_gen.h **** {
  93:Middlewares/lvgl/src/widgets/../core/lv_obj_style_gen.h ****     lv_style_value_t v = lv_obj_get_style_prop(obj, part, LV_STYLE_PAD_TOP);
  94:Middlewares/lvgl/src/widgets/../core/lv_obj_style_gen.h ****     return (lv_coord_t)v.num;
  95:Middlewares/lvgl/src/widgets/../core/lv_obj_style_gen.h **** }
  96:Middlewares/lvgl/src/widgets/../core/lv_obj_style_gen.h **** 
  97:Middlewares/lvgl/src/widgets/../core/lv_obj_style_gen.h **** static inline lv_coord_t lv_obj_get_style_pad_bottom(const struct _lv_obj_t * obj, uint32_t part)
  98:Middlewares/lvgl/src/widgets/../core/lv_obj_style_gen.h **** {
  99:Middlewares/lvgl/src/widgets/../core/lv_obj_style_gen.h ****     lv_style_value_t v = lv_obj_get_style_prop(obj, part, LV_STYLE_PAD_BOTTOM);
 100:Middlewares/lvgl/src/widgets/../core/lv_obj_style_gen.h ****     return (lv_coord_t)v.num;
 101:Middlewares/lvgl/src/widgets/../core/lv_obj_style_gen.h **** }
 102:Middlewares/lvgl/src/widgets/../core/lv_obj_style_gen.h **** 
 103:Middlewares/lvgl/src/widgets/../core/lv_obj_style_gen.h **** static inline lv_coord_t lv_obj_get_style_pad_left(const struct _lv_obj_t * obj, uint32_t part)
 104:Middlewares/lvgl/src/widgets/../core/lv_obj_style_gen.h **** {
 105:Middlewares/lvgl/src/widgets/../core/lv_obj_style_gen.h ****     lv_style_value_t v = lv_obj_get_style_prop(obj, part, LV_STYLE_PAD_LEFT);
 106:Middlewares/lvgl/src/widgets/../core/lv_obj_style_gen.h ****     return (lv_coord_t)v.num;
 107:Middlewares/lvgl/src/widgets/../core/lv_obj_style_gen.h **** }
 108:Middlewares/lvgl/src/widgets/../core/lv_obj_style_gen.h **** 
 109:Middlewares/lvgl/src/widgets/../core/lv_obj_style_gen.h **** static inline lv_coord_t lv_obj_get_style_pad_right(const struct _lv_obj_t * obj, uint32_t part)
ARM GAS  /tmp/cc6jSqZn.s 			page 17


 110:Middlewares/lvgl/src/widgets/../core/lv_obj_style_gen.h **** {
 111:Middlewares/lvgl/src/widgets/../core/lv_obj_style_gen.h ****     lv_style_value_t v = lv_obj_get_style_prop(obj, part, LV_STYLE_PAD_RIGHT);
 112:Middlewares/lvgl/src/widgets/../core/lv_obj_style_gen.h ****     return (lv_coord_t)v.num;
 113:Middlewares/lvgl/src/widgets/../core/lv_obj_style_gen.h **** }
 114:Middlewares/lvgl/src/widgets/../core/lv_obj_style_gen.h **** 
 115:Middlewares/lvgl/src/widgets/../core/lv_obj_style_gen.h **** static inline lv_coord_t lv_obj_get_style_pad_row(const struct _lv_obj_t * obj, uint32_t part)
 116:Middlewares/lvgl/src/widgets/../core/lv_obj_style_gen.h **** {
 117:Middlewares/lvgl/src/widgets/../core/lv_obj_style_gen.h ****     lv_style_value_t v = lv_obj_get_style_prop(obj, part, LV_STYLE_PAD_ROW);
 118:Middlewares/lvgl/src/widgets/../core/lv_obj_style_gen.h ****     return (lv_coord_t)v.num;
 119:Middlewares/lvgl/src/widgets/../core/lv_obj_style_gen.h **** }
 120:Middlewares/lvgl/src/widgets/../core/lv_obj_style_gen.h **** 
 121:Middlewares/lvgl/src/widgets/../core/lv_obj_style_gen.h **** static inline lv_coord_t lv_obj_get_style_pad_column(const struct _lv_obj_t * obj, uint32_t part)
 122:Middlewares/lvgl/src/widgets/../core/lv_obj_style_gen.h **** {
 123:Middlewares/lvgl/src/widgets/../core/lv_obj_style_gen.h ****     lv_style_value_t v = lv_obj_get_style_prop(obj, part, LV_STYLE_PAD_COLUMN);
 124:Middlewares/lvgl/src/widgets/../core/lv_obj_style_gen.h ****     return (lv_coord_t)v.num;
 125:Middlewares/lvgl/src/widgets/../core/lv_obj_style_gen.h **** }
 126:Middlewares/lvgl/src/widgets/../core/lv_obj_style_gen.h **** 
 127:Middlewares/lvgl/src/widgets/../core/lv_obj_style_gen.h **** static inline lv_coord_t lv_obj_get_style_radius(const struct _lv_obj_t * obj, uint32_t part)
 128:Middlewares/lvgl/src/widgets/../core/lv_obj_style_gen.h **** {
 129:Middlewares/lvgl/src/widgets/../core/lv_obj_style_gen.h ****     lv_style_value_t v = lv_obj_get_style_prop(obj, part, LV_STYLE_RADIUS);
 130:Middlewares/lvgl/src/widgets/../core/lv_obj_style_gen.h ****     return (lv_coord_t)v.num;
 131:Middlewares/lvgl/src/widgets/../core/lv_obj_style_gen.h **** }
 132:Middlewares/lvgl/src/widgets/../core/lv_obj_style_gen.h **** 
 133:Middlewares/lvgl/src/widgets/../core/lv_obj_style_gen.h **** static inline bool lv_obj_get_style_clip_corner(const struct _lv_obj_t * obj, uint32_t part)
 134:Middlewares/lvgl/src/widgets/../core/lv_obj_style_gen.h **** {
 135:Middlewares/lvgl/src/widgets/../core/lv_obj_style_gen.h ****     lv_style_value_t v = lv_obj_get_style_prop(obj, part, LV_STYLE_CLIP_CORNER);
 136:Middlewares/lvgl/src/widgets/../core/lv_obj_style_gen.h ****     return (bool)v.num;
 137:Middlewares/lvgl/src/widgets/../core/lv_obj_style_gen.h **** }
 138:Middlewares/lvgl/src/widgets/../core/lv_obj_style_gen.h **** 
 139:Middlewares/lvgl/src/widgets/../core/lv_obj_style_gen.h **** static inline lv_opa_t lv_obj_get_style_opa(const struct _lv_obj_t * obj, uint32_t part)
 140:Middlewares/lvgl/src/widgets/../core/lv_obj_style_gen.h **** {
 141:Middlewares/lvgl/src/widgets/../core/lv_obj_style_gen.h ****     lv_style_value_t v = lv_obj_get_style_prop(obj, part, LV_STYLE_OPA);
 142:Middlewares/lvgl/src/widgets/../core/lv_obj_style_gen.h ****     return (lv_opa_t)v.num;
 143:Middlewares/lvgl/src/widgets/../core/lv_obj_style_gen.h **** }
 144:Middlewares/lvgl/src/widgets/../core/lv_obj_style_gen.h **** 
 145:Middlewares/lvgl/src/widgets/../core/lv_obj_style_gen.h **** static inline const lv_color_filter_dsc_t * lv_obj_get_style_color_filter_dsc(const struct _lv_obj_
 146:Middlewares/lvgl/src/widgets/../core/lv_obj_style_gen.h **** {
 147:Middlewares/lvgl/src/widgets/../core/lv_obj_style_gen.h ****     lv_style_value_t v = lv_obj_get_style_prop(obj, part, LV_STYLE_COLOR_FILTER_DSC);
 148:Middlewares/lvgl/src/widgets/../core/lv_obj_style_gen.h ****     return (const lv_color_filter_dsc_t *)v.ptr;
 149:Middlewares/lvgl/src/widgets/../core/lv_obj_style_gen.h **** }
 150:Middlewares/lvgl/src/widgets/../core/lv_obj_style_gen.h **** 
 151:Middlewares/lvgl/src/widgets/../core/lv_obj_style_gen.h **** static inline lv_opa_t lv_obj_get_style_color_filter_opa(const struct _lv_obj_t * obj, uint32_t par
 152:Middlewares/lvgl/src/widgets/../core/lv_obj_style_gen.h **** {
 153:Middlewares/lvgl/src/widgets/../core/lv_obj_style_gen.h ****     lv_style_value_t v = lv_obj_get_style_prop(obj, part, LV_STYLE_COLOR_FILTER_OPA);
 154:Middlewares/lvgl/src/widgets/../core/lv_obj_style_gen.h ****     return (lv_opa_t)v.num;
 155:Middlewares/lvgl/src/widgets/../core/lv_obj_style_gen.h **** }
 156:Middlewares/lvgl/src/widgets/../core/lv_obj_style_gen.h **** 
 157:Middlewares/lvgl/src/widgets/../core/lv_obj_style_gen.h **** static inline uint32_t lv_obj_get_style_anim_time(const struct _lv_obj_t * obj, uint32_t part)
 158:Middlewares/lvgl/src/widgets/../core/lv_obj_style_gen.h **** {
 159:Middlewares/lvgl/src/widgets/../core/lv_obj_style_gen.h ****     lv_style_value_t v = lv_obj_get_style_prop(obj, part, LV_STYLE_ANIM_TIME);
 160:Middlewares/lvgl/src/widgets/../core/lv_obj_style_gen.h ****     return (uint32_t)v.num;
 161:Middlewares/lvgl/src/widgets/../core/lv_obj_style_gen.h **** }
 162:Middlewares/lvgl/src/widgets/../core/lv_obj_style_gen.h **** 
 163:Middlewares/lvgl/src/widgets/../core/lv_obj_style_gen.h **** static inline uint32_t lv_obj_get_style_anim_speed(const struct _lv_obj_t * obj, uint32_t part)
 164:Middlewares/lvgl/src/widgets/../core/lv_obj_style_gen.h **** {
 165:Middlewares/lvgl/src/widgets/../core/lv_obj_style_gen.h ****     lv_style_value_t v = lv_obj_get_style_prop(obj, part, LV_STYLE_ANIM_SPEED);
 166:Middlewares/lvgl/src/widgets/../core/lv_obj_style_gen.h ****     return (uint32_t)v.num;
ARM GAS  /tmp/cc6jSqZn.s 			page 18


 167:Middlewares/lvgl/src/widgets/../core/lv_obj_style_gen.h **** }
 168:Middlewares/lvgl/src/widgets/../core/lv_obj_style_gen.h **** 
 169:Middlewares/lvgl/src/widgets/../core/lv_obj_style_gen.h **** static inline const lv_style_transition_dsc_t * lv_obj_get_style_transition(const struct _lv_obj_t 
 170:Middlewares/lvgl/src/widgets/../core/lv_obj_style_gen.h **** {
 171:Middlewares/lvgl/src/widgets/../core/lv_obj_style_gen.h ****     lv_style_value_t v = lv_obj_get_style_prop(obj, part, LV_STYLE_TRANSITION);
 172:Middlewares/lvgl/src/widgets/../core/lv_obj_style_gen.h ****     return (const lv_style_transition_dsc_t *)v.ptr;
 173:Middlewares/lvgl/src/widgets/../core/lv_obj_style_gen.h **** }
 174:Middlewares/lvgl/src/widgets/../core/lv_obj_style_gen.h **** 
 175:Middlewares/lvgl/src/widgets/../core/lv_obj_style_gen.h **** static inline lv_blend_mode_t lv_obj_get_style_blend_mode(const struct _lv_obj_t * obj, uint32_t pa
 176:Middlewares/lvgl/src/widgets/../core/lv_obj_style_gen.h **** {
 177:Middlewares/lvgl/src/widgets/../core/lv_obj_style_gen.h ****     lv_style_value_t v = lv_obj_get_style_prop(obj, part, LV_STYLE_BLEND_MODE);
 178:Middlewares/lvgl/src/widgets/../core/lv_obj_style_gen.h ****     return (lv_blend_mode_t)v.num;
 179:Middlewares/lvgl/src/widgets/../core/lv_obj_style_gen.h **** }
 180:Middlewares/lvgl/src/widgets/../core/lv_obj_style_gen.h **** 
 181:Middlewares/lvgl/src/widgets/../core/lv_obj_style_gen.h **** static inline uint16_t lv_obj_get_style_layout(const struct _lv_obj_t * obj, uint32_t part)
 182:Middlewares/lvgl/src/widgets/../core/lv_obj_style_gen.h **** {
 183:Middlewares/lvgl/src/widgets/../core/lv_obj_style_gen.h ****     lv_style_value_t v = lv_obj_get_style_prop(obj, part, LV_STYLE_LAYOUT);
 184:Middlewares/lvgl/src/widgets/../core/lv_obj_style_gen.h ****     return (uint16_t)v.num;
 185:Middlewares/lvgl/src/widgets/../core/lv_obj_style_gen.h **** }
 186:Middlewares/lvgl/src/widgets/../core/lv_obj_style_gen.h **** 
 187:Middlewares/lvgl/src/widgets/../core/lv_obj_style_gen.h **** static inline lv_base_dir_t lv_obj_get_style_base_dir(const struct _lv_obj_t * obj, uint32_t part)
 188:Middlewares/lvgl/src/widgets/../core/lv_obj_style_gen.h **** {
 189:Middlewares/lvgl/src/widgets/../core/lv_obj_style_gen.h ****     lv_style_value_t v = lv_obj_get_style_prop(obj, part, LV_STYLE_BASE_DIR);
 190:Middlewares/lvgl/src/widgets/../core/lv_obj_style_gen.h ****     return (lv_base_dir_t)v.num;
 191:Middlewares/lvgl/src/widgets/../core/lv_obj_style_gen.h **** }
 192:Middlewares/lvgl/src/widgets/../core/lv_obj_style_gen.h **** 
 193:Middlewares/lvgl/src/widgets/../core/lv_obj_style_gen.h **** static inline lv_color_t lv_obj_get_style_bg_color(const struct _lv_obj_t * obj, uint32_t part)
 194:Middlewares/lvgl/src/widgets/../core/lv_obj_style_gen.h **** {
 195:Middlewares/lvgl/src/widgets/../core/lv_obj_style_gen.h ****     lv_style_value_t v = lv_obj_get_style_prop(obj, part, LV_STYLE_BG_COLOR);
 196:Middlewares/lvgl/src/widgets/../core/lv_obj_style_gen.h ****     return v.color;
 197:Middlewares/lvgl/src/widgets/../core/lv_obj_style_gen.h **** }
 198:Middlewares/lvgl/src/widgets/../core/lv_obj_style_gen.h **** 
 199:Middlewares/lvgl/src/widgets/../core/lv_obj_style_gen.h **** static inline lv_color_t lv_obj_get_style_bg_color_filtered(const struct _lv_obj_t * obj, uint32_t 
 200:Middlewares/lvgl/src/widgets/../core/lv_obj_style_gen.h **** {
 201:Middlewares/lvgl/src/widgets/../core/lv_obj_style_gen.h ****     lv_style_value_t v = lv_obj_get_style_prop(obj, part, LV_STYLE_BG_COLOR_FILTERED);
 202:Middlewares/lvgl/src/widgets/../core/lv_obj_style_gen.h ****     return v.color;
 203:Middlewares/lvgl/src/widgets/../core/lv_obj_style_gen.h **** }
 204:Middlewares/lvgl/src/widgets/../core/lv_obj_style_gen.h **** 
 205:Middlewares/lvgl/src/widgets/../core/lv_obj_style_gen.h **** static inline lv_opa_t lv_obj_get_style_bg_opa(const struct _lv_obj_t * obj, uint32_t part)
 206:Middlewares/lvgl/src/widgets/../core/lv_obj_style_gen.h **** {
 207:Middlewares/lvgl/src/widgets/../core/lv_obj_style_gen.h ****     lv_style_value_t v = lv_obj_get_style_prop(obj, part, LV_STYLE_BG_OPA);
 208:Middlewares/lvgl/src/widgets/../core/lv_obj_style_gen.h ****     return (lv_opa_t)v.num;
 209:Middlewares/lvgl/src/widgets/../core/lv_obj_style_gen.h **** }
 210:Middlewares/lvgl/src/widgets/../core/lv_obj_style_gen.h **** 
 211:Middlewares/lvgl/src/widgets/../core/lv_obj_style_gen.h **** static inline lv_color_t lv_obj_get_style_bg_grad_color(const struct _lv_obj_t * obj, uint32_t part
 212:Middlewares/lvgl/src/widgets/../core/lv_obj_style_gen.h **** {
 213:Middlewares/lvgl/src/widgets/../core/lv_obj_style_gen.h ****     lv_style_value_t v = lv_obj_get_style_prop(obj, part, LV_STYLE_BG_GRAD_COLOR);
 214:Middlewares/lvgl/src/widgets/../core/lv_obj_style_gen.h ****     return v.color;
 215:Middlewares/lvgl/src/widgets/../core/lv_obj_style_gen.h **** }
 216:Middlewares/lvgl/src/widgets/../core/lv_obj_style_gen.h **** 
 217:Middlewares/lvgl/src/widgets/../core/lv_obj_style_gen.h **** static inline lv_color_t lv_obj_get_style_bg_grad_color_filtered(const struct _lv_obj_t * obj, uint
 218:Middlewares/lvgl/src/widgets/../core/lv_obj_style_gen.h **** {
 219:Middlewares/lvgl/src/widgets/../core/lv_obj_style_gen.h ****     lv_style_value_t v = lv_obj_get_style_prop(obj, part, LV_STYLE_BG_GRAD_COLOR_FILTERED);
 220:Middlewares/lvgl/src/widgets/../core/lv_obj_style_gen.h ****     return v.color;
 221:Middlewares/lvgl/src/widgets/../core/lv_obj_style_gen.h **** }
 222:Middlewares/lvgl/src/widgets/../core/lv_obj_style_gen.h **** 
 223:Middlewares/lvgl/src/widgets/../core/lv_obj_style_gen.h **** static inline lv_grad_dir_t lv_obj_get_style_bg_grad_dir(const struct _lv_obj_t * obj, uint32_t par
ARM GAS  /tmp/cc6jSqZn.s 			page 19


 224:Middlewares/lvgl/src/widgets/../core/lv_obj_style_gen.h **** {
 225:Middlewares/lvgl/src/widgets/../core/lv_obj_style_gen.h ****     lv_style_value_t v = lv_obj_get_style_prop(obj, part, LV_STYLE_BG_GRAD_DIR);
 226:Middlewares/lvgl/src/widgets/../core/lv_obj_style_gen.h ****     return (lv_grad_dir_t)v.num;
 227:Middlewares/lvgl/src/widgets/../core/lv_obj_style_gen.h **** }
 228:Middlewares/lvgl/src/widgets/../core/lv_obj_style_gen.h **** 
 229:Middlewares/lvgl/src/widgets/../core/lv_obj_style_gen.h **** static inline lv_coord_t lv_obj_get_style_bg_main_stop(const struct _lv_obj_t * obj, uint32_t part)
 230:Middlewares/lvgl/src/widgets/../core/lv_obj_style_gen.h **** {
 231:Middlewares/lvgl/src/widgets/../core/lv_obj_style_gen.h ****     lv_style_value_t v = lv_obj_get_style_prop(obj, part, LV_STYLE_BG_MAIN_STOP);
 232:Middlewares/lvgl/src/widgets/../core/lv_obj_style_gen.h ****     return (lv_coord_t)v.num;
 233:Middlewares/lvgl/src/widgets/../core/lv_obj_style_gen.h **** }
 234:Middlewares/lvgl/src/widgets/../core/lv_obj_style_gen.h **** 
 235:Middlewares/lvgl/src/widgets/../core/lv_obj_style_gen.h **** static inline lv_coord_t lv_obj_get_style_bg_grad_stop(const struct _lv_obj_t * obj, uint32_t part)
 236:Middlewares/lvgl/src/widgets/../core/lv_obj_style_gen.h **** {
 237:Middlewares/lvgl/src/widgets/../core/lv_obj_style_gen.h ****     lv_style_value_t v = lv_obj_get_style_prop(obj, part, LV_STYLE_BG_GRAD_STOP);
 238:Middlewares/lvgl/src/widgets/../core/lv_obj_style_gen.h ****     return (lv_coord_t)v.num;
 239:Middlewares/lvgl/src/widgets/../core/lv_obj_style_gen.h **** }
 240:Middlewares/lvgl/src/widgets/../core/lv_obj_style_gen.h **** 
 241:Middlewares/lvgl/src/widgets/../core/lv_obj_style_gen.h **** static inline const void * lv_obj_get_style_bg_img_src(const struct _lv_obj_t * obj, uint32_t part)
 242:Middlewares/lvgl/src/widgets/../core/lv_obj_style_gen.h **** {
 243:Middlewares/lvgl/src/widgets/../core/lv_obj_style_gen.h ****     lv_style_value_t v = lv_obj_get_style_prop(obj, part, LV_STYLE_BG_IMG_SRC);
 244:Middlewares/lvgl/src/widgets/../core/lv_obj_style_gen.h ****     return (const void *)v.ptr;
 245:Middlewares/lvgl/src/widgets/../core/lv_obj_style_gen.h **** }
 246:Middlewares/lvgl/src/widgets/../core/lv_obj_style_gen.h **** 
 247:Middlewares/lvgl/src/widgets/../core/lv_obj_style_gen.h **** static inline lv_opa_t lv_obj_get_style_bg_img_opa(const struct _lv_obj_t * obj, uint32_t part)
 248:Middlewares/lvgl/src/widgets/../core/lv_obj_style_gen.h **** {
 249:Middlewares/lvgl/src/widgets/../core/lv_obj_style_gen.h ****     lv_style_value_t v = lv_obj_get_style_prop(obj, part, LV_STYLE_BG_IMG_OPA);
 250:Middlewares/lvgl/src/widgets/../core/lv_obj_style_gen.h ****     return (lv_opa_t)v.num;
 251:Middlewares/lvgl/src/widgets/../core/lv_obj_style_gen.h **** }
 252:Middlewares/lvgl/src/widgets/../core/lv_obj_style_gen.h **** 
 253:Middlewares/lvgl/src/widgets/../core/lv_obj_style_gen.h **** static inline lv_color_t lv_obj_get_style_bg_img_recolor(const struct _lv_obj_t * obj, uint32_t par
 254:Middlewares/lvgl/src/widgets/../core/lv_obj_style_gen.h **** {
 255:Middlewares/lvgl/src/widgets/../core/lv_obj_style_gen.h ****     lv_style_value_t v = lv_obj_get_style_prop(obj, part, LV_STYLE_BG_IMG_RECOLOR);
 256:Middlewares/lvgl/src/widgets/../core/lv_obj_style_gen.h ****     return v.color;
 257:Middlewares/lvgl/src/widgets/../core/lv_obj_style_gen.h **** }
 258:Middlewares/lvgl/src/widgets/../core/lv_obj_style_gen.h **** 
 259:Middlewares/lvgl/src/widgets/../core/lv_obj_style_gen.h **** static inline lv_color_t lv_obj_get_style_bg_img_recolor_filtered(const struct _lv_obj_t * obj, uin
 260:Middlewares/lvgl/src/widgets/../core/lv_obj_style_gen.h **** {
 261:Middlewares/lvgl/src/widgets/../core/lv_obj_style_gen.h ****     lv_style_value_t v = lv_obj_get_style_prop(obj, part, LV_STYLE_BG_IMG_RECOLOR_FILTERED);
 262:Middlewares/lvgl/src/widgets/../core/lv_obj_style_gen.h ****     return v.color;
 263:Middlewares/lvgl/src/widgets/../core/lv_obj_style_gen.h **** }
 264:Middlewares/lvgl/src/widgets/../core/lv_obj_style_gen.h **** 
 265:Middlewares/lvgl/src/widgets/../core/lv_obj_style_gen.h **** static inline lv_opa_t lv_obj_get_style_bg_img_recolor_opa(const struct _lv_obj_t * obj, uint32_t p
 266:Middlewares/lvgl/src/widgets/../core/lv_obj_style_gen.h **** {
 267:Middlewares/lvgl/src/widgets/../core/lv_obj_style_gen.h ****     lv_style_value_t v = lv_obj_get_style_prop(obj, part, LV_STYLE_BG_IMG_RECOLOR_OPA);
 268:Middlewares/lvgl/src/widgets/../core/lv_obj_style_gen.h ****     return (lv_opa_t)v.num;
 269:Middlewares/lvgl/src/widgets/../core/lv_obj_style_gen.h **** }
 270:Middlewares/lvgl/src/widgets/../core/lv_obj_style_gen.h **** 
 271:Middlewares/lvgl/src/widgets/../core/lv_obj_style_gen.h **** static inline bool lv_obj_get_style_bg_img_tiled(const struct _lv_obj_t * obj, uint32_t part)
 272:Middlewares/lvgl/src/widgets/../core/lv_obj_style_gen.h **** {
 273:Middlewares/lvgl/src/widgets/../core/lv_obj_style_gen.h ****     lv_style_value_t v = lv_obj_get_style_prop(obj, part, LV_STYLE_BG_IMG_TILED);
 274:Middlewares/lvgl/src/widgets/../core/lv_obj_style_gen.h ****     return (bool)v.num;
 275:Middlewares/lvgl/src/widgets/../core/lv_obj_style_gen.h **** }
 276:Middlewares/lvgl/src/widgets/../core/lv_obj_style_gen.h **** 
 277:Middlewares/lvgl/src/widgets/../core/lv_obj_style_gen.h **** static inline lv_color_t lv_obj_get_style_border_color(const struct _lv_obj_t * obj, uint32_t part)
 278:Middlewares/lvgl/src/widgets/../core/lv_obj_style_gen.h **** {
 279:Middlewares/lvgl/src/widgets/../core/lv_obj_style_gen.h ****     lv_style_value_t v = lv_obj_get_style_prop(obj, part, LV_STYLE_BORDER_COLOR);
 280:Middlewares/lvgl/src/widgets/../core/lv_obj_style_gen.h ****     return v.color;
ARM GAS  /tmp/cc6jSqZn.s 			page 20


 281:Middlewares/lvgl/src/widgets/../core/lv_obj_style_gen.h **** }
 282:Middlewares/lvgl/src/widgets/../core/lv_obj_style_gen.h **** 
 283:Middlewares/lvgl/src/widgets/../core/lv_obj_style_gen.h **** static inline lv_color_t lv_obj_get_style_border_color_filtered(const struct _lv_obj_t * obj, uint3
 284:Middlewares/lvgl/src/widgets/../core/lv_obj_style_gen.h **** {
 285:Middlewares/lvgl/src/widgets/../core/lv_obj_style_gen.h ****     lv_style_value_t v = lv_obj_get_style_prop(obj, part, LV_STYLE_BORDER_COLOR_FILTERED);
 286:Middlewares/lvgl/src/widgets/../core/lv_obj_style_gen.h ****     return v.color;
 287:Middlewares/lvgl/src/widgets/../core/lv_obj_style_gen.h **** }
 288:Middlewares/lvgl/src/widgets/../core/lv_obj_style_gen.h **** 
 289:Middlewares/lvgl/src/widgets/../core/lv_obj_style_gen.h **** static inline lv_opa_t lv_obj_get_style_border_opa(const struct _lv_obj_t * obj, uint32_t part)
 290:Middlewares/lvgl/src/widgets/../core/lv_obj_style_gen.h **** {
 291:Middlewares/lvgl/src/widgets/../core/lv_obj_style_gen.h ****     lv_style_value_t v = lv_obj_get_style_prop(obj, part, LV_STYLE_BORDER_OPA);
 292:Middlewares/lvgl/src/widgets/../core/lv_obj_style_gen.h ****     return (lv_opa_t)v.num;
 293:Middlewares/lvgl/src/widgets/../core/lv_obj_style_gen.h **** }
 294:Middlewares/lvgl/src/widgets/../core/lv_obj_style_gen.h **** 
 295:Middlewares/lvgl/src/widgets/../core/lv_obj_style_gen.h **** static inline lv_coord_t lv_obj_get_style_border_width(const struct _lv_obj_t * obj, uint32_t part)
 296:Middlewares/lvgl/src/widgets/../core/lv_obj_style_gen.h **** {
 297:Middlewares/lvgl/src/widgets/../core/lv_obj_style_gen.h ****     lv_style_value_t v = lv_obj_get_style_prop(obj, part, LV_STYLE_BORDER_WIDTH);
 298:Middlewares/lvgl/src/widgets/../core/lv_obj_style_gen.h ****     return (lv_coord_t)v.num;
 299:Middlewares/lvgl/src/widgets/../core/lv_obj_style_gen.h **** }
 300:Middlewares/lvgl/src/widgets/../core/lv_obj_style_gen.h **** 
 301:Middlewares/lvgl/src/widgets/../core/lv_obj_style_gen.h **** static inline lv_border_side_t lv_obj_get_style_border_side(const struct _lv_obj_t * obj, uint32_t 
 302:Middlewares/lvgl/src/widgets/../core/lv_obj_style_gen.h **** {
 303:Middlewares/lvgl/src/widgets/../core/lv_obj_style_gen.h ****     lv_style_value_t v = lv_obj_get_style_prop(obj, part, LV_STYLE_BORDER_SIDE);
 304:Middlewares/lvgl/src/widgets/../core/lv_obj_style_gen.h ****     return (lv_border_side_t)v.num;
 305:Middlewares/lvgl/src/widgets/../core/lv_obj_style_gen.h **** }
 306:Middlewares/lvgl/src/widgets/../core/lv_obj_style_gen.h **** 
 307:Middlewares/lvgl/src/widgets/../core/lv_obj_style_gen.h **** static inline bool lv_obj_get_style_border_post(const struct _lv_obj_t * obj, uint32_t part)
 308:Middlewares/lvgl/src/widgets/../core/lv_obj_style_gen.h **** {
 309:Middlewares/lvgl/src/widgets/../core/lv_obj_style_gen.h ****     lv_style_value_t v = lv_obj_get_style_prop(obj, part, LV_STYLE_BORDER_POST);
 310:Middlewares/lvgl/src/widgets/../core/lv_obj_style_gen.h ****     return (bool)v.num;
 311:Middlewares/lvgl/src/widgets/../core/lv_obj_style_gen.h **** }
 312:Middlewares/lvgl/src/widgets/../core/lv_obj_style_gen.h **** 
 313:Middlewares/lvgl/src/widgets/../core/lv_obj_style_gen.h **** static inline lv_color_t lv_obj_get_style_text_color(const struct _lv_obj_t * obj, uint32_t part)
 314:Middlewares/lvgl/src/widgets/../core/lv_obj_style_gen.h **** {
 315:Middlewares/lvgl/src/widgets/../core/lv_obj_style_gen.h ****     lv_style_value_t v = lv_obj_get_style_prop(obj, part, LV_STYLE_TEXT_COLOR);
 316:Middlewares/lvgl/src/widgets/../core/lv_obj_style_gen.h ****     return v.color;
 317:Middlewares/lvgl/src/widgets/../core/lv_obj_style_gen.h **** }
 318:Middlewares/lvgl/src/widgets/../core/lv_obj_style_gen.h **** 
 319:Middlewares/lvgl/src/widgets/../core/lv_obj_style_gen.h **** static inline lv_color_t lv_obj_get_style_text_color_filtered(const struct _lv_obj_t * obj, uint32_
 320:Middlewares/lvgl/src/widgets/../core/lv_obj_style_gen.h **** {
 321:Middlewares/lvgl/src/widgets/../core/lv_obj_style_gen.h ****     lv_style_value_t v = lv_obj_get_style_prop(obj, part, LV_STYLE_TEXT_COLOR_FILTERED);
 322:Middlewares/lvgl/src/widgets/../core/lv_obj_style_gen.h ****     return v.color;
 323:Middlewares/lvgl/src/widgets/../core/lv_obj_style_gen.h **** }
 324:Middlewares/lvgl/src/widgets/../core/lv_obj_style_gen.h **** 
 325:Middlewares/lvgl/src/widgets/../core/lv_obj_style_gen.h **** static inline lv_opa_t lv_obj_get_style_text_opa(const struct _lv_obj_t * obj, uint32_t part)
 326:Middlewares/lvgl/src/widgets/../core/lv_obj_style_gen.h **** {
 327:Middlewares/lvgl/src/widgets/../core/lv_obj_style_gen.h ****     lv_style_value_t v = lv_obj_get_style_prop(obj, part, LV_STYLE_TEXT_OPA);
 328:Middlewares/lvgl/src/widgets/../core/lv_obj_style_gen.h ****     return (lv_opa_t)v.num;
 329:Middlewares/lvgl/src/widgets/../core/lv_obj_style_gen.h **** }
 330:Middlewares/lvgl/src/widgets/../core/lv_obj_style_gen.h **** 
 331:Middlewares/lvgl/src/widgets/../core/lv_obj_style_gen.h **** static inline const lv_font_t * lv_obj_get_style_text_font(const struct _lv_obj_t * obj, uint32_t p
 332:Middlewares/lvgl/src/widgets/../core/lv_obj_style_gen.h **** {
 333:Middlewares/lvgl/src/widgets/../core/lv_obj_style_gen.h ****     lv_style_value_t v = lv_obj_get_style_prop(obj, part, LV_STYLE_TEXT_FONT);
 334:Middlewares/lvgl/src/widgets/../core/lv_obj_style_gen.h ****     return (const lv_font_t *)v.ptr;
 335:Middlewares/lvgl/src/widgets/../core/lv_obj_style_gen.h **** }
 336:Middlewares/lvgl/src/widgets/../core/lv_obj_style_gen.h **** 
 337:Middlewares/lvgl/src/widgets/../core/lv_obj_style_gen.h **** static inline lv_coord_t lv_obj_get_style_text_letter_space(const struct _lv_obj_t * obj, uint32_t 
ARM GAS  /tmp/cc6jSqZn.s 			page 21


 338:Middlewares/lvgl/src/widgets/../core/lv_obj_style_gen.h **** {
 339:Middlewares/lvgl/src/widgets/../core/lv_obj_style_gen.h ****     lv_style_value_t v = lv_obj_get_style_prop(obj, part, LV_STYLE_TEXT_LETTER_SPACE);
 340:Middlewares/lvgl/src/widgets/../core/lv_obj_style_gen.h ****     return (lv_coord_t)v.num;
 341:Middlewares/lvgl/src/widgets/../core/lv_obj_style_gen.h **** }
 342:Middlewares/lvgl/src/widgets/../core/lv_obj_style_gen.h **** 
 343:Middlewares/lvgl/src/widgets/../core/lv_obj_style_gen.h **** static inline lv_coord_t lv_obj_get_style_text_line_space(const struct _lv_obj_t * obj, uint32_t pa
 344:Middlewares/lvgl/src/widgets/../core/lv_obj_style_gen.h **** {
 345:Middlewares/lvgl/src/widgets/../core/lv_obj_style_gen.h ****     lv_style_value_t v = lv_obj_get_style_prop(obj, part, LV_STYLE_TEXT_LINE_SPACE);
 346:Middlewares/lvgl/src/widgets/../core/lv_obj_style_gen.h ****     return (lv_coord_t)v.num;
 347:Middlewares/lvgl/src/widgets/../core/lv_obj_style_gen.h **** }
 348:Middlewares/lvgl/src/widgets/../core/lv_obj_style_gen.h **** 
 349:Middlewares/lvgl/src/widgets/../core/lv_obj_style_gen.h **** static inline lv_text_decor_t lv_obj_get_style_text_decor(const struct _lv_obj_t * obj, uint32_t pa
 350:Middlewares/lvgl/src/widgets/../core/lv_obj_style_gen.h **** {
 351:Middlewares/lvgl/src/widgets/../core/lv_obj_style_gen.h ****     lv_style_value_t v = lv_obj_get_style_prop(obj, part, LV_STYLE_TEXT_DECOR);
 352:Middlewares/lvgl/src/widgets/../core/lv_obj_style_gen.h ****     return (lv_text_decor_t)v.num;
 353:Middlewares/lvgl/src/widgets/../core/lv_obj_style_gen.h **** }
 354:Middlewares/lvgl/src/widgets/../core/lv_obj_style_gen.h **** 
 355:Middlewares/lvgl/src/widgets/../core/lv_obj_style_gen.h **** static inline lv_text_align_t lv_obj_get_style_text_align(const struct _lv_obj_t * obj, uint32_t pa
 356:Middlewares/lvgl/src/widgets/../core/lv_obj_style_gen.h **** {
 357:Middlewares/lvgl/src/widgets/../core/lv_obj_style_gen.h ****     lv_style_value_t v = lv_obj_get_style_prop(obj, part, LV_STYLE_TEXT_ALIGN);
 358:Middlewares/lvgl/src/widgets/../core/lv_obj_style_gen.h ****     return (lv_text_align_t)v.num;
 359:Middlewares/lvgl/src/widgets/../core/lv_obj_style_gen.h **** }
 360:Middlewares/lvgl/src/widgets/../core/lv_obj_style_gen.h **** 
 361:Middlewares/lvgl/src/widgets/../core/lv_obj_style_gen.h **** static inline lv_opa_t lv_obj_get_style_img_opa(const struct _lv_obj_t * obj, uint32_t part)
 139              		.loc 2 361 24 view .LVU34
 140              	.LBB73:
 362:Middlewares/lvgl/src/widgets/../core/lv_obj_style_gen.h **** {
 363:Middlewares/lvgl/src/widgets/../core/lv_obj_style_gen.h ****     lv_style_value_t v = lv_obj_get_style_prop(obj, part, LV_STYLE_IMG_OPA);
 141              		.loc 2 363 5 view .LVU35
 142              		.loc 2 363 26 is_stmt 0 view .LVU36
 143 005c 4622     		movs	r2, #70
 144 005e 0021     		movs	r1, #0
 145 0060 2046     		mov	r0, r4
 146              	.LVL11:
 147              		.loc 2 363 26 view .LVU37
 148 0062 FFF7FEFF 		bl	lv_obj_get_style_prop
 149              	.LVL12:
 364:Middlewares/lvgl/src/widgets/../core/lv_obj_style_gen.h ****     return (lv_opa_t)v.num;
 150              		.loc 2 364 5 is_stmt 1 view .LVU38
 151              		.loc 2 364 12 is_stmt 0 view .LVU39
 152 0066 C0B2     		uxtb	r0, r0
 153              	.LVL13:
 154              		.loc 2 364 12 view .LVU40
 155              	.LBE73:
 156              	.LBE72:
 509:Middlewares/lvgl/src/widgets/lv_img.c ****             info->res = LV_COVER_RES_NOT_COVER;
 157              		.loc 1 509 11 view .LVU41
 158 0068 FF28     		cmp	r0, #255
 159 006a 02D0     		beq	.L6
 510:Middlewares/lvgl/src/widgets/lv_img.c ****             return;
 160              		.loc 1 510 13 is_stmt 1 view .LVU42
 510:Middlewares/lvgl/src/widgets/lv_img.c ****             return;
 161              		.loc 1 510 23 is_stmt 0 view .LVU43
 162 006c 0123     		movs	r3, #1
 163 006e 2B70     		strb	r3, [r5]
 511:Middlewares/lvgl/src/widgets/lv_img.c ****         }
 164              		.loc 1 511 13 is_stmt 1 view .LVU44
ARM GAS  /tmp/cc6jSqZn.s 			page 22


 165 0070 D9E7     		b	.L1
 166              	.L6:
 514:Middlewares/lvgl/src/widgets/lv_img.c ****         angle_final += img->angle;
 167              		.loc 1 514 9 view .LVU45
 168              	.LVL14:
 169              	.LBB74:
 170              	.LBI74:
  85:Middlewares/lvgl/src/widgets/../core/lv_obj_style_gen.h **** {
 171              		.loc 2 85 26 view .LVU46
 172              	.LBB75:
  87:Middlewares/lvgl/src/widgets/../core/lv_obj_style_gen.h ****     return (lv_coord_t)v.num;
 173              		.loc 2 87 5 view .LVU47
  87:Middlewares/lvgl/src/widgets/../core/lv_obj_style_gen.h ****     return (lv_coord_t)v.num;
 174              		.loc 2 87 26 is_stmt 0 view .LVU48
 175 0072 40F60F02 		movw	r2, #2063
 176 0076 0021     		movs	r1, #0
 177 0078 2046     		mov	r0, r4
 178 007a FFF7FEFF 		bl	lv_obj_get_style_prop
 179              	.LVL15:
  88:Middlewares/lvgl/src/widgets/../core/lv_obj_style_gen.h **** }
 180              		.loc 2 88 5 is_stmt 1 view .LVU49
  88:Middlewares/lvgl/src/widgets/../core/lv_obj_style_gen.h **** }
 181              		.loc 2 88 5 is_stmt 0 view .LVU50
 182              	.LBE75:
 183              	.LBE74:
 515:Middlewares/lvgl/src/widgets/lv_img.c **** 
 184              		.loc 1 515 9 is_stmt 1 view .LVU51
 515:Middlewares/lvgl/src/widgets/lv_img.c **** 
 185              		.loc 1 515 27 is_stmt 0 view .LVU52
 186 007e 238E     		ldrh	r3, [r4, #48]
 515:Middlewares/lvgl/src/widgets/lv_img.c **** 
 187              		.loc 1 515 21 view .LVU53
 188 0080 03FA80F0 		sxtah	r0, r3, r0
 189              	.LVL16:
 517:Middlewares/lvgl/src/widgets/lv_img.c ****             info->res = LV_COVER_RES_NOT_COVER;
 190              		.loc 1 517 9 is_stmt 1 view .LVU54
 517:Middlewares/lvgl/src/widgets/lv_img.c ****             info->res = LV_COVER_RES_NOT_COVER;
 191              		.loc 1 517 11 is_stmt 0 view .LVU55
 192 0084 10B1     		cbz	r0, .L7
 518:Middlewares/lvgl/src/widgets/lv_img.c ****             return;
 193              		.loc 1 518 13 is_stmt 1 view .LVU56
 518:Middlewares/lvgl/src/widgets/lv_img.c ****             return;
 194              		.loc 1 518 23 is_stmt 0 view .LVU57
 195 0086 0123     		movs	r3, #1
 196 0088 2B70     		strb	r3, [r5]
 519:Middlewares/lvgl/src/widgets/lv_img.c ****         }
 197              		.loc 1 519 13 is_stmt 1 view .LVU58
 198 008a CCE7     		b	.L1
 199              	.L7:
 522:Middlewares/lvgl/src/widgets/lv_img.c ****         zoom_final = (zoom_final * img->zoom) >> 8;
 200              		.loc 1 522 9 view .LVU59
 201              	.LVL17:
 202              	.LBB76:
 203              	.LBI76:
  79:Middlewares/lvgl/src/widgets/../core/lv_obj_style_gen.h **** {
 204              		.loc 2 79 26 view .LVU60
 205              	.LBB77:
ARM GAS  /tmp/cc6jSqZn.s 			page 23


  81:Middlewares/lvgl/src/widgets/../core/lv_obj_style_gen.h ****     return (lv_coord_t)v.num;
 206              		.loc 2 81 5 view .LVU61
  81:Middlewares/lvgl/src/widgets/../core/lv_obj_style_gen.h ****     return (lv_coord_t)v.num;
 207              		.loc 2 81 26 is_stmt 0 view .LVU62
 208 008c 40F60E02 		movw	r2, #2062
 209 0090 0021     		movs	r1, #0
 210 0092 2046     		mov	r0, r4
 211              	.LVL18:
  81:Middlewares/lvgl/src/widgets/../core/lv_obj_style_gen.h ****     return (lv_coord_t)v.num;
 212              		.loc 2 81 26 view .LVU63
 213 0094 FFF7FEFF 		bl	lv_obj_get_style_prop
 214              	.LVL19:
  82:Middlewares/lvgl/src/widgets/../core/lv_obj_style_gen.h **** }
 215              		.loc 2 82 5 is_stmt 1 view .LVU64
  82:Middlewares/lvgl/src/widgets/../core/lv_obj_style_gen.h **** }
 216              		.loc 2 82 12 is_stmt 0 view .LVU65
 217 0098 03B2     		sxth	r3, r0
 218              	.LVL20:
  82:Middlewares/lvgl/src/widgets/../core/lv_obj_style_gen.h **** }
 219              		.loc 2 82 12 view .LVU66
 220              	.LBE77:
 221              	.LBE76:
 523:Middlewares/lvgl/src/widgets/lv_img.c **** 
 222              		.loc 1 523 9 is_stmt 1 view .LVU67
 523:Middlewares/lvgl/src/widgets/lv_img.c **** 
 223              		.loc 1 523 39 is_stmt 0 view .LVU68
 224 009a E78E     		ldrh	r7, [r4, #54]
 523:Middlewares/lvgl/src/widgets/lv_img.c **** 
 225              		.loc 1 523 34 view .LVU69
 226 009c 03FB07F7 		mul	r7, r3, r7
 523:Middlewares/lvgl/src/widgets/lv_img.c **** 
 227              		.loc 1 523 20 view .LVU70
 228 00a0 3F12     		asrs	r7, r7, #8
 229              	.LVL21:
 525:Middlewares/lvgl/src/widgets/lv_img.c ****         if(zoom_final == LV_IMG_ZOOM_NONE) {
 230              		.loc 1 525 9 is_stmt 1 view .LVU71
 525:Middlewares/lvgl/src/widgets/lv_img.c ****         if(zoom_final == LV_IMG_ZOOM_NONE) {
 231              		.loc 1 525 39 is_stmt 0 view .LVU72
 232 00a2 3046     		mov	r0, r6
 233 00a4 FFF7FEFF 		bl	lv_event_get_param
 234              	.LVL22:
 235 00a8 0646     		mov	r6, r0
 236              	.LVL23:
 526:Middlewares/lvgl/src/widgets/lv_img.c ****             if(_lv_area_is_in(clip_area, &obj->coords, 0) == false) {
 237              		.loc 1 526 9 is_stmt 1 view .LVU73
 526:Middlewares/lvgl/src/widgets/lv_img.c ****             if(_lv_area_is_in(clip_area, &obj->coords, 0) == false) {
 238              		.loc 1 526 11 is_stmt 0 view .LVU74
 239 00aa B7F5807F 		cmp	r7, #256
 240 00ae 31D0     		beq	.L26
 241              	.LBB78:
 533:Middlewares/lvgl/src/widgets/lv_img.c ****             _lv_img_buf_get_transformed_area(&a, lv_obj_get_width(obj), lv_obj_get_height(obj), 0, 
 242              		.loc 1 533 13 is_stmt 1 view .LVU75
 534:Middlewares/lvgl/src/widgets/lv_img.c ****             a.x1 += obj->coords.x1;
 243              		.loc 1 534 13 view .LVU76
 244 00b0 2046     		mov	r0, r4
 245              	.LVL24:
 534:Middlewares/lvgl/src/widgets/lv_img.c ****             a.x1 += obj->coords.x1;
ARM GAS  /tmp/cc6jSqZn.s 			page 24


 246              		.loc 1 534 13 is_stmt 0 view .LVU77
 247 00b2 FFF7FEFF 		bl	lv_obj_get_width
 248              	.LVL25:
 249 00b6 8046     		mov	r8, r0
 250 00b8 2046     		mov	r0, r4
 251 00ba FFF7FEFF 		bl	lv_obj_get_height
 252              	.LVL26:
 253 00be 0246     		mov	r2, r0
 534:Middlewares/lvgl/src/widgets/lv_img.c ****             a.x1 += obj->coords.x1;
 254              		.loc 1 534 112 view .LVU78
 255 00c0 04F13203 		add	r3, r4, #50
 534:Middlewares/lvgl/src/widgets/lv_img.c ****             a.x1 += obj->coords.x1;
 256              		.loc 1 534 13 view .LVU79
 257 00c4 0193     		str	r3, [sp, #4]
 258 00c6 BFB2     		uxth	r7, r7
 259              	.LVL27:
 534:Middlewares/lvgl/src/widgets/lv_img.c ****             a.x1 += obj->coords.x1;
 260              		.loc 1 534 13 view .LVU80
 261 00c8 0097     		str	r7, [sp]
 262 00ca 0023     		movs	r3, #0
 263 00cc 4146     		mov	r1, r8
 264 00ce 16A8     		add	r0, sp, #88
 265 00d0 FFF7FEFF 		bl	_lv_img_buf_get_transformed_area
 266              	.LVL28:
 535:Middlewares/lvgl/src/widgets/lv_img.c ****             a.y1 += obj->coords.y1;
 267              		.loc 1 535 13 is_stmt 1 view .LVU81
 535:Middlewares/lvgl/src/widgets/lv_img.c ****             a.y1 += obj->coords.y1;
 268              		.loc 1 535 32 is_stmt 0 view .LVU82
 269 00d4 A28A     		ldrh	r2, [r4, #20]
 535:Middlewares/lvgl/src/widgets/lv_img.c ****             a.y1 += obj->coords.y1;
 270              		.loc 1 535 18 view .LVU83
 271 00d6 BDF85830 		ldrh	r3, [sp, #88]
 272 00da 1344     		add	r3, r3, r2
 273 00dc ADF85830 		strh	r3, [sp, #88]	@ movhi
 536:Middlewares/lvgl/src/widgets/lv_img.c ****             a.x2 += obj->coords.x1;
 274              		.loc 1 536 13 is_stmt 1 view .LVU84
 536:Middlewares/lvgl/src/widgets/lv_img.c ****             a.x2 += obj->coords.x1;
 275              		.loc 1 536 32 is_stmt 0 view .LVU85
 276 00e0 E38A     		ldrh	r3, [r4, #22]
 536:Middlewares/lvgl/src/widgets/lv_img.c ****             a.x2 += obj->coords.x1;
 277              		.loc 1 536 18 view .LVU86
 278 00e2 BDF85A10 		ldrh	r1, [sp, #90]
 279 00e6 1944     		add	r1, r1, r3
 280 00e8 ADF85A10 		strh	r1, [sp, #90]	@ movhi
 537:Middlewares/lvgl/src/widgets/lv_img.c ****             a.y2 += obj->coords.y1;
 281              		.loc 1 537 13 is_stmt 1 view .LVU87
 537:Middlewares/lvgl/src/widgets/lv_img.c ****             a.y2 += obj->coords.y1;
 282              		.loc 1 537 18 is_stmt 0 view .LVU88
 283 00ec BDF85C10 		ldrh	r1, [sp, #92]
 284 00f0 0A44     		add	r2, r2, r1
 285 00f2 ADF85C20 		strh	r2, [sp, #92]	@ movhi
 538:Middlewares/lvgl/src/widgets/lv_img.c **** 
 286              		.loc 1 538 13 is_stmt 1 view .LVU89
 538:Middlewares/lvgl/src/widgets/lv_img.c **** 
 287              		.loc 1 538 18 is_stmt 0 view .LVU90
 288 00f6 BDF85E20 		ldrh	r2, [sp, #94]
 289 00fa 1344     		add	r3, r3, r2
ARM GAS  /tmp/cc6jSqZn.s 			page 25


 290 00fc ADF85E30 		strh	r3, [sp, #94]	@ movhi
 540:Middlewares/lvgl/src/widgets/lv_img.c ****                 info->res = LV_COVER_RES_NOT_COVER;
 291              		.loc 1 540 13 is_stmt 1 view .LVU91
 540:Middlewares/lvgl/src/widgets/lv_img.c ****                 info->res = LV_COVER_RES_NOT_COVER;
 292              		.loc 1 540 16 is_stmt 0 view .LVU92
 293 0100 0022     		movs	r2, #0
 294 0102 16A9     		add	r1, sp, #88
 295 0104 3046     		mov	r0, r6
 296 0106 FFF7FEFF 		bl	_lv_area_is_in
 297              	.LVL29:
 540:Middlewares/lvgl/src/widgets/lv_img.c ****                 info->res = LV_COVER_RES_NOT_COVER;
 298              		.loc 1 540 15 view .LVU93
 299 010a 0028     		cmp	r0, #0
 300 010c 8BD1     		bne	.L1
 541:Middlewares/lvgl/src/widgets/lv_img.c ****                 return;
 301              		.loc 1 541 17 is_stmt 1 view .LVU94
 541:Middlewares/lvgl/src/widgets/lv_img.c ****                 return;
 302              		.loc 1 541 27 is_stmt 0 view .LVU95
 303 010e 0123     		movs	r3, #1
 304 0110 2B70     		strb	r3, [r5]
 542:Middlewares/lvgl/src/widgets/lv_img.c ****             }
 305              		.loc 1 542 17 is_stmt 1 view .LVU96
 306 0112 88E7     		b	.L1
 307              	.LVL30:
 308              	.L26:
 542:Middlewares/lvgl/src/widgets/lv_img.c ****             }
 309              		.loc 1 542 17 is_stmt 0 view .LVU97
 310              	.LBE78:
 527:Middlewares/lvgl/src/widgets/lv_img.c ****                 info->res = LV_COVER_RES_NOT_COVER;
 311              		.loc 1 527 13 is_stmt 1 view .LVU98
 527:Middlewares/lvgl/src/widgets/lv_img.c ****                 info->res = LV_COVER_RES_NOT_COVER;
 312              		.loc 1 527 16 is_stmt 0 view .LVU99
 313 0114 0022     		movs	r2, #0
 314 0116 04F11401 		add	r1, r4, #20
 315 011a FFF7FEFF 		bl	_lv_area_is_in
 316              	.LVL31:
 527:Middlewares/lvgl/src/widgets/lv_img.c ****                 info->res = LV_COVER_RES_NOT_COVER;
 317              		.loc 1 527 15 view .LVU100
 318 011e 0028     		cmp	r0, #0
 319 0120 81D1     		bne	.L1
 528:Middlewares/lvgl/src/widgets/lv_img.c ****                 return;
 320              		.loc 1 528 17 is_stmt 1 view .LVU101
 528:Middlewares/lvgl/src/widgets/lv_img.c ****                 return;
 321              		.loc 1 528 27 is_stmt 0 view .LVU102
 322 0122 0123     		movs	r3, #1
 323 0124 2B70     		strb	r3, [r5]
 529:Middlewares/lvgl/src/widgets/lv_img.c ****             }
 324              		.loc 1 529 17 is_stmt 1 view .LVU103
 325 0126 7EE7     		b	.L1
 326              	.LVL32:
 327              	.L10:
 529:Middlewares/lvgl/src/widgets/lv_img.c ****             }
 328              		.loc 1 529 17 is_stmt 0 view .LVU104
 329              	.LBE71:
 330              	.LBB79:
 548:Middlewares/lvgl/src/widgets/lv_img.c ****         zoom_final = (zoom_final * img->zoom) >> 8;
 331              		.loc 1 548 9 is_stmt 1 view .LVU105
ARM GAS  /tmp/cc6jSqZn.s 			page 26


 332              	.LBB80:
 333              	.LBI80:
  79:Middlewares/lvgl/src/widgets/../core/lv_obj_style_gen.h **** {
 334              		.loc 2 79 26 view .LVU106
 335              	.LBB81:
  81:Middlewares/lvgl/src/widgets/../core/lv_obj_style_gen.h ****     return (lv_coord_t)v.num;
 336              		.loc 2 81 5 view .LVU107
  81:Middlewares/lvgl/src/widgets/../core/lv_obj_style_gen.h ****     return (lv_coord_t)v.num;
 337              		.loc 2 81 26 is_stmt 0 view .LVU108
 338 0128 40F60E02 		movw	r2, #2062
 339 012c 0021     		movs	r1, #0
 340 012e 2046     		mov	r0, r4
 341              	.LVL33:
  81:Middlewares/lvgl/src/widgets/../core/lv_obj_style_gen.h ****     return (lv_coord_t)v.num;
 342              		.loc 2 81 26 view .LVU109
 343 0130 FFF7FEFF 		bl	lv_obj_get_style_prop
 344              	.LVL34:
  82:Middlewares/lvgl/src/widgets/../core/lv_obj_style_gen.h **** }
 345              		.loc 2 82 5 is_stmt 1 view .LVU110
  82:Middlewares/lvgl/src/widgets/../core/lv_obj_style_gen.h **** }
 346              		.loc 2 82 12 is_stmt 0 view .LVU111
 347 0134 03B2     		sxth	r3, r0
 348              	.LVL35:
  82:Middlewares/lvgl/src/widgets/../core/lv_obj_style_gen.h **** }
 349              		.loc 2 82 12 view .LVU112
 350              	.LBE81:
 351              	.LBE80:
 549:Middlewares/lvgl/src/widgets/lv_img.c **** 
 352              		.loc 1 549 9 is_stmt 1 view .LVU113
 549:Middlewares/lvgl/src/widgets/lv_img.c **** 
 353              		.loc 1 549 39 is_stmt 0 view .LVU114
 354 0136 E08E     		ldrh	r0, [r4, #54]
 549:Middlewares/lvgl/src/widgets/lv_img.c **** 
 355              		.loc 1 549 34 view .LVU115
 356 0138 03FB00F0 		mul	r0, r3, r0
 549:Middlewares/lvgl/src/widgets/lv_img.c **** 
 357              		.loc 1 549 20 view .LVU116
 358 013c 0312     		asrs	r3, r0, #8
 359              	.LVL36:
 549:Middlewares/lvgl/src/widgets/lv_img.c **** 
 360              		.loc 1 549 20 view .LVU117
 361 013e 0393     		str	r3, [sp, #12]
 362              	.LVL37:
 551:Middlewares/lvgl/src/widgets/lv_img.c ****         angle_final += img->angle;
 363              		.loc 1 551 9 is_stmt 1 view .LVU118
 364              	.LBB82:
 365              	.LBI82:
  85:Middlewares/lvgl/src/widgets/../core/lv_obj_style_gen.h **** {
 366              		.loc 2 85 26 view .LVU119
 367              	.LBB83:
  87:Middlewares/lvgl/src/widgets/../core/lv_obj_style_gen.h ****     return (lv_coord_t)v.num;
 368              		.loc 2 87 5 view .LVU120
  87:Middlewares/lvgl/src/widgets/../core/lv_obj_style_gen.h ****     return (lv_coord_t)v.num;
 369              		.loc 2 87 26 is_stmt 0 view .LVU121
 370 0140 40F60F02 		movw	r2, #2063
 371 0144 0021     		movs	r1, #0
 372 0146 2046     		mov	r0, r4
ARM GAS  /tmp/cc6jSqZn.s 			page 27


 373 0148 FFF7FEFF 		bl	lv_obj_get_style_prop
 374              	.LVL38:
  88:Middlewares/lvgl/src/widgets/../core/lv_obj_style_gen.h **** }
 375              		.loc 2 88 5 is_stmt 1 view .LVU122
  88:Middlewares/lvgl/src/widgets/../core/lv_obj_style_gen.h **** }
 376              		.loc 2 88 5 is_stmt 0 view .LVU123
 377              	.LBE83:
 378              	.LBE82:
 552:Middlewares/lvgl/src/widgets/lv_img.c **** 
 379              		.loc 1 552 9 is_stmt 1 view .LVU124
 552:Middlewares/lvgl/src/widgets/lv_img.c **** 
 380              		.loc 1 552 27 is_stmt 0 view .LVU125
 381 014c 238E     		ldrh	r3, [r4, #48]
 552:Middlewares/lvgl/src/widgets/lv_img.c **** 
 382              		.loc 1 552 21 view .LVU126
 383 014e 03FA80F2 		sxtah	r2, r3, r0
 384 0152 0592     		str	r2, [sp, #20]
 385              	.LVL39:
 554:Middlewares/lvgl/src/widgets/lv_img.c ****         lv_coord_t obj_h = lv_obj_get_height(obj);
 386              		.loc 1 554 9 is_stmt 1 view .LVU127
 554:Middlewares/lvgl/src/widgets/lv_img.c ****         lv_coord_t obj_h = lv_obj_get_height(obj);
 387              		.loc 1 554 28 is_stmt 0 view .LVU128
 388 0154 2046     		mov	r0, r4
 389 0156 FFF7FEFF 		bl	lv_obj_get_width
 390              	.LVL40:
 554:Middlewares/lvgl/src/widgets/lv_img.c ****         lv_coord_t obj_h = lv_obj_get_height(obj);
 391              		.loc 1 554 28 view .LVU129
 392 015a 0746     		mov	r7, r0
 393              	.LVL41:
 555:Middlewares/lvgl/src/widgets/lv_img.c **** 
 394              		.loc 1 555 9 is_stmt 1 view .LVU130
 555:Middlewares/lvgl/src/widgets/lv_img.c **** 
 395              		.loc 1 555 28 is_stmt 0 view .LVU131
 396 015c 2046     		mov	r0, r4
 397 015e FFF7FEFF 		bl	lv_obj_get_height
 398              	.LVL42:
 399 0162 8046     		mov	r8, r0
 400              	.LVL43:
 557:Middlewares/lvgl/src/widgets/lv_img.c ****         lv_coord_t pleft = lv_obj_get_style_pad_left(obj, LV_PART_MAIN) + border_width;
 401              		.loc 1 557 9 is_stmt 1 view .LVU132
 402              	.LBB84:
 403              	.LBI84:
 295:Middlewares/lvgl/src/widgets/../core/lv_obj_style_gen.h **** {
 404              		.loc 2 295 26 view .LVU133
 405              	.LBB85:
 297:Middlewares/lvgl/src/widgets/../core/lv_obj_style_gen.h ****     return (lv_coord_t)v.num;
 406              		.loc 2 297 5 view .LVU134
 297:Middlewares/lvgl/src/widgets/../core/lv_obj_style_gen.h ****     return (lv_coord_t)v.num;
 407              		.loc 2 297 26 is_stmt 0 view .LVU135
 408 0164 41F23202 		movw	r2, #4146
 409 0168 0021     		movs	r1, #0
 410 016a 2046     		mov	r0, r4
 411 016c FFF7FEFF 		bl	lv_obj_get_style_prop
 412              	.LVL44:
 413 0170 8146     		mov	r9, r0
 414              	.LVL45:
 298:Middlewares/lvgl/src/widgets/../core/lv_obj_style_gen.h **** }
ARM GAS  /tmp/cc6jSqZn.s 			page 28


 415              		.loc 2 298 5 is_stmt 1 view .LVU136
 298:Middlewares/lvgl/src/widgets/../core/lv_obj_style_gen.h **** }
 416              		.loc 2 298 5 is_stmt 0 view .LVU137
 417              	.LBE85:
 418              	.LBE84:
 558:Middlewares/lvgl/src/widgets/lv_img.c ****         lv_coord_t pright = lv_obj_get_style_pad_right(obj, LV_PART_MAIN) + border_width;
 419              		.loc 1 558 9 is_stmt 1 view .LVU138
 420              	.LBB86:
 421              	.LBI86:
 103:Middlewares/lvgl/src/widgets/../core/lv_obj_style_gen.h **** {
 422              		.loc 2 103 26 view .LVU139
 423              	.LBB87:
 105:Middlewares/lvgl/src/widgets/../core/lv_obj_style_gen.h ****     return (lv_coord_t)v.num;
 424              		.loc 2 105 5 view .LVU140
 105:Middlewares/lvgl/src/widgets/../core/lv_obj_style_gen.h ****     return (lv_coord_t)v.num;
 425              		.loc 2 105 26 is_stmt 0 view .LVU141
 426 0172 41F21202 		movw	r2, #4114
 427 0176 0021     		movs	r1, #0
 428 0178 2046     		mov	r0, r4
 429 017a FFF7FEFF 		bl	lv_obj_get_style_prop
 430              	.LVL46:
 106:Middlewares/lvgl/src/widgets/../core/lv_obj_style_gen.h **** }
 431              		.loc 2 106 5 is_stmt 1 view .LVU142
 106:Middlewares/lvgl/src/widgets/../core/lv_obj_style_gen.h **** }
 432              		.loc 2 106 5 is_stmt 0 view .LVU143
 433              	.LBE87:
 434              	.LBE86:
 558:Middlewares/lvgl/src/widgets/lv_img.c ****         lv_coord_t pright = lv_obj_get_style_pad_right(obj, LV_PART_MAIN) + border_width;
 435              		.loc 1 558 73 view .LVU144
 436 017e 1FFA89F9 		uxth	r9, r9
 558:Middlewares/lvgl/src/widgets/lv_img.c ****         lv_coord_t pright = lv_obj_get_style_pad_right(obj, LV_PART_MAIN) + border_width;
 437              		.loc 1 558 73 view .LVU145
 438 0182 19FA80F0 		uxtah	r0, r9, r0
 439 0186 81B2     		uxth	r1, r0
 440 0188 0491     		str	r1, [sp, #16]
 441              	.LVL47:
 559:Middlewares/lvgl/src/widgets/lv_img.c ****         lv_coord_t ptop = lv_obj_get_style_pad_top(obj, LV_PART_MAIN) + border_width;
 442              		.loc 1 559 9 is_stmt 1 view .LVU146
 443              	.LBB88:
 444              	.LBI88:
 109:Middlewares/lvgl/src/widgets/../core/lv_obj_style_gen.h **** {
 445              		.loc 2 109 26 view .LVU147
 446              	.LBB89:
 111:Middlewares/lvgl/src/widgets/../core/lv_obj_style_gen.h ****     return (lv_coord_t)v.num;
 447              		.loc 2 111 5 view .LVU148
 111:Middlewares/lvgl/src/widgets/../core/lv_obj_style_gen.h ****     return (lv_coord_t)v.num;
 448              		.loc 2 111 26 is_stmt 0 view .LVU149
 449 018a 41F21302 		movw	r2, #4115
 450 018e 0021     		movs	r1, #0
 451 0190 2046     		mov	r0, r4
 452 0192 FFF7FEFF 		bl	lv_obj_get_style_prop
 453              	.LVL48:
 112:Middlewares/lvgl/src/widgets/../core/lv_obj_style_gen.h **** }
 454              		.loc 2 112 5 is_stmt 1 view .LVU150
 112:Middlewares/lvgl/src/widgets/../core/lv_obj_style_gen.h **** }
 455              		.loc 2 112 5 is_stmt 0 view .LVU151
 456              	.LBE89:
ARM GAS  /tmp/cc6jSqZn.s 			page 29


 457              	.LBE88:
 559:Middlewares/lvgl/src/widgets/lv_img.c ****         lv_coord_t ptop = lv_obj_get_style_pad_top(obj, LV_PART_MAIN) + border_width;
 458              		.loc 1 559 75 view .LVU152
 459 0196 19FA80F0 		uxtah	r0, r9, r0
 460 019a 80B2     		uxth	r0, r0
 461 019c 0690     		str	r0, [sp, #24]
 462              	.LVL49:
 560:Middlewares/lvgl/src/widgets/lv_img.c ****         lv_coord_t pbottom = lv_obj_get_style_pad_bottom(obj, LV_PART_MAIN) + border_width;
 463              		.loc 1 560 9 is_stmt 1 view .LVU153
 464              	.LBB90:
 465              	.LBI90:
  91:Middlewares/lvgl/src/widgets/../core/lv_obj_style_gen.h **** {
 466              		.loc 2 91 26 view .LVU154
 467              	.LBB91:
  93:Middlewares/lvgl/src/widgets/../core/lv_obj_style_gen.h ****     return (lv_coord_t)v.num;
 468              		.loc 2 93 5 view .LVU155
  93:Middlewares/lvgl/src/widgets/../core/lv_obj_style_gen.h ****     return (lv_coord_t)v.num;
 469              		.loc 2 93 26 is_stmt 0 view .LVU156
 470 019e 41F21002 		movw	r2, #4112
 471 01a2 0021     		movs	r1, #0
 472 01a4 2046     		mov	r0, r4
 473 01a6 FFF7FEFF 		bl	lv_obj_get_style_prop
 474              	.LVL50:
  94:Middlewares/lvgl/src/widgets/../core/lv_obj_style_gen.h **** }
 475              		.loc 2 94 5 is_stmt 1 view .LVU157
  94:Middlewares/lvgl/src/widgets/../core/lv_obj_style_gen.h **** }
 476              		.loc 2 94 5 is_stmt 0 view .LVU158
 477              	.LBE91:
 478              	.LBE90:
 560:Middlewares/lvgl/src/widgets/lv_img.c ****         lv_coord_t pbottom = lv_obj_get_style_pad_bottom(obj, LV_PART_MAIN) + border_width;
 479              		.loc 1 560 71 view .LVU159
 480 01aa 19FA80F0 		uxtah	r0, r9, r0
 481 01ae 1FFA80FB 		uxth	fp, r0
 482              	.LVL51:
 561:Middlewares/lvgl/src/widgets/lv_img.c **** 
 483              		.loc 1 561 9 is_stmt 1 view .LVU160
 484              	.LBB92:
 485              	.LBI92:
  97:Middlewares/lvgl/src/widgets/../core/lv_obj_style_gen.h **** {
 486              		.loc 2 97 26 view .LVU161
 487              	.LBB93:
  99:Middlewares/lvgl/src/widgets/../core/lv_obj_style_gen.h ****     return (lv_coord_t)v.num;
 488              		.loc 2 99 5 view .LVU162
  99:Middlewares/lvgl/src/widgets/../core/lv_obj_style_gen.h ****     return (lv_coord_t)v.num;
 489              		.loc 2 99 26 is_stmt 0 view .LVU163
 490 01b2 41F21102 		movw	r2, #4113
 491 01b6 0021     		movs	r1, #0
 492 01b8 2046     		mov	r0, r4
 493 01ba FFF7FEFF 		bl	lv_obj_get_style_prop
 494              	.LVL52:
 100:Middlewares/lvgl/src/widgets/../core/lv_obj_style_gen.h **** }
 495              		.loc 2 100 5 is_stmt 1 view .LVU164
 100:Middlewares/lvgl/src/widgets/../core/lv_obj_style_gen.h **** }
 496              		.loc 2 100 5 is_stmt 0 view .LVU165
 497              	.LBE93:
 498              	.LBE92:
 561:Middlewares/lvgl/src/widgets/lv_img.c **** 
ARM GAS  /tmp/cc6jSqZn.s 			page 30


 499              		.loc 1 561 77 view .LVU166
 500 01be 19FA80F9 		uxtah	r9, r9, r0
 501              	.LVL53:
 561:Middlewares/lvgl/src/widgets/lv_img.c **** 
 502              		.loc 1 561 77 view .LVU167
 503 01c2 1FFA89F0 		uxth	r0, r9
 504 01c6 0790     		str	r0, [sp, #28]
 505              	.LVL54:
 563:Middlewares/lvgl/src/widgets/lv_img.c ****         bg_pivot.x = img->pivot.x + pleft;
 506              		.loc 1 563 9 is_stmt 1 view .LVU168
 564:Middlewares/lvgl/src/widgets/lv_img.c ****         bg_pivot.y = img->pivot.y + ptop;
 507              		.loc 1 564 9 view .LVU169
 564:Middlewares/lvgl/src/widgets/lv_img.c ****         bg_pivot.y = img->pivot.y + ptop;
 508              		.loc 1 564 32 is_stmt 0 view .LVU170
 509 01c8 638E     		ldrh	r3, [r4, #50]
 564:Middlewares/lvgl/src/widgets/lv_img.c ****         bg_pivot.y = img->pivot.y + ptop;
 510              		.loc 1 564 35 view .LVU171
 511 01ca 0499     		ldr	r1, [sp, #16]
 512 01cc 0B44     		add	r3, r3, r1
 564:Middlewares/lvgl/src/widgets/lv_img.c ****         bg_pivot.y = img->pivot.y + ptop;
 513              		.loc 1 564 20 view .LVU172
 514 01ce ADF82C30 		strh	r3, [sp, #44]	@ movhi
 565:Middlewares/lvgl/src/widgets/lv_img.c ****         lv_area_t bg_coords;
 515              		.loc 1 565 9 is_stmt 1 view .LVU173
 565:Middlewares/lvgl/src/widgets/lv_img.c ****         lv_area_t bg_coords;
 516              		.loc 1 565 32 is_stmt 0 view .LVU174
 517 01d2 A38E     		ldrh	r3, [r4, #52]
 565:Middlewares/lvgl/src/widgets/lv_img.c ****         lv_area_t bg_coords;
 518              		.loc 1 565 35 view .LVU175
 519 01d4 5B44     		add	r3, r3, fp
 565:Middlewares/lvgl/src/widgets/lv_img.c ****         lv_area_t bg_coords;
 520              		.loc 1 565 20 view .LVU176
 521 01d6 ADF82E30 		strh	r3, [sp, #46]	@ movhi
 566:Middlewares/lvgl/src/widgets/lv_img.c ****         _lv_img_buf_get_transformed_area(&bg_coords, obj_w, obj_h,
 522              		.loc 1 566 9 is_stmt 1 view .LVU177
 567:Middlewares/lvgl/src/widgets/lv_img.c ****                 angle_final, zoom_final, &bg_pivot);
 523              		.loc 1 567 9 view .LVU178
 524 01da BDF80C30 		ldrh	r3, [sp, #12]
 525 01de 1946     		mov	r1, r3
 526 01e0 0993     		str	r3, [sp, #36]
 527 01e2 0BAB     		add	r3, sp, #44
 528 01e4 0193     		str	r3, [sp, #4]
 529 01e6 0091     		str	r1, [sp]
 530 01e8 BDF91430 		ldrsh	r3, [sp, #20]
 531 01ec 4246     		mov	r2, r8
 532 01ee 3946     		mov	r1, r7
 533 01f0 0CA8     		add	r0, sp, #48
 534 01f2 FFF7FEFF 		bl	_lv_img_buf_get_transformed_area
 535              	.LVL55:
 571:Middlewares/lvgl/src/widgets/lv_img.c ****         bg_coords.y1 += obj->coords.y1;
 536              		.loc 1 571 9 view .LVU179
 571:Middlewares/lvgl/src/widgets/lv_img.c ****         bg_coords.y1 += obj->coords.y1;
 537              		.loc 1 571 36 is_stmt 0 view .LVU180
 538 01f6 B4F91480 		ldrsh	r8, [r4, #20]
 539              	.LVL56:
 571:Middlewares/lvgl/src/widgets/lv_img.c ****         bg_coords.y1 += obj->coords.y1;
 540              		.loc 1 571 36 view .LVU181
ARM GAS  /tmp/cc6jSqZn.s 			page 31


 541 01fa 1FFA88F2 		uxth	r2, r8
 571:Middlewares/lvgl/src/widgets/lv_img.c ****         bg_coords.y1 += obj->coords.y1;
 542              		.loc 1 571 22 view .LVU182
 543 01fe BDF83000 		ldrh	r0, [sp, #48]
 544 0202 1044     		add	r0, r0, r2
 545 0204 00B2     		sxth	r0, r0
 546 0206 ADF83000 		strh	r0, [sp, #48]	@ movhi
 572:Middlewares/lvgl/src/widgets/lv_img.c ****         bg_coords.x2 += obj->coords.x1;
 547              		.loc 1 572 9 is_stmt 1 view .LVU183
 572:Middlewares/lvgl/src/widgets/lv_img.c ****         bg_coords.x2 += obj->coords.x1;
 548              		.loc 1 572 36 is_stmt 0 view .LVU184
 549 020a B4F91670 		ldrsh	r7, [r4, #22]
 550              	.LVL57:
 572:Middlewares/lvgl/src/widgets/lv_img.c ****         bg_coords.x2 += obj->coords.x1;
 551              		.loc 1 572 36 view .LVU185
 552 020e BBB2     		uxth	r3, r7
 572:Middlewares/lvgl/src/widgets/lv_img.c ****         bg_coords.x2 += obj->coords.x1;
 553              		.loc 1 572 22 view .LVU186
 554 0210 BDF83210 		ldrh	r1, [sp, #50]
 555 0214 1944     		add	r1, r1, r3
 556 0216 09B2     		sxth	r1, r1
 557 0218 ADF83210 		strh	r1, [sp, #50]	@ movhi
 573:Middlewares/lvgl/src/widgets/lv_img.c ****         bg_coords.y2 += obj->coords.y1;
 558              		.loc 1 573 9 is_stmt 1 view .LVU187
 573:Middlewares/lvgl/src/widgets/lv_img.c ****         bg_coords.y2 += obj->coords.y1;
 559              		.loc 1 573 22 is_stmt 0 view .LVU188
 560 021c BDF834C0 		ldrh	ip, [sp, #52]
 561 0220 6244     		add	r2, r2, ip
 562 0222 12B2     		sxth	r2, r2
 563 0224 ADF83420 		strh	r2, [sp, #52]	@ movhi
 574:Middlewares/lvgl/src/widgets/lv_img.c **** 
 564              		.loc 1 574 9 is_stmt 1 view .LVU189
 574:Middlewares/lvgl/src/widgets/lv_img.c **** 
 565              		.loc 1 574 22 is_stmt 0 view .LVU190
 566 0228 BDF836C0 		ldrh	ip, [sp, #54]
 567 022c 6344     		add	r3, r3, ip
 568 022e 0FFA83FC 		sxth	ip, r3
 569 0232 ADF836C0 		strh	ip, [sp, #54]	@ movhi
 576:Middlewares/lvgl/src/widgets/lv_img.c ****         lv_area_copy(&ori_coords, &obj->coords);
 570              		.loc 1 576 9 is_stmt 1 view .LVU191
 577:Middlewares/lvgl/src/widgets/lv_img.c ****         lv_area_copy(&obj->coords, &bg_coords);
 571              		.loc 1 577 9 view .LVU192
 572              	.LVL58:
 573              	.LBB94:
 574              	.LBI94:
 575              		.file 3 "Middlewares/lvgl/src/widgets/../core/../misc/../font/../misc/lv_area.h"
   1:Middlewares/lvgl/src/widgets/../core/../misc/../font/../misc/lv_area.h **** /**
   2:Middlewares/lvgl/src/widgets/../core/../misc/../font/../misc/lv_area.h ****  * @file lv_area.h
   3:Middlewares/lvgl/src/widgets/../core/../misc/../font/../misc/lv_area.h ****  *
   4:Middlewares/lvgl/src/widgets/../core/../misc/../font/../misc/lv_area.h ****  */
   5:Middlewares/lvgl/src/widgets/../core/../misc/../font/../misc/lv_area.h **** 
   6:Middlewares/lvgl/src/widgets/../core/../misc/../font/../misc/lv_area.h **** #ifndef LV_AREA_H
   7:Middlewares/lvgl/src/widgets/../core/../misc/../font/../misc/lv_area.h **** #define LV_AREA_H
   8:Middlewares/lvgl/src/widgets/../core/../misc/../font/../misc/lv_area.h **** 
   9:Middlewares/lvgl/src/widgets/../core/../misc/../font/../misc/lv_area.h **** #ifdef __cplusplus
  10:Middlewares/lvgl/src/widgets/../core/../misc/../font/../misc/lv_area.h **** extern "C" {
  11:Middlewares/lvgl/src/widgets/../core/../misc/../font/../misc/lv_area.h **** #endif
ARM GAS  /tmp/cc6jSqZn.s 			page 32


  12:Middlewares/lvgl/src/widgets/../core/../misc/../font/../misc/lv_area.h **** 
  13:Middlewares/lvgl/src/widgets/../core/../misc/../font/../misc/lv_area.h **** /*********************
  14:Middlewares/lvgl/src/widgets/../core/../misc/../font/../misc/lv_area.h ****  *      INCLUDES
  15:Middlewares/lvgl/src/widgets/../core/../misc/../font/../misc/lv_area.h ****  *********************/
  16:Middlewares/lvgl/src/widgets/../core/../misc/../font/../misc/lv_area.h **** #include "../lv_conf_internal.h"
  17:Middlewares/lvgl/src/widgets/../core/../misc/../font/../misc/lv_area.h **** #include <string.h>
  18:Middlewares/lvgl/src/widgets/../core/../misc/../font/../misc/lv_area.h **** #include <stdbool.h>
  19:Middlewares/lvgl/src/widgets/../core/../misc/../font/../misc/lv_area.h **** #include <stdint.h>
  20:Middlewares/lvgl/src/widgets/../core/../misc/../font/../misc/lv_area.h **** 
  21:Middlewares/lvgl/src/widgets/../core/../misc/../font/../misc/lv_area.h **** /*********************
  22:Middlewares/lvgl/src/widgets/../core/../misc/../font/../misc/lv_area.h ****  *      DEFINES
  23:Middlewares/lvgl/src/widgets/../core/../misc/../font/../misc/lv_area.h ****  *********************/
  24:Middlewares/lvgl/src/widgets/../core/../misc/../font/../misc/lv_area.h **** 
  25:Middlewares/lvgl/src/widgets/../core/../misc/../font/../misc/lv_area.h **** #define _LV_COORD_MAX_REDUCE    8192
  26:Middlewares/lvgl/src/widgets/../core/../misc/../font/../misc/lv_area.h **** 
  27:Middlewares/lvgl/src/widgets/../core/../misc/../font/../misc/lv_area.h **** #if LV_USE_LARGE_COORD
  28:Middlewares/lvgl/src/widgets/../core/../misc/../font/../misc/lv_area.h **** typedef int32_t lv_coord_t;
  29:Middlewares/lvgl/src/widgets/../core/../misc/../font/../misc/lv_area.h **** #else
  30:Middlewares/lvgl/src/widgets/../core/../misc/../font/../misc/lv_area.h **** typedef int16_t lv_coord_t;
  31:Middlewares/lvgl/src/widgets/../core/../misc/../font/../misc/lv_area.h **** #endif
  32:Middlewares/lvgl/src/widgets/../core/../misc/../font/../misc/lv_area.h **** 
  33:Middlewares/lvgl/src/widgets/../core/../misc/../font/../misc/lv_area.h **** /*To allow some special values in the end reduce the max value*/
  34:Middlewares/lvgl/src/widgets/../core/../misc/../font/../misc/lv_area.h **** #define LV_COORD_MAX ((lv_coord_t)((uint32_t)((uint32_t)1 << (8 * sizeof(lv_coord_t) - 1)) - _LV_CO
  35:Middlewares/lvgl/src/widgets/../core/../misc/../font/../misc/lv_area.h **** #define LV_COORD_MIN (-LV_COORD_MAX)
  36:Middlewares/lvgl/src/widgets/../core/../misc/../font/../misc/lv_area.h **** 
  37:Middlewares/lvgl/src/widgets/../core/../misc/../font/../misc/lv_area.h **** LV_EXPORT_CONST_INT(LV_COORD_MAX);
  38:Middlewares/lvgl/src/widgets/../core/../misc/../font/../misc/lv_area.h **** LV_EXPORT_CONST_INT(LV_COORD_MIN);
  39:Middlewares/lvgl/src/widgets/../core/../misc/../font/../misc/lv_area.h **** 
  40:Middlewares/lvgl/src/widgets/../core/../misc/../font/../misc/lv_area.h **** /**********************
  41:Middlewares/lvgl/src/widgets/../core/../misc/../font/../misc/lv_area.h ****  *      TYPEDEFS
  42:Middlewares/lvgl/src/widgets/../core/../misc/../font/../misc/lv_area.h ****  **********************/
  43:Middlewares/lvgl/src/widgets/../core/../misc/../font/../misc/lv_area.h **** 
  44:Middlewares/lvgl/src/widgets/../core/../misc/../font/../misc/lv_area.h **** /**
  45:Middlewares/lvgl/src/widgets/../core/../misc/../font/../misc/lv_area.h ****  * Represents a point on the screen.
  46:Middlewares/lvgl/src/widgets/../core/../misc/../font/../misc/lv_area.h ****  */
  47:Middlewares/lvgl/src/widgets/../core/../misc/../font/../misc/lv_area.h **** typedef struct {
  48:Middlewares/lvgl/src/widgets/../core/../misc/../font/../misc/lv_area.h ****     lv_coord_t x;
  49:Middlewares/lvgl/src/widgets/../core/../misc/../font/../misc/lv_area.h ****     lv_coord_t y;
  50:Middlewares/lvgl/src/widgets/../core/../misc/../font/../misc/lv_area.h **** } lv_point_t;
  51:Middlewares/lvgl/src/widgets/../core/../misc/../font/../misc/lv_area.h **** 
  52:Middlewares/lvgl/src/widgets/../core/../misc/../font/../misc/lv_area.h **** /** Represents an area of the screen.*/
  53:Middlewares/lvgl/src/widgets/../core/../misc/../font/../misc/lv_area.h **** typedef struct {
  54:Middlewares/lvgl/src/widgets/../core/../misc/../font/../misc/lv_area.h ****     lv_coord_t x1;
  55:Middlewares/lvgl/src/widgets/../core/../misc/../font/../misc/lv_area.h ****     lv_coord_t y1;
  56:Middlewares/lvgl/src/widgets/../core/../misc/../font/../misc/lv_area.h ****     lv_coord_t x2;
  57:Middlewares/lvgl/src/widgets/../core/../misc/../font/../misc/lv_area.h ****     lv_coord_t y2;
  58:Middlewares/lvgl/src/widgets/../core/../misc/../font/../misc/lv_area.h **** } lv_area_t;
  59:Middlewares/lvgl/src/widgets/../core/../misc/../font/../misc/lv_area.h **** 
  60:Middlewares/lvgl/src/widgets/../core/../misc/../font/../misc/lv_area.h **** /** Alignments*/
  61:Middlewares/lvgl/src/widgets/../core/../misc/../font/../misc/lv_area.h **** enum {
  62:Middlewares/lvgl/src/widgets/../core/../misc/../font/../misc/lv_area.h ****     LV_ALIGN_DEFAULT = 0,
  63:Middlewares/lvgl/src/widgets/../core/../misc/../font/../misc/lv_area.h ****     LV_ALIGN_TOP_LEFT,
  64:Middlewares/lvgl/src/widgets/../core/../misc/../font/../misc/lv_area.h ****     LV_ALIGN_TOP_MID,
  65:Middlewares/lvgl/src/widgets/../core/../misc/../font/../misc/lv_area.h ****     LV_ALIGN_TOP_RIGHT,
  66:Middlewares/lvgl/src/widgets/../core/../misc/../font/../misc/lv_area.h ****     LV_ALIGN_BOTTOM_LEFT,
  67:Middlewares/lvgl/src/widgets/../core/../misc/../font/../misc/lv_area.h ****     LV_ALIGN_BOTTOM_MID,
  68:Middlewares/lvgl/src/widgets/../core/../misc/../font/../misc/lv_area.h ****     LV_ALIGN_BOTTOM_RIGHT,
ARM GAS  /tmp/cc6jSqZn.s 			page 33


  69:Middlewares/lvgl/src/widgets/../core/../misc/../font/../misc/lv_area.h ****     LV_ALIGN_LEFT_MID,
  70:Middlewares/lvgl/src/widgets/../core/../misc/../font/../misc/lv_area.h ****     LV_ALIGN_RIGHT_MID,
  71:Middlewares/lvgl/src/widgets/../core/../misc/../font/../misc/lv_area.h ****     LV_ALIGN_CENTER,
  72:Middlewares/lvgl/src/widgets/../core/../misc/../font/../misc/lv_area.h **** 
  73:Middlewares/lvgl/src/widgets/../core/../misc/../font/../misc/lv_area.h ****     LV_ALIGN_OUT_TOP_LEFT,
  74:Middlewares/lvgl/src/widgets/../core/../misc/../font/../misc/lv_area.h ****     LV_ALIGN_OUT_TOP_MID,
  75:Middlewares/lvgl/src/widgets/../core/../misc/../font/../misc/lv_area.h ****     LV_ALIGN_OUT_TOP_RIGHT,
  76:Middlewares/lvgl/src/widgets/../core/../misc/../font/../misc/lv_area.h ****     LV_ALIGN_OUT_BOTTOM_LEFT,
  77:Middlewares/lvgl/src/widgets/../core/../misc/../font/../misc/lv_area.h ****     LV_ALIGN_OUT_BOTTOM_MID,
  78:Middlewares/lvgl/src/widgets/../core/../misc/../font/../misc/lv_area.h ****     LV_ALIGN_OUT_BOTTOM_RIGHT,
  79:Middlewares/lvgl/src/widgets/../core/../misc/../font/../misc/lv_area.h ****     LV_ALIGN_OUT_LEFT_TOP,
  80:Middlewares/lvgl/src/widgets/../core/../misc/../font/../misc/lv_area.h ****     LV_ALIGN_OUT_LEFT_MID,
  81:Middlewares/lvgl/src/widgets/../core/../misc/../font/../misc/lv_area.h ****     LV_ALIGN_OUT_LEFT_BOTTOM,
  82:Middlewares/lvgl/src/widgets/../core/../misc/../font/../misc/lv_area.h ****     LV_ALIGN_OUT_RIGHT_TOP,
  83:Middlewares/lvgl/src/widgets/../core/../misc/../font/../misc/lv_area.h ****     LV_ALIGN_OUT_RIGHT_MID,
  84:Middlewares/lvgl/src/widgets/../core/../misc/../font/../misc/lv_area.h ****     LV_ALIGN_OUT_RIGHT_BOTTOM,
  85:Middlewares/lvgl/src/widgets/../core/../misc/../font/../misc/lv_area.h **** };
  86:Middlewares/lvgl/src/widgets/../core/../misc/../font/../misc/lv_area.h **** typedef uint8_t lv_align_t;
  87:Middlewares/lvgl/src/widgets/../core/../misc/../font/../misc/lv_area.h **** 
  88:Middlewares/lvgl/src/widgets/../core/../misc/../font/../misc/lv_area.h **** enum {
  89:Middlewares/lvgl/src/widgets/../core/../misc/../font/../misc/lv_area.h ****     LV_DIR_NONE     = 0x00,
  90:Middlewares/lvgl/src/widgets/../core/../misc/../font/../misc/lv_area.h ****     LV_DIR_LEFT     = (1 << 0),
  91:Middlewares/lvgl/src/widgets/../core/../misc/../font/../misc/lv_area.h ****     LV_DIR_RIGHT    = (1 << 1),
  92:Middlewares/lvgl/src/widgets/../core/../misc/../font/../misc/lv_area.h ****     LV_DIR_TOP      = (1 << 2),
  93:Middlewares/lvgl/src/widgets/../core/../misc/../font/../misc/lv_area.h ****     LV_DIR_BOTTOM   = (1 << 3),
  94:Middlewares/lvgl/src/widgets/../core/../misc/../font/../misc/lv_area.h ****     LV_DIR_HOR      = LV_DIR_LEFT | LV_DIR_RIGHT,
  95:Middlewares/lvgl/src/widgets/../core/../misc/../font/../misc/lv_area.h ****     LV_DIR_VER      = LV_DIR_TOP | LV_DIR_BOTTOM,
  96:Middlewares/lvgl/src/widgets/../core/../misc/../font/../misc/lv_area.h ****     LV_DIR_ALL      = LV_DIR_HOR | LV_DIR_VER,
  97:Middlewares/lvgl/src/widgets/../core/../misc/../font/../misc/lv_area.h **** };
  98:Middlewares/lvgl/src/widgets/../core/../misc/../font/../misc/lv_area.h **** 
  99:Middlewares/lvgl/src/widgets/../core/../misc/../font/../misc/lv_area.h **** typedef uint8_t lv_dir_t;
 100:Middlewares/lvgl/src/widgets/../core/../misc/../font/../misc/lv_area.h **** 
 101:Middlewares/lvgl/src/widgets/../core/../misc/../font/../misc/lv_area.h **** /**********************
 102:Middlewares/lvgl/src/widgets/../core/../misc/../font/../misc/lv_area.h ****  * GLOBAL PROTOTYPES
 103:Middlewares/lvgl/src/widgets/../core/../misc/../font/../misc/lv_area.h ****  **********************/
 104:Middlewares/lvgl/src/widgets/../core/../misc/../font/../misc/lv_area.h **** 
 105:Middlewares/lvgl/src/widgets/../core/../misc/../font/../misc/lv_area.h **** /**
 106:Middlewares/lvgl/src/widgets/../core/../misc/../font/../misc/lv_area.h ****  * Initialize an area
 107:Middlewares/lvgl/src/widgets/../core/../misc/../font/../misc/lv_area.h ****  * @param area_p pointer to an area
 108:Middlewares/lvgl/src/widgets/../core/../misc/../font/../misc/lv_area.h ****  * @param x1 left coordinate of the area
 109:Middlewares/lvgl/src/widgets/../core/../misc/../font/../misc/lv_area.h ****  * @param y1 top coordinate of the area
 110:Middlewares/lvgl/src/widgets/../core/../misc/../font/../misc/lv_area.h ****  * @param x2 right coordinate of the area
 111:Middlewares/lvgl/src/widgets/../core/../misc/../font/../misc/lv_area.h ****  * @param y2 bottom coordinate of the area
 112:Middlewares/lvgl/src/widgets/../core/../misc/../font/../misc/lv_area.h ****  */
 113:Middlewares/lvgl/src/widgets/../core/../misc/../font/../misc/lv_area.h **** void lv_area_set(lv_area_t * area_p, lv_coord_t x1, lv_coord_t y1, lv_coord_t x2, lv_coord_t y2);
 114:Middlewares/lvgl/src/widgets/../core/../misc/../font/../misc/lv_area.h **** 
 115:Middlewares/lvgl/src/widgets/../core/../misc/../font/../misc/lv_area.h **** /**
 116:Middlewares/lvgl/src/widgets/../core/../misc/../font/../misc/lv_area.h ****  * Copy an area
 117:Middlewares/lvgl/src/widgets/../core/../misc/../font/../misc/lv_area.h ****  * @param dest pointer to the destination area
 118:Middlewares/lvgl/src/widgets/../core/../misc/../font/../misc/lv_area.h ****  * @param src pointer to the source area
 119:Middlewares/lvgl/src/widgets/../core/../misc/../font/../misc/lv_area.h ****  */
 120:Middlewares/lvgl/src/widgets/../core/../misc/../font/../misc/lv_area.h **** inline static void lv_area_copy(lv_area_t * dest, const lv_area_t * src)
 576              		.loc 3 120 20 view .LVU193
 577              	.LBB95:
 121:Middlewares/lvgl/src/widgets/../core/../misc/../font/../misc/lv_area.h **** {
 122:Middlewares/lvgl/src/widgets/../core/../misc/../font/../misc/lv_area.h ****     dest->x1 = src->x1;
 578              		.loc 3 122 5 view .LVU194
ARM GAS  /tmp/cc6jSqZn.s 			page 34


 579              		.loc 3 122 14 is_stmt 0 view .LVU195
 580 0236 ADF83880 		strh	r8, [sp, #56]	@ movhi
 123:Middlewares/lvgl/src/widgets/../core/../misc/../font/../misc/lv_area.h ****     dest->y1 = src->y1;
 581              		.loc 3 123 5 is_stmt 1 view .LVU196
 582              		.loc 3 123 14 is_stmt 0 view .LVU197
 583 023a ADF83A70 		strh	r7, [sp, #58]	@ movhi
 124:Middlewares/lvgl/src/widgets/../core/../misc/../font/../misc/lv_area.h ****     dest->x2 = src->x2;
 584              		.loc 3 124 5 is_stmt 1 view .LVU198
 585              		.loc 3 124 19 is_stmt 0 view .LVU199
 586 023e B4F918A0 		ldrsh	r10, [r4, #24]
 587              		.loc 3 124 14 view .LVU200
 588 0242 ADF83CA0 		strh	r10, [sp, #60]	@ movhi
 125:Middlewares/lvgl/src/widgets/../core/../misc/../font/../misc/lv_area.h ****     dest->y2 = src->y2;
 589              		.loc 3 125 5 is_stmt 1 view .LVU201
 590              		.loc 3 125 19 is_stmt 0 view .LVU202
 591 0246 B4F91A90 		ldrsh	r9, [r4, #26]
 592              		.loc 3 125 14 view .LVU203
 593 024a ADF83E90 		strh	r9, [sp, #62]	@ movhi
 594              	.LVL59:
 595              		.loc 3 125 14 view .LVU204
 596              	.LBE95:
 597              	.LBE94:
 578:Middlewares/lvgl/src/widgets/lv_img.c **** 
 598              		.loc 1 578 9 is_stmt 1 view .LVU205
 599 024e 04F11403 		add	r3, r4, #20
 600 0252 0893     		str	r3, [sp, #32]
 601              	.LVL60:
 602              	.LBB96:
 603              	.LBI96:
 120:Middlewares/lvgl/src/widgets/../core/../misc/../font/../misc/lv_area.h **** {
 604              		.loc 3 120 20 view .LVU206
 605              	.LBB97:
 122:Middlewares/lvgl/src/widgets/../core/../misc/../font/../misc/lv_area.h ****     dest->y1 = src->y1;
 606              		.loc 3 122 5 view .LVU207
 122:Middlewares/lvgl/src/widgets/../core/../misc/../font/../misc/lv_area.h ****     dest->y1 = src->y1;
 607              		.loc 3 122 14 is_stmt 0 view .LVU208
 608 0254 A082     		strh	r0, [r4, #20]	@ movhi
 123:Middlewares/lvgl/src/widgets/../core/../misc/../font/../misc/lv_area.h ****     dest->x2 = src->x2;
 609              		.loc 3 123 5 is_stmt 1 view .LVU209
 123:Middlewares/lvgl/src/widgets/../core/../misc/../font/../misc/lv_area.h ****     dest->x2 = src->x2;
 610              		.loc 3 123 14 is_stmt 0 view .LVU210
 611 0256 E182     		strh	r1, [r4, #22]	@ movhi
 124:Middlewares/lvgl/src/widgets/../core/../misc/../font/../misc/lv_area.h ****     dest->y2 = src->y2;
 612              		.loc 3 124 5 is_stmt 1 view .LVU211
 124:Middlewares/lvgl/src/widgets/../core/../misc/../font/../misc/lv_area.h ****     dest->y2 = src->y2;
 613              		.loc 3 124 14 is_stmt 0 view .LVU212
 614 0258 2283     		strh	r2, [r4, #24]	@ movhi
 615              		.loc 3 125 5 is_stmt 1 view .LVU213
 616              		.loc 3 125 14 is_stmt 0 view .LVU214
 617 025a A4F81AC0 		strh	ip, [r4, #26]	@ movhi
 618              	.LVL61:
 619              		.loc 3 125 14 view .LVU215
 620              	.LBE97:
 621              	.LBE96:
 580:Middlewares/lvgl/src/widgets/lv_img.c ****         if(res != LV_RES_OK) return;
 622              		.loc 1 580 9 is_stmt 1 view .LVU216
 580:Middlewares/lvgl/src/widgets/lv_img.c ****         if(res != LV_RES_OK) return;
ARM GAS  /tmp/cc6jSqZn.s 			page 35


 623              		.loc 1 580 24 is_stmt 0 view .LVU217
 624 025e 3146     		mov	r1, r6
 625 0260 7A48     		ldr	r0, .L30
 626 0262 FFF7FEFF 		bl	lv_obj_event_base
 627              	.LVL62:
 581:Middlewares/lvgl/src/widgets/lv_img.c **** 
 628              		.loc 1 581 9 is_stmt 1 view .LVU218
 581:Middlewares/lvgl/src/widgets/lv_img.c **** 
 629              		.loc 1 581 11 is_stmt 0 view .LVU219
 630 0266 0128     		cmp	r0, #1
 631 0268 7FF4DDAE 		bne	.L1
 583:Middlewares/lvgl/src/widgets/lv_img.c **** 
 632              		.loc 1 583 9 is_stmt 1 view .LVU220
 633              	.LVL63:
 634              	.LBB98:
 635              	.LBI98:
 120:Middlewares/lvgl/src/widgets/../core/../misc/../font/../misc/lv_area.h **** {
 636              		.loc 3 120 20 view .LVU221
 637              	.LBB99:
 122:Middlewares/lvgl/src/widgets/../core/../misc/../font/../misc/lv_area.h ****     dest->y1 = src->y1;
 638              		.loc 3 122 5 view .LVU222
 122:Middlewares/lvgl/src/widgets/../core/../misc/../font/../misc/lv_area.h ****     dest->y1 = src->y1;
 639              		.loc 3 122 14 is_stmt 0 view .LVU223
 640 026c A4F81480 		strh	r8, [r4, #20]	@ movhi
 123:Middlewares/lvgl/src/widgets/../core/../misc/../font/../misc/lv_area.h ****     dest->x2 = src->x2;
 641              		.loc 3 123 5 is_stmt 1 view .LVU224
 123:Middlewares/lvgl/src/widgets/../core/../misc/../font/../misc/lv_area.h ****     dest->x2 = src->x2;
 642              		.loc 3 123 14 is_stmt 0 view .LVU225
 643 0270 E782     		strh	r7, [r4, #22]	@ movhi
 124:Middlewares/lvgl/src/widgets/../core/../misc/../font/../misc/lv_area.h ****     dest->y2 = src->y2;
 644              		.loc 3 124 5 is_stmt 1 view .LVU226
 124:Middlewares/lvgl/src/widgets/../core/../misc/../font/../misc/lv_area.h ****     dest->y2 = src->y2;
 645              		.loc 3 124 14 is_stmt 0 view .LVU227
 646 0272 A4F818A0 		strh	r10, [r4, #24]	@ movhi
 647              		.loc 3 125 5 is_stmt 1 view .LVU228
 648              		.loc 3 125 14 is_stmt 0 view .LVU229
 649 0276 A4F81A90 		strh	r9, [r4, #26]	@ movhi
 650              	.LVL64:
 651              		.loc 3 125 14 view .LVU230
 652              	.LBE99:
 653              	.LBE98:
 585:Middlewares/lvgl/src/widgets/lv_img.c ****             if(img->h == 0 || img->w == 0) return;
 654              		.loc 1 585 9 is_stmt 1 view .LVU231
 585:Middlewares/lvgl/src/widgets/lv_img.c ****             if(img->h == 0 || img->w == 0) return;
 655              		.loc 1 585 11 is_stmt 0 view .LVU232
 656 027a 152D     		cmp	r5, #21
 657 027c 7FF4D3AE 		bne	.L1
 658              	.LBB100:
 586:Middlewares/lvgl/src/widgets/lv_img.c ****             if(zoom_final == 0) return;
 659              		.loc 1 586 13 is_stmt 1 view .LVU233
 586:Middlewares/lvgl/src/widgets/lv_img.c ****             if(zoom_final == 0) return;
 660              		.loc 1 586 19 is_stmt 0 view .LVU234
 661 0280 B4F92E30 		ldrsh	r3, [r4, #46]
 586:Middlewares/lvgl/src/widgets/lv_img.c ****             if(zoom_final == 0) return;
 662              		.loc 1 586 15 view .LVU235
 663 0284 002B     		cmp	r3, #0
 664 0286 3FF4CEAE 		beq	.L1
ARM GAS  /tmp/cc6jSqZn.s 			page 36


 586:Middlewares/lvgl/src/widgets/lv_img.c ****             if(zoom_final == 0) return;
 665              		.loc 1 586 34 discriminator 2 view .LVU236
 666 028a B4F92C30 		ldrsh	r3, [r4, #44]
 586:Middlewares/lvgl/src/widgets/lv_img.c ****             if(zoom_final == 0) return;
 667              		.loc 1 586 28 discriminator 2 view .LVU237
 668 028e 002B     		cmp	r3, #0
 669 0290 3FF4C9AE 		beq	.L1
 587:Middlewares/lvgl/src/widgets/lv_img.c **** 
 670              		.loc 1 587 13 is_stmt 1 view .LVU238
 587:Middlewares/lvgl/src/widgets/lv_img.c **** 
 671              		.loc 1 587 15 is_stmt 0 view .LVU239
 672 0294 039B     		ldr	r3, [sp, #12]
 673 0296 002B     		cmp	r3, #0
 674 0298 3FF4C5AE 		beq	.L1
 589:Middlewares/lvgl/src/widgets/lv_img.c **** 
 675              		.loc 1 589 13 is_stmt 1 view .LVU240
 589:Middlewares/lvgl/src/widgets/lv_img.c **** 
 676              		.loc 1 589 43 is_stmt 0 view .LVU241
 677 029c 3046     		mov	r0, r6
 678              	.LVL65:
 589:Middlewares/lvgl/src/widgets/lv_img.c **** 
 679              		.loc 1 589 43 view .LVU242
 680 029e FFF7FEFF 		bl	lv_event_get_param
 681              	.LVL66:
 682 02a2 0390     		str	r0, [sp, #12]
 683              	.LVL67:
 591:Middlewares/lvgl/src/widgets/lv_img.c ****             lv_area_copy(&img_max_area, &obj->coords);
 684              		.loc 1 591 13 is_stmt 1 view .LVU243
 592:Middlewares/lvgl/src/widgets/lv_img.c ****             img_max_area.x1 += pleft;
 685              		.loc 1 592 13 view .LVU244
 686              	.LBB101:
 687              	.LBI101:
 120:Middlewares/lvgl/src/widgets/../core/../misc/../font/../misc/lv_area.h **** {
 688              		.loc 3 120 20 view .LVU245
 689              	.LBB102:
 122:Middlewares/lvgl/src/widgets/../core/../misc/../font/../misc/lv_area.h ****     dest->y1 = src->y1;
 690              		.loc 3 122 5 view .LVU246
 122:Middlewares/lvgl/src/widgets/../core/../misc/../font/../misc/lv_area.h ****     dest->y1 = src->y1;
 691              		.loc 3 122 19 is_stmt 0 view .LVU247
 692 02a4 B4F91470 		ldrsh	r7, [r4, #20]
 122:Middlewares/lvgl/src/widgets/../core/../misc/../font/../misc/lv_area.h ****     dest->y1 = src->y1;
 693              		.loc 3 122 14 view .LVU248
 694 02a8 ADF84070 		strh	r7, [sp, #64]	@ movhi
 123:Middlewares/lvgl/src/widgets/../core/../misc/../font/../misc/lv_area.h ****     dest->x2 = src->x2;
 695              		.loc 3 123 5 is_stmt 1 view .LVU249
 123:Middlewares/lvgl/src/widgets/../core/../misc/../font/../misc/lv_area.h ****     dest->x2 = src->x2;
 696              		.loc 3 123 19 is_stmt 0 view .LVU250
 697 02ac B4F91690 		ldrsh	r9, [r4, #22]
 123:Middlewares/lvgl/src/widgets/../core/../misc/../font/../misc/lv_area.h ****     dest->x2 = src->x2;
 698              		.loc 3 123 14 view .LVU251
 699 02b0 ADF84290 		strh	r9, [sp, #66]	@ movhi
 124:Middlewares/lvgl/src/widgets/../core/../misc/../font/../misc/lv_area.h ****     dest->y2 = src->y2;
 700              		.loc 3 124 5 is_stmt 1 view .LVU252
 124:Middlewares/lvgl/src/widgets/../core/../misc/../font/../misc/lv_area.h ****     dest->y2 = src->y2;
 701              		.loc 3 124 19 is_stmt 0 view .LVU253
 702 02b4 B4F91820 		ldrsh	r2, [r4, #24]
 124:Middlewares/lvgl/src/widgets/../core/../misc/../font/../misc/lv_area.h ****     dest->y2 = src->y2;
ARM GAS  /tmp/cc6jSqZn.s 			page 37


 703              		.loc 3 124 14 view .LVU254
 704 02b8 ADF84420 		strh	r2, [sp, #68]	@ movhi
 705              		.loc 3 125 5 is_stmt 1 view .LVU255
 706              		.loc 3 125 19 is_stmt 0 view .LVU256
 707 02bc B4F91A30 		ldrsh	r3, [r4, #26]
 708              		.loc 3 125 14 view .LVU257
 709 02c0 ADF84630 		strh	r3, [sp, #70]	@ movhi
 710              	.LVL68:
 711              		.loc 3 125 14 view .LVU258
 712              	.LBE102:
 713              	.LBE101:
 593:Middlewares/lvgl/src/widgets/lv_img.c ****             img_max_area.y1 += ptop;
 714              		.loc 1 593 13 is_stmt 1 view .LVU259
 593:Middlewares/lvgl/src/widgets/lv_img.c ****             img_max_area.y1 += ptop;
 715              		.loc 1 593 29 is_stmt 0 view .LVU260
 716 02c4 0499     		ldr	r1, [sp, #16]
 717 02c6 0F44     		add	r7, r7, r1
 718 02c8 1FFA87F8 		uxth	r8, r7
 719 02cc 3FB2     		sxth	r7, r7
 720 02ce ADF84070 		strh	r7, [sp, #64]	@ movhi
 594:Middlewares/lvgl/src/widgets/lv_img.c ****             img_max_area.x2 -= pright;
 721              		.loc 1 594 13 is_stmt 1 view .LVU261
 594:Middlewares/lvgl/src/widgets/lv_img.c ****             img_max_area.x2 -= pright;
 722              		.loc 1 594 29 is_stmt 0 view .LVU262
 723 02d2 D944     		add	r9, r9, fp
 724 02d4 1FFA89FA 		uxth	r10, r9
 725 02d8 0FFA89F9 		sxth	r9, r9
 726 02dc ADF84290 		strh	r9, [sp, #66]	@ movhi
 595:Middlewares/lvgl/src/widgets/lv_img.c ****             img_max_area.y2 -= pbottom;
 727              		.loc 1 595 13 is_stmt 1 view .LVU263
 595:Middlewares/lvgl/src/widgets/lv_img.c ****             img_max_area.y2 -= pbottom;
 728              		.loc 1 595 29 is_stmt 0 view .LVU264
 729 02e0 0699     		ldr	r1, [sp, #24]
 730 02e2 521A     		subs	r2, r2, r1
 731 02e4 15B2     		sxth	r5, r2
 732              	.LVL69:
 595:Middlewares/lvgl/src/widgets/lv_img.c ****             img_max_area.y2 -= pbottom;
 733              		.loc 1 595 29 view .LVU265
 734 02e6 ADF84450 		strh	r5, [sp, #68]	@ movhi
 596:Middlewares/lvgl/src/widgets/lv_img.c **** 
 735              		.loc 1 596 13 is_stmt 1 view .LVU266
 596:Middlewares/lvgl/src/widgets/lv_img.c **** 
 736              		.loc 1 596 29 is_stmt 0 view .LVU267
 737 02ea 079A     		ldr	r2, [sp, #28]
 738 02ec 9B1A     		subs	r3, r3, r2
 739 02ee 1EB2     		sxth	r6, r3
 740              	.LVL70:
 596:Middlewares/lvgl/src/widgets/lv_img.c **** 
 741              		.loc 1 596 29 view .LVU268
 742 02f0 ADF84660 		strh	r6, [sp, #70]	@ movhi
 598:Middlewares/lvgl/src/widgets/lv_img.c ****                 lv_draw_img_dsc_t img_dsc;
 743              		.loc 1 598 13 is_stmt 1 view .LVU269
 598:Middlewares/lvgl/src/widgets/lv_img.c ****                 lv_draw_img_dsc_t img_dsc;
 744              		.loc 1 598 30 is_stmt 0 view .LVU270
 745 02f4 94F83830 		ldrb	r3, [r4, #56]	@ zero_extendqisi2
 598:Middlewares/lvgl/src/widgets/lv_img.c ****                 lv_draw_img_dsc_t img_dsc;
 746              		.loc 1 598 15 view .LVU271
ARM GAS  /tmp/cc6jSqZn.s 			page 38


 747 02f8 13F0020F 		tst	r3, #2
 748 02fc 0BD0     		beq	.L27
 632:Middlewares/lvgl/src/widgets/lv_img.c ****                 lv_draw_label_dsc_t label_dsc;
 749              		.loc 1 632 18 is_stmt 1 view .LVU272
 632:Middlewares/lvgl/src/widgets/lv_img.c ****                 lv_draw_label_dsc_t label_dsc;
 750              		.loc 1 632 35 is_stmt 0 view .LVU273
 751 02fe 03F00303 		and	r3, r3, #3
 632:Middlewares/lvgl/src/widgets/lv_img.c ****                 lv_draw_label_dsc_t label_dsc;
 752              		.loc 1 632 20 view .LVU274
 753 0302 022B     		cmp	r3, #2
 754 0304 00F09180 		beq	.L28
 641:Middlewares/lvgl/src/widgets/lv_img.c ****                 lv_draw_img(&obj->coords, clip_area, NULL, NULL);
 755              		.loc 1 641 70 is_stmt 1 view .LVU275
 642:Middlewares/lvgl/src/widgets/lv_img.c ****             }
 756              		.loc 1 642 17 view .LVU276
 757 0308 0023     		movs	r3, #0
 758 030a 1A46     		mov	r2, r3
 759 030c 0399     		ldr	r1, [sp, #12]
 760 030e 0898     		ldr	r0, [sp, #32]
 761              	.LVL71:
 642:Middlewares/lvgl/src/widgets/lv_img.c ****             }
 762              		.loc 1 642 17 is_stmt 0 view .LVU277
 763 0310 FFF7FEFF 		bl	lv_draw_img
 764              	.LVL72:
 642:Middlewares/lvgl/src/widgets/lv_img.c ****             }
 765              		.loc 1 642 17 view .LVU278
 766 0314 87E6     		b	.L1
 767              	.LVL73:
 768              	.L27:
 769              	.LBB103:
 599:Middlewares/lvgl/src/widgets/lv_img.c ****                 lv_draw_img_dsc_init(&img_dsc);
 770              		.loc 1 599 17 is_stmt 1 view .LVU279
 600:Middlewares/lvgl/src/widgets/lv_img.c ****                 lv_obj_init_draw_img_dsc(obj, LV_PART_MAIN, &img_dsc);
 771              		.loc 1 600 17 view .LVU280
 772 0316 16A8     		add	r0, sp, #88
 773              	.LVL74:
 600:Middlewares/lvgl/src/widgets/lv_img.c ****                 lv_obj_init_draw_img_dsc(obj, LV_PART_MAIN, &img_dsc);
 774              		.loc 1 600 17 is_stmt 0 view .LVU281
 775 0318 FFF7FEFF 		bl	lv_draw_img_dsc_init
 776              	.LVL75:
 601:Middlewares/lvgl/src/widgets/lv_img.c **** 
 777              		.loc 1 601 17 is_stmt 1 view .LVU282
 778 031c 16AA     		add	r2, sp, #88
 779 031e 0021     		movs	r1, #0
 780 0320 2046     		mov	r0, r4
 781 0322 FFF7FEFF 		bl	lv_obj_init_draw_img_dsc
 782              	.LVL76:
 603:Middlewares/lvgl/src/widgets/lv_img.c ****                 img_dsc.angle = angle_final;
 783              		.loc 1 603 17 view .LVU283
 603:Middlewares/lvgl/src/widgets/lv_img.c ****                 img_dsc.angle = angle_final;
 784              		.loc 1 603 30 is_stmt 0 view .LVU284
 785 0326 099B     		ldr	r3, [sp, #36]
 786 0328 ADF85A30 		strh	r3, [sp, #90]	@ movhi
 604:Middlewares/lvgl/src/widgets/lv_img.c ****                 img_dsc.pivot.x = img->pivot.x;
 787              		.loc 1 604 17 is_stmt 1 view .LVU285
 604:Middlewares/lvgl/src/widgets/lv_img.c ****                 img_dsc.pivot.x = img->pivot.x;
 788              		.loc 1 604 31 is_stmt 0 view .LVU286
ARM GAS  /tmp/cc6jSqZn.s 			page 39


 789 032c 059B     		ldr	r3, [sp, #20]
 790 032e ADF85830 		strh	r3, [sp, #88]	@ movhi
 605:Middlewares/lvgl/src/widgets/lv_img.c ****                 img_dsc.pivot.y = img->pivot.y;
 791              		.loc 1 605 17 is_stmt 1 view .LVU287
 605:Middlewares/lvgl/src/widgets/lv_img.c ****                 img_dsc.pivot.y = img->pivot.y;
 792              		.loc 1 605 45 is_stmt 0 view .LVU288
 793 0332 B4F93230 		ldrsh	r3, [r4, #50]
 605:Middlewares/lvgl/src/widgets/lv_img.c ****                 img_dsc.pivot.y = img->pivot.y;
 794              		.loc 1 605 33 view .LVU289
 795 0336 ADF85C30 		strh	r3, [sp, #92]	@ movhi
 606:Middlewares/lvgl/src/widgets/lv_img.c ****                 img_dsc.antialias = img->antialias;
 796              		.loc 1 606 17 is_stmt 1 view .LVU290
 606:Middlewares/lvgl/src/widgets/lv_img.c ****                 img_dsc.antialias = img->antialias;
 797              		.loc 1 606 45 is_stmt 0 view .LVU291
 798 033a B4F93430 		ldrsh	r3, [r4, #52]
 606:Middlewares/lvgl/src/widgets/lv_img.c ****                 img_dsc.antialias = img->antialias;
 799              		.loc 1 606 33 view .LVU292
 800 033e ADF85E30 		strh	r3, [sp, #94]	@ movhi
 607:Middlewares/lvgl/src/widgets/lv_img.c **** 
 801              		.loc 1 607 17 is_stmt 1 view .LVU293
 607:Middlewares/lvgl/src/widgets/lv_img.c **** 
 802              		.loc 1 607 40 is_stmt 0 view .LVU294
 803 0342 94F83830 		ldrb	r3, [r4, #56]	@ zero_extendqisi2
 804 0346 DB09     		lsrs	r3, r3, #7
 607:Middlewares/lvgl/src/widgets/lv_img.c **** 
 805              		.loc 1 607 35 view .LVU295
 806 0348 9DF86C20 		ldrb	r2, [sp, #108]	@ zero_extendqisi2
 807 034c 63F30002 		bfi	r2, r3, #0, #1
 808 0350 8DF86C20 		strb	r2, [sp, #108]
 609:Middlewares/lvgl/src/widgets/lv_img.c ****                 img_clip_area.x1 = bg_coords.x1 + pleft;
 809              		.loc 1 609 17 is_stmt 1 view .LVU296
 610:Middlewares/lvgl/src/widgets/lv_img.c ****                 img_clip_area.y1 = bg_coords.y1 + ptop;
 810              		.loc 1 610 17 view .LVU297
 610:Middlewares/lvgl/src/widgets/lv_img.c ****                 img_clip_area.y1 = bg_coords.y1 + ptop;
 811              		.loc 1 610 45 is_stmt 0 view .LVU298
 812 0354 BDF83030 		ldrh	r3, [sp, #48]
 610:Middlewares/lvgl/src/widgets/lv_img.c ****                 img_clip_area.y1 = bg_coords.y1 + ptop;
 813              		.loc 1 610 49 view .LVU299
 814 0358 049A     		ldr	r2, [sp, #16]
 815 035a 1A44     		add	r2, r2, r3
 610:Middlewares/lvgl/src/widgets/lv_img.c ****                 img_clip_area.y1 = bg_coords.y1 + ptop;
 816              		.loc 1 610 34 view .LVU300
 817 035c ADF84820 		strh	r2, [sp, #72]	@ movhi
 611:Middlewares/lvgl/src/widgets/lv_img.c ****                 img_clip_area.x2 = bg_coords.x2 - pright;
 818              		.loc 1 611 17 is_stmt 1 view .LVU301
 611:Middlewares/lvgl/src/widgets/lv_img.c ****                 img_clip_area.x2 = bg_coords.x2 - pright;
 819              		.loc 1 611 45 is_stmt 0 view .LVU302
 820 0360 BDF83230 		ldrh	r3, [sp, #50]
 611:Middlewares/lvgl/src/widgets/lv_img.c ****                 img_clip_area.x2 = bg_coords.x2 - pright;
 821              		.loc 1 611 49 view .LVU303
 822 0364 5B44     		add	r3, r3, fp
 611:Middlewares/lvgl/src/widgets/lv_img.c ****                 img_clip_area.x2 = bg_coords.x2 - pright;
 823              		.loc 1 611 34 view .LVU304
 824 0366 ADF84A30 		strh	r3, [sp, #74]	@ movhi
 612:Middlewares/lvgl/src/widgets/lv_img.c ****                 img_clip_area.y2 = bg_coords.y2 - pbottom;
 825              		.loc 1 612 17 is_stmt 1 view .LVU305
 612:Middlewares/lvgl/src/widgets/lv_img.c ****                 img_clip_area.y2 = bg_coords.y2 - pbottom;
ARM GAS  /tmp/cc6jSqZn.s 			page 40


 826              		.loc 1 612 45 is_stmt 0 view .LVU306
 827 036a BDF83430 		ldrh	r3, [sp, #52]
 612:Middlewares/lvgl/src/widgets/lv_img.c ****                 img_clip_area.y2 = bg_coords.y2 - pbottom;
 828              		.loc 1 612 49 view .LVU307
 829 036e 069A     		ldr	r2, [sp, #24]
 830 0370 9B1A     		subs	r3, r3, r2
 612:Middlewares/lvgl/src/widgets/lv_img.c ****                 img_clip_area.y2 = bg_coords.y2 - pbottom;
 831              		.loc 1 612 34 view .LVU308
 832 0372 ADF84C30 		strh	r3, [sp, #76]	@ movhi
 613:Middlewares/lvgl/src/widgets/lv_img.c **** 
 833              		.loc 1 613 17 is_stmt 1 view .LVU309
 613:Middlewares/lvgl/src/widgets/lv_img.c **** 
 834              		.loc 1 613 45 is_stmt 0 view .LVU310
 835 0376 BDF83630 		ldrh	r3, [sp, #54]
 613:Middlewares/lvgl/src/widgets/lv_img.c **** 
 836              		.loc 1 613 49 view .LVU311
 837 037a 079A     		ldr	r2, [sp, #28]
 838 037c 9B1A     		subs	r3, r3, r2
 613:Middlewares/lvgl/src/widgets/lv_img.c **** 
 839              		.loc 1 613 34 view .LVU312
 840 037e ADF84E30 		strh	r3, [sp, #78]	@ movhi
 615:Middlewares/lvgl/src/widgets/lv_img.c **** 
 841              		.loc 1 615 17 is_stmt 1 view .LVU313
 842 0382 12AA     		add	r2, sp, #72
 843 0384 0399     		ldr	r1, [sp, #12]
 844 0386 1046     		mov	r0, r2
 845 0388 FFF7FEFF 		bl	_lv_area_intersect
 846              	.LVL77:
 617:Middlewares/lvgl/src/widgets/lv_img.c ****                 coords_tmp.y1 = img_max_area.y1 + img->offset.y;
 847              		.loc 1 617 17 view .LVU314
 618:Middlewares/lvgl/src/widgets/lv_img.c ****                 if(coords_tmp.y1 > img_max_area.y1) coords_tmp.y1 -= img->h;
 848              		.loc 1 618 17 view .LVU315
 618:Middlewares/lvgl/src/widgets/lv_img.c ****                 if(coords_tmp.y1 > img_max_area.y1) coords_tmp.y1 -= img->h;
 849              		.loc 1 618 62 is_stmt 0 view .LVU316
 850 038c 638D     		ldrh	r3, [r4, #42]
 618:Middlewares/lvgl/src/widgets/lv_img.c ****                 if(coords_tmp.y1 > img_max_area.y1) coords_tmp.y1 -= img->h;
 851              		.loc 1 618 49 view .LVU317
 852 038e 5344     		add	r3, r3, r10
 853 0390 9AB2     		uxth	r2, r3
 854 0392 1BB2     		sxth	r3, r3
 618:Middlewares/lvgl/src/widgets/lv_img.c ****                 if(coords_tmp.y1 > img_max_area.y1) coords_tmp.y1 -= img->h;
 855              		.loc 1 618 31 view .LVU318
 856 0394 ADF85230 		strh	r3, [sp, #82]	@ movhi
 619:Middlewares/lvgl/src/widgets/lv_img.c ****                 coords_tmp.y2 = coords_tmp.y1 + img->h - 1;
 857              		.loc 1 619 17 is_stmt 1 view .LVU319
 619:Middlewares/lvgl/src/widgets/lv_img.c ****                 coords_tmp.y2 = coords_tmp.y1 + img->h - 1;
 858              		.loc 1 619 19 is_stmt 0 view .LVU320
 859 0398 9945     		cmp	r9, r3
 860 039a 03DA     		bge	.L15
 619:Middlewares/lvgl/src/widgets/lv_img.c ****                 coords_tmp.y2 = coords_tmp.y1 + img->h - 1;
 861              		.loc 1 619 53 is_stmt 1 discriminator 1 view .LVU321
 619:Middlewares/lvgl/src/widgets/lv_img.c ****                 coords_tmp.y2 = coords_tmp.y1 + img->h - 1;
 862              		.loc 1 619 73 is_stmt 0 discriminator 1 view .LVU322
 863 039c E38D     		ldrh	r3, [r4, #46]
 619:Middlewares/lvgl/src/widgets/lv_img.c ****                 coords_tmp.y2 = coords_tmp.y1 + img->h - 1;
 864              		.loc 1 619 67 discriminator 1 view .LVU323
 865 039e D21A     		subs	r2, r2, r3
ARM GAS  /tmp/cc6jSqZn.s 			page 41


 866 03a0 ADF85220 		strh	r2, [sp, #82]	@ movhi
 867              	.L15:
 620:Middlewares/lvgl/src/widgets/lv_img.c **** 
 868              		.loc 1 620 17 is_stmt 1 view .LVU324
 620:Middlewares/lvgl/src/widgets/lv_img.c **** 
 869              		.loc 1 620 43 is_stmt 0 view .LVU325
 870 03a4 BDF85230 		ldrh	r3, [sp, #82]
 620:Middlewares/lvgl/src/widgets/lv_img.c **** 
 871              		.loc 1 620 52 view .LVU326
 872 03a8 E28D     		ldrh	r2, [r4, #46]
 620:Middlewares/lvgl/src/widgets/lv_img.c **** 
 873              		.loc 1 620 47 view .LVU327
 874 03aa 1344     		add	r3, r3, r2
 875 03ac 9BB2     		uxth	r3, r3
 620:Middlewares/lvgl/src/widgets/lv_img.c **** 
 876              		.loc 1 620 56 view .LVU328
 877 03ae 013B     		subs	r3, r3, #1
 620:Middlewares/lvgl/src/widgets/lv_img.c **** 
 878              		.loc 1 620 31 view .LVU329
 879 03b0 ADF85630 		strh	r3, [sp, #86]	@ movhi
 622:Middlewares/lvgl/src/widgets/lv_img.c ****                     coords_tmp.x1 = img_max_area.x1 + img->offset.x;
 880              		.loc 1 622 17 is_stmt 1 view .LVU330
 881 03b4 0AE0     		b	.L16
 882              	.L29:
 622:Middlewares/lvgl/src/widgets/lv_img.c ****                     coords_tmp.x1 = img_max_area.x1 + img->offset.x;
 883              		.loc 1 622 56 view .LVU331
 622:Middlewares/lvgl/src/widgets/lv_img.c ****                     coords_tmp.x1 = img_max_area.x1 + img->offset.x;
 884              		.loc 1 622 76 is_stmt 0 view .LVU332
 885 03b6 E38D     		ldrh	r3, [r4, #46]
 622:Middlewares/lvgl/src/widgets/lv_img.c ****                     coords_tmp.x1 = img_max_area.x1 + img->offset.x;
 886              		.loc 1 622 70 view .LVU333
 887 03b8 BDF85220 		ldrh	r2, [sp, #82]
 888 03bc 1A44     		add	r2, r2, r3
 889 03be ADF85220 		strh	r2, [sp, #82]	@ movhi
 622:Middlewares/lvgl/src/widgets/lv_img.c ****                     coords_tmp.x1 = img_max_area.x1 + img->offset.x;
 890              		.loc 1 622 95 view .LVU334
 891 03c2 BDF85620 		ldrh	r2, [sp, #86]
 892 03c6 1344     		add	r3, r3, r2
 893 03c8 ADF85630 		strh	r3, [sp, #86]	@ movhi
 894              	.L16:
 622:Middlewares/lvgl/src/widgets/lv_img.c ****                     coords_tmp.x1 = img_max_area.x1 + img->offset.x;
 895              		.loc 1 622 23 is_stmt 1 discriminator 1 view .LVU335
 622:Middlewares/lvgl/src/widgets/lv_img.c ****                     coords_tmp.x1 = img_max_area.x1 + img->offset.x;
 896              		.loc 1 622 33 is_stmt 0 discriminator 1 view .LVU336
 897 03cc BDF95230 		ldrsh	r3, [sp, #82]
 622:Middlewares/lvgl/src/widgets/lv_img.c ****                     coords_tmp.x1 = img_max_area.x1 + img->offset.x;
 898              		.loc 1 622 17 discriminator 1 view .LVU337
 899 03d0 9E42     		cmp	r6, r3
 900 03d2 7FF728AE 		ble	.L1
 623:Middlewares/lvgl/src/widgets/lv_img.c ****                     if(coords_tmp.x1 > img_max_area.x1) coords_tmp.x1 -= img->w;
 901              		.loc 1 623 21 is_stmt 1 view .LVU338
 623:Middlewares/lvgl/src/widgets/lv_img.c ****                     if(coords_tmp.x1 > img_max_area.x1) coords_tmp.x1 -= img->w;
 902              		.loc 1 623 66 is_stmt 0 view .LVU339
 903 03d6 238D     		ldrh	r3, [r4, #40]
 623:Middlewares/lvgl/src/widgets/lv_img.c ****                     if(coords_tmp.x1 > img_max_area.x1) coords_tmp.x1 -= img->w;
 904              		.loc 1 623 53 view .LVU340
 905 03d8 4344     		add	r3, r3, r8
ARM GAS  /tmp/cc6jSqZn.s 			page 42


 906 03da 9AB2     		uxth	r2, r3
 907 03dc 1BB2     		sxth	r3, r3
 623:Middlewares/lvgl/src/widgets/lv_img.c ****                     if(coords_tmp.x1 > img_max_area.x1) coords_tmp.x1 -= img->w;
 908              		.loc 1 623 35 view .LVU341
 909 03de ADF85030 		strh	r3, [sp, #80]	@ movhi
 624:Middlewares/lvgl/src/widgets/lv_img.c ****                     coords_tmp.x2 = coords_tmp.x1 + img->w - 1;
 910              		.loc 1 624 21 is_stmt 1 view .LVU342
 624:Middlewares/lvgl/src/widgets/lv_img.c ****                     coords_tmp.x2 = coords_tmp.x1 + img->w - 1;
 911              		.loc 1 624 23 is_stmt 0 view .LVU343
 912 03e2 9F42     		cmp	r7, r3
 913 03e4 03DA     		bge	.L17
 624:Middlewares/lvgl/src/widgets/lv_img.c ****                     coords_tmp.x2 = coords_tmp.x1 + img->w - 1;
 914              		.loc 1 624 57 is_stmt 1 discriminator 1 view .LVU344
 624:Middlewares/lvgl/src/widgets/lv_img.c ****                     coords_tmp.x2 = coords_tmp.x1 + img->w - 1;
 915              		.loc 1 624 77 is_stmt 0 discriminator 1 view .LVU345
 916 03e6 A38D     		ldrh	r3, [r4, #44]
 624:Middlewares/lvgl/src/widgets/lv_img.c ****                     coords_tmp.x2 = coords_tmp.x1 + img->w - 1;
 917              		.loc 1 624 71 discriminator 1 view .LVU346
 918 03e8 D21A     		subs	r2, r2, r3
 919 03ea ADF85020 		strh	r2, [sp, #80]	@ movhi
 920              	.L17:
 625:Middlewares/lvgl/src/widgets/lv_img.c **** 
 921              		.loc 1 625 21 is_stmt 1 view .LVU347
 625:Middlewares/lvgl/src/widgets/lv_img.c **** 
 922              		.loc 1 625 47 is_stmt 0 view .LVU348
 923 03ee BDF85030 		ldrh	r3, [sp, #80]
 625:Middlewares/lvgl/src/widgets/lv_img.c **** 
 924              		.loc 1 625 56 view .LVU349
 925 03f2 A28D     		ldrh	r2, [r4, #44]
 625:Middlewares/lvgl/src/widgets/lv_img.c **** 
 926              		.loc 1 625 51 view .LVU350
 927 03f4 1344     		add	r3, r3, r2
 928 03f6 9BB2     		uxth	r3, r3
 625:Middlewares/lvgl/src/widgets/lv_img.c **** 
 929              		.loc 1 625 60 view .LVU351
 930 03f8 013B     		subs	r3, r3, #1
 625:Middlewares/lvgl/src/widgets/lv_img.c **** 
 931              		.loc 1 625 35 view .LVU352
 932 03fa ADF85430 		strh	r3, [sp, #84]	@ movhi
 627:Middlewares/lvgl/src/widgets/lv_img.c ****                         lv_draw_img(&coords_tmp, &img_clip_area, img->src, &img_dsc);
 933              		.loc 1 627 21 is_stmt 1 view .LVU353
 934              	.L18:
 627:Middlewares/lvgl/src/widgets/lv_img.c ****                         lv_draw_img(&coords_tmp, &img_clip_area, img->src, &img_dsc);
 935              		.loc 1 627 27 discriminator 1 view .LVU354
 627:Middlewares/lvgl/src/widgets/lv_img.c ****                         lv_draw_img(&coords_tmp, &img_clip_area, img->src, &img_dsc);
 936              		.loc 1 627 37 is_stmt 0 discriminator 1 view .LVU355
 937 03fe BDF95030 		ldrsh	r3, [sp, #80]
 627:Middlewares/lvgl/src/widgets/lv_img.c ****                         lv_draw_img(&coords_tmp, &img_clip_area, img->src, &img_dsc);
 938              		.loc 1 627 21 discriminator 1 view .LVU356
 939 0402 9D42     		cmp	r5, r3
 940 0404 D7DD     		ble	.L29
 628:Middlewares/lvgl/src/widgets/lv_img.c ****                     }
 941              		.loc 1 628 25 is_stmt 1 discriminator 2 view .LVU357
 942 0406 16AB     		add	r3, sp, #88
 943 0408 626A     		ldr	r2, [r4, #36]
 944 040a 12A9     		add	r1, sp, #72
 945 040c 14A8     		add	r0, sp, #80
ARM GAS  /tmp/cc6jSqZn.s 			page 43


 946 040e FFF7FEFF 		bl	lv_draw_img
 947              	.LVL78:
 627:Middlewares/lvgl/src/widgets/lv_img.c ****                         lv_draw_img(&coords_tmp, &img_clip_area, img->src, &img_dsc);
 948              		.loc 1 627 60 discriminator 2 view .LVU358
 627:Middlewares/lvgl/src/widgets/lv_img.c ****                         lv_draw_img(&coords_tmp, &img_clip_area, img->src, &img_dsc);
 949              		.loc 1 627 80 is_stmt 0 discriminator 2 view .LVU359
 950 0412 A38D     		ldrh	r3, [r4, #44]
 627:Middlewares/lvgl/src/widgets/lv_img.c ****                         lv_draw_img(&coords_tmp, &img_clip_area, img->src, &img_dsc);
 951              		.loc 1 627 74 discriminator 2 view .LVU360
 952 0414 BDF85020 		ldrh	r2, [sp, #80]
 953 0418 1A44     		add	r2, r2, r3
 954 041a ADF85020 		strh	r2, [sp, #80]	@ movhi
 627:Middlewares/lvgl/src/widgets/lv_img.c ****                         lv_draw_img(&coords_tmp, &img_clip_area, img->src, &img_dsc);
 955              		.loc 1 627 99 discriminator 2 view .LVU361
 956 041e BDF85420 		ldrh	r2, [sp, #84]
 957 0422 1344     		add	r3, r3, r2
 958 0424 ADF85430 		strh	r3, [sp, #84]	@ movhi
 959 0428 E9E7     		b	.L18
 960              	.LVL79:
 961              	.L28:
 627:Middlewares/lvgl/src/widgets/lv_img.c ****                         lv_draw_img(&coords_tmp, &img_clip_area, img->src, &img_dsc);
 962              		.loc 1 627 99 discriminator 2 view .LVU362
 963              	.LBE103:
 964              	.LBB104:
 633:Middlewares/lvgl/src/widgets/lv_img.c ****                 lv_draw_label_dsc_init(&label_dsc);
 965              		.loc 1 633 17 is_stmt 1 discriminator 4 view .LVU363
 634:Middlewares/lvgl/src/widgets/lv_img.c ****                 lv_obj_init_draw_label_dsc(obj, LV_PART_MAIN, &label_dsc);
 966              		.loc 1 634 17 discriminator 4 view .LVU364
 967 042a 16A8     		add	r0, sp, #88
 968              	.LVL80:
 634:Middlewares/lvgl/src/widgets/lv_img.c ****                 lv_obj_init_draw_label_dsc(obj, LV_PART_MAIN, &label_dsc);
 969              		.loc 1 634 17 is_stmt 0 discriminator 4 view .LVU365
 970 042c FFF7FEFF 		bl	lv_draw_label_dsc_init
 971              	.LVL81:
 635:Middlewares/lvgl/src/widgets/lv_img.c **** 
 972              		.loc 1 635 17 is_stmt 1 discriminator 4 view .LVU366
 973 0430 16AA     		add	r2, sp, #88
 974 0432 0021     		movs	r1, #0
 975 0434 2046     		mov	r0, r4
 976 0436 FFF7FEFF 		bl	lv_obj_init_draw_label_dsc
 977              	.LVL82:
 637:Middlewares/lvgl/src/widgets/lv_img.c ****             }
 978              		.loc 1 637 17 discriminator 4 view .LVU367
 637:Middlewares/lvgl/src/widgets/lv_img.c ****             }
 979              		.loc 1 637 71 is_stmt 0 discriminator 4 view .LVU368
 980 043a 636A     		ldr	r3, [r4, #36]
 637:Middlewares/lvgl/src/widgets/lv_img.c ****             }
 981              		.loc 1 637 17 discriminator 4 view .LVU369
 982 043c 0022     		movs	r2, #0
 983 043e 0092     		str	r2, [sp]
 984 0440 16AA     		add	r2, sp, #88
 985 0442 0399     		ldr	r1, [sp, #12]
 986 0444 0898     		ldr	r0, [sp, #32]
 987 0446 FFF7FEFF 		bl	lv_draw_label
 988              	.LVL83:
 989              	.LBE104:
 990 044a ECE5     		b	.L1
ARM GAS  /tmp/cc6jSqZn.s 			page 44


 991              	.L31:
 992              		.align	2
 993              	.L30:
 994 044c 00000000 		.word	.LANCHOR0
 995              	.LBE100:
 996              	.LBE79:
 997              		.cfi_endproc
 998              	.LFE165:
 1000              		.section	.text.lv_img_destructor,"ax",%progbits
 1001              		.align	1
 1002              		.syntax unified
 1003              		.thumb
 1004              		.thumb_func
 1005              		.fpu fpv4-sp-d16
 1007              	lv_img_destructor:
 1008              	.LVL84:
 1009              	.LFB163:
 392:Middlewares/lvgl/src/widgets/lv_img.c ****     LV_UNUSED(class_p);
 1010              		.loc 1 392 1 is_stmt 1 view -0
 1011              		.cfi_startproc
 1012              		@ args = 0, pretend = 0, frame = 0
 1013              		@ frame_needed = 0, uses_anonymous_args = 0
 393:Middlewares/lvgl/src/widgets/lv_img.c ****     lv_img_t * img = (lv_img_t *)obj;
 1014              		.loc 1 393 5 view .LVU371
 394:Middlewares/lvgl/src/widgets/lv_img.c ****     if(img->src_type == LV_IMG_SRC_FILE || img->src_type == LV_IMG_SRC_SYMBOL) {
 1015              		.loc 1 394 5 view .LVU372
 395:Middlewares/lvgl/src/widgets/lv_img.c ****         lv_mem_free((void*)img->src);
 1016              		.loc 1 395 5 view .LVU373
 395:Middlewares/lvgl/src/widgets/lv_img.c ****         lv_mem_free((void*)img->src);
 1017              		.loc 1 395 22 is_stmt 0 view .LVU374
 1018 0000 91F83830 		ldrb	r3, [r1, #56]	@ zero_extendqisi2
 395:Middlewares/lvgl/src/widgets/lv_img.c ****         lv_mem_free((void*)img->src);
 1019              		.loc 1 395 41 view .LVU375
 1020 0004 03F00303 		and	r3, r3, #3
 1021 0008 013B     		subs	r3, r3, #1
 1022 000a DBB2     		uxtb	r3, r3
 395:Middlewares/lvgl/src/widgets/lv_img.c ****         lv_mem_free((void*)img->src);
 1023              		.loc 1 395 7 view .LVU376
 1024 000c 012B     		cmp	r3, #1
 1025 000e 00D9     		bls	.L38
 1026 0010 7047     		bx	lr
 1027              	.L38:
 392:Middlewares/lvgl/src/widgets/lv_img.c ****     LV_UNUSED(class_p);
 1028              		.loc 1 392 1 view .LVU377
 1029 0012 10B5     		push	{r4, lr}
 1030              	.LCFI4:
 1031              		.cfi_def_cfa_offset 8
 1032              		.cfi_offset 4, -8
 1033              		.cfi_offset 14, -4
 1034 0014 0C46     		mov	r4, r1
 396:Middlewares/lvgl/src/widgets/lv_img.c ****         img->src      = NULL;
 1035              		.loc 1 396 9 is_stmt 1 view .LVU378
 1036 0016 486A     		ldr	r0, [r1, #36]
 1037              	.LVL85:
 396:Middlewares/lvgl/src/widgets/lv_img.c ****         img->src      = NULL;
 1038              		.loc 1 396 9 is_stmt 0 view .LVU379
 1039 0018 FFF7FEFF 		bl	lv_mem_free
ARM GAS  /tmp/cc6jSqZn.s 			page 45


 1040              	.LVL86:
 397:Middlewares/lvgl/src/widgets/lv_img.c ****         img->src_type = LV_IMG_SRC_UNKNOWN;
 1041              		.loc 1 397 9 is_stmt 1 view .LVU380
 397:Middlewares/lvgl/src/widgets/lv_img.c ****         img->src_type = LV_IMG_SRC_UNKNOWN;
 1042              		.loc 1 397 23 is_stmt 0 view .LVU381
 1043 001c 0023     		movs	r3, #0
 1044 001e 6362     		str	r3, [r4, #36]
 398:Middlewares/lvgl/src/widgets/lv_img.c ****     }
 1045              		.loc 1 398 9 is_stmt 1 view .LVU382
 398:Middlewares/lvgl/src/widgets/lv_img.c ****     }
 1046              		.loc 1 398 23 is_stmt 0 view .LVU383
 1047 0020 94F83830 		ldrb	r3, [r4, #56]	@ zero_extendqisi2
 1048 0024 43F00303 		orr	r3, r3, #3
 1049 0028 84F83830 		strb	r3, [r4, #56]
 400:Middlewares/lvgl/src/widgets/lv_img.c **** 
 1050              		.loc 1 400 1 view .LVU384
 1051 002c 10BD     		pop	{r4, pc}
 400:Middlewares/lvgl/src/widgets/lv_img.c **** 
 1052              		.loc 1 400 1 view .LVU385
 1053              		.cfi_endproc
 1054              	.LFE163:
 1056              		.section	.text.lv_img_constructor,"ax",%progbits
 1057              		.align	1
 1058              		.syntax unified
 1059              		.thumb
 1060              		.thumb_func
 1061              		.fpu fpv4-sp-d16
 1063              	lv_img_constructor:
 1064              	.LVL87:
 1065              	.LFB162:
 366:Middlewares/lvgl/src/widgets/lv_img.c ****     LV_UNUSED(class_p);
 1066              		.loc 1 366 1 is_stmt 1 view -0
 1067              		.cfi_startproc
 1068              		@ args = 0, pretend = 0, frame = 0
 1069              		@ frame_needed = 0, uses_anonymous_args = 0
 366:Middlewares/lvgl/src/widgets/lv_img.c ****     LV_UNUSED(class_p);
 1070              		.loc 1 366 1 is_stmt 0 view .LVU387
 1071 0000 38B5     		push	{r3, r4, r5, lr}
 1072              	.LCFI5:
 1073              		.cfi_def_cfa_offset 16
 1074              		.cfi_offset 3, -16
 1075              		.cfi_offset 4, -12
 1076              		.cfi_offset 5, -8
 1077              		.cfi_offset 14, -4
 1078 0002 0C46     		mov	r4, r1
 367:Middlewares/lvgl/src/widgets/lv_img.c ****     LV_TRACE_OBJ_CREATE("begin");
 1079              		.loc 1 367 5 is_stmt 1 view .LVU388
 368:Middlewares/lvgl/src/widgets/lv_img.c **** 
 1080              		.loc 1 368 33 view .LVU389
 370:Middlewares/lvgl/src/widgets/lv_img.c **** 
 1081              		.loc 1 370 5 view .LVU390
 1082              	.LVL88:
 372:Middlewares/lvgl/src/widgets/lv_img.c ****     img->src_type  = LV_IMG_SRC_UNKNOWN;
 1083              		.loc 1 372 5 view .LVU391
 372:Middlewares/lvgl/src/widgets/lv_img.c ****     img->src_type  = LV_IMG_SRC_UNKNOWN;
 1084              		.loc 1 372 20 is_stmt 0 view .LVU392
 1085 0004 0025     		movs	r5, #0
ARM GAS  /tmp/cc6jSqZn.s 			page 46


 1086 0006 4D62     		str	r5, [r1, #36]
 373:Middlewares/lvgl/src/widgets/lv_img.c ****     img->cf        = LV_IMG_CF_UNKNOWN;
 1087              		.loc 1 373 5 is_stmt 1 view .LVU393
 373:Middlewares/lvgl/src/widgets/lv_img.c ****     img->cf        = LV_IMG_CF_UNKNOWN;
 1088              		.loc 1 373 20 is_stmt 0 view .LVU394
 1089 0008 91F83830 		ldrb	r3, [r1, #56]	@ zero_extendqisi2
 1090 000c 43F00303 		orr	r3, r3, #3
 1091 0010 81F83830 		strb	r3, [r1, #56]
 374:Middlewares/lvgl/src/widgets/lv_img.c ****     img->w         = lv_obj_get_width(obj);
 1092              		.loc 1 374 5 is_stmt 1 view .LVU395
 374:Middlewares/lvgl/src/widgets/lv_img.c ****     img->w         = lv_obj_get_width(obj);
 1093              		.loc 1 374 20 is_stmt 0 view .LVU396
 1094 0014 DBB2     		uxtb	r3, r3
 1095 0016 65F38603 		bfi	r3, r5, #2, #5
 1096 001a 81F83830 		strb	r3, [r1, #56]
 375:Middlewares/lvgl/src/widgets/lv_img.c ****     img->h         = lv_obj_get_height(obj);
 1097              		.loc 1 375 5 is_stmt 1 view .LVU397
 375:Middlewares/lvgl/src/widgets/lv_img.c ****     img->h         = lv_obj_get_height(obj);
 1098              		.loc 1 375 22 is_stmt 0 view .LVU398
 1099 001e 0846     		mov	r0, r1
 1100              	.LVL89:
 375:Middlewares/lvgl/src/widgets/lv_img.c ****     img->h         = lv_obj_get_height(obj);
 1101              		.loc 1 375 22 view .LVU399
 1102 0020 FFF7FEFF 		bl	lv_obj_get_width
 1103              	.LVL90:
 375:Middlewares/lvgl/src/widgets/lv_img.c ****     img->h         = lv_obj_get_height(obj);
 1104              		.loc 1 375 20 view .LVU400
 1105 0024 A085     		strh	r0, [r4, #44]	@ movhi
 376:Middlewares/lvgl/src/widgets/lv_img.c ****     img->angle = 0;
 1106              		.loc 1 376 5 is_stmt 1 view .LVU401
 376:Middlewares/lvgl/src/widgets/lv_img.c ****     img->angle = 0;
 1107              		.loc 1 376 22 is_stmt 0 view .LVU402
 1108 0026 2046     		mov	r0, r4
 1109 0028 FFF7FEFF 		bl	lv_obj_get_height
 1110              	.LVL91:
 376:Middlewares/lvgl/src/widgets/lv_img.c ****     img->angle = 0;
 1111              		.loc 1 376 20 view .LVU403
 1112 002c E085     		strh	r0, [r4, #46]	@ movhi
 377:Middlewares/lvgl/src/widgets/lv_img.c ****     img->zoom = LV_IMG_ZOOM_NONE;
 1113              		.loc 1 377 5 is_stmt 1 view .LVU404
 377:Middlewares/lvgl/src/widgets/lv_img.c ****     img->zoom = LV_IMG_ZOOM_NONE;
 1114              		.loc 1 377 16 is_stmt 0 view .LVU405
 1115 002e 2586     		strh	r5, [r4, #48]	@ movhi
 378:Middlewares/lvgl/src/widgets/lv_img.c ****     img->antialias = LV_COLOR_DEPTH > 8 ? 1 : 0;
 1116              		.loc 1 378 5 is_stmt 1 view .LVU406
 378:Middlewares/lvgl/src/widgets/lv_img.c ****     img->antialias = LV_COLOR_DEPTH > 8 ? 1 : 0;
 1117              		.loc 1 378 15 is_stmt 0 view .LVU407
 1118 0030 4FF48073 		mov	r3, #256
 1119 0034 E386     		strh	r3, [r4, #54]	@ movhi
 379:Middlewares/lvgl/src/widgets/lv_img.c ****     img->offset.x  = 0;
 1120              		.loc 1 379 5 is_stmt 1 view .LVU408
 379:Middlewares/lvgl/src/widgets/lv_img.c ****     img->offset.x  = 0;
 1121              		.loc 1 379 20 is_stmt 0 view .LVU409
 1122 0036 94F83830 		ldrb	r3, [r4, #56]	@ zero_extendqisi2
 1123 003a 43F08003 		orr	r3, r3, #128
 1124 003e 84F83830 		strb	r3, [r4, #56]
 380:Middlewares/lvgl/src/widgets/lv_img.c ****     img->offset.y  = 0;
ARM GAS  /tmp/cc6jSqZn.s 			page 47


 1125              		.loc 1 380 5 is_stmt 1 view .LVU410
 380:Middlewares/lvgl/src/widgets/lv_img.c ****     img->offset.y  = 0;
 1126              		.loc 1 380 20 is_stmt 0 view .LVU411
 1127 0042 2585     		strh	r5, [r4, #40]	@ movhi
 381:Middlewares/lvgl/src/widgets/lv_img.c ****     img->pivot.x = 0;
 1128              		.loc 1 381 5 is_stmt 1 view .LVU412
 381:Middlewares/lvgl/src/widgets/lv_img.c ****     img->pivot.x = 0;
 1129              		.loc 1 381 20 is_stmt 0 view .LVU413
 1130 0044 6585     		strh	r5, [r4, #42]	@ movhi
 382:Middlewares/lvgl/src/widgets/lv_img.c ****     img->pivot.y = 0;
 1131              		.loc 1 382 5 is_stmt 1 view .LVU414
 382:Middlewares/lvgl/src/widgets/lv_img.c ****     img->pivot.y = 0;
 1132              		.loc 1 382 18 is_stmt 0 view .LVU415
 1133 0046 6586     		strh	r5, [r4, #50]	@ movhi
 383:Middlewares/lvgl/src/widgets/lv_img.c **** 
 1134              		.loc 1 383 5 is_stmt 1 view .LVU416
 383:Middlewares/lvgl/src/widgets/lv_img.c **** 
 1135              		.loc 1 383 18 is_stmt 0 view .LVU417
 1136 0048 A586     		strh	r5, [r4, #52]	@ movhi
 385:Middlewares/lvgl/src/widgets/lv_img.c ****     lv_obj_add_flag(obj, LV_OBJ_FLAG_ADV_HITTEST);
 1137              		.loc 1 385 5 is_stmt 1 view .LVU418
 1138 004a 0221     		movs	r1, #2
 1139 004c 2046     		mov	r0, r4
 1140 004e FFF7FEFF 		bl	lv_obj_clear_flag
 1141              	.LVL92:
 386:Middlewares/lvgl/src/widgets/lv_img.c **** 
 1142              		.loc 1 386 5 view .LVU419
 1143 0052 4FF48041 		mov	r1, #16384
 1144 0056 2046     		mov	r0, r4
 1145 0058 FFF7FEFF 		bl	lv_obj_add_flag
 1146              	.LVL93:
 388:Middlewares/lvgl/src/widgets/lv_img.c **** }
 1147              		.loc 1 388 36 view .LVU420
 389:Middlewares/lvgl/src/widgets/lv_img.c **** 
 1148              		.loc 1 389 1 is_stmt 0 view .LVU421
 1149 005c 38BD     		pop	{r3, r4, r5, pc}
 389:Middlewares/lvgl/src/widgets/lv_img.c **** 
 1150              		.loc 1 389 1 view .LVU422
 1151              		.cfi_endproc
 1152              	.LFE162:
 1154              		.section	.text.lv_img_create,"ax",%progbits
 1155              		.align	1
 1156              		.global	lv_img_create
 1157              		.syntax unified
 1158              		.thumb
 1159              		.thumb_func
 1160              		.fpu fpv4-sp-d16
 1162              	lv_img_create:
 1163              	.LVL94:
 1164              	.LFB147:
  58:Middlewares/lvgl/src/widgets/lv_img.c ****     LV_LOG_INFO("begin")
 1165              		.loc 1 58 1 is_stmt 1 view -0
 1166              		.cfi_startproc
 1167              		@ args = 0, pretend = 0, frame = 0
 1168              		@ frame_needed = 0, uses_anonymous_args = 0
  58:Middlewares/lvgl/src/widgets/lv_img.c ****     LV_LOG_INFO("begin")
 1169              		.loc 1 58 1 is_stmt 0 view .LVU424
ARM GAS  /tmp/cc6jSqZn.s 			page 48


 1170 0000 10B5     		push	{r4, lr}
 1171              	.LCFI6:
 1172              		.cfi_def_cfa_offset 8
 1173              		.cfi_offset 4, -8
 1174              		.cfi_offset 14, -4
 1175 0002 0146     		mov	r1, r0
  60:Middlewares/lvgl/src/widgets/lv_img.c ****     lv_obj_class_init_obj(obj);
 1176              		.loc 1 60 5 is_stmt 1 view .LVU425
  60:Middlewares/lvgl/src/widgets/lv_img.c ****     lv_obj_class_init_obj(obj);
 1177              		.loc 1 60 22 is_stmt 0 view .LVU426
 1178 0004 0348     		ldr	r0, .L43
 1179              	.LVL95:
  60:Middlewares/lvgl/src/widgets/lv_img.c ****     lv_obj_class_init_obj(obj);
 1180              		.loc 1 60 22 view .LVU427
 1181 0006 FFF7FEFF 		bl	lv_obj_class_create_obj
 1182              	.LVL96:
  60:Middlewares/lvgl/src/widgets/lv_img.c ****     lv_obj_class_init_obj(obj);
 1183              		.loc 1 60 22 view .LVU428
 1184 000a 0446     		mov	r4, r0
 1185              	.LVL97:
  61:Middlewares/lvgl/src/widgets/lv_img.c ****     return obj;
 1186              		.loc 1 61 5 is_stmt 1 view .LVU429
 1187 000c FFF7FEFF 		bl	lv_obj_class_init_obj
 1188              	.LVL98:
  62:Middlewares/lvgl/src/widgets/lv_img.c **** }
 1189              		.loc 1 62 5 view .LVU430
  63:Middlewares/lvgl/src/widgets/lv_img.c **** 
 1190              		.loc 1 63 1 is_stmt 0 view .LVU431
 1191 0010 2046     		mov	r0, r4
 1192 0012 10BD     		pop	{r4, pc}
 1193              	.LVL99:
 1194              	.L44:
  63:Middlewares/lvgl/src/widgets/lv_img.c **** 
 1195              		.loc 1 63 1 view .LVU432
 1196              		.align	2
 1197              	.L43:
 1198 0014 00000000 		.word	.LANCHOR0
 1199              		.cfi_endproc
 1200              	.LFE147:
 1202              		.section	.text.lv_img_set_src,"ax",%progbits
 1203              		.align	1
 1204              		.global	lv_img_set_src
 1205              		.syntax unified
 1206              		.thumb
 1207              		.thumb_func
 1208              		.fpu fpv4-sp-d16
 1210              	lv_img_set_src:
 1211              	.LVL100:
 1212              	.LFB148:
  70:Middlewares/lvgl/src/widgets/lv_img.c ****     LV_ASSERT_OBJ(obj, MY_CLASS);
 1213              		.loc 1 70 1 is_stmt 1 view -0
 1214              		.cfi_startproc
 1215              		@ args = 0, pretend = 0, frame = 8
 1216              		@ frame_needed = 0, uses_anonymous_args = 0
  70:Middlewares/lvgl/src/widgets/lv_img.c ****     LV_ASSERT_OBJ(obj, MY_CLASS);
 1217              		.loc 1 70 1 is_stmt 0 view .LVU434
 1218 0000 2DE9F041 		push	{r4, r5, r6, r7, r8, lr}
ARM GAS  /tmp/cc6jSqZn.s 			page 49


 1219              	.LCFI7:
 1220              		.cfi_def_cfa_offset 24
 1221              		.cfi_offset 4, -24
 1222              		.cfi_offset 5, -20
 1223              		.cfi_offset 6, -16
 1224              		.cfi_offset 7, -12
 1225              		.cfi_offset 8, -8
 1226              		.cfi_offset 14, -4
 1227 0004 86B0     		sub	sp, sp, #24
 1228              	.LCFI8:
 1229              		.cfi_def_cfa_offset 48
 1230 0006 0446     		mov	r4, r0
 1231 0008 0E46     		mov	r6, r1
  71:Middlewares/lvgl/src/widgets/lv_img.c **** 
 1232              		.loc 1 71 5 is_stmt 1 view .LVU435
  71:Middlewares/lvgl/src/widgets/lv_img.c **** 
 1233              		.loc 1 71 5 view .LVU436
  71:Middlewares/lvgl/src/widgets/lv_img.c **** 
 1234              		.loc 1 71 5 view .LVU437
  73:Middlewares/lvgl/src/widgets/lv_img.c **** 
 1235              		.loc 1 73 5 view .LVU438
 1236 000a FFF7FEFF 		bl	lv_obj_invalidate
 1237              	.LVL101:
  75:Middlewares/lvgl/src/widgets/lv_img.c ****     lv_img_t * img = (lv_img_t *)obj;
 1238              		.loc 1 75 5 view .LVU439
  75:Middlewares/lvgl/src/widgets/lv_img.c ****     lv_img_t * img = (lv_img_t *)obj;
 1239              		.loc 1 75 29 is_stmt 0 view .LVU440
 1240 000e 3046     		mov	r0, r6
 1241 0010 FFF7FEFF 		bl	lv_img_src_get_type
 1242              	.LVL102:
  76:Middlewares/lvgl/src/widgets/lv_img.c **** 
 1243              		.loc 1 76 5 is_stmt 1 view .LVU441
  95:Middlewares/lvgl/src/widgets/lv_img.c ****         LV_LOG_WARN("lv_img_set_src: unknown image type");
 1244              		.loc 1 95 5 view .LVU442
  95:Middlewares/lvgl/src/widgets/lv_img.c ****         LV_LOG_WARN("lv_img_set_src: unknown image type");
 1245              		.loc 1 95 7 is_stmt 0 view .LVU443
 1246 0014 0328     		cmp	r0, #3
 1247 0016 40D0     		beq	.L59
 1248 0018 0546     		mov	r5, r0
 105:Middlewares/lvgl/src/widgets/lv_img.c ****     lv_img_decoder_get_info(src, &header);
 1249              		.loc 1 105 5 is_stmt 1 view .LVU444
 106:Middlewares/lvgl/src/widgets/lv_img.c **** 
 1250              		.loc 1 106 5 view .LVU445
 1251 001a 05A9     		add	r1, sp, #20
 1252 001c 3046     		mov	r0, r6
 1253              	.LVL103:
 106:Middlewares/lvgl/src/widgets/lv_img.c **** 
 1254              		.loc 1 106 5 is_stmt 0 view .LVU446
 1255 001e FFF7FEFF 		bl	lv_img_decoder_get_info
 1256              	.LVL104:
 109:Middlewares/lvgl/src/widgets/lv_img.c ****         /*If memory was allocated because of the previous `src_type` then free it*/
 1257              		.loc 1 109 5 is_stmt 1 view .LVU447
 109:Middlewares/lvgl/src/widgets/lv_img.c ****         /*If memory was allocated because of the previous `src_type` then free it*/
 1258              		.loc 1 109 7 is_stmt 0 view .LVU448
 1259 0022 002D     		cmp	r5, #0
 1260 0024 52D1     		bne	.L49
 111:Middlewares/lvgl/src/widgets/lv_img.c ****             lv_mem_free((void*)img->src);
ARM GAS  /tmp/cc6jSqZn.s 			page 50


 1261              		.loc 1 111 9 is_stmt 1 view .LVU449
 111:Middlewares/lvgl/src/widgets/lv_img.c ****             lv_mem_free((void*)img->src);
 1262              		.loc 1 111 26 is_stmt 0 view .LVU450
 1263 0026 94F83830 		ldrb	r3, [r4, #56]	@ zero_extendqisi2
 111:Middlewares/lvgl/src/widgets/lv_img.c ****             lv_mem_free((void*)img->src);
 1264              		.loc 1 111 45 view .LVU451
 1265 002a 03F00303 		and	r3, r3, #3
 1266 002e 013B     		subs	r3, r3, #1
 1267 0030 DBB2     		uxtb	r3, r3
 111:Middlewares/lvgl/src/widgets/lv_img.c ****             lv_mem_free((void*)img->src);
 1268              		.loc 1 111 11 view .LVU452
 1269 0032 012B     		cmp	r3, #1
 1270 0034 46D9     		bls	.L60
 1271              	.L50:
 114:Middlewares/lvgl/src/widgets/lv_img.c ****     }
 1272              		.loc 1 114 9 is_stmt 1 view .LVU453
 114:Middlewares/lvgl/src/widgets/lv_img.c ****     }
 1273              		.loc 1 114 18 is_stmt 0 view .LVU454
 1274 0036 6662     		str	r6, [r4, #36]
 1275              	.L51:
 136:Middlewares/lvgl/src/widgets/lv_img.c ****         /*`lv_img_dsc_get_info` couldn't set the with and height of a font so set it here*/
 1276              		.loc 1 136 5 is_stmt 1 view .LVU455
 136:Middlewares/lvgl/src/widgets/lv_img.c ****         /*`lv_img_dsc_get_info` couldn't set the with and height of a font so set it here*/
 1277              		.loc 1 136 7 is_stmt 0 view .LVU456
 1278 0038 022D     		cmp	r5, #2
 1279 003a 6BD0     		beq	.L61
 1280              	.LVL105:
 1281              	.L55:
 147:Middlewares/lvgl/src/widgets/lv_img.c ****     img->w        = header.w;
 1282              		.loc 1 147 5 is_stmt 1 view .LVU457
 147:Middlewares/lvgl/src/widgets/lv_img.c ****     img->w        = header.w;
 1283              		.loc 1 147 19 is_stmt 0 view .LVU458
 1284 003c 94F83830 		ldrb	r3, [r4, #56]	@ zero_extendqisi2
 1285 0040 65F30103 		bfi	r3, r5, #0, #2
 1286 0044 84F83830 		strb	r3, [r4, #56]
 148:Middlewares/lvgl/src/widgets/lv_img.c ****     img->h        = header.h;
 1287              		.loc 1 148 5 is_stmt 1 view .LVU459
 148:Middlewares/lvgl/src/widgets/lv_img.c ****     img->h        = header.h;
 1288              		.loc 1 148 27 is_stmt 0 view .LVU460
 1289 0048 059A     		ldr	r2, [sp, #20]
 1290 004a C2F38A23 		ubfx	r3, r2, #10, #11
 148:Middlewares/lvgl/src/widgets/lv_img.c ****     img->h        = header.h;
 1291              		.loc 1 148 19 view .LVU461
 1292 004e A385     		strh	r3, [r4, #44]	@ movhi
 149:Middlewares/lvgl/src/widgets/lv_img.c ****     img->cf       = header.cf;
 1293              		.loc 1 149 5 is_stmt 1 view .LVU462
 149:Middlewares/lvgl/src/widgets/lv_img.c ****     img->cf       = header.cf;
 1294              		.loc 1 149 27 is_stmt 0 view .LVU463
 1295 0050 BDF81630 		ldrh	r3, [sp, #22]
 1296 0054 C3F34A11 		ubfx	r1, r3, #5, #11
 149:Middlewares/lvgl/src/widgets/lv_img.c ****     img->cf       = header.cf;
 1297              		.loc 1 149 19 view .LVU464
 1298 0058 E185     		strh	r1, [r4, #46]	@ movhi
 150:Middlewares/lvgl/src/widgets/lv_img.c ****     img->pivot.x = header.w / 2;
 1299              		.loc 1 150 5 is_stmt 1 view .LVU465
 150:Middlewares/lvgl/src/widgets/lv_img.c ****     img->pivot.x = header.w / 2;
 1300              		.loc 1 150 27 is_stmt 0 view .LVU466
ARM GAS  /tmp/cc6jSqZn.s 			page 51


 1301 005a 9DF81400 		ldrb	r0, [sp, #20]	@ zero_extendqisi2
 150:Middlewares/lvgl/src/widgets/lv_img.c ****     img->pivot.x = header.w / 2;
 1302              		.loc 1 150 19 view .LVU467
 1303 005e 94F83810 		ldrb	r1, [r4, #56]	@ zero_extendqisi2
 1304 0062 60F38601 		bfi	r1, r0, #2, #5
 1305 0066 84F83810 		strb	r1, [r4, #56]
 151:Middlewares/lvgl/src/widgets/lv_img.c ****     img->pivot.y = header.h / 2;
 1306              		.loc 1 151 5 is_stmt 1 view .LVU468
 151:Middlewares/lvgl/src/widgets/lv_img.c ****     img->pivot.y = header.h / 2;
 1307              		.loc 1 151 29 is_stmt 0 view .LVU469
 1308 006a C2F3C922 		ubfx	r2, r2, #11, #10
 151:Middlewares/lvgl/src/widgets/lv_img.c ****     img->pivot.y = header.h / 2;
 1309              		.loc 1 151 18 view .LVU470
 1310 006e 6286     		strh	r2, [r4, #50]	@ movhi
 152:Middlewares/lvgl/src/widgets/lv_img.c **** 
 1311              		.loc 1 152 5 is_stmt 1 view .LVU471
 152:Middlewares/lvgl/src/widgets/lv_img.c **** 
 1312              		.loc 1 152 29 is_stmt 0 view .LVU472
 1313 0070 C3F38913 		ubfx	r3, r3, #6, #10
 152:Middlewares/lvgl/src/widgets/lv_img.c **** 
 1314              		.loc 1 152 18 view .LVU473
 1315 0074 A386     		strh	r3, [r4, #52]	@ movhi
 154:Middlewares/lvgl/src/widgets/lv_img.c **** 
 1316              		.loc 1 154 5 is_stmt 1 view .LVU474
 1317 0076 2046     		mov	r0, r4
 1318 0078 FFF7FEFF 		bl	lv_obj_refresh_self_size
 1319              	.LVL106:
 157:Middlewares/lvgl/src/widgets/lv_img.c **** 
 1320              		.loc 1 157 5 view .LVU475
 157:Middlewares/lvgl/src/widgets/lv_img.c **** 
 1321              		.loc 1 157 11 is_stmt 0 view .LVU476
 1322 007c 238E     		ldrh	r3, [r4, #48]
 157:Middlewares/lvgl/src/widgets/lv_img.c **** 
 1323              		.loc 1 157 7 view .LVU477
 1324 007e 1BB9     		cbnz	r3, .L56
 157:Middlewares/lvgl/src/widgets/lv_img.c **** 
 1325              		.loc 1 157 25 discriminator 2 view .LVU478
 1326 0080 E38E     		ldrh	r3, [r4, #54]
 157:Middlewares/lvgl/src/widgets/lv_img.c **** 
 1327              		.loc 1 157 19 discriminator 2 view .LVU479
 1328 0082 B3F5807F 		cmp	r3, #256
 1329 0086 02D0     		beq	.L57
 1330              	.L56:
 157:Middlewares/lvgl/src/widgets/lv_img.c **** 
 1331              		.loc 1 157 53 is_stmt 1 discriminator 3 view .LVU480
 1332 0088 2046     		mov	r0, r4
 1333 008a FFF7FEFF 		bl	lv_obj_refresh_ext_draw_size
 1334              	.LVL107:
 1335              	.L57:
 159:Middlewares/lvgl/src/widgets/lv_img.c **** }
 1336              		.loc 1 159 5 view .LVU481
 1337 008e 2046     		mov	r0, r4
 1338 0090 FFF7FEFF 		bl	lv_obj_invalidate
 1339              	.LVL108:
 1340              	.L45:
 160:Middlewares/lvgl/src/widgets/lv_img.c **** 
 1341              		.loc 1 160 1 is_stmt 0 view .LVU482
ARM GAS  /tmp/cc6jSqZn.s 			page 52


 1342 0094 06B0     		add	sp, sp, #24
 1343              	.LCFI9:
 1344              		.cfi_remember_state
 1345              		.cfi_def_cfa_offset 24
 1346              		@ sp needed
 1347 0096 BDE8F081 		pop	{r4, r5, r6, r7, r8, pc}
 1348              	.LVL109:
 1349              	.L59:
 1350              	.LCFI10:
 1351              		.cfi_restore_state
  96:Middlewares/lvgl/src/widgets/lv_img.c ****         if(img->src_type == LV_IMG_SRC_SYMBOL || img->src_type == LV_IMG_SRC_FILE) {
 1352              		.loc 1 96 58 is_stmt 1 view .LVU483
  97:Middlewares/lvgl/src/widgets/lv_img.c ****             lv_mem_free((void*)img->src);
 1353              		.loc 1 97 9 view .LVU484
  97:Middlewares/lvgl/src/widgets/lv_img.c ****             lv_mem_free((void*)img->src);
 1354              		.loc 1 97 26 is_stmt 0 view .LVU485
 1355 009a 94F83830 		ldrb	r3, [r4, #56]	@ zero_extendqisi2
  97:Middlewares/lvgl/src/widgets/lv_img.c ****             lv_mem_free((void*)img->src);
 1356              		.loc 1 97 47 view .LVU486
 1357 009e 03F00303 		and	r3, r3, #3
 1358 00a2 013B     		subs	r3, r3, #1
 1359 00a4 DBB2     		uxtb	r3, r3
  97:Middlewares/lvgl/src/widgets/lv_img.c ****             lv_mem_free((void*)img->src);
 1360              		.loc 1 97 11 view .LVU487
 1361 00a6 012B     		cmp	r3, #1
 1362 00a8 08D9     		bls	.L62
 1363              	.LVL110:
 1364              	.L47:
 100:Middlewares/lvgl/src/widgets/lv_img.c ****         img->src_type = LV_IMG_SRC_UNKNOWN;
 1365              		.loc 1 100 9 is_stmt 1 view .LVU488
 100:Middlewares/lvgl/src/widgets/lv_img.c ****         img->src_type = LV_IMG_SRC_UNKNOWN;
 1366              		.loc 1 100 23 is_stmt 0 view .LVU489
 1367 00aa 0023     		movs	r3, #0
 1368 00ac 6362     		str	r3, [r4, #36]
 101:Middlewares/lvgl/src/widgets/lv_img.c ****         return;
 1369              		.loc 1 101 9 is_stmt 1 view .LVU490
 101:Middlewares/lvgl/src/widgets/lv_img.c ****         return;
 1370              		.loc 1 101 23 is_stmt 0 view .LVU491
 1371 00ae 94F83830 		ldrb	r3, [r4, #56]	@ zero_extendqisi2
 1372 00b2 43F00303 		orr	r3, r3, #3
 1373 00b6 84F83830 		strb	r3, [r4, #56]
 102:Middlewares/lvgl/src/widgets/lv_img.c ****     }
 1374              		.loc 1 102 9 is_stmt 1 view .LVU492
 1375 00ba EBE7     		b	.L45
 1376              	.LVL111:
 1377              	.L62:
  98:Middlewares/lvgl/src/widgets/lv_img.c ****         }
 1378              		.loc 1 98 13 view .LVU493
 1379 00bc 606A     		ldr	r0, [r4, #36]
 1380              	.LVL112:
  98:Middlewares/lvgl/src/widgets/lv_img.c ****         }
 1381              		.loc 1 98 13 is_stmt 0 view .LVU494
 1382 00be FFF7FEFF 		bl	lv_mem_free
 1383              	.LVL113:
 1384 00c2 F2E7     		b	.L47
 1385              	.L60:
 112:Middlewares/lvgl/src/widgets/lv_img.c ****         }
ARM GAS  /tmp/cc6jSqZn.s 			page 53


 1386              		.loc 1 112 13 is_stmt 1 view .LVU495
 1387 00c4 606A     		ldr	r0, [r4, #36]
 1388 00c6 FFF7FEFF 		bl	lv_mem_free
 1389              	.LVL114:
 1390 00ca B4E7     		b	.L50
 1391              	.L49:
 116:Middlewares/lvgl/src/widgets/lv_img.c ****         /*If the new and the old src are the same then it was only a refresh.*/
 1392              		.loc 1 116 10 view .LVU496
 116:Middlewares/lvgl/src/widgets/lv_img.c ****         /*If the new and the old src are the same then it was only a refresh.*/
 1393              		.loc 1 116 41 is_stmt 0 view .LVU497
 1394 00cc 6B1E     		subs	r3, r5, #1
 1395 00ce DBB2     		uxtb	r3, r3
 116:Middlewares/lvgl/src/widgets/lv_img.c ****         /*If the new and the old src are the same then it was only a refresh.*/
 1396              		.loc 1 116 12 view .LVU498
 1397 00d0 012B     		cmp	r3, #1
 1398 00d2 B1D8     		bhi	.L51
 118:Middlewares/lvgl/src/widgets/lv_img.c ****             const void * old_src = NULL;
 1399              		.loc 1 118 9 is_stmt 1 view .LVU499
 118:Middlewares/lvgl/src/widgets/lv_img.c ****             const void * old_src = NULL;
 1400              		.loc 1 118 15 is_stmt 0 view .LVU500
 1401 00d4 676A     		ldr	r7, [r4, #36]
 118:Middlewares/lvgl/src/widgets/lv_img.c ****             const void * old_src = NULL;
 1402              		.loc 1 118 11 view .LVU501
 1403 00d6 B742     		cmp	r7, r6
 1404 00d8 AED0     		beq	.L51
 1405              	.LBB105:
 119:Middlewares/lvgl/src/widgets/lv_img.c ****             /*If memory was allocated because of the previous `src_type` then save its pointer and 
 1406              		.loc 1 119 13 is_stmt 1 view .LVU502
 1407              	.LVL115:
 123:Middlewares/lvgl/src/widgets/lv_img.c ****                 old_src = img->src;
 1408              		.loc 1 123 13 view .LVU503
 123:Middlewares/lvgl/src/widgets/lv_img.c ****                 old_src = img->src;
 1409              		.loc 1 123 30 is_stmt 0 view .LVU504
 1410 00da 94F83830 		ldrb	r3, [r4, #56]	@ zero_extendqisi2
 123:Middlewares/lvgl/src/widgets/lv_img.c ****                 old_src = img->src;
 1411              		.loc 1 123 49 view .LVU505
 1412 00de 03F00303 		and	r3, r3, #3
 1413 00e2 013B     		subs	r3, r3, #1
 1414 00e4 DBB2     		uxtb	r3, r3
 123:Middlewares/lvgl/src/widgets/lv_img.c ****                 old_src = img->src;
 1415              		.loc 1 123 15 view .LVU506
 1416 00e6 012B     		cmp	r3, #1
 1417 00e8 00D9     		bls	.L52
 119:Middlewares/lvgl/src/widgets/lv_img.c ****             /*If memory was allocated because of the previous `src_type` then save its pointer and 
 1418              		.loc 1 119 26 view .LVU507
 1419 00ea 0027     		movs	r7, #0
 1420              	.L52:
 1421              	.LVL116:
 126:Middlewares/lvgl/src/widgets/lv_img.c ****             LV_ASSERT_MALLOC(new_str);
 1422              		.loc 1 126 13 is_stmt 1 view .LVU508
 126:Middlewares/lvgl/src/widgets/lv_img.c ****             LV_ASSERT_MALLOC(new_str);
 1423              		.loc 1 126 43 is_stmt 0 view .LVU509
 1424 00ec 3046     		mov	r0, r6
 1425 00ee FFF7FEFF 		bl	strlen
 1426              	.LVL117:
 126:Middlewares/lvgl/src/widgets/lv_img.c ****             LV_ASSERT_MALLOC(new_str);
 1427              		.loc 1 126 30 view .LVU510
ARM GAS  /tmp/cc6jSqZn.s 			page 54


 1428 00f2 0130     		adds	r0, r0, #1
 1429 00f4 FFF7FEFF 		bl	lv_mem_alloc
 1430              	.LVL118:
 127:Middlewares/lvgl/src/widgets/lv_img.c ****             if(new_str == NULL) return;
 1431              		.loc 1 127 13 is_stmt 1 view .LVU511
 127:Middlewares/lvgl/src/widgets/lv_img.c ****             if(new_str == NULL) return;
 1432              		.loc 1 127 13 view .LVU512
 1433 00f8 8046     		mov	r8, r0
 1434 00fa 50B1     		cbz	r0, .L54
 127:Middlewares/lvgl/src/widgets/lv_img.c ****             if(new_str == NULL) return;
 1435              		.loc 1 127 13 view .LVU513
 127:Middlewares/lvgl/src/widgets/lv_img.c ****             if(new_str == NULL) return;
 1436              		.loc 1 127 38 view .LVU514
 128:Middlewares/lvgl/src/widgets/lv_img.c ****             strcpy(new_str, src);
 1437              		.loc 1 128 13 view .LVU515
 129:Middlewares/lvgl/src/widgets/lv_img.c ****             img->src = new_str;
 1438              		.loc 1 129 13 view .LVU516
 1439 00fc 3146     		mov	r1, r6
 1440 00fe FFF7FEFF 		bl	strcpy
 1441              	.LVL119:
 130:Middlewares/lvgl/src/widgets/lv_img.c **** 
 1442              		.loc 1 130 13 view .LVU517
 130:Middlewares/lvgl/src/widgets/lv_img.c **** 
 1443              		.loc 1 130 22 is_stmt 0 view .LVU518
 1444 0102 C4F82480 		str	r8, [r4, #36]
 132:Middlewares/lvgl/src/widgets/lv_img.c ****         }
 1445              		.loc 1 132 13 is_stmt 1 view .LVU519
 132:Middlewares/lvgl/src/widgets/lv_img.c ****         }
 1446              		.loc 1 132 15 is_stmt 0 view .LVU520
 1447 0106 002F     		cmp	r7, #0
 1448 0108 96D0     		beq	.L51
 132:Middlewares/lvgl/src/widgets/lv_img.c ****         }
 1449              		.loc 1 132 25 is_stmt 1 discriminator 1 view .LVU521
 1450 010a 3846     		mov	r0, r7
 1451 010c FFF7FEFF 		bl	lv_mem_free
 1452              	.LVL120:
 1453 0110 92E7     		b	.L51
 1454              	.LVL121:
 1455              	.L54:
 127:Middlewares/lvgl/src/widgets/lv_img.c ****             if(new_str == NULL) return;
 1456              		.loc 1 127 13 discriminator 1 view .LVU522
 127:Middlewares/lvgl/src/widgets/lv_img.c ****             if(new_str == NULL) return;
 1457              		.loc 1 127 13 discriminator 1 view .LVU523
 127:Middlewares/lvgl/src/widgets/lv_img.c ****             if(new_str == NULL) return;
 1458              		.loc 1 127 13 discriminator 1 view .LVU524
 127:Middlewares/lvgl/src/widgets/lv_img.c ****             if(new_str == NULL) return;
 1459              		.loc 1 127 13 discriminator 1 view .LVU525
 1460 0112 FEE7     		b	.L54
 1461              	.LVL122:
 1462              	.L61:
 127:Middlewares/lvgl/src/widgets/lv_img.c ****             if(new_str == NULL) return;
 1463              		.loc 1 127 13 is_stmt 0 discriminator 1 view .LVU526
 1464              	.LBE105:
 1465              	.LBB106:
 138:Middlewares/lvgl/src/widgets/lv_img.c ****         lv_coord_t letter_space = lv_obj_get_style_text_letter_space(obj, LV_PART_MAIN);
 1466              		.loc 1 138 9 is_stmt 1 view .LVU527
 1467              	.LBB107:
ARM GAS  /tmp/cc6jSqZn.s 			page 55


 1468              	.LBI107:
 331:Middlewares/lvgl/src/widgets/../core/lv_obj_style_gen.h **** {
 1469              		.loc 2 331 33 view .LVU528
 1470              	.LBB108:
 333:Middlewares/lvgl/src/widgets/../core/lv_obj_style_gen.h ****     return (const lv_font_t *)v.ptr;
 1471              		.loc 2 333 5 view .LVU529
 333:Middlewares/lvgl/src/widgets/../core/lv_obj_style_gen.h ****     return (const lv_font_t *)v.ptr;
 1472              		.loc 2 333 26 is_stmt 0 view .LVU530
 1473 0114 41F25942 		movw	r2, #5209
 1474 0118 0021     		movs	r1, #0
 1475 011a 2046     		mov	r0, r4
 1476 011c FFF7FEFF 		bl	lv_obj_get_style_prop
 1477              	.LVL123:
 1478 0120 0746     		mov	r7, r0
 334:Middlewares/lvgl/src/widgets/../core/lv_obj_style_gen.h **** }
 1479              		.loc 2 334 5 is_stmt 1 view .LVU531
 1480              	.LVL124:
 334:Middlewares/lvgl/src/widgets/../core/lv_obj_style_gen.h **** }
 1481              		.loc 2 334 5 is_stmt 0 view .LVU532
 1482              	.LBE108:
 1483              	.LBE107:
 139:Middlewares/lvgl/src/widgets/lv_img.c ****         lv_coord_t line_space = lv_obj_get_style_text_line_space(obj, LV_PART_MAIN);
 1484              		.loc 1 139 9 is_stmt 1 view .LVU533
 1485              	.LBB109:
 1486              	.LBI109:
 337:Middlewares/lvgl/src/widgets/../core/lv_obj_style_gen.h **** {
 1487              		.loc 2 337 26 view .LVU534
 1488              	.LBB110:
 339:Middlewares/lvgl/src/widgets/../core/lv_obj_style_gen.h ****     return (lv_coord_t)v.num;
 1489              		.loc 2 339 5 view .LVU535
 339:Middlewares/lvgl/src/widgets/../core/lv_obj_style_gen.h ****     return (lv_coord_t)v.num;
 1490              		.loc 2 339 26 is_stmt 0 view .LVU536
 1491 0122 41F25A42 		movw	r2, #5210
 1492 0126 0021     		movs	r1, #0
 1493 0128 2046     		mov	r0, r4
 1494              	.LVL125:
 339:Middlewares/lvgl/src/widgets/../core/lv_obj_style_gen.h ****     return (lv_coord_t)v.num;
 1495              		.loc 2 339 26 view .LVU537
 1496 012a FFF7FEFF 		bl	lv_obj_get_style_prop
 1497              	.LVL126:
 340:Middlewares/lvgl/src/widgets/../core/lv_obj_style_gen.h **** }
 1498              		.loc 2 340 5 is_stmt 1 view .LVU538
 340:Middlewares/lvgl/src/widgets/../core/lv_obj_style_gen.h **** }
 1499              		.loc 2 340 12 is_stmt 0 view .LVU539
 1500 012e 0FFA80F8 		sxth	r8, r0
 1501              	.LVL127:
 340:Middlewares/lvgl/src/widgets/../core/lv_obj_style_gen.h **** }
 1502              		.loc 2 340 12 view .LVU540
 1503              	.LBE110:
 1504              	.LBE109:
 140:Middlewares/lvgl/src/widgets/lv_img.c ****         lv_point_t size;
 1505              		.loc 1 140 9 is_stmt 1 view .LVU541
 1506              	.LBB111:
 1507              	.LBI111:
 343:Middlewares/lvgl/src/widgets/../core/lv_obj_style_gen.h **** {
 1508              		.loc 2 343 26 view .LVU542
 1509              	.LBB112:
ARM GAS  /tmp/cc6jSqZn.s 			page 56


 345:Middlewares/lvgl/src/widgets/../core/lv_obj_style_gen.h ****     return (lv_coord_t)v.num;
 1510              		.loc 2 345 5 view .LVU543
 345:Middlewares/lvgl/src/widgets/../core/lv_obj_style_gen.h ****     return (lv_coord_t)v.num;
 1511              		.loc 2 345 26 is_stmt 0 view .LVU544
 1512 0132 41F25B42 		movw	r2, #5211
 1513 0136 0021     		movs	r1, #0
 1514 0138 2046     		mov	r0, r4
 1515 013a FFF7FEFF 		bl	lv_obj_get_style_prop
 1516              	.LVL128:
 346:Middlewares/lvgl/src/widgets/../core/lv_obj_style_gen.h **** }
 1517              		.loc 2 346 5 is_stmt 1 view .LVU545
 346:Middlewares/lvgl/src/widgets/../core/lv_obj_style_gen.h **** }
 1518              		.loc 2 346 12 is_stmt 0 view .LVU546
 1519 013e 00B2     		sxth	r0, r0
 1520              	.LVL129:
 346:Middlewares/lvgl/src/widgets/../core/lv_obj_style_gen.h **** }
 1521              		.loc 2 346 12 view .LVU547
 1522              	.LBE112:
 1523              	.LBE111:
 141:Middlewares/lvgl/src/widgets/lv_img.c ****         lv_txt_get_size(&size, src, font, letter_space, line_space, LV_COORD_MAX, LV_TEXT_FLAG_NONE
 1524              		.loc 1 141 9 is_stmt 1 view .LVU548
 142:Middlewares/lvgl/src/widgets/lv_img.c ****         header.w = size.x;
 1525              		.loc 1 142 9 view .LVU549
 1526 0140 0023     		movs	r3, #0
 1527 0142 0293     		str	r3, [sp, #8]
 1528 0144 4FF4C043 		mov	r3, #24576
 1529 0148 0193     		str	r3, [sp, #4]
 1530 014a 0090     		str	r0, [sp]
 1531 014c 4346     		mov	r3, r8
 1532 014e 3A46     		mov	r2, r7
 1533 0150 3146     		mov	r1, r6
 1534 0152 04A8     		add	r0, sp, #16
 1535              	.LVL130:
 142:Middlewares/lvgl/src/widgets/lv_img.c ****         header.w = size.x;
 1536              		.loc 1 142 9 is_stmt 0 view .LVU550
 1537 0154 FFF7FEFF 		bl	lv_txt_get_size
 1538              	.LVL131:
 143:Middlewares/lvgl/src/widgets/lv_img.c ****         header.h = size.y;
 1539              		.loc 1 143 9 is_stmt 1 view .LVU551
 143:Middlewares/lvgl/src/widgets/lv_img.c ****         header.h = size.y;
 1540              		.loc 1 143 24 is_stmt 0 view .LVU552
 1541 0158 BDF81020 		ldrh	r2, [sp, #16]
 143:Middlewares/lvgl/src/widgets/lv_img.c ****         header.h = size.y;
 1542              		.loc 1 143 18 view .LVU553
 1543 015c 059B     		ldr	r3, [sp, #20]
 1544 015e 62F39423 		bfi	r3, r2, #10, #11
 1545 0162 0593     		str	r3, [sp, #20]
 144:Middlewares/lvgl/src/widgets/lv_img.c ****     }
 1546              		.loc 1 144 9 is_stmt 1 view .LVU554
 144:Middlewares/lvgl/src/widgets/lv_img.c ****     }
 1547              		.loc 1 144 24 is_stmt 0 view .LVU555
 1548 0164 BDF81220 		ldrh	r2, [sp, #18]
 144:Middlewares/lvgl/src/widgets/lv_img.c ****     }
 1549              		.loc 1 144 18 view .LVU556
 1550 0168 BDF81630 		ldrh	r3, [sp, #22]
 1551 016c 62F34F13 		bfi	r3, r2, #5, #11
 1552 0170 ADF81630 		strh	r3, [sp, #22]	@ movhi
ARM GAS  /tmp/cc6jSqZn.s 			page 57


 1553 0174 62E7     		b	.L55
 1554              	.LBE106:
 1555              		.cfi_endproc
 1556              	.LFE148:
 1558              		.section	.text.lv_img_event,"ax",%progbits
 1559              		.align	1
 1560              		.syntax unified
 1561              		.thumb
 1562              		.thumb_func
 1563              		.fpu fpv4-sp-d16
 1565              	lv_img_event:
 1566              	.LVL132:
 1567              	.LFB164:
 403:Middlewares/lvgl/src/widgets/lv_img.c ****     LV_UNUSED(class_p);
 1568              		.loc 1 403 1 is_stmt 1 view -0
 1569              		.cfi_startproc
 1570              		@ args = 0, pretend = 0, frame = 8
 1571              		@ frame_needed = 0, uses_anonymous_args = 0
 403:Middlewares/lvgl/src/widgets/lv_img.c ****     LV_UNUSED(class_p);
 1572              		.loc 1 403 1 is_stmt 0 view .LVU558
 1573 0000 2DE9F043 		push	{r4, r5, r6, r7, r8, r9, lr}
 1574              	.LCFI11:
 1575              		.cfi_def_cfa_offset 28
 1576              		.cfi_offset 4, -28
 1577              		.cfi_offset 5, -24
 1578              		.cfi_offset 6, -20
 1579              		.cfi_offset 7, -16
 1580              		.cfi_offset 8, -12
 1581              		.cfi_offset 9, -8
 1582              		.cfi_offset 14, -4
 1583 0004 85B0     		sub	sp, sp, #20
 1584              	.LCFI12:
 1585              		.cfi_def_cfa_offset 48
 1586 0006 0D46     		mov	r5, r1
 404:Middlewares/lvgl/src/widgets/lv_img.c **** 
 1587              		.loc 1 404 5 is_stmt 1 view .LVU559
 406:Middlewares/lvgl/src/widgets/lv_img.c **** 
 1588              		.loc 1 406 5 view .LVU560
 406:Middlewares/lvgl/src/widgets/lv_img.c **** 
 1589              		.loc 1 406 28 is_stmt 0 view .LVU561
 1590 0008 0846     		mov	r0, r1
 1591              	.LVL133:
 406:Middlewares/lvgl/src/widgets/lv_img.c **** 
 1592              		.loc 1 406 28 view .LVU562
 1593 000a FFF7FEFF 		bl	lv_event_get_code
 1594              	.LVL134:
 406:Middlewares/lvgl/src/widgets/lv_img.c **** 
 1595              		.loc 1 406 28 view .LVU563
 1596 000e 0446     		mov	r4, r0
 1597              	.LVL135:
 409:Middlewares/lvgl/src/widgets/lv_img.c ****         /*Call the ancestor's event handler*/
 1598              		.loc 1 409 5 is_stmt 1 view .LVU564
 409:Middlewares/lvgl/src/widgets/lv_img.c ****         /*Call the ancestor's event handler*/
 1599              		.loc 1 409 7 is_stmt 0 view .LVU565
 1600 0010 1528     		cmp	r0, #21
 1601 0012 01D0     		beq	.L64
 409:Middlewares/lvgl/src/widgets/lv_img.c ****         /*Call the ancestor's event handler*/
ARM GAS  /tmp/cc6jSqZn.s 			page 58


 1602              		.loc 1 409 35 discriminator 1 view .LVU566
 1603 0014 1828     		cmp	r0, #24
 1604 0016 16D1     		bne	.L76
 1605              	.LVL136:
 1606              	.L64:
 415:Middlewares/lvgl/src/widgets/lv_img.c ****     lv_img_t * img = (lv_img_t *)obj;
 1607              		.loc 1 415 5 is_stmt 1 view .LVU567
 415:Middlewares/lvgl/src/widgets/lv_img.c ****     lv_img_t * img = (lv_img_t *)obj;
 1608              		.loc 1 415 22 is_stmt 0 view .LVU568
 1609 0018 2846     		mov	r0, r5
 1610 001a FFF7FEFF 		bl	lv_event_get_target
 1611              	.LVL137:
 1612 001e 0646     		mov	r6, r0
 1613              	.LVL138:
 416:Middlewares/lvgl/src/widgets/lv_img.c **** 
 1614              		.loc 1 416 5 is_stmt 1 view .LVU569
 418:Middlewares/lvgl/src/widgets/lv_img.c ****         /*Refresh the file name to refresh the symbol text size*/
 1615              		.loc 1 418 5 view .LVU570
 418:Middlewares/lvgl/src/widgets/lv_img.c ****         /*Refresh the file name to refresh the symbol text size*/
 1616              		.loc 1 418 7 is_stmt 0 view .LVU571
 1617 0020 242C     		cmp	r4, #36
 1618 0022 19D0     		beq	.L77
 427:Middlewares/lvgl/src/widgets/lv_img.c **** 
 1619              		.loc 1 427 10 is_stmt 1 view .LVU572
 427:Middlewares/lvgl/src/widgets/lv_img.c **** 
 1620              		.loc 1 427 12 is_stmt 0 view .LVU573
 1621 0024 132C     		cmp	r4, #19
 1622 0026 24D0     		beq	.L78
 449:Middlewares/lvgl/src/widgets/lv_img.c ****         lv_hit_test_info_t * info = lv_event_get_param(e);
 1623              		.loc 1 449 10 is_stmt 1 view .LVU574
 449:Middlewares/lvgl/src/widgets/lv_img.c ****         lv_hit_test_info_t * info = lv_event_get_param(e);
 1624              		.loc 1 449 12 is_stmt 0 view .LVU575
 1625 0028 112C     		cmp	r4, #17
 1626 002a 7CD0     		beq	.L79
 479:Middlewares/lvgl/src/widgets/lv_img.c ****         lv_point_t * p = lv_event_get_param(e);;
 1627              		.loc 1 479 10 is_stmt 1 view .LVU576
 479:Middlewares/lvgl/src/widgets/lv_img.c ****         lv_point_t * p = lv_event_get_param(e);;
 1628              		.loc 1 479 12 is_stmt 0 view .LVU577
 1629 002c 262C     		cmp	r4, #38
 1630 002e 00F0F580 		beq	.L80
 484:Middlewares/lvgl/src/widgets/lv_img.c ****         draw_img(e);
 1631              		.loc 1 484 10 is_stmt 1 view .LVU578
 484:Middlewares/lvgl/src/widgets/lv_img.c ****         draw_img(e);
 1632              		.loc 1 484 12 is_stmt 0 view .LVU579
 1633 0032 152C     		cmp	r4, #21
 1634 0034 03D0     		beq	.L74
 484:Middlewares/lvgl/src/widgets/lv_img.c ****         draw_img(e);
 1635              		.loc 1 484 40 discriminator 1 view .LVU580
 1636 0036 182C     		cmp	r4, #24
 1637 0038 01D0     		beq	.L74
 484:Middlewares/lvgl/src/widgets/lv_img.c ****         draw_img(e);
 1638              		.loc 1 484 70 discriminator 2 view .LVU581
 1639 003a 122C     		cmp	r4, #18
 1640 003c 09D1     		bne	.L63
 1641              	.L74:
 485:Middlewares/lvgl/src/widgets/lv_img.c ****     }
 1642              		.loc 1 485 9 is_stmt 1 view .LVU582
ARM GAS  /tmp/cc6jSqZn.s 			page 59


 1643 003e 2846     		mov	r0, r5
 1644              	.LVL139:
 485:Middlewares/lvgl/src/widgets/lv_img.c ****     }
 1645              		.loc 1 485 9 is_stmt 0 view .LVU583
 1646 0040 FFF7FEFF 		bl	draw_img
 1647              	.LVL140:
 1648 0044 05E0     		b	.L63
 1649              	.LVL141:
 1650              	.L76:
 1651              	.LBB113:
 411:Middlewares/lvgl/src/widgets/lv_img.c ****         if(res != LV_RES_OK) return;
 1652              		.loc 1 411 9 is_stmt 1 view .LVU584
 411:Middlewares/lvgl/src/widgets/lv_img.c ****         if(res != LV_RES_OK) return;
 1653              		.loc 1 411 24 is_stmt 0 view .LVU585
 1654 0046 2946     		mov	r1, r5
 1655 0048 7948     		ldr	r0, .L84
 1656              	.LVL142:
 411:Middlewares/lvgl/src/widgets/lv_img.c ****         if(res != LV_RES_OK) return;
 1657              		.loc 1 411 24 view .LVU586
 1658 004a FFF7FEFF 		bl	lv_obj_event_base
 1659              	.LVL143:
 412:Middlewares/lvgl/src/widgets/lv_img.c ****     }
 1660              		.loc 1 412 9 is_stmt 1 view .LVU587
 412:Middlewares/lvgl/src/widgets/lv_img.c ****     }
 1661              		.loc 1 412 11 is_stmt 0 view .LVU588
 1662 004e 0128     		cmp	r0, #1
 1663 0050 E2D0     		beq	.L64
 1664              	.LVL144:
 1665              	.L63:
 412:Middlewares/lvgl/src/widgets/lv_img.c ****     }
 1666              		.loc 1 412 11 view .LVU589
 1667              	.LBE113:
 487:Middlewares/lvgl/src/widgets/lv_img.c **** 
 1668              		.loc 1 487 1 view .LVU590
 1669 0052 05B0     		add	sp, sp, #20
 1670              	.LCFI13:
 1671              		.cfi_remember_state
 1672              		.cfi_def_cfa_offset 28
 1673              		@ sp needed
 1674 0054 BDE8F083 		pop	{r4, r5, r6, r7, r8, r9, pc}
 1675              	.LVL145:
 1676              	.L77:
 1677              	.LCFI14:
 1678              		.cfi_restore_state
 420:Middlewares/lvgl/src/widgets/lv_img.c ****             lv_img_set_src(obj, img->src);
 1679              		.loc 1 420 9 is_stmt 1 view .LVU591
 420:Middlewares/lvgl/src/widgets/lv_img.c ****             lv_img_set_src(obj, img->src);
 1680              		.loc 1 420 26 is_stmt 0 view .LVU592
 1681 0058 90F83830 		ldrb	r3, [r0, #56]	@ zero_extendqisi2
 1682 005c 03F00303 		and	r3, r3, #3
 420:Middlewares/lvgl/src/widgets/lv_img.c ****             lv_img_set_src(obj, img->src);
 1683              		.loc 1 420 11 view .LVU593
 1684 0060 022B     		cmp	r3, #2
 1685 0062 02D0     		beq	.L81
 424:Middlewares/lvgl/src/widgets/lv_img.c ****         }
 1686              		.loc 1 424 13 is_stmt 1 view .LVU594
 1687 0064 FFF7FEFF 		bl	lv_obj_refresh_ext_draw_size
ARM GAS  /tmp/cc6jSqZn.s 			page 60


 1688              	.LVL146:
 424:Middlewares/lvgl/src/widgets/lv_img.c ****         }
 1689              		.loc 1 424 13 is_stmt 0 view .LVU595
 1690 0068 F3E7     		b	.L63
 1691              	.LVL147:
 1692              	.L81:
 421:Middlewares/lvgl/src/widgets/lv_img.c ****         } else {
 1693              		.loc 1 421 13 is_stmt 1 view .LVU596
 1694 006a 416A     		ldr	r1, [r0, #36]
 1695 006c FFF7FEFF 		bl	lv_img_set_src
 1696              	.LVL148:
 421:Middlewares/lvgl/src/widgets/lv_img.c ****         } else {
 1697              		.loc 1 421 13 is_stmt 0 view .LVU597
 1698 0070 EFE7     		b	.L63
 1699              	.LVL149:
 1700              	.L78:
 1701              	.LBB114:
 429:Middlewares/lvgl/src/widgets/lv_img.c ****         lv_coord_t transf_zoom = lv_obj_get_style_transform_zoom(obj, LV_PART_MAIN);
 1702              		.loc 1 429 9 is_stmt 1 view .LVU598
 429:Middlewares/lvgl/src/widgets/lv_img.c ****         lv_coord_t transf_zoom = lv_obj_get_style_transform_zoom(obj, LV_PART_MAIN);
 1703              		.loc 1 429 26 is_stmt 0 view .LVU599
 1704 0072 2846     		mov	r0, r5
 1705              	.LVL150:
 429:Middlewares/lvgl/src/widgets/lv_img.c ****         lv_coord_t transf_zoom = lv_obj_get_style_transform_zoom(obj, LV_PART_MAIN);
 1706              		.loc 1 429 26 view .LVU600
 1707 0074 FFF7FEFF 		bl	lv_event_get_param
 1708              	.LVL151:
 1709 0078 0446     		mov	r4, r0
 1710              	.LVL152:
 430:Middlewares/lvgl/src/widgets/lv_img.c ****         transf_zoom = (transf_zoom * img->zoom) >> 8;
 1711              		.loc 1 430 9 is_stmt 1 view .LVU601
 1712              	.LBB115:
 1713              	.LBI115:
  79:Middlewares/lvgl/src/widgets/../core/lv_obj_style_gen.h **** {
 1714              		.loc 2 79 26 view .LVU602
 1715              	.LBB116:
  81:Middlewares/lvgl/src/widgets/../core/lv_obj_style_gen.h ****     return (lv_coord_t)v.num;
 1716              		.loc 2 81 5 view .LVU603
  81:Middlewares/lvgl/src/widgets/../core/lv_obj_style_gen.h ****     return (lv_coord_t)v.num;
 1717              		.loc 2 81 26 is_stmt 0 view .LVU604
 1718 007a 40F60E02 		movw	r2, #2062
 1719 007e 0021     		movs	r1, #0
 1720 0080 3046     		mov	r0, r6
 1721              	.LVL153:
  81:Middlewares/lvgl/src/widgets/../core/lv_obj_style_gen.h ****     return (lv_coord_t)v.num;
 1722              		.loc 2 81 26 view .LVU605
 1723 0082 FFF7FEFF 		bl	lv_obj_get_style_prop
 1724              	.LVL154:
  82:Middlewares/lvgl/src/widgets/../core/lv_obj_style_gen.h **** }
 1725              		.loc 2 82 5 is_stmt 1 view .LVU606
  82:Middlewares/lvgl/src/widgets/../core/lv_obj_style_gen.h **** }
 1726              		.loc 2 82 12 is_stmt 0 view .LVU607
 1727 0086 03B2     		sxth	r3, r0
 1728              	.LVL155:
  82:Middlewares/lvgl/src/widgets/../core/lv_obj_style_gen.h **** }
 1729              		.loc 2 82 12 view .LVU608
 1730              	.LBE116:
ARM GAS  /tmp/cc6jSqZn.s 			page 61


 1731              	.LBE115:
 431:Middlewares/lvgl/src/widgets/lv_img.c **** 
 1732              		.loc 1 431 9 is_stmt 1 view .LVU609
 431:Middlewares/lvgl/src/widgets/lv_img.c **** 
 1733              		.loc 1 431 41 is_stmt 0 view .LVU610
 1734 0088 F08E     		ldrh	r0, [r6, #54]
 431:Middlewares/lvgl/src/widgets/lv_img.c **** 
 1735              		.loc 1 431 36 view .LVU611
 1736 008a 00FB03F3 		mul	r3, r0, r3
 1737              	.LVL156:
 431:Middlewares/lvgl/src/widgets/lv_img.c **** 
 1738              		.loc 1 431 49 view .LVU612
 1739 008e 4FEA2329 		asr	r9, r3, #8
 431:Middlewares/lvgl/src/widgets/lv_img.c **** 
 1740              		.loc 1 431 21 view .LVU613
 1741 0092 43F30F25 		sbfx	r5, r3, #8, #16
 1742              	.LVL157:
 433:Middlewares/lvgl/src/widgets/lv_img.c ****         transf_angle += img->angle;
 1743              		.loc 1 433 9 is_stmt 1 view .LVU614
 1744              	.LBB117:
 1745              	.LBI117:
  85:Middlewares/lvgl/src/widgets/../core/lv_obj_style_gen.h **** {
 1746              		.loc 2 85 26 view .LVU615
 1747              	.LBB118:
  87:Middlewares/lvgl/src/widgets/../core/lv_obj_style_gen.h ****     return (lv_coord_t)v.num;
 1748              		.loc 2 87 5 view .LVU616
  87:Middlewares/lvgl/src/widgets/../core/lv_obj_style_gen.h ****     return (lv_coord_t)v.num;
 1749              		.loc 2 87 26 is_stmt 0 view .LVU617
 1750 0096 40F60F02 		movw	r2, #2063
 1751 009a 0021     		movs	r1, #0
 1752 009c 3046     		mov	r0, r6
 1753 009e FFF7FEFF 		bl	lv_obj_get_style_prop
 1754              	.LVL158:
  88:Middlewares/lvgl/src/widgets/../core/lv_obj_style_gen.h **** }
 1755              		.loc 2 88 5 is_stmt 1 view .LVU618
  88:Middlewares/lvgl/src/widgets/../core/lv_obj_style_gen.h **** }
 1756              		.loc 2 88 5 is_stmt 0 view .LVU619
 1757              	.LBE118:
 1758              	.LBE117:
 434:Middlewares/lvgl/src/widgets/lv_img.c **** 
 1759              		.loc 1 434 9 is_stmt 1 view .LVU620
 434:Middlewares/lvgl/src/widgets/lv_img.c **** 
 1760              		.loc 1 434 28 is_stmt 0 view .LVU621
 1761 00a2 B6F83080 		ldrh	r8, [r6, #48]
 434:Middlewares/lvgl/src/widgets/lv_img.c **** 
 1762              		.loc 1 434 22 view .LVU622
 1763 00a6 8044     		add	r8, r8, r0
 1764 00a8 0FFA88F8 		sxth	r8, r8
 1765              	.LVL159:
 437:Middlewares/lvgl/src/widgets/lv_img.c ****             lv_area_t a;
 1766              		.loc 1 437 9 is_stmt 1 view .LVU623
 437:Middlewares/lvgl/src/widgets/lv_img.c ****             lv_area_t a;
 1767              		.loc 1 437 11 is_stmt 0 view .LVU624
 1768 00ac B8F1000F 		cmp	r8, #0
 1769 00b0 02D1     		bne	.L69
 437:Middlewares/lvgl/src/widgets/lv_img.c ****             lv_area_t a;
 1770              		.loc 1 437 25 discriminator 1 view .LVU625
ARM GAS  /tmp/cc6jSqZn.s 			page 62


 1771 00b2 B5F5807F 		cmp	r5, #256
 1772 00b6 CCD0     		beq	.L63
 1773              	.L69:
 1774              	.LBB119:
 438:Middlewares/lvgl/src/widgets/lv_img.c ****             lv_coord_t w = lv_obj_get_width(obj);
 1775              		.loc 1 438 13 is_stmt 1 view .LVU626
 439:Middlewares/lvgl/src/widgets/lv_img.c ****             lv_coord_t h = lv_obj_get_height(obj);
 1776              		.loc 1 439 13 view .LVU627
 439:Middlewares/lvgl/src/widgets/lv_img.c ****             lv_coord_t h = lv_obj_get_height(obj);
 1777              		.loc 1 439 28 is_stmt 0 view .LVU628
 1778 00b8 3046     		mov	r0, r6
 1779 00ba FFF7FEFF 		bl	lv_obj_get_width
 1780              	.LVL160:
 1781 00be 0746     		mov	r7, r0
 1782              	.LVL161:
 440:Middlewares/lvgl/src/widgets/lv_img.c ****             _lv_img_buf_get_transformed_area(&a, w, h, transf_angle, transf_zoom, &img->pivot);
 1783              		.loc 1 440 13 is_stmt 1 view .LVU629
 440:Middlewares/lvgl/src/widgets/lv_img.c ****             _lv_img_buf_get_transformed_area(&a, w, h, transf_angle, transf_zoom, &img->pivot);
 1784              		.loc 1 440 28 is_stmt 0 view .LVU630
 1785 00c0 3046     		mov	r0, r6
 1786 00c2 FFF7FEFF 		bl	lv_obj_get_height
 1787              	.LVL162:
 1788 00c6 0546     		mov	r5, r0
 1789              	.LVL163:
 441:Middlewares/lvgl/src/widgets/lv_img.c ****             lv_coord_t pad_ori = *s;
 1790              		.loc 1 441 13 is_stmt 1 view .LVU631
 441:Middlewares/lvgl/src/widgets/lv_img.c ****             lv_coord_t pad_ori = *s;
 1791              		.loc 1 441 83 is_stmt 0 view .LVU632
 1792 00c8 3236     		adds	r6, r6, #50
 1793              	.LVL164:
 441:Middlewares/lvgl/src/widgets/lv_img.c ****             lv_coord_t pad_ori = *s;
 1794              		.loc 1 441 13 view .LVU633
 1795 00ca 0196     		str	r6, [sp, #4]
 1796 00cc 1FFA89F3 		uxth	r3, r9
 1797 00d0 0093     		str	r3, [sp]
 1798 00d2 4346     		mov	r3, r8
 1799 00d4 0246     		mov	r2, r0
 1800 00d6 3946     		mov	r1, r7
 1801 00d8 02A8     		add	r0, sp, #8
 1802              	.LVL165:
 441:Middlewares/lvgl/src/widgets/lv_img.c ****             lv_coord_t pad_ori = *s;
 1803              		.loc 1 441 13 view .LVU634
 1804 00da FFF7FEFF 		bl	_lv_img_buf_get_transformed_area
 1805              	.LVL166:
 442:Middlewares/lvgl/src/widgets/lv_img.c ****             *s = LV_MAX(*s, pad_ori - a.x1);
 1806              		.loc 1 442 13 is_stmt 1 view .LVU635
 442:Middlewares/lvgl/src/widgets/lv_img.c ****             *s = LV_MAX(*s, pad_ori - a.x1);
 1807              		.loc 1 442 24 is_stmt 0 view .LVU636
 1808 00de B4F90030 		ldrsh	r3, [r4]
 1809              	.LVL167:
 443:Middlewares/lvgl/src/widgets/lv_img.c ****             *s = LV_MAX(*s, pad_ori - a.y1);
 1810              		.loc 1 443 13 is_stmt 1 view .LVU637
 443:Middlewares/lvgl/src/widgets/lv_img.c ****             *s = LV_MAX(*s, pad_ori - a.y1);
 1811              		.loc 1 443 18 is_stmt 0 view .LVU638
 1812 00e2 BDF90860 		ldrsh	r6, [sp, #8]
 1813              	.LVL168:
 443:Middlewares/lvgl/src/widgets/lv_img.c ****             *s = LV_MAX(*s, pad_ori - a.y1);
ARM GAS  /tmp/cc6jSqZn.s 			page 63


 1814              		.loc 1 443 18 view .LVU639
 1815 00e6 9E1B     		subs	r6, r3, r6
 1816 00e8 9E42     		cmp	r6, r3
 1817 00ea B8BF     		it	lt
 1818 00ec 1E46     		movlt	r6, r3
 443:Middlewares/lvgl/src/widgets/lv_img.c ****             *s = LV_MAX(*s, pad_ori - a.y1);
 1819              		.loc 1 443 16 view .LVU640
 1820 00ee 36B2     		sxth	r6, r6
 1821 00f0 2680     		strh	r6, [r4]	@ movhi
 444:Middlewares/lvgl/src/widgets/lv_img.c ****             *s = LV_MAX(*s, pad_ori + a.x2 - w);
 1822              		.loc 1 444 13 is_stmt 1 view .LVU641
 444:Middlewares/lvgl/src/widgets/lv_img.c ****             *s = LV_MAX(*s, pad_ori + a.x2 - w);
 1823              		.loc 1 444 18 is_stmt 0 view .LVU642
 1824 00f2 BDF90A20 		ldrsh	r2, [sp, #10]
 1825 00f6 991A     		subs	r1, r3, r2
 1826 00f8 B142     		cmp	r1, r6
 1827 00fa B8BF     		it	lt
 1828 00fc 3146     		movlt	r1, r6
 444:Middlewares/lvgl/src/widgets/lv_img.c ****             *s = LV_MAX(*s, pad_ori + a.x2 - w);
 1829              		.loc 1 444 16 view .LVU643
 1830 00fe 0EB2     		sxth	r6, r1
 1831 0100 2680     		strh	r6, [r4]	@ movhi
 445:Middlewares/lvgl/src/widgets/lv_img.c ****             *s = LV_MAX(*s, pad_ori + a.y2 - h);
 1832              		.loc 1 445 13 is_stmt 1 view .LVU644
 445:Middlewares/lvgl/src/widgets/lv_img.c ****             *s = LV_MAX(*s, pad_ori + a.y2 - h);
 1833              		.loc 1 445 18 is_stmt 0 view .LVU645
 1834 0102 BDF90C20 		ldrsh	r2, [sp, #12]
 1835 0106 1A44     		add	r2, r2, r3
 1836 0108 D11B     		subs	r1, r2, r7
 1837 010a B142     		cmp	r1, r6
 1838 010c B8BF     		it	lt
 1839 010e 3146     		movlt	r1, r6
 445:Middlewares/lvgl/src/widgets/lv_img.c ****             *s = LV_MAX(*s, pad_ori + a.y2 - h);
 1840              		.loc 1 445 16 view .LVU646
 1841 0110 09B2     		sxth	r1, r1
 1842 0112 2180     		strh	r1, [r4]	@ movhi
 446:Middlewares/lvgl/src/widgets/lv_img.c ****         }
 1843              		.loc 1 446 13 is_stmt 1 view .LVU647
 446:Middlewares/lvgl/src/widgets/lv_img.c ****         }
 1844              		.loc 1 446 18 is_stmt 0 view .LVU648
 1845 0114 BDF90E20 		ldrsh	r2, [sp, #14]
 1846 0118 1344     		add	r3, r3, r2
 1847              	.LVL169:
 446:Middlewares/lvgl/src/widgets/lv_img.c ****         }
 1848              		.loc 1 446 18 view .LVU649
 1849 011a 5B1B     		subs	r3, r3, r5
 1850 011c 8B42     		cmp	r3, r1
 1851 011e B8BF     		it	lt
 1852 0120 0B46     		movlt	r3, r1
 446:Middlewares/lvgl/src/widgets/lv_img.c ****         }
 1853              		.loc 1 446 16 view .LVU650
 1854 0122 2380     		strh	r3, [r4]	@ movhi
 1855 0124 95E7     		b	.L63
 1856              	.LVL170:
 1857              	.L79:
 446:Middlewares/lvgl/src/widgets/lv_img.c ****         }
 1858              		.loc 1 446 16 view .LVU651
ARM GAS  /tmp/cc6jSqZn.s 			page 64


 1859              	.LBE119:
 1860              	.LBE114:
 1861              	.LBB120:
 450:Middlewares/lvgl/src/widgets/lv_img.c ****         lv_coord_t zoom = lv_obj_get_style_transform_zoom(obj, LV_PART_MAIN);
 1862              		.loc 1 450 9 is_stmt 1 view .LVU652
 450:Middlewares/lvgl/src/widgets/lv_img.c ****         lv_coord_t zoom = lv_obj_get_style_transform_zoom(obj, LV_PART_MAIN);
 1863              		.loc 1 450 37 is_stmt 0 view .LVU653
 1864 0126 2846     		mov	r0, r5
 1865              	.LVL171:
 450:Middlewares/lvgl/src/widgets/lv_img.c ****         lv_coord_t zoom = lv_obj_get_style_transform_zoom(obj, LV_PART_MAIN);
 1866              		.loc 1 450 37 view .LVU654
 1867 0128 FFF7FEFF 		bl	lv_event_get_param
 1868              	.LVL172:
 1869 012c 0546     		mov	r5, r0
 1870              	.LVL173:
 451:Middlewares/lvgl/src/widgets/lv_img.c ****         zoom = (zoom * img->zoom) >> 8;
 1871              		.loc 1 451 9 is_stmt 1 view .LVU655
 1872              	.LBB121:
 1873              	.LBI121:
  79:Middlewares/lvgl/src/widgets/../core/lv_obj_style_gen.h **** {
 1874              		.loc 2 79 26 view .LVU656
 1875              	.LBB122:
  81:Middlewares/lvgl/src/widgets/../core/lv_obj_style_gen.h ****     return (lv_coord_t)v.num;
 1876              		.loc 2 81 5 view .LVU657
  81:Middlewares/lvgl/src/widgets/../core/lv_obj_style_gen.h ****     return (lv_coord_t)v.num;
 1877              		.loc 2 81 26 is_stmt 0 view .LVU658
 1878 012e 40F60E02 		movw	r2, #2062
 1879 0132 0021     		movs	r1, #0
 1880 0134 3046     		mov	r0, r6
 1881              	.LVL174:
  81:Middlewares/lvgl/src/widgets/../core/lv_obj_style_gen.h ****     return (lv_coord_t)v.num;
 1882              		.loc 2 81 26 view .LVU659
 1883 0136 FFF7FEFF 		bl	lv_obj_get_style_prop
 1884              	.LVL175:
  82:Middlewares/lvgl/src/widgets/../core/lv_obj_style_gen.h **** }
 1885              		.loc 2 82 5 is_stmt 1 view .LVU660
  82:Middlewares/lvgl/src/widgets/../core/lv_obj_style_gen.h **** }
 1886              		.loc 2 82 12 is_stmt 0 view .LVU661
 1887 013a 03B2     		sxth	r3, r0
 1888              	.LVL176:
  82:Middlewares/lvgl/src/widgets/../core/lv_obj_style_gen.h **** }
 1889              		.loc 2 82 12 view .LVU662
 1890              	.LBE122:
 1891              	.LBE121:
 452:Middlewares/lvgl/src/widgets/lv_img.c **** 
 1892              		.loc 1 452 9 is_stmt 1 view .LVU663
 452:Middlewares/lvgl/src/widgets/lv_img.c **** 
 1893              		.loc 1 452 27 is_stmt 0 view .LVU664
 1894 013c F08E     		ldrh	r0, [r6, #54]
 452:Middlewares/lvgl/src/widgets/lv_img.c **** 
 1895              		.loc 1 452 22 view .LVU665
 1896 013e 00FB03F3 		mul	r3, r0, r3
 1897              	.LVL177:
 452:Middlewares/lvgl/src/widgets/lv_img.c **** 
 1898              		.loc 1 452 35 view .LVU666
 1899 0142 4FEA2328 		asr	r8, r3, #8
 452:Middlewares/lvgl/src/widgets/lv_img.c **** 
ARM GAS  /tmp/cc6jSqZn.s 			page 65


 1900              		.loc 1 452 14 view .LVU667
 1901 0146 43F30F24 		sbfx	r4, r3, #8, #16
 1902              	.LVL178:
 454:Middlewares/lvgl/src/widgets/lv_img.c ****         angle += img->angle;
 1903              		.loc 1 454 9 is_stmt 1 view .LVU668
 1904              	.LBB123:
 1905              	.LBI123:
  85:Middlewares/lvgl/src/widgets/../core/lv_obj_style_gen.h **** {
 1906              		.loc 2 85 26 view .LVU669
 1907              	.LBB124:
  87:Middlewares/lvgl/src/widgets/../core/lv_obj_style_gen.h ****     return (lv_coord_t)v.num;
 1908              		.loc 2 87 5 view .LVU670
  87:Middlewares/lvgl/src/widgets/../core/lv_obj_style_gen.h ****     return (lv_coord_t)v.num;
 1909              		.loc 2 87 26 is_stmt 0 view .LVU671
 1910 014a 40F60F02 		movw	r2, #2063
 1911 014e 0021     		movs	r1, #0
 1912 0150 3046     		mov	r0, r6
 1913 0152 FFF7FEFF 		bl	lv_obj_get_style_prop
 1914              	.LVL179:
  88:Middlewares/lvgl/src/widgets/../core/lv_obj_style_gen.h **** }
 1915              		.loc 2 88 5 is_stmt 1 view .LVU672
  88:Middlewares/lvgl/src/widgets/../core/lv_obj_style_gen.h **** }
 1916              		.loc 2 88 5 is_stmt 0 view .LVU673
 1917              	.LBE124:
 1918              	.LBE123:
 455:Middlewares/lvgl/src/widgets/lv_img.c **** 
 1919              		.loc 1 455 9 is_stmt 1 view .LVU674
 455:Middlewares/lvgl/src/widgets/lv_img.c **** 
 1920              		.loc 1 455 21 is_stmt 0 view .LVU675
 1921 0156 338E     		ldrh	r3, [r6, #48]
 455:Middlewares/lvgl/src/widgets/lv_img.c **** 
 1922              		.loc 1 455 15 view .LVU676
 1923 0158 0344     		add	r3, r3, r0
 1924 015a 1FB2     		sxth	r7, r3
 1925              	.LVL180:
 459:Middlewares/lvgl/src/widgets/lv_img.c ****                 (zoom != LV_IMG_ZOOM_NONE || angle != 0 || img->pivot.x != img->w / 2 || img->pivot
 1926              		.loc 1 459 9 is_stmt 1 view .LVU677
 459:Middlewares/lvgl/src/widgets/lv_img.c ****                 (zoom != LV_IMG_ZOOM_NONE || angle != 0 || img->pivot.x != img->w / 2 || img->pivot
 1927              		.loc 1 459 15 is_stmt 0 view .LVU678
 1928 015c B6F92C90 		ldrsh	r9, [r6, #44]
 459:Middlewares/lvgl/src/widgets/lv_img.c ****                 (zoom != LV_IMG_ZOOM_NONE || angle != 0 || img->pivot.x != img->w / 2 || img->pivot
 1929              		.loc 1 459 22 view .LVU679
 1930 0160 3046     		mov	r0, r6
 1931 0162 FFF7FEFF 		bl	lv_obj_get_width
 1932              	.LVL181:
 459:Middlewares/lvgl/src/widgets/lv_img.c ****                 (zoom != LV_IMG_ZOOM_NONE || angle != 0 || img->pivot.x != img->w / 2 || img->pivot
 1933              		.loc 1 459 11 view .LVU680
 1934 0166 8145     		cmp	r9, r0
 1935 0168 0AD0     		beq	.L82
 1936              	.L71:
 1937              	.LBB125:
 474:Middlewares/lvgl/src/widgets/lv_img.c ****             lv_obj_get_click_area(obj, &a);
 1938              		.loc 1 474 13 is_stmt 1 discriminator 5 view .LVU681
 475:Middlewares/lvgl/src/widgets/lv_img.c ****             info->res = _lv_area_is_point_on(&a, info->point, 0);
 1939              		.loc 1 475 13 discriminator 5 view .LVU682
 1940 016a 02A9     		add	r1, sp, #8
 1941 016c 3046     		mov	r0, r6
ARM GAS  /tmp/cc6jSqZn.s 			page 66


 1942 016e FFF7FEFF 		bl	lv_obj_get_click_area
 1943              	.LVL182:
 476:Middlewares/lvgl/src/widgets/lv_img.c ****         }
 1944              		.loc 1 476 13 discriminator 5 view .LVU683
 476:Middlewares/lvgl/src/widgets/lv_img.c ****         }
 1945              		.loc 1 476 25 is_stmt 0 discriminator 5 view .LVU684
 1946 0172 0022     		movs	r2, #0
 1947 0174 2968     		ldr	r1, [r5]
 1948 0176 02A8     		add	r0, sp, #8
 1949 0178 FFF7FEFF 		bl	_lv_area_is_point_on
 1950              	.LVL183:
 476:Middlewares/lvgl/src/widgets/lv_img.c ****         }
 1951              		.loc 1 476 23 discriminator 5 view .LVU685
 1952 017c 2871     		strb	r0, [r5, #4]
 1953 017e 68E7     		b	.L63
 1954              	.L82:
 476:Middlewares/lvgl/src/widgets/lv_img.c ****         }
 1955              		.loc 1 476 23 discriminator 5 view .LVU686
 1956              	.LBE125:
 459:Middlewares/lvgl/src/widgets/lv_img.c ****                 (zoom != LV_IMG_ZOOM_NONE || angle != 0 || img->pivot.x != img->w / 2 || img->pivot
 1957              		.loc 1 459 50 discriminator 1 view .LVU687
 1958 0180 B6F92E90 		ldrsh	r9, [r6, #46]
 459:Middlewares/lvgl/src/widgets/lv_img.c ****                 (zoom != LV_IMG_ZOOM_NONE || angle != 0 || img->pivot.x != img->w / 2 || img->pivot
 1959              		.loc 1 459 57 discriminator 1 view .LVU688
 1960 0184 3046     		mov	r0, r6
 1961 0186 FFF7FEFF 		bl	lv_obj_get_height
 1962              	.LVL184:
 459:Middlewares/lvgl/src/widgets/lv_img.c ****                 (zoom != LV_IMG_ZOOM_NONE || angle != 0 || img->pivot.x != img->w / 2 || img->pivot
 1963              		.loc 1 459 44 discriminator 1 view .LVU689
 1964 018a 8145     		cmp	r9, r0
 1965 018c EDD1     		bne	.L71
 459:Middlewares/lvgl/src/widgets/lv_img.c ****                 (zoom != LV_IMG_ZOOM_NONE || angle != 0 || img->pivot.x != img->w / 2 || img->pivot
 1966              		.loc 1 459 80 discriminator 2 view .LVU690
 1967 018e B4F5807F 		cmp	r4, #256
 1968 0192 09D1     		bne	.L72
 460:Middlewares/lvgl/src/widgets/lv_img.c **** 
 1969              		.loc 1 460 43 view .LVU691
 1970 0194 47B9     		cbnz	r7, .L72
 460:Middlewares/lvgl/src/widgets/lv_img.c **** 
 1971              		.loc 1 460 70 discriminator 1 view .LVU692
 1972 0196 B6F93220 		ldrsh	r2, [r6, #50]
 460:Middlewares/lvgl/src/widgets/lv_img.c **** 
 1973              		.loc 1 460 79 discriminator 1 view .LVU693
 1974 019a B6F92C30 		ldrsh	r3, [r6, #44]
 460:Middlewares/lvgl/src/widgets/lv_img.c **** 
 1975              		.loc 1 460 73 discriminator 1 view .LVU694
 1976 019e 03EBD373 		add	r3, r3, r3, lsr #31
 460:Middlewares/lvgl/src/widgets/lv_img.c **** 
 1977              		.loc 1 460 57 discriminator 1 view .LVU695
 1978 01a2 B2EB630F 		cmp	r2, r3, asr #1
 1979 01a6 2FD0     		beq	.L83
 1980              	.L72:
 1981              	.LBB126:
 462:Middlewares/lvgl/src/widgets/lv_img.c ****             lv_coord_t h = lv_obj_get_height(obj);
 1982              		.loc 1 462 13 is_stmt 1 view .LVU696
 462:Middlewares/lvgl/src/widgets/lv_img.c ****             lv_coord_t h = lv_obj_get_height(obj);
 1983              		.loc 1 462 28 is_stmt 0 view .LVU697
ARM GAS  /tmp/cc6jSqZn.s 			page 67


 1984 01a8 3046     		mov	r0, r6
 1985 01aa FFF7FEFF 		bl	lv_obj_get_width
 1986              	.LVL185:
 1987 01ae 0446     		mov	r4, r0
 1988              	.LVL186:
 463:Middlewares/lvgl/src/widgets/lv_img.c ****             lv_area_t coords;
 1989              		.loc 1 463 13 is_stmt 1 view .LVU698
 463:Middlewares/lvgl/src/widgets/lv_img.c ****             lv_area_t coords;
 1990              		.loc 1 463 28 is_stmt 0 view .LVU699
 1991 01b0 3046     		mov	r0, r6
 1992 01b2 FFF7FEFF 		bl	lv_obj_get_height
 1993              	.LVL187:
 1994 01b6 0246     		mov	r2, r0
 1995              	.LVL188:
 464:Middlewares/lvgl/src/widgets/lv_img.c ****             _lv_img_buf_get_transformed_area(&coords, w, h, angle, zoom, &img->pivot);
 1996              		.loc 1 464 13 is_stmt 1 view .LVU700
 465:Middlewares/lvgl/src/widgets/lv_img.c ****             coords.x1 += obj->coords.x1;
 1997              		.loc 1 465 13 view .LVU701
 465:Middlewares/lvgl/src/widgets/lv_img.c ****             coords.x1 += obj->coords.x1;
 1998              		.loc 1 465 74 is_stmt 0 view .LVU702
 1999 01b8 06F13203 		add	r3, r6, #50
 465:Middlewares/lvgl/src/widgets/lv_img.c ****             coords.x1 += obj->coords.x1;
 2000              		.loc 1 465 13 view .LVU703
 2001 01bc 0193     		str	r3, [sp, #4]
 2002 01be 1FFA88F3 		uxth	r3, r8
 2003 01c2 0093     		str	r3, [sp]
 2004 01c4 3B46     		mov	r3, r7
 2005 01c6 2146     		mov	r1, r4
 2006 01c8 02A8     		add	r0, sp, #8
 2007 01ca FFF7FEFF 		bl	_lv_img_buf_get_transformed_area
 2008              	.LVL189:
 466:Middlewares/lvgl/src/widgets/lv_img.c ****             coords.y1 += obj->coords.y1;
 2009              		.loc 1 466 13 is_stmt 1 view .LVU704
 466:Middlewares/lvgl/src/widgets/lv_img.c ****             coords.y1 += obj->coords.y1;
 2010              		.loc 1 466 37 is_stmt 0 view .LVU705
 2011 01ce B28A     		ldrh	r2, [r6, #20]
 466:Middlewares/lvgl/src/widgets/lv_img.c ****             coords.y1 += obj->coords.y1;
 2012              		.loc 1 466 23 view .LVU706
 2013 01d0 BDF80830 		ldrh	r3, [sp, #8]
 2014 01d4 1344     		add	r3, r3, r2
 2015 01d6 ADF80830 		strh	r3, [sp, #8]	@ movhi
 467:Middlewares/lvgl/src/widgets/lv_img.c ****             coords.x2 += obj->coords.x1;
 2016              		.loc 1 467 13 is_stmt 1 view .LVU707
 467:Middlewares/lvgl/src/widgets/lv_img.c ****             coords.x2 += obj->coords.x1;
 2017              		.loc 1 467 37 is_stmt 0 view .LVU708
 2018 01da F38A     		ldrh	r3, [r6, #22]
 467:Middlewares/lvgl/src/widgets/lv_img.c ****             coords.x2 += obj->coords.x1;
 2019              		.loc 1 467 23 view .LVU709
 2020 01dc BDF80A10 		ldrh	r1, [sp, #10]
 2021 01e0 1944     		add	r1, r1, r3
 2022 01e2 ADF80A10 		strh	r1, [sp, #10]	@ movhi
 468:Middlewares/lvgl/src/widgets/lv_img.c ****             coords.y2 += obj->coords.y1;
 2023              		.loc 1 468 13 is_stmt 1 view .LVU710
 468:Middlewares/lvgl/src/widgets/lv_img.c ****             coords.y2 += obj->coords.y1;
 2024              		.loc 1 468 23 is_stmt 0 view .LVU711
 2025 01e6 BDF80C10 		ldrh	r1, [sp, #12]
 2026 01ea 0A44     		add	r2, r2, r1
ARM GAS  /tmp/cc6jSqZn.s 			page 68


 2027 01ec ADF80C20 		strh	r2, [sp, #12]	@ movhi
 469:Middlewares/lvgl/src/widgets/lv_img.c **** 
 2028              		.loc 1 469 13 is_stmt 1 view .LVU712
 469:Middlewares/lvgl/src/widgets/lv_img.c **** 
 2029              		.loc 1 469 23 is_stmt 0 view .LVU713
 2030 01f0 BDF80E20 		ldrh	r2, [sp, #14]
 2031 01f4 1344     		add	r3, r3, r2
 2032 01f6 ADF80E30 		strh	r3, [sp, #14]	@ movhi
 471:Middlewares/lvgl/src/widgets/lv_img.c ****         }
 2033              		.loc 1 471 13 is_stmt 1 view .LVU714
 471:Middlewares/lvgl/src/widgets/lv_img.c ****         }
 2034              		.loc 1 471 25 is_stmt 0 view .LVU715
 2035 01fa 0022     		movs	r2, #0
 2036 01fc 2968     		ldr	r1, [r5]
 2037 01fe 02A8     		add	r0, sp, #8
 2038 0200 FFF7FEFF 		bl	_lv_area_is_point_on
 2039              	.LVL190:
 471:Middlewares/lvgl/src/widgets/lv_img.c ****         }
 2040              		.loc 1 471 23 view .LVU716
 2041 0204 2871     		strb	r0, [r5, #4]
 2042              	.LBE126:
 460:Middlewares/lvgl/src/widgets/lv_img.c **** 
 2043              		.loc 1 460 119 view .LVU717
 2044 0206 24E7     		b	.L63
 2045              	.LVL191:
 2046              	.L83:
 460:Middlewares/lvgl/src/widgets/lv_img.c **** 
 2047              		.loc 1 460 100 discriminator 2 view .LVU718
 2048 0208 B6F93420 		ldrsh	r2, [r6, #52]
 460:Middlewares/lvgl/src/widgets/lv_img.c **** 
 2049              		.loc 1 460 109 discriminator 2 view .LVU719
 2050 020c B6F92E30 		ldrsh	r3, [r6, #46]
 460:Middlewares/lvgl/src/widgets/lv_img.c **** 
 2051              		.loc 1 460 103 discriminator 2 view .LVU720
 2052 0210 03EBD373 		add	r3, r3, r3, lsr #31
 460:Middlewares/lvgl/src/widgets/lv_img.c **** 
 2053              		.loc 1 460 87 discriminator 2 view .LVU721
 2054 0214 B2EB630F 		cmp	r2, r3, asr #1
 2055 0218 C6D1     		bne	.L72
 2056 021a A6E7     		b	.L71
 2057              	.LVL192:
 2058              	.L80:
 460:Middlewares/lvgl/src/widgets/lv_img.c **** 
 2059              		.loc 1 460 87 discriminator 2 view .LVU722
 2060              	.LBE120:
 2061              	.LBB127:
 480:Middlewares/lvgl/src/widgets/lv_img.c ****         p->x = img->w;
 2062              		.loc 1 480 9 is_stmt 1 view .LVU723
 480:Middlewares/lvgl/src/widgets/lv_img.c ****         p->x = img->w;
 2063              		.loc 1 480 26 is_stmt 0 view .LVU724
 2064 021c 2846     		mov	r0, r5
 2065              	.LVL193:
 480:Middlewares/lvgl/src/widgets/lv_img.c ****         p->x = img->w;
 2066              		.loc 1 480 26 view .LVU725
 2067 021e FFF7FEFF 		bl	lv_event_get_param
 2068              	.LVL194:
 480:Middlewares/lvgl/src/widgets/lv_img.c ****         p->x = img->w;
ARM GAS  /tmp/cc6jSqZn.s 			page 69


 2069              		.loc 1 480 48 is_stmt 1 view .LVU726
 481:Middlewares/lvgl/src/widgets/lv_img.c ****         p->y = img->h;
 2070              		.loc 1 481 9 view .LVU727
 481:Middlewares/lvgl/src/widgets/lv_img.c ****         p->y = img->h;
 2071              		.loc 1 481 19 is_stmt 0 view .LVU728
 2072 0222 B6F92C30 		ldrsh	r3, [r6, #44]
 481:Middlewares/lvgl/src/widgets/lv_img.c ****         p->y = img->h;
 2073              		.loc 1 481 14 view .LVU729
 2074 0226 0380     		strh	r3, [r0]	@ movhi
 482:Middlewares/lvgl/src/widgets/lv_img.c ****     }
 2075              		.loc 1 482 9 is_stmt 1 view .LVU730
 482:Middlewares/lvgl/src/widgets/lv_img.c ****     }
 2076              		.loc 1 482 19 is_stmt 0 view .LVU731
 2077 0228 B6F92E30 		ldrsh	r3, [r6, #46]
 482:Middlewares/lvgl/src/widgets/lv_img.c ****     }
 2078              		.loc 1 482 14 view .LVU732
 2079 022c 4380     		strh	r3, [r0, #2]	@ movhi
 2080              	.LBE127:
 2081 022e 10E7     		b	.L63
 2082              	.L85:
 2083              		.align	2
 2084              	.L84:
 2085 0230 00000000 		.word	.LANCHOR0
 2086              		.cfi_endproc
 2087              	.LFE164:
 2089              		.section	.text.lv_img_set_offset_x,"ax",%progbits
 2090              		.align	1
 2091              		.global	lv_img_set_offset_x
 2092              		.syntax unified
 2093              		.thumb
 2094              		.thumb_func
 2095              		.fpu fpv4-sp-d16
 2097              	lv_img_set_offset_x:
 2098              	.LVL195:
 2099              	.LFB149:
 163:Middlewares/lvgl/src/widgets/lv_img.c ****     LV_ASSERT_OBJ(obj, MY_CLASS);
 2100              		.loc 1 163 1 is_stmt 1 view -0
 2101              		.cfi_startproc
 2102              		@ args = 0, pretend = 0, frame = 0
 2103              		@ frame_needed = 0, uses_anonymous_args = 0
 163:Middlewares/lvgl/src/widgets/lv_img.c ****     LV_ASSERT_OBJ(obj, MY_CLASS);
 2104              		.loc 1 163 1 is_stmt 0 view .LVU734
 2105 0000 08B5     		push	{r3, lr}
 2106              	.LCFI15:
 2107              		.cfi_def_cfa_offset 8
 2108              		.cfi_offset 3, -8
 2109              		.cfi_offset 14, -4
 164:Middlewares/lvgl/src/widgets/lv_img.c **** 
 2110              		.loc 1 164 5 is_stmt 1 view .LVU735
 164:Middlewares/lvgl/src/widgets/lv_img.c **** 
 2111              		.loc 1 164 5 view .LVU736
 164:Middlewares/lvgl/src/widgets/lv_img.c **** 
 2112              		.loc 1 164 5 view .LVU737
 166:Middlewares/lvgl/src/widgets/lv_img.c **** 
 2113              		.loc 1 166 4 view .LVU738
 2114              	.LVL196:
 168:Middlewares/lvgl/src/widgets/lv_img.c **** 
ARM GAS  /tmp/cc6jSqZn.s 			page 70


