ARM GAS  /tmp/ccwx3eYd.s 			page 1


   1              		.cpu cortex-m4
   2              		.eabi_attribute 27, 1
   3              		.eabi_attribute 28, 1
   4              		.eabi_attribute 20, 1
   5              		.eabi_attribute 21, 1
   6              		.eabi_attribute 23, 3
   7              		.eabi_attribute 24, 1
   8              		.eabi_attribute 25, 1
   9              		.eabi_attribute 26, 1
  10              		.eabi_attribute 30, 1
  11              		.eabi_attribute 34, 1
  12              		.eabi_attribute 18, 4
  13              		.file	"lv_theme_basic.c"
  14              		.text
  15              	.Ltext0:
  16              		.cfi_sections	.debug_frame
  17              		.section	.text.grey_filter_cb,"ax",%progbits
  18              		.align	1
  19              		.arch armv7e-m
  20              		.syntax unified
  21              		.thumb
  22              		.thumb_func
  23              		.fpu fpv4-sp-d16
  25              	grey_filter_cb:
  26              	.LVL0:
  27              	.LFB185:
  28              		.file 1 "Middlewares/lvgl/src/extra/themes/basic/lv_theme_basic.c"
   1:Middlewares/lvgl/src/extra/themes/basic/lv_theme_basic.c **** /**
   2:Middlewares/lvgl/src/extra/themes/basic/lv_theme_basic.c ****  * @file lv_theme_basic.c
   3:Middlewares/lvgl/src/extra/themes/basic/lv_theme_basic.c ****  *
   4:Middlewares/lvgl/src/extra/themes/basic/lv_theme_basic.c ****  */
   5:Middlewares/lvgl/src/extra/themes/basic/lv_theme_basic.c **** 
   6:Middlewares/lvgl/src/extra/themes/basic/lv_theme_basic.c **** /*********************
   7:Middlewares/lvgl/src/extra/themes/basic/lv_theme_basic.c ****  *      INCLUDES
   8:Middlewares/lvgl/src/extra/themes/basic/lv_theme_basic.c ****  *********************/
   9:Middlewares/lvgl/src/extra/themes/basic/lv_theme_basic.c **** #include "../../../lvgl.h" /*To see all the widgets*/
  10:Middlewares/lvgl/src/extra/themes/basic/lv_theme_basic.c **** 
  11:Middlewares/lvgl/src/extra/themes/basic/lv_theme_basic.c **** #if LV_USE_THEME_BASIC
  12:Middlewares/lvgl/src/extra/themes/basic/lv_theme_basic.c **** 
  13:Middlewares/lvgl/src/extra/themes/basic/lv_theme_basic.c **** #include "lv_theme_basic.h"
  14:Middlewares/lvgl/src/extra/themes/basic/lv_theme_basic.c **** #include "../../../misc/lv_gc.h"
  15:Middlewares/lvgl/src/extra/themes/basic/lv_theme_basic.c **** 
  16:Middlewares/lvgl/src/extra/themes/basic/lv_theme_basic.c **** /*********************
  17:Middlewares/lvgl/src/extra/themes/basic/lv_theme_basic.c ****  *      DEFINES
  18:Middlewares/lvgl/src/extra/themes/basic/lv_theme_basic.c ****  *********************/
  19:Middlewares/lvgl/src/extra/themes/basic/lv_theme_basic.c **** 
  20:Middlewares/lvgl/src/extra/themes/basic/lv_theme_basic.c **** #define COLOR_WHITE   lv_color_white()
  21:Middlewares/lvgl/src/extra/themes/basic/lv_theme_basic.c **** #define COLOR_LIGHT   lv_palette_lighten(LV_PALETTE_GREY, 3)
  22:Middlewares/lvgl/src/extra/themes/basic/lv_theme_basic.c **** #define COLOR_MID     lv_palette_lighten(LV_PALETTE_GREY, 1)
  23:Middlewares/lvgl/src/extra/themes/basic/lv_theme_basic.c **** #define COLOR_DARK    lv_palette_main(LV_PALETTE_GREY)
  24:Middlewares/lvgl/src/extra/themes/basic/lv_theme_basic.c **** #define COLOR_DIM     lv_palette_darken(LV_PALETTE_GREY, 2)
  25:Middlewares/lvgl/src/extra/themes/basic/lv_theme_basic.c **** #define PAD_DEF       LV_DPX(5)
  26:Middlewares/lvgl/src/extra/themes/basic/lv_theme_basic.c **** 
  27:Middlewares/lvgl/src/extra/themes/basic/lv_theme_basic.c **** /**********************
  28:Middlewares/lvgl/src/extra/themes/basic/lv_theme_basic.c ****  *      TYPEDEFS
  29:Middlewares/lvgl/src/extra/themes/basic/lv_theme_basic.c ****  **********************/
  30:Middlewares/lvgl/src/extra/themes/basic/lv_theme_basic.c **** typedef struct {
ARM GAS  /tmp/ccwx3eYd.s 			page 2


  31:Middlewares/lvgl/src/extra/themes/basic/lv_theme_basic.c ****     lv_style_t scr;
  32:Middlewares/lvgl/src/extra/themes/basic/lv_theme_basic.c ****     lv_style_t light;
  33:Middlewares/lvgl/src/extra/themes/basic/lv_theme_basic.c ****     lv_style_t dark;
  34:Middlewares/lvgl/src/extra/themes/basic/lv_theme_basic.c ****     lv_style_t scrollbar;
  35:Middlewares/lvgl/src/extra/themes/basic/lv_theme_basic.c ****     lv_style_t pressed;
  36:Middlewares/lvgl/src/extra/themes/basic/lv_theme_basic.c ****     lv_style_t disabled;
  37:Middlewares/lvgl/src/extra/themes/basic/lv_theme_basic.c ****     lv_style_t pad_zero;
  38:Middlewares/lvgl/src/extra/themes/basic/lv_theme_basic.c **** #if LV_USE_TEXTAREA
  39:Middlewares/lvgl/src/extra/themes/basic/lv_theme_basic.c ****     lv_style_t ta_cursor;
  40:Middlewares/lvgl/src/extra/themes/basic/lv_theme_basic.c **** #endif
  41:Middlewares/lvgl/src/extra/themes/basic/lv_theme_basic.c **** } my_theme_styles_t;
  42:Middlewares/lvgl/src/extra/themes/basic/lv_theme_basic.c **** 
  43:Middlewares/lvgl/src/extra/themes/basic/lv_theme_basic.c **** 
  44:Middlewares/lvgl/src/extra/themes/basic/lv_theme_basic.c **** /**********************
  45:Middlewares/lvgl/src/extra/themes/basic/lv_theme_basic.c ****  *  STATIC PROTOTYPES
  46:Middlewares/lvgl/src/extra/themes/basic/lv_theme_basic.c ****  **********************/
  47:Middlewares/lvgl/src/extra/themes/basic/lv_theme_basic.c **** static void style_init_reset(lv_style_t * style);
  48:Middlewares/lvgl/src/extra/themes/basic/lv_theme_basic.c **** static void theme_apply(lv_theme_t * th, lv_obj_t * obj);
  49:Middlewares/lvgl/src/extra/themes/basic/lv_theme_basic.c **** 
  50:Middlewares/lvgl/src/extra/themes/basic/lv_theme_basic.c **** /**********************
  51:Middlewares/lvgl/src/extra/themes/basic/lv_theme_basic.c ****  *  STATIC VARIABLES
  52:Middlewares/lvgl/src/extra/themes/basic/lv_theme_basic.c ****  **********************/
  53:Middlewares/lvgl/src/extra/themes/basic/lv_theme_basic.c **** static my_theme_styles_t * styles;
  54:Middlewares/lvgl/src/extra/themes/basic/lv_theme_basic.c **** static lv_theme_t theme;
  55:Middlewares/lvgl/src/extra/themes/basic/lv_theme_basic.c **** static bool inited;
  56:Middlewares/lvgl/src/extra/themes/basic/lv_theme_basic.c **** 
  57:Middlewares/lvgl/src/extra/themes/basic/lv_theme_basic.c **** /**********************
  58:Middlewares/lvgl/src/extra/themes/basic/lv_theme_basic.c ****  *      MACROS
  59:Middlewares/lvgl/src/extra/themes/basic/lv_theme_basic.c ****  **********************/
  60:Middlewares/lvgl/src/extra/themes/basic/lv_theme_basic.c **** 
  61:Middlewares/lvgl/src/extra/themes/basic/lv_theme_basic.c **** /**********************
  62:Middlewares/lvgl/src/extra/themes/basic/lv_theme_basic.c ****  *   STATIC FUNCTIONS
  63:Middlewares/lvgl/src/extra/themes/basic/lv_theme_basic.c ****  **********************/
  64:Middlewares/lvgl/src/extra/themes/basic/lv_theme_basic.c **** 
  65:Middlewares/lvgl/src/extra/themes/basic/lv_theme_basic.c **** static lv_color_t dark_color_filter_cb(const lv_color_filter_dsc_t * f, lv_color_t c, lv_opa_t opa)
  66:Middlewares/lvgl/src/extra/themes/basic/lv_theme_basic.c **** {
  67:Middlewares/lvgl/src/extra/themes/basic/lv_theme_basic.c ****     LV_UNUSED(f);
  68:Middlewares/lvgl/src/extra/themes/basic/lv_theme_basic.c ****     return lv_color_darken(c, opa);
  69:Middlewares/lvgl/src/extra/themes/basic/lv_theme_basic.c **** }
  70:Middlewares/lvgl/src/extra/themes/basic/lv_theme_basic.c **** 
  71:Middlewares/lvgl/src/extra/themes/basic/lv_theme_basic.c **** 
  72:Middlewares/lvgl/src/extra/themes/basic/lv_theme_basic.c **** static lv_color_t grey_filter_cb(const lv_color_filter_dsc_t * f, lv_color_t color, lv_opa_t opa)
  73:Middlewares/lvgl/src/extra/themes/basic/lv_theme_basic.c **** {
  29              		.loc 1 73 1 view -0
  30              		.cfi_startproc
  31              		@ args = 0, pretend = 0, frame = 0
  32              		@ frame_needed = 0, uses_anonymous_args = 0
  33              		.loc 1 73 1 is_stmt 0 view .LVU1
  34 0000 10B5     		push	{r4, lr}
  35              	.LCFI0:
  36              		.cfi_def_cfa_offset 8
  37              		.cfi_offset 4, -8
  38              		.cfi_offset 14, -4
  74:Middlewares/lvgl/src/extra/themes/basic/lv_theme_basic.c ****     LV_UNUSED(f);
  39              		.loc 1 74 5 is_stmt 1 view .LVU2
  75:Middlewares/lvgl/src/extra/themes/basic/lv_theme_basic.c ****     return lv_color_mix(lv_color_white(), color, opa);
  40              		.loc 1 75 5 view .LVU3
ARM GAS  /tmp/ccwx3eYd.s 			page 3


  41              	.LBB21:
  42              	.LBI21:
  43              		.file 2 "Middlewares/lvgl/src/extra/themes/basic/../../../../src/hal/../misc/lv_color.h"
   1:Middlewares/lvgl/src/extra/themes/basic/../../../../src/hal/../misc/lv_color.h **** /**
   2:Middlewares/lvgl/src/extra/themes/basic/../../../../src/hal/../misc/lv_color.h ****  * @file lv_color.h
   3:Middlewares/lvgl/src/extra/themes/basic/../../../../src/hal/../misc/lv_color.h ****  *
   4:Middlewares/lvgl/src/extra/themes/basic/../../../../src/hal/../misc/lv_color.h ****  */
   5:Middlewares/lvgl/src/extra/themes/basic/../../../../src/hal/../misc/lv_color.h **** 
   6:Middlewares/lvgl/src/extra/themes/basic/../../../../src/hal/../misc/lv_color.h **** #ifndef LV_COLOR_H
   7:Middlewares/lvgl/src/extra/themes/basic/../../../../src/hal/../misc/lv_color.h **** #define LV_COLOR_H
   8:Middlewares/lvgl/src/extra/themes/basic/../../../../src/hal/../misc/lv_color.h **** 
   9:Middlewares/lvgl/src/extra/themes/basic/../../../../src/hal/../misc/lv_color.h **** #ifdef __cplusplus
  10:Middlewares/lvgl/src/extra/themes/basic/../../../../src/hal/../misc/lv_color.h **** extern "C" {
  11:Middlewares/lvgl/src/extra/themes/basic/../../../../src/hal/../misc/lv_color.h **** #endif
  12:Middlewares/lvgl/src/extra/themes/basic/../../../../src/hal/../misc/lv_color.h **** 
  13:Middlewares/lvgl/src/extra/themes/basic/../../../../src/hal/../misc/lv_color.h **** /*********************
  14:Middlewares/lvgl/src/extra/themes/basic/../../../../src/hal/../misc/lv_color.h ****  *      INCLUDES
  15:Middlewares/lvgl/src/extra/themes/basic/../../../../src/hal/../misc/lv_color.h ****  *********************/
  16:Middlewares/lvgl/src/extra/themes/basic/../../../../src/hal/../misc/lv_color.h **** #include "../lv_conf_internal.h"
  17:Middlewares/lvgl/src/extra/themes/basic/../../../../src/hal/../misc/lv_color.h **** #include "lv_math.h"
  18:Middlewares/lvgl/src/extra/themes/basic/../../../../src/hal/../misc/lv_color.h **** #include "lv_types.h"
  19:Middlewares/lvgl/src/extra/themes/basic/../../../../src/hal/../misc/lv_color.h **** 
  20:Middlewares/lvgl/src/extra/themes/basic/../../../../src/hal/../misc/lv_color.h **** /*Error checking*/
  21:Middlewares/lvgl/src/extra/themes/basic/../../../../src/hal/../misc/lv_color.h **** #if LV_COLOR_DEPTH == 24
  22:Middlewares/lvgl/src/extra/themes/basic/../../../../src/hal/../misc/lv_color.h **** #error "LV_COLOR_DEPTH 24 is deprecated. Use LV_COLOR_DEPTH 32 instead (lv_conf.h)"
  23:Middlewares/lvgl/src/extra/themes/basic/../../../../src/hal/../misc/lv_color.h **** #endif
  24:Middlewares/lvgl/src/extra/themes/basic/../../../../src/hal/../misc/lv_color.h **** 
  25:Middlewares/lvgl/src/extra/themes/basic/../../../../src/hal/../misc/lv_color.h **** #if LV_COLOR_DEPTH != 32 && LV_COLOR_SCREEN_TRANSP != 0
  26:Middlewares/lvgl/src/extra/themes/basic/../../../../src/hal/../misc/lv_color.h **** #error "LV_COLOR_SCREEN_TRANSP requires LV_COLOR_DEPTH == 32. Set it in lv_conf.h"
  27:Middlewares/lvgl/src/extra/themes/basic/../../../../src/hal/../misc/lv_color.h **** #endif
  28:Middlewares/lvgl/src/extra/themes/basic/../../../../src/hal/../misc/lv_color.h **** 
  29:Middlewares/lvgl/src/extra/themes/basic/../../../../src/hal/../misc/lv_color.h **** #if LV_COLOR_DEPTH != 16 && LV_COLOR_16_SWAP != 0
  30:Middlewares/lvgl/src/extra/themes/basic/../../../../src/hal/../misc/lv_color.h **** #error "LV_COLOR_16_SWAP requires LV_COLOR_DEPTH == 16. Set it in lv_conf.h"
  31:Middlewares/lvgl/src/extra/themes/basic/../../../../src/hal/../misc/lv_color.h **** #endif
  32:Middlewares/lvgl/src/extra/themes/basic/../../../../src/hal/../misc/lv_color.h **** 
  33:Middlewares/lvgl/src/extra/themes/basic/../../../../src/hal/../misc/lv_color.h **** #include <stdint.h>
  34:Middlewares/lvgl/src/extra/themes/basic/../../../../src/hal/../misc/lv_color.h **** 
  35:Middlewares/lvgl/src/extra/themes/basic/../../../../src/hal/../misc/lv_color.h **** /*********************
  36:Middlewares/lvgl/src/extra/themes/basic/../../../../src/hal/../misc/lv_color.h ****  *      DEFINES
  37:Middlewares/lvgl/src/extra/themes/basic/../../../../src/hal/../misc/lv_color.h ****  *********************/
  38:Middlewares/lvgl/src/extra/themes/basic/../../../../src/hal/../misc/lv_color.h **** 
  39:Middlewares/lvgl/src/extra/themes/basic/../../../../src/hal/../misc/lv_color.h **** /**
  40:Middlewares/lvgl/src/extra/themes/basic/../../../../src/hal/../misc/lv_color.h ****  * Opacity percentages.
  41:Middlewares/lvgl/src/extra/themes/basic/../../../../src/hal/../misc/lv_color.h ****  */
  42:Middlewares/lvgl/src/extra/themes/basic/../../../../src/hal/../misc/lv_color.h **** enum {
  43:Middlewares/lvgl/src/extra/themes/basic/../../../../src/hal/../misc/lv_color.h ****     LV_OPA_TRANSP = 0,
  44:Middlewares/lvgl/src/extra/themes/basic/../../../../src/hal/../misc/lv_color.h ****     LV_OPA_0      = 0,
  45:Middlewares/lvgl/src/extra/themes/basic/../../../../src/hal/../misc/lv_color.h ****     LV_OPA_10     = 25,
  46:Middlewares/lvgl/src/extra/themes/basic/../../../../src/hal/../misc/lv_color.h ****     LV_OPA_20     = 51,
  47:Middlewares/lvgl/src/extra/themes/basic/../../../../src/hal/../misc/lv_color.h ****     LV_OPA_30     = 76,
  48:Middlewares/lvgl/src/extra/themes/basic/../../../../src/hal/../misc/lv_color.h ****     LV_OPA_40     = 102,
  49:Middlewares/lvgl/src/extra/themes/basic/../../../../src/hal/../misc/lv_color.h ****     LV_OPA_50     = 127,
  50:Middlewares/lvgl/src/extra/themes/basic/../../../../src/hal/../misc/lv_color.h ****     LV_OPA_60     = 153,
  51:Middlewares/lvgl/src/extra/themes/basic/../../../../src/hal/../misc/lv_color.h ****     LV_OPA_70     = 178,
  52:Middlewares/lvgl/src/extra/themes/basic/../../../../src/hal/../misc/lv_color.h ****     LV_OPA_80     = 204,
  53:Middlewares/lvgl/src/extra/themes/basic/../../../../src/hal/../misc/lv_color.h ****     LV_OPA_90     = 229,
  54:Middlewares/lvgl/src/extra/themes/basic/../../../../src/hal/../misc/lv_color.h ****     LV_OPA_100    = 255,
ARM GAS  /tmp/ccwx3eYd.s 			page 4


  55:Middlewares/lvgl/src/extra/themes/basic/../../../../src/hal/../misc/lv_color.h ****     LV_OPA_COVER  = 255,
  56:Middlewares/lvgl/src/extra/themes/basic/../../../../src/hal/../misc/lv_color.h **** };
  57:Middlewares/lvgl/src/extra/themes/basic/../../../../src/hal/../misc/lv_color.h **** 
  58:Middlewares/lvgl/src/extra/themes/basic/../../../../src/hal/../misc/lv_color.h **** #define LV_OPA_MIN 2    /*Opacities below this will be transparent*/
  59:Middlewares/lvgl/src/extra/themes/basic/../../../../src/hal/../misc/lv_color.h **** #define LV_OPA_MAX 253  /*Opacities above this will fully cover*/
  60:Middlewares/lvgl/src/extra/themes/basic/../../../../src/hal/../misc/lv_color.h **** 
  61:Middlewares/lvgl/src/extra/themes/basic/../../../../src/hal/../misc/lv_color.h **** #if LV_COLOR_DEPTH == 1
  62:Middlewares/lvgl/src/extra/themes/basic/../../../../src/hal/../misc/lv_color.h **** #define LV_COLOR_SIZE 8
  63:Middlewares/lvgl/src/extra/themes/basic/../../../../src/hal/../misc/lv_color.h **** #elif LV_COLOR_DEPTH == 8
  64:Middlewares/lvgl/src/extra/themes/basic/../../../../src/hal/../misc/lv_color.h **** #define LV_COLOR_SIZE 8
  65:Middlewares/lvgl/src/extra/themes/basic/../../../../src/hal/../misc/lv_color.h **** #elif LV_COLOR_DEPTH == 16
  66:Middlewares/lvgl/src/extra/themes/basic/../../../../src/hal/../misc/lv_color.h **** #define LV_COLOR_SIZE 16
  67:Middlewares/lvgl/src/extra/themes/basic/../../../../src/hal/../misc/lv_color.h **** #elif LV_COLOR_DEPTH == 32
  68:Middlewares/lvgl/src/extra/themes/basic/../../../../src/hal/../misc/lv_color.h **** #define LV_COLOR_SIZE 32
  69:Middlewares/lvgl/src/extra/themes/basic/../../../../src/hal/../misc/lv_color.h **** #else
  70:Middlewares/lvgl/src/extra/themes/basic/../../../../src/hal/../misc/lv_color.h **** #error "Invalid LV_COLOR_DEPTH in lv_conf.h! Set it to 1, 8, 16 or 32!"
  71:Middlewares/lvgl/src/extra/themes/basic/../../../../src/hal/../misc/lv_color.h **** #endif
  72:Middlewares/lvgl/src/extra/themes/basic/../../../../src/hal/../misc/lv_color.h **** 
  73:Middlewares/lvgl/src/extra/themes/basic/../../../../src/hal/../misc/lv_color.h **** /**
  74:Middlewares/lvgl/src/extra/themes/basic/../../../../src/hal/../misc/lv_color.h ****  * Adjust color mix functions rounding.
  75:Middlewares/lvgl/src/extra/themes/basic/../../../../src/hal/../misc/lv_color.h ****  * GPUs might calculate color mix (blending) differently.
  76:Middlewares/lvgl/src/extra/themes/basic/../../../../src/hal/../misc/lv_color.h ****  * Should be in range of 0..254
  77:Middlewares/lvgl/src/extra/themes/basic/../../../../src/hal/../misc/lv_color.h ****  * 0: no adjustment, get the integer part of the result (round down)
  78:Middlewares/lvgl/src/extra/themes/basic/../../../../src/hal/../misc/lv_color.h ****  * 64: round up from x.75
  79:Middlewares/lvgl/src/extra/themes/basic/../../../../src/hal/../misc/lv_color.h ****  * 128: round up from half
  80:Middlewares/lvgl/src/extra/themes/basic/../../../../src/hal/../misc/lv_color.h ****  * 192: round up from x.25
  81:Middlewares/lvgl/src/extra/themes/basic/../../../../src/hal/../misc/lv_color.h ****  * 254: round up*/
  82:Middlewares/lvgl/src/extra/themes/basic/../../../../src/hal/../misc/lv_color.h **** #ifndef LV_COLOR_MIX_ROUND_OFS
  83:Middlewares/lvgl/src/extra/themes/basic/../../../../src/hal/../misc/lv_color.h **** #if LV_COLOR_DEPTH == 32
  84:Middlewares/lvgl/src/extra/themes/basic/../../../../src/hal/../misc/lv_color.h **** #define LV_COLOR_MIX_ROUND_OFS 0
  85:Middlewares/lvgl/src/extra/themes/basic/../../../../src/hal/../misc/lv_color.h **** #else
  86:Middlewares/lvgl/src/extra/themes/basic/../../../../src/hal/../misc/lv_color.h **** #define LV_COLOR_MIX_ROUND_OFS 128
  87:Middlewares/lvgl/src/extra/themes/basic/../../../../src/hal/../misc/lv_color.h **** #endif
  88:Middlewares/lvgl/src/extra/themes/basic/../../../../src/hal/../misc/lv_color.h **** #endif
  89:Middlewares/lvgl/src/extra/themes/basic/../../../../src/hal/../misc/lv_color.h **** 
  90:Middlewares/lvgl/src/extra/themes/basic/../../../../src/hal/../misc/lv_color.h **** #if defined(__cplusplus) && !defined(_LV_COLOR_HAS_MODERN_CPP)
  91:Middlewares/lvgl/src/extra/themes/basic/../../../../src/hal/../misc/lv_color.h **** /**
  92:Middlewares/lvgl/src/extra/themes/basic/../../../../src/hal/../misc/lv_color.h **** * MSVC compiler's definition of the __cplusplus indicating 199711L regardless to C++ standard versi
  93:Middlewares/lvgl/src/extra/themes/basic/../../../../src/hal/../misc/lv_color.h **** * see https://devblogs.microsoft.com/cppblog/msvc-now-correctly-reports-cplusplus
  94:Middlewares/lvgl/src/extra/themes/basic/../../../../src/hal/../misc/lv_color.h **** * so we use _MSC_VER macro instead of __cplusplus
  95:Middlewares/lvgl/src/extra/themes/basic/../../../../src/hal/../misc/lv_color.h **** */
  96:Middlewares/lvgl/src/extra/themes/basic/../../../../src/hal/../misc/lv_color.h **** #ifdef _MSC_VER
  97:Middlewares/lvgl/src/extra/themes/basic/../../../../src/hal/../misc/lv_color.h **** #if _MSC_VER >= 1900 /*Visual Studio 2015*/
  98:Middlewares/lvgl/src/extra/themes/basic/../../../../src/hal/../misc/lv_color.h **** #define _LV_COLOR_HAS_MODERN_CPP 1
  99:Middlewares/lvgl/src/extra/themes/basic/../../../../src/hal/../misc/lv_color.h **** #endif
 100:Middlewares/lvgl/src/extra/themes/basic/../../../../src/hal/../misc/lv_color.h **** #else
 101:Middlewares/lvgl/src/extra/themes/basic/../../../../src/hal/../misc/lv_color.h **** #if __cplusplus >= 201103L
 102:Middlewares/lvgl/src/extra/themes/basic/../../../../src/hal/../misc/lv_color.h **** #define _LV_COLOR_HAS_MODERN_CPP 1
 103:Middlewares/lvgl/src/extra/themes/basic/../../../../src/hal/../misc/lv_color.h **** #endif
 104:Middlewares/lvgl/src/extra/themes/basic/../../../../src/hal/../misc/lv_color.h **** #endif
 105:Middlewares/lvgl/src/extra/themes/basic/../../../../src/hal/../misc/lv_color.h **** #endif /*__cplusplus*/
 106:Middlewares/lvgl/src/extra/themes/basic/../../../../src/hal/../misc/lv_color.h **** 
 107:Middlewares/lvgl/src/extra/themes/basic/../../../../src/hal/../misc/lv_color.h **** #ifndef _LV_COLOR_HAS_MODERN_CPP
 108:Middlewares/lvgl/src/extra/themes/basic/../../../../src/hal/../misc/lv_color.h **** #define _LV_COLOR_HAS_MODERN_CPP 0
 109:Middlewares/lvgl/src/extra/themes/basic/../../../../src/hal/../misc/lv_color.h **** #endif
 110:Middlewares/lvgl/src/extra/themes/basic/../../../../src/hal/../misc/lv_color.h **** 
 111:Middlewares/lvgl/src/extra/themes/basic/../../../../src/hal/../misc/lv_color.h **** #if _LV_COLOR_HAS_MODERN_CPP
ARM GAS  /tmp/ccwx3eYd.s 			page 5


 112:Middlewares/lvgl/src/extra/themes/basic/../../../../src/hal/../misc/lv_color.h **** /*Fix msvc compiler error C4576 inside C++ code*/
 113:Middlewares/lvgl/src/extra/themes/basic/../../../../src/hal/../misc/lv_color.h **** #define _LV_COLOR_MAKE_TYPE_HELPER lv_color_t
 114:Middlewares/lvgl/src/extra/themes/basic/../../../../src/hal/../misc/lv_color.h **** #else
 115:Middlewares/lvgl/src/extra/themes/basic/../../../../src/hal/../misc/lv_color.h **** #define _LV_COLOR_MAKE_TYPE_HELPER (lv_color_t)
 116:Middlewares/lvgl/src/extra/themes/basic/../../../../src/hal/../misc/lv_color.h **** #endif
 117:Middlewares/lvgl/src/extra/themes/basic/../../../../src/hal/../misc/lv_color.h **** 
 118:Middlewares/lvgl/src/extra/themes/basic/../../../../src/hal/../misc/lv_color.h **** /*---------------------------------------
 119:Middlewares/lvgl/src/extra/themes/basic/../../../../src/hal/../misc/lv_color.h ****  * Macros for all existing color depths
 120:Middlewares/lvgl/src/extra/themes/basic/../../../../src/hal/../misc/lv_color.h ****  * to set/get values of the color channels
 121:Middlewares/lvgl/src/extra/themes/basic/../../../../src/hal/../misc/lv_color.h ****  *------------------------------------------*/
 122:Middlewares/lvgl/src/extra/themes/basic/../../../../src/hal/../misc/lv_color.h **** # define LV_COLOR_SET_R1(c, v) (c).ch.red = (uint8_t)((v) & 0x1)
 123:Middlewares/lvgl/src/extra/themes/basic/../../../../src/hal/../misc/lv_color.h **** # define LV_COLOR_SET_G1(c, v) (c).ch.green = (uint8_t)((v) & 0x1)
 124:Middlewares/lvgl/src/extra/themes/basic/../../../../src/hal/../misc/lv_color.h **** # define LV_COLOR_SET_B1(c, v) (c).ch.blue = (uint8_t)((v) & 0x1)
 125:Middlewares/lvgl/src/extra/themes/basic/../../../../src/hal/../misc/lv_color.h **** # define LV_COLOR_SET_A1(c, v) do {} while(0)
 126:Middlewares/lvgl/src/extra/themes/basic/../../../../src/hal/../misc/lv_color.h **** 
 127:Middlewares/lvgl/src/extra/themes/basic/../../../../src/hal/../misc/lv_color.h **** # define LV_COLOR_GET_R1(c) (c).ch.red
 128:Middlewares/lvgl/src/extra/themes/basic/../../../../src/hal/../misc/lv_color.h **** # define LV_COLOR_GET_G1(c) (c).ch.green
 129:Middlewares/lvgl/src/extra/themes/basic/../../../../src/hal/../misc/lv_color.h **** # define LV_COLOR_GET_B1(c) (c).ch.blue
 130:Middlewares/lvgl/src/extra/themes/basic/../../../../src/hal/../misc/lv_color.h **** # define LV_COLOR_GET_A1(c) 0xFF
 131:Middlewares/lvgl/src/extra/themes/basic/../../../../src/hal/../misc/lv_color.h **** 
 132:Middlewares/lvgl/src/extra/themes/basic/../../../../src/hal/../misc/lv_color.h **** # define _LV_COLOR_ZERO_INITIALIZER1 {0x00}
 133:Middlewares/lvgl/src/extra/themes/basic/../../../../src/hal/../misc/lv_color.h **** # define LV_COLOR_MAKE1(r8, g8, b8)  {(uint8_t)((b8 >> 7) | (g8 >> 7) | (r8 >> 7))}
 134:Middlewares/lvgl/src/extra/themes/basic/../../../../src/hal/../misc/lv_color.h **** 
 135:Middlewares/lvgl/src/extra/themes/basic/../../../../src/hal/../misc/lv_color.h **** # define LV_COLOR_SET_R8(c, v) (c).ch.red = (uint8_t)((v) & 0x7U)
 136:Middlewares/lvgl/src/extra/themes/basic/../../../../src/hal/../misc/lv_color.h **** # define LV_COLOR_SET_G8(c, v) (c).ch.green = (uint8_t)((v) & 0x7U)
 137:Middlewares/lvgl/src/extra/themes/basic/../../../../src/hal/../misc/lv_color.h **** # define LV_COLOR_SET_B8(c, v) (c).ch.blue = (uint8_t)((v) & 0x3U)
 138:Middlewares/lvgl/src/extra/themes/basic/../../../../src/hal/../misc/lv_color.h **** # define LV_COLOR_SET_A8(c, v) do {} while(0)
 139:Middlewares/lvgl/src/extra/themes/basic/../../../../src/hal/../misc/lv_color.h **** 
 140:Middlewares/lvgl/src/extra/themes/basic/../../../../src/hal/../misc/lv_color.h **** # define LV_COLOR_GET_R8(c) (c).ch.red
 141:Middlewares/lvgl/src/extra/themes/basic/../../../../src/hal/../misc/lv_color.h **** # define LV_COLOR_GET_G8(c) (c).ch.green
 142:Middlewares/lvgl/src/extra/themes/basic/../../../../src/hal/../misc/lv_color.h **** # define LV_COLOR_GET_B8(c) (c).ch.blue
 143:Middlewares/lvgl/src/extra/themes/basic/../../../../src/hal/../misc/lv_color.h **** # define LV_COLOR_GET_A8(c) 0xFF
 144:Middlewares/lvgl/src/extra/themes/basic/../../../../src/hal/../misc/lv_color.h **** 
 145:Middlewares/lvgl/src/extra/themes/basic/../../../../src/hal/../misc/lv_color.h **** # define _LV_COLOR_ZERO_INITIALIZER8 _LV_COLOR_MAKE_TYPE_HELPER {{0x00, 0x00, 0x00}}
 146:Middlewares/lvgl/src/extra/themes/basic/../../../../src/hal/../misc/lv_color.h **** # define LV_COLOR_MAKE8(r8, g8, b8) _LV_COLOR_MAKE_TYPE_HELPER  {{(uint8_t)((b8 >> 6) & 0x3U), (uin
 147:Middlewares/lvgl/src/extra/themes/basic/../../../../src/hal/../misc/lv_color.h **** 
 148:Middlewares/lvgl/src/extra/themes/basic/../../../../src/hal/../misc/lv_color.h **** # define LV_COLOR_SET_R16(c, v) (c).ch.red = (uint8_t)((v) & 0x1FU)
 149:Middlewares/lvgl/src/extra/themes/basic/../../../../src/hal/../misc/lv_color.h **** #if LV_COLOR_16_SWAP == 0
 150:Middlewares/lvgl/src/extra/themes/basic/../../../../src/hal/../misc/lv_color.h **** # define LV_COLOR_SET_G16(c, v) (c).ch.green = (uint8_t)((v) & 0x3FU)
 151:Middlewares/lvgl/src/extra/themes/basic/../../../../src/hal/../misc/lv_color.h **** #else
 152:Middlewares/lvgl/src/extra/themes/basic/../../../../src/hal/../misc/lv_color.h **** # define LV_COLOR_SET_G16(c, v) {(c).ch.green_h = (uint8_t)(((v) >> 3) & 0x7); (c).ch.green_l = (ui
 153:Middlewares/lvgl/src/extra/themes/basic/../../../../src/hal/../misc/lv_color.h **** #endif
 154:Middlewares/lvgl/src/extra/themes/basic/../../../../src/hal/../misc/lv_color.h **** # define LV_COLOR_SET_B16(c, v) (c).ch.blue = (uint8_t)((v) & 0x1FU)
 155:Middlewares/lvgl/src/extra/themes/basic/../../../../src/hal/../misc/lv_color.h **** # define LV_COLOR_SET_A16(c, v) do {} while(0)
 156:Middlewares/lvgl/src/extra/themes/basic/../../../../src/hal/../misc/lv_color.h **** 
 157:Middlewares/lvgl/src/extra/themes/basic/../../../../src/hal/../misc/lv_color.h **** # define LV_COLOR_GET_R16(c) (c).ch.red
 158:Middlewares/lvgl/src/extra/themes/basic/../../../../src/hal/../misc/lv_color.h **** #if LV_COLOR_16_SWAP == 0
 159:Middlewares/lvgl/src/extra/themes/basic/../../../../src/hal/../misc/lv_color.h **** # define LV_COLOR_GET_G16(c) (c).ch.green
 160:Middlewares/lvgl/src/extra/themes/basic/../../../../src/hal/../misc/lv_color.h **** #else
 161:Middlewares/lvgl/src/extra/themes/basic/../../../../src/hal/../misc/lv_color.h **** # define LV_COLOR_GET_G16(c) (((c).ch.green_h << 3) + (c).ch.green_l)
 162:Middlewares/lvgl/src/extra/themes/basic/../../../../src/hal/../misc/lv_color.h **** #endif
 163:Middlewares/lvgl/src/extra/themes/basic/../../../../src/hal/../misc/lv_color.h **** # define LV_COLOR_GET_B16(c) (c).ch.blue
 164:Middlewares/lvgl/src/extra/themes/basic/../../../../src/hal/../misc/lv_color.h **** # define LV_COLOR_GET_A16(c) 0xFF
 165:Middlewares/lvgl/src/extra/themes/basic/../../../../src/hal/../misc/lv_color.h **** 
 166:Middlewares/lvgl/src/extra/themes/basic/../../../../src/hal/../misc/lv_color.h **** #if LV_COLOR_16_SWAP == 0
 167:Middlewares/lvgl/src/extra/themes/basic/../../../../src/hal/../misc/lv_color.h **** # define _LV_COLOR_ZERO_INITIALIZER16  {{0x00, 0x00, 0x00}}
 168:Middlewares/lvgl/src/extra/themes/basic/../../../../src/hal/../misc/lv_color.h **** # define LV_COLOR_MAKE16(r8, g8, b8) {{(uint8_t)((b8 >> 3) & 0x1FU), (uint8_t)((g8 >> 2) & 0x3FU), 
ARM GAS  /tmp/ccwx3eYd.s 			page 6


 169:Middlewares/lvgl/src/extra/themes/basic/../../../../src/hal/../misc/lv_color.h **** #else
 170:Middlewares/lvgl/src/extra/themes/basic/../../../../src/hal/../misc/lv_color.h **** # define _LV_COLOR_ZERO_INITIALIZER16 {{0x00, 0x00, 0x00, 0x00}}
 171:Middlewares/lvgl/src/extra/themes/basic/../../../../src/hal/../misc/lv_color.h **** # define LV_COLOR_MAKE16(r8, g8, b8) {{(uint8_t)((g8 >> 5) & 0x7U), (uint8_t)((r8 >> 3) & 0x1FU), (
 172:Middlewares/lvgl/src/extra/themes/basic/../../../../src/hal/../misc/lv_color.h **** #endif
 173:Middlewares/lvgl/src/extra/themes/basic/../../../../src/hal/../misc/lv_color.h **** 
 174:Middlewares/lvgl/src/extra/themes/basic/../../../../src/hal/../misc/lv_color.h **** # define LV_COLOR_SET_R32(c, v) (c).ch.red = (uint8_t)((v) & 0xFF)
 175:Middlewares/lvgl/src/extra/themes/basic/../../../../src/hal/../misc/lv_color.h **** # define LV_COLOR_SET_G32(c, v) (c).ch.green = (uint8_t)((v) & 0xFF)
 176:Middlewares/lvgl/src/extra/themes/basic/../../../../src/hal/../misc/lv_color.h **** # define LV_COLOR_SET_B32(c, v) (c).ch.blue = (uint8_t)((v) & 0xFF)
 177:Middlewares/lvgl/src/extra/themes/basic/../../../../src/hal/../misc/lv_color.h **** # define LV_COLOR_SET_A32(c, v) (c).ch.alpha = (uint8_t)((v) & 0xFF)
 178:Middlewares/lvgl/src/extra/themes/basic/../../../../src/hal/../misc/lv_color.h **** 
 179:Middlewares/lvgl/src/extra/themes/basic/../../../../src/hal/../misc/lv_color.h **** # define LV_COLOR_GET_R32(c) (c).ch.red
 180:Middlewares/lvgl/src/extra/themes/basic/../../../../src/hal/../misc/lv_color.h **** # define LV_COLOR_GET_G32(c) (c).ch.green
 181:Middlewares/lvgl/src/extra/themes/basic/../../../../src/hal/../misc/lv_color.h **** # define LV_COLOR_GET_B32(c) (c).ch.blue
 182:Middlewares/lvgl/src/extra/themes/basic/../../../../src/hal/../misc/lv_color.h **** # define LV_COLOR_GET_A32(c) (c).ch.alpha
 183:Middlewares/lvgl/src/extra/themes/basic/../../../../src/hal/../misc/lv_color.h **** 
 184:Middlewares/lvgl/src/extra/themes/basic/../../../../src/hal/../misc/lv_color.h **** # define _LV_COLOR_ZERO_INITIALIZER32  {{0x00, 0x00, 0x00, 0x00}}
 185:Middlewares/lvgl/src/extra/themes/basic/../../../../src/hal/../misc/lv_color.h **** # define LV_COLOR_MAKE32(r8, g8, b8) {{b8, g8, r8, 0xff}} /*Fix 0xff alpha*/
 186:Middlewares/lvgl/src/extra/themes/basic/../../../../src/hal/../misc/lv_color.h **** 
 187:Middlewares/lvgl/src/extra/themes/basic/../../../../src/hal/../misc/lv_color.h **** /*---------------------------------------
 188:Middlewares/lvgl/src/extra/themes/basic/../../../../src/hal/../misc/lv_color.h ****  * Macros for the current color depth
 189:Middlewares/lvgl/src/extra/themes/basic/../../../../src/hal/../misc/lv_color.h ****  * to set/get values of the color channels
 190:Middlewares/lvgl/src/extra/themes/basic/../../../../src/hal/../misc/lv_color.h ****  *------------------------------------------*/
 191:Middlewares/lvgl/src/extra/themes/basic/../../../../src/hal/../misc/lv_color.h **** #define LV_COLOR_SET_R(c, v) LV_CONCAT(LV_COLOR_SET_R, LV_COLOR_DEPTH)(c, v)
 192:Middlewares/lvgl/src/extra/themes/basic/../../../../src/hal/../misc/lv_color.h **** #define LV_COLOR_SET_G(c, v) LV_CONCAT(LV_COLOR_SET_G, LV_COLOR_DEPTH)(c, v)
 193:Middlewares/lvgl/src/extra/themes/basic/../../../../src/hal/../misc/lv_color.h **** #define LV_COLOR_SET_B(c, v) LV_CONCAT(LV_COLOR_SET_B, LV_COLOR_DEPTH)(c, v)
 194:Middlewares/lvgl/src/extra/themes/basic/../../../../src/hal/../misc/lv_color.h **** #define LV_COLOR_SET_A(c, v) LV_CONCAT(LV_COLOR_SET_A, LV_COLOR_DEPTH)(c, v)
 195:Middlewares/lvgl/src/extra/themes/basic/../../../../src/hal/../misc/lv_color.h **** 
 196:Middlewares/lvgl/src/extra/themes/basic/../../../../src/hal/../misc/lv_color.h **** #define LV_COLOR_GET_R(c) LV_CONCAT(LV_COLOR_GET_R, LV_COLOR_DEPTH)(c)
 197:Middlewares/lvgl/src/extra/themes/basic/../../../../src/hal/../misc/lv_color.h **** #define LV_COLOR_GET_G(c) LV_CONCAT(LV_COLOR_GET_G, LV_COLOR_DEPTH)(c)
 198:Middlewares/lvgl/src/extra/themes/basic/../../../../src/hal/../misc/lv_color.h **** #define LV_COLOR_GET_B(c) LV_CONCAT(LV_COLOR_GET_B, LV_COLOR_DEPTH)(c)
 199:Middlewares/lvgl/src/extra/themes/basic/../../../../src/hal/../misc/lv_color.h **** #define LV_COLOR_GET_A(c) LV_CONCAT(LV_COLOR_GET_A, LV_COLOR_DEPTH)(c)
 200:Middlewares/lvgl/src/extra/themes/basic/../../../../src/hal/../misc/lv_color.h **** 
 201:Middlewares/lvgl/src/extra/themes/basic/../../../../src/hal/../misc/lv_color.h **** #define _LV_COLOR_ZERO_INITIALIZER LV_CONCAT(_LV_COLOR_ZERO_INITIALIZER, LV_COLOR_DEPTH)
 202:Middlewares/lvgl/src/extra/themes/basic/../../../../src/hal/../misc/lv_color.h **** #define LV_COLOR_MAKE(r8, g8, b8) LV_CONCAT(LV_COLOR_MAKE, LV_COLOR_DEPTH)(r8, g8, b8)
 203:Middlewares/lvgl/src/extra/themes/basic/../../../../src/hal/../misc/lv_color.h **** 
 204:Middlewares/lvgl/src/extra/themes/basic/../../../../src/hal/../misc/lv_color.h **** #define LV_UDIV255(x) ((uint32_t)((uint32_t) (x) * 0x8081) >> 0x17)
 205:Middlewares/lvgl/src/extra/themes/basic/../../../../src/hal/../misc/lv_color.h **** 
 206:Middlewares/lvgl/src/extra/themes/basic/../../../../src/hal/../misc/lv_color.h **** /**********************
 207:Middlewares/lvgl/src/extra/themes/basic/../../../../src/hal/../misc/lv_color.h ****  *      TYPEDEFS
 208:Middlewares/lvgl/src/extra/themes/basic/../../../../src/hal/../misc/lv_color.h ****  **********************/
 209:Middlewares/lvgl/src/extra/themes/basic/../../../../src/hal/../misc/lv_color.h **** 
 210:Middlewares/lvgl/src/extra/themes/basic/../../../../src/hal/../misc/lv_color.h **** typedef union {
 211:Middlewares/lvgl/src/extra/themes/basic/../../../../src/hal/../misc/lv_color.h ****     uint8_t full; /*must be declared first to set all bits of byte via initializer list*/
 212:Middlewares/lvgl/src/extra/themes/basic/../../../../src/hal/../misc/lv_color.h ****     union {
 213:Middlewares/lvgl/src/extra/themes/basic/../../../../src/hal/../misc/lv_color.h ****         uint8_t blue : 1;
 214:Middlewares/lvgl/src/extra/themes/basic/../../../../src/hal/../misc/lv_color.h ****         uint8_t green : 1;
 215:Middlewares/lvgl/src/extra/themes/basic/../../../../src/hal/../misc/lv_color.h ****         uint8_t red : 1;
 216:Middlewares/lvgl/src/extra/themes/basic/../../../../src/hal/../misc/lv_color.h ****     } ch;
 217:Middlewares/lvgl/src/extra/themes/basic/../../../../src/hal/../misc/lv_color.h **** } lv_color1_t;
 218:Middlewares/lvgl/src/extra/themes/basic/../../../../src/hal/../misc/lv_color.h **** 
 219:Middlewares/lvgl/src/extra/themes/basic/../../../../src/hal/../misc/lv_color.h **** typedef union {
 220:Middlewares/lvgl/src/extra/themes/basic/../../../../src/hal/../misc/lv_color.h ****     struct {
 221:Middlewares/lvgl/src/extra/themes/basic/../../../../src/hal/../misc/lv_color.h ****         uint8_t blue : 2;
 222:Middlewares/lvgl/src/extra/themes/basic/../../../../src/hal/../misc/lv_color.h ****         uint8_t green : 3;
 223:Middlewares/lvgl/src/extra/themes/basic/../../../../src/hal/../misc/lv_color.h ****         uint8_t red : 3;
 224:Middlewares/lvgl/src/extra/themes/basic/../../../../src/hal/../misc/lv_color.h ****     } ch;
 225:Middlewares/lvgl/src/extra/themes/basic/../../../../src/hal/../misc/lv_color.h ****     uint8_t full;
ARM GAS  /tmp/ccwx3eYd.s 			page 7


 226:Middlewares/lvgl/src/extra/themes/basic/../../../../src/hal/../misc/lv_color.h **** } lv_color8_t;
 227:Middlewares/lvgl/src/extra/themes/basic/../../../../src/hal/../misc/lv_color.h **** 
 228:Middlewares/lvgl/src/extra/themes/basic/../../../../src/hal/../misc/lv_color.h **** typedef union {
 229:Middlewares/lvgl/src/extra/themes/basic/../../../../src/hal/../misc/lv_color.h ****     struct {
 230:Middlewares/lvgl/src/extra/themes/basic/../../../../src/hal/../misc/lv_color.h **** #if LV_COLOR_16_SWAP == 0
 231:Middlewares/lvgl/src/extra/themes/basic/../../../../src/hal/../misc/lv_color.h ****         uint16_t blue : 5;
 232:Middlewares/lvgl/src/extra/themes/basic/../../../../src/hal/../misc/lv_color.h ****         uint16_t green : 6;
 233:Middlewares/lvgl/src/extra/themes/basic/../../../../src/hal/../misc/lv_color.h ****         uint16_t red : 5;
 234:Middlewares/lvgl/src/extra/themes/basic/../../../../src/hal/../misc/lv_color.h **** #else
 235:Middlewares/lvgl/src/extra/themes/basic/../../../../src/hal/../misc/lv_color.h ****         uint16_t green_h : 3;
 236:Middlewares/lvgl/src/extra/themes/basic/../../../../src/hal/../misc/lv_color.h ****         uint16_t red : 5;
 237:Middlewares/lvgl/src/extra/themes/basic/../../../../src/hal/../misc/lv_color.h ****         uint16_t blue : 5;
 238:Middlewares/lvgl/src/extra/themes/basic/../../../../src/hal/../misc/lv_color.h ****         uint16_t green_l : 3;
 239:Middlewares/lvgl/src/extra/themes/basic/../../../../src/hal/../misc/lv_color.h **** #endif
 240:Middlewares/lvgl/src/extra/themes/basic/../../../../src/hal/../misc/lv_color.h ****     } ch;
 241:Middlewares/lvgl/src/extra/themes/basic/../../../../src/hal/../misc/lv_color.h ****     uint16_t full;
 242:Middlewares/lvgl/src/extra/themes/basic/../../../../src/hal/../misc/lv_color.h **** } lv_color16_t;
 243:Middlewares/lvgl/src/extra/themes/basic/../../../../src/hal/../misc/lv_color.h **** 
 244:Middlewares/lvgl/src/extra/themes/basic/../../../../src/hal/../misc/lv_color.h **** typedef union {
 245:Middlewares/lvgl/src/extra/themes/basic/../../../../src/hal/../misc/lv_color.h ****     struct {
 246:Middlewares/lvgl/src/extra/themes/basic/../../../../src/hal/../misc/lv_color.h ****         uint8_t blue;
 247:Middlewares/lvgl/src/extra/themes/basic/../../../../src/hal/../misc/lv_color.h ****         uint8_t green;
 248:Middlewares/lvgl/src/extra/themes/basic/../../../../src/hal/../misc/lv_color.h ****         uint8_t red;
 249:Middlewares/lvgl/src/extra/themes/basic/../../../../src/hal/../misc/lv_color.h ****         uint8_t alpha;
 250:Middlewares/lvgl/src/extra/themes/basic/../../../../src/hal/../misc/lv_color.h ****     } ch;
 251:Middlewares/lvgl/src/extra/themes/basic/../../../../src/hal/../misc/lv_color.h ****     uint32_t full;
 252:Middlewares/lvgl/src/extra/themes/basic/../../../../src/hal/../misc/lv_color.h **** } lv_color32_t;
 253:Middlewares/lvgl/src/extra/themes/basic/../../../../src/hal/../misc/lv_color.h **** 
 254:Middlewares/lvgl/src/extra/themes/basic/../../../../src/hal/../misc/lv_color.h **** typedef LV_CONCAT3(uint, LV_COLOR_SIZE, _t) lv_color_int_t;
 255:Middlewares/lvgl/src/extra/themes/basic/../../../../src/hal/../misc/lv_color.h **** typedef LV_CONCAT3(lv_color, LV_COLOR_DEPTH, _t) lv_color_t;
 256:Middlewares/lvgl/src/extra/themes/basic/../../../../src/hal/../misc/lv_color.h **** 
 257:Middlewares/lvgl/src/extra/themes/basic/../../../../src/hal/../misc/lv_color.h **** typedef struct {
 258:Middlewares/lvgl/src/extra/themes/basic/../../../../src/hal/../misc/lv_color.h ****     uint16_t h;
 259:Middlewares/lvgl/src/extra/themes/basic/../../../../src/hal/../misc/lv_color.h ****     uint8_t s;
 260:Middlewares/lvgl/src/extra/themes/basic/../../../../src/hal/../misc/lv_color.h ****     uint8_t v;
 261:Middlewares/lvgl/src/extra/themes/basic/../../../../src/hal/../misc/lv_color.h **** } lv_color_hsv_t;
 262:Middlewares/lvgl/src/extra/themes/basic/../../../../src/hal/../misc/lv_color.h **** 
 263:Middlewares/lvgl/src/extra/themes/basic/../../../../src/hal/../misc/lv_color.h **** //! @cond Doxygen_Suppress
 264:Middlewares/lvgl/src/extra/themes/basic/../../../../src/hal/../misc/lv_color.h **** /*No idea where the guard is required but else throws warnings in the docs*/
 265:Middlewares/lvgl/src/extra/themes/basic/../../../../src/hal/../misc/lv_color.h **** typedef uint8_t lv_opa_t;
 266:Middlewares/lvgl/src/extra/themes/basic/../../../../src/hal/../misc/lv_color.h **** //! @endcond
 267:Middlewares/lvgl/src/extra/themes/basic/../../../../src/hal/../misc/lv_color.h **** 
 268:Middlewares/lvgl/src/extra/themes/basic/../../../../src/hal/../misc/lv_color.h **** struct _lv_color_filter_dsc_t;
 269:Middlewares/lvgl/src/extra/themes/basic/../../../../src/hal/../misc/lv_color.h **** 
 270:Middlewares/lvgl/src/extra/themes/basic/../../../../src/hal/../misc/lv_color.h **** typedef lv_color_t (*lv_color_filter_cb_t)(const struct _lv_color_filter_dsc_t *, lv_color_t, lv_op
 271:Middlewares/lvgl/src/extra/themes/basic/../../../../src/hal/../misc/lv_color.h **** 
 272:Middlewares/lvgl/src/extra/themes/basic/../../../../src/hal/../misc/lv_color.h **** typedef struct _lv_color_filter_dsc_t {
 273:Middlewares/lvgl/src/extra/themes/basic/../../../../src/hal/../misc/lv_color.h ****     lv_color_filter_cb_t filter_cb;
 274:Middlewares/lvgl/src/extra/themes/basic/../../../../src/hal/../misc/lv_color.h ****     void * user_data;
 275:Middlewares/lvgl/src/extra/themes/basic/../../../../src/hal/../misc/lv_color.h **** }lv_color_filter_dsc_t;
 276:Middlewares/lvgl/src/extra/themes/basic/../../../../src/hal/../misc/lv_color.h **** 
 277:Middlewares/lvgl/src/extra/themes/basic/../../../../src/hal/../misc/lv_color.h **** 
 278:Middlewares/lvgl/src/extra/themes/basic/../../../../src/hal/../misc/lv_color.h **** typedef enum {
 279:Middlewares/lvgl/src/extra/themes/basic/../../../../src/hal/../misc/lv_color.h ****     LV_PALETTE_RED,
 280:Middlewares/lvgl/src/extra/themes/basic/../../../../src/hal/../misc/lv_color.h ****     LV_PALETTE_PINK,
 281:Middlewares/lvgl/src/extra/themes/basic/../../../../src/hal/../misc/lv_color.h ****     LV_PALETTE_PURPLE,
 282:Middlewares/lvgl/src/extra/themes/basic/../../../../src/hal/../misc/lv_color.h ****     LV_PALETTE_DEEP_PURPLE,
ARM GAS  /tmp/ccwx3eYd.s 			page 8


 283:Middlewares/lvgl/src/extra/themes/basic/../../../../src/hal/../misc/lv_color.h ****     LV_PALETTE_INDIGO,
 284:Middlewares/lvgl/src/extra/themes/basic/../../../../src/hal/../misc/lv_color.h ****     LV_PALETTE_BLUE,
 285:Middlewares/lvgl/src/extra/themes/basic/../../../../src/hal/../misc/lv_color.h ****     LV_PALETTE_LIGHT_BLUE,
 286:Middlewares/lvgl/src/extra/themes/basic/../../../../src/hal/../misc/lv_color.h ****     LV_PALETTE_CYAN,
 287:Middlewares/lvgl/src/extra/themes/basic/../../../../src/hal/../misc/lv_color.h ****     LV_PALETTE_TEAL,
 288:Middlewares/lvgl/src/extra/themes/basic/../../../../src/hal/../misc/lv_color.h ****     LV_PALETTE_GREEN,
 289:Middlewares/lvgl/src/extra/themes/basic/../../../../src/hal/../misc/lv_color.h ****     LV_PALETTE_LIGHT_GREEN,
 290:Middlewares/lvgl/src/extra/themes/basic/../../../../src/hal/../misc/lv_color.h ****     LV_PALETTE_LIME,
 291:Middlewares/lvgl/src/extra/themes/basic/../../../../src/hal/../misc/lv_color.h ****     LV_PALETTE_YELLOW,
 292:Middlewares/lvgl/src/extra/themes/basic/../../../../src/hal/../misc/lv_color.h ****     LV_PALETTE_AMBER,
 293:Middlewares/lvgl/src/extra/themes/basic/../../../../src/hal/../misc/lv_color.h ****     LV_PALETTE_ORANGE,
 294:Middlewares/lvgl/src/extra/themes/basic/../../../../src/hal/../misc/lv_color.h ****     LV_PALETTE_DEEP_ORANGE,
 295:Middlewares/lvgl/src/extra/themes/basic/../../../../src/hal/../misc/lv_color.h ****     LV_PALETTE_BROWN,
 296:Middlewares/lvgl/src/extra/themes/basic/../../../../src/hal/../misc/lv_color.h ****     LV_PALETTE_BLUE_GREY,
 297:Middlewares/lvgl/src/extra/themes/basic/../../../../src/hal/../misc/lv_color.h ****     LV_PALETTE_GREY,
 298:Middlewares/lvgl/src/extra/themes/basic/../../../../src/hal/../misc/lv_color.h ****     _LV_PALETTE_LAST,
 299:Middlewares/lvgl/src/extra/themes/basic/../../../../src/hal/../misc/lv_color.h ****     LV_PALETTE_NONE = 0xff,
 300:Middlewares/lvgl/src/extra/themes/basic/../../../../src/hal/../misc/lv_color.h **** }lv_palette_t;
 301:Middlewares/lvgl/src/extra/themes/basic/../../../../src/hal/../misc/lv_color.h **** 
 302:Middlewares/lvgl/src/extra/themes/basic/../../../../src/hal/../misc/lv_color.h **** /**********************
 303:Middlewares/lvgl/src/extra/themes/basic/../../../../src/hal/../misc/lv_color.h ****  * GLOBAL PROTOTYPES
 304:Middlewares/lvgl/src/extra/themes/basic/../../../../src/hal/../misc/lv_color.h ****  **********************/
 305:Middlewares/lvgl/src/extra/themes/basic/../../../../src/hal/../misc/lv_color.h **** 
 306:Middlewares/lvgl/src/extra/themes/basic/../../../../src/hal/../misc/lv_color.h **** /*In color conversations:
 307:Middlewares/lvgl/src/extra/themes/basic/../../../../src/hal/../misc/lv_color.h ****  * - When converting to bigger color type the LSB weight of 1 LSB is calculated
 308:Middlewares/lvgl/src/extra/themes/basic/../../../../src/hal/../misc/lv_color.h ****  *   E.g. 16 bit Red has 5 bits
 309:Middlewares/lvgl/src/extra/themes/basic/../../../../src/hal/../misc/lv_color.h ****  *         8 bit Red has 3 bits
 310:Middlewares/lvgl/src/extra/themes/basic/../../../../src/hal/../misc/lv_color.h ****  *        ----------------------
 311:Middlewares/lvgl/src/extra/themes/basic/../../../../src/hal/../misc/lv_color.h ****  *        8 bit red LSB = (2^5 - 1) / (2^3 - 1) = 31 / 7 = 4
 312:Middlewares/lvgl/src/extra/themes/basic/../../../../src/hal/../misc/lv_color.h ****  *
 313:Middlewares/lvgl/src/extra/themes/basic/../../../../src/hal/../misc/lv_color.h ****  * - When calculating to smaller color type simply shift out the LSBs
 314:Middlewares/lvgl/src/extra/themes/basic/../../../../src/hal/../misc/lv_color.h ****  *   E.g.  8 bit Red has 3 bits
 315:Middlewares/lvgl/src/extra/themes/basic/../../../../src/hal/../misc/lv_color.h ****  *        16 bit Red has 5 bits
 316:Middlewares/lvgl/src/extra/themes/basic/../../../../src/hal/../misc/lv_color.h ****  *        ----------------------
 317:Middlewares/lvgl/src/extra/themes/basic/../../../../src/hal/../misc/lv_color.h ****  *         Shift right with 5 - 3 = 2
 318:Middlewares/lvgl/src/extra/themes/basic/../../../../src/hal/../misc/lv_color.h ****  */
 319:Middlewares/lvgl/src/extra/themes/basic/../../../../src/hal/../misc/lv_color.h **** static inline uint8_t lv_color_to1(lv_color_t color)
 320:Middlewares/lvgl/src/extra/themes/basic/../../../../src/hal/../misc/lv_color.h **** {
 321:Middlewares/lvgl/src/extra/themes/basic/../../../../src/hal/../misc/lv_color.h **** #if LV_COLOR_DEPTH == 1
 322:Middlewares/lvgl/src/extra/themes/basic/../../../../src/hal/../misc/lv_color.h ****     return color.full;
 323:Middlewares/lvgl/src/extra/themes/basic/../../../../src/hal/../misc/lv_color.h **** #elif LV_COLOR_DEPTH == 8
 324:Middlewares/lvgl/src/extra/themes/basic/../../../../src/hal/../misc/lv_color.h ****     if((LV_COLOR_GET_R(color) & 0x4) || (LV_COLOR_GET_G(color) & 0x4) || (LV_COLOR_GET_B(color) & 0
 325:Middlewares/lvgl/src/extra/themes/basic/../../../../src/hal/../misc/lv_color.h ****         return 1;
 326:Middlewares/lvgl/src/extra/themes/basic/../../../../src/hal/../misc/lv_color.h ****     }
 327:Middlewares/lvgl/src/extra/themes/basic/../../../../src/hal/../misc/lv_color.h ****     else {
 328:Middlewares/lvgl/src/extra/themes/basic/../../../../src/hal/../misc/lv_color.h ****         return 0;
 329:Middlewares/lvgl/src/extra/themes/basic/../../../../src/hal/../misc/lv_color.h ****     }
 330:Middlewares/lvgl/src/extra/themes/basic/../../../../src/hal/../misc/lv_color.h **** #elif LV_COLOR_DEPTH == 16
 331:Middlewares/lvgl/src/extra/themes/basic/../../../../src/hal/../misc/lv_color.h ****     if((LV_COLOR_GET_R(color) & 0x10) || (LV_COLOR_GET_G(color) & 0x20) || (LV_COLOR_GET_B(color) &
 332:Middlewares/lvgl/src/extra/themes/basic/../../../../src/hal/../misc/lv_color.h ****         return 1;
 333:Middlewares/lvgl/src/extra/themes/basic/../../../../src/hal/../misc/lv_color.h ****     }
 334:Middlewares/lvgl/src/extra/themes/basic/../../../../src/hal/../misc/lv_color.h ****     else {
 335:Middlewares/lvgl/src/extra/themes/basic/../../../../src/hal/../misc/lv_color.h ****         return 0;
 336:Middlewares/lvgl/src/extra/themes/basic/../../../../src/hal/../misc/lv_color.h ****     }
 337:Middlewares/lvgl/src/extra/themes/basic/../../../../src/hal/../misc/lv_color.h **** #elif LV_COLOR_DEPTH == 32
 338:Middlewares/lvgl/src/extra/themes/basic/../../../../src/hal/../misc/lv_color.h ****     if((LV_COLOR_GET_R(color) & 0x80) || (LV_COLOR_GET_G(color) & 0x80) || (LV_COLOR_GET_B(color) &
 339:Middlewares/lvgl/src/extra/themes/basic/../../../../src/hal/../misc/lv_color.h ****         return 1;
ARM GAS  /tmp/ccwx3eYd.s 			page 9


 340:Middlewares/lvgl/src/extra/themes/basic/../../../../src/hal/../misc/lv_color.h ****     }
 341:Middlewares/lvgl/src/extra/themes/basic/../../../../src/hal/../misc/lv_color.h ****     else {
 342:Middlewares/lvgl/src/extra/themes/basic/../../../../src/hal/../misc/lv_color.h ****         return 0;
 343:Middlewares/lvgl/src/extra/themes/basic/../../../../src/hal/../misc/lv_color.h ****     }
 344:Middlewares/lvgl/src/extra/themes/basic/../../../../src/hal/../misc/lv_color.h **** #endif
 345:Middlewares/lvgl/src/extra/themes/basic/../../../../src/hal/../misc/lv_color.h **** }
 346:Middlewares/lvgl/src/extra/themes/basic/../../../../src/hal/../misc/lv_color.h **** 
 347:Middlewares/lvgl/src/extra/themes/basic/../../../../src/hal/../misc/lv_color.h **** static inline uint8_t lv_color_to8(lv_color_t color)
 348:Middlewares/lvgl/src/extra/themes/basic/../../../../src/hal/../misc/lv_color.h **** {
 349:Middlewares/lvgl/src/extra/themes/basic/../../../../src/hal/../misc/lv_color.h **** #if LV_COLOR_DEPTH == 1
 350:Middlewares/lvgl/src/extra/themes/basic/../../../../src/hal/../misc/lv_color.h ****     if(color.full == 0)
 351:Middlewares/lvgl/src/extra/themes/basic/../../../../src/hal/../misc/lv_color.h ****         return 0;
 352:Middlewares/lvgl/src/extra/themes/basic/../../../../src/hal/../misc/lv_color.h ****     else
 353:Middlewares/lvgl/src/extra/themes/basic/../../../../src/hal/../misc/lv_color.h ****         return 0xFF;
 354:Middlewares/lvgl/src/extra/themes/basic/../../../../src/hal/../misc/lv_color.h **** #elif LV_COLOR_DEPTH == 8
 355:Middlewares/lvgl/src/extra/themes/basic/../../../../src/hal/../misc/lv_color.h ****     return color.full;
 356:Middlewares/lvgl/src/extra/themes/basic/../../../../src/hal/../misc/lv_color.h **** #elif LV_COLOR_DEPTH == 16
 357:Middlewares/lvgl/src/extra/themes/basic/../../../../src/hal/../misc/lv_color.h ****     lv_color8_t ret;
 358:Middlewares/lvgl/src/extra/themes/basic/../../../../src/hal/../misc/lv_color.h ****     LV_COLOR_SET_R8(ret, LV_COLOR_GET_R(color) >> 2); /*5 - 3  = 2*/
 359:Middlewares/lvgl/src/extra/themes/basic/../../../../src/hal/../misc/lv_color.h ****     LV_COLOR_SET_G8(ret, LV_COLOR_GET_G(color) >> 3); /*6 - 3  = 3*/
 360:Middlewares/lvgl/src/extra/themes/basic/../../../../src/hal/../misc/lv_color.h ****     LV_COLOR_SET_B8(ret, LV_COLOR_GET_B(color) >> 3); /*5 - 2  = 3*/
 361:Middlewares/lvgl/src/extra/themes/basic/../../../../src/hal/../misc/lv_color.h ****     return ret.full;
 362:Middlewares/lvgl/src/extra/themes/basic/../../../../src/hal/../misc/lv_color.h **** #elif LV_COLOR_DEPTH == 32
 363:Middlewares/lvgl/src/extra/themes/basic/../../../../src/hal/../misc/lv_color.h ****     lv_color8_t ret;
 364:Middlewares/lvgl/src/extra/themes/basic/../../../../src/hal/../misc/lv_color.h ****     LV_COLOR_SET_R8(ret, LV_COLOR_GET_R(color) >> 5); /*8 - 3  = 5*/
 365:Middlewares/lvgl/src/extra/themes/basic/../../../../src/hal/../misc/lv_color.h ****     LV_COLOR_SET_G8(ret, LV_COLOR_GET_G(color) >> 5); /*8 - 3  = 5*/
 366:Middlewares/lvgl/src/extra/themes/basic/../../../../src/hal/../misc/lv_color.h ****     LV_COLOR_SET_B8(ret, LV_COLOR_GET_B(color) >> 6); /*8 - 2  = 6*/
 367:Middlewares/lvgl/src/extra/themes/basic/../../../../src/hal/../misc/lv_color.h ****     return ret.full;
 368:Middlewares/lvgl/src/extra/themes/basic/../../../../src/hal/../misc/lv_color.h **** #endif
 369:Middlewares/lvgl/src/extra/themes/basic/../../../../src/hal/../misc/lv_color.h **** }
 370:Middlewares/lvgl/src/extra/themes/basic/../../../../src/hal/../misc/lv_color.h **** 
 371:Middlewares/lvgl/src/extra/themes/basic/../../../../src/hal/../misc/lv_color.h **** static inline uint16_t lv_color_to16(lv_color_t color)
 372:Middlewares/lvgl/src/extra/themes/basic/../../../../src/hal/../misc/lv_color.h **** {
 373:Middlewares/lvgl/src/extra/themes/basic/../../../../src/hal/../misc/lv_color.h **** #if LV_COLOR_DEPTH == 1
 374:Middlewares/lvgl/src/extra/themes/basic/../../../../src/hal/../misc/lv_color.h ****     if(color.full == 0)
 375:Middlewares/lvgl/src/extra/themes/basic/../../../../src/hal/../misc/lv_color.h ****         return 0;
 376:Middlewares/lvgl/src/extra/themes/basic/../../../../src/hal/../misc/lv_color.h ****     else
 377:Middlewares/lvgl/src/extra/themes/basic/../../../../src/hal/../misc/lv_color.h ****         return 0xFFFF;
 378:Middlewares/lvgl/src/extra/themes/basic/../../../../src/hal/../misc/lv_color.h **** #elif LV_COLOR_DEPTH == 8
 379:Middlewares/lvgl/src/extra/themes/basic/../../../../src/hal/../misc/lv_color.h ****     lv_color16_t ret;
 380:Middlewares/lvgl/src/extra/themes/basic/../../../../src/hal/../misc/lv_color.h ****     LV_COLOR_SET_R16(ret, LV_COLOR_GET_R(color) * 4);  /*(2^5 - 1)/(2^3 - 1) = 31/7 = 4*/
 381:Middlewares/lvgl/src/extra/themes/basic/../../../../src/hal/../misc/lv_color.h ****     LV_COLOR_SET_G16(ret, LV_COLOR_GET_G(color) * 9);  /*(2^6 - 1)/(2^3 - 1) = 63/7 = 9*/
 382:Middlewares/lvgl/src/extra/themes/basic/../../../../src/hal/../misc/lv_color.h ****     LV_COLOR_SET_B16(ret, LV_COLOR_GET_B(color) * 10); /*(2^5 - 1)/(2^2 - 1) = 31/3 = 10*/
 383:Middlewares/lvgl/src/extra/themes/basic/../../../../src/hal/../misc/lv_color.h ****     return ret.full;
 384:Middlewares/lvgl/src/extra/themes/basic/../../../../src/hal/../misc/lv_color.h **** #elif LV_COLOR_DEPTH == 16
 385:Middlewares/lvgl/src/extra/themes/basic/../../../../src/hal/../misc/lv_color.h ****     return color.full;
 386:Middlewares/lvgl/src/extra/themes/basic/../../../../src/hal/../misc/lv_color.h **** #elif LV_COLOR_DEPTH == 32
 387:Middlewares/lvgl/src/extra/themes/basic/../../../../src/hal/../misc/lv_color.h ****     lv_color16_t ret;
 388:Middlewares/lvgl/src/extra/themes/basic/../../../../src/hal/../misc/lv_color.h ****     LV_COLOR_SET_R16(ret, LV_COLOR_GET_R(color) >> 3); /*8 - 5  = 3*/
 389:Middlewares/lvgl/src/extra/themes/basic/../../../../src/hal/../misc/lv_color.h ****     LV_COLOR_SET_G16(ret, LV_COLOR_GET_G(color) >> 2); /*8 - 6  = 2*/
 390:Middlewares/lvgl/src/extra/themes/basic/../../../../src/hal/../misc/lv_color.h ****     LV_COLOR_SET_B16(ret, LV_COLOR_GET_B(color) >> 3); /*8 - 5  = 3*/
 391:Middlewares/lvgl/src/extra/themes/basic/../../../../src/hal/../misc/lv_color.h ****     return ret.full;
 392:Middlewares/lvgl/src/extra/themes/basic/../../../../src/hal/../misc/lv_color.h **** #endif
 393:Middlewares/lvgl/src/extra/themes/basic/../../../../src/hal/../misc/lv_color.h **** }
 394:Middlewares/lvgl/src/extra/themes/basic/../../../../src/hal/../misc/lv_color.h **** 
 395:Middlewares/lvgl/src/extra/themes/basic/../../../../src/hal/../misc/lv_color.h **** static inline uint32_t lv_color_to32(lv_color_t color)
 396:Middlewares/lvgl/src/extra/themes/basic/../../../../src/hal/../misc/lv_color.h **** {
ARM GAS  /tmp/ccwx3eYd.s 			page 10


 397:Middlewares/lvgl/src/extra/themes/basic/../../../../src/hal/../misc/lv_color.h **** #if LV_COLOR_DEPTH == 1
 398:Middlewares/lvgl/src/extra/themes/basic/../../../../src/hal/../misc/lv_color.h ****     if(color.full == 0)
 399:Middlewares/lvgl/src/extra/themes/basic/../../../../src/hal/../misc/lv_color.h ****         return 0xFF000000;
 400:Middlewares/lvgl/src/extra/themes/basic/../../../../src/hal/../misc/lv_color.h ****     else
 401:Middlewares/lvgl/src/extra/themes/basic/../../../../src/hal/../misc/lv_color.h ****         return 0xFFFFFFFF;
 402:Middlewares/lvgl/src/extra/themes/basic/../../../../src/hal/../misc/lv_color.h **** #elif LV_COLOR_DEPTH == 8
 403:Middlewares/lvgl/src/extra/themes/basic/../../../../src/hal/../misc/lv_color.h ****     lv_color32_t ret;
 404:Middlewares/lvgl/src/extra/themes/basic/../../../../src/hal/../misc/lv_color.h ****     LV_COLOR_SET_R32(ret, LV_COLOR_GET_R(color) * 36); /*(2^8 - 1)/(2^3 - 1) = 255/7 = 36*/
 405:Middlewares/lvgl/src/extra/themes/basic/../../../../src/hal/../misc/lv_color.h ****     LV_COLOR_SET_G32(ret, LV_COLOR_GET_G(color) * 36); /*(2^8 - 1)/(2^3 - 1) = 255/7 = 36*/
 406:Middlewares/lvgl/src/extra/themes/basic/../../../../src/hal/../misc/lv_color.h ****     LV_COLOR_SET_B32(ret, LV_COLOR_GET_B(color) * 85); /*(2^8 - 1)/(2^2 - 1) = 255/3 = 85*/
 407:Middlewares/lvgl/src/extra/themes/basic/../../../../src/hal/../misc/lv_color.h ****     LV_COLOR_SET_A32(ret, 0xFF);
 408:Middlewares/lvgl/src/extra/themes/basic/../../../../src/hal/../misc/lv_color.h ****     return ret.full;
 409:Middlewares/lvgl/src/extra/themes/basic/../../../../src/hal/../misc/lv_color.h **** #elif LV_COLOR_DEPTH == 16
 410:Middlewares/lvgl/src/extra/themes/basic/../../../../src/hal/../misc/lv_color.h ****     /**
 411:Middlewares/lvgl/src/extra/themes/basic/../../../../src/hal/../misc/lv_color.h ****      * The floating point math for conversion is:
 412:Middlewares/lvgl/src/extra/themes/basic/../../../../src/hal/../misc/lv_color.h ****      *  valueto = valuefrom * ( (2^bitsto - 1) / (float)(2^bitsfrom - 1) )
 413:Middlewares/lvgl/src/extra/themes/basic/../../../../src/hal/../misc/lv_color.h ****      * The faster integer math for conversion is:
 414:Middlewares/lvgl/src/extra/themes/basic/../../../../src/hal/../misc/lv_color.h ****      *  valueto = ( valuefrom * multiplier + adder ) >> divisor
 415:Middlewares/lvgl/src/extra/themes/basic/../../../../src/hal/../misc/lv_color.h ****      *   multiplier = FLOOR( ( (2^bitsto - 1) << divisor ) / (float)(2^bitsfrom - 1) )
 416:Middlewares/lvgl/src/extra/themes/basic/../../../../src/hal/../misc/lv_color.h ****      *
 417:Middlewares/lvgl/src/extra/themes/basic/../../../../src/hal/../misc/lv_color.h ****      * Find the first divisor where ( adder >> divisor ) <= 0
 418:Middlewares/lvgl/src/extra/themes/basic/../../../../src/hal/../misc/lv_color.h ****      *
 419:Middlewares/lvgl/src/extra/themes/basic/../../../../src/hal/../misc/lv_color.h ****      * 5-bit to 8-bit: ( 31 * multiplier + adder ) >> divisor = 255
 420:Middlewares/lvgl/src/extra/themes/basic/../../../../src/hal/../misc/lv_color.h ****      * divisor  multiplier  adder  min (0)  max (31)
 421:Middlewares/lvgl/src/extra/themes/basic/../../../../src/hal/../misc/lv_color.h ****      *       0           8      7        7       255
 422:Middlewares/lvgl/src/extra/themes/basic/../../../../src/hal/../misc/lv_color.h ****      *       1          16     14        7       255
 423:Middlewares/lvgl/src/extra/themes/basic/../../../../src/hal/../misc/lv_color.h ****      *       2          32     28        7       255
 424:Middlewares/lvgl/src/extra/themes/basic/../../../../src/hal/../misc/lv_color.h ****      *       3          65     25        3       255
 425:Middlewares/lvgl/src/extra/themes/basic/../../../../src/hal/../misc/lv_color.h ****      *       4         131     19        1       255
 426:Middlewares/lvgl/src/extra/themes/basic/../../../../src/hal/../misc/lv_color.h ****      *       5         263      7        0       255
 427:Middlewares/lvgl/src/extra/themes/basic/../../../../src/hal/../misc/lv_color.h ****      *
 428:Middlewares/lvgl/src/extra/themes/basic/../../../../src/hal/../misc/lv_color.h ****      * 6-bit to 8-bit: 255 = ( 63 * multiplier + adder ) >> divisor
 429:Middlewares/lvgl/src/extra/themes/basic/../../../../src/hal/../misc/lv_color.h ****      * divisor  multiplier  adder  min (0)  max (63)
 430:Middlewares/lvgl/src/extra/themes/basic/../../../../src/hal/../misc/lv_color.h ****      *       0           4      3        3       255
 431:Middlewares/lvgl/src/extra/themes/basic/../../../../src/hal/../misc/lv_color.h ****      *       1           8      6        3       255
 432:Middlewares/lvgl/src/extra/themes/basic/../../../../src/hal/../misc/lv_color.h ****      *       2          16     12        3       255
 433:Middlewares/lvgl/src/extra/themes/basic/../../../../src/hal/../misc/lv_color.h ****      *       3          32     24        3       255
 434:Middlewares/lvgl/src/extra/themes/basic/../../../../src/hal/../misc/lv_color.h ****      *       4          64     48        3       255
 435:Middlewares/lvgl/src/extra/themes/basic/../../../../src/hal/../misc/lv_color.h ****      *       5         129     33        1       255
 436:Middlewares/lvgl/src/extra/themes/basic/../../../../src/hal/../misc/lv_color.h ****      *       6         259      3        0       255
 437:Middlewares/lvgl/src/extra/themes/basic/../../../../src/hal/../misc/lv_color.h ****      */
 438:Middlewares/lvgl/src/extra/themes/basic/../../../../src/hal/../misc/lv_color.h **** 
 439:Middlewares/lvgl/src/extra/themes/basic/../../../../src/hal/../misc/lv_color.h ****     lv_color32_t ret;
 440:Middlewares/lvgl/src/extra/themes/basic/../../../../src/hal/../misc/lv_color.h ****     LV_COLOR_SET_R32(ret, (LV_COLOR_GET_R(color) * 263 + 7) >> 5);
 441:Middlewares/lvgl/src/extra/themes/basic/../../../../src/hal/../misc/lv_color.h ****     LV_COLOR_SET_G32(ret, (LV_COLOR_GET_G(color) * 259 + 3) >> 6);
 442:Middlewares/lvgl/src/extra/themes/basic/../../../../src/hal/../misc/lv_color.h ****     LV_COLOR_SET_B32(ret, (LV_COLOR_GET_B(color) * 263 + 7) >> 5);
 443:Middlewares/lvgl/src/extra/themes/basic/../../../../src/hal/../misc/lv_color.h ****     LV_COLOR_SET_A32(ret, 0xFF);
 444:Middlewares/lvgl/src/extra/themes/basic/../../../../src/hal/../misc/lv_color.h ****     return ret.full;
 445:Middlewares/lvgl/src/extra/themes/basic/../../../../src/hal/../misc/lv_color.h **** #elif LV_COLOR_DEPTH == 32
 446:Middlewares/lvgl/src/extra/themes/basic/../../../../src/hal/../misc/lv_color.h ****     return color.full;
 447:Middlewares/lvgl/src/extra/themes/basic/../../../../src/hal/../misc/lv_color.h **** #endif
 448:Middlewares/lvgl/src/extra/themes/basic/../../../../src/hal/../misc/lv_color.h **** }
 449:Middlewares/lvgl/src/extra/themes/basic/../../../../src/hal/../misc/lv_color.h **** 
 450:Middlewares/lvgl/src/extra/themes/basic/../../../../src/hal/../misc/lv_color.h **** //! @cond Doxygen_Suppress
 451:Middlewares/lvgl/src/extra/themes/basic/../../../../src/hal/../misc/lv_color.h **** 
 452:Middlewares/lvgl/src/extra/themes/basic/../../../../src/hal/../misc/lv_color.h **** /**
 453:Middlewares/lvgl/src/extra/themes/basic/../../../../src/hal/../misc/lv_color.h ****  * Mix two colors with a given ratio.
ARM GAS  /tmp/ccwx3eYd.s 			page 11


 454:Middlewares/lvgl/src/extra/themes/basic/../../../../src/hal/../misc/lv_color.h ****  * @param c1 the first color to mix (usually the foreground)
 455:Middlewares/lvgl/src/extra/themes/basic/../../../../src/hal/../misc/lv_color.h ****  * @param c2 the second color to mix (usually the background)
 456:Middlewares/lvgl/src/extra/themes/basic/../../../../src/hal/../misc/lv_color.h ****  * @param mix The ratio of the colors. 0: full `c2`, 255: full `c1`, 127: half `c1` and half`c2`
 457:Middlewares/lvgl/src/extra/themes/basic/../../../../src/hal/../misc/lv_color.h ****  * @return the mixed color
 458:Middlewares/lvgl/src/extra/themes/basic/../../../../src/hal/../misc/lv_color.h ****  */
 459:Middlewares/lvgl/src/extra/themes/basic/../../../../src/hal/../misc/lv_color.h **** LV_ATTRIBUTE_FAST_MEM static inline lv_color_t lv_color_mix(lv_color_t c1, lv_color_t c2, uint8_t m
 460:Middlewares/lvgl/src/extra/themes/basic/../../../../src/hal/../misc/lv_color.h **** {
 461:Middlewares/lvgl/src/extra/themes/basic/../../../../src/hal/../misc/lv_color.h ****     lv_color_t ret;
 462:Middlewares/lvgl/src/extra/themes/basic/../../../../src/hal/../misc/lv_color.h **** #if LV_COLOR_DEPTH != 1
 463:Middlewares/lvgl/src/extra/themes/basic/../../../../src/hal/../misc/lv_color.h ****     /*LV_COLOR_DEPTH == 8, 16 or 32*/
 464:Middlewares/lvgl/src/extra/themes/basic/../../../../src/hal/../misc/lv_color.h ****     LV_COLOR_SET_R(ret, LV_UDIV255((uint16_t) LV_COLOR_GET_R(c1) * mix + LV_COLOR_GET_R(c2) *
 465:Middlewares/lvgl/src/extra/themes/basic/../../../../src/hal/../misc/lv_color.h ****                                         (255 - mix) + LV_COLOR_MIX_ROUND_OFS));
 466:Middlewares/lvgl/src/extra/themes/basic/../../../../src/hal/../misc/lv_color.h ****     LV_COLOR_SET_G(ret, LV_UDIV255((uint16_t) LV_COLOR_GET_G(c1) * mix + LV_COLOR_GET_G(c2) *
 467:Middlewares/lvgl/src/extra/themes/basic/../../../../src/hal/../misc/lv_color.h ****                                         (255 - mix) + LV_COLOR_MIX_ROUND_OFS));
 468:Middlewares/lvgl/src/extra/themes/basic/../../../../src/hal/../misc/lv_color.h ****     LV_COLOR_SET_B(ret, LV_UDIV255((uint16_t) LV_COLOR_GET_B(c1) * mix + LV_COLOR_GET_B(c2) *
 469:Middlewares/lvgl/src/extra/themes/basic/../../../../src/hal/../misc/lv_color.h ****                                         (255 - mix) + LV_COLOR_MIX_ROUND_OFS));
 470:Middlewares/lvgl/src/extra/themes/basic/../../../../src/hal/../misc/lv_color.h ****     LV_COLOR_SET_A(ret, 0xFF);
 471:Middlewares/lvgl/src/extra/themes/basic/../../../../src/hal/../misc/lv_color.h **** #else
 472:Middlewares/lvgl/src/extra/themes/basic/../../../../src/hal/../misc/lv_color.h ****     /*LV_COLOR_DEPTH == 1*/
 473:Middlewares/lvgl/src/extra/themes/basic/../../../../src/hal/../misc/lv_color.h ****     ret.full = mix > LV_OPA_50 ? c1.full : c2.full;
 474:Middlewares/lvgl/src/extra/themes/basic/../../../../src/hal/../misc/lv_color.h **** #endif
 475:Middlewares/lvgl/src/extra/themes/basic/../../../../src/hal/../misc/lv_color.h **** 
 476:Middlewares/lvgl/src/extra/themes/basic/../../../../src/hal/../misc/lv_color.h ****     return ret;
 477:Middlewares/lvgl/src/extra/themes/basic/../../../../src/hal/../misc/lv_color.h **** }
 478:Middlewares/lvgl/src/extra/themes/basic/../../../../src/hal/../misc/lv_color.h **** 
 479:Middlewares/lvgl/src/extra/themes/basic/../../../../src/hal/../misc/lv_color.h **** LV_ATTRIBUTE_FAST_MEM static inline void lv_color_premult(lv_color_t c, uint8_t mix, uint16_t * out
 480:Middlewares/lvgl/src/extra/themes/basic/../../../../src/hal/../misc/lv_color.h **** {
 481:Middlewares/lvgl/src/extra/themes/basic/../../../../src/hal/../misc/lv_color.h **** #if LV_COLOR_DEPTH != 1
 482:Middlewares/lvgl/src/extra/themes/basic/../../../../src/hal/../misc/lv_color.h ****     out[0] = (uint16_t) LV_COLOR_GET_R(c) * mix;
 483:Middlewares/lvgl/src/extra/themes/basic/../../../../src/hal/../misc/lv_color.h ****     out[1] = (uint16_t) LV_COLOR_GET_G(c) * mix;
 484:Middlewares/lvgl/src/extra/themes/basic/../../../../src/hal/../misc/lv_color.h ****     out[2] = (uint16_t) LV_COLOR_GET_B(c) * mix;
 485:Middlewares/lvgl/src/extra/themes/basic/../../../../src/hal/../misc/lv_color.h **** #else
 486:Middlewares/lvgl/src/extra/themes/basic/../../../../src/hal/../misc/lv_color.h ****     (void) mix;
 487:Middlewares/lvgl/src/extra/themes/basic/../../../../src/hal/../misc/lv_color.h ****     /*Pre-multiplication can't be used with 1 bpp*/
 488:Middlewares/lvgl/src/extra/themes/basic/../../../../src/hal/../misc/lv_color.h ****     out[0] = LV_COLOR_GET_R(c);
 489:Middlewares/lvgl/src/extra/themes/basic/../../../../src/hal/../misc/lv_color.h ****     out[1] = LV_COLOR_GET_G(c);
 490:Middlewares/lvgl/src/extra/themes/basic/../../../../src/hal/../misc/lv_color.h ****     out[2] = LV_COLOR_GET_B(c);
 491:Middlewares/lvgl/src/extra/themes/basic/../../../../src/hal/../misc/lv_color.h **** #endif
 492:Middlewares/lvgl/src/extra/themes/basic/../../../../src/hal/../misc/lv_color.h **** 
 493:Middlewares/lvgl/src/extra/themes/basic/../../../../src/hal/../misc/lv_color.h **** }
 494:Middlewares/lvgl/src/extra/themes/basic/../../../../src/hal/../misc/lv_color.h **** 
 495:Middlewares/lvgl/src/extra/themes/basic/../../../../src/hal/../misc/lv_color.h **** /**
 496:Middlewares/lvgl/src/extra/themes/basic/../../../../src/hal/../misc/lv_color.h ****  * Mix two colors with a given ratio. It runs faster then `lv_color_mix` but requires some pre comp
 497:Middlewares/lvgl/src/extra/themes/basic/../../../../src/hal/../misc/lv_color.h ****  * @param premult_c1 The first color. Should be preprocessed with `lv_color_premult(c1)`
 498:Middlewares/lvgl/src/extra/themes/basic/../../../../src/hal/../misc/lv_color.h ****  * @param c2 The second color. As it is no pre computation required on it
 499:Middlewares/lvgl/src/extra/themes/basic/../../../../src/hal/../misc/lv_color.h ****  * @param mix The ratio of the colors. 0: full `c1`, 255: full `c2`, 127: half `c1` and half `c2`.
 500:Middlewares/lvgl/src/extra/themes/basic/../../../../src/hal/../misc/lv_color.h ****  *            Should be modified like mix = `255 - mix`
 501:Middlewares/lvgl/src/extra/themes/basic/../../../../src/hal/../misc/lv_color.h ****  * @return the mixed color
 502:Middlewares/lvgl/src/extra/themes/basic/../../../../src/hal/../misc/lv_color.h ****  * @note 255 won't give clearly `c1`.
 503:Middlewares/lvgl/src/extra/themes/basic/../../../../src/hal/../misc/lv_color.h ****  */
 504:Middlewares/lvgl/src/extra/themes/basic/../../../../src/hal/../misc/lv_color.h **** LV_ATTRIBUTE_FAST_MEM static inline lv_color_t lv_color_mix_premult(uint16_t * premult_c1, lv_color
 505:Middlewares/lvgl/src/extra/themes/basic/../../../../src/hal/../misc/lv_color.h **** {
 506:Middlewares/lvgl/src/extra/themes/basic/../../../../src/hal/../misc/lv_color.h ****     lv_color_t ret;
 507:Middlewares/lvgl/src/extra/themes/basic/../../../../src/hal/../misc/lv_color.h **** #if LV_COLOR_DEPTH != 1
 508:Middlewares/lvgl/src/extra/themes/basic/../../../../src/hal/../misc/lv_color.h ****     /*LV_COLOR_DEPTH == 8, 16 or 32*/
 509:Middlewares/lvgl/src/extra/themes/basic/../../../../src/hal/../misc/lv_color.h ****     LV_COLOR_SET_R(ret, LV_UDIV255(premult_c1[0] + LV_COLOR_GET_R(c2) * mix + LV_COLOR_MIX_ROUND_OF
 510:Middlewares/lvgl/src/extra/themes/basic/../../../../src/hal/../misc/lv_color.h ****     LV_COLOR_SET_G(ret, LV_UDIV255(premult_c1[1] + LV_COLOR_GET_G(c2) * mix + LV_COLOR_MIX_ROUND_OF
ARM GAS  /tmp/ccwx3eYd.s 			page 12


 511:Middlewares/lvgl/src/extra/themes/basic/../../../../src/hal/../misc/lv_color.h ****     LV_COLOR_SET_B(ret, LV_UDIV255(premult_c1[2] + LV_COLOR_GET_B(c2) * mix + LV_COLOR_MIX_ROUND_OF
 512:Middlewares/lvgl/src/extra/themes/basic/../../../../src/hal/../misc/lv_color.h ****     LV_COLOR_SET_A(ret, 0xFF);
 513:Middlewares/lvgl/src/extra/themes/basic/../../../../src/hal/../misc/lv_color.h **** #else
 514:Middlewares/lvgl/src/extra/themes/basic/../../../../src/hal/../misc/lv_color.h ****     /*LV_COLOR_DEPTH == 1*/
 515:Middlewares/lvgl/src/extra/themes/basic/../../../../src/hal/../misc/lv_color.h ****     /*Restore color1*/
 516:Middlewares/lvgl/src/extra/themes/basic/../../../../src/hal/../misc/lv_color.h ****     lv_color_t c1;
 517:Middlewares/lvgl/src/extra/themes/basic/../../../../src/hal/../misc/lv_color.h ****     LV_COLOR_SET_R(c1, premult_c1[0]);
 518:Middlewares/lvgl/src/extra/themes/basic/../../../../src/hal/../misc/lv_color.h ****     LV_COLOR_SET_G(c1, premult_c1[1]);
 519:Middlewares/lvgl/src/extra/themes/basic/../../../../src/hal/../misc/lv_color.h ****     LV_COLOR_SET_B(c1, premult_c1[2]);
 520:Middlewares/lvgl/src/extra/themes/basic/../../../../src/hal/../misc/lv_color.h ****     ret.full = mix > LV_OPA_50 ? c2.full : c1.full;
 521:Middlewares/lvgl/src/extra/themes/basic/../../../../src/hal/../misc/lv_color.h **** #endif
 522:Middlewares/lvgl/src/extra/themes/basic/../../../../src/hal/../misc/lv_color.h **** 
 523:Middlewares/lvgl/src/extra/themes/basic/../../../../src/hal/../misc/lv_color.h ****     return ret;
 524:Middlewares/lvgl/src/extra/themes/basic/../../../../src/hal/../misc/lv_color.h **** }
 525:Middlewares/lvgl/src/extra/themes/basic/../../../../src/hal/../misc/lv_color.h **** 
 526:Middlewares/lvgl/src/extra/themes/basic/../../../../src/hal/../misc/lv_color.h **** /**
 527:Middlewares/lvgl/src/extra/themes/basic/../../../../src/hal/../misc/lv_color.h ****  * Mix two colors. Both color can have alpha value.
 528:Middlewares/lvgl/src/extra/themes/basic/../../../../src/hal/../misc/lv_color.h ****  * @param bg_color background color
 529:Middlewares/lvgl/src/extra/themes/basic/../../../../src/hal/../misc/lv_color.h ****  * @param bg_opa alpha of the background color
 530:Middlewares/lvgl/src/extra/themes/basic/../../../../src/hal/../misc/lv_color.h ****  * @param fg_color foreground color
 531:Middlewares/lvgl/src/extra/themes/basic/../../../../src/hal/../misc/lv_color.h ****  * @param fg_opa alpha of the foreground color
 532:Middlewares/lvgl/src/extra/themes/basic/../../../../src/hal/../misc/lv_color.h ****  * @param res_color the result color
 533:Middlewares/lvgl/src/extra/themes/basic/../../../../src/hal/../misc/lv_color.h ****  * @param res_opa the result opacity
 534:Middlewares/lvgl/src/extra/themes/basic/../../../../src/hal/../misc/lv_color.h ****  */
 535:Middlewares/lvgl/src/extra/themes/basic/../../../../src/hal/../misc/lv_color.h **** LV_ATTRIBUTE_FAST_MEM static inline void lv_color_mix_with_alpha(lv_color_t bg_color, lv_opa_t bg_o
 536:Middlewares/lvgl/src/extra/themes/basic/../../../../src/hal/../misc/lv_color.h ****                                                                  lv_color_t fg_color, lv_opa_t fg_o
 537:Middlewares/lvgl/src/extra/themes/basic/../../../../src/hal/../misc/lv_color.h ****                                                                  lv_color_t * res_color, lv_opa_t *
 538:Middlewares/lvgl/src/extra/themes/basic/../../../../src/hal/../misc/lv_color.h **** {
 539:Middlewares/lvgl/src/extra/themes/basic/../../../../src/hal/../misc/lv_color.h ****     /*Pick the foreground if it's fully opaque or the Background is fully transparent*/
 540:Middlewares/lvgl/src/extra/themes/basic/../../../../src/hal/../misc/lv_color.h ****     if(fg_opa >= LV_OPA_MAX || bg_opa <= LV_OPA_MIN) {
 541:Middlewares/lvgl/src/extra/themes/basic/../../../../src/hal/../misc/lv_color.h ****         res_color->full = fg_color.full;
 542:Middlewares/lvgl/src/extra/themes/basic/../../../../src/hal/../misc/lv_color.h ****         *res_opa = fg_opa;
 543:Middlewares/lvgl/src/extra/themes/basic/../../../../src/hal/../misc/lv_color.h ****     }
 544:Middlewares/lvgl/src/extra/themes/basic/../../../../src/hal/../misc/lv_color.h ****     /*Transparent foreground: use the Background*/
 545:Middlewares/lvgl/src/extra/themes/basic/../../../../src/hal/../misc/lv_color.h ****     else if(fg_opa <= LV_OPA_MIN) {
 546:Middlewares/lvgl/src/extra/themes/basic/../../../../src/hal/../misc/lv_color.h ****         res_color->full = bg_color.full;
 547:Middlewares/lvgl/src/extra/themes/basic/../../../../src/hal/../misc/lv_color.h ****         *res_opa = bg_opa;
 548:Middlewares/lvgl/src/extra/themes/basic/../../../../src/hal/../misc/lv_color.h ****     }
 549:Middlewares/lvgl/src/extra/themes/basic/../../../../src/hal/../misc/lv_color.h ****     /*Opaque background: use simple mix*/
 550:Middlewares/lvgl/src/extra/themes/basic/../../../../src/hal/../misc/lv_color.h ****     else if(bg_opa >= LV_OPA_MAX) {
 551:Middlewares/lvgl/src/extra/themes/basic/../../../../src/hal/../misc/lv_color.h ****         *res_color = lv_color_mix(fg_color, bg_color, fg_opa);
 552:Middlewares/lvgl/src/extra/themes/basic/../../../../src/hal/../misc/lv_color.h ****         *res_opa = LV_OPA_COVER;
 553:Middlewares/lvgl/src/extra/themes/basic/../../../../src/hal/../misc/lv_color.h ****     }
 554:Middlewares/lvgl/src/extra/themes/basic/../../../../src/hal/../misc/lv_color.h ****     /*Both colors have alpha. Expensive calculation need to be applied*/
 555:Middlewares/lvgl/src/extra/themes/basic/../../../../src/hal/../misc/lv_color.h ****     else {
 556:Middlewares/lvgl/src/extra/themes/basic/../../../../src/hal/../misc/lv_color.h ****         /*Save the parameters and the result. If they will be asked again don't compute again*/
 557:Middlewares/lvgl/src/extra/themes/basic/../../../../src/hal/../misc/lv_color.h ****         static lv_opa_t fg_opa_save     = 0;
 558:Middlewares/lvgl/src/extra/themes/basic/../../../../src/hal/../misc/lv_color.h ****         static lv_opa_t bg_opa_save     = 0;
 559:Middlewares/lvgl/src/extra/themes/basic/../../../../src/hal/../misc/lv_color.h ****         static lv_color_t fg_color_save = _LV_COLOR_ZERO_INITIALIZER;
 560:Middlewares/lvgl/src/extra/themes/basic/../../../../src/hal/../misc/lv_color.h ****         static lv_color_t bg_color_save = _LV_COLOR_ZERO_INITIALIZER;
 561:Middlewares/lvgl/src/extra/themes/basic/../../../../src/hal/../misc/lv_color.h ****         static lv_color_t res_color_saved = _LV_COLOR_ZERO_INITIALIZER;
 562:Middlewares/lvgl/src/extra/themes/basic/../../../../src/hal/../misc/lv_color.h ****         static lv_opa_t res_opa_saved = 0;
 563:Middlewares/lvgl/src/extra/themes/basic/../../../../src/hal/../misc/lv_color.h **** 
 564:Middlewares/lvgl/src/extra/themes/basic/../../../../src/hal/../misc/lv_color.h ****         if(fg_opa != fg_opa_save || bg_opa != bg_opa_save || fg_color.full != fg_color_save.full ||
 565:Middlewares/lvgl/src/extra/themes/basic/../../../../src/hal/../misc/lv_color.h ****            bg_color.full != bg_color_save.full) {
 566:Middlewares/lvgl/src/extra/themes/basic/../../../../src/hal/../misc/lv_color.h ****             fg_opa_save        = fg_opa;
 567:Middlewares/lvgl/src/extra/themes/basic/../../../../src/hal/../misc/lv_color.h ****             bg_opa_save        = bg_opa;
ARM GAS  /tmp/ccwx3eYd.s 			page 13


 568:Middlewares/lvgl/src/extra/themes/basic/../../../../src/hal/../misc/lv_color.h ****             fg_color_save.full = fg_color.full;
 569:Middlewares/lvgl/src/extra/themes/basic/../../../../src/hal/../misc/lv_color.h ****             bg_color_save.full = bg_color.full;
 570:Middlewares/lvgl/src/extra/themes/basic/../../../../src/hal/../misc/lv_color.h ****             /*Info:
 571:Middlewares/lvgl/src/extra/themes/basic/../../../../src/hal/../misc/lv_color.h ****              * https://en.wikipedia.org/wiki/Alpha_compositing#Analytical_derivation_of_the_over_op
 572:Middlewares/lvgl/src/extra/themes/basic/../../../../src/hal/../misc/lv_color.h ****             res_opa_saved = 255 - ((uint16_t)((uint16_t)(255 - fg_opa) * (255 - bg_opa)) >> 8);
 573:Middlewares/lvgl/src/extra/themes/basic/../../../../src/hal/../misc/lv_color.h ****             if(res_opa_saved == 0) {
 574:Middlewares/lvgl/src/extra/themes/basic/../../../../src/hal/../misc/lv_color.h ****                 while(1)
 575:Middlewares/lvgl/src/extra/themes/basic/../../../../src/hal/../misc/lv_color.h ****                     ;
 576:Middlewares/lvgl/src/extra/themes/basic/../../../../src/hal/../misc/lv_color.h ****             }
 577:Middlewares/lvgl/src/extra/themes/basic/../../../../src/hal/../misc/lv_color.h ****             lv_opa_t ratio = (uint16_t)((uint16_t)fg_opa * 255) / res_opa_saved;
 578:Middlewares/lvgl/src/extra/themes/basic/../../../../src/hal/../misc/lv_color.h ****             res_color_saved = lv_color_mix(fg_color, bg_color, ratio);
 579:Middlewares/lvgl/src/extra/themes/basic/../../../../src/hal/../misc/lv_color.h **** 
 580:Middlewares/lvgl/src/extra/themes/basic/../../../../src/hal/../misc/lv_color.h ****         }
 581:Middlewares/lvgl/src/extra/themes/basic/../../../../src/hal/../misc/lv_color.h **** 
 582:Middlewares/lvgl/src/extra/themes/basic/../../../../src/hal/../misc/lv_color.h ****         res_color->full = res_color_saved.full;
 583:Middlewares/lvgl/src/extra/themes/basic/../../../../src/hal/../misc/lv_color.h ****         *res_opa = res_opa_saved;
 584:Middlewares/lvgl/src/extra/themes/basic/../../../../src/hal/../misc/lv_color.h ****     }
 585:Middlewares/lvgl/src/extra/themes/basic/../../../../src/hal/../misc/lv_color.h **** }
 586:Middlewares/lvgl/src/extra/themes/basic/../../../../src/hal/../misc/lv_color.h **** 
 587:Middlewares/lvgl/src/extra/themes/basic/../../../../src/hal/../misc/lv_color.h **** //! @endcond
 588:Middlewares/lvgl/src/extra/themes/basic/../../../../src/hal/../misc/lv_color.h **** 
 589:Middlewares/lvgl/src/extra/themes/basic/../../../../src/hal/../misc/lv_color.h **** /**
 590:Middlewares/lvgl/src/extra/themes/basic/../../../../src/hal/../misc/lv_color.h ****  * Get the brightness of a color
 591:Middlewares/lvgl/src/extra/themes/basic/../../../../src/hal/../misc/lv_color.h ****  * @param color a color
 592:Middlewares/lvgl/src/extra/themes/basic/../../../../src/hal/../misc/lv_color.h ****  * @return the brightness [0..255]
 593:Middlewares/lvgl/src/extra/themes/basic/../../../../src/hal/../misc/lv_color.h ****  */
 594:Middlewares/lvgl/src/extra/themes/basic/../../../../src/hal/../misc/lv_color.h **** static inline uint8_t lv_color_brightness(lv_color_t color)
 595:Middlewares/lvgl/src/extra/themes/basic/../../../../src/hal/../misc/lv_color.h **** {
 596:Middlewares/lvgl/src/extra/themes/basic/../../../../src/hal/../misc/lv_color.h ****     lv_color32_t c32;
 597:Middlewares/lvgl/src/extra/themes/basic/../../../../src/hal/../misc/lv_color.h ****     c32.full        = lv_color_to32(color);
 598:Middlewares/lvgl/src/extra/themes/basic/../../../../src/hal/../misc/lv_color.h ****     uint16_t bright = (uint16_t)(3u * LV_COLOR_GET_R32(c32) + LV_COLOR_GET_B32(c32) + 4u * LV_COLOR
 599:Middlewares/lvgl/src/extra/themes/basic/../../../../src/hal/../misc/lv_color.h ****     return (uint8_t)(bright >> 3);
 600:Middlewares/lvgl/src/extra/themes/basic/../../../../src/hal/../misc/lv_color.h **** }
 601:Middlewares/lvgl/src/extra/themes/basic/../../../../src/hal/../misc/lv_color.h **** 
 602:Middlewares/lvgl/src/extra/themes/basic/../../../../src/hal/../misc/lv_color.h **** static inline lv_color_t lv_color_make(uint8_t r, uint8_t g, uint8_t b)
 603:Middlewares/lvgl/src/extra/themes/basic/../../../../src/hal/../misc/lv_color.h **** {
 604:Middlewares/lvgl/src/extra/themes/basic/../../../../src/hal/../misc/lv_color.h ****     return _LV_COLOR_MAKE_TYPE_HELPER LV_COLOR_MAKE(r, g, b);
 605:Middlewares/lvgl/src/extra/themes/basic/../../../../src/hal/../misc/lv_color.h **** }
 606:Middlewares/lvgl/src/extra/themes/basic/../../../../src/hal/../misc/lv_color.h **** 
 607:Middlewares/lvgl/src/extra/themes/basic/../../../../src/hal/../misc/lv_color.h **** static inline lv_color_t lv_color_hex(uint32_t c)
 608:Middlewares/lvgl/src/extra/themes/basic/../../../../src/hal/../misc/lv_color.h **** {
 609:Middlewares/lvgl/src/extra/themes/basic/../../../../src/hal/../misc/lv_color.h ****     return lv_color_make((uint8_t)((c >> 16) & 0xFF), (uint8_t)((c >> 8) & 0xFF), (uint8_t)(c & 0xF
 610:Middlewares/lvgl/src/extra/themes/basic/../../../../src/hal/../misc/lv_color.h **** }
 611:Middlewares/lvgl/src/extra/themes/basic/../../../../src/hal/../misc/lv_color.h **** 
 612:Middlewares/lvgl/src/extra/themes/basic/../../../../src/hal/../misc/lv_color.h **** static inline lv_color_t lv_color_hex3(uint32_t c)
 613:Middlewares/lvgl/src/extra/themes/basic/../../../../src/hal/../misc/lv_color.h **** {
 614:Middlewares/lvgl/src/extra/themes/basic/../../../../src/hal/../misc/lv_color.h ****     return lv_color_make((uint8_t)(((c >> 4) & 0xF0) | ((c >> 8) & 0xF)), (uint8_t)((c & 0xF0) | ((
 615:Middlewares/lvgl/src/extra/themes/basic/../../../../src/hal/../misc/lv_color.h ****                          (uint8_t)((c & 0xF) | ((c & 0xF) << 4)));
 616:Middlewares/lvgl/src/extra/themes/basic/../../../../src/hal/../misc/lv_color.h **** }
 617:Middlewares/lvgl/src/extra/themes/basic/../../../../src/hal/../misc/lv_color.h **** 
 618:Middlewares/lvgl/src/extra/themes/basic/../../../../src/hal/../misc/lv_color.h **** static inline void lv_color_filter_dsc_init(lv_color_filter_dsc_t * dsc, lv_color_filter_cb_t cb)
 619:Middlewares/lvgl/src/extra/themes/basic/../../../../src/hal/../misc/lv_color.h **** {
 620:Middlewares/lvgl/src/extra/themes/basic/../../../../src/hal/../misc/lv_color.h ****     dsc->filter_cb = cb;
 621:Middlewares/lvgl/src/extra/themes/basic/../../../../src/hal/../misc/lv_color.h **** }
 622:Middlewares/lvgl/src/extra/themes/basic/../../../../src/hal/../misc/lv_color.h **** 
 623:Middlewares/lvgl/src/extra/themes/basic/../../../../src/hal/../misc/lv_color.h **** //! @cond Doxygen_Suppress
 624:Middlewares/lvgl/src/extra/themes/basic/../../../../src/hal/../misc/lv_color.h **** //!
ARM GAS  /tmp/ccwx3eYd.s 			page 14


 625:Middlewares/lvgl/src/extra/themes/basic/../../../../src/hal/../misc/lv_color.h **** LV_ATTRIBUTE_FAST_MEM void lv_color_fill(lv_color_t * buf, lv_color_t color, uint32_t px_num);
 626:Middlewares/lvgl/src/extra/themes/basic/../../../../src/hal/../misc/lv_color.h **** 
 627:Middlewares/lvgl/src/extra/themes/basic/../../../../src/hal/../misc/lv_color.h **** //! @endcond
 628:Middlewares/lvgl/src/extra/themes/basic/../../../../src/hal/../misc/lv_color.h **** lv_color_t lv_color_lighten(lv_color_t c, lv_opa_t lvl);
 629:Middlewares/lvgl/src/extra/themes/basic/../../../../src/hal/../misc/lv_color.h **** 
 630:Middlewares/lvgl/src/extra/themes/basic/../../../../src/hal/../misc/lv_color.h **** lv_color_t lv_color_darken(lv_color_t c, lv_opa_t lvl);
 631:Middlewares/lvgl/src/extra/themes/basic/../../../../src/hal/../misc/lv_color.h **** 
 632:Middlewares/lvgl/src/extra/themes/basic/../../../../src/hal/../misc/lv_color.h **** lv_color_t lv_color_change_lightness(lv_color_t c, lv_opa_t lvl);
 633:Middlewares/lvgl/src/extra/themes/basic/../../../../src/hal/../misc/lv_color.h **** 
 634:Middlewares/lvgl/src/extra/themes/basic/../../../../src/hal/../misc/lv_color.h **** /**
 635:Middlewares/lvgl/src/extra/themes/basic/../../../../src/hal/../misc/lv_color.h ****  * Convert a HSV color to RGB
 636:Middlewares/lvgl/src/extra/themes/basic/../../../../src/hal/../misc/lv_color.h ****  * @param h hue [0..359]
 637:Middlewares/lvgl/src/extra/themes/basic/../../../../src/hal/../misc/lv_color.h ****  * @param s saturation [0..100]
 638:Middlewares/lvgl/src/extra/themes/basic/../../../../src/hal/../misc/lv_color.h ****  * @param v value [0..100]
 639:Middlewares/lvgl/src/extra/themes/basic/../../../../src/hal/../misc/lv_color.h ****  * @return the given RGB color in RGB (with LV_COLOR_DEPTH depth)
 640:Middlewares/lvgl/src/extra/themes/basic/../../../../src/hal/../misc/lv_color.h ****  */
 641:Middlewares/lvgl/src/extra/themes/basic/../../../../src/hal/../misc/lv_color.h **** lv_color_t lv_color_hsv_to_rgb(uint16_t h, uint8_t s, uint8_t v);
 642:Middlewares/lvgl/src/extra/themes/basic/../../../../src/hal/../misc/lv_color.h **** 
 643:Middlewares/lvgl/src/extra/themes/basic/../../../../src/hal/../misc/lv_color.h **** /**
 644:Middlewares/lvgl/src/extra/themes/basic/../../../../src/hal/../misc/lv_color.h ****  * Convert a 32-bit RGB color to HSV
 645:Middlewares/lvgl/src/extra/themes/basic/../../../../src/hal/../misc/lv_color.h ****  * @param r8 8-bit red
 646:Middlewares/lvgl/src/extra/themes/basic/../../../../src/hal/../misc/lv_color.h ****  * @param g8 8-bit green
 647:Middlewares/lvgl/src/extra/themes/basic/../../../../src/hal/../misc/lv_color.h ****  * @param b8 8-bit blue
 648:Middlewares/lvgl/src/extra/themes/basic/../../../../src/hal/../misc/lv_color.h ****  * @return the given RGB color in HSV
 649:Middlewares/lvgl/src/extra/themes/basic/../../../../src/hal/../misc/lv_color.h ****  */
 650:Middlewares/lvgl/src/extra/themes/basic/../../../../src/hal/../misc/lv_color.h **** lv_color_hsv_t lv_color_rgb_to_hsv(uint8_t r8, uint8_t g8, uint8_t b8);
 651:Middlewares/lvgl/src/extra/themes/basic/../../../../src/hal/../misc/lv_color.h **** 
 652:Middlewares/lvgl/src/extra/themes/basic/../../../../src/hal/../misc/lv_color.h **** /**
 653:Middlewares/lvgl/src/extra/themes/basic/../../../../src/hal/../misc/lv_color.h ****  * Convert a color to HSV
 654:Middlewares/lvgl/src/extra/themes/basic/../../../../src/hal/../misc/lv_color.h ****  * @param color color
 655:Middlewares/lvgl/src/extra/themes/basic/../../../../src/hal/../misc/lv_color.h ****  * @return the given color in HSV
 656:Middlewares/lvgl/src/extra/themes/basic/../../../../src/hal/../misc/lv_color.h ****  */
 657:Middlewares/lvgl/src/extra/themes/basic/../../../../src/hal/../misc/lv_color.h **** lv_color_hsv_t lv_color_to_hsv(lv_color_t color);
 658:Middlewares/lvgl/src/extra/themes/basic/../../../../src/hal/../misc/lv_color.h **** 
 659:Middlewares/lvgl/src/extra/themes/basic/../../../../src/hal/../misc/lv_color.h **** /**
 660:Middlewares/lvgl/src/extra/themes/basic/../../../../src/hal/../misc/lv_color.h ****  * Just a wrapper around LV_COLOR_CHROMA_KEY because it might be more convenient to use a function 
 661:Middlewares/lvgl/src/extra/themes/basic/../../../../src/hal/../misc/lv_color.h ****  * @return LV_COLOR_CHROMA_KEY
 662:Middlewares/lvgl/src/extra/themes/basic/../../../../src/hal/../misc/lv_color.h ****  */
 663:Middlewares/lvgl/src/extra/themes/basic/../../../../src/hal/../misc/lv_color.h **** static inline lv_color_t lv_color_chroma_key(void)
 664:Middlewares/lvgl/src/extra/themes/basic/../../../../src/hal/../misc/lv_color.h **** {
 665:Middlewares/lvgl/src/extra/themes/basic/../../../../src/hal/../misc/lv_color.h ****     return LV_COLOR_CHROMA_KEY;
 666:Middlewares/lvgl/src/extra/themes/basic/../../../../src/hal/../misc/lv_color.h **** }
 667:Middlewares/lvgl/src/extra/themes/basic/../../../../src/hal/../misc/lv_color.h **** 
 668:Middlewares/lvgl/src/extra/themes/basic/../../../../src/hal/../misc/lv_color.h **** /**********************
 669:Middlewares/lvgl/src/extra/themes/basic/../../../../src/hal/../misc/lv_color.h ****  *  PREDEFINED COLORS
 670:Middlewares/lvgl/src/extra/themes/basic/../../../../src/hal/../misc/lv_color.h ****  **********************/
 671:Middlewares/lvgl/src/extra/themes/basic/../../../../src/hal/../misc/lv_color.h **** /*Source: https://vuetifyjs.com/en/styles/colors/#material-colors*/
 672:Middlewares/lvgl/src/extra/themes/basic/../../../../src/hal/../misc/lv_color.h **** 
 673:Middlewares/lvgl/src/extra/themes/basic/../../../../src/hal/../misc/lv_color.h **** lv_color_t lv_palette_main(lv_palette_t p);
 674:Middlewares/lvgl/src/extra/themes/basic/../../../../src/hal/../misc/lv_color.h **** static inline lv_color_t lv_color_white(void) { return lv_color_make(0xff, 0xff, 0xff);}
  44              		.loc 2 674 26 view .LVU4
  45              	.LBE21:
  46              		.loc 2 674 49 view .LVU5
  47              	.LVL1:
  48              	.LBB24:
  49              	.LBB22:
  50              	.LBI22:
ARM GAS  /tmp/ccwx3eYd.s 			page 15


 602:Middlewares/lvgl/src/extra/themes/basic/../../../../src/hal/../misc/lv_color.h **** {
  51              		.loc 2 602 26 view .LVU6
  52              	.LBB23:
 604:Middlewares/lvgl/src/extra/themes/basic/../../../../src/hal/../misc/lv_color.h **** }
  53              		.loc 2 604 5 view .LVU7
 604:Middlewares/lvgl/src/extra/themes/basic/../../../../src/hal/../misc/lv_color.h **** }
  54              		.loc 2 604 12 is_stmt 0 view .LVU8
  55 0002 4FF6FF7E 		movw	lr, #65535
  56              	.LVL2:
 604:Middlewares/lvgl/src/extra/themes/basic/../../../../src/hal/../misc/lv_color.h **** }
  57              		.loc 2 604 12 view .LVU9
  58              	.LBE23:
  59              	.LBE22:
  60              	.LBE24:
  61              	.LBB25:
  62              	.LBI25:
 459:Middlewares/lvgl/src/extra/themes/basic/../../../../src/hal/../misc/lv_color.h **** {
  63              		.loc 2 459 48 is_stmt 1 view .LVU10
  64              	.LBB26:
 461:Middlewares/lvgl/src/extra/themes/basic/../../../../src/hal/../misc/lv_color.h **** #if LV_COLOR_DEPTH != 1
  65              		.loc 2 461 5 view .LVU11
 464:Middlewares/lvgl/src/extra/themes/basic/../../../../src/hal/../misc/lv_color.h ****                                         (255 - mix) + LV_COLOR_MIX_ROUND_OFS));
  66              		.loc 2 464 5 view .LVU12
  67 0006 4FEADE24 		lsr	r4, lr, #11
  68 000a C1F3C420 		ubfx	r0, r1, #11, #5
  69              	.LVL3:
 464:Middlewares/lvgl/src/extra/themes/basic/../../../../src/hal/../misc/lv_color.h ****                                         (255 - mix) + LV_COLOR_MIX_ROUND_OFS));
  70              		.loc 2 464 5 is_stmt 0 view .LVU13
  71 000e C2F1FF03 		rsb	r3, r2, #255
  72 0012 03FB00F0 		mul	r0, r3, r0
  73 0016 02FB0400 		mla	r0, r2, r4, r0
  74 001a 8030     		adds	r0, r0, #128
  75 001c 00EB002C 		add	ip, r0, r0, lsl #8
  76 0020 00EBCC10 		add	r0, r0, ip, lsl #7
  77 0024 C0F3C45C 		ubfx	ip, r0, #23, #5
  78 0028 4FF00000 		mov	r0, #0	@ movhi
  79              	.LVL4:
 464:Middlewares/lvgl/src/extra/themes/basic/../../../../src/hal/../misc/lv_color.h ****                                         (255 - mix) + LV_COLOR_MIX_ROUND_OFS));
  80              		.loc 2 464 5 view .LVU14
  81 002c 6CF3CF20 		bfi	r0, ip, #11, #5
  82              	.LVL5:
 466:Middlewares/lvgl/src/extra/themes/basic/../../../../src/hal/../misc/lv_color.h ****                                         (255 - mix) + LV_COLOR_MIX_ROUND_OFS));
  83              		.loc 2 466 5 is_stmt 1 view .LVU15
  84 0030 CEF34514 		ubfx	r4, lr, #5, #6
  85 0034 C1F3451C 		ubfx	ip, r1, #5, #6
  86 0038 0CFB03FC 		mul	ip, ip, r3
  87 003c 04FB02CC 		mla	ip, r4, r2, ip
  88 0040 0CF1800C 		add	ip, ip, #128
  89 0044 0CEB0C24 		add	r4, ip, ip, lsl #8
  90 0048 0CEBC41C 		add	ip, ip, r4, lsl #7
  91 004c CCF3C55C 		ubfx	ip, ip, #23, #6
  92 0050 6CF34A10 		bfi	r0, ip, #5, #6
 468:Middlewares/lvgl/src/extra/themes/basic/../../../../src/hal/../misc/lv_color.h ****                                         (255 - mix) + LV_COLOR_MIX_ROUND_OFS));
  93              		.loc 2 468 5 view .LVU16
  94 0054 0EF01F0E 		and	lr, lr, #31
  95 0058 01F01F01 		and	r1, r1, #31
  96              	.LVL6:
ARM GAS  /tmp/ccwx3eYd.s 			page 16


 468:Middlewares/lvgl/src/extra/themes/basic/../../../../src/hal/../misc/lv_color.h ****                                         (255 - mix) + LV_COLOR_MIX_ROUND_OFS));
  97              		.loc 2 468 5 is_stmt 0 view .LVU17
  98 005c 01FB03F3 		mul	r3, r1, r3
  99 0060 0EFB0232 		mla	r2, lr, r2, r3
 100              	.LVL7:
 468:Middlewares/lvgl/src/extra/themes/basic/../../../../src/hal/../misc/lv_color.h ****                                         (255 - mix) + LV_COLOR_MIX_ROUND_OFS));
 101              		.loc 2 468 5 view .LVU18
 102 0064 8032     		adds	r2, r2, #128
 103 0066 02EB0223 		add	r3, r2, r2, lsl #8
 104 006a 02EBC312 		add	r2, r2, r3, lsl #7
 105 006e C2F3C452 		ubfx	r2, r2, #23, #5
 106 0072 62F30400 		bfi	r0, r2, #0, #5
 470:Middlewares/lvgl/src/extra/themes/basic/../../../../src/hal/../misc/lv_color.h **** #else
 107              		.loc 2 470 5 is_stmt 1 view .LVU19
 470:Middlewares/lvgl/src/extra/themes/basic/../../../../src/hal/../misc/lv_color.h **** #else
 108              		.loc 2 470 5 view .LVU20
 470:Middlewares/lvgl/src/extra/themes/basic/../../../../src/hal/../misc/lv_color.h **** #else
 109              		.loc 2 470 5 view .LVU21
 476:Middlewares/lvgl/src/extra/themes/basic/../../../../src/hal/../misc/lv_color.h **** }
 110              		.loc 2 476 5 view .LVU22
 111              	.LVL8:
 112              	.LVL9:
 476:Middlewares/lvgl/src/extra/themes/basic/../../../../src/hal/../misc/lv_color.h **** }
 113              		.loc 2 476 5 is_stmt 0 view .LVU23
 114              	.LBE26:
 115              	.LBE25:
  76:Middlewares/lvgl/src/extra/themes/basic/lv_theme_basic.c **** }
 116              		.loc 1 76 1 view .LVU24
 117 0076 10BD     		pop	{r4, pc}
 118              		.cfi_endproc
 119              	.LFE185:
 121              		.section	.text.theme_apply,"ax",%progbits
 122              		.align	1
 123              		.syntax unified
 124              		.thumb
 125              		.thumb_func
 126              		.fpu fpv4-sp-d16
 128              	theme_apply:
 129              	.LVL10:
 130              	.LFB188:
  77:Middlewares/lvgl/src/extra/themes/basic/lv_theme_basic.c **** 
  78:Middlewares/lvgl/src/extra/themes/basic/lv_theme_basic.c **** static void style_init(void)
  79:Middlewares/lvgl/src/extra/themes/basic/lv_theme_basic.c **** {
  80:Middlewares/lvgl/src/extra/themes/basic/lv_theme_basic.c ****     style_init_reset(&styles->scrollbar);
  81:Middlewares/lvgl/src/extra/themes/basic/lv_theme_basic.c ****     lv_style_set_bg_opa(&styles->scrollbar, LV_OPA_COVER);
  82:Middlewares/lvgl/src/extra/themes/basic/lv_theme_basic.c ****     lv_style_set_bg_color(&styles->scrollbar, lv_palette_darken(LV_PALETTE_GREY, 2));
  83:Middlewares/lvgl/src/extra/themes/basic/lv_theme_basic.c ****     lv_style_set_width(&styles->scrollbar,  PAD_DEF);
  84:Middlewares/lvgl/src/extra/themes/basic/lv_theme_basic.c **** 
  85:Middlewares/lvgl/src/extra/themes/basic/lv_theme_basic.c ****     style_init_reset(&styles->scr);
  86:Middlewares/lvgl/src/extra/themes/basic/lv_theme_basic.c ****     lv_style_set_bg_opa(&styles->scr, LV_OPA_COVER);
  87:Middlewares/lvgl/src/extra/themes/basic/lv_theme_basic.c ****     lv_style_set_bg_color(&styles->scr, COLOR_WHITE);
  88:Middlewares/lvgl/src/extra/themes/basic/lv_theme_basic.c ****     lv_style_set_text_color(&styles->scr, COLOR_DIM);
  89:Middlewares/lvgl/src/extra/themes/basic/lv_theme_basic.c ****     lv_style_set_pad_row(&styles->scr, PAD_DEF / 2);
  90:Middlewares/lvgl/src/extra/themes/basic/lv_theme_basic.c ****     lv_style_set_pad_column(&styles->scr, PAD_DEF / 2);
  91:Middlewares/lvgl/src/extra/themes/basic/lv_theme_basic.c **** 
  92:Middlewares/lvgl/src/extra/themes/basic/lv_theme_basic.c ****     style_init_reset(&styles->light);
  93:Middlewares/lvgl/src/extra/themes/basic/lv_theme_basic.c ****     lv_style_set_bg_opa(&styles->light, LV_OPA_COVER);
ARM GAS  /tmp/ccwx3eYd.s 			page 17


  94:Middlewares/lvgl/src/extra/themes/basic/lv_theme_basic.c ****     lv_style_set_bg_color(&styles->light, COLOR_LIGHT);
  95:Middlewares/lvgl/src/extra/themes/basic/lv_theme_basic.c ****     lv_style_set_border_color(&styles->light, COLOR_MID);
  96:Middlewares/lvgl/src/extra/themes/basic/lv_theme_basic.c ****     lv_style_set_border_width(&styles->light, 1);
  97:Middlewares/lvgl/src/extra/themes/basic/lv_theme_basic.c ****     lv_style_set_pad_all(&styles->light, PAD_DEF);
  98:Middlewares/lvgl/src/extra/themes/basic/lv_theme_basic.c ****     lv_style_set_pad_gap(&styles->light, PAD_DEF / 2);
  99:Middlewares/lvgl/src/extra/themes/basic/lv_theme_basic.c ****     lv_style_set_line_width(&styles->light, LV_DPX(2));
 100:Middlewares/lvgl/src/extra/themes/basic/lv_theme_basic.c ****     lv_style_set_line_color(&styles->light, COLOR_MID);
 101:Middlewares/lvgl/src/extra/themes/basic/lv_theme_basic.c ****     lv_style_set_arc_width(&styles->light, LV_DPX(2));
 102:Middlewares/lvgl/src/extra/themes/basic/lv_theme_basic.c ****     lv_style_set_arc_color(&styles->light, COLOR_MID);
 103:Middlewares/lvgl/src/extra/themes/basic/lv_theme_basic.c **** 
 104:Middlewares/lvgl/src/extra/themes/basic/lv_theme_basic.c ****     style_init_reset(&styles->dark);
 105:Middlewares/lvgl/src/extra/themes/basic/lv_theme_basic.c ****     lv_style_set_bg_opa(&styles->dark, LV_OPA_COVER);
 106:Middlewares/lvgl/src/extra/themes/basic/lv_theme_basic.c ****     lv_style_set_bg_color(&styles->dark, COLOR_DARK);
 107:Middlewares/lvgl/src/extra/themes/basic/lv_theme_basic.c ****     lv_style_set_border_color(&styles->dark, COLOR_DIM);
 108:Middlewares/lvgl/src/extra/themes/basic/lv_theme_basic.c ****     lv_style_set_border_width(&styles->dark, 1);
 109:Middlewares/lvgl/src/extra/themes/basic/lv_theme_basic.c ****     lv_style_set_pad_all(&styles->dark, PAD_DEF);
 110:Middlewares/lvgl/src/extra/themes/basic/lv_theme_basic.c ****     lv_style_set_pad_gap(&styles->dark, PAD_DEF / 2);
 111:Middlewares/lvgl/src/extra/themes/basic/lv_theme_basic.c ****     lv_style_set_line_width(&styles->dark, LV_DPX(2));
 112:Middlewares/lvgl/src/extra/themes/basic/lv_theme_basic.c ****     lv_style_set_line_color(&styles->dark, COLOR_DIM);
 113:Middlewares/lvgl/src/extra/themes/basic/lv_theme_basic.c ****     lv_style_set_arc_width(&styles->dark, LV_DPX(2));
 114:Middlewares/lvgl/src/extra/themes/basic/lv_theme_basic.c ****     lv_style_set_arc_color(&styles->dark, COLOR_DIM);
 115:Middlewares/lvgl/src/extra/themes/basic/lv_theme_basic.c **** 
 116:Middlewares/lvgl/src/extra/themes/basic/lv_theme_basic.c ****     static lv_color_filter_dsc_t dark_filter;
 117:Middlewares/lvgl/src/extra/themes/basic/lv_theme_basic.c ****     lv_color_filter_dsc_init(&dark_filter, dark_color_filter_cb);
 118:Middlewares/lvgl/src/extra/themes/basic/lv_theme_basic.c **** 
 119:Middlewares/lvgl/src/extra/themes/basic/lv_theme_basic.c ****     style_init_reset(&styles->pressed);
 120:Middlewares/lvgl/src/extra/themes/basic/lv_theme_basic.c ****     lv_style_set_color_filter_dsc(&styles->pressed, &dark_filter);
 121:Middlewares/lvgl/src/extra/themes/basic/lv_theme_basic.c ****     lv_style_set_color_filter_opa(&styles->pressed, 35);
 122:Middlewares/lvgl/src/extra/themes/basic/lv_theme_basic.c **** 
 123:Middlewares/lvgl/src/extra/themes/basic/lv_theme_basic.c ****     static lv_color_filter_dsc_t grey_filter;
 124:Middlewares/lvgl/src/extra/themes/basic/lv_theme_basic.c ****     lv_color_filter_dsc_init(&grey_filter, grey_filter_cb);
 125:Middlewares/lvgl/src/extra/themes/basic/lv_theme_basic.c **** 
 126:Middlewares/lvgl/src/extra/themes/basic/lv_theme_basic.c ****     style_init_reset(&styles->disabled);
 127:Middlewares/lvgl/src/extra/themes/basic/lv_theme_basic.c ****     lv_style_set_color_filter_dsc(&styles->disabled, &grey_filter);
 128:Middlewares/lvgl/src/extra/themes/basic/lv_theme_basic.c ****     lv_style_set_color_filter_opa(&styles->disabled, LV_OPA_70);
 129:Middlewares/lvgl/src/extra/themes/basic/lv_theme_basic.c **** 
 130:Middlewares/lvgl/src/extra/themes/basic/lv_theme_basic.c ****     style_init_reset(&styles->pad_zero);
 131:Middlewares/lvgl/src/extra/themes/basic/lv_theme_basic.c ****     lv_style_set_pad_all(&styles->pad_zero, 0);
 132:Middlewares/lvgl/src/extra/themes/basic/lv_theme_basic.c ****     lv_style_set_pad_gap(&styles->pad_zero, 0);
 133:Middlewares/lvgl/src/extra/themes/basic/lv_theme_basic.c **** 
 134:Middlewares/lvgl/src/extra/themes/basic/lv_theme_basic.c **** #if LV_USE_TEXTAREA
 135:Middlewares/lvgl/src/extra/themes/basic/lv_theme_basic.c ****     style_init_reset(&styles->ta_cursor);
 136:Middlewares/lvgl/src/extra/themes/basic/lv_theme_basic.c ****     lv_style_set_border_side(&styles->ta_cursor, LV_BORDER_SIDE_LEFT);
 137:Middlewares/lvgl/src/extra/themes/basic/lv_theme_basic.c ****     lv_style_set_border_color(&styles->ta_cursor, COLOR_DIM);
 138:Middlewares/lvgl/src/extra/themes/basic/lv_theme_basic.c ****     lv_style_set_border_width(&styles->ta_cursor, 2);
 139:Middlewares/lvgl/src/extra/themes/basic/lv_theme_basic.c ****     lv_style_set_bg_opa(&styles->ta_cursor, LV_OPA_TRANSP);
 140:Middlewares/lvgl/src/extra/themes/basic/lv_theme_basic.c ****     lv_style_set_anim_time(&styles->ta_cursor, 500);
 141:Middlewares/lvgl/src/extra/themes/basic/lv_theme_basic.c **** #endif
 142:Middlewares/lvgl/src/extra/themes/basic/lv_theme_basic.c **** }
 143:Middlewares/lvgl/src/extra/themes/basic/lv_theme_basic.c **** 
 144:Middlewares/lvgl/src/extra/themes/basic/lv_theme_basic.c **** 
 145:Middlewares/lvgl/src/extra/themes/basic/lv_theme_basic.c **** /**********************
 146:Middlewares/lvgl/src/extra/themes/basic/lv_theme_basic.c ****  *   GLOBAL FUNCTIONS
 147:Middlewares/lvgl/src/extra/themes/basic/lv_theme_basic.c ****  **********************/
 148:Middlewares/lvgl/src/extra/themes/basic/lv_theme_basic.c **** 
 149:Middlewares/lvgl/src/extra/themes/basic/lv_theme_basic.c **** lv_theme_t * lv_theme_basic_init(lv_disp_t * disp)
 150:Middlewares/lvgl/src/extra/themes/basic/lv_theme_basic.c **** {
ARM GAS  /tmp/ccwx3eYd.s 			page 18


 151:Middlewares/lvgl/src/extra/themes/basic/lv_theme_basic.c **** 
 152:Middlewares/lvgl/src/extra/themes/basic/lv_theme_basic.c ****     /*This trick is required only to avoid the garbage collection of
 153:Middlewares/lvgl/src/extra/themes/basic/lv_theme_basic.c ****      *styles' data if LVGL is used in a binding (e.g. Micropython)
 154:Middlewares/lvgl/src/extra/themes/basic/lv_theme_basic.c ****      *In a general case styles could be in simple `static lv_style_t my_style...` variables*/
 155:Middlewares/lvgl/src/extra/themes/basic/lv_theme_basic.c ****     if(!inited) {
 156:Middlewares/lvgl/src/extra/themes/basic/lv_theme_basic.c ****         LV_GC_ROOT(_lv_theme_default_styles) = lv_mem_alloc(sizeof(my_theme_styles_t));
 157:Middlewares/lvgl/src/extra/themes/basic/lv_theme_basic.c ****         styles = (my_theme_styles_t *)LV_GC_ROOT(_lv_theme_default_styles);
 158:Middlewares/lvgl/src/extra/themes/basic/lv_theme_basic.c ****     }
 159:Middlewares/lvgl/src/extra/themes/basic/lv_theme_basic.c **** 
 160:Middlewares/lvgl/src/extra/themes/basic/lv_theme_basic.c ****     theme.disp = disp;
 161:Middlewares/lvgl/src/extra/themes/basic/lv_theme_basic.c ****     theme.font_small = LV_FONT_DEFAULT;
 162:Middlewares/lvgl/src/extra/themes/basic/lv_theme_basic.c ****     theme.font_normal = LV_FONT_DEFAULT;
 163:Middlewares/lvgl/src/extra/themes/basic/lv_theme_basic.c ****     theme.font_large = LV_FONT_DEFAULT;
 164:Middlewares/lvgl/src/extra/themes/basic/lv_theme_basic.c ****     theme.apply_cb = theme_apply;
 165:Middlewares/lvgl/src/extra/themes/basic/lv_theme_basic.c **** 
 166:Middlewares/lvgl/src/extra/themes/basic/lv_theme_basic.c ****     style_init();
 167:Middlewares/lvgl/src/extra/themes/basic/lv_theme_basic.c **** 
 168:Middlewares/lvgl/src/extra/themes/basic/lv_theme_basic.c ****     inited = true;
 169:Middlewares/lvgl/src/extra/themes/basic/lv_theme_basic.c **** 
 170:Middlewares/lvgl/src/extra/themes/basic/lv_theme_basic.c ****     if(disp == NULL || lv_disp_get_theme(disp) == &theme) lv_obj_report_style_change(NULL);
 171:Middlewares/lvgl/src/extra/themes/basic/lv_theme_basic.c **** 
 172:Middlewares/lvgl/src/extra/themes/basic/lv_theme_basic.c ****     return (lv_theme_t *)&theme;
 173:Middlewares/lvgl/src/extra/themes/basic/lv_theme_basic.c **** }
 174:Middlewares/lvgl/src/extra/themes/basic/lv_theme_basic.c **** 
 175:Middlewares/lvgl/src/extra/themes/basic/lv_theme_basic.c **** 
 176:Middlewares/lvgl/src/extra/themes/basic/lv_theme_basic.c **** static void theme_apply(lv_theme_t * th, lv_obj_t * obj)
 177:Middlewares/lvgl/src/extra/themes/basic/lv_theme_basic.c **** {
 131              		.loc 1 177 1 is_stmt 1 view -0
 132              		.cfi_startproc
 133              		@ args = 0, pretend = 0, frame = 0
 134              		@ frame_needed = 0, uses_anonymous_args = 0
 135              		.loc 1 177 1 is_stmt 0 view .LVU26
 136 0000 70B5     		push	{r4, r5, r6, lr}
 137              	.LCFI1:
 138              		.cfi_def_cfa_offset 16
 139              		.cfi_offset 4, -16
 140              		.cfi_offset 5, -12
 141              		.cfi_offset 6, -8
 142              		.cfi_offset 14, -4
 143 0002 0C46     		mov	r4, r1
 178:Middlewares/lvgl/src/extra/themes/basic/lv_theme_basic.c ****     LV_UNUSED(th);
 144              		.loc 1 178 5 is_stmt 1 view .LVU27
 179:Middlewares/lvgl/src/extra/themes/basic/lv_theme_basic.c **** 
 180:Middlewares/lvgl/src/extra/themes/basic/lv_theme_basic.c ****     if(lv_obj_get_parent(obj) == NULL) {
 145              		.loc 1 180 5 view .LVU28
 146              		.loc 1 180 8 is_stmt 0 view .LVU29
 147 0004 0846     		mov	r0, r1
 148              	.LVL11:
 149              		.loc 1 180 8 view .LVU30
 150 0006 FFF7FEFF 		bl	lv_obj_get_parent
 151              	.LVL12:
 152              		.loc 1 180 7 view .LVU31
 153 000a 0028     		cmp	r0, #0
 154 000c 36D0     		beq	.L37
 181:Middlewares/lvgl/src/extra/themes/basic/lv_theme_basic.c ****         lv_obj_add_style(obj, &styles->scr, 0);
 182:Middlewares/lvgl/src/extra/themes/basic/lv_theme_basic.c ****         lv_obj_add_style(obj, &styles->scrollbar, LV_PART_SCROLLBAR);
 183:Middlewares/lvgl/src/extra/themes/basic/lv_theme_basic.c ****         return;
ARM GAS  /tmp/ccwx3eYd.s 			page 19


 184:Middlewares/lvgl/src/extra/themes/basic/lv_theme_basic.c ****     }
 185:Middlewares/lvgl/src/extra/themes/basic/lv_theme_basic.c **** 
 186:Middlewares/lvgl/src/extra/themes/basic/lv_theme_basic.c ****     if(lv_obj_check_type(obj, &lv_obj_class)) {
 155              		.loc 1 186 5 is_stmt 1 view .LVU32
 156              		.loc 1 186 8 is_stmt 0 view .LVU33
 157 000e BD49     		ldr	r1, .L46
 158 0010 2046     		mov	r0, r4
 159 0012 FFF7FEFF 		bl	lv_obj_check_type
 160              	.LVL13:
 161              		.loc 1 186 7 view .LVU34
 162 0016 0028     		cmp	r0, #0
 163 0018 74D0     		beq	.L6
 164              	.LBB27:
 187:Middlewares/lvgl/src/extra/themes/basic/lv_theme_basic.c **** #if LV_USE_TABVIEW
 188:Middlewares/lvgl/src/extra/themes/basic/lv_theme_basic.c ****         lv_obj_t * parent = lv_obj_get_parent(obj);
 165              		.loc 1 188 9 is_stmt 1 view .LVU35
 166              		.loc 1 188 29 is_stmt 0 view .LVU36
 167 001a 2046     		mov	r0, r4
 168 001c FFF7FEFF 		bl	lv_obj_get_parent
 169              	.LVL14:
 170 0020 0546     		mov	r5, r0
 171              	.LVL15:
 189:Middlewares/lvgl/src/extra/themes/basic/lv_theme_basic.c ****         /*Tabview content area*/
 190:Middlewares/lvgl/src/extra/themes/basic/lv_theme_basic.c ****         if(lv_obj_check_type(parent, &lv_tabview_class)) {
 172              		.loc 1 190 9 is_stmt 1 view .LVU37
 173              		.loc 1 190 12 is_stmt 0 view .LVU38
 174 0022 B949     		ldr	r1, .L46+4
 175 0024 FFF7FEFF 		bl	lv_obj_check_type
 176              	.LVL16:
 177              		.loc 1 190 11 view .LVU39
 178 0028 0028     		cmp	r0, #0
 179 002a 35D1     		bne	.L38
 191:Middlewares/lvgl/src/extra/themes/basic/lv_theme_basic.c ****             lv_obj_add_style(obj, &styles->light, 0);
 192:Middlewares/lvgl/src/extra/themes/basic/lv_theme_basic.c ****             return;
 193:Middlewares/lvgl/src/extra/themes/basic/lv_theme_basic.c ****         }
 194:Middlewares/lvgl/src/extra/themes/basic/lv_theme_basic.c ****         /*Tabview pages*/
 195:Middlewares/lvgl/src/extra/themes/basic/lv_theme_basic.c ****         else if(lv_obj_check_type(lv_obj_get_parent(parent), &lv_tabview_class)) {
 180              		.loc 1 195 14 is_stmt 1 view .LVU40
 181              		.loc 1 195 35 is_stmt 0 view .LVU41
 182 002c 2846     		mov	r0, r5
 183 002e FFF7FEFF 		bl	lv_obj_get_parent
 184              	.LVL17:
 185              		.loc 1 195 17 view .LVU42
 186 0032 B549     		ldr	r1, .L46+4
 187 0034 FFF7FEFF 		bl	lv_obj_check_type
 188              	.LVL18:
 189              		.loc 1 195 16 view .LVU43
 190 0038 0028     		cmp	r0, #0
 191 003a 35D1     		bne	.L39
 196:Middlewares/lvgl/src/extra/themes/basic/lv_theme_basic.c ****             lv_obj_add_style(obj, &styles->light, 0);
 197:Middlewares/lvgl/src/extra/themes/basic/lv_theme_basic.c ****             lv_obj_add_style(obj, &styles->scrollbar, LV_PART_SCROLLBAR);
 198:Middlewares/lvgl/src/extra/themes/basic/lv_theme_basic.c ****             return;
 199:Middlewares/lvgl/src/extra/themes/basic/lv_theme_basic.c ****         }
 200:Middlewares/lvgl/src/extra/themes/basic/lv_theme_basic.c **** #endif
 201:Middlewares/lvgl/src/extra/themes/basic/lv_theme_basic.c **** 
 202:Middlewares/lvgl/src/extra/themes/basic/lv_theme_basic.c **** #if LV_USE_WIN
 203:Middlewares/lvgl/src/extra/themes/basic/lv_theme_basic.c ****         /*Header*/
ARM GAS  /tmp/ccwx3eYd.s 			page 20


 204:Middlewares/lvgl/src/extra/themes/basic/lv_theme_basic.c ****         if(lv_obj_get_child_id(obj) == 0 && lv_obj_check_type(lv_obj_get_parent(obj), &lv_win_class
 192              		.loc 1 204 9 is_stmt 1 view .LVU44
 193              		.loc 1 204 12 is_stmt 0 view .LVU45
 194 003c 2046     		mov	r0, r4
 195 003e FFF7FEFF 		bl	lv_obj_get_child_id
 196              	.LVL19:
 197              		.loc 1 204 11 view .LVU46
 198 0042 38B9     		cbnz	r0, .L9
 199              		.loc 1 204 63 discriminator 1 view .LVU47
 200 0044 2046     		mov	r0, r4
 201 0046 FFF7FEFF 		bl	lv_obj_get_parent
 202              	.LVL20:
 203              		.loc 1 204 45 discriminator 1 view .LVU48
 204 004a B049     		ldr	r1, .L46+8
 205 004c FFF7FEFF 		bl	lv_obj_check_type
 206              	.LVL21:
 207              		.loc 1 204 42 discriminator 1 view .LVU49
 208 0050 0028     		cmp	r0, #0
 209 0052 38D1     		bne	.L40
 210              	.L9:
 205:Middlewares/lvgl/src/extra/themes/basic/lv_theme_basic.c ****             lv_obj_add_style(obj, &styles->light, 0);
 206:Middlewares/lvgl/src/extra/themes/basic/lv_theme_basic.c ****             return;
 207:Middlewares/lvgl/src/extra/themes/basic/lv_theme_basic.c ****         }
 208:Middlewares/lvgl/src/extra/themes/basic/lv_theme_basic.c ****         /*Content*/
 209:Middlewares/lvgl/src/extra/themes/basic/lv_theme_basic.c ****         else if(lv_obj_get_child_id(obj) == 1 && lv_obj_check_type(lv_obj_get_parent(obj), &lv_win_
 211              		.loc 1 209 14 is_stmt 1 view .LVU50
 212              		.loc 1 209 17 is_stmt 0 view .LVU51
 213 0054 2046     		mov	r0, r4
 214 0056 FFF7FEFF 		bl	lv_obj_get_child_id
 215              	.LVL22:
 216              		.loc 1 209 16 view .LVU52
 217 005a 0128     		cmp	r0, #1
 218 005c 3BD0     		beq	.L41
 219              	.L10:
 210:Middlewares/lvgl/src/extra/themes/basic/lv_theme_basic.c ****             lv_obj_add_style(obj, &styles->light, 0);
 211:Middlewares/lvgl/src/extra/themes/basic/lv_theme_basic.c ****             lv_obj_add_style(obj, &styles->scrollbar, LV_PART_SCROLLBAR);
 212:Middlewares/lvgl/src/extra/themes/basic/lv_theme_basic.c ****             return;
 213:Middlewares/lvgl/src/extra/themes/basic/lv_theme_basic.c ****         }
 214:Middlewares/lvgl/src/extra/themes/basic/lv_theme_basic.c **** #endif
 215:Middlewares/lvgl/src/extra/themes/basic/lv_theme_basic.c ****         lv_obj_add_style(obj, &styles->light, 0);
 220              		.loc 1 215 9 is_stmt 1 view .LVU53
 221              		.loc 1 215 38 is_stmt 0 view .LVU54
 222 005e AC4D     		ldr	r5, .L46+12
 223              	.LVL23:
 224              		.loc 1 215 38 view .LVU55
 225 0060 2968     		ldr	r1, [r5]
 226              		.loc 1 215 9 view .LVU56
 227 0062 0022     		movs	r2, #0
 228 0064 0831     		adds	r1, r1, #8
 229 0066 2046     		mov	r0, r4
 230 0068 FFF7FEFF 		bl	lv_obj_add_style
 231              	.LVL24:
 216:Middlewares/lvgl/src/extra/themes/basic/lv_theme_basic.c ****         lv_obj_add_style(obj, &styles->scrollbar, LV_PART_SCROLLBAR);
 232              		.loc 1 216 9 is_stmt 1 view .LVU57
 233              		.loc 1 216 38 is_stmt 0 view .LVU58
 234 006c 2968     		ldr	r1, [r5]
 235              		.loc 1 216 9 view .LVU59
ARM GAS  /tmp/ccwx3eYd.s 			page 21


 236 006e 4FF48032 		mov	r2, #65536
 237 0072 1831     		adds	r1, r1, #24
 238 0074 2046     		mov	r0, r4
 239 0076 FFF7FEFF 		bl	lv_obj_add_style
 240              	.LVL25:
 241              	.LBE27:
 242 007a 5BE0     		b	.L3
 243              	.L37:
 181:Middlewares/lvgl/src/extra/themes/basic/lv_theme_basic.c ****         lv_obj_add_style(obj, &styles->scrollbar, LV_PART_SCROLLBAR);
 244              		.loc 1 181 9 is_stmt 1 view .LVU60
 181:Middlewares/lvgl/src/extra/themes/basic/lv_theme_basic.c ****         lv_obj_add_style(obj, &styles->scrollbar, LV_PART_SCROLLBAR);
 245              		.loc 1 181 38 is_stmt 0 view .LVU61
 246 007c A44D     		ldr	r5, .L46+12
 181:Middlewares/lvgl/src/extra/themes/basic/lv_theme_basic.c ****         lv_obj_add_style(obj, &styles->scrollbar, LV_PART_SCROLLBAR);
 247              		.loc 1 181 9 view .LVU62
 248 007e 0022     		movs	r2, #0
 249 0080 2968     		ldr	r1, [r5]
 250 0082 2046     		mov	r0, r4
 251 0084 FFF7FEFF 		bl	lv_obj_add_style
 252              	.LVL26:
 182:Middlewares/lvgl/src/extra/themes/basic/lv_theme_basic.c ****         return;
 253              		.loc 1 182 9 is_stmt 1 view .LVU63
 182:Middlewares/lvgl/src/extra/themes/basic/lv_theme_basic.c ****         return;
 254              		.loc 1 182 38 is_stmt 0 view .LVU64
 255 0088 2968     		ldr	r1, [r5]
 182:Middlewares/lvgl/src/extra/themes/basic/lv_theme_basic.c ****         return;
 256              		.loc 1 182 9 view .LVU65
 257 008a 4FF48032 		mov	r2, #65536
 258 008e 1831     		adds	r1, r1, #24
 259 0090 2046     		mov	r0, r4
 260 0092 FFF7FEFF 		bl	lv_obj_add_style
 261              	.LVL27:
 183:Middlewares/lvgl/src/extra/themes/basic/lv_theme_basic.c ****     }
 262              		.loc 1 183 9 is_stmt 1 view .LVU66
 263 0096 4DE0     		b	.L3
 264              	.LVL28:
 265              	.L38:
 266              	.LBB28:
 191:Middlewares/lvgl/src/extra/themes/basic/lv_theme_basic.c ****             return;
 267              		.loc 1 191 13 view .LVU67
 191:Middlewares/lvgl/src/extra/themes/basic/lv_theme_basic.c ****             return;
 268              		.loc 1 191 42 is_stmt 0 view .LVU68
 269 0098 9D4B     		ldr	r3, .L46+12
 270 009a 1968     		ldr	r1, [r3]
 191:Middlewares/lvgl/src/extra/themes/basic/lv_theme_basic.c ****             return;
 271              		.loc 1 191 13 view .LVU69
 272 009c 0022     		movs	r2, #0
 273 009e 0831     		adds	r1, r1, #8
 274 00a0 2046     		mov	r0, r4
 275 00a2 FFF7FEFF 		bl	lv_obj_add_style
 276              	.LVL29:
 192:Middlewares/lvgl/src/extra/themes/basic/lv_theme_basic.c ****         }
 277              		.loc 1 192 13 is_stmt 1 view .LVU70
 278 00a6 45E0     		b	.L3
 279              	.L39:
 196:Middlewares/lvgl/src/extra/themes/basic/lv_theme_basic.c ****             lv_obj_add_style(obj, &styles->scrollbar, LV_PART_SCROLLBAR);
 280              		.loc 1 196 13 view .LVU71
ARM GAS  /tmp/ccwx3eYd.s 			page 22


 196:Middlewares/lvgl/src/extra/themes/basic/lv_theme_basic.c ****             lv_obj_add_style(obj, &styles->scrollbar, LV_PART_SCROLLBAR);
 281              		.loc 1 196 42 is_stmt 0 view .LVU72
 282 00a8 994D     		ldr	r5, .L46+12
 283              	.LVL30:
 196:Middlewares/lvgl/src/extra/themes/basic/lv_theme_basic.c ****             lv_obj_add_style(obj, &styles->scrollbar, LV_PART_SCROLLBAR);
 284              		.loc 1 196 42 view .LVU73
 285 00aa 2968     		ldr	r1, [r5]
 196:Middlewares/lvgl/src/extra/themes/basic/lv_theme_basic.c ****             lv_obj_add_style(obj, &styles->scrollbar, LV_PART_SCROLLBAR);
 286              		.loc 1 196 13 view .LVU74
 287 00ac 0022     		movs	r2, #0
 288 00ae 0831     		adds	r1, r1, #8
 289 00b0 2046     		mov	r0, r4
 290 00b2 FFF7FEFF 		bl	lv_obj_add_style
 291              	.LVL31:
 197:Middlewares/lvgl/src/extra/themes/basic/lv_theme_basic.c ****             return;
 292              		.loc 1 197 13 is_stmt 1 view .LVU75
 197:Middlewares/lvgl/src/extra/themes/basic/lv_theme_basic.c ****             return;
 293              		.loc 1 197 42 is_stmt 0 view .LVU76
 294 00b6 2968     		ldr	r1, [r5]
 197:Middlewares/lvgl/src/extra/themes/basic/lv_theme_basic.c ****             return;
 295              		.loc 1 197 13 view .LVU77
 296 00b8 4FF48032 		mov	r2, #65536
 297 00bc 1831     		adds	r1, r1, #24
 298 00be 2046     		mov	r0, r4
 299 00c0 FFF7FEFF 		bl	lv_obj_add_style
 300              	.LVL32:
 198:Middlewares/lvgl/src/extra/themes/basic/lv_theme_basic.c ****         }
 301              		.loc 1 198 13 is_stmt 1 view .LVU78
 302 00c4 36E0     		b	.L3
 303              	.LVL33:
 304              	.L40:
 205:Middlewares/lvgl/src/extra/themes/basic/lv_theme_basic.c ****             return;
 305              		.loc 1 205 13 view .LVU79
 205:Middlewares/lvgl/src/extra/themes/basic/lv_theme_basic.c ****             return;
 306              		.loc 1 205 42 is_stmt 0 view .LVU80
 307 00c6 924B     		ldr	r3, .L46+12
 308 00c8 1968     		ldr	r1, [r3]
 205:Middlewares/lvgl/src/extra/themes/basic/lv_theme_basic.c ****             return;
 309              		.loc 1 205 13 view .LVU81
 310 00ca 0022     		movs	r2, #0
 311 00cc 0831     		adds	r1, r1, #8
 312 00ce 2046     		mov	r0, r4
 313 00d0 FFF7FEFF 		bl	lv_obj_add_style
 314              	.LVL34:
 206:Middlewares/lvgl/src/extra/themes/basic/lv_theme_basic.c ****         }
 315              		.loc 1 206 13 is_stmt 1 view .LVU82
 316 00d4 2EE0     		b	.L3
 317              	.L41:
 209:Middlewares/lvgl/src/extra/themes/basic/lv_theme_basic.c ****             lv_obj_add_style(obj, &styles->light, 0);
 318              		.loc 1 209 68 is_stmt 0 discriminator 1 view .LVU83
 319 00d6 2046     		mov	r0, r4
 320 00d8 FFF7FEFF 		bl	lv_obj_get_parent
 321              	.LVL35:
 209:Middlewares/lvgl/src/extra/themes/basic/lv_theme_basic.c ****             lv_obj_add_style(obj, &styles->light, 0);
 322              		.loc 1 209 50 discriminator 1 view .LVU84
 323 00dc 8B49     		ldr	r1, .L46+8
 324 00de FFF7FEFF 		bl	lv_obj_check_type
ARM GAS  /tmp/ccwx3eYd.s 			page 23


 325              	.LVL36:
 209:Middlewares/lvgl/src/extra/themes/basic/lv_theme_basic.c ****             lv_obj_add_style(obj, &styles->light, 0);
 326              		.loc 1 209 47 discriminator 1 view .LVU85
 327 00e2 0028     		cmp	r0, #0
 328 00e4 BBD0     		beq	.L10
 210:Middlewares/lvgl/src/extra/themes/basic/lv_theme_basic.c ****             lv_obj_add_style(obj, &styles->scrollbar, LV_PART_SCROLLBAR);
 329              		.loc 1 210 13 is_stmt 1 view .LVU86
 210:Middlewares/lvgl/src/extra/themes/basic/lv_theme_basic.c ****             lv_obj_add_style(obj, &styles->scrollbar, LV_PART_SCROLLBAR);
 330              		.loc 1 210 42 is_stmt 0 view .LVU87
 331 00e6 8A4D     		ldr	r5, .L46+12
 332              	.LVL37:
 210:Middlewares/lvgl/src/extra/themes/basic/lv_theme_basic.c ****             lv_obj_add_style(obj, &styles->scrollbar, LV_PART_SCROLLBAR);
 333              		.loc 1 210 42 view .LVU88
 334 00e8 2968     		ldr	r1, [r5]
 210:Middlewares/lvgl/src/extra/themes/basic/lv_theme_basic.c ****             lv_obj_add_style(obj, &styles->scrollbar, LV_PART_SCROLLBAR);
 335              		.loc 1 210 13 view .LVU89
 336 00ea 0022     		movs	r2, #0
 337 00ec 0831     		adds	r1, r1, #8
 338 00ee 2046     		mov	r0, r4
 339 00f0 FFF7FEFF 		bl	lv_obj_add_style
 340              	.LVL38:
 211:Middlewares/lvgl/src/extra/themes/basic/lv_theme_basic.c ****             return;
 341              		.loc 1 211 13 is_stmt 1 view .LVU90
 211:Middlewares/lvgl/src/extra/themes/basic/lv_theme_basic.c ****             return;
 342              		.loc 1 211 42 is_stmt 0 view .LVU91
 343 00f4 2968     		ldr	r1, [r5]
 211:Middlewares/lvgl/src/extra/themes/basic/lv_theme_basic.c ****             return;
 344              		.loc 1 211 13 view .LVU92
 345 00f6 4FF48032 		mov	r2, #65536
 346 00fa 1831     		adds	r1, r1, #24
 347 00fc 2046     		mov	r0, r4
 348 00fe FFF7FEFF 		bl	lv_obj_add_style
 349              	.LVL39:
 212:Middlewares/lvgl/src/extra/themes/basic/lv_theme_basic.c ****         }
 350              		.loc 1 212 13 is_stmt 1 view .LVU93
 351 0102 17E0     		b	.L3
 352              	.L6:
 212:Middlewares/lvgl/src/extra/themes/basic/lv_theme_basic.c ****         }
 353              		.loc 1 212 13 is_stmt 0 view .LVU94
 354              	.LBE28:
 217:Middlewares/lvgl/src/extra/themes/basic/lv_theme_basic.c ****     }
 218:Middlewares/lvgl/src/extra/themes/basic/lv_theme_basic.c **** #if LV_USE_BTN
 219:Middlewares/lvgl/src/extra/themes/basic/lv_theme_basic.c ****     else if(lv_obj_check_type(obj, &lv_btn_class)) {
 355              		.loc 1 219 10 is_stmt 1 view .LVU95
 356              		.loc 1 219 13 is_stmt 0 view .LVU96
 357 0104 8349     		ldr	r1, .L46+16
 358 0106 2046     		mov	r0, r4
 359 0108 FFF7FEFF 		bl	lv_obj_check_type
 360              	.LVL40:
 361              		.loc 1 219 12 view .LVU97
 362 010c 98B1     		cbz	r0, .L11
 220:Middlewares/lvgl/src/extra/themes/basic/lv_theme_basic.c ****         lv_obj_add_style(obj, &styles->dark, 0);
 363              		.loc 1 220 9 is_stmt 1 view .LVU98
 364              		.loc 1 220 38 is_stmt 0 view .LVU99
 365 010e 804D     		ldr	r5, .L46+12
 366 0110 2968     		ldr	r1, [r5]
 367              		.loc 1 220 9 view .LVU100
ARM GAS  /tmp/ccwx3eYd.s 			page 24


 368 0112 0022     		movs	r2, #0
 369 0114 1031     		adds	r1, r1, #16
 370 0116 2046     		mov	r0, r4
 371 0118 FFF7FEFF 		bl	lv_obj_add_style
 372              	.LVL41:
 221:Middlewares/lvgl/src/extra/themes/basic/lv_theme_basic.c ****         lv_obj_add_style(obj, &styles->pressed, LV_STATE_PRESSED);
 373              		.loc 1 221 9 is_stmt 1 view .LVU101
 374              		.loc 1 221 38 is_stmt 0 view .LVU102
 375 011c 2968     		ldr	r1, [r5]
 376              		.loc 1 221 9 view .LVU103
 377 011e 2022     		movs	r2, #32
 378 0120 1144     		add	r1, r1, r2
 379 0122 2046     		mov	r0, r4
 380 0124 FFF7FEFF 		bl	lv_obj_add_style
 381              	.LVL42:
 222:Middlewares/lvgl/src/extra/themes/basic/lv_theme_basic.c ****         lv_obj_add_style(obj, &styles->disabled, LV_STATE_DISABLED);
 382              		.loc 1 222 9 is_stmt 1 view .LVU104
 383              		.loc 1 222 38 is_stmt 0 view .LVU105
 384 0128 2968     		ldr	r1, [r5]
 385              		.loc 1 222 9 view .LVU106
 386 012a 8022     		movs	r2, #128
 387 012c 2831     		adds	r1, r1, #40
 388 012e 2046     		mov	r0, r4
 389 0130 FFF7FEFF 		bl	lv_obj_add_style
 390              	.LVL43:
 391              	.L3:
 223:Middlewares/lvgl/src/extra/themes/basic/lv_theme_basic.c ****     }
 224:Middlewares/lvgl/src/extra/themes/basic/lv_theme_basic.c **** #endif
 225:Middlewares/lvgl/src/extra/themes/basic/lv_theme_basic.c **** 
 226:Middlewares/lvgl/src/extra/themes/basic/lv_theme_basic.c **** #if LV_USE_BTNMATRIX
 227:Middlewares/lvgl/src/extra/themes/basic/lv_theme_basic.c ****     else if(lv_obj_check_type(obj, &lv_btnmatrix_class)) {
 228:Middlewares/lvgl/src/extra/themes/basic/lv_theme_basic.c **** #if LV_USE_MSGBOX
 229:Middlewares/lvgl/src/extra/themes/basic/lv_theme_basic.c ****         if(lv_obj_check_type(lv_obj_get_parent(obj), &lv_msgbox_class)) {
 230:Middlewares/lvgl/src/extra/themes/basic/lv_theme_basic.c ****             lv_obj_add_style(obj, &styles->light, LV_PART_ITEMS);
 231:Middlewares/lvgl/src/extra/themes/basic/lv_theme_basic.c ****             lv_obj_add_style(obj, &styles->pressed, LV_PART_ITEMS | LV_STATE_PRESSED);
 232:Middlewares/lvgl/src/extra/themes/basic/lv_theme_basic.c ****             return;
 233:Middlewares/lvgl/src/extra/themes/basic/lv_theme_basic.c ****         }
 234:Middlewares/lvgl/src/extra/themes/basic/lv_theme_basic.c **** #endif
 235:Middlewares/lvgl/src/extra/themes/basic/lv_theme_basic.c **** #if LV_USE_TABVIEW
 236:Middlewares/lvgl/src/extra/themes/basic/lv_theme_basic.c ****         if(lv_obj_check_type(lv_obj_get_parent(obj), &lv_tabview_class)) {
 237:Middlewares/lvgl/src/extra/themes/basic/lv_theme_basic.c ****             lv_obj_add_style(obj, &styles->light, LV_PART_ITEMS);
 238:Middlewares/lvgl/src/extra/themes/basic/lv_theme_basic.c ****             lv_obj_add_style(obj, &styles->pressed, LV_PART_ITEMS | LV_STATE_PRESSED);
 239:Middlewares/lvgl/src/extra/themes/basic/lv_theme_basic.c ****             return;
 240:Middlewares/lvgl/src/extra/themes/basic/lv_theme_basic.c ****         }
 241:Middlewares/lvgl/src/extra/themes/basic/lv_theme_basic.c **** #endif
 242:Middlewares/lvgl/src/extra/themes/basic/lv_theme_basic.c ****         lv_obj_add_style(obj, &styles->light, 0);
 243:Middlewares/lvgl/src/extra/themes/basic/lv_theme_basic.c ****         lv_obj_add_style(obj, &styles->dark, LV_PART_ITEMS);
 244:Middlewares/lvgl/src/extra/themes/basic/lv_theme_basic.c ****         lv_obj_add_style(obj, &styles->pressed, LV_PART_ITEMS | LV_STATE_PRESSED);
 245:Middlewares/lvgl/src/extra/themes/basic/lv_theme_basic.c ****     }
 246:Middlewares/lvgl/src/extra/themes/basic/lv_theme_basic.c **** #endif
 247:Middlewares/lvgl/src/extra/themes/basic/lv_theme_basic.c **** 
 248:Middlewares/lvgl/src/extra/themes/basic/lv_theme_basic.c **** #if LV_USE_BAR
 249:Middlewares/lvgl/src/extra/themes/basic/lv_theme_basic.c ****     else if(lv_obj_check_type(obj, &lv_bar_class)) {
 250:Middlewares/lvgl/src/extra/themes/basic/lv_theme_basic.c ****         lv_obj_add_style(obj, &styles->light, 0);
 251:Middlewares/lvgl/src/extra/themes/basic/lv_theme_basic.c ****         lv_obj_add_style(obj, &styles->pad_zero, 0);
 252:Middlewares/lvgl/src/extra/themes/basic/lv_theme_basic.c ****         lv_obj_add_style(obj, &styles->dark, LV_PART_INDICATOR);
 253:Middlewares/lvgl/src/extra/themes/basic/lv_theme_basic.c ****     }
ARM GAS  /tmp/ccwx3eYd.s 			page 25


 254:Middlewares/lvgl/src/extra/themes/basic/lv_theme_basic.c **** #endif
 255:Middlewares/lvgl/src/extra/themes/basic/lv_theme_basic.c **** 
 256:Middlewares/lvgl/src/extra/themes/basic/lv_theme_basic.c **** #if LV_USE_SLIDER
 257:Middlewares/lvgl/src/extra/themes/basic/lv_theme_basic.c ****     else if(lv_obj_check_type(obj, &lv_slider_class)) {
 258:Middlewares/lvgl/src/extra/themes/basic/lv_theme_basic.c ****         lv_obj_add_style(obj, &styles->light, 0);
 259:Middlewares/lvgl/src/extra/themes/basic/lv_theme_basic.c ****         lv_obj_add_style(obj, &styles->pad_zero, 0);
 260:Middlewares/lvgl/src/extra/themes/basic/lv_theme_basic.c ****         lv_obj_add_style(obj, &styles->dark, LV_PART_INDICATOR);
 261:Middlewares/lvgl/src/extra/themes/basic/lv_theme_basic.c ****         lv_obj_add_style(obj, &styles->dark, LV_PART_KNOB);
 262:Middlewares/lvgl/src/extra/themes/basic/lv_theme_basic.c ****     }
 263:Middlewares/lvgl/src/extra/themes/basic/lv_theme_basic.c **** #endif
 264:Middlewares/lvgl/src/extra/themes/basic/lv_theme_basic.c **** 
 265:Middlewares/lvgl/src/extra/themes/basic/lv_theme_basic.c **** #if LV_USE_TABLE
 266:Middlewares/lvgl/src/extra/themes/basic/lv_theme_basic.c ****     else if(lv_obj_check_type(obj, &lv_table_class)) {
 267:Middlewares/lvgl/src/extra/themes/basic/lv_theme_basic.c ****         lv_obj_add_style(obj, &styles->scrollbar, LV_PART_SCROLLBAR);
 268:Middlewares/lvgl/src/extra/themes/basic/lv_theme_basic.c ****         lv_obj_add_style(obj, &styles->light, LV_PART_ITEMS);
 269:Middlewares/lvgl/src/extra/themes/basic/lv_theme_basic.c ****         lv_obj_add_style(obj, &styles->pressed, LV_PART_ITEMS | LV_STATE_PRESSED);
 270:Middlewares/lvgl/src/extra/themes/basic/lv_theme_basic.c ****     }
 271:Middlewares/lvgl/src/extra/themes/basic/lv_theme_basic.c **** #endif
 272:Middlewares/lvgl/src/extra/themes/basic/lv_theme_basic.c **** 
 273:Middlewares/lvgl/src/extra/themes/basic/lv_theme_basic.c **** #if LV_USE_CHECKBOX
 274:Middlewares/lvgl/src/extra/themes/basic/lv_theme_basic.c ****     else if(lv_obj_check_type(obj, &lv_checkbox_class)) {
 275:Middlewares/lvgl/src/extra/themes/basic/lv_theme_basic.c ****         lv_obj_add_style(obj, &styles->light, LV_PART_INDICATOR);
 276:Middlewares/lvgl/src/extra/themes/basic/lv_theme_basic.c ****         lv_obj_add_style(obj, &styles->disabled, LV_PART_INDICATOR | LV_STATE_DISABLED);
 277:Middlewares/lvgl/src/extra/themes/basic/lv_theme_basic.c ****         lv_obj_add_style(obj, &styles->dark, LV_PART_INDICATOR | LV_STATE_CHECKED);
 278:Middlewares/lvgl/src/extra/themes/basic/lv_theme_basic.c ****         lv_obj_add_style(obj, &styles->pressed, LV_PART_INDICATOR | LV_STATE_PRESSED);
 279:Middlewares/lvgl/src/extra/themes/basic/lv_theme_basic.c ****     }
 280:Middlewares/lvgl/src/extra/themes/basic/lv_theme_basic.c **** #endif
 281:Middlewares/lvgl/src/extra/themes/basic/lv_theme_basic.c **** 
 282:Middlewares/lvgl/src/extra/themes/basic/lv_theme_basic.c **** #if LV_USE_SWITCH
 283:Middlewares/lvgl/src/extra/themes/basic/lv_theme_basic.c ****     else if(lv_obj_check_type(obj, &lv_switch_class)) {
 284:Middlewares/lvgl/src/extra/themes/basic/lv_theme_basic.c ****         lv_obj_add_style(obj, &styles->light, 0);
 285:Middlewares/lvgl/src/extra/themes/basic/lv_theme_basic.c ****         lv_obj_add_style(obj, &styles->pad_zero, 0);
 286:Middlewares/lvgl/src/extra/themes/basic/lv_theme_basic.c ****         lv_obj_add_style(obj, &styles->dark, LV_PART_INDICATOR);
 287:Middlewares/lvgl/src/extra/themes/basic/lv_theme_basic.c ****         lv_obj_add_style(obj, &styles->dark, LV_PART_KNOB);
 288:Middlewares/lvgl/src/extra/themes/basic/lv_theme_basic.c ****         lv_obj_add_style(obj, &styles->pad_zero, LV_PART_KNOB);
 289:Middlewares/lvgl/src/extra/themes/basic/lv_theme_basic.c ****     }
 290:Middlewares/lvgl/src/extra/themes/basic/lv_theme_basic.c **** #endif
 291:Middlewares/lvgl/src/extra/themes/basic/lv_theme_basic.c **** 
 292:Middlewares/lvgl/src/extra/themes/basic/lv_theme_basic.c **** #if LV_USE_CHART
 293:Middlewares/lvgl/src/extra/themes/basic/lv_theme_basic.c ****     else if(lv_obj_check_type(obj, &lv_chart_class)) {
 294:Middlewares/lvgl/src/extra/themes/basic/lv_theme_basic.c ****         lv_obj_add_style(obj, &styles->light, 0);
 295:Middlewares/lvgl/src/extra/themes/basic/lv_theme_basic.c ****         lv_obj_add_style(obj, &styles->scrollbar, LV_PART_SCROLLBAR);
 296:Middlewares/lvgl/src/extra/themes/basic/lv_theme_basic.c ****         lv_obj_add_style(obj, &styles->light, LV_PART_ITEMS);
 297:Middlewares/lvgl/src/extra/themes/basic/lv_theme_basic.c ****         lv_obj_add_style(obj, &styles->light, LV_PART_TICKS);
 298:Middlewares/lvgl/src/extra/themes/basic/lv_theme_basic.c ****         lv_obj_add_style(obj, &styles->light, LV_PART_CURSOR);
 299:Middlewares/lvgl/src/extra/themes/basic/lv_theme_basic.c ****     }
 300:Middlewares/lvgl/src/extra/themes/basic/lv_theme_basic.c **** #endif
 301:Middlewares/lvgl/src/extra/themes/basic/lv_theme_basic.c **** 
 302:Middlewares/lvgl/src/extra/themes/basic/lv_theme_basic.c **** #if LV_USE_ROLLER
 303:Middlewares/lvgl/src/extra/themes/basic/lv_theme_basic.c ****     else if(lv_obj_check_type(obj, &lv_roller_class)) {
 304:Middlewares/lvgl/src/extra/themes/basic/lv_theme_basic.c ****         lv_obj_add_style(obj, &styles->light, 0);
 305:Middlewares/lvgl/src/extra/themes/basic/lv_theme_basic.c ****         lv_obj_add_style(obj, &styles->dark, LV_PART_SELECTED);
 306:Middlewares/lvgl/src/extra/themes/basic/lv_theme_basic.c ****     }
 307:Middlewares/lvgl/src/extra/themes/basic/lv_theme_basic.c **** #endif
 308:Middlewares/lvgl/src/extra/themes/basic/lv_theme_basic.c **** 
 309:Middlewares/lvgl/src/extra/themes/basic/lv_theme_basic.c **** #if LV_USE_DROPDOWN
 310:Middlewares/lvgl/src/extra/themes/basic/lv_theme_basic.c ****     else if(lv_obj_check_type(obj, &lv_dropdown_class)) {
ARM GAS  /tmp/ccwx3eYd.s 			page 26


 311:Middlewares/lvgl/src/extra/themes/basic/lv_theme_basic.c ****         lv_obj_add_style(obj, &styles->light, 0);
 312:Middlewares/lvgl/src/extra/themes/basic/lv_theme_basic.c ****         lv_obj_add_style(obj, &styles->pressed, LV_STATE_PRESSED);
 313:Middlewares/lvgl/src/extra/themes/basic/lv_theme_basic.c ****     }
 314:Middlewares/lvgl/src/extra/themes/basic/lv_theme_basic.c ****     else if(lv_obj_check_type(obj, &lv_dropdownlist_class)) {
 315:Middlewares/lvgl/src/extra/themes/basic/lv_theme_basic.c ****         lv_obj_add_style(obj, &styles->light, 0);
 316:Middlewares/lvgl/src/extra/themes/basic/lv_theme_basic.c ****         lv_obj_add_style(obj, &styles->scrollbar, LV_PART_SCROLLBAR);
 317:Middlewares/lvgl/src/extra/themes/basic/lv_theme_basic.c ****         lv_obj_add_style(obj, &styles->light, LV_PART_SELECTED);
 318:Middlewares/lvgl/src/extra/themes/basic/lv_theme_basic.c ****         lv_obj_add_style(obj, &styles->dark, LV_PART_SELECTED | LV_STATE_CHECKED);
 319:Middlewares/lvgl/src/extra/themes/basic/lv_theme_basic.c ****         lv_obj_add_style(obj, &styles->pressed, LV_PART_SELECTED | LV_STATE_PRESSED);
 320:Middlewares/lvgl/src/extra/themes/basic/lv_theme_basic.c ****     }
 321:Middlewares/lvgl/src/extra/themes/basic/lv_theme_basic.c **** #endif
 322:Middlewares/lvgl/src/extra/themes/basic/lv_theme_basic.c **** 
 323:Middlewares/lvgl/src/extra/themes/basic/lv_theme_basic.c **** #if LV_USE_ARC
 324:Middlewares/lvgl/src/extra/themes/basic/lv_theme_basic.c ****     else if(lv_obj_check_type(obj, &lv_arc_class)) {
 325:Middlewares/lvgl/src/extra/themes/basic/lv_theme_basic.c ****         lv_obj_add_style(obj, &styles->light, 0);
 326:Middlewares/lvgl/src/extra/themes/basic/lv_theme_basic.c ****         lv_obj_add_style(obj, &styles->dark, LV_PART_INDICATOR);
 327:Middlewares/lvgl/src/extra/themes/basic/lv_theme_basic.c ****         lv_obj_add_style(obj, &styles->pad_zero, LV_PART_INDICATOR);
 328:Middlewares/lvgl/src/extra/themes/basic/lv_theme_basic.c ****         lv_obj_add_style(obj, &styles->dark, LV_PART_KNOB);
 329:Middlewares/lvgl/src/extra/themes/basic/lv_theme_basic.c ****     }
 330:Middlewares/lvgl/src/extra/themes/basic/lv_theme_basic.c **** #endif
 331:Middlewares/lvgl/src/extra/themes/basic/lv_theme_basic.c **** 
 332:Middlewares/lvgl/src/extra/themes/basic/lv_theme_basic.c **** #if LV_USE_METER
 333:Middlewares/lvgl/src/extra/themes/basic/lv_theme_basic.c ****     else if(lv_obj_check_type(obj, &lv_meter_class)) {
 334:Middlewares/lvgl/src/extra/themes/basic/lv_theme_basic.c ****         lv_obj_add_style(obj, &styles->light, 0);
 335:Middlewares/lvgl/src/extra/themes/basic/lv_theme_basic.c ****     }
 336:Middlewares/lvgl/src/extra/themes/basic/lv_theme_basic.c **** #endif
 337:Middlewares/lvgl/src/extra/themes/basic/lv_theme_basic.c **** 
 338:Middlewares/lvgl/src/extra/themes/basic/lv_theme_basic.c **** #if LV_USE_TEXTAREA
 339:Middlewares/lvgl/src/extra/themes/basic/lv_theme_basic.c ****     else if(lv_obj_check_type(obj, &lv_textarea_class)) {
 340:Middlewares/lvgl/src/extra/themes/basic/lv_theme_basic.c ****         lv_obj_add_style(obj, &styles->light, 0);
 341:Middlewares/lvgl/src/extra/themes/basic/lv_theme_basic.c ****         lv_obj_add_style(obj, &styles->scrollbar, LV_PART_SCROLLBAR);
 342:Middlewares/lvgl/src/extra/themes/basic/lv_theme_basic.c ****         lv_obj_add_style(obj, &styles->ta_cursor, LV_PART_CURSOR);
 343:Middlewares/lvgl/src/extra/themes/basic/lv_theme_basic.c ****         lv_obj_add_style(obj, &styles->light, LV_PART_TEXTAREA_PLACEHOLDER);
 344:Middlewares/lvgl/src/extra/themes/basic/lv_theme_basic.c ****     }
 345:Middlewares/lvgl/src/extra/themes/basic/lv_theme_basic.c **** #endif
 346:Middlewares/lvgl/src/extra/themes/basic/lv_theme_basic.c **** 
 347:Middlewares/lvgl/src/extra/themes/basic/lv_theme_basic.c **** #if LV_USE_CALENDAR
 348:Middlewares/lvgl/src/extra/themes/basic/lv_theme_basic.c ****     else if(lv_obj_check_type(obj, &lv_calendar_class)) {
 349:Middlewares/lvgl/src/extra/themes/basic/lv_theme_basic.c ****         lv_obj_add_style(obj, &styles->light, 0);
 350:Middlewares/lvgl/src/extra/themes/basic/lv_theme_basic.c ****         lv_obj_add_style(obj, &styles->light, LV_PART_ITEMS | LV_STATE_PRESSED);
 351:Middlewares/lvgl/src/extra/themes/basic/lv_theme_basic.c ****         lv_obj_add_style(obj, &styles->pressed, LV_PART_ITEMS | LV_STATE_PRESSED);
 352:Middlewares/lvgl/src/extra/themes/basic/lv_theme_basic.c ****         lv_obj_add_style(obj, &styles->disabled, LV_PART_ITEMS | LV_STATE_DISABLED);
 353:Middlewares/lvgl/src/extra/themes/basic/lv_theme_basic.c ****     }
 354:Middlewares/lvgl/src/extra/themes/basic/lv_theme_basic.c **** #endif
 355:Middlewares/lvgl/src/extra/themes/basic/lv_theme_basic.c **** 
 356:Middlewares/lvgl/src/extra/themes/basic/lv_theme_basic.c **** #if LV_USE_KEYBOARD
 357:Middlewares/lvgl/src/extra/themes/basic/lv_theme_basic.c ****     else if(lv_obj_check_type(obj, &lv_keyboard_class)) {
 358:Middlewares/lvgl/src/extra/themes/basic/lv_theme_basic.c ****         lv_obj_add_style(obj, &styles->light, 0);
 359:Middlewares/lvgl/src/extra/themes/basic/lv_theme_basic.c ****         lv_obj_add_style(obj, &styles->light, LV_PART_ITEMS);
 360:Middlewares/lvgl/src/extra/themes/basic/lv_theme_basic.c ****         lv_obj_add_style(obj, &styles->pressed, LV_PART_ITEMS | LV_STATE_PRESSED);
 361:Middlewares/lvgl/src/extra/themes/basic/lv_theme_basic.c ****     }
 362:Middlewares/lvgl/src/extra/themes/basic/lv_theme_basic.c **** #endif
 363:Middlewares/lvgl/src/extra/themes/basic/lv_theme_basic.c **** #if LV_USE_LIST
 364:Middlewares/lvgl/src/extra/themes/basic/lv_theme_basic.c ****     else if(lv_obj_check_type(obj, &lv_list_class)) {
 365:Middlewares/lvgl/src/extra/themes/basic/lv_theme_basic.c ****         lv_obj_add_style(obj, &styles->light, 0);
 366:Middlewares/lvgl/src/extra/themes/basic/lv_theme_basic.c ****         lv_obj_add_style(obj, &styles->scrollbar, LV_PART_SCROLLBAR);
 367:Middlewares/lvgl/src/extra/themes/basic/lv_theme_basic.c ****         return;
ARM GAS  /tmp/ccwx3eYd.s 			page 27


 368:Middlewares/lvgl/src/extra/themes/basic/lv_theme_basic.c ****     }
 369:Middlewares/lvgl/src/extra/themes/basic/lv_theme_basic.c ****     else if(lv_obj_check_type(obj, &lv_list_text_class)) {
 370:Middlewares/lvgl/src/extra/themes/basic/lv_theme_basic.c **** 
 371:Middlewares/lvgl/src/extra/themes/basic/lv_theme_basic.c ****     }
 372:Middlewares/lvgl/src/extra/themes/basic/lv_theme_basic.c ****     else if(lv_obj_check_type(obj, &lv_list_btn_class)) {
 373:Middlewares/lvgl/src/extra/themes/basic/lv_theme_basic.c ****         lv_obj_add_style(obj, &styles->dark, 0);
 374:Middlewares/lvgl/src/extra/themes/basic/lv_theme_basic.c ****         lv_obj_add_style(obj, &styles->pressed, LV_STATE_PRESSED);
 375:Middlewares/lvgl/src/extra/themes/basic/lv_theme_basic.c **** 
 376:Middlewares/lvgl/src/extra/themes/basic/lv_theme_basic.c ****     }
 377:Middlewares/lvgl/src/extra/themes/basic/lv_theme_basic.c **** #endif
 378:Middlewares/lvgl/src/extra/themes/basic/lv_theme_basic.c **** #if LV_USE_MSGBOX
 379:Middlewares/lvgl/src/extra/themes/basic/lv_theme_basic.c ****     else if(lv_obj_check_type(obj, &lv_msgbox_class)) {
 380:Middlewares/lvgl/src/extra/themes/basic/lv_theme_basic.c ****         lv_obj_add_style(obj, &styles->light, 0);
 381:Middlewares/lvgl/src/extra/themes/basic/lv_theme_basic.c ****         return;
 382:Middlewares/lvgl/src/extra/themes/basic/lv_theme_basic.c ****     }
 383:Middlewares/lvgl/src/extra/themes/basic/lv_theme_basic.c **** #endif
 384:Middlewares/lvgl/src/extra/themes/basic/lv_theme_basic.c **** #if LV_USE_SPINBOX
 385:Middlewares/lvgl/src/extra/themes/basic/lv_theme_basic.c ****     else if(lv_obj_check_type(obj, &lv_spinbox_class)) {
 386:Middlewares/lvgl/src/extra/themes/basic/lv_theme_basic.c ****         lv_obj_add_style(obj, &styles->light, 0);
 387:Middlewares/lvgl/src/extra/themes/basic/lv_theme_basic.c ****         lv_obj_add_style(obj, &styles->dark, LV_PART_CURSOR);
 388:Middlewares/lvgl/src/extra/themes/basic/lv_theme_basic.c ****     }
 389:Middlewares/lvgl/src/extra/themes/basic/lv_theme_basic.c **** #endif
 390:Middlewares/lvgl/src/extra/themes/basic/lv_theme_basic.c **** #if LV_USE_TILEVIEW
 391:Middlewares/lvgl/src/extra/themes/basic/lv_theme_basic.c ****     else if(lv_obj_check_type(obj, &lv_tileview_class)) {
 392:Middlewares/lvgl/src/extra/themes/basic/lv_theme_basic.c ****         lv_obj_add_style(obj, &styles->scr, 0);
 393:Middlewares/lvgl/src/extra/themes/basic/lv_theme_basic.c ****         lv_obj_add_style(obj, &styles->scrollbar, LV_PART_SCROLLBAR);
 394:Middlewares/lvgl/src/extra/themes/basic/lv_theme_basic.c ****     }
 395:Middlewares/lvgl/src/extra/themes/basic/lv_theme_basic.c ****     else if(lv_obj_check_type(obj, &lv_tileview_tile_class)) {
 396:Middlewares/lvgl/src/extra/themes/basic/lv_theme_basic.c ****         lv_obj_add_style(obj, &styles->scrollbar, LV_PART_SCROLLBAR);
 397:Middlewares/lvgl/src/extra/themes/basic/lv_theme_basic.c ****     }
 398:Middlewares/lvgl/src/extra/themes/basic/lv_theme_basic.c **** #endif
 399:Middlewares/lvgl/src/extra/themes/basic/lv_theme_basic.c **** 
 400:Middlewares/lvgl/src/extra/themes/basic/lv_theme_basic.c **** #if LV_USE_COLORWHEEL
 401:Middlewares/lvgl/src/extra/themes/basic/lv_theme_basic.c ****     else if(lv_obj_check_type(obj, &lv_colorwheel_class)) {
 402:Middlewares/lvgl/src/extra/themes/basic/lv_theme_basic.c ****         lv_obj_add_style(obj, &styles->light, 0);
 403:Middlewares/lvgl/src/extra/themes/basic/lv_theme_basic.c ****         lv_obj_add_style(obj, &styles->light, LV_PART_KNOB);
 404:Middlewares/lvgl/src/extra/themes/basic/lv_theme_basic.c ****     }
 405:Middlewares/lvgl/src/extra/themes/basic/lv_theme_basic.c **** #endif
 406:Middlewares/lvgl/src/extra/themes/basic/lv_theme_basic.c **** 
 407:Middlewares/lvgl/src/extra/themes/basic/lv_theme_basic.c **** #if LV_USE_LED
 408:Middlewares/lvgl/src/extra/themes/basic/lv_theme_basic.c ****     else if(lv_obj_check_type(obj, &lv_led_class)) {
 409:Middlewares/lvgl/src/extra/themes/basic/lv_theme_basic.c ****             lv_obj_add_style(obj, &styles->light, 0);
 410:Middlewares/lvgl/src/extra/themes/basic/lv_theme_basic.c ****         }
 411:Middlewares/lvgl/src/extra/themes/basic/lv_theme_basic.c **** #endif
 412:Middlewares/lvgl/src/extra/themes/basic/lv_theme_basic.c **** }
 392              		.loc 1 412 1 view .LVU107
 393 0134 70BD     		pop	{r4, r5, r6, pc}
 394              	.LVL44:
 395              	.L11:
 227:Middlewares/lvgl/src/extra/themes/basic/lv_theme_basic.c **** #if LV_USE_MSGBOX
 396              		.loc 1 227 10 is_stmt 1 view .LVU108
 227:Middlewares/lvgl/src/extra/themes/basic/lv_theme_basic.c **** #if LV_USE_MSGBOX
 397              		.loc 1 227 13 is_stmt 0 view .LVU109
 398 0136 7849     		ldr	r1, .L46+20
 399 0138 2046     		mov	r0, r4
 400 013a FFF7FEFF 		bl	lv_obj_check_type
 401              	.LVL45:
ARM GAS  /tmp/ccwx3eYd.s 			page 28


 227:Middlewares/lvgl/src/extra/themes/basic/lv_theme_basic.c **** #if LV_USE_MSGBOX
 402              		.loc 1 227 12 view .LVU110
 403 013e 0028     		cmp	r0, #0
 404 0140 40D0     		beq	.L12
 229:Middlewares/lvgl/src/extra/themes/basic/lv_theme_basic.c ****             lv_obj_add_style(obj, &styles->light, LV_PART_ITEMS);
 405              		.loc 1 229 9 is_stmt 1 view .LVU111
 229:Middlewares/lvgl/src/extra/themes/basic/lv_theme_basic.c ****             lv_obj_add_style(obj, &styles->light, LV_PART_ITEMS);
 406              		.loc 1 229 30 is_stmt 0 view .LVU112
 407 0142 2046     		mov	r0, r4
 408 0144 FFF7FEFF 		bl	lv_obj_get_parent
 409              	.LVL46:
 229:Middlewares/lvgl/src/extra/themes/basic/lv_theme_basic.c ****             lv_obj_add_style(obj, &styles->light, LV_PART_ITEMS);
 410              		.loc 1 229 12 view .LVU113
 411 0148 7449     		ldr	r1, .L46+24
 412 014a FFF7FEFF 		bl	lv_obj_check_type
 413              	.LVL47:
 229:Middlewares/lvgl/src/extra/themes/basic/lv_theme_basic.c ****             lv_obj_add_style(obj, &styles->light, LV_PART_ITEMS);
 414              		.loc 1 229 11 view .LVU114
 415 014e D8B9     		cbnz	r0, .L42
 236:Middlewares/lvgl/src/extra/themes/basic/lv_theme_basic.c ****             lv_obj_add_style(obj, &styles->light, LV_PART_ITEMS);
 416              		.loc 1 236 9 is_stmt 1 view .LVU115
 236:Middlewares/lvgl/src/extra/themes/basic/lv_theme_basic.c ****             lv_obj_add_style(obj, &styles->light, LV_PART_ITEMS);
 417              		.loc 1 236 30 is_stmt 0 view .LVU116
 418 0150 2046     		mov	r0, r4
 419 0152 FFF7FEFF 		bl	lv_obj_get_parent
 420              	.LVL48:
 236:Middlewares/lvgl/src/extra/themes/basic/lv_theme_basic.c ****             lv_obj_add_style(obj, &styles->light, LV_PART_ITEMS);
 421              		.loc 1 236 12 view .LVU117
 422 0156 6C49     		ldr	r1, .L46+4
 423 0158 FFF7FEFF 		bl	lv_obj_check_type
 424              	.LVL49:
 236:Middlewares/lvgl/src/extra/themes/basic/lv_theme_basic.c ****             lv_obj_add_style(obj, &styles->light, LV_PART_ITEMS);
 425              		.loc 1 236 11 view .LVU118
 426 015c 18BB     		cbnz	r0, .L43
 242:Middlewares/lvgl/src/extra/themes/basic/lv_theme_basic.c ****         lv_obj_add_style(obj, &styles->dark, LV_PART_ITEMS);
 427              		.loc 1 242 9 is_stmt 1 view .LVU119
 242:Middlewares/lvgl/src/extra/themes/basic/lv_theme_basic.c ****         lv_obj_add_style(obj, &styles->dark, LV_PART_ITEMS);
 428              		.loc 1 242 38 is_stmt 0 view .LVU120
 429 015e 6C4D     		ldr	r5, .L46+12
 430 0160 2968     		ldr	r1, [r5]
 242:Middlewares/lvgl/src/extra/themes/basic/lv_theme_basic.c ****         lv_obj_add_style(obj, &styles->dark, LV_PART_ITEMS);
 431              		.loc 1 242 9 view .LVU121
 432 0162 0022     		movs	r2, #0
 433 0164 0831     		adds	r1, r1, #8
 434 0166 2046     		mov	r0, r4
 435 0168 FFF7FEFF 		bl	lv_obj_add_style
 436              	.LVL50:
 243:Middlewares/lvgl/src/extra/themes/basic/lv_theme_basic.c ****         lv_obj_add_style(obj, &styles->pressed, LV_PART_ITEMS | LV_STATE_PRESSED);
 437              		.loc 1 243 9 is_stmt 1 view .LVU122
 243:Middlewares/lvgl/src/extra/themes/basic/lv_theme_basic.c ****         lv_obj_add_style(obj, &styles->pressed, LV_PART_ITEMS | LV_STATE_PRESSED);
 438              		.loc 1 243 38 is_stmt 0 view .LVU123
 439 016c 2968     		ldr	r1, [r5]
 243:Middlewares/lvgl/src/extra/themes/basic/lv_theme_basic.c ****         lv_obj_add_style(obj, &styles->pressed, LV_PART_ITEMS | LV_STATE_PRESSED);
 440              		.loc 1 243 9 view .LVU124
 441 016e 4FF4A022 		mov	r2, #327680
 442 0172 1031     		adds	r1, r1, #16
 443 0174 2046     		mov	r0, r4
ARM GAS  /tmp/ccwx3eYd.s 			page 29


 444 0176 FFF7FEFF 		bl	lv_obj_add_style
 445              	.LVL51:
 244:Middlewares/lvgl/src/extra/themes/basic/lv_theme_basic.c ****     }
 446              		.loc 1 244 9 is_stmt 1 view .LVU125
 244:Middlewares/lvgl/src/extra/themes/basic/lv_theme_basic.c ****     }
 447              		.loc 1 244 38 is_stmt 0 view .LVU126
 448 017a 2968     		ldr	r1, [r5]
 244:Middlewares/lvgl/src/extra/themes/basic/lv_theme_basic.c ****     }
 449              		.loc 1 244 9 view .LVU127
 450 017c 684A     		ldr	r2, .L46+28
 451 017e 2031     		adds	r1, r1, #32
 452 0180 2046     		mov	r0, r4
 453 0182 FFF7FEFF 		bl	lv_obj_add_style
 454              	.LVL52:
 455 0186 D5E7     		b	.L3
 456              	.L42:
 230:Middlewares/lvgl/src/extra/themes/basic/lv_theme_basic.c ****             lv_obj_add_style(obj, &styles->pressed, LV_PART_ITEMS | LV_STATE_PRESSED);
 457              		.loc 1 230 13 is_stmt 1 view .LVU128
 230:Middlewares/lvgl/src/extra/themes/basic/lv_theme_basic.c ****             lv_obj_add_style(obj, &styles->pressed, LV_PART_ITEMS | LV_STATE_PRESSED);
 458              		.loc 1 230 42 is_stmt 0 view .LVU129
 459 0188 614D     		ldr	r5, .L46+12
 460 018a 2968     		ldr	r1, [r5]
 230:Middlewares/lvgl/src/extra/themes/basic/lv_theme_basic.c ****             lv_obj_add_style(obj, &styles->pressed, LV_PART_ITEMS | LV_STATE_PRESSED);
 461              		.loc 1 230 13 view .LVU130
 462 018c 4FF4A022 		mov	r2, #327680
 463 0190 0831     		adds	r1, r1, #8
 464 0192 2046     		mov	r0, r4
 465 0194 FFF7FEFF 		bl	lv_obj_add_style
 466              	.LVL53:
 231:Middlewares/lvgl/src/extra/themes/basic/lv_theme_basic.c ****             return;
 467              		.loc 1 231 13 is_stmt 1 view .LVU131
 231:Middlewares/lvgl/src/extra/themes/basic/lv_theme_basic.c ****             return;
 468              		.loc 1 231 42 is_stmt 0 view .LVU132
 469 0198 2968     		ldr	r1, [r5]
 231:Middlewares/lvgl/src/extra/themes/basic/lv_theme_basic.c ****             return;
 470              		.loc 1 231 13 view .LVU133
 471 019a 614A     		ldr	r2, .L46+28
 472 019c 2031     		adds	r1, r1, #32
 473 019e 2046     		mov	r0, r4
 474 01a0 FFF7FEFF 		bl	lv_obj_add_style
 475              	.LVL54:
 232:Middlewares/lvgl/src/extra/themes/basic/lv_theme_basic.c ****         }
 476              		.loc 1 232 13 is_stmt 1 view .LVU134
 477 01a4 C6E7     		b	.L3
 478              	.L43:
 237:Middlewares/lvgl/src/extra/themes/basic/lv_theme_basic.c ****             lv_obj_add_style(obj, &styles->pressed, LV_PART_ITEMS | LV_STATE_PRESSED);
 479              		.loc 1 237 13 view .LVU135
 237:Middlewares/lvgl/src/extra/themes/basic/lv_theme_basic.c ****             lv_obj_add_style(obj, &styles->pressed, LV_PART_ITEMS | LV_STATE_PRESSED);
 480              		.loc 1 237 42 is_stmt 0 view .LVU136
 481 01a6 5A4D     		ldr	r5, .L46+12
 482 01a8 2968     		ldr	r1, [r5]
 237:Middlewares/lvgl/src/extra/themes/basic/lv_theme_basic.c ****             lv_obj_add_style(obj, &styles->pressed, LV_PART_ITEMS | LV_STATE_PRESSED);
 483              		.loc 1 237 13 view .LVU137
 484 01aa 4FF4A022 		mov	r2, #327680
 485 01ae 0831     		adds	r1, r1, #8
 486 01b0 2046     		mov	r0, r4
 487 01b2 FFF7FEFF 		bl	lv_obj_add_style
ARM GAS  /tmp/ccwx3eYd.s 			page 30


 488              	.LVL55:
 238:Middlewares/lvgl/src/extra/themes/basic/lv_theme_basic.c ****             return;
 489              		.loc 1 238 13 is_stmt 1 view .LVU138
 238:Middlewares/lvgl/src/extra/themes/basic/lv_theme_basic.c ****             return;
 490              		.loc 1 238 42 is_stmt 0 view .LVU139
 491 01b6 2968     		ldr	r1, [r5]
 238:Middlewares/lvgl/src/extra/themes/basic/lv_theme_basic.c ****             return;
 492              		.loc 1 238 13 view .LVU140
 493 01b8 594A     		ldr	r2, .L46+28
 494 01ba 2031     		adds	r1, r1, #32
 495 01bc 2046     		mov	r0, r4
 496 01be FFF7FEFF 		bl	lv_obj_add_style
 497              	.LVL56:
 239:Middlewares/lvgl/src/extra/themes/basic/lv_theme_basic.c ****         }
 498              		.loc 1 239 13 is_stmt 1 view .LVU141
 499 01c2 B7E7     		b	.L3
 500              	.L12:
 249:Middlewares/lvgl/src/extra/themes/basic/lv_theme_basic.c ****         lv_obj_add_style(obj, &styles->light, 0);
 501              		.loc 1 249 10 view .LVU142
 249:Middlewares/lvgl/src/extra/themes/basic/lv_theme_basic.c ****         lv_obj_add_style(obj, &styles->light, 0);
 502              		.loc 1 249 13 is_stmt 0 view .LVU143
 503 01c4 5749     		ldr	r1, .L46+32
 504 01c6 2046     		mov	r0, r4
 505 01c8 FFF7FEFF 		bl	lv_obj_check_type
 506              	.LVL57:
 249:Middlewares/lvgl/src/extra/themes/basic/lv_theme_basic.c ****         lv_obj_add_style(obj, &styles->light, 0);
 507              		.loc 1 249 12 view .LVU144
 508 01cc A0B1     		cbz	r0, .L15
 250:Middlewares/lvgl/src/extra/themes/basic/lv_theme_basic.c ****         lv_obj_add_style(obj, &styles->pad_zero, 0);
 509              		.loc 1 250 9 is_stmt 1 view .LVU145
 250:Middlewares/lvgl/src/extra/themes/basic/lv_theme_basic.c ****         lv_obj_add_style(obj, &styles->pad_zero, 0);
 510              		.loc 1 250 38 is_stmt 0 view .LVU146
 511 01ce 504D     		ldr	r5, .L46+12
 512 01d0 2968     		ldr	r1, [r5]
 250:Middlewares/lvgl/src/extra/themes/basic/lv_theme_basic.c ****         lv_obj_add_style(obj, &styles->pad_zero, 0);
 513              		.loc 1 250 9 view .LVU147
 514 01d2 0022     		movs	r2, #0
 515 01d4 0831     		adds	r1, r1, #8
 516 01d6 2046     		mov	r0, r4
 517 01d8 FFF7FEFF 		bl	lv_obj_add_style
 518              	.LVL58:
 251:Middlewares/lvgl/src/extra/themes/basic/lv_theme_basic.c ****         lv_obj_add_style(obj, &styles->dark, LV_PART_INDICATOR);
 519              		.loc 1 251 9 is_stmt 1 view .LVU148
 251:Middlewares/lvgl/src/extra/themes/basic/lv_theme_basic.c ****         lv_obj_add_style(obj, &styles->dark, LV_PART_INDICATOR);
 520              		.loc 1 251 38 is_stmt 0 view .LVU149
 521 01dc 2968     		ldr	r1, [r5]
 251:Middlewares/lvgl/src/extra/themes/basic/lv_theme_basic.c ****         lv_obj_add_style(obj, &styles->dark, LV_PART_INDICATOR);
 522              		.loc 1 251 9 view .LVU150
 523 01de 0022     		movs	r2, #0
 524 01e0 3031     		adds	r1, r1, #48
 525 01e2 2046     		mov	r0, r4
 526 01e4 FFF7FEFF 		bl	lv_obj_add_style
 527              	.LVL59:
 252:Middlewares/lvgl/src/extra/themes/basic/lv_theme_basic.c ****     }
 528              		.loc 1 252 9 is_stmt 1 view .LVU151
 252:Middlewares/lvgl/src/extra/themes/basic/lv_theme_basic.c ****     }
 529              		.loc 1 252 38 is_stmt 0 view .LVU152
ARM GAS  /tmp/ccwx3eYd.s 			page 31


 530 01e8 2968     		ldr	r1, [r5]
 252:Middlewares/lvgl/src/extra/themes/basic/lv_theme_basic.c ****     }
 531              		.loc 1 252 9 view .LVU153
 532 01ea 4FF40032 		mov	r2, #131072
 533 01ee 1031     		adds	r1, r1, #16
 534 01f0 2046     		mov	r0, r4
 535 01f2 FFF7FEFF 		bl	lv_obj_add_style
 536              	.LVL60:
 537 01f6 9DE7     		b	.L3
 538              	.L15:
 257:Middlewares/lvgl/src/extra/themes/basic/lv_theme_basic.c ****         lv_obj_add_style(obj, &styles->light, 0);
 539              		.loc 1 257 10 is_stmt 1 view .LVU154
 257:Middlewares/lvgl/src/extra/themes/basic/lv_theme_basic.c ****         lv_obj_add_style(obj, &styles->light, 0);
 540              		.loc 1 257 13 is_stmt 0 view .LVU155
 541 01f8 4B49     		ldr	r1, .L46+36
 542 01fa 2046     		mov	r0, r4
 543 01fc FFF7FEFF 		bl	lv_obj_check_type
 544              	.LVL61:
 257:Middlewares/lvgl/src/extra/themes/basic/lv_theme_basic.c ****         lv_obj_add_style(obj, &styles->light, 0);
 545              		.loc 1 257 12 view .LVU156
 546 0200 D8B1     		cbz	r0, .L16
 258:Middlewares/lvgl/src/extra/themes/basic/lv_theme_basic.c ****         lv_obj_add_style(obj, &styles->pad_zero, 0);
 547              		.loc 1 258 9 is_stmt 1 view .LVU157
 258:Middlewares/lvgl/src/extra/themes/basic/lv_theme_basic.c ****         lv_obj_add_style(obj, &styles->pad_zero, 0);
 548              		.loc 1 258 38 is_stmt 0 view .LVU158
 549 0202 434D     		ldr	r5, .L46+12
 550 0204 2968     		ldr	r1, [r5]
 258:Middlewares/lvgl/src/extra/themes/basic/lv_theme_basic.c ****         lv_obj_add_style(obj, &styles->pad_zero, 0);
 551              		.loc 1 258 9 view .LVU159
 552 0206 0022     		movs	r2, #0
 553 0208 0831     		adds	r1, r1, #8
 554 020a 2046     		mov	r0, r4
 555 020c FFF7FEFF 		bl	lv_obj_add_style
 556              	.LVL62:
 259:Middlewares/lvgl/src/extra/themes/basic/lv_theme_basic.c ****         lv_obj_add_style(obj, &styles->dark, LV_PART_INDICATOR);
 557              		.loc 1 259 9 is_stmt 1 view .LVU160
 259:Middlewares/lvgl/src/extra/themes/basic/lv_theme_basic.c ****         lv_obj_add_style(obj, &styles->dark, LV_PART_INDICATOR);
 558              		.loc 1 259 38 is_stmt 0 view .LVU161
 559 0210 2968     		ldr	r1, [r5]
 259:Middlewares/lvgl/src/extra/themes/basic/lv_theme_basic.c ****         lv_obj_add_style(obj, &styles->dark, LV_PART_INDICATOR);
 560              		.loc 1 259 9 view .LVU162
 561 0212 0022     		movs	r2, #0
 562 0214 3031     		adds	r1, r1, #48
 563 0216 2046     		mov	r0, r4
 564 0218 FFF7FEFF 		bl	lv_obj_add_style
 565              	.LVL63:
 260:Middlewares/lvgl/src/extra/themes/basic/lv_theme_basic.c ****         lv_obj_add_style(obj, &styles->dark, LV_PART_KNOB);
 566              		.loc 1 260 9 is_stmt 1 view .LVU163
 260:Middlewares/lvgl/src/extra/themes/basic/lv_theme_basic.c ****         lv_obj_add_style(obj, &styles->dark, LV_PART_KNOB);
 567              		.loc 1 260 38 is_stmt 0 view .LVU164
 568 021c 2968     		ldr	r1, [r5]
 260:Middlewares/lvgl/src/extra/themes/basic/lv_theme_basic.c ****         lv_obj_add_style(obj, &styles->dark, LV_PART_KNOB);
 569              		.loc 1 260 9 view .LVU165
 570 021e 4FF40032 		mov	r2, #131072
 571 0222 1031     		adds	r1, r1, #16
 572 0224 2046     		mov	r0, r4
 573 0226 FFF7FEFF 		bl	lv_obj_add_style
ARM GAS  /tmp/ccwx3eYd.s 			page 32


 574              	.LVL64:
 261:Middlewares/lvgl/src/extra/themes/basic/lv_theme_basic.c ****     }
 575              		.loc 1 261 9 is_stmt 1 view .LVU166
 261:Middlewares/lvgl/src/extra/themes/basic/lv_theme_basic.c ****     }
 576              		.loc 1 261 38 is_stmt 0 view .LVU167
 577 022a 2968     		ldr	r1, [r5]
 261:Middlewares/lvgl/src/extra/themes/basic/lv_theme_basic.c ****     }
 578              		.loc 1 261 9 view .LVU168
 579 022c 4FF44032 		mov	r2, #196608
 580 0230 1031     		adds	r1, r1, #16
 581 0232 2046     		mov	r0, r4
 582 0234 FFF7FEFF 		bl	lv_obj_add_style
 583              	.LVL65:
 584 0238 7CE7     		b	.L3
 585              	.L16:
 266:Middlewares/lvgl/src/extra/themes/basic/lv_theme_basic.c ****         lv_obj_add_style(obj, &styles->scrollbar, LV_PART_SCROLLBAR);
 586              		.loc 1 266 10 is_stmt 1 view .LVU169
 266:Middlewares/lvgl/src/extra/themes/basic/lv_theme_basic.c ****         lv_obj_add_style(obj, &styles->scrollbar, LV_PART_SCROLLBAR);
 587              		.loc 1 266 13 is_stmt 0 view .LVU170
 588 023a 3C49     		ldr	r1, .L46+40
 589 023c 2046     		mov	r0, r4
 590 023e FFF7FEFF 		bl	lv_obj_check_type
 591              	.LVL66:
 266:Middlewares/lvgl/src/extra/themes/basic/lv_theme_basic.c ****         lv_obj_add_style(obj, &styles->scrollbar, LV_PART_SCROLLBAR);
 592              		.loc 1 266 12 view .LVU171
 593 0242 A8B1     		cbz	r0, .L17
 267:Middlewares/lvgl/src/extra/themes/basic/lv_theme_basic.c ****         lv_obj_add_style(obj, &styles->light, LV_PART_ITEMS);
 594              		.loc 1 267 9 is_stmt 1 view .LVU172
 267:Middlewares/lvgl/src/extra/themes/basic/lv_theme_basic.c ****         lv_obj_add_style(obj, &styles->light, LV_PART_ITEMS);
 595              		.loc 1 267 38 is_stmt 0 view .LVU173
 596 0244 324D     		ldr	r5, .L46+12
 597 0246 2968     		ldr	r1, [r5]
 267:Middlewares/lvgl/src/extra/themes/basic/lv_theme_basic.c ****         lv_obj_add_style(obj, &styles->light, LV_PART_ITEMS);
 598              		.loc 1 267 9 view .LVU174
 599 0248 4FF48032 		mov	r2, #65536
 600 024c 1831     		adds	r1, r1, #24
 601 024e 2046     		mov	r0, r4
 602 0250 FFF7FEFF 		bl	lv_obj_add_style
 603              	.LVL67:
 268:Middlewares/lvgl/src/extra/themes/basic/lv_theme_basic.c ****         lv_obj_add_style(obj, &styles->pressed, LV_PART_ITEMS | LV_STATE_PRESSED);
 604              		.loc 1 268 9 is_stmt 1 view .LVU175
 268:Middlewares/lvgl/src/extra/themes/basic/lv_theme_basic.c ****         lv_obj_add_style(obj, &styles->pressed, LV_PART_ITEMS | LV_STATE_PRESSED);
 605              		.loc 1 268 38 is_stmt 0 view .LVU176
 606 0254 2968     		ldr	r1, [r5]
 268:Middlewares/lvgl/src/extra/themes/basic/lv_theme_basic.c ****         lv_obj_add_style(obj, &styles->pressed, LV_PART_ITEMS | LV_STATE_PRESSED);
 607              		.loc 1 268 9 view .LVU177
 608 0256 4FF4A022 		mov	r2, #327680
 609 025a 0831     		adds	r1, r1, #8
 610 025c 2046     		mov	r0, r4
 611 025e FFF7FEFF 		bl	lv_obj_add_style
 612              	.LVL68:
 269:Middlewares/lvgl/src/extra/themes/basic/lv_theme_basic.c ****     }
 613              		.loc 1 269 9 is_stmt 1 view .LVU178
 269:Middlewares/lvgl/src/extra/themes/basic/lv_theme_basic.c ****     }
 614              		.loc 1 269 38 is_stmt 0 view .LVU179
 615 0262 2968     		ldr	r1, [r5]
 269:Middlewares/lvgl/src/extra/themes/basic/lv_theme_basic.c ****     }
ARM GAS  /tmp/ccwx3eYd.s 			page 33


 616              		.loc 1 269 9 view .LVU180
 617 0264 2E4A     		ldr	r2, .L46+28
 618 0266 2031     		adds	r1, r1, #32
 619 0268 2046     		mov	r0, r4
 620 026a FFF7FEFF 		bl	lv_obj_add_style
 621              	.LVL69:
 622 026e 61E7     		b	.L3
 623              	.L17:
 274:Middlewares/lvgl/src/extra/themes/basic/lv_theme_basic.c ****         lv_obj_add_style(obj, &styles->light, LV_PART_INDICATOR);
 624              		.loc 1 274 10 is_stmt 1 view .LVU181
 274:Middlewares/lvgl/src/extra/themes/basic/lv_theme_basic.c ****         lv_obj_add_style(obj, &styles->light, LV_PART_INDICATOR);
 625              		.loc 1 274 13 is_stmt 0 view .LVU182
 626 0270 2F49     		ldr	r1, .L46+44
 627 0272 2046     		mov	r0, r4
 628 0274 FFF7FEFF 		bl	lv_obj_check_type
 629              	.LVL70:
 274:Middlewares/lvgl/src/extra/themes/basic/lv_theme_basic.c ****         lv_obj_add_style(obj, &styles->light, LV_PART_INDICATOR);
 630              		.loc 1 274 12 view .LVU183
 631 0278 D0B1     		cbz	r0, .L18
 275:Middlewares/lvgl/src/extra/themes/basic/lv_theme_basic.c ****         lv_obj_add_style(obj, &styles->disabled, LV_PART_INDICATOR | LV_STATE_DISABLED);
 632              		.loc 1 275 9 is_stmt 1 view .LVU184
 275:Middlewares/lvgl/src/extra/themes/basic/lv_theme_basic.c ****         lv_obj_add_style(obj, &styles->disabled, LV_PART_INDICATOR | LV_STATE_DISABLED);
 633              		.loc 1 275 38 is_stmt 0 view .LVU185
 634 027a 254D     		ldr	r5, .L46+12
 635 027c 2968     		ldr	r1, [r5]
 275:Middlewares/lvgl/src/extra/themes/basic/lv_theme_basic.c ****         lv_obj_add_style(obj, &styles->disabled, LV_PART_INDICATOR | LV_STATE_DISABLED);
 636              		.loc 1 275 9 view .LVU186
 637 027e 4FF40032 		mov	r2, #131072
 638 0282 0831     		adds	r1, r1, #8
 639 0284 2046     		mov	r0, r4
 640 0286 FFF7FEFF 		bl	lv_obj_add_style
 641              	.LVL71:
 276:Middlewares/lvgl/src/extra/themes/basic/lv_theme_basic.c ****         lv_obj_add_style(obj, &styles->dark, LV_PART_INDICATOR | LV_STATE_CHECKED);
 642              		.loc 1 276 9 is_stmt 1 view .LVU187
 276:Middlewares/lvgl/src/extra/themes/basic/lv_theme_basic.c ****         lv_obj_add_style(obj, &styles->dark, LV_PART_INDICATOR | LV_STATE_CHECKED);
 643              		.loc 1 276 38 is_stmt 0 view .LVU188
 644 028a 2968     		ldr	r1, [r5]
 276:Middlewares/lvgl/src/extra/themes/basic/lv_theme_basic.c ****         lv_obj_add_style(obj, &styles->dark, LV_PART_INDICATOR | LV_STATE_CHECKED);
 645              		.loc 1 276 9 view .LVU189
 646 028c 294A     		ldr	r2, .L46+48
 647 028e 2831     		adds	r1, r1, #40
 648 0290 2046     		mov	r0, r4
 649 0292 FFF7FEFF 		bl	lv_obj_add_style
 650              	.LVL72:
 277:Middlewares/lvgl/src/extra/themes/basic/lv_theme_basic.c ****         lv_obj_add_style(obj, &styles->pressed, LV_PART_INDICATOR | LV_STATE_PRESSED);
 651              		.loc 1 277 9 is_stmt 1 view .LVU190
 277:Middlewares/lvgl/src/extra/themes/basic/lv_theme_basic.c ****         lv_obj_add_style(obj, &styles->pressed, LV_PART_INDICATOR | LV_STATE_PRESSED);
 652              		.loc 1 277 38 is_stmt 0 view .LVU191
 653 0296 2968     		ldr	r1, [r5]
 277:Middlewares/lvgl/src/extra/themes/basic/lv_theme_basic.c ****         lv_obj_add_style(obj, &styles->pressed, LV_PART_INDICATOR | LV_STATE_PRESSED);
 654              		.loc 1 277 9 view .LVU192
 655 0298 274A     		ldr	r2, .L46+52
 656 029a 1031     		adds	r1, r1, #16
 657 029c 2046     		mov	r0, r4
 658 029e FFF7FEFF 		bl	lv_obj_add_style
 659              	.LVL73:
 278:Middlewares/lvgl/src/extra/themes/basic/lv_theme_basic.c ****     }
ARM GAS  /tmp/ccwx3eYd.s 			page 34


 660              		.loc 1 278 9 is_stmt 1 view .LVU193
 278:Middlewares/lvgl/src/extra/themes/basic/lv_theme_basic.c ****     }
 661              		.loc 1 278 38 is_stmt 0 view .LVU194
 662 02a2 2968     		ldr	r1, [r5]
 278:Middlewares/lvgl/src/extra/themes/basic/lv_theme_basic.c ****     }
 663              		.loc 1 278 9 view .LVU195
 664 02a4 254A     		ldr	r2, .L46+56
 665 02a6 2031     		adds	r1, r1, #32
 666 02a8 2046     		mov	r0, r4
 667 02aa FFF7FEFF 		bl	lv_obj_add_style
 668              	.LVL74:
 669 02ae 41E7     		b	.L3
 670              	.L18:
 283:Middlewares/lvgl/src/extra/themes/basic/lv_theme_basic.c ****         lv_obj_add_style(obj, &styles->light, 0);
 671              		.loc 1 283 10 is_stmt 1 view .LVU196
 283:Middlewares/lvgl/src/extra/themes/basic/lv_theme_basic.c ****         lv_obj_add_style(obj, &styles->light, 0);
 672              		.loc 1 283 13 is_stmt 0 view .LVU197
 673 02b0 2349     		ldr	r1, .L46+60
 674 02b2 2046     		mov	r0, r4
 675 02b4 FFF7FEFF 		bl	lv_obj_check_type
 676              	.LVL75:
 283:Middlewares/lvgl/src/extra/themes/basic/lv_theme_basic.c ****         lv_obj_add_style(obj, &styles->light, 0);
 677              		.loc 1 283 12 view .LVU198
 678 02b8 0028     		cmp	r0, #0
 679 02ba 43D0     		beq	.L19
 284:Middlewares/lvgl/src/extra/themes/basic/lv_theme_basic.c ****         lv_obj_add_style(obj, &styles->pad_zero, 0);
 680              		.loc 1 284 9 is_stmt 1 view .LVU199
 284:Middlewares/lvgl/src/extra/themes/basic/lv_theme_basic.c ****         lv_obj_add_style(obj, &styles->pad_zero, 0);
 681              		.loc 1 284 38 is_stmt 0 view .LVU200
 682 02bc 144D     		ldr	r5, .L46+12
 683 02be 2968     		ldr	r1, [r5]
 284:Middlewares/lvgl/src/extra/themes/basic/lv_theme_basic.c ****         lv_obj_add_style(obj, &styles->pad_zero, 0);
 684              		.loc 1 284 9 view .LVU201
 685 02c0 0022     		movs	r2, #0
 686 02c2 0831     		adds	r1, r1, #8
 687 02c4 2046     		mov	r0, r4
 688 02c6 FFF7FEFF 		bl	lv_obj_add_style
 689              	.LVL76:
 285:Middlewares/lvgl/src/extra/themes/basic/lv_theme_basic.c ****         lv_obj_add_style(obj, &styles->dark, LV_PART_INDICATOR);
 690              		.loc 1 285 9 is_stmt 1 view .LVU202
 285:Middlewares/lvgl/src/extra/themes/basic/lv_theme_basic.c ****         lv_obj_add_style(obj, &styles->dark, LV_PART_INDICATOR);
 691              		.loc 1 285 38 is_stmt 0 view .LVU203
 692 02ca 2968     		ldr	r1, [r5]
 285:Middlewares/lvgl/src/extra/themes/basic/lv_theme_basic.c ****         lv_obj_add_style(obj, &styles->dark, LV_PART_INDICATOR);
 693              		.loc 1 285 9 view .LVU204
 694 02cc 0022     		movs	r2, #0
 695 02ce 3031     		adds	r1, r1, #48
 696 02d0 2046     		mov	r0, r4
 697 02d2 FFF7FEFF 		bl	lv_obj_add_style
 698              	.LVL77:
 286:Middlewares/lvgl/src/extra/themes/basic/lv_theme_basic.c ****         lv_obj_add_style(obj, &styles->dark, LV_PART_KNOB);
 699              		.loc 1 286 9 is_stmt 1 view .LVU205
 286:Middlewares/lvgl/src/extra/themes/basic/lv_theme_basic.c ****         lv_obj_add_style(obj, &styles->dark, LV_PART_KNOB);
 700              		.loc 1 286 38 is_stmt 0 view .LVU206
 701 02d6 2968     		ldr	r1, [r5]
 286:Middlewares/lvgl/src/extra/themes/basic/lv_theme_basic.c ****         lv_obj_add_style(obj, &styles->dark, LV_PART_KNOB);
 702              		.loc 1 286 9 view .LVU207
ARM GAS  /tmp/ccwx3eYd.s 			page 35


 703 02d8 4FF40032 		mov	r2, #131072
 704 02dc 1031     		adds	r1, r1, #16
 705 02de 2046     		mov	r0, r4
 706 02e0 FFF7FEFF 		bl	lv_obj_add_style
 707              	.LVL78:
 287:Middlewares/lvgl/src/extra/themes/basic/lv_theme_basic.c ****         lv_obj_add_style(obj, &styles->pad_zero, LV_PART_KNOB);
 708              		.loc 1 287 9 is_stmt 1 view .LVU208
 287:Middlewares/lvgl/src/extra/themes/basic/lv_theme_basic.c ****         lv_obj_add_style(obj, &styles->pad_zero, LV_PART_KNOB);
 709              		.loc 1 287 38 is_stmt 0 view .LVU209
 710 02e4 2968     		ldr	r1, [r5]
 287:Middlewares/lvgl/src/extra/themes/basic/lv_theme_basic.c ****         lv_obj_add_style(obj, &styles->pad_zero, LV_PART_KNOB);
 711              		.loc 1 287 9 view .LVU210
 712 02e6 4FF44032 		mov	r2, #196608
 713 02ea 1031     		adds	r1, r1, #16
 714 02ec 2046     		mov	r0, r4
 715 02ee FFF7FEFF 		bl	lv_obj_add_style
 716              	.LVL79:
 288:Middlewares/lvgl/src/extra/themes/basic/lv_theme_basic.c ****     }
 717              		.loc 1 288 9 is_stmt 1 view .LVU211
 288:Middlewares/lvgl/src/extra/themes/basic/lv_theme_basic.c ****     }
 718              		.loc 1 288 38 is_stmt 0 view .LVU212
 719 02f2 2968     		ldr	r1, [r5]
 288:Middlewares/lvgl/src/extra/themes/basic/lv_theme_basic.c ****     }
 720              		.loc 1 288 9 view .LVU213
 721 02f4 4FF44032 		mov	r2, #196608
 722 02f8 3031     		adds	r1, r1, #48
 723 02fa 2046     		mov	r0, r4
 724 02fc FFF7FEFF 		bl	lv_obj_add_style
 725              	.LVL80:
 726 0300 18E7     		b	.L3
 727              	.L47:
 728 0302 00BF     		.align	2
 729              	.L46:
 730 0304 00000000 		.word	lv_obj_class
 731 0308 00000000 		.word	lv_tabview_class
 732 030c 00000000 		.word	lv_win_class
 733 0310 00000000 		.word	.LANCHOR0
 734 0314 00000000 		.word	lv_btn_class
 735 0318 00000000 		.word	lv_btnmatrix_class
 736 031c 00000000 		.word	lv_msgbox_class
 737 0320 20000500 		.word	327712
 738 0324 00000000 		.word	lv_bar_class
 739 0328 00000000 		.word	lv_slider_class
 740 032c 00000000 		.word	lv_table_class
 741 0330 00000000 		.word	lv_checkbox_class
 742 0334 80000200 		.word	131200
 743 0338 01000200 		.word	131073
 744 033c 20000200 		.word	131104
 745 0340 00000000 		.word	lv_switch_class
 746              	.L19:
 293:Middlewares/lvgl/src/extra/themes/basic/lv_theme_basic.c ****         lv_obj_add_style(obj, &styles->light, 0);
 747              		.loc 1 293 10 is_stmt 1 view .LVU214
 293:Middlewares/lvgl/src/extra/themes/basic/lv_theme_basic.c ****         lv_obj_add_style(obj, &styles->light, 0);
 748              		.loc 1 293 13 is_stmt 0 view .LVU215
 749 0344 B849     		ldr	r1, .L48
 750 0346 2046     		mov	r0, r4
 751 0348 FFF7FEFF 		bl	lv_obj_check_type
ARM GAS  /tmp/ccwx3eYd.s 			page 36


 752              	.LVL81:
 293:Middlewares/lvgl/src/extra/themes/basic/lv_theme_basic.c ****         lv_obj_add_style(obj, &styles->light, 0);
 753              		.loc 1 293 12 view .LVU216
 754 034c 18B3     		cbz	r0, .L20
 294:Middlewares/lvgl/src/extra/themes/basic/lv_theme_basic.c ****         lv_obj_add_style(obj, &styles->scrollbar, LV_PART_SCROLLBAR);
 755              		.loc 1 294 9 is_stmt 1 view .LVU217
 294:Middlewares/lvgl/src/extra/themes/basic/lv_theme_basic.c ****         lv_obj_add_style(obj, &styles->scrollbar, LV_PART_SCROLLBAR);
 756              		.loc 1 294 38 is_stmt 0 view .LVU218
 757 034e B74D     		ldr	r5, .L48+4
 758 0350 2968     		ldr	r1, [r5]
 294:Middlewares/lvgl/src/extra/themes/basic/lv_theme_basic.c ****         lv_obj_add_style(obj, &styles->scrollbar, LV_PART_SCROLLBAR);
 759              		.loc 1 294 9 view .LVU219
 760 0352 0022     		movs	r2, #0
 761 0354 0831     		adds	r1, r1, #8
 762 0356 2046     		mov	r0, r4
 763 0358 FFF7FEFF 		bl	lv_obj_add_style
 764              	.LVL82:
 295:Middlewares/lvgl/src/extra/themes/basic/lv_theme_basic.c ****         lv_obj_add_style(obj, &styles->light, LV_PART_ITEMS);
 765              		.loc 1 295 9 is_stmt 1 view .LVU220
 295:Middlewares/lvgl/src/extra/themes/basic/lv_theme_basic.c ****         lv_obj_add_style(obj, &styles->light, LV_PART_ITEMS);
 766              		.loc 1 295 38 is_stmt 0 view .LVU221
 767 035c 2968     		ldr	r1, [r5]
 295:Middlewares/lvgl/src/extra/themes/basic/lv_theme_basic.c ****         lv_obj_add_style(obj, &styles->light, LV_PART_ITEMS);
 768              		.loc 1 295 9 view .LVU222
 769 035e 4FF48032 		mov	r2, #65536
 770 0362 1831     		adds	r1, r1, #24
 771 0364 2046     		mov	r0, r4
 772 0366 FFF7FEFF 		bl	lv_obj_add_style
 773              	.LVL83:
 296:Middlewares/lvgl/src/extra/themes/basic/lv_theme_basic.c ****         lv_obj_add_style(obj, &styles->light, LV_PART_TICKS);
 774              		.loc 1 296 9 is_stmt 1 view .LVU223
 296:Middlewares/lvgl/src/extra/themes/basic/lv_theme_basic.c ****         lv_obj_add_style(obj, &styles->light, LV_PART_TICKS);
 775              		.loc 1 296 38 is_stmt 0 view .LVU224
 776 036a 2968     		ldr	r1, [r5]
 296:Middlewares/lvgl/src/extra/themes/basic/lv_theme_basic.c ****         lv_obj_add_style(obj, &styles->light, LV_PART_TICKS);
 777              		.loc 1 296 9 view .LVU225
 778 036c 4FF4A022 		mov	r2, #327680
 779 0370 0831     		adds	r1, r1, #8
 780 0372 2046     		mov	r0, r4
 781 0374 FFF7FEFF 		bl	lv_obj_add_style
 782              	.LVL84:
 297:Middlewares/lvgl/src/extra/themes/basic/lv_theme_basic.c ****         lv_obj_add_style(obj, &styles->light, LV_PART_CURSOR);
 783              		.loc 1 297 9 is_stmt 1 view .LVU226
 297:Middlewares/lvgl/src/extra/themes/basic/lv_theme_basic.c ****         lv_obj_add_style(obj, &styles->light, LV_PART_CURSOR);
 784              		.loc 1 297 38 is_stmt 0 view .LVU227
 785 0378 2968     		ldr	r1, [r5]
 297:Middlewares/lvgl/src/extra/themes/basic/lv_theme_basic.c ****         lv_obj_add_style(obj, &styles->light, LV_PART_CURSOR);
 786              		.loc 1 297 9 view .LVU228
 787 037a 4FF4C022 		mov	r2, #393216
 788 037e 0831     		adds	r1, r1, #8
 789 0380 2046     		mov	r0, r4
 790 0382 FFF7FEFF 		bl	lv_obj_add_style
 791              	.LVL85:
 298:Middlewares/lvgl/src/extra/themes/basic/lv_theme_basic.c ****     }
 792              		.loc 1 298 9 is_stmt 1 view .LVU229
 298:Middlewares/lvgl/src/extra/themes/basic/lv_theme_basic.c ****     }
 793              		.loc 1 298 38 is_stmt 0 view .LVU230
ARM GAS  /tmp/ccwx3eYd.s 			page 37


 794 0386 2968     		ldr	r1, [r5]
 298:Middlewares/lvgl/src/extra/themes/basic/lv_theme_basic.c ****     }
 795              		.loc 1 298 9 view .LVU231
 796 0388 4FF4E022 		mov	r2, #458752
 797 038c 0831     		adds	r1, r1, #8
 798 038e 2046     		mov	r0, r4
 799 0390 FFF7FEFF 		bl	lv_obj_add_style
 800              	.LVL86:
 801 0394 CEE6     		b	.L3
 802              	.L20:
 303:Middlewares/lvgl/src/extra/themes/basic/lv_theme_basic.c ****         lv_obj_add_style(obj, &styles->light, 0);
 803              		.loc 1 303 10 is_stmt 1 view .LVU232
 303:Middlewares/lvgl/src/extra/themes/basic/lv_theme_basic.c ****         lv_obj_add_style(obj, &styles->light, 0);
 804              		.loc 1 303 13 is_stmt 0 view .LVU233
 805 0396 A649     		ldr	r1, .L48+8
 806 0398 2046     		mov	r0, r4
 807 039a FFF7FEFF 		bl	lv_obj_check_type
 808              	.LVL87:
 303:Middlewares/lvgl/src/extra/themes/basic/lv_theme_basic.c ****         lv_obj_add_style(obj, &styles->light, 0);
 809              		.loc 1 303 12 view .LVU234
 810 039e 70B1     		cbz	r0, .L21
 304:Middlewares/lvgl/src/extra/themes/basic/lv_theme_basic.c ****         lv_obj_add_style(obj, &styles->dark, LV_PART_SELECTED);
 811              		.loc 1 304 9 is_stmt 1 view .LVU235
 304:Middlewares/lvgl/src/extra/themes/basic/lv_theme_basic.c ****         lv_obj_add_style(obj, &styles->dark, LV_PART_SELECTED);
 812              		.loc 1 304 38 is_stmt 0 view .LVU236
 813 03a0 A24D     		ldr	r5, .L48+4
 814 03a2 2968     		ldr	r1, [r5]
 304:Middlewares/lvgl/src/extra/themes/basic/lv_theme_basic.c ****         lv_obj_add_style(obj, &styles->dark, LV_PART_SELECTED);
 815              		.loc 1 304 9 view .LVU237
 816 03a4 0022     		movs	r2, #0
 817 03a6 0831     		adds	r1, r1, #8
 818 03a8 2046     		mov	r0, r4
 819 03aa FFF7FEFF 		bl	lv_obj_add_style
 820              	.LVL88:
 305:Middlewares/lvgl/src/extra/themes/basic/lv_theme_basic.c ****     }
 821              		.loc 1 305 9 is_stmt 1 view .LVU238
 305:Middlewares/lvgl/src/extra/themes/basic/lv_theme_basic.c ****     }
 822              		.loc 1 305 38 is_stmt 0 view .LVU239
 823 03ae 2968     		ldr	r1, [r5]
 305:Middlewares/lvgl/src/extra/themes/basic/lv_theme_basic.c ****     }
 824              		.loc 1 305 9 view .LVU240
 825 03b0 4FF48022 		mov	r2, #262144
 826 03b4 1031     		adds	r1, r1, #16
 827 03b6 2046     		mov	r0, r4
 828 03b8 FFF7FEFF 		bl	lv_obj_add_style
 829              	.LVL89:
 830 03bc BAE6     		b	.L3
 831              	.L21:
 310:Middlewares/lvgl/src/extra/themes/basic/lv_theme_basic.c ****         lv_obj_add_style(obj, &styles->light, 0);
 832              		.loc 1 310 10 is_stmt 1 view .LVU241
 310:Middlewares/lvgl/src/extra/themes/basic/lv_theme_basic.c ****         lv_obj_add_style(obj, &styles->light, 0);
 833              		.loc 1 310 13 is_stmt 0 view .LVU242
 834 03be 9D49     		ldr	r1, .L48+12
 835 03c0 2046     		mov	r0, r4
 836 03c2 FFF7FEFF 		bl	lv_obj_check_type
 837              	.LVL90:
 310:Middlewares/lvgl/src/extra/themes/basic/lv_theme_basic.c ****         lv_obj_add_style(obj, &styles->light, 0);
ARM GAS  /tmp/ccwx3eYd.s 			page 38


 838              		.loc 1 310 12 view .LVU243
 839 03c6 68B1     		cbz	r0, .L22
 311:Middlewares/lvgl/src/extra/themes/basic/lv_theme_basic.c ****         lv_obj_add_style(obj, &styles->pressed, LV_STATE_PRESSED);
 840              		.loc 1 311 9 is_stmt 1 view .LVU244
 311:Middlewares/lvgl/src/extra/themes/basic/lv_theme_basic.c ****         lv_obj_add_style(obj, &styles->pressed, LV_STATE_PRESSED);
 841              		.loc 1 311 38 is_stmt 0 view .LVU245
 842 03c8 984D     		ldr	r5, .L48+4
 843 03ca 2968     		ldr	r1, [r5]
 311:Middlewares/lvgl/src/extra/themes/basic/lv_theme_basic.c ****         lv_obj_add_style(obj, &styles->pressed, LV_STATE_PRESSED);
 844              		.loc 1 311 9 view .LVU246
 845 03cc 0022     		movs	r2, #0
 846 03ce 0831     		adds	r1, r1, #8
 847 03d0 2046     		mov	r0, r4
 848 03d2 FFF7FEFF 		bl	lv_obj_add_style
 849              	.LVL91:
 312:Middlewares/lvgl/src/extra/themes/basic/lv_theme_basic.c ****     }
 850              		.loc 1 312 9 is_stmt 1 view .LVU247
 312:Middlewares/lvgl/src/extra/themes/basic/lv_theme_basic.c ****     }
 851              		.loc 1 312 38 is_stmt 0 view .LVU248
 852 03d6 2968     		ldr	r1, [r5]
 312:Middlewares/lvgl/src/extra/themes/basic/lv_theme_basic.c ****     }
 853              		.loc 1 312 9 view .LVU249
 854 03d8 2022     		movs	r2, #32
 855 03da 1144     		add	r1, r1, r2
 856 03dc 2046     		mov	r0, r4
 857 03de FFF7FEFF 		bl	lv_obj_add_style
 858              	.LVL92:
 859 03e2 A7E6     		b	.L3
 860              	.L22:
 314:Middlewares/lvgl/src/extra/themes/basic/lv_theme_basic.c ****         lv_obj_add_style(obj, &styles->light, 0);
 861              		.loc 1 314 10 is_stmt 1 view .LVU250
 314:Middlewares/lvgl/src/extra/themes/basic/lv_theme_basic.c ****         lv_obj_add_style(obj, &styles->light, 0);
 862              		.loc 1 314 13 is_stmt 0 view .LVU251
 863 03e4 9449     		ldr	r1, .L48+16
 864 03e6 2046     		mov	r0, r4
 865 03e8 FFF7FEFF 		bl	lv_obj_check_type
 866              	.LVL93:
 314:Middlewares/lvgl/src/extra/themes/basic/lv_theme_basic.c ****         lv_obj_add_style(obj, &styles->light, 0);
 867              		.loc 1 314 12 view .LVU252
 868 03ec 08B3     		cbz	r0, .L23
 315:Middlewares/lvgl/src/extra/themes/basic/lv_theme_basic.c ****         lv_obj_add_style(obj, &styles->scrollbar, LV_PART_SCROLLBAR);
 869              		.loc 1 315 9 is_stmt 1 view .LVU253
 315:Middlewares/lvgl/src/extra/themes/basic/lv_theme_basic.c ****         lv_obj_add_style(obj, &styles->scrollbar, LV_PART_SCROLLBAR);
 870              		.loc 1 315 38 is_stmt 0 view .LVU254
 871 03ee 8F4D     		ldr	r5, .L48+4
 872 03f0 2968     		ldr	r1, [r5]
 315:Middlewares/lvgl/src/extra/themes/basic/lv_theme_basic.c ****         lv_obj_add_style(obj, &styles->scrollbar, LV_PART_SCROLLBAR);
 873              		.loc 1 315 9 view .LVU255
 874 03f2 0022     		movs	r2, #0
 875 03f4 0831     		adds	r1, r1, #8
 876 03f6 2046     		mov	r0, r4
 877 03f8 FFF7FEFF 		bl	lv_obj_add_style
 878              	.LVL94:
 316:Middlewares/lvgl/src/extra/themes/basic/lv_theme_basic.c ****         lv_obj_add_style(obj, &styles->light, LV_PART_SELECTED);
 879              		.loc 1 316 9 is_stmt 1 view .LVU256
 316:Middlewares/lvgl/src/extra/themes/basic/lv_theme_basic.c ****         lv_obj_add_style(obj, &styles->light, LV_PART_SELECTED);
 880              		.loc 1 316 38 is_stmt 0 view .LVU257
ARM GAS  /tmp/ccwx3eYd.s 			page 39


 881 03fc 2968     		ldr	r1, [r5]
 316:Middlewares/lvgl/src/extra/themes/basic/lv_theme_basic.c ****         lv_obj_add_style(obj, &styles->light, LV_PART_SELECTED);
 882              		.loc 1 316 9 view .LVU258
 883 03fe 4FF48032 		mov	r2, #65536
 884 0402 1831     		adds	r1, r1, #24
 885 0404 2046     		mov	r0, r4
 886 0406 FFF7FEFF 		bl	lv_obj_add_style
 887              	.LVL95:
 317:Middlewares/lvgl/src/extra/themes/basic/lv_theme_basic.c ****         lv_obj_add_style(obj, &styles->dark, LV_PART_SELECTED | LV_STATE_CHECKED);
 888              		.loc 1 317 9 is_stmt 1 view .LVU259
 317:Middlewares/lvgl/src/extra/themes/basic/lv_theme_basic.c ****         lv_obj_add_style(obj, &styles->dark, LV_PART_SELECTED | LV_STATE_CHECKED);
 889              		.loc 1 317 38 is_stmt 0 view .LVU260
 890 040a 2968     		ldr	r1, [r5]
 317:Middlewares/lvgl/src/extra/themes/basic/lv_theme_basic.c ****         lv_obj_add_style(obj, &styles->dark, LV_PART_SELECTED | LV_STATE_CHECKED);
 891              		.loc 1 317 9 view .LVU261
 892 040c 4FF48022 		mov	r2, #262144
 893 0410 0831     		adds	r1, r1, #8
 894 0412 2046     		mov	r0, r4
 895 0414 FFF7FEFF 		bl	lv_obj_add_style
 896              	.LVL96:
 318:Middlewares/lvgl/src/extra/themes/basic/lv_theme_basic.c ****         lv_obj_add_style(obj, &styles->pressed, LV_PART_SELECTED | LV_STATE_PRESSED);
 897              		.loc 1 318 9 is_stmt 1 view .LVU262
 318:Middlewares/lvgl/src/extra/themes/basic/lv_theme_basic.c ****         lv_obj_add_style(obj, &styles->pressed, LV_PART_SELECTED | LV_STATE_PRESSED);
 898              		.loc 1 318 38 is_stmt 0 view .LVU263
 899 0418 2968     		ldr	r1, [r5]
 318:Middlewares/lvgl/src/extra/themes/basic/lv_theme_basic.c ****         lv_obj_add_style(obj, &styles->pressed, LV_PART_SELECTED | LV_STATE_PRESSED);
 900              		.loc 1 318 9 view .LVU264
 901 041a 884A     		ldr	r2, .L48+20
 902 041c 1031     		adds	r1, r1, #16
 903 041e 2046     		mov	r0, r4
 904 0420 FFF7FEFF 		bl	lv_obj_add_style
 905              	.LVL97:
 319:Middlewares/lvgl/src/extra/themes/basic/lv_theme_basic.c ****     }
 906              		.loc 1 319 9 is_stmt 1 view .LVU265
 319:Middlewares/lvgl/src/extra/themes/basic/lv_theme_basic.c ****     }
 907              		.loc 1 319 38 is_stmt 0 view .LVU266
 908 0424 2968     		ldr	r1, [r5]
 319:Middlewares/lvgl/src/extra/themes/basic/lv_theme_basic.c ****     }
 909              		.loc 1 319 9 view .LVU267
 910 0426 864A     		ldr	r2, .L48+24
 911 0428 2031     		adds	r1, r1, #32
 912 042a 2046     		mov	r0, r4
 913 042c FFF7FEFF 		bl	lv_obj_add_style
 914              	.LVL98:
 915 0430 80E6     		b	.L3
 916              	.L23:
 324:Middlewares/lvgl/src/extra/themes/basic/lv_theme_basic.c ****         lv_obj_add_style(obj, &styles->light, 0);
 917              		.loc 1 324 10 is_stmt 1 view .LVU268
 324:Middlewares/lvgl/src/extra/themes/basic/lv_theme_basic.c ****         lv_obj_add_style(obj, &styles->light, 0);
 918              		.loc 1 324 13 is_stmt 0 view .LVU269
 919 0432 8449     		ldr	r1, .L48+28
 920 0434 2046     		mov	r0, r4
 921 0436 FFF7FEFF 		bl	lv_obj_check_type
 922              	.LVL99:
 324:Middlewares/lvgl/src/extra/themes/basic/lv_theme_basic.c ****         lv_obj_add_style(obj, &styles->light, 0);
 923              		.loc 1 324 12 view .LVU270
 924 043a E0B1     		cbz	r0, .L24
ARM GAS  /tmp/ccwx3eYd.s 			page 40


 325:Middlewares/lvgl/src/extra/themes/basic/lv_theme_basic.c ****         lv_obj_add_style(obj, &styles->dark, LV_PART_INDICATOR);
 925              		.loc 1 325 9 is_stmt 1 view .LVU271
 325:Middlewares/lvgl/src/extra/themes/basic/lv_theme_basic.c ****         lv_obj_add_style(obj, &styles->dark, LV_PART_INDICATOR);
 926              		.loc 1 325 38 is_stmt 0 view .LVU272
 927 043c 7B4D     		ldr	r5, .L48+4
 928 043e 2968     		ldr	r1, [r5]
 325:Middlewares/lvgl/src/extra/themes/basic/lv_theme_basic.c ****         lv_obj_add_style(obj, &styles->dark, LV_PART_INDICATOR);
 929              		.loc 1 325 9 view .LVU273
 930 0440 0022     		movs	r2, #0
 931 0442 0831     		adds	r1, r1, #8
 932 0444 2046     		mov	r0, r4
 933 0446 FFF7FEFF 		bl	lv_obj_add_style
 934              	.LVL100:
 326:Middlewares/lvgl/src/extra/themes/basic/lv_theme_basic.c ****         lv_obj_add_style(obj, &styles->pad_zero, LV_PART_INDICATOR);
 935              		.loc 1 326 9 is_stmt 1 view .LVU274
 326:Middlewares/lvgl/src/extra/themes/basic/lv_theme_basic.c ****         lv_obj_add_style(obj, &styles->pad_zero, LV_PART_INDICATOR);
 936              		.loc 1 326 38 is_stmt 0 view .LVU275
 937 044a 2968     		ldr	r1, [r5]
 326:Middlewares/lvgl/src/extra/themes/basic/lv_theme_basic.c ****         lv_obj_add_style(obj, &styles->pad_zero, LV_PART_INDICATOR);
 938              		.loc 1 326 9 view .LVU276
 939 044c 4FF40032 		mov	r2, #131072
 940 0450 1031     		adds	r1, r1, #16
 941 0452 2046     		mov	r0, r4
 942 0454 FFF7FEFF 		bl	lv_obj_add_style
 943              	.LVL101:
 327:Middlewares/lvgl/src/extra/themes/basic/lv_theme_basic.c ****         lv_obj_add_style(obj, &styles->dark, LV_PART_KNOB);
 944              		.loc 1 327 9 is_stmt 1 view .LVU277
 327:Middlewares/lvgl/src/extra/themes/basic/lv_theme_basic.c ****         lv_obj_add_style(obj, &styles->dark, LV_PART_KNOB);
 945              		.loc 1 327 38 is_stmt 0 view .LVU278
 946 0458 2968     		ldr	r1, [r5]
 327:Middlewares/lvgl/src/extra/themes/basic/lv_theme_basic.c ****         lv_obj_add_style(obj, &styles->dark, LV_PART_KNOB);
 947              		.loc 1 327 9 view .LVU279
 948 045a 4FF40032 		mov	r2, #131072
 949 045e 3031     		adds	r1, r1, #48
 950 0460 2046     		mov	r0, r4
 951 0462 FFF7FEFF 		bl	lv_obj_add_style
 952              	.LVL102:
 328:Middlewares/lvgl/src/extra/themes/basic/lv_theme_basic.c ****     }
 953              		.loc 1 328 9 is_stmt 1 view .LVU280
 328:Middlewares/lvgl/src/extra/themes/basic/lv_theme_basic.c ****     }
 954              		.loc 1 328 38 is_stmt 0 view .LVU281
 955 0466 2968     		ldr	r1, [r5]
 328:Middlewares/lvgl/src/extra/themes/basic/lv_theme_basic.c ****     }
 956              		.loc 1 328 9 view .LVU282
 957 0468 4FF44032 		mov	r2, #196608
 958 046c 1031     		adds	r1, r1, #16
 959 046e 2046     		mov	r0, r4
 960 0470 FFF7FEFF 		bl	lv_obj_add_style
 961              	.LVL103:
 962 0474 5EE6     		b	.L3
 963              	.L24:
 333:Middlewares/lvgl/src/extra/themes/basic/lv_theme_basic.c ****         lv_obj_add_style(obj, &styles->light, 0);
 964              		.loc 1 333 10 is_stmt 1 view .LVU283
 333:Middlewares/lvgl/src/extra/themes/basic/lv_theme_basic.c ****         lv_obj_add_style(obj, &styles->light, 0);
 965              		.loc 1 333 13 is_stmt 0 view .LVU284
 966 0476 7449     		ldr	r1, .L48+32
 967 0478 2046     		mov	r0, r4
ARM GAS  /tmp/ccwx3eYd.s 			page 41


 968 047a FFF7FEFF 		bl	lv_obj_check_type
 969              	.LVL104:
 333:Middlewares/lvgl/src/extra/themes/basic/lv_theme_basic.c ****         lv_obj_add_style(obj, &styles->light, 0);
 970              		.loc 1 333 12 view .LVU285
 971 047e 38B1     		cbz	r0, .L25
 334:Middlewares/lvgl/src/extra/themes/basic/lv_theme_basic.c ****     }
 972              		.loc 1 334 9 is_stmt 1 view .LVU286
 334:Middlewares/lvgl/src/extra/themes/basic/lv_theme_basic.c ****     }
 973              		.loc 1 334 38 is_stmt 0 view .LVU287
 974 0480 6A4B     		ldr	r3, .L48+4
 975 0482 1968     		ldr	r1, [r3]
 334:Middlewares/lvgl/src/extra/themes/basic/lv_theme_basic.c ****     }
 976              		.loc 1 334 9 view .LVU288
 977 0484 0022     		movs	r2, #0
 978 0486 0831     		adds	r1, r1, #8
 979 0488 2046     		mov	r0, r4
 980 048a FFF7FEFF 		bl	lv_obj_add_style
 981              	.LVL105:
 982 048e 51E6     		b	.L3
 983              	.L25:
 339:Middlewares/lvgl/src/extra/themes/basic/lv_theme_basic.c ****         lv_obj_add_style(obj, &styles->light, 0);
 984              		.loc 1 339 10 is_stmt 1 view .LVU289
 339:Middlewares/lvgl/src/extra/themes/basic/lv_theme_basic.c ****         lv_obj_add_style(obj, &styles->light, 0);
 985              		.loc 1 339 13 is_stmt 0 view .LVU290
 986 0490 6E49     		ldr	r1, .L48+36
 987 0492 2046     		mov	r0, r4
 988 0494 FFF7FEFF 		bl	lv_obj_check_type
 989              	.LVL106:
 339:Middlewares/lvgl/src/extra/themes/basic/lv_theme_basic.c ****         lv_obj_add_style(obj, &styles->light, 0);
 990              		.loc 1 339 12 view .LVU291
 991 0498 E0B1     		cbz	r0, .L26
 340:Middlewares/lvgl/src/extra/themes/basic/lv_theme_basic.c ****         lv_obj_add_style(obj, &styles->scrollbar, LV_PART_SCROLLBAR);
 992              		.loc 1 340 9 is_stmt 1 view .LVU292
 340:Middlewares/lvgl/src/extra/themes/basic/lv_theme_basic.c ****         lv_obj_add_style(obj, &styles->scrollbar, LV_PART_SCROLLBAR);
 993              		.loc 1 340 38 is_stmt 0 view .LVU293
 994 049a 644D     		ldr	r5, .L48+4
 995 049c 2968     		ldr	r1, [r5]
 340:Middlewares/lvgl/src/extra/themes/basic/lv_theme_basic.c ****         lv_obj_add_style(obj, &styles->scrollbar, LV_PART_SCROLLBAR);
 996              		.loc 1 340 9 view .LVU294
 997 049e 0022     		movs	r2, #0
 998 04a0 0831     		adds	r1, r1, #8
 999 04a2 2046     		mov	r0, r4
 1000 04a4 FFF7FEFF 		bl	lv_obj_add_style
 1001              	.LVL107:
 341:Middlewares/lvgl/src/extra/themes/basic/lv_theme_basic.c ****         lv_obj_add_style(obj, &styles->ta_cursor, LV_PART_CURSOR);
 1002              		.loc 1 341 9 is_stmt 1 view .LVU295
 341:Middlewares/lvgl/src/extra/themes/basic/lv_theme_basic.c ****         lv_obj_add_style(obj, &styles->ta_cursor, LV_PART_CURSOR);
 1003              		.loc 1 341 38 is_stmt 0 view .LVU296
 1004 04a8 2968     		ldr	r1, [r5]
 341:Middlewares/lvgl/src/extra/themes/basic/lv_theme_basic.c ****         lv_obj_add_style(obj, &styles->ta_cursor, LV_PART_CURSOR);
 1005              		.loc 1 341 9 view .LVU297
 1006 04aa 4FF48032 		mov	r2, #65536
 1007 04ae 1831     		adds	r1, r1, #24
 1008 04b0 2046     		mov	r0, r4
 1009 04b2 FFF7FEFF 		bl	lv_obj_add_style
 1010              	.LVL108:
 342:Middlewares/lvgl/src/extra/themes/basic/lv_theme_basic.c ****         lv_obj_add_style(obj, &styles->light, LV_PART_TEXTAREA_PLACEHOLDER);
ARM GAS  /tmp/ccwx3eYd.s 			page 42


 1011              		.loc 1 342 9 is_stmt 1 view .LVU298
 342:Middlewares/lvgl/src/extra/themes/basic/lv_theme_basic.c ****         lv_obj_add_style(obj, &styles->light, LV_PART_TEXTAREA_PLACEHOLDER);
 1012              		.loc 1 342 38 is_stmt 0 view .LVU299
 1013 04b6 2968     		ldr	r1, [r5]
 342:Middlewares/lvgl/src/extra/themes/basic/lv_theme_basic.c ****         lv_obj_add_style(obj, &styles->light, LV_PART_TEXTAREA_PLACEHOLDER);
 1014              		.loc 1 342 9 view .LVU300
 1015 04b8 4FF4E022 		mov	r2, #458752
 1016 04bc 3831     		adds	r1, r1, #56
 1017 04be 2046     		mov	r0, r4
 1018 04c0 FFF7FEFF 		bl	lv_obj_add_style
 1019              	.LVL109:
 343:Middlewares/lvgl/src/extra/themes/basic/lv_theme_basic.c ****     }
 1020              		.loc 1 343 9 is_stmt 1 view .LVU301
 343:Middlewares/lvgl/src/extra/themes/basic/lv_theme_basic.c ****     }
 1021              		.loc 1 343 38 is_stmt 0 view .LVU302
 1022 04c4 2968     		ldr	r1, [r5]
 343:Middlewares/lvgl/src/extra/themes/basic/lv_theme_basic.c ****     }
 1023              		.loc 1 343 9 view .LVU303
 1024 04c6 4FF40022 		mov	r2, #524288
 1025 04ca 0831     		adds	r1, r1, #8
 1026 04cc 2046     		mov	r0, r4
 1027 04ce FFF7FEFF 		bl	lv_obj_add_style
 1028              	.LVL110:
 1029 04d2 2FE6     		b	.L3
 1030              	.L26:
 348:Middlewares/lvgl/src/extra/themes/basic/lv_theme_basic.c ****         lv_obj_add_style(obj, &styles->light, 0);
 1031              		.loc 1 348 10 is_stmt 1 view .LVU304
 348:Middlewares/lvgl/src/extra/themes/basic/lv_theme_basic.c ****         lv_obj_add_style(obj, &styles->light, 0);
 1032              		.loc 1 348 13 is_stmt 0 view .LVU305
 1033 04d4 5E49     		ldr	r1, .L48+40
 1034 04d6 2046     		mov	r0, r4
 1035 04d8 FFF7FEFF 		bl	lv_obj_check_type
 1036              	.LVL111:
 348:Middlewares/lvgl/src/extra/themes/basic/lv_theme_basic.c ****         lv_obj_add_style(obj, &styles->light, 0);
 1037              		.loc 1 348 12 view .LVU306
 1038 04dc D0B1     		cbz	r0, .L27
 349:Middlewares/lvgl/src/extra/themes/basic/lv_theme_basic.c ****         lv_obj_add_style(obj, &styles->light, LV_PART_ITEMS | LV_STATE_PRESSED);
 1039              		.loc 1 349 9 is_stmt 1 view .LVU307
 349:Middlewares/lvgl/src/extra/themes/basic/lv_theme_basic.c ****         lv_obj_add_style(obj, &styles->light, LV_PART_ITEMS | LV_STATE_PRESSED);
 1040              		.loc 1 349 38 is_stmt 0 view .LVU308
 1041 04de 534D     		ldr	r5, .L48+4
 1042 04e0 2968     		ldr	r1, [r5]
 349:Middlewares/lvgl/src/extra/themes/basic/lv_theme_basic.c ****         lv_obj_add_style(obj, &styles->light, LV_PART_ITEMS | LV_STATE_PRESSED);
 1043              		.loc 1 349 9 view .LVU309
 1044 04e2 0022     		movs	r2, #0
 1045 04e4 0831     		adds	r1, r1, #8
 1046 04e6 2046     		mov	r0, r4
 1047 04e8 FFF7FEFF 		bl	lv_obj_add_style
 1048              	.LVL112:
 350:Middlewares/lvgl/src/extra/themes/basic/lv_theme_basic.c ****         lv_obj_add_style(obj, &styles->pressed, LV_PART_ITEMS | LV_STATE_PRESSED);
 1049              		.loc 1 350 9 is_stmt 1 view .LVU310
 350:Middlewares/lvgl/src/extra/themes/basic/lv_theme_basic.c ****         lv_obj_add_style(obj, &styles->pressed, LV_PART_ITEMS | LV_STATE_PRESSED);
 1050              		.loc 1 350 38 is_stmt 0 view .LVU311
 1051 04ec 2968     		ldr	r1, [r5]
 350:Middlewares/lvgl/src/extra/themes/basic/lv_theme_basic.c ****         lv_obj_add_style(obj, &styles->pressed, LV_PART_ITEMS | LV_STATE_PRESSED);
 1052              		.loc 1 350 9 view .LVU312
 1053 04ee 594E     		ldr	r6, .L48+44
ARM GAS  /tmp/ccwx3eYd.s 			page 43


 1054 04f0 3246     		mov	r2, r6
 1055 04f2 0831     		adds	r1, r1, #8
 1056 04f4 2046     		mov	r0, r4
 1057 04f6 FFF7FEFF 		bl	lv_obj_add_style
 1058              	.LVL113:
 351:Middlewares/lvgl/src/extra/themes/basic/lv_theme_basic.c ****         lv_obj_add_style(obj, &styles->disabled, LV_PART_ITEMS | LV_STATE_DISABLED);
 1059              		.loc 1 351 9 is_stmt 1 view .LVU313
 351:Middlewares/lvgl/src/extra/themes/basic/lv_theme_basic.c ****         lv_obj_add_style(obj, &styles->disabled, LV_PART_ITEMS | LV_STATE_DISABLED);
 1060              		.loc 1 351 38 is_stmt 0 view .LVU314
 1061 04fa 2968     		ldr	r1, [r5]
 351:Middlewares/lvgl/src/extra/themes/basic/lv_theme_basic.c ****         lv_obj_add_style(obj, &styles->disabled, LV_PART_ITEMS | LV_STATE_DISABLED);
 1062              		.loc 1 351 9 view .LVU315
 1063 04fc 3246     		mov	r2, r6
 1064 04fe 2031     		adds	r1, r1, #32
 1065 0500 2046     		mov	r0, r4
 1066 0502 FFF7FEFF 		bl	lv_obj_add_style
 1067              	.LVL114:
 352:Middlewares/lvgl/src/extra/themes/basic/lv_theme_basic.c ****     }
 1068              		.loc 1 352 9 is_stmt 1 view .LVU316
 352:Middlewares/lvgl/src/extra/themes/basic/lv_theme_basic.c ****     }
 1069              		.loc 1 352 38 is_stmt 0 view .LVU317
 1070 0506 2968     		ldr	r1, [r5]
 352:Middlewares/lvgl/src/extra/themes/basic/lv_theme_basic.c ****     }
 1071              		.loc 1 352 9 view .LVU318
 1072 0508 534A     		ldr	r2, .L48+48
 1073 050a 2831     		adds	r1, r1, #40
 1074 050c 2046     		mov	r0, r4
 1075 050e FFF7FEFF 		bl	lv_obj_add_style
 1076              	.LVL115:
 1077 0512 0FE6     		b	.L3
 1078              	.L27:
 357:Middlewares/lvgl/src/extra/themes/basic/lv_theme_basic.c ****         lv_obj_add_style(obj, &styles->light, 0);
 1079              		.loc 1 357 10 is_stmt 1 view .LVU319
 357:Middlewares/lvgl/src/extra/themes/basic/lv_theme_basic.c ****         lv_obj_add_style(obj, &styles->light, 0);
 1080              		.loc 1 357 13 is_stmt 0 view .LVU320
 1081 0514 5149     		ldr	r1, .L48+52
 1082 0516 2046     		mov	r0, r4
 1083 0518 FFF7FEFF 		bl	lv_obj_check_type
 1084              	.LVL116:
 357:Middlewares/lvgl/src/extra/themes/basic/lv_theme_basic.c ****         lv_obj_add_style(obj, &styles->light, 0);
 1085              		.loc 1 357 12 view .LVU321
 1086 051c A0B1     		cbz	r0, .L28
 358:Middlewares/lvgl/src/extra/themes/basic/lv_theme_basic.c ****         lv_obj_add_style(obj, &styles->light, LV_PART_ITEMS);
 1087              		.loc 1 358 9 is_stmt 1 view .LVU322
 358:Middlewares/lvgl/src/extra/themes/basic/lv_theme_basic.c ****         lv_obj_add_style(obj, &styles->light, LV_PART_ITEMS);
 1088              		.loc 1 358 38 is_stmt 0 view .LVU323
 1089 051e 434D     		ldr	r5, .L48+4
 1090 0520 2968     		ldr	r1, [r5]
 358:Middlewares/lvgl/src/extra/themes/basic/lv_theme_basic.c ****         lv_obj_add_style(obj, &styles->light, LV_PART_ITEMS);
 1091              		.loc 1 358 9 view .LVU324
 1092 0522 0022     		movs	r2, #0
 1093 0524 0831     		adds	r1, r1, #8
 1094 0526 2046     		mov	r0, r4
 1095 0528 FFF7FEFF 		bl	lv_obj_add_style
 1096              	.LVL117:
 359:Middlewares/lvgl/src/extra/themes/basic/lv_theme_basic.c ****         lv_obj_add_style(obj, &styles->pressed, LV_PART_ITEMS | LV_STATE_PRESSED);
 1097              		.loc 1 359 9 is_stmt 1 view .LVU325
ARM GAS  /tmp/ccwx3eYd.s 			page 44


 359:Middlewares/lvgl/src/extra/themes/basic/lv_theme_basic.c ****         lv_obj_add_style(obj, &styles->pressed, LV_PART_ITEMS | LV_STATE_PRESSED);
 1098              		.loc 1 359 38 is_stmt 0 view .LVU326
 1099 052c 2968     		ldr	r1, [r5]
 359:Middlewares/lvgl/src/extra/themes/basic/lv_theme_basic.c ****         lv_obj_add_style(obj, &styles->pressed, LV_PART_ITEMS | LV_STATE_PRESSED);
 1100              		.loc 1 359 9 view .LVU327
 1101 052e 4FF4A022 		mov	r2, #327680
 1102 0532 0831     		adds	r1, r1, #8
 1103 0534 2046     		mov	r0, r4
 1104 0536 FFF7FEFF 		bl	lv_obj_add_style
 1105              	.LVL118:
 360:Middlewares/lvgl/src/extra/themes/basic/lv_theme_basic.c ****     }
 1106              		.loc 1 360 9 is_stmt 1 view .LVU328
 360:Middlewares/lvgl/src/extra/themes/basic/lv_theme_basic.c ****     }
 1107              		.loc 1 360 38 is_stmt 0 view .LVU329
 1108 053a 2968     		ldr	r1, [r5]
 360:Middlewares/lvgl/src/extra/themes/basic/lv_theme_basic.c ****     }
 1109              		.loc 1 360 9 view .LVU330
 1110 053c 454A     		ldr	r2, .L48+44
 1111 053e 2031     		adds	r1, r1, #32
 1112 0540 2046     		mov	r0, r4
 1113 0542 FFF7FEFF 		bl	lv_obj_add_style
 1114              	.LVL119:
 1115 0546 F5E5     		b	.L3
 1116              	.L28:
 364:Middlewares/lvgl/src/extra/themes/basic/lv_theme_basic.c ****         lv_obj_add_style(obj, &styles->light, 0);
 1117              		.loc 1 364 10 is_stmt 1 view .LVU331
 364:Middlewares/lvgl/src/extra/themes/basic/lv_theme_basic.c ****         lv_obj_add_style(obj, &styles->light, 0);
 1118              		.loc 1 364 13 is_stmt 0 view .LVU332
 1119 0548 4549     		ldr	r1, .L48+56
 1120 054a 2046     		mov	r0, r4
 1121 054c FFF7FEFF 		bl	lv_obj_check_type
 1122              	.LVL120:
 364:Middlewares/lvgl/src/extra/themes/basic/lv_theme_basic.c ****         lv_obj_add_style(obj, &styles->light, 0);
 1123              		.loc 1 364 12 view .LVU333
 1124 0550 C8B9     		cbnz	r0, .L44
 369:Middlewares/lvgl/src/extra/themes/basic/lv_theme_basic.c **** 
 1125              		.loc 1 369 10 is_stmt 1 view .LVU334
 369:Middlewares/lvgl/src/extra/themes/basic/lv_theme_basic.c **** 
 1126              		.loc 1 369 13 is_stmt 0 view .LVU335
 1127 0552 4449     		ldr	r1, .L48+60
 1128 0554 2046     		mov	r0, r4
 1129 0556 FFF7FEFF 		bl	lv_obj_check_type
 1130              	.LVL121:
 369:Middlewares/lvgl/src/extra/themes/basic/lv_theme_basic.c **** 
 1131              		.loc 1 369 12 view .LVU336
 1132 055a 0028     		cmp	r0, #0
 1133 055c 7FF4EAAD 		bne	.L3
 372:Middlewares/lvgl/src/extra/themes/basic/lv_theme_basic.c ****         lv_obj_add_style(obj, &styles->dark, 0);
 1134              		.loc 1 372 10 is_stmt 1 view .LVU337
 372:Middlewares/lvgl/src/extra/themes/basic/lv_theme_basic.c ****         lv_obj_add_style(obj, &styles->dark, 0);
 1135              		.loc 1 372 13 is_stmt 0 view .LVU338
 1136 0560 4149     		ldr	r1, .L48+64
 1137 0562 2046     		mov	r0, r4
 1138 0564 FFF7FEFF 		bl	lv_obj_check_type
 1139              	.LVL122:
 372:Middlewares/lvgl/src/extra/themes/basic/lv_theme_basic.c ****         lv_obj_add_style(obj, &styles->dark, 0);
 1140              		.loc 1 372 12 view .LVU339
ARM GAS  /tmp/ccwx3eYd.s 			page 45


 1141 0568 E0B1     		cbz	r0, .L30
 373:Middlewares/lvgl/src/extra/themes/basic/lv_theme_basic.c ****         lv_obj_add_style(obj, &styles->pressed, LV_STATE_PRESSED);
 1142              		.loc 1 373 9 is_stmt 1 view .LVU340
 373:Middlewares/lvgl/src/extra/themes/basic/lv_theme_basic.c ****         lv_obj_add_style(obj, &styles->pressed, LV_STATE_PRESSED);
 1143              		.loc 1 373 38 is_stmt 0 view .LVU341
 1144 056a 304D     		ldr	r5, .L48+4
 1145 056c 2968     		ldr	r1, [r5]
 373:Middlewares/lvgl/src/extra/themes/basic/lv_theme_basic.c ****         lv_obj_add_style(obj, &styles->pressed, LV_STATE_PRESSED);
 1146              		.loc 1 373 9 view .LVU342
 1147 056e 0022     		movs	r2, #0
 1148 0570 1031     		adds	r1, r1, #16
 1149 0572 2046     		mov	r0, r4
 1150 0574 FFF7FEFF 		bl	lv_obj_add_style
 1151              	.LVL123:
 374:Middlewares/lvgl/src/extra/themes/basic/lv_theme_basic.c **** 
 1152              		.loc 1 374 9 is_stmt 1 view .LVU343
 374:Middlewares/lvgl/src/extra/themes/basic/lv_theme_basic.c **** 
 1153              		.loc 1 374 38 is_stmt 0 view .LVU344
 1154 0578 2968     		ldr	r1, [r5]
 374:Middlewares/lvgl/src/extra/themes/basic/lv_theme_basic.c **** 
 1155              		.loc 1 374 9 view .LVU345
 1156 057a 2022     		movs	r2, #32
 1157 057c 1144     		add	r1, r1, r2
 1158 057e 2046     		mov	r0, r4
 1159 0580 FFF7FEFF 		bl	lv_obj_add_style
 1160              	.LVL124:
 1161 0584 D6E5     		b	.L3
 1162              	.L44:
 365:Middlewares/lvgl/src/extra/themes/basic/lv_theme_basic.c ****         lv_obj_add_style(obj, &styles->scrollbar, LV_PART_SCROLLBAR);
 1163              		.loc 1 365 9 is_stmt 1 view .LVU346
 365:Middlewares/lvgl/src/extra/themes/basic/lv_theme_basic.c ****         lv_obj_add_style(obj, &styles->scrollbar, LV_PART_SCROLLBAR);
 1164              		.loc 1 365 38 is_stmt 0 view .LVU347
 1165 0586 294D     		ldr	r5, .L48+4
 1166 0588 2968     		ldr	r1, [r5]
 365:Middlewares/lvgl/src/extra/themes/basic/lv_theme_basic.c ****         lv_obj_add_style(obj, &styles->scrollbar, LV_PART_SCROLLBAR);
 1167              		.loc 1 365 9 view .LVU348
 1168 058a 0022     		movs	r2, #0
 1169 058c 0831     		adds	r1, r1, #8
 1170 058e 2046     		mov	r0, r4
 1171 0590 FFF7FEFF 		bl	lv_obj_add_style
 1172              	.LVL125:
 366:Middlewares/lvgl/src/extra/themes/basic/lv_theme_basic.c ****         return;
 1173              		.loc 1 366 9 is_stmt 1 view .LVU349
 366:Middlewares/lvgl/src/extra/themes/basic/lv_theme_basic.c ****         return;
 1174              		.loc 1 366 38 is_stmt 0 view .LVU350
 1175 0594 2968     		ldr	r1, [r5]
 366:Middlewares/lvgl/src/extra/themes/basic/lv_theme_basic.c ****         return;
 1176              		.loc 1 366 9 view .LVU351
 1177 0596 4FF48032 		mov	r2, #65536
 1178 059a 1831     		adds	r1, r1, #24
 1179 059c 2046     		mov	r0, r4
 1180 059e FFF7FEFF 		bl	lv_obj_add_style
 1181              	.LVL126:
 367:Middlewares/lvgl/src/extra/themes/basic/lv_theme_basic.c ****     }
 1182              		.loc 1 367 9 is_stmt 1 view .LVU352
 1183 05a2 C7E5     		b	.L3
 1184              	.L30:
ARM GAS  /tmp/ccwx3eYd.s 			page 46


 379:Middlewares/lvgl/src/extra/themes/basic/lv_theme_basic.c ****         lv_obj_add_style(obj, &styles->light, 0);
 1185              		.loc 1 379 10 view .LVU353
 379:Middlewares/lvgl/src/extra/themes/basic/lv_theme_basic.c ****         lv_obj_add_style(obj, &styles->light, 0);
 1186              		.loc 1 379 13 is_stmt 0 view .LVU354
 1187 05a4 3149     		ldr	r1, .L48+68
 1188 05a6 2046     		mov	r0, r4
 1189 05a8 FFF7FEFF 		bl	lv_obj_check_type
 1190              	.LVL127:
 379:Middlewares/lvgl/src/extra/themes/basic/lv_theme_basic.c ****         lv_obj_add_style(obj, &styles->light, 0);
 1191              		.loc 1 379 12 view .LVU355
 1192 05ac 98B9     		cbnz	r0, .L45
 385:Middlewares/lvgl/src/extra/themes/basic/lv_theme_basic.c ****         lv_obj_add_style(obj, &styles->light, 0);
 1193              		.loc 1 385 10 is_stmt 1 view .LVU356
 385:Middlewares/lvgl/src/extra/themes/basic/lv_theme_basic.c ****         lv_obj_add_style(obj, &styles->light, 0);
 1194              		.loc 1 385 13 is_stmt 0 view .LVU357
 1195 05ae 3049     		ldr	r1, .L48+72
 1196 05b0 2046     		mov	r0, r4
 1197 05b2 FFF7FEFF 		bl	lv_obj_check_type
 1198              	.LVL128:
 385:Middlewares/lvgl/src/extra/themes/basic/lv_theme_basic.c ****         lv_obj_add_style(obj, &styles->light, 0);
 1199              		.loc 1 385 12 view .LVU358
 1200 05b6 B0B1     		cbz	r0, .L32
 386:Middlewares/lvgl/src/extra/themes/basic/lv_theme_basic.c ****         lv_obj_add_style(obj, &styles->dark, LV_PART_CURSOR);
 1201              		.loc 1 386 9 is_stmt 1 view .LVU359
 386:Middlewares/lvgl/src/extra/themes/basic/lv_theme_basic.c ****         lv_obj_add_style(obj, &styles->dark, LV_PART_CURSOR);
 1202              		.loc 1 386 38 is_stmt 0 view .LVU360
 1203 05b8 1C4D     		ldr	r5, .L48+4
 1204 05ba 2968     		ldr	r1, [r5]
 386:Middlewares/lvgl/src/extra/themes/basic/lv_theme_basic.c ****         lv_obj_add_style(obj, &styles->dark, LV_PART_CURSOR);
 1205              		.loc 1 386 9 view .LVU361
 1206 05bc 0022     		movs	r2, #0
 1207 05be 0831     		adds	r1, r1, #8
 1208 05c0 2046     		mov	r0, r4
 1209 05c2 FFF7FEFF 		bl	lv_obj_add_style
 1210              	.LVL129:
 387:Middlewares/lvgl/src/extra/themes/basic/lv_theme_basic.c ****     }
 1211              		.loc 1 387 9 is_stmt 1 view .LVU362
 387:Middlewares/lvgl/src/extra/themes/basic/lv_theme_basic.c ****     }
 1212              		.loc 1 387 38 is_stmt 0 view .LVU363
 1213 05c6 2968     		ldr	r1, [r5]
 387:Middlewares/lvgl/src/extra/themes/basic/lv_theme_basic.c ****     }
 1214              		.loc 1 387 9 view .LVU364
 1215 05c8 4FF4E022 		mov	r2, #458752
 1216 05cc 1031     		adds	r1, r1, #16
 1217 05ce 2046     		mov	r0, r4
 1218 05d0 FFF7FEFF 		bl	lv_obj_add_style
 1219              	.LVL130:
 1220 05d4 AEE5     		b	.L3
 1221              	.L45:
 380:Middlewares/lvgl/src/extra/themes/basic/lv_theme_basic.c ****         return;
 1222              		.loc 1 380 9 is_stmt 1 view .LVU365
 380:Middlewares/lvgl/src/extra/themes/basic/lv_theme_basic.c ****         return;
 1223              		.loc 1 380 38 is_stmt 0 view .LVU366
 1224 05d6 154B     		ldr	r3, .L48+4
 1225 05d8 1968     		ldr	r1, [r3]
 380:Middlewares/lvgl/src/extra/themes/basic/lv_theme_basic.c ****         return;
 1226              		.loc 1 380 9 view .LVU367
ARM GAS  /tmp/ccwx3eYd.s 			page 47


 1227 05da 0022     		movs	r2, #0
 1228 05dc 0831     		adds	r1, r1, #8
 1229 05de 2046     		mov	r0, r4
 1230 05e0 FFF7FEFF 		bl	lv_obj_add_style
 1231              	.LVL131:
 381:Middlewares/lvgl/src/extra/themes/basic/lv_theme_basic.c ****     }
 1232              		.loc 1 381 9 is_stmt 1 view .LVU368
 1233 05e4 A6E5     		b	.L3
 1234              	.L32:
 391:Middlewares/lvgl/src/extra/themes/basic/lv_theme_basic.c ****         lv_obj_add_style(obj, &styles->scr, 0);
 1235              		.loc 1 391 10 view .LVU369
 391:Middlewares/lvgl/src/extra/themes/basic/lv_theme_basic.c ****         lv_obj_add_style(obj, &styles->scr, 0);
 1236              		.loc 1 391 13 is_stmt 0 view .LVU370
 1237 05e6 2349     		ldr	r1, .L48+76
 1238 05e8 2046     		mov	r0, r4
 1239 05ea FFF7FEFF 		bl	lv_obj_check_type
 1240              	.LVL132:
 391:Middlewares/lvgl/src/extra/themes/basic/lv_theme_basic.c ****         lv_obj_add_style(obj, &styles->scr, 0);
 1241              		.loc 1 391 12 view .LVU371
 1242 05ee 68B1     		cbz	r0, .L33
 392:Middlewares/lvgl/src/extra/themes/basic/lv_theme_basic.c ****         lv_obj_add_style(obj, &styles->scrollbar, LV_PART_SCROLLBAR);
 1243              		.loc 1 392 9 is_stmt 1 view .LVU372
 392:Middlewares/lvgl/src/extra/themes/basic/lv_theme_basic.c ****         lv_obj_add_style(obj, &styles->scrollbar, LV_PART_SCROLLBAR);
 1244              		.loc 1 392 38 is_stmt 0 view .LVU373
 1245 05f0 0E4D     		ldr	r5, .L48+4
 392:Middlewares/lvgl/src/extra/themes/basic/lv_theme_basic.c ****         lv_obj_add_style(obj, &styles->scrollbar, LV_PART_SCROLLBAR);
 1246              		.loc 1 392 9 view .LVU374
 1247 05f2 0022     		movs	r2, #0
 1248 05f4 2968     		ldr	r1, [r5]
 1249 05f6 2046     		mov	r0, r4
 1250 05f8 FFF7FEFF 		bl	lv_obj_add_style
 1251              	.LVL133:
 393:Middlewares/lvgl/src/extra/themes/basic/lv_theme_basic.c ****     }
 1252              		.loc 1 393 9 is_stmt 1 view .LVU375
 393:Middlewares/lvgl/src/extra/themes/basic/lv_theme_basic.c ****     }
 1253              		.loc 1 393 38 is_stmt 0 view .LVU376
 1254 05fc 2968     		ldr	r1, [r5]
 393:Middlewares/lvgl/src/extra/themes/basic/lv_theme_basic.c ****     }
 1255              		.loc 1 393 9 view .LVU377
 1256 05fe 4FF48032 		mov	r2, #65536
 1257 0602 1831     		adds	r1, r1, #24
 1258 0604 2046     		mov	r0, r4
 1259 0606 FFF7FEFF 		bl	lv_obj_add_style
 1260              	.LVL134:
 1261 060a 93E5     		b	.L3
 1262              	.L33:
 395:Middlewares/lvgl/src/extra/themes/basic/lv_theme_basic.c ****         lv_obj_add_style(obj, &styles->scrollbar, LV_PART_SCROLLBAR);
 1263              		.loc 1 395 10 is_stmt 1 view .LVU378
 395:Middlewares/lvgl/src/extra/themes/basic/lv_theme_basic.c ****         lv_obj_add_style(obj, &styles->scrollbar, LV_PART_SCROLLBAR);
 1264              		.loc 1 395 13 is_stmt 0 view .LVU379
 1265 060c 1A49     		ldr	r1, .L48+80
 1266 060e 2046     		mov	r0, r4
 1267 0610 FFF7FEFF 		bl	lv_obj_check_type
 1268              	.LVL135:
 395:Middlewares/lvgl/src/extra/themes/basic/lv_theme_basic.c ****         lv_obj_add_style(obj, &styles->scrollbar, LV_PART_SCROLLBAR);
 1269              		.loc 1 395 12 view .LVU380
 1270 0614 90B3     		cbz	r0, .L34
ARM GAS  /tmp/ccwx3eYd.s 			page 48


 396:Middlewares/lvgl/src/extra/themes/basic/lv_theme_basic.c ****     }
 1271              		.loc 1 396 9 is_stmt 1 view .LVU381
 396:Middlewares/lvgl/src/extra/themes/basic/lv_theme_basic.c ****     }
 1272              		.loc 1 396 38 is_stmt 0 view .LVU382
 1273 0616 054B     		ldr	r3, .L48+4
 1274 0618 1968     		ldr	r1, [r3]
 396:Middlewares/lvgl/src/extra/themes/basic/lv_theme_basic.c ****     }
 1275              		.loc 1 396 9 view .LVU383
 1276 061a 4FF48032 		mov	r2, #65536
 1277 061e 1831     		adds	r1, r1, #24
 1278 0620 2046     		mov	r0, r4
 1279 0622 FFF7FEFF 		bl	lv_obj_add_style
 1280              	.LVL136:
 1281 0626 85E5     		b	.L3
 1282              	.L49:
 1283              		.align	2
 1284              	.L48:
 1285 0628 00000000 		.word	lv_chart_class
 1286 062c 00000000 		.word	.LANCHOR0
 1287 0630 00000000 		.word	lv_roller_class
 1288 0634 00000000 		.word	lv_dropdown_class
 1289 0638 00000000 		.word	lv_dropdownlist_class
 1290 063c 01000400 		.word	262145
 1291 0640 20000400 		.word	262176
 1292 0644 00000000 		.word	lv_arc_class
 1293 0648 00000000 		.word	lv_meter_class
 1294 064c 00000000 		.word	lv_textarea_class
 1295 0650 00000000 		.word	lv_calendar_class
 1296 0654 20000500 		.word	327712
 1297 0658 80000500 		.word	327808
 1298 065c 00000000 		.word	lv_keyboard_class
 1299 0660 00000000 		.word	lv_list_class
 1300 0664 00000000 		.word	lv_list_text_class
 1301 0668 00000000 		.word	lv_list_btn_class
 1302 066c 00000000 		.word	lv_msgbox_class
 1303 0670 00000000 		.word	lv_spinbox_class
 1304 0674 00000000 		.word	lv_tileview_class
 1305 0678 00000000 		.word	lv_tileview_tile_class
 1306              	.L34:
 401:Middlewares/lvgl/src/extra/themes/basic/lv_theme_basic.c ****         lv_obj_add_style(obj, &styles->light, 0);
 1307              		.loc 1 401 10 is_stmt 1 view .LVU384
 401:Middlewares/lvgl/src/extra/themes/basic/lv_theme_basic.c ****         lv_obj_add_style(obj, &styles->light, 0);
 1308              		.loc 1 401 13 is_stmt 0 view .LVU385
 1309 067c 1149     		ldr	r1, .L50
 1310 067e 2046     		mov	r0, r4
 1311 0680 FFF7FEFF 		bl	lv_obj_check_type
 1312              	.LVL137:
 401:Middlewares/lvgl/src/extra/themes/basic/lv_theme_basic.c ****         lv_obj_add_style(obj, &styles->light, 0);
 1313              		.loc 1 401 12 view .LVU386
 1314 0684 70B1     		cbz	r0, .L35
 402:Middlewares/lvgl/src/extra/themes/basic/lv_theme_basic.c ****         lv_obj_add_style(obj, &styles->light, LV_PART_KNOB);
 1315              		.loc 1 402 9 is_stmt 1 view .LVU387
 402:Middlewares/lvgl/src/extra/themes/basic/lv_theme_basic.c ****         lv_obj_add_style(obj, &styles->light, LV_PART_KNOB);
 1316              		.loc 1 402 38 is_stmt 0 view .LVU388
 1317 0686 104D     		ldr	r5, .L50+4
 1318 0688 2968     		ldr	r1, [r5]
 402:Middlewares/lvgl/src/extra/themes/basic/lv_theme_basic.c ****         lv_obj_add_style(obj, &styles->light, LV_PART_KNOB);
ARM GAS  /tmp/ccwx3eYd.s 			page 49


 1319              		.loc 1 402 9 view .LVU389
 1320 068a 0022     		movs	r2, #0
 1321 068c 0831     		adds	r1, r1, #8
 1322 068e 2046     		mov	r0, r4
 1323 0690 FFF7FEFF 		bl	lv_obj_add_style
 1324              	.LVL138:
 403:Middlewares/lvgl/src/extra/themes/basic/lv_theme_basic.c ****     }
 1325              		.loc 1 403 9 is_stmt 1 view .LVU390
 403:Middlewares/lvgl/src/extra/themes/basic/lv_theme_basic.c ****     }
 1326              		.loc 1 403 38 is_stmt 0 view .LVU391
 1327 0694 2968     		ldr	r1, [r5]
 403:Middlewares/lvgl/src/extra/themes/basic/lv_theme_basic.c ****     }
 1328              		.loc 1 403 9 view .LVU392
 1329 0696 4FF44032 		mov	r2, #196608
 1330 069a 0831     		adds	r1, r1, #8
 1331 069c 2046     		mov	r0, r4
 1332 069e FFF7FEFF 		bl	lv_obj_add_style
 1333              	.LVL139:
 1334 06a2 47E5     		b	.L3
 1335              	.L35:
 408:Middlewares/lvgl/src/extra/themes/basic/lv_theme_basic.c ****             lv_obj_add_style(obj, &styles->light, 0);
 1336              		.loc 1 408 10 is_stmt 1 view .LVU393
 408:Middlewares/lvgl/src/extra/themes/basic/lv_theme_basic.c ****             lv_obj_add_style(obj, &styles->light, 0);
 1337              		.loc 1 408 13 is_stmt 0 view .LVU394
 1338 06a4 0949     		ldr	r1, .L50+8
 1339 06a6 2046     		mov	r0, r4
 1340 06a8 FFF7FEFF 		bl	lv_obj_check_type
 1341              	.LVL140:
 408:Middlewares/lvgl/src/extra/themes/basic/lv_theme_basic.c ****             lv_obj_add_style(obj, &styles->light, 0);
 1342              		.loc 1 408 12 view .LVU395
 1343 06ac 0028     		cmp	r0, #0
 1344 06ae 3FF441AD 		beq	.L3
 409:Middlewares/lvgl/src/extra/themes/basic/lv_theme_basic.c ****         }
 1345              		.loc 1 409 13 is_stmt 1 view .LVU396
 409:Middlewares/lvgl/src/extra/themes/basic/lv_theme_basic.c ****         }
 1346              		.loc 1 409 42 is_stmt 0 view .LVU397
 1347 06b2 054B     		ldr	r3, .L50+4
 1348 06b4 1968     		ldr	r1, [r3]
 409:Middlewares/lvgl/src/extra/themes/basic/lv_theme_basic.c ****         }
 1349              		.loc 1 409 13 view .LVU398
 1350 06b6 0022     		movs	r2, #0
 1351 06b8 0831     		adds	r1, r1, #8
 1352 06ba 2046     		mov	r0, r4
 1353 06bc FFF7FEFF 		bl	lv_obj_add_style
 1354              	.LVL141:
 1355 06c0 38E5     		b	.L3
 1356              	.L51:
 1357 06c2 00BF     		.align	2
 1358              	.L50:
 1359 06c4 00000000 		.word	lv_colorwheel_class
 1360 06c8 00000000 		.word	.LANCHOR0
 1361 06cc 00000000 		.word	lv_led_class
 1362              		.cfi_endproc
 1363              	.LFE188:
 1365              		.section	.text.dark_color_filter_cb,"ax",%progbits
 1366              		.align	1
 1367              		.syntax unified
ARM GAS  /tmp/ccwx3eYd.s 			page 50


 1368              		.thumb
 1369              		.thumb_func
 1370              		.fpu fpv4-sp-d16
 1372              	dark_color_filter_cb:
 1373              	.LVL142:
 1374              	.LFB184:
  66:Middlewares/lvgl/src/extra/themes/basic/lv_theme_basic.c ****     LV_UNUSED(f);
 1375              		.loc 1 66 1 is_stmt 1 view -0
 1376              		.cfi_startproc
 1377              		@ args = 0, pretend = 0, frame = 0
 1378              		@ frame_needed = 0, uses_anonymous_args = 0
  66:Middlewares/lvgl/src/extra/themes/basic/lv_theme_basic.c ****     LV_UNUSED(f);
 1379              		.loc 1 66 1 is_stmt 0 view .LVU400
 1380 0000 08B5     		push	{r3, lr}
 1381              	.LCFI2:
 1382              		.cfi_def_cfa_offset 8
 1383              		.cfi_offset 3, -8
 1384              		.cfi_offset 14, -4
 1385 0002 0846     		mov	r0, r1	@ movhi
 1386              	.LVL143:
  67:Middlewares/lvgl/src/extra/themes/basic/lv_theme_basic.c ****     return lv_color_darken(c, opa);
 1387              		.loc 1 67 5 is_stmt 1 view .LVU401
  68:Middlewares/lvgl/src/extra/themes/basic/lv_theme_basic.c **** }
 1388              		.loc 1 68 5 view .LVU402
  68:Middlewares/lvgl/src/extra/themes/basic/lv_theme_basic.c **** }
 1389              		.loc 1 68 12 is_stmt 0 view .LVU403
 1390 0004 1146     		mov	r1, r2
 1391              	.LVL144:
  68:Middlewares/lvgl/src/extra/themes/basic/lv_theme_basic.c **** }
 1392              		.loc 1 68 12 view .LVU404
 1393 0006 FFF7FEFF 		bl	lv_color_darken
 1394              	.LVL145:
  69:Middlewares/lvgl/src/extra/themes/basic/lv_theme_basic.c **** 
 1395              		.loc 1 69 1 view .LVU405
 1396 000a 08BD     		pop	{r3, pc}
 1397              		.cfi_endproc
 1398              	.LFE184:
 1400              		.section	.text.style_init_reset,"ax",%progbits
 1401              		.align	1
 1402              		.syntax unified
 1403              		.thumb
 1404              		.thumb_func
 1405              		.fpu fpv4-sp-d16
 1407              	style_init_reset:
 1408              	.LVL146:
 1409              	.LFB189:
 413:Middlewares/lvgl/src/extra/themes/basic/lv_theme_basic.c **** 
 414:Middlewares/lvgl/src/extra/themes/basic/lv_theme_basic.c **** /**********************
 415:Middlewares/lvgl/src/extra/themes/basic/lv_theme_basic.c ****  *   STATIC FUNCTIONS
 416:Middlewares/lvgl/src/extra/themes/basic/lv_theme_basic.c ****  **********************/
 417:Middlewares/lvgl/src/extra/themes/basic/lv_theme_basic.c **** 
 418:Middlewares/lvgl/src/extra/themes/basic/lv_theme_basic.c **** static void style_init_reset(lv_style_t * style)
 419:Middlewares/lvgl/src/extra/themes/basic/lv_theme_basic.c **** {
 1410              		.loc 1 419 1 is_stmt 1 view -0
 1411              		.cfi_startproc
 1412              		@ args = 0, pretend = 0, frame = 0
 1413              		@ frame_needed = 0, uses_anonymous_args = 0
ARM GAS  /tmp/ccwx3eYd.s 			page 51


 1414              		.loc 1 419 1 is_stmt 0 view .LVU407
 1415 0000 08B5     		push	{r3, lr}
 1416              	.LCFI3:
 1417              		.cfi_def_cfa_offset 8
 1418              		.cfi_offset 3, -8
 1419              		.cfi_offset 14, -4
 420:Middlewares/lvgl/src/extra/themes/basic/lv_theme_basic.c ****     if(inited) lv_style_reset(style);
 1420              		.loc 1 420 5 is_stmt 1 view .LVU408
 1421              		.loc 1 420 8 is_stmt 0 view .LVU409
 1422 0002 044B     		ldr	r3, .L58
 1423 0004 1B78     		ldrb	r3, [r3]	@ zero_extendqisi2
 1424              		.loc 1 420 7 view .LVU410
 1425 0006 13B1     		cbz	r3, .L55
 1426              		.loc 1 420 16 is_stmt 1 discriminator 1 view .LVU411
 1427 0008 FFF7FEFF 		bl	lv_style_reset
 1428              	.LVL147:
 1429              	.L54:
 421:Middlewares/lvgl/src/extra/themes/basic/lv_theme_basic.c ****     else lv_style_init(style);
 422:Middlewares/lvgl/src/extra/themes/basic/lv_theme_basic.c **** }
 1430              		.loc 1 422 1 is_stmt 0 view .LVU412
 1431 000c 08BD     		pop	{r3, pc}
 1432              	.LVL148:
 1433              	.L55:
 421:Middlewares/lvgl/src/extra/themes/basic/lv_theme_basic.c ****     else lv_style_init(style);
 1434              		.loc 1 421 10 is_stmt 1 view .LVU413
 1435 000e FFF7FEFF 		bl	lv_style_init
 1436              	.LVL149:
 1437              		.loc 1 422 1 is_stmt 0 view .LVU414
 1438 0012 FBE7     		b	.L54
 1439              	.L59:
 1440              		.align	2
 1441              	.L58:
 1442 0014 00000000 		.word	.LANCHOR1
 1443              		.cfi_endproc
 1444              	.LFE189:
 1446              		.section	.text.style_init,"ax",%progbits
 1447              		.align	1
 1448              		.syntax unified
 1449              		.thumb
 1450              		.thumb_func
 1451              		.fpu fpv4-sp-d16
 1453              	style_init:
 1454              	.LFB186:
  79:Middlewares/lvgl/src/extra/themes/basic/lv_theme_basic.c ****     style_init_reset(&styles->scrollbar);
 1455              		.loc 1 79 1 is_stmt 1 view -0
 1456              		.cfi_startproc
 1457              		@ args = 0, pretend = 0, frame = 0
 1458              		@ frame_needed = 0, uses_anonymous_args = 0
 1459 0000 38B5     		push	{r3, r4, r5, lr}
 1460              	.LCFI4:
 1461              		.cfi_def_cfa_offset 16
 1462              		.cfi_offset 3, -16
 1463              		.cfi_offset 4, -12
 1464              		.cfi_offset 5, -8
 1465              		.cfi_offset 14, -4
  80:Middlewares/lvgl/src/extra/themes/basic/lv_theme_basic.c ****     lv_style_set_bg_opa(&styles->scrollbar, LV_OPA_COVER);
 1466              		.loc 1 80 5 view .LVU416
ARM GAS  /tmp/ccwx3eYd.s 			page 52


  80:Middlewares/lvgl/src/extra/themes/basic/lv_theme_basic.c ****     lv_style_set_bg_opa(&styles->scrollbar, LV_OPA_COVER);
 1467              		.loc 1 80 29 is_stmt 0 view .LVU417
 1468 0002 D84C     		ldr	r4, .L95
 1469 0004 2068     		ldr	r0, [r4]
  80:Middlewares/lvgl/src/extra/themes/basic/lv_theme_basic.c ****     lv_style_set_bg_opa(&styles->scrollbar, LV_OPA_COVER);
 1470              		.loc 1 80 5 view .LVU418
 1471 0006 1830     		adds	r0, r0, #24
 1472 0008 FFF7FEFF 		bl	style_init_reset
 1473              	.LVL150:
  81:Middlewares/lvgl/src/extra/themes/basic/lv_theme_basic.c ****     lv_style_set_bg_color(&styles->scrollbar, lv_palette_darken(LV_PALETTE_GREY, 2));
 1474              		.loc 1 81 5 is_stmt 1 view .LVU419
  81:Middlewares/lvgl/src/extra/themes/basic/lv_theme_basic.c ****     lv_style_set_bg_color(&styles->scrollbar, lv_palette_darken(LV_PALETTE_GREY, 2));
 1475              		.loc 1 81 32 is_stmt 0 view .LVU420
 1476 000c 2068     		ldr	r0, [r4]
  81:Middlewares/lvgl/src/extra/themes/basic/lv_theme_basic.c ****     lv_style_set_bg_color(&styles->scrollbar, lv_palette_darken(LV_PALETTE_GREY, 2));
 1477              		.loc 1 81 5 view .LVU421
 1478 000e FF21     		movs	r1, #255
 1479 0010 1830     		adds	r0, r0, #24
 1480 0012 FFF7FEFF 		bl	lv_style_set_bg_opa
 1481              	.LVL151:
  82:Middlewares/lvgl/src/extra/themes/basic/lv_theme_basic.c ****     lv_style_set_width(&styles->scrollbar,  PAD_DEF);
 1482              		.loc 1 82 5 is_stmt 1 view .LVU422
  82:Middlewares/lvgl/src/extra/themes/basic/lv_theme_basic.c ****     lv_style_set_width(&styles->scrollbar,  PAD_DEF);
 1483              		.loc 1 82 34 is_stmt 0 view .LVU423
 1484 0016 2568     		ldr	r5, [r4]
  82:Middlewares/lvgl/src/extra/themes/basic/lv_theme_basic.c ****     lv_style_set_width(&styles->scrollbar,  PAD_DEF);
 1485              		.loc 1 82 5 view .LVU424
 1486 0018 0221     		movs	r1, #2
 1487 001a 1220     		movs	r0, #18
 1488 001c FFF7FEFF 		bl	lv_palette_darken
 1489              	.LVL152:
 1490 0020 0146     		mov	r1, r0	@ movhi
 1491 0022 05F11800 		add	r0, r5, #24
 1492 0026 FFF7FEFF 		bl	lv_style_set_bg_color
 1493              	.LVL153:
  83:Middlewares/lvgl/src/extra/themes/basic/lv_theme_basic.c **** 
 1494              		.loc 1 83 5 is_stmt 1 view .LVU425
  83:Middlewares/lvgl/src/extra/themes/basic/lv_theme_basic.c **** 
 1495              		.loc 1 83 31 is_stmt 0 view .LVU426
 1496 002a 2468     		ldr	r4, [r4]
  83:Middlewares/lvgl/src/extra/themes/basic/lv_theme_basic.c **** 
 1497              		.loc 1 83 5 view .LVU427
 1498 002c 1834     		adds	r4, r4, #24
  83:Middlewares/lvgl/src/extra/themes/basic/lv_theme_basic.c **** 
 1499              		.loc 1 83 45 view .LVU428
 1500 002e 0020     		movs	r0, #0
 1501 0030 FFF7FEFF 		bl	lv_disp_get_dpi
 1502              	.LVL154:
 1503 0034 00EB8000 		add	r0, r0, r0, lsl #2
  83:Middlewares/lvgl/src/extra/themes/basic/lv_theme_basic.c **** 
 1504              		.loc 1 83 5 view .LVU429
 1505 0038 EF28     		cmp	r0, #239
 1506 003a 00F3A681 		bgt	.L84
 1507 003e 0121     		movs	r1, #1
 1508              	.L61:
  83:Middlewares/lvgl/src/extra/themes/basic/lv_theme_basic.c **** 
 1509              		.loc 1 83 5 discriminator 4 view .LVU430
ARM GAS  /tmp/ccwx3eYd.s 			page 53


 1510 0040 2046     		mov	r0, r4
 1511 0042 FFF7FEFF 		bl	lv_style_set_width
 1512              	.LVL155:
  85:Middlewares/lvgl/src/extra/themes/basic/lv_theme_basic.c ****     lv_style_set_bg_opa(&styles->scr, LV_OPA_COVER);
 1513              		.loc 1 85 5 is_stmt 1 discriminator 4 view .LVU431
  85:Middlewares/lvgl/src/extra/themes/basic/lv_theme_basic.c ****     lv_style_set_bg_opa(&styles->scr, LV_OPA_COVER);
 1514              		.loc 1 85 29 is_stmt 0 discriminator 4 view .LVU432
 1515 0046 C74C     		ldr	r4, .L95
  85:Middlewares/lvgl/src/extra/themes/basic/lv_theme_basic.c ****     lv_style_set_bg_opa(&styles->scr, LV_OPA_COVER);
 1516              		.loc 1 85 5 discriminator 4 view .LVU433
 1517 0048 2068     		ldr	r0, [r4]
 1518 004a FFF7FEFF 		bl	style_init_reset
 1519              	.LVL156:
  86:Middlewares/lvgl/src/extra/themes/basic/lv_theme_basic.c ****     lv_style_set_bg_color(&styles->scr, COLOR_WHITE);
 1520              		.loc 1 86 5 is_stmt 1 discriminator 4 view .LVU434
 1521 004e FF21     		movs	r1, #255
 1522 0050 2068     		ldr	r0, [r4]
 1523 0052 FFF7FEFF 		bl	lv_style_set_bg_opa
 1524              	.LVL157:
  87:Middlewares/lvgl/src/extra/themes/basic/lv_theme_basic.c ****     lv_style_set_text_color(&styles->scr, COLOR_DIM);
 1525              		.loc 1 87 5 discriminator 4 view .LVU435
 1526              	.LBB48:
 1527              	.LBI48:
 1528              		.loc 2 674 26 discriminator 4 view .LVU436
 1529              	.LBE48:
 1530              		.loc 2 674 49 discriminator 4 view .LVU437
 1531              	.LBB51:
 1532              	.LBB49:
 1533              	.LBI49:
 602:Middlewares/lvgl/src/extra/themes/basic/../../../../src/hal/../misc/lv_color.h **** {
 1534              		.loc 2 602 26 discriminator 4 view .LVU438
 1535              	.LBB50:
 604:Middlewares/lvgl/src/extra/themes/basic/../../../../src/hal/../misc/lv_color.h **** }
 1536              		.loc 2 604 5 discriminator 4 view .LVU439
 604:Middlewares/lvgl/src/extra/themes/basic/../../../../src/hal/../misc/lv_color.h **** }
 1537              		.loc 2 604 5 is_stmt 0 discriminator 4 view .LVU440
 1538              	.LBE50:
 1539              	.LBE49:
 1540              	.LBE51:
  87:Middlewares/lvgl/src/extra/themes/basic/lv_theme_basic.c ****     lv_style_set_text_color(&styles->scr, COLOR_DIM);
 1541              		.loc 1 87 5 discriminator 4 view .LVU441
 1542 0056 4FF0FF31 		mov	r1, #-1	@ movhi
 1543 005a 2068     		ldr	r0, [r4]
 1544 005c FFF7FEFF 		bl	lv_style_set_bg_color
 1545              	.LVL158:
  88:Middlewares/lvgl/src/extra/themes/basic/lv_theme_basic.c ****     lv_style_set_pad_row(&styles->scr, PAD_DEF / 2);
 1546              		.loc 1 88 5 is_stmt 1 discriminator 4 view .LVU442
  88:Middlewares/lvgl/src/extra/themes/basic/lv_theme_basic.c ****     lv_style_set_pad_row(&styles->scr, PAD_DEF / 2);
 1547              		.loc 1 88 36 is_stmt 0 discriminator 4 view .LVU443
 1548 0060 2568     		ldr	r5, [r4]
  88:Middlewares/lvgl/src/extra/themes/basic/lv_theme_basic.c ****     lv_style_set_pad_row(&styles->scr, PAD_DEF / 2);
 1549              		.loc 1 88 5 discriminator 4 view .LVU444
 1550 0062 0221     		movs	r1, #2
 1551 0064 1220     		movs	r0, #18
 1552 0066 FFF7FEFF 		bl	lv_palette_darken
 1553              	.LVL159:
 1554 006a 0146     		mov	r1, r0	@ movhi
ARM GAS  /tmp/ccwx3eYd.s 			page 54


 1555 006c 2846     		mov	r0, r5
 1556 006e FFF7FEFF 		bl	lv_style_set_text_color
 1557              	.LVL160:
  89:Middlewares/lvgl/src/extra/themes/basic/lv_theme_basic.c ****     lv_style_set_pad_column(&styles->scr, PAD_DEF / 2);
 1558              		.loc 1 89 5 is_stmt 1 discriminator 4 view .LVU445
  89:Middlewares/lvgl/src/extra/themes/basic/lv_theme_basic.c ****     lv_style_set_pad_column(&styles->scr, PAD_DEF / 2);
 1559              		.loc 1 89 33 is_stmt 0 discriminator 4 view .LVU446
 1560 0072 2468     		ldr	r4, [r4]
  89:Middlewares/lvgl/src/extra/themes/basic/lv_theme_basic.c ****     lv_style_set_pad_column(&styles->scr, PAD_DEF / 2);
 1561              		.loc 1 89 40 discriminator 4 view .LVU447
 1562 0074 0020     		movs	r0, #0
 1563 0076 FFF7FEFF 		bl	lv_disp_get_dpi
 1564              	.LVL161:
 1565 007a 00EB8000 		add	r0, r0, r0, lsl #2
  89:Middlewares/lvgl/src/extra/themes/basic/lv_theme_basic.c ****     lv_style_set_pad_column(&styles->scr, PAD_DEF / 2);
 1566              		.loc 1 89 5 discriminator 4 view .LVU448
 1567 007e EF28     		cmp	r0, #239
 1568 0080 00F39281 		bgt	.L85
  89:Middlewares/lvgl/src/extra/themes/basic/lv_theme_basic.c ****     lv_style_set_pad_column(&styles->scr, PAD_DEF / 2);
 1569              		.loc 1 89 5 view .LVU449
 1570 0084 0021     		movs	r1, #0
 1571              	.L62:
  89:Middlewares/lvgl/src/extra/themes/basic/lv_theme_basic.c ****     lv_style_set_pad_column(&styles->scr, PAD_DEF / 2);
 1572              		.loc 1 89 5 discriminator 4 view .LVU450
 1573 0086 2046     		mov	r0, r4
 1574 0088 FFF7FEFF 		bl	lv_style_set_pad_row
 1575              	.LVL162:
  90:Middlewares/lvgl/src/extra/themes/basic/lv_theme_basic.c **** 
 1576              		.loc 1 90 5 is_stmt 1 discriminator 4 view .LVU451
  90:Middlewares/lvgl/src/extra/themes/basic/lv_theme_basic.c **** 
 1577              		.loc 1 90 36 is_stmt 0 discriminator 4 view .LVU452
 1578 008c B54B     		ldr	r3, .L95
 1579 008e 1C68     		ldr	r4, [r3]
  90:Middlewares/lvgl/src/extra/themes/basic/lv_theme_basic.c **** 
 1580              		.loc 1 90 43 discriminator 4 view .LVU453
 1581 0090 0020     		movs	r0, #0
 1582 0092 FFF7FEFF 		bl	lv_disp_get_dpi
 1583              	.LVL163:
 1584 0096 00EB8000 		add	r0, r0, r0, lsl #2
  90:Middlewares/lvgl/src/extra/themes/basic/lv_theme_basic.c **** 
 1585              		.loc 1 90 5 discriminator 4 view .LVU454
 1586 009a EF28     		cmp	r0, #239
 1587 009c 00F39281 		bgt	.L86
  90:Middlewares/lvgl/src/extra/themes/basic/lv_theme_basic.c **** 
 1588              		.loc 1 90 5 view .LVU455
 1589 00a0 0021     		movs	r1, #0
 1590              	.L63:
  90:Middlewares/lvgl/src/extra/themes/basic/lv_theme_basic.c **** 
 1591              		.loc 1 90 5 discriminator 4 view .LVU456
 1592 00a2 2046     		mov	r0, r4
 1593 00a4 FFF7FEFF 		bl	lv_style_set_pad_column
 1594              	.LVL164:
  92:Middlewares/lvgl/src/extra/themes/basic/lv_theme_basic.c ****     lv_style_set_bg_opa(&styles->light, LV_OPA_COVER);
 1595              		.loc 1 92 5 is_stmt 1 discriminator 4 view .LVU457
  92:Middlewares/lvgl/src/extra/themes/basic/lv_theme_basic.c ****     lv_style_set_bg_opa(&styles->light, LV_OPA_COVER);
 1596              		.loc 1 92 29 is_stmt 0 discriminator 4 view .LVU458
 1597 00a8 AE4C     		ldr	r4, .L95
ARM GAS  /tmp/ccwx3eYd.s 			page 55


 1598 00aa 2068     		ldr	r0, [r4]
  92:Middlewares/lvgl/src/extra/themes/basic/lv_theme_basic.c ****     lv_style_set_bg_opa(&styles->light, LV_OPA_COVER);
 1599              		.loc 1 92 5 discriminator 4 view .LVU459
 1600 00ac 0830     		adds	r0, r0, #8
 1601 00ae FFF7FEFF 		bl	style_init_reset
 1602              	.LVL165:
  93:Middlewares/lvgl/src/extra/themes/basic/lv_theme_basic.c ****     lv_style_set_bg_color(&styles->light, COLOR_LIGHT);
 1603              		.loc 1 93 5 is_stmt 1 discriminator 4 view .LVU460
  93:Middlewares/lvgl/src/extra/themes/basic/lv_theme_basic.c ****     lv_style_set_bg_color(&styles->light, COLOR_LIGHT);
 1604              		.loc 1 93 32 is_stmt 0 discriminator 4 view .LVU461
 1605 00b2 2068     		ldr	r0, [r4]
  93:Middlewares/lvgl/src/extra/themes/basic/lv_theme_basic.c ****     lv_style_set_bg_color(&styles->light, COLOR_LIGHT);
 1606              		.loc 1 93 5 discriminator 4 view .LVU462
 1607 00b4 FF21     		movs	r1, #255
 1608 00b6 0830     		adds	r0, r0, #8
 1609 00b8 FFF7FEFF 		bl	lv_style_set_bg_opa
 1610              	.LVL166:
  94:Middlewares/lvgl/src/extra/themes/basic/lv_theme_basic.c ****     lv_style_set_border_color(&styles->light, COLOR_MID);
 1611              		.loc 1 94 5 is_stmt 1 discriminator 4 view .LVU463
  94:Middlewares/lvgl/src/extra/themes/basic/lv_theme_basic.c ****     lv_style_set_border_color(&styles->light, COLOR_MID);
 1612              		.loc 1 94 34 is_stmt 0 discriminator 4 view .LVU464
 1613 00bc 2568     		ldr	r5, [r4]
  94:Middlewares/lvgl/src/extra/themes/basic/lv_theme_basic.c ****     lv_style_set_border_color(&styles->light, COLOR_MID);
 1614              		.loc 1 94 5 discriminator 4 view .LVU465
 1615 00be 0321     		movs	r1, #3
 1616 00c0 1220     		movs	r0, #18
 1617 00c2 FFF7FEFF 		bl	lv_palette_lighten
 1618              	.LVL167:
 1619 00c6 0146     		mov	r1, r0	@ movhi
 1620 00c8 05F10800 		add	r0, r5, #8
 1621 00cc FFF7FEFF 		bl	lv_style_set_bg_color
 1622              	.LVL168:
  95:Middlewares/lvgl/src/extra/themes/basic/lv_theme_basic.c ****     lv_style_set_border_width(&styles->light, 1);
 1623              		.loc 1 95 5 is_stmt 1 discriminator 4 view .LVU466
  95:Middlewares/lvgl/src/extra/themes/basic/lv_theme_basic.c ****     lv_style_set_border_width(&styles->light, 1);
 1624              		.loc 1 95 38 is_stmt 0 discriminator 4 view .LVU467
 1625 00d0 2568     		ldr	r5, [r4]
  95:Middlewares/lvgl/src/extra/themes/basic/lv_theme_basic.c ****     lv_style_set_border_width(&styles->light, 1);
 1626              		.loc 1 95 5 discriminator 4 view .LVU468
 1627 00d2 0121     		movs	r1, #1
 1628 00d4 1220     		movs	r0, #18
 1629 00d6 FFF7FEFF 		bl	lv_palette_lighten
 1630              	.LVL169:
 1631 00da 0146     		mov	r1, r0	@ movhi
 1632 00dc 05F10800 		add	r0, r5, #8
 1633 00e0 FFF7FEFF 		bl	lv_style_set_border_color
 1634              	.LVL170:
  96:Middlewares/lvgl/src/extra/themes/basic/lv_theme_basic.c ****     lv_style_set_pad_all(&styles->light, PAD_DEF);
 1635              		.loc 1 96 5 is_stmt 1 discriminator 4 view .LVU469
  96:Middlewares/lvgl/src/extra/themes/basic/lv_theme_basic.c ****     lv_style_set_pad_all(&styles->light, PAD_DEF);
 1636              		.loc 1 96 38 is_stmt 0 discriminator 4 view .LVU470
 1637 00e4 2068     		ldr	r0, [r4]
  96:Middlewares/lvgl/src/extra/themes/basic/lv_theme_basic.c ****     lv_style_set_pad_all(&styles->light, PAD_DEF);
 1638              		.loc 1 96 5 discriminator 4 view .LVU471
 1639 00e6 0121     		movs	r1, #1
 1640 00e8 0830     		adds	r0, r0, #8
 1641 00ea FFF7FEFF 		bl	lv_style_set_border_width
ARM GAS  /tmp/ccwx3eYd.s 			page 56


 1642              	.LVL171:
  97:Middlewares/lvgl/src/extra/themes/basic/lv_theme_basic.c ****     lv_style_set_pad_gap(&styles->light, PAD_DEF / 2);
 1643              		.loc 1 97 5 is_stmt 1 discriminator 4 view .LVU472
  97:Middlewares/lvgl/src/extra/themes/basic/lv_theme_basic.c ****     lv_style_set_pad_gap(&styles->light, PAD_DEF / 2);
 1644              		.loc 1 97 33 is_stmt 0 discriminator 4 view .LVU473
 1645 00ee 2568     		ldr	r5, [r4]
  97:Middlewares/lvgl/src/extra/themes/basic/lv_theme_basic.c ****     lv_style_set_pad_gap(&styles->light, PAD_DEF / 2);
 1646              		.loc 1 97 5 discriminator 4 view .LVU474
 1647 00f0 0835     		adds	r5, r5, #8
  97:Middlewares/lvgl/src/extra/themes/basic/lv_theme_basic.c ****     lv_style_set_pad_gap(&styles->light, PAD_DEF / 2);
 1648              		.loc 1 97 42 discriminator 4 view .LVU475
 1649 00f2 0020     		movs	r0, #0
 1650 00f4 FFF7FEFF 		bl	lv_disp_get_dpi
 1651              	.LVL172:
 1652 00f8 00EB8000 		add	r0, r0, r0, lsl #2
  97:Middlewares/lvgl/src/extra/themes/basic/lv_theme_basic.c ****     lv_style_set_pad_gap(&styles->light, PAD_DEF / 2);
 1653              		.loc 1 97 5 discriminator 4 view .LVU476
 1654 00fc EF28     		cmp	r0, #239
 1655 00fe 00F36F81 		bgt	.L87
  97:Middlewares/lvgl/src/extra/themes/basic/lv_theme_basic.c ****     lv_style_set_pad_gap(&styles->light, PAD_DEF / 2);
 1656              		.loc 1 97 5 view .LVU477
 1657 0102 0124     		movs	r4, #1
 1658              	.L64:
 1659              	.LVL173:
 1660              	.LBB52:
 1661              	.LBI52:
 1662              		.file 3 "Middlewares/lvgl/src/extra/themes/basic/../../../../src/core/../misc/lv_style.h"
   1:Middlewares/lvgl/src/extra/themes/basic/../../../../src/core/../misc/lv_style.h **** /**
   2:Middlewares/lvgl/src/extra/themes/basic/../../../../src/core/../misc/lv_style.h ****  * @file lv_style.h
   3:Middlewares/lvgl/src/extra/themes/basic/../../../../src/core/../misc/lv_style.h ****  *
   4:Middlewares/lvgl/src/extra/themes/basic/../../../../src/core/../misc/lv_style.h ****  */
   5:Middlewares/lvgl/src/extra/themes/basic/../../../../src/core/../misc/lv_style.h **** 
   6:Middlewares/lvgl/src/extra/themes/basic/../../../../src/core/../misc/lv_style.h **** #ifndef LV_STYLE_H
   7:Middlewares/lvgl/src/extra/themes/basic/../../../../src/core/../misc/lv_style.h **** #define LV_STYLE_H
   8:Middlewares/lvgl/src/extra/themes/basic/../../../../src/core/../misc/lv_style.h **** 
   9:Middlewares/lvgl/src/extra/themes/basic/../../../../src/core/../misc/lv_style.h **** #ifdef __cplusplus
  10:Middlewares/lvgl/src/extra/themes/basic/../../../../src/core/../misc/lv_style.h **** extern "C" {
  11:Middlewares/lvgl/src/extra/themes/basic/../../../../src/core/../misc/lv_style.h **** #endif
  12:Middlewares/lvgl/src/extra/themes/basic/../../../../src/core/../misc/lv_style.h **** 
  13:Middlewares/lvgl/src/extra/themes/basic/../../../../src/core/../misc/lv_style.h **** /*********************
  14:Middlewares/lvgl/src/extra/themes/basic/../../../../src/core/../misc/lv_style.h ****  *      INCLUDES
  15:Middlewares/lvgl/src/extra/themes/basic/../../../../src/core/../misc/lv_style.h ****  *********************/
  16:Middlewares/lvgl/src/extra/themes/basic/../../../../src/core/../misc/lv_style.h **** #include <stdbool.h>
  17:Middlewares/lvgl/src/extra/themes/basic/../../../../src/core/../misc/lv_style.h **** #include "../font/lv_font.h"
  18:Middlewares/lvgl/src/extra/themes/basic/../../../../src/core/../misc/lv_style.h **** #include "lv_color.h"
  19:Middlewares/lvgl/src/extra/themes/basic/../../../../src/core/../misc/lv_style.h **** #include "lv_area.h"
  20:Middlewares/lvgl/src/extra/themes/basic/../../../../src/core/../misc/lv_style.h **** #include "lv_anim.h"
  21:Middlewares/lvgl/src/extra/themes/basic/../../../../src/core/../misc/lv_style.h **** #include "lv_txt.h"
  22:Middlewares/lvgl/src/extra/themes/basic/../../../../src/core/../misc/lv_style.h **** #include "lv_types.h"
  23:Middlewares/lvgl/src/extra/themes/basic/../../../../src/core/../misc/lv_style.h **** #include "lv_assert.h"
  24:Middlewares/lvgl/src/extra/themes/basic/../../../../src/core/../misc/lv_style.h **** #include "lv_bidi.h"
  25:Middlewares/lvgl/src/extra/themes/basic/../../../../src/core/../misc/lv_style.h **** 
  26:Middlewares/lvgl/src/extra/themes/basic/../../../../src/core/../misc/lv_style.h **** /*********************
  27:Middlewares/lvgl/src/extra/themes/basic/../../../../src/core/../misc/lv_style.h ****  *      DEFINES
  28:Middlewares/lvgl/src/extra/themes/basic/../../../../src/core/../misc/lv_style.h ****  *********************/
  29:Middlewares/lvgl/src/extra/themes/basic/../../../../src/core/../misc/lv_style.h **** 
  30:Middlewares/lvgl/src/extra/themes/basic/../../../../src/core/../misc/lv_style.h **** #define LV_STYLE_SENTINEL_VALUE     0xAABBCCDD
ARM GAS  /tmp/ccwx3eYd.s 			page 57


  31:Middlewares/lvgl/src/extra/themes/basic/../../../../src/core/../misc/lv_style.h **** 
  32:Middlewares/lvgl/src/extra/themes/basic/../../../../src/core/../misc/lv_style.h **** /**
  33:Middlewares/lvgl/src/extra/themes/basic/../../../../src/core/../misc/lv_style.h ****  * Flags for style properties
  34:Middlewares/lvgl/src/extra/themes/basic/../../../../src/core/../misc/lv_style.h ****  */
  35:Middlewares/lvgl/src/extra/themes/basic/../../../../src/core/../misc/lv_style.h **** #define LV_STYLE_PROP_INHERIT               (1 << 10)  /*Inherited*/
  36:Middlewares/lvgl/src/extra/themes/basic/../../../../src/core/../misc/lv_style.h **** #define LV_STYLE_PROP_EXT_DRAW              (1 << 11)  /*Requires ext. draw size update when change
  37:Middlewares/lvgl/src/extra/themes/basic/../../../../src/core/../misc/lv_style.h **** #define LV_STYLE_PROP_LAYOUT_REFR           (1 << 12)  /*Requires layout update when changed*/
  38:Middlewares/lvgl/src/extra/themes/basic/../../../../src/core/../misc/lv_style.h **** #define LV_STYLE_PROP_PARENT_LAYOUT_REFR    (1 << 13)  /*Requires layout update on parent when chan
  39:Middlewares/lvgl/src/extra/themes/basic/../../../../src/core/../misc/lv_style.h **** #define LV_STYLE_PROP_FILTER                (1 << 14)  /*Apply color filter*/
  40:Middlewares/lvgl/src/extra/themes/basic/../../../../src/core/../misc/lv_style.h **** 
  41:Middlewares/lvgl/src/extra/themes/basic/../../../../src/core/../misc/lv_style.h **** /**
  42:Middlewares/lvgl/src/extra/themes/basic/../../../../src/core/../misc/lv_style.h ****  * Other constants
  43:Middlewares/lvgl/src/extra/themes/basic/../../../../src/core/../misc/lv_style.h ****  */
  44:Middlewares/lvgl/src/extra/themes/basic/../../../../src/core/../misc/lv_style.h **** #define LV_IMG_ZOOM_NONE            256        /*Value for not zooming the image*/
  45:Middlewares/lvgl/src/extra/themes/basic/../../../../src/core/../misc/lv_style.h **** LV_EXPORT_CONST_INT(LV_IMG_ZOOM_NONE);
  46:Middlewares/lvgl/src/extra/themes/basic/../../../../src/core/../misc/lv_style.h **** 
  47:Middlewares/lvgl/src/extra/themes/basic/../../../../src/core/../misc/lv_style.h **** #if LV_USE_ASSERT_STYLE
  48:Middlewares/lvgl/src/extra/themes/basic/../../../../src/core/../misc/lv_style.h **** #define LV_STYLE_CONST_INIT(var_name, prop_array) const lv_style_t var_name = { .sentinel = LV_STYL
  49:Middlewares/lvgl/src/extra/themes/basic/../../../../src/core/../misc/lv_style.h **** #else
  50:Middlewares/lvgl/src/extra/themes/basic/../../../../src/core/../misc/lv_style.h **** #define LV_STYLE_CONST_INIT(var_name, prop_array) const lv_style_t var_name = { .v_p = { .const_pro
  51:Middlewares/lvgl/src/extra/themes/basic/../../../../src/core/../misc/lv_style.h **** #endif
  52:Middlewares/lvgl/src/extra/themes/basic/../../../../src/core/../misc/lv_style.h **** 
  53:Middlewares/lvgl/src/extra/themes/basic/../../../../src/core/../misc/lv_style.h **** /**********************
  54:Middlewares/lvgl/src/extra/themes/basic/../../../../src/core/../misc/lv_style.h ****  *      TYPEDEFS
  55:Middlewares/lvgl/src/extra/themes/basic/../../../../src/core/../misc/lv_style.h ****  **********************/
  56:Middlewares/lvgl/src/extra/themes/basic/../../../../src/core/../misc/lv_style.h **** 
  57:Middlewares/lvgl/src/extra/themes/basic/../../../../src/core/../misc/lv_style.h **** /**
  58:Middlewares/lvgl/src/extra/themes/basic/../../../../src/core/../misc/lv_style.h ****  * Possible options how to blend opaque drawings
  59:Middlewares/lvgl/src/extra/themes/basic/../../../../src/core/../misc/lv_style.h ****  */
  60:Middlewares/lvgl/src/extra/themes/basic/../../../../src/core/../misc/lv_style.h **** enum {
  61:Middlewares/lvgl/src/extra/themes/basic/../../../../src/core/../misc/lv_style.h ****     LV_BLEND_MODE_NORMAL,     /**< Simply mix according to the opacity value*/
  62:Middlewares/lvgl/src/extra/themes/basic/../../../../src/core/../misc/lv_style.h ****     LV_BLEND_MODE_ADDITIVE,   /**< Add the respective color channels*/
  63:Middlewares/lvgl/src/extra/themes/basic/../../../../src/core/../misc/lv_style.h ****     LV_BLEND_MODE_SUBTRACTIVE,/**< Subtract the foreground from the background*/
  64:Middlewares/lvgl/src/extra/themes/basic/../../../../src/core/../misc/lv_style.h **** };
  65:Middlewares/lvgl/src/extra/themes/basic/../../../../src/core/../misc/lv_style.h **** 
  66:Middlewares/lvgl/src/extra/themes/basic/../../../../src/core/../misc/lv_style.h **** typedef uint8_t lv_blend_mode_t;
  67:Middlewares/lvgl/src/extra/themes/basic/../../../../src/core/../misc/lv_style.h **** 
  68:Middlewares/lvgl/src/extra/themes/basic/../../../../src/core/../misc/lv_style.h **** /**
  69:Middlewares/lvgl/src/extra/themes/basic/../../../../src/core/../misc/lv_style.h ****  * Some options to apply decorations on texts.
  70:Middlewares/lvgl/src/extra/themes/basic/../../../../src/core/../misc/lv_style.h ****  * 'OR'ed values can be used.
  71:Middlewares/lvgl/src/extra/themes/basic/../../../../src/core/../misc/lv_style.h ****  */
  72:Middlewares/lvgl/src/extra/themes/basic/../../../../src/core/../misc/lv_style.h **** enum {
  73:Middlewares/lvgl/src/extra/themes/basic/../../../../src/core/../misc/lv_style.h ****     LV_TEXT_DECOR_NONE          = 0x00,
  74:Middlewares/lvgl/src/extra/themes/basic/../../../../src/core/../misc/lv_style.h ****     LV_TEXT_DECOR_UNDERLINE     = 0x01,
  75:Middlewares/lvgl/src/extra/themes/basic/../../../../src/core/../misc/lv_style.h ****     LV_TEXT_DECOR_STRIKETHROUGH = 0x02,
  76:Middlewares/lvgl/src/extra/themes/basic/../../../../src/core/../misc/lv_style.h **** };
  77:Middlewares/lvgl/src/extra/themes/basic/../../../../src/core/../misc/lv_style.h **** 
  78:Middlewares/lvgl/src/extra/themes/basic/../../../../src/core/../misc/lv_style.h **** typedef uint8_t lv_text_decor_t;
  79:Middlewares/lvgl/src/extra/themes/basic/../../../../src/core/../misc/lv_style.h **** 
  80:Middlewares/lvgl/src/extra/themes/basic/../../../../src/core/../misc/lv_style.h **** /**
  81:Middlewares/lvgl/src/extra/themes/basic/../../../../src/core/../misc/lv_style.h ****  * Selects on which sides border should be drawn
  82:Middlewares/lvgl/src/extra/themes/basic/../../../../src/core/../misc/lv_style.h ****  * 'OR'ed values can be used.
  83:Middlewares/lvgl/src/extra/themes/basic/../../../../src/core/../misc/lv_style.h ****  */
  84:Middlewares/lvgl/src/extra/themes/basic/../../../../src/core/../misc/lv_style.h **** enum {
  85:Middlewares/lvgl/src/extra/themes/basic/../../../../src/core/../misc/lv_style.h ****     LV_BORDER_SIDE_NONE     = 0x00,
  86:Middlewares/lvgl/src/extra/themes/basic/../../../../src/core/../misc/lv_style.h ****     LV_BORDER_SIDE_BOTTOM   = 0x01,
  87:Middlewares/lvgl/src/extra/themes/basic/../../../../src/core/../misc/lv_style.h ****     LV_BORDER_SIDE_TOP      = 0x02,
ARM GAS  /tmp/ccwx3eYd.s 			page 58


  88:Middlewares/lvgl/src/extra/themes/basic/../../../../src/core/../misc/lv_style.h ****     LV_BORDER_SIDE_LEFT     = 0x04,
  89:Middlewares/lvgl/src/extra/themes/basic/../../../../src/core/../misc/lv_style.h ****     LV_BORDER_SIDE_RIGHT    = 0x08,
  90:Middlewares/lvgl/src/extra/themes/basic/../../../../src/core/../misc/lv_style.h ****     LV_BORDER_SIDE_FULL     = 0x0F,
  91:Middlewares/lvgl/src/extra/themes/basic/../../../../src/core/../misc/lv_style.h ****     LV_BORDER_SIDE_INTERNAL = 0x10, /**< FOR matrix-like objects (e.g. Button matrix)*/
  92:Middlewares/lvgl/src/extra/themes/basic/../../../../src/core/../misc/lv_style.h **** };
  93:Middlewares/lvgl/src/extra/themes/basic/../../../../src/core/../misc/lv_style.h **** typedef uint8_t lv_border_side_t;
  94:Middlewares/lvgl/src/extra/themes/basic/../../../../src/core/../misc/lv_style.h **** 
  95:Middlewares/lvgl/src/extra/themes/basic/../../../../src/core/../misc/lv_style.h **** /**
  96:Middlewares/lvgl/src/extra/themes/basic/../../../../src/core/../misc/lv_style.h ****  * The direction of the gradient.
  97:Middlewares/lvgl/src/extra/themes/basic/../../../../src/core/../misc/lv_style.h ****  */
  98:Middlewares/lvgl/src/extra/themes/basic/../../../../src/core/../misc/lv_style.h **** enum {
  99:Middlewares/lvgl/src/extra/themes/basic/../../../../src/core/../misc/lv_style.h ****     LV_GRAD_DIR_NONE, /**< No gradient (the `grad_color` property is ignored)*/
 100:Middlewares/lvgl/src/extra/themes/basic/../../../../src/core/../misc/lv_style.h ****     LV_GRAD_DIR_VER,  /**< Vertical (top to bottom) gradient*/
 101:Middlewares/lvgl/src/extra/themes/basic/../../../../src/core/../misc/lv_style.h ****     LV_GRAD_DIR_HOR,  /**< Horizontal (left to right) gradient*/
 102:Middlewares/lvgl/src/extra/themes/basic/../../../../src/core/../misc/lv_style.h **** };
 103:Middlewares/lvgl/src/extra/themes/basic/../../../../src/core/../misc/lv_style.h **** 
 104:Middlewares/lvgl/src/extra/themes/basic/../../../../src/core/../misc/lv_style.h **** typedef uint8_t lv_grad_dir_t;
 105:Middlewares/lvgl/src/extra/themes/basic/../../../../src/core/../misc/lv_style.h **** 
 106:Middlewares/lvgl/src/extra/themes/basic/../../../../src/core/../misc/lv_style.h **** /**
 107:Middlewares/lvgl/src/extra/themes/basic/../../../../src/core/../misc/lv_style.h ****  * A common type to handle all the property types in the same way.
 108:Middlewares/lvgl/src/extra/themes/basic/../../../../src/core/../misc/lv_style.h ****  */
 109:Middlewares/lvgl/src/extra/themes/basic/../../../../src/core/../misc/lv_style.h **** typedef union {
 110:Middlewares/lvgl/src/extra/themes/basic/../../../../src/core/../misc/lv_style.h ****     int32_t num;         /**< Number integer number (opacity, enums, booleans or "normal" numbers)*
 111:Middlewares/lvgl/src/extra/themes/basic/../../../../src/core/../misc/lv_style.h ****     const void * ptr;    /**< Constant pointers  (font, cone text, etc)*/
 112:Middlewares/lvgl/src/extra/themes/basic/../../../../src/core/../misc/lv_style.h ****     lv_color_t color;    /**< Colors*/
 113:Middlewares/lvgl/src/extra/themes/basic/../../../../src/core/../misc/lv_style.h **** }lv_style_value_t;
 114:Middlewares/lvgl/src/extra/themes/basic/../../../../src/core/../misc/lv_style.h **** 
 115:Middlewares/lvgl/src/extra/themes/basic/../../../../src/core/../misc/lv_style.h **** /**
 116:Middlewares/lvgl/src/extra/themes/basic/../../../../src/core/../misc/lv_style.h ****  * Enumeration of all built in style properties
 117:Middlewares/lvgl/src/extra/themes/basic/../../../../src/core/../misc/lv_style.h ****  */
 118:Middlewares/lvgl/src/extra/themes/basic/../../../../src/core/../misc/lv_style.h **** typedef enum {
 119:Middlewares/lvgl/src/extra/themes/basic/../../../../src/core/../misc/lv_style.h ****     LV_STYLE_PROP_INV                = 0,
 120:Middlewares/lvgl/src/extra/themes/basic/../../../../src/core/../misc/lv_style.h **** 
 121:Middlewares/lvgl/src/extra/themes/basic/../../../../src/core/../misc/lv_style.h ****     /*Group 0*/
 122:Middlewares/lvgl/src/extra/themes/basic/../../../../src/core/../misc/lv_style.h ****     LV_STYLE_WIDTH                   = 1 | LV_STYLE_PROP_LAYOUT_REFR,
 123:Middlewares/lvgl/src/extra/themes/basic/../../../../src/core/../misc/lv_style.h ****     LV_STYLE_MIN_WIDTH               = 2 | LV_STYLE_PROP_LAYOUT_REFR,
 124:Middlewares/lvgl/src/extra/themes/basic/../../../../src/core/../misc/lv_style.h ****     LV_STYLE_MAX_WIDTH               = 3 | LV_STYLE_PROP_LAYOUT_REFR,
 125:Middlewares/lvgl/src/extra/themes/basic/../../../../src/core/../misc/lv_style.h ****     LV_STYLE_HEIGHT                  = 4 | LV_STYLE_PROP_LAYOUT_REFR,
 126:Middlewares/lvgl/src/extra/themes/basic/../../../../src/core/../misc/lv_style.h ****     LV_STYLE_MIN_HEIGHT              = 5 | LV_STYLE_PROP_LAYOUT_REFR,
 127:Middlewares/lvgl/src/extra/themes/basic/../../../../src/core/../misc/lv_style.h ****     LV_STYLE_MAX_HEIGHT              = 6 | LV_STYLE_PROP_LAYOUT_REFR,
 128:Middlewares/lvgl/src/extra/themes/basic/../../../../src/core/../misc/lv_style.h ****     LV_STYLE_X                       = 7 | LV_STYLE_PROP_LAYOUT_REFR,
 129:Middlewares/lvgl/src/extra/themes/basic/../../../../src/core/../misc/lv_style.h ****     LV_STYLE_Y                       = 8 | LV_STYLE_PROP_LAYOUT_REFR,
 130:Middlewares/lvgl/src/extra/themes/basic/../../../../src/core/../misc/lv_style.h ****     LV_STYLE_ALIGN                   = 9 | LV_STYLE_PROP_LAYOUT_REFR,
 131:Middlewares/lvgl/src/extra/themes/basic/../../../../src/core/../misc/lv_style.h ****     LV_STYLE_TRANSFORM_WIDTH         = 10 | LV_STYLE_PROP_EXT_DRAW,
 132:Middlewares/lvgl/src/extra/themes/basic/../../../../src/core/../misc/lv_style.h ****     LV_STYLE_TRANSFORM_HEIGHT        = 11 | LV_STYLE_PROP_EXT_DRAW,
 133:Middlewares/lvgl/src/extra/themes/basic/../../../../src/core/../misc/lv_style.h ****     LV_STYLE_TRANSLATE_X             = 12 | LV_STYLE_PROP_LAYOUT_REFR | LV_STYLE_PROP_PARENT_LAYOUT
 134:Middlewares/lvgl/src/extra/themes/basic/../../../../src/core/../misc/lv_style.h ****     LV_STYLE_TRANSLATE_Y             = 13 | LV_STYLE_PROP_LAYOUT_REFR | LV_STYLE_PROP_PARENT_LAYOUT
 135:Middlewares/lvgl/src/extra/themes/basic/../../../../src/core/../misc/lv_style.h ****     LV_STYLE_TRANSFORM_ZOOM          = 14 | LV_STYLE_PROP_EXT_DRAW,
 136:Middlewares/lvgl/src/extra/themes/basic/../../../../src/core/../misc/lv_style.h ****     LV_STYLE_TRANSFORM_ANGLE         = 15 | LV_STYLE_PROP_EXT_DRAW,
 137:Middlewares/lvgl/src/extra/themes/basic/../../../../src/core/../misc/lv_style.h **** 
 138:Middlewares/lvgl/src/extra/themes/basic/../../../../src/core/../misc/lv_style.h ****     /*Group 1*/
 139:Middlewares/lvgl/src/extra/themes/basic/../../../../src/core/../misc/lv_style.h ****     LV_STYLE_PAD_TOP                 = 16 | LV_STYLE_PROP_LAYOUT_REFR,
 140:Middlewares/lvgl/src/extra/themes/basic/../../../../src/core/../misc/lv_style.h ****     LV_STYLE_PAD_BOTTOM              = 17 | LV_STYLE_PROP_LAYOUT_REFR,
 141:Middlewares/lvgl/src/extra/themes/basic/../../../../src/core/../misc/lv_style.h ****     LV_STYLE_PAD_LEFT                = 18 | LV_STYLE_PROP_LAYOUT_REFR,
 142:Middlewares/lvgl/src/extra/themes/basic/../../../../src/core/../misc/lv_style.h ****     LV_STYLE_PAD_RIGHT               = 19 | LV_STYLE_PROP_LAYOUT_REFR,
 143:Middlewares/lvgl/src/extra/themes/basic/../../../../src/core/../misc/lv_style.h ****     LV_STYLE_PAD_ROW                 = 20 | LV_STYLE_PROP_LAYOUT_REFR,
 144:Middlewares/lvgl/src/extra/themes/basic/../../../../src/core/../misc/lv_style.h ****     LV_STYLE_PAD_COLUMN              = 21 | LV_STYLE_PROP_LAYOUT_REFR,
ARM GAS  /tmp/ccwx3eYd.s 			page 59


 145:Middlewares/lvgl/src/extra/themes/basic/../../../../src/core/../misc/lv_style.h **** 
 146:Middlewares/lvgl/src/extra/themes/basic/../../../../src/core/../misc/lv_style.h ****     /*Group 2*/
 147:Middlewares/lvgl/src/extra/themes/basic/../../../../src/core/../misc/lv_style.h ****     LV_STYLE_BG_COLOR                = 32,
 148:Middlewares/lvgl/src/extra/themes/basic/../../../../src/core/../misc/lv_style.h ****     LV_STYLE_BG_COLOR_FILTERED       = 32 | LV_STYLE_PROP_FILTER,
 149:Middlewares/lvgl/src/extra/themes/basic/../../../../src/core/../misc/lv_style.h ****     LV_STYLE_BG_OPA                  = 33,
 150:Middlewares/lvgl/src/extra/themes/basic/../../../../src/core/../misc/lv_style.h ****     LV_STYLE_BG_GRAD_COLOR           = 34,
 151:Middlewares/lvgl/src/extra/themes/basic/../../../../src/core/../misc/lv_style.h ****     LV_STYLE_BG_GRAD_COLOR_FILTERED  = 34 | LV_STYLE_PROP_FILTER,
 152:Middlewares/lvgl/src/extra/themes/basic/../../../../src/core/../misc/lv_style.h ****     LV_STYLE_BG_GRAD_DIR             = 35,
 153:Middlewares/lvgl/src/extra/themes/basic/../../../../src/core/../misc/lv_style.h ****     LV_STYLE_BG_MAIN_STOP            = 36,
 154:Middlewares/lvgl/src/extra/themes/basic/../../../../src/core/../misc/lv_style.h ****     LV_STYLE_BG_GRAD_STOP            = 37,
 155:Middlewares/lvgl/src/extra/themes/basic/../../../../src/core/../misc/lv_style.h **** 
 156:Middlewares/lvgl/src/extra/themes/basic/../../../../src/core/../misc/lv_style.h ****     LV_STYLE_BG_IMG_SRC              = 38,
 157:Middlewares/lvgl/src/extra/themes/basic/../../../../src/core/../misc/lv_style.h ****     LV_STYLE_BG_IMG_OPA              = 39,
 158:Middlewares/lvgl/src/extra/themes/basic/../../../../src/core/../misc/lv_style.h ****     LV_STYLE_BG_IMG_RECOLOR          = 40,
 159:Middlewares/lvgl/src/extra/themes/basic/../../../../src/core/../misc/lv_style.h ****     LV_STYLE_BG_IMG_RECOLOR_FILTERED = 40 | LV_STYLE_PROP_FILTER,
 160:Middlewares/lvgl/src/extra/themes/basic/../../../../src/core/../misc/lv_style.h ****     LV_STYLE_BG_IMG_RECOLOR_OPA      = 41,
 161:Middlewares/lvgl/src/extra/themes/basic/../../../../src/core/../misc/lv_style.h ****     LV_STYLE_BG_IMG_TILED            = 42,
 162:Middlewares/lvgl/src/extra/themes/basic/../../../../src/core/../misc/lv_style.h **** 
 163:Middlewares/lvgl/src/extra/themes/basic/../../../../src/core/../misc/lv_style.h ****     /*Group 3*/
 164:Middlewares/lvgl/src/extra/themes/basic/../../../../src/core/../misc/lv_style.h ****     LV_STYLE_BORDER_COLOR            = 48,
 165:Middlewares/lvgl/src/extra/themes/basic/../../../../src/core/../misc/lv_style.h ****     LV_STYLE_BORDER_COLOR_FILTERED   = 48 | LV_STYLE_PROP_FILTER,
 166:Middlewares/lvgl/src/extra/themes/basic/../../../../src/core/../misc/lv_style.h ****     LV_STYLE_BORDER_OPA              = 49,
 167:Middlewares/lvgl/src/extra/themes/basic/../../../../src/core/../misc/lv_style.h ****     LV_STYLE_BORDER_WIDTH            = 50 | LV_STYLE_PROP_LAYOUT_REFR,
 168:Middlewares/lvgl/src/extra/themes/basic/../../../../src/core/../misc/lv_style.h ****     LV_STYLE_BORDER_SIDE             = 51,
 169:Middlewares/lvgl/src/extra/themes/basic/../../../../src/core/../misc/lv_style.h ****     LV_STYLE_BORDER_POST             = 52,
 170:Middlewares/lvgl/src/extra/themes/basic/../../../../src/core/../misc/lv_style.h **** 
 171:Middlewares/lvgl/src/extra/themes/basic/../../../../src/core/../misc/lv_style.h ****     LV_STYLE_OUTLINE_WIDTH           = 58 | LV_STYLE_PROP_EXT_DRAW,
 172:Middlewares/lvgl/src/extra/themes/basic/../../../../src/core/../misc/lv_style.h ****     LV_STYLE_OUTLINE_COLOR           = 59,
 173:Middlewares/lvgl/src/extra/themes/basic/../../../../src/core/../misc/lv_style.h ****     LV_STYLE_OUTLINE_COLOR_FILTERED  = 59 | LV_STYLE_PROP_FILTER,
 174:Middlewares/lvgl/src/extra/themes/basic/../../../../src/core/../misc/lv_style.h ****     LV_STYLE_OUTLINE_OPA             = 60 | LV_STYLE_PROP_EXT_DRAW,
 175:Middlewares/lvgl/src/extra/themes/basic/../../../../src/core/../misc/lv_style.h ****     LV_STYLE_OUTLINE_PAD             = 61 | LV_STYLE_PROP_EXT_DRAW,
 176:Middlewares/lvgl/src/extra/themes/basic/../../../../src/core/../misc/lv_style.h **** 
 177:Middlewares/lvgl/src/extra/themes/basic/../../../../src/core/../misc/lv_style.h ****     /*Group 4*/
 178:Middlewares/lvgl/src/extra/themes/basic/../../../../src/core/../misc/lv_style.h ****     LV_STYLE_SHADOW_WIDTH            = 64 | LV_STYLE_PROP_EXT_DRAW,
 179:Middlewares/lvgl/src/extra/themes/basic/../../../../src/core/../misc/lv_style.h ****     LV_STYLE_SHADOW_OFS_X            = 65 | LV_STYLE_PROP_EXT_DRAW,
 180:Middlewares/lvgl/src/extra/themes/basic/../../../../src/core/../misc/lv_style.h ****     LV_STYLE_SHADOW_OFS_Y            = 66 | LV_STYLE_PROP_EXT_DRAW,
 181:Middlewares/lvgl/src/extra/themes/basic/../../../../src/core/../misc/lv_style.h ****     LV_STYLE_SHADOW_SPREAD           = 67 | LV_STYLE_PROP_EXT_DRAW,
 182:Middlewares/lvgl/src/extra/themes/basic/../../../../src/core/../misc/lv_style.h ****     LV_STYLE_SHADOW_COLOR            = 68,
 183:Middlewares/lvgl/src/extra/themes/basic/../../../../src/core/../misc/lv_style.h ****     LV_STYLE_SHADOW_COLOR_FILTERED   = 68 | LV_STYLE_PROP_FILTER,
 184:Middlewares/lvgl/src/extra/themes/basic/../../../../src/core/../misc/lv_style.h ****     LV_STYLE_SHADOW_OPA              = 69 | LV_STYLE_PROP_EXT_DRAW,
 185:Middlewares/lvgl/src/extra/themes/basic/../../../../src/core/../misc/lv_style.h **** 
 186:Middlewares/lvgl/src/extra/themes/basic/../../../../src/core/../misc/lv_style.h ****     LV_STYLE_IMG_OPA                 = 70,
 187:Middlewares/lvgl/src/extra/themes/basic/../../../../src/core/../misc/lv_style.h ****     LV_STYLE_IMG_RECOLOR             = 71,
 188:Middlewares/lvgl/src/extra/themes/basic/../../../../src/core/../misc/lv_style.h ****     LV_STYLE_IMG_RECOLOR_FILTERED    = 71 | LV_STYLE_PROP_FILTER,
 189:Middlewares/lvgl/src/extra/themes/basic/../../../../src/core/../misc/lv_style.h ****     LV_STYLE_IMG_RECOLOR_OPA         = 72,
 190:Middlewares/lvgl/src/extra/themes/basic/../../../../src/core/../misc/lv_style.h **** 
 191:Middlewares/lvgl/src/extra/themes/basic/../../../../src/core/../misc/lv_style.h ****     LV_STYLE_LINE_WIDTH              = 73 | LV_STYLE_PROP_EXT_DRAW,
 192:Middlewares/lvgl/src/extra/themes/basic/../../../../src/core/../misc/lv_style.h ****     LV_STYLE_LINE_DASH_WIDTH         = 74,
 193:Middlewares/lvgl/src/extra/themes/basic/../../../../src/core/../misc/lv_style.h ****     LV_STYLE_LINE_DASH_GAP           = 75,
 194:Middlewares/lvgl/src/extra/themes/basic/../../../../src/core/../misc/lv_style.h ****     LV_STYLE_LINE_ROUNDED            = 76,
 195:Middlewares/lvgl/src/extra/themes/basic/../../../../src/core/../misc/lv_style.h ****     LV_STYLE_LINE_COLOR              = 77,
 196:Middlewares/lvgl/src/extra/themes/basic/../../../../src/core/../misc/lv_style.h ****     LV_STYLE_LINE_COLOR_FILTERED     = 77 | LV_STYLE_PROP_FILTER,
 197:Middlewares/lvgl/src/extra/themes/basic/../../../../src/core/../misc/lv_style.h ****     LV_STYLE_LINE_OPA                = 78,
 198:Middlewares/lvgl/src/extra/themes/basic/../../../../src/core/../misc/lv_style.h **** 
 199:Middlewares/lvgl/src/extra/themes/basic/../../../../src/core/../misc/lv_style.h ****     /*Group 5*/
 200:Middlewares/lvgl/src/extra/themes/basic/../../../../src/core/../misc/lv_style.h ****     LV_STYLE_ARC_WIDTH               = 80 | LV_STYLE_PROP_EXT_DRAW,
 201:Middlewares/lvgl/src/extra/themes/basic/../../../../src/core/../misc/lv_style.h ****     LV_STYLE_ARC_ROUNDED             = 81,
ARM GAS  /tmp/ccwx3eYd.s 			page 60


 202:Middlewares/lvgl/src/extra/themes/basic/../../../../src/core/../misc/lv_style.h ****     LV_STYLE_ARC_COLOR               = 82,
 203:Middlewares/lvgl/src/extra/themes/basic/../../../../src/core/../misc/lv_style.h ****     LV_STYLE_ARC_COLOR_FILTERED      = 82 | LV_STYLE_PROP_FILTER,
 204:Middlewares/lvgl/src/extra/themes/basic/../../../../src/core/../misc/lv_style.h ****     LV_STYLE_ARC_OPA                 = 83,
 205:Middlewares/lvgl/src/extra/themes/basic/../../../../src/core/../misc/lv_style.h ****     LV_STYLE_ARC_IMG_SRC             = 84,
 206:Middlewares/lvgl/src/extra/themes/basic/../../../../src/core/../misc/lv_style.h **** 
 207:Middlewares/lvgl/src/extra/themes/basic/../../../../src/core/../misc/lv_style.h ****     LV_STYLE_TEXT_COLOR              = 87 | LV_STYLE_PROP_INHERIT,
 208:Middlewares/lvgl/src/extra/themes/basic/../../../../src/core/../misc/lv_style.h ****     LV_STYLE_TEXT_COLOR_FILTERED     = 87 | LV_STYLE_PROP_INHERIT | LV_STYLE_PROP_FILTER,
 209:Middlewares/lvgl/src/extra/themes/basic/../../../../src/core/../misc/lv_style.h ****     LV_STYLE_TEXT_OPA                = 88 | LV_STYLE_PROP_INHERIT,
 210:Middlewares/lvgl/src/extra/themes/basic/../../../../src/core/../misc/lv_style.h ****     LV_STYLE_TEXT_FONT               = 89 | LV_STYLE_PROP_INHERIT | LV_STYLE_PROP_LAYOUT_REFR,
 211:Middlewares/lvgl/src/extra/themes/basic/../../../../src/core/../misc/lv_style.h ****     LV_STYLE_TEXT_LETTER_SPACE       = 90 | LV_STYLE_PROP_INHERIT | LV_STYLE_PROP_LAYOUT_REFR,
 212:Middlewares/lvgl/src/extra/themes/basic/../../../../src/core/../misc/lv_style.h ****     LV_STYLE_TEXT_LINE_SPACE         = 91 | LV_STYLE_PROP_INHERIT | LV_STYLE_PROP_LAYOUT_REFR,
 213:Middlewares/lvgl/src/extra/themes/basic/../../../../src/core/../misc/lv_style.h ****     LV_STYLE_TEXT_DECOR              = 92 | LV_STYLE_PROP_INHERIT,
 214:Middlewares/lvgl/src/extra/themes/basic/../../../../src/core/../misc/lv_style.h ****     LV_STYLE_TEXT_ALIGN              = 93 | LV_STYLE_PROP_INHERIT | LV_STYLE_PROP_LAYOUT_REFR,
 215:Middlewares/lvgl/src/extra/themes/basic/../../../../src/core/../misc/lv_style.h **** 
 216:Middlewares/lvgl/src/extra/themes/basic/../../../../src/core/../misc/lv_style.h ****     /*Group 6*/
 217:Middlewares/lvgl/src/extra/themes/basic/../../../../src/core/../misc/lv_style.h ****     LV_STYLE_RADIUS                  = 96,
 218:Middlewares/lvgl/src/extra/themes/basic/../../../../src/core/../misc/lv_style.h ****     LV_STYLE_CLIP_CORNER             = 97,
 219:Middlewares/lvgl/src/extra/themes/basic/../../../../src/core/../misc/lv_style.h ****     LV_STYLE_OPA                     = 98 | LV_STYLE_PROP_INHERIT,
 220:Middlewares/lvgl/src/extra/themes/basic/../../../../src/core/../misc/lv_style.h ****     LV_STYLE_COLOR_FILTER_DSC        = 99,
 221:Middlewares/lvgl/src/extra/themes/basic/../../../../src/core/../misc/lv_style.h ****     LV_STYLE_COLOR_FILTER_OPA        = 100,
 222:Middlewares/lvgl/src/extra/themes/basic/../../../../src/core/../misc/lv_style.h ****     LV_STYLE_ANIM_TIME               = 101,
 223:Middlewares/lvgl/src/extra/themes/basic/../../../../src/core/../misc/lv_style.h ****     LV_STYLE_ANIM_SPEED              = 102,
 224:Middlewares/lvgl/src/extra/themes/basic/../../../../src/core/../misc/lv_style.h ****     LV_STYLE_TRANSITION              = 103,
 225:Middlewares/lvgl/src/extra/themes/basic/../../../../src/core/../misc/lv_style.h ****     LV_STYLE_BLEND_MODE              = 104,
 226:Middlewares/lvgl/src/extra/themes/basic/../../../../src/core/../misc/lv_style.h ****     LV_STYLE_LAYOUT                  = 105 | LV_STYLE_PROP_LAYOUT_REFR,
 227:Middlewares/lvgl/src/extra/themes/basic/../../../../src/core/../misc/lv_style.h ****     LV_STYLE_BASE_DIR                = 106 | LV_STYLE_PROP_INHERIT | LV_STYLE_PROP_LAYOUT_REFR,
 228:Middlewares/lvgl/src/extra/themes/basic/../../../../src/core/../misc/lv_style.h **** 
 229:Middlewares/lvgl/src/extra/themes/basic/../../../../src/core/../misc/lv_style.h ****     _LV_STYLE_LAST_BUILT_IN_PROP     = 111,
 230:Middlewares/lvgl/src/extra/themes/basic/../../../../src/core/../misc/lv_style.h **** 
 231:Middlewares/lvgl/src/extra/themes/basic/../../../../src/core/../misc/lv_style.h ****     LV_STYLE_PROP_ANY                = 0xFFFF
 232:Middlewares/lvgl/src/extra/themes/basic/../../../../src/core/../misc/lv_style.h **** }lv_style_prop_t;
 233:Middlewares/lvgl/src/extra/themes/basic/../../../../src/core/../misc/lv_style.h **** 
 234:Middlewares/lvgl/src/extra/themes/basic/../../../../src/core/../misc/lv_style.h **** /**
 235:Middlewares/lvgl/src/extra/themes/basic/../../../../src/core/../misc/lv_style.h ****  * Descriptor for style transitions
 236:Middlewares/lvgl/src/extra/themes/basic/../../../../src/core/../misc/lv_style.h ****  */
 237:Middlewares/lvgl/src/extra/themes/basic/../../../../src/core/../misc/lv_style.h **** typedef struct {
 238:Middlewares/lvgl/src/extra/themes/basic/../../../../src/core/../misc/lv_style.h ****     const lv_style_prop_t * props; /**< An array with the properties to animate.*/
 239:Middlewares/lvgl/src/extra/themes/basic/../../../../src/core/../misc/lv_style.h **** #if LV_USE_USER_DATA
 240:Middlewares/lvgl/src/extra/themes/basic/../../../../src/core/../misc/lv_style.h ****     void * user_data;              /**< A custom user data that will be passed to the animation's u
 241:Middlewares/lvgl/src/extra/themes/basic/../../../../src/core/../misc/lv_style.h **** #endif
 242:Middlewares/lvgl/src/extra/themes/basic/../../../../src/core/../misc/lv_style.h ****     lv_anim_path_cb_t path_xcb;     /**< A path for the animation.*/
 243:Middlewares/lvgl/src/extra/themes/basic/../../../../src/core/../misc/lv_style.h ****     uint32_t time;                 /**< Duration of the transition in [ms]*/
 244:Middlewares/lvgl/src/extra/themes/basic/../../../../src/core/../misc/lv_style.h ****     uint32_t delay;                /**< Delay before the transition in [ms]*/
 245:Middlewares/lvgl/src/extra/themes/basic/../../../../src/core/../misc/lv_style.h **** }lv_style_transition_dsc_t;
 246:Middlewares/lvgl/src/extra/themes/basic/../../../../src/core/../misc/lv_style.h **** 
 247:Middlewares/lvgl/src/extra/themes/basic/../../../../src/core/../misc/lv_style.h **** /**
 248:Middlewares/lvgl/src/extra/themes/basic/../../../../src/core/../misc/lv_style.h ****  * Descriptor of a constant style property.
 249:Middlewares/lvgl/src/extra/themes/basic/../../../../src/core/../misc/lv_style.h ****  */
 250:Middlewares/lvgl/src/extra/themes/basic/../../../../src/core/../misc/lv_style.h **** typedef struct {
 251:Middlewares/lvgl/src/extra/themes/basic/../../../../src/core/../misc/lv_style.h ****     lv_style_prop_t prop;
 252:Middlewares/lvgl/src/extra/themes/basic/../../../../src/core/../misc/lv_style.h ****     lv_style_value_t value;
 253:Middlewares/lvgl/src/extra/themes/basic/../../../../src/core/../misc/lv_style.h **** } lv_style_const_prop_t;
 254:Middlewares/lvgl/src/extra/themes/basic/../../../../src/core/../misc/lv_style.h **** 
 255:Middlewares/lvgl/src/extra/themes/basic/../../../../src/core/../misc/lv_style.h **** /**
 256:Middlewares/lvgl/src/extra/themes/basic/../../../../src/core/../misc/lv_style.h ****  * Descriptor of a style (a collection of properties and values).
 257:Middlewares/lvgl/src/extra/themes/basic/../../../../src/core/../misc/lv_style.h ****  */
 258:Middlewares/lvgl/src/extra/themes/basic/../../../../src/core/../misc/lv_style.h **** typedef struct {
ARM GAS  /tmp/ccwx3eYd.s 			page 61


 259:Middlewares/lvgl/src/extra/themes/basic/../../../../src/core/../misc/lv_style.h **** 
 260:Middlewares/lvgl/src/extra/themes/basic/../../../../src/core/../misc/lv_style.h **** #if LV_USE_ASSERT_STYLE
 261:Middlewares/lvgl/src/extra/themes/basic/../../../../src/core/../misc/lv_style.h ****     uint32_t sentinel;
 262:Middlewares/lvgl/src/extra/themes/basic/../../../../src/core/../misc/lv_style.h **** #endif
 263:Middlewares/lvgl/src/extra/themes/basic/../../../../src/core/../misc/lv_style.h **** 
 264:Middlewares/lvgl/src/extra/themes/basic/../../../../src/core/../misc/lv_style.h ****     /*If there is only one property store it directly.
 265:Middlewares/lvgl/src/extra/themes/basic/../../../../src/core/../misc/lv_style.h ****      *For more properties allocate an array*/
 266:Middlewares/lvgl/src/extra/themes/basic/../../../../src/core/../misc/lv_style.h ****     union {
 267:Middlewares/lvgl/src/extra/themes/basic/../../../../src/core/../misc/lv_style.h ****         lv_style_value_t value1;
 268:Middlewares/lvgl/src/extra/themes/basic/../../../../src/core/../misc/lv_style.h ****         uint8_t * values_and_props;
 269:Middlewares/lvgl/src/extra/themes/basic/../../../../src/core/../misc/lv_style.h ****         const lv_style_const_prop_t * const_props;
 270:Middlewares/lvgl/src/extra/themes/basic/../../../../src/core/../misc/lv_style.h ****     } v_p;
 271:Middlewares/lvgl/src/extra/themes/basic/../../../../src/core/../misc/lv_style.h **** 
 272:Middlewares/lvgl/src/extra/themes/basic/../../../../src/core/../misc/lv_style.h ****     uint16_t prop1 :15;
 273:Middlewares/lvgl/src/extra/themes/basic/../../../../src/core/../misc/lv_style.h ****     uint16_t is_const :1;
 274:Middlewares/lvgl/src/extra/themes/basic/../../../../src/core/../misc/lv_style.h ****     uint8_t has_group;
 275:Middlewares/lvgl/src/extra/themes/basic/../../../../src/core/../misc/lv_style.h ****     uint8_t prop_cnt;
 276:Middlewares/lvgl/src/extra/themes/basic/../../../../src/core/../misc/lv_style.h **** } lv_style_t;
 277:Middlewares/lvgl/src/extra/themes/basic/../../../../src/core/../misc/lv_style.h **** 
 278:Middlewares/lvgl/src/extra/themes/basic/../../../../src/core/../misc/lv_style.h **** /**********************
 279:Middlewares/lvgl/src/extra/themes/basic/../../../../src/core/../misc/lv_style.h ****  * GLOBAL PROTOTYPES
 280:Middlewares/lvgl/src/extra/themes/basic/../../../../src/core/../misc/lv_style.h ****  **********************/
 281:Middlewares/lvgl/src/extra/themes/basic/../../../../src/core/../misc/lv_style.h **** 
 282:Middlewares/lvgl/src/extra/themes/basic/../../../../src/core/../misc/lv_style.h **** 
 283:Middlewares/lvgl/src/extra/themes/basic/../../../../src/core/../misc/lv_style.h **** /**
 284:Middlewares/lvgl/src/extra/themes/basic/../../../../src/core/../misc/lv_style.h ****  * Initialize a style
 285:Middlewares/lvgl/src/extra/themes/basic/../../../../src/core/../misc/lv_style.h ****  * @param style pointer to a style to initialize
 286:Middlewares/lvgl/src/extra/themes/basic/../../../../src/core/../misc/lv_style.h ****  * @note Do not call `lv_style_init` on styles that are already have some properties
 287:Middlewares/lvgl/src/extra/themes/basic/../../../../src/core/../misc/lv_style.h ****  *       because this function won't free the used memory just set a default state for the style.
 288:Middlewares/lvgl/src/extra/themes/basic/../../../../src/core/../misc/lv_style.h ****  *       In other words be sure to initialize styles only once!
 289:Middlewares/lvgl/src/extra/themes/basic/../../../../src/core/../misc/lv_style.h ****  */
 290:Middlewares/lvgl/src/extra/themes/basic/../../../../src/core/../misc/lv_style.h **** void lv_style_init(lv_style_t * style);
 291:Middlewares/lvgl/src/extra/themes/basic/../../../../src/core/../misc/lv_style.h **** 
 292:Middlewares/lvgl/src/extra/themes/basic/../../../../src/core/../misc/lv_style.h **** /**
 293:Middlewares/lvgl/src/extra/themes/basic/../../../../src/core/../misc/lv_style.h ****  * Clear all properties from a style and free all allocated memories.
 294:Middlewares/lvgl/src/extra/themes/basic/../../../../src/core/../misc/lv_style.h ****  * @param style pointer to a style
 295:Middlewares/lvgl/src/extra/themes/basic/../../../../src/core/../misc/lv_style.h ****  */
 296:Middlewares/lvgl/src/extra/themes/basic/../../../../src/core/../misc/lv_style.h **** void lv_style_reset(lv_style_t * style);
 297:Middlewares/lvgl/src/extra/themes/basic/../../../../src/core/../misc/lv_style.h **** 
 298:Middlewares/lvgl/src/extra/themes/basic/../../../../src/core/../misc/lv_style.h **** /**
 299:Middlewares/lvgl/src/extra/themes/basic/../../../../src/core/../misc/lv_style.h ****  * Register a new style property for custom usage
 300:Middlewares/lvgl/src/extra/themes/basic/../../../../src/core/../misc/lv_style.h ****  * @return a new property ID.
 301:Middlewares/lvgl/src/extra/themes/basic/../../../../src/core/../misc/lv_style.h ****  * @example
 302:Middlewares/lvgl/src/extra/themes/basic/../../../../src/core/../misc/lv_style.h ****  * lv_style_prop_t MY_PROP;
 303:Middlewares/lvgl/src/extra/themes/basic/../../../../src/core/../misc/lv_style.h ****  * static inline void lv_style_set_my_prop(lv_style_t * style, lv_color_t value) {
 304:Middlewares/lvgl/src/extra/themes/basic/../../../../src/core/../misc/lv_style.h ****  * lv_style_value_t v = {.color = value}; lv_style_set_prop(style, MY_PROP, v); }
 305:Middlewares/lvgl/src/extra/themes/basic/../../../../src/core/../misc/lv_style.h ****  *
 306:Middlewares/lvgl/src/extra/themes/basic/../../../../src/core/../misc/lv_style.h ****  * ...
 307:Middlewares/lvgl/src/extra/themes/basic/../../../../src/core/../misc/lv_style.h ****  * MY_PROP = lv_style_register_prop();
 308:Middlewares/lvgl/src/extra/themes/basic/../../../../src/core/../misc/lv_style.h ****  * ...
 309:Middlewares/lvgl/src/extra/themes/basic/../../../../src/core/../misc/lv_style.h ****  * lv_style_set_my_prop(&style1, lv_palette_main(LV_PALETTE_RED));
 310:Middlewares/lvgl/src/extra/themes/basic/../../../../src/core/../misc/lv_style.h ****  */
 311:Middlewares/lvgl/src/extra/themes/basic/../../../../src/core/../misc/lv_style.h **** lv_style_prop_t lv_style_register_prop(void);
 312:Middlewares/lvgl/src/extra/themes/basic/../../../../src/core/../misc/lv_style.h **** 
 313:Middlewares/lvgl/src/extra/themes/basic/../../../../src/core/../misc/lv_style.h **** /**
 314:Middlewares/lvgl/src/extra/themes/basic/../../../../src/core/../misc/lv_style.h ****  * Remove a property from a style
 315:Middlewares/lvgl/src/extra/themes/basic/../../../../src/core/../misc/lv_style.h ****  * @param style pointer to a style
ARM GAS  /tmp/ccwx3eYd.s 			page 62


 316:Middlewares/lvgl/src/extra/themes/basic/../../../../src/core/../misc/lv_style.h ****  * @param prop  a style property ORed with a state.
 317:Middlewares/lvgl/src/extra/themes/basic/../../../../src/core/../misc/lv_style.h ****  * @return true: the property was found and removed; false: the property wasn't found
 318:Middlewares/lvgl/src/extra/themes/basic/../../../../src/core/../misc/lv_style.h ****  */
 319:Middlewares/lvgl/src/extra/themes/basic/../../../../src/core/../misc/lv_style.h **** bool lv_style_remove_prop(lv_style_t * style, lv_style_prop_t prop);
 320:Middlewares/lvgl/src/extra/themes/basic/../../../../src/core/../misc/lv_style.h **** 
 321:Middlewares/lvgl/src/extra/themes/basic/../../../../src/core/../misc/lv_style.h **** /**
 322:Middlewares/lvgl/src/extra/themes/basic/../../../../src/core/../misc/lv_style.h ****  * Set the value of property in a style.
 323:Middlewares/lvgl/src/extra/themes/basic/../../../../src/core/../misc/lv_style.h ****  * This function shouldn't be used directly by the user.
 324:Middlewares/lvgl/src/extra/themes/basic/../../../../src/core/../misc/lv_style.h ****  * Instead use `lv_style_set_<prop_name>()`. E.g. `lv_style_set_bg_color()`
 325:Middlewares/lvgl/src/extra/themes/basic/../../../../src/core/../misc/lv_style.h ****  * @param style pointer to style
 326:Middlewares/lvgl/src/extra/themes/basic/../../../../src/core/../misc/lv_style.h ****  * @param prop the ID of a property (e.g. `LV_STLYE_BG_COLOR`)
 327:Middlewares/lvgl/src/extra/themes/basic/../../../../src/core/../misc/lv_style.h ****  * @param value `lv_style_value_t` variable in which a filed is set according to the type of `prop`
 328:Middlewares/lvgl/src/extra/themes/basic/../../../../src/core/../misc/lv_style.h ****  */
 329:Middlewares/lvgl/src/extra/themes/basic/../../../../src/core/../misc/lv_style.h **** void lv_style_set_prop(lv_style_t * style, lv_style_prop_t prop, lv_style_value_t value);
 330:Middlewares/lvgl/src/extra/themes/basic/../../../../src/core/../misc/lv_style.h **** 
 331:Middlewares/lvgl/src/extra/themes/basic/../../../../src/core/../misc/lv_style.h **** /**
 332:Middlewares/lvgl/src/extra/themes/basic/../../../../src/core/../misc/lv_style.h ****  * Get the value of a property
 333:Middlewares/lvgl/src/extra/themes/basic/../../../../src/core/../misc/lv_style.h ****  * @param style pointer to a style
 334:Middlewares/lvgl/src/extra/themes/basic/../../../../src/core/../misc/lv_style.h ****  * @param prop  the ID of a property
 335:Middlewares/lvgl/src/extra/themes/basic/../../../../src/core/../misc/lv_style.h ****  * @param value pointer to a `lv_style_value_t` variable to store the value
 336:Middlewares/lvgl/src/extra/themes/basic/../../../../src/core/../misc/lv_style.h ****  * @return LV_RES_INV: the property wsn't found in the style (`value` is unchanged)
 337:Middlewares/lvgl/src/extra/themes/basic/../../../../src/core/../misc/lv_style.h ****  *         LV_RES_OK: the property was fond, and `value` is set accordingly
 338:Middlewares/lvgl/src/extra/themes/basic/../../../../src/core/../misc/lv_style.h ****  * @note For performance reasons there are no sanity check on `style`
 339:Middlewares/lvgl/src/extra/themes/basic/../../../../src/core/../misc/lv_style.h ****  */
 340:Middlewares/lvgl/src/extra/themes/basic/../../../../src/core/../misc/lv_style.h **** lv_res_t lv_style_get_prop(lv_style_t * style, lv_style_prop_t prop, lv_style_value_t * value);
 341:Middlewares/lvgl/src/extra/themes/basic/../../../../src/core/../misc/lv_style.h **** 
 342:Middlewares/lvgl/src/extra/themes/basic/../../../../src/core/../misc/lv_style.h **** 
 343:Middlewares/lvgl/src/extra/themes/basic/../../../../src/core/../misc/lv_style.h **** /**
 344:Middlewares/lvgl/src/extra/themes/basic/../../../../src/core/../misc/lv_style.h ****  * Get the value of a property
 345:Middlewares/lvgl/src/extra/themes/basic/../../../../src/core/../misc/lv_style.h ****  * @param style pointer to a style
 346:Middlewares/lvgl/src/extra/themes/basic/../../../../src/core/../misc/lv_style.h ****  * @param prop  the ID of a property
 347:Middlewares/lvgl/src/extra/themes/basic/../../../../src/core/../misc/lv_style.h ****  * @param value pointer to a `lv_style_value_t` variable to store the value
 348:Middlewares/lvgl/src/extra/themes/basic/../../../../src/core/../misc/lv_style.h ****  * @return LV_RES_INV: the property wsn't found in the style (`value` is unchanged)
 349:Middlewares/lvgl/src/extra/themes/basic/../../../../src/core/../misc/lv_style.h ****  *         LV_RES_OK: the property was fond, and `value` is set accordingly
 350:Middlewares/lvgl/src/extra/themes/basic/../../../../src/core/../misc/lv_style.h ****  * @note For performance reasons there are no sanity check on `style`
 351:Middlewares/lvgl/src/extra/themes/basic/../../../../src/core/../misc/lv_style.h ****  * @note This function is the same as ::lv_style_get_prop but inlined. Use it only on performance c
 352:Middlewares/lvgl/src/extra/themes/basic/../../../../src/core/../misc/lv_style.h ****  */
 353:Middlewares/lvgl/src/extra/themes/basic/../../../../src/core/../misc/lv_style.h **** static inline lv_res_t lv_style_get_prop_inlined(lv_style_t * style, lv_style_prop_t prop, lv_style
 354:Middlewares/lvgl/src/extra/themes/basic/../../../../src/core/../misc/lv_style.h **** {
 355:Middlewares/lvgl/src/extra/themes/basic/../../../../src/core/../misc/lv_style.h ****     if(style->is_const) {
 356:Middlewares/lvgl/src/extra/themes/basic/../../../../src/core/../misc/lv_style.h ****         const lv_style_const_prop_t *const_prop;
 357:Middlewares/lvgl/src/extra/themes/basic/../../../../src/core/../misc/lv_style.h ****         for(const_prop = style->v_p.const_props; const_prop->prop != LV_STYLE_PROP_INV; const_prop+
 358:Middlewares/lvgl/src/extra/themes/basic/../../../../src/core/../misc/lv_style.h ****             if(const_prop->prop == prop) {
 359:Middlewares/lvgl/src/extra/themes/basic/../../../../src/core/../misc/lv_style.h ****                 *value = const_prop->value;
 360:Middlewares/lvgl/src/extra/themes/basic/../../../../src/core/../misc/lv_style.h ****                 return LV_RES_OK;
 361:Middlewares/lvgl/src/extra/themes/basic/../../../../src/core/../misc/lv_style.h ****             }
 362:Middlewares/lvgl/src/extra/themes/basic/../../../../src/core/../misc/lv_style.h ****         }
 363:Middlewares/lvgl/src/extra/themes/basic/../../../../src/core/../misc/lv_style.h ****         return LV_RES_INV;
 364:Middlewares/lvgl/src/extra/themes/basic/../../../../src/core/../misc/lv_style.h ****     }
 365:Middlewares/lvgl/src/extra/themes/basic/../../../../src/core/../misc/lv_style.h **** 
 366:Middlewares/lvgl/src/extra/themes/basic/../../../../src/core/../misc/lv_style.h ****     if(style->prop_cnt == 0) return LV_RES_INV;
 367:Middlewares/lvgl/src/extra/themes/basic/../../../../src/core/../misc/lv_style.h **** 
 368:Middlewares/lvgl/src/extra/themes/basic/../../../../src/core/../misc/lv_style.h ****     if(style->prop_cnt > 1) {
 369:Middlewares/lvgl/src/extra/themes/basic/../../../../src/core/../misc/lv_style.h ****         uint8_t * tmp = style->v_p.values_and_props + style->prop_cnt * sizeof(lv_style_value_t);
 370:Middlewares/lvgl/src/extra/themes/basic/../../../../src/core/../misc/lv_style.h ****         uint16_t * props = (uint16_t *)tmp;
 371:Middlewares/lvgl/src/extra/themes/basic/../../../../src/core/../misc/lv_style.h ****         uint32_t i;
 372:Middlewares/lvgl/src/extra/themes/basic/../../../../src/core/../misc/lv_style.h ****         for(i = 0; i < style->prop_cnt; i++) {
ARM GAS  /tmp/ccwx3eYd.s 			page 63


 373:Middlewares/lvgl/src/extra/themes/basic/../../../../src/core/../misc/lv_style.h ****             if(props[i] == prop) {
 374:Middlewares/lvgl/src/extra/themes/basic/../../../../src/core/../misc/lv_style.h ****                 lv_style_value_t * values = (lv_style_value_t *)style->v_p.values_and_props;
 375:Middlewares/lvgl/src/extra/themes/basic/../../../../src/core/../misc/lv_style.h ****                 *value = values[i];
 376:Middlewares/lvgl/src/extra/themes/basic/../../../../src/core/../misc/lv_style.h ****                 return LV_RES_OK;
 377:Middlewares/lvgl/src/extra/themes/basic/../../../../src/core/../misc/lv_style.h ****             }
 378:Middlewares/lvgl/src/extra/themes/basic/../../../../src/core/../misc/lv_style.h ****         }
 379:Middlewares/lvgl/src/extra/themes/basic/../../../../src/core/../misc/lv_style.h ****     } else if(style->prop1 == prop) {
 380:Middlewares/lvgl/src/extra/themes/basic/../../../../src/core/../misc/lv_style.h ****         *value = style->v_p.value1;
 381:Middlewares/lvgl/src/extra/themes/basic/../../../../src/core/../misc/lv_style.h ****         return LV_RES_OK;
 382:Middlewares/lvgl/src/extra/themes/basic/../../../../src/core/../misc/lv_style.h ****     }
 383:Middlewares/lvgl/src/extra/themes/basic/../../../../src/core/../misc/lv_style.h ****     return LV_RES_INV;
 384:Middlewares/lvgl/src/extra/themes/basic/../../../../src/core/../misc/lv_style.h **** }
 385:Middlewares/lvgl/src/extra/themes/basic/../../../../src/core/../misc/lv_style.h **** 
 386:Middlewares/lvgl/src/extra/themes/basic/../../../../src/core/../misc/lv_style.h **** /**
 387:Middlewares/lvgl/src/extra/themes/basic/../../../../src/core/../misc/lv_style.h ****  * Initialize a transition descriptor.
 388:Middlewares/lvgl/src/extra/themes/basic/../../../../src/core/../misc/lv_style.h ****  * @param tr        pointer to a transition descriptor to initialize
 389:Middlewares/lvgl/src/extra/themes/basic/../../../../src/core/../misc/lv_style.h ****  * @param props     an array with the properties to transition. The last element must be zero.
 390:Middlewares/lvgl/src/extra/themes/basic/../../../../src/core/../misc/lv_style.h ****  * @param path_cb   an animation path (ease) callback. If `NULL` liner path will be used.
 391:Middlewares/lvgl/src/extra/themes/basic/../../../../src/core/../misc/lv_style.h ****  * @param time      duration of the transition in [ms]
 392:Middlewares/lvgl/src/extra/themes/basic/../../../../src/core/../misc/lv_style.h ****  * @param delay     delay before the transition in [ms]
 393:Middlewares/lvgl/src/extra/themes/basic/../../../../src/core/../misc/lv_style.h ****  * @param user_data any custom data that will be saved in the transition animation and will be avai
 394:Middlewares/lvgl/src/extra/themes/basic/../../../../src/core/../misc/lv_style.h ****  * @example
 395:Middlewares/lvgl/src/extra/themes/basic/../../../../src/core/../misc/lv_style.h ****  * const static lv_style_prop_t trans_props[] = { LV_STYLE_BG_OPA, LV_STYLE_BG_COLOR, 0 };
 396:Middlewares/lvgl/src/extra/themes/basic/../../../../src/core/../misc/lv_style.h ****  *  static lv_style_transition_dsc_t trans1;
 397:Middlewares/lvgl/src/extra/themes/basic/../../../../src/core/../misc/lv_style.h ****  *  lv_style_transition_dsc_init(&trans1, trans_props, NULL, 300, 0, NULL);
 398:Middlewares/lvgl/src/extra/themes/basic/../../../../src/core/../misc/lv_style.h ****  */
 399:Middlewares/lvgl/src/extra/themes/basic/../../../../src/core/../misc/lv_style.h **** void lv_style_transition_dsc_init(lv_style_transition_dsc_t * tr, const lv_style_prop_t props[], lv
 400:Middlewares/lvgl/src/extra/themes/basic/../../../../src/core/../misc/lv_style.h **** 
 401:Middlewares/lvgl/src/extra/themes/basic/../../../../src/core/../misc/lv_style.h **** /**
 402:Middlewares/lvgl/src/extra/themes/basic/../../../../src/core/../misc/lv_style.h ****  * Get the default value of a property
 403:Middlewares/lvgl/src/extra/themes/basic/../../../../src/core/../misc/lv_style.h ****  * @param prop the ID of a property
 404:Middlewares/lvgl/src/extra/themes/basic/../../../../src/core/../misc/lv_style.h ****  * @return the default value
 405:Middlewares/lvgl/src/extra/themes/basic/../../../../src/core/../misc/lv_style.h ****  */
 406:Middlewares/lvgl/src/extra/themes/basic/../../../../src/core/../misc/lv_style.h **** lv_style_value_t lv_style_prop_get_default(lv_style_prop_t prop);
 407:Middlewares/lvgl/src/extra/themes/basic/../../../../src/core/../misc/lv_style.h **** 
 408:Middlewares/lvgl/src/extra/themes/basic/../../../../src/core/../misc/lv_style.h **** /**
 409:Middlewares/lvgl/src/extra/themes/basic/../../../../src/core/../misc/lv_style.h ****  * Checks if a style is empty (has no properties)
 410:Middlewares/lvgl/src/extra/themes/basic/../../../../src/core/../misc/lv_style.h ****  * @param style pointer to a style
 411:Middlewares/lvgl/src/extra/themes/basic/../../../../src/core/../misc/lv_style.h ****  * @return
 412:Middlewares/lvgl/src/extra/themes/basic/../../../../src/core/../misc/lv_style.h ****  */
 413:Middlewares/lvgl/src/extra/themes/basic/../../../../src/core/../misc/lv_style.h **** bool lv_style_is_empty(const lv_style_t * style);
 414:Middlewares/lvgl/src/extra/themes/basic/../../../../src/core/../misc/lv_style.h **** 
 415:Middlewares/lvgl/src/extra/themes/basic/../../../../src/core/../misc/lv_style.h **** /**
 416:Middlewares/lvgl/src/extra/themes/basic/../../../../src/core/../misc/lv_style.h ****  * Tell the group of a property. If the a property from a group is set in a style the (1 << group) 
 417:Middlewares/lvgl/src/extra/themes/basic/../../../../src/core/../misc/lv_style.h ****  * It allows early skipping the style if the property is not exists in the style at all.
 418:Middlewares/lvgl/src/extra/themes/basic/../../../../src/core/../misc/lv_style.h ****  * @param prop a style property
 419:Middlewares/lvgl/src/extra/themes/basic/../../../../src/core/../misc/lv_style.h ****  * @return the group [0..7] 7 means all the custom properties with index > 112
 420:Middlewares/lvgl/src/extra/themes/basic/../../../../src/core/../misc/lv_style.h ****  */
 421:Middlewares/lvgl/src/extra/themes/basic/../../../../src/core/../misc/lv_style.h **** uint8_t _lv_style_get_prop_group(lv_style_prop_t prop);
 422:Middlewares/lvgl/src/extra/themes/basic/../../../../src/core/../misc/lv_style.h **** 
 423:Middlewares/lvgl/src/extra/themes/basic/../../../../src/core/../misc/lv_style.h **** #include "lv_style_gen.h"
 424:Middlewares/lvgl/src/extra/themes/basic/../../../../src/core/../misc/lv_style.h **** 
 425:Middlewares/lvgl/src/extra/themes/basic/../../../../src/core/../misc/lv_style.h **** static inline void lv_style_set_pad_all(lv_style_t * style, lv_coord_t value) {
 1663              		.loc 3 425 20 is_stmt 1 discriminator 4 view .LVU478
 1664              	.LBB53:
 426:Middlewares/lvgl/src/extra/themes/basic/../../../../src/core/../misc/lv_style.h ****     lv_style_set_pad_left(style, value);
 1665              		.loc 3 426 5 discriminator 4 view .LVU479
ARM GAS  /tmp/ccwx3eYd.s 			page 64


 1666 0104 2146     		mov	r1, r4
 1667 0106 2846     		mov	r0, r5
 1668 0108 FFF7FEFF 		bl	lv_style_set_pad_left
 1669              	.LVL174:
 427:Middlewares/lvgl/src/extra/themes/basic/../../../../src/core/../misc/lv_style.h ****     lv_style_set_pad_right(style, value);
 1670              		.loc 3 427 5 discriminator 4 view .LVU480
 1671 010c 2146     		mov	r1, r4
 1672 010e 2846     		mov	r0, r5
 1673 0110 FFF7FEFF 		bl	lv_style_set_pad_right
 1674              	.LVL175:
 428:Middlewares/lvgl/src/extra/themes/basic/../../../../src/core/../misc/lv_style.h ****     lv_style_set_pad_top(style, value);
 1675              		.loc 3 428 5 discriminator 4 view .LVU481
 1676 0114 2146     		mov	r1, r4
 1677 0116 2846     		mov	r0, r5
 1678 0118 FFF7FEFF 		bl	lv_style_set_pad_top
 1679              	.LVL176:
 429:Middlewares/lvgl/src/extra/themes/basic/../../../../src/core/../misc/lv_style.h ****     lv_style_set_pad_bottom(style, value);
 1680              		.loc 3 429 5 discriminator 4 view .LVU482
 1681 011c 2146     		mov	r1, r4
 1682 011e 2846     		mov	r0, r5
 1683 0120 FFF7FEFF 		bl	lv_style_set_pad_bottom
 1684              	.LVL177:
 1685              		.loc 3 429 5 is_stmt 0 discriminator 4 view .LVU483
 1686              	.LBE53:
 1687              	.LBE52:
  98:Middlewares/lvgl/src/extra/themes/basic/lv_theme_basic.c ****     lv_style_set_line_width(&styles->light, LV_DPX(2));
 1688              		.loc 1 98 5 is_stmt 1 discriminator 4 view .LVU484
  98:Middlewares/lvgl/src/extra/themes/basic/lv_theme_basic.c ****     lv_style_set_line_width(&styles->light, LV_DPX(2));
 1689              		.loc 1 98 33 is_stmt 0 discriminator 4 view .LVU485
 1690 0124 8F4B     		ldr	r3, .L95
 1691 0126 1D68     		ldr	r5, [r3]
  98:Middlewares/lvgl/src/extra/themes/basic/lv_theme_basic.c ****     lv_style_set_line_width(&styles->light, LV_DPX(2));
 1692              		.loc 1 98 5 discriminator 4 view .LVU486
 1693 0128 0835     		adds	r5, r5, #8
  98:Middlewares/lvgl/src/extra/themes/basic/lv_theme_basic.c ****     lv_style_set_line_width(&styles->light, LV_DPX(2));
 1694              		.loc 1 98 42 discriminator 4 view .LVU487
 1695 012a 0020     		movs	r0, #0
 1696 012c FFF7FEFF 		bl	lv_disp_get_dpi
 1697              	.LVL178:
 1698 0130 00EB8000 		add	r0, r0, r0, lsl #2
  98:Middlewares/lvgl/src/extra/themes/basic/lv_theme_basic.c ****     lv_style_set_line_width(&styles->light, LV_DPX(2));
 1699              		.loc 1 98 5 discriminator 4 view .LVU488
 1700 0134 EF28     		cmp	r0, #239
 1701 0136 00F36281 		bgt	.L88
  98:Middlewares/lvgl/src/extra/themes/basic/lv_theme_basic.c ****     lv_style_set_line_width(&styles->light, LV_DPX(2));
 1702              		.loc 1 98 5 view .LVU489
 1703 013a 0024     		movs	r4, #0
 1704              	.L65:
 1705              	.LVL179:
 1706              	.LBB54:
 1707              	.LBI54:
 430:Middlewares/lvgl/src/extra/themes/basic/../../../../src/core/../misc/lv_style.h **** }
 431:Middlewares/lvgl/src/extra/themes/basic/../../../../src/core/../misc/lv_style.h **** 
 432:Middlewares/lvgl/src/extra/themes/basic/../../../../src/core/../misc/lv_style.h **** static inline void lv_style_set_pad_hor(lv_style_t * style, lv_coord_t value) {
 433:Middlewares/lvgl/src/extra/themes/basic/../../../../src/core/../misc/lv_style.h ****     lv_style_set_pad_left(style, value);
 434:Middlewares/lvgl/src/extra/themes/basic/../../../../src/core/../misc/lv_style.h ****     lv_style_set_pad_right(style, value);
 435:Middlewares/lvgl/src/extra/themes/basic/../../../../src/core/../misc/lv_style.h **** }
ARM GAS  /tmp/ccwx3eYd.s 			page 65


 436:Middlewares/lvgl/src/extra/themes/basic/../../../../src/core/../misc/lv_style.h **** 
 437:Middlewares/lvgl/src/extra/themes/basic/../../../../src/core/../misc/lv_style.h **** static inline void lv_style_set_pad_ver(lv_style_t * style, lv_coord_t value) {
 438:Middlewares/lvgl/src/extra/themes/basic/../../../../src/core/../misc/lv_style.h ****     lv_style_set_pad_top(style, value);
 439:Middlewares/lvgl/src/extra/themes/basic/../../../../src/core/../misc/lv_style.h ****     lv_style_set_pad_bottom(style, value);
 440:Middlewares/lvgl/src/extra/themes/basic/../../../../src/core/../misc/lv_style.h **** }
 441:Middlewares/lvgl/src/extra/themes/basic/../../../../src/core/../misc/lv_style.h **** 
 442:Middlewares/lvgl/src/extra/themes/basic/../../../../src/core/../misc/lv_style.h **** static inline void lv_style_set_pad_gap(lv_style_t * style, lv_coord_t value) {
 1708              		.loc 3 442 20 is_stmt 1 discriminator 4 view .LVU490
 1709              	.LBB55:
 443:Middlewares/lvgl/src/extra/themes/basic/../../../../src/core/../misc/lv_style.h ****     lv_style_set_pad_row(style, value);
 1710              		.loc 3 443 5 discriminator 4 view .LVU491
 1711 013c 2146     		mov	r1, r4
 1712 013e 2846     		mov	r0, r5
 1713 0140 FFF7FEFF 		bl	lv_style_set_pad_row
 1714              	.LVL180:
 444:Middlewares/lvgl/src/extra/themes/basic/../../../../src/core/../misc/lv_style.h ****     lv_style_set_pad_column(style, value);
 1715              		.loc 3 444 5 discriminator 4 view .LVU492
 1716 0144 2146     		mov	r1, r4
 1717 0146 2846     		mov	r0, r5
 1718 0148 FFF7FEFF 		bl	lv_style_set_pad_column
 1719              	.LVL181:
 1720              		.loc 3 444 5 is_stmt 0 discriminator 4 view .LVU493
 1721              	.LBE55:
 1722              	.LBE54:
  99:Middlewares/lvgl/src/extra/themes/basic/lv_theme_basic.c ****     lv_style_set_line_color(&styles->light, COLOR_MID);
 1723              		.loc 1 99 5 is_stmt 1 discriminator 4 view .LVU494
  99:Middlewares/lvgl/src/extra/themes/basic/lv_theme_basic.c ****     lv_style_set_line_color(&styles->light, COLOR_MID);
 1724              		.loc 1 99 36 is_stmt 0 discriminator 4 view .LVU495
 1725 014c 854B     		ldr	r3, .L95
 1726 014e 1C68     		ldr	r4, [r3]
  99:Middlewares/lvgl/src/extra/themes/basic/lv_theme_basic.c ****     lv_style_set_line_color(&styles->light, COLOR_MID);
 1727              		.loc 1 99 5 discriminator 4 view .LVU496
 1728 0150 0834     		adds	r4, r4, #8
  99:Middlewares/lvgl/src/extra/themes/basic/lv_theme_basic.c ****     lv_style_set_line_color(&styles->light, COLOR_MID);
 1729              		.loc 1 99 45 discriminator 4 view .LVU497
 1730 0152 0020     		movs	r0, #0
 1731 0154 FFF7FEFF 		bl	lv_disp_get_dpi
 1732              	.LVL182:
  99:Middlewares/lvgl/src/extra/themes/basic/lv_theme_basic.c ****     lv_style_set_line_color(&styles->light, COLOR_MID);
 1733              		.loc 1 99 5 discriminator 4 view .LVU498
 1734 0158 7728     		cmp	r0, #119
 1735 015a 00F35F81 		bgt	.L89
  99:Middlewares/lvgl/src/extra/themes/basic/lv_theme_basic.c ****     lv_style_set_line_color(&styles->light, COLOR_MID);
 1736              		.loc 1 99 5 view .LVU499
 1737 015e 0121     		movs	r1, #1
 1738              	.L66:
  99:Middlewares/lvgl/src/extra/themes/basic/lv_theme_basic.c ****     lv_style_set_line_color(&styles->light, COLOR_MID);
 1739              		.loc 1 99 5 discriminator 4 view .LVU500
 1740 0160 2046     		mov	r0, r4
 1741 0162 FFF7FEFF 		bl	lv_style_set_line_width
 1742              	.LVL183:
 100:Middlewares/lvgl/src/extra/themes/basic/lv_theme_basic.c ****     lv_style_set_arc_width(&styles->light, LV_DPX(2));
 1743              		.loc 1 100 5 is_stmt 1 discriminator 4 view .LVU501
 100:Middlewares/lvgl/src/extra/themes/basic/lv_theme_basic.c ****     lv_style_set_arc_width(&styles->light, LV_DPX(2));
 1744              		.loc 1 100 36 is_stmt 0 discriminator 4 view .LVU502
 1745 0166 7F4C     		ldr	r4, .L95
 1746 0168 2568     		ldr	r5, [r4]
ARM GAS  /tmp/ccwx3eYd.s 			page 66


 100:Middlewares/lvgl/src/extra/themes/basic/lv_theme_basic.c ****     lv_style_set_arc_width(&styles->light, LV_DPX(2));
 1747              		.loc 1 100 5 discriminator 4 view .LVU503
 1748 016a 0121     		movs	r1, #1
 1749 016c 1220     		movs	r0, #18
 1750 016e FFF7FEFF 		bl	lv_palette_lighten
 1751              	.LVL184:
 1752 0172 0146     		mov	r1, r0	@ movhi
 1753 0174 05F10800 		add	r0, r5, #8
 1754 0178 FFF7FEFF 		bl	lv_style_set_line_color
 1755              	.LVL185:
 101:Middlewares/lvgl/src/extra/themes/basic/lv_theme_basic.c ****     lv_style_set_arc_color(&styles->light, COLOR_MID);
 1756              		.loc 1 101 5 is_stmt 1 discriminator 4 view .LVU504
 101:Middlewares/lvgl/src/extra/themes/basic/lv_theme_basic.c ****     lv_style_set_arc_color(&styles->light, COLOR_MID);
 1757              		.loc 1 101 35 is_stmt 0 discriminator 4 view .LVU505
 1758 017c 2468     		ldr	r4, [r4]
 101:Middlewares/lvgl/src/extra/themes/basic/lv_theme_basic.c ****     lv_style_set_arc_color(&styles->light, COLOR_MID);
 1759              		.loc 1 101 5 discriminator 4 view .LVU506
 1760 017e 0834     		adds	r4, r4, #8
 101:Middlewares/lvgl/src/extra/themes/basic/lv_theme_basic.c ****     lv_style_set_arc_color(&styles->light, COLOR_MID);
 1761              		.loc 1 101 44 discriminator 4 view .LVU507
 1762 0180 0020     		movs	r0, #0
 1763 0182 FFF7FEFF 		bl	lv_disp_get_dpi
 1764              	.LVL186:
 101:Middlewares/lvgl/src/extra/themes/basic/lv_theme_basic.c ****     lv_style_set_arc_color(&styles->light, COLOR_MID);
 1765              		.loc 1 101 5 discriminator 4 view .LVU508
 1766 0186 7728     		cmp	r0, #119
 1767 0188 00F35481 		bgt	.L90
 101:Middlewares/lvgl/src/extra/themes/basic/lv_theme_basic.c ****     lv_style_set_arc_color(&styles->light, COLOR_MID);
 1768              		.loc 1 101 5 view .LVU509
 1769 018c 0121     		movs	r1, #1
 1770              	.L67:
 101:Middlewares/lvgl/src/extra/themes/basic/lv_theme_basic.c ****     lv_style_set_arc_color(&styles->light, COLOR_MID);
 1771              		.loc 1 101 5 discriminator 4 view .LVU510
 1772 018e 2046     		mov	r0, r4
 1773 0190 FFF7FEFF 		bl	lv_style_set_arc_width
 1774              	.LVL187:
 102:Middlewares/lvgl/src/extra/themes/basic/lv_theme_basic.c **** 
 1775              		.loc 1 102 5 is_stmt 1 discriminator 4 view .LVU511
 102:Middlewares/lvgl/src/extra/themes/basic/lv_theme_basic.c **** 
 1776              		.loc 1 102 35 is_stmt 0 discriminator 4 view .LVU512
 1777 0194 734C     		ldr	r4, .L95
 1778 0196 2568     		ldr	r5, [r4]
 102:Middlewares/lvgl/src/extra/themes/basic/lv_theme_basic.c **** 
 1779              		.loc 1 102 5 discriminator 4 view .LVU513
 1780 0198 0121     		movs	r1, #1
 1781 019a 1220     		movs	r0, #18
 1782 019c FFF7FEFF 		bl	lv_palette_lighten
 1783              	.LVL188:
 1784 01a0 0146     		mov	r1, r0	@ movhi
 1785 01a2 05F10800 		add	r0, r5, #8
 1786 01a6 FFF7FEFF 		bl	lv_style_set_arc_color
 1787              	.LVL189:
 104:Middlewares/lvgl/src/extra/themes/basic/lv_theme_basic.c ****     lv_style_set_bg_opa(&styles->dark, LV_OPA_COVER);
 1788              		.loc 1 104 5 is_stmt 1 discriminator 4 view .LVU514
 104:Middlewares/lvgl/src/extra/themes/basic/lv_theme_basic.c ****     lv_style_set_bg_opa(&styles->dark, LV_OPA_COVER);
 1789              		.loc 1 104 29 is_stmt 0 discriminator 4 view .LVU515
 1790 01aa 2068     		ldr	r0, [r4]
ARM GAS  /tmp/ccwx3eYd.s 			page 67


 104:Middlewares/lvgl/src/extra/themes/basic/lv_theme_basic.c ****     lv_style_set_bg_opa(&styles->dark, LV_OPA_COVER);
 1791              		.loc 1 104 5 discriminator 4 view .LVU516
 1792 01ac 1030     		adds	r0, r0, #16
 1793 01ae FFF7FEFF 		bl	style_init_reset
 1794              	.LVL190:
 105:Middlewares/lvgl/src/extra/themes/basic/lv_theme_basic.c ****     lv_style_set_bg_color(&styles->dark, COLOR_DARK);
 1795              		.loc 1 105 5 is_stmt 1 discriminator 4 view .LVU517
 105:Middlewares/lvgl/src/extra/themes/basic/lv_theme_basic.c ****     lv_style_set_bg_color(&styles->dark, COLOR_DARK);
 1796              		.loc 1 105 32 is_stmt 0 discriminator 4 view .LVU518
 1797 01b2 2068     		ldr	r0, [r4]
 105:Middlewares/lvgl/src/extra/themes/basic/lv_theme_basic.c ****     lv_style_set_bg_color(&styles->dark, COLOR_DARK);
 1798              		.loc 1 105 5 discriminator 4 view .LVU519
 1799 01b4 FF21     		movs	r1, #255
 1800 01b6 1030     		adds	r0, r0, #16
 1801 01b8 FFF7FEFF 		bl	lv_style_set_bg_opa
 1802              	.LVL191:
 106:Middlewares/lvgl/src/extra/themes/basic/lv_theme_basic.c ****     lv_style_set_border_color(&styles->dark, COLOR_DIM);
 1803              		.loc 1 106 5 is_stmt 1 discriminator 4 view .LVU520
 106:Middlewares/lvgl/src/extra/themes/basic/lv_theme_basic.c ****     lv_style_set_border_color(&styles->dark, COLOR_DIM);
 1804              		.loc 1 106 34 is_stmt 0 discriminator 4 view .LVU521
 1805 01bc 2568     		ldr	r5, [r4]
 106:Middlewares/lvgl/src/extra/themes/basic/lv_theme_basic.c ****     lv_style_set_border_color(&styles->dark, COLOR_DIM);
 1806              		.loc 1 106 5 discriminator 4 view .LVU522
 1807 01be 1220     		movs	r0, #18
 1808 01c0 FFF7FEFF 		bl	lv_palette_main
 1809              	.LVL192:
 1810 01c4 0146     		mov	r1, r0	@ movhi
 1811 01c6 05F11000 		add	r0, r5, #16
 1812 01ca FFF7FEFF 		bl	lv_style_set_bg_color
 1813              	.LVL193:
 107:Middlewares/lvgl/src/extra/themes/basic/lv_theme_basic.c ****     lv_style_set_border_width(&styles->dark, 1);
 1814              		.loc 1 107 5 is_stmt 1 discriminator 4 view .LVU523
 107:Middlewares/lvgl/src/extra/themes/basic/lv_theme_basic.c ****     lv_style_set_border_width(&styles->dark, 1);
 1815              		.loc 1 107 38 is_stmt 0 discriminator 4 view .LVU524
 1816 01ce 2568     		ldr	r5, [r4]
 107:Middlewares/lvgl/src/extra/themes/basic/lv_theme_basic.c ****     lv_style_set_border_width(&styles->dark, 1);
 1817              		.loc 1 107 5 discriminator 4 view .LVU525
 1818 01d0 0221     		movs	r1, #2
 1819 01d2 1220     		movs	r0, #18
 1820 01d4 FFF7FEFF 		bl	lv_palette_darken
 1821              	.LVL194:
 1822 01d8 0146     		mov	r1, r0	@ movhi
 1823 01da 05F11000 		add	r0, r5, #16
 1824 01de FFF7FEFF 		bl	lv_style_set_border_color
 1825              	.LVL195:
 108:Middlewares/lvgl/src/extra/themes/basic/lv_theme_basic.c ****     lv_style_set_pad_all(&styles->dark, PAD_DEF);
 1826              		.loc 1 108 5 is_stmt 1 discriminator 4 view .LVU526
 108:Middlewares/lvgl/src/extra/themes/basic/lv_theme_basic.c ****     lv_style_set_pad_all(&styles->dark, PAD_DEF);
 1827              		.loc 1 108 38 is_stmt 0 discriminator 4 view .LVU527
 1828 01e2 2068     		ldr	r0, [r4]
 108:Middlewares/lvgl/src/extra/themes/basic/lv_theme_basic.c ****     lv_style_set_pad_all(&styles->dark, PAD_DEF);
 1829              		.loc 1 108 5 discriminator 4 view .LVU528
 1830 01e4 0121     		movs	r1, #1
 1831 01e6 1030     		adds	r0, r0, #16
 1832 01e8 FFF7FEFF 		bl	lv_style_set_border_width
 1833              	.LVL196:
 109:Middlewares/lvgl/src/extra/themes/basic/lv_theme_basic.c ****     lv_style_set_pad_gap(&styles->dark, PAD_DEF / 2);
ARM GAS  /tmp/ccwx3eYd.s 			page 68


 1834              		.loc 1 109 5 is_stmt 1 discriminator 4 view .LVU529
 109:Middlewares/lvgl/src/extra/themes/basic/lv_theme_basic.c ****     lv_style_set_pad_gap(&styles->dark, PAD_DEF / 2);
 1835              		.loc 1 109 33 is_stmt 0 discriminator 4 view .LVU530
 1836 01ec 2568     		ldr	r5, [r4]
 109:Middlewares/lvgl/src/extra/themes/basic/lv_theme_basic.c ****     lv_style_set_pad_gap(&styles->dark, PAD_DEF / 2);
 1837              		.loc 1 109 5 discriminator 4 view .LVU531
 1838 01ee 1035     		adds	r5, r5, #16
 109:Middlewares/lvgl/src/extra/themes/basic/lv_theme_basic.c ****     lv_style_set_pad_gap(&styles->dark, PAD_DEF / 2);
 1839              		.loc 1 109 41 discriminator 4 view .LVU532
 1840 01f0 0020     		movs	r0, #0
 1841 01f2 FFF7FEFF 		bl	lv_disp_get_dpi
 1842              	.LVL197:
 1843 01f6 00EB8000 		add	r0, r0, r0, lsl #2
 109:Middlewares/lvgl/src/extra/themes/basic/lv_theme_basic.c ****     lv_style_set_pad_gap(&styles->dark, PAD_DEF / 2);
 1844              		.loc 1 109 5 discriminator 4 view .LVU533
 1845 01fa EF28     		cmp	r0, #239
 1846 01fc 00F32681 		bgt	.L91
 109:Middlewares/lvgl/src/extra/themes/basic/lv_theme_basic.c ****     lv_style_set_pad_gap(&styles->dark, PAD_DEF / 2);
 1847              		.loc 1 109 5 view .LVU534
 1848 0200 0124     		movs	r4, #1
 1849              	.L68:
 1850              	.LVL198:
 1851              	.LBB56:
 1852              	.LBI56:
 425:Middlewares/lvgl/src/extra/themes/basic/../../../../src/core/../misc/lv_style.h ****     lv_style_set_pad_left(style, value);
 1853              		.loc 3 425 20 is_stmt 1 discriminator 4 view .LVU535
 1854              	.LBB57:
 426:Middlewares/lvgl/src/extra/themes/basic/../../../../src/core/../misc/lv_style.h ****     lv_style_set_pad_right(style, value);
 1855              		.loc 3 426 5 discriminator 4 view .LVU536
 1856 0202 2146     		mov	r1, r4
 1857 0204 2846     		mov	r0, r5
 1858 0206 FFF7FEFF 		bl	lv_style_set_pad_left
 1859              	.LVL199:
 427:Middlewares/lvgl/src/extra/themes/basic/../../../../src/core/../misc/lv_style.h ****     lv_style_set_pad_top(style, value);
 1860              		.loc 3 427 5 discriminator 4 view .LVU537
 1861 020a 2146     		mov	r1, r4
 1862 020c 2846     		mov	r0, r5
 1863 020e FFF7FEFF 		bl	lv_style_set_pad_right
 1864              	.LVL200:
 428:Middlewares/lvgl/src/extra/themes/basic/../../../../src/core/../misc/lv_style.h ****     lv_style_set_pad_bottom(style, value);
 1865              		.loc 3 428 5 discriminator 4 view .LVU538
 1866 0212 2146     		mov	r1, r4
 1867 0214 2846     		mov	r0, r5
 1868 0216 FFF7FEFF 		bl	lv_style_set_pad_top
 1869              	.LVL201:
 429:Middlewares/lvgl/src/extra/themes/basic/../../../../src/core/../misc/lv_style.h **** }
 1870              		.loc 3 429 5 discriminator 4 view .LVU539
 1871 021a 2146     		mov	r1, r4
 1872 021c 2846     		mov	r0, r5
 1873 021e FFF7FEFF 		bl	lv_style_set_pad_bottom
 1874              	.LVL202:
 429:Middlewares/lvgl/src/extra/themes/basic/../../../../src/core/../misc/lv_style.h **** }
 1875              		.loc 3 429 5 is_stmt 0 discriminator 4 view .LVU540
 1876              	.LBE57:
 1877              	.LBE56:
 110:Middlewares/lvgl/src/extra/themes/basic/lv_theme_basic.c ****     lv_style_set_line_width(&styles->dark, LV_DPX(2));
 1878              		.loc 1 110 5 is_stmt 1 discriminator 4 view .LVU541
ARM GAS  /tmp/ccwx3eYd.s 			page 69


 110:Middlewares/lvgl/src/extra/themes/basic/lv_theme_basic.c ****     lv_style_set_line_width(&styles->dark, LV_DPX(2));
 1879              		.loc 1 110 33 is_stmt 0 discriminator 4 view .LVU542
 1880 0222 504B     		ldr	r3, .L95
 1881 0224 1D68     		ldr	r5, [r3]
 110:Middlewares/lvgl/src/extra/themes/basic/lv_theme_basic.c ****     lv_style_set_line_width(&styles->dark, LV_DPX(2));
 1882              		.loc 1 110 5 discriminator 4 view .LVU543
 1883 0226 1035     		adds	r5, r5, #16
 110:Middlewares/lvgl/src/extra/themes/basic/lv_theme_basic.c ****     lv_style_set_line_width(&styles->dark, LV_DPX(2));
 1884              		.loc 1 110 41 discriminator 4 view .LVU544
 1885 0228 0020     		movs	r0, #0
 1886 022a FFF7FEFF 		bl	lv_disp_get_dpi
 1887              	.LVL203:
 1888 022e 00EB8000 		add	r0, r0, r0, lsl #2
 110:Middlewares/lvgl/src/extra/themes/basic/lv_theme_basic.c ****     lv_style_set_line_width(&styles->dark, LV_DPX(2));
 1889              		.loc 1 110 5 discriminator 4 view .LVU545
 1890 0232 EF28     		cmp	r0, #239
 1891 0234 00F31981 		bgt	.L92
 110:Middlewares/lvgl/src/extra/themes/basic/lv_theme_basic.c ****     lv_style_set_line_width(&styles->dark, LV_DPX(2));
 1892              		.loc 1 110 5 view .LVU546
 1893 0238 0024     		movs	r4, #0
 1894              	.L69:
 1895              	.LVL204:
 1896              	.LBB58:
 1897              	.LBI58:
 442:Middlewares/lvgl/src/extra/themes/basic/../../../../src/core/../misc/lv_style.h ****     lv_style_set_pad_row(style, value);
 1898              		.loc 3 442 20 is_stmt 1 discriminator 4 view .LVU547
 1899              	.LBB59:
 443:Middlewares/lvgl/src/extra/themes/basic/../../../../src/core/../misc/lv_style.h ****     lv_style_set_pad_column(style, value);
 1900              		.loc 3 443 5 discriminator 4 view .LVU548
 1901 023a 2146     		mov	r1, r4
 1902 023c 2846     		mov	r0, r5
 1903 023e FFF7FEFF 		bl	lv_style_set_pad_row
 1904              	.LVL205:
 1905              		.loc 3 444 5 discriminator 4 view .LVU549
 1906 0242 2146     		mov	r1, r4
 1907 0244 2846     		mov	r0, r5
 1908 0246 FFF7FEFF 		bl	lv_style_set_pad_column
 1909              	.LVL206:
 1910              		.loc 3 444 5 is_stmt 0 discriminator 4 view .LVU550
 1911              	.LBE59:
 1912              	.LBE58:
 111:Middlewares/lvgl/src/extra/themes/basic/lv_theme_basic.c ****     lv_style_set_line_color(&styles->dark, COLOR_DIM);
 1913              		.loc 1 111 5 is_stmt 1 discriminator 4 view .LVU551
 111:Middlewares/lvgl/src/extra/themes/basic/lv_theme_basic.c ****     lv_style_set_line_color(&styles->dark, COLOR_DIM);
 1914              		.loc 1 111 36 is_stmt 0 discriminator 4 view .LVU552
 1915 024a 464B     		ldr	r3, .L95
 1916 024c 1C68     		ldr	r4, [r3]
 111:Middlewares/lvgl/src/extra/themes/basic/lv_theme_basic.c ****     lv_style_set_line_color(&styles->dark, COLOR_DIM);
 1917              		.loc 1 111 5 discriminator 4 view .LVU553
 1918 024e 1034     		adds	r4, r4, #16
 111:Middlewares/lvgl/src/extra/themes/basic/lv_theme_basic.c ****     lv_style_set_line_color(&styles->dark, COLOR_DIM);
 1919              		.loc 1 111 44 discriminator 4 view .LVU554
 1920 0250 0020     		movs	r0, #0
 1921 0252 FFF7FEFF 		bl	lv_disp_get_dpi
 1922              	.LVL207:
 111:Middlewares/lvgl/src/extra/themes/basic/lv_theme_basic.c ****     lv_style_set_line_color(&styles->dark, COLOR_DIM);
 1923              		.loc 1 111 5 discriminator 4 view .LVU555
ARM GAS  /tmp/ccwx3eYd.s 			page 70


 1924 0256 7728     		cmp	r0, #119
 1925 0258 00F31681 		bgt	.L93
 111:Middlewares/lvgl/src/extra/themes/basic/lv_theme_basic.c ****     lv_style_set_line_color(&styles->dark, COLOR_DIM);
 1926              		.loc 1 111 5 view .LVU556
 1927 025c 0121     		movs	r1, #1
 1928              	.L70:
 111:Middlewares/lvgl/src/extra/themes/basic/lv_theme_basic.c ****     lv_style_set_line_color(&styles->dark, COLOR_DIM);
 1929              		.loc 1 111 5 discriminator 4 view .LVU557
 1930 025e 2046     		mov	r0, r4
 1931 0260 FFF7FEFF 		bl	lv_style_set_line_width
 1932              	.LVL208:
 112:Middlewares/lvgl/src/extra/themes/basic/lv_theme_basic.c ****     lv_style_set_arc_width(&styles->dark, LV_DPX(2));
 1933              		.loc 1 112 5 is_stmt 1 discriminator 4 view .LVU558
 112:Middlewares/lvgl/src/extra/themes/basic/lv_theme_basic.c ****     lv_style_set_arc_width(&styles->dark, LV_DPX(2));
 1934              		.loc 1 112 36 is_stmt 0 discriminator 4 view .LVU559
 1935 0264 3F4C     		ldr	r4, .L95
 1936 0266 2568     		ldr	r5, [r4]
 112:Middlewares/lvgl/src/extra/themes/basic/lv_theme_basic.c ****     lv_style_set_arc_width(&styles->dark, LV_DPX(2));
 1937              		.loc 1 112 5 discriminator 4 view .LVU560
 1938 0268 0221     		movs	r1, #2
 1939 026a 1220     		movs	r0, #18
 1940 026c FFF7FEFF 		bl	lv_palette_darken
 1941              	.LVL209:
 1942 0270 0146     		mov	r1, r0	@ movhi
 1943 0272 05F11000 		add	r0, r5, #16
 1944 0276 FFF7FEFF 		bl	lv_style_set_line_color
 1945              	.LVL210:
 113:Middlewares/lvgl/src/extra/themes/basic/lv_theme_basic.c ****     lv_style_set_arc_color(&styles->dark, COLOR_DIM);
 1946              		.loc 1 113 5 is_stmt 1 discriminator 4 view .LVU561
 113:Middlewares/lvgl/src/extra/themes/basic/lv_theme_basic.c ****     lv_style_set_arc_color(&styles->dark, COLOR_DIM);
 1947              		.loc 1 113 35 is_stmt 0 discriminator 4 view .LVU562
 1948 027a 2468     		ldr	r4, [r4]
 113:Middlewares/lvgl/src/extra/themes/basic/lv_theme_basic.c ****     lv_style_set_arc_color(&styles->dark, COLOR_DIM);
 1949              		.loc 1 113 5 discriminator 4 view .LVU563
 1950 027c 1034     		adds	r4, r4, #16
 113:Middlewares/lvgl/src/extra/themes/basic/lv_theme_basic.c ****     lv_style_set_arc_color(&styles->dark, COLOR_DIM);
 1951              		.loc 1 113 43 discriminator 4 view .LVU564
 1952 027e 0020     		movs	r0, #0
 1953 0280 FFF7FEFF 		bl	lv_disp_get_dpi
 1954              	.LVL211:
 113:Middlewares/lvgl/src/extra/themes/basic/lv_theme_basic.c ****     lv_style_set_arc_color(&styles->dark, COLOR_DIM);
 1955              		.loc 1 113 5 discriminator 4 view .LVU565
 1956 0284 7728     		cmp	r0, #119
 1957 0286 00F30B81 		bgt	.L94
 113:Middlewares/lvgl/src/extra/themes/basic/lv_theme_basic.c ****     lv_style_set_arc_color(&styles->dark, COLOR_DIM);
 1958              		.loc 1 113 5 view .LVU566
 1959 028a 0121     		movs	r1, #1
 1960              	.L71:
 113:Middlewares/lvgl/src/extra/themes/basic/lv_theme_basic.c ****     lv_style_set_arc_color(&styles->dark, COLOR_DIM);
 1961              		.loc 1 113 5 discriminator 4 view .LVU567
 1962 028c 2046     		mov	r0, r4
 1963 028e FFF7FEFF 		bl	lv_style_set_arc_width
 1964              	.LVL212:
 114:Middlewares/lvgl/src/extra/themes/basic/lv_theme_basic.c **** 
 1965              		.loc 1 114 5 is_stmt 1 discriminator 4 view .LVU568
 114:Middlewares/lvgl/src/extra/themes/basic/lv_theme_basic.c **** 
 1966              		.loc 1 114 35 is_stmt 0 discriminator 4 view .LVU569
ARM GAS  /tmp/ccwx3eYd.s 			page 71


 1967 0292 344C     		ldr	r4, .L95
 1968 0294 2568     		ldr	r5, [r4]
 114:Middlewares/lvgl/src/extra/themes/basic/lv_theme_basic.c **** 
 1969              		.loc 1 114 5 discriminator 4 view .LVU570
 1970 0296 0221     		movs	r1, #2
 1971 0298 1220     		movs	r0, #18
 1972 029a FFF7FEFF 		bl	lv_palette_darken
 1973              	.LVL213:
 1974 029e 0146     		mov	r1, r0	@ movhi
 1975 02a0 05F11000 		add	r0, r5, #16
 1976 02a4 FFF7FEFF 		bl	lv_style_set_arc_color
 1977              	.LVL214:
 116:Middlewares/lvgl/src/extra/themes/basic/lv_theme_basic.c ****     lv_color_filter_dsc_init(&dark_filter, dark_color_filter_cb);
 1978              		.loc 1 116 5 is_stmt 1 discriminator 4 view .LVU571
 117:Middlewares/lvgl/src/extra/themes/basic/lv_theme_basic.c **** 
 1979              		.loc 1 117 5 discriminator 4 view .LVU572
 1980              	.LBB60:
 1981              	.LBI60:
 618:Middlewares/lvgl/src/extra/themes/basic/../../../../src/hal/../misc/lv_color.h **** {
 1982              		.loc 2 618 20 discriminator 4 view .LVU573
 1983              	.LBB61:
 620:Middlewares/lvgl/src/extra/themes/basic/../../../../src/hal/../misc/lv_color.h **** }
 1984              		.loc 2 620 5 discriminator 4 view .LVU574
 620:Middlewares/lvgl/src/extra/themes/basic/../../../../src/hal/../misc/lv_color.h **** }
 1985              		.loc 2 620 20 is_stmt 0 discriminator 4 view .LVU575
 1986 02a8 2F4D     		ldr	r5, .L95+4
 1987 02aa 304B     		ldr	r3, .L95+8
 1988 02ac 2B60     		str	r3, [r5]
 1989              	.LVL215:
 620:Middlewares/lvgl/src/extra/themes/basic/../../../../src/hal/../misc/lv_color.h **** }
 1990              		.loc 2 620 20 discriminator 4 view .LVU576
 1991              	.LBE61:
 1992              	.LBE60:
 119:Middlewares/lvgl/src/extra/themes/basic/lv_theme_basic.c ****     lv_style_set_color_filter_dsc(&styles->pressed, &dark_filter);
 1993              		.loc 1 119 5 is_stmt 1 discriminator 4 view .LVU577
 119:Middlewares/lvgl/src/extra/themes/basic/lv_theme_basic.c ****     lv_style_set_color_filter_dsc(&styles->pressed, &dark_filter);
 1994              		.loc 1 119 29 is_stmt 0 discriminator 4 view .LVU578
 1995 02ae 2068     		ldr	r0, [r4]
 119:Middlewares/lvgl/src/extra/themes/basic/lv_theme_basic.c ****     lv_style_set_color_filter_dsc(&styles->pressed, &dark_filter);
 1996              		.loc 1 119 5 discriminator 4 view .LVU579
 1997 02b0 2030     		adds	r0, r0, #32
 1998 02b2 FFF7FEFF 		bl	style_init_reset
 1999              	.LVL216:
 120:Middlewares/lvgl/src/extra/themes/basic/lv_theme_basic.c ****     lv_style_set_color_filter_opa(&styles->pressed, 35);
 2000              		.loc 1 120 5 is_stmt 1 discriminator 4 view .LVU580
 120:Middlewares/lvgl/src/extra/themes/basic/lv_theme_basic.c ****     lv_style_set_color_filter_opa(&styles->pressed, 35);
 2001              		.loc 1 120 42 is_stmt 0 discriminator 4 view .LVU581
 2002 02b6 2068     		ldr	r0, [r4]
 120:Middlewares/lvgl/src/extra/themes/basic/lv_theme_basic.c ****     lv_style_set_color_filter_opa(&styles->pressed, 35);
 2003              		.loc 1 120 5 discriminator 4 view .LVU582
 2004 02b8 2946     		mov	r1, r5
 2005 02ba 2030     		adds	r0, r0, #32
 2006 02bc FFF7FEFF 		bl	lv_style_set_color_filter_dsc
 2007              	.LVL217:
 121:Middlewares/lvgl/src/extra/themes/basic/lv_theme_basic.c **** 
 2008              		.loc 1 121 5 is_stmt 1 discriminator 4 view .LVU583
 121:Middlewares/lvgl/src/extra/themes/basic/lv_theme_basic.c **** 
ARM GAS  /tmp/ccwx3eYd.s 			page 72


 2009              		.loc 1 121 42 is_stmt 0 discriminator 4 view .LVU584
 2010 02c0 2068     		ldr	r0, [r4]
 121:Middlewares/lvgl/src/extra/themes/basic/lv_theme_basic.c **** 
 2011              		.loc 1 121 5 discriminator 4 view .LVU585
 2012 02c2 2321     		movs	r1, #35
 2013 02c4 2030     		adds	r0, r0, #32
 2014 02c6 FFF7FEFF 		bl	lv_style_set_color_filter_opa
 2015              	.LVL218:
 123:Middlewares/lvgl/src/extra/themes/basic/lv_theme_basic.c ****     lv_color_filter_dsc_init(&grey_filter, grey_filter_cb);
 2016              		.loc 1 123 5 is_stmt 1 discriminator 4 view .LVU586
 124:Middlewares/lvgl/src/extra/themes/basic/lv_theme_basic.c **** 
 2017              		.loc 1 124 5 discriminator 4 view .LVU587
 2018              	.LBB62:
 2019              	.LBI62:
 618:Middlewares/lvgl/src/extra/themes/basic/../../../../src/hal/../misc/lv_color.h **** {
 2020              		.loc 2 618 20 discriminator 4 view .LVU588
 2021              	.LBB63:
 620:Middlewares/lvgl/src/extra/themes/basic/../../../../src/hal/../misc/lv_color.h **** }
 2022              		.loc 2 620 5 discriminator 4 view .LVU589
 620:Middlewares/lvgl/src/extra/themes/basic/../../../../src/hal/../misc/lv_color.h **** }
 2023              		.loc 2 620 20 is_stmt 0 discriminator 4 view .LVU590
 2024 02ca 294D     		ldr	r5, .L95+12
 2025 02cc 294B     		ldr	r3, .L95+16
 2026 02ce 2B60     		str	r3, [r5]
 2027              	.LVL219:
 620:Middlewares/lvgl/src/extra/themes/basic/../../../../src/hal/../misc/lv_color.h **** }
 2028              		.loc 2 620 20 discriminator 4 view .LVU591
 2029              	.LBE63:
 2030              	.LBE62:
 126:Middlewares/lvgl/src/extra/themes/basic/lv_theme_basic.c ****     lv_style_set_color_filter_dsc(&styles->disabled, &grey_filter);
 2031              		.loc 1 126 5 is_stmt 1 discriminator 4 view .LVU592
 126:Middlewares/lvgl/src/extra/themes/basic/lv_theme_basic.c ****     lv_style_set_color_filter_dsc(&styles->disabled, &grey_filter);
 2032              		.loc 1 126 29 is_stmt 0 discriminator 4 view .LVU593
 2033 02d0 2068     		ldr	r0, [r4]
 126:Middlewares/lvgl/src/extra/themes/basic/lv_theme_basic.c ****     lv_style_set_color_filter_dsc(&styles->disabled, &grey_filter);
 2034              		.loc 1 126 5 discriminator 4 view .LVU594
 2035 02d2 2830     		adds	r0, r0, #40
 2036 02d4 FFF7FEFF 		bl	style_init_reset
 2037              	.LVL220:
 127:Middlewares/lvgl/src/extra/themes/basic/lv_theme_basic.c ****     lv_style_set_color_filter_opa(&styles->disabled, LV_OPA_70);
 2038              		.loc 1 127 5 is_stmt 1 discriminator 4 view .LVU595
 127:Middlewares/lvgl/src/extra/themes/basic/lv_theme_basic.c ****     lv_style_set_color_filter_opa(&styles->disabled, LV_OPA_70);
 2039              		.loc 1 127 42 is_stmt 0 discriminator 4 view .LVU596
 2040 02d8 2068     		ldr	r0, [r4]
 127:Middlewares/lvgl/src/extra/themes/basic/lv_theme_basic.c ****     lv_style_set_color_filter_opa(&styles->disabled, LV_OPA_70);
 2041              		.loc 1 127 5 discriminator 4 view .LVU597
 2042 02da 2946     		mov	r1, r5
 2043 02dc 2830     		adds	r0, r0, #40
 2044 02de FFF7FEFF 		bl	lv_style_set_color_filter_dsc
 2045              	.LVL221:
 128:Middlewares/lvgl/src/extra/themes/basic/lv_theme_basic.c **** 
 2046              		.loc 1 128 5 is_stmt 1 discriminator 4 view .LVU598
 128:Middlewares/lvgl/src/extra/themes/basic/lv_theme_basic.c **** 
 2047              		.loc 1 128 42 is_stmt 0 discriminator 4 view .LVU599
 2048 02e2 2068     		ldr	r0, [r4]
 128:Middlewares/lvgl/src/extra/themes/basic/lv_theme_basic.c **** 
 2049              		.loc 1 128 5 discriminator 4 view .LVU600
ARM GAS  /tmp/ccwx3eYd.s 			page 73


 2050 02e4 B221     		movs	r1, #178
 2051 02e6 2830     		adds	r0, r0, #40
 2052 02e8 FFF7FEFF 		bl	lv_style_set_color_filter_opa
 2053              	.LVL222:
 130:Middlewares/lvgl/src/extra/themes/basic/lv_theme_basic.c ****     lv_style_set_pad_all(&styles->pad_zero, 0);
 2054              		.loc 1 130 5 is_stmt 1 discriminator 4 view .LVU601
 130:Middlewares/lvgl/src/extra/themes/basic/lv_theme_basic.c ****     lv_style_set_pad_all(&styles->pad_zero, 0);
 2055              		.loc 1 130 29 is_stmt 0 discriminator 4 view .LVU602
 2056 02ec 2068     		ldr	r0, [r4]
 130:Middlewares/lvgl/src/extra/themes/basic/lv_theme_basic.c ****     lv_style_set_pad_all(&styles->pad_zero, 0);
 2057              		.loc 1 130 5 discriminator 4 view .LVU603
 2058 02ee 3030     		adds	r0, r0, #48
 2059 02f0 FFF7FEFF 		bl	style_init_reset
 2060              	.LVL223:
 131:Middlewares/lvgl/src/extra/themes/basic/lv_theme_basic.c ****     lv_style_set_pad_gap(&styles->pad_zero, 0);
 2061              		.loc 1 131 5 is_stmt 1 discriminator 4 view .LVU604
 131:Middlewares/lvgl/src/extra/themes/basic/lv_theme_basic.c ****     lv_style_set_pad_gap(&styles->pad_zero, 0);
 2062              		.loc 1 131 33 is_stmt 0 discriminator 4 view .LVU605
 2063 02f4 2568     		ldr	r5, [r4]
 131:Middlewares/lvgl/src/extra/themes/basic/lv_theme_basic.c ****     lv_style_set_pad_gap(&styles->pad_zero, 0);
 2064              		.loc 1 131 5 discriminator 4 view .LVU606
 2065 02f6 3035     		adds	r5, r5, #48
 2066              	.LVL224:
 2067              	.LBB64:
 2068              	.LBI64:
 425:Middlewares/lvgl/src/extra/themes/basic/../../../../src/core/../misc/lv_style.h ****     lv_style_set_pad_left(style, value);
 2069              		.loc 3 425 20 is_stmt 1 discriminator 4 view .LVU607
 2070              	.LBB65:
 426:Middlewares/lvgl/src/extra/themes/basic/../../../../src/core/../misc/lv_style.h ****     lv_style_set_pad_right(style, value);
 2071              		.loc 3 426 5 discriminator 4 view .LVU608
 2072 02f8 0021     		movs	r1, #0
 2073 02fa 2846     		mov	r0, r5
 2074 02fc FFF7FEFF 		bl	lv_style_set_pad_left
 2075              	.LVL225:
 427:Middlewares/lvgl/src/extra/themes/basic/../../../../src/core/../misc/lv_style.h ****     lv_style_set_pad_top(style, value);
 2076              		.loc 3 427 5 discriminator 4 view .LVU609
 2077 0300 0021     		movs	r1, #0
 2078 0302 2846     		mov	r0, r5
 2079 0304 FFF7FEFF 		bl	lv_style_set_pad_right
 2080              	.LVL226:
 428:Middlewares/lvgl/src/extra/themes/basic/../../../../src/core/../misc/lv_style.h ****     lv_style_set_pad_bottom(style, value);
 2081              		.loc 3 428 5 discriminator 4 view .LVU610
 2082 0308 0021     		movs	r1, #0
 2083 030a 2846     		mov	r0, r5
 2084 030c FFF7FEFF 		bl	lv_style_set_pad_top
 2085              	.LVL227:
 429:Middlewares/lvgl/src/extra/themes/basic/../../../../src/core/../misc/lv_style.h **** }
 2086              		.loc 3 429 5 discriminator 4 view .LVU611
 2087 0310 0021     		movs	r1, #0
 2088 0312 2846     		mov	r0, r5
 2089 0314 FFF7FEFF 		bl	lv_style_set_pad_bottom
 2090              	.LVL228:
 429:Middlewares/lvgl/src/extra/themes/basic/../../../../src/core/../misc/lv_style.h **** }
 2091              		.loc 3 429 5 is_stmt 0 discriminator 4 view .LVU612
 2092              	.LBE65:
 2093              	.LBE64:
 132:Middlewares/lvgl/src/extra/themes/basic/lv_theme_basic.c **** 
ARM GAS  /tmp/ccwx3eYd.s 			page 74


 2094              		.loc 1 132 5 is_stmt 1 discriminator 4 view .LVU613
 132:Middlewares/lvgl/src/extra/themes/basic/lv_theme_basic.c **** 
 2095              		.loc 1 132 33 is_stmt 0 discriminator 4 view .LVU614
 2096 0318 2568     		ldr	r5, [r4]
 132:Middlewares/lvgl/src/extra/themes/basic/lv_theme_basic.c **** 
 2097              		.loc 1 132 5 discriminator 4 view .LVU615
 2098 031a 3035     		adds	r5, r5, #48
 2099              	.LVL229:
 2100              	.LBB66:
 2101              	.LBI66:
 442:Middlewares/lvgl/src/extra/themes/basic/../../../../src/core/../misc/lv_style.h ****     lv_style_set_pad_row(style, value);
 2102              		.loc 3 442 20 is_stmt 1 discriminator 4 view .LVU616
 2103              	.LBB67:
 443:Middlewares/lvgl/src/extra/themes/basic/../../../../src/core/../misc/lv_style.h ****     lv_style_set_pad_column(style, value);
 2104              		.loc 3 443 5 discriminator 4 view .LVU617
 2105 031c 0021     		movs	r1, #0
 2106 031e 2846     		mov	r0, r5
 2107 0320 FFF7FEFF 		bl	lv_style_set_pad_row
 2108              	.LVL230:
 2109              		.loc 3 444 5 discriminator 4 view .LVU618
 2110 0324 0021     		movs	r1, #0
 2111 0326 2846     		mov	r0, r5
 2112 0328 FFF7FEFF 		bl	lv_style_set_pad_column
 2113              	.LVL231:
 2114              		.loc 3 444 5 is_stmt 0 discriminator 4 view .LVU619
 2115              	.LBE67:
 2116              	.LBE66:
 135:Middlewares/lvgl/src/extra/themes/basic/lv_theme_basic.c ****     lv_style_set_border_side(&styles->ta_cursor, LV_BORDER_SIDE_LEFT);
 2117              		.loc 1 135 5 is_stmt 1 discriminator 4 view .LVU620
 135:Middlewares/lvgl/src/extra/themes/basic/lv_theme_basic.c ****     lv_style_set_border_side(&styles->ta_cursor, LV_BORDER_SIDE_LEFT);
 2118              		.loc 1 135 29 is_stmt 0 discriminator 4 view .LVU621
 2119 032c 2068     		ldr	r0, [r4]
 135:Middlewares/lvgl/src/extra/themes/basic/lv_theme_basic.c ****     lv_style_set_border_side(&styles->ta_cursor, LV_BORDER_SIDE_LEFT);
 2120              		.loc 1 135 5 discriminator 4 view .LVU622
 2121 032e 3830     		adds	r0, r0, #56
 2122 0330 FFF7FEFF 		bl	style_init_reset
 2123              	.LVL232:
 136:Middlewares/lvgl/src/extra/themes/basic/lv_theme_basic.c ****     lv_style_set_border_color(&styles->ta_cursor, COLOR_DIM);
 2124              		.loc 1 136 5 is_stmt 1 discriminator 4 view .LVU623
 136:Middlewares/lvgl/src/extra/themes/basic/lv_theme_basic.c ****     lv_style_set_border_color(&styles->ta_cursor, COLOR_DIM);
 2125              		.loc 1 136 37 is_stmt 0 discriminator 4 view .LVU624
 2126 0334 2068     		ldr	r0, [r4]
 136:Middlewares/lvgl/src/extra/themes/basic/lv_theme_basic.c ****     lv_style_set_border_color(&styles->ta_cursor, COLOR_DIM);
 2127              		.loc 1 136 5 discriminator 4 view .LVU625
 2128 0336 0421     		movs	r1, #4
 2129 0338 3830     		adds	r0, r0, #56
 2130 033a FFF7FEFF 		bl	lv_style_set_border_side
 2131              	.LVL233:
 137:Middlewares/lvgl/src/extra/themes/basic/lv_theme_basic.c ****     lv_style_set_border_width(&styles->ta_cursor, 2);
 2132              		.loc 1 137 5 is_stmt 1 discriminator 4 view .LVU626
 137:Middlewares/lvgl/src/extra/themes/basic/lv_theme_basic.c ****     lv_style_set_border_width(&styles->ta_cursor, 2);
 2133              		.loc 1 137 38 is_stmt 0 discriminator 4 view .LVU627
 2134 033e 2568     		ldr	r5, [r4]
 137:Middlewares/lvgl/src/extra/themes/basic/lv_theme_basic.c ****     lv_style_set_border_width(&styles->ta_cursor, 2);
 2135              		.loc 1 137 5 discriminator 4 view .LVU628
 2136 0340 0221     		movs	r1, #2
 2137 0342 1220     		movs	r0, #18
ARM GAS  /tmp/ccwx3eYd.s 			page 75


 2138 0344 FFF7FEFF 		bl	lv_palette_darken
 2139              	.LVL234:
 2140 0348 0146     		mov	r1, r0	@ movhi
 2141 034a 05F13800 		add	r0, r5, #56
 2142 034e FFF7FEFF 		bl	lv_style_set_border_color
 2143              	.LVL235:
 138:Middlewares/lvgl/src/extra/themes/basic/lv_theme_basic.c ****     lv_style_set_bg_opa(&styles->ta_cursor, LV_OPA_TRANSP);
 2144              		.loc 1 138 5 is_stmt 1 discriminator 4 view .LVU629
 138:Middlewares/lvgl/src/extra/themes/basic/lv_theme_basic.c ****     lv_style_set_bg_opa(&styles->ta_cursor, LV_OPA_TRANSP);
 2145              		.loc 1 138 38 is_stmt 0 discriminator 4 view .LVU630
 2146 0352 2068     		ldr	r0, [r4]
 138:Middlewares/lvgl/src/extra/themes/basic/lv_theme_basic.c ****     lv_style_set_bg_opa(&styles->ta_cursor, LV_OPA_TRANSP);
 2147              		.loc 1 138 5 discriminator 4 view .LVU631
 2148 0354 0221     		movs	r1, #2
 2149 0356 3830     		adds	r0, r0, #56
 2150 0358 FFF7FEFF 		bl	lv_style_set_border_width
 2151              	.LVL236:
 139:Middlewares/lvgl/src/extra/themes/basic/lv_theme_basic.c ****     lv_style_set_anim_time(&styles->ta_cursor, 500);
 2152              		.loc 1 139 5 is_stmt 1 discriminator 4 view .LVU632
 139:Middlewares/lvgl/src/extra/themes/basic/lv_theme_basic.c ****     lv_style_set_anim_time(&styles->ta_cursor, 500);
 2153              		.loc 1 139 32 is_stmt 0 discriminator 4 view .LVU633
 2154 035c 2068     		ldr	r0, [r4]
 139:Middlewares/lvgl/src/extra/themes/basic/lv_theme_basic.c ****     lv_style_set_anim_time(&styles->ta_cursor, 500);
 2155              		.loc 1 139 5 discriminator 4 view .LVU634
 2156 035e 0021     		movs	r1, #0
 2157 0360 3830     		adds	r0, r0, #56
 2158 0362 09E0     		b	.L96
 2159              	.L97:
 2160              		.align	2
 2161              	.L95:
 2162 0364 00000000 		.word	.LANCHOR0
 2163 0368 00000000 		.word	.LANCHOR2
 2164 036c 00000000 		.word	dark_color_filter_cb
 2165 0370 00000000 		.word	.LANCHOR3
 2166 0374 00000000 		.word	grey_filter_cb
 2167              	.L96:
 2168 0378 FFF7FEFF 		bl	lv_style_set_bg_opa
 2169              	.LVL237:
 140:Middlewares/lvgl/src/extra/themes/basic/lv_theme_basic.c **** #endif
 2170              		.loc 1 140 5 is_stmt 1 discriminator 4 view .LVU635
 140:Middlewares/lvgl/src/extra/themes/basic/lv_theme_basic.c **** #endif
 2171              		.loc 1 140 35 is_stmt 0 discriminator 4 view .LVU636
 2172 037c 2068     		ldr	r0, [r4]
 140:Middlewares/lvgl/src/extra/themes/basic/lv_theme_basic.c **** #endif
 2173              		.loc 1 140 5 discriminator 4 view .LVU637
 2174 037e 4FF4FA71 		mov	r1, #500
 2175 0382 3830     		adds	r0, r0, #56
 2176 0384 FFF7FEFF 		bl	lv_style_set_anim_time
 2177              	.LVL238:
 142:Middlewares/lvgl/src/extra/themes/basic/lv_theme_basic.c **** 
 2178              		.loc 1 142 1 discriminator 4 view .LVU638
 2179 0388 38BD     		pop	{r3, r4, r5, pc}
 2180              	.L84:
  83:Middlewares/lvgl/src/extra/themes/basic/lv_theme_basic.c **** 
 2181              		.loc 1 83 45 discriminator 1 view .LVU639
 2182 038a 0020     		movs	r0, #0
 2183 038c FFF7FEFF 		bl	lv_disp_get_dpi
ARM GAS  /tmp/ccwx3eYd.s 			page 76


 2184              	.LVL239:
 2185 0390 00EB8000 		add	r0, r0, r0, lsl #2
 2186 0394 00F15003 		add	r3, r0, #80
 2187 0398 474A     		ldr	r2, .L98
 2188 039a 82FB0312 		smull	r1, r2, r2, r3
 2189 039e D917     		asrs	r1, r3, #31
 2190 03a0 C1EBA211 		rsb	r1, r1, r2, asr #6
  83:Middlewares/lvgl/src/extra/themes/basic/lv_theme_basic.c **** 
 2191              		.loc 1 83 5 discriminator 1 view .LVU640
 2192 03a4 09B2     		sxth	r1, r1
 2193 03a6 4BE6     		b	.L61
 2194              	.L85:
  89:Middlewares/lvgl/src/extra/themes/basic/lv_theme_basic.c ****     lv_style_set_pad_column(&styles->scr, PAD_DEF / 2);
 2195              		.loc 1 89 40 discriminator 1 view .LVU641
 2196 03a8 0020     		movs	r0, #0
 2197 03aa FFF7FEFF 		bl	lv_disp_get_dpi
 2198              	.LVL240:
 2199 03ae 00EB8000 		add	r0, r0, r0, lsl #2
 2200 03b2 5030     		adds	r0, r0, #80
  89:Middlewares/lvgl/src/extra/themes/basic/lv_theme_basic.c ****     lv_style_set_pad_column(&styles->scr, PAD_DEF / 2);
 2201              		.loc 1 89 5 discriminator 1 view .LVU642
 2202 03b4 404B     		ldr	r3, .L98
 2203 03b6 83FB0023 		smull	r2, r3, r3, r0
 2204 03ba C117     		asrs	r1, r0, #31
 2205 03bc C1EBE311 		rsb	r1, r1, r3, asr #7
 2206 03c0 09B2     		sxth	r1, r1
 2207 03c2 60E6     		b	.L62
 2208              	.L86:
  90:Middlewares/lvgl/src/extra/themes/basic/lv_theme_basic.c **** 
 2209              		.loc 1 90 43 discriminator 1 view .LVU643
 2210 03c4 0020     		movs	r0, #0
 2211 03c6 FFF7FEFF 		bl	lv_disp_get_dpi
 2212              	.LVL241:
 2213 03ca 00EB8000 		add	r0, r0, r0, lsl #2
 2214 03ce 5030     		adds	r0, r0, #80
  90:Middlewares/lvgl/src/extra/themes/basic/lv_theme_basic.c **** 
 2215              		.loc 1 90 5 discriminator 1 view .LVU644
 2216 03d0 394B     		ldr	r3, .L98
 2217 03d2 83FB0023 		smull	r2, r3, r3, r0
 2218 03d6 C117     		asrs	r1, r0, #31
 2219 03d8 C1EBE311 		rsb	r1, r1, r3, asr #7
 2220 03dc 09B2     		sxth	r1, r1
 2221 03de 60E6     		b	.L63
 2222              	.L87:
  97:Middlewares/lvgl/src/extra/themes/basic/lv_theme_basic.c ****     lv_style_set_pad_gap(&styles->light, PAD_DEF / 2);
 2223              		.loc 1 97 42 discriminator 1 view .LVU645
 2224 03e0 0020     		movs	r0, #0
 2225 03e2 FFF7FEFF 		bl	lv_disp_get_dpi
 2226              	.LVL242:
 2227 03e6 00EB8000 		add	r0, r0, r0, lsl #2
 2228 03ea 00F15003 		add	r3, r0, #80
 2229 03ee 324A     		ldr	r2, .L98
 2230 03f0 82FB0312 		smull	r1, r2, r2, r3
 2231 03f4 DC17     		asrs	r4, r3, #31
 2232 03f6 C4EBA214 		rsb	r4, r4, r2, asr #6
  97:Middlewares/lvgl/src/extra/themes/basic/lv_theme_basic.c ****     lv_style_set_pad_gap(&styles->light, PAD_DEF / 2);
 2233              		.loc 1 97 5 discriminator 1 view .LVU646
ARM GAS  /tmp/ccwx3eYd.s 			page 77


 2234 03fa 24B2     		sxth	r4, r4
 2235 03fc 82E6     		b	.L64
 2236              	.L88:
  98:Middlewares/lvgl/src/extra/themes/basic/lv_theme_basic.c ****     lv_style_set_line_width(&styles->light, LV_DPX(2));
 2237              		.loc 1 98 42 discriminator 1 view .LVU647
 2238 03fe 0020     		movs	r0, #0
 2239 0400 FFF7FEFF 		bl	lv_disp_get_dpi
 2240              	.LVL243:
 2241 0404 00EB8000 		add	r0, r0, r0, lsl #2
 2242 0408 00F15003 		add	r3, r0, #80
  98:Middlewares/lvgl/src/extra/themes/basic/lv_theme_basic.c ****     lv_style_set_line_width(&styles->light, LV_DPX(2));
 2243              		.loc 1 98 5 discriminator 1 view .LVU648
 2244 040c 2A4A     		ldr	r2, .L98
 2245 040e 82FB0312 		smull	r1, r2, r2, r3
 2246 0412 DC17     		asrs	r4, r3, #31
 2247 0414 C4EBE214 		rsb	r4, r4, r2, asr #7
 2248 0418 24B2     		sxth	r4, r4
 2249 041a 8FE6     		b	.L65
 2250              	.L89:
  99:Middlewares/lvgl/src/extra/themes/basic/lv_theme_basic.c ****     lv_style_set_line_color(&styles->light, COLOR_MID);
 2251              		.loc 1 99 45 discriminator 1 view .LVU649
 2252 041c 0020     		movs	r0, #0
 2253 041e FFF7FEFF 		bl	lv_disp_get_dpi
 2254              	.LVL244:
 2255 0422 2830     		adds	r0, r0, #40
 2256 0424 244B     		ldr	r3, .L98
 2257 0426 83FB0023 		smull	r2, r3, r3, r0
 2258 042a C117     		asrs	r1, r0, #31
 2259 042c C1EB6311 		rsb	r1, r1, r3, asr #5
  99:Middlewares/lvgl/src/extra/themes/basic/lv_theme_basic.c ****     lv_style_set_line_color(&styles->light, COLOR_MID);
 2260              		.loc 1 99 5 discriminator 1 view .LVU650
 2261 0430 09B2     		sxth	r1, r1
 2262 0432 95E6     		b	.L66
 2263              	.L90:
 101:Middlewares/lvgl/src/extra/themes/basic/lv_theme_basic.c ****     lv_style_set_arc_color(&styles->light, COLOR_MID);
 2264              		.loc 1 101 44 discriminator 1 view .LVU651
 2265 0434 0020     		movs	r0, #0
 2266 0436 FFF7FEFF 		bl	lv_disp_get_dpi
 2267              	.LVL245:
 2268 043a 2830     		adds	r0, r0, #40
 2269 043c 1E4B     		ldr	r3, .L98
 2270 043e 83FB0023 		smull	r2, r3, r3, r0
 2271 0442 C117     		asrs	r1, r0, #31
 2272 0444 C1EB6311 		rsb	r1, r1, r3, asr #5
 101:Middlewares/lvgl/src/extra/themes/basic/lv_theme_basic.c ****     lv_style_set_arc_color(&styles->light, COLOR_MID);
 2273              		.loc 1 101 5 discriminator 1 view .LVU652
 2274 0448 09B2     		sxth	r1, r1
 2275 044a A0E6     		b	.L67
 2276              	.L91:
 109:Middlewares/lvgl/src/extra/themes/basic/lv_theme_basic.c ****     lv_style_set_pad_gap(&styles->dark, PAD_DEF / 2);
 2277              		.loc 1 109 41 discriminator 1 view .LVU653
 2278 044c 0020     		movs	r0, #0
 2279 044e FFF7FEFF 		bl	lv_disp_get_dpi
 2280              	.LVL246:
 2281 0452 00EB8000 		add	r0, r0, r0, lsl #2
 2282 0456 00F15003 		add	r3, r0, #80
 2283 045a 174A     		ldr	r2, .L98
ARM GAS  /tmp/ccwx3eYd.s 			page 78


 2284 045c 82FB0312 		smull	r1, r2, r2, r3
 2285 0460 DC17     		asrs	r4, r3, #31
 2286 0462 C4EBA214 		rsb	r4, r4, r2, asr #6
 109:Middlewares/lvgl/src/extra/themes/basic/lv_theme_basic.c ****     lv_style_set_pad_gap(&styles->dark, PAD_DEF / 2);
 2287              		.loc 1 109 5 discriminator 1 view .LVU654
 2288 0466 24B2     		sxth	r4, r4
 2289 0468 CBE6     		b	.L68
 2290              	.L92:
 110:Middlewares/lvgl/src/extra/themes/basic/lv_theme_basic.c ****     lv_style_set_line_width(&styles->dark, LV_DPX(2));
 2291              		.loc 1 110 41 discriminator 1 view .LVU655
 2292 046a 0020     		movs	r0, #0
 2293 046c FFF7FEFF 		bl	lv_disp_get_dpi
 2294              	.LVL247:
 2295 0470 00EB8000 		add	r0, r0, r0, lsl #2
 2296 0474 00F15003 		add	r3, r0, #80
 110:Middlewares/lvgl/src/extra/themes/basic/lv_theme_basic.c ****     lv_style_set_line_width(&styles->dark, LV_DPX(2));
 2297              		.loc 1 110 5 discriminator 1 view .LVU656
 2298 0478 0F4A     		ldr	r2, .L98
 2299 047a 82FB0312 		smull	r1, r2, r2, r3
 2300 047e DC17     		asrs	r4, r3, #31
 2301 0480 C4EBE214 		rsb	r4, r4, r2, asr #7
 2302 0484 24B2     		sxth	r4, r4
 2303 0486 D8E6     		b	.L69
 2304              	.L93:
 111:Middlewares/lvgl/src/extra/themes/basic/lv_theme_basic.c ****     lv_style_set_line_color(&styles->dark, COLOR_DIM);
 2305              		.loc 1 111 44 discriminator 1 view .LVU657
 2306 0488 0020     		movs	r0, #0
 2307 048a FFF7FEFF 		bl	lv_disp_get_dpi
 2308              	.LVL248:
 2309 048e 2830     		adds	r0, r0, #40
 2310 0490 094B     		ldr	r3, .L98
 2311 0492 83FB0023 		smull	r2, r3, r3, r0
 2312 0496 C117     		asrs	r1, r0, #31
 2313 0498 C1EB6311 		rsb	r1, r1, r3, asr #5
 111:Middlewares/lvgl/src/extra/themes/basic/lv_theme_basic.c ****     lv_style_set_line_color(&styles->dark, COLOR_DIM);
 2314              		.loc 1 111 5 discriminator 1 view .LVU658
 2315 049c 09B2     		sxth	r1, r1
 2316 049e DEE6     		b	.L70
 2317              	.L94:
 113:Middlewares/lvgl/src/extra/themes/basic/lv_theme_basic.c ****     lv_style_set_arc_color(&styles->dark, COLOR_DIM);
 2318              		.loc 1 113 43 discriminator 1 view .LVU659
 2319 04a0 0020     		movs	r0, #0
 2320 04a2 FFF7FEFF 		bl	lv_disp_get_dpi
 2321              	.LVL249:
 2322 04a6 2830     		adds	r0, r0, #40
 2323 04a8 034B     		ldr	r3, .L98
 2324 04aa 83FB0023 		smull	r2, r3, r3, r0
 2325 04ae C117     		asrs	r1, r0, #31
 2326 04b0 C1EB6311 		rsb	r1, r1, r3, asr #5
 113:Middlewares/lvgl/src/extra/themes/basic/lv_theme_basic.c ****     lv_style_set_arc_color(&styles->dark, COLOR_DIM);
 2327              		.loc 1 113 5 discriminator 1 view .LVU660
 2328 04b4 09B2     		sxth	r1, r1
 2329 04b6 E9E6     		b	.L71
 2330              	.L99:
 2331              		.align	2
 2332              	.L98:
 2333 04b8 67666666 		.word	1717986919
ARM GAS  /tmp/ccwx3eYd.s 			page 79


 2334              		.cfi_endproc
 2335              	.LFE186:
 2337              		.section	.text.lv_theme_basic_init,"ax",%progbits
 2338              		.align	1
 2339              		.global	lv_theme_basic_init
 2340              		.syntax unified
 2341              		.thumb
 2342              		.thumb_func
 2343              		.fpu fpv4-sp-d16
 2345              	lv_theme_basic_init:
 2346              	.LVL250:
 2347              	.LFB187:
 150:Middlewares/lvgl/src/extra/themes/basic/lv_theme_basic.c **** 
 2348              		.loc 1 150 1 is_stmt 1 view -0
 2349              		.cfi_startproc
 2350              		@ args = 0, pretend = 0, frame = 0
 2351              		@ frame_needed = 0, uses_anonymous_args = 0
 150:Middlewares/lvgl/src/extra/themes/basic/lv_theme_basic.c **** 
 2352              		.loc 1 150 1 is_stmt 0 view .LVU662
 2353 0000 10B5     		push	{r4, lr}
 2354              	.LCFI5:
 2355              		.cfi_def_cfa_offset 8
 2356              		.cfi_offset 4, -8
 2357              		.cfi_offset 14, -4
 2358 0002 0446     		mov	r4, r0
 155:Middlewares/lvgl/src/extra/themes/basic/lv_theme_basic.c ****         LV_GC_ROOT(_lv_theme_default_styles) = lv_mem_alloc(sizeof(my_theme_styles_t));
 2359              		.loc 1 155 5 is_stmt 1 view .LVU663
 155:Middlewares/lvgl/src/extra/themes/basic/lv_theme_basic.c ****         LV_GC_ROOT(_lv_theme_default_styles) = lv_mem_alloc(sizeof(my_theme_styles_t));
 2360              		.loc 1 155 8 is_stmt 0 view .LVU664
 2361 0004 114B     		ldr	r3, .L106
 2362 0006 1B78     		ldrb	r3, [r3]	@ zero_extendqisi2
 155:Middlewares/lvgl/src/extra/themes/basic/lv_theme_basic.c ****         LV_GC_ROOT(_lv_theme_default_styles) = lv_mem_alloc(sizeof(my_theme_styles_t));
 2363              		.loc 1 155 7 view .LVU665
 2364 0008 C3B1     		cbz	r3, .L105
 2365              	.LVL251:
 2366              	.L101:
 160:Middlewares/lvgl/src/extra/themes/basic/lv_theme_basic.c ****     theme.font_small = LV_FONT_DEFAULT;
 2367              		.loc 1 160 5 is_stmt 1 view .LVU666
 160:Middlewares/lvgl/src/extra/themes/basic/lv_theme_basic.c ****     theme.font_small = LV_FONT_DEFAULT;
 2368              		.loc 1 160 16 is_stmt 0 view .LVU667
 2369 000a 114B     		ldr	r3, .L106+4
 2370 000c DC60     		str	r4, [r3, #12]
 161:Middlewares/lvgl/src/extra/themes/basic/lv_theme_basic.c ****     theme.font_normal = LV_FONT_DEFAULT;
 2371              		.loc 1 161 5 is_stmt 1 view .LVU668
 161:Middlewares/lvgl/src/extra/themes/basic/lv_theme_basic.c ****     theme.font_normal = LV_FONT_DEFAULT;
 2372              		.loc 1 161 22 is_stmt 0 view .LVU669
 2373 000e 114A     		ldr	r2, .L106+8
 2374 0010 5A61     		str	r2, [r3, #20]
 162:Middlewares/lvgl/src/extra/themes/basic/lv_theme_basic.c ****     theme.font_large = LV_FONT_DEFAULT;
 2375              		.loc 1 162 5 is_stmt 1 view .LVU670
 162:Middlewares/lvgl/src/extra/themes/basic/lv_theme_basic.c ****     theme.font_large = LV_FONT_DEFAULT;
 2376              		.loc 1 162 23 is_stmt 0 view .LVU671
 2377 0012 9A61     		str	r2, [r3, #24]
 163:Middlewares/lvgl/src/extra/themes/basic/lv_theme_basic.c ****     theme.apply_cb = theme_apply;
 2378              		.loc 1 163 5 is_stmt 1 view .LVU672
 163:Middlewares/lvgl/src/extra/themes/basic/lv_theme_basic.c ****     theme.apply_cb = theme_apply;
 2379              		.loc 1 163 22 is_stmt 0 view .LVU673
ARM GAS  /tmp/ccwx3eYd.s 			page 80


 2380 0014 DA61     		str	r2, [r3, #28]
 164:Middlewares/lvgl/src/extra/themes/basic/lv_theme_basic.c **** 
 2381              		.loc 1 164 5 is_stmt 1 view .LVU674
 164:Middlewares/lvgl/src/extra/themes/basic/lv_theme_basic.c **** 
 2382              		.loc 1 164 20 is_stmt 0 view .LVU675
 2383 0016 104A     		ldr	r2, .L106+12
 2384 0018 1A60     		str	r2, [r3]
 166:Middlewares/lvgl/src/extra/themes/basic/lv_theme_basic.c **** 
 2385              		.loc 1 166 5 is_stmt 1 view .LVU676
 2386 001a FFF7FEFF 		bl	style_init
 2387              	.LVL252:
 168:Middlewares/lvgl/src/extra/themes/basic/lv_theme_basic.c **** 
 2388              		.loc 1 168 5 view .LVU677
 168:Middlewares/lvgl/src/extra/themes/basic/lv_theme_basic.c **** 
 2389              		.loc 1 168 12 is_stmt 0 view .LVU678
 2390 001e 0B4B     		ldr	r3, .L106
 2391 0020 0122     		movs	r2, #1
 2392 0022 1A70     		strb	r2, [r3]
 170:Middlewares/lvgl/src/extra/themes/basic/lv_theme_basic.c **** 
 2393              		.loc 1 170 5 is_stmt 1 view .LVU679
 170:Middlewares/lvgl/src/extra/themes/basic/lv_theme_basic.c **** 
 2394              		.loc 1 170 7 is_stmt 0 view .LVU680
 2395 0024 2CB1     		cbz	r4, .L102
 170:Middlewares/lvgl/src/extra/themes/basic/lv_theme_basic.c **** 
 2396              		.loc 1 170 24 discriminator 2 view .LVU681
 2397 0026 2046     		mov	r0, r4
 2398 0028 FFF7FEFF 		bl	lv_disp_get_theme
 2399              	.LVL253:
 170:Middlewares/lvgl/src/extra/themes/basic/lv_theme_basic.c **** 
 2400              		.loc 1 170 21 discriminator 2 view .LVU682
 2401 002c 084B     		ldr	r3, .L106+4
 2402 002e 8342     		cmp	r3, r0
 2403 0030 02D1     		bne	.L103
 2404              	.L102:
 170:Middlewares/lvgl/src/extra/themes/basic/lv_theme_basic.c **** 
 2405              		.loc 1 170 59 is_stmt 1 discriminator 3 view .LVU683
 2406 0032 0020     		movs	r0, #0
 2407 0034 FFF7FEFF 		bl	lv_obj_report_style_change
 2408              	.LVL254:
 2409              	.L103:
 172:Middlewares/lvgl/src/extra/themes/basic/lv_theme_basic.c **** }
 2410              		.loc 1 172 5 view .LVU684
 173:Middlewares/lvgl/src/extra/themes/basic/lv_theme_basic.c **** 
 2411              		.loc 1 173 1 is_stmt 0 view .LVU685
 2412 0038 0548     		ldr	r0, .L106+4
 2413 003a 10BD     		pop	{r4, pc}
 2414              	.LVL255:
 2415              	.L105:
 156:Middlewares/lvgl/src/extra/themes/basic/lv_theme_basic.c ****         styles = (my_theme_styles_t *)LV_GC_ROOT(_lv_theme_default_styles);
 2416              		.loc 1 156 9 is_stmt 1 view .LVU686
 156:Middlewares/lvgl/src/extra/themes/basic/lv_theme_basic.c ****         styles = (my_theme_styles_t *)LV_GC_ROOT(_lv_theme_default_styles);
 2417              		.loc 1 156 48 is_stmt 0 view .LVU687
 2418 003c 4020     		movs	r0, #64
 2419              	.LVL256:
 156:Middlewares/lvgl/src/extra/themes/basic/lv_theme_basic.c ****         styles = (my_theme_styles_t *)LV_GC_ROOT(_lv_theme_default_styles);
 2420              		.loc 1 156 48 view .LVU688
 2421 003e FFF7FEFF 		bl	lv_mem_alloc
ARM GAS  /tmp/ccwx3eYd.s 			page 81


 2422              	.LVL257:
 156:Middlewares/lvgl/src/extra/themes/basic/lv_theme_basic.c ****         styles = (my_theme_styles_t *)LV_GC_ROOT(_lv_theme_default_styles);
 2423              		.loc 1 156 46 view .LVU689
 2424 0042 064B     		ldr	r3, .L106+16
 2425 0044 1860     		str	r0, [r3]
 157:Middlewares/lvgl/src/extra/themes/basic/lv_theme_basic.c ****     }
 2426              		.loc 1 157 9 is_stmt 1 view .LVU690
 157:Middlewares/lvgl/src/extra/themes/basic/lv_theme_basic.c ****     }
 2427              		.loc 1 157 16 is_stmt 0 view .LVU691
 2428 0046 064B     		ldr	r3, .L106+20
 2429 0048 1860     		str	r0, [r3]
 2430 004a DEE7     		b	.L101
 2431              	.L107:
 2432              		.align	2
 2433              	.L106:
 2434 004c 00000000 		.word	.LANCHOR1
 2435 0050 00000000 		.word	.LANCHOR4
 2436 0054 00000000 		.word	lv_font_montserrat_14
 2437 0058 00000000 		.word	theme_apply
 2438 005c 00000000 		.word	_lv_theme_default_styles
 2439 0060 00000000 		.word	.LANCHOR0
 2440              		.cfi_endproc
 2441              	.LFE187:
 2443              		.section	.bss.dark_filter.1,"aw",%nobits
 2444              		.align	2
 2445              		.set	.LANCHOR2,. + 0
 2448              	dark_filter.1:
 2449 0000 00000000 		.space	8
 2449      00000000 
 2450              		.section	.bss.grey_filter.0,"aw",%nobits
 2451              		.align	2
 2452              		.set	.LANCHOR3,. + 0
 2455              	grey_filter.0:
 2456 0000 00000000 		.space	8
 2456      00000000 
 2457              		.section	.bss.inited,"aw",%nobits
 2458              		.set	.LANCHOR1,. + 0
 2461              	inited:
 2462 0000 00       		.space	1
 2463              		.section	.bss.styles,"aw",%nobits
 2464              		.align	2
 2465              		.set	.LANCHOR0,. + 0
 2468              	styles:
 2469 0000 00000000 		.space	4
 2470              		.section	.bss.theme,"aw",%nobits
 2471              		.align	2
 2472              		.set	.LANCHOR4,. + 0
 2475              	theme:
 2476 0000 00000000 		.space	36
 2476      00000000 
 2476      00000000 
 2476      00000000 
 2476      00000000 
 2477              		.text
 2478              	.Letext0:
 2479              		.file 4 "/home/akinya/gcc-arm-none-eabi/arm-none-eabi/include/machine/_default_types.h"
 2480              		.file 5 "/home/akinya/gcc-arm-none-eabi/arm-none-eabi/include/sys/_stdint.h"
ARM GAS  /tmp/ccwx3eYd.s 			page 82


 2481              		.file 6 "Middlewares/lvgl/src/extra/themes/basic/../../../../src/misc/lv_ll.h"
 2482              		.file 7 "Middlewares/lvgl/src/extra/themes/basic/../../../../src/misc/lv_timer.h"
 2483              		.file 8 "Middlewares/lvgl/src/extra/themes/basic/../../../../src/hal/../misc/lv_area.h"
 2484              		.file 9 "Middlewares/lvgl/src/extra/themes/basic/../../../../src/hal/lv_hal_disp.h"
 2485              		.file 10 "Middlewares/lvgl/src/extra/themes/basic/../../../../src/core/lv_theme.h"
 2486              		.file 11 "Middlewares/lvgl/src/extra/themes/basic/../../../../src/core/lv_obj.h"
 2487              		.file 12 "Middlewares/lvgl/src/extra/themes/basic/../../../../src/core/lv_group.h"
 2488              		.file 13 "Middlewares/lvgl/src/extra/themes/basic/../../../../src/core/../misc/../font/lv_font.h"
 2489              		.file 14 "Middlewares/lvgl/src/extra/themes/basic/../../../../src/core/lv_obj_scroll.h"
 2490              		.file 15 "Middlewares/lvgl/src/extra/themes/basic/../../../../src/core/lv_obj_style.h"
 2491              		.file 16 "Middlewares/lvgl/src/extra/themes/basic/../../../../src/core/lv_obj_class.h"
 2492              		.file 17 "Middlewares/lvgl/src/extra/themes/basic/../../../../src/core/lv_event.h"
 2493              		.file 18 "Middlewares/lvgl/src/extra/themes/basic/../../../../src/widgets/lv_arc.h"
 2494              		.file 19 "Middlewares/lvgl/src/extra/themes/basic/../../../../src/widgets/lv_btn.h"
 2495              		.file 20 "Middlewares/lvgl/src/extra/themes/basic/../../../../src/widgets/lv_table.h"
 2496              		.file 21 "Middlewares/lvgl/src/extra/themes/basic/../../../../src/widgets/lv_checkbox.h"
 2497              		.file 22 "Middlewares/lvgl/src/extra/themes/basic/../../../../src/widgets/lv_bar.h"
 2498              		.file 23 "Middlewares/lvgl/src/extra/themes/basic/../../../../src/widgets/lv_slider.h"
 2499              		.file 24 "Middlewares/lvgl/src/extra/themes/basic/../../../../src/widgets/lv_btnmatrix.h"
 2500              		.file 25 "Middlewares/lvgl/src/extra/themes/basic/../../../../src/widgets/lv_dropdown.h"
 2501              		.file 26 "Middlewares/lvgl/src/extra/themes/basic/../../../../src/widgets/lv_roller.h"
 2502              		.file 27 "Middlewares/lvgl/src/extra/themes/basic/../../../../src/widgets/lv_textarea.h"
 2503              		.file 28 "Middlewares/lvgl/src/extra/themes/basic/../../../../src/widgets/lv_switch.h"
 2504              		.file 29 "Middlewares/lvgl/src/extra/themes/basic/../../../../src/extra/widgets/calendar/lv_calend
 2505              		.file 30 "Middlewares/lvgl/src/extra/themes/basic/../../../../src/extra/widgets/chart/lv_chart.h"
 2506              		.file 31 "Middlewares/lvgl/src/extra/themes/basic/../../../../src/extra/widgets/keyboard/lv_keyboa
 2507              		.file 32 "Middlewares/lvgl/src/extra/themes/basic/../../../../src/extra/widgets/list/lv_list.h"
 2508              		.file 33 "Middlewares/lvgl/src/extra/themes/basic/../../../../src/extra/widgets/msgbox/lv_msgbox.h
 2509              		.file 34 "Middlewares/lvgl/src/extra/themes/basic/../../../../src/extra/widgets/meter/lv_meter.h"
 2510              		.file 35 "Middlewares/lvgl/src/extra/themes/basic/../../../../src/extra/widgets/spinbox/lv_spinbox
 2511              		.file 36 "Middlewares/lvgl/src/extra/themes/basic/../../../../src/extra/widgets/tabview/lv_tabview
 2512              		.file 37 "Middlewares/lvgl/src/extra/themes/basic/../../../../src/extra/widgets/tileview/lv_tilevi
 2513              		.file 38 "Middlewares/lvgl/src/extra/themes/basic/../../../../src/extra/widgets/win/lv_win.h"
 2514              		.file 39 "Middlewares/lvgl/src/extra/themes/basic/../../../../src/extra/widgets/colorwheel/lv_colo
 2515              		.file 40 "Middlewares/lvgl/src/extra/themes/basic/../../../../src/extra/widgets/led/lv_led.h"
 2516              		.file 41 "Middlewares/lvgl/src/extra/themes/basic/../../../../src/extra/widgets/imgbtn/lv_imgbtn.h
 2517              		.file 42 "Middlewares/lvgl/src/extra/themes/basic/../../../misc/lv_gc.h"
 2518              		.file 43 "Middlewares/lvgl/src/extra/themes/basic/../../../../src/core/lv_obj_tree.h"
 2519              		.file 44 "Middlewares/lvgl/src/extra/themes/basic/../../../../src/core/lv_disp.h"
 2520              		.file 45 "Middlewares/lvgl/src/extra/themes/basic/../../../../src/misc/lv_mem.h"
 2521              		.file 46 "Middlewares/lvgl/src/extra/themes/basic/../../../../src/core/../misc/lv_style_gen.h"
ARM GAS  /tmp/ccwx3eYd.s 			page 83


DEFINED SYMBOLS
                            *ABS*:0000000000000000 lv_theme_basic.c
     /tmp/ccwx3eYd.s:18     .text.grey_filter_cb:0000000000000000 $t
     /tmp/ccwx3eYd.s:25     .text.grey_filter_cb:0000000000000000 grey_filter_cb
     /tmp/ccwx3eYd.s:122    .text.theme_apply:0000000000000000 $t
     /tmp/ccwx3eYd.s:128    .text.theme_apply:0000000000000000 theme_apply
     /tmp/ccwx3eYd.s:730    .text.theme_apply:0000000000000304 $d
     /tmp/ccwx3eYd.s:749    .text.theme_apply:0000000000000344 $t
     /tmp/ccwx3eYd.s:1285   .text.theme_apply:0000000000000628 $d
     /tmp/ccwx3eYd.s:1309   .text.theme_apply:000000000000067c $t
     /tmp/ccwx3eYd.s:1359   .text.theme_apply:00000000000006c4 $d
     /tmp/ccwx3eYd.s:1366   .text.dark_color_filter_cb:0000000000000000 $t
     /tmp/ccwx3eYd.s:1372   .text.dark_color_filter_cb:0000000000000000 dark_color_filter_cb
     /tmp/ccwx3eYd.s:1401   .text.style_init_reset:0000000000000000 $t
     /tmp/ccwx3eYd.s:1407   .text.style_init_reset:0000000000000000 style_init_reset
     /tmp/ccwx3eYd.s:1442   .text.style_init_reset:0000000000000014 $d
     /tmp/ccwx3eYd.s:1447   .text.style_init:0000000000000000 $t
     /tmp/ccwx3eYd.s:1453   .text.style_init:0000000000000000 style_init
     /tmp/ccwx3eYd.s:2162   .text.style_init:0000000000000364 $d
     /tmp/ccwx3eYd.s:2168   .text.style_init:0000000000000378 $t
     /tmp/ccwx3eYd.s:2333   .text.style_init:00000000000004b8 $d
     /tmp/ccwx3eYd.s:2338   .text.lv_theme_basic_init:0000000000000000 $t
     /tmp/ccwx3eYd.s:2345   .text.lv_theme_basic_init:0000000000000000 lv_theme_basic_init
     /tmp/ccwx3eYd.s:2434   .text.lv_theme_basic_init:000000000000004c $d
     /tmp/ccwx3eYd.s:2444   .bss.dark_filter.1:0000000000000000 $d
     /tmp/ccwx3eYd.s:2448   .bss.dark_filter.1:0000000000000000 dark_filter.1
     /tmp/ccwx3eYd.s:2451   .bss.grey_filter.0:0000000000000000 $d
     /tmp/ccwx3eYd.s:2455   .bss.grey_filter.0:0000000000000000 grey_filter.0
     /tmp/ccwx3eYd.s:2461   .bss.inited:0000000000000000 inited
     /tmp/ccwx3eYd.s:2462   .bss.inited:0000000000000000 $d
     /tmp/ccwx3eYd.s:2464   .bss.styles:0000000000000000 $d
     /tmp/ccwx3eYd.s:2468   .bss.styles:0000000000000000 styles
     /tmp/ccwx3eYd.s:2471   .bss.theme:0000000000000000 $d
     /tmp/ccwx3eYd.s:2475   .bss.theme:0000000000000000 theme

UNDEFINED SYMBOLS
lv_obj_get_parent
lv_obj_check_type
lv_obj_get_child_id
lv_obj_add_style
lv_obj_class
lv_tabview_class
lv_win_class
lv_btn_class
lv_btnmatrix_class
lv_msgbox_class
lv_bar_class
lv_slider_class
lv_table_class
lv_checkbox_class
lv_switch_class
lv_chart_class
lv_roller_class
lv_dropdown_class
lv_dropdownlist_class
lv_arc_class
lv_meter_class
ARM GAS  /tmp/ccwx3eYd.s 			page 84


lv_textarea_class
lv_calendar_class
lv_keyboard_class
lv_list_class
lv_list_text_class
lv_list_btn_class
lv_spinbox_class
lv_tileview_class
lv_tileview_tile_class
lv_colorwheel_class
lv_led_class
lv_color_darken
lv_style_reset
lv_style_init
lv_style_set_bg_opa
lv_palette_darken
lv_style_set_bg_color
lv_disp_get_dpi
lv_style_set_width
lv_style_set_text_color
lv_style_set_pad_row
lv_style_set_pad_column
lv_palette_lighten
lv_style_set_border_color
lv_style_set_border_width
lv_style_set_pad_left
lv_style_set_pad_right
lv_style_set_pad_top
lv_style_set_pad_bottom
lv_style_set_line_width
lv_style_set_line_color
lv_style_set_arc_width
lv_style_set_arc_color
lv_palette_main
lv_style_set_color_filter_dsc
lv_style_set_color_filter_opa
lv_style_set_border_side
lv_style_set_anim_time
lv_disp_get_theme
lv_obj_report_style_change
lv_mem_alloc
lv_font_montserrat_14
_lv_theme_default_styles
