ARM GAS  /tmp/ccQ1IU3X.s 			page 1


   1              		.cpu cortex-m4
   2              		.eabi_attribute 27, 1
   3              		.eabi_attribute 28, 1
   4              		.eabi_attribute 20, 1
   5              		.eabi_attribute 21, 1
   6              		.eabi_attribute 23, 3
   7              		.eabi_attribute 24, 1
   8              		.eabi_attribute 25, 1
   9              		.eabi_attribute 26, 1
  10              		.eabi_attribute 30, 1
  11              		.eabi_attribute 34, 1
  12              		.eabi_attribute 18, 4
  13              		.file	"lv_tabview.c"
  14              		.text
  15              	.Ltext0:
  16              		.cfi_sections	.debug_frame
  17              		.section	.text.lv_tabview_destructor,"ax",%progbits
  18              		.align	1
  19              		.arch armv7e-m
  20              		.syntax unified
  21              		.thumb
  22              		.thumb_func
  23              		.fpu fpv4-sp-d16
  25              	lv_tabview_destructor:
  26              	.LVL0:
  27              	.LFB191:
  28              		.file 1 "Middlewares/lvgl/src/extra/widgets/tabview/lv_tabview.c"
   1:Middlewares/lvgl/src/extra/widgets/tabview/lv_tabview.c **** /**
   2:Middlewares/lvgl/src/extra/widgets/tabview/lv_tabview.c ****  * @file lv_tabview.c
   3:Middlewares/lvgl/src/extra/widgets/tabview/lv_tabview.c ****  *
   4:Middlewares/lvgl/src/extra/widgets/tabview/lv_tabview.c ****  */
   5:Middlewares/lvgl/src/extra/widgets/tabview/lv_tabview.c **** 
   6:Middlewares/lvgl/src/extra/widgets/tabview/lv_tabview.c **** /*********************
   7:Middlewares/lvgl/src/extra/widgets/tabview/lv_tabview.c ****  *      INCLUDES
   8:Middlewares/lvgl/src/extra/widgets/tabview/lv_tabview.c ****  *********************/
   9:Middlewares/lvgl/src/extra/widgets/tabview/lv_tabview.c **** #include "lv_tabview.h"
  10:Middlewares/lvgl/src/extra/widgets/tabview/lv_tabview.c **** #if LV_USE_TABVIEW
  11:Middlewares/lvgl/src/extra/widgets/tabview/lv_tabview.c **** 
  12:Middlewares/lvgl/src/extra/widgets/tabview/lv_tabview.c **** /*********************
  13:Middlewares/lvgl/src/extra/widgets/tabview/lv_tabview.c ****  *      DEFINES
  14:Middlewares/lvgl/src/extra/widgets/tabview/lv_tabview.c ****  *********************/
  15:Middlewares/lvgl/src/extra/widgets/tabview/lv_tabview.c **** 
  16:Middlewares/lvgl/src/extra/widgets/tabview/lv_tabview.c **** /**********************
  17:Middlewares/lvgl/src/extra/widgets/tabview/lv_tabview.c ****  *      TYPEDEFS
  18:Middlewares/lvgl/src/extra/widgets/tabview/lv_tabview.c ****  **********************/
  19:Middlewares/lvgl/src/extra/widgets/tabview/lv_tabview.c **** 
  20:Middlewares/lvgl/src/extra/widgets/tabview/lv_tabview.c **** /**********************
  21:Middlewares/lvgl/src/extra/widgets/tabview/lv_tabview.c ****  *  STATIC PROTOTYPES
  22:Middlewares/lvgl/src/extra/widgets/tabview/lv_tabview.c ****  **********************/
  23:Middlewares/lvgl/src/extra/widgets/tabview/lv_tabview.c **** static void lv_tabview_constructor(const lv_obj_class_t * class_p, lv_obj_t * obj);
  24:Middlewares/lvgl/src/extra/widgets/tabview/lv_tabview.c **** static void lv_tabview_destructor(const lv_obj_class_t * class_p, lv_obj_t * obj);
  25:Middlewares/lvgl/src/extra/widgets/tabview/lv_tabview.c **** static void lv_tabview_event(const lv_obj_class_t * class_p, lv_event_t * e);
  26:Middlewares/lvgl/src/extra/widgets/tabview/lv_tabview.c **** static void btns_value_changed_event_cb(lv_event_t * e);
  27:Middlewares/lvgl/src/extra/widgets/tabview/lv_tabview.c **** static void cont_scroll_end_event_cb(lv_event_t * e);
  28:Middlewares/lvgl/src/extra/widgets/tabview/lv_tabview.c **** 
  29:Middlewares/lvgl/src/extra/widgets/tabview/lv_tabview.c **** /**********************
  30:Middlewares/lvgl/src/extra/widgets/tabview/lv_tabview.c ****  *  STATIC VARIABLES
ARM GAS  /tmp/ccQ1IU3X.s 			page 2


  31:Middlewares/lvgl/src/extra/widgets/tabview/lv_tabview.c ****  **********************/
  32:Middlewares/lvgl/src/extra/widgets/tabview/lv_tabview.c **** const lv_obj_class_t lv_tabview_class = {
  33:Middlewares/lvgl/src/extra/widgets/tabview/lv_tabview.c ****         .constructor_cb = lv_tabview_constructor,
  34:Middlewares/lvgl/src/extra/widgets/tabview/lv_tabview.c ****         .destructor_cb = lv_tabview_destructor,
  35:Middlewares/lvgl/src/extra/widgets/tabview/lv_tabview.c ****         .event_cb = lv_tabview_event,
  36:Middlewares/lvgl/src/extra/widgets/tabview/lv_tabview.c ****         .width_def = LV_PCT(100),
  37:Middlewares/lvgl/src/extra/widgets/tabview/lv_tabview.c ****         .height_def = LV_PCT(100),
  38:Middlewares/lvgl/src/extra/widgets/tabview/lv_tabview.c ****         .base_class = &lv_obj_class,
  39:Middlewares/lvgl/src/extra/widgets/tabview/lv_tabview.c ****         .instance_size = sizeof(lv_tabview_t)};
  40:Middlewares/lvgl/src/extra/widgets/tabview/lv_tabview.c **** 
  41:Middlewares/lvgl/src/extra/widgets/tabview/lv_tabview.c **** static lv_dir_t tabpos_create;
  42:Middlewares/lvgl/src/extra/widgets/tabview/lv_tabview.c **** static lv_coord_t tabsize_create;
  43:Middlewares/lvgl/src/extra/widgets/tabview/lv_tabview.c **** 
  44:Middlewares/lvgl/src/extra/widgets/tabview/lv_tabview.c **** /**********************
  45:Middlewares/lvgl/src/extra/widgets/tabview/lv_tabview.c ****  *      MACROS
  46:Middlewares/lvgl/src/extra/widgets/tabview/lv_tabview.c ****  **********************/
  47:Middlewares/lvgl/src/extra/widgets/tabview/lv_tabview.c **** 
  48:Middlewares/lvgl/src/extra/widgets/tabview/lv_tabview.c **** /**********************
  49:Middlewares/lvgl/src/extra/widgets/tabview/lv_tabview.c ****  *   GLOBAL FUNCTIONS
  50:Middlewares/lvgl/src/extra/widgets/tabview/lv_tabview.c ****  **********************/
  51:Middlewares/lvgl/src/extra/widgets/tabview/lv_tabview.c **** 
  52:Middlewares/lvgl/src/extra/widgets/tabview/lv_tabview.c **** lv_obj_t * lv_tabview_create(lv_obj_t * parent, lv_dir_t tab_pos, lv_coord_t tab_size)
  53:Middlewares/lvgl/src/extra/widgets/tabview/lv_tabview.c **** {
  54:Middlewares/lvgl/src/extra/widgets/tabview/lv_tabview.c ****     LV_LOG_INFO("begin")
  55:Middlewares/lvgl/src/extra/widgets/tabview/lv_tabview.c ****     tabpos_create = tab_pos;
  56:Middlewares/lvgl/src/extra/widgets/tabview/lv_tabview.c ****     tabsize_create = tab_size;
  57:Middlewares/lvgl/src/extra/widgets/tabview/lv_tabview.c **** 
  58:Middlewares/lvgl/src/extra/widgets/tabview/lv_tabview.c ****     lv_obj_t * obj = lv_obj_class_create_obj(&lv_tabview_class, parent);
  59:Middlewares/lvgl/src/extra/widgets/tabview/lv_tabview.c ****     lv_obj_class_init_obj(obj);
  60:Middlewares/lvgl/src/extra/widgets/tabview/lv_tabview.c ****     return obj;
  61:Middlewares/lvgl/src/extra/widgets/tabview/lv_tabview.c **** }
  62:Middlewares/lvgl/src/extra/widgets/tabview/lv_tabview.c **** 
  63:Middlewares/lvgl/src/extra/widgets/tabview/lv_tabview.c **** lv_obj_t * lv_tabview_add_tab(lv_obj_t * obj, const char * name)
  64:Middlewares/lvgl/src/extra/widgets/tabview/lv_tabview.c **** {
  65:Middlewares/lvgl/src/extra/widgets/tabview/lv_tabview.c ****     lv_tabview_t * tabview = (lv_tabview_t *)obj;
  66:Middlewares/lvgl/src/extra/widgets/tabview/lv_tabview.c ****     lv_obj_t * cont = lv_tabview_get_content(obj);
  67:Middlewares/lvgl/src/extra/widgets/tabview/lv_tabview.c **** 
  68:Middlewares/lvgl/src/extra/widgets/tabview/lv_tabview.c ****     lv_obj_t * page = lv_obj_create(cont);
  69:Middlewares/lvgl/src/extra/widgets/tabview/lv_tabview.c ****     lv_obj_set_size(page, LV_PCT(100), LV_PCT(100));
  70:Middlewares/lvgl/src/extra/widgets/tabview/lv_tabview.c ****     lv_obj_clear_flag(page, LV_OBJ_FLAG_CLICK_FOCUSABLE);
  71:Middlewares/lvgl/src/extra/widgets/tabview/lv_tabview.c ****     uint32_t tab_id = lv_obj_get_child_cnt(cont);
  72:Middlewares/lvgl/src/extra/widgets/tabview/lv_tabview.c **** 
  73:Middlewares/lvgl/src/extra/widgets/tabview/lv_tabview.c ****     lv_obj_t * btns = lv_tabview_get_tab_btns(obj);
  74:Middlewares/lvgl/src/extra/widgets/tabview/lv_tabview.c **** 
  75:Middlewares/lvgl/src/extra/widgets/tabview/lv_tabview.c ****     char ** old_map = tabview->map;
  76:Middlewares/lvgl/src/extra/widgets/tabview/lv_tabview.c ****     char ** new_map;
  77:Middlewares/lvgl/src/extra/widgets/tabview/lv_tabview.c **** 
  78:Middlewares/lvgl/src/extra/widgets/tabview/lv_tabview.c ****     /*top or bottom dir*/
  79:Middlewares/lvgl/src/extra/widgets/tabview/lv_tabview.c ****     if(tabview->tab_pos & LV_DIR_VER) {
  80:Middlewares/lvgl/src/extra/widgets/tabview/lv_tabview.c ****         new_map = lv_mem_alloc((tab_id + 1) * sizeof(const char *));
  81:Middlewares/lvgl/src/extra/widgets/tabview/lv_tabview.c ****         lv_memcpy_small(new_map, old_map, sizeof(const char *) * (tab_id - 1));
  82:Middlewares/lvgl/src/extra/widgets/tabview/lv_tabview.c ****         new_map[tab_id - 1] = lv_mem_alloc(strlen(name) + 1);
  83:Middlewares/lvgl/src/extra/widgets/tabview/lv_tabview.c ****         strcpy((char *)new_map[tab_id - 1], name);
  84:Middlewares/lvgl/src/extra/widgets/tabview/lv_tabview.c ****         new_map[tab_id] = "";
  85:Middlewares/lvgl/src/extra/widgets/tabview/lv_tabview.c ****     }
  86:Middlewares/lvgl/src/extra/widgets/tabview/lv_tabview.c ****     /*left or right dir*/
  87:Middlewares/lvgl/src/extra/widgets/tabview/lv_tabview.c ****     else {
ARM GAS  /tmp/ccQ1IU3X.s 			page 3


  88:Middlewares/lvgl/src/extra/widgets/tabview/lv_tabview.c ****         new_map = lv_mem_alloc((tab_id * 2) * sizeof(const char *));
  89:Middlewares/lvgl/src/extra/widgets/tabview/lv_tabview.c ****         lv_memcpy_small(new_map, old_map, sizeof(const char *) * (tab_id - 1) * 2);
  90:Middlewares/lvgl/src/extra/widgets/tabview/lv_tabview.c ****         if(tabview->tab_cnt == 0) {
  91:Middlewares/lvgl/src/extra/widgets/tabview/lv_tabview.c ****             new_map[0] = lv_mem_alloc(strlen(name) + 1);
  92:Middlewares/lvgl/src/extra/widgets/tabview/lv_tabview.c ****             strcpy((char *)new_map[0], name);
  93:Middlewares/lvgl/src/extra/widgets/tabview/lv_tabview.c ****             new_map[1] = "";
  94:Middlewares/lvgl/src/extra/widgets/tabview/lv_tabview.c ****         } else {
  95:Middlewares/lvgl/src/extra/widgets/tabview/lv_tabview.c ****             new_map[tab_id * 2 - 3] = "\n";
  96:Middlewares/lvgl/src/extra/widgets/tabview/lv_tabview.c ****             new_map[tab_id * 2 - 2] = lv_mem_alloc(strlen(name) + 1);
  97:Middlewares/lvgl/src/extra/widgets/tabview/lv_tabview.c ****             new_map[tab_id * 2 - 1] = "";
  98:Middlewares/lvgl/src/extra/widgets/tabview/lv_tabview.c ****             strcpy((char *)new_map[(tab_id * 2) - 2], name);
  99:Middlewares/lvgl/src/extra/widgets/tabview/lv_tabview.c ****         }
 100:Middlewares/lvgl/src/extra/widgets/tabview/lv_tabview.c ****     }
 101:Middlewares/lvgl/src/extra/widgets/tabview/lv_tabview.c ****     tabview->map = new_map;
 102:Middlewares/lvgl/src/extra/widgets/tabview/lv_tabview.c ****     lv_btnmatrix_set_map(btns, (const char **)new_map);
 103:Middlewares/lvgl/src/extra/widgets/tabview/lv_tabview.c ****     lv_mem_free(old_map);
 104:Middlewares/lvgl/src/extra/widgets/tabview/lv_tabview.c **** 
 105:Middlewares/lvgl/src/extra/widgets/tabview/lv_tabview.c ****     lv_btnmatrix_set_btn_ctrl_all(btns, LV_BTNMATRIX_CTRL_CHECKABLE | LV_BTNMATRIX_CTRL_CLICK_TRIG 
 106:Middlewares/lvgl/src/extra/widgets/tabview/lv_tabview.c **** 
 107:Middlewares/lvgl/src/extra/widgets/tabview/lv_tabview.c ****     tabview->tab_cnt++;
 108:Middlewares/lvgl/src/extra/widgets/tabview/lv_tabview.c ****     if(tabview->tab_cnt == 1) {
 109:Middlewares/lvgl/src/extra/widgets/tabview/lv_tabview.c ****         lv_tabview_set_act(obj, 0, LV_ANIM_OFF);
 110:Middlewares/lvgl/src/extra/widgets/tabview/lv_tabview.c ****     }
 111:Middlewares/lvgl/src/extra/widgets/tabview/lv_tabview.c **** 
 112:Middlewares/lvgl/src/extra/widgets/tabview/lv_tabview.c ****     lv_btnmatrix_set_btn_ctrl(btns, tabview->tab_cur, LV_BTNMATRIX_CTRL_CHECKED);
 113:Middlewares/lvgl/src/extra/widgets/tabview/lv_tabview.c **** 
 114:Middlewares/lvgl/src/extra/widgets/tabview/lv_tabview.c ****     return page;
 115:Middlewares/lvgl/src/extra/widgets/tabview/lv_tabview.c **** }
 116:Middlewares/lvgl/src/extra/widgets/tabview/lv_tabview.c **** 
 117:Middlewares/lvgl/src/extra/widgets/tabview/lv_tabview.c **** void lv_tabview_set_act(lv_obj_t * obj, uint32_t id, lv_anim_enable_t anim_en)
 118:Middlewares/lvgl/src/extra/widgets/tabview/lv_tabview.c **** {
 119:Middlewares/lvgl/src/extra/widgets/tabview/lv_tabview.c ****     lv_tabview_t * tabview = (lv_tabview_t *)obj;
 120:Middlewares/lvgl/src/extra/widgets/tabview/lv_tabview.c **** 
 121:Middlewares/lvgl/src/extra/widgets/tabview/lv_tabview.c ****     if(id >= tabview->tab_cnt) {
 122:Middlewares/lvgl/src/extra/widgets/tabview/lv_tabview.c ****         id = tabview->tab_cnt - 1;
 123:Middlewares/lvgl/src/extra/widgets/tabview/lv_tabview.c ****     }
 124:Middlewares/lvgl/src/extra/widgets/tabview/lv_tabview.c **** 
 125:Middlewares/lvgl/src/extra/widgets/tabview/lv_tabview.c ****     /*To be sure lv_obj_get_content_width will return valid value*/
 126:Middlewares/lvgl/src/extra/widgets/tabview/lv_tabview.c ****     lv_obj_update_layout(obj);
 127:Middlewares/lvgl/src/extra/widgets/tabview/lv_tabview.c **** 
 128:Middlewares/lvgl/src/extra/widgets/tabview/lv_tabview.c ****     lv_obj_t * cont = lv_tabview_get_content(obj);
 129:Middlewares/lvgl/src/extra/widgets/tabview/lv_tabview.c ****     if(cont == NULL) return;
 130:Middlewares/lvgl/src/extra/widgets/tabview/lv_tabview.c ****     lv_coord_t gap = lv_obj_get_style_pad_column(cont, LV_PART_MAIN);
 131:Middlewares/lvgl/src/extra/widgets/tabview/lv_tabview.c ****     lv_coord_t w = lv_obj_get_content_width(cont);
 132:Middlewares/lvgl/src/extra/widgets/tabview/lv_tabview.c ****     if(lv_obj_get_style_base_dir(obj, LV_PART_MAIN) != LV_BASE_DIR_RTL) {
 133:Middlewares/lvgl/src/extra/widgets/tabview/lv_tabview.c ****         lv_obj_scroll_to_x(cont, id * (gap + w), anim_en);
 134:Middlewares/lvgl/src/extra/widgets/tabview/lv_tabview.c ****     } else {
 135:Middlewares/lvgl/src/extra/widgets/tabview/lv_tabview.c ****         int32_t id_rtl = -(int32_t)id;
 136:Middlewares/lvgl/src/extra/widgets/tabview/lv_tabview.c ****         lv_obj_scroll_to_x(cont, (gap + w) * id_rtl, anim_en);
 137:Middlewares/lvgl/src/extra/widgets/tabview/lv_tabview.c ****     }
 138:Middlewares/lvgl/src/extra/widgets/tabview/lv_tabview.c **** 
 139:Middlewares/lvgl/src/extra/widgets/tabview/lv_tabview.c ****     lv_obj_t * btns = lv_tabview_get_tab_btns(obj);
 140:Middlewares/lvgl/src/extra/widgets/tabview/lv_tabview.c ****     lv_btnmatrix_set_btn_ctrl(btns, id, LV_BTNMATRIX_CTRL_CHECKED);
 141:Middlewares/lvgl/src/extra/widgets/tabview/lv_tabview.c ****     tabview->tab_cur = id;
 142:Middlewares/lvgl/src/extra/widgets/tabview/lv_tabview.c **** }
 143:Middlewares/lvgl/src/extra/widgets/tabview/lv_tabview.c **** 
 144:Middlewares/lvgl/src/extra/widgets/tabview/lv_tabview.c **** uint16_t lv_tabview_get_tab_act(lv_obj_t * obj)
ARM GAS  /tmp/ccQ1IU3X.s 			page 4


 145:Middlewares/lvgl/src/extra/widgets/tabview/lv_tabview.c **** {
 146:Middlewares/lvgl/src/extra/widgets/tabview/lv_tabview.c ****     lv_tabview_t * tabview = (lv_tabview_t *)obj;
 147:Middlewares/lvgl/src/extra/widgets/tabview/lv_tabview.c ****     return tabview->tab_cur;
 148:Middlewares/lvgl/src/extra/widgets/tabview/lv_tabview.c **** }
 149:Middlewares/lvgl/src/extra/widgets/tabview/lv_tabview.c **** 
 150:Middlewares/lvgl/src/extra/widgets/tabview/lv_tabview.c **** lv_obj_t * lv_tabview_get_content(lv_obj_t * tv)
 151:Middlewares/lvgl/src/extra/widgets/tabview/lv_tabview.c **** {
 152:Middlewares/lvgl/src/extra/widgets/tabview/lv_tabview.c ****     return lv_obj_get_child(tv, 1);
 153:Middlewares/lvgl/src/extra/widgets/tabview/lv_tabview.c **** }
 154:Middlewares/lvgl/src/extra/widgets/tabview/lv_tabview.c **** 
 155:Middlewares/lvgl/src/extra/widgets/tabview/lv_tabview.c **** lv_obj_t * lv_tabview_get_tab_btns(lv_obj_t * tv)
 156:Middlewares/lvgl/src/extra/widgets/tabview/lv_tabview.c **** {
 157:Middlewares/lvgl/src/extra/widgets/tabview/lv_tabview.c ****     return lv_obj_get_child(tv, 0);
 158:Middlewares/lvgl/src/extra/widgets/tabview/lv_tabview.c **** }
 159:Middlewares/lvgl/src/extra/widgets/tabview/lv_tabview.c **** 
 160:Middlewares/lvgl/src/extra/widgets/tabview/lv_tabview.c **** /**********************
 161:Middlewares/lvgl/src/extra/widgets/tabview/lv_tabview.c ****  *   STATIC FUNCTIONS
 162:Middlewares/lvgl/src/extra/widgets/tabview/lv_tabview.c ****  **********************/
 163:Middlewares/lvgl/src/extra/widgets/tabview/lv_tabview.c **** 
 164:Middlewares/lvgl/src/extra/widgets/tabview/lv_tabview.c **** static void lv_tabview_constructor(const lv_obj_class_t * class_p, lv_obj_t * obj)
 165:Middlewares/lvgl/src/extra/widgets/tabview/lv_tabview.c **** {
 166:Middlewares/lvgl/src/extra/widgets/tabview/lv_tabview.c ****     LV_UNUSED(class_p);
 167:Middlewares/lvgl/src/extra/widgets/tabview/lv_tabview.c ****     lv_tabview_t * tabview = (lv_tabview_t *)obj;
 168:Middlewares/lvgl/src/extra/widgets/tabview/lv_tabview.c **** 
 169:Middlewares/lvgl/src/extra/widgets/tabview/lv_tabview.c ****     tabview->tab_pos = tabpos_create;
 170:Middlewares/lvgl/src/extra/widgets/tabview/lv_tabview.c **** 
 171:Middlewares/lvgl/src/extra/widgets/tabview/lv_tabview.c ****     switch(tabview->tab_pos) {
 172:Middlewares/lvgl/src/extra/widgets/tabview/lv_tabview.c ****     case LV_DIR_TOP:
 173:Middlewares/lvgl/src/extra/widgets/tabview/lv_tabview.c ****         lv_obj_set_flex_flow(obj, LV_FLEX_FLOW_COLUMN);
 174:Middlewares/lvgl/src/extra/widgets/tabview/lv_tabview.c ****         break;
 175:Middlewares/lvgl/src/extra/widgets/tabview/lv_tabview.c ****     case LV_DIR_BOTTOM:
 176:Middlewares/lvgl/src/extra/widgets/tabview/lv_tabview.c ****         lv_obj_set_flex_flow(obj, LV_FLEX_FLOW_COLUMN_REVERSE);
 177:Middlewares/lvgl/src/extra/widgets/tabview/lv_tabview.c ****         break;
 178:Middlewares/lvgl/src/extra/widgets/tabview/lv_tabview.c ****     case LV_DIR_LEFT:
 179:Middlewares/lvgl/src/extra/widgets/tabview/lv_tabview.c ****         lv_obj_set_flex_flow(obj, LV_FLEX_FLOW_ROW);
 180:Middlewares/lvgl/src/extra/widgets/tabview/lv_tabview.c ****         break;
 181:Middlewares/lvgl/src/extra/widgets/tabview/lv_tabview.c ****     case LV_DIR_RIGHT:
 182:Middlewares/lvgl/src/extra/widgets/tabview/lv_tabview.c ****         lv_obj_set_flex_flow(obj, LV_FLEX_FLOW_ROW_REVERSE);
 183:Middlewares/lvgl/src/extra/widgets/tabview/lv_tabview.c ****         break;
 184:Middlewares/lvgl/src/extra/widgets/tabview/lv_tabview.c ****     }
 185:Middlewares/lvgl/src/extra/widgets/tabview/lv_tabview.c **** 
 186:Middlewares/lvgl/src/extra/widgets/tabview/lv_tabview.c ****     lv_obj_set_size(obj, LV_PCT(100), LV_PCT(100));
 187:Middlewares/lvgl/src/extra/widgets/tabview/lv_tabview.c **** 
 188:Middlewares/lvgl/src/extra/widgets/tabview/lv_tabview.c ****     lv_obj_t * btnm;
 189:Middlewares/lvgl/src/extra/widgets/tabview/lv_tabview.c ****     lv_obj_t * cont;
 190:Middlewares/lvgl/src/extra/widgets/tabview/lv_tabview.c **** 
 191:Middlewares/lvgl/src/extra/widgets/tabview/lv_tabview.c ****     btnm = lv_btnmatrix_create(obj);
 192:Middlewares/lvgl/src/extra/widgets/tabview/lv_tabview.c ****     cont = lv_obj_create(obj);
 193:Middlewares/lvgl/src/extra/widgets/tabview/lv_tabview.c **** 
 194:Middlewares/lvgl/src/extra/widgets/tabview/lv_tabview.c ****     lv_btnmatrix_set_one_checked(btnm, true);
 195:Middlewares/lvgl/src/extra/widgets/tabview/lv_tabview.c ****     tabview->map = lv_mem_alloc(sizeof(const char *));
 196:Middlewares/lvgl/src/extra/widgets/tabview/lv_tabview.c ****     tabview->map[0] = "";
 197:Middlewares/lvgl/src/extra/widgets/tabview/lv_tabview.c ****     lv_btnmatrix_set_map(btnm, (const char **)tabview->map);
 198:Middlewares/lvgl/src/extra/widgets/tabview/lv_tabview.c ****     lv_obj_add_event_cb(btnm, btns_value_changed_event_cb, LV_EVENT_VALUE_CHANGED, NULL);
 199:Middlewares/lvgl/src/extra/widgets/tabview/lv_tabview.c ****     lv_obj_add_flag(btnm, LV_OBJ_FLAG_EVENT_BUBBLE);
 200:Middlewares/lvgl/src/extra/widgets/tabview/lv_tabview.c **** 
 201:Middlewares/lvgl/src/extra/widgets/tabview/lv_tabview.c ****     lv_obj_add_event_cb(cont, cont_scroll_end_event_cb, LV_EVENT_ALL, NULL);
ARM GAS  /tmp/ccQ1IU3X.s 			page 5


 202:Middlewares/lvgl/src/extra/widgets/tabview/lv_tabview.c ****     lv_obj_set_scrollbar_mode(cont, LV_SCROLLBAR_MODE_OFF);
 203:Middlewares/lvgl/src/extra/widgets/tabview/lv_tabview.c **** 
 204:Middlewares/lvgl/src/extra/widgets/tabview/lv_tabview.c ****     switch(tabview->tab_pos) {
 205:Middlewares/lvgl/src/extra/widgets/tabview/lv_tabview.c ****      case LV_DIR_TOP:
 206:Middlewares/lvgl/src/extra/widgets/tabview/lv_tabview.c ****      case LV_DIR_BOTTOM:
 207:Middlewares/lvgl/src/extra/widgets/tabview/lv_tabview.c ****          lv_obj_set_size(btnm, LV_PCT(100), tabsize_create);
 208:Middlewares/lvgl/src/extra/widgets/tabview/lv_tabview.c ****          lv_obj_set_width(cont, LV_PCT(100));
 209:Middlewares/lvgl/src/extra/widgets/tabview/lv_tabview.c ****          lv_obj_set_flex_grow(cont, 1);
 210:Middlewares/lvgl/src/extra/widgets/tabview/lv_tabview.c ****          break;
 211:Middlewares/lvgl/src/extra/widgets/tabview/lv_tabview.c ****      case LV_DIR_LEFT:
 212:Middlewares/lvgl/src/extra/widgets/tabview/lv_tabview.c ****      case LV_DIR_RIGHT:
 213:Middlewares/lvgl/src/extra/widgets/tabview/lv_tabview.c ****          lv_obj_set_size(btnm, tabsize_create, LV_PCT(100));
 214:Middlewares/lvgl/src/extra/widgets/tabview/lv_tabview.c ****          lv_obj_set_height(cont, LV_PCT(100));
 215:Middlewares/lvgl/src/extra/widgets/tabview/lv_tabview.c ****          lv_obj_set_flex_grow(cont, 1);
 216:Middlewares/lvgl/src/extra/widgets/tabview/lv_tabview.c ****          break;
 217:Middlewares/lvgl/src/extra/widgets/tabview/lv_tabview.c ****      }
 218:Middlewares/lvgl/src/extra/widgets/tabview/lv_tabview.c **** 
 219:Middlewares/lvgl/src/extra/widgets/tabview/lv_tabview.c ****     lv_group_t * g = lv_group_get_default();
 220:Middlewares/lvgl/src/extra/widgets/tabview/lv_tabview.c ****     if(g) lv_group_add_obj(g, btnm);
 221:Middlewares/lvgl/src/extra/widgets/tabview/lv_tabview.c **** 
 222:Middlewares/lvgl/src/extra/widgets/tabview/lv_tabview.c ****     lv_obj_set_flex_flow(cont, LV_FLEX_FLOW_ROW);
 223:Middlewares/lvgl/src/extra/widgets/tabview/lv_tabview.c ****     lv_obj_set_scroll_snap_x(cont, LV_SCROLL_SNAP_CENTER);
 224:Middlewares/lvgl/src/extra/widgets/tabview/lv_tabview.c ****     lv_obj_add_flag(cont, LV_OBJ_FLAG_SCROLL_ONE);
 225:Middlewares/lvgl/src/extra/widgets/tabview/lv_tabview.c ****     lv_obj_clear_flag(cont, LV_OBJ_FLAG_SCROLL_ON_FOCUS);
 226:Middlewares/lvgl/src/extra/widgets/tabview/lv_tabview.c **** }
 227:Middlewares/lvgl/src/extra/widgets/tabview/lv_tabview.c **** 
 228:Middlewares/lvgl/src/extra/widgets/tabview/lv_tabview.c **** static void lv_tabview_destructor(const lv_obj_class_t * class_p, lv_obj_t * obj)
 229:Middlewares/lvgl/src/extra/widgets/tabview/lv_tabview.c **** {
  29              		.loc 1 229 1 view -0
  30              		.cfi_startproc
  31              		@ args = 0, pretend = 0, frame = 0
  32              		@ frame_needed = 0, uses_anonymous_args = 0
  33              		.loc 1 229 1 is_stmt 0 view .LVU1
  34 0000 38B5     		push	{r3, r4, r5, lr}
  35              	.LCFI0:
  36              		.cfi_def_cfa_offset 16
  37              		.cfi_offset 3, -16
  38              		.cfi_offset 4, -12
  39              		.cfi_offset 5, -8
  40              		.cfi_offset 14, -4
  41 0002 0C46     		mov	r4, r1
 230:Middlewares/lvgl/src/extra/widgets/tabview/lv_tabview.c ****     LV_UNUSED(class_p);
  42              		.loc 1 230 5 is_stmt 1 view .LVU2
 231:Middlewares/lvgl/src/extra/widgets/tabview/lv_tabview.c ****     lv_tabview_t * tabview = (lv_tabview_t *)obj;
  43              		.loc 1 231 5 view .LVU3
  44              	.LVL1:
 232:Middlewares/lvgl/src/extra/widgets/tabview/lv_tabview.c **** 
 233:Middlewares/lvgl/src/extra/widgets/tabview/lv_tabview.c ****     uint32_t i;
  45              		.loc 1 233 5 view .LVU4
 234:Middlewares/lvgl/src/extra/widgets/tabview/lv_tabview.c ****     if(tabview->tab_pos & LV_DIR_VER) {
  46              		.loc 1 234 5 view .LVU5
  47              		.loc 1 234 15 is_stmt 0 view .LVU6
  48 0004 91F82C30 		ldrb	r3, [r1, #44]	@ zero_extendqisi2
  49              		.loc 1 234 7 view .LVU7
  50 0008 13F00C0F 		tst	r3, #12
  51 000c 18D1     		bne	.L8
  52              	.LVL2:
ARM GAS  /tmp/ccQ1IU3X.s 			page 6


  53              	.L3:
 235:Middlewares/lvgl/src/extra/widgets/tabview/lv_tabview.c ****         for(i = 0; i < tabview->tab_cnt; i++) {
 236:Middlewares/lvgl/src/extra/widgets/tabview/lv_tabview.c ****             lv_mem_free(tabview->map[i]);
 237:Middlewares/lvgl/src/extra/widgets/tabview/lv_tabview.c ****             tabview->map[i] = NULL;
 238:Middlewares/lvgl/src/extra/widgets/tabview/lv_tabview.c ****         }
 239:Middlewares/lvgl/src/extra/widgets/tabview/lv_tabview.c ****     }
 240:Middlewares/lvgl/src/extra/widgets/tabview/lv_tabview.c ****     if(tabview->tab_pos & LV_DIR_HOR) {
  54              		.loc 1 240 5 is_stmt 1 view .LVU8
  55              		.loc 1 240 15 is_stmt 0 view .LVU9
  56 000e 94F82C30 		ldrb	r3, [r4, #44]	@ zero_extendqisi2
  57              		.loc 1 240 7 view .LVU10
  58 0012 13F0030F 		tst	r3, #3
  59 0016 23D1     		bne	.L9
  60              	.L6:
 241:Middlewares/lvgl/src/extra/widgets/tabview/lv_tabview.c ****         for(i = 0; i < tabview->tab_cnt; i++) {
 242:Middlewares/lvgl/src/extra/widgets/tabview/lv_tabview.c ****             lv_mem_free(tabview->map[i * 2]);
 243:Middlewares/lvgl/src/extra/widgets/tabview/lv_tabview.c ****             tabview->map[i * 2] = NULL;
 244:Middlewares/lvgl/src/extra/widgets/tabview/lv_tabview.c ****         }
 245:Middlewares/lvgl/src/extra/widgets/tabview/lv_tabview.c ****     }
 246:Middlewares/lvgl/src/extra/widgets/tabview/lv_tabview.c **** 
 247:Middlewares/lvgl/src/extra/widgets/tabview/lv_tabview.c **** 
 248:Middlewares/lvgl/src/extra/widgets/tabview/lv_tabview.c ****     lv_mem_free(tabview->map);
  61              		.loc 1 248 5 is_stmt 1 view .LVU11
  62 0018 606A     		ldr	r0, [r4, #36]
  63 001a FFF7FEFF 		bl	lv_mem_free
  64              	.LVL3:
 249:Middlewares/lvgl/src/extra/widgets/tabview/lv_tabview.c ****     tabview->map = NULL;
  65              		.loc 1 249 5 view .LVU12
  66              		.loc 1 249 18 is_stmt 0 view .LVU13
  67 001e 0023     		movs	r3, #0
  68 0020 6362     		str	r3, [r4, #36]
 250:Middlewares/lvgl/src/extra/widgets/tabview/lv_tabview.c **** }
  69              		.loc 1 250 1 view .LVU14
  70 0022 38BD     		pop	{r3, r4, r5, pc}
  71              	.LVL4:
  72              	.L4:
 236:Middlewares/lvgl/src/extra/widgets/tabview/lv_tabview.c ****             tabview->map[i] = NULL;
  73              		.loc 1 236 13 is_stmt 1 discriminator 3 view .LVU15
 236:Middlewares/lvgl/src/extra/widgets/tabview/lv_tabview.c ****             tabview->map[i] = NULL;
  74              		.loc 1 236 32 is_stmt 0 discriminator 3 view .LVU16
  75 0024 636A     		ldr	r3, [r4, #36]
 236:Middlewares/lvgl/src/extra/widgets/tabview/lv_tabview.c ****             tabview->map[i] = NULL;
  76              		.loc 1 236 13 discriminator 3 view .LVU17
  77 0026 53F82500 		ldr	r0, [r3, r5, lsl #2]
  78 002a FFF7FEFF 		bl	lv_mem_free
  79              	.LVL5:
 237:Middlewares/lvgl/src/extra/widgets/tabview/lv_tabview.c ****         }
  80              		.loc 1 237 13 is_stmt 1 discriminator 3 view .LVU18
 237:Middlewares/lvgl/src/extra/widgets/tabview/lv_tabview.c ****         }
  81              		.loc 1 237 20 is_stmt 0 discriminator 3 view .LVU19
  82 002e 636A     		ldr	r3, [r4, #36]
 237:Middlewares/lvgl/src/extra/widgets/tabview/lv_tabview.c ****         }
  83              		.loc 1 237 29 discriminator 3 view .LVU20
  84 0030 0022     		movs	r2, #0
  85 0032 43F82520 		str	r2, [r3, r5, lsl #2]
 235:Middlewares/lvgl/src/extra/widgets/tabview/lv_tabview.c ****             lv_mem_free(tabview->map[i]);
  86              		.loc 1 235 42 is_stmt 1 discriminator 3 view .LVU21
ARM GAS  /tmp/ccQ1IU3X.s 			page 7


 235:Middlewares/lvgl/src/extra/widgets/tabview/lv_tabview.c ****             lv_mem_free(tabview->map[i]);
  87              		.loc 1 235 43 is_stmt 0 discriminator 3 view .LVU22
  88 0036 0135     		adds	r5, r5, #1
  89              	.LVL6:
  90              	.L2:
 235:Middlewares/lvgl/src/extra/widgets/tabview/lv_tabview.c ****             lv_mem_free(tabview->map[i]);
  91              		.loc 1 235 20 is_stmt 1 discriminator 1 view .LVU23
 235:Middlewares/lvgl/src/extra/widgets/tabview/lv_tabview.c ****             lv_mem_free(tabview->map[i]);
  92              		.loc 1 235 31 is_stmt 0 discriminator 1 view .LVU24
  93 0038 238D     		ldrh	r3, [r4, #40]
 235:Middlewares/lvgl/src/extra/widgets/tabview/lv_tabview.c ****             lv_mem_free(tabview->map[i]);
  94              		.loc 1 235 9 discriminator 1 view .LVU25
  95 003a AB42     		cmp	r3, r5
  96 003c F2D8     		bhi	.L4
  97 003e E6E7     		b	.L3
  98              	.LVL7:
  99              	.L8:
 235:Middlewares/lvgl/src/extra/widgets/tabview/lv_tabview.c ****             lv_mem_free(tabview->map[i]);
 100              		.loc 1 235 15 view .LVU26
 101 0040 0025     		movs	r5, #0
 102 0042 F9E7     		b	.L2
 103              	.LVL8:
 104              	.L7:
 242:Middlewares/lvgl/src/extra/widgets/tabview/lv_tabview.c ****             tabview->map[i * 2] = NULL;
 105              		.loc 1 242 13 is_stmt 1 discriminator 3 view .LVU27
 242:Middlewares/lvgl/src/extra/widgets/tabview/lv_tabview.c ****             tabview->map[i * 2] = NULL;
 106              		.loc 1 242 32 is_stmt 0 discriminator 3 view .LVU28
 107 0044 636A     		ldr	r3, [r4, #36]
 242:Middlewares/lvgl/src/extra/widgets/tabview/lv_tabview.c ****             tabview->map[i * 2] = NULL;
 108              		.loc 1 242 13 discriminator 3 view .LVU29
 109 0046 53F83500 		ldr	r0, [r3, r5, lsl #3]
 110 004a FFF7FEFF 		bl	lv_mem_free
 111              	.LVL9:
 243:Middlewares/lvgl/src/extra/widgets/tabview/lv_tabview.c ****         }
 112              		.loc 1 243 13 is_stmt 1 discriminator 3 view .LVU30
 243:Middlewares/lvgl/src/extra/widgets/tabview/lv_tabview.c ****         }
 113              		.loc 1 243 20 is_stmt 0 discriminator 3 view .LVU31
 114 004e 636A     		ldr	r3, [r4, #36]
 243:Middlewares/lvgl/src/extra/widgets/tabview/lv_tabview.c ****         }
 115              		.loc 1 243 33 discriminator 3 view .LVU32
 116 0050 0022     		movs	r2, #0
 117 0052 43F83520 		str	r2, [r3, r5, lsl #3]
 241:Middlewares/lvgl/src/extra/widgets/tabview/lv_tabview.c ****             lv_mem_free(tabview->map[i * 2]);
 118              		.loc 1 241 42 is_stmt 1 discriminator 3 view .LVU33
 241:Middlewares/lvgl/src/extra/widgets/tabview/lv_tabview.c ****             lv_mem_free(tabview->map[i * 2]);
 119              		.loc 1 241 43 is_stmt 0 discriminator 3 view .LVU34
 120 0056 0135     		adds	r5, r5, #1
 121              	.LVL10:
 122              	.L5:
 241:Middlewares/lvgl/src/extra/widgets/tabview/lv_tabview.c ****             lv_mem_free(tabview->map[i * 2]);
 123              		.loc 1 241 20 is_stmt 1 discriminator 1 view .LVU35
 241:Middlewares/lvgl/src/extra/widgets/tabview/lv_tabview.c ****             lv_mem_free(tabview->map[i * 2]);
 124              		.loc 1 241 31 is_stmt 0 discriminator 1 view .LVU36
 125 0058 238D     		ldrh	r3, [r4, #40]
 241:Middlewares/lvgl/src/extra/widgets/tabview/lv_tabview.c ****             lv_mem_free(tabview->map[i * 2]);
 126              		.loc 1 241 9 discriminator 1 view .LVU37
 127 005a AB42     		cmp	r3, r5
ARM GAS  /tmp/ccQ1IU3X.s 			page 8


 128 005c F2D8     		bhi	.L7
 129 005e DBE7     		b	.L6
 130              	.LVL11:
 131              	.L9:
 241:Middlewares/lvgl/src/extra/widgets/tabview/lv_tabview.c ****             lv_mem_free(tabview->map[i * 2]);
 132              		.loc 1 241 15 view .LVU38
 133 0060 0025     		movs	r5, #0
 134 0062 F9E7     		b	.L5
 135              		.cfi_endproc
 136              	.LFE191:
 138              		.section	.rodata.lv_tabview_constructor.str1.4,"aMS",%progbits,1
 139              		.align	2
 140              	.LC0:
 141 0000 00       		.ascii	"\000"
 142              		.section	.text.lv_tabview_constructor,"ax",%progbits
 143              		.align	1
 144              		.syntax unified
 145              		.thumb
 146              		.thumb_func
 147              		.fpu fpv4-sp-d16
 149              	lv_tabview_constructor:
 150              	.LVL12:
 151              	.LFB190:
 165:Middlewares/lvgl/src/extra/widgets/tabview/lv_tabview.c ****     LV_UNUSED(class_p);
 152              		.loc 1 165 1 is_stmt 1 view -0
 153              		.cfi_startproc
 154              		@ args = 0, pretend = 0, frame = 0
 155              		@ frame_needed = 0, uses_anonymous_args = 0
 165:Middlewares/lvgl/src/extra/widgets/tabview/lv_tabview.c ****     LV_UNUSED(class_p);
 156              		.loc 1 165 1 is_stmt 0 view .LVU40
 157 0000 70B5     		push	{r4, r5, r6, lr}
 158              	.LCFI1:
 159              		.cfi_def_cfa_offset 16
 160              		.cfi_offset 4, -16
 161              		.cfi_offset 5, -12
 162              		.cfi_offset 6, -8
 163              		.cfi_offset 14, -4
 164 0002 0C46     		mov	r4, r1
 166:Middlewares/lvgl/src/extra/widgets/tabview/lv_tabview.c ****     lv_tabview_t * tabview = (lv_tabview_t *)obj;
 165              		.loc 1 166 5 is_stmt 1 view .LVU41
 167:Middlewares/lvgl/src/extra/widgets/tabview/lv_tabview.c **** 
 166              		.loc 1 167 5 view .LVU42
 167              	.LVL13:
 169:Middlewares/lvgl/src/extra/widgets/tabview/lv_tabview.c **** 
 168              		.loc 1 169 5 view .LVU43
 169:Middlewares/lvgl/src/extra/widgets/tabview/lv_tabview.c **** 
 169              		.loc 1 169 22 is_stmt 0 view .LVU44
 170 0004 4B4B     		ldr	r3, .L25
 171 0006 1B78     		ldrb	r3, [r3]	@ zero_extendqisi2
 172 0008 81F82C30 		strb	r3, [r1, #44]
 171:Middlewares/lvgl/src/extra/widgets/tabview/lv_tabview.c ****     case LV_DIR_TOP:
 173              		.loc 1 171 5 is_stmt 1 view .LVU45
 174 000c 013B     		subs	r3, r3, #1
 175 000e 072B     		cmp	r3, #7
 176 0010 09D8     		bhi	.L12
 177 0012 DFE803F0 		tbb	[pc, r3]
 178              	.L14:
ARM GAS  /tmp/ccQ1IU3X.s 			page 9


 179 0016 59       		.byte	(.L17-.L14)/2
 180 0017 5E       		.byte	(.L16-.L14)/2
 181 0018 08       		.byte	(.L12-.L14)/2
 182 0019 04       		.byte	(.L15-.L14)/2
 183 001a 08       		.byte	(.L12-.L14)/2
 184 001b 08       		.byte	(.L12-.L14)/2
 185 001c 08       		.byte	(.L12-.L14)/2
 186 001d 54       		.byte	(.L13-.L14)/2
 187              		.p2align 1
 188              	.L15:
 173:Middlewares/lvgl/src/extra/widgets/tabview/lv_tabview.c ****         break;
 189              		.loc 1 173 9 view .LVU46
 190 001e 0121     		movs	r1, #1
 191              	.LVL14:
 173:Middlewares/lvgl/src/extra/widgets/tabview/lv_tabview.c ****         break;
 192              		.loc 1 173 9 is_stmt 0 view .LVU47
 193 0020 2046     		mov	r0, r4
 194              	.LVL15:
 173:Middlewares/lvgl/src/extra/widgets/tabview/lv_tabview.c ****         break;
 195              		.loc 1 173 9 view .LVU48
 196 0022 FFF7FEFF 		bl	lv_obj_set_flex_flow
 197              	.LVL16:
 174:Middlewares/lvgl/src/extra/widgets/tabview/lv_tabview.c ****     case LV_DIR_BOTTOM:
 198              		.loc 1 174 9 is_stmt 1 view .LVU49
 199              	.L12:
 186:Middlewares/lvgl/src/extra/widgets/tabview/lv_tabview.c **** 
 200              		.loc 1 186 5 view .LVU50
 201 0026 42F26402 		movw	r2, #8292
 202 002a 1146     		mov	r1, r2
 203 002c 2046     		mov	r0, r4
 204 002e FFF7FEFF 		bl	lv_obj_set_size
 205              	.LVL17:
 188:Middlewares/lvgl/src/extra/widgets/tabview/lv_tabview.c ****     lv_obj_t * cont;
 206              		.loc 1 188 5 view .LVU51
 189:Middlewares/lvgl/src/extra/widgets/tabview/lv_tabview.c **** 
 207              		.loc 1 189 5 view .LVU52
 191:Middlewares/lvgl/src/extra/widgets/tabview/lv_tabview.c ****     cont = lv_obj_create(obj);
 208              		.loc 1 191 5 view .LVU53
 191:Middlewares/lvgl/src/extra/widgets/tabview/lv_tabview.c ****     cont = lv_obj_create(obj);
 209              		.loc 1 191 12 is_stmt 0 view .LVU54
 210 0032 2046     		mov	r0, r4
 211 0034 FFF7FEFF 		bl	lv_btnmatrix_create
 212              	.LVL18:
 213 0038 0646     		mov	r6, r0
 214              	.LVL19:
 192:Middlewares/lvgl/src/extra/widgets/tabview/lv_tabview.c **** 
 215              		.loc 1 192 5 is_stmt 1 view .LVU55
 192:Middlewares/lvgl/src/extra/widgets/tabview/lv_tabview.c **** 
 216              		.loc 1 192 12 is_stmt 0 view .LVU56
 217 003a 2046     		mov	r0, r4
 218              	.LVL20:
 192:Middlewares/lvgl/src/extra/widgets/tabview/lv_tabview.c **** 
 219              		.loc 1 192 12 view .LVU57
 220 003c FFF7FEFF 		bl	lv_obj_create
 221              	.LVL21:
 222 0040 0546     		mov	r5, r0
 223              	.LVL22:
ARM GAS  /tmp/ccQ1IU3X.s 			page 10


 194:Middlewares/lvgl/src/extra/widgets/tabview/lv_tabview.c ****     tabview->map = lv_mem_alloc(sizeof(const char *));
 224              		.loc 1 194 5 is_stmt 1 view .LVU58
 225 0042 0121     		movs	r1, #1
 226 0044 3046     		mov	r0, r6
 227              	.LVL23:
 194:Middlewares/lvgl/src/extra/widgets/tabview/lv_tabview.c ****     tabview->map = lv_mem_alloc(sizeof(const char *));
 228              		.loc 1 194 5 is_stmt 0 view .LVU59
 229 0046 FFF7FEFF 		bl	lv_btnmatrix_set_one_checked
 230              	.LVL24:
 195:Middlewares/lvgl/src/extra/widgets/tabview/lv_tabview.c ****     tabview->map[0] = "";
 231              		.loc 1 195 5 is_stmt 1 view .LVU60
 195:Middlewares/lvgl/src/extra/widgets/tabview/lv_tabview.c ****     tabview->map[0] = "";
 232              		.loc 1 195 20 is_stmt 0 view .LVU61
 233 004a 0420     		movs	r0, #4
 234 004c FFF7FEFF 		bl	lv_mem_alloc
 235              	.LVL25:
 195:Middlewares/lvgl/src/extra/widgets/tabview/lv_tabview.c ****     tabview->map[0] = "";
 236              		.loc 1 195 18 view .LVU62
 237 0050 6062     		str	r0, [r4, #36]
 196:Middlewares/lvgl/src/extra/widgets/tabview/lv_tabview.c ****     lv_btnmatrix_set_map(btnm, (const char **)tabview->map);
 238              		.loc 1 196 5 is_stmt 1 view .LVU63
 196:Middlewares/lvgl/src/extra/widgets/tabview/lv_tabview.c ****     lv_btnmatrix_set_map(btnm, (const char **)tabview->map);
 239              		.loc 1 196 21 is_stmt 0 view .LVU64
 240 0052 394B     		ldr	r3, .L25+4
 241 0054 0360     		str	r3, [r0]
 197:Middlewares/lvgl/src/extra/widgets/tabview/lv_tabview.c ****     lv_obj_add_event_cb(btnm, btns_value_changed_event_cb, LV_EVENT_VALUE_CHANGED, NULL);
 242              		.loc 1 197 5 is_stmt 1 view .LVU65
 243 0056 616A     		ldr	r1, [r4, #36]
 244 0058 3046     		mov	r0, r6
 245 005a FFF7FEFF 		bl	lv_btnmatrix_set_map
 246              	.LVL26:
 198:Middlewares/lvgl/src/extra/widgets/tabview/lv_tabview.c ****     lv_obj_add_flag(btnm, LV_OBJ_FLAG_EVENT_BUBBLE);
 247              		.loc 1 198 5 view .LVU66
 248 005e 0023     		movs	r3, #0
 249 0060 1C22     		movs	r2, #28
 250 0062 3649     		ldr	r1, .L25+8
 251 0064 3046     		mov	r0, r6
 252 0066 FFF7FEFF 		bl	lv_obj_add_event_cb
 253              	.LVL27:
 199:Middlewares/lvgl/src/extra/widgets/tabview/lv_tabview.c **** 
 254              		.loc 1 199 5 view .LVU67
 255 006a 4FF48051 		mov	r1, #4096
 256 006e 3046     		mov	r0, r6
 257 0070 FFF7FEFF 		bl	lv_obj_add_flag
 258              	.LVL28:
 201:Middlewares/lvgl/src/extra/widgets/tabview/lv_tabview.c ****     lv_obj_set_scrollbar_mode(cont, LV_SCROLLBAR_MODE_OFF);
 259              		.loc 1 201 5 view .LVU68
 260 0074 0023     		movs	r3, #0
 261 0076 1A46     		mov	r2, r3
 262 0078 3149     		ldr	r1, .L25+12
 263 007a 2846     		mov	r0, r5
 264 007c FFF7FEFF 		bl	lv_obj_add_event_cb
 265              	.LVL29:
 202:Middlewares/lvgl/src/extra/widgets/tabview/lv_tabview.c **** 
 266              		.loc 1 202 5 view .LVU69
 267 0080 0021     		movs	r1, #0
 268 0082 2846     		mov	r0, r5
ARM GAS  /tmp/ccQ1IU3X.s 			page 11


 269 0084 FFF7FEFF 		bl	lv_obj_set_scrollbar_mode
 270              	.LVL30:
 204:Middlewares/lvgl/src/extra/widgets/tabview/lv_tabview.c ****      case LV_DIR_TOP:
 271              		.loc 1 204 5 view .LVU70
 204:Middlewares/lvgl/src/extra/widgets/tabview/lv_tabview.c ****      case LV_DIR_TOP:
 272              		.loc 1 204 19 is_stmt 0 view .LVU71
 273 0088 94F82C30 		ldrb	r3, [r4, #44]	@ zero_extendqisi2
 204:Middlewares/lvgl/src/extra/widgets/tabview/lv_tabview.c ****      case LV_DIR_TOP:
 274              		.loc 1 204 5 view .LVU72
 275 008c 042B     		cmp	r3, #4
 276 008e 27D0     		beq	.L18
 277 0090 24D8     		bhi	.L19
 278 0092 013B     		subs	r3, r3, #1
 279 0094 DBB2     		uxtb	r3, r3
 280 0096 012B     		cmp	r3, #1
 281 0098 33D8     		bhi	.L20
 213:Middlewares/lvgl/src/extra/widgets/tabview/lv_tabview.c ****          lv_obj_set_height(cont, LV_PCT(100));
 282              		.loc 1 213 10 is_stmt 1 view .LVU73
 283 009a 42F26402 		movw	r2, #8292
 284 009e 294B     		ldr	r3, .L25+16
 285 00a0 B3F90010 		ldrsh	r1, [r3]
 286 00a4 3046     		mov	r0, r6
 287 00a6 FFF7FEFF 		bl	lv_obj_set_size
 288              	.LVL31:
 214:Middlewares/lvgl/src/extra/widgets/tabview/lv_tabview.c ****          lv_obj_set_flex_grow(cont, 1);
 289              		.loc 1 214 10 view .LVU74
 290 00aa 42F26401 		movw	r1, #8292
 291 00ae 2846     		mov	r0, r5
 292 00b0 FFF7FEFF 		bl	lv_obj_set_height
 293              	.LVL32:
 215:Middlewares/lvgl/src/extra/widgets/tabview/lv_tabview.c ****          break;
 294              		.loc 1 215 10 view .LVU75
 295 00b4 0121     		movs	r1, #1
 296 00b6 2846     		mov	r0, r5
 297 00b8 FFF7FEFF 		bl	lv_obj_set_flex_grow
 298              	.LVL33:
 216:Middlewares/lvgl/src/extra/widgets/tabview/lv_tabview.c ****      }
 299              		.loc 1 216 10 view .LVU76
 300 00bc 21E0     		b	.L20
 301              	.LVL34:
 302              	.L13:
 176:Middlewares/lvgl/src/extra/widgets/tabview/lv_tabview.c ****         break;
 303              		.loc 1 176 9 view .LVU77
 304 00be 0921     		movs	r1, #9
 305              	.LVL35:
 176:Middlewares/lvgl/src/extra/widgets/tabview/lv_tabview.c ****         break;
 306              		.loc 1 176 9 is_stmt 0 view .LVU78
 307 00c0 2046     		mov	r0, r4
 308              	.LVL36:
 176:Middlewares/lvgl/src/extra/widgets/tabview/lv_tabview.c ****         break;
 309              		.loc 1 176 9 view .LVU79
 310 00c2 FFF7FEFF 		bl	lv_obj_set_flex_flow
 311              	.LVL37:
 177:Middlewares/lvgl/src/extra/widgets/tabview/lv_tabview.c ****     case LV_DIR_LEFT:
 312              		.loc 1 177 9 is_stmt 1 view .LVU80
 313 00c6 AEE7     		b	.L12
 314              	.LVL38:
ARM GAS  /tmp/ccQ1IU3X.s 			page 12


 315              	.L17:
 179:Middlewares/lvgl/src/extra/widgets/tabview/lv_tabview.c ****         break;
 316              		.loc 1 179 9 view .LVU81
 317 00c8 0021     		movs	r1, #0
 318              	.LVL39:
 179:Middlewares/lvgl/src/extra/widgets/tabview/lv_tabview.c ****         break;
 319              		.loc 1 179 9 is_stmt 0 view .LVU82
 320 00ca 2046     		mov	r0, r4
 321              	.LVL40:
 179:Middlewares/lvgl/src/extra/widgets/tabview/lv_tabview.c ****         break;
 322              		.loc 1 179 9 view .LVU83
 323 00cc FFF7FEFF 		bl	lv_obj_set_flex_flow
 324              	.LVL41:
 180:Middlewares/lvgl/src/extra/widgets/tabview/lv_tabview.c ****     case LV_DIR_RIGHT:
 325              		.loc 1 180 9 is_stmt 1 view .LVU84
 326 00d0 A9E7     		b	.L12
 327              	.LVL42:
 328              	.L16:
 182:Middlewares/lvgl/src/extra/widgets/tabview/lv_tabview.c ****         break;
 329              		.loc 1 182 9 view .LVU85
 330 00d2 0821     		movs	r1, #8
 331              	.LVL43:
 182:Middlewares/lvgl/src/extra/widgets/tabview/lv_tabview.c ****         break;
 332              		.loc 1 182 9 is_stmt 0 view .LVU86
 333 00d4 2046     		mov	r0, r4
 334              	.LVL44:
 182:Middlewares/lvgl/src/extra/widgets/tabview/lv_tabview.c ****         break;
 335              		.loc 1 182 9 view .LVU87
 336 00d6 FFF7FEFF 		bl	lv_obj_set_flex_flow
 337              	.LVL45:
 183:Middlewares/lvgl/src/extra/widgets/tabview/lv_tabview.c ****     }
 338              		.loc 1 183 9 is_stmt 1 view .LVU88
 339 00da A4E7     		b	.L12
 340              	.LVL46:
 341              	.L19:
 204:Middlewares/lvgl/src/extra/widgets/tabview/lv_tabview.c ****      case LV_DIR_TOP:
 342              		.loc 1 204 5 is_stmt 0 view .LVU89
 343 00dc 082B     		cmp	r3, #8
 344 00de 10D1     		bne	.L20
 345              	.L18:
 207:Middlewares/lvgl/src/extra/widgets/tabview/lv_tabview.c ****          lv_obj_set_width(cont, LV_PCT(100));
 346              		.loc 1 207 10 is_stmt 1 view .LVU90
 347 00e0 184B     		ldr	r3, .L25+16
 348 00e2 B3F90020 		ldrsh	r2, [r3]
 349 00e6 42F26401 		movw	r1, #8292
 350 00ea 3046     		mov	r0, r6
 351 00ec FFF7FEFF 		bl	lv_obj_set_size
 352              	.LVL47:
 208:Middlewares/lvgl/src/extra/widgets/tabview/lv_tabview.c ****          lv_obj_set_flex_grow(cont, 1);
 353              		.loc 1 208 10 view .LVU91
 354 00f0 42F26401 		movw	r1, #8292
 355 00f4 2846     		mov	r0, r5
 356 00f6 FFF7FEFF 		bl	lv_obj_set_width
 357              	.LVL48:
 209:Middlewares/lvgl/src/extra/widgets/tabview/lv_tabview.c ****          break;
 358              		.loc 1 209 10 view .LVU92
 359 00fa 0121     		movs	r1, #1
ARM GAS  /tmp/ccQ1IU3X.s 			page 13


 360 00fc 2846     		mov	r0, r5
 361 00fe FFF7FEFF 		bl	lv_obj_set_flex_grow
 362              	.LVL49:
 210:Middlewares/lvgl/src/extra/widgets/tabview/lv_tabview.c ****      case LV_DIR_LEFT:
 363              		.loc 1 210 10 view .LVU93
 364              	.L20:
 219:Middlewares/lvgl/src/extra/widgets/tabview/lv_tabview.c ****     if(g) lv_group_add_obj(g, btnm);
 365              		.loc 1 219 5 view .LVU94
 219:Middlewares/lvgl/src/extra/widgets/tabview/lv_tabview.c ****     if(g) lv_group_add_obj(g, btnm);
 366              		.loc 1 219 22 is_stmt 0 view .LVU95
 367 0102 FFF7FEFF 		bl	lv_group_get_default
 368              	.LVL50:
 220:Middlewares/lvgl/src/extra/widgets/tabview/lv_tabview.c **** 
 369              		.loc 1 220 5 is_stmt 1 view .LVU96
 220:Middlewares/lvgl/src/extra/widgets/tabview/lv_tabview.c **** 
 370              		.loc 1 220 7 is_stmt 0 view .LVU97
 371 0106 10B1     		cbz	r0, .L22
 220:Middlewares/lvgl/src/extra/widgets/tabview/lv_tabview.c **** 
 372              		.loc 1 220 11 is_stmt 1 discriminator 1 view .LVU98
 373 0108 3146     		mov	r1, r6
 374 010a FFF7FEFF 		bl	lv_group_add_obj
 375              	.LVL51:
 376              	.L22:
 222:Middlewares/lvgl/src/extra/widgets/tabview/lv_tabview.c ****     lv_obj_set_scroll_snap_x(cont, LV_SCROLL_SNAP_CENTER);
 377              		.loc 1 222 5 view .LVU99
 378 010e 0021     		movs	r1, #0
 379 0110 2846     		mov	r0, r5
 380 0112 FFF7FEFF 		bl	lv_obj_set_flex_flow
 381              	.LVL52:
 223:Middlewares/lvgl/src/extra/widgets/tabview/lv_tabview.c ****     lv_obj_add_flag(cont, LV_OBJ_FLAG_SCROLL_ONE);
 382              		.loc 1 223 5 view .LVU100
 383 0116 0321     		movs	r1, #3
 384 0118 2846     		mov	r0, r5
 385 011a FFF7FEFF 		bl	lv_obj_set_scroll_snap_x
 386              	.LVL53:
 224:Middlewares/lvgl/src/extra/widgets/tabview/lv_tabview.c ****     lv_obj_clear_flag(cont, LV_OBJ_FLAG_SCROLL_ON_FOCUS);
 387              		.loc 1 224 5 view .LVU101
 388 011e 8021     		movs	r1, #128
 389 0120 2846     		mov	r0, r5
 390 0122 FFF7FEFF 		bl	lv_obj_add_flag
 391              	.LVL54:
 225:Middlewares/lvgl/src/extra/widgets/tabview/lv_tabview.c **** }
 392              		.loc 1 225 5 view .LVU102
 393 0126 4FF40071 		mov	r1, #512
 394 012a 2846     		mov	r0, r5
 395 012c FFF7FEFF 		bl	lv_obj_clear_flag
 396              	.LVL55:
 226:Middlewares/lvgl/src/extra/widgets/tabview/lv_tabview.c **** 
 397              		.loc 1 226 1 is_stmt 0 view .LVU103
 398 0130 70BD     		pop	{r4, r5, r6, pc}
 399              	.LVL56:
 400              	.L26:
 226:Middlewares/lvgl/src/extra/widgets/tabview/lv_tabview.c **** 
 401              		.loc 1 226 1 view .LVU104
 402 0132 00BF     		.align	2
 403              	.L25:
 404 0134 00000000 		.word	.LANCHOR0
ARM GAS  /tmp/ccQ1IU3X.s 			page 14


 405 0138 00000000 		.word	.LC0
 406 013c 00000000 		.word	btns_value_changed_event_cb
 407 0140 00000000 		.word	cont_scroll_end_event_cb
 408 0144 00000000 		.word	.LANCHOR1
 409              		.cfi_endproc
 410              	.LFE190:
 412              		.section	.text.lv_tabview_create,"ax",%progbits
 413              		.align	1
 414              		.global	lv_tabview_create
 415              		.syntax unified
 416              		.thumb
 417              		.thumb_func
 418              		.fpu fpv4-sp-d16
 420              	lv_tabview_create:
 421              	.LVL57:
 422              	.LFB184:
  53:Middlewares/lvgl/src/extra/widgets/tabview/lv_tabview.c ****     LV_LOG_INFO("begin")
 423              		.loc 1 53 1 is_stmt 1 view -0
 424              		.cfi_startproc
 425              		@ args = 0, pretend = 0, frame = 0
 426              		@ frame_needed = 0, uses_anonymous_args = 0
  53:Middlewares/lvgl/src/extra/widgets/tabview/lv_tabview.c ****     LV_LOG_INFO("begin")
 427              		.loc 1 53 1 is_stmt 0 view .LVU106
 428 0000 10B5     		push	{r4, lr}
 429              	.LCFI2:
 430              		.cfi_def_cfa_offset 8
 431              		.cfi_offset 4, -8
 432              		.cfi_offset 14, -4
  55:Middlewares/lvgl/src/extra/widgets/tabview/lv_tabview.c ****     tabsize_create = tab_size;
 433              		.loc 1 55 5 is_stmt 1 view .LVU107
  55:Middlewares/lvgl/src/extra/widgets/tabview/lv_tabview.c ****     tabsize_create = tab_size;
 434              		.loc 1 55 19 is_stmt 0 view .LVU108
 435 0002 064B     		ldr	r3, .L29
 436 0004 1970     		strb	r1, [r3]
  56:Middlewares/lvgl/src/extra/widgets/tabview/lv_tabview.c **** 
 437              		.loc 1 56 5 is_stmt 1 view .LVU109
  56:Middlewares/lvgl/src/extra/widgets/tabview/lv_tabview.c **** 
 438              		.loc 1 56 20 is_stmt 0 view .LVU110
 439 0006 064B     		ldr	r3, .L29+4
 440 0008 1A80     		strh	r2, [r3]	@ movhi
  58:Middlewares/lvgl/src/extra/widgets/tabview/lv_tabview.c ****     lv_obj_class_init_obj(obj);
 441              		.loc 1 58 5 is_stmt 1 view .LVU111
  58:Middlewares/lvgl/src/extra/widgets/tabview/lv_tabview.c ****     lv_obj_class_init_obj(obj);
 442              		.loc 1 58 22 is_stmt 0 view .LVU112
 443 000a 0146     		mov	r1, r0
 444              	.LVL58:
  58:Middlewares/lvgl/src/extra/widgets/tabview/lv_tabview.c ****     lv_obj_class_init_obj(obj);
 445              		.loc 1 58 22 view .LVU113
 446 000c 0548     		ldr	r0, .L29+8
 447              	.LVL59:
  58:Middlewares/lvgl/src/extra/widgets/tabview/lv_tabview.c ****     lv_obj_class_init_obj(obj);
 448              		.loc 1 58 22 view .LVU114
 449 000e FFF7FEFF 		bl	lv_obj_class_create_obj
 450              	.LVL60:
  58:Middlewares/lvgl/src/extra/widgets/tabview/lv_tabview.c ****     lv_obj_class_init_obj(obj);
 451              		.loc 1 58 22 view .LVU115
 452 0012 0446     		mov	r4, r0
ARM GAS  /tmp/ccQ1IU3X.s 			page 15


 453              	.LVL61:
  59:Middlewares/lvgl/src/extra/widgets/tabview/lv_tabview.c ****     return obj;
 454              		.loc 1 59 5 is_stmt 1 view .LVU116
 455 0014 FFF7FEFF 		bl	lv_obj_class_init_obj
 456              	.LVL62:
  60:Middlewares/lvgl/src/extra/widgets/tabview/lv_tabview.c **** }
 457              		.loc 1 60 5 view .LVU117
  61:Middlewares/lvgl/src/extra/widgets/tabview/lv_tabview.c **** 
 458              		.loc 1 61 1 is_stmt 0 view .LVU118
 459 0018 2046     		mov	r0, r4
 460 001a 10BD     		pop	{r4, pc}
 461              	.LVL63:
 462              	.L30:
  61:Middlewares/lvgl/src/extra/widgets/tabview/lv_tabview.c **** 
 463              		.loc 1 61 1 view .LVU119
 464              		.align	2
 465              	.L29:
 466 001c 00000000 		.word	.LANCHOR0
 467 0020 00000000 		.word	.LANCHOR1
 468 0024 00000000 		.word	.LANCHOR2
 469              		.cfi_endproc
 470              	.LFE184:
 472              		.section	.text.lv_tabview_get_tab_act,"ax",%progbits
 473              		.align	1
 474              		.global	lv_tabview_get_tab_act
 475              		.syntax unified
 476              		.thumb
 477              		.thumb_func
 478              		.fpu fpv4-sp-d16
 480              	lv_tabview_get_tab_act:
 481              	.LVL64:
 482              	.LFB187:
 145:Middlewares/lvgl/src/extra/widgets/tabview/lv_tabview.c ****     lv_tabview_t * tabview = (lv_tabview_t *)obj;
 483              		.loc 1 145 1 is_stmt 1 view -0
 484              		.cfi_startproc
 485              		@ args = 0, pretend = 0, frame = 0
 486              		@ frame_needed = 0, uses_anonymous_args = 0
 487              		@ link register save eliminated.
 146:Middlewares/lvgl/src/extra/widgets/tabview/lv_tabview.c ****     return tabview->tab_cur;
 488              		.loc 1 146 5 view .LVU121
 147:Middlewares/lvgl/src/extra/widgets/tabview/lv_tabview.c **** }
 489              		.loc 1 147 5 view .LVU122
 148:Middlewares/lvgl/src/extra/widgets/tabview/lv_tabview.c **** 
 490              		.loc 1 148 1 is_stmt 0 view .LVU123
 491 0000 408D     		ldrh	r0, [r0, #42]
 492              	.LVL65:
 148:Middlewares/lvgl/src/extra/widgets/tabview/lv_tabview.c **** 
 493              		.loc 1 148 1 view .LVU124
 494 0002 7047     		bx	lr
 495              		.cfi_endproc
 496              	.LFE187:
 498              		.section	.text.lv_tabview_get_content,"ax",%progbits
 499              		.align	1
 500              		.global	lv_tabview_get_content
 501              		.syntax unified
 502              		.thumb
 503              		.thumb_func
ARM GAS  /tmp/ccQ1IU3X.s 			page 16


 504              		.fpu fpv4-sp-d16
 506              	lv_tabview_get_content:
 507              	.LVL66:
 508              	.LFB188:
 151:Middlewares/lvgl/src/extra/widgets/tabview/lv_tabview.c ****     return lv_obj_get_child(tv, 1);
 509              		.loc 1 151 1 is_stmt 1 view -0
 510              		.cfi_startproc
 511              		@ args = 0, pretend = 0, frame = 0
 512              		@ frame_needed = 0, uses_anonymous_args = 0
 151:Middlewares/lvgl/src/extra/widgets/tabview/lv_tabview.c ****     return lv_obj_get_child(tv, 1);
 513              		.loc 1 151 1 is_stmt 0 view .LVU126
 514 0000 08B5     		push	{r3, lr}
 515              	.LCFI3:
 516              		.cfi_def_cfa_offset 8
 517              		.cfi_offset 3, -8
 518              		.cfi_offset 14, -4
 152:Middlewares/lvgl/src/extra/widgets/tabview/lv_tabview.c **** }
 519              		.loc 1 152 5 is_stmt 1 view .LVU127
 152:Middlewares/lvgl/src/extra/widgets/tabview/lv_tabview.c **** }
 520              		.loc 1 152 12 is_stmt 0 view .LVU128
 521 0002 0121     		movs	r1, #1
 522 0004 FFF7FEFF 		bl	lv_obj_get_child
 523              	.LVL67:
 153:Middlewares/lvgl/src/extra/widgets/tabview/lv_tabview.c **** 
 524              		.loc 1 153 1 view .LVU129
 525 0008 08BD     		pop	{r3, pc}
 526              		.cfi_endproc
 527              	.LFE188:
 529              		.section	.text.lv_tabview_get_tab_btns,"ax",%progbits
 530              		.align	1
 531              		.global	lv_tabview_get_tab_btns
 532              		.syntax unified
 533              		.thumb
 534              		.thumb_func
 535              		.fpu fpv4-sp-d16
 537              	lv_tabview_get_tab_btns:
 538              	.LVL68:
 539              	.LFB189:
 156:Middlewares/lvgl/src/extra/widgets/tabview/lv_tabview.c ****     return lv_obj_get_child(tv, 0);
 540              		.loc 1 156 1 is_stmt 1 view -0
 541              		.cfi_startproc
 542              		@ args = 0, pretend = 0, frame = 0
 543              		@ frame_needed = 0, uses_anonymous_args = 0
 156:Middlewares/lvgl/src/extra/widgets/tabview/lv_tabview.c ****     return lv_obj_get_child(tv, 0);
 544              		.loc 1 156 1 is_stmt 0 view .LVU131
 545 0000 08B5     		push	{r3, lr}
 546              	.LCFI4:
 547              		.cfi_def_cfa_offset 8
 548              		.cfi_offset 3, -8
 549              		.cfi_offset 14, -4
 157:Middlewares/lvgl/src/extra/widgets/tabview/lv_tabview.c **** }
 550              		.loc 1 157 5 is_stmt 1 view .LVU132
 157:Middlewares/lvgl/src/extra/widgets/tabview/lv_tabview.c **** }
 551              		.loc 1 157 12 is_stmt 0 view .LVU133
 552 0002 0021     		movs	r1, #0
 553 0004 FFF7FEFF 		bl	lv_obj_get_child
 554              	.LVL69:
ARM GAS  /tmp/ccQ1IU3X.s 			page 17


 158:Middlewares/lvgl/src/extra/widgets/tabview/lv_tabview.c **** 
 555              		.loc 1 158 1 view .LVU134
 556 0008 08BD     		pop	{r3, pc}
 557              		.cfi_endproc
 558              	.LFE189:
 560              		.section	.text.lv_tabview_set_act,"ax",%progbits
 561              		.align	1
 562              		.global	lv_tabview_set_act
 563              		.syntax unified
 564              		.thumb
 565              		.thumb_func
 566              		.fpu fpv4-sp-d16
 568              	lv_tabview_set_act:
 569              	.LVL70:
 570              	.LFB186:
 118:Middlewares/lvgl/src/extra/widgets/tabview/lv_tabview.c ****     lv_tabview_t * tabview = (lv_tabview_t *)obj;
 571              		.loc 1 118 1 is_stmt 1 view -0
 572              		.cfi_startproc
 573              		@ args = 0, pretend = 0, frame = 0
 574              		@ frame_needed = 0, uses_anonymous_args = 0
 118:Middlewares/lvgl/src/extra/widgets/tabview/lv_tabview.c ****     lv_tabview_t * tabview = (lv_tabview_t *)obj;
 575              		.loc 1 118 1 is_stmt 0 view .LVU136
 576 0000 2DE9F843 		push	{r3, r4, r5, r6, r7, r8, r9, lr}
 577              	.LCFI5:
 578              		.cfi_def_cfa_offset 32
 579              		.cfi_offset 3, -32
 580              		.cfi_offset 4, -28
 581              		.cfi_offset 5, -24
 582              		.cfi_offset 6, -20
 583              		.cfi_offset 7, -16
 584              		.cfi_offset 8, -12
 585              		.cfi_offset 9, -8
 586              		.cfi_offset 14, -4
 587 0004 0446     		mov	r4, r0
 588 0006 0D46     		mov	r5, r1
 589 0008 1646     		mov	r6, r2
 119:Middlewares/lvgl/src/extra/widgets/tabview/lv_tabview.c **** 
 590              		.loc 1 119 5 is_stmt 1 view .LVU137
 591              	.LVL71:
 121:Middlewares/lvgl/src/extra/widgets/tabview/lv_tabview.c ****         id = tabview->tab_cnt - 1;
 592              		.loc 1 121 5 view .LVU138
 121:Middlewares/lvgl/src/extra/widgets/tabview/lv_tabview.c ****         id = tabview->tab_cnt - 1;
 593              		.loc 1 121 21 is_stmt 0 view .LVU139
 594 000a 038D     		ldrh	r3, [r0, #40]
 121:Middlewares/lvgl/src/extra/widgets/tabview/lv_tabview.c ****         id = tabview->tab_cnt - 1;
 595              		.loc 1 121 7 view .LVU140
 596 000c 8B42     		cmp	r3, r1
 597 000e 00D8     		bhi	.L37
 122:Middlewares/lvgl/src/extra/widgets/tabview/lv_tabview.c ****     }
 598              		.loc 1 122 9 is_stmt 1 view .LVU141
 122:Middlewares/lvgl/src/extra/widgets/tabview/lv_tabview.c ****     }
 599              		.loc 1 122 31 is_stmt 0 view .LVU142
 600 0010 5D1E     		subs	r5, r3, #1
 601              	.LVL72:
 602              	.L37:
 126:Middlewares/lvgl/src/extra/widgets/tabview/lv_tabview.c **** 
 603              		.loc 1 126 5 is_stmt 1 view .LVU143
ARM GAS  /tmp/ccQ1IU3X.s 			page 18


 604 0012 2046     		mov	r0, r4
 605              	.LVL73:
 126:Middlewares/lvgl/src/extra/widgets/tabview/lv_tabview.c **** 
 606              		.loc 1 126 5 is_stmt 0 view .LVU144
 607 0014 FFF7FEFF 		bl	lv_obj_update_layout
 608              	.LVL74:
 128:Middlewares/lvgl/src/extra/widgets/tabview/lv_tabview.c ****     if(cont == NULL) return;
 609              		.loc 1 128 5 is_stmt 1 view .LVU145
 128:Middlewares/lvgl/src/extra/widgets/tabview/lv_tabview.c ****     if(cont == NULL) return;
 610              		.loc 1 128 23 is_stmt 0 view .LVU146
 611 0018 2046     		mov	r0, r4
 612 001a FFF7FEFF 		bl	lv_tabview_get_content
 613              	.LVL75:
 129:Middlewares/lvgl/src/extra/widgets/tabview/lv_tabview.c ****     lv_coord_t gap = lv_obj_get_style_pad_column(cont, LV_PART_MAIN);
 614              		.loc 1 129 5 is_stmt 1 view .LVU147
 129:Middlewares/lvgl/src/extra/widgets/tabview/lv_tabview.c ****     lv_coord_t gap = lv_obj_get_style_pad_column(cont, LV_PART_MAIN);
 615              		.loc 1 129 7 is_stmt 0 view .LVU148
 616 001e 0746     		mov	r7, r0
 617 0020 28B3     		cbz	r0, .L36
 130:Middlewares/lvgl/src/extra/widgets/tabview/lv_tabview.c ****     lv_coord_t w = lv_obj_get_content_width(cont);
 618              		.loc 1 130 5 is_stmt 1 view .LVU149
 619              	.LVL76:
 620              	.LBB14:
 621              	.LBI14:
 622              		.file 2 "Middlewares/lvgl/src/extra/widgets/tabview/../../../../src/core/lv_obj_style_gen.h"
   1:Middlewares/lvgl/src/extra/widgets/tabview/../../../../src/core/lv_obj_style_gen.h **** static inline lv_coord_t lv_obj_get_style_width(const struct _lv_obj_t * obj, uint32_t part)
   2:Middlewares/lvgl/src/extra/widgets/tabview/../../../../src/core/lv_obj_style_gen.h **** {
   3:Middlewares/lvgl/src/extra/widgets/tabview/../../../../src/core/lv_obj_style_gen.h ****     lv_style_value_t v = lv_obj_get_style_prop(obj, part, LV_STYLE_WIDTH);
   4:Middlewares/lvgl/src/extra/widgets/tabview/../../../../src/core/lv_obj_style_gen.h ****     return (lv_coord_t)v.num;
   5:Middlewares/lvgl/src/extra/widgets/tabview/../../../../src/core/lv_obj_style_gen.h **** }
   6:Middlewares/lvgl/src/extra/widgets/tabview/../../../../src/core/lv_obj_style_gen.h **** 
   7:Middlewares/lvgl/src/extra/widgets/tabview/../../../../src/core/lv_obj_style_gen.h **** static inline lv_coord_t lv_obj_get_style_min_width(const struct _lv_obj_t * obj, uint32_t part)
   8:Middlewares/lvgl/src/extra/widgets/tabview/../../../../src/core/lv_obj_style_gen.h **** {
   9:Middlewares/lvgl/src/extra/widgets/tabview/../../../../src/core/lv_obj_style_gen.h ****     lv_style_value_t v = lv_obj_get_style_prop(obj, part, LV_STYLE_MIN_WIDTH);
  10:Middlewares/lvgl/src/extra/widgets/tabview/../../../../src/core/lv_obj_style_gen.h ****     return (lv_coord_t)v.num;
  11:Middlewares/lvgl/src/extra/widgets/tabview/../../../../src/core/lv_obj_style_gen.h **** }
  12:Middlewares/lvgl/src/extra/widgets/tabview/../../../../src/core/lv_obj_style_gen.h **** 
  13:Middlewares/lvgl/src/extra/widgets/tabview/../../../../src/core/lv_obj_style_gen.h **** static inline lv_coord_t lv_obj_get_style_max_width(const struct _lv_obj_t * obj, uint32_t part)
  14:Middlewares/lvgl/src/extra/widgets/tabview/../../../../src/core/lv_obj_style_gen.h **** {
  15:Middlewares/lvgl/src/extra/widgets/tabview/../../../../src/core/lv_obj_style_gen.h ****     lv_style_value_t v = lv_obj_get_style_prop(obj, part, LV_STYLE_MAX_WIDTH);
  16:Middlewares/lvgl/src/extra/widgets/tabview/../../../../src/core/lv_obj_style_gen.h ****     return (lv_coord_t)v.num;
  17:Middlewares/lvgl/src/extra/widgets/tabview/../../../../src/core/lv_obj_style_gen.h **** }
  18:Middlewares/lvgl/src/extra/widgets/tabview/../../../../src/core/lv_obj_style_gen.h **** 
  19:Middlewares/lvgl/src/extra/widgets/tabview/../../../../src/core/lv_obj_style_gen.h **** static inline lv_coord_t lv_obj_get_style_height(const struct _lv_obj_t * obj, uint32_t part)
  20:Middlewares/lvgl/src/extra/widgets/tabview/../../../../src/core/lv_obj_style_gen.h **** {
  21:Middlewares/lvgl/src/extra/widgets/tabview/../../../../src/core/lv_obj_style_gen.h ****     lv_style_value_t v = lv_obj_get_style_prop(obj, part, LV_STYLE_HEIGHT);
  22:Middlewares/lvgl/src/extra/widgets/tabview/../../../../src/core/lv_obj_style_gen.h ****     return (lv_coord_t)v.num;
  23:Middlewares/lvgl/src/extra/widgets/tabview/../../../../src/core/lv_obj_style_gen.h **** }
  24:Middlewares/lvgl/src/extra/widgets/tabview/../../../../src/core/lv_obj_style_gen.h **** 
  25:Middlewares/lvgl/src/extra/widgets/tabview/../../../../src/core/lv_obj_style_gen.h **** static inline lv_coord_t lv_obj_get_style_min_height(const struct _lv_obj_t * obj, uint32_t part)
  26:Middlewares/lvgl/src/extra/widgets/tabview/../../../../src/core/lv_obj_style_gen.h **** {
  27:Middlewares/lvgl/src/extra/widgets/tabview/../../../../src/core/lv_obj_style_gen.h ****     lv_style_value_t v = lv_obj_get_style_prop(obj, part, LV_STYLE_MIN_HEIGHT);
  28:Middlewares/lvgl/src/extra/widgets/tabview/../../../../src/core/lv_obj_style_gen.h ****     return (lv_coord_t)v.num;
  29:Middlewares/lvgl/src/extra/widgets/tabview/../../../../src/core/lv_obj_style_gen.h **** }
  30:Middlewares/lvgl/src/extra/widgets/tabview/../../../../src/core/lv_obj_style_gen.h **** 
  31:Middlewares/lvgl/src/extra/widgets/tabview/../../../../src/core/lv_obj_style_gen.h **** static inline lv_coord_t lv_obj_get_style_max_height(const struct _lv_obj_t * obj, uint32_t part)
  32:Middlewares/lvgl/src/extra/widgets/tabview/../../../../src/core/lv_obj_style_gen.h **** {
ARM GAS  /tmp/ccQ1IU3X.s 			page 19


  33:Middlewares/lvgl/src/extra/widgets/tabview/../../../../src/core/lv_obj_style_gen.h ****     lv_style_value_t v = lv_obj_get_style_prop(obj, part, LV_STYLE_MAX_HEIGHT);
  34:Middlewares/lvgl/src/extra/widgets/tabview/../../../../src/core/lv_obj_style_gen.h ****     return (lv_coord_t)v.num;
  35:Middlewares/lvgl/src/extra/widgets/tabview/../../../../src/core/lv_obj_style_gen.h **** }
  36:Middlewares/lvgl/src/extra/widgets/tabview/../../../../src/core/lv_obj_style_gen.h **** 
  37:Middlewares/lvgl/src/extra/widgets/tabview/../../../../src/core/lv_obj_style_gen.h **** static inline lv_coord_t lv_obj_get_style_x(const struct _lv_obj_t * obj, uint32_t part)
  38:Middlewares/lvgl/src/extra/widgets/tabview/../../../../src/core/lv_obj_style_gen.h **** {
  39:Middlewares/lvgl/src/extra/widgets/tabview/../../../../src/core/lv_obj_style_gen.h ****     lv_style_value_t v = lv_obj_get_style_prop(obj, part, LV_STYLE_X);
  40:Middlewares/lvgl/src/extra/widgets/tabview/../../../../src/core/lv_obj_style_gen.h ****     return (lv_coord_t)v.num;
  41:Middlewares/lvgl/src/extra/widgets/tabview/../../../../src/core/lv_obj_style_gen.h **** }
  42:Middlewares/lvgl/src/extra/widgets/tabview/../../../../src/core/lv_obj_style_gen.h **** 
  43:Middlewares/lvgl/src/extra/widgets/tabview/../../../../src/core/lv_obj_style_gen.h **** static inline lv_coord_t lv_obj_get_style_y(const struct _lv_obj_t * obj, uint32_t part)
  44:Middlewares/lvgl/src/extra/widgets/tabview/../../../../src/core/lv_obj_style_gen.h **** {
  45:Middlewares/lvgl/src/extra/widgets/tabview/../../../../src/core/lv_obj_style_gen.h ****     lv_style_value_t v = lv_obj_get_style_prop(obj, part, LV_STYLE_Y);
  46:Middlewares/lvgl/src/extra/widgets/tabview/../../../../src/core/lv_obj_style_gen.h ****     return (lv_coord_t)v.num;
  47:Middlewares/lvgl/src/extra/widgets/tabview/../../../../src/core/lv_obj_style_gen.h **** }
  48:Middlewares/lvgl/src/extra/widgets/tabview/../../../../src/core/lv_obj_style_gen.h **** 
  49:Middlewares/lvgl/src/extra/widgets/tabview/../../../../src/core/lv_obj_style_gen.h **** static inline lv_align_t lv_obj_get_style_align(const struct _lv_obj_t * obj, uint32_t part)
  50:Middlewares/lvgl/src/extra/widgets/tabview/../../../../src/core/lv_obj_style_gen.h **** {
  51:Middlewares/lvgl/src/extra/widgets/tabview/../../../../src/core/lv_obj_style_gen.h ****     lv_style_value_t v = lv_obj_get_style_prop(obj, part, LV_STYLE_ALIGN);
  52:Middlewares/lvgl/src/extra/widgets/tabview/../../../../src/core/lv_obj_style_gen.h ****     return (lv_align_t)v.num;
  53:Middlewares/lvgl/src/extra/widgets/tabview/../../../../src/core/lv_obj_style_gen.h **** }
  54:Middlewares/lvgl/src/extra/widgets/tabview/../../../../src/core/lv_obj_style_gen.h **** 
  55:Middlewares/lvgl/src/extra/widgets/tabview/../../../../src/core/lv_obj_style_gen.h **** static inline lv_coord_t lv_obj_get_style_transform_width(const struct _lv_obj_t * obj, uint32_t pa
  56:Middlewares/lvgl/src/extra/widgets/tabview/../../../../src/core/lv_obj_style_gen.h **** {
  57:Middlewares/lvgl/src/extra/widgets/tabview/../../../../src/core/lv_obj_style_gen.h ****     lv_style_value_t v = lv_obj_get_style_prop(obj, part, LV_STYLE_TRANSFORM_WIDTH);
  58:Middlewares/lvgl/src/extra/widgets/tabview/../../../../src/core/lv_obj_style_gen.h ****     return (lv_coord_t)v.num;
  59:Middlewares/lvgl/src/extra/widgets/tabview/../../../../src/core/lv_obj_style_gen.h **** }
  60:Middlewares/lvgl/src/extra/widgets/tabview/../../../../src/core/lv_obj_style_gen.h **** 
  61:Middlewares/lvgl/src/extra/widgets/tabview/../../../../src/core/lv_obj_style_gen.h **** static inline lv_coord_t lv_obj_get_style_transform_height(const struct _lv_obj_t * obj, uint32_t p
  62:Middlewares/lvgl/src/extra/widgets/tabview/../../../../src/core/lv_obj_style_gen.h **** {
  63:Middlewares/lvgl/src/extra/widgets/tabview/../../../../src/core/lv_obj_style_gen.h ****     lv_style_value_t v = lv_obj_get_style_prop(obj, part, LV_STYLE_TRANSFORM_HEIGHT);
  64:Middlewares/lvgl/src/extra/widgets/tabview/../../../../src/core/lv_obj_style_gen.h ****     return (lv_coord_t)v.num;
  65:Middlewares/lvgl/src/extra/widgets/tabview/../../../../src/core/lv_obj_style_gen.h **** }
  66:Middlewares/lvgl/src/extra/widgets/tabview/../../../../src/core/lv_obj_style_gen.h **** 
  67:Middlewares/lvgl/src/extra/widgets/tabview/../../../../src/core/lv_obj_style_gen.h **** static inline lv_coord_t lv_obj_get_style_translate_x(const struct _lv_obj_t * obj, uint32_t part)
  68:Middlewares/lvgl/src/extra/widgets/tabview/../../../../src/core/lv_obj_style_gen.h **** {
  69:Middlewares/lvgl/src/extra/widgets/tabview/../../../../src/core/lv_obj_style_gen.h ****     lv_style_value_t v = lv_obj_get_style_prop(obj, part, LV_STYLE_TRANSLATE_X);
  70:Middlewares/lvgl/src/extra/widgets/tabview/../../../../src/core/lv_obj_style_gen.h ****     return (lv_coord_t)v.num;
  71:Middlewares/lvgl/src/extra/widgets/tabview/../../../../src/core/lv_obj_style_gen.h **** }
  72:Middlewares/lvgl/src/extra/widgets/tabview/../../../../src/core/lv_obj_style_gen.h **** 
  73:Middlewares/lvgl/src/extra/widgets/tabview/../../../../src/core/lv_obj_style_gen.h **** static inline lv_coord_t lv_obj_get_style_translate_y(const struct _lv_obj_t * obj, uint32_t part)
  74:Middlewares/lvgl/src/extra/widgets/tabview/../../../../src/core/lv_obj_style_gen.h **** {
  75:Middlewares/lvgl/src/extra/widgets/tabview/../../../../src/core/lv_obj_style_gen.h ****     lv_style_value_t v = lv_obj_get_style_prop(obj, part, LV_STYLE_TRANSLATE_Y);
  76:Middlewares/lvgl/src/extra/widgets/tabview/../../../../src/core/lv_obj_style_gen.h ****     return (lv_coord_t)v.num;
  77:Middlewares/lvgl/src/extra/widgets/tabview/../../../../src/core/lv_obj_style_gen.h **** }
  78:Middlewares/lvgl/src/extra/widgets/tabview/../../../../src/core/lv_obj_style_gen.h **** 
  79:Middlewares/lvgl/src/extra/widgets/tabview/../../../../src/core/lv_obj_style_gen.h **** static inline lv_coord_t lv_obj_get_style_transform_zoom(const struct _lv_obj_t * obj, uint32_t par
  80:Middlewares/lvgl/src/extra/widgets/tabview/../../../../src/core/lv_obj_style_gen.h **** {
  81:Middlewares/lvgl/src/extra/widgets/tabview/../../../../src/core/lv_obj_style_gen.h ****     lv_style_value_t v = lv_obj_get_style_prop(obj, part, LV_STYLE_TRANSFORM_ZOOM);
  82:Middlewares/lvgl/src/extra/widgets/tabview/../../../../src/core/lv_obj_style_gen.h ****     return (lv_coord_t)v.num;
  83:Middlewares/lvgl/src/extra/widgets/tabview/../../../../src/core/lv_obj_style_gen.h **** }
  84:Middlewares/lvgl/src/extra/widgets/tabview/../../../../src/core/lv_obj_style_gen.h **** 
  85:Middlewares/lvgl/src/extra/widgets/tabview/../../../../src/core/lv_obj_style_gen.h **** static inline lv_coord_t lv_obj_get_style_transform_angle(const struct _lv_obj_t * obj, uint32_t pa
  86:Middlewares/lvgl/src/extra/widgets/tabview/../../../../src/core/lv_obj_style_gen.h **** {
  87:Middlewares/lvgl/src/extra/widgets/tabview/../../../../src/core/lv_obj_style_gen.h ****     lv_style_value_t v = lv_obj_get_style_prop(obj, part, LV_STYLE_TRANSFORM_ANGLE);
  88:Middlewares/lvgl/src/extra/widgets/tabview/../../../../src/core/lv_obj_style_gen.h ****     return (lv_coord_t)v.num;
  89:Middlewares/lvgl/src/extra/widgets/tabview/../../../../src/core/lv_obj_style_gen.h **** }
ARM GAS  /tmp/ccQ1IU3X.s 			page 20


  90:Middlewares/lvgl/src/extra/widgets/tabview/../../../../src/core/lv_obj_style_gen.h **** 
  91:Middlewares/lvgl/src/extra/widgets/tabview/../../../../src/core/lv_obj_style_gen.h **** static inline lv_coord_t lv_obj_get_style_pad_top(const struct _lv_obj_t * obj, uint32_t part)
  92:Middlewares/lvgl/src/extra/widgets/tabview/../../../../src/core/lv_obj_style_gen.h **** {
  93:Middlewares/lvgl/src/extra/widgets/tabview/../../../../src/core/lv_obj_style_gen.h ****     lv_style_value_t v = lv_obj_get_style_prop(obj, part, LV_STYLE_PAD_TOP);
  94:Middlewares/lvgl/src/extra/widgets/tabview/../../../../src/core/lv_obj_style_gen.h ****     return (lv_coord_t)v.num;
  95:Middlewares/lvgl/src/extra/widgets/tabview/../../../../src/core/lv_obj_style_gen.h **** }
  96:Middlewares/lvgl/src/extra/widgets/tabview/../../../../src/core/lv_obj_style_gen.h **** 
  97:Middlewares/lvgl/src/extra/widgets/tabview/../../../../src/core/lv_obj_style_gen.h **** static inline lv_coord_t lv_obj_get_style_pad_bottom(const struct _lv_obj_t * obj, uint32_t part)
  98:Middlewares/lvgl/src/extra/widgets/tabview/../../../../src/core/lv_obj_style_gen.h **** {
  99:Middlewares/lvgl/src/extra/widgets/tabview/../../../../src/core/lv_obj_style_gen.h ****     lv_style_value_t v = lv_obj_get_style_prop(obj, part, LV_STYLE_PAD_BOTTOM);
 100:Middlewares/lvgl/src/extra/widgets/tabview/../../../../src/core/lv_obj_style_gen.h ****     return (lv_coord_t)v.num;
 101:Middlewares/lvgl/src/extra/widgets/tabview/../../../../src/core/lv_obj_style_gen.h **** }
 102:Middlewares/lvgl/src/extra/widgets/tabview/../../../../src/core/lv_obj_style_gen.h **** 
 103:Middlewares/lvgl/src/extra/widgets/tabview/../../../../src/core/lv_obj_style_gen.h **** static inline lv_coord_t lv_obj_get_style_pad_left(const struct _lv_obj_t * obj, uint32_t part)
 104:Middlewares/lvgl/src/extra/widgets/tabview/../../../../src/core/lv_obj_style_gen.h **** {
 105:Middlewares/lvgl/src/extra/widgets/tabview/../../../../src/core/lv_obj_style_gen.h ****     lv_style_value_t v = lv_obj_get_style_prop(obj, part, LV_STYLE_PAD_LEFT);
 106:Middlewares/lvgl/src/extra/widgets/tabview/../../../../src/core/lv_obj_style_gen.h ****     return (lv_coord_t)v.num;
 107:Middlewares/lvgl/src/extra/widgets/tabview/../../../../src/core/lv_obj_style_gen.h **** }
 108:Middlewares/lvgl/src/extra/widgets/tabview/../../../../src/core/lv_obj_style_gen.h **** 
 109:Middlewares/lvgl/src/extra/widgets/tabview/../../../../src/core/lv_obj_style_gen.h **** static inline lv_coord_t lv_obj_get_style_pad_right(const struct _lv_obj_t * obj, uint32_t part)
 110:Middlewares/lvgl/src/extra/widgets/tabview/../../../../src/core/lv_obj_style_gen.h **** {
 111:Middlewares/lvgl/src/extra/widgets/tabview/../../../../src/core/lv_obj_style_gen.h ****     lv_style_value_t v = lv_obj_get_style_prop(obj, part, LV_STYLE_PAD_RIGHT);
 112:Middlewares/lvgl/src/extra/widgets/tabview/../../../../src/core/lv_obj_style_gen.h ****     return (lv_coord_t)v.num;
 113:Middlewares/lvgl/src/extra/widgets/tabview/../../../../src/core/lv_obj_style_gen.h **** }
 114:Middlewares/lvgl/src/extra/widgets/tabview/../../../../src/core/lv_obj_style_gen.h **** 
 115:Middlewares/lvgl/src/extra/widgets/tabview/../../../../src/core/lv_obj_style_gen.h **** static inline lv_coord_t lv_obj_get_style_pad_row(const struct _lv_obj_t * obj, uint32_t part)
 116:Middlewares/lvgl/src/extra/widgets/tabview/../../../../src/core/lv_obj_style_gen.h **** {
 117:Middlewares/lvgl/src/extra/widgets/tabview/../../../../src/core/lv_obj_style_gen.h ****     lv_style_value_t v = lv_obj_get_style_prop(obj, part, LV_STYLE_PAD_ROW);
 118:Middlewares/lvgl/src/extra/widgets/tabview/../../../../src/core/lv_obj_style_gen.h ****     return (lv_coord_t)v.num;
 119:Middlewares/lvgl/src/extra/widgets/tabview/../../../../src/core/lv_obj_style_gen.h **** }
 120:Middlewares/lvgl/src/extra/widgets/tabview/../../../../src/core/lv_obj_style_gen.h **** 
 121:Middlewares/lvgl/src/extra/widgets/tabview/../../../../src/core/lv_obj_style_gen.h **** static inline lv_coord_t lv_obj_get_style_pad_column(const struct _lv_obj_t * obj, uint32_t part)
 623              		.loc 2 121 26 view .LVU150
 624              	.LBB15:
 122:Middlewares/lvgl/src/extra/widgets/tabview/../../../../src/core/lv_obj_style_gen.h **** {
 123:Middlewares/lvgl/src/extra/widgets/tabview/../../../../src/core/lv_obj_style_gen.h ****     lv_style_value_t v = lv_obj_get_style_prop(obj, part, LV_STYLE_PAD_COLUMN);
 625              		.loc 2 123 5 view .LVU151
 626              		.loc 2 123 26 is_stmt 0 view .LVU152
 627 0022 41F21502 		movw	r2, #4117
 628 0026 0021     		movs	r1, #0
 629 0028 FFF7FEFF 		bl	lv_obj_get_style_prop
 630              	.LVL77:
 124:Middlewares/lvgl/src/extra/widgets/tabview/../../../../src/core/lv_obj_style_gen.h ****     return (lv_coord_t)v.num;
 631              		.loc 2 124 5 is_stmt 1 view .LVU153
 632              		.loc 2 124 12 is_stmt 0 view .LVU154
 633 002c 0FFA80F8 		sxth	r8, r0
 634              	.LVL78:
 635              		.loc 2 124 12 view .LVU155
 636              	.LBE15:
 637              	.LBE14:
 131:Middlewares/lvgl/src/extra/widgets/tabview/lv_tabview.c ****     if(lv_obj_get_style_base_dir(obj, LV_PART_MAIN) != LV_BASE_DIR_RTL) {
 638              		.loc 1 131 5 is_stmt 1 view .LVU156
 131:Middlewares/lvgl/src/extra/widgets/tabview/lv_tabview.c ****     if(lv_obj_get_style_base_dir(obj, LV_PART_MAIN) != LV_BASE_DIR_RTL) {
 639              		.loc 1 131 20 is_stmt 0 view .LVU157
 640 0030 3846     		mov	r0, r7
 641 0032 FFF7FEFF 		bl	lv_obj_get_content_width
 642              	.LVL79:
ARM GAS  /tmp/ccQ1IU3X.s 			page 21


 643 0036 8146     		mov	r9, r0
 644              	.LVL80:
 132:Middlewares/lvgl/src/extra/widgets/tabview/lv_tabview.c ****         lv_obj_scroll_to_x(cont, id * (gap + w), anim_en);
 645              		.loc 1 132 5 is_stmt 1 view .LVU158
 646              	.LBB16:
 647              	.LBI16:
 125:Middlewares/lvgl/src/extra/widgets/tabview/../../../../src/core/lv_obj_style_gen.h **** }
 126:Middlewares/lvgl/src/extra/widgets/tabview/../../../../src/core/lv_obj_style_gen.h **** 
 127:Middlewares/lvgl/src/extra/widgets/tabview/../../../../src/core/lv_obj_style_gen.h **** static inline lv_coord_t lv_obj_get_style_radius(const struct _lv_obj_t * obj, uint32_t part)
 128:Middlewares/lvgl/src/extra/widgets/tabview/../../../../src/core/lv_obj_style_gen.h **** {
 129:Middlewares/lvgl/src/extra/widgets/tabview/../../../../src/core/lv_obj_style_gen.h ****     lv_style_value_t v = lv_obj_get_style_prop(obj, part, LV_STYLE_RADIUS);
 130:Middlewares/lvgl/src/extra/widgets/tabview/../../../../src/core/lv_obj_style_gen.h ****     return (lv_coord_t)v.num;
 131:Middlewares/lvgl/src/extra/widgets/tabview/../../../../src/core/lv_obj_style_gen.h **** }
 132:Middlewares/lvgl/src/extra/widgets/tabview/../../../../src/core/lv_obj_style_gen.h **** 
 133:Middlewares/lvgl/src/extra/widgets/tabview/../../../../src/core/lv_obj_style_gen.h **** static inline bool lv_obj_get_style_clip_corner(const struct _lv_obj_t * obj, uint32_t part)
 134:Middlewares/lvgl/src/extra/widgets/tabview/../../../../src/core/lv_obj_style_gen.h **** {
 135:Middlewares/lvgl/src/extra/widgets/tabview/../../../../src/core/lv_obj_style_gen.h ****     lv_style_value_t v = lv_obj_get_style_prop(obj, part, LV_STYLE_CLIP_CORNER);
 136:Middlewares/lvgl/src/extra/widgets/tabview/../../../../src/core/lv_obj_style_gen.h ****     return (bool)v.num;
 137:Middlewares/lvgl/src/extra/widgets/tabview/../../../../src/core/lv_obj_style_gen.h **** }
 138:Middlewares/lvgl/src/extra/widgets/tabview/../../../../src/core/lv_obj_style_gen.h **** 
 139:Middlewares/lvgl/src/extra/widgets/tabview/../../../../src/core/lv_obj_style_gen.h **** static inline lv_opa_t lv_obj_get_style_opa(const struct _lv_obj_t * obj, uint32_t part)
 140:Middlewares/lvgl/src/extra/widgets/tabview/../../../../src/core/lv_obj_style_gen.h **** {
 141:Middlewares/lvgl/src/extra/widgets/tabview/../../../../src/core/lv_obj_style_gen.h ****     lv_style_value_t v = lv_obj_get_style_prop(obj, part, LV_STYLE_OPA);
 142:Middlewares/lvgl/src/extra/widgets/tabview/../../../../src/core/lv_obj_style_gen.h ****     return (lv_opa_t)v.num;
 143:Middlewares/lvgl/src/extra/widgets/tabview/../../../../src/core/lv_obj_style_gen.h **** }
 144:Middlewares/lvgl/src/extra/widgets/tabview/../../../../src/core/lv_obj_style_gen.h **** 
 145:Middlewares/lvgl/src/extra/widgets/tabview/../../../../src/core/lv_obj_style_gen.h **** static inline const lv_color_filter_dsc_t * lv_obj_get_style_color_filter_dsc(const struct _lv_obj_
 146:Middlewares/lvgl/src/extra/widgets/tabview/../../../../src/core/lv_obj_style_gen.h **** {
 147:Middlewares/lvgl/src/extra/widgets/tabview/../../../../src/core/lv_obj_style_gen.h ****     lv_style_value_t v = lv_obj_get_style_prop(obj, part, LV_STYLE_COLOR_FILTER_DSC);
 148:Middlewares/lvgl/src/extra/widgets/tabview/../../../../src/core/lv_obj_style_gen.h ****     return (const lv_color_filter_dsc_t *)v.ptr;
 149:Middlewares/lvgl/src/extra/widgets/tabview/../../../../src/core/lv_obj_style_gen.h **** }
 150:Middlewares/lvgl/src/extra/widgets/tabview/../../../../src/core/lv_obj_style_gen.h **** 
 151:Middlewares/lvgl/src/extra/widgets/tabview/../../../../src/core/lv_obj_style_gen.h **** static inline lv_opa_t lv_obj_get_style_color_filter_opa(const struct _lv_obj_t * obj, uint32_t par
 152:Middlewares/lvgl/src/extra/widgets/tabview/../../../../src/core/lv_obj_style_gen.h **** {
 153:Middlewares/lvgl/src/extra/widgets/tabview/../../../../src/core/lv_obj_style_gen.h ****     lv_style_value_t v = lv_obj_get_style_prop(obj, part, LV_STYLE_COLOR_FILTER_OPA);
 154:Middlewares/lvgl/src/extra/widgets/tabview/../../../../src/core/lv_obj_style_gen.h ****     return (lv_opa_t)v.num;
 155:Middlewares/lvgl/src/extra/widgets/tabview/../../../../src/core/lv_obj_style_gen.h **** }
 156:Middlewares/lvgl/src/extra/widgets/tabview/../../../../src/core/lv_obj_style_gen.h **** 
 157:Middlewares/lvgl/src/extra/widgets/tabview/../../../../src/core/lv_obj_style_gen.h **** static inline uint32_t lv_obj_get_style_anim_time(const struct _lv_obj_t * obj, uint32_t part)
 158:Middlewares/lvgl/src/extra/widgets/tabview/../../../../src/core/lv_obj_style_gen.h **** {
 159:Middlewares/lvgl/src/extra/widgets/tabview/../../../../src/core/lv_obj_style_gen.h ****     lv_style_value_t v = lv_obj_get_style_prop(obj, part, LV_STYLE_ANIM_TIME);
 160:Middlewares/lvgl/src/extra/widgets/tabview/../../../../src/core/lv_obj_style_gen.h ****     return (uint32_t)v.num;
 161:Middlewares/lvgl/src/extra/widgets/tabview/../../../../src/core/lv_obj_style_gen.h **** }
 162:Middlewares/lvgl/src/extra/widgets/tabview/../../../../src/core/lv_obj_style_gen.h **** 
 163:Middlewares/lvgl/src/extra/widgets/tabview/../../../../src/core/lv_obj_style_gen.h **** static inline uint32_t lv_obj_get_style_anim_speed(const struct _lv_obj_t * obj, uint32_t part)
 164:Middlewares/lvgl/src/extra/widgets/tabview/../../../../src/core/lv_obj_style_gen.h **** {
 165:Middlewares/lvgl/src/extra/widgets/tabview/../../../../src/core/lv_obj_style_gen.h ****     lv_style_value_t v = lv_obj_get_style_prop(obj, part, LV_STYLE_ANIM_SPEED);
 166:Middlewares/lvgl/src/extra/widgets/tabview/../../../../src/core/lv_obj_style_gen.h ****     return (uint32_t)v.num;
 167:Middlewares/lvgl/src/extra/widgets/tabview/../../../../src/core/lv_obj_style_gen.h **** }
 168:Middlewares/lvgl/src/extra/widgets/tabview/../../../../src/core/lv_obj_style_gen.h **** 
 169:Middlewares/lvgl/src/extra/widgets/tabview/../../../../src/core/lv_obj_style_gen.h **** static inline const lv_style_transition_dsc_t * lv_obj_get_style_transition(const struct _lv_obj_t 
 170:Middlewares/lvgl/src/extra/widgets/tabview/../../../../src/core/lv_obj_style_gen.h **** {
 171:Middlewares/lvgl/src/extra/widgets/tabview/../../../../src/core/lv_obj_style_gen.h ****     lv_style_value_t v = lv_obj_get_style_prop(obj, part, LV_STYLE_TRANSITION);
 172:Middlewares/lvgl/src/extra/widgets/tabview/../../../../src/core/lv_obj_style_gen.h ****     return (const lv_style_transition_dsc_t *)v.ptr;
 173:Middlewares/lvgl/src/extra/widgets/tabview/../../../../src/core/lv_obj_style_gen.h **** }
 174:Middlewares/lvgl/src/extra/widgets/tabview/../../../../src/core/lv_obj_style_gen.h **** 
 175:Middlewares/lvgl/src/extra/widgets/tabview/../../../../src/core/lv_obj_style_gen.h **** static inline lv_blend_mode_t lv_obj_get_style_blend_mode(const struct _lv_obj_t * obj, uint32_t pa
ARM GAS  /tmp/ccQ1IU3X.s 			page 22


 176:Middlewares/lvgl/src/extra/widgets/tabview/../../../../src/core/lv_obj_style_gen.h **** {
 177:Middlewares/lvgl/src/extra/widgets/tabview/../../../../src/core/lv_obj_style_gen.h ****     lv_style_value_t v = lv_obj_get_style_prop(obj, part, LV_STYLE_BLEND_MODE);
 178:Middlewares/lvgl/src/extra/widgets/tabview/../../../../src/core/lv_obj_style_gen.h ****     return (lv_blend_mode_t)v.num;
 179:Middlewares/lvgl/src/extra/widgets/tabview/../../../../src/core/lv_obj_style_gen.h **** }
 180:Middlewares/lvgl/src/extra/widgets/tabview/../../../../src/core/lv_obj_style_gen.h **** 
 181:Middlewares/lvgl/src/extra/widgets/tabview/../../../../src/core/lv_obj_style_gen.h **** static inline uint16_t lv_obj_get_style_layout(const struct _lv_obj_t * obj, uint32_t part)
 182:Middlewares/lvgl/src/extra/widgets/tabview/../../../../src/core/lv_obj_style_gen.h **** {
 183:Middlewares/lvgl/src/extra/widgets/tabview/../../../../src/core/lv_obj_style_gen.h ****     lv_style_value_t v = lv_obj_get_style_prop(obj, part, LV_STYLE_LAYOUT);
 184:Middlewares/lvgl/src/extra/widgets/tabview/../../../../src/core/lv_obj_style_gen.h ****     return (uint16_t)v.num;
 185:Middlewares/lvgl/src/extra/widgets/tabview/../../../../src/core/lv_obj_style_gen.h **** }
 186:Middlewares/lvgl/src/extra/widgets/tabview/../../../../src/core/lv_obj_style_gen.h **** 
 187:Middlewares/lvgl/src/extra/widgets/tabview/../../../../src/core/lv_obj_style_gen.h **** static inline lv_base_dir_t lv_obj_get_style_base_dir(const struct _lv_obj_t * obj, uint32_t part)
 648              		.loc 2 187 29 view .LVU159
 649              	.LBB17:
 188:Middlewares/lvgl/src/extra/widgets/tabview/../../../../src/core/lv_obj_style_gen.h **** {
 189:Middlewares/lvgl/src/extra/widgets/tabview/../../../../src/core/lv_obj_style_gen.h ****     lv_style_value_t v = lv_obj_get_style_prop(obj, part, LV_STYLE_BASE_DIR);
 650              		.loc 2 189 5 view .LVU160
 651              		.loc 2 189 26 is_stmt 0 view .LVU161
 652 0038 41F26A42 		movw	r2, #5226
 653 003c 0021     		movs	r1, #0
 654 003e 2046     		mov	r0, r4
 655 0040 FFF7FEFF 		bl	lv_obj_get_style_prop
 656              	.LVL81:
 190:Middlewares/lvgl/src/extra/widgets/tabview/../../../../src/core/lv_obj_style_gen.h ****     return (lv_base_dir_t)v.num;
 657              		.loc 2 190 5 is_stmt 1 view .LVU162
 658              		.loc 2 190 12 is_stmt 0 view .LVU163
 659 0044 C3B2     		uxtb	r3, r0
 660              	.LVL82:
 661              		.loc 2 190 12 view .LVU164
 662              	.LBE17:
 663              	.LBE16:
 132:Middlewares/lvgl/src/extra/widgets/tabview/lv_tabview.c ****         lv_obj_scroll_to_x(cont, id * (gap + w), anim_en);
 664              		.loc 1 132 7 view .LVU165
 665 0046 012B     		cmp	r3, #1
 666 0048 13D0     		beq	.L39
 133:Middlewares/lvgl/src/extra/widgets/tabview/lv_tabview.c ****     } else {
 667              		.loc 1 133 9 is_stmt 1 view .LVU166
 133:Middlewares/lvgl/src/extra/widgets/tabview/lv_tabview.c ****     } else {
 668              		.loc 1 133 44 is_stmt 0 view .LVU167
 669 004a 08EB0901 		add	r1, r8, r9
 133:Middlewares/lvgl/src/extra/widgets/tabview/lv_tabview.c ****     } else {
 670              		.loc 1 133 9 view .LVU168
 671 004e 11FB05F1 		smulbb	r1, r1, r5
 672 0052 3246     		mov	r2, r6
 673 0054 09B2     		sxth	r1, r1
 674 0056 3846     		mov	r0, r7
 675 0058 FFF7FEFF 		bl	lv_obj_scroll_to_x
 676              	.LVL83:
 677              	.L40:
 139:Middlewares/lvgl/src/extra/widgets/tabview/lv_tabview.c ****     lv_btnmatrix_set_btn_ctrl(btns, id, LV_BTNMATRIX_CTRL_CHECKED);
 678              		.loc 1 139 5 is_stmt 1 view .LVU169
 139:Middlewares/lvgl/src/extra/widgets/tabview/lv_tabview.c ****     lv_btnmatrix_set_btn_ctrl(btns, id, LV_BTNMATRIX_CTRL_CHECKED);
 679              		.loc 1 139 23 is_stmt 0 view .LVU170
 680 005c 2046     		mov	r0, r4
 681 005e FFF7FEFF 		bl	lv_tabview_get_tab_btns
 682              	.LVL84:
 140:Middlewares/lvgl/src/extra/widgets/tabview/lv_tabview.c ****     tabview->tab_cur = id;
ARM GAS  /tmp/ccQ1IU3X.s 			page 23


 683              		.loc 1 140 5 is_stmt 1 view .LVU171
 684 0062 ADB2     		uxth	r5, r5
 685              	.LVL85:
 140:Middlewares/lvgl/src/extra/widgets/tabview/lv_tabview.c ****     tabview->tab_cur = id;
 686              		.loc 1 140 5 is_stmt 0 view .LVU172
 687 0064 8022     		movs	r2, #128
 688 0066 2946     		mov	r1, r5
 689 0068 FFF7FEFF 		bl	lv_btnmatrix_set_btn_ctrl
 690              	.LVL86:
 141:Middlewares/lvgl/src/extra/widgets/tabview/lv_tabview.c **** }
 691              		.loc 1 141 5 is_stmt 1 view .LVU173
 141:Middlewares/lvgl/src/extra/widgets/tabview/lv_tabview.c **** }
 692              		.loc 1 141 22 is_stmt 0 view .LVU174
 693 006c 6585     		strh	r5, [r4, #42]	@ movhi
 694              	.LVL87:
 695              	.L36:
 142:Middlewares/lvgl/src/extra/widgets/tabview/lv_tabview.c **** 
 696              		.loc 1 142 1 view .LVU175
 697 006e BDE8F883 		pop	{r3, r4, r5, r6, r7, r8, r9, pc}
 698              	.LVL88:
 699              	.L39:
 700              	.LBB18:
 135:Middlewares/lvgl/src/extra/widgets/tabview/lv_tabview.c ****         lv_obj_scroll_to_x(cont, (gap + w) * id_rtl, anim_en);
 701              		.loc 1 135 9 is_stmt 1 view .LVU176
 135:Middlewares/lvgl/src/extra/widgets/tabview/lv_tabview.c ****         lv_obj_scroll_to_x(cont, (gap + w) * id_rtl, anim_en);
 702              		.loc 1 135 17 is_stmt 0 view .LVU177
 703 0072 6942     		rsbs	r1, r5, #0
 136:Middlewares/lvgl/src/extra/widgets/tabview/lv_tabview.c ****     }
 704              		.loc 1 136 9 is_stmt 1 view .LVU178
 136:Middlewares/lvgl/src/extra/widgets/tabview/lv_tabview.c ****     }
 705              		.loc 1 136 39 is_stmt 0 view .LVU179
 706 0074 08EB0900 		add	r0, r8, r9
 136:Middlewares/lvgl/src/extra/widgets/tabview/lv_tabview.c ****     }
 707              		.loc 1 136 9 view .LVU180
 708 0078 10FB01F1 		smulbb	r1, r0, r1
 709 007c 3246     		mov	r2, r6
 710 007e 09B2     		sxth	r1, r1
 711 0080 3846     		mov	r0, r7
 712 0082 FFF7FEFF 		bl	lv_obj_scroll_to_x
 713              	.LVL89:
 714 0086 E9E7     		b	.L40
 715              	.LBE18:
 716              		.cfi_endproc
 717              	.LFE186:
 719              		.section	.text.lv_tabview_event,"ax",%progbits
 720              		.align	1
 721              		.syntax unified
 722              		.thumb
 723              		.thumb_func
 724              		.fpu fpv4-sp-d16
 726              	lv_tabview_event:
 727              	.LVL90:
 728              	.LFB192:
 251:Middlewares/lvgl/src/extra/widgets/tabview/lv_tabview.c **** 
 252:Middlewares/lvgl/src/extra/widgets/tabview/lv_tabview.c **** static void lv_tabview_event(const lv_obj_class_t * class_p, lv_event_t * e)
 253:Middlewares/lvgl/src/extra/widgets/tabview/lv_tabview.c **** {
 729              		.loc 1 253 1 is_stmt 1 view -0
ARM GAS  /tmp/ccQ1IU3X.s 			page 24


 730              		.cfi_startproc
 731              		@ args = 0, pretend = 0, frame = 0
 732              		@ frame_needed = 0, uses_anonymous_args = 0
 733              		.loc 1 253 1 is_stmt 0 view .LVU182
 734 0000 38B5     		push	{r3, r4, r5, lr}
 735              	.LCFI6:
 736              		.cfi_def_cfa_offset 16
 737              		.cfi_offset 3, -16
 738              		.cfi_offset 4, -12
 739              		.cfi_offset 5, -8
 740              		.cfi_offset 14, -4
 741 0002 0C46     		mov	r4, r1
 254:Middlewares/lvgl/src/extra/widgets/tabview/lv_tabview.c ****     LV_UNUSED(class_p);
 742              		.loc 1 254 5 is_stmt 1 view .LVU183
 255:Middlewares/lvgl/src/extra/widgets/tabview/lv_tabview.c ****     lv_res_t res = lv_obj_event_base(&lv_tabview_class, e);
 743              		.loc 1 255 5 view .LVU184
 744              		.loc 1 255 20 is_stmt 0 view .LVU185
 745 0004 0B48     		ldr	r0, .L46
 746              	.LVL91:
 747              		.loc 1 255 20 view .LVU186
 748 0006 FFF7FEFF 		bl	lv_obj_event_base
 749              	.LVL92:
 256:Middlewares/lvgl/src/extra/widgets/tabview/lv_tabview.c ****     if(res != LV_RES_OK) return;
 750              		.loc 1 256 5 is_stmt 1 view .LVU187
 751              		.loc 1 256 7 is_stmt 0 view .LVU188
 752 000a 0128     		cmp	r0, #1
 753 000c 00D0     		beq	.L45
 754              	.LVL93:
 755              	.L42:
 257:Middlewares/lvgl/src/extra/widgets/tabview/lv_tabview.c **** 
 258:Middlewares/lvgl/src/extra/widgets/tabview/lv_tabview.c ****     lv_event_code_t code = lv_event_get_code(e);
 259:Middlewares/lvgl/src/extra/widgets/tabview/lv_tabview.c ****     lv_obj_t * target = lv_event_get_target(e);
 260:Middlewares/lvgl/src/extra/widgets/tabview/lv_tabview.c **** 
 261:Middlewares/lvgl/src/extra/widgets/tabview/lv_tabview.c ****     if(code == LV_EVENT_SIZE_CHANGED) {
 262:Middlewares/lvgl/src/extra/widgets/tabview/lv_tabview.c ****         lv_tabview_set_act(target, lv_tabview_get_tab_act(target), LV_ANIM_OFF);
 263:Middlewares/lvgl/src/extra/widgets/tabview/lv_tabview.c ****     }
 264:Middlewares/lvgl/src/extra/widgets/tabview/lv_tabview.c **** }
 756              		.loc 1 264 1 view .LVU189
 757 000e 38BD     		pop	{r3, r4, r5, pc}
 758              	.LVL94:
 759              	.L45:
 258:Middlewares/lvgl/src/extra/widgets/tabview/lv_tabview.c ****     lv_obj_t * target = lv_event_get_target(e);
 760              		.loc 1 258 5 is_stmt 1 view .LVU190
 258:Middlewares/lvgl/src/extra/widgets/tabview/lv_tabview.c ****     lv_obj_t * target = lv_event_get_target(e);
 761              		.loc 1 258 28 is_stmt 0 view .LVU191
 762 0010 2046     		mov	r0, r4
 763              	.LVL95:
 258:Middlewares/lvgl/src/extra/widgets/tabview/lv_tabview.c ****     lv_obj_t * target = lv_event_get_target(e);
 764              		.loc 1 258 28 view .LVU192
 765 0012 FFF7FEFF 		bl	lv_event_get_code
 766              	.LVL96:
 767 0016 0546     		mov	r5, r0
 768              	.LVL97:
 259:Middlewares/lvgl/src/extra/widgets/tabview/lv_tabview.c **** 
 769              		.loc 1 259 5 is_stmt 1 view .LVU193
 259:Middlewares/lvgl/src/extra/widgets/tabview/lv_tabview.c **** 
 770              		.loc 1 259 25 is_stmt 0 view .LVU194
ARM GAS  /tmp/ccQ1IU3X.s 			page 25


 771 0018 2046     		mov	r0, r4
 772 001a FFF7FEFF 		bl	lv_event_get_target
 773              	.LVL98:
 774 001e 0446     		mov	r4, r0
 775              	.LVL99:
 261:Middlewares/lvgl/src/extra/widgets/tabview/lv_tabview.c ****         lv_tabview_set_act(target, lv_tabview_get_tab_act(target), LV_ANIM_OFF);
 776              		.loc 1 261 5 is_stmt 1 view .LVU195
 261:Middlewares/lvgl/src/extra/widgets/tabview/lv_tabview.c ****         lv_tabview_set_act(target, lv_tabview_get_tab_act(target), LV_ANIM_OFF);
 777              		.loc 1 261 7 is_stmt 0 view .LVU196
 778 0020 232D     		cmp	r5, #35
 779 0022 F4D1     		bne	.L42
 262:Middlewares/lvgl/src/extra/widgets/tabview/lv_tabview.c ****     }
 780              		.loc 1 262 9 is_stmt 1 view .LVU197
 262:Middlewares/lvgl/src/extra/widgets/tabview/lv_tabview.c ****     }
 781              		.loc 1 262 36 is_stmt 0 view .LVU198
 782 0024 FFF7FEFF 		bl	lv_tabview_get_tab_act
 783              	.LVL100:
 262:Middlewares/lvgl/src/extra/widgets/tabview/lv_tabview.c ****     }
 784              		.loc 1 262 36 view .LVU199
 785 0028 0146     		mov	r1, r0
 262:Middlewares/lvgl/src/extra/widgets/tabview/lv_tabview.c ****     }
 786              		.loc 1 262 9 view .LVU200
 787 002a 0022     		movs	r2, #0
 788 002c 2046     		mov	r0, r4
 789 002e FFF7FEFF 		bl	lv_tabview_set_act
 790              	.LVL101:
 791 0032 ECE7     		b	.L42
 792              	.L47:
 793              		.align	2
 794              	.L46:
 795 0034 00000000 		.word	.LANCHOR2
 796              		.cfi_endproc
 797              	.LFE192:
 799              		.section	.text.cont_scroll_end_event_cb,"ax",%progbits
 800              		.align	1
 801              		.syntax unified
 802              		.thumb
 803              		.thumb_func
 804              		.fpu fpv4-sp-d16
 806              	cont_scroll_end_event_cb:
 807              	.LVL102:
 808              	.LFB194:
 265:Middlewares/lvgl/src/extra/widgets/tabview/lv_tabview.c **** 
 266:Middlewares/lvgl/src/extra/widgets/tabview/lv_tabview.c **** 
 267:Middlewares/lvgl/src/extra/widgets/tabview/lv_tabview.c **** static void btns_value_changed_event_cb(lv_event_t * e)
 268:Middlewares/lvgl/src/extra/widgets/tabview/lv_tabview.c **** {
 269:Middlewares/lvgl/src/extra/widgets/tabview/lv_tabview.c ****     lv_obj_t * btns = lv_event_get_target(e);
 270:Middlewares/lvgl/src/extra/widgets/tabview/lv_tabview.c **** 
 271:Middlewares/lvgl/src/extra/widgets/tabview/lv_tabview.c ****     lv_obj_t * tv = lv_obj_get_parent(btns);
 272:Middlewares/lvgl/src/extra/widgets/tabview/lv_tabview.c ****     uint32_t id = lv_btnmatrix_get_selected_btn(btns);
 273:Middlewares/lvgl/src/extra/widgets/tabview/lv_tabview.c ****     lv_tabview_set_act(tv, id, LV_ANIM_ON);
 274:Middlewares/lvgl/src/extra/widgets/tabview/lv_tabview.c **** 
 275:Middlewares/lvgl/src/extra/widgets/tabview/lv_tabview.c ****     lv_event_send(tv, LV_EVENT_VALUE_CHANGED, NULL);
 276:Middlewares/lvgl/src/extra/widgets/tabview/lv_tabview.c **** }
 277:Middlewares/lvgl/src/extra/widgets/tabview/lv_tabview.c **** 
 278:Middlewares/lvgl/src/extra/widgets/tabview/lv_tabview.c **** static void cont_scroll_end_event_cb(lv_event_t * e)
 279:Middlewares/lvgl/src/extra/widgets/tabview/lv_tabview.c **** {
ARM GAS  /tmp/ccQ1IU3X.s 			page 26


 809              		.loc 1 279 1 is_stmt 1 view -0
 810              		.cfi_startproc
 811              		@ args = 0, pretend = 0, frame = 8
 812              		@ frame_needed = 0, uses_anonymous_args = 0
 813              		.loc 1 279 1 is_stmt 0 view .LVU202
 814 0000 70B5     		push	{r4, r5, r6, lr}
 815              	.LCFI7:
 816              		.cfi_def_cfa_offset 16
 817              		.cfi_offset 4, -16
 818              		.cfi_offset 5, -12
 819              		.cfi_offset 6, -8
 820              		.cfi_offset 14, -4
 821 0002 82B0     		sub	sp, sp, #8
 822              	.LCFI8:
 823              		.cfi_def_cfa_offset 24
 824 0004 0446     		mov	r4, r0
 280:Middlewares/lvgl/src/extra/widgets/tabview/lv_tabview.c ****     lv_obj_t * cont = lv_event_get_target(e);
 825              		.loc 1 280 5 is_stmt 1 view .LVU203
 826              		.loc 1 280 23 is_stmt 0 view .LVU204
 827 0006 FFF7FEFF 		bl	lv_event_get_target
 828              	.LVL103:
 829              		.loc 1 280 23 view .LVU205
 830 000a 0546     		mov	r5, r0
 831              	.LVL104:
 281:Middlewares/lvgl/src/extra/widgets/tabview/lv_tabview.c ****     lv_event_code_t code = lv_event_get_code(e);
 832              		.loc 1 281 5 is_stmt 1 view .LVU206
 833              		.loc 1 281 28 is_stmt 0 view .LVU207
 834 000c 2046     		mov	r0, r4
 835              	.LVL105:
 836              		.loc 1 281 28 view .LVU208
 837 000e FFF7FEFF 		bl	lv_event_get_code
 838              	.LVL106:
 839 0012 0446     		mov	r4, r0
 840              	.LVL107:
 282:Middlewares/lvgl/src/extra/widgets/tabview/lv_tabview.c **** 
 283:Middlewares/lvgl/src/extra/widgets/tabview/lv_tabview.c ****     lv_obj_t * tv = lv_obj_get_parent(cont);
 841              		.loc 1 283 5 is_stmt 1 view .LVU209
 842              		.loc 1 283 21 is_stmt 0 view .LVU210
 843 0014 2846     		mov	r0, r5
 844 0016 FFF7FEFF 		bl	lv_obj_get_parent
 845              	.LVL108:
 846 001a 0646     		mov	r6, r0
 847              	.LVL109:
 284:Middlewares/lvgl/src/extra/widgets/tabview/lv_tabview.c ****     if(code == LV_EVENT_LAYOUT_CHANGED) {
 848              		.loc 1 284 5 is_stmt 1 view .LVU211
 849              		.loc 1 284 7 is_stmt 0 view .LVU212
 850 001c 252C     		cmp	r4, #37
 851 001e 03D0     		beq	.L56
 285:Middlewares/lvgl/src/extra/widgets/tabview/lv_tabview.c ****         lv_tabview_set_act(tv, lv_tabview_get_tab_act(tv), LV_ANIM_OFF);
 286:Middlewares/lvgl/src/extra/widgets/tabview/lv_tabview.c ****     }
 287:Middlewares/lvgl/src/extra/widgets/tabview/lv_tabview.c ****     else if(code == LV_EVENT_SCROLL_END) {
 852              		.loc 1 287 10 is_stmt 1 view .LVU213
 853              		.loc 1 287 12 is_stmt 0 view .LVU214
 854 0020 0A2C     		cmp	r4, #10
 855 0022 09D0     		beq	.L57
 856              	.LVL110:
 857              	.L48:
ARM GAS  /tmp/ccQ1IU3X.s 			page 27


 288:Middlewares/lvgl/src/extra/widgets/tabview/lv_tabview.c ****         lv_point_t p;
 289:Middlewares/lvgl/src/extra/widgets/tabview/lv_tabview.c ****         lv_obj_get_scroll_end(cont, &p);
 290:Middlewares/lvgl/src/extra/widgets/tabview/lv_tabview.c **** 
 291:Middlewares/lvgl/src/extra/widgets/tabview/lv_tabview.c ****         lv_coord_t w = lv_obj_get_content_width(cont);
 292:Middlewares/lvgl/src/extra/widgets/tabview/lv_tabview.c ****         lv_coord_t t;
 293:Middlewares/lvgl/src/extra/widgets/tabview/lv_tabview.c **** 
 294:Middlewares/lvgl/src/extra/widgets/tabview/lv_tabview.c ****         if(lv_obj_get_style_base_dir(tv, LV_PART_MAIN) == LV_BASE_DIR_RTL)  t = -(p.x - w/ 2) / w;
 295:Middlewares/lvgl/src/extra/widgets/tabview/lv_tabview.c ****         else t = (p.x + w/ 2) / w;
 296:Middlewares/lvgl/src/extra/widgets/tabview/lv_tabview.c **** 
 297:Middlewares/lvgl/src/extra/widgets/tabview/lv_tabview.c ****         if(t < 0) t = 0;
 298:Middlewares/lvgl/src/extra/widgets/tabview/lv_tabview.c ****         lv_tabview_set_act(tv, t, LV_ANIM_ON);
 299:Middlewares/lvgl/src/extra/widgets/tabview/lv_tabview.c ****         lv_event_send(tv, LV_EVENT_VALUE_CHANGED, NULL);
 300:Middlewares/lvgl/src/extra/widgets/tabview/lv_tabview.c ****     }
 301:Middlewares/lvgl/src/extra/widgets/tabview/lv_tabview.c **** }
 858              		.loc 1 301 1 view .LVU215
 859 0024 02B0     		add	sp, sp, #8
 860              	.LCFI9:
 861              		.cfi_remember_state
 862              		.cfi_def_cfa_offset 16
 863              		@ sp needed
 864 0026 70BD     		pop	{r4, r5, r6, pc}
 865              	.LVL111:
 866              	.L56:
 867              	.LCFI10:
 868              		.cfi_restore_state
 285:Middlewares/lvgl/src/extra/widgets/tabview/lv_tabview.c ****         lv_tabview_set_act(tv, lv_tabview_get_tab_act(tv), LV_ANIM_OFF);
 869              		.loc 1 285 9 is_stmt 1 view .LVU216
 285:Middlewares/lvgl/src/extra/widgets/tabview/lv_tabview.c ****         lv_tabview_set_act(tv, lv_tabview_get_tab_act(tv), LV_ANIM_OFF);
 870              		.loc 1 285 32 is_stmt 0 view .LVU217
 871 0028 FFF7FEFF 		bl	lv_tabview_get_tab_act
 872              	.LVL112:
 285:Middlewares/lvgl/src/extra/widgets/tabview/lv_tabview.c ****         lv_tabview_set_act(tv, lv_tabview_get_tab_act(tv), LV_ANIM_OFF);
 873              		.loc 1 285 32 view .LVU218
 874 002c 0146     		mov	r1, r0
 285:Middlewares/lvgl/src/extra/widgets/tabview/lv_tabview.c ****         lv_tabview_set_act(tv, lv_tabview_get_tab_act(tv), LV_ANIM_OFF);
 875              		.loc 1 285 9 view .LVU219
 876 002e 0022     		movs	r2, #0
 877 0030 3046     		mov	r0, r6
 878 0032 FFF7FEFF 		bl	lv_tabview_set_act
 879              	.LVL113:
 880 0036 F5E7     		b	.L48
 881              	.LVL114:
 882              	.L57:
 883              	.LBB19:
 288:Middlewares/lvgl/src/extra/widgets/tabview/lv_tabview.c ****         lv_point_t p;
 884              		.loc 1 288 9 is_stmt 1 view .LVU220
 289:Middlewares/lvgl/src/extra/widgets/tabview/lv_tabview.c **** 
 885              		.loc 1 289 9 view .LVU221
 886 0038 01A9     		add	r1, sp, #4
 887 003a 2846     		mov	r0, r5
 888              	.LVL115:
 289:Middlewares/lvgl/src/extra/widgets/tabview/lv_tabview.c **** 
 889              		.loc 1 289 9 is_stmt 0 view .LVU222
 890 003c FFF7FEFF 		bl	lv_obj_get_scroll_end
 891              	.LVL116:
 291:Middlewares/lvgl/src/extra/widgets/tabview/lv_tabview.c ****         lv_coord_t t;
 892              		.loc 1 291 9 is_stmt 1 view .LVU223
ARM GAS  /tmp/ccQ1IU3X.s 			page 28


 291:Middlewares/lvgl/src/extra/widgets/tabview/lv_tabview.c ****         lv_coord_t t;
 893              		.loc 1 291 24 is_stmt 0 view .LVU224
 894 0040 2846     		mov	r0, r5
 895 0042 FFF7FEFF 		bl	lv_obj_get_content_width
 896              	.LVL117:
 897 0046 0446     		mov	r4, r0
 898              	.LVL118:
 292:Middlewares/lvgl/src/extra/widgets/tabview/lv_tabview.c **** 
 899              		.loc 1 292 9 is_stmt 1 view .LVU225
 294:Middlewares/lvgl/src/extra/widgets/tabview/lv_tabview.c ****         else t = (p.x + w/ 2) / w;
 900              		.loc 1 294 9 view .LVU226
 901              	.LBB20:
 902              	.LBI20:
 187:Middlewares/lvgl/src/extra/widgets/tabview/../../../../src/core/lv_obj_style_gen.h **** {
 903              		.loc 2 187 29 view .LVU227
 904              	.LBB21:
 189:Middlewares/lvgl/src/extra/widgets/tabview/../../../../src/core/lv_obj_style_gen.h ****     return (lv_base_dir_t)v.num;
 905              		.loc 2 189 5 view .LVU228
 189:Middlewares/lvgl/src/extra/widgets/tabview/../../../../src/core/lv_obj_style_gen.h ****     return (lv_base_dir_t)v.num;
 906              		.loc 2 189 26 is_stmt 0 view .LVU229
 907 0048 41F26A42 		movw	r2, #5226
 908 004c 0021     		movs	r1, #0
 909 004e 3046     		mov	r0, r6
 910 0050 FFF7FEFF 		bl	lv_obj_get_style_prop
 911              	.LVL119:
 912              		.loc 2 190 5 is_stmt 1 view .LVU230
 913              		.loc 2 190 12 is_stmt 0 view .LVU231
 914 0054 C0B2     		uxtb	r0, r0
 915              	.LVL120:
 916              		.loc 2 190 12 view .LVU232
 917              	.LBE21:
 918              	.LBE20:
 294:Middlewares/lvgl/src/extra/widgets/tabview/lv_tabview.c ****         else t = (p.x + w/ 2) / w;
 919              		.loc 1 294 11 view .LVU233
 920 0056 0128     		cmp	r0, #1
 921 0058 15D0     		beq	.L58
 295:Middlewares/lvgl/src/extra/widgets/tabview/lv_tabview.c **** 
 922              		.loc 1 295 14 is_stmt 1 view .LVU234
 295:Middlewares/lvgl/src/extra/widgets/tabview/lv_tabview.c **** 
 923              		.loc 1 295 20 is_stmt 0 view .LVU235
 924 005a BDF90410 		ldrsh	r1, [sp, #4]
 295:Middlewares/lvgl/src/extra/widgets/tabview/lv_tabview.c **** 
 925              		.loc 1 295 26 view .LVU236
 926 005e 04EBD473 		add	r3, r4, r4, lsr #31
 927 0062 43F34F03 		sbfx	r3, r3, #1, #16
 295:Middlewares/lvgl/src/extra/widgets/tabview/lv_tabview.c **** 
 928              		.loc 1 295 23 view .LVU237
 929 0066 1944     		add	r1, r1, r3
 295:Middlewares/lvgl/src/extra/widgets/tabview/lv_tabview.c **** 
 930              		.loc 1 295 31 view .LVU238
 931 0068 91FBF4F1 		sdiv	r1, r1, r4
 295:Middlewares/lvgl/src/extra/widgets/tabview/lv_tabview.c **** 
 932              		.loc 1 295 16 view .LVU239
 933 006c 09B2     		sxth	r1, r1
 934              	.LVL121:
 935              	.L52:
 297:Middlewares/lvgl/src/extra/widgets/tabview/lv_tabview.c ****         lv_tabview_set_act(tv, t, LV_ANIM_ON);
ARM GAS  /tmp/ccQ1IU3X.s 			page 29


 936              		.loc 1 297 9 is_stmt 1 view .LVU240
 297:Middlewares/lvgl/src/extra/widgets/tabview/lv_tabview.c ****         lv_tabview_set_act(tv, t, LV_ANIM_ON);
 937              		.loc 1 297 11 is_stmt 0 view .LVU241
 938 006e 0029     		cmp	r1, #0
 939 0070 14DB     		blt	.L59
 940              	.LVL122:
 941              	.L53:
 298:Middlewares/lvgl/src/extra/widgets/tabview/lv_tabview.c ****         lv_event_send(tv, LV_EVENT_VALUE_CHANGED, NULL);
 942              		.loc 1 298 9 is_stmt 1 view .LVU242
 943 0072 0122     		movs	r2, #1
 944 0074 3046     		mov	r0, r6
 945 0076 FFF7FEFF 		bl	lv_tabview_set_act
 946              	.LVL123:
 299:Middlewares/lvgl/src/extra/widgets/tabview/lv_tabview.c ****     }
 947              		.loc 1 299 9 view .LVU243
 948 007a 0022     		movs	r2, #0
 949 007c 1C21     		movs	r1, #28
 950 007e 3046     		mov	r0, r6
 951 0080 FFF7FEFF 		bl	lv_event_send
 952              	.LVL124:
 953              	.LBE19:
 954              		.loc 1 301 1 is_stmt 0 view .LVU244
 955 0084 CEE7     		b	.L48
 956              	.L58:
 957              	.LBB22:
 294:Middlewares/lvgl/src/extra/widgets/tabview/lv_tabview.c ****         else t = (p.x + w/ 2) / w;
 958              		.loc 1 294 77 is_stmt 1 discriminator 1 view .LVU245
 294:Middlewares/lvgl/src/extra/widgets/tabview/lv_tabview.c ****         else t = (p.x + w/ 2) / w;
 959              		.loc 1 294 90 is_stmt 0 discriminator 1 view .LVU246
 960 0086 04EBD473 		add	r3, r4, r4, lsr #31
 961 008a 43F34F03 		sbfx	r3, r3, #1, #16
 294:Middlewares/lvgl/src/extra/widgets/tabview/lv_tabview.c ****         else t = (p.x + w/ 2) / w;
 962              		.loc 1 294 84 discriminator 1 view .LVU247
 963 008e BDF90410 		ldrsh	r1, [sp, #4]
 294:Middlewares/lvgl/src/extra/widgets/tabview/lv_tabview.c ****         else t = (p.x + w/ 2) / w;
 964              		.loc 1 294 81 discriminator 1 view .LVU248
 965 0092 591A     		subs	r1, r3, r1
 294:Middlewares/lvgl/src/extra/widgets/tabview/lv_tabview.c ****         else t = (p.x + w/ 2) / w;
 966              		.loc 1 294 95 discriminator 1 view .LVU249
 967 0094 91FBF4F1 		sdiv	r1, r1, r4
 294:Middlewares/lvgl/src/extra/widgets/tabview/lv_tabview.c ****         else t = (p.x + w/ 2) / w;
 968              		.loc 1 294 79 discriminator 1 view .LVU250
 969 0098 09B2     		sxth	r1, r1
 970              	.LVL125:
 294:Middlewares/lvgl/src/extra/widgets/tabview/lv_tabview.c ****         else t = (p.x + w/ 2) / w;
 971              		.loc 1 294 79 discriminator 1 view .LVU251
 972 009a E8E7     		b	.L52
 973              	.L59:
 297:Middlewares/lvgl/src/extra/widgets/tabview/lv_tabview.c ****         lv_tabview_set_act(tv, t, LV_ANIM_ON);
 974              		.loc 1 297 21 view .LVU252
 975 009c 0021     		movs	r1, #0
 976              	.LVL126:
 297:Middlewares/lvgl/src/extra/widgets/tabview/lv_tabview.c ****         lv_tabview_set_act(tv, t, LV_ANIM_ON);
 977              		.loc 1 297 21 view .LVU253
 978 009e E8E7     		b	.L53
 979              	.LBE22:
 980              		.cfi_endproc
ARM GAS  /tmp/ccQ1IU3X.s 			page 30


 981              	.LFE194:
 983              		.section	.text.btns_value_changed_event_cb,"ax",%progbits
 984              		.align	1
 985              		.syntax unified
 986              		.thumb
 987              		.thumb_func
 988              		.fpu fpv4-sp-d16
 990              	btns_value_changed_event_cb:
 991              	.LVL127:
 992              	.LFB193:
 268:Middlewares/lvgl/src/extra/widgets/tabview/lv_tabview.c ****     lv_obj_t * btns = lv_event_get_target(e);
 993              		.loc 1 268 1 is_stmt 1 view -0
 994              		.cfi_startproc
 995              		@ args = 0, pretend = 0, frame = 0
 996              		@ frame_needed = 0, uses_anonymous_args = 0
 268:Middlewares/lvgl/src/extra/widgets/tabview/lv_tabview.c ****     lv_obj_t * btns = lv_event_get_target(e);
 997              		.loc 1 268 1 is_stmt 0 view .LVU255
 998 0000 38B5     		push	{r3, r4, r5, lr}
 999              	.LCFI11:
 1000              		.cfi_def_cfa_offset 16
 1001              		.cfi_offset 3, -16
 1002              		.cfi_offset 4, -12
 1003              		.cfi_offset 5, -8
 1004              		.cfi_offset 14, -4
 269:Middlewares/lvgl/src/extra/widgets/tabview/lv_tabview.c **** 
 1005              		.loc 1 269 5 is_stmt 1 view .LVU256
 269:Middlewares/lvgl/src/extra/widgets/tabview/lv_tabview.c **** 
 1006              		.loc 1 269 23 is_stmt 0 view .LVU257
 1007 0002 FFF7FEFF 		bl	lv_event_get_target
 1008              	.LVL128:
 269:Middlewares/lvgl/src/extra/widgets/tabview/lv_tabview.c **** 
 1009              		.loc 1 269 23 view .LVU258
 1010 0006 0546     		mov	r5, r0
 1011              	.LVL129:
 271:Middlewares/lvgl/src/extra/widgets/tabview/lv_tabview.c ****     uint32_t id = lv_btnmatrix_get_selected_btn(btns);
 1012              		.loc 1 271 5 is_stmt 1 view .LVU259
 271:Middlewares/lvgl/src/extra/widgets/tabview/lv_tabview.c ****     uint32_t id = lv_btnmatrix_get_selected_btn(btns);
 1013              		.loc 1 271 21 is_stmt 0 view .LVU260
 1014 0008 FFF7FEFF 		bl	lv_obj_get_parent
 1015              	.LVL130:
 271:Middlewares/lvgl/src/extra/widgets/tabview/lv_tabview.c ****     uint32_t id = lv_btnmatrix_get_selected_btn(btns);
 1016              		.loc 1 271 21 view .LVU261
 1017 000c 0446     		mov	r4, r0
 1018              	.LVL131:
 272:Middlewares/lvgl/src/extra/widgets/tabview/lv_tabview.c ****     lv_tabview_set_act(tv, id, LV_ANIM_ON);
 1019              		.loc 1 272 5 is_stmt 1 view .LVU262
 272:Middlewares/lvgl/src/extra/widgets/tabview/lv_tabview.c ****     lv_tabview_set_act(tv, id, LV_ANIM_ON);
 1020              		.loc 1 272 19 is_stmt 0 view .LVU263
 1021 000e 2846     		mov	r0, r5
 1022              	.LVL132:
 272:Middlewares/lvgl/src/extra/widgets/tabview/lv_tabview.c ****     lv_tabview_set_act(tv, id, LV_ANIM_ON);
 1023              		.loc 1 272 19 view .LVU264
 1024 0010 FFF7FEFF 		bl	lv_btnmatrix_get_selected_btn
 1025              	.LVL133:
 1026 0014 0146     		mov	r1, r0
 1027              	.LVL134:
 273:Middlewares/lvgl/src/extra/widgets/tabview/lv_tabview.c **** 
ARM GAS  /tmp/ccQ1IU3X.s 			page 31


 1028              		.loc 1 273 5 is_stmt 1 view .LVU265
 1029 0016 0122     		movs	r2, #1
 1030 0018 2046     		mov	r0, r4
 1031              	.LVL135:
 273:Middlewares/lvgl/src/extra/widgets/tabview/lv_tabview.c **** 
 1032              		.loc 1 273 5 is_stmt 0 view .LVU266
 1033 001a FFF7FEFF 		bl	lv_tabview_set_act
 1034              	.LVL136:
 275:Middlewares/lvgl/src/extra/widgets/tabview/lv_tabview.c **** }
 1035              		.loc 1 275 5 is_stmt 1 view .LVU267
 1036 001e 0022     		movs	r2, #0
 1037 0020 1C21     		movs	r1, #28
 1038 0022 2046     		mov	r0, r4
 1039 0024 FFF7FEFF 		bl	lv_event_send
 1040              	.LVL137:
 276:Middlewares/lvgl/src/extra/widgets/tabview/lv_tabview.c **** 
 1041              		.loc 1 276 1 is_stmt 0 view .LVU268
 1042 0028 38BD     		pop	{r3, r4, r5, pc}
 276:Middlewares/lvgl/src/extra/widgets/tabview/lv_tabview.c **** 
 1043              		.loc 1 276 1 view .LVU269
 1044              		.cfi_endproc
 1045              	.LFE193:
 1047              		.section	.rodata.lv_tabview_add_tab.str1.4,"aMS",%progbits,1
 1048              		.align	2
 1049              	.LC1:
 1050 0000 0A00     		.ascii	"\012\000"
 1051              		.section	.text.lv_tabview_add_tab,"ax",%progbits
 1052              		.align	1
 1053              		.global	lv_tabview_add_tab
 1054              		.syntax unified
 1055              		.thumb
 1056              		.thumb_func
 1057              		.fpu fpv4-sp-d16
 1059              	lv_tabview_add_tab:
 1060              	.LVL138:
 1061              	.LFB185:
  64:Middlewares/lvgl/src/extra/widgets/tabview/lv_tabview.c ****     lv_tabview_t * tabview = (lv_tabview_t *)obj;
 1062              		.loc 1 64 1 is_stmt 1 view -0
 1063              		.cfi_startproc
 1064              		@ args = 0, pretend = 0, frame = 0
 1065              		@ frame_needed = 0, uses_anonymous_args = 0
  64:Middlewares/lvgl/src/extra/widgets/tabview/lv_tabview.c ****     lv_tabview_t * tabview = (lv_tabview_t *)obj;
 1066              		.loc 1 64 1 is_stmt 0 view .LVU271
 1067 0000 2DE9F84F 		push	{r3, r4, r5, r6, r7, r8, r9, r10, fp, lr}
 1068              	.LCFI12:
 1069              		.cfi_def_cfa_offset 40
 1070              		.cfi_offset 3, -40
 1071              		.cfi_offset 4, -36
 1072              		.cfi_offset 5, -32
 1073              		.cfi_offset 6, -28
 1074              		.cfi_offset 7, -24
 1075              		.cfi_offset 8, -20
 1076              		.cfi_offset 9, -16
 1077              		.cfi_offset 10, -12
 1078              		.cfi_offset 11, -8
 1079              		.cfi_offset 14, -4
 1080 0004 0446     		mov	r4, r0
ARM GAS  /tmp/ccQ1IU3X.s 			page 32


 1081 0006 8946     		mov	r9, r1
  65:Middlewares/lvgl/src/extra/widgets/tabview/lv_tabview.c ****     lv_obj_t * cont = lv_tabview_get_content(obj);
 1082              		.loc 1 65 5 is_stmt 1 view .LVU272
 1083              	.LVL139:
  66:Middlewares/lvgl/src/extra/widgets/tabview/lv_tabview.c **** 
 1084              		.loc 1 66 5 view .LVU273
  66:Middlewares/lvgl/src/extra/widgets/tabview/lv_tabview.c **** 
 1085              		.loc 1 66 23 is_stmt 0 view .LVU274
 1086 0008 FFF7FEFF 		bl	lv_tabview_get_content
 1087              	.LVL140:
  66:Middlewares/lvgl/src/extra/widgets/tabview/lv_tabview.c **** 
 1088              		.loc 1 66 23 view .LVU275
 1089 000c 0546     		mov	r5, r0
 1090              	.LVL141:
  68:Middlewares/lvgl/src/extra/widgets/tabview/lv_tabview.c ****     lv_obj_set_size(page, LV_PCT(100), LV_PCT(100));
 1091              		.loc 1 68 5 is_stmt 1 view .LVU276
  68:Middlewares/lvgl/src/extra/widgets/tabview/lv_tabview.c ****     lv_obj_set_size(page, LV_PCT(100), LV_PCT(100));
 1092              		.loc 1 68 23 is_stmt 0 view .LVU277
 1093 000e FFF7FEFF 		bl	lv_obj_create
 1094              	.LVL142:
  68:Middlewares/lvgl/src/extra/widgets/tabview/lv_tabview.c ****     lv_obj_set_size(page, LV_PCT(100), LV_PCT(100));
 1095              		.loc 1 68 23 view .LVU278
 1096 0012 8046     		mov	r8, r0
 1097              	.LVL143:
  69:Middlewares/lvgl/src/extra/widgets/tabview/lv_tabview.c ****     lv_obj_clear_flag(page, LV_OBJ_FLAG_CLICK_FOCUSABLE);
 1098              		.loc 1 69 5 is_stmt 1 view .LVU279
 1099 0014 42F26402 		movw	r2, #8292
 1100 0018 1146     		mov	r1, r2
 1101 001a FFF7FEFF 		bl	lv_obj_set_size
 1102              	.LVL144:
  70:Middlewares/lvgl/src/extra/widgets/tabview/lv_tabview.c ****     uint32_t tab_id = lv_obj_get_child_cnt(cont);
 1103              		.loc 1 70 5 view .LVU280
 1104 001e 0421     		movs	r1, #4
 1105 0020 4046     		mov	r0, r8
 1106 0022 FFF7FEFF 		bl	lv_obj_clear_flag
 1107              	.LVL145:
  71:Middlewares/lvgl/src/extra/widgets/tabview/lv_tabview.c **** 
 1108              		.loc 1 71 5 view .LVU281
  71:Middlewares/lvgl/src/extra/widgets/tabview/lv_tabview.c **** 
 1109              		.loc 1 71 23 is_stmt 0 view .LVU282
 1110 0026 2846     		mov	r0, r5
 1111 0028 FFF7FEFF 		bl	lv_obj_get_child_cnt
 1112              	.LVL146:
 1113 002c 0646     		mov	r6, r0
 1114              	.LVL147:
  73:Middlewares/lvgl/src/extra/widgets/tabview/lv_tabview.c **** 
 1115              		.loc 1 73 5 is_stmt 1 view .LVU283
  73:Middlewares/lvgl/src/extra/widgets/tabview/lv_tabview.c **** 
 1116              		.loc 1 73 23 is_stmt 0 view .LVU284
 1117 002e 2046     		mov	r0, r4
 1118              	.LVL148:
  73:Middlewares/lvgl/src/extra/widgets/tabview/lv_tabview.c **** 
 1119              		.loc 1 73 23 view .LVU285
 1120 0030 FFF7FEFF 		bl	lv_tabview_get_tab_btns
 1121              	.LVL149:
 1122 0034 0746     		mov	r7, r0
 1123              	.LVL150:
ARM GAS  /tmp/ccQ1IU3X.s 			page 33


  75:Middlewares/lvgl/src/extra/widgets/tabview/lv_tabview.c ****     char ** new_map;
 1124              		.loc 1 75 5 is_stmt 1 view .LVU286
  75:Middlewares/lvgl/src/extra/widgets/tabview/lv_tabview.c ****     char ** new_map;
 1125              		.loc 1 75 13 is_stmt 0 view .LVU287
 1126 0036 D4F824A0 		ldr	r10, [r4, #36]
 1127              	.LVL151:
  76:Middlewares/lvgl/src/extra/widgets/tabview/lv_tabview.c **** 
 1128              		.loc 1 76 5 is_stmt 1 view .LVU288
  79:Middlewares/lvgl/src/extra/widgets/tabview/lv_tabview.c ****         new_map = lv_mem_alloc((tab_id + 1) * sizeof(const char *));
 1129              		.loc 1 79 5 view .LVU289
  79:Middlewares/lvgl/src/extra/widgets/tabview/lv_tabview.c ****         new_map = lv_mem_alloc((tab_id + 1) * sizeof(const char *));
 1130              		.loc 1 79 15 is_stmt 0 view .LVU290
 1131 003a 94F82C30 		ldrb	r3, [r4, #44]	@ zero_extendqisi2
  79:Middlewares/lvgl/src/extra/widgets/tabview/lv_tabview.c ****         new_map = lv_mem_alloc((tab_id + 1) * sizeof(const char *));
 1132              		.loc 1 79 7 view .LVU291
 1133 003e 13F00C0F 		tst	r3, #12
 1134 0042 3DD0     		beq	.L63
  80:Middlewares/lvgl/src/extra/widgets/tabview/lv_tabview.c ****         lv_memcpy_small(new_map, old_map, sizeof(const char *) * (tab_id - 1));
 1135              		.loc 1 80 9 is_stmt 1 view .LVU292
  80:Middlewares/lvgl/src/extra/widgets/tabview/lv_tabview.c ****         lv_memcpy_small(new_map, old_map, sizeof(const char *) * (tab_id - 1));
 1136              		.loc 1 80 40 is_stmt 0 view .LVU293
 1137 0044 701C     		adds	r0, r6, #1
 1138              	.LVL152:
  80:Middlewares/lvgl/src/extra/widgets/tabview/lv_tabview.c ****         lv_memcpy_small(new_map, old_map, sizeof(const char *) * (tab_id - 1));
 1139              		.loc 1 80 19 view .LVU294
 1140 0046 8000     		lsls	r0, r0, #2
 1141 0048 FFF7FEFF 		bl	lv_mem_alloc
 1142              	.LVL153:
 1143 004c 0546     		mov	r5, r0
 1144              	.LVL154:
  81:Middlewares/lvgl/src/extra/widgets/tabview/lv_tabview.c ****         new_map[tab_id - 1] = lv_mem_alloc(strlen(name) + 1);
 1145              		.loc 1 81 9 is_stmt 1 view .LVU295
  81:Middlewares/lvgl/src/extra/widgets/tabview/lv_tabview.c ****         new_map[tab_id - 1] = lv_mem_alloc(strlen(name) + 1);
 1146              		.loc 1 81 74 is_stmt 0 view .LVU296
 1147 004e 731E     		subs	r3, r6, #1
  81:Middlewares/lvgl/src/extra/widgets/tabview/lv_tabview.c ****         new_map[tab_id - 1] = lv_mem_alloc(strlen(name) + 1);
 1148              		.loc 1 81 64 view .LVU297
 1149 0050 9B00     		lsls	r3, r3, #2
 1150              	.LVL155:
 1151              	.LBB23:
 1152              	.LBI23:
 1153              		.file 3 "Middlewares/lvgl/src/extra/widgets/tabview/../../../../src/misc/lv_mem.h"
   1:Middlewares/lvgl/src/extra/widgets/tabview/../../../../src/misc/lv_mem.h **** /**
   2:Middlewares/lvgl/src/extra/widgets/tabview/../../../../src/misc/lv_mem.h ****  * @file lv_mem.h
   3:Middlewares/lvgl/src/extra/widgets/tabview/../../../../src/misc/lv_mem.h ****  *
   4:Middlewares/lvgl/src/extra/widgets/tabview/../../../../src/misc/lv_mem.h ****  */
   5:Middlewares/lvgl/src/extra/widgets/tabview/../../../../src/misc/lv_mem.h **** 
   6:Middlewares/lvgl/src/extra/widgets/tabview/../../../../src/misc/lv_mem.h **** #ifndef LV_MEM_H
   7:Middlewares/lvgl/src/extra/widgets/tabview/../../../../src/misc/lv_mem.h **** #define LV_MEM_H
   8:Middlewares/lvgl/src/extra/widgets/tabview/../../../../src/misc/lv_mem.h **** 
   9:Middlewares/lvgl/src/extra/widgets/tabview/../../../../src/misc/lv_mem.h **** #ifdef __cplusplus
  10:Middlewares/lvgl/src/extra/widgets/tabview/../../../../src/misc/lv_mem.h **** extern "C" {
  11:Middlewares/lvgl/src/extra/widgets/tabview/../../../../src/misc/lv_mem.h **** #endif
  12:Middlewares/lvgl/src/extra/widgets/tabview/../../../../src/misc/lv_mem.h **** 
  13:Middlewares/lvgl/src/extra/widgets/tabview/../../../../src/misc/lv_mem.h **** /*********************
  14:Middlewares/lvgl/src/extra/widgets/tabview/../../../../src/misc/lv_mem.h ****  *      INCLUDES
  15:Middlewares/lvgl/src/extra/widgets/tabview/../../../../src/misc/lv_mem.h ****  *********************/
ARM GAS  /tmp/ccQ1IU3X.s 			page 34


  16:Middlewares/lvgl/src/extra/widgets/tabview/../../../../src/misc/lv_mem.h **** #include "../lv_conf_internal.h"
  17:Middlewares/lvgl/src/extra/widgets/tabview/../../../../src/misc/lv_mem.h **** 
  18:Middlewares/lvgl/src/extra/widgets/tabview/../../../../src/misc/lv_mem.h **** #include <stdint.h>
  19:Middlewares/lvgl/src/extra/widgets/tabview/../../../../src/misc/lv_mem.h **** #include <stddef.h>
  20:Middlewares/lvgl/src/extra/widgets/tabview/../../../../src/misc/lv_mem.h **** #include "lv_log.h"
  21:Middlewares/lvgl/src/extra/widgets/tabview/../../../../src/misc/lv_mem.h **** #include "lv_types.h"
  22:Middlewares/lvgl/src/extra/widgets/tabview/../../../../src/misc/lv_mem.h **** 
  23:Middlewares/lvgl/src/extra/widgets/tabview/../../../../src/misc/lv_mem.h **** #if LV_MEMCPY_MEMSET_STD
  24:Middlewares/lvgl/src/extra/widgets/tabview/../../../../src/misc/lv_mem.h **** #include <string.h>
  25:Middlewares/lvgl/src/extra/widgets/tabview/../../../../src/misc/lv_mem.h **** #endif
  26:Middlewares/lvgl/src/extra/widgets/tabview/../../../../src/misc/lv_mem.h **** 
  27:Middlewares/lvgl/src/extra/widgets/tabview/../../../../src/misc/lv_mem.h **** /*********************
  28:Middlewares/lvgl/src/extra/widgets/tabview/../../../../src/misc/lv_mem.h ****  *      DEFINES
  29:Middlewares/lvgl/src/extra/widgets/tabview/../../../../src/misc/lv_mem.h ****  *********************/
  30:Middlewares/lvgl/src/extra/widgets/tabview/../../../../src/misc/lv_mem.h **** 
  31:Middlewares/lvgl/src/extra/widgets/tabview/../../../../src/misc/lv_mem.h **** #ifndef LV_MEM_BUF_MAX_NUM
  32:Middlewares/lvgl/src/extra/widgets/tabview/../../../../src/misc/lv_mem.h **** #define LV_MEM_BUF_MAX_NUM    16
  33:Middlewares/lvgl/src/extra/widgets/tabview/../../../../src/misc/lv_mem.h **** #endif
  34:Middlewares/lvgl/src/extra/widgets/tabview/../../../../src/misc/lv_mem.h **** 
  35:Middlewares/lvgl/src/extra/widgets/tabview/../../../../src/misc/lv_mem.h **** /**********************
  36:Middlewares/lvgl/src/extra/widgets/tabview/../../../../src/misc/lv_mem.h ****  *      TYPEDEFS
  37:Middlewares/lvgl/src/extra/widgets/tabview/../../../../src/misc/lv_mem.h ****  **********************/
  38:Middlewares/lvgl/src/extra/widgets/tabview/../../../../src/misc/lv_mem.h **** 
  39:Middlewares/lvgl/src/extra/widgets/tabview/../../../../src/misc/lv_mem.h **** /**
  40:Middlewares/lvgl/src/extra/widgets/tabview/../../../../src/misc/lv_mem.h ****  * Heap information structure.
  41:Middlewares/lvgl/src/extra/widgets/tabview/../../../../src/misc/lv_mem.h ****  */
  42:Middlewares/lvgl/src/extra/widgets/tabview/../../../../src/misc/lv_mem.h **** typedef struct {
  43:Middlewares/lvgl/src/extra/widgets/tabview/../../../../src/misc/lv_mem.h ****     uint32_t total_size; /**< Total heap size*/
  44:Middlewares/lvgl/src/extra/widgets/tabview/../../../../src/misc/lv_mem.h ****     uint32_t free_cnt;
  45:Middlewares/lvgl/src/extra/widgets/tabview/../../../../src/misc/lv_mem.h ****     uint32_t free_size; /**< Size of available memory*/
  46:Middlewares/lvgl/src/extra/widgets/tabview/../../../../src/misc/lv_mem.h ****     uint32_t free_biggest_size;
  47:Middlewares/lvgl/src/extra/widgets/tabview/../../../../src/misc/lv_mem.h ****     uint32_t used_cnt;
  48:Middlewares/lvgl/src/extra/widgets/tabview/../../../../src/misc/lv_mem.h ****     uint32_t max_used; /**< Max size of Heap memory used*/
  49:Middlewares/lvgl/src/extra/widgets/tabview/../../../../src/misc/lv_mem.h ****     uint8_t used_pct; /**< Percentage used*/
  50:Middlewares/lvgl/src/extra/widgets/tabview/../../../../src/misc/lv_mem.h ****     uint8_t frag_pct; /**< Amount of fragmentation*/
  51:Middlewares/lvgl/src/extra/widgets/tabview/../../../../src/misc/lv_mem.h **** } lv_mem_monitor_t;
  52:Middlewares/lvgl/src/extra/widgets/tabview/../../../../src/misc/lv_mem.h **** 
  53:Middlewares/lvgl/src/extra/widgets/tabview/../../../../src/misc/lv_mem.h **** typedef struct {
  54:Middlewares/lvgl/src/extra/widgets/tabview/../../../../src/misc/lv_mem.h ****     void * p;
  55:Middlewares/lvgl/src/extra/widgets/tabview/../../../../src/misc/lv_mem.h ****     uint16_t size;
  56:Middlewares/lvgl/src/extra/widgets/tabview/../../../../src/misc/lv_mem.h ****     uint8_t used : 1;
  57:Middlewares/lvgl/src/extra/widgets/tabview/../../../../src/misc/lv_mem.h **** } lv_mem_buf_t;
  58:Middlewares/lvgl/src/extra/widgets/tabview/../../../../src/misc/lv_mem.h **** 
  59:Middlewares/lvgl/src/extra/widgets/tabview/../../../../src/misc/lv_mem.h **** typedef lv_mem_buf_t lv_mem_buf_arr_t[LV_MEM_BUF_MAX_NUM];
  60:Middlewares/lvgl/src/extra/widgets/tabview/../../../../src/misc/lv_mem.h **** 
  61:Middlewares/lvgl/src/extra/widgets/tabview/../../../../src/misc/lv_mem.h **** /**********************
  62:Middlewares/lvgl/src/extra/widgets/tabview/../../../../src/misc/lv_mem.h ****  * GLOBAL PROTOTYPES
  63:Middlewares/lvgl/src/extra/widgets/tabview/../../../../src/misc/lv_mem.h ****  **********************/
  64:Middlewares/lvgl/src/extra/widgets/tabview/../../../../src/misc/lv_mem.h **** 
  65:Middlewares/lvgl/src/extra/widgets/tabview/../../../../src/misc/lv_mem.h **** /**
  66:Middlewares/lvgl/src/extra/widgets/tabview/../../../../src/misc/lv_mem.h ****  * Initialize the dyn_mem module (work memory and other variables)
  67:Middlewares/lvgl/src/extra/widgets/tabview/../../../../src/misc/lv_mem.h ****  */
  68:Middlewares/lvgl/src/extra/widgets/tabview/../../../../src/misc/lv_mem.h **** void lv_mem_init(void);
  69:Middlewares/lvgl/src/extra/widgets/tabview/../../../../src/misc/lv_mem.h **** 
  70:Middlewares/lvgl/src/extra/widgets/tabview/../../../../src/misc/lv_mem.h **** /**
  71:Middlewares/lvgl/src/extra/widgets/tabview/../../../../src/misc/lv_mem.h ****  * Clean up the memory buffer which frees all the allocated memories.
  72:Middlewares/lvgl/src/extra/widgets/tabview/../../../../src/misc/lv_mem.h ****  * @note It work only if `LV_MEM_CUSTOM == 0`
ARM GAS  /tmp/ccQ1IU3X.s 			page 35


  73:Middlewares/lvgl/src/extra/widgets/tabview/../../../../src/misc/lv_mem.h ****  */
  74:Middlewares/lvgl/src/extra/widgets/tabview/../../../../src/misc/lv_mem.h **** void lv_mem_deinit(void);
  75:Middlewares/lvgl/src/extra/widgets/tabview/../../../../src/misc/lv_mem.h **** 
  76:Middlewares/lvgl/src/extra/widgets/tabview/../../../../src/misc/lv_mem.h **** /**
  77:Middlewares/lvgl/src/extra/widgets/tabview/../../../../src/misc/lv_mem.h ****  * Allocate a memory dynamically
  78:Middlewares/lvgl/src/extra/widgets/tabview/../../../../src/misc/lv_mem.h ****  * @param size size of the memory to allocate in bytes
  79:Middlewares/lvgl/src/extra/widgets/tabview/../../../../src/misc/lv_mem.h ****  * @return pointer to the allocated memory
  80:Middlewares/lvgl/src/extra/widgets/tabview/../../../../src/misc/lv_mem.h ****  */
  81:Middlewares/lvgl/src/extra/widgets/tabview/../../../../src/misc/lv_mem.h **** void * lv_mem_alloc(size_t size);
  82:Middlewares/lvgl/src/extra/widgets/tabview/../../../../src/misc/lv_mem.h **** 
  83:Middlewares/lvgl/src/extra/widgets/tabview/../../../../src/misc/lv_mem.h **** /**
  84:Middlewares/lvgl/src/extra/widgets/tabview/../../../../src/misc/lv_mem.h ****  * Free an allocated data
  85:Middlewares/lvgl/src/extra/widgets/tabview/../../../../src/misc/lv_mem.h ****  * @param data pointer to an allocated memory
  86:Middlewares/lvgl/src/extra/widgets/tabview/../../../../src/misc/lv_mem.h ****  */
  87:Middlewares/lvgl/src/extra/widgets/tabview/../../../../src/misc/lv_mem.h **** void lv_mem_free(void * data);
  88:Middlewares/lvgl/src/extra/widgets/tabview/../../../../src/misc/lv_mem.h **** 
  89:Middlewares/lvgl/src/extra/widgets/tabview/../../../../src/misc/lv_mem.h **** /**
  90:Middlewares/lvgl/src/extra/widgets/tabview/../../../../src/misc/lv_mem.h ****  * Reallocate a memory with a new size. The old content will be kept.
  91:Middlewares/lvgl/src/extra/widgets/tabview/../../../../src/misc/lv_mem.h ****  * @param data pointer to an allocated memory.
  92:Middlewares/lvgl/src/extra/widgets/tabview/../../../../src/misc/lv_mem.h ****  * Its content will be copied to the new memory block and freed
  93:Middlewares/lvgl/src/extra/widgets/tabview/../../../../src/misc/lv_mem.h ****  * @param new_size the desired new size in byte
  94:Middlewares/lvgl/src/extra/widgets/tabview/../../../../src/misc/lv_mem.h ****  * @return pointer to the new memory
  95:Middlewares/lvgl/src/extra/widgets/tabview/../../../../src/misc/lv_mem.h ****  */
  96:Middlewares/lvgl/src/extra/widgets/tabview/../../../../src/misc/lv_mem.h **** void * lv_mem_realloc(void * data_p, size_t new_size);
  97:Middlewares/lvgl/src/extra/widgets/tabview/../../../../src/misc/lv_mem.h **** 
  98:Middlewares/lvgl/src/extra/widgets/tabview/../../../../src/misc/lv_mem.h **** /**
  99:Middlewares/lvgl/src/extra/widgets/tabview/../../../../src/misc/lv_mem.h ****  *
 100:Middlewares/lvgl/src/extra/widgets/tabview/../../../../src/misc/lv_mem.h ****  * @return
 101:Middlewares/lvgl/src/extra/widgets/tabview/../../../../src/misc/lv_mem.h ****  */
 102:Middlewares/lvgl/src/extra/widgets/tabview/../../../../src/misc/lv_mem.h **** lv_res_t lv_mem_test(void);
 103:Middlewares/lvgl/src/extra/widgets/tabview/../../../../src/misc/lv_mem.h **** 
 104:Middlewares/lvgl/src/extra/widgets/tabview/../../../../src/misc/lv_mem.h **** /**
 105:Middlewares/lvgl/src/extra/widgets/tabview/../../../../src/misc/lv_mem.h ****  * Give information about the work memory of dynamic allocation
 106:Middlewares/lvgl/src/extra/widgets/tabview/../../../../src/misc/lv_mem.h ****  * @param mon_p pointer to a dm_mon_p variable,
 107:Middlewares/lvgl/src/extra/widgets/tabview/../../../../src/misc/lv_mem.h ****  *              the result of the analysis will be stored here
 108:Middlewares/lvgl/src/extra/widgets/tabview/../../../../src/misc/lv_mem.h ****  */
 109:Middlewares/lvgl/src/extra/widgets/tabview/../../../../src/misc/lv_mem.h **** void lv_mem_monitor(lv_mem_monitor_t * mon_p);
 110:Middlewares/lvgl/src/extra/widgets/tabview/../../../../src/misc/lv_mem.h **** 
 111:Middlewares/lvgl/src/extra/widgets/tabview/../../../../src/misc/lv_mem.h **** 
 112:Middlewares/lvgl/src/extra/widgets/tabview/../../../../src/misc/lv_mem.h **** /**
 113:Middlewares/lvgl/src/extra/widgets/tabview/../../../../src/misc/lv_mem.h ****  * Get a temporal buffer with the given size.
 114:Middlewares/lvgl/src/extra/widgets/tabview/../../../../src/misc/lv_mem.h ****  * @param size the required size
 115:Middlewares/lvgl/src/extra/widgets/tabview/../../../../src/misc/lv_mem.h ****  */
 116:Middlewares/lvgl/src/extra/widgets/tabview/../../../../src/misc/lv_mem.h **** void * lv_mem_buf_get(uint32_t size);
 117:Middlewares/lvgl/src/extra/widgets/tabview/../../../../src/misc/lv_mem.h **** 
 118:Middlewares/lvgl/src/extra/widgets/tabview/../../../../src/misc/lv_mem.h **** /**
 119:Middlewares/lvgl/src/extra/widgets/tabview/../../../../src/misc/lv_mem.h ****  * Release a memory buffer
 120:Middlewares/lvgl/src/extra/widgets/tabview/../../../../src/misc/lv_mem.h ****  * @param p buffer to release
 121:Middlewares/lvgl/src/extra/widgets/tabview/../../../../src/misc/lv_mem.h ****  */
 122:Middlewares/lvgl/src/extra/widgets/tabview/../../../../src/misc/lv_mem.h **** void lv_mem_buf_release(void * p);
 123:Middlewares/lvgl/src/extra/widgets/tabview/../../../../src/misc/lv_mem.h **** 
 124:Middlewares/lvgl/src/extra/widgets/tabview/../../../../src/misc/lv_mem.h **** /**
 125:Middlewares/lvgl/src/extra/widgets/tabview/../../../../src/misc/lv_mem.h ****  * Free all memory buffers
 126:Middlewares/lvgl/src/extra/widgets/tabview/../../../../src/misc/lv_mem.h ****  */
 127:Middlewares/lvgl/src/extra/widgets/tabview/../../../../src/misc/lv_mem.h **** void lv_mem_buf_free_all(void);
 128:Middlewares/lvgl/src/extra/widgets/tabview/../../../../src/misc/lv_mem.h **** 
 129:Middlewares/lvgl/src/extra/widgets/tabview/../../../../src/misc/lv_mem.h **** //! @cond Doxygen_Suppress
ARM GAS  /tmp/ccQ1IU3X.s 			page 36


 130:Middlewares/lvgl/src/extra/widgets/tabview/../../../../src/misc/lv_mem.h **** 
 131:Middlewares/lvgl/src/extra/widgets/tabview/../../../../src/misc/lv_mem.h **** #if LV_MEMCPY_MEMSET_STD
 132:Middlewares/lvgl/src/extra/widgets/tabview/../../../../src/misc/lv_mem.h **** 
 133:Middlewares/lvgl/src/extra/widgets/tabview/../../../../src/misc/lv_mem.h **** /**
 134:Middlewares/lvgl/src/extra/widgets/tabview/../../../../src/misc/lv_mem.h ****  * Wrapper for the standard memcpy
 135:Middlewares/lvgl/src/extra/widgets/tabview/../../../../src/misc/lv_mem.h ****  * @param dst pointer to the destination buffer
 136:Middlewares/lvgl/src/extra/widgets/tabview/../../../../src/misc/lv_mem.h ****  * @param src pointer to the source buffer
 137:Middlewares/lvgl/src/extra/widgets/tabview/../../../../src/misc/lv_mem.h ****  * @param len number of byte to copy
 138:Middlewares/lvgl/src/extra/widgets/tabview/../../../../src/misc/lv_mem.h ****  */
 139:Middlewares/lvgl/src/extra/widgets/tabview/../../../../src/misc/lv_mem.h **** static inline void * lv_memcpy(void * dst, const void * src, size_t len)
 140:Middlewares/lvgl/src/extra/widgets/tabview/../../../../src/misc/lv_mem.h **** {
 141:Middlewares/lvgl/src/extra/widgets/tabview/../../../../src/misc/lv_mem.h ****     return memcpy(dst, src, len);
 142:Middlewares/lvgl/src/extra/widgets/tabview/../../../../src/misc/lv_mem.h **** }
 143:Middlewares/lvgl/src/extra/widgets/tabview/../../../../src/misc/lv_mem.h **** 
 144:Middlewares/lvgl/src/extra/widgets/tabview/../../../../src/misc/lv_mem.h **** /**
 145:Middlewares/lvgl/src/extra/widgets/tabview/../../../../src/misc/lv_mem.h ****  * Wrapper for the standard memcpy
 146:Middlewares/lvgl/src/extra/widgets/tabview/../../../../src/misc/lv_mem.h ****  * @param dst pointer to the destination buffer
 147:Middlewares/lvgl/src/extra/widgets/tabview/../../../../src/misc/lv_mem.h ****  * @param src pointer to the source buffer
 148:Middlewares/lvgl/src/extra/widgets/tabview/../../../../src/misc/lv_mem.h ****  * @param len number of byte to copy
 149:Middlewares/lvgl/src/extra/widgets/tabview/../../../../src/misc/lv_mem.h ****  */
 150:Middlewares/lvgl/src/extra/widgets/tabview/../../../../src/misc/lv_mem.h **** static inline void * lv_memcpy_small(void * dst, const void * src, size_t len)
 151:Middlewares/lvgl/src/extra/widgets/tabview/../../../../src/misc/lv_mem.h **** {
 152:Middlewares/lvgl/src/extra/widgets/tabview/../../../../src/misc/lv_mem.h ****     return memcpy(dst, src, len);
 153:Middlewares/lvgl/src/extra/widgets/tabview/../../../../src/misc/lv_mem.h **** }
 154:Middlewares/lvgl/src/extra/widgets/tabview/../../../../src/misc/lv_mem.h **** 
 155:Middlewares/lvgl/src/extra/widgets/tabview/../../../../src/misc/lv_mem.h **** /**
 156:Middlewares/lvgl/src/extra/widgets/tabview/../../../../src/misc/lv_mem.h ****  * Wrapper for the standard memset
 157:Middlewares/lvgl/src/extra/widgets/tabview/../../../../src/misc/lv_mem.h ****  * @param dst pointer to the destination buffer
 158:Middlewares/lvgl/src/extra/widgets/tabview/../../../../src/misc/lv_mem.h ****  * @param v value to set [0..255]
 159:Middlewares/lvgl/src/extra/widgets/tabview/../../../../src/misc/lv_mem.h ****  * @param len number of byte to set
 160:Middlewares/lvgl/src/extra/widgets/tabview/../../../../src/misc/lv_mem.h ****  */
 161:Middlewares/lvgl/src/extra/widgets/tabview/../../../../src/misc/lv_mem.h **** static inline void lv_memset(void * dst, uint8_t v, size_t len)
 162:Middlewares/lvgl/src/extra/widgets/tabview/../../../../src/misc/lv_mem.h **** {
 163:Middlewares/lvgl/src/extra/widgets/tabview/../../../../src/misc/lv_mem.h ****     memset(dst, v, len);
 164:Middlewares/lvgl/src/extra/widgets/tabview/../../../../src/misc/lv_mem.h **** }
 165:Middlewares/lvgl/src/extra/widgets/tabview/../../../../src/misc/lv_mem.h **** 
 166:Middlewares/lvgl/src/extra/widgets/tabview/../../../../src/misc/lv_mem.h **** /**
 167:Middlewares/lvgl/src/extra/widgets/tabview/../../../../src/misc/lv_mem.h ****  * Wrapper for the standard memset with fixed 0x00 value
 168:Middlewares/lvgl/src/extra/widgets/tabview/../../../../src/misc/lv_mem.h ****  * @param dst pointer to the destination buffer
 169:Middlewares/lvgl/src/extra/widgets/tabview/../../../../src/misc/lv_mem.h ****  * @param len number of byte to set
 170:Middlewares/lvgl/src/extra/widgets/tabview/../../../../src/misc/lv_mem.h ****  */
 171:Middlewares/lvgl/src/extra/widgets/tabview/../../../../src/misc/lv_mem.h **** static inline void lv_memset_00(void * dst, size_t len)
 172:Middlewares/lvgl/src/extra/widgets/tabview/../../../../src/misc/lv_mem.h **** {
 173:Middlewares/lvgl/src/extra/widgets/tabview/../../../../src/misc/lv_mem.h ****     memset(dst, 0x00, len);
 174:Middlewares/lvgl/src/extra/widgets/tabview/../../../../src/misc/lv_mem.h **** }
 175:Middlewares/lvgl/src/extra/widgets/tabview/../../../../src/misc/lv_mem.h **** 
 176:Middlewares/lvgl/src/extra/widgets/tabview/../../../../src/misc/lv_mem.h **** /**
 177:Middlewares/lvgl/src/extra/widgets/tabview/../../../../src/misc/lv_mem.h ****  * Wrapper for the standard memset with fixed 0xFF value
 178:Middlewares/lvgl/src/extra/widgets/tabview/../../../../src/misc/lv_mem.h ****  * @param dst pointer to the destination buffer
 179:Middlewares/lvgl/src/extra/widgets/tabview/../../../../src/misc/lv_mem.h ****  * @param len number of byte to set
 180:Middlewares/lvgl/src/extra/widgets/tabview/../../../../src/misc/lv_mem.h ****  */
 181:Middlewares/lvgl/src/extra/widgets/tabview/../../../../src/misc/lv_mem.h **** static inline void lv_memset_ff(void * dst, size_t len)
 182:Middlewares/lvgl/src/extra/widgets/tabview/../../../../src/misc/lv_mem.h **** {
 183:Middlewares/lvgl/src/extra/widgets/tabview/../../../../src/misc/lv_mem.h ****     memset(dst, 0xFF, len);
 184:Middlewares/lvgl/src/extra/widgets/tabview/../../../../src/misc/lv_mem.h **** }
 185:Middlewares/lvgl/src/extra/widgets/tabview/../../../../src/misc/lv_mem.h **** 
 186:Middlewares/lvgl/src/extra/widgets/tabview/../../../../src/misc/lv_mem.h **** #else
ARM GAS  /tmp/ccQ1IU3X.s 			page 37


 187:Middlewares/lvgl/src/extra/widgets/tabview/../../../../src/misc/lv_mem.h **** /**
 188:Middlewares/lvgl/src/extra/widgets/tabview/../../../../src/misc/lv_mem.h ****  * Same as `memcpy` but optimized for 4 byte operation.
 189:Middlewares/lvgl/src/extra/widgets/tabview/../../../../src/misc/lv_mem.h ****  * @param dst pointer to the destination buffer
 190:Middlewares/lvgl/src/extra/widgets/tabview/../../../../src/misc/lv_mem.h ****  * @param src pointer to the source buffer
 191:Middlewares/lvgl/src/extra/widgets/tabview/../../../../src/misc/lv_mem.h ****  * @param len number of byte to copy
 192:Middlewares/lvgl/src/extra/widgets/tabview/../../../../src/misc/lv_mem.h ****  */
 193:Middlewares/lvgl/src/extra/widgets/tabview/../../../../src/misc/lv_mem.h **** LV_ATTRIBUTE_FAST_MEM void * lv_memcpy(void * dst, const void * src, size_t len);
 194:Middlewares/lvgl/src/extra/widgets/tabview/../../../../src/misc/lv_mem.h **** 
 195:Middlewares/lvgl/src/extra/widgets/tabview/../../../../src/misc/lv_mem.h **** /**
 196:Middlewares/lvgl/src/extra/widgets/tabview/../../../../src/misc/lv_mem.h ****  * Same as `memcpy` but optimized to copy only a few bytes.
 197:Middlewares/lvgl/src/extra/widgets/tabview/../../../../src/misc/lv_mem.h ****  * @param dst pointer to the destination buffer
 198:Middlewares/lvgl/src/extra/widgets/tabview/../../../../src/misc/lv_mem.h ****  * @param src pointer to the source buffer
 199:Middlewares/lvgl/src/extra/widgets/tabview/../../../../src/misc/lv_mem.h ****  * @param len number of byte to copy
 200:Middlewares/lvgl/src/extra/widgets/tabview/../../../../src/misc/lv_mem.h ****  */
 201:Middlewares/lvgl/src/extra/widgets/tabview/../../../../src/misc/lv_mem.h **** LV_ATTRIBUTE_FAST_MEM static inline void * lv_memcpy_small(void * dst, const void * src, size_t len
 1154              		.loc 3 201 44 is_stmt 1 view .LVU298
 1155              	.LBB24:
 202:Middlewares/lvgl/src/extra/widgets/tabview/../../../../src/misc/lv_mem.h **** {
 203:Middlewares/lvgl/src/extra/widgets/tabview/../../../../src/misc/lv_mem.h ****     uint8_t * d8 = (uint8_t *)dst;
 1156              		.loc 3 203 5 view .LVU299
 204:Middlewares/lvgl/src/extra/widgets/tabview/../../../../src/misc/lv_mem.h ****     const uint8_t * s8 = (const uint8_t *)src;
 1157              		.loc 3 204 5 view .LVU300
 205:Middlewares/lvgl/src/extra/widgets/tabview/../../../../src/misc/lv_mem.h **** 
 206:Middlewares/lvgl/src/extra/widgets/tabview/../../../../src/misc/lv_mem.h ****     while(len) {
 1158              		.loc 3 206 5 view .LVU301
 204:Middlewares/lvgl/src/extra/widgets/tabview/../../../../src/misc/lv_mem.h ****     const uint8_t * s8 = (const uint8_t *)src;
 1159              		.loc 3 204 21 is_stmt 0 view .LVU302
 1160 0052 5146     		mov	r1, r10
 203:Middlewares/lvgl/src/extra/widgets/tabview/../../../../src/misc/lv_mem.h ****     const uint8_t * s8 = (const uint8_t *)src;
 1161              		.loc 3 203 15 view .LVU303
 1162 0054 0246     		mov	r2, r0
 1163              		.loc 3 206 10 view .LVU304
 1164 0056 04E0     		b	.L64
 1165              	.LVL156:
 1166              	.L65:
 207:Middlewares/lvgl/src/extra/widgets/tabview/../../../../src/misc/lv_mem.h ****         *d8 = *s8;
 1167              		.loc 3 207 9 is_stmt 1 view .LVU305
 1168              		.loc 3 207 15 is_stmt 0 view .LVU306
 1169 0058 11F8010B 		ldrb	r0, [r1], #1	@ zero_extendqisi2
 1170              	.LVL157:
 1171              		.loc 3 207 13 view .LVU307
 1172 005c 02F8010B 		strb	r0, [r2], #1
 1173              	.LVL158:
 208:Middlewares/lvgl/src/extra/widgets/tabview/../../../../src/misc/lv_mem.h ****         d8++;
 1174              		.loc 3 208 9 is_stmt 1 view .LVU308
 209:Middlewares/lvgl/src/extra/widgets/tabview/../../../../src/misc/lv_mem.h ****         s8++;
 1175              		.loc 3 209 9 view .LVU309
 210:Middlewares/lvgl/src/extra/widgets/tabview/../../../../src/misc/lv_mem.h ****         len--;
 1176              		.loc 3 210 9 view .LVU310
 1177              		.loc 3 210 12 is_stmt 0 view .LVU311
 1178 0060 013B     		subs	r3, r3, #1
 1179              	.LVL159:
 1180              	.L64:
 206:Middlewares/lvgl/src/extra/widgets/tabview/../../../../src/misc/lv_mem.h ****         *d8 = *s8;
 1181              		.loc 3 206 10 is_stmt 1 view .LVU312
 1182 0062 002B     		cmp	r3, #0
 1183 0064 F8D1     		bne	.L65
ARM GAS  /tmp/ccQ1IU3X.s 			page 38


 211:Middlewares/lvgl/src/extra/widgets/tabview/../../../../src/misc/lv_mem.h ****     }
 212:Middlewares/lvgl/src/extra/widgets/tabview/../../../../src/misc/lv_mem.h **** 
 213:Middlewares/lvgl/src/extra/widgets/tabview/../../../../src/misc/lv_mem.h ****     return dst;
 1184              		.loc 3 213 5 view .LVU313
 1185              	.LVL160:
 1186              		.loc 3 213 5 is_stmt 0 view .LVU314
 1187              	.LBE24:
 1188              	.LBE23:
  82:Middlewares/lvgl/src/extra/widgets/tabview/lv_tabview.c ****         strcpy((char *)new_map[tab_id - 1], name);
 1189              		.loc 1 82 9 is_stmt 1 view .LVU315
  82:Middlewares/lvgl/src/extra/widgets/tabview/lv_tabview.c ****         strcpy((char *)new_map[tab_id - 1], name);
 1190              		.loc 1 82 44 is_stmt 0 view .LVU316
 1191 0066 4846     		mov	r0, r9
 1192 0068 FFF7FEFF 		bl	strlen
 1193              	.LVL161:
  82:Middlewares/lvgl/src/extra/widgets/tabview/lv_tabview.c ****         strcpy((char *)new_map[tab_id - 1], name);
 1194              		.loc 1 82 16 view .LVU317
 1195 006c 06F1804B 		add	fp, r6, #1073741824
 1196 0070 0BF1FF3B 		add	fp, fp, #-1
  82:Middlewares/lvgl/src/extra/widgets/tabview/lv_tabview.c ****         strcpy((char *)new_map[tab_id - 1], name);
 1197              		.loc 1 82 31 view .LVU318
 1198 0074 0130     		adds	r0, r0, #1
 1199 0076 FFF7FEFF 		bl	lv_mem_alloc
 1200              	.LVL162:
  82:Middlewares/lvgl/src/extra/widgets/tabview/lv_tabview.c ****         strcpy((char *)new_map[tab_id - 1], name);
 1201              		.loc 1 82 29 view .LVU319
 1202 007a 45F82B00 		str	r0, [r5, fp, lsl #2]
  83:Middlewares/lvgl/src/extra/widgets/tabview/lv_tabview.c ****         new_map[tab_id] = "";
 1203              		.loc 1 83 9 is_stmt 1 view .LVU320
 1204 007e 4946     		mov	r1, r9
 1205 0080 FFF7FEFF 		bl	strcpy
 1206              	.LVL163:
  84:Middlewares/lvgl/src/extra/widgets/tabview/lv_tabview.c ****     }
 1207              		.loc 1 84 9 view .LVU321
  84:Middlewares/lvgl/src/extra/widgets/tabview/lv_tabview.c ****     }
 1208              		.loc 1 84 25 is_stmt 0 view .LVU322
 1209 0084 2F4B     		ldr	r3, .L73
 1210 0086 45F82630 		str	r3, [r5, r6, lsl #2]
 1211              	.LVL164:
 1212              	.L66:
 101:Middlewares/lvgl/src/extra/widgets/tabview/lv_tabview.c ****     lv_btnmatrix_set_map(btns, (const char **)new_map);
 1213              		.loc 1 101 5 is_stmt 1 view .LVU323
 101:Middlewares/lvgl/src/extra/widgets/tabview/lv_tabview.c ****     lv_btnmatrix_set_map(btns, (const char **)new_map);
 1214              		.loc 1 101 18 is_stmt 0 view .LVU324
 1215 008a 6562     		str	r5, [r4, #36]
 102:Middlewares/lvgl/src/extra/widgets/tabview/lv_tabview.c ****     lv_mem_free(old_map);
 1216              		.loc 1 102 5 is_stmt 1 view .LVU325
 1217 008c 2946     		mov	r1, r5
 1218 008e 3846     		mov	r0, r7
 1219 0090 FFF7FEFF 		bl	lv_btnmatrix_set_map
 1220              	.LVL165:
 103:Middlewares/lvgl/src/extra/widgets/tabview/lv_tabview.c **** 
 1221              		.loc 1 103 5 view .LVU326
 1222 0094 5046     		mov	r0, r10
 1223 0096 FFF7FEFF 		bl	lv_mem_free
 1224              	.LVL166:
 105:Middlewares/lvgl/src/extra/widgets/tabview/lv_tabview.c **** 
ARM GAS  /tmp/ccQ1IU3X.s 			page 39


 1225              		.loc 1 105 5 view .LVU327
 1226 009a 4FF4A871 		mov	r1, #336
 1227 009e 3846     		mov	r0, r7
 1228 00a0 FFF7FEFF 		bl	lv_btnmatrix_set_btn_ctrl_all
 1229              	.LVL167:
 107:Middlewares/lvgl/src/extra/widgets/tabview/lv_tabview.c ****     if(tabview->tab_cnt == 1) {
 1230              		.loc 1 107 5 view .LVU328
 107:Middlewares/lvgl/src/extra/widgets/tabview/lv_tabview.c ****     if(tabview->tab_cnt == 1) {
 1231              		.loc 1 107 12 is_stmt 0 view .LVU329
 1232 00a4 238D     		ldrh	r3, [r4, #40]
 107:Middlewares/lvgl/src/extra/widgets/tabview/lv_tabview.c ****     if(tabview->tab_cnt == 1) {
 1233              		.loc 1 107 21 view .LVU330
 1234 00a6 0133     		adds	r3, r3, #1
 1235 00a8 9BB2     		uxth	r3, r3
 1236 00aa 2385     		strh	r3, [r4, #40]	@ movhi
 108:Middlewares/lvgl/src/extra/widgets/tabview/lv_tabview.c ****         lv_tabview_set_act(obj, 0, LV_ANIM_OFF);
 1237              		.loc 1 108 5 is_stmt 1 view .LVU331
 108:Middlewares/lvgl/src/extra/widgets/tabview/lv_tabview.c ****         lv_tabview_set_act(obj, 0, LV_ANIM_OFF);
 1238              		.loc 1 108 7 is_stmt 0 view .LVU332
 1239 00ac 012B     		cmp	r3, #1
 1240 00ae 42D0     		beq	.L72
 1241              	.L70:
 112:Middlewares/lvgl/src/extra/widgets/tabview/lv_tabview.c **** 
 1242              		.loc 1 112 5 is_stmt 1 view .LVU333
 1243 00b0 8022     		movs	r2, #128
 1244 00b2 618D     		ldrh	r1, [r4, #42]
 1245 00b4 3846     		mov	r0, r7
 1246 00b6 FFF7FEFF 		bl	lv_btnmatrix_set_btn_ctrl
 1247              	.LVL168:
 114:Middlewares/lvgl/src/extra/widgets/tabview/lv_tabview.c **** }
 1248              		.loc 1 114 5 view .LVU334
 115:Middlewares/lvgl/src/extra/widgets/tabview/lv_tabview.c **** 
 1249              		.loc 1 115 1 is_stmt 0 view .LVU335
 1250 00ba 4046     		mov	r0, r8
 1251 00bc BDE8F88F 		pop	{r3, r4, r5, r6, r7, r8, r9, r10, fp, pc}
 1252              	.LVL169:
 1253              	.L63:
  88:Middlewares/lvgl/src/extra/widgets/tabview/lv_tabview.c ****         lv_memcpy_small(new_map, old_map, sizeof(const char *) * (tab_id - 1) * 2);
 1254              		.loc 1 88 9 is_stmt 1 view .LVU336
  88:Middlewares/lvgl/src/extra/widgets/tabview/lv_tabview.c ****         lv_memcpy_small(new_map, old_map, sizeof(const char *) * (tab_id - 1) * 2);
 1255              		.loc 1 88 45 is_stmt 0 view .LVU337
 1256 00c0 4FEAC60B 		lsl	fp, r6, #3
  88:Middlewares/lvgl/src/extra/widgets/tabview/lv_tabview.c ****         lv_memcpy_small(new_map, old_map, sizeof(const char *) * (tab_id - 1) * 2);
 1257              		.loc 1 88 19 view .LVU338
 1258 00c4 5846     		mov	r0, fp
 1259              	.LVL170:
  88:Middlewares/lvgl/src/extra/widgets/tabview/lv_tabview.c ****         lv_memcpy_small(new_map, old_map, sizeof(const char *) * (tab_id - 1) * 2);
 1260              		.loc 1 88 19 view .LVU339
 1261 00c6 FFF7FEFF 		bl	lv_mem_alloc
 1262              	.LVL171:
 1263 00ca 0546     		mov	r5, r0
 1264              	.LVL172:
  89:Middlewares/lvgl/src/extra/widgets/tabview/lv_tabview.c ****         if(tabview->tab_cnt == 0) {
 1265              		.loc 1 89 9 is_stmt 1 view .LVU340
  89:Middlewares/lvgl/src/extra/widgets/tabview/lv_tabview.c ****         if(tabview->tab_cnt == 0) {
 1266              		.loc 1 89 74 is_stmt 0 view .LVU341
 1267 00cc 731E     		subs	r3, r6, #1
ARM GAS  /tmp/ccQ1IU3X.s 			page 40


  89:Middlewares/lvgl/src/extra/widgets/tabview/lv_tabview.c ****         if(tabview->tab_cnt == 0) {
 1268              		.loc 1 89 79 view .LVU342
 1269 00ce DB00     		lsls	r3, r3, #3
 1270              	.LVL173:
 1271              	.LBB25:
 1272              	.LBI25:
 201:Middlewares/lvgl/src/extra/widgets/tabview/../../../../src/misc/lv_mem.h **** {
 1273              		.loc 3 201 44 is_stmt 1 view .LVU343
 1274              	.LBB26:
 203:Middlewares/lvgl/src/extra/widgets/tabview/../../../../src/misc/lv_mem.h ****     const uint8_t * s8 = (const uint8_t *)src;
 1275              		.loc 3 203 5 view .LVU344
 204:Middlewares/lvgl/src/extra/widgets/tabview/../../../../src/misc/lv_mem.h **** 
 1276              		.loc 3 204 5 view .LVU345
 206:Middlewares/lvgl/src/extra/widgets/tabview/../../../../src/misc/lv_mem.h ****         *d8 = *s8;
 1277              		.loc 3 206 5 view .LVU346
 204:Middlewares/lvgl/src/extra/widgets/tabview/../../../../src/misc/lv_mem.h **** 
 1278              		.loc 3 204 21 is_stmt 0 view .LVU347
 1279 00d0 5146     		mov	r1, r10
 203:Middlewares/lvgl/src/extra/widgets/tabview/../../../../src/misc/lv_mem.h ****     const uint8_t * s8 = (const uint8_t *)src;
 1280              		.loc 3 203 15 view .LVU348
 1281 00d2 0246     		mov	r2, r0
 206:Middlewares/lvgl/src/extra/widgets/tabview/../../../../src/misc/lv_mem.h ****         *d8 = *s8;
 1282              		.loc 3 206 10 view .LVU349
 1283 00d4 04E0     		b	.L67
 1284              	.LVL174:
 1285              	.L68:
 207:Middlewares/lvgl/src/extra/widgets/tabview/../../../../src/misc/lv_mem.h ****         d8++;
 1286              		.loc 3 207 9 is_stmt 1 view .LVU350
 207:Middlewares/lvgl/src/extra/widgets/tabview/../../../../src/misc/lv_mem.h ****         d8++;
 1287              		.loc 3 207 15 is_stmt 0 view .LVU351
 1288 00d6 11F8010B 		ldrb	r0, [r1], #1	@ zero_extendqisi2
 1289              	.LVL175:
 207:Middlewares/lvgl/src/extra/widgets/tabview/../../../../src/misc/lv_mem.h ****         d8++;
 1290              		.loc 3 207 13 view .LVU352
 1291 00da 02F8010B 		strb	r0, [r2], #1
 1292              	.LVL176:
 208:Middlewares/lvgl/src/extra/widgets/tabview/../../../../src/misc/lv_mem.h ****         s8++;
 1293              		.loc 3 208 9 is_stmt 1 view .LVU353
 209:Middlewares/lvgl/src/extra/widgets/tabview/../../../../src/misc/lv_mem.h ****         len--;
 1294              		.loc 3 209 9 view .LVU354
 210:Middlewares/lvgl/src/extra/widgets/tabview/../../../../src/misc/lv_mem.h ****     }
 1295              		.loc 3 210 9 view .LVU355
 210:Middlewares/lvgl/src/extra/widgets/tabview/../../../../src/misc/lv_mem.h ****     }
 1296              		.loc 3 210 12 is_stmt 0 view .LVU356
 1297 00de 013B     		subs	r3, r3, #1
 1298              	.LVL177:
 1299              	.L67:
 206:Middlewares/lvgl/src/extra/widgets/tabview/../../../../src/misc/lv_mem.h ****         *d8 = *s8;
 1300              		.loc 3 206 10 is_stmt 1 view .LVU357
 1301 00e0 002B     		cmp	r3, #0
 1302 00e2 F8D1     		bne	.L68
 1303              		.loc 3 213 5 view .LVU358
 1304              	.LVL178:
 1305              		.loc 3 213 5 is_stmt 0 view .LVU359
 1306              	.LBE26:
 1307              	.LBE25:
  90:Middlewares/lvgl/src/extra/widgets/tabview/lv_tabview.c ****             new_map[0] = lv_mem_alloc(strlen(name) + 1);
ARM GAS  /tmp/ccQ1IU3X.s 			page 41


 1308              		.loc 1 90 9 is_stmt 1 view .LVU360
  90:Middlewares/lvgl/src/extra/widgets/tabview/lv_tabview.c ****             new_map[0] = lv_mem_alloc(strlen(name) + 1);
 1309              		.loc 1 90 19 is_stmt 0 view .LVU361
 1310 00e4 238D     		ldrh	r3, [r4, #40]
  90:Middlewares/lvgl/src/extra/widgets/tabview/lv_tabview.c ****             new_map[0] = lv_mem_alloc(strlen(name) + 1);
 1311              		.loc 1 90 11 view .LVU362
 1312 00e6 63B9     		cbnz	r3, .L69
  91:Middlewares/lvgl/src/extra/widgets/tabview/lv_tabview.c ****             strcpy((char *)new_map[0], name);
 1313              		.loc 1 91 13 is_stmt 1 view .LVU363
  91:Middlewares/lvgl/src/extra/widgets/tabview/lv_tabview.c ****             strcpy((char *)new_map[0], name);
 1314              		.loc 1 91 39 is_stmt 0 view .LVU364
 1315 00e8 4846     		mov	r0, r9
 1316 00ea FFF7FEFF 		bl	strlen
 1317              	.LVL179:
  91:Middlewares/lvgl/src/extra/widgets/tabview/lv_tabview.c ****             strcpy((char *)new_map[0], name);
 1318              		.loc 1 91 26 view .LVU365
 1319 00ee 0130     		adds	r0, r0, #1
 1320 00f0 FFF7FEFF 		bl	lv_mem_alloc
 1321              	.LVL180:
  91:Middlewares/lvgl/src/extra/widgets/tabview/lv_tabview.c ****             strcpy((char *)new_map[0], name);
 1322              		.loc 1 91 24 view .LVU366
 1323 00f4 2860     		str	r0, [r5]
  92:Middlewares/lvgl/src/extra/widgets/tabview/lv_tabview.c ****             new_map[1] = "";
 1324              		.loc 1 92 13 is_stmt 1 view .LVU367
 1325 00f6 4946     		mov	r1, r9
 1326 00f8 FFF7FEFF 		bl	strcpy
 1327              	.LVL181:
  93:Middlewares/lvgl/src/extra/widgets/tabview/lv_tabview.c ****         } else {
 1328              		.loc 1 93 13 view .LVU368
  93:Middlewares/lvgl/src/extra/widgets/tabview/lv_tabview.c ****         } else {
 1329              		.loc 1 93 24 is_stmt 0 view .LVU369
 1330 00fc 114B     		ldr	r3, .L73
 1331 00fe 6B60     		str	r3, [r5, #4]
 1332 0100 C3E7     		b	.L66
 1333              	.L69:
  95:Middlewares/lvgl/src/extra/widgets/tabview/lv_tabview.c ****             new_map[tab_id * 2 - 2] = lv_mem_alloc(strlen(name) + 1);
 1334              		.loc 1 95 13 is_stmt 1 view .LVU370
  95:Middlewares/lvgl/src/extra/widgets/tabview/lv_tabview.c ****             new_map[tab_id * 2 - 2] = lv_mem_alloc(strlen(name) + 1);
 1335              		.loc 1 95 20 is_stmt 0 view .LVU371
 1336 0102 ABF10C03 		sub	r3, fp, #12
  95:Middlewares/lvgl/src/extra/widgets/tabview/lv_tabview.c ****             new_map[tab_id * 2 - 2] = lv_mem_alloc(strlen(name) + 1);
 1337              		.loc 1 95 37 view .LVU372
 1338 0106 104A     		ldr	r2, .L73+4
 1339 0108 EA50     		str	r2, [r5, r3]
  96:Middlewares/lvgl/src/extra/widgets/tabview/lv_tabview.c ****             new_map[tab_id * 2 - 1] = "";
 1340              		.loc 1 96 13 is_stmt 1 view .LVU373
  96:Middlewares/lvgl/src/extra/widgets/tabview/lv_tabview.c ****             new_map[tab_id * 2 - 1] = "";
 1341              		.loc 1 96 52 is_stmt 0 view .LVU374
 1342 010a 4846     		mov	r0, r9
 1343 010c FFF7FEFF 		bl	strlen
 1344              	.LVL182:
  96:Middlewares/lvgl/src/extra/widgets/tabview/lv_tabview.c ****             new_map[tab_id * 2 - 1] = "";
 1345              		.loc 1 96 20 view .LVU375
 1346 0110 06F10056 		add	r6, r6, #536870912
 1347              	.LVL183:
  96:Middlewares/lvgl/src/extra/widgets/tabview/lv_tabview.c ****             new_map[tab_id * 2 - 1] = "";
 1348              		.loc 1 96 20 view .LVU376
ARM GAS  /tmp/ccQ1IU3X.s 			page 42


 1349 0114 013E     		subs	r6, r6, #1
 1350              	.LVL184:
  96:Middlewares/lvgl/src/extra/widgets/tabview/lv_tabview.c ****             new_map[tab_id * 2 - 1] = "";
 1351              		.loc 1 96 39 view .LVU377
 1352 0116 0130     		adds	r0, r0, #1
 1353 0118 FFF7FEFF 		bl	lv_mem_alloc
 1354              	.LVL185:
  96:Middlewares/lvgl/src/extra/widgets/tabview/lv_tabview.c ****             new_map[tab_id * 2 - 1] = "";
 1355              		.loc 1 96 37 view .LVU378
 1356 011c 45F83600 		str	r0, [r5, r6, lsl #3]
  97:Middlewares/lvgl/src/extra/widgets/tabview/lv_tabview.c ****             strcpy((char *)new_map[(tab_id * 2) - 2], name);
 1357              		.loc 1 97 13 is_stmt 1 view .LVU379
  97:Middlewares/lvgl/src/extra/widgets/tabview/lv_tabview.c ****             strcpy((char *)new_map[(tab_id * 2) - 2], name);
 1358              		.loc 1 97 20 is_stmt 0 view .LVU380
 1359 0120 ABF1040B 		sub	fp, fp, #4
  97:Middlewares/lvgl/src/extra/widgets/tabview/lv_tabview.c ****             strcpy((char *)new_map[(tab_id * 2) - 2], name);
 1360              		.loc 1 97 37 view .LVU381
 1361 0124 074B     		ldr	r3, .L73
 1362 0126 45F80B30 		str	r3, [r5, fp]
  98:Middlewares/lvgl/src/extra/widgets/tabview/lv_tabview.c ****         }
 1363              		.loc 1 98 13 is_stmt 1 view .LVU382
 1364 012a 4946     		mov	r1, r9
 1365 012c 55F83600 		ldr	r0, [r5, r6, lsl #3]
 1366 0130 FFF7FEFF 		bl	strcpy
 1367              	.LVL186:
 1368 0134 A9E7     		b	.L66
 1369              	.LVL187:
 1370              	.L72:
 109:Middlewares/lvgl/src/extra/widgets/tabview/lv_tabview.c ****     }
 1371              		.loc 1 109 9 view .LVU383
 1372 0136 0022     		movs	r2, #0
 1373 0138 1146     		mov	r1, r2
 1374 013a 2046     		mov	r0, r4
 1375 013c FFF7FEFF 		bl	lv_tabview_set_act
 1376              	.LVL188:
 1377 0140 B6E7     		b	.L70
 1378              	.L74:
 1379 0142 00BF     		.align	2
 1380              	.L73:
 1381 0144 00000000 		.word	.LC0
 1382 0148 00000000 		.word	.LC1
 1383              		.cfi_endproc
 1384              	.LFE185:
 1386              		.global	lv_tabview_class
 1387              		.section	.bss.tabpos_create,"aw",%nobits
 1388              		.set	.LANCHOR0,. + 0
 1391              	tabpos_create:
 1392 0000 00       		.space	1
 1393              		.section	.bss.tabsize_create,"aw",%nobits
 1394              		.align	1
 1395              		.set	.LANCHOR1,. + 0
 1398              	tabsize_create:
 1399 0000 0000     		.space	2
 1400              		.section	.rodata.lv_tabview_class,"a"
 1401              		.align	2
 1402              		.set	.LANCHOR2,. + 0
 1405              	lv_tabview_class:
ARM GAS  /tmp/ccQ1IU3X.s 			page 43


 1406 0000 00000000 		.word	lv_obj_class
 1407 0004 00000000 		.word	lv_tabview_constructor
 1408 0008 00000000 		.word	lv_tabview_destructor
 1409 000c 00000000 		.space	4
 1410 0010 00000000 		.word	lv_tabview_event
 1411 0014 6420     		.short	8292
 1412 0016 6420     		.short	8292
 1413 0018 00       		.byte	0
 1414 0019 03       		.byte	3
 1415 001a 00       		.byte	0
 1416 001b 00       		.space	1
 1417              		.text
 1418              	.Letext0:
 1419              		.file 4 "/home/akinya/gcc-arm-none-eabi/arm-none-eabi/include/machine/_default_types.h"
 1420              		.file 5 "/home/akinya/gcc-arm-none-eabi/arm-none-eabi/include/sys/_stdint.h"
 1421              		.file 6 "/home/akinya/gcc-arm-none-eabi/lib/gcc/arm-none-eabi/10.2.1/include/stddef.h"
 1422              		.file 7 "Middlewares/lvgl/src/extra/widgets/tabview/../../../../src/misc/lv_types.h"
 1423              		.file 8 "Middlewares/lvgl/src/extra/widgets/tabview/../../../../src/misc/lv_ll.h"
 1424              		.file 9 "Middlewares/lvgl/src/extra/widgets/tabview/../../../../src/hal/../misc/lv_color.h"
 1425              		.file 10 "Middlewares/lvgl/src/extra/widgets/tabview/../../../../src/hal/../misc/lv_area.h"
 1426              		.file 11 "Middlewares/lvgl/src/extra/widgets/tabview/../../../../src/core/lv_obj.h"
 1427              		.file 12 "Middlewares/lvgl/src/extra/widgets/tabview/../../../../src/core/lv_group.h"
 1428              		.file 13 "Middlewares/lvgl/src/extra/widgets/tabview/../../../../src/core/../misc/lv_anim.h"
 1429              		.file 14 "Middlewares/lvgl/src/extra/widgets/tabview/../../../../src/core/../misc/lv_bidi.h"
 1430              		.file 15 "Middlewares/lvgl/src/extra/widgets/tabview/../../../../src/core/../misc/lv_style.h"
 1431              		.file 16 "Middlewares/lvgl/src/extra/widgets/tabview/../../../../src/core/lv_obj_scroll.h"
 1432              		.file 17 "Middlewares/lvgl/src/extra/widgets/tabview/../../../../src/core/lv_obj_style.h"
 1433              		.file 18 "Middlewares/lvgl/src/extra/widgets/tabview/../../../../src/core/lv_obj_class.h"
 1434              		.file 19 "Middlewares/lvgl/src/extra/widgets/tabview/../../../../src/core/lv_event.h"
 1435              		.file 20 "Middlewares/lvgl/src/extra/widgets/tabview/../../../../src/widgets/lv_bar.h"
 1436              		.file 21 "Middlewares/lvgl/src/extra/widgets/tabview/../../../../src/widgets/lv_btnmatrix.h"
 1437              		.file 22 "Middlewares/lvgl/src/extra/widgets/tabview/../../../../src/extra/widgets/list/../../layo
 1438              		.file 23 "Middlewares/lvgl/src/extra/widgets/tabview/../../../../src/extra/widgets/imgbtn/lv_imgbt
 1439              		.file 24 "Middlewares/lvgl/src/extra/widgets/tabview/lv_tabview.h"
 1440              		.file 25 "Middlewares/lvgl/src/extra/widgets/tabview/../../../../src/core/lv_obj_pos.h"
 1441              		.file 26 "Middlewares/lvgl/src/extra/widgets/tabview/../../../../src/core/lv_obj_tree.h"
 1442              		.file 27 "/home/akinya/gcc-arm-none-eabi/arm-none-eabi/include/string.h"
ARM GAS  /tmp/ccQ1IU3X.s 			page 44

