ARM GAS  /tmp/ccpfFGqI.s 			page 1


   1              		.cpu cortex-m4
   2              		.eabi_attribute 27, 1
   3              		.eabi_attribute 28, 1
   4              		.eabi_attribute 20, 1
   5              		.eabi_attribute 21, 1
   6              		.eabi_attribute 23, 3
   7              		.eabi_attribute 24, 1
   8              		.eabi_attribute 25, 1
   9              		.eabi_attribute 26, 1
  10              		.eabi_attribute 30, 1
  11              		.eabi_attribute 34, 1
  12              		.eabi_attribute 18, 4
  13              		.file	"dac.c"
  14              		.text
  15              	.Ltext0:
  16              		.cfi_sections	.debug_frame
  17              		.section	.text.MX_DAC_Init,"ax",%progbits
  18              		.align	1
  19              		.global	MX_DAC_Init
  20              		.arch armv7e-m
  21              		.syntax unified
  22              		.thumb
  23              		.thumb_func
  24              		.fpu fpv4-sp-d16
  26              	MX_DAC_Init:
  27              	.LFB235:
  28              		.file 1 "Core/Src/dac.c"
   1:Core/Src/dac.c **** /**
   2:Core/Src/dac.c ****   ******************************************************************************
   3:Core/Src/dac.c ****   * @file    dac.c
   4:Core/Src/dac.c ****   * @brief   This file provides code for the configuration
   5:Core/Src/dac.c ****   *          of the DAC instances.
   6:Core/Src/dac.c ****   ******************************************************************************
   7:Core/Src/dac.c ****   * @attention
   8:Core/Src/dac.c ****   *
   9:Core/Src/dac.c ****   * <h2><center>&copy; Copyright (c) 2021 STMicroelectronics.
  10:Core/Src/dac.c ****   * All rights reserved.</center></h2>
  11:Core/Src/dac.c ****   *
  12:Core/Src/dac.c ****   * This software component is licensed by ST under Ultimate Liberty license
  13:Core/Src/dac.c ****   * SLA0044, the "License"; You may not use this file except in compliance with
  14:Core/Src/dac.c ****   * the License. You may obtain a copy of the License at:
  15:Core/Src/dac.c ****   *                             www.st.com/SLA0044
  16:Core/Src/dac.c ****   *
  17:Core/Src/dac.c ****   ******************************************************************************
  18:Core/Src/dac.c ****   */
  19:Core/Src/dac.c **** 
  20:Core/Src/dac.c **** /* Includes ------------------------------------------------------------------*/
  21:Core/Src/dac.c **** #include "dac.h"
  22:Core/Src/dac.c **** 
  23:Core/Src/dac.c **** /* USER CODE BEGIN 0 */
  24:Core/Src/dac.c **** 
  25:Core/Src/dac.c **** /* USER CODE END 0 */
  26:Core/Src/dac.c **** 
  27:Core/Src/dac.c **** DAC_HandleTypeDef hdac;
  28:Core/Src/dac.c **** DMA_HandleTypeDef hdma_dac1;
  29:Core/Src/dac.c **** 
  30:Core/Src/dac.c **** /* DAC init function */
ARM GAS  /tmp/ccpfFGqI.s 			page 2


  31:Core/Src/dac.c **** void MX_DAC_Init(void)
  32:Core/Src/dac.c **** {
  29              		.loc 1 32 1 view -0
  30              		.cfi_startproc
  31              		@ args = 0, pretend = 0, frame = 8
  32              		@ frame_needed = 0, uses_anonymous_args = 0
  33 0000 00B5     		push	{lr}
  34              	.LCFI0:
  35              		.cfi_def_cfa_offset 4
  36              		.cfi_offset 14, -4
  37 0002 83B0     		sub	sp, sp, #12
  38              	.LCFI1:
  39              		.cfi_def_cfa_offset 16
  33:Core/Src/dac.c **** 
  34:Core/Src/dac.c ****   /* USER CODE BEGIN DAC_Init 0 */
  35:Core/Src/dac.c **** 
  36:Core/Src/dac.c ****   /* USER CODE END DAC_Init 0 */
  37:Core/Src/dac.c **** 
  38:Core/Src/dac.c ****   DAC_ChannelConfTypeDef sConfig = {0};
  40              		.loc 1 38 3 view .LVU1
  41              		.loc 1 38 26 is_stmt 0 view .LVU2
  42 0004 0023     		movs	r3, #0
  43 0006 0093     		str	r3, [sp]
  44 0008 0193     		str	r3, [sp, #4]
  39:Core/Src/dac.c **** 
  40:Core/Src/dac.c ****   /* USER CODE BEGIN DAC_Init 1 */
  41:Core/Src/dac.c **** 
  42:Core/Src/dac.c ****   /* USER CODE END DAC_Init 1 */
  43:Core/Src/dac.c ****   /** DAC Initialization
  44:Core/Src/dac.c ****   */
  45:Core/Src/dac.c ****   hdac.Instance = DAC;
  45              		.loc 1 45 3 is_stmt 1 view .LVU3
  46              		.loc 1 45 17 is_stmt 0 view .LVU4
  47 000a 0C48     		ldr	r0, .L7
  48 000c 0C4B     		ldr	r3, .L7+4
  49 000e 0360     		str	r3, [r0]
  46:Core/Src/dac.c ****   if (HAL_DAC_Init(&hdac) != HAL_OK)
  50              		.loc 1 46 3 is_stmt 1 view .LVU5
  51              		.loc 1 46 7 is_stmt 0 view .LVU6
  52 0010 FFF7FEFF 		bl	HAL_DAC_Init
  53              	.LVL0:
  54              		.loc 1 46 6 view .LVU7
  55 0014 60B9     		cbnz	r0, .L5
  56              	.L2:
  47:Core/Src/dac.c ****   {
  48:Core/Src/dac.c ****     Error_Handler();
  49:Core/Src/dac.c ****   }
  50:Core/Src/dac.c ****   /** DAC channel OUT1 config
  51:Core/Src/dac.c ****   */
  52:Core/Src/dac.c ****   sConfig.DAC_Trigger = DAC_TRIGGER_T4_TRGO;
  57              		.loc 1 52 3 is_stmt 1 view .LVU8
  58              		.loc 1 52 23 is_stmt 0 view .LVU9
  59 0016 2C23     		movs	r3, #44
  60 0018 0093     		str	r3, [sp]
  53:Core/Src/dac.c ****   sConfig.DAC_OutputBuffer = DAC_OUTPUTBUFFER_DISABLE;
  61              		.loc 1 53 3 is_stmt 1 view .LVU10
  62              		.loc 1 53 28 is_stmt 0 view .LVU11
ARM GAS  /tmp/ccpfFGqI.s 			page 3


  63 001a 0223     		movs	r3, #2
  64 001c 0193     		str	r3, [sp, #4]
  54:Core/Src/dac.c ****   if (HAL_DAC_ConfigChannel(&hdac, &sConfig, DAC_CHANNEL_1) != HAL_OK)
  65              		.loc 1 54 3 is_stmt 1 view .LVU12
  66              		.loc 1 54 7 is_stmt 0 view .LVU13
  67 001e 0022     		movs	r2, #0
  68 0020 6946     		mov	r1, sp
  69 0022 0648     		ldr	r0, .L7
  70 0024 FFF7FEFF 		bl	HAL_DAC_ConfigChannel
  71              	.LVL1:
  72              		.loc 1 54 6 view .LVU14
  73 0028 28B9     		cbnz	r0, .L6
  74              	.L1:
  55:Core/Src/dac.c ****   {
  56:Core/Src/dac.c ****     Error_Handler();
  57:Core/Src/dac.c ****   }
  58:Core/Src/dac.c ****   /* USER CODE BEGIN DAC_Init 2 */
  59:Core/Src/dac.c **** 
  60:Core/Src/dac.c ****   /* USER CODE END DAC_Init 2 */
  61:Core/Src/dac.c **** 
  62:Core/Src/dac.c **** }
  75              		.loc 1 62 1 view .LVU15
  76 002a 03B0     		add	sp, sp, #12
  77              	.LCFI2:
  78              		.cfi_remember_state
  79              		.cfi_def_cfa_offset 4
  80              		@ sp needed
  81 002c 5DF804FB 		ldr	pc, [sp], #4
  82              	.L5:
  83              	.LCFI3:
  84              		.cfi_restore_state
  48:Core/Src/dac.c ****   }
  85              		.loc 1 48 5 is_stmt 1 view .LVU16
  86 0030 FFF7FEFF 		bl	Error_Handler
  87              	.LVL2:
  88 0034 EFE7     		b	.L2
  89              	.L6:
  56:Core/Src/dac.c ****   }
  90              		.loc 1 56 5 view .LVU17
  91 0036 FFF7FEFF 		bl	Error_Handler
  92              	.LVL3:
  93              		.loc 1 62 1 is_stmt 0 view .LVU18
  94 003a F6E7     		b	.L1
  95              	.L8:
  96              		.align	2
  97              	.L7:
  98 003c 00000000 		.word	.LANCHOR0
  99 0040 00740040 		.word	1073771520
 100              		.cfi_endproc
 101              	.LFE235:
 103              		.section	.text.HAL_DAC_MspInit,"ax",%progbits
 104              		.align	1
 105              		.global	HAL_DAC_MspInit
 106              		.syntax unified
 107              		.thumb
 108              		.thumb_func
 109              		.fpu fpv4-sp-d16
ARM GAS  /tmp/ccpfFGqI.s 			page 4


 111              	HAL_DAC_MspInit:
 112              	.LVL4:
 113              	.LFB236:
  63:Core/Src/dac.c **** 
  64:Core/Src/dac.c **** void HAL_DAC_MspInit(DAC_HandleTypeDef* dacHandle)
  65:Core/Src/dac.c **** {
 114              		.loc 1 65 1 is_stmt 1 view -0
 115              		.cfi_startproc
 116              		@ args = 0, pretend = 0, frame = 32
 117              		@ frame_needed = 0, uses_anonymous_args = 0
 118              		.loc 1 65 1 is_stmt 0 view .LVU20
 119 0000 30B5     		push	{r4, r5, lr}
 120              	.LCFI4:
 121              		.cfi_def_cfa_offset 12
 122              		.cfi_offset 4, -12
 123              		.cfi_offset 5, -8
 124              		.cfi_offset 14, -4
 125 0002 89B0     		sub	sp, sp, #36
 126              	.LCFI5:
 127              		.cfi_def_cfa_offset 48
  66:Core/Src/dac.c **** 
  67:Core/Src/dac.c ****   GPIO_InitTypeDef GPIO_InitStruct = {0};
 128              		.loc 1 67 3 is_stmt 1 view .LVU21
 129              		.loc 1 67 20 is_stmt 0 view .LVU22
 130 0004 0023     		movs	r3, #0
 131 0006 0393     		str	r3, [sp, #12]
 132 0008 0493     		str	r3, [sp, #16]
 133 000a 0593     		str	r3, [sp, #20]
 134 000c 0693     		str	r3, [sp, #24]
 135 000e 0793     		str	r3, [sp, #28]
  68:Core/Src/dac.c ****   if(dacHandle->Instance==DAC)
 136              		.loc 1 68 3 is_stmt 1 view .LVU23
 137              		.loc 1 68 15 is_stmt 0 view .LVU24
 138 0010 0268     		ldr	r2, [r0]
 139              		.loc 1 68 5 view .LVU25
 140 0012 234B     		ldr	r3, .L15
 141 0014 9A42     		cmp	r2, r3
 142 0016 01D0     		beq	.L13
 143              	.LVL5:
 144              	.L9:
  69:Core/Src/dac.c ****   {
  70:Core/Src/dac.c ****   /* USER CODE BEGIN DAC_MspInit 0 */
  71:Core/Src/dac.c **** 
  72:Core/Src/dac.c ****   /* USER CODE END DAC_MspInit 0 */
  73:Core/Src/dac.c ****     /* DAC clock enable */
  74:Core/Src/dac.c ****     __HAL_RCC_DAC_CLK_ENABLE();
  75:Core/Src/dac.c **** 
  76:Core/Src/dac.c ****     __HAL_RCC_GPIOA_CLK_ENABLE();
  77:Core/Src/dac.c ****     /**DAC GPIO Configuration
  78:Core/Src/dac.c ****     PA4     ------> DAC_OUT1
  79:Core/Src/dac.c ****     */
  80:Core/Src/dac.c ****     GPIO_InitStruct.Pin = GPIO_PIN_4;
  81:Core/Src/dac.c ****     GPIO_InitStruct.Mode = GPIO_MODE_ANALOG;
  82:Core/Src/dac.c ****     GPIO_InitStruct.Pull = GPIO_NOPULL;
  83:Core/Src/dac.c ****     HAL_GPIO_Init(GPIOA, &GPIO_InitStruct);
  84:Core/Src/dac.c **** 
  85:Core/Src/dac.c ****     /* DAC DMA Init */
ARM GAS  /tmp/ccpfFGqI.s 			page 5


  86:Core/Src/dac.c ****     /* DAC1 Init */
  87:Core/Src/dac.c ****     hdma_dac1.Instance = DMA1_Stream5;
  88:Core/Src/dac.c ****     hdma_dac1.Init.Channel = DMA_CHANNEL_7;
  89:Core/Src/dac.c ****     hdma_dac1.Init.Direction = DMA_MEMORY_TO_PERIPH;
  90:Core/Src/dac.c ****     hdma_dac1.Init.PeriphInc = DMA_PINC_DISABLE;
  91:Core/Src/dac.c ****     hdma_dac1.Init.MemInc = DMA_MINC_ENABLE;
  92:Core/Src/dac.c ****     hdma_dac1.Init.PeriphDataAlignment = DMA_PDATAALIGN_HALFWORD;
  93:Core/Src/dac.c ****     hdma_dac1.Init.MemDataAlignment = DMA_MDATAALIGN_HALFWORD;
  94:Core/Src/dac.c ****     hdma_dac1.Init.Mode = DMA_CIRCULAR;
  95:Core/Src/dac.c ****     hdma_dac1.Init.Priority = DMA_PRIORITY_LOW;
  96:Core/Src/dac.c ****     hdma_dac1.Init.FIFOMode = DMA_FIFOMODE_DISABLE;
  97:Core/Src/dac.c ****     if (HAL_DMA_Init(&hdma_dac1) != HAL_OK)
  98:Core/Src/dac.c ****     {
  99:Core/Src/dac.c ****       Error_Handler();
 100:Core/Src/dac.c ****     }
 101:Core/Src/dac.c **** 
 102:Core/Src/dac.c ****     __HAL_LINKDMA(dacHandle,DMA_Handle1,hdma_dac1);
 103:Core/Src/dac.c **** 
 104:Core/Src/dac.c ****   /* USER CODE BEGIN DAC_MspInit 1 */
 105:Core/Src/dac.c **** 
 106:Core/Src/dac.c ****   /* USER CODE END DAC_MspInit 1 */
 107:Core/Src/dac.c ****   }
 108:Core/Src/dac.c **** }
 145              		.loc 1 108 1 view .LVU26
 146 0018 09B0     		add	sp, sp, #36
 147              	.LCFI6:
 148              		.cfi_remember_state
 149              		.cfi_def_cfa_offset 12
 150              		@ sp needed
 151 001a 30BD     		pop	{r4, r5, pc}
 152              	.LVL6:
 153              	.L13:
 154              	.LCFI7:
 155              		.cfi_restore_state
 156              		.loc 1 108 1 view .LVU27
 157 001c 0446     		mov	r4, r0
  74:Core/Src/dac.c **** 
 158              		.loc 1 74 5 is_stmt 1 view .LVU28
 159              	.LBB2:
  74:Core/Src/dac.c **** 
 160              		.loc 1 74 5 view .LVU29
 161 001e 0025     		movs	r5, #0
 162 0020 0195     		str	r5, [sp, #4]
  74:Core/Src/dac.c **** 
 163              		.loc 1 74 5 view .LVU30
 164 0022 03F5E233 		add	r3, r3, #115712
 165 0026 1A6C     		ldr	r2, [r3, #64]
 166 0028 42F00052 		orr	r2, r2, #536870912
 167 002c 1A64     		str	r2, [r3, #64]
  74:Core/Src/dac.c **** 
 168              		.loc 1 74 5 view .LVU31
 169 002e 1A6C     		ldr	r2, [r3, #64]
 170 0030 02F00052 		and	r2, r2, #536870912
 171 0034 0192     		str	r2, [sp, #4]
  74:Core/Src/dac.c **** 
 172              		.loc 1 74 5 view .LVU32
 173 0036 019A     		ldr	r2, [sp, #4]
ARM GAS  /tmp/ccpfFGqI.s 			page 6


 174              	.LBE2:
  74:Core/Src/dac.c **** 
 175              		.loc 1 74 5 view .LVU33
  76:Core/Src/dac.c ****     /**DAC GPIO Configuration
 176              		.loc 1 76 5 view .LVU34
 177              	.LBB3:
  76:Core/Src/dac.c ****     /**DAC GPIO Configuration
 178              		.loc 1 76 5 view .LVU35
 179 0038 0295     		str	r5, [sp, #8]
  76:Core/Src/dac.c ****     /**DAC GPIO Configuration
 180              		.loc 1 76 5 view .LVU36
 181 003a 1A6B     		ldr	r2, [r3, #48]
 182 003c 42F00102 		orr	r2, r2, #1
 183 0040 1A63     		str	r2, [r3, #48]
  76:Core/Src/dac.c ****     /**DAC GPIO Configuration
 184              		.loc 1 76 5 view .LVU37
 185 0042 1B6B     		ldr	r3, [r3, #48]
 186 0044 03F00103 		and	r3, r3, #1
 187 0048 0293     		str	r3, [sp, #8]
  76:Core/Src/dac.c ****     /**DAC GPIO Configuration
 188              		.loc 1 76 5 view .LVU38
 189 004a 029B     		ldr	r3, [sp, #8]
 190              	.LBE3:
  76:Core/Src/dac.c ****     /**DAC GPIO Configuration
 191              		.loc 1 76 5 view .LVU39
  80:Core/Src/dac.c ****     GPIO_InitStruct.Mode = GPIO_MODE_ANALOG;
 192              		.loc 1 80 5 view .LVU40
  80:Core/Src/dac.c ****     GPIO_InitStruct.Mode = GPIO_MODE_ANALOG;
 193              		.loc 1 80 25 is_stmt 0 view .LVU41
 194 004c 1023     		movs	r3, #16
 195 004e 0393     		str	r3, [sp, #12]
  81:Core/Src/dac.c ****     GPIO_InitStruct.Pull = GPIO_NOPULL;
 196              		.loc 1 81 5 is_stmt 1 view .LVU42
  81:Core/Src/dac.c ****     GPIO_InitStruct.Pull = GPIO_NOPULL;
 197              		.loc 1 81 26 is_stmt 0 view .LVU43
 198 0050 0323     		movs	r3, #3
 199 0052 0493     		str	r3, [sp, #16]
  82:Core/Src/dac.c ****     HAL_GPIO_Init(GPIOA, &GPIO_InitStruct);
 200              		.loc 1 82 5 is_stmt 1 view .LVU44
  83:Core/Src/dac.c **** 
 201              		.loc 1 83 5 view .LVU45
 202 0054 03A9     		add	r1, sp, #12
 203 0056 1348     		ldr	r0, .L15+4
 204              	.LVL7:
  83:Core/Src/dac.c **** 
 205              		.loc 1 83 5 is_stmt 0 view .LVU46
 206 0058 FFF7FEFF 		bl	HAL_GPIO_Init
 207              	.LVL8:
  87:Core/Src/dac.c ****     hdma_dac1.Init.Channel = DMA_CHANNEL_7;
 208              		.loc 1 87 5 is_stmt 1 view .LVU47
  87:Core/Src/dac.c ****     hdma_dac1.Init.Channel = DMA_CHANNEL_7;
 209              		.loc 1 87 24 is_stmt 0 view .LVU48
 210 005c 1248     		ldr	r0, .L15+8
 211 005e 134B     		ldr	r3, .L15+12
 212 0060 0360     		str	r3, [r0]
  88:Core/Src/dac.c ****     hdma_dac1.Init.Direction = DMA_MEMORY_TO_PERIPH;
 213              		.loc 1 88 5 is_stmt 1 view .LVU49
ARM GAS  /tmp/ccpfFGqI.s 			page 7


  88:Core/Src/dac.c ****     hdma_dac1.Init.Direction = DMA_MEMORY_TO_PERIPH;
 214              		.loc 1 88 28 is_stmt 0 view .LVU50
 215 0062 4FF06063 		mov	r3, #234881024
 216 0066 4360     		str	r3, [r0, #4]
  89:Core/Src/dac.c ****     hdma_dac1.Init.PeriphInc = DMA_PINC_DISABLE;
 217              		.loc 1 89 5 is_stmt 1 view .LVU51
  89:Core/Src/dac.c ****     hdma_dac1.Init.PeriphInc = DMA_PINC_DISABLE;
 218              		.loc 1 89 30 is_stmt 0 view .LVU52
 219 0068 4023     		movs	r3, #64
 220 006a 8360     		str	r3, [r0, #8]
  90:Core/Src/dac.c ****     hdma_dac1.Init.MemInc = DMA_MINC_ENABLE;
 221              		.loc 1 90 5 is_stmt 1 view .LVU53
  90:Core/Src/dac.c ****     hdma_dac1.Init.MemInc = DMA_MINC_ENABLE;
 222              		.loc 1 90 30 is_stmt 0 view .LVU54
 223 006c C560     		str	r5, [r0, #12]
  91:Core/Src/dac.c ****     hdma_dac1.Init.PeriphDataAlignment = DMA_PDATAALIGN_HALFWORD;
 224              		.loc 1 91 5 is_stmt 1 view .LVU55
  91:Core/Src/dac.c ****     hdma_dac1.Init.PeriphDataAlignment = DMA_PDATAALIGN_HALFWORD;
 225              		.loc 1 91 27 is_stmt 0 view .LVU56
 226 006e 4FF48063 		mov	r3, #1024
 227 0072 0361     		str	r3, [r0, #16]
  92:Core/Src/dac.c ****     hdma_dac1.Init.MemDataAlignment = DMA_MDATAALIGN_HALFWORD;
 228              		.loc 1 92 5 is_stmt 1 view .LVU57
  92:Core/Src/dac.c ****     hdma_dac1.Init.MemDataAlignment = DMA_MDATAALIGN_HALFWORD;
 229              		.loc 1 92 40 is_stmt 0 view .LVU58
 230 0074 4FF40063 		mov	r3, #2048
 231 0078 4361     		str	r3, [r0, #20]
  93:Core/Src/dac.c ****     hdma_dac1.Init.Mode = DMA_CIRCULAR;
 232              		.loc 1 93 5 is_stmt 1 view .LVU59
  93:Core/Src/dac.c ****     hdma_dac1.Init.Mode = DMA_CIRCULAR;
 233              		.loc 1 93 37 is_stmt 0 view .LVU60
 234 007a 4FF40053 		mov	r3, #8192
 235 007e 8361     		str	r3, [r0, #24]
  94:Core/Src/dac.c ****     hdma_dac1.Init.Priority = DMA_PRIORITY_LOW;
 236              		.loc 1 94 5 is_stmt 1 view .LVU61
  94:Core/Src/dac.c ****     hdma_dac1.Init.Priority = DMA_PRIORITY_LOW;
 237              		.loc 1 94 25 is_stmt 0 view .LVU62
 238 0080 4FF48073 		mov	r3, #256
 239 0084 C361     		str	r3, [r0, #28]
  95:Core/Src/dac.c ****     hdma_dac1.Init.FIFOMode = DMA_FIFOMODE_DISABLE;
 240              		.loc 1 95 5 is_stmt 1 view .LVU63
  95:Core/Src/dac.c ****     hdma_dac1.Init.FIFOMode = DMA_FIFOMODE_DISABLE;
 241              		.loc 1 95 29 is_stmt 0 view .LVU64
 242 0086 0562     		str	r5, [r0, #32]
  96:Core/Src/dac.c ****     if (HAL_DMA_Init(&hdma_dac1) != HAL_OK)
 243              		.loc 1 96 5 is_stmt 1 view .LVU65
  96:Core/Src/dac.c ****     if (HAL_DMA_Init(&hdma_dac1) != HAL_OK)
 244              		.loc 1 96 29 is_stmt 0 view .LVU66
 245 0088 4562     		str	r5, [r0, #36]
  97:Core/Src/dac.c ****     {
 246              		.loc 1 97 5 is_stmt 1 view .LVU67
  97:Core/Src/dac.c ****     {
 247              		.loc 1 97 9 is_stmt 0 view .LVU68
 248 008a FFF7FEFF 		bl	HAL_DMA_Init
 249              	.LVL9:
  97:Core/Src/dac.c ****     {
 250              		.loc 1 97 8 view .LVU69
ARM GAS  /tmp/ccpfFGqI.s 			page 8


 251 008e 18B9     		cbnz	r0, .L14
 252              	.L11:
 102:Core/Src/dac.c **** 
 253              		.loc 1 102 5 is_stmt 1 view .LVU70
 102:Core/Src/dac.c **** 
 254              		.loc 1 102 5 view .LVU71
 255 0090 054B     		ldr	r3, .L15+8
 256 0092 A360     		str	r3, [r4, #8]
 102:Core/Src/dac.c **** 
 257              		.loc 1 102 5 view .LVU72
 258 0094 9C63     		str	r4, [r3, #56]
 102:Core/Src/dac.c **** 
 259              		.loc 1 102 5 view .LVU73
 260              		.loc 1 108 1 is_stmt 0 view .LVU74
 261 0096 BFE7     		b	.L9
 262              	.L14:
  99:Core/Src/dac.c ****     }
 263              		.loc 1 99 7 is_stmt 1 view .LVU75
 264 0098 FFF7FEFF 		bl	Error_Handler
 265              	.LVL10:
 266 009c F8E7     		b	.L11
 267              	.L16:
 268 009e 00BF     		.align	2
 269              	.L15:
 270 00a0 00740040 		.word	1073771520
 271 00a4 00000240 		.word	1073872896
 272 00a8 00000000 		.word	.LANCHOR1
 273 00ac 88600240 		.word	1073897608
 274              		.cfi_endproc
 275              	.LFE236:
 277              		.section	.text.HAL_DAC_MspDeInit,"ax",%progbits
 278              		.align	1
 279              		.global	HAL_DAC_MspDeInit
 280              		.syntax unified
 281              		.thumb
 282              		.thumb_func
 283              		.fpu fpv4-sp-d16
 285              	HAL_DAC_MspDeInit:
 286              	.LVL11:
 287              	.LFB237:
 109:Core/Src/dac.c **** 
 110:Core/Src/dac.c **** void HAL_DAC_MspDeInit(DAC_HandleTypeDef* dacHandle)
 111:Core/Src/dac.c **** {
 288              		.loc 1 111 1 view -0
 289              		.cfi_startproc
 290              		@ args = 0, pretend = 0, frame = 0
 291              		@ frame_needed = 0, uses_anonymous_args = 0
 112:Core/Src/dac.c **** 
 113:Core/Src/dac.c ****   if(dacHandle->Instance==DAC)
 292              		.loc 1 113 3 view .LVU77
 293              		.loc 1 113 15 is_stmt 0 view .LVU78
 294 0000 0268     		ldr	r2, [r0]
 295              		.loc 1 113 5 view .LVU79
 296 0002 094B     		ldr	r3, .L24
 297 0004 9A42     		cmp	r2, r3
 298 0006 00D0     		beq	.L23
 299 0008 7047     		bx	lr
ARM GAS  /tmp/ccpfFGqI.s 			page 9


 300              	.L23:
 111:Core/Src/dac.c **** 
 301              		.loc 1 111 1 view .LVU80
 302 000a 10B5     		push	{r4, lr}
 303              	.LCFI8:
 304              		.cfi_def_cfa_offset 8
 305              		.cfi_offset 4, -8
 306              		.cfi_offset 14, -4
 307 000c 0446     		mov	r4, r0
 114:Core/Src/dac.c ****   {
 115:Core/Src/dac.c ****   /* USER CODE BEGIN DAC_MspDeInit 0 */
 116:Core/Src/dac.c **** 
 117:Core/Src/dac.c ****   /* USER CODE END DAC_MspDeInit 0 */
 118:Core/Src/dac.c ****     /* Peripheral clock disable */
 119:Core/Src/dac.c ****     __HAL_RCC_DAC_CLK_DISABLE();
 308              		.loc 1 119 5 is_stmt 1 view .LVU81
 309 000e 074A     		ldr	r2, .L24+4
 310 0010 136C     		ldr	r3, [r2, #64]
 311 0012 23F00053 		bic	r3, r3, #536870912
 312 0016 1364     		str	r3, [r2, #64]
 120:Core/Src/dac.c **** 
 121:Core/Src/dac.c ****     /**DAC GPIO Configuration
 122:Core/Src/dac.c ****     PA4     ------> DAC_OUT1
 123:Core/Src/dac.c ****     */
 124:Core/Src/dac.c ****     HAL_GPIO_DeInit(GPIOA, GPIO_PIN_4);
 313              		.loc 1 124 5 view .LVU82
 314 0018 1021     		movs	r1, #16
 315 001a 0548     		ldr	r0, .L24+8
 316              	.LVL12:
 317              		.loc 1 124 5 is_stmt 0 view .LVU83
 318 001c FFF7FEFF 		bl	HAL_GPIO_DeInit
 319              	.LVL13:
 125:Core/Src/dac.c **** 
 126:Core/Src/dac.c ****     /* DAC DMA DeInit */
 127:Core/Src/dac.c ****     HAL_DMA_DeInit(dacHandle->DMA_Handle1);
 320              		.loc 1 127 5 is_stmt 1 view .LVU84
 321 0020 A068     		ldr	r0, [r4, #8]
 322 0022 FFF7FEFF 		bl	HAL_DMA_DeInit
 323              	.LVL14:
 128:Core/Src/dac.c ****   /* USER CODE BEGIN DAC_MspDeInit 1 */
 129:Core/Src/dac.c **** 
 130:Core/Src/dac.c ****   /* USER CODE END DAC_MspDeInit 1 */
 131:Core/Src/dac.c ****   }
 132:Core/Src/dac.c **** }
 324              		.loc 1 132 1 is_stmt 0 view .LVU85
 325 0026 10BD     		pop	{r4, pc}
 326              	.LVL15:
 327              	.L25:
 328              		.loc 1 132 1 view .LVU86
 329              		.align	2
 330              	.L24:
 331 0028 00740040 		.word	1073771520
 332 002c 00380240 		.word	1073887232
 333 0030 00000240 		.word	1073872896
 334              		.cfi_endproc
 335              	.LFE237:
 337              		.global	hdma_dac1
ARM GAS  /tmp/ccpfFGqI.s 			page 10


 338              		.global	hdac
 339              		.section	.bss.hdac,"aw",%nobits
 340              		.align	2
 341              		.set	.LANCHOR0,. + 0
 344              	hdac:
 345 0000 00000000 		.space	20
 345      00000000 
 345      00000000 
 345      00000000 
 345      00000000 
 346              		.section	.bss.hdma_dac1,"aw",%nobits
 347              		.align	2
 348              		.set	.LANCHOR1,. + 0
 351              	hdma_dac1:
 352 0000 00000000 		.space	96
 352      00000000 
 352      00000000 
 352      00000000 
 352      00000000 
 353              		.text
 354              	.Letext0:
 355              		.file 2 "/home/akinya/gcc-arm-none-eabi/arm-none-eabi/include/machine/_default_types.h"
 356              		.file 3 "/home/akinya/gcc-arm-none-eabi/arm-none-eabi/include/sys/_stdint.h"
 357              		.file 4 "Drivers/CMSIS/Device/ST/STM32F4xx/Include/stm32f407xx.h"
 358              		.file 5 "Drivers/STM32F4xx_HAL_Driver/Inc/stm32f4xx_hal_def.h"
 359              		.file 6 "Drivers/STM32F4xx_HAL_Driver/Inc/stm32f4xx_hal_gpio.h"
 360              		.file 7 "Drivers/STM32F4xx_HAL_Driver/Inc/stm32f4xx_hal_dma.h"
 361              		.file 8 "Drivers/STM32F4xx_HAL_Driver/Inc/stm32f4xx_hal_dac.h"
 362              		.file 9 "Core/Inc/dac.h"
 363              		.file 10 "Core/Inc/main.h"
ARM GAS  /tmp/ccpfFGqI.s 			page 11

