ARM GAS  /tmp/cc9peG0g.s 			page 1


   1              		.cpu cortex-m4
   2              		.eabi_attribute 27, 1
   3              		.eabi_attribute 28, 1
   4              		.eabi_attribute 20, 1
   5              		.eabi_attribute 21, 1
   6              		.eabi_attribute 23, 3
   7              		.eabi_attribute 24, 1
   8              		.eabi_attribute 25, 1
   9              		.eabi_attribute 26, 1
  10              		.eabi_attribute 30, 1
  11              		.eabi_attribute 34, 1
  12              		.eabi_attribute 18, 4
  13              		.file	"lv_draw_label.c"
  14              		.text
  15              	.Ltext0:
  16              		.cfi_sections	.debug_frame
  17              		.section	.text.hex_char_to_num,"ax",%progbits
  18              		.align	1
  19              		.arch armv7e-m
  20              		.syntax unified
  21              		.thumb
  22              		.thumb_func
  23              		.fpu fpv4-sp-d16
  25              	hex_char_to_num:
  26              	.LVL0:
  27              	.LFB151:
  28              		.file 1 "Middlewares/lvgl/src/draw/lv_draw_label.c"
   1:Middlewares/lvgl/src/draw/lv_draw_label.c **** /**
   2:Middlewares/lvgl/src/draw/lv_draw_label.c ****  * @file lv_draw_label.c
   3:Middlewares/lvgl/src/draw/lv_draw_label.c ****  *
   4:Middlewares/lvgl/src/draw/lv_draw_label.c ****  */
   5:Middlewares/lvgl/src/draw/lv_draw_label.c **** 
   6:Middlewares/lvgl/src/draw/lv_draw_label.c **** /*********************
   7:Middlewares/lvgl/src/draw/lv_draw_label.c ****  *      INCLUDES
   8:Middlewares/lvgl/src/draw/lv_draw_label.c ****  *********************/
   9:Middlewares/lvgl/src/draw/lv_draw_label.c **** #include "lv_draw_label.h"
  10:Middlewares/lvgl/src/draw/lv_draw_label.c **** #include "../misc/lv_math.h"
  11:Middlewares/lvgl/src/draw/lv_draw_label.c **** #include "../hal/lv_hal_disp.h"
  12:Middlewares/lvgl/src/draw/lv_draw_label.c **** #include "../core/lv_refr.h"
  13:Middlewares/lvgl/src/draw/lv_draw_label.c **** #include "../misc/lv_bidi.h"
  14:Middlewares/lvgl/src/draw/lv_draw_label.c **** #include "../misc/lv_assert.h"
  15:Middlewares/lvgl/src/draw/lv_draw_label.c **** 
  16:Middlewares/lvgl/src/draw/lv_draw_label.c **** /*********************
  17:Middlewares/lvgl/src/draw/lv_draw_label.c ****  *      DEFINES
  18:Middlewares/lvgl/src/draw/lv_draw_label.c ****  *********************/
  19:Middlewares/lvgl/src/draw/lv_draw_label.c **** #define LABEL_RECOLOR_PAR_LENGTH 6
  20:Middlewares/lvgl/src/draw/lv_draw_label.c **** #define LV_LABEL_HINT_UPDATE_TH 1024 /*Update the "hint" if the label's y coordinates have changed 
  21:Middlewares/lvgl/src/draw/lv_draw_label.c **** 
  22:Middlewares/lvgl/src/draw/lv_draw_label.c **** /**********************
  23:Middlewares/lvgl/src/draw/lv_draw_label.c ****  *      TYPEDEFS
  24:Middlewares/lvgl/src/draw/lv_draw_label.c ****  **********************/
  25:Middlewares/lvgl/src/draw/lv_draw_label.c **** enum {
  26:Middlewares/lvgl/src/draw/lv_draw_label.c ****     CMD_STATE_WAIT,
  27:Middlewares/lvgl/src/draw/lv_draw_label.c ****     CMD_STATE_PAR,
  28:Middlewares/lvgl/src/draw/lv_draw_label.c ****     CMD_STATE_IN,
  29:Middlewares/lvgl/src/draw/lv_draw_label.c **** };
  30:Middlewares/lvgl/src/draw/lv_draw_label.c **** typedef uint8_t cmd_state_t;
ARM GAS  /tmp/cc9peG0g.s 			page 2


  31:Middlewares/lvgl/src/draw/lv_draw_label.c **** 
  32:Middlewares/lvgl/src/draw/lv_draw_label.c **** /**********************
  33:Middlewares/lvgl/src/draw/lv_draw_label.c ****  *  STATIC PROTOTYPES
  34:Middlewares/lvgl/src/draw/lv_draw_label.c ****  **********************/
  35:Middlewares/lvgl/src/draw/lv_draw_label.c **** LV_ATTRIBUTE_FAST_MEM static void draw_letter_normal(lv_coord_t pos_x, lv_coord_t pos_y, lv_font_gl
  36:Middlewares/lvgl/src/draw/lv_draw_label.c ****                                                      const lv_area_t * clip_area,
  37:Middlewares/lvgl/src/draw/lv_draw_label.c ****                                                      const uint8_t * map_p, lv_color_t color, lv_op
  38:Middlewares/lvgl/src/draw/lv_draw_label.c **** #if LV_DRAW_COMPLEX && LV_USE_FONT_SUBPX
  39:Middlewares/lvgl/src/draw/lv_draw_label.c **** static void draw_letter_subpx(lv_coord_t pos_x, lv_coord_t pos_y, lv_font_glyph_dsc_t * g, const lv
  40:Middlewares/lvgl/src/draw/lv_draw_label.c ****                               const uint8_t * map_p, lv_color_t color, lv_opa_t opa, lv_blend_mode_
  41:Middlewares/lvgl/src/draw/lv_draw_label.c **** #endif
  42:Middlewares/lvgl/src/draw/lv_draw_label.c **** static uint8_t hex_char_to_num(char hex);
  43:Middlewares/lvgl/src/draw/lv_draw_label.c **** 
  44:Middlewares/lvgl/src/draw/lv_draw_label.c **** /**********************
  45:Middlewares/lvgl/src/draw/lv_draw_label.c ****  *  STATIC VARIABLES
  46:Middlewares/lvgl/src/draw/lv_draw_label.c ****  **********************/
  47:Middlewares/lvgl/src/draw/lv_draw_label.c **** 
  48:Middlewares/lvgl/src/draw/lv_draw_label.c **** /**********************
  49:Middlewares/lvgl/src/draw/lv_draw_label.c ****  *  GLOBAL VARIABLES
  50:Middlewares/lvgl/src/draw/lv_draw_label.c ****  **********************/
  51:Middlewares/lvgl/src/draw/lv_draw_label.c **** 
  52:Middlewares/lvgl/src/draw/lv_draw_label.c **** const uint8_t _lv_bpp1_opa_table[2]  = {0, 255};          /*Opacity mapping with bpp = 1 (Just for 
  53:Middlewares/lvgl/src/draw/lv_draw_label.c **** const uint8_t _lv_bpp2_opa_table[4]  = {0, 85, 170, 255}; /*Opacity mapping with bpp = 2*/
  54:Middlewares/lvgl/src/draw/lv_draw_label.c **** 
  55:Middlewares/lvgl/src/draw/lv_draw_label.c **** const uint8_t _lv_bpp3_opa_table[8]  = {0, 36,  73, 109,   /*Opacity mapping with bpp = 3*/
  56:Middlewares/lvgl/src/draw/lv_draw_label.c ****                                         146, 182,  219, 255
  57:Middlewares/lvgl/src/draw/lv_draw_label.c ****                                        };
  58:Middlewares/lvgl/src/draw/lv_draw_label.c **** 
  59:Middlewares/lvgl/src/draw/lv_draw_label.c **** const uint8_t _lv_bpp4_opa_table[16] = {0,  17, 34,  51,  /*Opacity mapping with bpp = 4*/
  60:Middlewares/lvgl/src/draw/lv_draw_label.c ****                                         68, 85, 102, 119,
  61:Middlewares/lvgl/src/draw/lv_draw_label.c ****                                         136, 153, 170, 187,
  62:Middlewares/lvgl/src/draw/lv_draw_label.c ****                                         204, 221, 238, 255
  63:Middlewares/lvgl/src/draw/lv_draw_label.c ****                                        };
  64:Middlewares/lvgl/src/draw/lv_draw_label.c **** 
  65:Middlewares/lvgl/src/draw/lv_draw_label.c **** const uint8_t _lv_bpp8_opa_table[256] = {0, 1, 2, 3, 4, 5, 6, 7, 8, 9, 10, 11, 12, 13, 14, 15,
  66:Middlewares/lvgl/src/draw/lv_draw_label.c ****                                          16, 17, 18, 19, 20, 21, 22, 23, 24, 25, 26, 27, 28, 29, 30
  67:Middlewares/lvgl/src/draw/lv_draw_label.c ****                                          32, 33, 34, 35, 36, 37, 38, 39, 40, 41, 42, 43, 44, 45, 46
  68:Middlewares/lvgl/src/draw/lv_draw_label.c ****                                          48, 49, 50, 51, 52, 53, 54, 55, 56, 57, 58, 59, 60, 61, 62
  69:Middlewares/lvgl/src/draw/lv_draw_label.c ****                                          64, 65, 66, 67, 68, 69, 70, 71, 72, 73, 74, 75, 76, 77, 78
  70:Middlewares/lvgl/src/draw/lv_draw_label.c ****                                          80, 81, 82, 83, 84, 85, 86, 87, 88, 89, 90, 91, 92, 93, 94
  71:Middlewares/lvgl/src/draw/lv_draw_label.c ****                                          96, 97, 98, 99, 100, 101, 102, 103, 104, 105, 106, 107, 10
  72:Middlewares/lvgl/src/draw/lv_draw_label.c ****                                          112, 113, 114, 115, 116, 117, 118, 119, 120, 121, 122, 123
  73:Middlewares/lvgl/src/draw/lv_draw_label.c ****                                          128, 129, 130, 131, 132, 133, 134, 135, 136, 137, 138, 139
  74:Middlewares/lvgl/src/draw/lv_draw_label.c ****                                          144, 145, 146, 147, 148, 149, 150, 151, 152, 153, 154, 155
  75:Middlewares/lvgl/src/draw/lv_draw_label.c ****                                          160, 161, 162, 163, 164, 165, 166, 167, 168, 169, 170, 171
  76:Middlewares/lvgl/src/draw/lv_draw_label.c ****                                          176, 177, 178, 179, 180, 181, 182, 183, 184, 185, 186, 187
  77:Middlewares/lvgl/src/draw/lv_draw_label.c ****                                          192, 193, 194, 195, 196, 197, 198, 199, 200, 201, 202, 203
  78:Middlewares/lvgl/src/draw/lv_draw_label.c ****                                          208, 209, 210, 211, 212, 213, 214, 215, 216, 217, 218, 219
  79:Middlewares/lvgl/src/draw/lv_draw_label.c ****                                          224, 225, 226, 227, 228, 229, 230, 231, 232, 233, 234, 235
  80:Middlewares/lvgl/src/draw/lv_draw_label.c ****                                          240, 241, 242, 243, 244, 245, 246, 247, 248, 249, 250, 251
  81:Middlewares/lvgl/src/draw/lv_draw_label.c ****                                         };
  82:Middlewares/lvgl/src/draw/lv_draw_label.c **** 
  83:Middlewares/lvgl/src/draw/lv_draw_label.c **** /**********************
  84:Middlewares/lvgl/src/draw/lv_draw_label.c ****  *      MACROS
  85:Middlewares/lvgl/src/draw/lv_draw_label.c ****  **********************/
  86:Middlewares/lvgl/src/draw/lv_draw_label.c **** 
  87:Middlewares/lvgl/src/draw/lv_draw_label.c **** /**********************
ARM GAS  /tmp/cc9peG0g.s 			page 3


  88:Middlewares/lvgl/src/draw/lv_draw_label.c ****  *   GLOBAL FUNCTIONS
  89:Middlewares/lvgl/src/draw/lv_draw_label.c ****  **********************/
  90:Middlewares/lvgl/src/draw/lv_draw_label.c **** 
  91:Middlewares/lvgl/src/draw/lv_draw_label.c **** LV_ATTRIBUTE_FAST_MEM void lv_draw_label_dsc_init(lv_draw_label_dsc_t * dsc)
  92:Middlewares/lvgl/src/draw/lv_draw_label.c **** {
  93:Middlewares/lvgl/src/draw/lv_draw_label.c ****     lv_memset_00(dsc, sizeof(lv_draw_label_dsc_t));
  94:Middlewares/lvgl/src/draw/lv_draw_label.c ****     dsc->opa = LV_OPA_COVER;
  95:Middlewares/lvgl/src/draw/lv_draw_label.c ****     dsc->color = lv_color_black();
  96:Middlewares/lvgl/src/draw/lv_draw_label.c ****     dsc->font = LV_FONT_DEFAULT;
  97:Middlewares/lvgl/src/draw/lv_draw_label.c ****     dsc->sel_start = LV_DRAW_LABEL_NO_TXT_SEL;
  98:Middlewares/lvgl/src/draw/lv_draw_label.c ****     dsc->sel_end = LV_DRAW_LABEL_NO_TXT_SEL;
  99:Middlewares/lvgl/src/draw/lv_draw_label.c ****     dsc->sel_color = lv_color_black();
 100:Middlewares/lvgl/src/draw/lv_draw_label.c ****     dsc->sel_bg_color = lv_palette_main(LV_PALETTE_BLUE);
 101:Middlewares/lvgl/src/draw/lv_draw_label.c ****     dsc->bidi_dir = LV_BASE_DIR_LTR;
 102:Middlewares/lvgl/src/draw/lv_draw_label.c **** }
 103:Middlewares/lvgl/src/draw/lv_draw_label.c **** 
 104:Middlewares/lvgl/src/draw/lv_draw_label.c **** /**
 105:Middlewares/lvgl/src/draw/lv_draw_label.c ****  * Write a text
 106:Middlewares/lvgl/src/draw/lv_draw_label.c ****  * @param coords coordinates of the label
 107:Middlewares/lvgl/src/draw/lv_draw_label.c ****  * @param mask the label will be drawn only in this area
 108:Middlewares/lvgl/src/draw/lv_draw_label.c ****  * @param dsc pointer to draw descriptor
 109:Middlewares/lvgl/src/draw/lv_draw_label.c ****  * @param txt `\0` terminated text to write
 110:Middlewares/lvgl/src/draw/lv_draw_label.c ****  * @param hint pointer to a `lv_draw_label_hint_t` variable.
 111:Middlewares/lvgl/src/draw/lv_draw_label.c ****  * It is managed by the draw to speed up the drawing of very long texts (thousands of lines).
 112:Middlewares/lvgl/src/draw/lv_draw_label.c ****  */
 113:Middlewares/lvgl/src/draw/lv_draw_label.c **** LV_ATTRIBUTE_FAST_MEM void lv_draw_label(const lv_area_t * coords, const lv_area_t * mask,
 114:Middlewares/lvgl/src/draw/lv_draw_label.c ****                                          const lv_draw_label_dsc_t * dsc,
 115:Middlewares/lvgl/src/draw/lv_draw_label.c ****                                          const char * txt,
 116:Middlewares/lvgl/src/draw/lv_draw_label.c ****                                          lv_draw_label_hint_t * hint)
 117:Middlewares/lvgl/src/draw/lv_draw_label.c **** {
 118:Middlewares/lvgl/src/draw/lv_draw_label.c **** 
 119:Middlewares/lvgl/src/draw/lv_draw_label.c ****     if(dsc->opa <= LV_OPA_MIN) return;
 120:Middlewares/lvgl/src/draw/lv_draw_label.c ****     const lv_font_t * font = dsc->font;
 121:Middlewares/lvgl/src/draw/lv_draw_label.c ****     int32_t w;
 122:Middlewares/lvgl/src/draw/lv_draw_label.c **** 
 123:Middlewares/lvgl/src/draw/lv_draw_label.c ****     /*No need to waste processor time if string is empty*/
 124:Middlewares/lvgl/src/draw/lv_draw_label.c ****     if (txt == NULL || txt[0] == '\0')
 125:Middlewares/lvgl/src/draw/lv_draw_label.c ****         return;
 126:Middlewares/lvgl/src/draw/lv_draw_label.c **** 
 127:Middlewares/lvgl/src/draw/lv_draw_label.c ****     lv_area_t clipped_area;
 128:Middlewares/lvgl/src/draw/lv_draw_label.c ****     bool clip_ok = _lv_area_intersect(&clipped_area, coords, mask);
 129:Middlewares/lvgl/src/draw/lv_draw_label.c ****     if(!clip_ok) return;
 130:Middlewares/lvgl/src/draw/lv_draw_label.c **** 
 131:Middlewares/lvgl/src/draw/lv_draw_label.c ****     if((dsc->flag & LV_TEXT_FLAG_EXPAND) == 0) {
 132:Middlewares/lvgl/src/draw/lv_draw_label.c ****         /*Normally use the label's width as width*/
 133:Middlewares/lvgl/src/draw/lv_draw_label.c ****         w = lv_area_get_width(coords);
 134:Middlewares/lvgl/src/draw/lv_draw_label.c ****     }
 135:Middlewares/lvgl/src/draw/lv_draw_label.c ****     else {
 136:Middlewares/lvgl/src/draw/lv_draw_label.c ****         /*If EXAPND is enabled then not limit the text's width to the object's width*/
 137:Middlewares/lvgl/src/draw/lv_draw_label.c ****         lv_point_t p;
 138:Middlewares/lvgl/src/draw/lv_draw_label.c ****         lv_txt_get_size(&p, txt, dsc->font, dsc->letter_space, dsc->line_space, LV_COORD_MAX,
 139:Middlewares/lvgl/src/draw/lv_draw_label.c ****                          dsc->flag);
 140:Middlewares/lvgl/src/draw/lv_draw_label.c ****         w = p.x;
 141:Middlewares/lvgl/src/draw/lv_draw_label.c ****     }
 142:Middlewares/lvgl/src/draw/lv_draw_label.c **** 
 143:Middlewares/lvgl/src/draw/lv_draw_label.c ****     int32_t line_height_font = lv_font_get_line_height(font);
 144:Middlewares/lvgl/src/draw/lv_draw_label.c ****     int32_t line_height = line_height_font + dsc->line_space;
ARM GAS  /tmp/cc9peG0g.s 			page 4


 145:Middlewares/lvgl/src/draw/lv_draw_label.c **** 
 146:Middlewares/lvgl/src/draw/lv_draw_label.c ****     /*Init variables for the first line*/
 147:Middlewares/lvgl/src/draw/lv_draw_label.c ****     int32_t line_width = 0;
 148:Middlewares/lvgl/src/draw/lv_draw_label.c ****     lv_point_t pos;
 149:Middlewares/lvgl/src/draw/lv_draw_label.c ****     pos.x = coords->x1;
 150:Middlewares/lvgl/src/draw/lv_draw_label.c ****     pos.y = coords->y1;
 151:Middlewares/lvgl/src/draw/lv_draw_label.c **** 
 152:Middlewares/lvgl/src/draw/lv_draw_label.c ****     int32_t x_ofs = 0;
 153:Middlewares/lvgl/src/draw/lv_draw_label.c ****     int32_t y_ofs = 0;
 154:Middlewares/lvgl/src/draw/lv_draw_label.c ****     x_ofs = dsc->ofs_x;
 155:Middlewares/lvgl/src/draw/lv_draw_label.c ****     y_ofs = dsc->ofs_y;
 156:Middlewares/lvgl/src/draw/lv_draw_label.c ****     pos.y += y_ofs;
 157:Middlewares/lvgl/src/draw/lv_draw_label.c **** 
 158:Middlewares/lvgl/src/draw/lv_draw_label.c ****     uint32_t line_start     = 0;
 159:Middlewares/lvgl/src/draw/lv_draw_label.c ****     int32_t last_line_start = -1;
 160:Middlewares/lvgl/src/draw/lv_draw_label.c **** 
 161:Middlewares/lvgl/src/draw/lv_draw_label.c ****     /*Check the hint to use the cached info*/
 162:Middlewares/lvgl/src/draw/lv_draw_label.c ****     if(hint && y_ofs == 0 && coords->y1 < 0) {
 163:Middlewares/lvgl/src/draw/lv_draw_label.c ****         /*If the label changed too much recalculate the hint.*/
 164:Middlewares/lvgl/src/draw/lv_draw_label.c ****         if(LV_ABS(hint->coord_y - coords->y1) > LV_LABEL_HINT_UPDATE_TH - 2 * line_height) {
 165:Middlewares/lvgl/src/draw/lv_draw_label.c ****             hint->line_start = -1;
 166:Middlewares/lvgl/src/draw/lv_draw_label.c ****         }
 167:Middlewares/lvgl/src/draw/lv_draw_label.c ****         last_line_start = hint->line_start;
 168:Middlewares/lvgl/src/draw/lv_draw_label.c ****     }
 169:Middlewares/lvgl/src/draw/lv_draw_label.c **** 
 170:Middlewares/lvgl/src/draw/lv_draw_label.c ****     /*Use the hint if it's valid*/
 171:Middlewares/lvgl/src/draw/lv_draw_label.c ****     if(hint && last_line_start >= 0) {
 172:Middlewares/lvgl/src/draw/lv_draw_label.c ****         line_start = last_line_start;
 173:Middlewares/lvgl/src/draw/lv_draw_label.c ****         pos.y += hint->y;
 174:Middlewares/lvgl/src/draw/lv_draw_label.c ****     }
 175:Middlewares/lvgl/src/draw/lv_draw_label.c **** 
 176:Middlewares/lvgl/src/draw/lv_draw_label.c ****     uint32_t line_end = line_start + _lv_txt_get_next_line(&txt[line_start], font, dsc->letter_spac
 177:Middlewares/lvgl/src/draw/lv_draw_label.c **** 
 178:Middlewares/lvgl/src/draw/lv_draw_label.c ****     /*Go the first visible line*/
 179:Middlewares/lvgl/src/draw/lv_draw_label.c ****     while(pos.y + line_height_font < mask->y1) {
 180:Middlewares/lvgl/src/draw/lv_draw_label.c ****         /*Go to next line*/
 181:Middlewares/lvgl/src/draw/lv_draw_label.c ****         line_start = line_end;
 182:Middlewares/lvgl/src/draw/lv_draw_label.c ****         line_end += _lv_txt_get_next_line(&txt[line_start], font, dsc->letter_space, w, dsc->flag);
 183:Middlewares/lvgl/src/draw/lv_draw_label.c ****         pos.y += line_height;
 184:Middlewares/lvgl/src/draw/lv_draw_label.c **** 
 185:Middlewares/lvgl/src/draw/lv_draw_label.c ****         /*Save at the threshold coordinate*/
 186:Middlewares/lvgl/src/draw/lv_draw_label.c ****         if(hint && pos.y >= -LV_LABEL_HINT_UPDATE_TH && hint->line_start < 0) {
 187:Middlewares/lvgl/src/draw/lv_draw_label.c ****             hint->line_start = line_start;
 188:Middlewares/lvgl/src/draw/lv_draw_label.c ****             hint->y          = pos.y - coords->y1;
 189:Middlewares/lvgl/src/draw/lv_draw_label.c ****             hint->coord_y    = coords->y1;
 190:Middlewares/lvgl/src/draw/lv_draw_label.c ****         }
 191:Middlewares/lvgl/src/draw/lv_draw_label.c **** 
 192:Middlewares/lvgl/src/draw/lv_draw_label.c ****         if(txt[line_start] == '\0') return;
 193:Middlewares/lvgl/src/draw/lv_draw_label.c ****     }
 194:Middlewares/lvgl/src/draw/lv_draw_label.c **** 
 195:Middlewares/lvgl/src/draw/lv_draw_label.c ****     /*Align to middle*/
 196:Middlewares/lvgl/src/draw/lv_draw_label.c ****     if(dsc->align == LV_TEXT_ALIGN_CENTER) {
 197:Middlewares/lvgl/src/draw/lv_draw_label.c ****         line_width = lv_txt_get_width(&txt[line_start], line_end - line_start, font, dsc->letter_sp
 198:Middlewares/lvgl/src/draw/lv_draw_label.c **** 
 199:Middlewares/lvgl/src/draw/lv_draw_label.c ****         pos.x += (lv_area_get_width(coords) - line_width) / 2;
 200:Middlewares/lvgl/src/draw/lv_draw_label.c **** 
 201:Middlewares/lvgl/src/draw/lv_draw_label.c ****     }
ARM GAS  /tmp/cc9peG0g.s 			page 5


 202:Middlewares/lvgl/src/draw/lv_draw_label.c ****     /*Align to the right*/
 203:Middlewares/lvgl/src/draw/lv_draw_label.c ****     else if(dsc->align == LV_TEXT_ALIGN_RIGHT) {
 204:Middlewares/lvgl/src/draw/lv_draw_label.c ****         line_width = lv_txt_get_width(&txt[line_start], line_end - line_start, font, dsc->letter_sp
 205:Middlewares/lvgl/src/draw/lv_draw_label.c ****         pos.x += lv_area_get_width(coords) - line_width;
 206:Middlewares/lvgl/src/draw/lv_draw_label.c ****     }
 207:Middlewares/lvgl/src/draw/lv_draw_label.c **** 
 208:Middlewares/lvgl/src/draw/lv_draw_label.c ****     lv_opa_t opa = dsc->opa;
 209:Middlewares/lvgl/src/draw/lv_draw_label.c **** 
 210:Middlewares/lvgl/src/draw/lv_draw_label.c ****     uint32_t sel_start = dsc->sel_start;
 211:Middlewares/lvgl/src/draw/lv_draw_label.c ****     uint32_t sel_end = dsc->sel_end;
 212:Middlewares/lvgl/src/draw/lv_draw_label.c ****     if(sel_start > sel_end) {
 213:Middlewares/lvgl/src/draw/lv_draw_label.c ****         uint32_t tmp = sel_start;
 214:Middlewares/lvgl/src/draw/lv_draw_label.c ****         sel_start = sel_end;
 215:Middlewares/lvgl/src/draw/lv_draw_label.c ****         sel_end = tmp;
 216:Middlewares/lvgl/src/draw/lv_draw_label.c ****     }
 217:Middlewares/lvgl/src/draw/lv_draw_label.c ****     lv_draw_line_dsc_t line_dsc;
 218:Middlewares/lvgl/src/draw/lv_draw_label.c **** 
 219:Middlewares/lvgl/src/draw/lv_draw_label.c ****     if((dsc->decor & LV_TEXT_DECOR_UNDERLINE) || (dsc->decor & LV_TEXT_DECOR_STRIKETHROUGH)) {
 220:Middlewares/lvgl/src/draw/lv_draw_label.c ****         lv_draw_line_dsc_init(&line_dsc);
 221:Middlewares/lvgl/src/draw/lv_draw_label.c ****         line_dsc.color = dsc->color;
 222:Middlewares/lvgl/src/draw/lv_draw_label.c ****         line_dsc.width = font->underline_thickness ? font->underline_thickness : 1;
 223:Middlewares/lvgl/src/draw/lv_draw_label.c ****         line_dsc.opa = dsc->opa;
 224:Middlewares/lvgl/src/draw/lv_draw_label.c ****         line_dsc.blend_mode = dsc->blend_mode;
 225:Middlewares/lvgl/src/draw/lv_draw_label.c ****     }
 226:Middlewares/lvgl/src/draw/lv_draw_label.c **** 
 227:Middlewares/lvgl/src/draw/lv_draw_label.c ****     cmd_state_t cmd_state = CMD_STATE_WAIT;
 228:Middlewares/lvgl/src/draw/lv_draw_label.c ****     uint32_t i;
 229:Middlewares/lvgl/src/draw/lv_draw_label.c ****     uint32_t par_start = 0;
 230:Middlewares/lvgl/src/draw/lv_draw_label.c ****     lv_color_t recolor;
 231:Middlewares/lvgl/src/draw/lv_draw_label.c ****     int32_t letter_w;
 232:Middlewares/lvgl/src/draw/lv_draw_label.c **** 
 233:Middlewares/lvgl/src/draw/lv_draw_label.c ****     lv_draw_rect_dsc_t draw_dsc_sel;
 234:Middlewares/lvgl/src/draw/lv_draw_label.c ****     lv_draw_rect_dsc_init(&draw_dsc_sel);
 235:Middlewares/lvgl/src/draw/lv_draw_label.c ****     draw_dsc_sel.bg_color = dsc->sel_bg_color;
 236:Middlewares/lvgl/src/draw/lv_draw_label.c **** 
 237:Middlewares/lvgl/src/draw/lv_draw_label.c ****     int32_t pos_x_start = pos.x;
 238:Middlewares/lvgl/src/draw/lv_draw_label.c ****     /*Write out all lines*/
 239:Middlewares/lvgl/src/draw/lv_draw_label.c ****     while(txt[line_start] != '\0') {
 240:Middlewares/lvgl/src/draw/lv_draw_label.c ****         pos.x += x_ofs;
 241:Middlewares/lvgl/src/draw/lv_draw_label.c **** 
 242:Middlewares/lvgl/src/draw/lv_draw_label.c ****         /*Write all letter of a line*/
 243:Middlewares/lvgl/src/draw/lv_draw_label.c ****         cmd_state = CMD_STATE_WAIT;
 244:Middlewares/lvgl/src/draw/lv_draw_label.c ****         i         = 0;
 245:Middlewares/lvgl/src/draw/lv_draw_label.c **** #if LV_USE_BIDI
 246:Middlewares/lvgl/src/draw/lv_draw_label.c ****         char * bidi_txt = lv_mem_buf_get(line_end - line_start + 1);
 247:Middlewares/lvgl/src/draw/lv_draw_label.c ****         _lv_bidi_process_paragraph(txt + line_start, bidi_txt, line_end - line_start, dsc->bidi_dir
 248:Middlewares/lvgl/src/draw/lv_draw_label.c **** #else
 249:Middlewares/lvgl/src/draw/lv_draw_label.c ****         const char * bidi_txt = txt + line_start;
 250:Middlewares/lvgl/src/draw/lv_draw_label.c **** #endif
 251:Middlewares/lvgl/src/draw/lv_draw_label.c **** 
 252:Middlewares/lvgl/src/draw/lv_draw_label.c ****         while(i < line_end - line_start) {
 253:Middlewares/lvgl/src/draw/lv_draw_label.c ****             uint32_t logical_char_pos = 0;
 254:Middlewares/lvgl/src/draw/lv_draw_label.c ****             if(sel_start != 0xFFFF && sel_end != 0xFFFF) {
 255:Middlewares/lvgl/src/draw/lv_draw_label.c **** #if LV_USE_BIDI
 256:Middlewares/lvgl/src/draw/lv_draw_label.c ****                 logical_char_pos = _lv_txt_encoded_get_char_id(txt, line_start);
 257:Middlewares/lvgl/src/draw/lv_draw_label.c ****                 uint32_t t = _lv_txt_encoded_get_char_id(bidi_txt, i);
 258:Middlewares/lvgl/src/draw/lv_draw_label.c ****                 logical_char_pos += _lv_bidi_get_logical_pos(bidi_txt, NULL, line_end - line_start,
ARM GAS  /tmp/cc9peG0g.s 			page 6


 259:Middlewares/lvgl/src/draw/lv_draw_label.c **** #else
 260:Middlewares/lvgl/src/draw/lv_draw_label.c ****                 logical_char_pos = _lv_txt_encoded_get_char_id(txt, line_start + i);
 261:Middlewares/lvgl/src/draw/lv_draw_label.c **** #endif
 262:Middlewares/lvgl/src/draw/lv_draw_label.c ****             }
 263:Middlewares/lvgl/src/draw/lv_draw_label.c **** 
 264:Middlewares/lvgl/src/draw/lv_draw_label.c ****             uint32_t letter;
 265:Middlewares/lvgl/src/draw/lv_draw_label.c ****             uint32_t letter_next;
 266:Middlewares/lvgl/src/draw/lv_draw_label.c ****             _lv_txt_encoded_letter_next_2(bidi_txt, &letter, &letter_next, &i);
 267:Middlewares/lvgl/src/draw/lv_draw_label.c ****             /*Handle the re-color command*/
 268:Middlewares/lvgl/src/draw/lv_draw_label.c ****             if((dsc->flag & LV_TEXT_FLAG_RECOLOR) != 0) {
 269:Middlewares/lvgl/src/draw/lv_draw_label.c ****                 if(letter == (uint32_t)LV_TXT_COLOR_CMD[0]) {
 270:Middlewares/lvgl/src/draw/lv_draw_label.c ****                     if(cmd_state == CMD_STATE_WAIT) { /*Start char*/
 271:Middlewares/lvgl/src/draw/lv_draw_label.c ****                         par_start = i;
 272:Middlewares/lvgl/src/draw/lv_draw_label.c ****                         cmd_state = CMD_STATE_PAR;
 273:Middlewares/lvgl/src/draw/lv_draw_label.c ****                         continue;
 274:Middlewares/lvgl/src/draw/lv_draw_label.c ****                     }
 275:Middlewares/lvgl/src/draw/lv_draw_label.c ****                     else if(cmd_state == CMD_STATE_PAR) {   /*Other start char in parameter escaped
 276:Middlewares/lvgl/src/draw/lv_draw_label.c ****                         cmd_state = CMD_STATE_WAIT;
 277:Middlewares/lvgl/src/draw/lv_draw_label.c ****                     }
 278:Middlewares/lvgl/src/draw/lv_draw_label.c ****                     else if(cmd_state == CMD_STATE_IN) {   /*Command end*/
 279:Middlewares/lvgl/src/draw/lv_draw_label.c ****                         cmd_state = CMD_STATE_WAIT;
 280:Middlewares/lvgl/src/draw/lv_draw_label.c ****                         continue;
 281:Middlewares/lvgl/src/draw/lv_draw_label.c ****                     }
 282:Middlewares/lvgl/src/draw/lv_draw_label.c ****                 }
 283:Middlewares/lvgl/src/draw/lv_draw_label.c **** 
 284:Middlewares/lvgl/src/draw/lv_draw_label.c ****                 /*Skip the color parameter and wait the space after it*/
 285:Middlewares/lvgl/src/draw/lv_draw_label.c ****                 if(cmd_state == CMD_STATE_PAR) {
 286:Middlewares/lvgl/src/draw/lv_draw_label.c ****                     if(letter == ' ') {
 287:Middlewares/lvgl/src/draw/lv_draw_label.c ****                         /*Get the parameter*/
 288:Middlewares/lvgl/src/draw/lv_draw_label.c ****                         if(i - par_start == LABEL_RECOLOR_PAR_LENGTH + 1) {
 289:Middlewares/lvgl/src/draw/lv_draw_label.c ****                             char buf[LABEL_RECOLOR_PAR_LENGTH + 1];
 290:Middlewares/lvgl/src/draw/lv_draw_label.c ****                             lv_memcpy_small(buf, &bidi_txt[par_start], LABEL_RECOLOR_PAR_LENGTH);
 291:Middlewares/lvgl/src/draw/lv_draw_label.c ****                             buf[LABEL_RECOLOR_PAR_LENGTH] = '\0';
 292:Middlewares/lvgl/src/draw/lv_draw_label.c ****                             int r, g, b;
 293:Middlewares/lvgl/src/draw/lv_draw_label.c ****                             r       = (hex_char_to_num(buf[0]) << 4) + hex_char_to_num(buf[1]);
 294:Middlewares/lvgl/src/draw/lv_draw_label.c ****                             g       = (hex_char_to_num(buf[2]) << 4) + hex_char_to_num(buf[3]);
 295:Middlewares/lvgl/src/draw/lv_draw_label.c ****                             b       = (hex_char_to_num(buf[4]) << 4) + hex_char_to_num(buf[5]);
 296:Middlewares/lvgl/src/draw/lv_draw_label.c ****                             recolor = lv_color_make(r, g, b);
 297:Middlewares/lvgl/src/draw/lv_draw_label.c ****                         }
 298:Middlewares/lvgl/src/draw/lv_draw_label.c ****                         else {
 299:Middlewares/lvgl/src/draw/lv_draw_label.c ****                             recolor.full = dsc->color.full;
 300:Middlewares/lvgl/src/draw/lv_draw_label.c ****                         }
 301:Middlewares/lvgl/src/draw/lv_draw_label.c ****                         cmd_state = CMD_STATE_IN; /*After the parameter the text is in the command*
 302:Middlewares/lvgl/src/draw/lv_draw_label.c ****                     }
 303:Middlewares/lvgl/src/draw/lv_draw_label.c ****                     continue;
 304:Middlewares/lvgl/src/draw/lv_draw_label.c ****                 }
 305:Middlewares/lvgl/src/draw/lv_draw_label.c ****             }
 306:Middlewares/lvgl/src/draw/lv_draw_label.c **** 
 307:Middlewares/lvgl/src/draw/lv_draw_label.c ****             lv_color_t color = dsc->color;
 308:Middlewares/lvgl/src/draw/lv_draw_label.c **** 
 309:Middlewares/lvgl/src/draw/lv_draw_label.c ****             if(cmd_state == CMD_STATE_IN) color = recolor;
 310:Middlewares/lvgl/src/draw/lv_draw_label.c **** 
 311:Middlewares/lvgl/src/draw/lv_draw_label.c ****             letter_w = lv_font_get_glyph_width(font, letter, letter_next);
 312:Middlewares/lvgl/src/draw/lv_draw_label.c **** 
 313:Middlewares/lvgl/src/draw/lv_draw_label.c ****             if(sel_start != 0xFFFF && sel_end != 0xFFFF) {
 314:Middlewares/lvgl/src/draw/lv_draw_label.c ****                 if(logical_char_pos >= sel_start && logical_char_pos < sel_end) {
 315:Middlewares/lvgl/src/draw/lv_draw_label.c ****                     lv_area_t sel_coords;
ARM GAS  /tmp/cc9peG0g.s 			page 7


 316:Middlewares/lvgl/src/draw/lv_draw_label.c ****                     sel_coords.x1 = pos.x;
 317:Middlewares/lvgl/src/draw/lv_draw_label.c ****                     sel_coords.y1 = pos.y;
 318:Middlewares/lvgl/src/draw/lv_draw_label.c ****                     sel_coords.x2 = pos.x + letter_w + dsc->letter_space - 1;
 319:Middlewares/lvgl/src/draw/lv_draw_label.c ****                     sel_coords.y2 = pos.y + line_height - 1;
 320:Middlewares/lvgl/src/draw/lv_draw_label.c ****                     lv_draw_rect(&sel_coords, mask, &draw_dsc_sel);
 321:Middlewares/lvgl/src/draw/lv_draw_label.c ****                     color = dsc->sel_color;
 322:Middlewares/lvgl/src/draw/lv_draw_label.c ****                 }
 323:Middlewares/lvgl/src/draw/lv_draw_label.c ****             }
 324:Middlewares/lvgl/src/draw/lv_draw_label.c **** 
 325:Middlewares/lvgl/src/draw/lv_draw_label.c ****             lv_draw_letter(&pos, mask, font, letter, color, opa, dsc->blend_mode);
 326:Middlewares/lvgl/src/draw/lv_draw_label.c **** 
 327:Middlewares/lvgl/src/draw/lv_draw_label.c ****             if(letter_w > 0) {
 328:Middlewares/lvgl/src/draw/lv_draw_label.c ****                 pos.x += letter_w + dsc->letter_space;
 329:Middlewares/lvgl/src/draw/lv_draw_label.c ****             }
 330:Middlewares/lvgl/src/draw/lv_draw_label.c ****         }
 331:Middlewares/lvgl/src/draw/lv_draw_label.c **** 
 332:Middlewares/lvgl/src/draw/lv_draw_label.c ****         if(dsc->decor & LV_TEXT_DECOR_STRIKETHROUGH) {
 333:Middlewares/lvgl/src/draw/lv_draw_label.c ****             lv_point_t p1;
 334:Middlewares/lvgl/src/draw/lv_draw_label.c ****             lv_point_t p2;
 335:Middlewares/lvgl/src/draw/lv_draw_label.c ****             p1.x = pos_x_start;
 336:Middlewares/lvgl/src/draw/lv_draw_label.c ****             p1.y = pos.y + (dsc->font->line_height / 2)  + line_dsc.width / 2;
 337:Middlewares/lvgl/src/draw/lv_draw_label.c ****             p2.x = pos.x;
 338:Middlewares/lvgl/src/draw/lv_draw_label.c ****             p2.y = p1.y;
 339:Middlewares/lvgl/src/draw/lv_draw_label.c ****             lv_draw_line(&p1, &p2, mask, &line_dsc);
 340:Middlewares/lvgl/src/draw/lv_draw_label.c ****         }
 341:Middlewares/lvgl/src/draw/lv_draw_label.c **** 
 342:Middlewares/lvgl/src/draw/lv_draw_label.c ****         if(dsc->decor  & LV_TEXT_DECOR_UNDERLINE) {
 343:Middlewares/lvgl/src/draw/lv_draw_label.c ****             lv_point_t p1;
 344:Middlewares/lvgl/src/draw/lv_draw_label.c ****             lv_point_t p2;
 345:Middlewares/lvgl/src/draw/lv_draw_label.c ****             p1.x = pos_x_start;
 346:Middlewares/lvgl/src/draw/lv_draw_label.c ****             p1.y = pos.y + dsc->font->line_height - dsc->font->base_line - font->underline_position
 347:Middlewares/lvgl/src/draw/lv_draw_label.c ****             p2.x = pos.x;
 348:Middlewares/lvgl/src/draw/lv_draw_label.c ****             p2.y = p1.y;
 349:Middlewares/lvgl/src/draw/lv_draw_label.c ****             lv_draw_line(&p1, &p2, mask, &line_dsc);
 350:Middlewares/lvgl/src/draw/lv_draw_label.c ****         }
 351:Middlewares/lvgl/src/draw/lv_draw_label.c **** 
 352:Middlewares/lvgl/src/draw/lv_draw_label.c **** #if LV_USE_BIDI
 353:Middlewares/lvgl/src/draw/lv_draw_label.c ****         lv_mem_buf_release(bidi_txt);
 354:Middlewares/lvgl/src/draw/lv_draw_label.c ****         bidi_txt = NULL;
 355:Middlewares/lvgl/src/draw/lv_draw_label.c **** #endif
 356:Middlewares/lvgl/src/draw/lv_draw_label.c ****         /*Go to next line*/
 357:Middlewares/lvgl/src/draw/lv_draw_label.c ****         line_start = line_end;
 358:Middlewares/lvgl/src/draw/lv_draw_label.c ****         line_end += _lv_txt_get_next_line(&txt[line_start], font, dsc->letter_space, w, dsc->flag);
 359:Middlewares/lvgl/src/draw/lv_draw_label.c **** 
 360:Middlewares/lvgl/src/draw/lv_draw_label.c ****         pos.x = coords->x1;
 361:Middlewares/lvgl/src/draw/lv_draw_label.c ****         /*Align to middle*/
 362:Middlewares/lvgl/src/draw/lv_draw_label.c ****         if(dsc->align == LV_TEXT_ALIGN_CENTER) {
 363:Middlewares/lvgl/src/draw/lv_draw_label.c ****             line_width =
 364:Middlewares/lvgl/src/draw/lv_draw_label.c ****                 lv_txt_get_width(&txt[line_start], line_end - line_start, font, dsc->letter_space, 
 365:Middlewares/lvgl/src/draw/lv_draw_label.c **** 
 366:Middlewares/lvgl/src/draw/lv_draw_label.c ****             pos.x += (lv_area_get_width(coords) - line_width) / 2;
 367:Middlewares/lvgl/src/draw/lv_draw_label.c **** 
 368:Middlewares/lvgl/src/draw/lv_draw_label.c ****         }
 369:Middlewares/lvgl/src/draw/lv_draw_label.c ****         /*Align to the right*/
 370:Middlewares/lvgl/src/draw/lv_draw_label.c ****         else if(dsc->align == LV_TEXT_ALIGN_RIGHT) {
 371:Middlewares/lvgl/src/draw/lv_draw_label.c ****             line_width =
 372:Middlewares/lvgl/src/draw/lv_draw_label.c ****                 lv_txt_get_width(&txt[line_start], line_end - line_start, font, dsc->letter_space, 
ARM GAS  /tmp/cc9peG0g.s 			page 8


 373:Middlewares/lvgl/src/draw/lv_draw_label.c ****             pos.x += lv_area_get_width(coords) - line_width;
 374:Middlewares/lvgl/src/draw/lv_draw_label.c ****         }
 375:Middlewares/lvgl/src/draw/lv_draw_label.c **** 
 376:Middlewares/lvgl/src/draw/lv_draw_label.c ****         /*Go the next line position*/
 377:Middlewares/lvgl/src/draw/lv_draw_label.c ****         pos.y += line_height;
 378:Middlewares/lvgl/src/draw/lv_draw_label.c **** 
 379:Middlewares/lvgl/src/draw/lv_draw_label.c ****         if(pos.y > mask->y2) return;
 380:Middlewares/lvgl/src/draw/lv_draw_label.c ****     }
 381:Middlewares/lvgl/src/draw/lv_draw_label.c **** 
 382:Middlewares/lvgl/src/draw/lv_draw_label.c ****     LV_ASSERT_MEM_INTEGRITY();
 383:Middlewares/lvgl/src/draw/lv_draw_label.c **** }
 384:Middlewares/lvgl/src/draw/lv_draw_label.c **** 
 385:Middlewares/lvgl/src/draw/lv_draw_label.c **** /**********************
 386:Middlewares/lvgl/src/draw/lv_draw_label.c ****  *   STATIC FUNCTIONS
 387:Middlewares/lvgl/src/draw/lv_draw_label.c ****  **********************/
 388:Middlewares/lvgl/src/draw/lv_draw_label.c **** 
 389:Middlewares/lvgl/src/draw/lv_draw_label.c **** /**
 390:Middlewares/lvgl/src/draw/lv_draw_label.c ****  * Draw a letter in the Virtual Display Buffer
 391:Middlewares/lvgl/src/draw/lv_draw_label.c ****  * @param pos_p left-top coordinate of the latter
 392:Middlewares/lvgl/src/draw/lv_draw_label.c ****  * @param mask_p the letter will be drawn only on this area  (truncated to draw_buf area)
 393:Middlewares/lvgl/src/draw/lv_draw_label.c ****  * @param font_p pointer to font
 394:Middlewares/lvgl/src/draw/lv_draw_label.c ****  * @param letter a letter to draw
 395:Middlewares/lvgl/src/draw/lv_draw_label.c ****  * @param color color of letter
 396:Middlewares/lvgl/src/draw/lv_draw_label.c ****  * @param opa opacity of letter (0..255)
 397:Middlewares/lvgl/src/draw/lv_draw_label.c ****  */
 398:Middlewares/lvgl/src/draw/lv_draw_label.c **** LV_ATTRIBUTE_FAST_MEM void lv_draw_letter(const lv_point_t * pos_p, const lv_area_t * clip_area,
 399:Middlewares/lvgl/src/draw/lv_draw_label.c ****                                           const lv_font_t * font_p,
 400:Middlewares/lvgl/src/draw/lv_draw_label.c ****                                           uint32_t letter,
 401:Middlewares/lvgl/src/draw/lv_draw_label.c ****                                           lv_color_t color, lv_opa_t opa, lv_blend_mode_t blend_mod
 402:Middlewares/lvgl/src/draw/lv_draw_label.c **** {
 403:Middlewares/lvgl/src/draw/lv_draw_label.c ****     if(opa < LV_OPA_MIN) return;
 404:Middlewares/lvgl/src/draw/lv_draw_label.c ****     if(opa > LV_OPA_MAX) opa = LV_OPA_COVER;
 405:Middlewares/lvgl/src/draw/lv_draw_label.c **** 
 406:Middlewares/lvgl/src/draw/lv_draw_label.c ****     if(font_p == NULL) {
 407:Middlewares/lvgl/src/draw/lv_draw_label.c ****         LV_LOG_WARN("lv_draw_letter: font is NULL");
 408:Middlewares/lvgl/src/draw/lv_draw_label.c ****         return;
 409:Middlewares/lvgl/src/draw/lv_draw_label.c ****     }
 410:Middlewares/lvgl/src/draw/lv_draw_label.c **** 
 411:Middlewares/lvgl/src/draw/lv_draw_label.c ****     lv_font_glyph_dsc_t g;
 412:Middlewares/lvgl/src/draw/lv_draw_label.c ****     bool g_ret = lv_font_get_glyph_dsc(font_p, &g, letter, '\0');
 413:Middlewares/lvgl/src/draw/lv_draw_label.c ****     if(g_ret == false)  {
 414:Middlewares/lvgl/src/draw/lv_draw_label.c ****         /*Add warning if the dsc is not found
 415:Middlewares/lvgl/src/draw/lv_draw_label.c ****          *but do not print warning for non printable ASCII chars (e.g. '\n')*/
 416:Middlewares/lvgl/src/draw/lv_draw_label.c ****         if(letter >= 0x20 &&
 417:Middlewares/lvgl/src/draw/lv_draw_label.c ****             letter != 0xf8ff && /*LV_SYMBOL_DUMMY*/
 418:Middlewares/lvgl/src/draw/lv_draw_label.c ****             letter != 0x200c) { /*ZERO WIDTH NON-JOINER*/
 419:Middlewares/lvgl/src/draw/lv_draw_label.c ****             LV_LOG_WARN("lv_draw_letter: glyph dsc. not found for U+%X", letter);
 420:Middlewares/lvgl/src/draw/lv_draw_label.c ****         }
 421:Middlewares/lvgl/src/draw/lv_draw_label.c ****         return;
 422:Middlewares/lvgl/src/draw/lv_draw_label.c ****     }
 423:Middlewares/lvgl/src/draw/lv_draw_label.c **** 
 424:Middlewares/lvgl/src/draw/lv_draw_label.c ****     /*Don't draw anything if the character is empty. E.g. space*/
 425:Middlewares/lvgl/src/draw/lv_draw_label.c ****     if((g.box_h == 0) || (g.box_w == 0)) return;
 426:Middlewares/lvgl/src/draw/lv_draw_label.c **** 
 427:Middlewares/lvgl/src/draw/lv_draw_label.c ****     int32_t pos_x = pos_p->x + g.ofs_x;
 428:Middlewares/lvgl/src/draw/lv_draw_label.c ****     int32_t pos_y = pos_p->y + (font_p->line_height - font_p->base_line) - g.box_h - g.ofs_y;
 429:Middlewares/lvgl/src/draw/lv_draw_label.c **** 
ARM GAS  /tmp/cc9peG0g.s 			page 9


 430:Middlewares/lvgl/src/draw/lv_draw_label.c ****     /*If the letter is completely out of mask don't draw it*/
 431:Middlewares/lvgl/src/draw/lv_draw_label.c ****     if(pos_x + g.box_w < clip_area->x1 ||
 432:Middlewares/lvgl/src/draw/lv_draw_label.c ****        pos_x > clip_area->x2 ||
 433:Middlewares/lvgl/src/draw/lv_draw_label.c ****        pos_y + g.box_h < clip_area->y1 ||
 434:Middlewares/lvgl/src/draw/lv_draw_label.c ****        pos_y > clip_area->y2)  {
 435:Middlewares/lvgl/src/draw/lv_draw_label.c ****         return;
 436:Middlewares/lvgl/src/draw/lv_draw_label.c ****     }
 437:Middlewares/lvgl/src/draw/lv_draw_label.c **** 
 438:Middlewares/lvgl/src/draw/lv_draw_label.c ****     const uint8_t * map_p = lv_font_get_glyph_bitmap(font_p, letter);
 439:Middlewares/lvgl/src/draw/lv_draw_label.c ****     if(map_p == NULL) {
 440:Middlewares/lvgl/src/draw/lv_draw_label.c ****         LV_LOG_WARN("lv_draw_letter: character's bitmap not found");
 441:Middlewares/lvgl/src/draw/lv_draw_label.c ****         return;
 442:Middlewares/lvgl/src/draw/lv_draw_label.c ****     }
 443:Middlewares/lvgl/src/draw/lv_draw_label.c **** 
 444:Middlewares/lvgl/src/draw/lv_draw_label.c ****     if(font_p->subpx) {
 445:Middlewares/lvgl/src/draw/lv_draw_label.c **** #if LV_DRAW_COMPLEX && LV_USE_FONT_SUBPX
 446:Middlewares/lvgl/src/draw/lv_draw_label.c ****     draw_letter_subpx(pos_x, pos_y, &g, clip_area, map_p, color, opa, blend_mode);
 447:Middlewares/lvgl/src/draw/lv_draw_label.c **** #else
 448:Middlewares/lvgl/src/draw/lv_draw_label.c ****     LV_LOG_WARN("Can't draw sub-pixel rendered letter because LV_USE_FONT_SUBPX == 0 in lv_conf.h")
 449:Middlewares/lvgl/src/draw/lv_draw_label.c **** #endif
 450:Middlewares/lvgl/src/draw/lv_draw_label.c ****     } else {
 451:Middlewares/lvgl/src/draw/lv_draw_label.c ****         draw_letter_normal(pos_x, pos_y, &g, clip_area, map_p, color, opa, blend_mode);
 452:Middlewares/lvgl/src/draw/lv_draw_label.c ****     }
 453:Middlewares/lvgl/src/draw/lv_draw_label.c **** }
 454:Middlewares/lvgl/src/draw/lv_draw_label.c **** 
 455:Middlewares/lvgl/src/draw/lv_draw_label.c **** LV_ATTRIBUTE_FAST_MEM static void draw_letter_normal(lv_coord_t pos_x, lv_coord_t pos_y, lv_font_gl
 456:Middlewares/lvgl/src/draw/lv_draw_label.c ****                                                      const lv_area_t * clip_area,
 457:Middlewares/lvgl/src/draw/lv_draw_label.c ****                                                      const uint8_t * map_p, lv_color_t color, lv_op
 458:Middlewares/lvgl/src/draw/lv_draw_label.c **** {
 459:Middlewares/lvgl/src/draw/lv_draw_label.c ****     const uint8_t * bpp_opa_table_p;
 460:Middlewares/lvgl/src/draw/lv_draw_label.c ****     uint32_t bitmask_init;
 461:Middlewares/lvgl/src/draw/lv_draw_label.c ****     uint32_t bitmask;
 462:Middlewares/lvgl/src/draw/lv_draw_label.c ****     uint32_t bpp = g->bpp;
 463:Middlewares/lvgl/src/draw/lv_draw_label.c ****     uint32_t shades;
 464:Middlewares/lvgl/src/draw/lv_draw_label.c ****     if(bpp == 3) bpp = 4;
 465:Middlewares/lvgl/src/draw/lv_draw_label.c **** 
 466:Middlewares/lvgl/src/draw/lv_draw_label.c ****     switch(bpp) {
 467:Middlewares/lvgl/src/draw/lv_draw_label.c ****         case 1:
 468:Middlewares/lvgl/src/draw/lv_draw_label.c ****             bpp_opa_table_p = _lv_bpp1_opa_table;
 469:Middlewares/lvgl/src/draw/lv_draw_label.c ****             bitmask_init  = 0x80;
 470:Middlewares/lvgl/src/draw/lv_draw_label.c ****             shades = 2;
 471:Middlewares/lvgl/src/draw/lv_draw_label.c ****             break;
 472:Middlewares/lvgl/src/draw/lv_draw_label.c ****         case 2:
 473:Middlewares/lvgl/src/draw/lv_draw_label.c ****             bpp_opa_table_p = _lv_bpp2_opa_table;
 474:Middlewares/lvgl/src/draw/lv_draw_label.c ****             bitmask_init  = 0xC0;
 475:Middlewares/lvgl/src/draw/lv_draw_label.c ****             shades = 4;
 476:Middlewares/lvgl/src/draw/lv_draw_label.c ****             break;
 477:Middlewares/lvgl/src/draw/lv_draw_label.c ****         case 4:
 478:Middlewares/lvgl/src/draw/lv_draw_label.c ****             bpp_opa_table_p = _lv_bpp4_opa_table;
 479:Middlewares/lvgl/src/draw/lv_draw_label.c ****             bitmask_init  = 0xF0;
 480:Middlewares/lvgl/src/draw/lv_draw_label.c ****             shades = 16;
 481:Middlewares/lvgl/src/draw/lv_draw_label.c ****             break;
 482:Middlewares/lvgl/src/draw/lv_draw_label.c ****         case 8:
 483:Middlewares/lvgl/src/draw/lv_draw_label.c ****             bpp_opa_table_p = _lv_bpp8_opa_table;
 484:Middlewares/lvgl/src/draw/lv_draw_label.c ****             bitmask_init  = 0xFF;
 485:Middlewares/lvgl/src/draw/lv_draw_label.c ****             shades = 256;
 486:Middlewares/lvgl/src/draw/lv_draw_label.c ****             break;       /*No opa table, pixel value will be used directly*/
ARM GAS  /tmp/cc9peG0g.s 			page 10


 487:Middlewares/lvgl/src/draw/lv_draw_label.c ****         default:
 488:Middlewares/lvgl/src/draw/lv_draw_label.c ****             LV_LOG_WARN("lv_draw_letter: invalid bpp");
 489:Middlewares/lvgl/src/draw/lv_draw_label.c ****             return; /*Invalid bpp. Can't render the letter*/
 490:Middlewares/lvgl/src/draw/lv_draw_label.c ****     }
 491:Middlewares/lvgl/src/draw/lv_draw_label.c **** 
 492:Middlewares/lvgl/src/draw/lv_draw_label.c ****     static lv_opa_t opa_table[256];
 493:Middlewares/lvgl/src/draw/lv_draw_label.c ****     static lv_opa_t prev_opa = LV_OPA_TRANSP;
 494:Middlewares/lvgl/src/draw/lv_draw_label.c ****     static uint32_t prev_bpp = 0;
 495:Middlewares/lvgl/src/draw/lv_draw_label.c ****     if(opa < LV_OPA_MAX) {
 496:Middlewares/lvgl/src/draw/lv_draw_label.c ****         if(prev_opa != opa || prev_bpp != bpp) {
 497:Middlewares/lvgl/src/draw/lv_draw_label.c ****             uint32_t i;
 498:Middlewares/lvgl/src/draw/lv_draw_label.c ****             for(i = 0; i < shades; i++) {
 499:Middlewares/lvgl/src/draw/lv_draw_label.c ****                 opa_table[i] = bpp_opa_table_p[i] == LV_OPA_COVER ? opa : ((bpp_opa_table_p[i] * op
 500:Middlewares/lvgl/src/draw/lv_draw_label.c ****             }
 501:Middlewares/lvgl/src/draw/lv_draw_label.c ****         }
 502:Middlewares/lvgl/src/draw/lv_draw_label.c ****         bpp_opa_table_p = opa_table;
 503:Middlewares/lvgl/src/draw/lv_draw_label.c ****         prev_opa = opa;
 504:Middlewares/lvgl/src/draw/lv_draw_label.c ****         prev_bpp = bpp;
 505:Middlewares/lvgl/src/draw/lv_draw_label.c ****     }
 506:Middlewares/lvgl/src/draw/lv_draw_label.c **** 
 507:Middlewares/lvgl/src/draw/lv_draw_label.c ****     int32_t col, row;
 508:Middlewares/lvgl/src/draw/lv_draw_label.c ****     int32_t box_w = g->box_w;
 509:Middlewares/lvgl/src/draw/lv_draw_label.c ****     int32_t box_h = g->box_h;
 510:Middlewares/lvgl/src/draw/lv_draw_label.c ****     int32_t width_bit = box_w * bpp; /*Letter width in bits*/
 511:Middlewares/lvgl/src/draw/lv_draw_label.c **** 
 512:Middlewares/lvgl/src/draw/lv_draw_label.c ****     /*Calculate the col/row start/end on the map*/
 513:Middlewares/lvgl/src/draw/lv_draw_label.c ****     int32_t col_start = pos_x >= clip_area->x1 ? 0 : clip_area->x1 - pos_x;
 514:Middlewares/lvgl/src/draw/lv_draw_label.c ****     int32_t col_end   = pos_x + box_w <= clip_area->x2 ? box_w : clip_area->x2 - pos_x + 1;
 515:Middlewares/lvgl/src/draw/lv_draw_label.c ****     int32_t row_start = pos_y >= clip_area->y1 ? 0 : clip_area->y1 - pos_y;
 516:Middlewares/lvgl/src/draw/lv_draw_label.c ****     int32_t row_end   = pos_y + box_h <= clip_area->y2 ? box_h : clip_area->y2 - pos_y + 1;
 517:Middlewares/lvgl/src/draw/lv_draw_label.c **** 
 518:Middlewares/lvgl/src/draw/lv_draw_label.c ****     /*Move on the map too*/
 519:Middlewares/lvgl/src/draw/lv_draw_label.c ****     uint32_t bit_ofs = (row_start * width_bit) + (col_start * bpp);
 520:Middlewares/lvgl/src/draw/lv_draw_label.c ****     map_p += bit_ofs >> 3;
 521:Middlewares/lvgl/src/draw/lv_draw_label.c **** 
 522:Middlewares/lvgl/src/draw/lv_draw_label.c ****     uint8_t letter_px;
 523:Middlewares/lvgl/src/draw/lv_draw_label.c ****     uint32_t col_bit;
 524:Middlewares/lvgl/src/draw/lv_draw_label.c ****     col_bit = bit_ofs & 0x7; /*"& 0x7" equals to "% 8" just faster*/
 525:Middlewares/lvgl/src/draw/lv_draw_label.c **** 
 526:Middlewares/lvgl/src/draw/lv_draw_label.c ****     lv_coord_t hor_res = lv_disp_get_hor_res(_lv_refr_get_disp_refreshing());
 527:Middlewares/lvgl/src/draw/lv_draw_label.c ****     uint32_t mask_buf_size = box_w * box_h > hor_res ? hor_res : box_w * box_h;
 528:Middlewares/lvgl/src/draw/lv_draw_label.c ****     lv_opa_t * mask_buf = lv_mem_buf_get(mask_buf_size);
 529:Middlewares/lvgl/src/draw/lv_draw_label.c ****     int32_t mask_p = 0;
 530:Middlewares/lvgl/src/draw/lv_draw_label.c **** 
 531:Middlewares/lvgl/src/draw/lv_draw_label.c ****     lv_area_t fill_area;
 532:Middlewares/lvgl/src/draw/lv_draw_label.c ****     fill_area.x1 = col_start + pos_x;
 533:Middlewares/lvgl/src/draw/lv_draw_label.c ****     fill_area.x2 = col_end  + pos_x - 1;
 534:Middlewares/lvgl/src/draw/lv_draw_label.c ****     fill_area.y1 = row_start + pos_y;
 535:Middlewares/lvgl/src/draw/lv_draw_label.c ****     fill_area.y2 = fill_area.y1;
 536:Middlewares/lvgl/src/draw/lv_draw_label.c **** #if LV_DRAW_COMPLEX
 537:Middlewares/lvgl/src/draw/lv_draw_label.c ****     uint8_t other_mask_cnt = lv_draw_mask_get_cnt();
 538:Middlewares/lvgl/src/draw/lv_draw_label.c **** #endif
 539:Middlewares/lvgl/src/draw/lv_draw_label.c **** 
 540:Middlewares/lvgl/src/draw/lv_draw_label.c ****     uint32_t col_bit_max = 8 - bpp;
 541:Middlewares/lvgl/src/draw/lv_draw_label.c ****     uint32_t col_bit_row_ofs = (box_w + col_start - col_end) * bpp;
 542:Middlewares/lvgl/src/draw/lv_draw_label.c **** 
 543:Middlewares/lvgl/src/draw/lv_draw_label.c ****     for(row = row_start ; row < row_end; row++) {
ARM GAS  /tmp/cc9peG0g.s 			page 11


 544:Middlewares/lvgl/src/draw/lv_draw_label.c **** #if LV_DRAW_COMPLEX
 545:Middlewares/lvgl/src/draw/lv_draw_label.c ****         int32_t mask_p_start = mask_p;
 546:Middlewares/lvgl/src/draw/lv_draw_label.c **** #endif
 547:Middlewares/lvgl/src/draw/lv_draw_label.c ****         bitmask = bitmask_init >> col_bit;
 548:Middlewares/lvgl/src/draw/lv_draw_label.c ****         for(col = col_start; col < col_end; col++) {
 549:Middlewares/lvgl/src/draw/lv_draw_label.c ****             /*Load the pixel's opacity into the mask*/
 550:Middlewares/lvgl/src/draw/lv_draw_label.c ****             letter_px = (*map_p & bitmask) >> (col_bit_max - col_bit);
 551:Middlewares/lvgl/src/draw/lv_draw_label.c ****             if(letter_px) {
 552:Middlewares/lvgl/src/draw/lv_draw_label.c ****                 mask_buf[mask_p] = bpp_opa_table_p[letter_px];
 553:Middlewares/lvgl/src/draw/lv_draw_label.c ****             }
 554:Middlewares/lvgl/src/draw/lv_draw_label.c ****             else {
 555:Middlewares/lvgl/src/draw/lv_draw_label.c ****                 mask_buf[mask_p] = 0;
 556:Middlewares/lvgl/src/draw/lv_draw_label.c ****             }
 557:Middlewares/lvgl/src/draw/lv_draw_label.c **** 
 558:Middlewares/lvgl/src/draw/lv_draw_label.c ****             /*Go to the next column*/
 559:Middlewares/lvgl/src/draw/lv_draw_label.c ****             if(col_bit < col_bit_max) {
 560:Middlewares/lvgl/src/draw/lv_draw_label.c ****                 col_bit += bpp;
 561:Middlewares/lvgl/src/draw/lv_draw_label.c ****                 bitmask = bitmask >> bpp;
 562:Middlewares/lvgl/src/draw/lv_draw_label.c ****             }
 563:Middlewares/lvgl/src/draw/lv_draw_label.c ****             else {
 564:Middlewares/lvgl/src/draw/lv_draw_label.c ****                 col_bit = 0;
 565:Middlewares/lvgl/src/draw/lv_draw_label.c ****                 bitmask = bitmask_init;
 566:Middlewares/lvgl/src/draw/lv_draw_label.c ****                 map_p++;
 567:Middlewares/lvgl/src/draw/lv_draw_label.c ****             }
 568:Middlewares/lvgl/src/draw/lv_draw_label.c **** 
 569:Middlewares/lvgl/src/draw/lv_draw_label.c ****             /*Next mask byte*/
 570:Middlewares/lvgl/src/draw/lv_draw_label.c ****             mask_p++;
 571:Middlewares/lvgl/src/draw/lv_draw_label.c ****         }
 572:Middlewares/lvgl/src/draw/lv_draw_label.c **** 
 573:Middlewares/lvgl/src/draw/lv_draw_label.c **** #if LV_DRAW_COMPLEX
 574:Middlewares/lvgl/src/draw/lv_draw_label.c ****         /*Apply masks if any*/
 575:Middlewares/lvgl/src/draw/lv_draw_label.c ****         if(other_mask_cnt) {
 576:Middlewares/lvgl/src/draw/lv_draw_label.c ****             lv_draw_mask_res_t mask_res = lv_draw_mask_apply(mask_buf + mask_p_start, fill_area.x1,
 577:Middlewares/lvgl/src/draw/lv_draw_label.c ****                                                              lv_area_get_width(&fill_area));
 578:Middlewares/lvgl/src/draw/lv_draw_label.c ****             if(mask_res == LV_DRAW_MASK_RES_TRANSP) {
 579:Middlewares/lvgl/src/draw/lv_draw_label.c ****                 lv_memset_00(mask_buf + mask_p_start, lv_area_get_width(&fill_area));
 580:Middlewares/lvgl/src/draw/lv_draw_label.c ****             }
 581:Middlewares/lvgl/src/draw/lv_draw_label.c ****         }
 582:Middlewares/lvgl/src/draw/lv_draw_label.c **** #endif
 583:Middlewares/lvgl/src/draw/lv_draw_label.c **** 
 584:Middlewares/lvgl/src/draw/lv_draw_label.c ****         if((uint32_t) mask_p + (col_end - col_start) < mask_buf_size) {
 585:Middlewares/lvgl/src/draw/lv_draw_label.c ****             fill_area.y2 ++;
 586:Middlewares/lvgl/src/draw/lv_draw_label.c ****         }
 587:Middlewares/lvgl/src/draw/lv_draw_label.c ****         else {
 588:Middlewares/lvgl/src/draw/lv_draw_label.c ****             _lv_blend_fill(clip_area, &fill_area,
 589:Middlewares/lvgl/src/draw/lv_draw_label.c ****                            color, mask_buf, LV_DRAW_MASK_RES_CHANGED, LV_OPA_COVER,
 590:Middlewares/lvgl/src/draw/lv_draw_label.c ****                            blend_mode);
 591:Middlewares/lvgl/src/draw/lv_draw_label.c **** 
 592:Middlewares/lvgl/src/draw/lv_draw_label.c ****             fill_area.y1 = fill_area.y2 + 1;
 593:Middlewares/lvgl/src/draw/lv_draw_label.c ****             fill_area.y2 = fill_area.y1;
 594:Middlewares/lvgl/src/draw/lv_draw_label.c ****             mask_p = 0;
 595:Middlewares/lvgl/src/draw/lv_draw_label.c ****         }
 596:Middlewares/lvgl/src/draw/lv_draw_label.c **** 
 597:Middlewares/lvgl/src/draw/lv_draw_label.c ****         col_bit += col_bit_row_ofs;
 598:Middlewares/lvgl/src/draw/lv_draw_label.c ****         map_p += (col_bit >> 3);
 599:Middlewares/lvgl/src/draw/lv_draw_label.c ****         col_bit = col_bit & 0x7;
 600:Middlewares/lvgl/src/draw/lv_draw_label.c ****     }
ARM GAS  /tmp/cc9peG0g.s 			page 12


 601:Middlewares/lvgl/src/draw/lv_draw_label.c **** 
 602:Middlewares/lvgl/src/draw/lv_draw_label.c ****     /*Flush the last part*/
 603:Middlewares/lvgl/src/draw/lv_draw_label.c ****     if(fill_area.y1 != fill_area.y2) {
 604:Middlewares/lvgl/src/draw/lv_draw_label.c ****         fill_area.y2--;
 605:Middlewares/lvgl/src/draw/lv_draw_label.c ****         _lv_blend_fill(clip_area, &fill_area,
 606:Middlewares/lvgl/src/draw/lv_draw_label.c ****                        color, mask_buf, LV_DRAW_MASK_RES_CHANGED, LV_OPA_COVER,
 607:Middlewares/lvgl/src/draw/lv_draw_label.c ****                        blend_mode);
 608:Middlewares/lvgl/src/draw/lv_draw_label.c ****         mask_p = 0;
 609:Middlewares/lvgl/src/draw/lv_draw_label.c ****     }
 610:Middlewares/lvgl/src/draw/lv_draw_label.c **** 
 611:Middlewares/lvgl/src/draw/lv_draw_label.c ****     lv_mem_buf_release(mask_buf);
 612:Middlewares/lvgl/src/draw/lv_draw_label.c **** }
 613:Middlewares/lvgl/src/draw/lv_draw_label.c **** 
 614:Middlewares/lvgl/src/draw/lv_draw_label.c **** #if LV_DRAW_COMPLEX && LV_USE_FONT_SUBPX
 615:Middlewares/lvgl/src/draw/lv_draw_label.c **** static void draw_letter_subpx(lv_coord_t pos_x, lv_coord_t pos_y, lv_font_glyph_dsc_t * g, const lv
 616:Middlewares/lvgl/src/draw/lv_draw_label.c ****                               const uint8_t * map_p, lv_color_t color, lv_opa_t opa, lv_blend_mode_
 617:Middlewares/lvgl/src/draw/lv_draw_label.c **** {
 618:Middlewares/lvgl/src/draw/lv_draw_label.c ****     const uint8_t * bpp_opa_table;
 619:Middlewares/lvgl/src/draw/lv_draw_label.c ****     uint32_t bitmask_init;
 620:Middlewares/lvgl/src/draw/lv_draw_label.c ****     uint32_t bitmask;
 621:Middlewares/lvgl/src/draw/lv_draw_label.c ****     uint32_t bpp = g->bpp;
 622:Middlewares/lvgl/src/draw/lv_draw_label.c ****     if(bpp == 3) bpp = 4;
 623:Middlewares/lvgl/src/draw/lv_draw_label.c **** 
 624:Middlewares/lvgl/src/draw/lv_draw_label.c ****     switch(bpp) {
 625:Middlewares/lvgl/src/draw/lv_draw_label.c ****         case 1:
 626:Middlewares/lvgl/src/draw/lv_draw_label.c ****             bpp_opa_table = _lv_bpp1_opa_table;
 627:Middlewares/lvgl/src/draw/lv_draw_label.c ****             bitmask_init  = 0x80;
 628:Middlewares/lvgl/src/draw/lv_draw_label.c ****             break;
 629:Middlewares/lvgl/src/draw/lv_draw_label.c ****         case 2:
 630:Middlewares/lvgl/src/draw/lv_draw_label.c ****             bpp_opa_table = _lv_bpp2_opa_table;
 631:Middlewares/lvgl/src/draw/lv_draw_label.c ****             bitmask_init  = 0xC0;
 632:Middlewares/lvgl/src/draw/lv_draw_label.c ****             break;
 633:Middlewares/lvgl/src/draw/lv_draw_label.c ****         case 4:
 634:Middlewares/lvgl/src/draw/lv_draw_label.c ****             bpp_opa_table = _lv_bpp4_opa_table;
 635:Middlewares/lvgl/src/draw/lv_draw_label.c ****             bitmask_init  = 0xF0;
 636:Middlewares/lvgl/src/draw/lv_draw_label.c ****             break;
 637:Middlewares/lvgl/src/draw/lv_draw_label.c ****         case 8:
 638:Middlewares/lvgl/src/draw/lv_draw_label.c ****             bpp_opa_table = _lv_bpp8_opa_table;
 639:Middlewares/lvgl/src/draw/lv_draw_label.c ****             bitmask_init  = 0xFF;
 640:Middlewares/lvgl/src/draw/lv_draw_label.c ****             break;       /*No opa table, pixel value will be used directly*/
 641:Middlewares/lvgl/src/draw/lv_draw_label.c ****         default:
 642:Middlewares/lvgl/src/draw/lv_draw_label.c ****             LV_LOG_WARN("lv_draw_letter: invalid bpp not found");
 643:Middlewares/lvgl/src/draw/lv_draw_label.c ****             return; /*Invalid bpp. Can't render the letter*/
 644:Middlewares/lvgl/src/draw/lv_draw_label.c ****     }
 645:Middlewares/lvgl/src/draw/lv_draw_label.c **** 
 646:Middlewares/lvgl/src/draw/lv_draw_label.c ****     int32_t col, row;
 647:Middlewares/lvgl/src/draw/lv_draw_label.c **** 
 648:Middlewares/lvgl/src/draw/lv_draw_label.c ****     int32_t box_w = g->box_w;
 649:Middlewares/lvgl/src/draw/lv_draw_label.c ****     int32_t box_h = g->box_h;
 650:Middlewares/lvgl/src/draw/lv_draw_label.c ****     int32_t width_bit = box_w * bpp; /*Letter width in bits*/
 651:Middlewares/lvgl/src/draw/lv_draw_label.c **** 
 652:Middlewares/lvgl/src/draw/lv_draw_label.c ****     /*Calculate the col/row start/end on the map*/
 653:Middlewares/lvgl/src/draw/lv_draw_label.c ****     int32_t col_start = pos_x >= clip_area->x1 ? 0 : (clip_area->x1 - pos_x) * 3;
 654:Middlewares/lvgl/src/draw/lv_draw_label.c ****     int32_t col_end   = pos_x + box_w / 3 <= clip_area->x2 ? box_w : (clip_area->x2 - pos_x + 1) * 
 655:Middlewares/lvgl/src/draw/lv_draw_label.c ****     int32_t row_start = pos_y >= clip_area->y1 ? 0 : clip_area->y1 - pos_y;
 656:Middlewares/lvgl/src/draw/lv_draw_label.c ****     int32_t row_end   = pos_y + box_h <= clip_area->y2 ? box_h : clip_area->y2 - pos_y + 1;
 657:Middlewares/lvgl/src/draw/lv_draw_label.c **** 
ARM GAS  /tmp/cc9peG0g.s 			page 13


 658:Middlewares/lvgl/src/draw/lv_draw_label.c ****     /*Move on the map too*/
 659:Middlewares/lvgl/src/draw/lv_draw_label.c ****     int32_t bit_ofs = (row_start * width_bit) + (col_start * bpp);
 660:Middlewares/lvgl/src/draw/lv_draw_label.c ****     map_p += bit_ofs >> 3;
 661:Middlewares/lvgl/src/draw/lv_draw_label.c **** 
 662:Middlewares/lvgl/src/draw/lv_draw_label.c ****     uint8_t letter_px;
 663:Middlewares/lvgl/src/draw/lv_draw_label.c ****     lv_opa_t px_opa;
 664:Middlewares/lvgl/src/draw/lv_draw_label.c ****     int32_t col_bit;
 665:Middlewares/lvgl/src/draw/lv_draw_label.c ****     col_bit = bit_ofs & 0x7; /*"& 0x7" equals to "% 8" just faster*/
 666:Middlewares/lvgl/src/draw/lv_draw_label.c **** 
 667:Middlewares/lvgl/src/draw/lv_draw_label.c ****     lv_area_t map_area;
 668:Middlewares/lvgl/src/draw/lv_draw_label.c ****     map_area.x1 = col_start / 3 + pos_x;
 669:Middlewares/lvgl/src/draw/lv_draw_label.c ****     map_area.x2 = col_end / 3  + pos_x - 1;
 670:Middlewares/lvgl/src/draw/lv_draw_label.c ****     map_area.y1 = row_start + pos_y;
 671:Middlewares/lvgl/src/draw/lv_draw_label.c ****     map_area.y2 = map_area.y1;
 672:Middlewares/lvgl/src/draw/lv_draw_label.c **** 
 673:Middlewares/lvgl/src/draw/lv_draw_label.c ****     if(map_area.x2 <= map_area.x1) return;
 674:Middlewares/lvgl/src/draw/lv_draw_label.c **** 
 675:Middlewares/lvgl/src/draw/lv_draw_label.c ****     int32_t mask_buf_size = box_w * box_h > _LV_MASK_BUF_MAX_SIZE ? _LV_MASK_BUF_MAX_SIZE : g->box_
 676:Middlewares/lvgl/src/draw/lv_draw_label.c ****     lv_opa_t * mask_buf = lv_mem_buf_get(mask_buf_size);
 677:Middlewares/lvgl/src/draw/lv_draw_label.c ****     int32_t mask_p = 0;
 678:Middlewares/lvgl/src/draw/lv_draw_label.c **** 
 679:Middlewares/lvgl/src/draw/lv_draw_label.c ****     lv_color_t * color_buf = lv_mem_buf_get(mask_buf_size * sizeof(lv_color_t));
 680:Middlewares/lvgl/src/draw/lv_draw_label.c **** 
 681:Middlewares/lvgl/src/draw/lv_draw_label.c ****     lv_disp_t * disp = _lv_refr_get_disp_refreshing();
 682:Middlewares/lvgl/src/draw/lv_draw_label.c ****     lv_disp_draw_buf_t * draw_buf = lv_disp_get_draw_buf(disp);
 683:Middlewares/lvgl/src/draw/lv_draw_label.c **** 
 684:Middlewares/lvgl/src/draw/lv_draw_label.c ****     int32_t disp_buf_width = lv_area_get_width(&draw_buf->area);
 685:Middlewares/lvgl/src/draw/lv_draw_label.c ****     lv_color_t * disp_buf_buf_tmp = draw_buf->buf_act;
 686:Middlewares/lvgl/src/draw/lv_draw_label.c **** 
 687:Middlewares/lvgl/src/draw/lv_draw_label.c ****     /*Set a pointer on draw_buf to the first pixel of the letter*/
 688:Middlewares/lvgl/src/draw/lv_draw_label.c ****     disp_buf_buf_tmp += ((pos_y - draw_buf->area.y1) * disp_buf_width) + pos_x - draw_buf->area.x1;
 689:Middlewares/lvgl/src/draw/lv_draw_label.c **** 
 690:Middlewares/lvgl/src/draw/lv_draw_label.c ****     /*If the letter is partially out of mask the move there on draw_buf*/
 691:Middlewares/lvgl/src/draw/lv_draw_label.c ****     disp_buf_buf_tmp += (row_start * disp_buf_width) + col_start / 3;
 692:Middlewares/lvgl/src/draw/lv_draw_label.c **** 
 693:Middlewares/lvgl/src/draw/lv_draw_label.c ****     uint8_t other_mask_cnt = lv_draw_mask_get_cnt();
 694:Middlewares/lvgl/src/draw/lv_draw_label.c **** 
 695:Middlewares/lvgl/src/draw/lv_draw_label.c ****     uint8_t font_rgb[3];
 696:Middlewares/lvgl/src/draw/lv_draw_label.c **** 
 697:Middlewares/lvgl/src/draw/lv_draw_label.c **** #if LV_COLOR_16_SWAP == 0
 698:Middlewares/lvgl/src/draw/lv_draw_label.c ****     uint8_t txt_rgb[3] = {color.ch.red, color.ch.green, color.ch.blue};
 699:Middlewares/lvgl/src/draw/lv_draw_label.c **** #else
 700:Middlewares/lvgl/src/draw/lv_draw_label.c ****     uint8_t txt_rgb[3] = {color.ch.red, (color.ch.green_h << 3) + color.ch.green_l, color.ch.blue};
 701:Middlewares/lvgl/src/draw/lv_draw_label.c **** #endif
 702:Middlewares/lvgl/src/draw/lv_draw_label.c **** 
 703:Middlewares/lvgl/src/draw/lv_draw_label.c ****     for(row = row_start ; row < row_end; row++) {
 704:Middlewares/lvgl/src/draw/lv_draw_label.c ****         uint32_t subpx_cnt = 0;
 705:Middlewares/lvgl/src/draw/lv_draw_label.c ****         bitmask = bitmask_init >> col_bit;
 706:Middlewares/lvgl/src/draw/lv_draw_label.c ****         int32_t mask_p_start = mask_p;
 707:Middlewares/lvgl/src/draw/lv_draw_label.c **** 
 708:Middlewares/lvgl/src/draw/lv_draw_label.c ****         for(col = col_start; col < col_end; col++) {
 709:Middlewares/lvgl/src/draw/lv_draw_label.c ****             /*Load the pixel's opacity into the mask*/
 710:Middlewares/lvgl/src/draw/lv_draw_label.c ****             letter_px = (*map_p & bitmask) >> (8 - col_bit - bpp);
 711:Middlewares/lvgl/src/draw/lv_draw_label.c ****             if(letter_px != 0) {
 712:Middlewares/lvgl/src/draw/lv_draw_label.c ****                 if(opa == LV_OPA_COVER) {
 713:Middlewares/lvgl/src/draw/lv_draw_label.c ****                     px_opa = bpp == 8 ? letter_px : bpp_opa_table[letter_px];
 714:Middlewares/lvgl/src/draw/lv_draw_label.c ****                 }
ARM GAS  /tmp/cc9peG0g.s 			page 14


 715:Middlewares/lvgl/src/draw/lv_draw_label.c ****                 else {
 716:Middlewares/lvgl/src/draw/lv_draw_label.c ****                     px_opa = bpp == 8 ? (uint32_t)((uint32_t)letter_px * opa) >> 8
 717:Middlewares/lvgl/src/draw/lv_draw_label.c ****                              : (uint32_t)((uint32_t)bpp_opa_table[letter_px] * opa) >> 8;
 718:Middlewares/lvgl/src/draw/lv_draw_label.c ****                 }
 719:Middlewares/lvgl/src/draw/lv_draw_label.c ****             }
 720:Middlewares/lvgl/src/draw/lv_draw_label.c ****             else {
 721:Middlewares/lvgl/src/draw/lv_draw_label.c ****                 px_opa = 0;
 722:Middlewares/lvgl/src/draw/lv_draw_label.c ****             }
 723:Middlewares/lvgl/src/draw/lv_draw_label.c **** 
 724:Middlewares/lvgl/src/draw/lv_draw_label.c ****             font_rgb[subpx_cnt] = px_opa;
 725:Middlewares/lvgl/src/draw/lv_draw_label.c **** 
 726:Middlewares/lvgl/src/draw/lv_draw_label.c ****             subpx_cnt ++;
 727:Middlewares/lvgl/src/draw/lv_draw_label.c ****             if(subpx_cnt == 3) {
 728:Middlewares/lvgl/src/draw/lv_draw_label.c ****                 subpx_cnt = 0;
 729:Middlewares/lvgl/src/draw/lv_draw_label.c **** 
 730:Middlewares/lvgl/src/draw/lv_draw_label.c ****                 lv_color_t res_color;
 731:Middlewares/lvgl/src/draw/lv_draw_label.c **** #if LV_COLOR_16_SWAP == 0
 732:Middlewares/lvgl/src/draw/lv_draw_label.c ****                 uint8_t bg_rgb[3] = {disp_buf_buf_tmp->ch.red, disp_buf_buf_tmp->ch.green, disp_buf
 733:Middlewares/lvgl/src/draw/lv_draw_label.c **** #else
 734:Middlewares/lvgl/src/draw/lv_draw_label.c ****                 uint8_t bg_rgb[3] = {disp_buf_buf_tmp->ch.red,
 735:Middlewares/lvgl/src/draw/lv_draw_label.c ****                                      (disp_buf_buf_tmp->ch.green_h << 3) + disp_buf_buf_tmp->ch.gre
 736:Middlewares/lvgl/src/draw/lv_draw_label.c ****                                      disp_buf_buf_tmp->ch.blue
 737:Middlewares/lvgl/src/draw/lv_draw_label.c ****                                     };
 738:Middlewares/lvgl/src/draw/lv_draw_label.c **** #endif
 739:Middlewares/lvgl/src/draw/lv_draw_label.c **** 
 740:Middlewares/lvgl/src/draw/lv_draw_label.c **** #if LV_FONT_SUBPX_BGR
 741:Middlewares/lvgl/src/draw/lv_draw_label.c ****                 res_color.ch.blue = (uint32_t)((uint32_t)txt_rgb[0] * font_rgb[0] + (bg_rgb[0] * (2
 742:Middlewares/lvgl/src/draw/lv_draw_label.c ****                 res_color.ch.red = (uint32_t)((uint32_t)txt_rgb[2] * font_rgb[2] + (bg_rgb[2] * (25
 743:Middlewares/lvgl/src/draw/lv_draw_label.c **** #else
 744:Middlewares/lvgl/src/draw/lv_draw_label.c ****                 res_color.ch.red = (uint32_t)((uint16_t)txt_rgb[0] * font_rgb[0] + (bg_rgb[0] * (25
 745:Middlewares/lvgl/src/draw/lv_draw_label.c ****                 res_color.ch.blue = (uint32_t)((uint16_t)txt_rgb[2] * font_rgb[2] + (bg_rgb[2] * (2
 746:Middlewares/lvgl/src/draw/lv_draw_label.c **** #endif
 747:Middlewares/lvgl/src/draw/lv_draw_label.c **** 
 748:Middlewares/lvgl/src/draw/lv_draw_label.c **** #if LV_COLOR_16_SWAP == 0
 749:Middlewares/lvgl/src/draw/lv_draw_label.c ****                 res_color.ch.green = (uint32_t)((uint32_t)txt_rgb[1] * font_rgb[1] + (bg_rgb[1] * (
 750:Middlewares/lvgl/src/draw/lv_draw_label.c **** #else
 751:Middlewares/lvgl/src/draw/lv_draw_label.c ****                 uint8_t green = (uint32_t)((uint32_t)txt_rgb[1] * font_rgb[1] + (bg_rgb[1] * (255 -
 752:Middlewares/lvgl/src/draw/lv_draw_label.c ****                 res_color.ch.green_h = green >> 3;
 753:Middlewares/lvgl/src/draw/lv_draw_label.c ****                 res_color.ch.green_l = green & 0x7;
 754:Middlewares/lvgl/src/draw/lv_draw_label.c **** #endif
 755:Middlewares/lvgl/src/draw/lv_draw_label.c **** 
 756:Middlewares/lvgl/src/draw/lv_draw_label.c **** #if LV_COLOR_DEPTH == 32
 757:Middlewares/lvgl/src/draw/lv_draw_label.c ****                 res_color.ch.alpha =  0xff;
 758:Middlewares/lvgl/src/draw/lv_draw_label.c **** #endif
 759:Middlewares/lvgl/src/draw/lv_draw_label.c **** 
 760:Middlewares/lvgl/src/draw/lv_draw_label.c ****                 if(font_rgb[0] == 0 && font_rgb[1] == 0 && font_rgb[2] == 0) mask_buf[mask_p] = LV_
 761:Middlewares/lvgl/src/draw/lv_draw_label.c ****                 else mask_buf[mask_p] = LV_OPA_COVER;
 762:Middlewares/lvgl/src/draw/lv_draw_label.c ****                 color_buf[mask_p] = res_color;
 763:Middlewares/lvgl/src/draw/lv_draw_label.c **** 
 764:Middlewares/lvgl/src/draw/lv_draw_label.c ****                 /*Next mask byte*/
 765:Middlewares/lvgl/src/draw/lv_draw_label.c ****                 mask_p++;
 766:Middlewares/lvgl/src/draw/lv_draw_label.c ****                 disp_buf_buf_tmp++;
 767:Middlewares/lvgl/src/draw/lv_draw_label.c ****             }
 768:Middlewares/lvgl/src/draw/lv_draw_label.c **** 
 769:Middlewares/lvgl/src/draw/lv_draw_label.c ****             /*Go to the next column*/
 770:Middlewares/lvgl/src/draw/lv_draw_label.c ****             if(col_bit < (int32_t)(8 - bpp)) {
 771:Middlewares/lvgl/src/draw/lv_draw_label.c ****                 col_bit += bpp;
ARM GAS  /tmp/cc9peG0g.s 			page 15


 772:Middlewares/lvgl/src/draw/lv_draw_label.c ****                 bitmask = bitmask >> bpp;
 773:Middlewares/lvgl/src/draw/lv_draw_label.c ****             }
 774:Middlewares/lvgl/src/draw/lv_draw_label.c ****             else {
 775:Middlewares/lvgl/src/draw/lv_draw_label.c ****                 col_bit = 0;
 776:Middlewares/lvgl/src/draw/lv_draw_label.c ****                 bitmask = bitmask_init;
 777:Middlewares/lvgl/src/draw/lv_draw_label.c ****                 map_p++;
 778:Middlewares/lvgl/src/draw/lv_draw_label.c ****             }
 779:Middlewares/lvgl/src/draw/lv_draw_label.c ****         }
 780:Middlewares/lvgl/src/draw/lv_draw_label.c **** 
 781:Middlewares/lvgl/src/draw/lv_draw_label.c ****         /*Apply masks if any*/
 782:Middlewares/lvgl/src/draw/lv_draw_label.c ****         if(other_mask_cnt) {
 783:Middlewares/lvgl/src/draw/lv_draw_label.c ****             lv_draw_mask_res_t mask_res = lv_draw_mask_apply(mask_buf + mask_p_start, map_area.x1, 
 784:Middlewares/lvgl/src/draw/lv_draw_label.c ****                                                              lv_area_get_width(&map_area));
 785:Middlewares/lvgl/src/draw/lv_draw_label.c ****             if(mask_res == LV_DRAW_MASK_RES_TRANSP) {
 786:Middlewares/lvgl/src/draw/lv_draw_label.c ****                 lv_memset_00(mask_buf + mask_p_start, lv_area_get_width(&map_area));
 787:Middlewares/lvgl/src/draw/lv_draw_label.c ****             }
 788:Middlewares/lvgl/src/draw/lv_draw_label.c ****         }
 789:Middlewares/lvgl/src/draw/lv_draw_label.c **** 
 790:Middlewares/lvgl/src/draw/lv_draw_label.c ****         if((int32_t) mask_p + (col_end - col_start) < mask_buf_size) {
 791:Middlewares/lvgl/src/draw/lv_draw_label.c ****             map_area.y2 ++;
 792:Middlewares/lvgl/src/draw/lv_draw_label.c ****         }
 793:Middlewares/lvgl/src/draw/lv_draw_label.c ****         else {
 794:Middlewares/lvgl/src/draw/lv_draw_label.c ****             _lv_blend_map(clip_area, &map_area, color_buf, mask_buf, LV_DRAW_MASK_RES_CHANGED, opa,
 795:Middlewares/lvgl/src/draw/lv_draw_label.c **** 
 796:Middlewares/lvgl/src/draw/lv_draw_label.c ****             map_area.y1 = map_area.y2 + 1;
 797:Middlewares/lvgl/src/draw/lv_draw_label.c ****             map_area.y2 = map_area.y1;
 798:Middlewares/lvgl/src/draw/lv_draw_label.c ****             mask_p = 0;
 799:Middlewares/lvgl/src/draw/lv_draw_label.c ****         }
 800:Middlewares/lvgl/src/draw/lv_draw_label.c **** 
 801:Middlewares/lvgl/src/draw/lv_draw_label.c ****         col_bit += ((box_w - col_end) + col_start) * bpp;
 802:Middlewares/lvgl/src/draw/lv_draw_label.c **** 
 803:Middlewares/lvgl/src/draw/lv_draw_label.c ****         map_p += (col_bit >> 3);
 804:Middlewares/lvgl/src/draw/lv_draw_label.c ****         col_bit = col_bit & 0x7;
 805:Middlewares/lvgl/src/draw/lv_draw_label.c **** 
 806:Middlewares/lvgl/src/draw/lv_draw_label.c ****         /*Next row in draw_buf*/
 807:Middlewares/lvgl/src/draw/lv_draw_label.c ****         disp_buf_buf_tmp += disp_buf_width - (col_end - col_start) / 3;
 808:Middlewares/lvgl/src/draw/lv_draw_label.c ****     }
 809:Middlewares/lvgl/src/draw/lv_draw_label.c **** 
 810:Middlewares/lvgl/src/draw/lv_draw_label.c ****     /*Flush the last part*/
 811:Middlewares/lvgl/src/draw/lv_draw_label.c ****     if(map_area.y1 != map_area.y2) {
 812:Middlewares/lvgl/src/draw/lv_draw_label.c ****         map_area.y2--;
 813:Middlewares/lvgl/src/draw/lv_draw_label.c ****         _lv_blend_map(clip_area, &map_area, color_buf, mask_buf, LV_DRAW_MASK_RES_CHANGED, opa, ble
 814:Middlewares/lvgl/src/draw/lv_draw_label.c ****     }
 815:Middlewares/lvgl/src/draw/lv_draw_label.c **** 
 816:Middlewares/lvgl/src/draw/lv_draw_label.c ****     lv_mem_buf_release(mask_buf);
 817:Middlewares/lvgl/src/draw/lv_draw_label.c ****     lv_mem_buf_release(color_buf);
 818:Middlewares/lvgl/src/draw/lv_draw_label.c **** }
 819:Middlewares/lvgl/src/draw/lv_draw_label.c **** #endif
 820:Middlewares/lvgl/src/draw/lv_draw_label.c **** 
 821:Middlewares/lvgl/src/draw/lv_draw_label.c **** /**
 822:Middlewares/lvgl/src/draw/lv_draw_label.c ****  * Convert a hexadecimal characters to a number (0..15)
 823:Middlewares/lvgl/src/draw/lv_draw_label.c ****  * @param hex Pointer to a hexadecimal character (0..9, A..F)
 824:Middlewares/lvgl/src/draw/lv_draw_label.c ****  * @return the numerical value of `hex` or 0 on error
 825:Middlewares/lvgl/src/draw/lv_draw_label.c ****  */
 826:Middlewares/lvgl/src/draw/lv_draw_label.c **** static uint8_t hex_char_to_num(char hex)
 827:Middlewares/lvgl/src/draw/lv_draw_label.c **** {
  29              		.loc 1 827 1 view -0
ARM GAS  /tmp/cc9peG0g.s 			page 16


  30              		.cfi_startproc
  31              		@ args = 0, pretend = 0, frame = 0
  32              		@ frame_needed = 0, uses_anonymous_args = 0
  33              		@ link register save eliminated.
  34              		.loc 1 827 1 is_stmt 0 view .LVU1
  35 0000 0346     		mov	r3, r0
 828:Middlewares/lvgl/src/draw/lv_draw_label.c ****     uint8_t result = 0;
  36              		.loc 1 828 5 is_stmt 1 view .LVU2
  37              	.LVL1:
 829:Middlewares/lvgl/src/draw/lv_draw_label.c **** 
 830:Middlewares/lvgl/src/draw/lv_draw_label.c ****     if(hex >= '0' && hex <= '9') {
  38              		.loc 1 830 5 view .LVU3
  39              		.loc 1 830 19 is_stmt 0 view .LVU4
  40 0002 3038     		subs	r0, r0, #48
  41              	.LVL2:
  42              		.loc 1 830 19 view .LVU5
  43 0004 C0B2     		uxtb	r0, r0
  44              		.loc 1 830 7 view .LVU6
  45 0006 0928     		cmp	r0, #9
  46 0008 18D9     		bls	.L2
 831:Middlewares/lvgl/src/draw/lv_draw_label.c ****         result = hex - '0';
 832:Middlewares/lvgl/src/draw/lv_draw_label.c ****     }
 833:Middlewares/lvgl/src/draw/lv_draw_label.c ****     else {
 834:Middlewares/lvgl/src/draw/lv_draw_label.c ****         if(hex >= 'a') hex -= 'a' - 'A'; /*Convert to upper case*/
  47              		.loc 1 834 9 is_stmt 1 view .LVU7
  48              		.loc 1 834 11 is_stmt 0 view .LVU8
  49 000a 602B     		cmp	r3, #96
  50 000c 01D9     		bls	.L3
  51              		.loc 1 834 24 is_stmt 1 discriminator 1 view .LVU9
  52              		.loc 1 834 28 is_stmt 0 discriminator 1 view .LVU10
  53 000e 203B     		subs	r3, r3, #32
  54 0010 DBB2     		uxtb	r3, r3
  55              	.LVL3:
  56              	.L3:
 835:Middlewares/lvgl/src/draw/lv_draw_label.c **** 
 836:Middlewares/lvgl/src/draw/lv_draw_label.c ****         switch(hex) {
  57              		.loc 1 836 9 is_stmt 1 view .LVU11
  58 0012 413B     		subs	r3, r3, #65
  59              	.LVL4:
  60              		.loc 1 836 9 is_stmt 0 view .LVU12
  61 0014 052B     		cmp	r3, #5
  62 0016 0ED8     		bhi	.L4
  63 0018 DFE803F0 		tbb	[pc, r3]
  64              	.L6:
  65 001c 03       		.byte	(.L10-.L6)/2
  66 001d 0F       		.byte	(.L11-.L6)/2
  67 001e 05       		.byte	(.L9-.L6)/2
  68 001f 07       		.byte	(.L8-.L6)/2
  69 0020 09       		.byte	(.L7-.L6)/2
  70 0021 0B       		.byte	(.L5-.L6)/2
  71              		.p2align 1
  72              	.L10:
 837:Middlewares/lvgl/src/draw/lv_draw_label.c ****             case 'A':
 838:Middlewares/lvgl/src/draw/lv_draw_label.c ****                 result = 10;
 839:Middlewares/lvgl/src/draw/lv_draw_label.c ****                 break;
 840:Middlewares/lvgl/src/draw/lv_draw_label.c ****             case 'B':
 841:Middlewares/lvgl/src/draw/lv_draw_label.c ****                 result = 11;
ARM GAS  /tmp/cc9peG0g.s 			page 17


 842:Middlewares/lvgl/src/draw/lv_draw_label.c ****                 break;
 843:Middlewares/lvgl/src/draw/lv_draw_label.c ****             case 'C':
 844:Middlewares/lvgl/src/draw/lv_draw_label.c ****                 result = 12;
 845:Middlewares/lvgl/src/draw/lv_draw_label.c ****                 break;
 846:Middlewares/lvgl/src/draw/lv_draw_label.c ****             case 'D':
 847:Middlewares/lvgl/src/draw/lv_draw_label.c ****                 result = 13;
 848:Middlewares/lvgl/src/draw/lv_draw_label.c ****                 break;
 849:Middlewares/lvgl/src/draw/lv_draw_label.c ****             case 'E':
 850:Middlewares/lvgl/src/draw/lv_draw_label.c ****                 result = 14;
 851:Middlewares/lvgl/src/draw/lv_draw_label.c ****                 break;
 852:Middlewares/lvgl/src/draw/lv_draw_label.c ****             case 'F':
 853:Middlewares/lvgl/src/draw/lv_draw_label.c ****                 result = 15;
  73              		.loc 1 853 24 view .LVU13
  74 0022 0A20     		movs	r0, #10
  75 0024 7047     		bx	lr
  76              	.L9:
 844:Middlewares/lvgl/src/draw/lv_draw_label.c ****                 break;
  77              		.loc 1 844 17 is_stmt 1 view .LVU14
  78              	.LVL5:
 845:Middlewares/lvgl/src/draw/lv_draw_label.c ****             case 'D':
  79              		.loc 1 845 17 view .LVU15
 844:Middlewares/lvgl/src/draw/lv_draw_label.c ****                 break;
  80              		.loc 1 844 24 is_stmt 0 view .LVU16
  81 0026 0C20     		movs	r0, #12
 845:Middlewares/lvgl/src/draw/lv_draw_label.c ****             case 'D':
  82              		.loc 1 845 17 view .LVU17
  83 0028 7047     		bx	lr
  84              	.LVL6:
  85              	.L8:
 847:Middlewares/lvgl/src/draw/lv_draw_label.c ****                 break;
  86              		.loc 1 847 17 is_stmt 1 view .LVU18
 848:Middlewares/lvgl/src/draw/lv_draw_label.c ****             case 'E':
  87              		.loc 1 848 17 view .LVU19
 847:Middlewares/lvgl/src/draw/lv_draw_label.c ****                 break;
  88              		.loc 1 847 24 is_stmt 0 view .LVU20
  89 002a 0D20     		movs	r0, #13
 848:Middlewares/lvgl/src/draw/lv_draw_label.c ****             case 'E':
  90              		.loc 1 848 17 view .LVU21
  91 002c 7047     		bx	lr
  92              	.LVL7:
  93              	.L7:
 850:Middlewares/lvgl/src/draw/lv_draw_label.c ****                 break;
  94              		.loc 1 850 17 is_stmt 1 view .LVU22
 851:Middlewares/lvgl/src/draw/lv_draw_label.c ****             case 'F':
  95              		.loc 1 851 17 view .LVU23
 850:Middlewares/lvgl/src/draw/lv_draw_label.c ****                 break;
  96              		.loc 1 850 24 is_stmt 0 view .LVU24
  97 002e 0E20     		movs	r0, #14
 851:Middlewares/lvgl/src/draw/lv_draw_label.c ****             case 'F':
  98              		.loc 1 851 17 view .LVU25
  99 0030 7047     		bx	lr
 100              	.LVL8:
 101              	.L5:
 102              		.loc 1 853 17 is_stmt 1 view .LVU26
 854:Middlewares/lvgl/src/draw/lv_draw_label.c ****                 break;
 103              		.loc 1 854 17 view .LVU27
 853:Middlewares/lvgl/src/draw/lv_draw_label.c ****                 break;
ARM GAS  /tmp/cc9peG0g.s 			page 18


 104              		.loc 1 853 24 is_stmt 0 view .LVU28
 105 0032 0F20     		movs	r0, #15
 106              		.loc 1 854 17 view .LVU29
 107 0034 7047     		bx	lr
 108              	.LVL9:
 109              	.L4:
 855:Middlewares/lvgl/src/draw/lv_draw_label.c ****             default:
 856:Middlewares/lvgl/src/draw/lv_draw_label.c ****                 result = 0;
 110              		.loc 1 856 17 is_stmt 1 view .LVU30
 857:Middlewares/lvgl/src/draw/lv_draw_label.c ****                 break;
 111              		.loc 1 857 17 view .LVU31
 856:Middlewares/lvgl/src/draw/lv_draw_label.c ****                 break;
 112              		.loc 1 856 24 is_stmt 0 view .LVU32
 113 0036 0020     		movs	r0, #0
 114              		.loc 1 857 17 view .LVU33
 115 0038 7047     		bx	lr
 116              	.L11:
 841:Middlewares/lvgl/src/draw/lv_draw_label.c ****                 break;
 117              		.loc 1 841 24 view .LVU34
 118 003a 0B20     		movs	r0, #11
 119              	.L2:
 120              	.LVL10:
 858:Middlewares/lvgl/src/draw/lv_draw_label.c ****         }
 859:Middlewares/lvgl/src/draw/lv_draw_label.c ****     }
 860:Middlewares/lvgl/src/draw/lv_draw_label.c **** 
 861:Middlewares/lvgl/src/draw/lv_draw_label.c ****     return result;
 121              		.loc 1 861 5 is_stmt 1 view .LVU35
 862:Middlewares/lvgl/src/draw/lv_draw_label.c **** }
 122              		.loc 1 862 1 is_stmt 0 view .LVU36
 123 003c 7047     		bx	lr
 124              		.cfi_endproc
 125              	.LFE151:
 127              		.section	.text.draw_letter_normal,"ax",%progbits
 128              		.align	1
 129              		.syntax unified
 130              		.thumb
 131              		.thumb_func
 132              		.fpu fpv4-sp-d16
 134              	draw_letter_normal:
 135              	.LVL11:
 136              	.LFB150:
 458:Middlewares/lvgl/src/draw/lv_draw_label.c ****     const uint8_t * bpp_opa_table_p;
 137              		.loc 1 458 1 is_stmt 1 view -0
 138              		.cfi_startproc
 139              		@ args = 16, pretend = 0, frame = 48
 140              		@ frame_needed = 0, uses_anonymous_args = 0
 458:Middlewares/lvgl/src/draw/lv_draw_label.c ****     const uint8_t * bpp_opa_table_p;
 141              		.loc 1 458 1 is_stmt 0 view .LVU38
 142 0000 2DE9F04F 		push	{r4, r5, r6, r7, r8, r9, r10, fp, lr}
 143              	.LCFI0:
 144              		.cfi_def_cfa_offset 36
 145              		.cfi_offset 4, -36
 146              		.cfi_offset 5, -32
 147              		.cfi_offset 6, -28
 148              		.cfi_offset 7, -24
 149              		.cfi_offset 8, -20
 150              		.cfi_offset 9, -16
ARM GAS  /tmp/cc9peG0g.s 			page 19


 151              		.cfi_offset 10, -12
 152              		.cfi_offset 11, -8
 153              		.cfi_offset 14, -4
 154 0004 91B0     		sub	sp, sp, #68
 155              	.LCFI1:
 156              		.cfi_def_cfa_offset 104
 157 0006 0990     		str	r0, [sp, #36]
 158 0008 0A91     		str	r1, [sp, #40]
 159 000a 0B93     		str	r3, [sp, #44]
 160 000c 9DF87000 		ldrb	r0, [sp, #112]	@ zero_extendqisi2
 161              	.LVL12:
 458:Middlewares/lvgl/src/draw/lv_draw_label.c ****     const uint8_t * bpp_opa_table_p;
 162              		.loc 1 458 1 view .LVU39
 163 0010 9DF87430 		ldrb	r3, [sp, #116]	@ zero_extendqisi2
 164              	.LVL13:
 458:Middlewares/lvgl/src/draw/lv_draw_label.c ****     const uint8_t * bpp_opa_table_p;
 165              		.loc 1 458 1 view .LVU40
 166 0014 0C93     		str	r3, [sp, #48]
 459:Middlewares/lvgl/src/draw/lv_draw_label.c ****     uint32_t bitmask_init;
 167              		.loc 1 459 5 is_stmt 1 view .LVU41
 460:Middlewares/lvgl/src/draw/lv_draw_label.c ****     uint32_t bitmask;
 168              		.loc 1 460 5 view .LVU42
 461:Middlewares/lvgl/src/draw/lv_draw_label.c ****     uint32_t bpp = g->bpp;
 169              		.loc 1 461 5 view .LVU43
 462:Middlewares/lvgl/src/draw/lv_draw_label.c ****     uint32_t shades;
 170              		.loc 1 462 5 view .LVU44
 462:Middlewares/lvgl/src/draw/lv_draw_label.c ****     uint32_t shades;
 171              		.loc 1 462 21 is_stmt 0 view .LVU45
 172 0016 92F80AA0 		ldrb	r10, [r2, #10]	@ zero_extendqisi2
 173              	.LVL14:
 463:Middlewares/lvgl/src/draw/lv_draw_label.c ****     if(bpp == 3) bpp = 4;
 174              		.loc 1 463 5 is_stmt 1 view .LVU46
 464:Middlewares/lvgl/src/draw/lv_draw_label.c **** 
 175              		.loc 1 464 5 view .LVU47
 464:Middlewares/lvgl/src/draw/lv_draw_label.c **** 
 176              		.loc 1 464 7 is_stmt 0 view .LVU48
 177 001a BAF1030F 		cmp	r10, #3
 178 001e 21D0     		beq	.L42
 466:Middlewares/lvgl/src/draw/lv_draw_label.c ****         case 1:
 179              		.loc 1 466 5 is_stmt 1 view .LVU49
 180 0020 0AF1FF33 		add	r3, r10, #-1
 181 0024 072B     		cmp	r3, #7
 182 0026 00F23881 		bhi	.L12
 183 002a DFE813F0 		tbh	[pc, r3, lsl #1]
 184              	.LVL15:
 185              	.L16:
 186 002e 0800     		.2byte	(.L18-.L16)/2
 187 0030 2A00     		.2byte	(.L43-.L16)/2
 188 0032 3601     		.2byte	(.L12-.L16)/2
 189 0034 0E00     		.2byte	(.L17-.L16)/2
 190 0036 3601     		.2byte	(.L12-.L16)/2
 191 0038 3601     		.2byte	(.L12-.L16)/2
 192 003a 3601     		.2byte	(.L12-.L16)/2
 193 003c 1400     		.2byte	(.L15-.L16)/2
 194              		.p2align 1
 195              	.L18:
 464:Middlewares/lvgl/src/draw/lv_draw_label.c **** 
ARM GAS  /tmp/cc9peG0g.s 			page 20


 196              		.loc 1 464 7 is_stmt 0 view .LVU50
 197 003e 0224     		movs	r4, #2
 198 0040 8023     		movs	r3, #128
 199 0042 0493     		str	r3, [sp, #16]
 200 0044 DFF888B2 		ldr	fp, .L57+12
 201 0048 13E0     		b	.L13
 202              	.L17:
 480:Middlewares/lvgl/src/draw/lv_draw_label.c ****             break;
 203              		.loc 1 480 20 view .LVU51
 204 004a 1024     		movs	r4, #16
 479:Middlewares/lvgl/src/draw/lv_draw_label.c ****             shades = 16;
 205              		.loc 1 479 27 view .LVU52
 206 004c F023     		movs	r3, #240
 207 004e 0493     		str	r3, [sp, #16]
 478:Middlewares/lvgl/src/draw/lv_draw_label.c ****             bitmask_init  = 0xF0;
 208              		.loc 1 478 29 view .LVU53
 209 0050 DFF880B2 		ldr	fp, .L57+16
 210 0054 0DE0     		b	.L13
 211              	.L15:
 483:Middlewares/lvgl/src/draw/lv_draw_label.c ****             bitmask_init  = 0xFF;
 212              		.loc 1 483 13 is_stmt 1 view .LVU54
 484:Middlewares/lvgl/src/draw/lv_draw_label.c ****             shades = 256;
 213              		.loc 1 484 13 view .LVU55
 214              	.LVL16:
 485:Middlewares/lvgl/src/draw/lv_draw_label.c ****             break;       /*No opa table, pixel value will be used directly*/
 215              		.loc 1 485 13 view .LVU56
 486:Middlewares/lvgl/src/draw/lv_draw_label.c ****         default:
 216              		.loc 1 486 13 view .LVU57
 485:Middlewares/lvgl/src/draw/lv_draw_label.c ****             break;       /*No opa table, pixel value will be used directly*/
 217              		.loc 1 485 20 is_stmt 0 view .LVU58
 218 0056 4FF48074 		mov	r4, #256
 484:Middlewares/lvgl/src/draw/lv_draw_label.c ****             shades = 256;
 219              		.loc 1 484 27 view .LVU59
 220 005a FF23     		movs	r3, #255
 221 005c 0493     		str	r3, [sp, #16]
 483:Middlewares/lvgl/src/draw/lv_draw_label.c ****             bitmask_init  = 0xFF;
 222              		.loc 1 483 29 view .LVU60
 223 005e DFF878B2 		ldr	fp, .L57+20
 486:Middlewares/lvgl/src/draw/lv_draw_label.c ****         default:
 224              		.loc 1 486 13 view .LVU61
 225 0062 06E0     		b	.L13
 226              	.LVL17:
 227              	.L42:
 464:Middlewares/lvgl/src/draw/lv_draw_label.c **** 
 228              		.loc 1 464 22 view .LVU62
 229 0064 4FF0040A 		mov	r10, #4
 230              	.LVL18:
 480:Middlewares/lvgl/src/draw/lv_draw_label.c ****             break;
 231              		.loc 1 480 20 view .LVU63
 232 0068 1024     		movs	r4, #16
 479:Middlewares/lvgl/src/draw/lv_draw_label.c ****             shades = 16;
 233              		.loc 1 479 27 view .LVU64
 234 006a F023     		movs	r3, #240
 235 006c 0493     		str	r3, [sp, #16]
 478:Middlewares/lvgl/src/draw/lv_draw_label.c ****             bitmask_init  = 0xF0;
 236              		.loc 1 478 29 view .LVU65
 237 006e DFF864B2 		ldr	fp, .L57+16
ARM GAS  /tmp/cc9peG0g.s 			page 21


 238              	.LVL19:
 239              	.L13:
 492:Middlewares/lvgl/src/draw/lv_draw_label.c ****     static lv_opa_t prev_opa = LV_OPA_TRANSP;
 240              		.loc 1 492 5 is_stmt 1 view .LVU66
 493:Middlewares/lvgl/src/draw/lv_draw_label.c ****     static uint32_t prev_bpp = 0;
 241              		.loc 1 493 5 view .LVU67
 494:Middlewares/lvgl/src/draw/lv_draw_label.c ****     if(opa < LV_OPA_MAX) {
 242              		.loc 1 494 5 view .LVU68
 495:Middlewares/lvgl/src/draw/lv_draw_label.c ****         if(prev_opa != opa || prev_bpp != bpp) {
 243              		.loc 1 495 5 view .LVU69
 495:Middlewares/lvgl/src/draw/lv_draw_label.c ****         if(prev_opa != opa || prev_bpp != bpp) {
 244              		.loc 1 495 7 is_stmt 0 view .LVU70
 245 0072 FC28     		cmp	r0, #252
 246 0074 26D8     		bhi	.L19
 496:Middlewares/lvgl/src/draw/lv_draw_label.c ****             uint32_t i;
 247              		.loc 1 496 9 is_stmt 1 view .LVU71
 496:Middlewares/lvgl/src/draw/lv_draw_label.c ****             uint32_t i;
 248              		.loc 1 496 21 is_stmt 0 view .LVU72
 249 0076 934B     		ldr	r3, .L57
 250 0078 1B78     		ldrb	r3, [r3]	@ zero_extendqisi2
 496:Middlewares/lvgl/src/draw/lv_draw_label.c ****             uint32_t i;
 251              		.loc 1 496 11 view .LVU73
 252 007a 8342     		cmp	r3, r0
 253 007c 07D0     		beq	.L52
 254 007e 0021     		movs	r1, #0
 255 0080 0FE0     		b	.L23
 256              	.LVL20:
 257              	.L43:
 475:Middlewares/lvgl/src/draw/lv_draw_label.c ****             break;
 258              		.loc 1 475 20 view .LVU74
 259 0082 0424     		movs	r4, #4
 474:Middlewares/lvgl/src/draw/lv_draw_label.c ****             shades = 4;
 260              		.loc 1 474 27 view .LVU75
 261 0084 C023     		movs	r3, #192
 262 0086 0493     		str	r3, [sp, #16]
 473:Middlewares/lvgl/src/draw/lv_draw_label.c ****             bitmask_init  = 0xC0;
 263              		.loc 1 473 29 view .LVU76
 264 0088 DFF850B2 		ldr	fp, .L57+24
 265 008c F1E7     		b	.L13
 266              	.LVL21:
 267              	.L52:
 496:Middlewares/lvgl/src/draw/lv_draw_label.c ****             uint32_t i;
 268              		.loc 1 496 40 discriminator 1 view .LVU77
 269 008e 8E4B     		ldr	r3, .L57+4
 270 0090 1B68     		ldr	r3, [r3]
 496:Middlewares/lvgl/src/draw/lv_draw_label.c ****             uint32_t i;
 271              		.loc 1 496 28 discriminator 1 view .LVU78
 272 0092 5345     		cmp	r3, r10
 273 0094 0FD0     		beq	.L21
 274 0096 0021     		movs	r1, #0
 275 0098 03E0     		b	.L23
 276              	.LVL22:
 277              	.L46:
 278              	.LBB43:
 499:Middlewares/lvgl/src/draw/lv_draw_label.c ****             }
 279              		.loc 1 499 30 view .LVU79
 280 009a 0346     		mov	r3, r0
ARM GAS  /tmp/cc9peG0g.s 			page 22


 281              	.L22:
 499:Middlewares/lvgl/src/draw/lv_draw_label.c ****             }
 282              		.loc 1 499 30 discriminator 4 view .LVU80
 283 009c 8B4D     		ldr	r5, .L57+8
 284 009e 6B54     		strb	r3, [r5, r1]
 498:Middlewares/lvgl/src/draw/lv_draw_label.c ****                 opa_table[i] = bpp_opa_table_p[i] == LV_OPA_COVER ? opa : ((bpp_opa_table_p[i] * op
 285              		.loc 1 498 36 is_stmt 1 discriminator 4 view .LVU81
 498:Middlewares/lvgl/src/draw/lv_draw_label.c ****                 opa_table[i] = bpp_opa_table_p[i] == LV_OPA_COVER ? opa : ((bpp_opa_table_p[i] * op
 286              		.loc 1 498 37 is_stmt 0 discriminator 4 view .LVU82
 287 00a0 0131     		adds	r1, r1, #1
 288              	.LVL23:
 289              	.L23:
 498:Middlewares/lvgl/src/draw/lv_draw_label.c ****                 opa_table[i] = bpp_opa_table_p[i] == LV_OPA_COVER ? opa : ((bpp_opa_table_p[i] * op
 290              		.loc 1 498 24 is_stmt 1 discriminator 2 view .LVU83
 498:Middlewares/lvgl/src/draw/lv_draw_label.c ****                 opa_table[i] = bpp_opa_table_p[i] == LV_OPA_COVER ? opa : ((bpp_opa_table_p[i] * op
 291              		.loc 1 498 13 is_stmt 0 discriminator 2 view .LVU84
 292 00a2 8C42     		cmp	r4, r1
 293 00a4 07D9     		bls	.L21
 499:Middlewares/lvgl/src/draw/lv_draw_label.c ****             }
 294              		.loc 1 499 17 is_stmt 1 view .LVU85
 499:Middlewares/lvgl/src/draw/lv_draw_label.c ****             }
 295              		.loc 1 499 47 is_stmt 0 view .LVU86
 296 00a6 1BF80130 		ldrb	r3, [fp, r1]	@ zero_extendqisi2
 499:Middlewares/lvgl/src/draw/lv_draw_label.c ****             }
 297              		.loc 1 499 30 view .LVU87
 298 00aa FF2B     		cmp	r3, #255
 299 00ac F5D0     		beq	.L46
 499:Middlewares/lvgl/src/draw/lv_draw_label.c ****             }
 300              		.loc 1 499 96 discriminator 1 view .LVU88
 301 00ae 00FB03F3 		mul	r3, r0, r3
 499:Middlewares/lvgl/src/draw/lv_draw_label.c ****             }
 302              		.loc 1 499 30 discriminator 1 view .LVU89
 303 00b2 1B0A     		lsrs	r3, r3, #8
 304 00b4 F2E7     		b	.L22
 305              	.LVL24:
 306              	.L21:
 499:Middlewares/lvgl/src/draw/lv_draw_label.c ****             }
 307              		.loc 1 499 30 discriminator 1 view .LVU90
 308              	.LBE43:
 502:Middlewares/lvgl/src/draw/lv_draw_label.c ****         prev_opa = opa;
 309              		.loc 1 502 9 is_stmt 1 view .LVU91
 503:Middlewares/lvgl/src/draw/lv_draw_label.c ****         prev_bpp = bpp;
 310              		.loc 1 503 9 view .LVU92
 503:Middlewares/lvgl/src/draw/lv_draw_label.c ****         prev_bpp = bpp;
 311              		.loc 1 503 18 is_stmt 0 view .LVU93
 312 00b6 834B     		ldr	r3, .L57
 313 00b8 1870     		strb	r0, [r3]
 504:Middlewares/lvgl/src/draw/lv_draw_label.c ****     }
 314              		.loc 1 504 9 is_stmt 1 view .LVU94
 504:Middlewares/lvgl/src/draw/lv_draw_label.c ****     }
 315              		.loc 1 504 18 is_stmt 0 view .LVU95
 316 00ba 834B     		ldr	r3, .L57+4
 317 00bc C3F800A0 		str	r10, [r3]
 502:Middlewares/lvgl/src/draw/lv_draw_label.c ****         prev_opa = opa;
 318              		.loc 1 502 25 view .LVU96
 319 00c0 DFF808B2 		ldr	fp, .L57+8
 320              	.LVL25:
ARM GAS  /tmp/cc9peG0g.s 			page 23


 321              	.L19:
 507:Middlewares/lvgl/src/draw/lv_draw_label.c ****     int32_t box_w = g->box_w;
 322              		.loc 1 507 5 is_stmt 1 view .LVU97
 508:Middlewares/lvgl/src/draw/lv_draw_label.c ****     int32_t box_h = g->box_h;
 323              		.loc 1 508 5 view .LVU98
 508:Middlewares/lvgl/src/draw/lv_draw_label.c ****     int32_t box_h = g->box_h;
 324              		.loc 1 508 22 is_stmt 0 view .LVU99
 325 00c4 5588     		ldrh	r5, [r2, #2]
 326              	.LVL26:
 509:Middlewares/lvgl/src/draw/lv_draw_label.c ****     int32_t width_bit = box_w * bpp; /*Letter width in bits*/
 327              		.loc 1 509 5 is_stmt 1 view .LVU100
 509:Middlewares/lvgl/src/draw/lv_draw_label.c ****     int32_t width_bit = box_w * bpp; /*Letter width in bits*/
 328              		.loc 1 509 22 is_stmt 0 view .LVU101
 329 00c6 9788     		ldrh	r7, [r2, #4]
 330              	.LVL27:
 510:Middlewares/lvgl/src/draw/lv_draw_label.c **** 
 331              		.loc 1 510 5 is_stmt 1 view .LVU102
 510:Middlewares/lvgl/src/draw/lv_draw_label.c **** 
 332              		.loc 1 510 31 is_stmt 0 view .LVU103
 333 00c8 0AFB05F2 		mul	r2, r10, r5
 334              	.LVL28:
 513:Middlewares/lvgl/src/draw/lv_draw_label.c ****     int32_t col_end   = pos_x + box_w <= clip_area->x2 ? box_w : clip_area->x2 - pos_x + 1;
 335              		.loc 1 513 5 is_stmt 1 view .LVU104
 513:Middlewares/lvgl/src/draw/lv_draw_label.c ****     int32_t col_end   = pos_x + box_w <= clip_area->x2 ? box_w : clip_area->x2 - pos_x + 1;
 336              		.loc 1 513 43 is_stmt 0 view .LVU105
 337 00cc 0B9B     		ldr	r3, [sp, #44]
 338 00ce B3F90030 		ldrsh	r3, [r3]
 513:Middlewares/lvgl/src/draw/lv_draw_label.c ****     int32_t col_end   = pos_x + box_w <= clip_area->x2 ? box_w : clip_area->x2 - pos_x + 1;
 339              		.loc 1 513 52 view .LVU106
 340 00d2 0999     		ldr	r1, [sp, #36]
 341 00d4 8B42     		cmp	r3, r1
 342 00d6 02DD     		ble	.L47
 513:Middlewares/lvgl/src/draw/lv_draw_label.c ****     int32_t col_end   = pos_x + box_w <= clip_area->x2 ? box_w : clip_area->x2 - pos_x + 1;
 343              		.loc 1 513 52 discriminator 1 view .LVU107
 344 00d8 5B1A     		subs	r3, r3, r1
 345 00da 0693     		str	r3, [sp, #24]
 346 00dc 01E0     		b	.L25
 347              	.L47:
 513:Middlewares/lvgl/src/draw/lv_draw_label.c ****     int32_t col_end   = pos_x + box_w <= clip_area->x2 ? box_w : clip_area->x2 - pos_x + 1;
 348              		.loc 1 513 52 view .LVU108
 349 00de 0023     		movs	r3, #0
 350 00e0 0693     		str	r3, [sp, #24]
 351              	.L25:
 352              	.LVL29:
 514:Middlewares/lvgl/src/draw/lv_draw_label.c ****     int32_t row_start = pos_y >= clip_area->y1 ? 0 : clip_area->y1 - pos_y;
 353              		.loc 1 514 5 is_stmt 1 discriminator 4 view .LVU109
 514:Middlewares/lvgl/src/draw/lv_draw_label.c ****     int32_t row_start = pos_y >= clip_area->y1 ? 0 : clip_area->y1 - pos_y;
 354              		.loc 1 514 31 is_stmt 0 discriminator 4 view .LVU110
 355 00e2 0998     		ldr	r0, [sp, #36]
 356 00e4 4319     		adds	r3, r0, r5
 514:Middlewares/lvgl/src/draw/lv_draw_label.c ****     int32_t row_start = pos_y >= clip_area->y1 ? 0 : clip_area->y1 - pos_y;
 357              		.loc 1 514 51 discriminator 4 view .LVU111
 358 00e6 0B99     		ldr	r1, [sp, #44]
 359 00e8 B1F90410 		ldrsh	r1, [r1, #4]
 514:Middlewares/lvgl/src/draw/lv_draw_label.c ****     int32_t row_start = pos_y >= clip_area->y1 ? 0 : clip_area->y1 - pos_y;
 360              		.loc 1 514 64 discriminator 4 view .LVU112
 361 00ec 8B42     		cmp	r3, r1
ARM GAS  /tmp/cc9peG0g.s 			page 24


 362 00ee 03DD     		ble	.L48
 514:Middlewares/lvgl/src/draw/lv_draw_label.c ****     int32_t row_start = pos_y >= clip_area->y1 ? 0 : clip_area->y1 - pos_y;
 363              		.loc 1 514 80 discriminator 1 view .LVU113
 364 00f0 091A     		subs	r1, r1, r0
 514:Middlewares/lvgl/src/draw/lv_draw_label.c ****     int32_t row_start = pos_y >= clip_area->y1 ? 0 : clip_area->y1 - pos_y;
 365              		.loc 1 514 64 discriminator 1 view .LVU114
 366 00f2 01F10108 		add	r8, r1, #1
 367 00f6 00E0     		b	.L26
 368              	.L48:
 514:Middlewares/lvgl/src/draw/lv_draw_label.c ****     int32_t row_start = pos_y >= clip_area->y1 ? 0 : clip_area->y1 - pos_y;
 369              		.loc 1 514 64 view .LVU115
 370 00f8 A846     		mov	r8, r5
 371              	.L26:
 372              	.LVL30:
 515:Middlewares/lvgl/src/draw/lv_draw_label.c ****     int32_t row_end   = pos_y + box_h <= clip_area->y2 ? box_h : clip_area->y2 - pos_y + 1;
 373              		.loc 1 515 5 is_stmt 1 discriminator 4 view .LVU116
 515:Middlewares/lvgl/src/draw/lv_draw_label.c ****     int32_t row_end   = pos_y + box_h <= clip_area->y2 ? box_h : clip_area->y2 - pos_y + 1;
 374              		.loc 1 515 43 is_stmt 0 discriminator 4 view .LVU117
 375 00fa 0B9B     		ldr	r3, [sp, #44]
 376 00fc B3F90230 		ldrsh	r3, [r3, #2]
 515:Middlewares/lvgl/src/draw/lv_draw_label.c ****     int32_t row_end   = pos_y + box_h <= clip_area->y2 ? box_h : clip_area->y2 - pos_y + 1;
 377              		.loc 1 515 52 discriminator 4 view .LVU118
 378 0100 0A99     		ldr	r1, [sp, #40]
 379 0102 8B42     		cmp	r3, r1
 380 0104 02DD     		ble	.L49
 515:Middlewares/lvgl/src/draw/lv_draw_label.c ****     int32_t row_end   = pos_y + box_h <= clip_area->y2 ? box_h : clip_area->y2 - pos_y + 1;
 381              		.loc 1 515 52 discriminator 1 view .LVU119
 382 0106 5B1A     		subs	r3, r3, r1
 383 0108 0593     		str	r3, [sp, #20]
 384 010a 01E0     		b	.L27
 385              	.L49:
 515:Middlewares/lvgl/src/draw/lv_draw_label.c ****     int32_t row_end   = pos_y + box_h <= clip_area->y2 ? box_h : clip_area->y2 - pos_y + 1;
 386              		.loc 1 515 52 view .LVU120
 387 010c 0023     		movs	r3, #0
 388 010e 0593     		str	r3, [sp, #20]
 389              	.L27:
 390              	.LVL31:
 516:Middlewares/lvgl/src/draw/lv_draw_label.c **** 
 391              		.loc 1 516 5 is_stmt 1 discriminator 4 view .LVU121
 516:Middlewares/lvgl/src/draw/lv_draw_label.c **** 
 392              		.loc 1 516 31 is_stmt 0 discriminator 4 view .LVU122
 393 0110 0A98     		ldr	r0, [sp, #40]
 394 0112 C319     		adds	r3, r0, r7
 516:Middlewares/lvgl/src/draw/lv_draw_label.c **** 
 395              		.loc 1 516 51 discriminator 4 view .LVU123
 396 0114 0B99     		ldr	r1, [sp, #44]
 397 0116 B1F90610 		ldrsh	r1, [r1, #6]
 516:Middlewares/lvgl/src/draw/lv_draw_label.c **** 
 398              		.loc 1 516 64 discriminator 4 view .LVU124
 399 011a 8B42     		cmp	r3, r1
 400 011c 03DD     		ble	.L50
 516:Middlewares/lvgl/src/draw/lv_draw_label.c **** 
 401              		.loc 1 516 80 discriminator 1 view .LVU125
 402 011e 091A     		subs	r1, r1, r0
 516:Middlewares/lvgl/src/draw/lv_draw_label.c **** 
 403              		.loc 1 516 64 discriminator 1 view .LVU126
 404 0120 4B1C     		adds	r3, r1, #1
ARM GAS  /tmp/cc9peG0g.s 			page 25


 405 0122 0793     		str	r3, [sp, #28]
 406 0124 00E0     		b	.L28
 407              	.L50:
 516:Middlewares/lvgl/src/draw/lv_draw_label.c **** 
 408              		.loc 1 516 64 view .LVU127
 409 0126 0797     		str	r7, [sp, #28]
 410              	.L28:
 411              	.LVL32:
 519:Middlewares/lvgl/src/draw/lv_draw_label.c ****     map_p += bit_ofs >> 3;
 412              		.loc 1 519 5 is_stmt 1 discriminator 4 view .LVU128
 519:Middlewares/lvgl/src/draw/lv_draw_label.c ****     map_p += bit_ofs >> 3;
 413              		.loc 1 519 61 is_stmt 0 discriminator 4 view .LVU129
 414 0128 069B     		ldr	r3, [sp, #24]
 415 012a 0AFB03F4 		mul	r4, r10, r3
 416              	.LVL33:
 519:Middlewares/lvgl/src/draw/lv_draw_label.c ****     map_p += bit_ofs >> 3;
 417              		.loc 1 519 14 discriminator 4 view .LVU130
 418 012e 0599     		ldr	r1, [sp, #20]
 419 0130 02FB0144 		mla	r4, r2, r1, r4
 420              	.LVL34:
 520:Middlewares/lvgl/src/draw/lv_draw_label.c **** 
 421              		.loc 1 520 5 is_stmt 1 discriminator 4 view .LVU131
 520:Middlewares/lvgl/src/draw/lv_draw_label.c **** 
 422              		.loc 1 520 11 is_stmt 0 discriminator 4 view .LVU132
 423 0134 1A9E     		ldr	r6, [sp, #104]
 424 0136 06EBD406 		add	r6, r6, r4, lsr #3
 425              	.LVL35:
 522:Middlewares/lvgl/src/draw/lv_draw_label.c ****     uint32_t col_bit;
 426              		.loc 1 522 5 is_stmt 1 discriminator 4 view .LVU133
 523:Middlewares/lvgl/src/draw/lv_draw_label.c ****     col_bit = bit_ofs & 0x7; /*"& 0x7" equals to "% 8" just faster*/
 427              		.loc 1 523 5 discriminator 4 view .LVU134
 524:Middlewares/lvgl/src/draw/lv_draw_label.c **** 
 428              		.loc 1 524 5 discriminator 4 view .LVU135
 524:Middlewares/lvgl/src/draw/lv_draw_label.c **** 
 429              		.loc 1 524 13 is_stmt 0 discriminator 4 view .LVU136
 430 013a 04F00704 		and	r4, r4, #7
 431              	.LVL36:
 526:Middlewares/lvgl/src/draw/lv_draw_label.c ****     uint32_t mask_buf_size = box_w * box_h > hor_res ? hor_res : box_w * box_h;
 432              		.loc 1 526 5 is_stmt 1 discriminator 4 view .LVU137
 526:Middlewares/lvgl/src/draw/lv_draw_label.c ****     uint32_t mask_buf_size = box_w * box_h > hor_res ? hor_res : box_w * box_h;
 433              		.loc 1 526 26 is_stmt 0 discriminator 4 view .LVU138
 434 013e FFF7FEFF 		bl	_lv_refr_get_disp_refreshing
 435              	.LVL37:
 526:Middlewares/lvgl/src/draw/lv_draw_label.c ****     uint32_t mask_buf_size = box_w * box_h > hor_res ? hor_res : box_w * box_h;
 436              		.loc 1 526 26 discriminator 4 view .LVU139
 437 0142 FFF7FEFF 		bl	lv_disp_get_hor_res
 438              	.LVL38:
 527:Middlewares/lvgl/src/draw/lv_draw_label.c ****     lv_opa_t * mask_buf = lv_mem_buf_get(mask_buf_size);
 439              		.loc 1 527 5 is_stmt 1 discriminator 4 view .LVU140
 527:Middlewares/lvgl/src/draw/lv_draw_label.c ****     lv_opa_t * mask_buf = lv_mem_buf_get(mask_buf_size);
 440              		.loc 1 527 36 is_stmt 0 discriminator 4 view .LVU141
 441 0146 05FB07F7 		mul	r7, r5, r7
 442              	.LVL39:
 527:Middlewares/lvgl/src/draw/lv_draw_label.c ****     lv_opa_t * mask_buf = lv_mem_buf_get(mask_buf_size);
 443              		.loc 1 527 64 discriminator 4 view .LVU142
 444 014a 8742     		cmp	r7, r0
 445 014c A8BF     		it	ge
ARM GAS  /tmp/cc9peG0g.s 			page 26


 446 014e 0746     		movge	r7, r0
 447 0150 3846     		mov	r0, r7
 448              	.LVL40:
 527:Middlewares/lvgl/src/draw/lv_draw_label.c ****     lv_opa_t * mask_buf = lv_mem_buf_get(mask_buf_size);
 449              		.loc 1 527 64 discriminator 4 view .LVU143
 450 0152 0897     		str	r7, [sp, #32]
 451              	.LVL41:
 528:Middlewares/lvgl/src/draw/lv_draw_label.c ****     int32_t mask_p = 0;
 452              		.loc 1 528 5 is_stmt 1 discriminator 4 view .LVU144
 528:Middlewares/lvgl/src/draw/lv_draw_label.c ****     int32_t mask_p = 0;
 453              		.loc 1 528 27 is_stmt 0 discriminator 4 view .LVU145
 454 0154 FFF7FEFF 		bl	lv_mem_buf_get
 455              	.LVL42:
 528:Middlewares/lvgl/src/draw/lv_draw_label.c ****     int32_t mask_p = 0;
 456              		.loc 1 528 27 discriminator 4 view .LVU146
 457 0158 8146     		mov	r9, r0
 458              	.LVL43:
 529:Middlewares/lvgl/src/draw/lv_draw_label.c **** 
 459              		.loc 1 529 5 is_stmt 1 discriminator 4 view .LVU147
 531:Middlewares/lvgl/src/draw/lv_draw_label.c ****     fill_area.x1 = col_start + pos_x;
 460              		.loc 1 531 5 discriminator 4 view .LVU148
 532:Middlewares/lvgl/src/draw/lv_draw_label.c ****     fill_area.x2 = col_end  + pos_x - 1;
 461              		.loc 1 532 5 discriminator 4 view .LVU149
 532:Middlewares/lvgl/src/draw/lv_draw_label.c ****     fill_area.x2 = col_end  + pos_x - 1;
 462              		.loc 1 532 30 is_stmt 0 discriminator 4 view .LVU150
 463 015a BDF82430 		ldrh	r3, [sp, #36]
 464 015e 069A     		ldr	r2, [sp, #24]
 465 0160 9A18     		adds	r2, r3, r2
 532:Middlewares/lvgl/src/draw/lv_draw_label.c ****     fill_area.x2 = col_end  + pos_x - 1;
 466              		.loc 1 532 18 discriminator 4 view .LVU151
 467 0162 ADF83820 		strh	r2, [sp, #56]	@ movhi
 533:Middlewares/lvgl/src/draw/lv_draw_label.c ****     fill_area.y1 = row_start + pos_y;
 468              		.loc 1 533 5 is_stmt 1 discriminator 4 view .LVU152
 533:Middlewares/lvgl/src/draw/lv_draw_label.c ****     fill_area.y1 = row_start + pos_y;
 469              		.loc 1 533 29 is_stmt 0 discriminator 4 view .LVU153
 470 0166 4344     		add	r3, r3, r8
 471 0168 9BB2     		uxth	r3, r3
 533:Middlewares/lvgl/src/draw/lv_draw_label.c ****     fill_area.y1 = row_start + pos_y;
 472              		.loc 1 533 37 discriminator 4 view .LVU154
 473 016a 013B     		subs	r3, r3, #1
 533:Middlewares/lvgl/src/draw/lv_draw_label.c ****     fill_area.y1 = row_start + pos_y;
 474              		.loc 1 533 18 discriminator 4 view .LVU155
 475 016c ADF83C30 		strh	r3, [sp, #60]	@ movhi
 534:Middlewares/lvgl/src/draw/lv_draw_label.c ****     fill_area.y2 = fill_area.y1;
 476              		.loc 1 534 5 is_stmt 1 discriminator 4 view .LVU156
 534:Middlewares/lvgl/src/draw/lv_draw_label.c ****     fill_area.y2 = fill_area.y1;
 477              		.loc 1 534 30 is_stmt 0 discriminator 4 view .LVU157
 478 0170 0A98     		ldr	r0, [sp, #40]
 479              	.LVL44:
 534:Middlewares/lvgl/src/draw/lv_draw_label.c ****     fill_area.y2 = fill_area.y1;
 480              		.loc 1 534 30 discriminator 4 view .LVU158
 481 0172 0599     		ldr	r1, [sp, #20]
 482 0174 0844     		add	r0, r0, r1
 483 0176 03B2     		sxth	r3, r0
 534:Middlewares/lvgl/src/draw/lv_draw_label.c ****     fill_area.y2 = fill_area.y1;
 484              		.loc 1 534 18 discriminator 4 view .LVU159
 485 0178 ADF83A30 		strh	r3, [sp, #58]	@ movhi
ARM GAS  /tmp/cc9peG0g.s 			page 27


 535:Middlewares/lvgl/src/draw/lv_draw_label.c **** #if LV_DRAW_COMPLEX
 486              		.loc 1 535 5 is_stmt 1 discriminator 4 view .LVU160
 535:Middlewares/lvgl/src/draw/lv_draw_label.c **** #if LV_DRAW_COMPLEX
 487              		.loc 1 535 18 is_stmt 0 discriminator 4 view .LVU161
 488 017c ADF83E30 		strh	r3, [sp, #62]	@ movhi
 537:Middlewares/lvgl/src/draw/lv_draw_label.c **** #endif
 489              		.loc 1 537 5 is_stmt 1 discriminator 4 view .LVU162
 537:Middlewares/lvgl/src/draw/lv_draw_label.c **** #endif
 490              		.loc 1 537 30 is_stmt 0 discriminator 4 view .LVU163
 491 0180 FFF7FEFF 		bl	lv_draw_mask_get_cnt
 492              	.LVL45:
 493 0184 0990     		str	r0, [sp, #36]
 494              	.LVL46:
 540:Middlewares/lvgl/src/draw/lv_draw_label.c ****     uint32_t col_bit_row_ofs = (box_w + col_start - col_end) * bpp;
 495              		.loc 1 540 5 is_stmt 1 discriminator 4 view .LVU164
 540:Middlewares/lvgl/src/draw/lv_draw_label.c ****     uint32_t col_bit_row_ofs = (box_w + col_start - col_end) * bpp;
 496              		.loc 1 540 14 is_stmt 0 discriminator 4 view .LVU165
 497 0186 CAF10807 		rsb	r7, r10, #8
 498              	.LVL47:
 541:Middlewares/lvgl/src/draw/lv_draw_label.c **** 
 499              		.loc 1 541 5 is_stmt 1 discriminator 4 view .LVU166
 541:Middlewares/lvgl/src/draw/lv_draw_label.c **** 
 500              		.loc 1 541 39 is_stmt 0 discriminator 4 view .LVU167
 501 018a 069A     		ldr	r2, [sp, #24]
 502 018c 5319     		adds	r3, r2, r5
 541:Middlewares/lvgl/src/draw/lv_draw_label.c **** 
 503              		.loc 1 541 51 discriminator 4 view .LVU168
 504 018e A3EB0803 		sub	r3, r3, r8
 541:Middlewares/lvgl/src/draw/lv_draw_label.c **** 
 505              		.loc 1 541 14 discriminator 4 view .LVU169
 506 0192 0AFB03F3 		mul	r3, r10, r3
 507 0196 0A93     		str	r3, [sp, #40]
 508              	.LVL48:
 543:Middlewares/lvgl/src/draw/lv_draw_label.c **** #if LV_DRAW_COMPLEX
 509              		.loc 1 543 5 is_stmt 1 discriminator 4 view .LVU170
 529:Middlewares/lvgl/src/draw/lv_draw_label.c **** 
 510              		.loc 1 529 13 is_stmt 0 discriminator 4 view .LVU171
 511 0198 4FF0000C 		mov	ip, #0
 543:Middlewares/lvgl/src/draw/lv_draw_label.c **** #if LV_DRAW_COMPLEX
 512              		.loc 1 543 5 discriminator 4 view .LVU172
 513 019c 34E0     		b	.L29
 514              	.LVL49:
 515              	.L31:
 516              	.LBB44:
 555:Middlewares/lvgl/src/draw/lv_draw_label.c ****             }
 517              		.loc 1 555 17 is_stmt 1 view .LVU173
 555:Middlewares/lvgl/src/draw/lv_draw_label.c ****             }
 518              		.loc 1 555 34 is_stmt 0 view .LVU174
 519 019e 0023     		movs	r3, #0
 520              	.LVL50:
 555:Middlewares/lvgl/src/draw/lv_draw_label.c ****             }
 521              		.loc 1 555 34 view .LVU175
 522 01a0 09F80530 		strb	r3, [r9, r5]
 523              	.LVL51:
 555:Middlewares/lvgl/src/draw/lv_draw_label.c ****             }
 524              		.loc 1 555 34 view .LVU176
 525 01a4 12E0     		b	.L32
ARM GAS  /tmp/cc9peG0g.s 			page 28


 526              	.L33:
 564:Middlewares/lvgl/src/draw/lv_draw_label.c ****                 bitmask = bitmask_init;
 527              		.loc 1 564 17 is_stmt 1 view .LVU177
 528              	.LVL52:
 565:Middlewares/lvgl/src/draw/lv_draw_label.c ****                 map_p++;
 529              		.loc 1 565 17 view .LVU178
 566:Middlewares/lvgl/src/draw/lv_draw_label.c ****             }
 530              		.loc 1 566 17 view .LVU179
 566:Middlewares/lvgl/src/draw/lv_draw_label.c ****             }
 531              		.loc 1 566 22 is_stmt 0 view .LVU180
 532 01a6 0136     		adds	r6, r6, #1
 533              	.LVL53:
 565:Middlewares/lvgl/src/draw/lv_draw_label.c ****                 map_p++;
 534              		.loc 1 565 25 view .LVU181
 535 01a8 0499     		ldr	r1, [sp, #16]
 564:Middlewares/lvgl/src/draw/lv_draw_label.c ****                 bitmask = bitmask_init;
 536              		.loc 1 564 25 view .LVU182
 537 01aa 0024     		movs	r4, #0
 538              	.LVL54:
 539              	.L34:
 570:Middlewares/lvgl/src/draw/lv_draw_label.c ****         }
 540              		.loc 1 570 13 is_stmt 1 discriminator 2 view .LVU183
 570:Middlewares/lvgl/src/draw/lv_draw_label.c ****         }
 541              		.loc 1 570 19 is_stmt 0 discriminator 2 view .LVU184
 542 01ac 0135     		adds	r5, r5, #1
 543              	.LVL55:
 548:Middlewares/lvgl/src/draw/lv_draw_label.c ****             /*Load the pixel's opacity into the mask*/
 544              		.loc 1 548 45 is_stmt 1 discriminator 2 view .LVU185
 548:Middlewares/lvgl/src/draw/lv_draw_label.c ****             /*Load the pixel's opacity into the mask*/
 545              		.loc 1 548 48 is_stmt 0 discriminator 2 view .LVU186
 546 01ae 0132     		adds	r2, r2, #1
 547              	.LVL56:
 548              	.L30:
 548:Middlewares/lvgl/src/draw/lv_draw_label.c ****             /*Load the pixel's opacity into the mask*/
 549              		.loc 1 548 30 is_stmt 1 discriminator 1 view .LVU187
 548:Middlewares/lvgl/src/draw/lv_draw_label.c ****             /*Load the pixel's opacity into the mask*/
 550              		.loc 1 548 9 is_stmt 0 discriminator 1 view .LVU188
 551 01b0 4245     		cmp	r2, r8
 552 01b2 11DA     		bge	.L53
 550:Middlewares/lvgl/src/draw/lv_draw_label.c ****             if(letter_px) {
 553              		.loc 1 550 13 is_stmt 1 view .LVU189
 550:Middlewares/lvgl/src/draw/lv_draw_label.c ****             if(letter_px) {
 554              		.loc 1 550 26 is_stmt 0 view .LVU190
 555 01b4 3378     		ldrb	r3, [r6]	@ zero_extendqisi2
 550:Middlewares/lvgl/src/draw/lv_draw_label.c ****             if(letter_px) {
 556              		.loc 1 550 33 view .LVU191
 557 01b6 0B40     		ands	r3, r3, r1
 550:Middlewares/lvgl/src/draw/lv_draw_label.c ****             if(letter_px) {
 558              		.loc 1 550 60 view .LVU192
 559 01b8 381B     		subs	r0, r7, r4
 550:Middlewares/lvgl/src/draw/lv_draw_label.c ****             if(letter_px) {
 560              		.loc 1 550 44 view .LVU193
 561 01ba C340     		lsrs	r3, r3, r0
 562              	.LVL57:
 551:Middlewares/lvgl/src/draw/lv_draw_label.c ****                 mask_buf[mask_p] = bpp_opa_table_p[letter_px];
 563              		.loc 1 551 13 is_stmt 1 view .LVU194
 551:Middlewares/lvgl/src/draw/lv_draw_label.c ****                 mask_buf[mask_p] = bpp_opa_table_p[letter_px];
ARM GAS  /tmp/cc9peG0g.s 			page 29


 564              		.loc 1 551 15 is_stmt 0 view .LVU195
 565 01bc 13F0FF0F 		tst	r3, #255
 566 01c0 EDD0     		beq	.L31
 552:Middlewares/lvgl/src/draw/lv_draw_label.c ****             }
 567              		.loc 1 552 17 is_stmt 1 view .LVU196
 552:Middlewares/lvgl/src/draw/lv_draw_label.c ****             }
 568              		.loc 1 552 51 is_stmt 0 view .LVU197
 569 01c2 DBB2     		uxtb	r3, r3
 552:Middlewares/lvgl/src/draw/lv_draw_label.c ****             }
 570              		.loc 1 552 51 view .LVU198
 571 01c4 1BF80330 		ldrb	r3, [fp, r3]	@ zero_extendqisi2
 572              	.LVL58:
 552:Middlewares/lvgl/src/draw/lv_draw_label.c ****             }
 573              		.loc 1 552 34 view .LVU199
 574 01c8 09F80530 		strb	r3, [r9, r5]
 575              	.LVL59:
 576              	.L32:
 559:Middlewares/lvgl/src/draw/lv_draw_label.c ****                 col_bit += bpp;
 577              		.loc 1 559 13 is_stmt 1 view .LVU200
 559:Middlewares/lvgl/src/draw/lv_draw_label.c ****                 col_bit += bpp;
 578              		.loc 1 559 15 is_stmt 0 view .LVU201
 579 01cc BC42     		cmp	r4, r7
 580 01ce EAD2     		bcs	.L33
 560:Middlewares/lvgl/src/draw/lv_draw_label.c ****                 bitmask = bitmask >> bpp;
 581              		.loc 1 560 17 is_stmt 1 view .LVU202
 560:Middlewares/lvgl/src/draw/lv_draw_label.c ****                 bitmask = bitmask >> bpp;
 582              		.loc 1 560 25 is_stmt 0 view .LVU203
 583 01d0 5444     		add	r4, r4, r10
 584              	.LVL60:
 561:Middlewares/lvgl/src/draw/lv_draw_label.c ****             }
 585              		.loc 1 561 17 is_stmt 1 view .LVU204
 561:Middlewares/lvgl/src/draw/lv_draw_label.c ****             }
 586              		.loc 1 561 25 is_stmt 0 view .LVU205
 587 01d2 21FA0AF1 		lsr	r1, r1, r10
 588              	.LVL61:
 561:Middlewares/lvgl/src/draw/lv_draw_label.c ****             }
 589              		.loc 1 561 25 view .LVU206
 590 01d6 E9E7     		b	.L34
 591              	.L53:
 575:Middlewares/lvgl/src/draw/lv_draw_label.c ****             lv_draw_mask_res_t mask_res = lv_draw_mask_apply(mask_buf + mask_p_start, fill_area.x1,
 592              		.loc 1 575 9 is_stmt 1 view .LVU207
 575:Middlewares/lvgl/src/draw/lv_draw_label.c ****             lv_draw_mask_res_t mask_res = lv_draw_mask_apply(mask_buf + mask_p_start, fill_area.x1,
 593              		.loc 1 575 11 is_stmt 0 view .LVU208
 594 01d8 099B     		ldr	r3, [sp, #36]
 595 01da FBB9     		cbnz	r3, .L54
 596              	.LVL62:
 597              	.L36:
 584:Middlewares/lvgl/src/draw/lv_draw_label.c ****             fill_area.y2 ++;
 598              		.loc 1 584 9 is_stmt 1 view .LVU209
 584:Middlewares/lvgl/src/draw/lv_draw_label.c ****             fill_area.y2 ++;
 599              		.loc 1 584 41 is_stmt 0 view .LVU210
 600 01dc 069B     		ldr	r3, [sp, #24]
 601 01de A8EB0303 		sub	r3, r8, r3
 584:Middlewares/lvgl/src/draw/lv_draw_label.c ****             fill_area.y2 ++;
 602              		.loc 1 584 30 view .LVU211
 603 01e2 2B44     		add	r3, r3, r5
 584:Middlewares/lvgl/src/draw/lv_draw_label.c ****             fill_area.y2 ++;
ARM GAS  /tmp/cc9peG0g.s 			page 30


 604              		.loc 1 584 11 view .LVU212
 605 01e4 089A     		ldr	r2, [sp, #32]
 606 01e6 9342     		cmp	r3, r2
 607 01e8 36D2     		bcs	.L37
 585:Middlewares/lvgl/src/draw/lv_draw_label.c ****         }
 608              		.loc 1 585 13 is_stmt 1 view .LVU213
 585:Middlewares/lvgl/src/draw/lv_draw_label.c ****         }
 609              		.loc 1 585 22 is_stmt 0 view .LVU214
 610 01ea BDF93E30 		ldrsh	r3, [sp, #62]
 585:Middlewares/lvgl/src/draw/lv_draw_label.c ****         }
 611              		.loc 1 585 26 view .LVU215
 612 01ee 0133     		adds	r3, r3, #1
 613 01f0 ADF83E30 		strh	r3, [sp, #62]	@ movhi
 614 01f4 AC46     		mov	ip, r5
 615              	.LVL63:
 616              	.L38:
 597:Middlewares/lvgl/src/draw/lv_draw_label.c ****         map_p += (col_bit >> 3);
 617              		.loc 1 597 9 is_stmt 1 discriminator 2 view .LVU216
 597:Middlewares/lvgl/src/draw/lv_draw_label.c ****         map_p += (col_bit >> 3);
 618              		.loc 1 597 17 is_stmt 0 discriminator 2 view .LVU217
 619 01f6 0A9B     		ldr	r3, [sp, #40]
 620 01f8 1C44     		add	r4, r4, r3
 621              	.LVL64:
 598:Middlewares/lvgl/src/draw/lv_draw_label.c ****         col_bit = col_bit & 0x7;
 622              		.loc 1 598 9 is_stmt 1 discriminator 2 view .LVU218
 598:Middlewares/lvgl/src/draw/lv_draw_label.c ****         col_bit = col_bit & 0x7;
 623              		.loc 1 598 15 is_stmt 0 discriminator 2 view .LVU219
 624 01fa 06EBD406 		add	r6, r6, r4, lsr #3
 625              	.LVL65:
 599:Middlewares/lvgl/src/draw/lv_draw_label.c ****     }
 626              		.loc 1 599 9 is_stmt 1 discriminator 2 view .LVU220
 599:Middlewares/lvgl/src/draw/lv_draw_label.c ****     }
 627              		.loc 1 599 17 is_stmt 0 discriminator 2 view .LVU221
 628 01fe 04F00704 		and	r4, r4, #7
 629              	.LVL66:
 599:Middlewares/lvgl/src/draw/lv_draw_label.c ****     }
 630              		.loc 1 599 17 discriminator 2 view .LVU222
 631              	.LBE44:
 543:Middlewares/lvgl/src/draw/lv_draw_label.c **** #if LV_DRAW_COMPLEX
 632              		.loc 1 543 42 is_stmt 1 discriminator 2 view .LVU223
 543:Middlewares/lvgl/src/draw/lv_draw_label.c **** #if LV_DRAW_COMPLEX
 633              		.loc 1 543 45 is_stmt 0 discriminator 2 view .LVU224
 634 0202 059B     		ldr	r3, [sp, #20]
 635 0204 0133     		adds	r3, r3, #1
 636 0206 0593     		str	r3, [sp, #20]
 637              	.LVL67:
 638              	.L29:
 543:Middlewares/lvgl/src/draw/lv_draw_label.c **** #if LV_DRAW_COMPLEX
 639              		.loc 1 543 27 is_stmt 1 discriminator 1 view .LVU225
 543:Middlewares/lvgl/src/draw/lv_draw_label.c **** #if LV_DRAW_COMPLEX
 640              		.loc 1 543 5 is_stmt 0 discriminator 1 view .LVU226
 641 0208 059B     		ldr	r3, [sp, #20]
 642 020a 079A     		ldr	r2, [sp, #28]
 643 020c 9342     		cmp	r3, r2
 644 020e 3BDA     		bge	.L55
 645              	.LBB50:
 545:Middlewares/lvgl/src/draw/lv_draw_label.c **** #endif
ARM GAS  /tmp/cc9peG0g.s 			page 31


 646              		.loc 1 545 9 is_stmt 1 view .LVU227
 647              	.LVL68:
 547:Middlewares/lvgl/src/draw/lv_draw_label.c ****         for(col = col_start; col < col_end; col++) {
 648              		.loc 1 547 9 view .LVU228
 547:Middlewares/lvgl/src/draw/lv_draw_label.c ****         for(col = col_start; col < col_end; col++) {
 649              		.loc 1 547 17 is_stmt 0 view .LVU229
 650 0210 049B     		ldr	r3, [sp, #16]
 651 0212 23FA04F1 		lsr	r1, r3, r4
 652              	.LVL69:
 548:Middlewares/lvgl/src/draw/lv_draw_label.c ****             /*Load the pixel's opacity into the mask*/
 653              		.loc 1 548 9 is_stmt 1 view .LVU230
 548:Middlewares/lvgl/src/draw/lv_draw_label.c ****             /*Load the pixel's opacity into the mask*/
 654              		.loc 1 548 9 is_stmt 0 view .LVU231
 655 0216 6546     		mov	r5, ip
 548:Middlewares/lvgl/src/draw/lv_draw_label.c ****             /*Load the pixel's opacity into the mask*/
 656              		.loc 1 548 17 view .LVU232
 657 0218 069A     		ldr	r2, [sp, #24]
 548:Middlewares/lvgl/src/draw/lv_draw_label.c ****             /*Load the pixel's opacity into the mask*/
 658              		.loc 1 548 9 view .LVU233
 659 021a C9E7     		b	.L30
 660              	.LVL70:
 661              	.L54:
 662              	.LBB45:
 576:Middlewares/lvgl/src/draw/lv_draw_label.c ****                                                              lv_area_get_width(&fill_area));
 663              		.loc 1 576 13 is_stmt 1 view .LVU234
 576:Middlewares/lvgl/src/draw/lv_draw_label.c ****                                                              lv_area_get_width(&fill_area));
 664              		.loc 1 576 43 is_stmt 0 view .LVU235
 665 021c 09EB0C00 		add	r0, r9, ip
 666 0220 0D90     		str	r0, [sp, #52]
 667 0222 BDF93810 		ldrsh	r1, [sp, #56]
 668              	.LVL71:
 669              	.LBB46:
 670              	.LBI46:
 671              		.file 2 "Middlewares/lvgl/src/draw/../misc/lv_area.h"
   1:Middlewares/lvgl/src/draw/../misc/lv_area.h **** /**
   2:Middlewares/lvgl/src/draw/../misc/lv_area.h ****  * @file lv_area.h
   3:Middlewares/lvgl/src/draw/../misc/lv_area.h ****  *
   4:Middlewares/lvgl/src/draw/../misc/lv_area.h ****  */
   5:Middlewares/lvgl/src/draw/../misc/lv_area.h **** 
   6:Middlewares/lvgl/src/draw/../misc/lv_area.h **** #ifndef LV_AREA_H
   7:Middlewares/lvgl/src/draw/../misc/lv_area.h **** #define LV_AREA_H
   8:Middlewares/lvgl/src/draw/../misc/lv_area.h **** 
   9:Middlewares/lvgl/src/draw/../misc/lv_area.h **** #ifdef __cplusplus
  10:Middlewares/lvgl/src/draw/../misc/lv_area.h **** extern "C" {
  11:Middlewares/lvgl/src/draw/../misc/lv_area.h **** #endif
  12:Middlewares/lvgl/src/draw/../misc/lv_area.h **** 
  13:Middlewares/lvgl/src/draw/../misc/lv_area.h **** /*********************
  14:Middlewares/lvgl/src/draw/../misc/lv_area.h ****  *      INCLUDES
  15:Middlewares/lvgl/src/draw/../misc/lv_area.h ****  *********************/
  16:Middlewares/lvgl/src/draw/../misc/lv_area.h **** #include "../lv_conf_internal.h"
  17:Middlewares/lvgl/src/draw/../misc/lv_area.h **** #include <string.h>
  18:Middlewares/lvgl/src/draw/../misc/lv_area.h **** #include <stdbool.h>
  19:Middlewares/lvgl/src/draw/../misc/lv_area.h **** #include <stdint.h>
  20:Middlewares/lvgl/src/draw/../misc/lv_area.h **** 
  21:Middlewares/lvgl/src/draw/../misc/lv_area.h **** /*********************
  22:Middlewares/lvgl/src/draw/../misc/lv_area.h ****  *      DEFINES
  23:Middlewares/lvgl/src/draw/../misc/lv_area.h ****  *********************/
ARM GAS  /tmp/cc9peG0g.s 			page 32


  24:Middlewares/lvgl/src/draw/../misc/lv_area.h **** 
  25:Middlewares/lvgl/src/draw/../misc/lv_area.h **** #define _LV_COORD_MAX_REDUCE    8192
  26:Middlewares/lvgl/src/draw/../misc/lv_area.h **** 
  27:Middlewares/lvgl/src/draw/../misc/lv_area.h **** #if LV_USE_LARGE_COORD
  28:Middlewares/lvgl/src/draw/../misc/lv_area.h **** typedef int32_t lv_coord_t;
  29:Middlewares/lvgl/src/draw/../misc/lv_area.h **** #else
  30:Middlewares/lvgl/src/draw/../misc/lv_area.h **** typedef int16_t lv_coord_t;
  31:Middlewares/lvgl/src/draw/../misc/lv_area.h **** #endif
  32:Middlewares/lvgl/src/draw/../misc/lv_area.h **** 
  33:Middlewares/lvgl/src/draw/../misc/lv_area.h **** /*To allow some special values in the end reduce the max value*/
  34:Middlewares/lvgl/src/draw/../misc/lv_area.h **** #define LV_COORD_MAX ((lv_coord_t)((uint32_t)((uint32_t)1 << (8 * sizeof(lv_coord_t) - 1)) - _LV_CO
  35:Middlewares/lvgl/src/draw/../misc/lv_area.h **** #define LV_COORD_MIN (-LV_COORD_MAX)
  36:Middlewares/lvgl/src/draw/../misc/lv_area.h **** 
  37:Middlewares/lvgl/src/draw/../misc/lv_area.h **** LV_EXPORT_CONST_INT(LV_COORD_MAX);
  38:Middlewares/lvgl/src/draw/../misc/lv_area.h **** LV_EXPORT_CONST_INT(LV_COORD_MIN);
  39:Middlewares/lvgl/src/draw/../misc/lv_area.h **** 
  40:Middlewares/lvgl/src/draw/../misc/lv_area.h **** /**********************
  41:Middlewares/lvgl/src/draw/../misc/lv_area.h ****  *      TYPEDEFS
  42:Middlewares/lvgl/src/draw/../misc/lv_area.h ****  **********************/
  43:Middlewares/lvgl/src/draw/../misc/lv_area.h **** 
  44:Middlewares/lvgl/src/draw/../misc/lv_area.h **** /**
  45:Middlewares/lvgl/src/draw/../misc/lv_area.h ****  * Represents a point on the screen.
  46:Middlewares/lvgl/src/draw/../misc/lv_area.h ****  */
  47:Middlewares/lvgl/src/draw/../misc/lv_area.h **** typedef struct {
  48:Middlewares/lvgl/src/draw/../misc/lv_area.h ****     lv_coord_t x;
  49:Middlewares/lvgl/src/draw/../misc/lv_area.h ****     lv_coord_t y;
  50:Middlewares/lvgl/src/draw/../misc/lv_area.h **** } lv_point_t;
  51:Middlewares/lvgl/src/draw/../misc/lv_area.h **** 
  52:Middlewares/lvgl/src/draw/../misc/lv_area.h **** /** Represents an area of the screen.*/
  53:Middlewares/lvgl/src/draw/../misc/lv_area.h **** typedef struct {
  54:Middlewares/lvgl/src/draw/../misc/lv_area.h ****     lv_coord_t x1;
  55:Middlewares/lvgl/src/draw/../misc/lv_area.h ****     lv_coord_t y1;
  56:Middlewares/lvgl/src/draw/../misc/lv_area.h ****     lv_coord_t x2;
  57:Middlewares/lvgl/src/draw/../misc/lv_area.h ****     lv_coord_t y2;
  58:Middlewares/lvgl/src/draw/../misc/lv_area.h **** } lv_area_t;
  59:Middlewares/lvgl/src/draw/../misc/lv_area.h **** 
  60:Middlewares/lvgl/src/draw/../misc/lv_area.h **** /** Alignments*/
  61:Middlewares/lvgl/src/draw/../misc/lv_area.h **** enum {
  62:Middlewares/lvgl/src/draw/../misc/lv_area.h ****     LV_ALIGN_DEFAULT = 0,
  63:Middlewares/lvgl/src/draw/../misc/lv_area.h ****     LV_ALIGN_TOP_LEFT,
  64:Middlewares/lvgl/src/draw/../misc/lv_area.h ****     LV_ALIGN_TOP_MID,
  65:Middlewares/lvgl/src/draw/../misc/lv_area.h ****     LV_ALIGN_TOP_RIGHT,
  66:Middlewares/lvgl/src/draw/../misc/lv_area.h ****     LV_ALIGN_BOTTOM_LEFT,
  67:Middlewares/lvgl/src/draw/../misc/lv_area.h ****     LV_ALIGN_BOTTOM_MID,
  68:Middlewares/lvgl/src/draw/../misc/lv_area.h ****     LV_ALIGN_BOTTOM_RIGHT,
  69:Middlewares/lvgl/src/draw/../misc/lv_area.h ****     LV_ALIGN_LEFT_MID,
  70:Middlewares/lvgl/src/draw/../misc/lv_area.h ****     LV_ALIGN_RIGHT_MID,
  71:Middlewares/lvgl/src/draw/../misc/lv_area.h ****     LV_ALIGN_CENTER,
  72:Middlewares/lvgl/src/draw/../misc/lv_area.h **** 
  73:Middlewares/lvgl/src/draw/../misc/lv_area.h ****     LV_ALIGN_OUT_TOP_LEFT,
  74:Middlewares/lvgl/src/draw/../misc/lv_area.h ****     LV_ALIGN_OUT_TOP_MID,
  75:Middlewares/lvgl/src/draw/../misc/lv_area.h ****     LV_ALIGN_OUT_TOP_RIGHT,
  76:Middlewares/lvgl/src/draw/../misc/lv_area.h ****     LV_ALIGN_OUT_BOTTOM_LEFT,
  77:Middlewares/lvgl/src/draw/../misc/lv_area.h ****     LV_ALIGN_OUT_BOTTOM_MID,
  78:Middlewares/lvgl/src/draw/../misc/lv_area.h ****     LV_ALIGN_OUT_BOTTOM_RIGHT,
  79:Middlewares/lvgl/src/draw/../misc/lv_area.h ****     LV_ALIGN_OUT_LEFT_TOP,
  80:Middlewares/lvgl/src/draw/../misc/lv_area.h ****     LV_ALIGN_OUT_LEFT_MID,
ARM GAS  /tmp/cc9peG0g.s 			page 33


  81:Middlewares/lvgl/src/draw/../misc/lv_area.h ****     LV_ALIGN_OUT_LEFT_BOTTOM,
  82:Middlewares/lvgl/src/draw/../misc/lv_area.h ****     LV_ALIGN_OUT_RIGHT_TOP,
  83:Middlewares/lvgl/src/draw/../misc/lv_area.h ****     LV_ALIGN_OUT_RIGHT_MID,
  84:Middlewares/lvgl/src/draw/../misc/lv_area.h ****     LV_ALIGN_OUT_RIGHT_BOTTOM,
  85:Middlewares/lvgl/src/draw/../misc/lv_area.h **** };
  86:Middlewares/lvgl/src/draw/../misc/lv_area.h **** typedef uint8_t lv_align_t;
  87:Middlewares/lvgl/src/draw/../misc/lv_area.h **** 
  88:Middlewares/lvgl/src/draw/../misc/lv_area.h **** enum {
  89:Middlewares/lvgl/src/draw/../misc/lv_area.h ****     LV_DIR_NONE     = 0x00,
  90:Middlewares/lvgl/src/draw/../misc/lv_area.h ****     LV_DIR_LEFT     = (1 << 0),
  91:Middlewares/lvgl/src/draw/../misc/lv_area.h ****     LV_DIR_RIGHT    = (1 << 1),
  92:Middlewares/lvgl/src/draw/../misc/lv_area.h ****     LV_DIR_TOP      = (1 << 2),
  93:Middlewares/lvgl/src/draw/../misc/lv_area.h ****     LV_DIR_BOTTOM   = (1 << 3),
  94:Middlewares/lvgl/src/draw/../misc/lv_area.h ****     LV_DIR_HOR      = LV_DIR_LEFT | LV_DIR_RIGHT,
  95:Middlewares/lvgl/src/draw/../misc/lv_area.h ****     LV_DIR_VER      = LV_DIR_TOP | LV_DIR_BOTTOM,
  96:Middlewares/lvgl/src/draw/../misc/lv_area.h ****     LV_DIR_ALL      = LV_DIR_HOR | LV_DIR_VER,
  97:Middlewares/lvgl/src/draw/../misc/lv_area.h **** };
  98:Middlewares/lvgl/src/draw/../misc/lv_area.h **** 
  99:Middlewares/lvgl/src/draw/../misc/lv_area.h **** typedef uint8_t lv_dir_t;
 100:Middlewares/lvgl/src/draw/../misc/lv_area.h **** 
 101:Middlewares/lvgl/src/draw/../misc/lv_area.h **** /**********************
 102:Middlewares/lvgl/src/draw/../misc/lv_area.h ****  * GLOBAL PROTOTYPES
 103:Middlewares/lvgl/src/draw/../misc/lv_area.h ****  **********************/
 104:Middlewares/lvgl/src/draw/../misc/lv_area.h **** 
 105:Middlewares/lvgl/src/draw/../misc/lv_area.h **** /**
 106:Middlewares/lvgl/src/draw/../misc/lv_area.h ****  * Initialize an area
 107:Middlewares/lvgl/src/draw/../misc/lv_area.h ****  * @param area_p pointer to an area
 108:Middlewares/lvgl/src/draw/../misc/lv_area.h ****  * @param x1 left coordinate of the area
 109:Middlewares/lvgl/src/draw/../misc/lv_area.h ****  * @param y1 top coordinate of the area
 110:Middlewares/lvgl/src/draw/../misc/lv_area.h ****  * @param x2 right coordinate of the area
 111:Middlewares/lvgl/src/draw/../misc/lv_area.h ****  * @param y2 bottom coordinate of the area
 112:Middlewares/lvgl/src/draw/../misc/lv_area.h ****  */
 113:Middlewares/lvgl/src/draw/../misc/lv_area.h **** void lv_area_set(lv_area_t * area_p, lv_coord_t x1, lv_coord_t y1, lv_coord_t x2, lv_coord_t y2);
 114:Middlewares/lvgl/src/draw/../misc/lv_area.h **** 
 115:Middlewares/lvgl/src/draw/../misc/lv_area.h **** /**
 116:Middlewares/lvgl/src/draw/../misc/lv_area.h ****  * Copy an area
 117:Middlewares/lvgl/src/draw/../misc/lv_area.h ****  * @param dest pointer to the destination area
 118:Middlewares/lvgl/src/draw/../misc/lv_area.h ****  * @param src pointer to the source area
 119:Middlewares/lvgl/src/draw/../misc/lv_area.h ****  */
 120:Middlewares/lvgl/src/draw/../misc/lv_area.h **** inline static void lv_area_copy(lv_area_t * dest, const lv_area_t * src)
 121:Middlewares/lvgl/src/draw/../misc/lv_area.h **** {
 122:Middlewares/lvgl/src/draw/../misc/lv_area.h ****     dest->x1 = src->x1;
 123:Middlewares/lvgl/src/draw/../misc/lv_area.h ****     dest->y1 = src->y1;
 124:Middlewares/lvgl/src/draw/../misc/lv_area.h ****     dest->x2 = src->x2;
 125:Middlewares/lvgl/src/draw/../misc/lv_area.h ****     dest->y2 = src->y2;
 126:Middlewares/lvgl/src/draw/../misc/lv_area.h **** }
 127:Middlewares/lvgl/src/draw/../misc/lv_area.h **** 
 128:Middlewares/lvgl/src/draw/../misc/lv_area.h **** /**
 129:Middlewares/lvgl/src/draw/../misc/lv_area.h ****  * Get the width of an area
 130:Middlewares/lvgl/src/draw/../misc/lv_area.h ****  * @param area_p pointer to an area
 131:Middlewares/lvgl/src/draw/../misc/lv_area.h ****  * @return the width of the area (if x1 == x2 -> width = 1)
 132:Middlewares/lvgl/src/draw/../misc/lv_area.h ****  */
 133:Middlewares/lvgl/src/draw/../misc/lv_area.h **** static inline lv_coord_t lv_area_get_width(const lv_area_t * area_p)
 672              		.loc 2 133 26 is_stmt 1 view .LVU236
 673              	.LBB47:
 134:Middlewares/lvgl/src/draw/../misc/lv_area.h **** {
 135:Middlewares/lvgl/src/draw/../misc/lv_area.h ****     return (lv_coord_t)(area_p->x2 - area_p->x1 + 1);
ARM GAS  /tmp/cc9peG0g.s 			page 34


 674              		.loc 2 135 5 view .LVU237
 675              		.loc 2 135 31 is_stmt 0 view .LVU238
 676 0226 BDF83C30 		ldrh	r3, [sp, #60]
 677              		.loc 2 135 44 view .LVU239
 678 022a 8AB2     		uxth	r2, r1
 679              	.LVL72:
 680              		.loc 2 135 36 view .LVU240
 681 022c 9B1A     		subs	r3, r3, r2
 682 022e 9BB2     		uxth	r3, r3
 683              		.loc 2 135 49 view .LVU241
 684 0230 0133     		adds	r3, r3, #1
 685              	.LVL73:
 686              		.loc 2 135 49 view .LVU242
 687              	.LBE47:
 688              	.LBE46:
 576:Middlewares/lvgl/src/draw/lv_draw_label.c ****                                                              lv_area_get_width(&fill_area));
 689              		.loc 1 576 43 view .LVU243
 690 0232 1BB2     		sxth	r3, r3
 691 0234 BDF93E20 		ldrsh	r2, [sp, #62]
 692 0238 FFF7FEFF 		bl	lv_draw_mask_apply
 693              	.LVL74:
 578:Middlewares/lvgl/src/draw/lv_draw_label.c ****                 lv_memset_00(mask_buf + mask_p_start, lv_area_get_width(&fill_area));
 694              		.loc 1 578 13 is_stmt 1 view .LVU244
 578:Middlewares/lvgl/src/draw/lv_draw_label.c ****                 lv_memset_00(mask_buf + mask_p_start, lv_area_get_width(&fill_area));
 695              		.loc 1 578 15 is_stmt 0 view .LVU245
 696 023c 0028     		cmp	r0, #0
 697 023e CDD1     		bne	.L36
 579:Middlewares/lvgl/src/draw/lv_draw_label.c ****             }
 698              		.loc 1 579 17 is_stmt 1 view .LVU246
 699              	.LVL75:
 700              	.LBB48:
 701              	.LBI48:
 133:Middlewares/lvgl/src/draw/../misc/lv_area.h **** {
 702              		.loc 2 133 26 view .LVU247
 703              	.LBB49:
 704              		.loc 2 135 5 view .LVU248
 705              		.loc 2 135 31 is_stmt 0 view .LVU249
 706 0240 BDF83C10 		ldrh	r1, [sp, #60]
 707              		.loc 2 135 44 view .LVU250
 708 0244 BDF83830 		ldrh	r3, [sp, #56]
 709              		.loc 2 135 36 view .LVU251
 710 0248 C91A     		subs	r1, r1, r3
 711 024a 89B2     		uxth	r1, r1
 712              		.loc 2 135 49 view .LVU252
 713 024c 0131     		adds	r1, r1, #1
 714              	.LVL76:
 715              		.loc 2 135 49 view .LVU253
 716              	.LBE49:
 717              	.LBE48:
 579:Middlewares/lvgl/src/draw/lv_draw_label.c ****             }
 718              		.loc 1 579 17 view .LVU254
 719 024e 09B2     		sxth	r1, r1
 720 0250 0D98     		ldr	r0, [sp, #52]
 721              	.LVL77:
 579:Middlewares/lvgl/src/draw/lv_draw_label.c ****             }
 722              		.loc 1 579 17 view .LVU255
 723 0252 FFF7FEFF 		bl	lv_memset_00
ARM GAS  /tmp/cc9peG0g.s 			page 35


 724              	.LVL78:
 725 0256 C1E7     		b	.L36
 726              	.L37:
 579:Middlewares/lvgl/src/draw/lv_draw_label.c ****             }
 727              		.loc 1 579 17 view .LVU256
 728              	.LBE45:
 588:Middlewares/lvgl/src/draw/lv_draw_label.c ****                            color, mask_buf, LV_DRAW_MASK_RES_CHANGED, LV_OPA_COVER,
 729              		.loc 1 588 13 is_stmt 1 view .LVU257
 730 0258 0C9B     		ldr	r3, [sp, #48]
 731 025a 0293     		str	r3, [sp, #8]
 732 025c FF23     		movs	r3, #255
 733 025e 0193     		str	r3, [sp, #4]
 734 0260 0223     		movs	r3, #2
 735 0262 0093     		str	r3, [sp]
 736 0264 4B46     		mov	r3, r9
 737 0266 BDF86C20 		ldrh	r2, [sp, #108]
 738 026a 0EA9     		add	r1, sp, #56
 739 026c 0B98     		ldr	r0, [sp, #44]
 740 026e FFF7FEFF 		bl	_lv_blend_fill
 741              	.LVL79:
 592:Middlewares/lvgl/src/draw/lv_draw_label.c ****             fill_area.y2 = fill_area.y1;
 742              		.loc 1 592 13 view .LVU258
 592:Middlewares/lvgl/src/draw/lv_draw_label.c ****             fill_area.y2 = fill_area.y1;
 743              		.loc 1 592 37 is_stmt 0 view .LVU259
 744 0272 BDF83E30 		ldrh	r3, [sp, #62]
 592:Middlewares/lvgl/src/draw/lv_draw_label.c ****             fill_area.y2 = fill_area.y1;
 745              		.loc 1 592 41 view .LVU260
 746 0276 0133     		adds	r3, r3, #1
 747 0278 1BB2     		sxth	r3, r3
 592:Middlewares/lvgl/src/draw/lv_draw_label.c ****             fill_area.y2 = fill_area.y1;
 748              		.loc 1 592 26 view .LVU261
 749 027a ADF83A30 		strh	r3, [sp, #58]	@ movhi
 593:Middlewares/lvgl/src/draw/lv_draw_label.c ****             mask_p = 0;
 750              		.loc 1 593 13 is_stmt 1 view .LVU262
 593:Middlewares/lvgl/src/draw/lv_draw_label.c ****             mask_p = 0;
 751              		.loc 1 593 26 is_stmt 0 view .LVU263
 752 027e ADF83E30 		strh	r3, [sp, #62]	@ movhi
 594:Middlewares/lvgl/src/draw/lv_draw_label.c ****         }
 753              		.loc 1 594 13 is_stmt 1 view .LVU264
 754              	.LVL80:
 594:Middlewares/lvgl/src/draw/lv_draw_label.c ****         }
 755              		.loc 1 594 20 is_stmt 0 view .LVU265
 756 0282 4FF0000C 		mov	ip, #0
 757 0286 B6E7     		b	.L38
 758              	.LVL81:
 759              	.L55:
 594:Middlewares/lvgl/src/draw/lv_draw_label.c ****         }
 760              		.loc 1 594 20 view .LVU266
 761              	.LBE50:
 603:Middlewares/lvgl/src/draw/lv_draw_label.c ****         fill_area.y2--;
 762              		.loc 1 603 5 is_stmt 1 view .LVU267
 603:Middlewares/lvgl/src/draw/lv_draw_label.c ****         fill_area.y2--;
 763              		.loc 1 603 17 is_stmt 0 view .LVU268
 764 0288 BDF93A20 		ldrsh	r2, [sp, #58]
 603:Middlewares/lvgl/src/draw/lv_draw_label.c ****         fill_area.y2--;
 765              		.loc 1 603 33 view .LVU269
 766 028c BDF93E30 		ldrsh	r3, [sp, #62]
ARM GAS  /tmp/cc9peG0g.s 			page 36


 767              	.LVL82:
 603:Middlewares/lvgl/src/draw/lv_draw_label.c ****         fill_area.y2--;
 768              		.loc 1 603 7 view .LVU270
 769 0290 9A42     		cmp	r2, r3
 770 0292 05D1     		bne	.L56
 771              	.LVL83:
 772              	.L40:
 611:Middlewares/lvgl/src/draw/lv_draw_label.c **** }
 773              		.loc 1 611 5 is_stmt 1 view .LVU271
 774 0294 4846     		mov	r0, r9
 775 0296 FFF7FEFF 		bl	lv_mem_buf_release
 776              	.LVL84:
 777              	.L12:
 612:Middlewares/lvgl/src/draw/lv_draw_label.c **** 
 778              		.loc 1 612 1 is_stmt 0 view .LVU272
 779 029a 11B0     		add	sp, sp, #68
 780              	.LCFI2:
 781              		.cfi_remember_state
 782              		.cfi_def_cfa_offset 36
 783              		@ sp needed
 784 029c BDE8F08F 		pop	{r4, r5, r6, r7, r8, r9, r10, fp, pc}
 785              	.LVL85:
 786              	.L56:
 787              	.LCFI3:
 788              		.cfi_restore_state
 604:Middlewares/lvgl/src/draw/lv_draw_label.c ****         _lv_blend_fill(clip_area, &fill_area,
 789              		.loc 1 604 9 is_stmt 1 view .LVU273
 604:Middlewares/lvgl/src/draw/lv_draw_label.c ****         _lv_blend_fill(clip_area, &fill_area,
 790              		.loc 1 604 21 is_stmt 0 view .LVU274
 791 02a0 013B     		subs	r3, r3, #1
 792 02a2 ADF83E30 		strh	r3, [sp, #62]	@ movhi
 605:Middlewares/lvgl/src/draw/lv_draw_label.c ****                        color, mask_buf, LV_DRAW_MASK_RES_CHANGED, LV_OPA_COVER,
 793              		.loc 1 605 9 is_stmt 1 view .LVU275
 794 02a6 0C9B     		ldr	r3, [sp, #48]
 795 02a8 0293     		str	r3, [sp, #8]
 796 02aa FF23     		movs	r3, #255
 797 02ac 0193     		str	r3, [sp, #4]
 798 02ae 0223     		movs	r3, #2
 799 02b0 0093     		str	r3, [sp]
 800 02b2 4B46     		mov	r3, r9
 801 02b4 BDF86C20 		ldrh	r2, [sp, #108]
 802 02b8 0EA9     		add	r1, sp, #56
 803 02ba 0B98     		ldr	r0, [sp, #44]
 804 02bc FFF7FEFF 		bl	_lv_blend_fill
 805              	.LVL86:
 608:Middlewares/lvgl/src/draw/lv_draw_label.c ****     }
 806              		.loc 1 608 9 view .LVU276
 608:Middlewares/lvgl/src/draw/lv_draw_label.c ****     }
 807              		.loc 1 608 9 is_stmt 0 view .LVU277
 808 02c0 E8E7     		b	.L40
 809              	.L58:
 810 02c2 00BF     		.align	2
 811              	.L57:
 812 02c4 00000000 		.word	.LANCHOR5
 813 02c8 00000000 		.word	.LANCHOR6
 814 02cc 00000000 		.word	.LANCHOR4
 815 02d0 00000000 		.word	.LANCHOR3
ARM GAS  /tmp/cc9peG0g.s 			page 37


 816 02d4 00000000 		.word	.LANCHOR0
 817 02d8 00000000 		.word	.LANCHOR2
 818 02dc 00000000 		.word	.LANCHOR1
 819              		.cfi_endproc
 820              	.LFE150:
 822              		.section	.text.lv_draw_label_dsc_init,"ax",%progbits
 823              		.align	1
 824              		.global	lv_draw_label_dsc_init
 825              		.syntax unified
 826              		.thumb
 827              		.thumb_func
 828              		.fpu fpv4-sp-d16
 830              	lv_draw_label_dsc_init:
 831              	.LVL87:
 832              	.LFB147:
  92:Middlewares/lvgl/src/draw/lv_draw_label.c ****     lv_memset_00(dsc, sizeof(lv_draw_label_dsc_t));
 833              		.loc 1 92 1 is_stmt 1 view -0
 834              		.cfi_startproc
 835              		@ args = 0, pretend = 0, frame = 0
 836              		@ frame_needed = 0, uses_anonymous_args = 0
  92:Middlewares/lvgl/src/draw/lv_draw_label.c ****     lv_memset_00(dsc, sizeof(lv_draw_label_dsc_t));
 837              		.loc 1 92 1 is_stmt 0 view .LVU279
 838 0000 10B5     		push	{r4, lr}
 839              	.LCFI4:
 840              		.cfi_def_cfa_offset 8
 841              		.cfi_offset 4, -8
 842              		.cfi_offset 14, -4
 843 0002 0446     		mov	r4, r0
  93:Middlewares/lvgl/src/draw/lv_draw_label.c ****     dsc->opa = LV_OPA_COVER;
 844              		.loc 1 93 5 is_stmt 1 view .LVU280
 845 0004 2021     		movs	r1, #32
 846 0006 FFF7FEFF 		bl	lv_memset_00
 847              	.LVL88:
  94:Middlewares/lvgl/src/draw/lv_draw_label.c ****     dsc->color = lv_color_black();
 848              		.loc 1 94 5 view .LVU281
  94:Middlewares/lvgl/src/draw/lv_draw_label.c ****     dsc->color = lv_color_black();
 849              		.loc 1 94 14 is_stmt 0 view .LVU282
 850 000a FF23     		movs	r3, #255
 851 000c A376     		strb	r3, [r4, #26]
  95:Middlewares/lvgl/src/draw/lv_draw_label.c ****     dsc->font = LV_FONT_DEFAULT;
 852              		.loc 1 95 5 is_stmt 1 view .LVU283
 853              	.LBB51:
 854              	.LBI51:
 855              		.file 3 "Middlewares/lvgl/src/draw/../misc/lv_color.h"
   1:Middlewares/lvgl/src/draw/../misc/lv_color.h **** /**
   2:Middlewares/lvgl/src/draw/../misc/lv_color.h ****  * @file lv_color.h
   3:Middlewares/lvgl/src/draw/../misc/lv_color.h ****  *
   4:Middlewares/lvgl/src/draw/../misc/lv_color.h ****  */
   5:Middlewares/lvgl/src/draw/../misc/lv_color.h **** 
   6:Middlewares/lvgl/src/draw/../misc/lv_color.h **** #ifndef LV_COLOR_H
   7:Middlewares/lvgl/src/draw/../misc/lv_color.h **** #define LV_COLOR_H
   8:Middlewares/lvgl/src/draw/../misc/lv_color.h **** 
   9:Middlewares/lvgl/src/draw/../misc/lv_color.h **** #ifdef __cplusplus
  10:Middlewares/lvgl/src/draw/../misc/lv_color.h **** extern "C" {
  11:Middlewares/lvgl/src/draw/../misc/lv_color.h **** #endif
  12:Middlewares/lvgl/src/draw/../misc/lv_color.h **** 
  13:Middlewares/lvgl/src/draw/../misc/lv_color.h **** /*********************
ARM GAS  /tmp/cc9peG0g.s 			page 38


  14:Middlewares/lvgl/src/draw/../misc/lv_color.h ****  *      INCLUDES
  15:Middlewares/lvgl/src/draw/../misc/lv_color.h ****  *********************/
  16:Middlewares/lvgl/src/draw/../misc/lv_color.h **** #include "../lv_conf_internal.h"
  17:Middlewares/lvgl/src/draw/../misc/lv_color.h **** #include "lv_math.h"
  18:Middlewares/lvgl/src/draw/../misc/lv_color.h **** #include "lv_types.h"
  19:Middlewares/lvgl/src/draw/../misc/lv_color.h **** 
  20:Middlewares/lvgl/src/draw/../misc/lv_color.h **** /*Error checking*/
  21:Middlewares/lvgl/src/draw/../misc/lv_color.h **** #if LV_COLOR_DEPTH == 24
  22:Middlewares/lvgl/src/draw/../misc/lv_color.h **** #error "LV_COLOR_DEPTH 24 is deprecated. Use LV_COLOR_DEPTH 32 instead (lv_conf.h)"
  23:Middlewares/lvgl/src/draw/../misc/lv_color.h **** #endif
  24:Middlewares/lvgl/src/draw/../misc/lv_color.h **** 
  25:Middlewares/lvgl/src/draw/../misc/lv_color.h **** #if LV_COLOR_DEPTH != 32 && LV_COLOR_SCREEN_TRANSP != 0
  26:Middlewares/lvgl/src/draw/../misc/lv_color.h **** #error "LV_COLOR_SCREEN_TRANSP requires LV_COLOR_DEPTH == 32. Set it in lv_conf.h"
  27:Middlewares/lvgl/src/draw/../misc/lv_color.h **** #endif
  28:Middlewares/lvgl/src/draw/../misc/lv_color.h **** 
  29:Middlewares/lvgl/src/draw/../misc/lv_color.h **** #if LV_COLOR_DEPTH != 16 && LV_COLOR_16_SWAP != 0
  30:Middlewares/lvgl/src/draw/../misc/lv_color.h **** #error "LV_COLOR_16_SWAP requires LV_COLOR_DEPTH == 16. Set it in lv_conf.h"
  31:Middlewares/lvgl/src/draw/../misc/lv_color.h **** #endif
  32:Middlewares/lvgl/src/draw/../misc/lv_color.h **** 
  33:Middlewares/lvgl/src/draw/../misc/lv_color.h **** #include <stdint.h>
  34:Middlewares/lvgl/src/draw/../misc/lv_color.h **** 
  35:Middlewares/lvgl/src/draw/../misc/lv_color.h **** /*********************
  36:Middlewares/lvgl/src/draw/../misc/lv_color.h ****  *      DEFINES
  37:Middlewares/lvgl/src/draw/../misc/lv_color.h ****  *********************/
  38:Middlewares/lvgl/src/draw/../misc/lv_color.h **** 
  39:Middlewares/lvgl/src/draw/../misc/lv_color.h **** /**
  40:Middlewares/lvgl/src/draw/../misc/lv_color.h ****  * Opacity percentages.
  41:Middlewares/lvgl/src/draw/../misc/lv_color.h ****  */
  42:Middlewares/lvgl/src/draw/../misc/lv_color.h **** enum {
  43:Middlewares/lvgl/src/draw/../misc/lv_color.h ****     LV_OPA_TRANSP = 0,
  44:Middlewares/lvgl/src/draw/../misc/lv_color.h ****     LV_OPA_0      = 0,
  45:Middlewares/lvgl/src/draw/../misc/lv_color.h ****     LV_OPA_10     = 25,
  46:Middlewares/lvgl/src/draw/../misc/lv_color.h ****     LV_OPA_20     = 51,
  47:Middlewares/lvgl/src/draw/../misc/lv_color.h ****     LV_OPA_30     = 76,
  48:Middlewares/lvgl/src/draw/../misc/lv_color.h ****     LV_OPA_40     = 102,
  49:Middlewares/lvgl/src/draw/../misc/lv_color.h ****     LV_OPA_50     = 127,
  50:Middlewares/lvgl/src/draw/../misc/lv_color.h ****     LV_OPA_60     = 153,
  51:Middlewares/lvgl/src/draw/../misc/lv_color.h ****     LV_OPA_70     = 178,
  52:Middlewares/lvgl/src/draw/../misc/lv_color.h ****     LV_OPA_80     = 204,
  53:Middlewares/lvgl/src/draw/../misc/lv_color.h ****     LV_OPA_90     = 229,
  54:Middlewares/lvgl/src/draw/../misc/lv_color.h ****     LV_OPA_100    = 255,
  55:Middlewares/lvgl/src/draw/../misc/lv_color.h ****     LV_OPA_COVER  = 255,
  56:Middlewares/lvgl/src/draw/../misc/lv_color.h **** };
  57:Middlewares/lvgl/src/draw/../misc/lv_color.h **** 
  58:Middlewares/lvgl/src/draw/../misc/lv_color.h **** #define LV_OPA_MIN 2    /*Opacities below this will be transparent*/
  59:Middlewares/lvgl/src/draw/../misc/lv_color.h **** #define LV_OPA_MAX 253  /*Opacities above this will fully cover*/
  60:Middlewares/lvgl/src/draw/../misc/lv_color.h **** 
  61:Middlewares/lvgl/src/draw/../misc/lv_color.h **** #if LV_COLOR_DEPTH == 1
  62:Middlewares/lvgl/src/draw/../misc/lv_color.h **** #define LV_COLOR_SIZE 8
  63:Middlewares/lvgl/src/draw/../misc/lv_color.h **** #elif LV_COLOR_DEPTH == 8
  64:Middlewares/lvgl/src/draw/../misc/lv_color.h **** #define LV_COLOR_SIZE 8
  65:Middlewares/lvgl/src/draw/../misc/lv_color.h **** #elif LV_COLOR_DEPTH == 16
  66:Middlewares/lvgl/src/draw/../misc/lv_color.h **** #define LV_COLOR_SIZE 16
  67:Middlewares/lvgl/src/draw/../misc/lv_color.h **** #elif LV_COLOR_DEPTH == 32
  68:Middlewares/lvgl/src/draw/../misc/lv_color.h **** #define LV_COLOR_SIZE 32
  69:Middlewares/lvgl/src/draw/../misc/lv_color.h **** #else
  70:Middlewares/lvgl/src/draw/../misc/lv_color.h **** #error "Invalid LV_COLOR_DEPTH in lv_conf.h! Set it to 1, 8, 16 or 32!"
ARM GAS  /tmp/cc9peG0g.s 			page 39


  71:Middlewares/lvgl/src/draw/../misc/lv_color.h **** #endif
  72:Middlewares/lvgl/src/draw/../misc/lv_color.h **** 
  73:Middlewares/lvgl/src/draw/../misc/lv_color.h **** /**
  74:Middlewares/lvgl/src/draw/../misc/lv_color.h ****  * Adjust color mix functions rounding.
  75:Middlewares/lvgl/src/draw/../misc/lv_color.h ****  * GPUs might calculate color mix (blending) differently.
  76:Middlewares/lvgl/src/draw/../misc/lv_color.h ****  * Should be in range of 0..254
  77:Middlewares/lvgl/src/draw/../misc/lv_color.h ****  * 0: no adjustment, get the integer part of the result (round down)
  78:Middlewares/lvgl/src/draw/../misc/lv_color.h ****  * 64: round up from x.75
  79:Middlewares/lvgl/src/draw/../misc/lv_color.h ****  * 128: round up from half
  80:Middlewares/lvgl/src/draw/../misc/lv_color.h ****  * 192: round up from x.25
  81:Middlewares/lvgl/src/draw/../misc/lv_color.h ****  * 254: round up*/
  82:Middlewares/lvgl/src/draw/../misc/lv_color.h **** #ifndef LV_COLOR_MIX_ROUND_OFS
  83:Middlewares/lvgl/src/draw/../misc/lv_color.h **** #if LV_COLOR_DEPTH == 32
  84:Middlewares/lvgl/src/draw/../misc/lv_color.h **** #define LV_COLOR_MIX_ROUND_OFS 0
  85:Middlewares/lvgl/src/draw/../misc/lv_color.h **** #else
  86:Middlewares/lvgl/src/draw/../misc/lv_color.h **** #define LV_COLOR_MIX_ROUND_OFS 128
  87:Middlewares/lvgl/src/draw/../misc/lv_color.h **** #endif
  88:Middlewares/lvgl/src/draw/../misc/lv_color.h **** #endif
  89:Middlewares/lvgl/src/draw/../misc/lv_color.h **** 
  90:Middlewares/lvgl/src/draw/../misc/lv_color.h **** #if defined(__cplusplus) && !defined(_LV_COLOR_HAS_MODERN_CPP)
  91:Middlewares/lvgl/src/draw/../misc/lv_color.h **** /**
  92:Middlewares/lvgl/src/draw/../misc/lv_color.h **** * MSVC compiler's definition of the __cplusplus indicating 199711L regardless to C++ standard versi
  93:Middlewares/lvgl/src/draw/../misc/lv_color.h **** * see https://devblogs.microsoft.com/cppblog/msvc-now-correctly-reports-cplusplus
  94:Middlewares/lvgl/src/draw/../misc/lv_color.h **** * so we use _MSC_VER macro instead of __cplusplus
  95:Middlewares/lvgl/src/draw/../misc/lv_color.h **** */
  96:Middlewares/lvgl/src/draw/../misc/lv_color.h **** #ifdef _MSC_VER
  97:Middlewares/lvgl/src/draw/../misc/lv_color.h **** #if _MSC_VER >= 1900 /*Visual Studio 2015*/
  98:Middlewares/lvgl/src/draw/../misc/lv_color.h **** #define _LV_COLOR_HAS_MODERN_CPP 1
  99:Middlewares/lvgl/src/draw/../misc/lv_color.h **** #endif
 100:Middlewares/lvgl/src/draw/../misc/lv_color.h **** #else
 101:Middlewares/lvgl/src/draw/../misc/lv_color.h **** #if __cplusplus >= 201103L
 102:Middlewares/lvgl/src/draw/../misc/lv_color.h **** #define _LV_COLOR_HAS_MODERN_CPP 1
 103:Middlewares/lvgl/src/draw/../misc/lv_color.h **** #endif
 104:Middlewares/lvgl/src/draw/../misc/lv_color.h **** #endif
 105:Middlewares/lvgl/src/draw/../misc/lv_color.h **** #endif /*__cplusplus*/
 106:Middlewares/lvgl/src/draw/../misc/lv_color.h **** 
 107:Middlewares/lvgl/src/draw/../misc/lv_color.h **** #ifndef _LV_COLOR_HAS_MODERN_CPP
 108:Middlewares/lvgl/src/draw/../misc/lv_color.h **** #define _LV_COLOR_HAS_MODERN_CPP 0
 109:Middlewares/lvgl/src/draw/../misc/lv_color.h **** #endif
 110:Middlewares/lvgl/src/draw/../misc/lv_color.h **** 
 111:Middlewares/lvgl/src/draw/../misc/lv_color.h **** #if _LV_COLOR_HAS_MODERN_CPP
 112:Middlewares/lvgl/src/draw/../misc/lv_color.h **** /*Fix msvc compiler error C4576 inside C++ code*/
 113:Middlewares/lvgl/src/draw/../misc/lv_color.h **** #define _LV_COLOR_MAKE_TYPE_HELPER lv_color_t
 114:Middlewares/lvgl/src/draw/../misc/lv_color.h **** #else
 115:Middlewares/lvgl/src/draw/../misc/lv_color.h **** #define _LV_COLOR_MAKE_TYPE_HELPER (lv_color_t)
 116:Middlewares/lvgl/src/draw/../misc/lv_color.h **** #endif
 117:Middlewares/lvgl/src/draw/../misc/lv_color.h **** 
 118:Middlewares/lvgl/src/draw/../misc/lv_color.h **** /*---------------------------------------
 119:Middlewares/lvgl/src/draw/../misc/lv_color.h ****  * Macros for all existing color depths
 120:Middlewares/lvgl/src/draw/../misc/lv_color.h ****  * to set/get values of the color channels
 121:Middlewares/lvgl/src/draw/../misc/lv_color.h ****  *------------------------------------------*/
 122:Middlewares/lvgl/src/draw/../misc/lv_color.h **** # define LV_COLOR_SET_R1(c, v) (c).ch.red = (uint8_t)((v) & 0x1)
 123:Middlewares/lvgl/src/draw/../misc/lv_color.h **** # define LV_COLOR_SET_G1(c, v) (c).ch.green = (uint8_t)((v) & 0x1)
 124:Middlewares/lvgl/src/draw/../misc/lv_color.h **** # define LV_COLOR_SET_B1(c, v) (c).ch.blue = (uint8_t)((v) & 0x1)
 125:Middlewares/lvgl/src/draw/../misc/lv_color.h **** # define LV_COLOR_SET_A1(c, v) do {} while(0)
 126:Middlewares/lvgl/src/draw/../misc/lv_color.h **** 
 127:Middlewares/lvgl/src/draw/../misc/lv_color.h **** # define LV_COLOR_GET_R1(c) (c).ch.red
ARM GAS  /tmp/cc9peG0g.s 			page 40


 128:Middlewares/lvgl/src/draw/../misc/lv_color.h **** # define LV_COLOR_GET_G1(c) (c).ch.green
 129:Middlewares/lvgl/src/draw/../misc/lv_color.h **** # define LV_COLOR_GET_B1(c) (c).ch.blue
 130:Middlewares/lvgl/src/draw/../misc/lv_color.h **** # define LV_COLOR_GET_A1(c) 0xFF
 131:Middlewares/lvgl/src/draw/../misc/lv_color.h **** 
 132:Middlewares/lvgl/src/draw/../misc/lv_color.h **** # define _LV_COLOR_ZERO_INITIALIZER1 {0x00}
 133:Middlewares/lvgl/src/draw/../misc/lv_color.h **** # define LV_COLOR_MAKE1(r8, g8, b8)  {(uint8_t)((b8 >> 7) | (g8 >> 7) | (r8 >> 7))}
 134:Middlewares/lvgl/src/draw/../misc/lv_color.h **** 
 135:Middlewares/lvgl/src/draw/../misc/lv_color.h **** # define LV_COLOR_SET_R8(c, v) (c).ch.red = (uint8_t)((v) & 0x7U)
 136:Middlewares/lvgl/src/draw/../misc/lv_color.h **** # define LV_COLOR_SET_G8(c, v) (c).ch.green = (uint8_t)((v) & 0x7U)
 137:Middlewares/lvgl/src/draw/../misc/lv_color.h **** # define LV_COLOR_SET_B8(c, v) (c).ch.blue = (uint8_t)((v) & 0x3U)
 138:Middlewares/lvgl/src/draw/../misc/lv_color.h **** # define LV_COLOR_SET_A8(c, v) do {} while(0)
 139:Middlewares/lvgl/src/draw/../misc/lv_color.h **** 
 140:Middlewares/lvgl/src/draw/../misc/lv_color.h **** # define LV_COLOR_GET_R8(c) (c).ch.red
 141:Middlewares/lvgl/src/draw/../misc/lv_color.h **** # define LV_COLOR_GET_G8(c) (c).ch.green
 142:Middlewares/lvgl/src/draw/../misc/lv_color.h **** # define LV_COLOR_GET_B8(c) (c).ch.blue
 143:Middlewares/lvgl/src/draw/../misc/lv_color.h **** # define LV_COLOR_GET_A8(c) 0xFF
 144:Middlewares/lvgl/src/draw/../misc/lv_color.h **** 
 145:Middlewares/lvgl/src/draw/../misc/lv_color.h **** # define _LV_COLOR_ZERO_INITIALIZER8 _LV_COLOR_MAKE_TYPE_HELPER {{0x00, 0x00, 0x00}}
 146:Middlewares/lvgl/src/draw/../misc/lv_color.h **** # define LV_COLOR_MAKE8(r8, g8, b8) _LV_COLOR_MAKE_TYPE_HELPER  {{(uint8_t)((b8 >> 6) & 0x3U), (uin
 147:Middlewares/lvgl/src/draw/../misc/lv_color.h **** 
 148:Middlewares/lvgl/src/draw/../misc/lv_color.h **** # define LV_COLOR_SET_R16(c, v) (c).ch.red = (uint8_t)((v) & 0x1FU)
 149:Middlewares/lvgl/src/draw/../misc/lv_color.h **** #if LV_COLOR_16_SWAP == 0
 150:Middlewares/lvgl/src/draw/../misc/lv_color.h **** # define LV_COLOR_SET_G16(c, v) (c).ch.green = (uint8_t)((v) & 0x3FU)
 151:Middlewares/lvgl/src/draw/../misc/lv_color.h **** #else
 152:Middlewares/lvgl/src/draw/../misc/lv_color.h **** # define LV_COLOR_SET_G16(c, v) {(c).ch.green_h = (uint8_t)(((v) >> 3) & 0x7); (c).ch.green_l = (ui
 153:Middlewares/lvgl/src/draw/../misc/lv_color.h **** #endif
 154:Middlewares/lvgl/src/draw/../misc/lv_color.h **** # define LV_COLOR_SET_B16(c, v) (c).ch.blue = (uint8_t)((v) & 0x1FU)
 155:Middlewares/lvgl/src/draw/../misc/lv_color.h **** # define LV_COLOR_SET_A16(c, v) do {} while(0)
 156:Middlewares/lvgl/src/draw/../misc/lv_color.h **** 
 157:Middlewares/lvgl/src/draw/../misc/lv_color.h **** # define LV_COLOR_GET_R16(c) (c).ch.red
 158:Middlewares/lvgl/src/draw/../misc/lv_color.h **** #if LV_COLOR_16_SWAP == 0
 159:Middlewares/lvgl/src/draw/../misc/lv_color.h **** # define LV_COLOR_GET_G16(c) (c).ch.green
 160:Middlewares/lvgl/src/draw/../misc/lv_color.h **** #else
 161:Middlewares/lvgl/src/draw/../misc/lv_color.h **** # define LV_COLOR_GET_G16(c) (((c).ch.green_h << 3) + (c).ch.green_l)
 162:Middlewares/lvgl/src/draw/../misc/lv_color.h **** #endif
 163:Middlewares/lvgl/src/draw/../misc/lv_color.h **** # define LV_COLOR_GET_B16(c) (c).ch.blue
 164:Middlewares/lvgl/src/draw/../misc/lv_color.h **** # define LV_COLOR_GET_A16(c) 0xFF
 165:Middlewares/lvgl/src/draw/../misc/lv_color.h **** 
 166:Middlewares/lvgl/src/draw/../misc/lv_color.h **** #if LV_COLOR_16_SWAP == 0
 167:Middlewares/lvgl/src/draw/../misc/lv_color.h **** # define _LV_COLOR_ZERO_INITIALIZER16  {{0x00, 0x00, 0x00}}
 168:Middlewares/lvgl/src/draw/../misc/lv_color.h **** # define LV_COLOR_MAKE16(r8, g8, b8) {{(uint8_t)((b8 >> 3) & 0x1FU), (uint8_t)((g8 >> 2) & 0x3FU), 
 169:Middlewares/lvgl/src/draw/../misc/lv_color.h **** #else
 170:Middlewares/lvgl/src/draw/../misc/lv_color.h **** # define _LV_COLOR_ZERO_INITIALIZER16 {{0x00, 0x00, 0x00, 0x00}}
 171:Middlewares/lvgl/src/draw/../misc/lv_color.h **** # define LV_COLOR_MAKE16(r8, g8, b8) {{(uint8_t)((g8 >> 5) & 0x7U), (uint8_t)((r8 >> 3) & 0x1FU), (
 172:Middlewares/lvgl/src/draw/../misc/lv_color.h **** #endif
 173:Middlewares/lvgl/src/draw/../misc/lv_color.h **** 
 174:Middlewares/lvgl/src/draw/../misc/lv_color.h **** # define LV_COLOR_SET_R32(c, v) (c).ch.red = (uint8_t)((v) & 0xFF)
 175:Middlewares/lvgl/src/draw/../misc/lv_color.h **** # define LV_COLOR_SET_G32(c, v) (c).ch.green = (uint8_t)((v) & 0xFF)
 176:Middlewares/lvgl/src/draw/../misc/lv_color.h **** # define LV_COLOR_SET_B32(c, v) (c).ch.blue = (uint8_t)((v) & 0xFF)
 177:Middlewares/lvgl/src/draw/../misc/lv_color.h **** # define LV_COLOR_SET_A32(c, v) (c).ch.alpha = (uint8_t)((v) & 0xFF)
 178:Middlewares/lvgl/src/draw/../misc/lv_color.h **** 
 179:Middlewares/lvgl/src/draw/../misc/lv_color.h **** # define LV_COLOR_GET_R32(c) (c).ch.red
 180:Middlewares/lvgl/src/draw/../misc/lv_color.h **** # define LV_COLOR_GET_G32(c) (c).ch.green
 181:Middlewares/lvgl/src/draw/../misc/lv_color.h **** # define LV_COLOR_GET_B32(c) (c).ch.blue
 182:Middlewares/lvgl/src/draw/../misc/lv_color.h **** # define LV_COLOR_GET_A32(c) (c).ch.alpha
 183:Middlewares/lvgl/src/draw/../misc/lv_color.h **** 
 184:Middlewares/lvgl/src/draw/../misc/lv_color.h **** # define _LV_COLOR_ZERO_INITIALIZER32  {{0x00, 0x00, 0x00, 0x00}}
ARM GAS  /tmp/cc9peG0g.s 			page 41


 185:Middlewares/lvgl/src/draw/../misc/lv_color.h **** # define LV_COLOR_MAKE32(r8, g8, b8) {{b8, g8, r8, 0xff}} /*Fix 0xff alpha*/
 186:Middlewares/lvgl/src/draw/../misc/lv_color.h **** 
 187:Middlewares/lvgl/src/draw/../misc/lv_color.h **** /*---------------------------------------
 188:Middlewares/lvgl/src/draw/../misc/lv_color.h ****  * Macros for the current color depth
 189:Middlewares/lvgl/src/draw/../misc/lv_color.h ****  * to set/get values of the color channels
 190:Middlewares/lvgl/src/draw/../misc/lv_color.h ****  *------------------------------------------*/
 191:Middlewares/lvgl/src/draw/../misc/lv_color.h **** #define LV_COLOR_SET_R(c, v) LV_CONCAT(LV_COLOR_SET_R, LV_COLOR_DEPTH)(c, v)
 192:Middlewares/lvgl/src/draw/../misc/lv_color.h **** #define LV_COLOR_SET_G(c, v) LV_CONCAT(LV_COLOR_SET_G, LV_COLOR_DEPTH)(c, v)
 193:Middlewares/lvgl/src/draw/../misc/lv_color.h **** #define LV_COLOR_SET_B(c, v) LV_CONCAT(LV_COLOR_SET_B, LV_COLOR_DEPTH)(c, v)
 194:Middlewares/lvgl/src/draw/../misc/lv_color.h **** #define LV_COLOR_SET_A(c, v) LV_CONCAT(LV_COLOR_SET_A, LV_COLOR_DEPTH)(c, v)
 195:Middlewares/lvgl/src/draw/../misc/lv_color.h **** 
 196:Middlewares/lvgl/src/draw/../misc/lv_color.h **** #define LV_COLOR_GET_R(c) LV_CONCAT(LV_COLOR_GET_R, LV_COLOR_DEPTH)(c)
 197:Middlewares/lvgl/src/draw/../misc/lv_color.h **** #define LV_COLOR_GET_G(c) LV_CONCAT(LV_COLOR_GET_G, LV_COLOR_DEPTH)(c)
 198:Middlewares/lvgl/src/draw/../misc/lv_color.h **** #define LV_COLOR_GET_B(c) LV_CONCAT(LV_COLOR_GET_B, LV_COLOR_DEPTH)(c)
 199:Middlewares/lvgl/src/draw/../misc/lv_color.h **** #define LV_COLOR_GET_A(c) LV_CONCAT(LV_COLOR_GET_A, LV_COLOR_DEPTH)(c)
 200:Middlewares/lvgl/src/draw/../misc/lv_color.h **** 
 201:Middlewares/lvgl/src/draw/../misc/lv_color.h **** #define _LV_COLOR_ZERO_INITIALIZER LV_CONCAT(_LV_COLOR_ZERO_INITIALIZER, LV_COLOR_DEPTH)
 202:Middlewares/lvgl/src/draw/../misc/lv_color.h **** #define LV_COLOR_MAKE(r8, g8, b8) LV_CONCAT(LV_COLOR_MAKE, LV_COLOR_DEPTH)(r8, g8, b8)
 203:Middlewares/lvgl/src/draw/../misc/lv_color.h **** 
 204:Middlewares/lvgl/src/draw/../misc/lv_color.h **** #define LV_UDIV255(x) ((uint32_t)((uint32_t) (x) * 0x8081) >> 0x17)
 205:Middlewares/lvgl/src/draw/../misc/lv_color.h **** 
 206:Middlewares/lvgl/src/draw/../misc/lv_color.h **** /**********************
 207:Middlewares/lvgl/src/draw/../misc/lv_color.h ****  *      TYPEDEFS
 208:Middlewares/lvgl/src/draw/../misc/lv_color.h ****  **********************/
 209:Middlewares/lvgl/src/draw/../misc/lv_color.h **** 
 210:Middlewares/lvgl/src/draw/../misc/lv_color.h **** typedef union {
 211:Middlewares/lvgl/src/draw/../misc/lv_color.h ****     uint8_t full; /*must be declared first to set all bits of byte via initializer list*/
 212:Middlewares/lvgl/src/draw/../misc/lv_color.h ****     union {
 213:Middlewares/lvgl/src/draw/../misc/lv_color.h ****         uint8_t blue : 1;
 214:Middlewares/lvgl/src/draw/../misc/lv_color.h ****         uint8_t green : 1;
 215:Middlewares/lvgl/src/draw/../misc/lv_color.h ****         uint8_t red : 1;
 216:Middlewares/lvgl/src/draw/../misc/lv_color.h ****     } ch;
 217:Middlewares/lvgl/src/draw/../misc/lv_color.h **** } lv_color1_t;
 218:Middlewares/lvgl/src/draw/../misc/lv_color.h **** 
 219:Middlewares/lvgl/src/draw/../misc/lv_color.h **** typedef union {
 220:Middlewares/lvgl/src/draw/../misc/lv_color.h ****     struct {
 221:Middlewares/lvgl/src/draw/../misc/lv_color.h ****         uint8_t blue : 2;
 222:Middlewares/lvgl/src/draw/../misc/lv_color.h ****         uint8_t green : 3;
 223:Middlewares/lvgl/src/draw/../misc/lv_color.h ****         uint8_t red : 3;
 224:Middlewares/lvgl/src/draw/../misc/lv_color.h ****     } ch;
 225:Middlewares/lvgl/src/draw/../misc/lv_color.h ****     uint8_t full;
 226:Middlewares/lvgl/src/draw/../misc/lv_color.h **** } lv_color8_t;
 227:Middlewares/lvgl/src/draw/../misc/lv_color.h **** 
 228:Middlewares/lvgl/src/draw/../misc/lv_color.h **** typedef union {
 229:Middlewares/lvgl/src/draw/../misc/lv_color.h ****     struct {
 230:Middlewares/lvgl/src/draw/../misc/lv_color.h **** #if LV_COLOR_16_SWAP == 0
 231:Middlewares/lvgl/src/draw/../misc/lv_color.h ****         uint16_t blue : 5;
 232:Middlewares/lvgl/src/draw/../misc/lv_color.h ****         uint16_t green : 6;
 233:Middlewares/lvgl/src/draw/../misc/lv_color.h ****         uint16_t red : 5;
 234:Middlewares/lvgl/src/draw/../misc/lv_color.h **** #else
 235:Middlewares/lvgl/src/draw/../misc/lv_color.h ****         uint16_t green_h : 3;
 236:Middlewares/lvgl/src/draw/../misc/lv_color.h ****         uint16_t red : 5;
 237:Middlewares/lvgl/src/draw/../misc/lv_color.h ****         uint16_t blue : 5;
 238:Middlewares/lvgl/src/draw/../misc/lv_color.h ****         uint16_t green_l : 3;
 239:Middlewares/lvgl/src/draw/../misc/lv_color.h **** #endif
 240:Middlewares/lvgl/src/draw/../misc/lv_color.h ****     } ch;
 241:Middlewares/lvgl/src/draw/../misc/lv_color.h ****     uint16_t full;
ARM GAS  /tmp/cc9peG0g.s 			page 42


 242:Middlewares/lvgl/src/draw/../misc/lv_color.h **** } lv_color16_t;
 243:Middlewares/lvgl/src/draw/../misc/lv_color.h **** 
 244:Middlewares/lvgl/src/draw/../misc/lv_color.h **** typedef union {
 245:Middlewares/lvgl/src/draw/../misc/lv_color.h ****     struct {
 246:Middlewares/lvgl/src/draw/../misc/lv_color.h ****         uint8_t blue;
 247:Middlewares/lvgl/src/draw/../misc/lv_color.h ****         uint8_t green;
 248:Middlewares/lvgl/src/draw/../misc/lv_color.h ****         uint8_t red;
 249:Middlewares/lvgl/src/draw/../misc/lv_color.h ****         uint8_t alpha;
 250:Middlewares/lvgl/src/draw/../misc/lv_color.h ****     } ch;
 251:Middlewares/lvgl/src/draw/../misc/lv_color.h ****     uint32_t full;
 252:Middlewares/lvgl/src/draw/../misc/lv_color.h **** } lv_color32_t;
 253:Middlewares/lvgl/src/draw/../misc/lv_color.h **** 
 254:Middlewares/lvgl/src/draw/../misc/lv_color.h **** typedef LV_CONCAT3(uint, LV_COLOR_SIZE, _t) lv_color_int_t;
 255:Middlewares/lvgl/src/draw/../misc/lv_color.h **** typedef LV_CONCAT3(lv_color, LV_COLOR_DEPTH, _t) lv_color_t;
 256:Middlewares/lvgl/src/draw/../misc/lv_color.h **** 
 257:Middlewares/lvgl/src/draw/../misc/lv_color.h **** typedef struct {
 258:Middlewares/lvgl/src/draw/../misc/lv_color.h ****     uint16_t h;
 259:Middlewares/lvgl/src/draw/../misc/lv_color.h ****     uint8_t s;
 260:Middlewares/lvgl/src/draw/../misc/lv_color.h ****     uint8_t v;
 261:Middlewares/lvgl/src/draw/../misc/lv_color.h **** } lv_color_hsv_t;
 262:Middlewares/lvgl/src/draw/../misc/lv_color.h **** 
 263:Middlewares/lvgl/src/draw/../misc/lv_color.h **** //! @cond Doxygen_Suppress
 264:Middlewares/lvgl/src/draw/../misc/lv_color.h **** /*No idea where the guard is required but else throws warnings in the docs*/
 265:Middlewares/lvgl/src/draw/../misc/lv_color.h **** typedef uint8_t lv_opa_t;
 266:Middlewares/lvgl/src/draw/../misc/lv_color.h **** //! @endcond
 267:Middlewares/lvgl/src/draw/../misc/lv_color.h **** 
 268:Middlewares/lvgl/src/draw/../misc/lv_color.h **** struct _lv_color_filter_dsc_t;
 269:Middlewares/lvgl/src/draw/../misc/lv_color.h **** 
 270:Middlewares/lvgl/src/draw/../misc/lv_color.h **** typedef lv_color_t (*lv_color_filter_cb_t)(const struct _lv_color_filter_dsc_t *, lv_color_t, lv_op
 271:Middlewares/lvgl/src/draw/../misc/lv_color.h **** 
 272:Middlewares/lvgl/src/draw/../misc/lv_color.h **** typedef struct _lv_color_filter_dsc_t {
 273:Middlewares/lvgl/src/draw/../misc/lv_color.h ****     lv_color_filter_cb_t filter_cb;
 274:Middlewares/lvgl/src/draw/../misc/lv_color.h ****     void * user_data;
 275:Middlewares/lvgl/src/draw/../misc/lv_color.h **** }lv_color_filter_dsc_t;
 276:Middlewares/lvgl/src/draw/../misc/lv_color.h **** 
 277:Middlewares/lvgl/src/draw/../misc/lv_color.h **** 
 278:Middlewares/lvgl/src/draw/../misc/lv_color.h **** typedef enum {
 279:Middlewares/lvgl/src/draw/../misc/lv_color.h ****     LV_PALETTE_RED,
 280:Middlewares/lvgl/src/draw/../misc/lv_color.h ****     LV_PALETTE_PINK,
 281:Middlewares/lvgl/src/draw/../misc/lv_color.h ****     LV_PALETTE_PURPLE,
 282:Middlewares/lvgl/src/draw/../misc/lv_color.h ****     LV_PALETTE_DEEP_PURPLE,
 283:Middlewares/lvgl/src/draw/../misc/lv_color.h ****     LV_PALETTE_INDIGO,
 284:Middlewares/lvgl/src/draw/../misc/lv_color.h ****     LV_PALETTE_BLUE,
 285:Middlewares/lvgl/src/draw/../misc/lv_color.h ****     LV_PALETTE_LIGHT_BLUE,
 286:Middlewares/lvgl/src/draw/../misc/lv_color.h ****     LV_PALETTE_CYAN,
 287:Middlewares/lvgl/src/draw/../misc/lv_color.h ****     LV_PALETTE_TEAL,
 288:Middlewares/lvgl/src/draw/../misc/lv_color.h ****     LV_PALETTE_GREEN,
 289:Middlewares/lvgl/src/draw/../misc/lv_color.h ****     LV_PALETTE_LIGHT_GREEN,
 290:Middlewares/lvgl/src/draw/../misc/lv_color.h ****     LV_PALETTE_LIME,
 291:Middlewares/lvgl/src/draw/../misc/lv_color.h ****     LV_PALETTE_YELLOW,
 292:Middlewares/lvgl/src/draw/../misc/lv_color.h ****     LV_PALETTE_AMBER,
 293:Middlewares/lvgl/src/draw/../misc/lv_color.h ****     LV_PALETTE_ORANGE,
 294:Middlewares/lvgl/src/draw/../misc/lv_color.h ****     LV_PALETTE_DEEP_ORANGE,
 295:Middlewares/lvgl/src/draw/../misc/lv_color.h ****     LV_PALETTE_BROWN,
 296:Middlewares/lvgl/src/draw/../misc/lv_color.h ****     LV_PALETTE_BLUE_GREY,
 297:Middlewares/lvgl/src/draw/../misc/lv_color.h ****     LV_PALETTE_GREY,
 298:Middlewares/lvgl/src/draw/../misc/lv_color.h ****     _LV_PALETTE_LAST,
ARM GAS  /tmp/cc9peG0g.s 			page 43


 299:Middlewares/lvgl/src/draw/../misc/lv_color.h ****     LV_PALETTE_NONE = 0xff,
 300:Middlewares/lvgl/src/draw/../misc/lv_color.h **** }lv_palette_t;
 301:Middlewares/lvgl/src/draw/../misc/lv_color.h **** 
 302:Middlewares/lvgl/src/draw/../misc/lv_color.h **** /**********************
 303:Middlewares/lvgl/src/draw/../misc/lv_color.h ****  * GLOBAL PROTOTYPES
 304:Middlewares/lvgl/src/draw/../misc/lv_color.h ****  **********************/
 305:Middlewares/lvgl/src/draw/../misc/lv_color.h **** 
 306:Middlewares/lvgl/src/draw/../misc/lv_color.h **** /*In color conversations:
 307:Middlewares/lvgl/src/draw/../misc/lv_color.h ****  * - When converting to bigger color type the LSB weight of 1 LSB is calculated
 308:Middlewares/lvgl/src/draw/../misc/lv_color.h ****  *   E.g. 16 bit Red has 5 bits
 309:Middlewares/lvgl/src/draw/../misc/lv_color.h ****  *         8 bit Red has 3 bits
 310:Middlewares/lvgl/src/draw/../misc/lv_color.h ****  *        ----------------------
 311:Middlewares/lvgl/src/draw/../misc/lv_color.h ****  *        8 bit red LSB = (2^5 - 1) / (2^3 - 1) = 31 / 7 = 4
 312:Middlewares/lvgl/src/draw/../misc/lv_color.h ****  *
 313:Middlewares/lvgl/src/draw/../misc/lv_color.h ****  * - When calculating to smaller color type simply shift out the LSBs
 314:Middlewares/lvgl/src/draw/../misc/lv_color.h ****  *   E.g.  8 bit Red has 3 bits
 315:Middlewares/lvgl/src/draw/../misc/lv_color.h ****  *        16 bit Red has 5 bits
 316:Middlewares/lvgl/src/draw/../misc/lv_color.h ****  *        ----------------------
 317:Middlewares/lvgl/src/draw/../misc/lv_color.h ****  *         Shift right with 5 - 3 = 2
 318:Middlewares/lvgl/src/draw/../misc/lv_color.h ****  */
 319:Middlewares/lvgl/src/draw/../misc/lv_color.h **** static inline uint8_t lv_color_to1(lv_color_t color)
 320:Middlewares/lvgl/src/draw/../misc/lv_color.h **** {
 321:Middlewares/lvgl/src/draw/../misc/lv_color.h **** #if LV_COLOR_DEPTH == 1
 322:Middlewares/lvgl/src/draw/../misc/lv_color.h ****     return color.full;
 323:Middlewares/lvgl/src/draw/../misc/lv_color.h **** #elif LV_COLOR_DEPTH == 8
 324:Middlewares/lvgl/src/draw/../misc/lv_color.h ****     if((LV_COLOR_GET_R(color) & 0x4) || (LV_COLOR_GET_G(color) & 0x4) || (LV_COLOR_GET_B(color) & 0
 325:Middlewares/lvgl/src/draw/../misc/lv_color.h ****         return 1;
 326:Middlewares/lvgl/src/draw/../misc/lv_color.h ****     }
 327:Middlewares/lvgl/src/draw/../misc/lv_color.h ****     else {
 328:Middlewares/lvgl/src/draw/../misc/lv_color.h ****         return 0;
 329:Middlewares/lvgl/src/draw/../misc/lv_color.h ****     }
 330:Middlewares/lvgl/src/draw/../misc/lv_color.h **** #elif LV_COLOR_DEPTH == 16
 331:Middlewares/lvgl/src/draw/../misc/lv_color.h ****     if((LV_COLOR_GET_R(color) & 0x10) || (LV_COLOR_GET_G(color) & 0x20) || (LV_COLOR_GET_B(color) &
 332:Middlewares/lvgl/src/draw/../misc/lv_color.h ****         return 1;
 333:Middlewares/lvgl/src/draw/../misc/lv_color.h ****     }
 334:Middlewares/lvgl/src/draw/../misc/lv_color.h ****     else {
 335:Middlewares/lvgl/src/draw/../misc/lv_color.h ****         return 0;
 336:Middlewares/lvgl/src/draw/../misc/lv_color.h ****     }
 337:Middlewares/lvgl/src/draw/../misc/lv_color.h **** #elif LV_COLOR_DEPTH == 32
 338:Middlewares/lvgl/src/draw/../misc/lv_color.h ****     if((LV_COLOR_GET_R(color) & 0x80) || (LV_COLOR_GET_G(color) & 0x80) || (LV_COLOR_GET_B(color) &
 339:Middlewares/lvgl/src/draw/../misc/lv_color.h ****         return 1;
 340:Middlewares/lvgl/src/draw/../misc/lv_color.h ****     }
 341:Middlewares/lvgl/src/draw/../misc/lv_color.h ****     else {
 342:Middlewares/lvgl/src/draw/../misc/lv_color.h ****         return 0;
 343:Middlewares/lvgl/src/draw/../misc/lv_color.h ****     }
 344:Middlewares/lvgl/src/draw/../misc/lv_color.h **** #endif
 345:Middlewares/lvgl/src/draw/../misc/lv_color.h **** }
 346:Middlewares/lvgl/src/draw/../misc/lv_color.h **** 
 347:Middlewares/lvgl/src/draw/../misc/lv_color.h **** static inline uint8_t lv_color_to8(lv_color_t color)
 348:Middlewares/lvgl/src/draw/../misc/lv_color.h **** {
 349:Middlewares/lvgl/src/draw/../misc/lv_color.h **** #if LV_COLOR_DEPTH == 1
 350:Middlewares/lvgl/src/draw/../misc/lv_color.h ****     if(color.full == 0)
 351:Middlewares/lvgl/src/draw/../misc/lv_color.h ****         return 0;
 352:Middlewares/lvgl/src/draw/../misc/lv_color.h ****     else
 353:Middlewares/lvgl/src/draw/../misc/lv_color.h ****         return 0xFF;
 354:Middlewares/lvgl/src/draw/../misc/lv_color.h **** #elif LV_COLOR_DEPTH == 8
 355:Middlewares/lvgl/src/draw/../misc/lv_color.h ****     return color.full;
ARM GAS  /tmp/cc9peG0g.s 			page 44


 356:Middlewares/lvgl/src/draw/../misc/lv_color.h **** #elif LV_COLOR_DEPTH == 16
 357:Middlewares/lvgl/src/draw/../misc/lv_color.h ****     lv_color8_t ret;
 358:Middlewares/lvgl/src/draw/../misc/lv_color.h ****     LV_COLOR_SET_R8(ret, LV_COLOR_GET_R(color) >> 2); /*5 - 3  = 2*/
 359:Middlewares/lvgl/src/draw/../misc/lv_color.h ****     LV_COLOR_SET_G8(ret, LV_COLOR_GET_G(color) >> 3); /*6 - 3  = 3*/
 360:Middlewares/lvgl/src/draw/../misc/lv_color.h ****     LV_COLOR_SET_B8(ret, LV_COLOR_GET_B(color) >> 3); /*5 - 2  = 3*/
 361:Middlewares/lvgl/src/draw/../misc/lv_color.h ****     return ret.full;
 362:Middlewares/lvgl/src/draw/../misc/lv_color.h **** #elif LV_COLOR_DEPTH == 32
 363:Middlewares/lvgl/src/draw/../misc/lv_color.h ****     lv_color8_t ret;
 364:Middlewares/lvgl/src/draw/../misc/lv_color.h ****     LV_COLOR_SET_R8(ret, LV_COLOR_GET_R(color) >> 5); /*8 - 3  = 5*/
 365:Middlewares/lvgl/src/draw/../misc/lv_color.h ****     LV_COLOR_SET_G8(ret, LV_COLOR_GET_G(color) >> 5); /*8 - 3  = 5*/
 366:Middlewares/lvgl/src/draw/../misc/lv_color.h ****     LV_COLOR_SET_B8(ret, LV_COLOR_GET_B(color) >> 6); /*8 - 2  = 6*/
 367:Middlewares/lvgl/src/draw/../misc/lv_color.h ****     return ret.full;
 368:Middlewares/lvgl/src/draw/../misc/lv_color.h **** #endif
 369:Middlewares/lvgl/src/draw/../misc/lv_color.h **** }
 370:Middlewares/lvgl/src/draw/../misc/lv_color.h **** 
 371:Middlewares/lvgl/src/draw/../misc/lv_color.h **** static inline uint16_t lv_color_to16(lv_color_t color)
 372:Middlewares/lvgl/src/draw/../misc/lv_color.h **** {
 373:Middlewares/lvgl/src/draw/../misc/lv_color.h **** #if LV_COLOR_DEPTH == 1
 374:Middlewares/lvgl/src/draw/../misc/lv_color.h ****     if(color.full == 0)
 375:Middlewares/lvgl/src/draw/../misc/lv_color.h ****         return 0;
 376:Middlewares/lvgl/src/draw/../misc/lv_color.h ****     else
 377:Middlewares/lvgl/src/draw/../misc/lv_color.h ****         return 0xFFFF;
 378:Middlewares/lvgl/src/draw/../misc/lv_color.h **** #elif LV_COLOR_DEPTH == 8
 379:Middlewares/lvgl/src/draw/../misc/lv_color.h ****     lv_color16_t ret;
 380:Middlewares/lvgl/src/draw/../misc/lv_color.h ****     LV_COLOR_SET_R16(ret, LV_COLOR_GET_R(color) * 4);  /*(2^5 - 1)/(2^3 - 1) = 31/7 = 4*/
 381:Middlewares/lvgl/src/draw/../misc/lv_color.h ****     LV_COLOR_SET_G16(ret, LV_COLOR_GET_G(color) * 9);  /*(2^6 - 1)/(2^3 - 1) = 63/7 = 9*/
 382:Middlewares/lvgl/src/draw/../misc/lv_color.h ****     LV_COLOR_SET_B16(ret, LV_COLOR_GET_B(color) * 10); /*(2^5 - 1)/(2^2 - 1) = 31/3 = 10*/
 383:Middlewares/lvgl/src/draw/../misc/lv_color.h ****     return ret.full;
 384:Middlewares/lvgl/src/draw/../misc/lv_color.h **** #elif LV_COLOR_DEPTH == 16
 385:Middlewares/lvgl/src/draw/../misc/lv_color.h ****     return color.full;
 386:Middlewares/lvgl/src/draw/../misc/lv_color.h **** #elif LV_COLOR_DEPTH == 32
 387:Middlewares/lvgl/src/draw/../misc/lv_color.h ****     lv_color16_t ret;
 388:Middlewares/lvgl/src/draw/../misc/lv_color.h ****     LV_COLOR_SET_R16(ret, LV_COLOR_GET_R(color) >> 3); /*8 - 5  = 3*/
 389:Middlewares/lvgl/src/draw/../misc/lv_color.h ****     LV_COLOR_SET_G16(ret, LV_COLOR_GET_G(color) >> 2); /*8 - 6  = 2*/
 390:Middlewares/lvgl/src/draw/../misc/lv_color.h ****     LV_COLOR_SET_B16(ret, LV_COLOR_GET_B(color) >> 3); /*8 - 5  = 3*/
 391:Middlewares/lvgl/src/draw/../misc/lv_color.h ****     return ret.full;
 392:Middlewares/lvgl/src/draw/../misc/lv_color.h **** #endif
 393:Middlewares/lvgl/src/draw/../misc/lv_color.h **** }
 394:Middlewares/lvgl/src/draw/../misc/lv_color.h **** 
 395:Middlewares/lvgl/src/draw/../misc/lv_color.h **** static inline uint32_t lv_color_to32(lv_color_t color)
 396:Middlewares/lvgl/src/draw/../misc/lv_color.h **** {
 397:Middlewares/lvgl/src/draw/../misc/lv_color.h **** #if LV_COLOR_DEPTH == 1
 398:Middlewares/lvgl/src/draw/../misc/lv_color.h ****     if(color.full == 0)
 399:Middlewares/lvgl/src/draw/../misc/lv_color.h ****         return 0xFF000000;
 400:Middlewares/lvgl/src/draw/../misc/lv_color.h ****     else
 401:Middlewares/lvgl/src/draw/../misc/lv_color.h ****         return 0xFFFFFFFF;
 402:Middlewares/lvgl/src/draw/../misc/lv_color.h **** #elif LV_COLOR_DEPTH == 8
 403:Middlewares/lvgl/src/draw/../misc/lv_color.h ****     lv_color32_t ret;
 404:Middlewares/lvgl/src/draw/../misc/lv_color.h ****     LV_COLOR_SET_R32(ret, LV_COLOR_GET_R(color) * 36); /*(2^8 - 1)/(2^3 - 1) = 255/7 = 36*/
 405:Middlewares/lvgl/src/draw/../misc/lv_color.h ****     LV_COLOR_SET_G32(ret, LV_COLOR_GET_G(color) * 36); /*(2^8 - 1)/(2^3 - 1) = 255/7 = 36*/
 406:Middlewares/lvgl/src/draw/../misc/lv_color.h ****     LV_COLOR_SET_B32(ret, LV_COLOR_GET_B(color) * 85); /*(2^8 - 1)/(2^2 - 1) = 255/3 = 85*/
 407:Middlewares/lvgl/src/draw/../misc/lv_color.h ****     LV_COLOR_SET_A32(ret, 0xFF);
 408:Middlewares/lvgl/src/draw/../misc/lv_color.h ****     return ret.full;
 409:Middlewares/lvgl/src/draw/../misc/lv_color.h **** #elif LV_COLOR_DEPTH == 16
 410:Middlewares/lvgl/src/draw/../misc/lv_color.h ****     /**
 411:Middlewares/lvgl/src/draw/../misc/lv_color.h ****      * The floating point math for conversion is:
 412:Middlewares/lvgl/src/draw/../misc/lv_color.h ****      *  valueto = valuefrom * ( (2^bitsto - 1) / (float)(2^bitsfrom - 1) )
ARM GAS  /tmp/cc9peG0g.s 			page 45


 413:Middlewares/lvgl/src/draw/../misc/lv_color.h ****      * The faster integer math for conversion is:
 414:Middlewares/lvgl/src/draw/../misc/lv_color.h ****      *  valueto = ( valuefrom * multiplier + adder ) >> divisor
 415:Middlewares/lvgl/src/draw/../misc/lv_color.h ****      *   multiplier = FLOOR( ( (2^bitsto - 1) << divisor ) / (float)(2^bitsfrom - 1) )
 416:Middlewares/lvgl/src/draw/../misc/lv_color.h ****      *
 417:Middlewares/lvgl/src/draw/../misc/lv_color.h ****      * Find the first divisor where ( adder >> divisor ) <= 0
 418:Middlewares/lvgl/src/draw/../misc/lv_color.h ****      *
 419:Middlewares/lvgl/src/draw/../misc/lv_color.h ****      * 5-bit to 8-bit: ( 31 * multiplier + adder ) >> divisor = 255
 420:Middlewares/lvgl/src/draw/../misc/lv_color.h ****      * divisor  multiplier  adder  min (0)  max (31)
 421:Middlewares/lvgl/src/draw/../misc/lv_color.h ****      *       0           8      7        7       255
 422:Middlewares/lvgl/src/draw/../misc/lv_color.h ****      *       1          16     14        7       255
 423:Middlewares/lvgl/src/draw/../misc/lv_color.h ****      *       2          32     28        7       255
 424:Middlewares/lvgl/src/draw/../misc/lv_color.h ****      *       3          65     25        3       255
 425:Middlewares/lvgl/src/draw/../misc/lv_color.h ****      *       4         131     19        1       255
 426:Middlewares/lvgl/src/draw/../misc/lv_color.h ****      *       5         263      7        0       255
 427:Middlewares/lvgl/src/draw/../misc/lv_color.h ****      *
 428:Middlewares/lvgl/src/draw/../misc/lv_color.h ****      * 6-bit to 8-bit: 255 = ( 63 * multiplier + adder ) >> divisor
 429:Middlewares/lvgl/src/draw/../misc/lv_color.h ****      * divisor  multiplier  adder  min (0)  max (63)
 430:Middlewares/lvgl/src/draw/../misc/lv_color.h ****      *       0           4      3        3       255
 431:Middlewares/lvgl/src/draw/../misc/lv_color.h ****      *       1           8      6        3       255
 432:Middlewares/lvgl/src/draw/../misc/lv_color.h ****      *       2          16     12        3       255
 433:Middlewares/lvgl/src/draw/../misc/lv_color.h ****      *       3          32     24        3       255
 434:Middlewares/lvgl/src/draw/../misc/lv_color.h ****      *       4          64     48        3       255
 435:Middlewares/lvgl/src/draw/../misc/lv_color.h ****      *       5         129     33        1       255
 436:Middlewares/lvgl/src/draw/../misc/lv_color.h ****      *       6         259      3        0       255
 437:Middlewares/lvgl/src/draw/../misc/lv_color.h ****      */
 438:Middlewares/lvgl/src/draw/../misc/lv_color.h **** 
 439:Middlewares/lvgl/src/draw/../misc/lv_color.h ****     lv_color32_t ret;
 440:Middlewares/lvgl/src/draw/../misc/lv_color.h ****     LV_COLOR_SET_R32(ret, (LV_COLOR_GET_R(color) * 263 + 7) >> 5);
 441:Middlewares/lvgl/src/draw/../misc/lv_color.h ****     LV_COLOR_SET_G32(ret, (LV_COLOR_GET_G(color) * 259 + 3) >> 6);
 442:Middlewares/lvgl/src/draw/../misc/lv_color.h ****     LV_COLOR_SET_B32(ret, (LV_COLOR_GET_B(color) * 263 + 7) >> 5);
 443:Middlewares/lvgl/src/draw/../misc/lv_color.h ****     LV_COLOR_SET_A32(ret, 0xFF);
 444:Middlewares/lvgl/src/draw/../misc/lv_color.h ****     return ret.full;
 445:Middlewares/lvgl/src/draw/../misc/lv_color.h **** #elif LV_COLOR_DEPTH == 32
 446:Middlewares/lvgl/src/draw/../misc/lv_color.h ****     return color.full;
 447:Middlewares/lvgl/src/draw/../misc/lv_color.h **** #endif
 448:Middlewares/lvgl/src/draw/../misc/lv_color.h **** }
 449:Middlewares/lvgl/src/draw/../misc/lv_color.h **** 
 450:Middlewares/lvgl/src/draw/../misc/lv_color.h **** //! @cond Doxygen_Suppress
 451:Middlewares/lvgl/src/draw/../misc/lv_color.h **** 
 452:Middlewares/lvgl/src/draw/../misc/lv_color.h **** /**
 453:Middlewares/lvgl/src/draw/../misc/lv_color.h ****  * Mix two colors with a given ratio.
 454:Middlewares/lvgl/src/draw/../misc/lv_color.h ****  * @param c1 the first color to mix (usually the foreground)
 455:Middlewares/lvgl/src/draw/../misc/lv_color.h ****  * @param c2 the second color to mix (usually the background)
 456:Middlewares/lvgl/src/draw/../misc/lv_color.h ****  * @param mix The ratio of the colors. 0: full `c2`, 255: full `c1`, 127: half `c1` and half`c2`
 457:Middlewares/lvgl/src/draw/../misc/lv_color.h ****  * @return the mixed color
 458:Middlewares/lvgl/src/draw/../misc/lv_color.h ****  */
 459:Middlewares/lvgl/src/draw/../misc/lv_color.h **** LV_ATTRIBUTE_FAST_MEM static inline lv_color_t lv_color_mix(lv_color_t c1, lv_color_t c2, uint8_t m
 460:Middlewares/lvgl/src/draw/../misc/lv_color.h **** {
 461:Middlewares/lvgl/src/draw/../misc/lv_color.h ****     lv_color_t ret;
 462:Middlewares/lvgl/src/draw/../misc/lv_color.h **** #if LV_COLOR_DEPTH != 1
 463:Middlewares/lvgl/src/draw/../misc/lv_color.h ****     /*LV_COLOR_DEPTH == 8, 16 or 32*/
 464:Middlewares/lvgl/src/draw/../misc/lv_color.h ****     LV_COLOR_SET_R(ret, LV_UDIV255((uint16_t) LV_COLOR_GET_R(c1) * mix + LV_COLOR_GET_R(c2) *
 465:Middlewares/lvgl/src/draw/../misc/lv_color.h ****                                         (255 - mix) + LV_COLOR_MIX_ROUND_OFS));
 466:Middlewares/lvgl/src/draw/../misc/lv_color.h ****     LV_COLOR_SET_G(ret, LV_UDIV255((uint16_t) LV_COLOR_GET_G(c1) * mix + LV_COLOR_GET_G(c2) *
 467:Middlewares/lvgl/src/draw/../misc/lv_color.h ****                                         (255 - mix) + LV_COLOR_MIX_ROUND_OFS));
 468:Middlewares/lvgl/src/draw/../misc/lv_color.h ****     LV_COLOR_SET_B(ret, LV_UDIV255((uint16_t) LV_COLOR_GET_B(c1) * mix + LV_COLOR_GET_B(c2) *
 469:Middlewares/lvgl/src/draw/../misc/lv_color.h ****                                         (255 - mix) + LV_COLOR_MIX_ROUND_OFS));
ARM GAS  /tmp/cc9peG0g.s 			page 46


 470:Middlewares/lvgl/src/draw/../misc/lv_color.h ****     LV_COLOR_SET_A(ret, 0xFF);
 471:Middlewares/lvgl/src/draw/../misc/lv_color.h **** #else
 472:Middlewares/lvgl/src/draw/../misc/lv_color.h ****     /*LV_COLOR_DEPTH == 1*/
 473:Middlewares/lvgl/src/draw/../misc/lv_color.h ****     ret.full = mix > LV_OPA_50 ? c1.full : c2.full;
 474:Middlewares/lvgl/src/draw/../misc/lv_color.h **** #endif
 475:Middlewares/lvgl/src/draw/../misc/lv_color.h **** 
 476:Middlewares/lvgl/src/draw/../misc/lv_color.h ****     return ret;
 477:Middlewares/lvgl/src/draw/../misc/lv_color.h **** }
 478:Middlewares/lvgl/src/draw/../misc/lv_color.h **** 
 479:Middlewares/lvgl/src/draw/../misc/lv_color.h **** LV_ATTRIBUTE_FAST_MEM static inline void lv_color_premult(lv_color_t c, uint8_t mix, uint16_t * out
 480:Middlewares/lvgl/src/draw/../misc/lv_color.h **** {
 481:Middlewares/lvgl/src/draw/../misc/lv_color.h **** #if LV_COLOR_DEPTH != 1
 482:Middlewares/lvgl/src/draw/../misc/lv_color.h ****     out[0] = (uint16_t) LV_COLOR_GET_R(c) * mix;
 483:Middlewares/lvgl/src/draw/../misc/lv_color.h ****     out[1] = (uint16_t) LV_COLOR_GET_G(c) * mix;
 484:Middlewares/lvgl/src/draw/../misc/lv_color.h ****     out[2] = (uint16_t) LV_COLOR_GET_B(c) * mix;
 485:Middlewares/lvgl/src/draw/../misc/lv_color.h **** #else
 486:Middlewares/lvgl/src/draw/../misc/lv_color.h ****     (void) mix;
 487:Middlewares/lvgl/src/draw/../misc/lv_color.h ****     /*Pre-multiplication can't be used with 1 bpp*/
 488:Middlewares/lvgl/src/draw/../misc/lv_color.h ****     out[0] = LV_COLOR_GET_R(c);
 489:Middlewares/lvgl/src/draw/../misc/lv_color.h ****     out[1] = LV_COLOR_GET_G(c);
 490:Middlewares/lvgl/src/draw/../misc/lv_color.h ****     out[2] = LV_COLOR_GET_B(c);
 491:Middlewares/lvgl/src/draw/../misc/lv_color.h **** #endif
 492:Middlewares/lvgl/src/draw/../misc/lv_color.h **** 
 493:Middlewares/lvgl/src/draw/../misc/lv_color.h **** }
 494:Middlewares/lvgl/src/draw/../misc/lv_color.h **** 
 495:Middlewares/lvgl/src/draw/../misc/lv_color.h **** /**
 496:Middlewares/lvgl/src/draw/../misc/lv_color.h ****  * Mix two colors with a given ratio. It runs faster then `lv_color_mix` but requires some pre comp
 497:Middlewares/lvgl/src/draw/../misc/lv_color.h ****  * @param premult_c1 The first color. Should be preprocessed with `lv_color_premult(c1)`
 498:Middlewares/lvgl/src/draw/../misc/lv_color.h ****  * @param c2 The second color. As it is no pre computation required on it
 499:Middlewares/lvgl/src/draw/../misc/lv_color.h ****  * @param mix The ratio of the colors. 0: full `c1`, 255: full `c2`, 127: half `c1` and half `c2`.
 500:Middlewares/lvgl/src/draw/../misc/lv_color.h ****  *            Should be modified like mix = `255 - mix`
 501:Middlewares/lvgl/src/draw/../misc/lv_color.h ****  * @return the mixed color
 502:Middlewares/lvgl/src/draw/../misc/lv_color.h ****  * @note 255 won't give clearly `c1`.
 503:Middlewares/lvgl/src/draw/../misc/lv_color.h ****  */
 504:Middlewares/lvgl/src/draw/../misc/lv_color.h **** LV_ATTRIBUTE_FAST_MEM static inline lv_color_t lv_color_mix_premult(uint16_t * premult_c1, lv_color
 505:Middlewares/lvgl/src/draw/../misc/lv_color.h **** {
 506:Middlewares/lvgl/src/draw/../misc/lv_color.h ****     lv_color_t ret;
 507:Middlewares/lvgl/src/draw/../misc/lv_color.h **** #if LV_COLOR_DEPTH != 1
 508:Middlewares/lvgl/src/draw/../misc/lv_color.h ****     /*LV_COLOR_DEPTH == 8, 16 or 32*/
 509:Middlewares/lvgl/src/draw/../misc/lv_color.h ****     LV_COLOR_SET_R(ret, LV_UDIV255(premult_c1[0] + LV_COLOR_GET_R(c2) * mix + LV_COLOR_MIX_ROUND_OF
 510:Middlewares/lvgl/src/draw/../misc/lv_color.h ****     LV_COLOR_SET_G(ret, LV_UDIV255(premult_c1[1] + LV_COLOR_GET_G(c2) * mix + LV_COLOR_MIX_ROUND_OF
 511:Middlewares/lvgl/src/draw/../misc/lv_color.h ****     LV_COLOR_SET_B(ret, LV_UDIV255(premult_c1[2] + LV_COLOR_GET_B(c2) * mix + LV_COLOR_MIX_ROUND_OF
 512:Middlewares/lvgl/src/draw/../misc/lv_color.h ****     LV_COLOR_SET_A(ret, 0xFF);
 513:Middlewares/lvgl/src/draw/../misc/lv_color.h **** #else
 514:Middlewares/lvgl/src/draw/../misc/lv_color.h ****     /*LV_COLOR_DEPTH == 1*/
 515:Middlewares/lvgl/src/draw/../misc/lv_color.h ****     /*Restore color1*/
 516:Middlewares/lvgl/src/draw/../misc/lv_color.h ****     lv_color_t c1;
 517:Middlewares/lvgl/src/draw/../misc/lv_color.h ****     LV_COLOR_SET_R(c1, premult_c1[0]);
 518:Middlewares/lvgl/src/draw/../misc/lv_color.h ****     LV_COLOR_SET_G(c1, premult_c1[1]);
 519:Middlewares/lvgl/src/draw/../misc/lv_color.h ****     LV_COLOR_SET_B(c1, premult_c1[2]);
 520:Middlewares/lvgl/src/draw/../misc/lv_color.h ****     ret.full = mix > LV_OPA_50 ? c2.full : c1.full;
 521:Middlewares/lvgl/src/draw/../misc/lv_color.h **** #endif
 522:Middlewares/lvgl/src/draw/../misc/lv_color.h **** 
 523:Middlewares/lvgl/src/draw/../misc/lv_color.h ****     return ret;
 524:Middlewares/lvgl/src/draw/../misc/lv_color.h **** }
 525:Middlewares/lvgl/src/draw/../misc/lv_color.h **** 
 526:Middlewares/lvgl/src/draw/../misc/lv_color.h **** /**
ARM GAS  /tmp/cc9peG0g.s 			page 47


 527:Middlewares/lvgl/src/draw/../misc/lv_color.h ****  * Mix two colors. Both color can have alpha value.
 528:Middlewares/lvgl/src/draw/../misc/lv_color.h ****  * @param bg_color background color
 529:Middlewares/lvgl/src/draw/../misc/lv_color.h ****  * @param bg_opa alpha of the background color
 530:Middlewares/lvgl/src/draw/../misc/lv_color.h ****  * @param fg_color foreground color
 531:Middlewares/lvgl/src/draw/../misc/lv_color.h ****  * @param fg_opa alpha of the foreground color
 532:Middlewares/lvgl/src/draw/../misc/lv_color.h ****  * @param res_color the result color
 533:Middlewares/lvgl/src/draw/../misc/lv_color.h ****  * @param res_opa the result opacity
 534:Middlewares/lvgl/src/draw/../misc/lv_color.h ****  */
 535:Middlewares/lvgl/src/draw/../misc/lv_color.h **** LV_ATTRIBUTE_FAST_MEM static inline void lv_color_mix_with_alpha(lv_color_t bg_color, lv_opa_t bg_o
 536:Middlewares/lvgl/src/draw/../misc/lv_color.h ****                                                                  lv_color_t fg_color, lv_opa_t fg_o
 537:Middlewares/lvgl/src/draw/../misc/lv_color.h ****                                                                  lv_color_t * res_color, lv_opa_t *
 538:Middlewares/lvgl/src/draw/../misc/lv_color.h **** {
 539:Middlewares/lvgl/src/draw/../misc/lv_color.h ****     /*Pick the foreground if it's fully opaque or the Background is fully transparent*/
 540:Middlewares/lvgl/src/draw/../misc/lv_color.h ****     if(fg_opa >= LV_OPA_MAX || bg_opa <= LV_OPA_MIN) {
 541:Middlewares/lvgl/src/draw/../misc/lv_color.h ****         res_color->full = fg_color.full;
 542:Middlewares/lvgl/src/draw/../misc/lv_color.h ****         *res_opa = fg_opa;
 543:Middlewares/lvgl/src/draw/../misc/lv_color.h ****     }
 544:Middlewares/lvgl/src/draw/../misc/lv_color.h ****     /*Transparent foreground: use the Background*/
 545:Middlewares/lvgl/src/draw/../misc/lv_color.h ****     else if(fg_opa <= LV_OPA_MIN) {
 546:Middlewares/lvgl/src/draw/../misc/lv_color.h ****         res_color->full = bg_color.full;
 547:Middlewares/lvgl/src/draw/../misc/lv_color.h ****         *res_opa = bg_opa;
 548:Middlewares/lvgl/src/draw/../misc/lv_color.h ****     }
 549:Middlewares/lvgl/src/draw/../misc/lv_color.h ****     /*Opaque background: use simple mix*/
 550:Middlewares/lvgl/src/draw/../misc/lv_color.h ****     else if(bg_opa >= LV_OPA_MAX) {
 551:Middlewares/lvgl/src/draw/../misc/lv_color.h ****         *res_color = lv_color_mix(fg_color, bg_color, fg_opa);
 552:Middlewares/lvgl/src/draw/../misc/lv_color.h ****         *res_opa = LV_OPA_COVER;
 553:Middlewares/lvgl/src/draw/../misc/lv_color.h ****     }
 554:Middlewares/lvgl/src/draw/../misc/lv_color.h ****     /*Both colors have alpha. Expensive calculation need to be applied*/
 555:Middlewares/lvgl/src/draw/../misc/lv_color.h ****     else {
 556:Middlewares/lvgl/src/draw/../misc/lv_color.h ****         /*Save the parameters and the result. If they will be asked again don't compute again*/
 557:Middlewares/lvgl/src/draw/../misc/lv_color.h ****         static lv_opa_t fg_opa_save     = 0;
 558:Middlewares/lvgl/src/draw/../misc/lv_color.h ****         static lv_opa_t bg_opa_save     = 0;
 559:Middlewares/lvgl/src/draw/../misc/lv_color.h ****         static lv_color_t fg_color_save = _LV_COLOR_ZERO_INITIALIZER;
 560:Middlewares/lvgl/src/draw/../misc/lv_color.h ****         static lv_color_t bg_color_save = _LV_COLOR_ZERO_INITIALIZER;
 561:Middlewares/lvgl/src/draw/../misc/lv_color.h ****         static lv_color_t res_color_saved = _LV_COLOR_ZERO_INITIALIZER;
 562:Middlewares/lvgl/src/draw/../misc/lv_color.h ****         static lv_opa_t res_opa_saved = 0;
 563:Middlewares/lvgl/src/draw/../misc/lv_color.h **** 
 564:Middlewares/lvgl/src/draw/../misc/lv_color.h ****         if(fg_opa != fg_opa_save || bg_opa != bg_opa_save || fg_color.full != fg_color_save.full ||
 565:Middlewares/lvgl/src/draw/../misc/lv_color.h ****            bg_color.full != bg_color_save.full) {
 566:Middlewares/lvgl/src/draw/../misc/lv_color.h ****             fg_opa_save        = fg_opa;
 567:Middlewares/lvgl/src/draw/../misc/lv_color.h ****             bg_opa_save        = bg_opa;
 568:Middlewares/lvgl/src/draw/../misc/lv_color.h ****             fg_color_save.full = fg_color.full;
 569:Middlewares/lvgl/src/draw/../misc/lv_color.h ****             bg_color_save.full = bg_color.full;
 570:Middlewares/lvgl/src/draw/../misc/lv_color.h ****             /*Info:
 571:Middlewares/lvgl/src/draw/../misc/lv_color.h ****              * https://en.wikipedia.org/wiki/Alpha_compositing#Analytical_derivation_of_the_over_op
 572:Middlewares/lvgl/src/draw/../misc/lv_color.h ****             res_opa_saved = 255 - ((uint16_t)((uint16_t)(255 - fg_opa) * (255 - bg_opa)) >> 8);
 573:Middlewares/lvgl/src/draw/../misc/lv_color.h ****             if(res_opa_saved == 0) {
 574:Middlewares/lvgl/src/draw/../misc/lv_color.h ****                 while(1)
 575:Middlewares/lvgl/src/draw/../misc/lv_color.h ****                     ;
 576:Middlewares/lvgl/src/draw/../misc/lv_color.h ****             }
 577:Middlewares/lvgl/src/draw/../misc/lv_color.h ****             lv_opa_t ratio = (uint16_t)((uint16_t)fg_opa * 255) / res_opa_saved;
 578:Middlewares/lvgl/src/draw/../misc/lv_color.h ****             res_color_saved = lv_color_mix(fg_color, bg_color, ratio);
 579:Middlewares/lvgl/src/draw/../misc/lv_color.h **** 
 580:Middlewares/lvgl/src/draw/../misc/lv_color.h ****         }
 581:Middlewares/lvgl/src/draw/../misc/lv_color.h **** 
 582:Middlewares/lvgl/src/draw/../misc/lv_color.h ****         res_color->full = res_color_saved.full;
 583:Middlewares/lvgl/src/draw/../misc/lv_color.h ****         *res_opa = res_opa_saved;
ARM GAS  /tmp/cc9peG0g.s 			page 48


 584:Middlewares/lvgl/src/draw/../misc/lv_color.h ****     }
 585:Middlewares/lvgl/src/draw/../misc/lv_color.h **** }
 586:Middlewares/lvgl/src/draw/../misc/lv_color.h **** 
 587:Middlewares/lvgl/src/draw/../misc/lv_color.h **** //! @endcond
 588:Middlewares/lvgl/src/draw/../misc/lv_color.h **** 
 589:Middlewares/lvgl/src/draw/../misc/lv_color.h **** /**
 590:Middlewares/lvgl/src/draw/../misc/lv_color.h ****  * Get the brightness of a color
 591:Middlewares/lvgl/src/draw/../misc/lv_color.h ****  * @param color a color
 592:Middlewares/lvgl/src/draw/../misc/lv_color.h ****  * @return the brightness [0..255]
 593:Middlewares/lvgl/src/draw/../misc/lv_color.h ****  */
 594:Middlewares/lvgl/src/draw/../misc/lv_color.h **** static inline uint8_t lv_color_brightness(lv_color_t color)
 595:Middlewares/lvgl/src/draw/../misc/lv_color.h **** {
 596:Middlewares/lvgl/src/draw/../misc/lv_color.h ****     lv_color32_t c32;
 597:Middlewares/lvgl/src/draw/../misc/lv_color.h ****     c32.full        = lv_color_to32(color);
 598:Middlewares/lvgl/src/draw/../misc/lv_color.h ****     uint16_t bright = (uint16_t)(3u * LV_COLOR_GET_R32(c32) + LV_COLOR_GET_B32(c32) + 4u * LV_COLOR
 599:Middlewares/lvgl/src/draw/../misc/lv_color.h ****     return (uint8_t)(bright >> 3);
 600:Middlewares/lvgl/src/draw/../misc/lv_color.h **** }
 601:Middlewares/lvgl/src/draw/../misc/lv_color.h **** 
 602:Middlewares/lvgl/src/draw/../misc/lv_color.h **** static inline lv_color_t lv_color_make(uint8_t r, uint8_t g, uint8_t b)
 603:Middlewares/lvgl/src/draw/../misc/lv_color.h **** {
 604:Middlewares/lvgl/src/draw/../misc/lv_color.h ****     return _LV_COLOR_MAKE_TYPE_HELPER LV_COLOR_MAKE(r, g, b);
 605:Middlewares/lvgl/src/draw/../misc/lv_color.h **** }
 606:Middlewares/lvgl/src/draw/../misc/lv_color.h **** 
 607:Middlewares/lvgl/src/draw/../misc/lv_color.h **** static inline lv_color_t lv_color_hex(uint32_t c)
 608:Middlewares/lvgl/src/draw/../misc/lv_color.h **** {
 609:Middlewares/lvgl/src/draw/../misc/lv_color.h ****     return lv_color_make((uint8_t)((c >> 16) & 0xFF), (uint8_t)((c >> 8) & 0xFF), (uint8_t)(c & 0xF
 610:Middlewares/lvgl/src/draw/../misc/lv_color.h **** }
 611:Middlewares/lvgl/src/draw/../misc/lv_color.h **** 
 612:Middlewares/lvgl/src/draw/../misc/lv_color.h **** static inline lv_color_t lv_color_hex3(uint32_t c)
 613:Middlewares/lvgl/src/draw/../misc/lv_color.h **** {
 614:Middlewares/lvgl/src/draw/../misc/lv_color.h ****     return lv_color_make((uint8_t)(((c >> 4) & 0xF0) | ((c >> 8) & 0xF)), (uint8_t)((c & 0xF0) | ((
 615:Middlewares/lvgl/src/draw/../misc/lv_color.h ****                          (uint8_t)((c & 0xF) | ((c & 0xF) << 4)));
 616:Middlewares/lvgl/src/draw/../misc/lv_color.h **** }
 617:Middlewares/lvgl/src/draw/../misc/lv_color.h **** 
 618:Middlewares/lvgl/src/draw/../misc/lv_color.h **** static inline void lv_color_filter_dsc_init(lv_color_filter_dsc_t * dsc, lv_color_filter_cb_t cb)
 619:Middlewares/lvgl/src/draw/../misc/lv_color.h **** {
 620:Middlewares/lvgl/src/draw/../misc/lv_color.h ****     dsc->filter_cb = cb;
 621:Middlewares/lvgl/src/draw/../misc/lv_color.h **** }
 622:Middlewares/lvgl/src/draw/../misc/lv_color.h **** 
 623:Middlewares/lvgl/src/draw/../misc/lv_color.h **** //! @cond Doxygen_Suppress
 624:Middlewares/lvgl/src/draw/../misc/lv_color.h **** //!
 625:Middlewares/lvgl/src/draw/../misc/lv_color.h **** LV_ATTRIBUTE_FAST_MEM void lv_color_fill(lv_color_t * buf, lv_color_t color, uint32_t px_num);
 626:Middlewares/lvgl/src/draw/../misc/lv_color.h **** 
 627:Middlewares/lvgl/src/draw/../misc/lv_color.h **** //! @endcond
 628:Middlewares/lvgl/src/draw/../misc/lv_color.h **** lv_color_t lv_color_lighten(lv_color_t c, lv_opa_t lvl);
 629:Middlewares/lvgl/src/draw/../misc/lv_color.h **** 
 630:Middlewares/lvgl/src/draw/../misc/lv_color.h **** lv_color_t lv_color_darken(lv_color_t c, lv_opa_t lvl);
 631:Middlewares/lvgl/src/draw/../misc/lv_color.h **** 
 632:Middlewares/lvgl/src/draw/../misc/lv_color.h **** lv_color_t lv_color_change_lightness(lv_color_t c, lv_opa_t lvl);
 633:Middlewares/lvgl/src/draw/../misc/lv_color.h **** 
 634:Middlewares/lvgl/src/draw/../misc/lv_color.h **** /**
 635:Middlewares/lvgl/src/draw/../misc/lv_color.h ****  * Convert a HSV color to RGB
 636:Middlewares/lvgl/src/draw/../misc/lv_color.h ****  * @param h hue [0..359]
 637:Middlewares/lvgl/src/draw/../misc/lv_color.h ****  * @param s saturation [0..100]
 638:Middlewares/lvgl/src/draw/../misc/lv_color.h ****  * @param v value [0..100]
 639:Middlewares/lvgl/src/draw/../misc/lv_color.h ****  * @return the given RGB color in RGB (with LV_COLOR_DEPTH depth)
 640:Middlewares/lvgl/src/draw/../misc/lv_color.h ****  */
ARM GAS  /tmp/cc9peG0g.s 			page 49


 641:Middlewares/lvgl/src/draw/../misc/lv_color.h **** lv_color_t lv_color_hsv_to_rgb(uint16_t h, uint8_t s, uint8_t v);
 642:Middlewares/lvgl/src/draw/../misc/lv_color.h **** 
 643:Middlewares/lvgl/src/draw/../misc/lv_color.h **** /**
 644:Middlewares/lvgl/src/draw/../misc/lv_color.h ****  * Convert a 32-bit RGB color to HSV
 645:Middlewares/lvgl/src/draw/../misc/lv_color.h ****  * @param r8 8-bit red
 646:Middlewares/lvgl/src/draw/../misc/lv_color.h ****  * @param g8 8-bit green
 647:Middlewares/lvgl/src/draw/../misc/lv_color.h ****  * @param b8 8-bit blue
 648:Middlewares/lvgl/src/draw/../misc/lv_color.h ****  * @return the given RGB color in HSV
 649:Middlewares/lvgl/src/draw/../misc/lv_color.h ****  */
 650:Middlewares/lvgl/src/draw/../misc/lv_color.h **** lv_color_hsv_t lv_color_rgb_to_hsv(uint8_t r8, uint8_t g8, uint8_t b8);
 651:Middlewares/lvgl/src/draw/../misc/lv_color.h **** 
 652:Middlewares/lvgl/src/draw/../misc/lv_color.h **** /**
 653:Middlewares/lvgl/src/draw/../misc/lv_color.h ****  * Convert a color to HSV
 654:Middlewares/lvgl/src/draw/../misc/lv_color.h ****  * @param color color
 655:Middlewares/lvgl/src/draw/../misc/lv_color.h ****  * @return the given color in HSV
 656:Middlewares/lvgl/src/draw/../misc/lv_color.h ****  */
 657:Middlewares/lvgl/src/draw/../misc/lv_color.h **** lv_color_hsv_t lv_color_to_hsv(lv_color_t color);
 658:Middlewares/lvgl/src/draw/../misc/lv_color.h **** 
 659:Middlewares/lvgl/src/draw/../misc/lv_color.h **** /**
 660:Middlewares/lvgl/src/draw/../misc/lv_color.h ****  * Just a wrapper around LV_COLOR_CHROMA_KEY because it might be more convenient to use a function 
 661:Middlewares/lvgl/src/draw/../misc/lv_color.h ****  * @return LV_COLOR_CHROMA_KEY
 662:Middlewares/lvgl/src/draw/../misc/lv_color.h ****  */
 663:Middlewares/lvgl/src/draw/../misc/lv_color.h **** static inline lv_color_t lv_color_chroma_key(void)
 664:Middlewares/lvgl/src/draw/../misc/lv_color.h **** {
 665:Middlewares/lvgl/src/draw/../misc/lv_color.h ****     return LV_COLOR_CHROMA_KEY;
 666:Middlewares/lvgl/src/draw/../misc/lv_color.h **** }
 667:Middlewares/lvgl/src/draw/../misc/lv_color.h **** 
 668:Middlewares/lvgl/src/draw/../misc/lv_color.h **** /**********************
 669:Middlewares/lvgl/src/draw/../misc/lv_color.h ****  *  PREDEFINED COLORS
 670:Middlewares/lvgl/src/draw/../misc/lv_color.h ****  **********************/
 671:Middlewares/lvgl/src/draw/../misc/lv_color.h **** /*Source: https://vuetifyjs.com/en/styles/colors/#material-colors*/
 672:Middlewares/lvgl/src/draw/../misc/lv_color.h **** 
 673:Middlewares/lvgl/src/draw/../misc/lv_color.h **** lv_color_t lv_palette_main(lv_palette_t p);
 674:Middlewares/lvgl/src/draw/../misc/lv_color.h **** static inline lv_color_t lv_color_white(void) { return lv_color_make(0xff, 0xff, 0xff);}
 675:Middlewares/lvgl/src/draw/../misc/lv_color.h **** static inline lv_color_t lv_color_black(void) { return lv_color_make(0x00, 0x0, 0x00);}
 856              		.loc 3 675 26 view .LVU284
 857              	.LBE51:
 858              		.loc 3 675 49 view .LVU285
 859              	.LVL89:
 860              	.LBB54:
 861              	.LBB52:
 862              	.LBI52:
 602:Middlewares/lvgl/src/draw/../misc/lv_color.h **** {
 863              		.loc 3 602 26 view .LVU286
 864              	.LBB53:
 604:Middlewares/lvgl/src/draw/../misc/lv_color.h **** }
 865              		.loc 3 604 5 view .LVU287
 604:Middlewares/lvgl/src/draw/../misc/lv_color.h **** }
 866              		.loc 3 604 12 is_stmt 0 view .LVU288
 867 000e 4FF00003 		mov	r3, #0	@ movhi
 868              	.LVL90:
 604:Middlewares/lvgl/src/draw/../misc/lv_color.h **** }
 869              		.loc 3 604 12 view .LVU289
 870              	.LBE53:
 871              	.LBE52:
 872              	.LBE54:
  95:Middlewares/lvgl/src/draw/lv_draw_label.c ****     dsc->font = LV_FONT_DEFAULT;
ARM GAS  /tmp/cc9peG0g.s 			page 50


 873              		.loc 1 95 18 view .LVU290
 874 0012 A381     		strh	r3, [r4, #12]	@ movhi
  96:Middlewares/lvgl/src/draw/lv_draw_label.c ****     dsc->sel_start = LV_DRAW_LABEL_NO_TXT_SEL;
 875              		.loc 1 96 5 is_stmt 1 view .LVU291
  96:Middlewares/lvgl/src/draw/lv_draw_label.c ****     dsc->sel_start = LV_DRAW_LABEL_NO_TXT_SEL;
 876              		.loc 1 96 15 is_stmt 0 view .LVU292
 877 0014 074B     		ldr	r3, .L61
 878 0016 2360     		str	r3, [r4]
  97:Middlewares/lvgl/src/draw/lv_draw_label.c ****     dsc->sel_end = LV_DRAW_LABEL_NO_TXT_SEL;
 879              		.loc 1 97 5 is_stmt 1 view .LVU293
  97:Middlewares/lvgl/src/draw/lv_draw_label.c ****     dsc->sel_end = LV_DRAW_LABEL_NO_TXT_SEL;
 880              		.loc 1 97 20 is_stmt 0 view .LVU294
 881 0018 4FF6FF73 		movw	r3, #65535
 882 001c 6360     		str	r3, [r4, #4]
  98:Middlewares/lvgl/src/draw/lv_draw_label.c ****     dsc->sel_color = lv_color_black();
 883              		.loc 1 98 5 is_stmt 1 view .LVU295
  98:Middlewares/lvgl/src/draw/lv_draw_label.c ****     dsc->sel_color = lv_color_black();
 884              		.loc 1 98 18 is_stmt 0 view .LVU296
 885 001e A360     		str	r3, [r4, #8]
  99:Middlewares/lvgl/src/draw/lv_draw_label.c ****     dsc->sel_bg_color = lv_palette_main(LV_PALETTE_BLUE);
 886              		.loc 1 99 5 is_stmt 1 view .LVU297
 887              	.LBB55:
 888              	.LBI55:
 889              		.loc 3 675 26 view .LVU298
 890              	.LBE55:
 891              		.loc 3 675 49 view .LVU299
 892              	.LVL91:
 893              	.LBB58:
 894              	.LBB56:
 895              	.LBI56:
 602:Middlewares/lvgl/src/draw/../misc/lv_color.h **** {
 896              		.loc 3 602 26 view .LVU300
 897              	.LBB57:
 604:Middlewares/lvgl/src/draw/../misc/lv_color.h **** }
 898              		.loc 3 604 5 view .LVU301
 604:Middlewares/lvgl/src/draw/../misc/lv_color.h **** }
 899              		.loc 3 604 12 is_stmt 0 view .LVU302
 900 0020 4FF00003 		mov	r3, #0	@ movhi
 901              	.LVL92:
 604:Middlewares/lvgl/src/draw/../misc/lv_color.h **** }
 902              		.loc 3 604 12 view .LVU303
 903              	.LBE57:
 904              	.LBE56:
 905              	.LBE58:
  99:Middlewares/lvgl/src/draw/lv_draw_label.c ****     dsc->sel_bg_color = lv_palette_main(LV_PALETTE_BLUE);
 906              		.loc 1 99 22 view .LVU304
 907 0024 E381     		strh	r3, [r4, #14]	@ movhi
 100:Middlewares/lvgl/src/draw/lv_draw_label.c ****     dsc->bidi_dir = LV_BASE_DIR_LTR;
 908              		.loc 1 100 5 is_stmt 1 view .LVU305
 100:Middlewares/lvgl/src/draw/lv_draw_label.c ****     dsc->bidi_dir = LV_BASE_DIR_LTR;
 909              		.loc 1 100 25 is_stmt 0 view .LVU306
 910 0026 0520     		movs	r0, #5
 911 0028 FFF7FEFF 		bl	lv_palette_main
 912              	.LVL93:
 913 002c 2082     		strh	r0, [r4, #16]	@ movhi
 101:Middlewares/lvgl/src/draw/lv_draw_label.c **** }
 914              		.loc 1 101 5 is_stmt 1 view .LVU307
ARM GAS  /tmp/cc9peG0g.s 			page 51


 101:Middlewares/lvgl/src/draw/lv_draw_label.c **** }
 915              		.loc 1 101 19 is_stmt 0 view .LVU308
 916 002e 0023     		movs	r3, #0
 917 0030 E376     		strb	r3, [r4, #27]
 102:Middlewares/lvgl/src/draw/lv_draw_label.c **** 
 918              		.loc 1 102 1 view .LVU309
 919 0032 10BD     		pop	{r4, pc}
 920              	.LVL94:
 921              	.L62:
 102:Middlewares/lvgl/src/draw/lv_draw_label.c **** 
 922              		.loc 1 102 1 view .LVU310
 923              		.align	2
 924              	.L61:
 925 0034 00000000 		.word	lv_font_montserrat_14
 926              		.cfi_endproc
 927              	.LFE147:
 929              		.section	.text.lv_draw_letter,"ax",%progbits
 930              		.align	1
 931              		.global	lv_draw_letter
 932              		.syntax unified
 933              		.thumb
 934              		.thumb_func
 935              		.fpu fpv4-sp-d16
 937              	lv_draw_letter:
 938              	.LVL95:
 939              	.LFB149:
 402:Middlewares/lvgl/src/draw/lv_draw_label.c ****     if(opa < LV_OPA_MIN) return;
 940              		.loc 1 402 1 is_stmt 1 view -0
 941              		.cfi_startproc
 942              		@ args = 12, pretend = 0, frame = 16
 943              		@ frame_needed = 0, uses_anonymous_args = 0
 402:Middlewares/lvgl/src/draw/lv_draw_label.c ****     if(opa < LV_OPA_MIN) return;
 944              		.loc 1 402 1 is_stmt 0 view .LVU312
 945 0000 2DE9F043 		push	{r4, r5, r6, r7, r8, r9, lr}
 946              	.LCFI5:
 947              		.cfi_def_cfa_offset 28
 948              		.cfi_offset 4, -28
 949              		.cfi_offset 5, -24
 950              		.cfi_offset 6, -20
 951              		.cfi_offset 7, -16
 952              		.cfi_offset 8, -12
 953              		.cfi_offset 9, -8
 954              		.cfi_offset 14, -4
 955 0004 89B0     		sub	sp, sp, #36
 956              	.LCFI6:
 957              		.cfi_def_cfa_offset 64
 958 0006 9DF84450 		ldrb	r5, [sp, #68]	@ zero_extendqisi2
 403:Middlewares/lvgl/src/draw/lv_draw_label.c ****     if(opa > LV_OPA_MAX) opa = LV_OPA_COVER;
 959              		.loc 1 403 5 is_stmt 1 view .LVU313
 403:Middlewares/lvgl/src/draw/lv_draw_label.c ****     if(opa > LV_OPA_MAX) opa = LV_OPA_COVER;
 960              		.loc 1 403 7 is_stmt 0 view .LVU314
 961 000a 012D     		cmp	r5, #1
 962 000c 39D9     		bls	.L63
 963 000e 8046     		mov	r8, r0
 964 0010 0F46     		mov	r7, r1
 965 0012 1446     		mov	r4, r2
 966 0014 1E46     		mov	r6, r3
ARM GAS  /tmp/cc9peG0g.s 			page 52


 404:Middlewares/lvgl/src/draw/lv_draw_label.c **** 
 967              		.loc 1 404 5 is_stmt 1 view .LVU315
 404:Middlewares/lvgl/src/draw/lv_draw_label.c **** 
 968              		.loc 1 404 7 is_stmt 0 view .LVU316
 969 0016 FD2D     		cmp	r5, #253
 970 0018 00D9     		bls	.L65
 404:Middlewares/lvgl/src/draw/lv_draw_label.c **** 
 971              		.loc 1 404 30 view .LVU317
 972 001a FF25     		movs	r5, #255
 973              	.L65:
 974              	.LVL96:
 406:Middlewares/lvgl/src/draw/lv_draw_label.c ****         LV_LOG_WARN("lv_draw_letter: font is NULL");
 975              		.loc 1 406 5 is_stmt 1 view .LVU318
 406:Middlewares/lvgl/src/draw/lv_draw_label.c ****         LV_LOG_WARN("lv_draw_letter: font is NULL");
 976              		.loc 1 406 7 is_stmt 0 view .LVU319
 977 001c 8CB3     		cbz	r4, .L63
 411:Middlewares/lvgl/src/draw/lv_draw_label.c ****     bool g_ret = lv_font_get_glyph_dsc(font_p, &g, letter, '\0');
 978              		.loc 1 411 5 is_stmt 1 view .LVU320
 412:Middlewares/lvgl/src/draw/lv_draw_label.c ****     if(g_ret == false)  {
 979              		.loc 1 412 5 view .LVU321
 412:Middlewares/lvgl/src/draw/lv_draw_label.c ****     if(g_ret == false)  {
 980              		.loc 1 412 18 is_stmt 0 view .LVU322
 981 001e 0023     		movs	r3, #0
 982              	.LVL97:
 412:Middlewares/lvgl/src/draw/lv_draw_label.c ****     if(g_ret == false)  {
 983              		.loc 1 412 18 view .LVU323
 984 0020 3246     		mov	r2, r6
 985              	.LVL98:
 412:Middlewares/lvgl/src/draw/lv_draw_label.c ****     if(g_ret == false)  {
 986              		.loc 1 412 18 view .LVU324
 987 0022 05A9     		add	r1, sp, #20
 988              	.LVL99:
 412:Middlewares/lvgl/src/draw/lv_draw_label.c ****     if(g_ret == false)  {
 989              		.loc 1 412 18 view .LVU325
 990 0024 2046     		mov	r0, r4
 991              	.LVL100:
 412:Middlewares/lvgl/src/draw/lv_draw_label.c ****     if(g_ret == false)  {
 992              		.loc 1 412 18 view .LVU326
 993 0026 FFF7FEFF 		bl	lv_font_get_glyph_dsc
 994              	.LVL101:
 413:Middlewares/lvgl/src/draw/lv_draw_label.c ****         /*Add warning if the dsc is not found
 995              		.loc 1 413 5 is_stmt 1 view .LVU327
 413:Middlewares/lvgl/src/draw/lv_draw_label.c ****         /*Add warning if the dsc is not found
 996              		.loc 1 413 7 is_stmt 0 view .LVU328
 997 002a 50B3     		cbz	r0, .L63
 425:Middlewares/lvgl/src/draw/lv_draw_label.c **** 
 998              		.loc 1 425 5 is_stmt 1 view .LVU329
 425:Middlewares/lvgl/src/draw/lv_draw_label.c **** 
 999              		.loc 1 425 10 is_stmt 0 view .LVU330
 1000 002c BDF81830 		ldrh	r3, [sp, #24]
 425:Middlewares/lvgl/src/draw/lv_draw_label.c **** 
 1001              		.loc 1 425 7 view .LVU331
 1002 0030 3BB3     		cbz	r3, .L63
 425:Middlewares/lvgl/src/draw/lv_draw_label.c **** 
 1003              		.loc 1 425 28 discriminator 2 view .LVU332
 1004 0032 BDF81620 		ldrh	r2, [sp, #22]
 425:Middlewares/lvgl/src/draw/lv_draw_label.c **** 
ARM GAS  /tmp/cc9peG0g.s 			page 53


 1005              		.loc 1 425 23 discriminator 2 view .LVU333
 1006 0036 22B3     		cbz	r2, .L63
 427:Middlewares/lvgl/src/draw/lv_draw_label.c ****     int32_t pos_y = pos_p->y + (font_p->line_height - font_p->base_line) - g.box_h - g.ofs_y;
 1007              		.loc 1 427 5 is_stmt 1 view .LVU334
 427:Middlewares/lvgl/src/draw/lv_draw_label.c ****     int32_t pos_y = pos_p->y + (font_p->line_height - font_p->base_line) - g.box_h - g.ofs_y;
 1008              		.loc 1 427 26 is_stmt 0 view .LVU335
 1009 0038 B8F90090 		ldrsh	r9, [r8]
 427:Middlewares/lvgl/src/draw/lv_draw_label.c ****     int32_t pos_y = pos_p->y + (font_p->line_height - font_p->base_line) - g.box_h - g.ofs_y;
 1010              		.loc 1 427 33 view .LVU336
 1011 003c BDF91A10 		ldrsh	r1, [sp, #26]
 427:Middlewares/lvgl/src/draw/lv_draw_label.c ****     int32_t pos_y = pos_p->y + (font_p->line_height - font_p->base_line) - g.box_h - g.ofs_y;
 1012              		.loc 1 427 13 view .LVU337
 1013 0040 8944     		add	r9, r9, r1
 1014              	.LVL102:
 428:Middlewares/lvgl/src/draw/lv_draw_label.c **** 
 1015              		.loc 1 428 5 is_stmt 1 view .LVU338
 428:Middlewares/lvgl/src/draw/lv_draw_label.c **** 
 1016              		.loc 1 428 26 is_stmt 0 view .LVU339
 1017 0042 B8F90280 		ldrsh	r8, [r8, #2]
 1018              	.LVL103:
 428:Middlewares/lvgl/src/draw/lv_draw_label.c **** 
 1019              		.loc 1 428 39 view .LVU340
 1020 0046 B4F90810 		ldrsh	r1, [r4, #8]
 428:Middlewares/lvgl/src/draw/lv_draw_label.c **** 
 1021              		.loc 1 428 61 view .LVU341
 1022 004a B4F90A00 		ldrsh	r0, [r4, #10]
 1023              	.LVL104:
 428:Middlewares/lvgl/src/draw/lv_draw_label.c **** 
 1024              		.loc 1 428 53 view .LVU342
 1025 004e 091A     		subs	r1, r1, r0
 428:Middlewares/lvgl/src/draw/lv_draw_label.c **** 
 1026              		.loc 1 428 30 view .LVU343
 1027 0050 8844     		add	r8, r8, r1
 428:Middlewares/lvgl/src/draw/lv_draw_label.c **** 
 1028              		.loc 1 428 74 view .LVU344
 1029 0052 A8EB0308 		sub	r8, r8, r3
 428:Middlewares/lvgl/src/draw/lv_draw_label.c **** 
 1030              		.loc 1 428 87 view .LVU345
 1031 0056 BDF91C10 		ldrsh	r1, [sp, #28]
 428:Middlewares/lvgl/src/draw/lv_draw_label.c **** 
 1032              		.loc 1 428 13 view .LVU346
 1033 005a A8EB0108 		sub	r8, r8, r1
 1034              	.LVL105:
 431:Middlewares/lvgl/src/draw/lv_draw_label.c ****        pos_x > clip_area->x2 ||
 1035              		.loc 1 431 5 is_stmt 1 view .LVU347
 431:Middlewares/lvgl/src/draw/lv_draw_label.c ****        pos_x > clip_area->x2 ||
 1036              		.loc 1 431 14 is_stmt 0 view .LVU348
 1037 005e 4A44     		add	r2, r2, r9
 431:Middlewares/lvgl/src/draw/lv_draw_label.c ****        pos_x > clip_area->x2 ||
 1038              		.loc 1 431 35 view .LVU349
 1039 0060 B7F90010 		ldrsh	r1, [r7]
 431:Middlewares/lvgl/src/draw/lv_draw_label.c ****        pos_x > clip_area->x2 ||
 1040              		.loc 1 431 7 view .LVU350
 1041 0064 8A42     		cmp	r2, r1
 1042 0066 0CDB     		blt	.L63
 432:Middlewares/lvgl/src/draw/lv_draw_label.c ****        pos_y + g.box_h < clip_area->y1 ||
 1043              		.loc 1 432 25 discriminator 1 view .LVU351
ARM GAS  /tmp/cc9peG0g.s 			page 54


 1044 0068 B7F90420 		ldrsh	r2, [r7, #4]
 431:Middlewares/lvgl/src/draw/lv_draw_label.c ****        pos_x > clip_area->x2 ||
 1045              		.loc 1 431 40 discriminator 1 view .LVU352
 1046 006c 4A45     		cmp	r2, r9
 1047 006e 08DB     		blt	.L63
 433:Middlewares/lvgl/src/draw/lv_draw_label.c ****        pos_y > clip_area->y2)  {
 1048              		.loc 1 433 14 view .LVU353
 1049 0070 4344     		add	r3, r3, r8
 433:Middlewares/lvgl/src/draw/lv_draw_label.c ****        pos_y > clip_area->y2)  {
 1050              		.loc 1 433 35 view .LVU354
 1051 0072 B7F90220 		ldrsh	r2, [r7, #2]
 432:Middlewares/lvgl/src/draw/lv_draw_label.c ****        pos_y + g.box_h < clip_area->y1 ||
 1052              		.loc 1 432 30 view .LVU355
 1053 0076 9342     		cmp	r3, r2
 1054 0078 03DB     		blt	.L63
 434:Middlewares/lvgl/src/draw/lv_draw_label.c ****         return;
 1055              		.loc 1 434 25 view .LVU356
 1056 007a B7F90630 		ldrsh	r3, [r7, #6]
 433:Middlewares/lvgl/src/draw/lv_draw_label.c ****        pos_y > clip_area->y2)  {
 1057              		.loc 1 433 40 view .LVU357
 1058 007e 4345     		cmp	r3, r8
 1059 0080 02DA     		bge	.L70
 1060              	.LVL106:
 1061              	.L63:
 453:Middlewares/lvgl/src/draw/lv_draw_label.c **** 
 1062              		.loc 1 453 1 view .LVU358
 1063 0082 09B0     		add	sp, sp, #36
 1064              	.LCFI7:
 1065              		.cfi_remember_state
 1066              		.cfi_def_cfa_offset 28
 1067              		@ sp needed
 1068 0084 BDE8F083 		pop	{r4, r5, r6, r7, r8, r9, pc}
 1069              	.LVL107:
 1070              	.L70:
 1071              	.LCFI8:
 1072              		.cfi_restore_state
 438:Middlewares/lvgl/src/draw/lv_draw_label.c ****     if(map_p == NULL) {
 1073              		.loc 1 438 5 is_stmt 1 view .LVU359
 438:Middlewares/lvgl/src/draw/lv_draw_label.c ****     if(map_p == NULL) {
 1074              		.loc 1 438 29 is_stmt 0 view .LVU360
 1075 0088 3146     		mov	r1, r6
 1076 008a 2046     		mov	r0, r4
 1077 008c FFF7FEFF 		bl	lv_font_get_glyph_bitmap
 1078              	.LVL108:
 439:Middlewares/lvgl/src/draw/lv_draw_label.c ****         LV_LOG_WARN("lv_draw_letter: character's bitmap not found");
 1079              		.loc 1 439 5 is_stmt 1 view .LVU361
 439:Middlewares/lvgl/src/draw/lv_draw_label.c ****         LV_LOG_WARN("lv_draw_letter: character's bitmap not found");
 1080              		.loc 1 439 7 is_stmt 0 view .LVU362
 1081 0090 0028     		cmp	r0, #0
 1082 0092 F6D0     		beq	.L63
 444:Middlewares/lvgl/src/draw/lv_draw_label.c **** #if LV_DRAW_COMPLEX && LV_USE_FONT_SUBPX
 1083              		.loc 1 444 5 is_stmt 1 view .LVU363
 444:Middlewares/lvgl/src/draw/lv_draw_label.c **** #if LV_DRAW_COMPLEX && LV_USE_FONT_SUBPX
 1084              		.loc 1 444 8 is_stmt 0 view .LVU364
 1085 0094 237B     		ldrb	r3, [r4, #12]	@ zero_extendqisi2
 444:Middlewares/lvgl/src/draw/lv_draw_label.c **** #if LV_DRAW_COMPLEX && LV_USE_FONT_SUBPX
 1086              		.loc 1 444 7 view .LVU365
ARM GAS  /tmp/cc9peG0g.s 			page 55


 1087 0096 13F0030F 		tst	r3, #3
 1088 009a F2D1     		bne	.L63
 451:Middlewares/lvgl/src/draw/lv_draw_label.c ****     }
 1089              		.loc 1 451 9 is_stmt 1 view .LVU366
 1090 009c 9DF84830 		ldrb	r3, [sp, #72]	@ zero_extendqisi2
 1091 00a0 0393     		str	r3, [sp, #12]
 1092 00a2 0295     		str	r5, [sp, #8]
 1093 00a4 BDF84030 		ldrh	r3, [sp, #64]
 1094 00a8 ADF80430 		strh	r3, [sp, #4]	@ movhi
 1095 00ac 0090     		str	r0, [sp]
 1096 00ae 3B46     		mov	r3, r7
 1097 00b0 05AA     		add	r2, sp, #20
 1098 00b2 0FFA88F1 		sxth	r1, r8
 1099 00b6 0FFA89F0 		sxth	r0, r9
 1100              	.LVL109:
 451:Middlewares/lvgl/src/draw/lv_draw_label.c ****     }
 1101              		.loc 1 451 9 is_stmt 0 view .LVU367
 1102 00ba FFF7FEFF 		bl	draw_letter_normal
 1103              	.LVL110:
 451:Middlewares/lvgl/src/draw/lv_draw_label.c ****     }
 1104              		.loc 1 451 9 view .LVU368
 1105 00be E0E7     		b	.L63
 1106              		.cfi_endproc
 1107              	.LFE149:
 1109              		.section	.text.lv_draw_label,"ax",%progbits
 1110              		.align	1
 1111              		.global	lv_draw_label
 1112              		.syntax unified
 1113              		.thumb
 1114              		.thumb_func
 1115              		.fpu fpv4-sp-d16
 1117              	lv_draw_label:
 1118              	.LVL111:
 1119              	.LFB148:
 117:Middlewares/lvgl/src/draw/lv_draw_label.c **** 
 1120              		.loc 1 117 1 is_stmt 1 view -0
 1121              		.cfi_startproc
 1122              		@ args = 4, pretend = 0, frame = 152
 1123              		@ frame_needed = 0, uses_anonymous_args = 0
 117:Middlewares/lvgl/src/draw/lv_draw_label.c **** 
 1124              		.loc 1 117 1 is_stmt 0 view .LVU370
 1125 0000 2DE9F04F 		push	{r4, r5, r6, r7, r8, r9, r10, fp, lr}
 1126              	.LCFI9:
 1127              		.cfi_def_cfa_offset 36
 1128              		.cfi_offset 4, -36
 1129              		.cfi_offset 5, -32
 1130              		.cfi_offset 6, -28
 1131              		.cfi_offset 7, -24
 1132              		.cfi_offset 8, -20
 1133              		.cfi_offset 9, -16
 1134              		.cfi_offset 10, -12
 1135              		.cfi_offset 11, -8
 1136              		.cfi_offset 14, -4
 1137 0004 ABB0     		sub	sp, sp, #172
 1138              	.LCFI10:
 1139              		.cfi_def_cfa_offset 208
 1140 0006 0C90     		str	r0, [sp, #48]
ARM GAS  /tmp/cc9peG0g.s 			page 56


 1141 0008 0591     		str	r1, [sp, #20]
 1142 000a 1E46     		mov	r6, r3
 1143 000c 0893     		str	r3, [sp, #32]
 1144 000e 349C     		ldr	r4, [sp, #208]
 119:Middlewares/lvgl/src/draw/lv_draw_label.c ****     const lv_font_t * font = dsc->font;
 1145              		.loc 1 119 5 is_stmt 1 view .LVU371
 119:Middlewares/lvgl/src/draw/lv_draw_label.c ****     const lv_font_t * font = dsc->font;
 1146              		.loc 1 119 11 is_stmt 0 view .LVU372
 1147 0010 937E     		ldrb	r3, [r2, #26]	@ zero_extendqisi2
 1148              	.LVL112:
 119:Middlewares/lvgl/src/draw/lv_draw_label.c ****     const lv_font_t * font = dsc->font;
 1149              		.loc 1 119 7 view .LVU373
 1150 0012 022B     		cmp	r3, #2
 1151 0014 05D9     		bls	.L71
 1152 0016 1546     		mov	r5, r2
 120:Middlewares/lvgl/src/draw/lv_draw_label.c ****     int32_t w;
 1153              		.loc 1 120 5 is_stmt 1 view .LVU374
 120:Middlewares/lvgl/src/draw/lv_draw_label.c ****     int32_t w;
 1154              		.loc 1 120 23 is_stmt 0 view .LVU375
 1155 0018 D2F80090 		ldr	r9, [r2]
 1156              	.LVL113:
 121:Middlewares/lvgl/src/draw/lv_draw_label.c **** 
 1157              		.loc 1 121 5 is_stmt 1 view .LVU376
 124:Middlewares/lvgl/src/draw/lv_draw_label.c ****         return;
 1158              		.loc 1 124 5 view .LVU377
 124:Middlewares/lvgl/src/draw/lv_draw_label.c ****         return;
 1159              		.loc 1 124 8 is_stmt 0 view .LVU378
 1160 001c 0EB1     		cbz	r6, .L71
 124:Middlewares/lvgl/src/draw/lv_draw_label.c ****         return;
 1161              		.loc 1 124 27 discriminator 1 view .LVU379
 1162 001e 3378     		ldrb	r3, [r6]	@ zero_extendqisi2
 124:Middlewares/lvgl/src/draw/lv_draw_label.c ****         return;
 1163              		.loc 1 124 21 discriminator 1 view .LVU380
 1164 0020 13B9     		cbnz	r3, .L119
 1165              	.LVL114:
 1166              	.L71:
 383:Middlewares/lvgl/src/draw/lv_draw_label.c **** 
 1167              		.loc 1 383 1 view .LVU381
 1168 0022 2BB0     		add	sp, sp, #172
 1169              	.LCFI11:
 1170              		.cfi_remember_state
 1171              		.cfi_def_cfa_offset 36
 1172              		@ sp needed
 1173 0024 BDE8F08F 		pop	{r4, r5, r6, r7, r8, r9, r10, fp, pc}
 1174              	.LVL115:
 1175              	.L119:
 1176              	.LCFI12:
 1177              		.cfi_restore_state
 127:Middlewares/lvgl/src/draw/lv_draw_label.c ****     bool clip_ok = _lv_area_intersect(&clipped_area, coords, mask);
 1178              		.loc 1 127 5 is_stmt 1 view .LVU382
 128:Middlewares/lvgl/src/draw/lv_draw_label.c ****     if(!clip_ok) return;
 1179              		.loc 1 128 5 view .LVU383
 128:Middlewares/lvgl/src/draw/lv_draw_label.c ****     if(!clip_ok) return;
 1180              		.loc 1 128 20 is_stmt 0 view .LVU384
 1181 0028 0A46     		mov	r2, r1
 1182              	.LVL116:
 128:Middlewares/lvgl/src/draw/lv_draw_label.c ****     if(!clip_ok) return;
ARM GAS  /tmp/cc9peG0g.s 			page 57


 1183              		.loc 1 128 20 view .LVU385
 1184 002a 0646     		mov	r6, r0
 1185              	.LVL117:
 128:Middlewares/lvgl/src/draw/lv_draw_label.c ****     if(!clip_ok) return;
 1186              		.loc 1 128 20 view .LVU386
 1187 002c 0146     		mov	r1, r0
 1188              	.LVL118:
 128:Middlewares/lvgl/src/draw/lv_draw_label.c ****     if(!clip_ok) return;
 1189              		.loc 1 128 20 view .LVU387
 1190 002e 28A8     		add	r0, sp, #160
 1191              	.LVL119:
 128:Middlewares/lvgl/src/draw/lv_draw_label.c ****     if(!clip_ok) return;
 1192              		.loc 1 128 20 view .LVU388
 1193 0030 FFF7FEFF 		bl	_lv_area_intersect
 1194              	.LVL120:
 129:Middlewares/lvgl/src/draw/lv_draw_label.c **** 
 1195              		.loc 1 129 5 is_stmt 1 view .LVU389
 129:Middlewares/lvgl/src/draw/lv_draw_label.c **** 
 1196              		.loc 1 129 7 is_stmt 0 view .LVU390
 1197 0034 0028     		cmp	r0, #0
 1198 0036 F4D0     		beq	.L71
 1199              	.LVL121:
 131:Middlewares/lvgl/src/draw/lv_draw_label.c ****         /*Normally use the label's width as width*/
 1200              		.loc 1 131 5 is_stmt 1 view .LVU391
 131:Middlewares/lvgl/src/draw/lv_draw_label.c ****         /*Normally use the label's width as width*/
 1201              		.loc 1 131 12 is_stmt 0 view .LVU392
 1202 0038 2B7F     		ldrb	r3, [r5, #28]	@ zero_extendqisi2
 131:Middlewares/lvgl/src/draw/lv_draw_label.c ****         /*Normally use the label's width as width*/
 1203              		.loc 1 131 7 view .LVU393
 1204 003a 13F0020F 		tst	r3, #2
 1205 003e 25D1     		bne	.L73
 133:Middlewares/lvgl/src/draw/lv_draw_label.c ****     }
 1206              		.loc 1 133 9 is_stmt 1 view .LVU394
 1207              	.LVL122:
 1208              	.LBB59:
 1209              	.LBI59:
 133:Middlewares/lvgl/src/draw/../misc/lv_area.h **** {
 1210              		.loc 2 133 26 view .LVU395
 1211              	.LBB60:
 1212              		.loc 2 135 5 view .LVU396
 1213              		.loc 2 135 31 is_stmt 0 view .LVU397
 1214 0040 B388     		ldrh	r3, [r6, #4]
 1215              		.loc 2 135 44 view .LVU398
 1216 0042 3288     		ldrh	r2, [r6]
 1217              		.loc 2 135 36 view .LVU399
 1218 0044 9B1A     		subs	r3, r3, r2
 1219 0046 9BB2     		uxth	r3, r3
 1220              		.loc 2 135 49 view .LVU400
 1221 0048 0133     		adds	r3, r3, #1
 1222              		.loc 2 135 12 view .LVU401
 1223 004a 1BB2     		sxth	r3, r3
 1224              	.LVL123:
 1225              	.L74:
 1226              		.loc 2 135 12 view .LVU402
 1227              	.LBE60:
 1228              	.LBE59:
 143:Middlewares/lvgl/src/draw/lv_draw_label.c ****     int32_t line_height = line_height_font + dsc->line_space;
ARM GAS  /tmp/cc9peG0g.s 			page 58


 1229              		.loc 1 143 5 is_stmt 1 view .LVU403
 1230              	.LBB61:
 1231              	.LBI61:
 1232              		.file 4 "Middlewares/lvgl/src/draw/../misc/../font/lv_font.h"
   1:Middlewares/lvgl/src/draw/../misc/../font/lv_font.h **** /**
   2:Middlewares/lvgl/src/draw/../misc/../font/lv_font.h ****  * @file lv_font.h
   3:Middlewares/lvgl/src/draw/../misc/../font/lv_font.h ****  *
   4:Middlewares/lvgl/src/draw/../misc/../font/lv_font.h ****  */
   5:Middlewares/lvgl/src/draw/../misc/../font/lv_font.h **** 
   6:Middlewares/lvgl/src/draw/../misc/../font/lv_font.h **** #ifndef LV_FONT_H
   7:Middlewares/lvgl/src/draw/../misc/../font/lv_font.h **** #define LV_FONT_H
   8:Middlewares/lvgl/src/draw/../misc/../font/lv_font.h **** 
   9:Middlewares/lvgl/src/draw/../misc/../font/lv_font.h **** #ifdef __cplusplus
  10:Middlewares/lvgl/src/draw/../misc/../font/lv_font.h **** extern "C" {
  11:Middlewares/lvgl/src/draw/../misc/../font/lv_font.h **** #endif
  12:Middlewares/lvgl/src/draw/../misc/../font/lv_font.h **** 
  13:Middlewares/lvgl/src/draw/../misc/../font/lv_font.h **** /*********************
  14:Middlewares/lvgl/src/draw/../misc/../font/lv_font.h ****  *      INCLUDES
  15:Middlewares/lvgl/src/draw/../misc/../font/lv_font.h ****  *********************/
  16:Middlewares/lvgl/src/draw/../misc/../font/lv_font.h **** #include "../lv_conf_internal.h"
  17:Middlewares/lvgl/src/draw/../misc/../font/lv_font.h **** #include <stdint.h>
  18:Middlewares/lvgl/src/draw/../misc/../font/lv_font.h **** #include <stddef.h>
  19:Middlewares/lvgl/src/draw/../misc/../font/lv_font.h **** #include <stdbool.h>
  20:Middlewares/lvgl/src/draw/../misc/../font/lv_font.h **** 
  21:Middlewares/lvgl/src/draw/../misc/../font/lv_font.h **** #include "lv_symbol_def.h"
  22:Middlewares/lvgl/src/draw/../misc/../font/lv_font.h **** #include "../misc/lv_area.h"
  23:Middlewares/lvgl/src/draw/../misc/../font/lv_font.h **** 
  24:Middlewares/lvgl/src/draw/../misc/../font/lv_font.h **** /*********************
  25:Middlewares/lvgl/src/draw/../misc/../font/lv_font.h ****  *      DEFINES
  26:Middlewares/lvgl/src/draw/../misc/../font/lv_font.h ****  *********************/
  27:Middlewares/lvgl/src/draw/../misc/../font/lv_font.h **** 
  28:Middlewares/lvgl/src/draw/../misc/../font/lv_font.h **** /**********************
  29:Middlewares/lvgl/src/draw/../misc/../font/lv_font.h ****  *      TYPEDEFS
  30:Middlewares/lvgl/src/draw/../misc/../font/lv_font.h ****  **********************/
  31:Middlewares/lvgl/src/draw/../misc/../font/lv_font.h **** 
  32:Middlewares/lvgl/src/draw/../misc/../font/lv_font.h **** /*------------------
  33:Middlewares/lvgl/src/draw/../misc/../font/lv_font.h ****  * General types
  34:Middlewares/lvgl/src/draw/../misc/../font/lv_font.h ****  *-----------------*/
  35:Middlewares/lvgl/src/draw/../misc/../font/lv_font.h **** 
  36:Middlewares/lvgl/src/draw/../misc/../font/lv_font.h **** /** Describes the properties of a glyph.*/
  37:Middlewares/lvgl/src/draw/../misc/../font/lv_font.h **** typedef struct {
  38:Middlewares/lvgl/src/draw/../misc/../font/lv_font.h ****     uint16_t adv_w; /**< The glyph needs this space. Draw the next glyph after this width.*/
  39:Middlewares/lvgl/src/draw/../misc/../font/lv_font.h ****     uint16_t box_w;  /**< Width of the glyph's bounding box*/
  40:Middlewares/lvgl/src/draw/../misc/../font/lv_font.h ****     uint16_t box_h;  /**< Height of the glyph's bounding box*/
  41:Middlewares/lvgl/src/draw/../misc/../font/lv_font.h ****     int16_t ofs_x;   /**< x offset of the bounding box*/
  42:Middlewares/lvgl/src/draw/../misc/../font/lv_font.h ****     int16_t ofs_y;  /**< y offset of the bounding box*/
  43:Middlewares/lvgl/src/draw/../misc/../font/lv_font.h ****     uint8_t bpp;   /**< Bit-per-pixel: 1, 2, 4, 8*/
  44:Middlewares/lvgl/src/draw/../misc/../font/lv_font.h **** } lv_font_glyph_dsc_t;
  45:Middlewares/lvgl/src/draw/../misc/../font/lv_font.h **** 
  46:Middlewares/lvgl/src/draw/../misc/../font/lv_font.h **** /** The bitmaps might be upscaled by 3 to achieve subpixel rendering.*/
  47:Middlewares/lvgl/src/draw/../misc/../font/lv_font.h **** enum {
  48:Middlewares/lvgl/src/draw/../misc/../font/lv_font.h ****     LV_FONT_SUBPX_NONE,
  49:Middlewares/lvgl/src/draw/../misc/../font/lv_font.h ****     LV_FONT_SUBPX_HOR,
  50:Middlewares/lvgl/src/draw/../misc/../font/lv_font.h ****     LV_FONT_SUBPX_VER,
  51:Middlewares/lvgl/src/draw/../misc/../font/lv_font.h ****     LV_FONT_SUBPX_BOTH,
  52:Middlewares/lvgl/src/draw/../misc/../font/lv_font.h **** };
  53:Middlewares/lvgl/src/draw/../misc/../font/lv_font.h **** 
ARM GAS  /tmp/cc9peG0g.s 			page 59


  54:Middlewares/lvgl/src/draw/../misc/../font/lv_font.h **** typedef uint8_t lv_font_subpx_t;
  55:Middlewares/lvgl/src/draw/../misc/../font/lv_font.h **** 
  56:Middlewares/lvgl/src/draw/../misc/../font/lv_font.h **** struct _lv_font_t;
  57:Middlewares/lvgl/src/draw/../misc/../font/lv_font.h **** 
  58:Middlewares/lvgl/src/draw/../misc/../font/lv_font.h **** /** Describe the properties of a font*/
  59:Middlewares/lvgl/src/draw/../misc/../font/lv_font.h **** typedef struct _lv_font_t {
  60:Middlewares/lvgl/src/draw/../misc/../font/lv_font.h ****     /** Get a glyph's descriptor from a font*/
  61:Middlewares/lvgl/src/draw/../misc/../font/lv_font.h ****     bool (*get_glyph_dsc)(const struct _lv_font_t *, lv_font_glyph_dsc_t *, uint32_t letter, uint32
  62:Middlewares/lvgl/src/draw/../misc/../font/lv_font.h **** 
  63:Middlewares/lvgl/src/draw/../misc/../font/lv_font.h ****     /** Get a glyph's bitmap from a font*/
  64:Middlewares/lvgl/src/draw/../misc/../font/lv_font.h ****     const uint8_t * (*get_glyph_bitmap)(const struct _lv_font_t *, uint32_t);
  65:Middlewares/lvgl/src/draw/../misc/../font/lv_font.h **** 
  66:Middlewares/lvgl/src/draw/../misc/../font/lv_font.h ****     /*Pointer to the font in a font pack (must have the same line height)*/
  67:Middlewares/lvgl/src/draw/../misc/../font/lv_font.h ****     lv_coord_t line_height;         /**< The real line height where any text fits*/
  68:Middlewares/lvgl/src/draw/../misc/../font/lv_font.h ****     lv_coord_t base_line;           /**< Base line measured from the top of the line_height*/
  69:Middlewares/lvgl/src/draw/../misc/../font/lv_font.h ****     uint8_t subpx  : 2;             /**< An element of `lv_font_subpx_t`*/
  70:Middlewares/lvgl/src/draw/../misc/../font/lv_font.h **** 
  71:Middlewares/lvgl/src/draw/../misc/../font/lv_font.h ****     int8_t underline_position;      /**< Distance between the top of the underline and base line (<
  72:Middlewares/lvgl/src/draw/../misc/../font/lv_font.h ****     int8_t underline_thickness;     /**< Thickness of the underline*/
  73:Middlewares/lvgl/src/draw/../misc/../font/lv_font.h **** 
  74:Middlewares/lvgl/src/draw/../misc/../font/lv_font.h ****     const void * dsc;                     /**< Store implementation specific or run_time data or ca
  75:Middlewares/lvgl/src/draw/../misc/../font/lv_font.h **** #if LV_USE_USER_DATA
  76:Middlewares/lvgl/src/draw/../misc/../font/lv_font.h ****     void * user_data;               /**< Custom user data for font.*/
  77:Middlewares/lvgl/src/draw/../misc/../font/lv_font.h **** #endif
  78:Middlewares/lvgl/src/draw/../misc/../font/lv_font.h **** 
  79:Middlewares/lvgl/src/draw/../misc/../font/lv_font.h **** } lv_font_t;
  80:Middlewares/lvgl/src/draw/../misc/../font/lv_font.h **** 
  81:Middlewares/lvgl/src/draw/../misc/../font/lv_font.h **** /**********************
  82:Middlewares/lvgl/src/draw/../misc/../font/lv_font.h ****  * GLOBAL PROTOTYPES
  83:Middlewares/lvgl/src/draw/../misc/../font/lv_font.h ****  **********************/
  84:Middlewares/lvgl/src/draw/../misc/../font/lv_font.h **** 
  85:Middlewares/lvgl/src/draw/../misc/../font/lv_font.h **** /**
  86:Middlewares/lvgl/src/draw/../misc/../font/lv_font.h ****  * Return with the bitmap of a font.
  87:Middlewares/lvgl/src/draw/../misc/../font/lv_font.h ****  * @param font_p pointer to a font
  88:Middlewares/lvgl/src/draw/../misc/../font/lv_font.h ****  * @param letter an UNICODE character code
  89:Middlewares/lvgl/src/draw/../misc/../font/lv_font.h ****  * @return pointer to the bitmap of the letter
  90:Middlewares/lvgl/src/draw/../misc/../font/lv_font.h ****  */
  91:Middlewares/lvgl/src/draw/../misc/../font/lv_font.h **** const uint8_t * lv_font_get_glyph_bitmap(const lv_font_t * font_p, uint32_t letter);
  92:Middlewares/lvgl/src/draw/../misc/../font/lv_font.h **** 
  93:Middlewares/lvgl/src/draw/../misc/../font/lv_font.h **** /**
  94:Middlewares/lvgl/src/draw/../misc/../font/lv_font.h ****  * Get the descriptor of a glyph
  95:Middlewares/lvgl/src/draw/../misc/../font/lv_font.h ****  * @param font_p pointer to font
  96:Middlewares/lvgl/src/draw/../misc/../font/lv_font.h ****  * @param dsc_out store the result descriptor here
  97:Middlewares/lvgl/src/draw/../misc/../font/lv_font.h ****  * @param letter an UNICODE letter code
  98:Middlewares/lvgl/src/draw/../misc/../font/lv_font.h ****  * @return true: descriptor is successfully loaded into `dsc_out`.
  99:Middlewares/lvgl/src/draw/../misc/../font/lv_font.h ****  *         false: the letter was not found, no data is loaded to `dsc_out`
 100:Middlewares/lvgl/src/draw/../misc/../font/lv_font.h ****  */
 101:Middlewares/lvgl/src/draw/../misc/../font/lv_font.h **** bool lv_font_get_glyph_dsc(const lv_font_t * font_p, lv_font_glyph_dsc_t * dsc_out, uint32_t letter
 102:Middlewares/lvgl/src/draw/../misc/../font/lv_font.h ****                            uint32_t letter_next);
 103:Middlewares/lvgl/src/draw/../misc/../font/lv_font.h **** 
 104:Middlewares/lvgl/src/draw/../misc/../font/lv_font.h **** /**
 105:Middlewares/lvgl/src/draw/../misc/../font/lv_font.h ****  * Get the width of a glyph with kerning
 106:Middlewares/lvgl/src/draw/../misc/../font/lv_font.h ****  * @param font pointer to a font
 107:Middlewares/lvgl/src/draw/../misc/../font/lv_font.h ****  * @param letter an UNICODE letter
 108:Middlewares/lvgl/src/draw/../misc/../font/lv_font.h ****  * @param letter_next the next letter after `letter`. Used for kerning
 109:Middlewares/lvgl/src/draw/../misc/../font/lv_font.h ****  * @return the width of the glyph
 110:Middlewares/lvgl/src/draw/../misc/../font/lv_font.h ****  */
ARM GAS  /tmp/cc9peG0g.s 			page 60


 111:Middlewares/lvgl/src/draw/../misc/../font/lv_font.h **** uint16_t lv_font_get_glyph_width(const lv_font_t * font, uint32_t letter, uint32_t letter_next);
 112:Middlewares/lvgl/src/draw/../misc/../font/lv_font.h **** 
 113:Middlewares/lvgl/src/draw/../misc/../font/lv_font.h **** /**
 114:Middlewares/lvgl/src/draw/../misc/../font/lv_font.h ****  * Get the line height of a font. All characters fit into this height
 115:Middlewares/lvgl/src/draw/../misc/../font/lv_font.h ****  * @param font_p pointer to a font
 116:Middlewares/lvgl/src/draw/../misc/../font/lv_font.h ****  * @return the height of a font
 117:Middlewares/lvgl/src/draw/../misc/../font/lv_font.h ****  */
 118:Middlewares/lvgl/src/draw/../misc/../font/lv_font.h **** static inline lv_coord_t lv_font_get_line_height(const lv_font_t * font_p)
 1233              		.loc 4 118 26 view .LVU404
 1234              	.LBB62:
 119:Middlewares/lvgl/src/draw/../misc/../font/lv_font.h **** {
 120:Middlewares/lvgl/src/draw/../misc/../font/lv_font.h ****     return font_p->line_height;
 1235              		.loc 4 120 5 view .LVU405
 1236              		.loc 4 120 18 is_stmt 0 view .LVU406
 1237 004c B9F90860 		ldrsh	r6, [r9, #8]
 1238              	.LVL124:
 1239              		.loc 4 120 18 view .LVU407
 1240              	.LBE62:
 1241              	.LBE61:
 144:Middlewares/lvgl/src/draw/lv_draw_label.c **** 
 1242              		.loc 1 144 5 is_stmt 1 view .LVU408
 144:Middlewares/lvgl/src/draw/lv_draw_label.c **** 
 1243              		.loc 1 144 49 is_stmt 0 view .LVU409
 1244 0050 B5F91220 		ldrsh	r2, [r5, #18]
 144:Middlewares/lvgl/src/draw/lv_draw_label.c **** 
 1245              		.loc 1 144 13 view .LVU410
 1246 0054 9719     		adds	r7, r2, r6
 1247 0056 0A97     		str	r7, [sp, #40]
 1248              	.LVL125:
 147:Middlewares/lvgl/src/draw/lv_draw_label.c ****     lv_point_t pos;
 1249              		.loc 1 147 5 is_stmt 1 view .LVU411
 148:Middlewares/lvgl/src/draw/lv_draw_label.c ****     pos.x = coords->x1;
 1250              		.loc 1 148 5 view .LVU412
 149:Middlewares/lvgl/src/draw/lv_draw_label.c ****     pos.y = coords->y1;
 1251              		.loc 1 149 5 view .LVU413
 149:Middlewares/lvgl/src/draw/lv_draw_label.c ****     pos.y = coords->y1;
 1252              		.loc 1 149 19 is_stmt 0 view .LVU414
 1253 0058 0C98     		ldr	r0, [sp, #48]
 1254 005a B0F90020 		ldrsh	r2, [r0]
 149:Middlewares/lvgl/src/draw/lv_draw_label.c ****     pos.y = coords->y1;
 1255              		.loc 1 149 11 view .LVU415
 1256 005e ADF89C20 		strh	r2, [sp, #156]	@ movhi
 150:Middlewares/lvgl/src/draw/lv_draw_label.c **** 
 1257              		.loc 1 150 5 is_stmt 1 view .LVU416
 150:Middlewares/lvgl/src/draw/lv_draw_label.c **** 
 1258              		.loc 1 150 19 is_stmt 0 view .LVU417
 1259 0062 B0F90220 		ldrsh	r2, [r0, #2]
 150:Middlewares/lvgl/src/draw/lv_draw_label.c **** 
 1260              		.loc 1 150 11 view .LVU418
 1261 0066 ADF89E20 		strh	r2, [sp, #158]	@ movhi
 152:Middlewares/lvgl/src/draw/lv_draw_label.c ****     int32_t y_ofs = 0;
 1262              		.loc 1 152 5 is_stmt 1 view .LVU419
 1263              	.LVL126:
 153:Middlewares/lvgl/src/draw/lv_draw_label.c ****     x_ofs = dsc->ofs_x;
 1264              		.loc 1 153 5 view .LVU420
 154:Middlewares/lvgl/src/draw/lv_draw_label.c ****     y_ofs = dsc->ofs_y;
 1265              		.loc 1 154 5 view .LVU421
ARM GAS  /tmp/cc9peG0g.s 			page 61


 154:Middlewares/lvgl/src/draw/lv_draw_label.c ****     y_ofs = dsc->ofs_y;
 1266              		.loc 1 154 16 is_stmt 0 view .LVU422
 1267 006a B5F91610 		ldrsh	r1, [r5, #22]
 1268 006e 0E91     		str	r1, [sp, #56]
 1269              	.LVL127:
 155:Middlewares/lvgl/src/draw/lv_draw_label.c ****     pos.y += y_ofs;
 1270              		.loc 1 155 5 is_stmt 1 view .LVU423
 155:Middlewares/lvgl/src/draw/lv_draw_label.c ****     pos.y += y_ofs;
 1271              		.loc 1 155 16 is_stmt 0 view .LVU424
 1272 0070 B5F91810 		ldrsh	r1, [r5, #24]
 1273              	.LVL128:
 156:Middlewares/lvgl/src/draw/lv_draw_label.c **** 
 1274              		.loc 1 156 5 is_stmt 1 view .LVU425
 156:Middlewares/lvgl/src/draw/lv_draw_label.c **** 
 1275              		.loc 1 156 11 is_stmt 0 view .LVU426
 1276 0074 0A44     		add	r2, r2, r1
 1277 0076 ADF89E20 		strh	r2, [sp, #158]	@ movhi
 158:Middlewares/lvgl/src/draw/lv_draw_label.c ****     int32_t last_line_start = -1;
 1278              		.loc 1 158 5 is_stmt 1 view .LVU427
 1279              	.LVL129:
 159:Middlewares/lvgl/src/draw/lv_draw_label.c **** 
 1280              		.loc 1 159 5 view .LVU428
 162:Middlewares/lvgl/src/draw/lv_draw_label.c ****         /*If the label changed too much recalculate the hint.*/
 1281              		.loc 1 162 5 view .LVU429
 162:Middlewares/lvgl/src/draw/lv_draw_label.c ****         /*If the label changed too much recalculate the hint.*/
 1282              		.loc 1 162 7 is_stmt 0 view .LVU430
 1283 007a 3CB3     		cbz	r4, .L108
 162:Middlewares/lvgl/src/draw/lv_draw_label.c ****         /*If the label changed too much recalculate the hint.*/
 1284              		.loc 1 162 13 discriminator 1 view .LVU431
 1285 007c 49BB     		cbnz	r1, .L109
 162:Middlewares/lvgl/src/draw/lv_draw_label.c ****         /*If the label changed too much recalculate the hint.*/
 1286              		.loc 1 162 36 discriminator 2 view .LVU432
 1287 007e B0F90220 		ldrsh	r2, [r0, #2]
 162:Middlewares/lvgl/src/draw/lv_draw_label.c ****         /*If the label changed too much recalculate the hint.*/
 1288              		.loc 1 162 27 discriminator 2 view .LVU433
 1289 0082 002A     		cmp	r2, #0
 1290 0084 13DB     		blt	.L120
 159:Middlewares/lvgl/src/draw/lv_draw_label.c **** 
 1291              		.loc 1 159 13 view .LVU434
 1292 0086 4FF0FF37 		mov	r7, #-1
 1293              	.LVL130:
 159:Middlewares/lvgl/src/draw/lv_draw_label.c **** 
 1294              		.loc 1 159 13 view .LVU435
 1295 008a 24E0     		b	.L75
 1296              	.LVL131:
 1297              	.L73:
 1298              	.LBB63:
 137:Middlewares/lvgl/src/draw/lv_draw_label.c ****         lv_txt_get_size(&p, txt, dsc->font, dsc->letter_space, dsc->line_space, LV_COORD_MAX,
 1299              		.loc 1 137 9 is_stmt 1 view .LVU436
 138:Middlewares/lvgl/src/draw/lv_draw_label.c ****                          dsc->flag);
 1300              		.loc 1 138 9 view .LVU437
 1301 008c 0293     		str	r3, [sp, #8]
 1302 008e 4FF4C043 		mov	r3, #24576
 1303 0092 0193     		str	r3, [sp, #4]
 1304 0094 B5F91230 		ldrsh	r3, [r5, #18]
 1305 0098 0093     		str	r3, [sp]
 1306 009a B5F91430 		ldrsh	r3, [r5, #20]
ARM GAS  /tmp/cc9peG0g.s 			page 62


 1307 009e 2A68     		ldr	r2, [r5]
 1308 00a0 0899     		ldr	r1, [sp, #32]
 1309 00a2 14A8     		add	r0, sp, #80
 1310              	.LVL132:
 138:Middlewares/lvgl/src/draw/lv_draw_label.c ****                          dsc->flag);
 1311              		.loc 1 138 9 is_stmt 0 view .LVU438
 1312 00a4 FFF7FEFF 		bl	lv_txt_get_size
 1313              	.LVL133:
 140:Middlewares/lvgl/src/draw/lv_draw_label.c ****     }
 1314              		.loc 1 140 9 is_stmt 1 view .LVU439
 140:Middlewares/lvgl/src/draw/lv_draw_label.c ****     }
 1315              		.loc 1 140 14 is_stmt 0 view .LVU440
 1316 00a8 BDF95030 		ldrsh	r3, [sp, #80]
 1317              	.LVL134:
 140:Middlewares/lvgl/src/draw/lv_draw_label.c ****     }
 1318              		.loc 1 140 14 view .LVU441
 1319 00ac CEE7     		b	.L74
 1320              	.LVL135:
 1321              	.L120:
 140:Middlewares/lvgl/src/draw/lv_draw_label.c ****     }
 1322              		.loc 1 140 14 view .LVU442
 1323              	.LBE63:
 164:Middlewares/lvgl/src/draw/lv_draw_label.c ****             hint->line_start = -1;
 1324              		.loc 1 164 9 is_stmt 1 view .LVU443
 164:Middlewares/lvgl/src/draw/lv_draw_label.c ****             hint->line_start = -1;
 1325              		.loc 1 164 12 is_stmt 0 view .LVU444
 1326 00ae A168     		ldr	r1, [r4, #8]
 1327              	.LVL136:
 164:Middlewares/lvgl/src/draw/lv_draw_label.c ****             hint->line_start = -1;
 1328              		.loc 1 164 12 view .LVU445
 1329 00b0 8A1A     		subs	r2, r1, r2
 1330 00b2 002A     		cmp	r2, #0
 1331 00b4 B8BF     		it	lt
 1332 00b6 5242     		rsblt	r2, r2, #0
 164:Middlewares/lvgl/src/draw/lv_draw_label.c ****             hint->line_start = -1;
 1333              		.loc 1 164 73 view .LVU446
 1334 00b8 C7F50071 		rsb	r1, r7, #512
 164:Middlewares/lvgl/src/draw/lv_draw_label.c ****             hint->line_start = -1;
 1335              		.loc 1 164 11 view .LVU447
 1336 00bc B2EB410F 		cmp	r2, r1, lsl #1
 1337 00c0 02DD     		ble	.L76
 165:Middlewares/lvgl/src/draw/lv_draw_label.c ****         }
 1338              		.loc 1 165 13 is_stmt 1 view .LVU448
 165:Middlewares/lvgl/src/draw/lv_draw_label.c ****         }
 1339              		.loc 1 165 30 is_stmt 0 view .LVU449
 1340 00c2 4FF0FF32 		mov	r2, #-1
 1341 00c6 2260     		str	r2, [r4]
 1342              	.LVL137:
 1343              	.L76:
 167:Middlewares/lvgl/src/draw/lv_draw_label.c ****     }
 1344              		.loc 1 167 9 is_stmt 1 view .LVU450
 167:Middlewares/lvgl/src/draw/lv_draw_label.c ****     }
 1345              		.loc 1 167 25 is_stmt 0 view .LVU451
 1346 00c8 2768     		ldr	r7, [r4]
 1347              	.LVL138:
 167:Middlewares/lvgl/src/draw/lv_draw_label.c ****     }
 1348              		.loc 1 167 25 view .LVU452
ARM GAS  /tmp/cc9peG0g.s 			page 63


 1349 00ca 04E0     		b	.L75
 1350              	.LVL139:
 1351              	.L108:
 159:Middlewares/lvgl/src/draw/lv_draw_label.c **** 
 1352              		.loc 1 159 13 view .LVU453
 1353 00cc 4FF0FF37 		mov	r7, #-1
 1354              	.LVL140:
 159:Middlewares/lvgl/src/draw/lv_draw_label.c **** 
 1355              		.loc 1 159 13 view .LVU454
 1356 00d0 01E0     		b	.L75
 1357              	.LVL141:
 1358              	.L109:
 159:Middlewares/lvgl/src/draw/lv_draw_label.c **** 
 1359              		.loc 1 159 13 view .LVU455
 1360 00d2 4FF0FF37 		mov	r7, #-1
 1361              	.LVL142:
 1362              	.L75:
 171:Middlewares/lvgl/src/draw/lv_draw_label.c ****         line_start = last_line_start;
 1363              		.loc 1 171 5 is_stmt 1 view .LVU456
 171:Middlewares/lvgl/src/draw/lv_draw_label.c ****         line_start = last_line_start;
 1364              		.loc 1 171 7 is_stmt 0 view .LVU457
 1365 00d6 DCB1     		cbz	r4, .L111
 171:Middlewares/lvgl/src/draw/lv_draw_label.c ****         line_start = last_line_start;
 1366              		.loc 1 171 13 discriminator 1 view .LVU458
 1367 00d8 002F     		cmp	r7, #0
 1368 00da 1BDB     		blt	.L112
 172:Middlewares/lvgl/src/draw/lv_draw_label.c ****         pos.y += hint->y;
 1369              		.loc 1 172 9 is_stmt 1 view .LVU459
 1370              	.LVL143:
 173:Middlewares/lvgl/src/draw/lv_draw_label.c ****     }
 1371              		.loc 1 173 9 view .LVU460
 173:Middlewares/lvgl/src/draw/lv_draw_label.c ****     }
 1372              		.loc 1 173 22 is_stmt 0 view .LVU461
 1373 00dc 6268     		ldr	r2, [r4, #4]
 173:Middlewares/lvgl/src/draw/lv_draw_label.c ****     }
 1374              		.loc 1 173 15 view .LVU462
 1375 00de BDF89E10 		ldrh	r1, [sp, #158]
 1376 00e2 0A44     		add	r2, r2, r1
 1377 00e4 ADF89E20 		strh	r2, [sp, #158]	@ movhi
 1378              	.LVL144:
 1379              	.L77:
 176:Middlewares/lvgl/src/draw/lv_draw_label.c **** 
 1380              		.loc 1 176 5 is_stmt 1 view .LVU463
 176:Middlewares/lvgl/src/draw/lv_draw_label.c **** 
 1381              		.loc 1 176 38 is_stmt 0 view .LVU464
 1382 00e8 1BB2     		sxth	r3, r3
 1383              	.LVL145:
 176:Middlewares/lvgl/src/draw/lv_draw_label.c **** 
 1384              		.loc 1 176 38 view .LVU465
 1385 00ea 1A46     		mov	r2, r3
 1386 00ec 0B93     		str	r3, [sp, #44]
 1387 00ee 2B7F     		ldrb	r3, [r5, #28]	@ zero_extendqisi2
 1388 00f0 0093     		str	r3, [sp]
 1389 00f2 1346     		mov	r3, r2
 1390 00f4 B5F91420 		ldrsh	r2, [r5, #20]
 1391 00f8 4946     		mov	r1, r9
 1392 00fa 0898     		ldr	r0, [sp, #32]
ARM GAS  /tmp/cc9peG0g.s 			page 64


 1393 00fc 3844     		add	r0, r0, r7
 1394 00fe FFF7FEFF 		bl	_lv_txt_get_next_line
 1395              	.LVL146:
 176:Middlewares/lvgl/src/draw/lv_draw_label.c **** 
 1396              		.loc 1 176 14 view .LVU466
 1397 0102 00EB070B 		add	fp, r0, r7
 1398              	.LVL147:
 179:Middlewares/lvgl/src/draw/lv_draw_label.c ****         /*Go to next line*/
 1399              		.loc 1 179 5 is_stmt 1 view .LVU467
 1400 0106 DDF81480 		ldr	r8, [sp, #20]
 1401 010a DDF820A0 		ldr	r10, [sp, #32]
 179:Middlewares/lvgl/src/draw/lv_draw_label.c ****         /*Go to next line*/
 1402              		.loc 1 179 10 is_stmt 0 view .LVU468
 1403 010e 08E0     		b	.L78
 1404              	.LVL148:
 1405              	.L111:
 158:Middlewares/lvgl/src/draw/lv_draw_label.c ****     int32_t last_line_start = -1;
 1406              		.loc 1 158 14 view .LVU469
 1407 0110 0027     		movs	r7, #0
 1408              	.LVL149:
 158:Middlewares/lvgl/src/draw/lv_draw_label.c ****     int32_t last_line_start = -1;
 1409              		.loc 1 158 14 view .LVU470
 1410 0112 E9E7     		b	.L77
 1411              	.LVL150:
 1412              	.L112:
 158:Middlewares/lvgl/src/draw/lv_draw_label.c ****     int32_t last_line_start = -1;
 1413              		.loc 1 158 14 view .LVU471
 1414 0114 0027     		movs	r7, #0
 1415              	.LVL151:
 158:Middlewares/lvgl/src/draw/lv_draw_label.c ****     int32_t last_line_start = -1;
 1416              		.loc 1 158 14 view .LVU472
 1417 0116 E7E7     		b	.L77
 1418              	.LVL152:
 1419              	.L79:
 192:Middlewares/lvgl/src/draw/lv_draw_label.c ****     }
 1420              		.loc 1 192 9 is_stmt 1 view .LVU473
 192:Middlewares/lvgl/src/draw/lv_draw_label.c ****     }
 1421              		.loc 1 192 15 is_stmt 0 view .LVU474
 1422 0118 3B78     		ldrb	r3, [r7]	@ zero_extendqisi2
 181:Middlewares/lvgl/src/draw/lv_draw_label.c ****         line_end += _lv_txt_get_next_line(&txt[line_start], font, dsc->letter_space, w, dsc->flag);
 1423              		.loc 1 181 20 view .LVU475
 1424 011a 5F46     		mov	r7, fp
 192:Middlewares/lvgl/src/draw/lv_draw_label.c ****     }
 1425              		.loc 1 192 11 view .LVU476
 1426 011c 002B     		cmp	r3, #0
 1427 011e 80D0     		beq	.L71
 1428              	.LVL153:
 182:Middlewares/lvgl/src/draw/lv_draw_label.c ****         pos.y += line_height;
 1429              		.loc 1 182 18 view .LVU477
 1430 0120 8346     		mov	fp, r0
 1431              	.LVL154:
 1432              	.L78:
 179:Middlewares/lvgl/src/draw/lv_draw_label.c ****         /*Go to next line*/
 1433              		.loc 1 179 10 is_stmt 1 view .LVU478
 179:Middlewares/lvgl/src/draw/lv_draw_label.c ****         /*Go to next line*/
 1434              		.loc 1 179 14 is_stmt 0 view .LVU479
 1435 0122 BDF99E30 		ldrsh	r3, [sp, #158]
ARM GAS  /tmp/cc9peG0g.s 			page 65


 179:Middlewares/lvgl/src/draw/lv_draw_label.c ****         /*Go to next line*/
 1436              		.loc 1 179 17 view .LVU480
 1437 0126 3344     		add	r3, r3, r6
 179:Middlewares/lvgl/src/draw/lv_draw_label.c ****         /*Go to next line*/
 1438              		.loc 1 179 42 view .LVU481
 1439 0128 B8F90220 		ldrsh	r2, [r8, #2]
 179:Middlewares/lvgl/src/draw/lv_draw_label.c ****         /*Go to next line*/
 1440              		.loc 1 179 10 view .LVU482
 1441 012c 9342     		cmp	r3, r2
 1442 012e 27DA     		bge	.L121
 181:Middlewares/lvgl/src/draw/lv_draw_label.c ****         line_end += _lv_txt_get_next_line(&txt[line_start], font, dsc->letter_space, w, dsc->flag);
 1443              		.loc 1 181 9 is_stmt 1 view .LVU483
 1444              	.LVL155:
 182:Middlewares/lvgl/src/draw/lv_draw_label.c ****         pos.y += line_height;
 1445              		.loc 1 182 9 view .LVU484
 182:Middlewares/lvgl/src/draw/lv_draw_label.c ****         pos.y += line_height;
 1446              		.loc 1 182 21 is_stmt 0 view .LVU485
 1447 0130 0AEB0B07 		add	r7, r10, fp
 1448 0134 2B7F     		ldrb	r3, [r5, #28]	@ zero_extendqisi2
 1449 0136 0093     		str	r3, [sp]
 1450 0138 0B9B     		ldr	r3, [sp, #44]
 1451 013a B5F91420 		ldrsh	r2, [r5, #20]
 1452 013e 4946     		mov	r1, r9
 1453 0140 3846     		mov	r0, r7
 1454 0142 FFF7FEFF 		bl	_lv_txt_get_next_line
 1455              	.LVL156:
 182:Middlewares/lvgl/src/draw/lv_draw_label.c ****         pos.y += line_height;
 1456              		.loc 1 182 18 view .LVU486
 1457 0146 5844     		add	r0, r0, fp
 1458              	.LVL157:
 183:Middlewares/lvgl/src/draw/lv_draw_label.c **** 
 1459              		.loc 1 183 9 is_stmt 1 view .LVU487
 183:Middlewares/lvgl/src/draw/lv_draw_label.c **** 
 1460              		.loc 1 183 15 is_stmt 0 view .LVU488
 1461 0148 BDF89E30 		ldrh	r3, [sp, #158]
 1462 014c 0A9A     		ldr	r2, [sp, #40]
 1463 014e 1344     		add	r3, r3, r2
 1464 0150 1BB2     		sxth	r3, r3
 1465 0152 ADF89E30 		strh	r3, [sp, #158]	@ movhi
 186:Middlewares/lvgl/src/draw/lv_draw_label.c ****             hint->line_start = line_start;
 1466              		.loc 1 186 9 is_stmt 1 view .LVU489
 186:Middlewares/lvgl/src/draw/lv_draw_label.c ****             hint->line_start = line_start;
 1467              		.loc 1 186 11 is_stmt 0 view .LVU490
 1468 0156 002C     		cmp	r4, #0
 1469 0158 DED0     		beq	.L79
 186:Middlewares/lvgl/src/draw/lv_draw_label.c ****             hint->line_start = line_start;
 1470              		.loc 1 186 17 discriminator 1 view .LVU491
 1471 015a 13F5806F 		cmn	r3, #1024
 1472 015e DBDB     		blt	.L79
 186:Middlewares/lvgl/src/draw/lv_draw_label.c ****             hint->line_start = line_start;
 1473              		.loc 1 186 61 discriminator 2 view .LVU492
 1474 0160 2368     		ldr	r3, [r4]
 186:Middlewares/lvgl/src/draw/lv_draw_label.c ****             hint->line_start = line_start;
 1475              		.loc 1 186 54 discriminator 2 view .LVU493
 1476 0162 002B     		cmp	r3, #0
 1477 0164 D8DA     		bge	.L79
 187:Middlewares/lvgl/src/draw/lv_draw_label.c ****             hint->y          = pos.y - coords->y1;
ARM GAS  /tmp/cc9peG0g.s 			page 66


 1478              		.loc 1 187 13 is_stmt 1 view .LVU494
 187:Middlewares/lvgl/src/draw/lv_draw_label.c ****             hint->y          = pos.y - coords->y1;
 1479              		.loc 1 187 30 is_stmt 0 view .LVU495
 1480 0166 C4F800B0 		str	fp, [r4]
 188:Middlewares/lvgl/src/draw/lv_draw_label.c ****             hint->coord_y    = coords->y1;
 1481              		.loc 1 188 13 is_stmt 1 view .LVU496
 188:Middlewares/lvgl/src/draw/lv_draw_label.c ****             hint->coord_y    = coords->y1;
 1482              		.loc 1 188 35 is_stmt 0 view .LVU497
 1483 016a BDF99E30 		ldrsh	r3, [sp, #158]
 188:Middlewares/lvgl/src/draw/lv_draw_label.c ****             hint->coord_y    = coords->y1;
 1484              		.loc 1 188 46 view .LVU498
 1485 016e 0C99     		ldr	r1, [sp, #48]
 1486 0170 B1F90220 		ldrsh	r2, [r1, #2]
 188:Middlewares/lvgl/src/draw/lv_draw_label.c ****             hint->coord_y    = coords->y1;
 1487              		.loc 1 188 38 view .LVU499
 1488 0174 9B1A     		subs	r3, r3, r2
 188:Middlewares/lvgl/src/draw/lv_draw_label.c ****             hint->coord_y    = coords->y1;
 1489              		.loc 1 188 30 view .LVU500
 1490 0176 6360     		str	r3, [r4, #4]
 189:Middlewares/lvgl/src/draw/lv_draw_label.c ****         }
 1491              		.loc 1 189 13 is_stmt 1 view .LVU501
 189:Middlewares/lvgl/src/draw/lv_draw_label.c ****         }
 1492              		.loc 1 189 38 is_stmt 0 view .LVU502
 1493 0178 B1F90230 		ldrsh	r3, [r1, #2]
 189:Middlewares/lvgl/src/draw/lv_draw_label.c ****         }
 1494              		.loc 1 189 30 view .LVU503
 1495 017c A360     		str	r3, [r4, #8]
 1496 017e CBE7     		b	.L79
 1497              	.LVL158:
 1498              	.L121:
 196:Middlewares/lvgl/src/draw/lv_draw_label.c ****         line_width = lv_txt_get_width(&txt[line_start], line_end - line_start, font, dsc->letter_sp
 1499              		.loc 1 196 5 is_stmt 1 view .LVU504
 196:Middlewares/lvgl/src/draw/lv_draw_label.c ****         line_width = lv_txt_get_width(&txt[line_start], line_end - line_start, font, dsc->letter_sp
 1500              		.loc 1 196 19 is_stmt 0 view .LVU505
 1501 0180 6B7F     		ldrb	r3, [r5, #29]	@ zero_extendqisi2
 1502 0182 03F00303 		and	r3, r3, #3
 196:Middlewares/lvgl/src/draw/lv_draw_label.c ****         line_width = lv_txt_get_width(&txt[line_start], line_end - line_start, font, dsc->letter_sp
 1503              		.loc 1 196 7 view .LVU506
 1504 0186 022B     		cmp	r3, #2
 1505 0188 1ED0     		beq	.L122
 203:Middlewares/lvgl/src/draw/lv_draw_label.c ****         line_width = lv_txt_get_width(&txt[line_start], line_end - line_start, font, dsc->letter_sp
 1506              		.loc 1 203 10 is_stmt 1 view .LVU507
 203:Middlewares/lvgl/src/draw/lv_draw_label.c ****         line_width = lv_txt_get_width(&txt[line_start], line_end - line_start, font, dsc->letter_sp
 1507              		.loc 1 203 12 is_stmt 0 view .LVU508
 1508 018a 032B     		cmp	r3, #3
 1509 018c 38D0     		beq	.L123
 1510              	.LVL159:
 1511              	.L82:
 208:Middlewares/lvgl/src/draw/lv_draw_label.c **** 
 1512              		.loc 1 208 5 is_stmt 1 view .LVU509
 208:Middlewares/lvgl/src/draw/lv_draw_label.c **** 
 1513              		.loc 1 208 14 is_stmt 0 view .LVU510
 1514 018e AB7E     		ldrb	r3, [r5, #26]	@ zero_extendqisi2
 1515 0190 0993     		str	r3, [sp, #36]
 1516              	.LVL160:
 210:Middlewares/lvgl/src/draw/lv_draw_label.c ****     uint32_t sel_end = dsc->sel_end;
 1517              		.loc 1 210 5 is_stmt 1 view .LVU511
ARM GAS  /tmp/cc9peG0g.s 			page 67


 210:Middlewares/lvgl/src/draw/lv_draw_label.c ****     uint32_t sel_end = dsc->sel_end;
 1518              		.loc 1 210 14 is_stmt 0 view .LVU512
 1519 0192 6A68     		ldr	r2, [r5, #4]
 1520 0194 0692     		str	r2, [sp, #24]
 1521              	.LVL161:
 211:Middlewares/lvgl/src/draw/lv_draw_label.c ****     if(sel_start > sel_end) {
 1522              		.loc 1 211 5 is_stmt 1 view .LVU513
 211:Middlewares/lvgl/src/draw/lv_draw_label.c ****     if(sel_start > sel_end) {
 1523              		.loc 1 211 14 is_stmt 0 view .LVU514
 1524 0196 D5F80880 		ldr	r8, [r5, #8]
 1525              	.LVL162:
 212:Middlewares/lvgl/src/draw/lv_draw_label.c ****         uint32_t tmp = sel_start;
 1526              		.loc 1 212 5 is_stmt 1 view .LVU515
 212:Middlewares/lvgl/src/draw/lv_draw_label.c ****         uint32_t tmp = sel_start;
 1527              		.loc 1 212 7 is_stmt 0 view .LVU516
 1528 019a 4245     		cmp	r2, r8
 1529 019c 02D8     		bhi	.L83
 1530 019e 4346     		mov	r3, r8
 210:Middlewares/lvgl/src/draw/lv_draw_label.c ****     uint32_t sel_end = dsc->sel_end;
 1531              		.loc 1 210 14 view .LVU517
 1532 01a0 9046     		mov	r8, r2
 1533              	.LVL163:
 211:Middlewares/lvgl/src/draw/lv_draw_label.c ****     if(sel_start > sel_end) {
 1534              		.loc 1 211 14 view .LVU518
 1535 01a2 0693     		str	r3, [sp, #24]
 1536              	.LVL164:
 1537              	.L83:
 217:Middlewares/lvgl/src/draw/lv_draw_label.c **** 
 1538              		.loc 1 217 5 is_stmt 1 view .LVU519
 219:Middlewares/lvgl/src/draw/lv_draw_label.c ****         lv_draw_line_dsc_init(&line_dsc);
 1539              		.loc 1 219 5 view .LVU520
 219:Middlewares/lvgl/src/draw/lv_draw_label.c ****         lv_draw_line_dsc_init(&line_dsc);
 1540              		.loc 1 219 12 is_stmt 0 view .LVU521
 1541 01a4 6B7F     		ldrb	r3, [r5, #29]	@ zero_extendqisi2
 219:Middlewares/lvgl/src/draw/lv_draw_label.c ****         lv_draw_line_dsc_init(&line_dsc);
 1542              		.loc 1 219 7 view .LVU522
 1543 01a6 13F00C0F 		tst	r3, #12
 1544 01aa 42D1     		bne	.L124
 1545              	.L84:
 227:Middlewares/lvgl/src/draw/lv_draw_label.c ****     uint32_t i;
 1546              		.loc 1 227 5 is_stmt 1 view .LVU523
 1547              	.LVL165:
 228:Middlewares/lvgl/src/draw/lv_draw_label.c ****     uint32_t par_start = 0;
 1548              		.loc 1 228 5 view .LVU524
 229:Middlewares/lvgl/src/draw/lv_draw_label.c ****     lv_color_t recolor;
 1549              		.loc 1 229 5 view .LVU525
 230:Middlewares/lvgl/src/draw/lv_draw_label.c ****     int32_t letter_w;
 1550              		.loc 1 230 5 view .LVU526
 231:Middlewares/lvgl/src/draw/lv_draw_label.c **** 
 1551              		.loc 1 231 5 view .LVU527
 233:Middlewares/lvgl/src/draw/lv_draw_label.c ****     lv_draw_rect_dsc_init(&draw_dsc_sel);
 1552              		.loc 1 233 5 view .LVU528
 234:Middlewares/lvgl/src/draw/lv_draw_label.c ****     draw_dsc_sel.bg_color = dsc->sel_bg_color;
 1553              		.loc 1 234 5 view .LVU529
 1554 01ac 16A8     		add	r0, sp, #88
 1555 01ae FFF7FEFF 		bl	lv_draw_rect_dsc_init
 1556              	.LVL166:
ARM GAS  /tmp/cc9peG0g.s 			page 68


 235:Middlewares/lvgl/src/draw/lv_draw_label.c **** 
 1557              		.loc 1 235 5 view .LVU530
 235:Middlewares/lvgl/src/draw/lv_draw_label.c **** 
 1558              		.loc 1 235 27 is_stmt 0 view .LVU531
 1559 01b2 2B8A     		ldrh	r3, [r5, #16]
 1560 01b4 ADF85C30 		strh	r3, [sp, #92]	@ movhi
 237:Middlewares/lvgl/src/draw/lv_draw_label.c ****     /*Write out all lines*/
 1561              		.loc 1 237 5 is_stmt 1 view .LVU532
 237:Middlewares/lvgl/src/draw/lv_draw_label.c ****     /*Write out all lines*/
 1562              		.loc 1 237 30 is_stmt 0 view .LVU533
 1563 01b8 BDF99C30 		ldrsh	r3, [sp, #156]
 1564 01bc 1093     		str	r3, [sp, #64]
 1565              	.LVL167:
 239:Middlewares/lvgl/src/draw/lv_draw_label.c ****         pos.x += x_ofs;
 1566              		.loc 1 239 5 is_stmt 1 view .LVU534
 229:Middlewares/lvgl/src/draw/lv_draw_label.c ****     lv_color_t recolor;
 1567              		.loc 1 229 14 is_stmt 0 view .LVU535
 1568 01be 0023     		movs	r3, #0
 1569 01c0 0F93     		str	r3, [sp, #60]
 1570 01c2 5E46     		mov	r6, fp
 1571              	.LVL168:
 229:Middlewares/lvgl/src/draw/lv_draw_label.c ****     lv_color_t recolor;
 1572              		.loc 1 229 14 view .LVU536
 1573 01c4 BB46     		mov	fp, r7
 1574              	.LVL169:
 239:Middlewares/lvgl/src/draw/lv_draw_label.c ****         pos.x += x_ofs;
 1575              		.loc 1 239 10 view .LVU537
 1576 01c6 54E1     		b	.L86
 1577              	.LVL170:
 1578              	.L122:
 197:Middlewares/lvgl/src/draw/lv_draw_label.c **** 
 1579              		.loc 1 197 9 is_stmt 1 view .LVU538
 197:Middlewares/lvgl/src/draw/lv_draw_label.c **** 
 1580              		.loc 1 197 22 is_stmt 0 view .LVU539
 1581 01c8 2B7F     		ldrb	r3, [r5, #28]	@ zero_extendqisi2
 1582 01ca 0093     		str	r3, [sp]
 1583 01cc B5F91430 		ldrsh	r3, [r5, #20]
 1584 01d0 4A46     		mov	r2, r9
 1585 01d2 ABEB0701 		sub	r1, fp, r7
 1586 01d6 0898     		ldr	r0, [sp, #32]
 1587 01d8 3844     		add	r0, r0, r7
 1588 01da FFF7FEFF 		bl	lv_txt_get_width
 1589              	.LVL171:
 199:Middlewares/lvgl/src/draw/lv_draw_label.c **** 
 1590              		.loc 1 199 9 is_stmt 1 view .LVU540
 1591              	.LBB64:
 1592              	.LBI64:
 133:Middlewares/lvgl/src/draw/../misc/lv_area.h **** {
 1593              		.loc 2 133 26 view .LVU541
 1594              	.LBB65:
 1595              		.loc 2 135 5 view .LVU542
 1596              		.loc 2 135 31 is_stmt 0 view .LVU543
 1597 01de 0C9A     		ldr	r2, [sp, #48]
 1598 01e0 9388     		ldrh	r3, [r2, #4]
 1599              		.loc 2 135 44 view .LVU544
 1600 01e2 1288     		ldrh	r2, [r2]
 1601              		.loc 2 135 36 view .LVU545
ARM GAS  /tmp/cc9peG0g.s 			page 69


 1602 01e4 9B1A     		subs	r3, r3, r2
 1603 01e6 9BB2     		uxth	r3, r3
 1604              		.loc 2 135 49 view .LVU546
 1605 01e8 0133     		adds	r3, r3, #1
 1606              		.loc 2 135 12 view .LVU547
 1607 01ea 1BB2     		sxth	r3, r3
 1608              	.LVL172:
 1609              		.loc 2 135 12 view .LVU548
 1610              	.LBE65:
 1611              	.LBE64:
 199:Middlewares/lvgl/src/draw/lv_draw_label.c **** 
 1612              		.loc 1 199 45 view .LVU549
 1613 01ec 1B1A     		subs	r3, r3, r0
 199:Middlewares/lvgl/src/draw/lv_draw_label.c **** 
 1614              		.loc 1 199 59 view .LVU550
 1615 01ee 03EBD373 		add	r3, r3, r3, lsr #31
 199:Middlewares/lvgl/src/draw/lv_draw_label.c **** 
 1616              		.loc 1 199 15 view .LVU551
 1617 01f2 BDF89C20 		ldrh	r2, [sp, #156]
 1618 01f6 02EB6303 		add	r3, r2, r3, asr #1
 1619 01fa ADF89C30 		strh	r3, [sp, #156]	@ movhi
 1620 01fe C6E7     		b	.L82
 1621              	.LVL173:
 1622              	.L123:
 204:Middlewares/lvgl/src/draw/lv_draw_label.c ****         pos.x += lv_area_get_width(coords) - line_width;
 1623              		.loc 1 204 9 is_stmt 1 view .LVU552
 204:Middlewares/lvgl/src/draw/lv_draw_label.c ****         pos.x += lv_area_get_width(coords) - line_width;
 1624              		.loc 1 204 22 is_stmt 0 view .LVU553
 1625 0200 2B7F     		ldrb	r3, [r5, #28]	@ zero_extendqisi2
 1626 0202 0093     		str	r3, [sp]
 1627 0204 B5F91430 		ldrsh	r3, [r5, #20]
 1628 0208 4A46     		mov	r2, r9
 1629 020a ABEB0701 		sub	r1, fp, r7
 1630 020e 0898     		ldr	r0, [sp, #32]
 1631 0210 3844     		add	r0, r0, r7
 1632 0212 FFF7FEFF 		bl	lv_txt_get_width
 1633              	.LVL174:
 205:Middlewares/lvgl/src/draw/lv_draw_label.c ****     }
 1634              		.loc 1 205 9 is_stmt 1 view .LVU554
 1635              	.LBB66:
 1636              	.LBI66:
 133:Middlewares/lvgl/src/draw/../misc/lv_area.h **** {
 1637              		.loc 2 133 26 view .LVU555
 1638              	.LBB67:
 1639              		.loc 2 135 5 view .LVU556
 1640              		.loc 2 135 31 is_stmt 0 view .LVU557
 1641 0216 0C9A     		ldr	r2, [sp, #48]
 1642 0218 9388     		ldrh	r3, [r2, #4]
 1643              		.loc 2 135 44 view .LVU558
 1644 021a 1288     		ldrh	r2, [r2]
 1645              		.loc 2 135 36 view .LVU559
 1646 021c 9B1A     		subs	r3, r3, r2
 1647 021e 9BB2     		uxth	r3, r3
 1648              		.loc 2 135 49 view .LVU560
 1649 0220 0133     		adds	r3, r3, #1
 1650              		.loc 2 135 12 view .LVU561
 1651 0222 1BB2     		sxth	r3, r3
ARM GAS  /tmp/cc9peG0g.s 			page 70


 1652              	.LVL175:
 1653              		.loc 2 135 12 view .LVU562
 1654              	.LBE67:
 1655              	.LBE66:
 205:Middlewares/lvgl/src/draw/lv_draw_label.c ****     }
 1656              		.loc 1 205 44 view .LVU563
 1657 0224 1B1A     		subs	r3, r3, r0
 205:Middlewares/lvgl/src/draw/lv_draw_label.c ****     }
 1658              		.loc 1 205 15 view .LVU564
 1659 0226 BDF89C20 		ldrh	r2, [sp, #156]
 1660 022a 1344     		add	r3, r3, r2
 1661 022c ADF89C30 		strh	r3, [sp, #156]	@ movhi
 1662 0230 ADE7     		b	.L82
 1663              	.LVL176:
 1664              	.L124:
 220:Middlewares/lvgl/src/draw/lv_draw_label.c ****         line_dsc.color = dsc->color;
 1665              		.loc 1 220 9 is_stmt 1 view .LVU565
 1666 0232 24A8     		add	r0, sp, #144
 1667 0234 FFF7FEFF 		bl	lv_draw_line_dsc_init
 1668              	.LVL177:
 221:Middlewares/lvgl/src/draw/lv_draw_label.c ****         line_dsc.width = font->underline_thickness ? font->underline_thickness : 1;
 1669              		.loc 1 221 9 view .LVU566
 221:Middlewares/lvgl/src/draw/lv_draw_label.c ****         line_dsc.width = font->underline_thickness ? font->underline_thickness : 1;
 1670              		.loc 1 221 24 is_stmt 0 view .LVU567
 1671 0238 AB89     		ldrh	r3, [r5, #12]
 1672 023a ADF89030 		strh	r3, [sp, #144]	@ movhi
 222:Middlewares/lvgl/src/draw/lv_draw_label.c ****         line_dsc.opa = dsc->opa;
 1673              		.loc 1 222 9 is_stmt 1 view .LVU568
 222:Middlewares/lvgl/src/draw/lv_draw_label.c ****         line_dsc.opa = dsc->opa;
 1674              		.loc 1 222 30 is_stmt 0 view .LVU569
 1675 023e 99F90E30 		ldrsb	r3, [r9, #14]
 222:Middlewares/lvgl/src/draw/lv_draw_label.c ****         line_dsc.opa = dsc->opa;
 1676              		.loc 1 222 24 view .LVU570
 1677 0242 7BB1     		cbz	r3, .L113
 222:Middlewares/lvgl/src/draw/lv_draw_label.c ****         line_dsc.opa = dsc->opa;
 1678              		.loc 1 222 24 discriminator 1 view .LVU571
 1679 0244 1BB2     		sxth	r3, r3
 1680              	.L85:
 222:Middlewares/lvgl/src/draw/lv_draw_label.c ****         line_dsc.opa = dsc->opa;
 1681              		.loc 1 222 24 discriminator 4 view .LVU572
 1682 0246 ADF89230 		strh	r3, [sp, #146]	@ movhi
 223:Middlewares/lvgl/src/draw/lv_draw_label.c ****         line_dsc.blend_mode = dsc->blend_mode;
 1683              		.loc 1 223 9 is_stmt 1 discriminator 4 view .LVU573
 223:Middlewares/lvgl/src/draw/lv_draw_label.c ****         line_dsc.blend_mode = dsc->blend_mode;
 1684              		.loc 1 223 27 is_stmt 0 discriminator 4 view .LVU574
 1685 024a AB7E     		ldrb	r3, [r5, #26]	@ zero_extendqisi2
 223:Middlewares/lvgl/src/draw/lv_draw_label.c ****         line_dsc.blend_mode = dsc->blend_mode;
 1686              		.loc 1 223 22 discriminator 4 view .LVU575
 1687 024c 8DF89830 		strb	r3, [sp, #152]
 224:Middlewares/lvgl/src/draw/lv_draw_label.c ****     }
 1688              		.loc 1 224 9 is_stmt 1 discriminator 4 view .LVU576
 224:Middlewares/lvgl/src/draw/lv_draw_label.c ****     }
 1689              		.loc 1 224 34 is_stmt 0 discriminator 4 view .LVU577
 1690 0250 6B7F     		ldrb	r3, [r5, #29]	@ zero_extendqisi2
 1691 0252 C3F34113 		ubfx	r3, r3, #5, #2
 224:Middlewares/lvgl/src/draw/lv_draw_label.c ****     }
 1692              		.loc 1 224 29 discriminator 4 view .LVU578
ARM GAS  /tmp/cc9peG0g.s 			page 71


 1693 0256 9DF89920 		ldrb	r2, [sp, #153]	@ zero_extendqisi2
 1694 025a 63F30102 		bfi	r2, r3, #0, #2
 1695 025e 8DF89920 		strb	r2, [sp, #153]
 1696 0262 A3E7     		b	.L84
 1697              	.L113:
 222:Middlewares/lvgl/src/draw/lv_draw_label.c ****         line_dsc.opa = dsc->opa;
 1698              		.loc 1 222 24 view .LVU579
 1699 0264 0123     		movs	r3, #1
 1700 0266 EEE7     		b	.L85
 1701              	.LVL178:
 1702              	.L114:
 1703              	.LBB68:
 1704              	.LBB69:
 253:Middlewares/lvgl/src/draw/lv_draw_label.c ****             if(sel_start != 0xFFFF && sel_end != 0xFFFF) {
 1705              		.loc 1 253 22 view .LVU580
 1706 0268 0023     		movs	r3, #0
 1707 026a 0493     		str	r3, [sp, #16]
 1708 026c 8BE0     		b	.L88
 1709              	.L115:
 1710 026e 0023     		movs	r3, #0
 1711 0270 0493     		str	r3, [sp, #16]
 1712 0272 88E0     		b	.L88
 1713              	.LVL179:
 1714              	.L128:
 270:Middlewares/lvgl/src/draw/lv_draw_label.c ****                         par_start = i;
 1715              		.loc 1 270 21 is_stmt 1 view .LVU581
 270:Middlewares/lvgl/src/draw/lv_draw_label.c ****                         par_start = i;
 1716              		.loc 1 270 23 is_stmt 0 view .LVU582
 1717 0274 37B1     		cbz	r7, .L125
 275:Middlewares/lvgl/src/draw/lv_draw_label.c ****                         cmd_state = CMD_STATE_WAIT;
 1718              		.loc 1 275 26 is_stmt 1 view .LVU583
 275:Middlewares/lvgl/src/draw/lv_draw_label.c ****                         cmd_state = CMD_STATE_WAIT;
 1719              		.loc 1 275 28 is_stmt 0 view .LVU584
 1720 0276 012F     		cmp	r7, #1
 1721 0278 56D0     		beq	.L116
 278:Middlewares/lvgl/src/draw/lv_draw_label.c ****                         cmd_state = CMD_STATE_WAIT;
 1722              		.loc 1 278 26 is_stmt 1 view .LVU585
 278:Middlewares/lvgl/src/draw/lv_draw_label.c ****                         cmd_state = CMD_STATE_WAIT;
 1723              		.loc 1 278 28 is_stmt 0 view .LVU586
 1724 027a 022F     		cmp	r7, #2
 1725 027c 40F09180 		bne	.L90
 279:Middlewares/lvgl/src/draw/lv_draw_label.c ****                         continue;
 1726              		.loc 1 279 35 view .LVU587
 1727 0280 0027     		movs	r7, #0
 1728              	.LVL180:
 279:Middlewares/lvgl/src/draw/lv_draw_label.c ****                         continue;
 1729              		.loc 1 279 35 view .LVU588
 1730 0282 6CE0     		b	.L87
 1731              	.LVL181:
 1732              	.L125:
 271:Middlewares/lvgl/src/draw/lv_draw_label.c ****                         cmd_state = CMD_STATE_PAR;
 1733              		.loc 1 271 25 is_stmt 1 view .LVU589
 271:Middlewares/lvgl/src/draw/lv_draw_label.c ****                         cmd_state = CMD_STATE_PAR;
 1734              		.loc 1 271 35 is_stmt 0 view .LVU590
 1735 0284 239B     		ldr	r3, [sp, #140]
 1736 0286 0F93     		str	r3, [sp, #60]
 1737              	.LVL182:
ARM GAS  /tmp/cc9peG0g.s 			page 72


 272:Middlewares/lvgl/src/draw/lv_draw_label.c ****                         continue;
 1738              		.loc 1 272 25 is_stmt 1 view .LVU591
 273:Middlewares/lvgl/src/draw/lv_draw_label.c ****                     }
 1739              		.loc 1 273 25 view .LVU592
 272:Middlewares/lvgl/src/draw/lv_draw_label.c ****                         continue;
 1740              		.loc 1 272 35 is_stmt 0 view .LVU593
 1741 0288 0127     		movs	r7, #1
 273:Middlewares/lvgl/src/draw/lv_draw_label.c ****                     }
 1742              		.loc 1 273 25 view .LVU594
 1743 028a 68E0     		b	.L87
 1744              	.LVL183:
 1745              	.L129:
 286:Middlewares/lvgl/src/draw/lv_draw_label.c ****                         /*Get the parameter*/
 1746              		.loc 1 286 21 is_stmt 1 view .LVU595
 286:Middlewares/lvgl/src/draw/lv_draw_label.c ****                         /*Get the parameter*/
 1747              		.loc 1 286 23 is_stmt 0 view .LVU596
 1748 028c 202B     		cmp	r3, #32
 1749 028e 66D1     		bne	.L87
 288:Middlewares/lvgl/src/draw/lv_draw_label.c ****                             char buf[LABEL_RECOLOR_PAR_LENGTH + 1];
 1750              		.loc 1 288 25 is_stmt 1 view .LVU597
 288:Middlewares/lvgl/src/draw/lv_draw_label.c ****                             char buf[LABEL_RECOLOR_PAR_LENGTH + 1];
 1751              		.loc 1 288 30 is_stmt 0 view .LVU598
 1752 0290 239B     		ldr	r3, [sp, #140]
 1753 0292 0F9A     		ldr	r2, [sp, #60]
 1754 0294 9B1A     		subs	r3, r3, r2
 288:Middlewares/lvgl/src/draw/lv_draw_label.c ****                             char buf[LABEL_RECOLOR_PAR_LENGTH + 1];
 1755              		.loc 1 288 27 view .LVU599
 1756 0296 072B     		cmp	r3, #7
 1757 0298 04D0     		beq	.L126
 299:Middlewares/lvgl/src/draw/lv_draw_label.c ****                         }
 1758              		.loc 1 299 29 is_stmt 1 view .LVU600
 299:Middlewares/lvgl/src/draw/lv_draw_label.c ****                         }
 1759              		.loc 1 299 42 is_stmt 0 view .LVU601
 1760 029a AB89     		ldrh	r3, [r5, #12]
 1761              	.LVL184:
 299:Middlewares/lvgl/src/draw/lv_draw_label.c ****                         }
 1762              		.loc 1 299 42 view .LVU602
 1763 029c ADF83630 		strh	r3, [sp, #54]	@ movhi
 301:Middlewares/lvgl/src/draw/lv_draw_label.c ****                     }
 1764              		.loc 1 301 35 view .LVU603
 1765 02a0 0227     		movs	r7, #2
 1766              	.LVL185:
 303:Middlewares/lvgl/src/draw/lv_draw_label.c ****                 }
 1767              		.loc 1 303 21 is_stmt 1 view .LVU604
 1768 02a2 5CE0     		b	.L87
 1769              	.LVL186:
 1770              	.L126:
 1771              	.LBB70:
 289:Middlewares/lvgl/src/draw/lv_draw_label.c ****                             lv_memcpy_small(buf, &bidi_txt[par_start], LABEL_RECOLOR_PAR_LENGTH);
 1772              		.loc 1 289 29 view .LVU605
 290:Middlewares/lvgl/src/draw/lv_draw_label.c ****                             buf[LABEL_RECOLOR_PAR_LENGTH] = '\0';
 1773              		.loc 1 290 29 view .LVU606
 290:Middlewares/lvgl/src/draw/lv_draw_label.c ****                             buf[LABEL_RECOLOR_PAR_LENGTH] = '\0';
 1774              		.loc 1 290 50 is_stmt 0 view .LVU607
 1775 02a4 079B     		ldr	r3, [sp, #28]
 1776 02a6 9918     		adds	r1, r3, r2
 1777              	.LVL187:
ARM GAS  /tmp/cc9peG0g.s 			page 73


 1778              	.LBB71:
 1779              	.LBI71:
 1780              		.file 5 "Middlewares/lvgl/src/draw/../hal/../misc/lv_mem.h"
   1:Middlewares/lvgl/src/draw/../hal/../misc/lv_mem.h **** /**
   2:Middlewares/lvgl/src/draw/../hal/../misc/lv_mem.h ****  * @file lv_mem.h
   3:Middlewares/lvgl/src/draw/../hal/../misc/lv_mem.h ****  *
   4:Middlewares/lvgl/src/draw/../hal/../misc/lv_mem.h ****  */
   5:Middlewares/lvgl/src/draw/../hal/../misc/lv_mem.h **** 
   6:Middlewares/lvgl/src/draw/../hal/../misc/lv_mem.h **** #ifndef LV_MEM_H
   7:Middlewares/lvgl/src/draw/../hal/../misc/lv_mem.h **** #define LV_MEM_H
   8:Middlewares/lvgl/src/draw/../hal/../misc/lv_mem.h **** 
   9:Middlewares/lvgl/src/draw/../hal/../misc/lv_mem.h **** #ifdef __cplusplus
  10:Middlewares/lvgl/src/draw/../hal/../misc/lv_mem.h **** extern "C" {
  11:Middlewares/lvgl/src/draw/../hal/../misc/lv_mem.h **** #endif
  12:Middlewares/lvgl/src/draw/../hal/../misc/lv_mem.h **** 
  13:Middlewares/lvgl/src/draw/../hal/../misc/lv_mem.h **** /*********************
  14:Middlewares/lvgl/src/draw/../hal/../misc/lv_mem.h ****  *      INCLUDES
  15:Middlewares/lvgl/src/draw/../hal/../misc/lv_mem.h ****  *********************/
  16:Middlewares/lvgl/src/draw/../hal/../misc/lv_mem.h **** #include "../lv_conf_internal.h"
  17:Middlewares/lvgl/src/draw/../hal/../misc/lv_mem.h **** 
  18:Middlewares/lvgl/src/draw/../hal/../misc/lv_mem.h **** #include <stdint.h>
  19:Middlewares/lvgl/src/draw/../hal/../misc/lv_mem.h **** #include <stddef.h>
  20:Middlewares/lvgl/src/draw/../hal/../misc/lv_mem.h **** #include "lv_log.h"
  21:Middlewares/lvgl/src/draw/../hal/../misc/lv_mem.h **** #include "lv_types.h"
  22:Middlewares/lvgl/src/draw/../hal/../misc/lv_mem.h **** 
  23:Middlewares/lvgl/src/draw/../hal/../misc/lv_mem.h **** #if LV_MEMCPY_MEMSET_STD
  24:Middlewares/lvgl/src/draw/../hal/../misc/lv_mem.h **** #include <string.h>
  25:Middlewares/lvgl/src/draw/../hal/../misc/lv_mem.h **** #endif
  26:Middlewares/lvgl/src/draw/../hal/../misc/lv_mem.h **** 
  27:Middlewares/lvgl/src/draw/../hal/../misc/lv_mem.h **** /*********************
  28:Middlewares/lvgl/src/draw/../hal/../misc/lv_mem.h ****  *      DEFINES
  29:Middlewares/lvgl/src/draw/../hal/../misc/lv_mem.h ****  *********************/
  30:Middlewares/lvgl/src/draw/../hal/../misc/lv_mem.h **** 
  31:Middlewares/lvgl/src/draw/../hal/../misc/lv_mem.h **** #ifndef LV_MEM_BUF_MAX_NUM
  32:Middlewares/lvgl/src/draw/../hal/../misc/lv_mem.h **** #define LV_MEM_BUF_MAX_NUM    16
  33:Middlewares/lvgl/src/draw/../hal/../misc/lv_mem.h **** #endif
  34:Middlewares/lvgl/src/draw/../hal/../misc/lv_mem.h **** 
  35:Middlewares/lvgl/src/draw/../hal/../misc/lv_mem.h **** /**********************
  36:Middlewares/lvgl/src/draw/../hal/../misc/lv_mem.h ****  *      TYPEDEFS
  37:Middlewares/lvgl/src/draw/../hal/../misc/lv_mem.h ****  **********************/
  38:Middlewares/lvgl/src/draw/../hal/../misc/lv_mem.h **** 
  39:Middlewares/lvgl/src/draw/../hal/../misc/lv_mem.h **** /**
  40:Middlewares/lvgl/src/draw/../hal/../misc/lv_mem.h ****  * Heap information structure.
  41:Middlewares/lvgl/src/draw/../hal/../misc/lv_mem.h ****  */
  42:Middlewares/lvgl/src/draw/../hal/../misc/lv_mem.h **** typedef struct {
  43:Middlewares/lvgl/src/draw/../hal/../misc/lv_mem.h ****     uint32_t total_size; /**< Total heap size*/
  44:Middlewares/lvgl/src/draw/../hal/../misc/lv_mem.h ****     uint32_t free_cnt;
  45:Middlewares/lvgl/src/draw/../hal/../misc/lv_mem.h ****     uint32_t free_size; /**< Size of available memory*/
  46:Middlewares/lvgl/src/draw/../hal/../misc/lv_mem.h ****     uint32_t free_biggest_size;
  47:Middlewares/lvgl/src/draw/../hal/../misc/lv_mem.h ****     uint32_t used_cnt;
  48:Middlewares/lvgl/src/draw/../hal/../misc/lv_mem.h ****     uint32_t max_used; /**< Max size of Heap memory used*/
  49:Middlewares/lvgl/src/draw/../hal/../misc/lv_mem.h ****     uint8_t used_pct; /**< Percentage used*/
  50:Middlewares/lvgl/src/draw/../hal/../misc/lv_mem.h ****     uint8_t frag_pct; /**< Amount of fragmentation*/
  51:Middlewares/lvgl/src/draw/../hal/../misc/lv_mem.h **** } lv_mem_monitor_t;
  52:Middlewares/lvgl/src/draw/../hal/../misc/lv_mem.h **** 
  53:Middlewares/lvgl/src/draw/../hal/../misc/lv_mem.h **** typedef struct {
  54:Middlewares/lvgl/src/draw/../hal/../misc/lv_mem.h ****     void * p;
ARM GAS  /tmp/cc9peG0g.s 			page 74


  55:Middlewares/lvgl/src/draw/../hal/../misc/lv_mem.h ****     uint16_t size;
  56:Middlewares/lvgl/src/draw/../hal/../misc/lv_mem.h ****     uint8_t used : 1;
  57:Middlewares/lvgl/src/draw/../hal/../misc/lv_mem.h **** } lv_mem_buf_t;
  58:Middlewares/lvgl/src/draw/../hal/../misc/lv_mem.h **** 
  59:Middlewares/lvgl/src/draw/../hal/../misc/lv_mem.h **** typedef lv_mem_buf_t lv_mem_buf_arr_t[LV_MEM_BUF_MAX_NUM];
  60:Middlewares/lvgl/src/draw/../hal/../misc/lv_mem.h **** 
  61:Middlewares/lvgl/src/draw/../hal/../misc/lv_mem.h **** /**********************
  62:Middlewares/lvgl/src/draw/../hal/../misc/lv_mem.h ****  * GLOBAL PROTOTYPES
  63:Middlewares/lvgl/src/draw/../hal/../misc/lv_mem.h ****  **********************/
  64:Middlewares/lvgl/src/draw/../hal/../misc/lv_mem.h **** 
  65:Middlewares/lvgl/src/draw/../hal/../misc/lv_mem.h **** /**
  66:Middlewares/lvgl/src/draw/../hal/../misc/lv_mem.h ****  * Initialize the dyn_mem module (work memory and other variables)
  67:Middlewares/lvgl/src/draw/../hal/../misc/lv_mem.h ****  */
  68:Middlewares/lvgl/src/draw/../hal/../misc/lv_mem.h **** void lv_mem_init(void);
  69:Middlewares/lvgl/src/draw/../hal/../misc/lv_mem.h **** 
  70:Middlewares/lvgl/src/draw/../hal/../misc/lv_mem.h **** /**
  71:Middlewares/lvgl/src/draw/../hal/../misc/lv_mem.h ****  * Clean up the memory buffer which frees all the allocated memories.
  72:Middlewares/lvgl/src/draw/../hal/../misc/lv_mem.h ****  * @note It work only if `LV_MEM_CUSTOM == 0`
  73:Middlewares/lvgl/src/draw/../hal/../misc/lv_mem.h ****  */
  74:Middlewares/lvgl/src/draw/../hal/../misc/lv_mem.h **** void lv_mem_deinit(void);
  75:Middlewares/lvgl/src/draw/../hal/../misc/lv_mem.h **** 
  76:Middlewares/lvgl/src/draw/../hal/../misc/lv_mem.h **** /**
  77:Middlewares/lvgl/src/draw/../hal/../misc/lv_mem.h ****  * Allocate a memory dynamically
  78:Middlewares/lvgl/src/draw/../hal/../misc/lv_mem.h ****  * @param size size of the memory to allocate in bytes
  79:Middlewares/lvgl/src/draw/../hal/../misc/lv_mem.h ****  * @return pointer to the allocated memory
  80:Middlewares/lvgl/src/draw/../hal/../misc/lv_mem.h ****  */
  81:Middlewares/lvgl/src/draw/../hal/../misc/lv_mem.h **** void * lv_mem_alloc(size_t size);
  82:Middlewares/lvgl/src/draw/../hal/../misc/lv_mem.h **** 
  83:Middlewares/lvgl/src/draw/../hal/../misc/lv_mem.h **** /**
  84:Middlewares/lvgl/src/draw/../hal/../misc/lv_mem.h ****  * Free an allocated data
  85:Middlewares/lvgl/src/draw/../hal/../misc/lv_mem.h ****  * @param data pointer to an allocated memory
  86:Middlewares/lvgl/src/draw/../hal/../misc/lv_mem.h ****  */
  87:Middlewares/lvgl/src/draw/../hal/../misc/lv_mem.h **** void lv_mem_free(void * data);
  88:Middlewares/lvgl/src/draw/../hal/../misc/lv_mem.h **** 
  89:Middlewares/lvgl/src/draw/../hal/../misc/lv_mem.h **** /**
  90:Middlewares/lvgl/src/draw/../hal/../misc/lv_mem.h ****  * Reallocate a memory with a new size. The old content will be kept.
  91:Middlewares/lvgl/src/draw/../hal/../misc/lv_mem.h ****  * @param data pointer to an allocated memory.
  92:Middlewares/lvgl/src/draw/../hal/../misc/lv_mem.h ****  * Its content will be copied to the new memory block and freed
  93:Middlewares/lvgl/src/draw/../hal/../misc/lv_mem.h ****  * @param new_size the desired new size in byte
  94:Middlewares/lvgl/src/draw/../hal/../misc/lv_mem.h ****  * @return pointer to the new memory
  95:Middlewares/lvgl/src/draw/../hal/../misc/lv_mem.h ****  */
  96:Middlewares/lvgl/src/draw/../hal/../misc/lv_mem.h **** void * lv_mem_realloc(void * data_p, size_t new_size);
  97:Middlewares/lvgl/src/draw/../hal/../misc/lv_mem.h **** 
  98:Middlewares/lvgl/src/draw/../hal/../misc/lv_mem.h **** /**
  99:Middlewares/lvgl/src/draw/../hal/../misc/lv_mem.h ****  *
 100:Middlewares/lvgl/src/draw/../hal/../misc/lv_mem.h ****  * @return
 101:Middlewares/lvgl/src/draw/../hal/../misc/lv_mem.h ****  */
 102:Middlewares/lvgl/src/draw/../hal/../misc/lv_mem.h **** lv_res_t lv_mem_test(void);
 103:Middlewares/lvgl/src/draw/../hal/../misc/lv_mem.h **** 
 104:Middlewares/lvgl/src/draw/../hal/../misc/lv_mem.h **** /**
 105:Middlewares/lvgl/src/draw/../hal/../misc/lv_mem.h ****  * Give information about the work memory of dynamic allocation
 106:Middlewares/lvgl/src/draw/../hal/../misc/lv_mem.h ****  * @param mon_p pointer to a dm_mon_p variable,
 107:Middlewares/lvgl/src/draw/../hal/../misc/lv_mem.h ****  *              the result of the analysis will be stored here
 108:Middlewares/lvgl/src/draw/../hal/../misc/lv_mem.h ****  */
 109:Middlewares/lvgl/src/draw/../hal/../misc/lv_mem.h **** void lv_mem_monitor(lv_mem_monitor_t * mon_p);
 110:Middlewares/lvgl/src/draw/../hal/../misc/lv_mem.h **** 
 111:Middlewares/lvgl/src/draw/../hal/../misc/lv_mem.h **** 
ARM GAS  /tmp/cc9peG0g.s 			page 75


 112:Middlewares/lvgl/src/draw/../hal/../misc/lv_mem.h **** /**
 113:Middlewares/lvgl/src/draw/../hal/../misc/lv_mem.h ****  * Get a temporal buffer with the given size.
 114:Middlewares/lvgl/src/draw/../hal/../misc/lv_mem.h ****  * @param size the required size
 115:Middlewares/lvgl/src/draw/../hal/../misc/lv_mem.h ****  */
 116:Middlewares/lvgl/src/draw/../hal/../misc/lv_mem.h **** void * lv_mem_buf_get(uint32_t size);
 117:Middlewares/lvgl/src/draw/../hal/../misc/lv_mem.h **** 
 118:Middlewares/lvgl/src/draw/../hal/../misc/lv_mem.h **** /**
 119:Middlewares/lvgl/src/draw/../hal/../misc/lv_mem.h ****  * Release a memory buffer
 120:Middlewares/lvgl/src/draw/../hal/../misc/lv_mem.h ****  * @param p buffer to release
 121:Middlewares/lvgl/src/draw/../hal/../misc/lv_mem.h ****  */
 122:Middlewares/lvgl/src/draw/../hal/../misc/lv_mem.h **** void lv_mem_buf_release(void * p);
 123:Middlewares/lvgl/src/draw/../hal/../misc/lv_mem.h **** 
 124:Middlewares/lvgl/src/draw/../hal/../misc/lv_mem.h **** /**
 125:Middlewares/lvgl/src/draw/../hal/../misc/lv_mem.h ****  * Free all memory buffers
 126:Middlewares/lvgl/src/draw/../hal/../misc/lv_mem.h ****  */
 127:Middlewares/lvgl/src/draw/../hal/../misc/lv_mem.h **** void lv_mem_buf_free_all(void);
 128:Middlewares/lvgl/src/draw/../hal/../misc/lv_mem.h **** 
 129:Middlewares/lvgl/src/draw/../hal/../misc/lv_mem.h **** //! @cond Doxygen_Suppress
 130:Middlewares/lvgl/src/draw/../hal/../misc/lv_mem.h **** 
 131:Middlewares/lvgl/src/draw/../hal/../misc/lv_mem.h **** #if LV_MEMCPY_MEMSET_STD
 132:Middlewares/lvgl/src/draw/../hal/../misc/lv_mem.h **** 
 133:Middlewares/lvgl/src/draw/../hal/../misc/lv_mem.h **** /**
 134:Middlewares/lvgl/src/draw/../hal/../misc/lv_mem.h ****  * Wrapper for the standard memcpy
 135:Middlewares/lvgl/src/draw/../hal/../misc/lv_mem.h ****  * @param dst pointer to the destination buffer
 136:Middlewares/lvgl/src/draw/../hal/../misc/lv_mem.h ****  * @param src pointer to the source buffer
 137:Middlewares/lvgl/src/draw/../hal/../misc/lv_mem.h ****  * @param len number of byte to copy
 138:Middlewares/lvgl/src/draw/../hal/../misc/lv_mem.h ****  */
 139:Middlewares/lvgl/src/draw/../hal/../misc/lv_mem.h **** static inline void * lv_memcpy(void * dst, const void * src, size_t len)
 140:Middlewares/lvgl/src/draw/../hal/../misc/lv_mem.h **** {
 141:Middlewares/lvgl/src/draw/../hal/../misc/lv_mem.h ****     return memcpy(dst, src, len);
 142:Middlewares/lvgl/src/draw/../hal/../misc/lv_mem.h **** }
 143:Middlewares/lvgl/src/draw/../hal/../misc/lv_mem.h **** 
 144:Middlewares/lvgl/src/draw/../hal/../misc/lv_mem.h **** /**
 145:Middlewares/lvgl/src/draw/../hal/../misc/lv_mem.h ****  * Wrapper for the standard memcpy
 146:Middlewares/lvgl/src/draw/../hal/../misc/lv_mem.h ****  * @param dst pointer to the destination buffer
 147:Middlewares/lvgl/src/draw/../hal/../misc/lv_mem.h ****  * @param src pointer to the source buffer
 148:Middlewares/lvgl/src/draw/../hal/../misc/lv_mem.h ****  * @param len number of byte to copy
 149:Middlewares/lvgl/src/draw/../hal/../misc/lv_mem.h ****  */
 150:Middlewares/lvgl/src/draw/../hal/../misc/lv_mem.h **** static inline void * lv_memcpy_small(void * dst, const void * src, size_t len)
 151:Middlewares/lvgl/src/draw/../hal/../misc/lv_mem.h **** {
 152:Middlewares/lvgl/src/draw/../hal/../misc/lv_mem.h ****     return memcpy(dst, src, len);
 153:Middlewares/lvgl/src/draw/../hal/../misc/lv_mem.h **** }
 154:Middlewares/lvgl/src/draw/../hal/../misc/lv_mem.h **** 
 155:Middlewares/lvgl/src/draw/../hal/../misc/lv_mem.h **** /**
 156:Middlewares/lvgl/src/draw/../hal/../misc/lv_mem.h ****  * Wrapper for the standard memset
 157:Middlewares/lvgl/src/draw/../hal/../misc/lv_mem.h ****  * @param dst pointer to the destination buffer
 158:Middlewares/lvgl/src/draw/../hal/../misc/lv_mem.h ****  * @param v value to set [0..255]
 159:Middlewares/lvgl/src/draw/../hal/../misc/lv_mem.h ****  * @param len number of byte to set
 160:Middlewares/lvgl/src/draw/../hal/../misc/lv_mem.h ****  */
 161:Middlewares/lvgl/src/draw/../hal/../misc/lv_mem.h **** static inline void lv_memset(void * dst, uint8_t v, size_t len)
 162:Middlewares/lvgl/src/draw/../hal/../misc/lv_mem.h **** {
 163:Middlewares/lvgl/src/draw/../hal/../misc/lv_mem.h ****     memset(dst, v, len);
 164:Middlewares/lvgl/src/draw/../hal/../misc/lv_mem.h **** }
 165:Middlewares/lvgl/src/draw/../hal/../misc/lv_mem.h **** 
 166:Middlewares/lvgl/src/draw/../hal/../misc/lv_mem.h **** /**
 167:Middlewares/lvgl/src/draw/../hal/../misc/lv_mem.h ****  * Wrapper for the standard memset with fixed 0x00 value
 168:Middlewares/lvgl/src/draw/../hal/../misc/lv_mem.h ****  * @param dst pointer to the destination buffer
ARM GAS  /tmp/cc9peG0g.s 			page 76


 169:Middlewares/lvgl/src/draw/../hal/../misc/lv_mem.h ****  * @param len number of byte to set
 170:Middlewares/lvgl/src/draw/../hal/../misc/lv_mem.h ****  */
 171:Middlewares/lvgl/src/draw/../hal/../misc/lv_mem.h **** static inline void lv_memset_00(void * dst, size_t len)
 172:Middlewares/lvgl/src/draw/../hal/../misc/lv_mem.h **** {
 173:Middlewares/lvgl/src/draw/../hal/../misc/lv_mem.h ****     memset(dst, 0x00, len);
 174:Middlewares/lvgl/src/draw/../hal/../misc/lv_mem.h **** }
 175:Middlewares/lvgl/src/draw/../hal/../misc/lv_mem.h **** 
 176:Middlewares/lvgl/src/draw/../hal/../misc/lv_mem.h **** /**
 177:Middlewares/lvgl/src/draw/../hal/../misc/lv_mem.h ****  * Wrapper for the standard memset with fixed 0xFF value
 178:Middlewares/lvgl/src/draw/../hal/../misc/lv_mem.h ****  * @param dst pointer to the destination buffer
 179:Middlewares/lvgl/src/draw/../hal/../misc/lv_mem.h ****  * @param len number of byte to set
 180:Middlewares/lvgl/src/draw/../hal/../misc/lv_mem.h ****  */
 181:Middlewares/lvgl/src/draw/../hal/../misc/lv_mem.h **** static inline void lv_memset_ff(void * dst, size_t len)
 182:Middlewares/lvgl/src/draw/../hal/../misc/lv_mem.h **** {
 183:Middlewares/lvgl/src/draw/../hal/../misc/lv_mem.h ****     memset(dst, 0xFF, len);
 184:Middlewares/lvgl/src/draw/../hal/../misc/lv_mem.h **** }
 185:Middlewares/lvgl/src/draw/../hal/../misc/lv_mem.h **** 
 186:Middlewares/lvgl/src/draw/../hal/../misc/lv_mem.h **** #else
 187:Middlewares/lvgl/src/draw/../hal/../misc/lv_mem.h **** /**
 188:Middlewares/lvgl/src/draw/../hal/../misc/lv_mem.h ****  * Same as `memcpy` but optimized for 4 byte operation.
 189:Middlewares/lvgl/src/draw/../hal/../misc/lv_mem.h ****  * @param dst pointer to the destination buffer
 190:Middlewares/lvgl/src/draw/../hal/../misc/lv_mem.h ****  * @param src pointer to the source buffer
 191:Middlewares/lvgl/src/draw/../hal/../misc/lv_mem.h ****  * @param len number of byte to copy
 192:Middlewares/lvgl/src/draw/../hal/../misc/lv_mem.h ****  */
 193:Middlewares/lvgl/src/draw/../hal/../misc/lv_mem.h **** LV_ATTRIBUTE_FAST_MEM void * lv_memcpy(void * dst, const void * src, size_t len);
 194:Middlewares/lvgl/src/draw/../hal/../misc/lv_mem.h **** 
 195:Middlewares/lvgl/src/draw/../hal/../misc/lv_mem.h **** /**
 196:Middlewares/lvgl/src/draw/../hal/../misc/lv_mem.h ****  * Same as `memcpy` but optimized to copy only a few bytes.
 197:Middlewares/lvgl/src/draw/../hal/../misc/lv_mem.h ****  * @param dst pointer to the destination buffer
 198:Middlewares/lvgl/src/draw/../hal/../misc/lv_mem.h ****  * @param src pointer to the source buffer
 199:Middlewares/lvgl/src/draw/../hal/../misc/lv_mem.h ****  * @param len number of byte to copy
 200:Middlewares/lvgl/src/draw/../hal/../misc/lv_mem.h ****  */
 201:Middlewares/lvgl/src/draw/../hal/../misc/lv_mem.h **** LV_ATTRIBUTE_FAST_MEM static inline void * lv_memcpy_small(void * dst, const void * src, size_t len
 1781              		.loc 5 201 44 is_stmt 1 view .LVU608
 1782              	.LBB72:
 202:Middlewares/lvgl/src/draw/../hal/../misc/lv_mem.h **** {
 203:Middlewares/lvgl/src/draw/../hal/../misc/lv_mem.h ****     uint8_t * d8 = (uint8_t *)dst;
 1783              		.loc 5 203 5 view .LVU609
 204:Middlewares/lvgl/src/draw/../hal/../misc/lv_mem.h ****     const uint8_t * s8 = (const uint8_t *)src;
 1784              		.loc 5 204 5 view .LVU610
 205:Middlewares/lvgl/src/draw/../hal/../misc/lv_mem.h **** 
 206:Middlewares/lvgl/src/draw/../hal/../misc/lv_mem.h ****     while(len) {
 1785              		.loc 5 206 5 view .LVU611
 203:Middlewares/lvgl/src/draw/../hal/../misc/lv_mem.h ****     const uint8_t * s8 = (const uint8_t *)src;
 1786              		.loc 5 203 15 is_stmt 0 view .LVU612
 1787 02a8 14AA     		add	r2, sp, #80
 1788              	.LVL188:
 1789              		.loc 5 206 10 view .LVU613
 1790 02aa 0623     		movs	r3, #6
 1791 02ac 04E0     		b	.L95
 1792              	.LVL189:
 1793              	.L96:
 207:Middlewares/lvgl/src/draw/../hal/../misc/lv_mem.h ****         *d8 = *s8;
 1794              		.loc 5 207 9 is_stmt 1 view .LVU614
 1795              		.loc 5 207 15 is_stmt 0 view .LVU615
 1796 02ae 11F8010B 		ldrb	r0, [r1], #1	@ zero_extendqisi2
 1797              	.LVL190:
ARM GAS  /tmp/cc9peG0g.s 			page 77


 1798              		.loc 5 207 13 view .LVU616
 1799 02b2 02F8010B 		strb	r0, [r2], #1
 1800              	.LVL191:
 208:Middlewares/lvgl/src/draw/../hal/../misc/lv_mem.h ****         d8++;
 1801              		.loc 5 208 9 is_stmt 1 view .LVU617
 209:Middlewares/lvgl/src/draw/../hal/../misc/lv_mem.h ****         s8++;
 1802              		.loc 5 209 9 view .LVU618
 210:Middlewares/lvgl/src/draw/../hal/../misc/lv_mem.h ****         len--;
 1803              		.loc 5 210 9 view .LVU619
 1804              		.loc 5 210 12 is_stmt 0 view .LVU620
 1805 02b6 013B     		subs	r3, r3, #1
 1806              	.LVL192:
 1807              	.L95:
 206:Middlewares/lvgl/src/draw/../hal/../misc/lv_mem.h ****         *d8 = *s8;
 1808              		.loc 5 206 10 is_stmt 1 view .LVU621
 1809 02b8 002B     		cmp	r3, #0
 1810 02ba F8D1     		bne	.L96
 211:Middlewares/lvgl/src/draw/../hal/../misc/lv_mem.h ****     }
 212:Middlewares/lvgl/src/draw/../hal/../misc/lv_mem.h **** 
 213:Middlewares/lvgl/src/draw/../hal/../misc/lv_mem.h ****     return dst;
 1811              		.loc 5 213 5 view .LVU622
 1812              	.LVL193:
 1813              		.loc 5 213 5 is_stmt 0 view .LVU623
 1814              	.LBE72:
 1815              	.LBE71:
 291:Middlewares/lvgl/src/draw/lv_draw_label.c ****                             int r, g, b;
 1816              		.loc 1 291 29 is_stmt 1 view .LVU624
 291:Middlewares/lvgl/src/draw/lv_draw_label.c ****                             int r, g, b;
 1817              		.loc 1 291 59 is_stmt 0 view .LVU625
 1818 02bc 8DF85630 		strb	r3, [sp, #86]
 292:Middlewares/lvgl/src/draw/lv_draw_label.c ****                             r       = (hex_char_to_num(buf[0]) << 4) + hex_char_to_num(buf[1]);
 1819              		.loc 1 292 29 is_stmt 1 view .LVU626
 293:Middlewares/lvgl/src/draw/lv_draw_label.c ****                             g       = (hex_char_to_num(buf[2]) << 4) + hex_char_to_num(buf[3]);
 1820              		.loc 1 293 29 view .LVU627
 293:Middlewares/lvgl/src/draw/lv_draw_label.c ****                             g       = (hex_char_to_num(buf[2]) << 4) + hex_char_to_num(buf[3]);
 1821              		.loc 1 293 40 is_stmt 0 view .LVU628
 1822 02c0 9DF85000 		ldrb	r0, [sp, #80]	@ zero_extendqisi2
 1823 02c4 FFF7FEFF 		bl	hex_char_to_num
 1824              	.LVL194:
 293:Middlewares/lvgl/src/draw/lv_draw_label.c ****                             g       = (hex_char_to_num(buf[2]) << 4) + hex_char_to_num(buf[3]);
 1825              		.loc 1 293 64 view .LVU629
 1826 02c8 0401     		lsls	r4, r0, #4
 293:Middlewares/lvgl/src/draw/lv_draw_label.c ****                             g       = (hex_char_to_num(buf[2]) << 4) + hex_char_to_num(buf[3]);
 1827              		.loc 1 293 72 view .LVU630
 1828 02ca 9DF85100 		ldrb	r0, [sp, #81]	@ zero_extendqisi2
 1829 02ce FFF7FEFF 		bl	hex_char_to_num
 1830              	.LVL195:
 293:Middlewares/lvgl/src/draw/lv_draw_label.c ****                             g       = (hex_char_to_num(buf[2]) << 4) + hex_char_to_num(buf[3]);
 1831              		.loc 1 293 37 view .LVU631
 1832 02d2 0444     		add	r4, r4, r0
 1833              	.LVL196:
 294:Middlewares/lvgl/src/draw/lv_draw_label.c ****                             b       = (hex_char_to_num(buf[4]) << 4) + hex_char_to_num(buf[5]);
 1834              		.loc 1 294 29 is_stmt 1 view .LVU632
 294:Middlewares/lvgl/src/draw/lv_draw_label.c ****                             b       = (hex_char_to_num(buf[4]) << 4) + hex_char_to_num(buf[5]);
 1835              		.loc 1 294 40 is_stmt 0 view .LVU633
 1836 02d4 9DF85200 		ldrb	r0, [sp, #82]	@ zero_extendqisi2
 1837 02d8 FFF7FEFF 		bl	hex_char_to_num
ARM GAS  /tmp/cc9peG0g.s 			page 78


 1838              	.LVL197:
 294:Middlewares/lvgl/src/draw/lv_draw_label.c ****                             b       = (hex_char_to_num(buf[4]) << 4) + hex_char_to_num(buf[5]);
 1839              		.loc 1 294 64 view .LVU634
 1840 02dc 0701     		lsls	r7, r0, #4
 1841              	.LVL198:
 294:Middlewares/lvgl/src/draw/lv_draw_label.c ****                             b       = (hex_char_to_num(buf[4]) << 4) + hex_char_to_num(buf[5]);
 1842              		.loc 1 294 72 view .LVU635
 1843 02de 9DF85300 		ldrb	r0, [sp, #83]	@ zero_extendqisi2
 1844 02e2 FFF7FEFF 		bl	hex_char_to_num
 1845              	.LVL199:
 294:Middlewares/lvgl/src/draw/lv_draw_label.c ****                             b       = (hex_char_to_num(buf[4]) << 4) + hex_char_to_num(buf[5]);
 1846              		.loc 1 294 37 view .LVU636
 1847 02e6 0744     		add	r7, r7, r0
 1848              	.LVL200:
 295:Middlewares/lvgl/src/draw/lv_draw_label.c ****                             recolor = lv_color_make(r, g, b);
 1849              		.loc 1 295 29 is_stmt 1 view .LVU637
 295:Middlewares/lvgl/src/draw/lv_draw_label.c ****                             recolor = lv_color_make(r, g, b);
 1850              		.loc 1 295 40 is_stmt 0 view .LVU638
 1851 02e8 9DF85400 		ldrb	r0, [sp, #84]	@ zero_extendqisi2
 1852 02ec FFF7FEFF 		bl	hex_char_to_num
 1853              	.LVL201:
 295:Middlewares/lvgl/src/draw/lv_draw_label.c ****                             recolor = lv_color_make(r, g, b);
 1854              		.loc 1 295 64 view .LVU639
 1855 02f0 4FEA001A 		lsl	r10, r0, #4
 1856              	.LVL202:
 295:Middlewares/lvgl/src/draw/lv_draw_label.c ****                             recolor = lv_color_make(r, g, b);
 1857              		.loc 1 295 72 view .LVU640
 1858 02f4 9DF85500 		ldrb	r0, [sp, #85]	@ zero_extendqisi2
 1859 02f8 FFF7FEFF 		bl	hex_char_to_num
 1860              	.LVL203:
 295:Middlewares/lvgl/src/draw/lv_draw_label.c ****                             recolor = lv_color_make(r, g, b);
 1861              		.loc 1 295 37 view .LVU641
 1862 02fc 0AEB0003 		add	r3, r10, r0
 1863              	.LVL204:
 296:Middlewares/lvgl/src/draw/lv_draw_label.c ****                         }
 1864              		.loc 1 296 29 is_stmt 1 view .LVU642
 1865              	.LBB73:
 1866              	.LBI73:
 602:Middlewares/lvgl/src/draw/../misc/lv_color.h **** {
 1867              		.loc 3 602 26 view .LVU643
 1868              	.LBB74:
 604:Middlewares/lvgl/src/draw/../misc/lv_color.h **** }
 1869              		.loc 3 604 5 view .LVU644
 604:Middlewares/lvgl/src/draw/../misc/lv_color.h **** }
 1870              		.loc 3 604 39 is_stmt 0 view .LVU645
 1871 0300 C3F3C403 		ubfx	r3, r3, #3, #5
 1872              	.LVL205:
 604:Middlewares/lvgl/src/draw/../misc/lv_color.h **** }
 1873              		.loc 3 604 39 view .LVU646
 1874 0304 C7F38507 		ubfx	r7, r7, #2, #6
 1875              	.LVL206:
 604:Middlewares/lvgl/src/draw/../misc/lv_color.h **** }
 1876              		.loc 3 604 39 view .LVU647
 1877 0308 C4F3C404 		ubfx	r4, r4, #3, #5
 1878              	.LVL207:
 604:Middlewares/lvgl/src/draw/../misc/lv_color.h **** }
 1879              		.loc 3 604 12 view .LVU648
ARM GAS  /tmp/cc9peG0g.s 			page 79


 1880 030c 119A     		ldr	r2, [sp, #68]
 1881 030e 63F30402 		bfi	r2, r3, #0, #5
 1882 0312 1346     		mov	r3, r2
 1883 0314 67F34A13 		bfi	r3, r7, #5, #6
 1884 0318 64F3CF23 		bfi	r3, r4, #11, #5
 1885 031c ADF84430 		strh	r3, [sp, #68]	@ movhi
 1886 0320 ADF83630 		strh	r3, [sp, #54]	@ movhi
 1887              	.LVL208:
 604:Middlewares/lvgl/src/draw/../misc/lv_color.h **** }
 1888              		.loc 3 604 12 view .LVU649
 1889              	.LBE74:
 1890              	.LBE73:
 1891              	.LBE70:
 301:Middlewares/lvgl/src/draw/lv_draw_label.c ****                     }
 1892              		.loc 1 301 35 view .LVU650
 1893 0324 0227     		movs	r7, #2
 1894 0326 1AE0     		b	.L87
 1895              	.LVL209:
 1896              	.L116:
 276:Middlewares/lvgl/src/draw/lv_draw_label.c ****                     }
 1897              		.loc 1 276 35 view .LVU651
 1898 0328 0027     		movs	r7, #0
 1899              	.LVL210:
 276:Middlewares/lvgl/src/draw/lv_draw_label.c ****                     }
 1900              		.loc 1 276 35 view .LVU652
 1901 032a 3DE0     		b	.L89
 1902              	.LVL211:
 1903              	.L130:
 309:Middlewares/lvgl/src/draw/lv_draw_label.c **** 
 1904              		.loc 1 309 43 is_stmt 1 discriminator 1 view .LVU653
 309:Middlewares/lvgl/src/draw/lv_draw_label.c **** 
 1905              		.loc 1 309 49 is_stmt 0 discriminator 1 view .LVU654
 1906 032c BDF836A0 		ldrh	r10, [sp, #54]
 1907 0330 3EE0     		b	.L97
 1908              	.LVL212:
 1909              	.L98:
 325:Middlewares/lvgl/src/draw/lv_draw_label.c **** 
 1910              		.loc 1 325 13 is_stmt 1 view .LVU655
 325:Middlewares/lvgl/src/draw/lv_draw_label.c **** 
 1911              		.loc 1 325 69 is_stmt 0 view .LVU656
 1912 0332 6B7F     		ldrb	r3, [r5, #29]	@ zero_extendqisi2
 1913 0334 5B09     		lsrs	r3, r3, #5
 325:Middlewares/lvgl/src/draw/lv_draw_label.c **** 
 1914              		.loc 1 325 13 view .LVU657
 1915 0336 0293     		str	r3, [sp, #8]
 1916 0338 099B     		ldr	r3, [sp, #36]
 1917 033a 0193     		str	r3, [sp, #4]
 1918              	.LVL213:
 325:Middlewares/lvgl/src/draw/lv_draw_label.c **** 
 1919              		.loc 1 325 13 view .LVU658
 1920 033c ADF800A0 		strh	r10, [sp]	@ movhi
 1921 0340 129B     		ldr	r3, [sp, #72]
 1922 0342 4A46     		mov	r2, r9
 1923 0344 0599     		ldr	r1, [sp, #20]
 1924 0346 27A8     		add	r0, sp, #156
 1925 0348 FFF7FEFF 		bl	lv_draw_letter
 1926              	.LVL214:
ARM GAS  /tmp/cc9peG0g.s 			page 80


 327:Middlewares/lvgl/src/draw/lv_draw_label.c ****                 pos.x += letter_w + dsc->letter_space;
 1927              		.loc 1 327 13 is_stmt 1 view .LVU659
 327:Middlewares/lvgl/src/draw/lv_draw_label.c ****                 pos.x += letter_w + dsc->letter_space;
 1928              		.loc 1 327 15 is_stmt 0 view .LVU660
 1929 034c 3CB1     		cbz	r4, .L87
 328:Middlewares/lvgl/src/draw/lv_draw_label.c ****             }
 1930              		.loc 1 328 17 is_stmt 1 view .LVU661
 328:Middlewares/lvgl/src/draw/lv_draw_label.c ****             }
 1931              		.loc 1 328 40 is_stmt 0 view .LVU662
 1932 034e A88A     		ldrh	r0, [r5, #20]
 328:Middlewares/lvgl/src/draw/lv_draw_label.c ****             }
 1933              		.loc 1 328 35 view .LVU663
 1934 0350 0444     		add	r4, r4, r0
 328:Middlewares/lvgl/src/draw/lv_draw_label.c ****             }
 1935              		.loc 1 328 23 view .LVU664
 1936 0352 BDF89C00 		ldrh	r0, [sp, #156]
 1937 0356 10FA84F4 		uxtah	r4, r0, r4
 1938 035a ADF89C40 		strh	r4, [sp, #156]	@ movhi
 1939              	.LVL215:
 1940              	.L87:
 328:Middlewares/lvgl/src/draw/lv_draw_label.c ****             }
 1941              		.loc 1 328 23 view .LVU665
 1942              	.LBE69:
 252:Middlewares/lvgl/src/draw/lv_draw_label.c ****             uint32_t logical_char_pos = 0;
 1943              		.loc 1 252 14 is_stmt 1 view .LVU666
 252:Middlewares/lvgl/src/draw/lv_draw_label.c ****             uint32_t logical_char_pos = 0;
 1944              		.loc 1 252 28 is_stmt 0 view .LVU667
 1945 035e A6EB0B03 		sub	r3, r6, fp
 1946              	.LVL216:
 252:Middlewares/lvgl/src/draw/lv_draw_label.c ****             uint32_t logical_char_pos = 0;
 1947              		.loc 1 252 17 view .LVU668
 1948 0362 2399     		ldr	r1, [sp, #140]
 252:Middlewares/lvgl/src/draw/lv_draw_label.c ****             uint32_t logical_char_pos = 0;
 1949              		.loc 1 252 14 view .LVU669
 1950 0364 8B42     		cmp	r3, r1
 1951 0366 55D9     		bls	.L127
 1952              	.LBB76:
 253:Middlewares/lvgl/src/draw/lv_draw_label.c ****             if(sel_start != 0xFFFF && sel_end != 0xFFFF) {
 1953              		.loc 1 253 13 is_stmt 1 view .LVU670
 1954              	.LVL217:
 254:Middlewares/lvgl/src/draw/lv_draw_label.c **** #if LV_USE_BIDI
 1955              		.loc 1 254 13 view .LVU671
 254:Middlewares/lvgl/src/draw/lv_draw_label.c **** #if LV_USE_BIDI
 1956              		.loc 1 254 15 is_stmt 0 view .LVU672
 1957 0368 4FF6FF73 		movw	r3, #65535
 1958 036c 9845     		cmp	r8, r3
 1959 036e 3FF47BAF 		beq	.L114
 254:Middlewares/lvgl/src/draw/lv_draw_label.c **** #if LV_USE_BIDI
 1960              		.loc 1 254 36 discriminator 1 view .LVU673
 1961 0372 069A     		ldr	r2, [sp, #24]
 1962 0374 9A42     		cmp	r2, r3
 1963 0376 3FF47AAF 		beq	.L115
 260:Middlewares/lvgl/src/draw/lv_draw_label.c **** #endif
 1964              		.loc 1 260 17 is_stmt 1 view .LVU674
 260:Middlewares/lvgl/src/draw/lv_draw_label.c **** #endif
 1965              		.loc 1 260 36 is_stmt 0 view .LVU675
 1966 037a 814B     		ldr	r3, .L135
ARM GAS  /tmp/cc9peG0g.s 			page 81


 1967 037c 1B68     		ldr	r3, [r3]
 1968 037e 5944     		add	r1, r1, fp
 1969 0380 0898     		ldr	r0, [sp, #32]
 1970 0382 9847     		blx	r3
 1971              	.LVL218:
 1972 0384 0490     		str	r0, [sp, #16]
 1973              	.LVL219:
 1974              	.L88:
 264:Middlewares/lvgl/src/draw/lv_draw_label.c ****             uint32_t letter_next;
 1975              		.loc 1 264 13 is_stmt 1 view .LVU676
 265:Middlewares/lvgl/src/draw/lv_draw_label.c ****             _lv_txt_encoded_letter_next_2(bidi_txt, &letter, &letter_next, &i);
 1976              		.loc 1 265 13 view .LVU677
 266:Middlewares/lvgl/src/draw/lv_draw_label.c ****             /*Handle the re-color command*/
 1977              		.loc 1 266 13 view .LVU678
 1978 0386 23AB     		add	r3, sp, #140
 1979 0388 13AA     		add	r2, sp, #76
 1980 038a 12A9     		add	r1, sp, #72
 1981 038c 0798     		ldr	r0, [sp, #28]
 1982 038e FFF7FEFF 		bl	_lv_txt_encoded_letter_next_2
 1983              	.LVL220:
 268:Middlewares/lvgl/src/draw/lv_draw_label.c ****                 if(letter == (uint32_t)LV_TXT_COLOR_CMD[0]) {
 1984              		.loc 1 268 13 view .LVU679
 268:Middlewares/lvgl/src/draw/lv_draw_label.c ****                 if(letter == (uint32_t)LV_TXT_COLOR_CMD[0]) {
 1985              		.loc 1 268 20 is_stmt 0 view .LVU680
 1986 0392 2B7F     		ldrb	r3, [r5, #28]	@ zero_extendqisi2
 268:Middlewares/lvgl/src/draw/lv_draw_label.c ****                 if(letter == (uint32_t)LV_TXT_COLOR_CMD[0]) {
 1987              		.loc 1 268 15 view .LVU681
 1988 0394 13F0010F 		tst	r3, #1
 1989 0398 06D0     		beq	.L89
 269:Middlewares/lvgl/src/draw/lv_draw_label.c ****                     if(cmd_state == CMD_STATE_WAIT) { /*Start char*/
 1990              		.loc 1 269 17 is_stmt 1 view .LVU682
 269:Middlewares/lvgl/src/draw/lv_draw_label.c ****                     if(cmd_state == CMD_STATE_WAIT) { /*Start char*/
 1991              		.loc 1 269 27 is_stmt 0 view .LVU683
 1992 039a 129B     		ldr	r3, [sp, #72]
 269:Middlewares/lvgl/src/draw/lv_draw_label.c ****                     if(cmd_state == CMD_STATE_WAIT) { /*Start char*/
 1993              		.loc 1 269 19 view .LVU684
 1994 039c 232B     		cmp	r3, #35
 1995 039e 3FF469AF 		beq	.L128
 1996              	.L90:
 285:Middlewares/lvgl/src/draw/lv_draw_label.c ****                     if(letter == ' ') {
 1997              		.loc 1 285 17 is_stmt 1 view .LVU685
 285:Middlewares/lvgl/src/draw/lv_draw_label.c ****                     if(letter == ' ') {
 1998              		.loc 1 285 19 is_stmt 0 view .LVU686
 1999 03a2 012F     		cmp	r7, #1
 2000 03a4 3FF472AF 		beq	.L129
 2001              	.LVL221:
 2002              	.L89:
 307:Middlewares/lvgl/src/draw/lv_draw_label.c **** 
 2003              		.loc 1 307 13 is_stmt 1 view .LVU687
 307:Middlewares/lvgl/src/draw/lv_draw_label.c **** 
 2004              		.loc 1 307 24 is_stmt 0 view .LVU688
 2005 03a8 B5F80CA0 		ldrh	r10, [r5, #12]
 2006              	.LVL222:
 309:Middlewares/lvgl/src/draw/lv_draw_label.c **** 
 2007              		.loc 1 309 13 is_stmt 1 view .LVU689
 309:Middlewares/lvgl/src/draw/lv_draw_label.c **** 
 2008              		.loc 1 309 15 is_stmt 0 view .LVU690
ARM GAS  /tmp/cc9peG0g.s 			page 82


 2009 03ac 022F     		cmp	r7, #2
 2010 03ae BDD0     		beq	.L130
 2011              	.L97:
 311:Middlewares/lvgl/src/draw/lv_draw_label.c **** 
 2012              		.loc 1 311 13 is_stmt 1 view .LVU691
 311:Middlewares/lvgl/src/draw/lv_draw_label.c **** 
 2013              		.loc 1 311 24 is_stmt 0 view .LVU692
 2014 03b0 139A     		ldr	r2, [sp, #76]
 2015 03b2 1299     		ldr	r1, [sp, #72]
 2016 03b4 4846     		mov	r0, r9
 2017 03b6 FFF7FEFF 		bl	lv_font_get_glyph_width
 2018              	.LVL223:
 2019 03ba 0446     		mov	r4, r0
 2020              	.LVL224:
 313:Middlewares/lvgl/src/draw/lv_draw_label.c ****                 if(logical_char_pos >= sel_start && logical_char_pos < sel_end) {
 2021              		.loc 1 313 13 is_stmt 1 view .LVU693
 313:Middlewares/lvgl/src/draw/lv_draw_label.c ****                 if(logical_char_pos >= sel_start && logical_char_pos < sel_end) {
 2022              		.loc 1 313 15 is_stmt 0 view .LVU694
 2023 03bc 4FF6FF73 		movw	r3, #65535
 2024 03c0 9845     		cmp	r8, r3
 2025 03c2 B6D0     		beq	.L98
 313:Middlewares/lvgl/src/draw/lv_draw_label.c ****                 if(logical_char_pos >= sel_start && logical_char_pos < sel_end) {
 2026              		.loc 1 313 36 discriminator 1 view .LVU695
 2027 03c4 069A     		ldr	r2, [sp, #24]
 2028 03c6 9A42     		cmp	r2, r3
 2029 03c8 B3D0     		beq	.L98
 314:Middlewares/lvgl/src/draw/lv_draw_label.c ****                     lv_area_t sel_coords;
 2030              		.loc 1 314 17 is_stmt 1 view .LVU696
 314:Middlewares/lvgl/src/draw/lv_draw_label.c ****                     lv_area_t sel_coords;
 2031              		.loc 1 314 19 is_stmt 0 view .LVU697
 2032 03ca 049B     		ldr	r3, [sp, #16]
 2033 03cc 9845     		cmp	r8, r3
 2034 03ce B0D8     		bhi	.L98
 314:Middlewares/lvgl/src/draw/lv_draw_label.c ****                     lv_area_t sel_coords;
 2035              		.loc 1 314 50 discriminator 1 view .LVU698
 2036 03d0 9A42     		cmp	r2, r3
 2037 03d2 AED9     		bls	.L98
 2038              	.LBB75:
 315:Middlewares/lvgl/src/draw/lv_draw_label.c ****                     sel_coords.x1 = pos.x;
 2039              		.loc 1 315 21 is_stmt 1 view .LVU699
 316:Middlewares/lvgl/src/draw/lv_draw_label.c ****                     sel_coords.y1 = pos.y;
 2040              		.loc 1 316 21 view .LVU700
 316:Middlewares/lvgl/src/draw/lv_draw_label.c ****                     sel_coords.y1 = pos.y;
 2041              		.loc 1 316 40 is_stmt 0 view .LVU701
 2042 03d4 BDF99C30 		ldrsh	r3, [sp, #156]
 316:Middlewares/lvgl/src/draw/lv_draw_label.c ****                     sel_coords.y1 = pos.y;
 2043              		.loc 1 316 35 view .LVU702
 2044 03d8 ADF85030 		strh	r3, [sp, #80]	@ movhi
 317:Middlewares/lvgl/src/draw/lv_draw_label.c ****                     sel_coords.x2 = pos.x + letter_w + dsc->letter_space - 1;
 2045              		.loc 1 317 21 is_stmt 1 view .LVU703
 317:Middlewares/lvgl/src/draw/lv_draw_label.c ****                     sel_coords.x2 = pos.x + letter_w + dsc->letter_space - 1;
 2046              		.loc 1 317 40 is_stmt 0 view .LVU704
 2047 03dc BDF99E20 		ldrsh	r2, [sp, #158]
 317:Middlewares/lvgl/src/draw/lv_draw_label.c ****                     sel_coords.x2 = pos.x + letter_w + dsc->letter_space - 1;
 2048              		.loc 1 317 35 view .LVU705
 2049 03e0 ADF85220 		strh	r2, [sp, #82]	@ movhi
 318:Middlewares/lvgl/src/draw/lv_draw_label.c ****                     sel_coords.y2 = pos.y + line_height - 1;
ARM GAS  /tmp/cc9peG0g.s 			page 83


 2050              		.loc 1 318 21 is_stmt 1 view .LVU706
 318:Middlewares/lvgl/src/draw/lv_draw_label.c ****                     sel_coords.y2 = pos.y + line_height - 1;
 2051              		.loc 1 318 43 is_stmt 0 view .LVU707
 2052 03e4 10FA83F3 		uxtah	r3, r0, r3
 318:Middlewares/lvgl/src/draw/lv_draw_label.c ****                     sel_coords.y2 = pos.y + line_height - 1;
 2053              		.loc 1 318 59 view .LVU708
 2054 03e8 A98A     		ldrh	r1, [r5, #20]
 318:Middlewares/lvgl/src/draw/lv_draw_label.c ****                     sel_coords.y2 = pos.y + line_height - 1;
 2055              		.loc 1 318 54 view .LVU709
 2056 03ea 11FA83F3 		uxtah	r3, r1, r3
 2057 03ee 9BB2     		uxth	r3, r3
 318:Middlewares/lvgl/src/draw/lv_draw_label.c ****                     sel_coords.y2 = pos.y + line_height - 1;
 2058              		.loc 1 318 74 view .LVU710
 2059 03f0 013B     		subs	r3, r3, #1
 318:Middlewares/lvgl/src/draw/lv_draw_label.c ****                     sel_coords.y2 = pos.y + line_height - 1;
 2060              		.loc 1 318 35 view .LVU711
 2061 03f2 ADF85430 		strh	r3, [sp, #84]	@ movhi
 319:Middlewares/lvgl/src/draw/lv_draw_label.c ****                     lv_draw_rect(&sel_coords, mask, &draw_dsc_sel);
 2062              		.loc 1 319 21 is_stmt 1 view .LVU712
 319:Middlewares/lvgl/src/draw/lv_draw_label.c ****                     lv_draw_rect(&sel_coords, mask, &draw_dsc_sel);
 2063              		.loc 1 319 43 is_stmt 0 view .LVU713
 2064 03f6 0A9B     		ldr	r3, [sp, #40]
 2065 03f8 13FA82F3 		uxtah	r3, r3, r2
 2066 03fc 9BB2     		uxth	r3, r3
 319:Middlewares/lvgl/src/draw/lv_draw_label.c ****                     lv_draw_rect(&sel_coords, mask, &draw_dsc_sel);
 2067              		.loc 1 319 57 view .LVU714
 2068 03fe 013B     		subs	r3, r3, #1
 319:Middlewares/lvgl/src/draw/lv_draw_label.c ****                     lv_draw_rect(&sel_coords, mask, &draw_dsc_sel);
 2069              		.loc 1 319 35 view .LVU715
 2070 0400 ADF85630 		strh	r3, [sp, #86]	@ movhi
 320:Middlewares/lvgl/src/draw/lv_draw_label.c ****                     color = dsc->sel_color;
 2071              		.loc 1 320 21 is_stmt 1 view .LVU716
 2072 0404 16AA     		add	r2, sp, #88
 2073 0406 0599     		ldr	r1, [sp, #20]
 2074 0408 14A8     		add	r0, sp, #80
 2075              	.LVL225:
 320:Middlewares/lvgl/src/draw/lv_draw_label.c ****                     color = dsc->sel_color;
 2076              		.loc 1 320 21 is_stmt 0 view .LVU717
 2077 040a FFF7FEFF 		bl	lv_draw_rect
 2078              	.LVL226:
 321:Middlewares/lvgl/src/draw/lv_draw_label.c ****                 }
 2079              		.loc 1 321 21 is_stmt 1 view .LVU718
 321:Middlewares/lvgl/src/draw/lv_draw_label.c ****                 }
 2080              		.loc 1 321 27 is_stmt 0 view .LVU719
 2081 040e B5F80EA0 		ldrh	r10, [r5, #14]
 2082 0412 8EE7     		b	.L98
 2083              	.LVL227:
 2084              	.L127:
 321:Middlewares/lvgl/src/draw/lv_draw_label.c ****                 }
 2085              		.loc 1 321 27 view .LVU720
 2086              	.LBE75:
 2087              	.LBE76:
 332:Middlewares/lvgl/src/draw/lv_draw_label.c ****             lv_point_t p1;
 2088              		.loc 1 332 9 is_stmt 1 view .LVU721
 332:Middlewares/lvgl/src/draw/lv_draw_label.c ****             lv_point_t p1;
 2089              		.loc 1 332 15 is_stmt 0 view .LVU722
 2090 0414 6B7F     		ldrb	r3, [r5, #29]	@ zero_extendqisi2
ARM GAS  /tmp/cc9peG0g.s 			page 84


 332:Middlewares/lvgl/src/draw/lv_draw_label.c ****             lv_point_t p1;
 2091              		.loc 1 332 11 view .LVU723
 2092 0416 13F0080F 		tst	r3, #8
 2093 041a 3CD1     		bne	.L131
 2094              	.L102:
 342:Middlewares/lvgl/src/draw/lv_draw_label.c ****             lv_point_t p1;
 2095              		.loc 1 342 9 is_stmt 1 view .LVU724
 342:Middlewares/lvgl/src/draw/lv_draw_label.c ****             lv_point_t p1;
 2096              		.loc 1 342 15 is_stmt 0 view .LVU725
 2097 041c 6B7F     		ldrb	r3, [r5, #29]	@ zero_extendqisi2
 342:Middlewares/lvgl/src/draw/lv_draw_label.c ****             lv_point_t p1;
 2098              		.loc 1 342 11 view .LVU726
 2099 041e 13F0040F 		tst	r3, #4
 2100 0422 5BD1     		bne	.L132
 2101              	.L103:
 357:Middlewares/lvgl/src/draw/lv_draw_label.c ****         line_end += _lv_txt_get_next_line(&txt[line_start], font, dsc->letter_space, w, dsc->flag);
 2102              		.loc 1 357 9 is_stmt 1 view .LVU727
 2103              	.LVL228:
 358:Middlewares/lvgl/src/draw/lv_draw_label.c **** 
 2104              		.loc 1 358 9 view .LVU728
 358:Middlewares/lvgl/src/draw/lv_draw_label.c **** 
 2105              		.loc 1 358 21 is_stmt 0 view .LVU729
 2106 0424 089B     		ldr	r3, [sp, #32]
 2107 0426 9C19     		adds	r4, r3, r6
 2108 0428 2B7F     		ldrb	r3, [r5, #28]	@ zero_extendqisi2
 2109 042a 0093     		str	r3, [sp]
 2110 042c 0B9B     		ldr	r3, [sp, #44]
 2111 042e B5F91420 		ldrsh	r2, [r5, #20]
 2112 0432 4946     		mov	r1, r9
 2113 0434 2046     		mov	r0, r4
 2114 0436 FFF7FEFF 		bl	_lv_txt_get_next_line
 2115              	.LVL229:
 358:Middlewares/lvgl/src/draw/lv_draw_label.c **** 
 2116              		.loc 1 358 18 view .LVU730
 2117 043a 3718     		adds	r7, r6, r0
 2118              	.LVL230:
 360:Middlewares/lvgl/src/draw/lv_draw_label.c ****         /*Align to middle*/
 2119              		.loc 1 360 9 is_stmt 1 view .LVU731
 360:Middlewares/lvgl/src/draw/lv_draw_label.c ****         /*Align to middle*/
 2120              		.loc 1 360 23 is_stmt 0 view .LVU732
 2121 043c 0C9B     		ldr	r3, [sp, #48]
 2122 043e B3F90030 		ldrsh	r3, [r3]
 360:Middlewares/lvgl/src/draw/lv_draw_label.c ****         /*Align to middle*/
 2123              		.loc 1 360 15 view .LVU733
 2124 0442 ADF89C30 		strh	r3, [sp, #156]	@ movhi
 362:Middlewares/lvgl/src/draw/lv_draw_label.c ****             line_width =
 2125              		.loc 1 362 9 is_stmt 1 view .LVU734
 362:Middlewares/lvgl/src/draw/lv_draw_label.c ****             line_width =
 2126              		.loc 1 362 23 is_stmt 0 view .LVU735
 2127 0446 6B7F     		ldrb	r3, [r5, #29]	@ zero_extendqisi2
 2128 0448 03F00303 		and	r3, r3, #3
 362:Middlewares/lvgl/src/draw/lv_draw_label.c ****             line_width =
 2129              		.loc 1 362 11 view .LVU736
 2130 044c 022B     		cmp	r3, #2
 2131 044e 65D0     		beq	.L133
 370:Middlewares/lvgl/src/draw/lv_draw_label.c ****             line_width =
 2132              		.loc 1 370 14 is_stmt 1 view .LVU737
ARM GAS  /tmp/cc9peG0g.s 			page 85


 370:Middlewares/lvgl/src/draw/lv_draw_label.c ****             line_width =
 2133              		.loc 1 370 16 is_stmt 0 view .LVU738
 2134 0450 032B     		cmp	r3, #3
 2135 0452 7DD0     		beq	.L134
 2136              	.L105:
 377:Middlewares/lvgl/src/draw/lv_draw_label.c **** 
 2137              		.loc 1 377 9 is_stmt 1 view .LVU739
 377:Middlewares/lvgl/src/draw/lv_draw_label.c **** 
 2138              		.loc 1 377 15 is_stmt 0 view .LVU740
 2139 0454 BDF89E30 		ldrh	r3, [sp, #158]
 2140 0458 0A9A     		ldr	r2, [sp, #40]
 2141 045a 1344     		add	r3, r3, r2
 2142 045c 1BB2     		sxth	r3, r3
 2143 045e ADF89E30 		strh	r3, [sp, #158]	@ movhi
 379:Middlewares/lvgl/src/draw/lv_draw_label.c ****     }
 2144              		.loc 1 379 9 is_stmt 1 view .LVU741
 379:Middlewares/lvgl/src/draw/lv_draw_label.c ****     }
 2145              		.loc 1 379 24 is_stmt 0 view .LVU742
 2146 0462 059A     		ldr	r2, [sp, #20]
 2147 0464 B2F90620 		ldrsh	r2, [r2, #6]
 357:Middlewares/lvgl/src/draw/lv_draw_label.c ****         line_end += _lv_txt_get_next_line(&txt[line_start], font, dsc->letter_space, w, dsc->flag);
 2148              		.loc 1 357 20 view .LVU743
 2149 0468 B346     		mov	fp, r6
 379:Middlewares/lvgl/src/draw/lv_draw_label.c ****     }
 2150              		.loc 1 379 11 view .LVU744
 2151 046a 9342     		cmp	r3, r2
 2152 046c 3FF7D9AD 		bgt	.L71
 358:Middlewares/lvgl/src/draw/lv_draw_label.c **** 
 2153              		.loc 1 358 18 view .LVU745
 2154 0470 3E46     		mov	r6, r7
 2155              	.LVL231:
 2156              	.L86:
 358:Middlewares/lvgl/src/draw/lv_draw_label.c **** 
 2157              		.loc 1 358 18 view .LVU746
 2158              	.LBE68:
 239:Middlewares/lvgl/src/draw/lv_draw_label.c ****         pos.x += x_ofs;
 2159              		.loc 1 239 10 is_stmt 1 view .LVU747
 239:Middlewares/lvgl/src/draw/lv_draw_label.c ****         pos.x += x_ofs;
 2160              		.loc 1 239 14 is_stmt 0 view .LVU748
 2161 0472 089B     		ldr	r3, [sp, #32]
 2162 0474 1A46     		mov	r2, r3
 2163 0476 5A44     		add	r2, r2, fp
 2164 0478 0792     		str	r2, [sp, #28]
 2165 047a 13F80B30 		ldrb	r3, [r3, fp]	@ zero_extendqisi2
 239:Middlewares/lvgl/src/draw/lv_draw_label.c ****         pos.x += x_ofs;
 2166              		.loc 1 239 10 view .LVU749
 2167 047e 002B     		cmp	r3, #0
 2168 0480 3FF4CFAD 		beq	.L71
 2169              	.LBB83:
 240:Middlewares/lvgl/src/draw/lv_draw_label.c **** 
 2170              		.loc 1 240 9 is_stmt 1 view .LVU750
 240:Middlewares/lvgl/src/draw/lv_draw_label.c **** 
 2171              		.loc 1 240 15 is_stmt 0 view .LVU751
 2172 0484 BDF89C30 		ldrh	r3, [sp, #156]
 2173 0488 0E9A     		ldr	r2, [sp, #56]
 2174 048a 1344     		add	r3, r3, r2
 2175 048c ADF89C30 		strh	r3, [sp, #156]	@ movhi
ARM GAS  /tmp/cc9peG0g.s 			page 86


 243:Middlewares/lvgl/src/draw/lv_draw_label.c ****         i         = 0;
 2176              		.loc 1 243 9 is_stmt 1 view .LVU752
 2177              	.LVL232:
 244:Middlewares/lvgl/src/draw/lv_draw_label.c **** #if LV_USE_BIDI
 2178              		.loc 1 244 9 view .LVU753
 244:Middlewares/lvgl/src/draw/lv_draw_label.c **** #if LV_USE_BIDI
 2179              		.loc 1 244 19 is_stmt 0 view .LVU754
 2180 0490 0027     		movs	r7, #0
 2181 0492 2397     		str	r7, [sp, #140]
 249:Middlewares/lvgl/src/draw/lv_draw_label.c **** #endif
 2182              		.loc 1 249 9 is_stmt 1 view .LVU755
 2183              	.LVL233:
 252:Middlewares/lvgl/src/draw/lv_draw_label.c ****             uint32_t logical_char_pos = 0;
 2184              		.loc 1 252 9 view .LVU756
 252:Middlewares/lvgl/src/draw/lv_draw_label.c ****             uint32_t logical_char_pos = 0;
 2185              		.loc 1 252 14 is_stmt 0 view .LVU757
 2186 0494 63E7     		b	.L87
 2187              	.LVL234:
 2188              	.L131:
 2189              	.LBB77:
 333:Middlewares/lvgl/src/draw/lv_draw_label.c ****             lv_point_t p2;
 2190              		.loc 1 333 13 is_stmt 1 view .LVU758
 334:Middlewares/lvgl/src/draw/lv_draw_label.c ****             p1.x = pos_x_start;
 2191              		.loc 1 334 13 view .LVU759
 335:Middlewares/lvgl/src/draw/lv_draw_label.c ****             p1.y = pos.y + (dsc->font->line_height / 2)  + line_dsc.width / 2;
 2192              		.loc 1 335 13 view .LVU760
 335:Middlewares/lvgl/src/draw/lv_draw_label.c ****             p1.y = pos.y + (dsc->font->line_height / 2)  + line_dsc.width / 2;
 2193              		.loc 1 335 18 is_stmt 0 view .LVU761
 2194 0496 109B     		ldr	r3, [sp, #64]
 2195 0498 ADF84C30 		strh	r3, [sp, #76]	@ movhi
 336:Middlewares/lvgl/src/draw/lv_draw_label.c ****             p2.x = pos.x;
 2196              		.loc 1 336 13 is_stmt 1 view .LVU762
 336:Middlewares/lvgl/src/draw/lv_draw_label.c ****             p2.x = pos.x;
 2197              		.loc 1 336 23 is_stmt 0 view .LVU763
 2198 049c BDF89E30 		ldrh	r3, [sp, #158]
 336:Middlewares/lvgl/src/draw/lv_draw_label.c ****             p2.x = pos.x;
 2199              		.loc 1 336 32 view .LVU764
 2200 04a0 2A68     		ldr	r2, [r5]
 336:Middlewares/lvgl/src/draw/lv_draw_label.c ****             p2.x = pos.x;
 2201              		.loc 1 336 38 view .LVU765
 2202 04a2 B2F90820 		ldrsh	r2, [r2, #8]
 336:Middlewares/lvgl/src/draw/lv_draw_label.c ****             p2.x = pos.x;
 2203              		.loc 1 336 26 view .LVU766
 2204 04a6 02EBD272 		add	r2, r2, r2, lsr #31
 2205 04aa 03EB6203 		add	r3, r3, r2, asr #1
 336:Middlewares/lvgl/src/draw/lv_draw_label.c ****             p2.x = pos.x;
 2206              		.loc 1 336 68 view .LVU767
 2207 04ae BDF99220 		ldrsh	r2, [sp, #146]
 336:Middlewares/lvgl/src/draw/lv_draw_label.c ****             p2.x = pos.x;
 2208              		.loc 1 336 58 view .LVU768
 2209 04b2 02EBD272 		add	r2, r2, r2, lsr #31
 2210 04b6 5210     		asrs	r2, r2, #1
 2211 04b8 12FA83F3 		uxtah	r3, r2, r3
 2212 04bc 1BB2     		sxth	r3, r3
 336:Middlewares/lvgl/src/draw/lv_draw_label.c ****             p2.x = pos.x;
 2213              		.loc 1 336 18 view .LVU769
 2214 04be ADF84E30 		strh	r3, [sp, #78]	@ movhi
ARM GAS  /tmp/cc9peG0g.s 			page 87


 337:Middlewares/lvgl/src/draw/lv_draw_label.c ****             p2.y = p1.y;
 2215              		.loc 1 337 13 is_stmt 1 view .LVU770
 337:Middlewares/lvgl/src/draw/lv_draw_label.c ****             p2.y = p1.y;
 2216              		.loc 1 337 23 is_stmt 0 view .LVU771
 2217 04c2 BDF99C20 		ldrsh	r2, [sp, #156]
 337:Middlewares/lvgl/src/draw/lv_draw_label.c ****             p2.y = p1.y;
 2218              		.loc 1 337 18 view .LVU772
 2219 04c6 ADF85020 		strh	r2, [sp, #80]	@ movhi
 338:Middlewares/lvgl/src/draw/lv_draw_label.c ****             lv_draw_line(&p1, &p2, mask, &line_dsc);
 2220              		.loc 1 338 13 is_stmt 1 view .LVU773
 338:Middlewares/lvgl/src/draw/lv_draw_label.c ****             lv_draw_line(&p1, &p2, mask, &line_dsc);
 2221              		.loc 1 338 18 is_stmt 0 view .LVU774
 2222 04ca ADF85230 		strh	r3, [sp, #82]	@ movhi
 339:Middlewares/lvgl/src/draw/lv_draw_label.c ****         }
 2223              		.loc 1 339 13 is_stmt 1 view .LVU775
 2224 04ce 24AB     		add	r3, sp, #144
 2225 04d0 059A     		ldr	r2, [sp, #20]
 2226 04d2 14A9     		add	r1, sp, #80
 2227 04d4 13A8     		add	r0, sp, #76
 2228 04d6 FFF7FEFF 		bl	lv_draw_line
 2229              	.LVL235:
 2230 04da 9FE7     		b	.L102
 2231              	.L132:
 339:Middlewares/lvgl/src/draw/lv_draw_label.c ****         }
 2232              		.loc 1 339 13 is_stmt 0 view .LVU776
 2233              	.LBE77:
 2234              	.LBB78:
 343:Middlewares/lvgl/src/draw/lv_draw_label.c ****             lv_point_t p2;
 2235              		.loc 1 343 13 is_stmt 1 view .LVU777
 344:Middlewares/lvgl/src/draw/lv_draw_label.c ****             p1.x = pos_x_start;
 2236              		.loc 1 344 13 view .LVU778
 345:Middlewares/lvgl/src/draw/lv_draw_label.c ****             p1.y = pos.y + dsc->font->line_height - dsc->font->base_line - font->underline_position
 2237              		.loc 1 345 13 view .LVU779
 345:Middlewares/lvgl/src/draw/lv_draw_label.c ****             p1.y = pos.y + dsc->font->line_height - dsc->font->base_line - font->underline_position
 2238              		.loc 1 345 18 is_stmt 0 view .LVU780
 2239 04dc 109B     		ldr	r3, [sp, #64]
 2240 04de ADF84C30 		strh	r3, [sp, #76]	@ movhi
 346:Middlewares/lvgl/src/draw/lv_draw_label.c ****             p2.x = pos.x;
 2241              		.loc 1 346 13 is_stmt 1 view .LVU781
 346:Middlewares/lvgl/src/draw/lv_draw_label.c ****             p2.x = pos.x;
 2242              		.loc 1 346 23 is_stmt 0 view .LVU782
 2243 04e2 BDF89E30 		ldrh	r3, [sp, #158]
 346:Middlewares/lvgl/src/draw/lv_draw_label.c ****             p2.x = pos.x;
 2244              		.loc 1 346 31 view .LVU783
 2245 04e6 2A68     		ldr	r2, [r5]
 346:Middlewares/lvgl/src/draw/lv_draw_label.c ****             p2.x = pos.x;
 2246              		.loc 1 346 37 view .LVU784
 2247 04e8 1189     		ldrh	r1, [r2, #8]
 346:Middlewares/lvgl/src/draw/lv_draw_label.c ****             p2.x = pos.x;
 2248              		.loc 1 346 26 view .LVU785
 2249 04ea 0B44     		add	r3, r3, r1
 2250 04ec 9BB2     		uxth	r3, r3
 346:Middlewares/lvgl/src/draw/lv_draw_label.c ****             p2.x = pos.x;
 2251              		.loc 1 346 62 view .LVU786
 2252 04ee 5289     		ldrh	r2, [r2, #10]
 346:Middlewares/lvgl/src/draw/lv_draw_label.c ****             p2.x = pos.x;
 2253              		.loc 1 346 51 view .LVU787
ARM GAS  /tmp/cc9peG0g.s 			page 88


 2254 04f0 9B1A     		subs	r3, r3, r2
 2255 04f2 9BB2     		uxth	r3, r3
 346:Middlewares/lvgl/src/draw/lv_draw_label.c ****             p2.x = pos.x;
 2256              		.loc 1 346 80 view .LVU788
 2257 04f4 99F90D20 		ldrsb	r2, [r9, #13]
 2258 04f8 92B2     		uxth	r2, r2
 346:Middlewares/lvgl/src/draw/lv_draw_label.c ****             p2.x = pos.x;
 2259              		.loc 1 346 74 view .LVU789
 2260 04fa 9B1A     		subs	r3, r3, r2
 2261 04fc 1BB2     		sxth	r3, r3
 346:Middlewares/lvgl/src/draw/lv_draw_label.c ****             p2.x = pos.x;
 2262              		.loc 1 346 18 view .LVU790
 2263 04fe ADF84E30 		strh	r3, [sp, #78]	@ movhi
 347:Middlewares/lvgl/src/draw/lv_draw_label.c ****             p2.y = p1.y;
 2264              		.loc 1 347 13 is_stmt 1 view .LVU791
 347:Middlewares/lvgl/src/draw/lv_draw_label.c ****             p2.y = p1.y;
 2265              		.loc 1 347 23 is_stmt 0 view .LVU792
 2266 0502 BDF99C20 		ldrsh	r2, [sp, #156]
 347:Middlewares/lvgl/src/draw/lv_draw_label.c ****             p2.y = p1.y;
 2267              		.loc 1 347 18 view .LVU793
 2268 0506 ADF85020 		strh	r2, [sp, #80]	@ movhi
 348:Middlewares/lvgl/src/draw/lv_draw_label.c ****             lv_draw_line(&p1, &p2, mask, &line_dsc);
 2269              		.loc 1 348 13 is_stmt 1 view .LVU794
 348:Middlewares/lvgl/src/draw/lv_draw_label.c ****             lv_draw_line(&p1, &p2, mask, &line_dsc);
 2270              		.loc 1 348 18 is_stmt 0 view .LVU795
 2271 050a ADF85230 		strh	r3, [sp, #82]	@ movhi
 349:Middlewares/lvgl/src/draw/lv_draw_label.c ****         }
 2272              		.loc 1 349 13 is_stmt 1 view .LVU796
 2273 050e 24AB     		add	r3, sp, #144
 2274 0510 059A     		ldr	r2, [sp, #20]
 2275 0512 14A9     		add	r1, sp, #80
 2276 0514 13A8     		add	r0, sp, #76
 2277 0516 FFF7FEFF 		bl	lv_draw_line
 2278              	.LVL236:
 2279 051a 83E7     		b	.L103
 2280              	.LVL237:
 2281              	.L133:
 349:Middlewares/lvgl/src/draw/lv_draw_label.c ****         }
 2282              		.loc 1 349 13 is_stmt 0 view .LVU797
 2283              	.LBE78:
 363:Middlewares/lvgl/src/draw/lv_draw_label.c ****                 lv_txt_get_width(&txt[line_start], line_end - line_start, font, dsc->letter_space, 
 2284              		.loc 1 363 13 is_stmt 1 view .LVU798
 364:Middlewares/lvgl/src/draw/lv_draw_label.c **** 
 2285              		.loc 1 364 17 is_stmt 0 view .LVU799
 2286 051c 2B7F     		ldrb	r3, [r5, #28]	@ zero_extendqisi2
 2287 051e 0093     		str	r3, [sp]
 2288 0520 B5F91430 		ldrsh	r3, [r5, #20]
 2289 0524 4A46     		mov	r2, r9
 2290 0526 0146     		mov	r1, r0
 2291 0528 2046     		mov	r0, r4
 2292 052a FFF7FEFF 		bl	lv_txt_get_width
 2293              	.LVL238:
 366:Middlewares/lvgl/src/draw/lv_draw_label.c **** 
 2294              		.loc 1 366 13 is_stmt 1 view .LVU800
 2295              	.LBB79:
 2296              	.LBI79:
 133:Middlewares/lvgl/src/draw/../misc/lv_area.h **** {
ARM GAS  /tmp/cc9peG0g.s 			page 89


 2297              		.loc 2 133 26 view .LVU801
 2298              	.LBB80:
 2299              		.loc 2 135 5 view .LVU802
 2300              		.loc 2 135 31 is_stmt 0 view .LVU803
 2301 052e 0C9A     		ldr	r2, [sp, #48]
 2302 0530 9388     		ldrh	r3, [r2, #4]
 2303              		.loc 2 135 44 view .LVU804
 2304 0532 1288     		ldrh	r2, [r2]
 2305              		.loc 2 135 36 view .LVU805
 2306 0534 9B1A     		subs	r3, r3, r2
 2307 0536 9BB2     		uxth	r3, r3
 2308              		.loc 2 135 49 view .LVU806
 2309 0538 0133     		adds	r3, r3, #1
 2310              		.loc 2 135 12 view .LVU807
 2311 053a 1BB2     		sxth	r3, r3
 2312              	.LVL239:
 2313              		.loc 2 135 12 view .LVU808
 2314              	.LBE80:
 2315              	.LBE79:
 366:Middlewares/lvgl/src/draw/lv_draw_label.c **** 
 2316              		.loc 1 366 49 view .LVU809
 2317 053c 181A     		subs	r0, r3, r0
 2318              	.LVL240:
 366:Middlewares/lvgl/src/draw/lv_draw_label.c **** 
 2319              		.loc 1 366 63 view .LVU810
 2320 053e 00EBD070 		add	r0, r0, r0, lsr #31
 366:Middlewares/lvgl/src/draw/lv_draw_label.c **** 
 2321              		.loc 1 366 19 view .LVU811
 2322 0542 BDF89C30 		ldrh	r3, [sp, #156]
 2323 0546 03EB6000 		add	r0, r3, r0, asr #1
 2324 054a ADF89C00 		strh	r0, [sp, #156]	@ movhi
 2325 054e 81E7     		b	.L105
 2326              	.L134:
 371:Middlewares/lvgl/src/draw/lv_draw_label.c ****                 lv_txt_get_width(&txt[line_start], line_end - line_start, font, dsc->letter_space, 
 2327              		.loc 1 371 13 is_stmt 1 view .LVU812
 372:Middlewares/lvgl/src/draw/lv_draw_label.c ****             pos.x += lv_area_get_width(coords) - line_width;
 2328              		.loc 1 372 17 is_stmt 0 view .LVU813
 2329 0550 2B7F     		ldrb	r3, [r5, #28]	@ zero_extendqisi2
 2330 0552 0093     		str	r3, [sp]
 2331 0554 B5F91430 		ldrsh	r3, [r5, #20]
 2332 0558 4A46     		mov	r2, r9
 2333 055a 0146     		mov	r1, r0
 2334 055c 2046     		mov	r0, r4
 2335 055e FFF7FEFF 		bl	lv_txt_get_width
 2336              	.LVL241:
 373:Middlewares/lvgl/src/draw/lv_draw_label.c ****         }
 2337              		.loc 1 373 13 is_stmt 1 view .LVU814
 2338              	.LBB81:
 2339              	.LBI81:
 133:Middlewares/lvgl/src/draw/../misc/lv_area.h **** {
 2340              		.loc 2 133 26 view .LVU815
 2341              	.LBB82:
 2342              		.loc 2 135 5 view .LVU816
 2343              		.loc 2 135 31 is_stmt 0 view .LVU817
 2344 0562 0C9A     		ldr	r2, [sp, #48]
 2345 0564 9388     		ldrh	r3, [r2, #4]
 2346              		.loc 2 135 44 view .LVU818
ARM GAS  /tmp/cc9peG0g.s 			page 90


 2347 0566 1288     		ldrh	r2, [r2]
 2348              		.loc 2 135 36 view .LVU819
 2349 0568 9B1A     		subs	r3, r3, r2
 2350 056a 9BB2     		uxth	r3, r3
 2351              		.loc 2 135 49 view .LVU820
 2352 056c 0133     		adds	r3, r3, #1
 2353              		.loc 2 135 12 view .LVU821
 2354 056e 1BB2     		sxth	r3, r3
 2355              	.LVL242:
 2356              		.loc 2 135 12 view .LVU822
 2357              	.LBE82:
 2358              	.LBE81:
 373:Middlewares/lvgl/src/draw/lv_draw_label.c ****         }
 2359              		.loc 1 373 48 view .LVU823
 2360 0570 1B1A     		subs	r3, r3, r0
 373:Middlewares/lvgl/src/draw/lv_draw_label.c ****         }
 2361              		.loc 1 373 19 view .LVU824
 2362 0572 BDF89C20 		ldrh	r2, [sp, #156]
 2363 0576 1344     		add	r3, r3, r2
 2364 0578 ADF89C30 		strh	r3, [sp, #156]	@ movhi
 2365 057c 6AE7     		b	.L105
 2366              	.L136:
 2367 057e 00BF     		.align	2
 2368              	.L135:
 2369 0580 00000000 		.word	_lv_txt_encoded_get_char_id
 2370              	.LBE83:
 2371              		.cfi_endproc
 2372              	.LFE148:
 2374              		.global	_lv_bpp8_opa_table
 2375              		.global	_lv_bpp4_opa_table
 2376              		.global	_lv_bpp3_opa_table
 2377              		.global	_lv_bpp2_opa_table
 2378              		.global	_lv_bpp1_opa_table
 2379              		.section	.bss.opa_table.0,"aw",%nobits
 2380              		.align	2
 2381              		.set	.LANCHOR4,. + 0
 2384              	opa_table.0:
 2385 0000 00000000 		.space	256
 2385      00000000 
 2385      00000000 
 2385      00000000 
 2385      00000000 
 2386              		.section	.bss.prev_bpp.1,"aw",%nobits
 2387              		.align	2
 2388              		.set	.LANCHOR6,. + 0
 2391              	prev_bpp.1:
 2392 0000 00000000 		.space	4
 2393              		.section	.bss.prev_opa.2,"aw",%nobits
 2394              		.set	.LANCHOR5,. + 0
 2397              	prev_opa.2:
 2398 0000 00       		.space	1
 2399              		.section	.rodata._lv_bpp1_opa_table,"a"
 2400              		.align	2
 2401              		.set	.LANCHOR3,. + 0
 2404              	_lv_bpp1_opa_table:
 2405 0000 00FF     		.ascii	"\000\377"
 2406              		.section	.rodata._lv_bpp2_opa_table,"a"
ARM GAS  /tmp/cc9peG0g.s 			page 91


 2407              		.align	2
 2408              		.set	.LANCHOR1,. + 0
 2411              	_lv_bpp2_opa_table:
 2412 0000 0055AAFF 		.ascii	"\000U\252\377"
 2413              		.section	.rodata._lv_bpp3_opa_table,"a"
 2414              		.align	2
 2417              	_lv_bpp3_opa_table:
 2418 0000 0024496D 		.ascii	"\000$Im\222\266\333\377"
 2418      92B6DBFF 
 2419              		.section	.rodata._lv_bpp4_opa_table,"a"
 2420              		.align	2
 2421              		.set	.LANCHOR0,. + 0
 2424              	_lv_bpp4_opa_table:
 2425 0000 00112233 		.ascii	"\000\021\"3DUfw\210\231\252\273\314\335\356\377"
 2425      44556677 
 2425      8899AABB 
 2425      CCDDEEFF 
 2426              		.section	.rodata._lv_bpp8_opa_table,"a"
 2427              		.align	2
 2428              		.set	.LANCHOR2,. + 0
 2431              	_lv_bpp8_opa_table:
 2432 0000 00010203 		.ascii	"\000\001\002\003\004\005\006\007\010\011\012\013\014"
 2432      04050607 
 2432      08090A0B 
 2432      0C
 2433 000d 0D0E0F10 		.ascii	"\015\016\017\020\021\022\023\024\025\026\027\030\031"
 2433      11121314 
 2433      15161718 
 2433      19
 2434 001a 1A1B1C1D 		.ascii	"\032\033\034\035\036\037 !\"#$%&'()*+,-./0123456789"
 2434      1E1F2021 
 2434      22232425 
 2434      26272829 
 2434      2A2B2C2D 
 2435 003a 3A3B3C3D 		.ascii	":;<=>?@ABCDEFGHIJKLMNOPQRSTUVWXYZ[\\]^_`abcdefghijk"
 2435      3E3F4041 
 2435      42434445 
 2435      46474849 
 2435      4A4B4C4D 
 2436 006c 6C6D6E6F 		.ascii	"lmnopqrstuvwxyz{|}~\177\200\201\202\203\204\205\206"
 2436      70717273 
 2436      74757677 
 2436      78797A7B 
 2436      7C7D7E7F 
 2437 0087 8788898A 		.ascii	"\207\210\211\212\213\214\215\216\217\220\221\222\223"
 2437      8B8C8D8E 
 2437      8F909192 
 2437      93
 2438 0094 94959697 		.ascii	"\224\225\226\227\230\231\232\233\234\235\236\237\240"
 2438      98999A9B 
 2438      9C9D9E9F 
 2438      A0
 2439 00a1 A1A2A3A4 		.ascii	"\241\242\243\244\245\246\247\250\251\252\253\254\255"
 2439      A5A6A7A8 
 2439      A9AAABAC 
 2439      AD
 2440 00ae AEAFB0B1 		.ascii	"\256\257\260\261\262\263\264\265\266\267\270\271\272"
ARM GAS  /tmp/cc9peG0g.s 			page 92


 2440      B2B3B4B5 
 2440      B6B7B8B9 
 2440      BA
 2441 00bb BBBCBDBE 		.ascii	"\273\274\275\276\277\300\301\302\303\304\305\306\307"
 2441      BFC0C1C2 
 2441      C3C4C5C6 
 2441      C7
 2442 00c8 C8C9CACB 		.ascii	"\310\311\312\313\314\315\316\317\320\321\322\323\324"
 2442      CCCDCECF 
 2442      D0D1D2D3 
 2442      D4
 2443 00d5 D5D6D7D8 		.ascii	"\325\326\327\330\331\332\333\334\335\336\337\340\341"
 2443      D9DADBDC 
 2443      DDDEDFE0 
 2443      E1
 2444 00e2 E2E3E4E5 		.ascii	"\342\343\344\345\346\347\350\351\352\353\354\355\356"
 2444      E6E7E8E9 
 2444      EAEBECED 
 2444      EE
 2445 00ef EFF0F1F2 		.ascii	"\357\360\361\362\363\364\365\366\367\370\371\372\373"
 2445      F3F4F5F6 
 2445      F7F8F9FA 
 2445      FB
 2446 00fc FCFDFEFF 		.ascii	"\374\375\376\377"
 2447              		.text
 2448              	.Letext0:
 2449              		.file 6 "/home/akinya/gcc-arm-none-eabi/arm-none-eabi/include/machine/_default_types.h"
 2450              		.file 7 "/home/akinya/gcc-arm-none-eabi/arm-none-eabi/include/sys/_stdint.h"
 2451              		.file 8 "/home/akinya/gcc-arm-none-eabi/lib/gcc/arm-none-eabi/10.2.1/include/stddef.h"
 2452              		.file 9 "Middlewares/lvgl/src/draw/../misc/lv_txt.h"
 2453              		.file 10 "Middlewares/lvgl/src/draw/../misc/lv_bidi.h"
 2454              		.file 11 "Middlewares/lvgl/src/draw/../misc/lv_style.h"
 2455              		.file 12 "Middlewares/lvgl/src/draw/lv_draw_mask.h"
 2456              		.file 13 "Middlewares/lvgl/src/draw/lv_draw_label.h"
 2457              		.file 14 "Middlewares/lvgl/src/draw/../core/../draw/lv_draw_rect.h"
 2458              		.file 15 "Middlewares/lvgl/src/draw/../core/../draw/lv_draw_line.h"
 2459              		.file 16 "Middlewares/lvgl/src/draw/lv_draw_blend.h"
 2460              		.file 17 "Middlewares/lvgl/src/draw/../core/lv_refr.h"
 2461              		.file 18 "Middlewares/lvgl/src/draw/../hal/lv_hal_disp.h"
ARM GAS  /tmp/cc9peG0g.s 			page 93


DEFINED SYMBOLS
                            *ABS*:0000000000000000 lv_draw_label.c
     /tmp/cc9peG0g.s:18     .text.hex_char_to_num:0000000000000000 $t
     /tmp/cc9peG0g.s:25     .text.hex_char_to_num:0000000000000000 hex_char_to_num
     /tmp/cc9peG0g.s:65     .text.hex_char_to_num:000000000000001c $d
     /tmp/cc9peG0g.s:71     .text.hex_char_to_num:0000000000000022 $t
     /tmp/cc9peG0g.s:128    .text.draw_letter_normal:0000000000000000 $t
     /tmp/cc9peG0g.s:134    .text.draw_letter_normal:0000000000000000 draw_letter_normal
     /tmp/cc9peG0g.s:186    .text.draw_letter_normal:000000000000002e $d
     /tmp/cc9peG0g.s:194    .text.draw_letter_normal:000000000000003e $t
     /tmp/cc9peG0g.s:812    .text.draw_letter_normal:00000000000002c4 $d
     /tmp/cc9peG0g.s:823    .text.lv_draw_label_dsc_init:0000000000000000 $t
     /tmp/cc9peG0g.s:830    .text.lv_draw_label_dsc_init:0000000000000000 lv_draw_label_dsc_init
     /tmp/cc9peG0g.s:925    .text.lv_draw_label_dsc_init:0000000000000034 $d
     /tmp/cc9peG0g.s:930    .text.lv_draw_letter:0000000000000000 $t
     /tmp/cc9peG0g.s:937    .text.lv_draw_letter:0000000000000000 lv_draw_letter
     /tmp/cc9peG0g.s:1110   .text.lv_draw_label:0000000000000000 $t
     /tmp/cc9peG0g.s:1117   .text.lv_draw_label:0000000000000000 lv_draw_label
     /tmp/cc9peG0g.s:2369   .text.lv_draw_label:0000000000000580 $d
     /tmp/cc9peG0g.s:2431   .rodata._lv_bpp8_opa_table:0000000000000000 _lv_bpp8_opa_table
     /tmp/cc9peG0g.s:2424   .rodata._lv_bpp4_opa_table:0000000000000000 _lv_bpp4_opa_table
     /tmp/cc9peG0g.s:2417   .rodata._lv_bpp3_opa_table:0000000000000000 _lv_bpp3_opa_table
     /tmp/cc9peG0g.s:2411   .rodata._lv_bpp2_opa_table:0000000000000000 _lv_bpp2_opa_table
     /tmp/cc9peG0g.s:2404   .rodata._lv_bpp1_opa_table:0000000000000000 _lv_bpp1_opa_table
     /tmp/cc9peG0g.s:2380   .bss.opa_table.0:0000000000000000 $d
     /tmp/cc9peG0g.s:2384   .bss.opa_table.0:0000000000000000 opa_table.0
     /tmp/cc9peG0g.s:2387   .bss.prev_bpp.1:0000000000000000 $d
     /tmp/cc9peG0g.s:2391   .bss.prev_bpp.1:0000000000000000 prev_bpp.1
     /tmp/cc9peG0g.s:2397   .bss.prev_opa.2:0000000000000000 prev_opa.2
     /tmp/cc9peG0g.s:2398   .bss.prev_opa.2:0000000000000000 $d
     /tmp/cc9peG0g.s:2400   .rodata._lv_bpp1_opa_table:0000000000000000 $d
     /tmp/cc9peG0g.s:2407   .rodata._lv_bpp2_opa_table:0000000000000000 $d
     /tmp/cc9peG0g.s:2414   .rodata._lv_bpp3_opa_table:0000000000000000 $d
     /tmp/cc9peG0g.s:2420   .rodata._lv_bpp4_opa_table:0000000000000000 $d
     /tmp/cc9peG0g.s:2427   .rodata._lv_bpp8_opa_table:0000000000000000 $d

UNDEFINED SYMBOLS
_lv_refr_get_disp_refreshing
lv_disp_get_hor_res
lv_mem_buf_get
lv_draw_mask_get_cnt
lv_draw_mask_apply
lv_memset_00
_lv_blend_fill
lv_mem_buf_release
lv_palette_main
lv_font_montserrat_14
lv_font_get_glyph_dsc
lv_font_get_glyph_bitmap
_lv_area_intersect
lv_txt_get_size
_lv_txt_get_next_line
lv_draw_rect_dsc_init
lv_txt_get_width
lv_draw_line_dsc_init
_lv_txt_encoded_letter_next_2
lv_font_get_glyph_width
ARM GAS  /tmp/cc9peG0g.s 			page 94


lv_draw_rect
lv_draw_line
_lv_txt_encoded_get_char_id
