ARM GAS  /tmp/cci3f8Hk.s 			page 1


   1              		.cpu cortex-m4
   2              		.eabi_attribute 27, 1
   3              		.eabi_attribute 28, 1
   4              		.eabi_attribute 20, 1
   5              		.eabi_attribute 21, 1
   6              		.eabi_attribute 23, 3
   7              		.eabi_attribute 24, 1
   8              		.eabi_attribute 25, 1
   9              		.eabi_attribute 26, 1
  10              		.eabi_attribute 30, 1
  11              		.eabi_attribute 34, 1
  12              		.eabi_attribute 18, 4
  13              		.file	"lv_font_loader.c"
  14              		.text
  15              	.Ltext0:
  16              		.cfi_sections	.debug_frame
  17              		.section	.text.init_bit_iterator,"ax",%progbits
  18              		.align	1
  19              		.arch armv7e-m
  20              		.syntax unified
  21              		.thumb
  22              		.thumb_func
  23              		.fpu fpv4-sp-d16
  25              	init_bit_iterator:
  26              	.LVL0:
  27              	.LFB186:
  28              		.file 1 "Middlewares/lvgl/src/font/lv_font_loader.c"
   1:Middlewares/lvgl/src/font/lv_font_loader.c **** /**
   2:Middlewares/lvgl/src/font/lv_font_loader.c ****  * @file lv_font_loader.c
   3:Middlewares/lvgl/src/font/lv_font_loader.c ****  *
   4:Middlewares/lvgl/src/font/lv_font_loader.c ****  */
   5:Middlewares/lvgl/src/font/lv_font_loader.c **** 
   6:Middlewares/lvgl/src/font/lv_font_loader.c **** /*********************
   7:Middlewares/lvgl/src/font/lv_font_loader.c ****  *      INCLUDES
   8:Middlewares/lvgl/src/font/lv_font_loader.c ****  *********************/
   9:Middlewares/lvgl/src/font/lv_font_loader.c **** 
  10:Middlewares/lvgl/src/font/lv_font_loader.c **** #include <stdint.h>
  11:Middlewares/lvgl/src/font/lv_font_loader.c **** #include <stdbool.h>
  12:Middlewares/lvgl/src/font/lv_font_loader.c **** 
  13:Middlewares/lvgl/src/font/lv_font_loader.c **** #include "../lvgl.h"
  14:Middlewares/lvgl/src/font/lv_font_loader.c **** #include "../misc/lv_fs.h"
  15:Middlewares/lvgl/src/font/lv_font_loader.c **** #include "lv_font_loader.h"
  16:Middlewares/lvgl/src/font/lv_font_loader.c **** 
  17:Middlewares/lvgl/src/font/lv_font_loader.c **** /**********************
  18:Middlewares/lvgl/src/font/lv_font_loader.c ****  *      TYPEDEFS
  19:Middlewares/lvgl/src/font/lv_font_loader.c ****  **********************/
  20:Middlewares/lvgl/src/font/lv_font_loader.c **** typedef struct {
  21:Middlewares/lvgl/src/font/lv_font_loader.c ****     lv_fs_file_t * fp;
  22:Middlewares/lvgl/src/font/lv_font_loader.c ****     int8_t bit_pos;
  23:Middlewares/lvgl/src/font/lv_font_loader.c ****     uint8_t byte_value;
  24:Middlewares/lvgl/src/font/lv_font_loader.c **** } bit_iterator_t;
  25:Middlewares/lvgl/src/font/lv_font_loader.c **** 
  26:Middlewares/lvgl/src/font/lv_font_loader.c **** typedef struct font_header_bin {
  27:Middlewares/lvgl/src/font/lv_font_loader.c ****     uint32_t version;
  28:Middlewares/lvgl/src/font/lv_font_loader.c ****     uint16_t tables_count;
  29:Middlewares/lvgl/src/font/lv_font_loader.c ****     uint16_t font_size;
  30:Middlewares/lvgl/src/font/lv_font_loader.c ****     uint16_t ascent;
ARM GAS  /tmp/cci3f8Hk.s 			page 2


  31:Middlewares/lvgl/src/font/lv_font_loader.c ****     int16_t descent;
  32:Middlewares/lvgl/src/font/lv_font_loader.c ****     uint16_t typo_ascent;
  33:Middlewares/lvgl/src/font/lv_font_loader.c ****     int16_t typo_descent;
  34:Middlewares/lvgl/src/font/lv_font_loader.c ****     uint16_t typo_line_gap;
  35:Middlewares/lvgl/src/font/lv_font_loader.c ****     int16_t min_y;
  36:Middlewares/lvgl/src/font/lv_font_loader.c ****     int16_t max_y;
  37:Middlewares/lvgl/src/font/lv_font_loader.c ****     uint16_t default_advance_width;
  38:Middlewares/lvgl/src/font/lv_font_loader.c ****     uint16_t kerning_scale;
  39:Middlewares/lvgl/src/font/lv_font_loader.c ****     uint8_t index_to_loc_format;
  40:Middlewares/lvgl/src/font/lv_font_loader.c ****     uint8_t glyph_id_format;
  41:Middlewares/lvgl/src/font/lv_font_loader.c ****     uint8_t advance_width_format;
  42:Middlewares/lvgl/src/font/lv_font_loader.c ****     uint8_t bits_per_pixel;
  43:Middlewares/lvgl/src/font/lv_font_loader.c ****     uint8_t xy_bits;
  44:Middlewares/lvgl/src/font/lv_font_loader.c ****     uint8_t wh_bits;
  45:Middlewares/lvgl/src/font/lv_font_loader.c ****     uint8_t advance_width_bits;
  46:Middlewares/lvgl/src/font/lv_font_loader.c ****     uint8_t compression_id;
  47:Middlewares/lvgl/src/font/lv_font_loader.c ****     uint8_t subpixels_mode;
  48:Middlewares/lvgl/src/font/lv_font_loader.c ****     uint8_t padding;
  49:Middlewares/lvgl/src/font/lv_font_loader.c ****     int16_t underline_position;
  50:Middlewares/lvgl/src/font/lv_font_loader.c ****     uint16_t underline_thickness;
  51:Middlewares/lvgl/src/font/lv_font_loader.c **** } font_header_bin_t;
  52:Middlewares/lvgl/src/font/lv_font_loader.c **** 
  53:Middlewares/lvgl/src/font/lv_font_loader.c **** typedef struct cmap_table_bin {
  54:Middlewares/lvgl/src/font/lv_font_loader.c ****     uint32_t data_offset;
  55:Middlewares/lvgl/src/font/lv_font_loader.c ****     uint32_t range_start;
  56:Middlewares/lvgl/src/font/lv_font_loader.c ****     uint16_t range_length;
  57:Middlewares/lvgl/src/font/lv_font_loader.c ****     uint16_t glyph_id_start;
  58:Middlewares/lvgl/src/font/lv_font_loader.c ****     uint16_t data_entries_count;
  59:Middlewares/lvgl/src/font/lv_font_loader.c ****     uint8_t format_type;
  60:Middlewares/lvgl/src/font/lv_font_loader.c ****     uint8_t padding;
  61:Middlewares/lvgl/src/font/lv_font_loader.c **** } cmap_table_bin_t;
  62:Middlewares/lvgl/src/font/lv_font_loader.c **** 
  63:Middlewares/lvgl/src/font/lv_font_loader.c **** /**********************
  64:Middlewares/lvgl/src/font/lv_font_loader.c ****  *  STATIC PROTOTYPES
  65:Middlewares/lvgl/src/font/lv_font_loader.c ****  **********************/
  66:Middlewares/lvgl/src/font/lv_font_loader.c **** static bit_iterator_t init_bit_iterator(lv_fs_file_t * fp);
  67:Middlewares/lvgl/src/font/lv_font_loader.c **** static bool lvgl_load_font(lv_fs_file_t * fp, lv_font_t * font);
  68:Middlewares/lvgl/src/font/lv_font_loader.c **** int32_t load_kern(lv_fs_file_t * fp, lv_font_fmt_txt_dsc_t * font_dsc, uint8_t format, uint32_t sta
  69:Middlewares/lvgl/src/font/lv_font_loader.c **** 
  70:Middlewares/lvgl/src/font/lv_font_loader.c **** static int read_bits_signed(bit_iterator_t * it, int n_bits, lv_fs_res_t * res);
  71:Middlewares/lvgl/src/font/lv_font_loader.c **** static unsigned int read_bits(bit_iterator_t * it, int n_bits, lv_fs_res_t * res);
  72:Middlewares/lvgl/src/font/lv_font_loader.c **** 
  73:Middlewares/lvgl/src/font/lv_font_loader.c **** /**********************
  74:Middlewares/lvgl/src/font/lv_font_loader.c ****  *      MACROS
  75:Middlewares/lvgl/src/font/lv_font_loader.c ****  **********************/
  76:Middlewares/lvgl/src/font/lv_font_loader.c **** 
  77:Middlewares/lvgl/src/font/lv_font_loader.c **** /**********************
  78:Middlewares/lvgl/src/font/lv_font_loader.c ****  *   GLOBAL FUNCTIONS
  79:Middlewares/lvgl/src/font/lv_font_loader.c ****  **********************/
  80:Middlewares/lvgl/src/font/lv_font_loader.c **** 
  81:Middlewares/lvgl/src/font/lv_font_loader.c **** /**
  82:Middlewares/lvgl/src/font/lv_font_loader.c ****  * Loads a `lv_font_t` object from a binary font file
  83:Middlewares/lvgl/src/font/lv_font_loader.c ****  * @param font_name filename where the font file is located
  84:Middlewares/lvgl/src/font/lv_font_loader.c ****  * @return a pointer to the font or NULL in case of error
  85:Middlewares/lvgl/src/font/lv_font_loader.c ****  */
  86:Middlewares/lvgl/src/font/lv_font_loader.c **** lv_font_t * lv_font_load(const char * font_name)
  87:Middlewares/lvgl/src/font/lv_font_loader.c **** {
ARM GAS  /tmp/cci3f8Hk.s 			page 3


  88:Middlewares/lvgl/src/font/lv_font_loader.c ****     lv_fs_file_t file;
  89:Middlewares/lvgl/src/font/lv_font_loader.c ****     lv_fs_res_t res = lv_fs_open(&file, font_name, LV_FS_MODE_RD);
  90:Middlewares/lvgl/src/font/lv_font_loader.c ****     if(res != LV_FS_RES_OK)
  91:Middlewares/lvgl/src/font/lv_font_loader.c ****         return NULL;
  92:Middlewares/lvgl/src/font/lv_font_loader.c **** 
  93:Middlewares/lvgl/src/font/lv_font_loader.c ****     lv_font_t * font = lv_mem_alloc(sizeof(lv_font_t));
  94:Middlewares/lvgl/src/font/lv_font_loader.c ****     if(font) {
  95:Middlewares/lvgl/src/font/lv_font_loader.c ****         memset(font, 0, sizeof(lv_font_t));
  96:Middlewares/lvgl/src/font/lv_font_loader.c ****         if(!lvgl_load_font(&file, font)) {
  97:Middlewares/lvgl/src/font/lv_font_loader.c ****             LV_LOG_WARN("Error loading font file: %s\n", font_name);
  98:Middlewares/lvgl/src/font/lv_font_loader.c ****             /*
  99:Middlewares/lvgl/src/font/lv_font_loader.c ****             * When `lvgl_load_font` fails it can leak some pointers.
 100:Middlewares/lvgl/src/font/lv_font_loader.c ****             * All non-null pointers can be assumed as allocated and
 101:Middlewares/lvgl/src/font/lv_font_loader.c ****             * `lv_font_free` should free them correctly.
 102:Middlewares/lvgl/src/font/lv_font_loader.c ****             */
 103:Middlewares/lvgl/src/font/lv_font_loader.c ****             lv_font_free(font);
 104:Middlewares/lvgl/src/font/lv_font_loader.c ****             font = NULL;
 105:Middlewares/lvgl/src/font/lv_font_loader.c ****         }
 106:Middlewares/lvgl/src/font/lv_font_loader.c ****     }
 107:Middlewares/lvgl/src/font/lv_font_loader.c **** 
 108:Middlewares/lvgl/src/font/lv_font_loader.c ****     lv_fs_close(&file);
 109:Middlewares/lvgl/src/font/lv_font_loader.c **** 
 110:Middlewares/lvgl/src/font/lv_font_loader.c ****     return font;
 111:Middlewares/lvgl/src/font/lv_font_loader.c **** }
 112:Middlewares/lvgl/src/font/lv_font_loader.c **** 
 113:Middlewares/lvgl/src/font/lv_font_loader.c **** /**
 114:Middlewares/lvgl/src/font/lv_font_loader.c ****  * Frees the memory allocated by the `lv_font_load()` function
 115:Middlewares/lvgl/src/font/lv_font_loader.c ****  * @param font lv_font_t object created by the lv_font_load function
 116:Middlewares/lvgl/src/font/lv_font_loader.c ****  */
 117:Middlewares/lvgl/src/font/lv_font_loader.c **** void lv_font_free(lv_font_t * font)
 118:Middlewares/lvgl/src/font/lv_font_loader.c **** {
 119:Middlewares/lvgl/src/font/lv_font_loader.c ****     if(NULL != font) {
 120:Middlewares/lvgl/src/font/lv_font_loader.c ****         lv_font_fmt_txt_dsc_t * dsc = (lv_font_fmt_txt_dsc_t *)font->dsc;
 121:Middlewares/lvgl/src/font/lv_font_loader.c **** 
 122:Middlewares/lvgl/src/font/lv_font_loader.c ****         if(NULL != dsc) {
 123:Middlewares/lvgl/src/font/lv_font_loader.c **** 
 124:Middlewares/lvgl/src/font/lv_font_loader.c ****             if(dsc->kern_classes == 0) {
 125:Middlewares/lvgl/src/font/lv_font_loader.c ****                 lv_font_fmt_txt_kern_pair_t * kern_dsc =
 126:Middlewares/lvgl/src/font/lv_font_loader.c ****                     (lv_font_fmt_txt_kern_pair_t *)dsc->kern_dsc;
 127:Middlewares/lvgl/src/font/lv_font_loader.c **** 
 128:Middlewares/lvgl/src/font/lv_font_loader.c ****                 if(NULL != kern_dsc) {
 129:Middlewares/lvgl/src/font/lv_font_loader.c ****                     if(kern_dsc->glyph_ids)
 130:Middlewares/lvgl/src/font/lv_font_loader.c ****                         lv_mem_free((void *)kern_dsc->glyph_ids);
 131:Middlewares/lvgl/src/font/lv_font_loader.c **** 
 132:Middlewares/lvgl/src/font/lv_font_loader.c ****                     if(kern_dsc->values)
 133:Middlewares/lvgl/src/font/lv_font_loader.c ****                         lv_mem_free((void *)kern_dsc->values);
 134:Middlewares/lvgl/src/font/lv_font_loader.c **** 
 135:Middlewares/lvgl/src/font/lv_font_loader.c ****                     lv_mem_free((void *)kern_dsc);
 136:Middlewares/lvgl/src/font/lv_font_loader.c ****                 }
 137:Middlewares/lvgl/src/font/lv_font_loader.c ****             }
 138:Middlewares/lvgl/src/font/lv_font_loader.c ****             else {
 139:Middlewares/lvgl/src/font/lv_font_loader.c ****                 lv_font_fmt_txt_kern_classes_t * kern_dsc =
 140:Middlewares/lvgl/src/font/lv_font_loader.c ****                     (lv_font_fmt_txt_kern_classes_t *)dsc->kern_dsc;
 141:Middlewares/lvgl/src/font/lv_font_loader.c **** 
 142:Middlewares/lvgl/src/font/lv_font_loader.c ****                 if(NULL != kern_dsc) {
 143:Middlewares/lvgl/src/font/lv_font_loader.c ****                     if(kern_dsc->class_pair_values)
 144:Middlewares/lvgl/src/font/lv_font_loader.c ****                         lv_mem_free((void *)kern_dsc->class_pair_values);
ARM GAS  /tmp/cci3f8Hk.s 			page 4


 145:Middlewares/lvgl/src/font/lv_font_loader.c **** 
 146:Middlewares/lvgl/src/font/lv_font_loader.c ****                     if(kern_dsc->left_class_mapping)
 147:Middlewares/lvgl/src/font/lv_font_loader.c ****                         lv_mem_free((void *)kern_dsc->left_class_mapping);
 148:Middlewares/lvgl/src/font/lv_font_loader.c **** 
 149:Middlewares/lvgl/src/font/lv_font_loader.c ****                     if(kern_dsc->right_class_mapping)
 150:Middlewares/lvgl/src/font/lv_font_loader.c ****                         lv_mem_free((void *)kern_dsc->right_class_mapping);
 151:Middlewares/lvgl/src/font/lv_font_loader.c **** 
 152:Middlewares/lvgl/src/font/lv_font_loader.c ****                     lv_mem_free((void *)kern_dsc);
 153:Middlewares/lvgl/src/font/lv_font_loader.c ****                 }
 154:Middlewares/lvgl/src/font/lv_font_loader.c ****             }
 155:Middlewares/lvgl/src/font/lv_font_loader.c **** 
 156:Middlewares/lvgl/src/font/lv_font_loader.c ****             lv_font_fmt_txt_cmap_t * cmaps =
 157:Middlewares/lvgl/src/font/lv_font_loader.c ****                 (lv_font_fmt_txt_cmap_t *)dsc->cmaps;
 158:Middlewares/lvgl/src/font/lv_font_loader.c **** 
 159:Middlewares/lvgl/src/font/lv_font_loader.c ****             if(NULL != cmaps) {
 160:Middlewares/lvgl/src/font/lv_font_loader.c ****                 for(int i = 0; i < dsc->cmap_num; ++i) {
 161:Middlewares/lvgl/src/font/lv_font_loader.c ****                     if(NULL != cmaps[i].glyph_id_ofs_list)
 162:Middlewares/lvgl/src/font/lv_font_loader.c ****                         lv_mem_free((void *)cmaps[i].glyph_id_ofs_list);
 163:Middlewares/lvgl/src/font/lv_font_loader.c ****                     if(NULL != cmaps[i].unicode_list)
 164:Middlewares/lvgl/src/font/lv_font_loader.c ****                         lv_mem_free((void *)cmaps[i].unicode_list);
 165:Middlewares/lvgl/src/font/lv_font_loader.c ****                 }
 166:Middlewares/lvgl/src/font/lv_font_loader.c ****                 lv_mem_free(cmaps);
 167:Middlewares/lvgl/src/font/lv_font_loader.c ****             }
 168:Middlewares/lvgl/src/font/lv_font_loader.c **** 
 169:Middlewares/lvgl/src/font/lv_font_loader.c ****             if(NULL != dsc->glyph_bitmap) {
 170:Middlewares/lvgl/src/font/lv_font_loader.c ****                 lv_mem_free((void *)dsc->glyph_bitmap);
 171:Middlewares/lvgl/src/font/lv_font_loader.c ****             }
 172:Middlewares/lvgl/src/font/lv_font_loader.c ****             if(NULL != dsc->glyph_dsc) {
 173:Middlewares/lvgl/src/font/lv_font_loader.c ****                 lv_mem_free((void *)dsc->glyph_dsc);
 174:Middlewares/lvgl/src/font/lv_font_loader.c ****             }
 175:Middlewares/lvgl/src/font/lv_font_loader.c ****             lv_mem_free(dsc);
 176:Middlewares/lvgl/src/font/lv_font_loader.c ****         }
 177:Middlewares/lvgl/src/font/lv_font_loader.c ****         lv_mem_free(font);
 178:Middlewares/lvgl/src/font/lv_font_loader.c ****     }
 179:Middlewares/lvgl/src/font/lv_font_loader.c **** }
 180:Middlewares/lvgl/src/font/lv_font_loader.c **** 
 181:Middlewares/lvgl/src/font/lv_font_loader.c **** /**********************
 182:Middlewares/lvgl/src/font/lv_font_loader.c ****  *   STATIC FUNCTIONS
 183:Middlewares/lvgl/src/font/lv_font_loader.c ****  **********************/
 184:Middlewares/lvgl/src/font/lv_font_loader.c **** 
 185:Middlewares/lvgl/src/font/lv_font_loader.c **** static bit_iterator_t init_bit_iterator(lv_fs_file_t * fp)
 186:Middlewares/lvgl/src/font/lv_font_loader.c **** {
  29              		.loc 1 186 1 view -0
  30              		.cfi_startproc
  31              		@ args = 0, pretend = 0, frame = 0
  32              		@ frame_needed = 0, uses_anonymous_args = 0
  33              		@ link register save eliminated.
 187:Middlewares/lvgl/src/font/lv_font_loader.c ****     bit_iterator_t it;
  34              		.loc 1 187 5 view .LVU1
 188:Middlewares/lvgl/src/font/lv_font_loader.c ****     it.fp = fp;
  35              		.loc 1 188 5 view .LVU2
  36              		.loc 1 188 11 is_stmt 0 view .LVU3
  37 0000 0160     		str	r1, [r0]
 189:Middlewares/lvgl/src/font/lv_font_loader.c ****     it.bit_pos = -1;
  38              		.loc 1 189 5 is_stmt 1 view .LVU4
  39              		.loc 1 189 16 is_stmt 0 view .LVU5
  40 0002 FF22     		movs	r2, #255
ARM GAS  /tmp/cci3f8Hk.s 			page 5


  41 0004 0271     		strb	r2, [r0, #4]
 190:Middlewares/lvgl/src/font/lv_font_loader.c ****     it.byte_value = 0;
  42              		.loc 1 190 5 is_stmt 1 view .LVU6
  43              		.loc 1 190 19 is_stmt 0 view .LVU7
  44 0006 0022     		movs	r2, #0
  45 0008 4271     		strb	r2, [r0, #5]
 191:Middlewares/lvgl/src/font/lv_font_loader.c ****     return it;
  46              		.loc 1 191 5 is_stmt 1 view .LVU8
 192:Middlewares/lvgl/src/font/lv_font_loader.c **** }
  47              		.loc 1 192 1 is_stmt 0 view .LVU9
  48 000a 7047     		bx	lr
  49              		.cfi_endproc
  50              	.LFE186:
  52              		.section	.text.read_bits,"ax",%progbits
  53              		.align	1
  54              		.syntax unified
  55              		.thumb
  56              		.thumb_func
  57              		.fpu fpv4-sp-d16
  59              	read_bits:
  60              	.LVL1:
  61              	.LFB187:
 193:Middlewares/lvgl/src/font/lv_font_loader.c **** 
 194:Middlewares/lvgl/src/font/lv_font_loader.c **** static unsigned int read_bits(bit_iterator_t * it, int n_bits, lv_fs_res_t * res)
 195:Middlewares/lvgl/src/font/lv_font_loader.c **** {
  62              		.loc 1 195 1 is_stmt 1 view -0
  63              		.cfi_startproc
  64              		@ args = 0, pretend = 0, frame = 0
  65              		@ frame_needed = 0, uses_anonymous_args = 0
  66              		.loc 1 195 1 is_stmt 0 view .LVU11
  67 0000 F8B5     		push	{r3, r4, r5, r6, r7, lr}
  68              	.LCFI0:
  69              		.cfi_def_cfa_offset 24
  70              		.cfi_offset 3, -24
  71              		.cfi_offset 4, -20
  72              		.cfi_offset 5, -16
  73              		.cfi_offset 6, -12
  74              		.cfi_offset 7, -8
  75              		.cfi_offset 14, -4
  76 0002 0446     		mov	r4, r0
  77 0004 1746     		mov	r7, r2
 196:Middlewares/lvgl/src/font/lv_font_loader.c ****     unsigned int value = 0;
  78              		.loc 1 196 5 is_stmt 1 view .LVU12
  79              	.LVL2:
 197:Middlewares/lvgl/src/font/lv_font_loader.c ****     while(n_bits--) {
  80              		.loc 1 197 5 view .LVU13
 196:Middlewares/lvgl/src/font/lv_font_loader.c ****     unsigned int value = 0;
  81              		.loc 1 196 18 is_stmt 0 view .LVU14
  82 0006 0026     		movs	r6, #0
  83              		.loc 1 197 10 view .LVU15
  84 0008 04E0     		b	.L3
  85              	.LVL3:
  86              	.L4:
  87              	.LBB2:
 198:Middlewares/lvgl/src/font/lv_font_loader.c ****         it->byte_value = it->byte_value << 1;
 199:Middlewares/lvgl/src/font/lv_font_loader.c ****         it->bit_pos--;
 200:Middlewares/lvgl/src/font/lv_font_loader.c **** 
ARM GAS  /tmp/cci3f8Hk.s 			page 6


 201:Middlewares/lvgl/src/font/lv_font_loader.c ****         if(it->bit_pos < 0) {
 202:Middlewares/lvgl/src/font/lv_font_loader.c ****             it->bit_pos = 7;
 203:Middlewares/lvgl/src/font/lv_font_loader.c ****             *res = lv_fs_read(it->fp, &(it->byte_value), 1, NULL);
 204:Middlewares/lvgl/src/font/lv_font_loader.c ****             if(*res != LV_FS_RES_OK) {
 205:Middlewares/lvgl/src/font/lv_font_loader.c ****                 return 0;
 206:Middlewares/lvgl/src/font/lv_font_loader.c ****             }
 207:Middlewares/lvgl/src/font/lv_font_loader.c ****         }
 208:Middlewares/lvgl/src/font/lv_font_loader.c ****         int8_t bit = (it->byte_value & 0x80) ? 1 : 0;
  88              		.loc 1 208 9 is_stmt 1 view .LVU16
  89              		.loc 1 208 25 is_stmt 0 view .LVU17
  90 000a 6379     		ldrb	r3, [r4, #5]	@ zero_extendqisi2
  91              		.loc 1 208 16 view .LVU18
  92 000c DB09     		lsrs	r3, r3, #7
  93              	.LVL4:
 209:Middlewares/lvgl/src/font/lv_font_loader.c **** 
 210:Middlewares/lvgl/src/font/lv_font_loader.c ****         value |= (bit << n_bits);
  94              		.loc 1 210 9 is_stmt 1 view .LVU19
  95              		.loc 1 210 23 is_stmt 0 view .LVU20
  96 000e AB40     		lsls	r3, r3, r5
  97              	.LVL5:
  98              		.loc 1 210 15 view .LVU21
  99 0010 1E43     		orrs	r6, r6, r3
 100              	.LVL6:
 101              		.loc 1 210 15 view .LVU22
 102              	.LBE2:
 197:Middlewares/lvgl/src/font/lv_font_loader.c ****         it->byte_value = it->byte_value << 1;
 103              		.loc 1 197 17 view .LVU23
 104 0012 2946     		mov	r1, r5
 105              	.LVL7:
 106              	.L3:
 197:Middlewares/lvgl/src/font/lv_font_loader.c ****         it->byte_value = it->byte_value << 1;
 107              		.loc 1 197 10 is_stmt 1 view .LVU24
 197:Middlewares/lvgl/src/font/lv_font_loader.c ****         it->byte_value = it->byte_value << 1;
 108              		.loc 1 197 17 is_stmt 0 view .LVU25
 109 0014 4D1E     		subs	r5, r1, #1
 110              	.LVL8:
 197:Middlewares/lvgl/src/font/lv_font_loader.c ****         it->byte_value = it->byte_value << 1;
 111              		.loc 1 197 10 view .LVU26
 112 0016 B9B1     		cbz	r1, .L9
 113              	.LBB3:
 198:Middlewares/lvgl/src/font/lv_font_loader.c ****         it->byte_value = it->byte_value << 1;
 114              		.loc 1 198 9 is_stmt 1 view .LVU27
 198:Middlewares/lvgl/src/font/lv_font_loader.c ****         it->byte_value = it->byte_value << 1;
 115              		.loc 1 198 28 is_stmt 0 view .LVU28
 116 0018 6379     		ldrb	r3, [r4, #5]	@ zero_extendqisi2
 198:Middlewares/lvgl/src/font/lv_font_loader.c ****         it->byte_value = it->byte_value << 1;
 117              		.loc 1 198 41 view .LVU29
 118 001a 5B00     		lsls	r3, r3, #1
 198:Middlewares/lvgl/src/font/lv_font_loader.c ****         it->byte_value = it->byte_value << 1;
 119              		.loc 1 198 24 view .LVU30
 120 001c 6371     		strb	r3, [r4, #5]
 199:Middlewares/lvgl/src/font/lv_font_loader.c **** 
 121              		.loc 1 199 9 is_stmt 1 view .LVU31
 199:Middlewares/lvgl/src/font/lv_font_loader.c **** 
 122              		.loc 1 199 11 is_stmt 0 view .LVU32
 123 001e 94F90430 		ldrsb	r3, [r4, #4]
 199:Middlewares/lvgl/src/font/lv_font_loader.c **** 
ARM GAS  /tmp/cci3f8Hk.s 			page 7


 124              		.loc 1 199 20 view .LVU33
 125 0022 013B     		subs	r3, r3, #1
 126 0024 5BB2     		sxtb	r3, r3
 127 0026 2371     		strb	r3, [r4, #4]
 201:Middlewares/lvgl/src/font/lv_font_loader.c ****             it->bit_pos = 7;
 128              		.loc 1 201 9 is_stmt 1 view .LVU34
 201:Middlewares/lvgl/src/font/lv_font_loader.c ****             it->bit_pos = 7;
 129              		.loc 1 201 11 is_stmt 0 view .LVU35
 130 0028 002B     		cmp	r3, #0
 131 002a EEDA     		bge	.L4
 202:Middlewares/lvgl/src/font/lv_font_loader.c ****             *res = lv_fs_read(it->fp, &(it->byte_value), 1, NULL);
 132              		.loc 1 202 13 is_stmt 1 view .LVU36
 202:Middlewares/lvgl/src/font/lv_font_loader.c ****             *res = lv_fs_read(it->fp, &(it->byte_value), 1, NULL);
 133              		.loc 1 202 25 is_stmt 0 view .LVU37
 134 002c 0723     		movs	r3, #7
 135 002e 2371     		strb	r3, [r4, #4]
 203:Middlewares/lvgl/src/font/lv_font_loader.c ****             if(*res != LV_FS_RES_OK) {
 136              		.loc 1 203 13 is_stmt 1 view .LVU38
 203:Middlewares/lvgl/src/font/lv_font_loader.c ****             if(*res != LV_FS_RES_OK) {
 137              		.loc 1 203 39 is_stmt 0 view .LVU39
 138 0030 2146     		mov	r1, r4
 203:Middlewares/lvgl/src/font/lv_font_loader.c ****             if(*res != LV_FS_RES_OK) {
 139              		.loc 1 203 20 view .LVU40
 140 0032 51F8050B 		ldr	r0, [r1], #5
 141 0036 0023     		movs	r3, #0
 142 0038 0122     		movs	r2, #1
 143 003a FFF7FEFF 		bl	lv_fs_read
 144              	.LVL9:
 203:Middlewares/lvgl/src/font/lv_font_loader.c ****             if(*res != LV_FS_RES_OK) {
 145              		.loc 1 203 18 view .LVU41
 146 003e 3870     		strb	r0, [r7]
 204:Middlewares/lvgl/src/font/lv_font_loader.c ****                 return 0;
 147              		.loc 1 204 13 is_stmt 1 view .LVU42
 204:Middlewares/lvgl/src/font/lv_font_loader.c ****                 return 0;
 148              		.loc 1 204 15 is_stmt 0 view .LVU43
 149 0040 0028     		cmp	r0, #0
 150 0042 E2D0     		beq	.L4
 205:Middlewares/lvgl/src/font/lv_font_loader.c ****             }
 151              		.loc 1 205 24 view .LVU44
 152 0044 0026     		movs	r6, #0
 153              	.LVL10:
 205:Middlewares/lvgl/src/font/lv_font_loader.c ****             }
 154              		.loc 1 205 24 view .LVU45
 155 0046 01E0     		b	.L2
 156              	.LVL11:
 157              	.L9:
 205:Middlewares/lvgl/src/font/lv_font_loader.c ****             }
 158              		.loc 1 205 24 view .LVU46
 159              	.LBE3:
 211:Middlewares/lvgl/src/font/lv_font_loader.c ****     }
 212:Middlewares/lvgl/src/font/lv_font_loader.c ****     *res = LV_FS_RES_OK;
 160              		.loc 1 212 5 is_stmt 1 view .LVU47
 161              		.loc 1 212 10 is_stmt 0 view .LVU48
 162 0048 0023     		movs	r3, #0
 163 004a 3B70     		strb	r3, [r7]
 213:Middlewares/lvgl/src/font/lv_font_loader.c ****     return value;
 164              		.loc 1 213 5 is_stmt 1 view .LVU49
ARM GAS  /tmp/cci3f8Hk.s 			page 8


 165              	.LVL12:
 166              	.L2:
 214:Middlewares/lvgl/src/font/lv_font_loader.c **** }
 167              		.loc 1 214 1 is_stmt 0 view .LVU50
 168 004c 3046     		mov	r0, r6
 169 004e F8BD     		pop	{r3, r4, r5, r6, r7, pc}
 170              		.loc 1 214 1 view .LVU51
 171              		.cfi_endproc
 172              	.LFE187:
 174              		.section	.text.read_bits_signed,"ax",%progbits
 175              		.align	1
 176              		.syntax unified
 177              		.thumb
 178              		.thumb_func
 179              		.fpu fpv4-sp-d16
 181              	read_bits_signed:
 182              	.LVL13:
 183              	.LFB188:
 215:Middlewares/lvgl/src/font/lv_font_loader.c **** 
 216:Middlewares/lvgl/src/font/lv_font_loader.c **** static int read_bits_signed(bit_iterator_t * it, int n_bits, lv_fs_res_t * res)
 217:Middlewares/lvgl/src/font/lv_font_loader.c **** {
 184              		.loc 1 217 1 is_stmt 1 view -0
 185              		.cfi_startproc
 186              		@ args = 0, pretend = 0, frame = 0
 187              		@ frame_needed = 0, uses_anonymous_args = 0
 188              		.loc 1 217 1 is_stmt 0 view .LVU53
 189 0000 10B5     		push	{r4, lr}
 190              	.LCFI1:
 191              		.cfi_def_cfa_offset 8
 192              		.cfi_offset 4, -8
 193              		.cfi_offset 14, -4
 194 0002 0C46     		mov	r4, r1
 218:Middlewares/lvgl/src/font/lv_font_loader.c ****     unsigned int value = read_bits(it, n_bits, res);
 195              		.loc 1 218 5 is_stmt 1 view .LVU54
 196              		.loc 1 218 26 is_stmt 0 view .LVU55
 197 0004 FFF7FEFF 		bl	read_bits
 198              	.LVL14:
 219:Middlewares/lvgl/src/font/lv_font_loader.c ****     if(value & (1 << (n_bits - 1))) {
 199              		.loc 1 219 5 is_stmt 1 view .LVU56
 200              		.loc 1 219 30 is_stmt 0 view .LVU57
 201 0008 621E     		subs	r2, r4, #1
 202              		.loc 1 219 19 view .LVU58
 203 000a 0123     		movs	r3, #1
 204 000c 9340     		lsls	r3, r3, r2
 205              		.loc 1 219 7 view .LVU59
 206 000e 0342     		tst	r3, r0
 207 0010 04D0     		beq	.L11
 220:Middlewares/lvgl/src/font/lv_font_loader.c ****         value |= ~0u << n_bits;
 208              		.loc 1 220 9 is_stmt 1 view .LVU60
 209              		.loc 1 220 22 is_stmt 0 view .LVU61
 210 0012 4FF0FF31 		mov	r1, #-1
 211 0016 01FA04F4 		lsl	r4, r1, r4
 212              	.LVL15:
 213              		.loc 1 220 15 view .LVU62
 214 001a 2043     		orrs	r0, r0, r4
 215              	.LVL16:
 216              	.L11:
ARM GAS  /tmp/cci3f8Hk.s 			page 9


 221:Middlewares/lvgl/src/font/lv_font_loader.c ****     }
 222:Middlewares/lvgl/src/font/lv_font_loader.c ****     return value;
 217              		.loc 1 222 5 is_stmt 1 view .LVU63
 223:Middlewares/lvgl/src/font/lv_font_loader.c **** }
 218              		.loc 1 223 1 is_stmt 0 view .LVU64
 219 001c 10BD     		pop	{r4, pc}
 220              		.cfi_endproc
 221              	.LFE188:
 223              		.section	.text.load_cmaps_tables,"ax",%progbits
 224              		.align	1
 225              		.syntax unified
 226              		.thumb
 227              		.thumb_func
 228              		.fpu fpv4-sp-d16
 230              	load_cmaps_tables:
 231              	.LVL17:
 232              	.LFB190:
 224:Middlewares/lvgl/src/font/lv_font_loader.c **** 
 225:Middlewares/lvgl/src/font/lv_font_loader.c **** static int read_label(lv_fs_file_t * fp, int start, const char * label)
 226:Middlewares/lvgl/src/font/lv_font_loader.c **** {
 227:Middlewares/lvgl/src/font/lv_font_loader.c ****     lv_fs_seek(fp, start, LV_FS_SEEK_SET);
 228:Middlewares/lvgl/src/font/lv_font_loader.c **** 
 229:Middlewares/lvgl/src/font/lv_font_loader.c ****     uint32_t length;
 230:Middlewares/lvgl/src/font/lv_font_loader.c ****     char buf[4];
 231:Middlewares/lvgl/src/font/lv_font_loader.c **** 
 232:Middlewares/lvgl/src/font/lv_font_loader.c ****     if(lv_fs_read(fp, &length, 4, NULL) != LV_FS_RES_OK
 233:Middlewares/lvgl/src/font/lv_font_loader.c ****        || lv_fs_read(fp, buf, 4, NULL) != LV_FS_RES_OK
 234:Middlewares/lvgl/src/font/lv_font_loader.c ****        || memcmp(label, buf, 4) != 0) {
 235:Middlewares/lvgl/src/font/lv_font_loader.c ****         LV_LOG_WARN("Error reading '%s' label.", label);
 236:Middlewares/lvgl/src/font/lv_font_loader.c ****         return -1;
 237:Middlewares/lvgl/src/font/lv_font_loader.c ****     }
 238:Middlewares/lvgl/src/font/lv_font_loader.c **** 
 239:Middlewares/lvgl/src/font/lv_font_loader.c ****     return length;
 240:Middlewares/lvgl/src/font/lv_font_loader.c **** }
 241:Middlewares/lvgl/src/font/lv_font_loader.c **** 
 242:Middlewares/lvgl/src/font/lv_font_loader.c **** static bool load_cmaps_tables(lv_fs_file_t * fp, lv_font_fmt_txt_dsc_t * font_dsc,
 243:Middlewares/lvgl/src/font/lv_font_loader.c ****                               uint32_t cmaps_start, cmap_table_bin_t * cmap_table)
 244:Middlewares/lvgl/src/font/lv_font_loader.c **** {
 233              		.loc 1 244 1 is_stmt 1 view -0
 234              		.cfi_startproc
 235              		@ args = 0, pretend = 0, frame = 0
 236              		@ frame_needed = 0, uses_anonymous_args = 0
 237              		.loc 1 244 1 is_stmt 0 view .LVU66
 238 0000 2DE9F84F 		push	{r3, r4, r5, r6, r7, r8, r9, r10, fp, lr}
 239              	.LCFI2:
 240              		.cfi_def_cfa_offset 40
 241              		.cfi_offset 3, -40
 242              		.cfi_offset 4, -36
 243              		.cfi_offset 5, -32
 244              		.cfi_offset 6, -28
 245              		.cfi_offset 7, -24
 246              		.cfi_offset 8, -20
 247              		.cfi_offset 9, -16
 248              		.cfi_offset 10, -12
 249              		.cfi_offset 11, -8
 250              		.cfi_offset 14, -4
 251 0004 8146     		mov	r9, r0
ARM GAS  /tmp/cci3f8Hk.s 			page 10


 252 0006 0F46     		mov	r7, r1
 253 0008 9246     		mov	r10, r2
 254 000a 9846     		mov	r8, r3
 245:Middlewares/lvgl/src/font/lv_font_loader.c ****     if(lv_fs_read(fp, cmap_table, font_dsc->cmap_num * sizeof(cmap_table_bin_t), NULL) != LV_FS_RES
 255              		.loc 1 245 5 is_stmt 1 view .LVU67
 256              		.loc 1 245 43 is_stmt 0 view .LVU68
 257 000c 4A8A     		ldrh	r2, [r1, #18]
 258              	.LVL18:
 259              		.loc 1 245 43 view .LVU69
 260 000e C2F30802 		ubfx	r2, r2, #0, #9
 261              		.loc 1 245 8 view .LVU70
 262 0012 0023     		movs	r3, #0
 263              	.LVL19:
 264              		.loc 1 245 8 view .LVU71
 265 0014 1201     		lsls	r2, r2, #4
 266 0016 4146     		mov	r1, r8
 267              	.LVL20:
 268              		.loc 1 245 8 view .LVU72
 269 0018 FFF7FEFF 		bl	lv_fs_read
 270              	.LVL21:
 271              		.loc 1 245 7 view .LVU73
 272 001c 0028     		cmp	r0, #0
 273 001e 65D1     		bne	.L21
 274              	.LBB4:
 246:Middlewares/lvgl/src/font/lv_font_loader.c ****         return false;
 247:Middlewares/lvgl/src/font/lv_font_loader.c ****     }
 248:Middlewares/lvgl/src/font/lv_font_loader.c **** 
 249:Middlewares/lvgl/src/font/lv_font_loader.c ****     for(unsigned int i = 0; i < font_dsc->cmap_num; ++i) {
 275              		.loc 1 249 22 view .LVU74
 276 0020 0025     		movs	r5, #0
 277 0022 0FE0     		b	.L15
 278              	.LVL22:
 279              	.L19:
 280              	.LBB5:
 281              	.LBB6:
 250:Middlewares/lvgl/src/font/lv_font_loader.c ****         lv_fs_res_t res = lv_fs_seek(fp, cmaps_start + cmap_table[i].data_offset, LV_FS_SEEK_SET);
 251:Middlewares/lvgl/src/font/lv_font_loader.c ****         if(res != LV_FS_RES_OK) {
 252:Middlewares/lvgl/src/font/lv_font_loader.c ****             return false;
 253:Middlewares/lvgl/src/font/lv_font_loader.c ****         }
 254:Middlewares/lvgl/src/font/lv_font_loader.c **** 
 255:Middlewares/lvgl/src/font/lv_font_loader.c ****         lv_font_fmt_txt_cmap_t * cmap = (lv_font_fmt_txt_cmap_t *) & (font_dsc->cmaps[i]);
 256:Middlewares/lvgl/src/font/lv_font_loader.c **** 
 257:Middlewares/lvgl/src/font/lv_font_loader.c ****         cmap->range_start = cmap_table[i].range_start;
 258:Middlewares/lvgl/src/font/lv_font_loader.c ****         cmap->range_length = cmap_table[i].range_length;
 259:Middlewares/lvgl/src/font/lv_font_loader.c ****         cmap->glyph_id_start = cmap_table[i].glyph_id_start;
 260:Middlewares/lvgl/src/font/lv_font_loader.c ****         cmap->type = cmap_table[i].format_type;
 261:Middlewares/lvgl/src/font/lv_font_loader.c **** 
 262:Middlewares/lvgl/src/font/lv_font_loader.c ****         switch(cmap_table[i].format_type) {
 263:Middlewares/lvgl/src/font/lv_font_loader.c ****             case LV_FONT_FMT_TXT_CMAP_FORMAT0_FULL: {
 264:Middlewares/lvgl/src/font/lv_font_loader.c ****                     uint8_t ids_size = sizeof(uint8_t) * cmap_table[i].data_entries_count;
 282              		.loc 1 264 21 is_stmt 1 view .LVU75
 283              		.loc 1 264 29 is_stmt 0 view .LVU76
 284 0024 247B     		ldrb	r4, [r4, #12]	@ zero_extendqisi2
 285              	.LVL23:
 265:Middlewares/lvgl/src/font/lv_font_loader.c ****                     uint8_t * glyph_id_ofs_list = lv_mem_alloc(ids_size);
 286              		.loc 1 265 21 is_stmt 1 view .LVU77
 287              		.loc 1 265 51 is_stmt 0 view .LVU78
ARM GAS  /tmp/cci3f8Hk.s 			page 11


 288 0026 2046     		mov	r0, r4
 289              	.LVL24:
 290              		.loc 1 265 51 view .LVU79
 291 0028 FFF7FEFF 		bl	lv_mem_alloc
 292              	.LVL25:
 293 002c 0146     		mov	r1, r0
 294              	.LVL26:
 266:Middlewares/lvgl/src/font/lv_font_loader.c **** 
 267:Middlewares/lvgl/src/font/lv_font_loader.c ****                     cmap->glyph_id_ofs_list = glyph_id_ofs_list;
 295              		.loc 1 267 21 is_stmt 1 view .LVU80
 296              		.loc 1 267 45 is_stmt 0 view .LVU81
 297 002e F060     		str	r0, [r6, #12]
 268:Middlewares/lvgl/src/font/lv_font_loader.c **** 
 269:Middlewares/lvgl/src/font/lv_font_loader.c ****                     if(lv_fs_read(fp, glyph_id_ofs_list, ids_size, NULL) != LV_FS_RES_OK) {
 298              		.loc 1 269 21 is_stmt 1 view .LVU82
 299              		.loc 1 269 24 is_stmt 0 view .LVU83
 300 0030 0023     		movs	r3, #0
 301 0032 2246     		mov	r2, r4
 302 0034 4846     		mov	r0, r9
 303              	.LVL27:
 304              		.loc 1 269 24 view .LVU84
 305 0036 FFF7FEFF 		bl	lv_fs_read
 306              	.LVL28:
 307              		.loc 1 269 23 view .LVU85
 308 003a 0028     		cmp	r0, #0
 309 003c 5DD1     		bne	.L24
 270:Middlewares/lvgl/src/font/lv_font_loader.c ****                         return false;
 271:Middlewares/lvgl/src/font/lv_font_loader.c ****                     }
 272:Middlewares/lvgl/src/font/lv_font_loader.c **** 
 273:Middlewares/lvgl/src/font/lv_font_loader.c ****                     cmap->list_length = cmap->range_length;
 310              		.loc 1 273 21 is_stmt 1 view .LVU86
 311              		.loc 1 273 45 is_stmt 0 view .LVU87
 312 003e B388     		ldrh	r3, [r6, #4]
 313              		.loc 1 273 39 view .LVU88
 314 0040 3382     		strh	r3, [r6, #16]	@ movhi
 274:Middlewares/lvgl/src/font/lv_font_loader.c ****                     break;
 315              		.loc 1 274 21 is_stmt 1 view .LVU89
 316              	.LVL29:
 317              	.L18:
 318              		.loc 1 274 21 is_stmt 0 view .LVU90
 319              	.LBE6:
 320              	.LBE5:
 249:Middlewares/lvgl/src/font/lv_font_loader.c ****         lv_fs_res_t res = lv_fs_seek(fp, cmaps_start + cmap_table[i].data_offset, LV_FS_SEEK_SET);
 321              		.loc 1 249 53 is_stmt 1 discriminator 2 view .LVU91
 322 0042 0135     		adds	r5, r5, #1
 323              	.LVL30:
 324              	.L15:
 249:Middlewares/lvgl/src/font/lv_font_loader.c ****         lv_fs_res_t res = lv_fs_seek(fp, cmaps_start + cmap_table[i].data_offset, LV_FS_SEEK_SET);
 325              		.loc 1 249 29 discriminator 1 view .LVU92
 249:Middlewares/lvgl/src/font/lv_font_loader.c ****         lv_fs_res_t res = lv_fs_seek(fp, cmaps_start + cmap_table[i].data_offset, LV_FS_SEEK_SET);
 326              		.loc 1 249 41 is_stmt 0 discriminator 1 view .LVU93
 327 0044 7C8A     		ldrh	r4, [r7, #18]
 328 0046 C4F30804 		ubfx	r4, r4, #0, #9
 249:Middlewares/lvgl/src/font/lv_font_loader.c ****         lv_fs_res_t res = lv_fs_seek(fp, cmaps_start + cmap_table[i].data_offset, LV_FS_SEEK_SET);
 329              		.loc 1 249 5 discriminator 1 view .LVU94
 330 004a AC42     		cmp	r4, r5
 331 004c 4CD9     		bls	.L28
ARM GAS  /tmp/cci3f8Hk.s 			page 12


 332              	.LBB11:
 250:Middlewares/lvgl/src/font/lv_font_loader.c ****         if(res != LV_FS_RES_OK) {
 333              		.loc 1 250 9 is_stmt 1 view .LVU95
 250:Middlewares/lvgl/src/font/lv_font_loader.c ****         if(res != LV_FS_RES_OK) {
 334              		.loc 1 250 66 is_stmt 0 view .LVU96
 335 004e 2B01     		lsls	r3, r5, #4
 336 0050 08EB0514 		add	r4, r8, r5, lsl #4
 250:Middlewares/lvgl/src/font/lv_font_loader.c ****         if(res != LV_FS_RES_OK) {
 337              		.loc 1 250 69 view .LVU97
 338 0054 58F80310 		ldr	r1, [r8, r3]
 250:Middlewares/lvgl/src/font/lv_font_loader.c ****         if(res != LV_FS_RES_OK) {
 339              		.loc 1 250 27 view .LVU98
 340 0058 0022     		movs	r2, #0
 341 005a 5144     		add	r1, r1, r10
 342 005c 4846     		mov	r0, r9
 343 005e FFF7FEFF 		bl	lv_fs_seek
 344              	.LVL31:
 251:Middlewares/lvgl/src/font/lv_font_loader.c ****             return false;
 345              		.loc 1 251 9 is_stmt 1 view .LVU99
 251:Middlewares/lvgl/src/font/lv_font_loader.c ****             return false;
 346              		.loc 1 251 11 is_stmt 0 view .LVU100
 347 0062 0028     		cmp	r0, #0
 348 0064 45D1     		bne	.L22
 255:Middlewares/lvgl/src/font/lv_font_loader.c **** 
 349              		.loc 1 255 9 is_stmt 1 view .LVU101
 255:Middlewares/lvgl/src/font/lv_font_loader.c **** 
 350              		.loc 1 255 79 is_stmt 0 view .LVU102
 351 0066 BB68     		ldr	r3, [r7, #8]
 255:Middlewares/lvgl/src/font/lv_font_loader.c **** 
 352              		.loc 1 255 86 view .LVU103
 353 0068 05EB8502 		add	r2, r5, r5, lsl #2
 255:Middlewares/lvgl/src/font/lv_font_loader.c **** 
 354              		.loc 1 255 34 view .LVU104
 355 006c 03EB8206 		add	r6, r3, r2, lsl #2
 356              	.LVL32:
 257:Middlewares/lvgl/src/font/lv_font_loader.c ****         cmap->range_length = cmap_table[i].range_length;
 357              		.loc 1 257 9 is_stmt 1 view .LVU105
 257:Middlewares/lvgl/src/font/lv_font_loader.c ****         cmap->range_length = cmap_table[i].range_length;
 358              		.loc 1 257 42 is_stmt 0 view .LVU106
 359 0070 6168     		ldr	r1, [r4, #4]
 257:Middlewares/lvgl/src/font/lv_font_loader.c ****         cmap->range_length = cmap_table[i].range_length;
 360              		.loc 1 257 27 view .LVU107
 361 0072 43F82210 		str	r1, [r3, r2, lsl #2]
 258:Middlewares/lvgl/src/font/lv_font_loader.c ****         cmap->glyph_id_start = cmap_table[i].glyph_id_start;
 362              		.loc 1 258 9 is_stmt 1 view .LVU108
 258:Middlewares/lvgl/src/font/lv_font_loader.c ****         cmap->glyph_id_start = cmap_table[i].glyph_id_start;
 363              		.loc 1 258 43 is_stmt 0 view .LVU109
 364 0076 2389     		ldrh	r3, [r4, #8]
 258:Middlewares/lvgl/src/font/lv_font_loader.c ****         cmap->glyph_id_start = cmap_table[i].glyph_id_start;
 365              		.loc 1 258 28 view .LVU110
 366 0078 B380     		strh	r3, [r6, #4]	@ movhi
 259:Middlewares/lvgl/src/font/lv_font_loader.c ****         cmap->type = cmap_table[i].format_type;
 367              		.loc 1 259 9 is_stmt 1 view .LVU111
 259:Middlewares/lvgl/src/font/lv_font_loader.c ****         cmap->type = cmap_table[i].format_type;
 368              		.loc 1 259 45 is_stmt 0 view .LVU112
 369 007a 6389     		ldrh	r3, [r4, #10]
 259:Middlewares/lvgl/src/font/lv_font_loader.c ****         cmap->type = cmap_table[i].format_type;
ARM GAS  /tmp/cci3f8Hk.s 			page 13


 370              		.loc 1 259 30 view .LVU113
 371 007c F380     		strh	r3, [r6, #6]	@ movhi
 260:Middlewares/lvgl/src/font/lv_font_loader.c **** 
 372              		.loc 1 260 9 is_stmt 1 view .LVU114
 260:Middlewares/lvgl/src/font/lv_font_loader.c **** 
 373              		.loc 1 260 35 is_stmt 0 view .LVU115
 374 007e A37B     		ldrb	r3, [r4, #14]	@ zero_extendqisi2
 260:Middlewares/lvgl/src/font/lv_font_loader.c **** 
 375              		.loc 1 260 20 view .LVU116
 376 0080 B374     		strb	r3, [r6, #18]
 262:Middlewares/lvgl/src/font/lv_font_loader.c ****             case LV_FONT_FMT_TXT_CMAP_FORMAT0_FULL: {
 377              		.loc 1 262 9 is_stmt 1 view .LVU117
 262:Middlewares/lvgl/src/font/lv_font_loader.c ****             case LV_FONT_FMT_TXT_CMAP_FORMAT0_FULL: {
 378              		.loc 1 262 29 is_stmt 0 view .LVU118
 379 0082 A37B     		ldrb	r3, [r4, #14]	@ zero_extendqisi2
 380 0084 032B     		cmp	r3, #3
 381 0086 36D8     		bhi	.L23
 382 0088 01A2     		adr	r2, .L17
 383 008a 52F823F0 		ldr	pc, [r2, r3, lsl #2]
 384 008e 00BF     		.p2align 2
 385              	.L17:
 386 0090 25000000 		.word	.L19+1
 387 0094 A1000000 		.word	.L16+1
 388 0098 43000000 		.word	.L18+1
 389 009c A1000000 		.word	.L16+1
 390              		.p2align 1
 391              	.L16:
 392              	.LBB7:
 275:Middlewares/lvgl/src/font/lv_font_loader.c ****                 }
 276:Middlewares/lvgl/src/font/lv_font_loader.c ****             case LV_FONT_FMT_TXT_CMAP_FORMAT0_TINY:
 277:Middlewares/lvgl/src/font/lv_font_loader.c ****                 break;
 278:Middlewares/lvgl/src/font/lv_font_loader.c ****             case LV_FONT_FMT_TXT_CMAP_SPARSE_FULL:
 279:Middlewares/lvgl/src/font/lv_font_loader.c ****             case LV_FONT_FMT_TXT_CMAP_SPARSE_TINY: {
 280:Middlewares/lvgl/src/font/lv_font_loader.c ****                     uint32_t list_size = sizeof(uint16_t) * cmap_table[i].data_entries_count;
 393              		.loc 1 280 21 is_stmt 1 view .LVU119
 394              		.loc 1 280 74 is_stmt 0 view .LVU120
 395 00a0 B4F80CB0 		ldrh	fp, [r4, #12]
 396              		.loc 1 280 30 view .LVU121
 397 00a4 4FEA4B0B 		lsl	fp, fp, #1
 398              	.LVL33:
 281:Middlewares/lvgl/src/font/lv_font_loader.c ****                     uint16_t * unicode_list = (uint16_t *)lv_mem_alloc(list_size);
 399              		.loc 1 281 21 is_stmt 1 view .LVU122
 400              		.loc 1 281 59 is_stmt 0 view .LVU123
 401 00a8 5846     		mov	r0, fp
 402              	.LVL34:
 403              		.loc 1 281 59 view .LVU124
 404 00aa FFF7FEFF 		bl	lv_mem_alloc
 405              	.LVL35:
 406 00ae 0146     		mov	r1, r0
 407              	.LVL36:
 282:Middlewares/lvgl/src/font/lv_font_loader.c **** 
 283:Middlewares/lvgl/src/font/lv_font_loader.c ****                     cmap->unicode_list = unicode_list;
 408              		.loc 1 283 21 is_stmt 1 view .LVU125
 409              		.loc 1 283 40 is_stmt 0 view .LVU126
 410 00b0 B060     		str	r0, [r6, #8]
 284:Middlewares/lvgl/src/font/lv_font_loader.c ****                     cmap->list_length = cmap_table[i].data_entries_count;
 411              		.loc 1 284 21 is_stmt 1 view .LVU127
ARM GAS  /tmp/cci3f8Hk.s 			page 14


 412              		.loc 1 284 54 is_stmt 0 view .LVU128
 413 00b2 A389     		ldrh	r3, [r4, #12]
 414              		.loc 1 284 39 view .LVU129
 415 00b4 3382     		strh	r3, [r6, #16]	@ movhi
 285:Middlewares/lvgl/src/font/lv_font_loader.c **** 
 286:Middlewares/lvgl/src/font/lv_font_loader.c ****                     if(lv_fs_read(fp, unicode_list, list_size, NULL) != LV_FS_RES_OK) {
 416              		.loc 1 286 21 is_stmt 1 view .LVU130
 417              		.loc 1 286 24 is_stmt 0 view .LVU131
 418 00b6 0023     		movs	r3, #0
 419 00b8 5A46     		mov	r2, fp
 420 00ba 4846     		mov	r0, r9
 421              	.LVL37:
 422              		.loc 1 286 24 view .LVU132
 423 00bc FFF7FEFF 		bl	lv_fs_read
 424              	.LVL38:
 425              		.loc 1 286 23 view .LVU133
 426 00c0 E8B9     		cbnz	r0, .L25
 287:Middlewares/lvgl/src/font/lv_font_loader.c ****                         return false;
 288:Middlewares/lvgl/src/font/lv_font_loader.c ****                     }
 289:Middlewares/lvgl/src/font/lv_font_loader.c **** 
 290:Middlewares/lvgl/src/font/lv_font_loader.c ****                     if(cmap_table[i].format_type == LV_FONT_FMT_TXT_CMAP_SPARSE_FULL) {
 427              		.loc 1 290 21 is_stmt 1 view .LVU134
 428              		.loc 1 290 37 is_stmt 0 view .LVU135
 429 00c2 A37B     		ldrb	r3, [r4, #14]	@ zero_extendqisi2
 430              		.loc 1 290 23 view .LVU136
 431 00c4 012B     		cmp	r3, #1
 432 00c6 BCD1     		bne	.L18
 433              	.LBB8:
 291:Middlewares/lvgl/src/font/lv_font_loader.c ****                         uint16_t * buf = lv_mem_alloc(sizeof(uint16_t) * cmap->list_length);
 434              		.loc 1 291 25 is_stmt 1 view .LVU137
 435              		.loc 1 291 78 is_stmt 0 view .LVU138
 436 00c8 308A     		ldrh	r0, [r6, #16]
 437              		.loc 1 291 42 view .LVU139
 438 00ca 4000     		lsls	r0, r0, #1
 439 00cc FFF7FEFF 		bl	lv_mem_alloc
 440              	.LVL39:
 441 00d0 0146     		mov	r1, r0
 442              	.LVL40:
 292:Middlewares/lvgl/src/font/lv_font_loader.c **** 
 293:Middlewares/lvgl/src/font/lv_font_loader.c ****                         cmap->glyph_id_ofs_list = buf;
 443              		.loc 1 293 25 is_stmt 1 view .LVU140
 444              		.loc 1 293 49 is_stmt 0 view .LVU141
 445 00d2 F060     		str	r0, [r6, #12]
 294:Middlewares/lvgl/src/font/lv_font_loader.c **** 
 295:Middlewares/lvgl/src/font/lv_font_loader.c ****                         if(lv_fs_read(fp, buf, sizeof(uint16_t) * cmap->list_length, NULL) != LV_FS
 446              		.loc 1 295 25 is_stmt 1 view .LVU142
 447              		.loc 1 295 71 is_stmt 0 view .LVU143
 448 00d4 328A     		ldrh	r2, [r6, #16]
 449              		.loc 1 295 28 view .LVU144
 450 00d6 0023     		movs	r3, #0
 451 00d8 5200     		lsls	r2, r2, #1
 452 00da 4846     		mov	r0, r9
 453              	.LVL41:
 454              		.loc 1 295 28 view .LVU145
 455 00dc FFF7FEFF 		bl	lv_fs_read
 456              	.LVL42:
 457              		.loc 1 295 27 view .LVU146
ARM GAS  /tmp/cci3f8Hk.s 			page 15


 458 00e0 0028     		cmp	r0, #0
 459 00e2 AED0     		beq	.L18
 296:Middlewares/lvgl/src/font/lv_font_loader.c ****                             return false;
 460              		.loc 1 296 36 view .LVU147
 461 00e4 0020     		movs	r0, #0
 462 00e6 02E0     		b	.L14
 463              	.LVL43:
 464              	.L28:
 465              		.loc 1 296 36 view .LVU148
 466              	.LBE8:
 467              	.LBE7:
 468              	.LBE11:
 469              	.LBE4:
 297:Middlewares/lvgl/src/font/lv_font_loader.c ****                         }
 298:Middlewares/lvgl/src/font/lv_font_loader.c ****                     }
 299:Middlewares/lvgl/src/font/lv_font_loader.c ****                     break;
 300:Middlewares/lvgl/src/font/lv_font_loader.c ****                 }
 301:Middlewares/lvgl/src/font/lv_font_loader.c ****             default:
 302:Middlewares/lvgl/src/font/lv_font_loader.c ****                 LV_LOG_WARN("Unknown cmaps format type %d.", cmap_table[i].format_type);
 303:Middlewares/lvgl/src/font/lv_font_loader.c ****                 return false;
 304:Middlewares/lvgl/src/font/lv_font_loader.c ****         }
 305:Middlewares/lvgl/src/font/lv_font_loader.c ****     }
 306:Middlewares/lvgl/src/font/lv_font_loader.c ****     return true;
 470              		.loc 1 306 12 view .LVU149
 471 00e8 0120     		movs	r0, #1
 472              	.LBB13:
 473 00ea 00E0     		b	.L14
 474              	.LVL44:
 475              	.L21:
 476              		.loc 1 306 12 view .LVU150
 477              	.LBE13:
 246:Middlewares/lvgl/src/font/lv_font_loader.c ****     }
 478              		.loc 1 246 16 view .LVU151
 479 00ec 0020     		movs	r0, #0
 480              	.L14:
 307:Middlewares/lvgl/src/font/lv_font_loader.c **** }
 481              		.loc 1 307 1 view .LVU152
 482 00ee BDE8F88F 		pop	{r3, r4, r5, r6, r7, r8, r9, r10, fp, pc}
 483              	.LVL45:
 484              	.L22:
 485              	.LBB14:
 486              	.LBB12:
 252:Middlewares/lvgl/src/font/lv_font_loader.c ****         }
 487              		.loc 1 252 20 view .LVU153
 488 00f2 0020     		movs	r0, #0
 489              	.LVL46:
 252:Middlewares/lvgl/src/font/lv_font_loader.c ****         }
 490              		.loc 1 252 20 view .LVU154
 491 00f4 FBE7     		b	.L14
 492              	.LVL47:
 493              	.L23:
 262:Middlewares/lvgl/src/font/lv_font_loader.c ****             case LV_FONT_FMT_TXT_CMAP_FORMAT0_FULL: {
 494              		.loc 1 262 29 view .LVU155
 495 00f6 0020     		movs	r0, #0
 496              	.LVL48:
 262:Middlewares/lvgl/src/font/lv_font_loader.c ****             case LV_FONT_FMT_TXT_CMAP_FORMAT0_FULL: {
 497              		.loc 1 262 29 view .LVU156
ARM GAS  /tmp/cci3f8Hk.s 			page 16


 498 00f8 F9E7     		b	.L14
 499              	.LVL49:
 500              	.L24:
 501              	.LBB9:
 270:Middlewares/lvgl/src/font/lv_font_loader.c ****                     }
 502              		.loc 1 270 32 view .LVU157
 503 00fa 0020     		movs	r0, #0
 504 00fc F7E7     		b	.L14
 505              	.LVL50:
 506              	.L25:
 270:Middlewares/lvgl/src/font/lv_font_loader.c ****                     }
 507              		.loc 1 270 32 view .LVU158
 508              	.LBE9:
 509              	.LBB10:
 287:Middlewares/lvgl/src/font/lv_font_loader.c ****                     }
 510              		.loc 1 287 32 view .LVU159
 511 00fe 0020     		movs	r0, #0
 512 0100 F5E7     		b	.L14
 513              	.LBE10:
 514              	.LBE12:
 515              	.LBE14:
 516              		.cfi_endproc
 517              	.LFE190:
 519 0102 00BF     		.section	.text.read_label,"ax",%progbits
 520              		.align	1
 521              		.syntax unified
 522              		.thumb
 523              		.thumb_func
 524              		.fpu fpv4-sp-d16
 526              	read_label:
 527              	.LVL51:
 528              	.LFB189:
 226:Middlewares/lvgl/src/font/lv_font_loader.c ****     lv_fs_seek(fp, start, LV_FS_SEEK_SET);
 529              		.loc 1 226 1 is_stmt 1 view -0
 530              		.cfi_startproc
 531              		@ args = 0, pretend = 0, frame = 8
 532              		@ frame_needed = 0, uses_anonymous_args = 0
 226:Middlewares/lvgl/src/font/lv_font_loader.c ****     lv_fs_seek(fp, start, LV_FS_SEEK_SET);
 533              		.loc 1 226 1 is_stmt 0 view .LVU161
 534 0000 30B5     		push	{r4, r5, lr}
 535              	.LCFI3:
 536              		.cfi_def_cfa_offset 12
 537              		.cfi_offset 4, -12
 538              		.cfi_offset 5, -8
 539              		.cfi_offset 14, -4
 540 0002 83B0     		sub	sp, sp, #12
 541              	.LCFI4:
 542              		.cfi_def_cfa_offset 24
 543 0004 0446     		mov	r4, r0
 544 0006 1546     		mov	r5, r2
 227:Middlewares/lvgl/src/font/lv_font_loader.c **** 
 545              		.loc 1 227 5 is_stmt 1 view .LVU162
 546 0008 0022     		movs	r2, #0
 547              	.LVL52:
 227:Middlewares/lvgl/src/font/lv_font_loader.c **** 
 548              		.loc 1 227 5 is_stmt 0 view .LVU163
 549 000a FFF7FEFF 		bl	lv_fs_seek
ARM GAS  /tmp/cci3f8Hk.s 			page 17


 550              	.LVL53:
 229:Middlewares/lvgl/src/font/lv_font_loader.c ****     char buf[4];
 551              		.loc 1 229 5 is_stmt 1 view .LVU164
 230:Middlewares/lvgl/src/font/lv_font_loader.c **** 
 552              		.loc 1 230 5 view .LVU165
 232:Middlewares/lvgl/src/font/lv_font_loader.c ****        || lv_fs_read(fp, buf, 4, NULL) != LV_FS_RES_OK
 553              		.loc 1 232 5 view .LVU166
 232:Middlewares/lvgl/src/font/lv_font_loader.c ****        || lv_fs_read(fp, buf, 4, NULL) != LV_FS_RES_OK
 554              		.loc 1 232 8 is_stmt 0 view .LVU167
 555 000e 0023     		movs	r3, #0
 556 0010 0422     		movs	r2, #4
 557 0012 0DEB0201 		add	r1, sp, r2
 558 0016 2046     		mov	r0, r4
 559 0018 FFF7FEFF 		bl	lv_fs_read
 560              	.LVL54:
 232:Middlewares/lvgl/src/font/lv_font_loader.c ****        || lv_fs_read(fp, buf, 4, NULL) != LV_FS_RES_OK
 561              		.loc 1 232 7 view .LVU168
 562 001c 78B9     		cbnz	r0, .L30
 233:Middlewares/lvgl/src/font/lv_font_loader.c ****        || memcmp(label, buf, 4) != 0) {
 563              		.loc 1 233 11 view .LVU169
 564 001e 0023     		movs	r3, #0
 565 0020 0422     		movs	r2, #4
 566 0022 6946     		mov	r1, sp
 567 0024 2046     		mov	r0, r4
 568 0026 FFF7FEFF 		bl	lv_fs_read
 569              	.LVL55:
 233:Middlewares/lvgl/src/font/lv_font_loader.c ****        || memcmp(label, buf, 4) != 0) {
 570              		.loc 1 233 8 view .LVU170
 571 002a 40B9     		cbnz	r0, .L30
 234:Middlewares/lvgl/src/font/lv_font_loader.c ****         LV_LOG_WARN("Error reading '%s' label.", label);
 572              		.loc 1 234 11 view .LVU171
 573 002c 0422     		movs	r2, #4
 574 002e 6946     		mov	r1, sp
 575 0030 2846     		mov	r0, r5
 576 0032 FFF7FEFF 		bl	memcmp
 577              	.LVL56:
 234:Middlewares/lvgl/src/font/lv_font_loader.c ****         LV_LOG_WARN("Error reading '%s' label.", label);
 578              		.loc 1 234 8 view .LVU172
 579 0036 10B9     		cbnz	r0, .L30
 239:Middlewares/lvgl/src/font/lv_font_loader.c **** }
 580              		.loc 1 239 5 is_stmt 1 view .LVU173
 239:Middlewares/lvgl/src/font/lv_font_loader.c **** }
 581              		.loc 1 239 12 is_stmt 0 view .LVU174
 582 0038 0198     		ldr	r0, [sp, #4]
 583              	.L29:
 240:Middlewares/lvgl/src/font/lv_font_loader.c **** 
 584              		.loc 1 240 1 view .LVU175
 585 003a 03B0     		add	sp, sp, #12
 586              	.LCFI5:
 587              		.cfi_remember_state
 588              		.cfi_def_cfa_offset 12
 589              		@ sp needed
 590 003c 30BD     		pop	{r4, r5, pc}
 591              	.LVL57:
 592              	.L30:
 593              	.LCFI6:
 594              		.cfi_restore_state
ARM GAS  /tmp/cci3f8Hk.s 			page 18


 235:Middlewares/lvgl/src/font/lv_font_loader.c ****         return -1;
 595              		.loc 1 235 56 is_stmt 1 view .LVU176
 236:Middlewares/lvgl/src/font/lv_font_loader.c ****     }
 596              		.loc 1 236 9 view .LVU177
 236:Middlewares/lvgl/src/font/lv_font_loader.c ****     }
 597              		.loc 1 236 16 is_stmt 0 view .LVU178
 598 003e 4FF0FF30 		mov	r0, #-1
 599 0042 FAE7     		b	.L29
 600              		.cfi_endproc
 601              	.LFE189:
 603              		.section	.rodata.load_cmaps.str1.4,"aMS",%progbits,1
 604              		.align	2
 605              	.LC0:
 606 0000 636D6170 		.ascii	"cmap\000"
 606      00
 607              		.section	.text.load_cmaps,"ax",%progbits
 608              		.align	1
 609              		.syntax unified
 610              		.thumb
 611              		.thumb_func
 612              		.fpu fpv4-sp-d16
 614              	load_cmaps:
 615              	.LVL58:
 616              	.LFB191:
 308:Middlewares/lvgl/src/font/lv_font_loader.c **** 
 309:Middlewares/lvgl/src/font/lv_font_loader.c **** static int32_t load_cmaps(lv_fs_file_t * fp, lv_font_fmt_txt_dsc_t * font_dsc, uint32_t cmaps_start
 310:Middlewares/lvgl/src/font/lv_font_loader.c **** {
 617              		.loc 1 310 1 is_stmt 1 view -0
 618              		.cfi_startproc
 619              		@ args = 0, pretend = 0, frame = 8
 620              		@ frame_needed = 0, uses_anonymous_args = 0
 621              		.loc 1 310 1 is_stmt 0 view .LVU180
 622 0000 2DE9F041 		push	{r4, r5, r6, r7, r8, lr}
 623              	.LCFI7:
 624              		.cfi_def_cfa_offset 24
 625              		.cfi_offset 4, -24
 626              		.cfi_offset 5, -20
 627              		.cfi_offset 6, -16
 628              		.cfi_offset 7, -12
 629              		.cfi_offset 8, -8
 630              		.cfi_offset 14, -4
 631 0004 82B0     		sub	sp, sp, #8
 632              	.LCFI8:
 633              		.cfi_def_cfa_offset 32
 634 0006 0746     		mov	r7, r0
 635 0008 0C46     		mov	r4, r1
 636 000a 1646     		mov	r6, r2
 311:Middlewares/lvgl/src/font/lv_font_loader.c ****     int32_t cmaps_length = read_label(fp, cmaps_start, "cmap");
 637              		.loc 1 311 5 is_stmt 1 view .LVU181
 638              		.loc 1 311 28 is_stmt 0 view .LVU182
 639 000c 204A     		ldr	r2, .L41
 640              	.LVL59:
 641              		.loc 1 311 28 view .LVU183
 642 000e 3146     		mov	r1, r6
 643              	.LVL60:
 644              		.loc 1 311 28 view .LVU184
 645 0010 FFF7FEFF 		bl	read_label
ARM GAS  /tmp/cci3f8Hk.s 			page 19


 646              	.LVL61:
 312:Middlewares/lvgl/src/font/lv_font_loader.c ****     if(cmaps_length < 0) {
 647              		.loc 1 312 5 is_stmt 1 view .LVU185
 648              		.loc 1 312 7 is_stmt 0 view .LVU186
 649 0014 051E     		subs	r5, r0, #0
 650 0016 31DB     		blt	.L36
 313:Middlewares/lvgl/src/font/lv_font_loader.c ****         return -1;
 314:Middlewares/lvgl/src/font/lv_font_loader.c ****     }
 315:Middlewares/lvgl/src/font/lv_font_loader.c **** 
 316:Middlewares/lvgl/src/font/lv_font_loader.c ****     uint32_t cmaps_subtables_count;
 651              		.loc 1 316 5 is_stmt 1 view .LVU187
 317:Middlewares/lvgl/src/font/lv_font_loader.c ****     if(lv_fs_read(fp, &cmaps_subtables_count, sizeof(uint32_t), NULL) != LV_FS_RES_OK) {
 652              		.loc 1 317 5 view .LVU188
 653              		.loc 1 317 8 is_stmt 0 view .LVU189
 654 0018 0023     		movs	r3, #0
 655 001a 0422     		movs	r2, #4
 656 001c 0DEB0201 		add	r1, sp, r2
 657 0020 3846     		mov	r0, r7
 658              	.LVL62:
 659              		.loc 1 317 8 view .LVU190
 660 0022 FFF7FEFF 		bl	lv_fs_read
 661              	.LVL63:
 662              		.loc 1 317 7 view .LVU191
 663 0026 60BB     		cbnz	r0, .L37
 318:Middlewares/lvgl/src/font/lv_font_loader.c ****         return -1;
 319:Middlewares/lvgl/src/font/lv_font_loader.c ****     }
 320:Middlewares/lvgl/src/font/lv_font_loader.c **** 
 321:Middlewares/lvgl/src/font/lv_font_loader.c ****     lv_font_fmt_txt_cmap_t * cmaps =
 664              		.loc 1 321 5 is_stmt 1 view .LVU192
 322:Middlewares/lvgl/src/font/lv_font_loader.c ****         lv_mem_alloc(cmaps_subtables_count * sizeof(lv_font_fmt_txt_cmap_t));
 665              		.loc 1 322 9 is_stmt 0 view .LVU193
 666 0028 0198     		ldr	r0, [sp, #4]
 667              		.loc 1 322 44 view .LVU194
 668 002a 00EB8000 		add	r0, r0, r0, lsl #2
 669              		.loc 1 322 9 view .LVU195
 670 002e 8000     		lsls	r0, r0, #2
 671 0030 FFF7FEFF 		bl	lv_mem_alloc
 672              	.LVL64:
 673 0034 8046     		mov	r8, r0
 674              	.LVL65:
 323:Middlewares/lvgl/src/font/lv_font_loader.c **** 
 324:Middlewares/lvgl/src/font/lv_font_loader.c ****     memset(cmaps, 0, cmaps_subtables_count * sizeof(lv_font_fmt_txt_cmap_t));
 675              		.loc 1 324 5 is_stmt 1 view .LVU196
 676 0036 019A     		ldr	r2, [sp, #4]
 677              		.loc 1 324 44 is_stmt 0 view .LVU197
 678 0038 02EB8202 		add	r2, r2, r2, lsl #2
 679              		.loc 1 324 5 view .LVU198
 680 003c 9200     		lsls	r2, r2, #2
 681 003e 0021     		movs	r1, #0
 682 0040 FFF7FEFF 		bl	memset
 683              	.LVL66:
 325:Middlewares/lvgl/src/font/lv_font_loader.c **** 
 326:Middlewares/lvgl/src/font/lv_font_loader.c ****     font_dsc->cmaps = cmaps;
 684              		.loc 1 326 5 is_stmt 1 view .LVU199
 685              		.loc 1 326 21 is_stmt 0 view .LVU200
 686 0044 C4F80880 		str	r8, [r4, #8]
 327:Middlewares/lvgl/src/font/lv_font_loader.c ****     font_dsc->cmap_num = cmaps_subtables_count;
ARM GAS  /tmp/cci3f8Hk.s 			page 20


 687              		.loc 1 327 5 is_stmt 1 view .LVU201
 688              		.loc 1 327 24 is_stmt 0 view .LVU202
 689 0048 0198     		ldr	r0, [sp, #4]
 690 004a C0F30800 		ubfx	r0, r0, #0, #9
 691 004e 638A     		ldrh	r3, [r4, #18]
 692 0050 60F30803 		bfi	r3, r0, #0, #9
 693 0054 6382     		strh	r3, [r4, #18]	@ movhi
 328:Middlewares/lvgl/src/font/lv_font_loader.c **** 
 329:Middlewares/lvgl/src/font/lv_font_loader.c ****     cmap_table_bin_t * cmaps_tables = lv_mem_alloc(sizeof(cmap_table_bin_t) * font_dsc->cmap_num);
 694              		.loc 1 329 5 is_stmt 1 view .LVU203
 695              		.loc 1 329 39 is_stmt 0 view .LVU204
 696 0056 0001     		lsls	r0, r0, #4
 697 0058 FFF7FEFF 		bl	lv_mem_alloc
 698              	.LVL67:
 699 005c 8046     		mov	r8, r0
 700              	.LVL68:
 330:Middlewares/lvgl/src/font/lv_font_loader.c **** 
 331:Middlewares/lvgl/src/font/lv_font_loader.c ****     bool success = load_cmaps_tables(fp, font_dsc, cmaps_start, cmaps_tables);
 701              		.loc 1 331 5 is_stmt 1 view .LVU205
 702              		.loc 1 331 20 is_stmt 0 view .LVU206
 703 005e 0346     		mov	r3, r0
 704 0060 3246     		mov	r2, r6
 705 0062 2146     		mov	r1, r4
 706 0064 3846     		mov	r0, r7
 707              	.LVL69:
 708              		.loc 1 331 20 view .LVU207
 709 0066 FFF7FEFF 		bl	load_cmaps_tables
 710              	.LVL70:
 711              		.loc 1 331 20 view .LVU208
 712 006a 0446     		mov	r4, r0
 713              	.LVL71:
 332:Middlewares/lvgl/src/font/lv_font_loader.c **** 
 333:Middlewares/lvgl/src/font/lv_font_loader.c ****     lv_mem_free(cmaps_tables);
 714              		.loc 1 333 5 is_stmt 1 view .LVU209
 715 006c 4046     		mov	r0, r8
 716 006e FFF7FEFF 		bl	lv_mem_free
 717              	.LVL72:
 334:Middlewares/lvgl/src/font/lv_font_loader.c **** 
 335:Middlewares/lvgl/src/font/lv_font_loader.c ****     return success ? cmaps_length : -1;
 718              		.loc 1 335 5 view .LVU210
 719              		.loc 1 335 35 is_stmt 0 view .LVU211
 720 0072 4CB1     		cbz	r4, .L40
 721              	.LVL73:
 722              	.L34:
 336:Middlewares/lvgl/src/font/lv_font_loader.c **** }
 723              		.loc 1 336 1 view .LVU212
 724 0074 2846     		mov	r0, r5
 725 0076 02B0     		add	sp, sp, #8
 726              	.LCFI9:
 727              		.cfi_remember_state
 728              		.cfi_def_cfa_offset 24
 729              		@ sp needed
 730 0078 BDE8F081 		pop	{r4, r5, r6, r7, r8, pc}
 731              	.LVL74:
 732              	.L36:
 733              	.LCFI10:
 734              		.cfi_restore_state
ARM GAS  /tmp/cci3f8Hk.s 			page 21


 313:Middlewares/lvgl/src/font/lv_font_loader.c ****     }
 735              		.loc 1 313 16 view .LVU213
 736 007c 4FF0FF35 		mov	r5, #-1
 737 0080 F8E7     		b	.L34
 738              	.LVL75:
 739              	.L37:
 318:Middlewares/lvgl/src/font/lv_font_loader.c ****     }
 740              		.loc 1 318 16 view .LVU214
 741 0082 4FF0FF35 		mov	r5, #-1
 742              	.LVL76:
 318:Middlewares/lvgl/src/font/lv_font_loader.c ****     }
 743              		.loc 1 318 16 view .LVU215
 744 0086 F5E7     		b	.L34
 745              	.LVL77:
 746              	.L40:
 335:Middlewares/lvgl/src/font/lv_font_loader.c **** }
 747              		.loc 1 335 35 view .LVU216
 748 0088 4FF0FF35 		mov	r5, #-1
 749              	.LVL78:
 335:Middlewares/lvgl/src/font/lv_font_loader.c **** }
 750              		.loc 1 335 35 view .LVU217
 751 008c F2E7     		b	.L34
 752              	.L42:
 753 008e 00BF     		.align	2
 754              	.L41:
 755 0090 00000000 		.word	.LC0
 756              		.cfi_endproc
 757              	.LFE191:
 759              		.section	.rodata.load_glyph.str1.4,"aMS",%progbits,1
 760              		.align	2
 761              	.LC1:
 762 0000 676C7966 		.ascii	"glyf\000"
 762      00
 763              		.section	.text.load_glyph,"ax",%progbits
 764              		.align	1
 765              		.syntax unified
 766              		.thumb
 767              		.thumb_func
 768              		.fpu fpv4-sp-d16
 770              	load_glyph:
 771              	.LVL79:
 772              	.LFB192:
 337:Middlewares/lvgl/src/font/lv_font_loader.c **** 
 338:Middlewares/lvgl/src/font/lv_font_loader.c **** static int32_t load_glyph(lv_fs_file_t * fp, lv_font_fmt_txt_dsc_t * font_dsc,
 339:Middlewares/lvgl/src/font/lv_font_loader.c ****                           uint32_t start, uint32_t * glyph_offset, uint32_t loca_count, font_header
 340:Middlewares/lvgl/src/font/lv_font_loader.c **** {
 773              		.loc 1 340 1 is_stmt 1 view -0
 774              		.cfi_startproc
 775              		@ args = 8, pretend = 0, frame = 32
 776              		@ frame_needed = 0, uses_anonymous_args = 0
 777              		.loc 1 340 1 is_stmt 0 view .LVU219
 778 0000 2DE9F04F 		push	{r4, r5, r6, r7, r8, r9, r10, fp, lr}
 779              	.LCFI11:
 780              		.cfi_def_cfa_offset 36
 781              		.cfi_offset 4, -36
 782              		.cfi_offset 5, -32
 783              		.cfi_offset 6, -28
ARM GAS  /tmp/cci3f8Hk.s 			page 22


 784              		.cfi_offset 7, -24
 785              		.cfi_offset 8, -20
 786              		.cfi_offset 9, -16
 787              		.cfi_offset 10, -12
 788              		.cfi_offset 11, -8
 789              		.cfi_offset 14, -4
 790 0004 89B0     		sub	sp, sp, #36
 791              	.LCFI12:
 792              		.cfi_def_cfa_offset 72
 793 0006 0090     		str	r0, [sp]
 794 0008 0E46     		mov	r6, r1
 795 000a 0391     		str	r1, [sp, #12]
 796 000c 1146     		mov	r1, r2
 797              	.LVL80:
 798              		.loc 1 340 1 view .LVU220
 799 000e 0192     		str	r2, [sp, #4]
 800 0010 9846     		mov	r8, r3
 801 0012 139D     		ldr	r5, [sp, #76]
 341:Middlewares/lvgl/src/font/lv_font_loader.c ****     int32_t glyph_length = read_label(fp, start, "glyf");
 802              		.loc 1 341 5 is_stmt 1 view .LVU221
 803              		.loc 1 341 28 is_stmt 0 view .LVU222
 804 0014 A04A     		ldr	r2, .L73
 805              	.LVL81:
 806              		.loc 1 341 28 view .LVU223
 807 0016 FFF7FEFF 		bl	read_label
 808              	.LVL82:
 342:Middlewares/lvgl/src/font/lv_font_loader.c ****     if(glyph_length < 0) {
 809              		.loc 1 342 5 is_stmt 1 view .LVU224
 810              		.loc 1 342 7 is_stmt 0 view .LVU225
 811 001a 031E     		subs	r3, r0, #0
 812 001c 0293     		str	r3, [sp, #8]
 813 001e C0F23681 		blt	.L65
 343:Middlewares/lvgl/src/font/lv_font_loader.c ****         return -1;
 344:Middlewares/lvgl/src/font/lv_font_loader.c ****     }
 345:Middlewares/lvgl/src/font/lv_font_loader.c **** 
 346:Middlewares/lvgl/src/font/lv_font_loader.c ****     lv_font_fmt_txt_glyph_dsc_t * glyph_dsc = (lv_font_fmt_txt_glyph_dsc_t *)
 814              		.loc 1 346 5 is_stmt 1 view .LVU226
 347:Middlewares/lvgl/src/font/lv_font_loader.c ****                                               lv_mem_alloc(loca_count * sizeof(lv_font_fmt_txt_glyp
 815              		.loc 1 347 71 is_stmt 0 view .LVU227
 816 0022 129B     		ldr	r3, [sp, #72]
 817 0024 DC00     		lsls	r4, r3, #3
 818              		.loc 1 347 47 view .LVU228
 819 0026 2046     		mov	r0, r4
 820              	.LVL83:
 821              		.loc 1 347 47 view .LVU229
 822 0028 FFF7FEFF 		bl	lv_mem_alloc
 823              	.LVL84:
 824 002c 0746     		mov	r7, r0
 825              	.LVL85:
 348:Middlewares/lvgl/src/font/lv_font_loader.c **** 
 349:Middlewares/lvgl/src/font/lv_font_loader.c ****     memset(glyph_dsc, 0, loca_count * sizeof(lv_font_fmt_txt_glyph_dsc_t));
 826              		.loc 1 349 5 is_stmt 1 view .LVU230
 827 002e 2246     		mov	r2, r4
 828 0030 0021     		movs	r1, #0
 829 0032 FFF7FEFF 		bl	memset
 830              	.LVL86:
 350:Middlewares/lvgl/src/font/lv_font_loader.c **** 
ARM GAS  /tmp/cci3f8Hk.s 			page 23


 351:Middlewares/lvgl/src/font/lv_font_loader.c ****     font_dsc->glyph_dsc = glyph_dsc;
 831              		.loc 1 351 5 view .LVU231
 832              		.loc 1 351 25 is_stmt 0 view .LVU232
 833 0036 7760     		str	r7, [r6, #4]
 352:Middlewares/lvgl/src/font/lv_font_loader.c **** 
 353:Middlewares/lvgl/src/font/lv_font_loader.c ****     int cur_bmp_size = 0;
 834              		.loc 1 353 5 is_stmt 1 view .LVU233
 835              	.LVL87:
 354:Middlewares/lvgl/src/font/lv_font_loader.c **** 
 355:Middlewares/lvgl/src/font/lv_font_loader.c ****     for(unsigned int i = 0; i < loca_count; ++i) {
 836              		.loc 1 355 5 view .LVU234
 837              	.LBB15:
 838              		.loc 1 355 9 view .LVU235
 839              		.loc 1 355 22 is_stmt 0 view .LVU236
 840 0038 0026     		movs	r6, #0
 841              	.LVL88:
 842              		.loc 1 355 22 view .LVU237
 843              	.LBE15:
 353:Middlewares/lvgl/src/font/lv_font_loader.c **** 
 844              		.loc 1 353 9 view .LVU238
 845 003a B246     		mov	r10, r6
 846              	.LBB19:
 847              		.loc 1 355 5 view .LVU239
 848 003c 20E0     		b	.L45
 849              	.LVL89:
 850              	.L47:
 851              	.LBB16:
 356:Middlewares/lvgl/src/font/lv_font_loader.c ****         lv_font_fmt_txt_glyph_dsc_t * gdsc = &glyph_dsc[i];
 357:Middlewares/lvgl/src/font/lv_font_loader.c **** 
 358:Middlewares/lvgl/src/font/lv_font_loader.c ****         lv_fs_res_t res = lv_fs_seek(fp, start + glyph_offset[i], LV_FS_SEEK_SET);
 359:Middlewares/lvgl/src/font/lv_font_loader.c ****         if(res != LV_FS_RES_OK) {
 360:Middlewares/lvgl/src/font/lv_font_loader.c ****             return -1;
 361:Middlewares/lvgl/src/font/lv_font_loader.c ****         }
 362:Middlewares/lvgl/src/font/lv_font_loader.c **** 
 363:Middlewares/lvgl/src/font/lv_font_loader.c ****         bit_iterator_t bit_it = init_bit_iterator(fp);
 364:Middlewares/lvgl/src/font/lv_font_loader.c **** 
 365:Middlewares/lvgl/src/font/lv_font_loader.c ****         if(header->advance_width_bits == 0) {
 366:Middlewares/lvgl/src/font/lv_font_loader.c ****             gdsc->adv_w = header->default_advance_width;
 367:Middlewares/lvgl/src/font/lv_font_loader.c ****         }
 368:Middlewares/lvgl/src/font/lv_font_loader.c ****         else {
 369:Middlewares/lvgl/src/font/lv_font_loader.c ****             gdsc->adv_w = read_bits(&bit_it, header->advance_width_bits, &res);
 852              		.loc 1 369 13 is_stmt 1 view .LVU240
 853              		.loc 1 369 27 is_stmt 0 view .LVU241
 854 003e 0DF11702 		add	r2, sp, #23
 855 0042 06A8     		add	r0, sp, #24
 856 0044 FFF7FEFF 		bl	read_bits
 857              	.LVL90:
 858              		.loc 1 369 25 view .LVU242
 859 0048 6388     		ldrh	r3, [r4, #2]
 860 004a 60F30F13 		bfi	r3, r0, #4, #12
 861 004e 6380     		strh	r3, [r4, #2]	@ movhi
 370:Middlewares/lvgl/src/font/lv_font_loader.c ****             if(res != LV_FS_RES_OK) {
 862              		.loc 1 370 13 is_stmt 1 view .LVU243
 863              		.loc 1 370 20 is_stmt 0 view .LVU244
 864 0050 9DF81730 		ldrb	r3, [sp, #23]	@ zero_extendqisi2
 865              		.loc 1 370 15 view .LVU245
 866 0054 002B     		cmp	r3, #0
ARM GAS  /tmp/cci3f8Hk.s 			page 24


 867 0056 35D0     		beq	.L48
 868              	.L46:
 360:Middlewares/lvgl/src/font/lv_font_loader.c ****         }
 869              		.loc 1 360 20 discriminator 1 view .LVU246
 870 0058 4FF0FF33 		mov	r3, #-1
 871 005c 0293     		str	r3, [sp, #8]
 872              	.LVL91:
 873              	.L43:
 360:Middlewares/lvgl/src/font/lv_font_loader.c ****         }
 874              		.loc 1 360 20 discriminator 1 view .LVU247
 875              	.LBE16:
 876              	.LBE19:
 371:Middlewares/lvgl/src/font/lv_font_loader.c ****                 return -1;
 372:Middlewares/lvgl/src/font/lv_font_loader.c ****             }
 373:Middlewares/lvgl/src/font/lv_font_loader.c ****         }
 374:Middlewares/lvgl/src/font/lv_font_loader.c **** 
 375:Middlewares/lvgl/src/font/lv_font_loader.c ****         if(header->advance_width_format == 0) {
 376:Middlewares/lvgl/src/font/lv_font_loader.c ****             gdsc->adv_w *= 16;
 377:Middlewares/lvgl/src/font/lv_font_loader.c ****         }
 378:Middlewares/lvgl/src/font/lv_font_loader.c **** 
 379:Middlewares/lvgl/src/font/lv_font_loader.c ****         gdsc->ofs_x = read_bits_signed(&bit_it, header->xy_bits, &res);
 380:Middlewares/lvgl/src/font/lv_font_loader.c ****         if(res != LV_FS_RES_OK) {
 381:Middlewares/lvgl/src/font/lv_font_loader.c ****             return -1;
 382:Middlewares/lvgl/src/font/lv_font_loader.c ****         }
 383:Middlewares/lvgl/src/font/lv_font_loader.c **** 
 384:Middlewares/lvgl/src/font/lv_font_loader.c ****         gdsc->ofs_y = read_bits_signed(&bit_it, header->xy_bits, &res);
 385:Middlewares/lvgl/src/font/lv_font_loader.c ****         if(res != LV_FS_RES_OK) {
 386:Middlewares/lvgl/src/font/lv_font_loader.c ****             return -1;
 387:Middlewares/lvgl/src/font/lv_font_loader.c ****         }
 388:Middlewares/lvgl/src/font/lv_font_loader.c **** 
 389:Middlewares/lvgl/src/font/lv_font_loader.c ****         gdsc->box_w = read_bits(&bit_it, header->wh_bits, &res);
 390:Middlewares/lvgl/src/font/lv_font_loader.c ****         if(res != LV_FS_RES_OK) {
 391:Middlewares/lvgl/src/font/lv_font_loader.c ****             return -1;
 392:Middlewares/lvgl/src/font/lv_font_loader.c ****         }
 393:Middlewares/lvgl/src/font/lv_font_loader.c **** 
 394:Middlewares/lvgl/src/font/lv_font_loader.c ****         gdsc->box_h = read_bits(&bit_it, header->wh_bits, &res);
 395:Middlewares/lvgl/src/font/lv_font_loader.c ****         if(res != LV_FS_RES_OK) {
 396:Middlewares/lvgl/src/font/lv_font_loader.c ****             return -1;
 397:Middlewares/lvgl/src/font/lv_font_loader.c ****         }
 398:Middlewares/lvgl/src/font/lv_font_loader.c **** 
 399:Middlewares/lvgl/src/font/lv_font_loader.c ****         int nbits = header->advance_width_bits + 2 * header->xy_bits + 2 * header->wh_bits;
 400:Middlewares/lvgl/src/font/lv_font_loader.c ****         int next_offset = (i < loca_count - 1) ? glyph_offset[i + 1] : (uint32_t)glyph_length;
 401:Middlewares/lvgl/src/font/lv_font_loader.c ****         int bmp_size = next_offset - glyph_offset[i] - nbits / 8;
 402:Middlewares/lvgl/src/font/lv_font_loader.c **** 
 403:Middlewares/lvgl/src/font/lv_font_loader.c ****         if(i == 0) {
 404:Middlewares/lvgl/src/font/lv_font_loader.c ****             gdsc->adv_w = 0;
 405:Middlewares/lvgl/src/font/lv_font_loader.c ****             gdsc->box_w = 0;
 406:Middlewares/lvgl/src/font/lv_font_loader.c ****             gdsc->box_h = 0;
 407:Middlewares/lvgl/src/font/lv_font_loader.c ****             gdsc->ofs_x = 0;
 408:Middlewares/lvgl/src/font/lv_font_loader.c ****             gdsc->ofs_y = 0;
 409:Middlewares/lvgl/src/font/lv_font_loader.c ****         }
 410:Middlewares/lvgl/src/font/lv_font_loader.c **** 
 411:Middlewares/lvgl/src/font/lv_font_loader.c ****         gdsc->bitmap_index = cur_bmp_size;
 412:Middlewares/lvgl/src/font/lv_font_loader.c ****         if(gdsc->box_w * gdsc->box_h != 0) {
 413:Middlewares/lvgl/src/font/lv_font_loader.c ****             cur_bmp_size += bmp_size;
 414:Middlewares/lvgl/src/font/lv_font_loader.c ****         }
 415:Middlewares/lvgl/src/font/lv_font_loader.c ****     }
ARM GAS  /tmp/cci3f8Hk.s 			page 25


 416:Middlewares/lvgl/src/font/lv_font_loader.c **** 
 417:Middlewares/lvgl/src/font/lv_font_loader.c ****     uint8_t * glyph_bmp = (uint8_t *)lv_mem_alloc(sizeof(uint8_t) * cur_bmp_size);
 418:Middlewares/lvgl/src/font/lv_font_loader.c **** 
 419:Middlewares/lvgl/src/font/lv_font_loader.c ****     font_dsc->glyph_bitmap = glyph_bmp;
 420:Middlewares/lvgl/src/font/lv_font_loader.c **** 
 421:Middlewares/lvgl/src/font/lv_font_loader.c ****     cur_bmp_size = 0;
 422:Middlewares/lvgl/src/font/lv_font_loader.c **** 
 423:Middlewares/lvgl/src/font/lv_font_loader.c ****     for(unsigned int i = 1; i < loca_count; ++i) {
 424:Middlewares/lvgl/src/font/lv_font_loader.c ****         lv_fs_res_t res = lv_fs_seek(fp, start + glyph_offset[i], LV_FS_SEEK_SET);
 425:Middlewares/lvgl/src/font/lv_font_loader.c ****         if(res != LV_FS_RES_OK) {
 426:Middlewares/lvgl/src/font/lv_font_loader.c ****             return -1;
 427:Middlewares/lvgl/src/font/lv_font_loader.c ****         }
 428:Middlewares/lvgl/src/font/lv_font_loader.c ****         bit_iterator_t bit_it = init_bit_iterator(fp);
 429:Middlewares/lvgl/src/font/lv_font_loader.c **** 
 430:Middlewares/lvgl/src/font/lv_font_loader.c ****         int nbits = header->advance_width_bits + 2 * header->xy_bits + 2 * header->wh_bits;
 431:Middlewares/lvgl/src/font/lv_font_loader.c **** 
 432:Middlewares/lvgl/src/font/lv_font_loader.c ****         read_bits(&bit_it, nbits, &res);
 433:Middlewares/lvgl/src/font/lv_font_loader.c ****         if(res != LV_FS_RES_OK) {
 434:Middlewares/lvgl/src/font/lv_font_loader.c ****             return -1;
 435:Middlewares/lvgl/src/font/lv_font_loader.c ****         }
 436:Middlewares/lvgl/src/font/lv_font_loader.c **** 
 437:Middlewares/lvgl/src/font/lv_font_loader.c ****         if(glyph_dsc[i].box_w * glyph_dsc[i].box_h == 0) {
 438:Middlewares/lvgl/src/font/lv_font_loader.c ****             continue;
 439:Middlewares/lvgl/src/font/lv_font_loader.c ****         }
 440:Middlewares/lvgl/src/font/lv_font_loader.c **** 
 441:Middlewares/lvgl/src/font/lv_font_loader.c ****         int next_offset = (i < loca_count - 1) ? glyph_offset[i + 1] : (uint32_t)glyph_length;
 442:Middlewares/lvgl/src/font/lv_font_loader.c ****         int bmp_size = next_offset - glyph_offset[i] - nbits / 8;
 443:Middlewares/lvgl/src/font/lv_font_loader.c **** 
 444:Middlewares/lvgl/src/font/lv_font_loader.c ****         if(nbits % 8 == 0) {  /*Fast path*/
 445:Middlewares/lvgl/src/font/lv_font_loader.c ****             if(lv_fs_read(fp, &glyph_bmp[cur_bmp_size], bmp_size, NULL) != LV_FS_RES_OK) {
 446:Middlewares/lvgl/src/font/lv_font_loader.c ****                 return -1;
 447:Middlewares/lvgl/src/font/lv_font_loader.c ****             }
 448:Middlewares/lvgl/src/font/lv_font_loader.c ****         }
 449:Middlewares/lvgl/src/font/lv_font_loader.c ****         else {
 450:Middlewares/lvgl/src/font/lv_font_loader.c ****             for(int k = 0; k < bmp_size - 1; ++k) {
 451:Middlewares/lvgl/src/font/lv_font_loader.c ****                 glyph_bmp[cur_bmp_size + k] = read_bits(&bit_it, 8, &res);
 452:Middlewares/lvgl/src/font/lv_font_loader.c ****                 if(res != LV_FS_RES_OK) {
 453:Middlewares/lvgl/src/font/lv_font_loader.c ****                     return -1;
 454:Middlewares/lvgl/src/font/lv_font_loader.c ****                 }
 455:Middlewares/lvgl/src/font/lv_font_loader.c ****             }
 456:Middlewares/lvgl/src/font/lv_font_loader.c ****             glyph_bmp[cur_bmp_size + bmp_size - 1] = read_bits(&bit_it, 8 - nbits % 8, &res);
 457:Middlewares/lvgl/src/font/lv_font_loader.c ****             if(res != LV_FS_RES_OK) {
 458:Middlewares/lvgl/src/font/lv_font_loader.c ****                 return -1;
 459:Middlewares/lvgl/src/font/lv_font_loader.c ****             }
 460:Middlewares/lvgl/src/font/lv_font_loader.c ****         }
 461:Middlewares/lvgl/src/font/lv_font_loader.c **** 
 462:Middlewares/lvgl/src/font/lv_font_loader.c ****         cur_bmp_size += bmp_size;
 463:Middlewares/lvgl/src/font/lv_font_loader.c ****     }
 464:Middlewares/lvgl/src/font/lv_font_loader.c ****     return glyph_length;
 465:Middlewares/lvgl/src/font/lv_font_loader.c **** }
 877              		.loc 1 465 1 view .LVU248
 878 005e 0298     		ldr	r0, [sp, #8]
 879 0060 09B0     		add	sp, sp, #36
 880              	.LCFI13:
 881              		.cfi_remember_state
 882              		.cfi_def_cfa_offset 36
 883              		@ sp needed
ARM GAS  /tmp/cci3f8Hk.s 			page 26


 884 0062 BDE8F08F 		pop	{r4, r5, r6, r7, r8, r9, r10, fp, pc}
 885              	.LVL92:
 886              	.L66:
 887              	.LCFI14:
 888              		.cfi_restore_state
 889              	.LBB20:
 890              	.LBB17:
 400:Middlewares/lvgl/src/font/lv_font_loader.c ****         int bmp_size = next_offset - glyph_offset[i] - nbits / 8;
 891              		.loc 1 400 70 view .LVU249
 892 0066 029A     		ldr	r2, [sp, #8]
 893 0068 72E0     		b	.L50
 894              	.LVL93:
 895              	.L71:
 404:Middlewares/lvgl/src/font/lv_font_loader.c ****             gdsc->box_w = 0;
 896              		.loc 1 404 13 is_stmt 1 view .LVU250
 404:Middlewares/lvgl/src/font/lv_font_loader.c ****             gdsc->box_w = 0;
 897              		.loc 1 404 25 is_stmt 0 view .LVU251
 898 006a 6288     		ldrh	r2, [r4, #2]
 899 006c 6FF30F12 		bfc	r2, #4, #12
 900 0070 6280     		strh	r2, [r4, #2]	@ movhi
 901              	.LVL94:
 405:Middlewares/lvgl/src/font/lv_font_loader.c ****             gdsc->box_h = 0;
 902              		.loc 1 405 13 is_stmt 1 view .LVU252
 405:Middlewares/lvgl/src/font/lv_font_loader.c ****             gdsc->box_h = 0;
 903              		.loc 1 405 25 is_stmt 0 view .LVU253
 904 0072 0022     		movs	r2, #0
 905 0074 2271     		strb	r2, [r4, #4]
 406:Middlewares/lvgl/src/font/lv_font_loader.c ****             gdsc->ofs_x = 0;
 906              		.loc 1 406 13 is_stmt 1 view .LVU254
 406:Middlewares/lvgl/src/font/lv_font_loader.c ****             gdsc->ofs_x = 0;
 907              		.loc 1 406 25 is_stmt 0 view .LVU255
 908 0076 6271     		strb	r2, [r4, #5]
 407:Middlewares/lvgl/src/font/lv_font_loader.c ****             gdsc->ofs_y = 0;
 909              		.loc 1 407 13 is_stmt 1 view .LVU256
 407:Middlewares/lvgl/src/font/lv_font_loader.c ****             gdsc->ofs_y = 0;
 910              		.loc 1 407 25 is_stmt 0 view .LVU257
 911 0078 A271     		strb	r2, [r4, #6]
 408:Middlewares/lvgl/src/font/lv_font_loader.c ****         }
 912              		.loc 1 408 13 is_stmt 1 view .LVU258
 408:Middlewares/lvgl/src/font/lv_font_loader.c ****         }
 913              		.loc 1 408 25 is_stmt 0 view .LVU259
 914 007a E271     		strb	r2, [r4, #7]
 915 007c 6FE0     		b	.L52
 916              	.LVL95:
 917              	.L53:
 408:Middlewares/lvgl/src/font/lv_font_loader.c ****         }
 918              		.loc 1 408 25 view .LVU260
 919              	.LBE17:
 355:Middlewares/lvgl/src/font/lv_font_loader.c ****         lv_font_fmt_txt_glyph_dsc_t * gdsc = &glyph_dsc[i];
 920              		.loc 1 355 45 is_stmt 1 view .LVU261
 921 007e 0136     		adds	r6, r6, #1
 922              	.LVL96:
 923              	.L45:
 355:Middlewares/lvgl/src/font/lv_font_loader.c ****         lv_font_fmt_txt_glyph_dsc_t * gdsc = &glyph_dsc[i];
 924              		.loc 1 355 29 discriminator 1 view .LVU262
 355:Middlewares/lvgl/src/font/lv_font_loader.c ****         lv_font_fmt_txt_glyph_dsc_t * gdsc = &glyph_dsc[i];
 925              		.loc 1 355 5 is_stmt 0 discriminator 1 view .LVU263
ARM GAS  /tmp/cci3f8Hk.s 			page 27


 926 0080 129B     		ldr	r3, [sp, #72]
 927 0082 9E42     		cmp	r6, r3
 928 0084 79D2     		bcs	.L70
 929              	.LBB18:
 356:Middlewares/lvgl/src/font/lv_font_loader.c **** 
 930              		.loc 1 356 9 is_stmt 1 view .LVU264
 356:Middlewares/lvgl/src/font/lv_font_loader.c **** 
 931              		.loc 1 356 56 is_stmt 0 view .LVU265
 932 0086 4FEAC609 		lsl	r9, r6, #3
 356:Middlewares/lvgl/src/font/lv_font_loader.c **** 
 933              		.loc 1 356 39 view .LVU266
 934 008a 07EBC604 		add	r4, r7, r6, lsl #3
 935              	.LVL97:
 358:Middlewares/lvgl/src/font/lv_font_loader.c ****         if(res != LV_FS_RES_OK) {
 936              		.loc 1 358 9 is_stmt 1 view .LVU267
 358:Middlewares/lvgl/src/font/lv_font_loader.c ****         if(res != LV_FS_RES_OK) {
 937              		.loc 1 358 62 is_stmt 0 view .LVU268
 938 008e 4FEA860B 		lsl	fp, r6, #2
 939 0092 58F82610 		ldr	r1, [r8, r6, lsl #2]
 358:Middlewares/lvgl/src/font/lv_font_loader.c ****         if(res != LV_FS_RES_OK) {
 940              		.loc 1 358 27 view .LVU269
 941 0096 0022     		movs	r2, #0
 942 0098 019B     		ldr	r3, [sp, #4]
 943 009a 1944     		add	r1, r1, r3
 944 009c 0098     		ldr	r0, [sp]
 945 009e FFF7FEFF 		bl	lv_fs_seek
 946              	.LVL98:
 358:Middlewares/lvgl/src/font/lv_font_loader.c ****         if(res != LV_FS_RES_OK) {
 947              		.loc 1 358 21 view .LVU270
 948 00a2 8DF81700 		strb	r0, [sp, #23]
 359:Middlewares/lvgl/src/font/lv_font_loader.c ****             return -1;
 949              		.loc 1 359 9 is_stmt 1 view .LVU271
 359:Middlewares/lvgl/src/font/lv_font_loader.c ****             return -1;
 950              		.loc 1 359 11 is_stmt 0 view .LVU272
 951 00a6 0028     		cmp	r0, #0
 952 00a8 D6D1     		bne	.L46
 363:Middlewares/lvgl/src/font/lv_font_loader.c **** 
 953              		.loc 1 363 9 is_stmt 1 view .LVU273
 363:Middlewares/lvgl/src/font/lv_font_loader.c **** 
 954              		.loc 1 363 33 is_stmt 0 view .LVU274
 955 00aa 0099     		ldr	r1, [sp]
 956 00ac 06A8     		add	r0, sp, #24
 957 00ae FFF7FEFF 		bl	init_bit_iterator
 958              	.LVL99:
 365:Middlewares/lvgl/src/font/lv_font_loader.c ****             gdsc->adv_w = header->default_advance_width;
 959              		.loc 1 365 9 is_stmt 1 view .LVU275
 365:Middlewares/lvgl/src/font/lv_font_loader.c ****             gdsc->adv_w = header->default_advance_width;
 960              		.loc 1 365 18 is_stmt 0 view .LVU276
 961 00b2 95F82010 		ldrb	r1, [r5, #32]	@ zero_extendqisi2
 365:Middlewares/lvgl/src/font/lv_font_loader.c ****             gdsc->adv_w = header->default_advance_width;
 962              		.loc 1 365 11 view .LVU277
 963 00b6 0029     		cmp	r1, #0
 964 00b8 C1D1     		bne	.L47
 366:Middlewares/lvgl/src/font/lv_font_loader.c ****         }
 965              		.loc 1 366 13 is_stmt 1 view .LVU278
 366:Middlewares/lvgl/src/font/lv_font_loader.c ****         }
 966              		.loc 1 366 33 is_stmt 0 view .LVU279
ARM GAS  /tmp/cci3f8Hk.s 			page 28


 967 00ba EA8A     		ldrh	r2, [r5, #22]
 366:Middlewares/lvgl/src/font/lv_font_loader.c ****         }
 968              		.loc 1 366 25 view .LVU280
 969 00bc 6388     		ldrh	r3, [r4, #2]
 970 00be 62F30F13 		bfi	r3, r2, #4, #12
 971 00c2 6380     		strh	r3, [r4, #2]	@ movhi
 972              	.L48:
 375:Middlewares/lvgl/src/font/lv_font_loader.c ****             gdsc->adv_w *= 16;
 973              		.loc 1 375 9 is_stmt 1 view .LVU281
 375:Middlewares/lvgl/src/font/lv_font_loader.c ****             gdsc->adv_w *= 16;
 974              		.loc 1 375 18 is_stmt 0 view .LVU282
 975 00c4 2B7F     		ldrb	r3, [r5, #28]	@ zero_extendqisi2
 375:Middlewares/lvgl/src/font/lv_font_loader.c ****             gdsc->adv_w *= 16;
 976              		.loc 1 375 11 view .LVU283
 977 00c6 43B9     		cbnz	r3, .L49
 376:Middlewares/lvgl/src/font/lv_font_loader.c ****         }
 978              		.loc 1 376 13 is_stmt 1 view .LVU284
 376:Middlewares/lvgl/src/font/lv_font_loader.c ****         }
 979              		.loc 1 376 25 is_stmt 0 view .LVU285
 980 00c8 6388     		ldrh	r3, [r4, #2]
 981 00ca C3F30B12 		ubfx	r2, r3, #4, #12
 982 00ce 1201     		lsls	r2, r2, #4
 983 00d0 C2F30B02 		ubfx	r2, r2, #0, #12
 984 00d4 62F30F13 		bfi	r3, r2, #4, #12
 985 00d8 6380     		strh	r3, [r4, #2]	@ movhi
 986              	.L49:
 379:Middlewares/lvgl/src/font/lv_font_loader.c ****         if(res != LV_FS_RES_OK) {
 987              		.loc 1 379 9 is_stmt 1 view .LVU286
 379:Middlewares/lvgl/src/font/lv_font_loader.c ****         if(res != LV_FS_RES_OK) {
 988              		.loc 1 379 23 is_stmt 0 view .LVU287
 989 00da 0DF11702 		add	r2, sp, #23
 990 00de A97F     		ldrb	r1, [r5, #30]	@ zero_extendqisi2
 991 00e0 06A8     		add	r0, sp, #24
 992 00e2 FFF7FEFF 		bl	read_bits_signed
 993              	.LVL100:
 379:Middlewares/lvgl/src/font/lv_font_loader.c ****         if(res != LV_FS_RES_OK) {
 994              		.loc 1 379 21 view .LVU288
 995 00e6 A071     		strb	r0, [r4, #6]
 380:Middlewares/lvgl/src/font/lv_font_loader.c ****             return -1;
 996              		.loc 1 380 9 is_stmt 1 view .LVU289
 380:Middlewares/lvgl/src/font/lv_font_loader.c ****             return -1;
 997              		.loc 1 380 16 is_stmt 0 view .LVU290
 998 00e8 9DF81730 		ldrb	r3, [sp, #23]	@ zero_extendqisi2
 380:Middlewares/lvgl/src/font/lv_font_loader.c ****             return -1;
 999              		.loc 1 380 11 view .LVU291
 1000 00ec 002B     		cmp	r3, #0
 1001 00ee B3D1     		bne	.L46
 384:Middlewares/lvgl/src/font/lv_font_loader.c ****         if(res != LV_FS_RES_OK) {
 1002              		.loc 1 384 9 is_stmt 1 view .LVU292
 384:Middlewares/lvgl/src/font/lv_font_loader.c ****         if(res != LV_FS_RES_OK) {
 1003              		.loc 1 384 23 is_stmt 0 view .LVU293
 1004 00f0 0DF11702 		add	r2, sp, #23
 1005 00f4 A97F     		ldrb	r1, [r5, #30]	@ zero_extendqisi2
 1006 00f6 06A8     		add	r0, sp, #24
 1007 00f8 FFF7FEFF 		bl	read_bits_signed
 1008              	.LVL101:
 384:Middlewares/lvgl/src/font/lv_font_loader.c ****         if(res != LV_FS_RES_OK) {
ARM GAS  /tmp/cci3f8Hk.s 			page 29


 1009              		.loc 1 384 21 view .LVU294
 1010 00fc E071     		strb	r0, [r4, #7]
 385:Middlewares/lvgl/src/font/lv_font_loader.c ****             return -1;
 1011              		.loc 1 385 9 is_stmt 1 view .LVU295
 385:Middlewares/lvgl/src/font/lv_font_loader.c ****             return -1;
 1012              		.loc 1 385 16 is_stmt 0 view .LVU296
 1013 00fe 9DF81730 		ldrb	r3, [sp, #23]	@ zero_extendqisi2
 385:Middlewares/lvgl/src/font/lv_font_loader.c ****             return -1;
 1014              		.loc 1 385 11 view .LVU297
 1015 0102 002B     		cmp	r3, #0
 1016 0104 A8D1     		bne	.L46
 389:Middlewares/lvgl/src/font/lv_font_loader.c ****         if(res != LV_FS_RES_OK) {
 1017              		.loc 1 389 9 is_stmt 1 view .LVU298
 389:Middlewares/lvgl/src/font/lv_font_loader.c ****         if(res != LV_FS_RES_OK) {
 1018              		.loc 1 389 23 is_stmt 0 view .LVU299
 1019 0106 0DF11702 		add	r2, sp, #23
 1020 010a E97F     		ldrb	r1, [r5, #31]	@ zero_extendqisi2
 1021 010c 06A8     		add	r0, sp, #24
 1022 010e FFF7FEFF 		bl	read_bits
 1023              	.LVL102:
 389:Middlewares/lvgl/src/font/lv_font_loader.c ****         if(res != LV_FS_RES_OK) {
 1024              		.loc 1 389 21 view .LVU300
 1025 0112 2071     		strb	r0, [r4, #4]
 390:Middlewares/lvgl/src/font/lv_font_loader.c ****             return -1;
 1026              		.loc 1 390 9 is_stmt 1 view .LVU301
 390:Middlewares/lvgl/src/font/lv_font_loader.c ****             return -1;
 1027              		.loc 1 390 16 is_stmt 0 view .LVU302
 1028 0114 9DF81730 		ldrb	r3, [sp, #23]	@ zero_extendqisi2
 390:Middlewares/lvgl/src/font/lv_font_loader.c ****             return -1;
 1029              		.loc 1 390 11 view .LVU303
 1030 0118 002B     		cmp	r3, #0
 1031 011a 9DD1     		bne	.L46
 394:Middlewares/lvgl/src/font/lv_font_loader.c ****         if(res != LV_FS_RES_OK) {
 1032              		.loc 1 394 9 is_stmt 1 view .LVU304
 394:Middlewares/lvgl/src/font/lv_font_loader.c ****         if(res != LV_FS_RES_OK) {
 1033              		.loc 1 394 23 is_stmt 0 view .LVU305
 1034 011c 0DF11702 		add	r2, sp, #23
 1035 0120 E97F     		ldrb	r1, [r5, #31]	@ zero_extendqisi2
 1036 0122 06A8     		add	r0, sp, #24
 1037 0124 FFF7FEFF 		bl	read_bits
 1038              	.LVL103:
 394:Middlewares/lvgl/src/font/lv_font_loader.c ****         if(res != LV_FS_RES_OK) {
 1039              		.loc 1 394 21 view .LVU306
 1040 0128 6071     		strb	r0, [r4, #5]
 395:Middlewares/lvgl/src/font/lv_font_loader.c ****             return -1;
 1041              		.loc 1 395 9 is_stmt 1 view .LVU307
 395:Middlewares/lvgl/src/font/lv_font_loader.c ****             return -1;
 1042              		.loc 1 395 16 is_stmt 0 view .LVU308
 1043 012a 9DF81730 		ldrb	r3, [sp, #23]	@ zero_extendqisi2
 395:Middlewares/lvgl/src/font/lv_font_loader.c ****             return -1;
 1044              		.loc 1 395 11 view .LVU309
 1045 012e 002B     		cmp	r3, #0
 1046 0130 92D1     		bne	.L46
 399:Middlewares/lvgl/src/font/lv_font_loader.c ****         int next_offset = (i < loca_count - 1) ? glyph_offset[i + 1] : (uint32_t)glyph_length;
 1047              		.loc 1 399 9 is_stmt 1 view .LVU310
 399:Middlewares/lvgl/src/font/lv_font_loader.c ****         int next_offset = (i < loca_count - 1) ? glyph_offset[i + 1] : (uint32_t)glyph_length;
 1048              		.loc 1 399 27 is_stmt 0 view .LVU311
ARM GAS  /tmp/cci3f8Hk.s 			page 30


 1049 0132 95F82030 		ldrb	r3, [r5, #32]	@ zero_extendqisi2
 399:Middlewares/lvgl/src/font/lv_font_loader.c ****         int next_offset = (i < loca_count - 1) ? glyph_offset[i + 1] : (uint32_t)glyph_length;
 1050              		.loc 1 399 60 view .LVU312
 1051 0136 AA7F     		ldrb	r2, [r5, #30]	@ zero_extendqisi2
 399:Middlewares/lvgl/src/font/lv_font_loader.c ****         int next_offset = (i < loca_count - 1) ? glyph_offset[i + 1] : (uint32_t)glyph_length;
 1052              		.loc 1 399 48 view .LVU313
 1053 0138 03EB4203 		add	r3, r3, r2, lsl #1
 399:Middlewares/lvgl/src/font/lv_font_loader.c ****         int next_offset = (i < loca_count - 1) ? glyph_offset[i + 1] : (uint32_t)glyph_length;
 1054              		.loc 1 399 82 view .LVU314
 1055 013c EA7F     		ldrb	r2, [r5, #31]	@ zero_extendqisi2
 399:Middlewares/lvgl/src/font/lv_font_loader.c ****         int next_offset = (i < loca_count - 1) ? glyph_offset[i + 1] : (uint32_t)glyph_length;
 1056              		.loc 1 399 13 view .LVU315
 1057 013e 03EB4203 		add	r3, r3, r2, lsl #1
 1058              	.LVL104:
 400:Middlewares/lvgl/src/font/lv_font_loader.c ****         int bmp_size = next_offset - glyph_offset[i] - nbits / 8;
 1059              		.loc 1 400 9 is_stmt 1 view .LVU316
 400:Middlewares/lvgl/src/font/lv_font_loader.c ****         int bmp_size = next_offset - glyph_offset[i] - nbits / 8;
 1060              		.loc 1 400 43 is_stmt 0 view .LVU317
 1061 0142 129A     		ldr	r2, [sp, #72]
 1062 0144 013A     		subs	r2, r2, #1
 400:Middlewares/lvgl/src/font/lv_font_loader.c ****         int bmp_size = next_offset - glyph_offset[i] - nbits / 8;
 1063              		.loc 1 400 70 view .LVU318
 1064 0146 B242     		cmp	r2, r6
 1065 0148 8DD9     		bls	.L66
 400:Middlewares/lvgl/src/font/lv_font_loader.c ****         int bmp_size = next_offset - glyph_offset[i] - nbits / 8;
 1066              		.loc 1 400 62 discriminator 1 view .LVU319
 1067 014a 721C     		adds	r2, r6, #1
 1068 014c 58F82220 		ldr	r2, [r8, r2, lsl #2]
 1069              	.L50:
 1070              	.LVL105:
 401:Middlewares/lvgl/src/font/lv_font_loader.c **** 
 1071              		.loc 1 401 9 is_stmt 1 discriminator 4 view .LVU320
 401:Middlewares/lvgl/src/font/lv_font_loader.c **** 
 1072              		.loc 1 401 50 is_stmt 0 discriminator 4 view .LVU321
 1073 0150 58F80B10 		ldr	r1, [r8, fp]
 401:Middlewares/lvgl/src/font/lv_font_loader.c **** 
 1074              		.loc 1 401 36 discriminator 4 view .LVU322
 1075 0154 521A     		subs	r2, r2, r1
 1076              	.LVL106:
 401:Middlewares/lvgl/src/font/lv_font_loader.c **** 
 1077              		.loc 1 401 54 discriminator 4 view .LVU323
 1078 0156 A2EBE303 		sub	r3, r2, r3, asr #3
 1079              	.LVL107:
 403:Middlewares/lvgl/src/font/lv_font_loader.c ****             gdsc->adv_w = 0;
 1080              		.loc 1 403 9 is_stmt 1 discriminator 4 view .LVU324
 403:Middlewares/lvgl/src/font/lv_font_loader.c ****             gdsc->adv_w = 0;
 1081              		.loc 1 403 11 is_stmt 0 discriminator 4 view .LVU325
 1082 015a 002E     		cmp	r6, #0
 1083 015c 85D0     		beq	.L71
 1084              	.LVL108:
 1085              	.L52:
 411:Middlewares/lvgl/src/font/lv_font_loader.c ****         if(gdsc->box_w * gdsc->box_h != 0) {
 1086              		.loc 1 411 9 is_stmt 1 view .LVU326
 411:Middlewares/lvgl/src/font/lv_font_loader.c ****         if(gdsc->box_w * gdsc->box_h != 0) {
 1087              		.loc 1 411 28 is_stmt 0 view .LVU327
 1088 015e 57F80920 		ldr	r2, [r7, r9]
 1089 0162 6AF31302 		bfi	r2, r10, #0, #20
ARM GAS  /tmp/cci3f8Hk.s 			page 31


 1090              	.LVL109:
 411:Middlewares/lvgl/src/font/lv_font_loader.c ****         if(gdsc->box_w * gdsc->box_h != 0) {
 1091              		.loc 1 411 28 view .LVU328
 1092 0166 47F80920 		str	r2, [r7, r9]
 412:Middlewares/lvgl/src/font/lv_font_loader.c ****             cur_bmp_size += bmp_size;
 1093              		.loc 1 412 9 is_stmt 1 view .LVU329
 412:Middlewares/lvgl/src/font/lv_font_loader.c ****             cur_bmp_size += bmp_size;
 1094              		.loc 1 412 16 is_stmt 0 view .LVU330
 1095 016a 2279     		ldrb	r2, [r4, #4]	@ zero_extendqisi2
 412:Middlewares/lvgl/src/font/lv_font_loader.c ****             cur_bmp_size += bmp_size;
 1096              		.loc 1 412 30 view .LVU331
 1097 016c 6179     		ldrb	r1, [r4, #5]	@ zero_extendqisi2
 412:Middlewares/lvgl/src/font/lv_font_loader.c ****             cur_bmp_size += bmp_size;
 1098              		.loc 1 412 24 view .LVU332
 1099 016e 01FB02F2 		mul	r2, r1, r2
 412:Middlewares/lvgl/src/font/lv_font_loader.c ****             cur_bmp_size += bmp_size;
 1100              		.loc 1 412 11 view .LVU333
 1101 0172 002A     		cmp	r2, #0
 1102 0174 83D0     		beq	.L53
 413:Middlewares/lvgl/src/font/lv_font_loader.c ****         }
 1103              		.loc 1 413 13 is_stmt 1 view .LVU334
 413:Middlewares/lvgl/src/font/lv_font_loader.c ****         }
 1104              		.loc 1 413 26 is_stmt 0 view .LVU335
 1105 0176 9A44     		add	r10, r10, r3
 1106              	.LVL110:
 413:Middlewares/lvgl/src/font/lv_font_loader.c ****         }
 1107              		.loc 1 413 26 view .LVU336
 1108 0178 81E7     		b	.L53
 1109              	.LVL111:
 1110              	.L70:
 413:Middlewares/lvgl/src/font/lv_font_loader.c ****         }
 1111              		.loc 1 413 26 view .LVU337
 1112              	.LBE18:
 1113              	.LBE20:
 417:Middlewares/lvgl/src/font/lv_font_loader.c **** 
 1114              		.loc 1 417 5 is_stmt 1 view .LVU338
 417:Middlewares/lvgl/src/font/lv_font_loader.c **** 
 1115              		.loc 1 417 38 is_stmt 0 view .LVU339
 1116 017a 5046     		mov	r0, r10
 1117 017c FFF7FEFF 		bl	lv_mem_alloc
 1118              	.LVL112:
 419:Middlewares/lvgl/src/font/lv_font_loader.c **** 
 1119              		.loc 1 419 5 is_stmt 1 view .LVU340
 419:Middlewares/lvgl/src/font/lv_font_loader.c **** 
 1120              		.loc 1 419 28 is_stmt 0 view .LVU341
 1121 0180 039A     		ldr	r2, [sp, #12]
 1122 0182 1060     		str	r0, [r2]
 421:Middlewares/lvgl/src/font/lv_font_loader.c **** 
 1123              		.loc 1 421 5 is_stmt 1 view .LVU342
 1124              	.LVL113:
 423:Middlewares/lvgl/src/font/lv_font_loader.c ****         lv_fs_res_t res = lv_fs_seek(fp, start + glyph_offset[i], LV_FS_SEEK_SET);
 1125              		.loc 1 423 5 view .LVU343
 1126              	.LBB21:
 423:Middlewares/lvgl/src/font/lv_font_loader.c ****         lv_fs_res_t res = lv_fs_seek(fp, start + glyph_offset[i], LV_FS_SEEK_SET);
 1127              		.loc 1 423 9 view .LVU344
 423:Middlewares/lvgl/src/font/lv_font_loader.c ****         lv_fs_res_t res = lv_fs_seek(fp, start + glyph_offset[i], LV_FS_SEEK_SET);
 1128              		.loc 1 423 22 is_stmt 0 view .LVU345
ARM GAS  /tmp/cci3f8Hk.s 			page 32


 1129 0184 4FF0010A 		mov	r10, #1
 1130              	.LBE21:
 421:Middlewares/lvgl/src/font/lv_font_loader.c **** 
 1131              		.loc 1 421 18 view .LVU346
 1132 0188 4FF0000B 		mov	fp, #0
 1133 018c 0397     		str	r7, [sp, #12]
 1134 018e 8146     		mov	r9, r0
 1135              	.LBB25:
 423:Middlewares/lvgl/src/font/lv_font_loader.c ****         lv_fs_res_t res = lv_fs_seek(fp, start + glyph_offset[i], LV_FS_SEEK_SET);
 1136              		.loc 1 423 5 view .LVU347
 1137 0190 14E0     		b	.L55
 1138              	.LVL114:
 1139              	.L67:
 1140              	.LBB22:
 441:Middlewares/lvgl/src/font/lv_font_loader.c ****         int bmp_size = next_offset - glyph_offset[i] - nbits / 8;
 1141              		.loc 1 441 70 view .LVU348
 1142 0192 029F     		ldr	r7, [sp, #8]
 1143              	.L59:
 1144              	.LVL115:
 442:Middlewares/lvgl/src/font/lv_font_loader.c **** 
 1145              		.loc 1 442 9 is_stmt 1 discriminator 4 view .LVU349
 442:Middlewares/lvgl/src/font/lv_font_loader.c **** 
 1146              		.loc 1 442 50 is_stmt 0 discriminator 4 view .LVU350
 1147 0194 58F80430 		ldr	r3, [r8, r4]
 442:Middlewares/lvgl/src/font/lv_font_loader.c **** 
 1148              		.loc 1 442 36 discriminator 4 view .LVU351
 1149 0198 FF1A     		subs	r7, r7, r3
 1150              	.LVL116:
 442:Middlewares/lvgl/src/font/lv_font_loader.c **** 
 1151              		.loc 1 442 54 discriminator 4 view .LVU352
 1152 019a A7EBE607 		sub	r7, r7, r6, asr #3
 1153              	.LVL117:
 444:Middlewares/lvgl/src/font/lv_font_loader.c ****             if(lv_fs_read(fp, &glyph_bmp[cur_bmp_size], bmp_size, NULL) != LV_FS_RES_OK) {
 1154              		.loc 1 444 9 is_stmt 1 discriminator 4 view .LVU353
 444:Middlewares/lvgl/src/font/lv_font_loader.c ****             if(lv_fs_read(fp, &glyph_bmp[cur_bmp_size], bmp_size, NULL) != LV_FS_RES_OK) {
 1155              		.loc 1 444 11 is_stmt 0 discriminator 4 view .LVU354
 1156 019e 16F0070F 		tst	r6, #7
 1157 01a2 46D1     		bne	.L68
 445:Middlewares/lvgl/src/font/lv_font_loader.c ****                 return -1;
 1158              		.loc 1 445 13 is_stmt 1 view .LVU355
 445:Middlewares/lvgl/src/font/lv_font_loader.c ****                 return -1;
 1159              		.loc 1 445 16 is_stmt 0 view .LVU356
 1160 01a4 0023     		movs	r3, #0
 1161 01a6 3A46     		mov	r2, r7
 1162 01a8 09EB0B01 		add	r1, r9, fp
 1163 01ac 0098     		ldr	r0, [sp]
 1164 01ae FFF7FEFF 		bl	lv_fs_read
 1165              	.LVL118:
 445:Middlewares/lvgl/src/font/lv_font_loader.c ****                 return -1;
 1166              		.loc 1 445 15 view .LVU357
 1167 01b2 0028     		cmp	r0, #0
 1168 01b4 67D1     		bne	.L56
 1169              	.L62:
 462:Middlewares/lvgl/src/font/lv_font_loader.c ****     }
 1170              		.loc 1 462 9 is_stmt 1 discriminator 1 view .LVU358
 462:Middlewares/lvgl/src/font/lv_font_loader.c ****     }
 1171              		.loc 1 462 22 is_stmt 0 discriminator 1 view .LVU359
ARM GAS  /tmp/cci3f8Hk.s 			page 33


 1172 01b6 BB44     		add	fp, fp, r7
 1173              	.LVL119:
 1174              	.L58:
 462:Middlewares/lvgl/src/font/lv_font_loader.c ****     }
 1175              		.loc 1 462 22 discriminator 1 view .LVU360
 1176              	.LBE22:
 423:Middlewares/lvgl/src/font/lv_font_loader.c ****         lv_fs_res_t res = lv_fs_seek(fp, start + glyph_offset[i], LV_FS_SEEK_SET);
 1177              		.loc 1 423 45 is_stmt 1 discriminator 2 view .LVU361
 1178 01b8 0AF1010A 		add	r10, r10, #1
 1179              	.LVL120:
 1180              	.L55:
 423:Middlewares/lvgl/src/font/lv_font_loader.c ****         lv_fs_res_t res = lv_fs_seek(fp, start + glyph_offset[i], LV_FS_SEEK_SET);
 1181              		.loc 1 423 29 discriminator 1 view .LVU362
 423:Middlewares/lvgl/src/font/lv_font_loader.c ****         lv_fs_res_t res = lv_fs_seek(fp, start + glyph_offset[i], LV_FS_SEEK_SET);
 1182              		.loc 1 423 5 is_stmt 0 discriminator 1 view .LVU363
 1183 01bc 129B     		ldr	r3, [sp, #72]
 1184 01be 9A45     		cmp	r10, r3
 1185 01c0 BFF44DAF 		bcs	.L43
 1186              	.LBB24:
 424:Middlewares/lvgl/src/font/lv_font_loader.c ****         if(res != LV_FS_RES_OK) {
 1187              		.loc 1 424 9 is_stmt 1 view .LVU364
 424:Middlewares/lvgl/src/font/lv_font_loader.c ****         if(res != LV_FS_RES_OK) {
 1188              		.loc 1 424 62 is_stmt 0 view .LVU365
 1189 01c4 4FEA8A04 		lsl	r4, r10, #2
 1190 01c8 58F82A10 		ldr	r1, [r8, r10, lsl #2]
 424:Middlewares/lvgl/src/font/lv_font_loader.c ****         if(res != LV_FS_RES_OK) {
 1191              		.loc 1 424 27 view .LVU366
 1192 01cc 0022     		movs	r2, #0
 1193 01ce 019B     		ldr	r3, [sp, #4]
 1194 01d0 1944     		add	r1, r1, r3
 1195 01d2 009E     		ldr	r6, [sp]
 1196 01d4 3046     		mov	r0, r6
 1197 01d6 FFF7FEFF 		bl	lv_fs_seek
 1198              	.LVL121:
 424:Middlewares/lvgl/src/font/lv_font_loader.c ****         if(res != LV_FS_RES_OK) {
 1199              		.loc 1 424 21 view .LVU367
 1200 01da 8DF81700 		strb	r0, [sp, #23]
 425:Middlewares/lvgl/src/font/lv_font_loader.c ****             return -1;
 1201              		.loc 1 425 9 is_stmt 1 view .LVU368
 425:Middlewares/lvgl/src/font/lv_font_loader.c ****             return -1;
 1202              		.loc 1 425 11 is_stmt 0 view .LVU369
 1203 01de 0028     		cmp	r0, #0
 1204 01e0 51D1     		bne	.L56
 428:Middlewares/lvgl/src/font/lv_font_loader.c **** 
 1205              		.loc 1 428 9 is_stmt 1 view .LVU370
 428:Middlewares/lvgl/src/font/lv_font_loader.c **** 
 1206              		.loc 1 428 33 is_stmt 0 view .LVU371
 1207 01e2 3146     		mov	r1, r6
 1208 01e4 06A8     		add	r0, sp, #24
 1209 01e6 FFF7FEFF 		bl	init_bit_iterator
 1210              	.LVL122:
 430:Middlewares/lvgl/src/font/lv_font_loader.c **** 
 1211              		.loc 1 430 9 is_stmt 1 view .LVU372
 430:Middlewares/lvgl/src/font/lv_font_loader.c **** 
 1212              		.loc 1 430 27 is_stmt 0 view .LVU373
 1213 01ea 95F82060 		ldrb	r6, [r5, #32]	@ zero_extendqisi2
 430:Middlewares/lvgl/src/font/lv_font_loader.c **** 
ARM GAS  /tmp/cci3f8Hk.s 			page 34


 1214              		.loc 1 430 60 view .LVU374
 1215 01ee AB7F     		ldrb	r3, [r5, #30]	@ zero_extendqisi2
 430:Middlewares/lvgl/src/font/lv_font_loader.c **** 
 1216              		.loc 1 430 48 view .LVU375
 1217 01f0 06EB4306 		add	r6, r6, r3, lsl #1
 430:Middlewares/lvgl/src/font/lv_font_loader.c **** 
 1218              		.loc 1 430 82 view .LVU376
 1219 01f4 EB7F     		ldrb	r3, [r5, #31]	@ zero_extendqisi2
 430:Middlewares/lvgl/src/font/lv_font_loader.c **** 
 1220              		.loc 1 430 13 view .LVU377
 1221 01f6 06EB4306 		add	r6, r6, r3, lsl #1
 1222              	.LVL123:
 432:Middlewares/lvgl/src/font/lv_font_loader.c ****         if(res != LV_FS_RES_OK) {
 1223              		.loc 1 432 9 is_stmt 1 view .LVU378
 1224 01fa 0DF11702 		add	r2, sp, #23
 1225 01fe 3146     		mov	r1, r6
 1226 0200 06A8     		add	r0, sp, #24
 1227 0202 FFF7FEFF 		bl	read_bits
 1228              	.LVL124:
 433:Middlewares/lvgl/src/font/lv_font_loader.c ****             return -1;
 1229              		.loc 1 433 9 view .LVU379
 433:Middlewares/lvgl/src/font/lv_font_loader.c ****             return -1;
 1230              		.loc 1 433 16 is_stmt 0 view .LVU380
 1231 0206 9DF81730 		ldrb	r3, [sp, #23]	@ zero_extendqisi2
 433:Middlewares/lvgl/src/font/lv_font_loader.c ****             return -1;
 1232              		.loc 1 433 11 view .LVU381
 1233 020a 002B     		cmp	r3, #0
 1234 020c 3BD1     		bne	.L56
 437:Middlewares/lvgl/src/font/lv_font_loader.c ****             continue;
 1235              		.loc 1 437 9 is_stmt 1 view .LVU382
 437:Middlewares/lvgl/src/font/lv_font_loader.c ****             continue;
 1236              		.loc 1 437 21 is_stmt 0 view .LVU383
 1237 020e 039B     		ldr	r3, [sp, #12]
 1238 0210 03EBCA02 		add	r2, r3, r10, lsl #3
 437:Middlewares/lvgl/src/font/lv_font_loader.c ****             continue;
 1239              		.loc 1 437 24 view .LVU384
 1240 0214 1379     		ldrb	r3, [r2, #4]	@ zero_extendqisi2
 437:Middlewares/lvgl/src/font/lv_font_loader.c ****             continue;
 1241              		.loc 1 437 45 view .LVU385
 1242 0216 5279     		ldrb	r2, [r2, #5]	@ zero_extendqisi2
 437:Middlewares/lvgl/src/font/lv_font_loader.c ****             continue;
 1243              		.loc 1 437 31 view .LVU386
 1244 0218 02FB03F3 		mul	r3, r2, r3
 437:Middlewares/lvgl/src/font/lv_font_loader.c ****             continue;
 1245              		.loc 1 437 11 view .LVU387
 1246 021c 002B     		cmp	r3, #0
 1247 021e CBD0     		beq	.L58
 441:Middlewares/lvgl/src/font/lv_font_loader.c ****         int bmp_size = next_offset - glyph_offset[i] - nbits / 8;
 1248              		.loc 1 441 9 is_stmt 1 view .LVU388
 441:Middlewares/lvgl/src/font/lv_font_loader.c ****         int bmp_size = next_offset - glyph_offset[i] - nbits / 8;
 1249              		.loc 1 441 43 is_stmt 0 view .LVU389
 1250 0220 129B     		ldr	r3, [sp, #72]
 1251 0222 013B     		subs	r3, r3, #1
 441:Middlewares/lvgl/src/font/lv_font_loader.c ****         int bmp_size = next_offset - glyph_offset[i] - nbits / 8;
 1252              		.loc 1 441 70 view .LVU390
 1253 0224 5345     		cmp	r3, r10
 1254 0226 B4D9     		bls	.L67
ARM GAS  /tmp/cci3f8Hk.s 			page 35


 441:Middlewares/lvgl/src/font/lv_font_loader.c ****         int bmp_size = next_offset - glyph_offset[i] - nbits / 8;
 1255              		.loc 1 441 62 discriminator 1 view .LVU391
 1256 0228 0AF10103 		add	r3, r10, #1
 1257 022c 58F82370 		ldr	r7, [r8, r3, lsl #2]
 1258 0230 B0E7     		b	.L59
 1259              	.LVL125:
 1260              	.L68:
 1261              	.LBB23:
 450:Middlewares/lvgl/src/font/lv_font_loader.c ****                 glyph_bmp[cur_bmp_size + k] = read_bits(&bit_it, 8, &res);
 1262              		.loc 1 450 21 view .LVU392
 1263 0232 0024     		movs	r4, #0
 1264              	.L61:
 1265              	.LVL126:
 450:Middlewares/lvgl/src/font/lv_font_loader.c ****                 glyph_bmp[cur_bmp_size + k] = read_bits(&bit_it, 8, &res);
 1266              		.loc 1 450 28 is_stmt 1 discriminator 1 view .LVU393
 450:Middlewares/lvgl/src/font/lv_font_loader.c ****                 glyph_bmp[cur_bmp_size + k] = read_bits(&bit_it, 8, &res);
 1267              		.loc 1 450 41 is_stmt 0 discriminator 1 view .LVU394
 1268 0234 7B1E     		subs	r3, r7, #1
 450:Middlewares/lvgl/src/font/lv_font_loader.c ****                 glyph_bmp[cur_bmp_size + k] = read_bits(&bit_it, 8, &res);
 1269              		.loc 1 450 13 discriminator 1 view .LVU395
 1270 0236 A342     		cmp	r3, r4
 1271 0238 0EDD     		ble	.L72
 451:Middlewares/lvgl/src/font/lv_font_loader.c ****                 if(res != LV_FS_RES_OK) {
 1272              		.loc 1 451 17 is_stmt 1 view .LVU396
 451:Middlewares/lvgl/src/font/lv_font_loader.c ****                 if(res != LV_FS_RES_OK) {
 1273              		.loc 1 451 47 is_stmt 0 view .LVU397
 1274 023a 0DF11702 		add	r2, sp, #23
 1275 023e 0821     		movs	r1, #8
 1276 0240 06A8     		add	r0, sp, #24
 1277 0242 FFF7FEFF 		bl	read_bits
 1278              	.LVL127:
 451:Middlewares/lvgl/src/font/lv_font_loader.c ****                 if(res != LV_FS_RES_OK) {
 1279              		.loc 1 451 40 view .LVU398
 1280 0246 0BEB0403 		add	r3, fp, r4
 451:Middlewares/lvgl/src/font/lv_font_loader.c ****                 if(res != LV_FS_RES_OK) {
 1281              		.loc 1 451 45 view .LVU399
 1282 024a 09F80300 		strb	r0, [r9, r3]
 452:Middlewares/lvgl/src/font/lv_font_loader.c ****                     return -1;
 1283              		.loc 1 452 17 is_stmt 1 view .LVU400
 452:Middlewares/lvgl/src/font/lv_font_loader.c ****                     return -1;
 1284              		.loc 1 452 24 is_stmt 0 view .LVU401
 1285 024e 9DF81730 		ldrb	r3, [sp, #23]	@ zero_extendqisi2
 452:Middlewares/lvgl/src/font/lv_font_loader.c ****                     return -1;
 1286              		.loc 1 452 19 view .LVU402
 1287 0252 C3B9     		cbnz	r3, .L56
 450:Middlewares/lvgl/src/font/lv_font_loader.c ****                 glyph_bmp[cur_bmp_size + k] = read_bits(&bit_it, 8, &res);
 1288              		.loc 1 450 46 is_stmt 1 discriminator 2 view .LVU403
 1289 0254 0134     		adds	r4, r4, #1
 1290              	.LVL128:
 450:Middlewares/lvgl/src/font/lv_font_loader.c ****                 glyph_bmp[cur_bmp_size + k] = read_bits(&bit_it, 8, &res);
 1291              		.loc 1 450 46 is_stmt 0 discriminator 2 view .LVU404
 1292 0256 EDE7     		b	.L61
 1293              	.L72:
 450:Middlewares/lvgl/src/font/lv_font_loader.c ****                 glyph_bmp[cur_bmp_size + k] = read_bits(&bit_it, 8, &res);
 1294              		.loc 1 450 46 discriminator 2 view .LVU405
 1295              	.LBE23:
 456:Middlewares/lvgl/src/font/lv_font_loader.c ****             if(res != LV_FS_RES_OK) {
ARM GAS  /tmp/cci3f8Hk.s 			page 36


 1296              		.loc 1 456 13 is_stmt 1 view .LVU406
 456:Middlewares/lvgl/src/font/lv_font_loader.c ****             if(res != LV_FS_RES_OK) {
 1297              		.loc 1 456 83 is_stmt 0 view .LVU407
 1298 0258 7342     		rsbs	r3, r6, #0
 1299 025a 06F00701 		and	r1, r6, #7
 1300 025e 03F00703 		and	r3, r3, #7
 1301 0262 58BF     		it	pl
 1302 0264 5942     		rsbpl	r1, r3, #0
 456:Middlewares/lvgl/src/font/lv_font_loader.c ****             if(res != LV_FS_RES_OK) {
 1303              		.loc 1 456 54 view .LVU408
 1304 0266 0DF11702 		add	r2, sp, #23
 1305 026a C1F10801 		rsb	r1, r1, #8
 1306 026e 06A8     		add	r0, sp, #24
 1307 0270 FFF7FEFF 		bl	read_bits
 1308              	.LVL129:
 456:Middlewares/lvgl/src/font/lv_font_loader.c ****             if(res != LV_FS_RES_OK) {
 1309              		.loc 1 456 36 view .LVU409
 1310 0274 0BEB0703 		add	r3, fp, r7
 456:Middlewares/lvgl/src/font/lv_font_loader.c ****             if(res != LV_FS_RES_OK) {
 1311              		.loc 1 456 22 view .LVU410
 1312 0278 013B     		subs	r3, r3, #1
 456:Middlewares/lvgl/src/font/lv_font_loader.c ****             if(res != LV_FS_RES_OK) {
 1313              		.loc 1 456 52 view .LVU411
 1314 027a 09F80300 		strb	r0, [r9, r3]
 457:Middlewares/lvgl/src/font/lv_font_loader.c ****                 return -1;
 1315              		.loc 1 457 13 is_stmt 1 view .LVU412
 457:Middlewares/lvgl/src/font/lv_font_loader.c ****                 return -1;
 1316              		.loc 1 457 20 is_stmt 0 view .LVU413
 1317 027e 9DF81730 		ldrb	r3, [sp, #23]	@ zero_extendqisi2
 457:Middlewares/lvgl/src/font/lv_font_loader.c ****                 return -1;
 1318              		.loc 1 457 15 view .LVU414
 1319 0282 002B     		cmp	r3, #0
 1320 0284 97D0     		beq	.L62
 1321              	.LVL130:
 1322              	.L56:
 426:Middlewares/lvgl/src/font/lv_font_loader.c ****         }
 1323              		.loc 1 426 20 discriminator 1 view .LVU415
 1324 0286 4FF0FF33 		mov	r3, #-1
 1325 028a 0293     		str	r3, [sp, #8]
 1326 028c E7E6     		b	.L43
 1327              	.LVL131:
 1328              	.L65:
 426:Middlewares/lvgl/src/font/lv_font_loader.c ****         }
 1329              		.loc 1 426 20 discriminator 1 view .LVU416
 1330              	.LBE24:
 1331              	.LBE25:
 343:Middlewares/lvgl/src/font/lv_font_loader.c ****     }
 1332              		.loc 1 343 16 view .LVU417
 1333 028e 4FF0FF33 		mov	r3, #-1
 1334 0292 0293     		str	r3, [sp, #8]
 1335 0294 E3E6     		b	.L43
 1336              	.L74:
 1337 0296 00BF     		.align	2
 1338              	.L73:
 1339 0298 00000000 		.word	.LC1
 1340              		.cfi_endproc
 1341              	.LFE192:
ARM GAS  /tmp/cci3f8Hk.s 			page 37


 1343              		.section	.text.lv_font_free,"ax",%progbits
 1344              		.align	1
 1345              		.global	lv_font_free
 1346              		.syntax unified
 1347              		.thumb
 1348              		.thumb_func
 1349              		.fpu fpv4-sp-d16
 1351              	lv_font_free:
 1352              	.LVL132:
 1353              	.LFB185:
 118:Middlewares/lvgl/src/font/lv_font_loader.c ****     if(NULL != font) {
 1354              		.loc 1 118 1 is_stmt 1 view -0
 1355              		.cfi_startproc
 1356              		@ args = 0, pretend = 0, frame = 0
 1357              		@ frame_needed = 0, uses_anonymous_args = 0
 119:Middlewares/lvgl/src/font/lv_font_loader.c ****         lv_font_fmt_txt_dsc_t * dsc = (lv_font_fmt_txt_dsc_t *)font->dsc;
 1358              		.loc 1 119 5 view .LVU419
 119:Middlewares/lvgl/src/font/lv_font_loader.c ****         lv_font_fmt_txt_dsc_t * dsc = (lv_font_fmt_txt_dsc_t *)font->dsc;
 1359              		.loc 1 119 7 is_stmt 0 view .LVU420
 1360 0000 0028     		cmp	r0, #0
 1361 0002 54D0     		beq	.L94
 118:Middlewares/lvgl/src/font/lv_font_loader.c ****     if(NULL != font) {
 1362              		.loc 1 118 1 view .LVU421
 1363 0004 2DE9F041 		push	{r4, r5, r6, r7, r8, lr}
 1364              	.LCFI15:
 1365              		.cfi_def_cfa_offset 24
 1366              		.cfi_offset 4, -24
 1367              		.cfi_offset 5, -20
 1368              		.cfi_offset 6, -16
 1369              		.cfi_offset 7, -12
 1370              		.cfi_offset 8, -8
 1371              		.cfi_offset 14, -4
 1372 0008 8046     		mov	r8, r0
 1373              	.LBB26:
 120:Middlewares/lvgl/src/font/lv_font_loader.c **** 
 1374              		.loc 1 120 9 is_stmt 1 view .LVU422
 120:Middlewares/lvgl/src/font/lv_font_loader.c **** 
 1375              		.loc 1 120 33 is_stmt 0 view .LVU423
 1376 000a 0669     		ldr	r6, [r0, #16]
 1377              	.LVL133:
 122:Middlewares/lvgl/src/font/lv_font_loader.c **** 
 1378              		.loc 1 122 9 is_stmt 1 view .LVU424
 122:Middlewares/lvgl/src/font/lv_font_loader.c **** 
 1379              		.loc 1 122 11 is_stmt 0 view .LVU425
 1380 000c 002E     		cmp	r6, #0
 1381 000e 49D0     		beq	.L77
 1382              	.LBB27:
 124:Middlewares/lvgl/src/font/lv_font_loader.c ****                 lv_font_fmt_txt_kern_pair_t * kern_dsc =
 1383              		.loc 1 124 13 is_stmt 1 view .LVU426
 124:Middlewares/lvgl/src/font/lv_font_loader.c ****                 lv_font_fmt_txt_kern_pair_t * kern_dsc =
 1384              		.loc 1 124 34 is_stmt 0 view .LVU427
 1385 0010 F37C     		ldrb	r3, [r6, #19]	@ zero_extendqisi2
 124:Middlewares/lvgl/src/font/lv_font_loader.c ****                 lv_font_fmt_txt_kern_pair_t * kern_dsc =
 1386              		.loc 1 124 15 view .LVU428
 1387 0012 13F0200F 		tst	r3, #32
 1388 0016 10D1     		bne	.L78
 1389              	.LBB28:
ARM GAS  /tmp/cci3f8Hk.s 			page 38


 125:Middlewares/lvgl/src/font/lv_font_loader.c ****                     (lv_font_fmt_txt_kern_pair_t *)dsc->kern_dsc;
 1390              		.loc 1 125 17 is_stmt 1 view .LVU429
 125:Middlewares/lvgl/src/font/lv_font_loader.c ****                     (lv_font_fmt_txt_kern_pair_t *)dsc->kern_dsc;
 1391              		.loc 1 125 47 is_stmt 0 view .LVU430
 1392 0018 F468     		ldr	r4, [r6, #12]
 1393              	.LVL134:
 128:Middlewares/lvgl/src/font/lv_font_loader.c ****                     if(kern_dsc->glyph_ids)
 1394              		.loc 1 128 17 is_stmt 1 view .LVU431
 128:Middlewares/lvgl/src/font/lv_font_loader.c ****                     if(kern_dsc->glyph_ids)
 1395              		.loc 1 128 19 is_stmt 0 view .LVU432
 1396 001a 54B1     		cbz	r4, .L79
 129:Middlewares/lvgl/src/font/lv_font_loader.c ****                         lv_mem_free((void *)kern_dsc->glyph_ids);
 1397              		.loc 1 129 21 is_stmt 1 view .LVU433
 129:Middlewares/lvgl/src/font/lv_font_loader.c ****                         lv_mem_free((void *)kern_dsc->glyph_ids);
 1398              		.loc 1 129 32 is_stmt 0 view .LVU434
 1399 001c 2068     		ldr	r0, [r4]
 1400              	.LVL135:
 129:Middlewares/lvgl/src/font/lv_font_loader.c ****                         lv_mem_free((void *)kern_dsc->glyph_ids);
 1401              		.loc 1 129 23 view .LVU435
 1402 001e 08B1     		cbz	r0, .L80
 130:Middlewares/lvgl/src/font/lv_font_loader.c **** 
 1403              		.loc 1 130 25 is_stmt 1 view .LVU436
 1404 0020 FFF7FEFF 		bl	lv_mem_free
 1405              	.LVL136:
 1406              	.L80:
 132:Middlewares/lvgl/src/font/lv_font_loader.c ****                         lv_mem_free((void *)kern_dsc->values);
 1407              		.loc 1 132 21 view .LVU437
 132:Middlewares/lvgl/src/font/lv_font_loader.c ****                         lv_mem_free((void *)kern_dsc->values);
 1408              		.loc 1 132 32 is_stmt 0 view .LVU438
 1409 0024 6068     		ldr	r0, [r4, #4]
 132:Middlewares/lvgl/src/font/lv_font_loader.c ****                         lv_mem_free((void *)kern_dsc->values);
 1410              		.loc 1 132 23 view .LVU439
 1411 0026 08B1     		cbz	r0, .L81
 133:Middlewares/lvgl/src/font/lv_font_loader.c **** 
 1412              		.loc 1 133 25 is_stmt 1 view .LVU440
 1413 0028 FFF7FEFF 		bl	lv_mem_free
 1414              	.LVL137:
 1415              	.L81:
 135:Middlewares/lvgl/src/font/lv_font_loader.c ****                 }
 1416              		.loc 1 135 21 view .LVU441
 1417 002c 2046     		mov	r0, r4
 1418 002e FFF7FEFF 		bl	lv_mem_free
 1419              	.LVL138:
 1420              	.L79:
 135:Middlewares/lvgl/src/font/lv_font_loader.c ****                 }
 1421              		.loc 1 135 21 is_stmt 0 view .LVU442
 1422              	.LBE28:
 156:Middlewares/lvgl/src/font/lv_font_loader.c ****                 (lv_font_fmt_txt_cmap_t *)dsc->cmaps;
 1423              		.loc 1 156 13 is_stmt 1 view .LVU443
 156:Middlewares/lvgl/src/font/lv_font_loader.c ****                 (lv_font_fmt_txt_cmap_t *)dsc->cmaps;
 1424              		.loc 1 156 38 is_stmt 0 view .LVU444
 1425 0032 B768     		ldr	r7, [r6, #8]
 1426              	.LVL139:
 159:Middlewares/lvgl/src/font/lv_font_loader.c ****                 for(int i = 0; i < dsc->cmap_num; ++i) {
 1427              		.loc 1 159 13 is_stmt 1 view .LVU445
 159:Middlewares/lvgl/src/font/lv_font_loader.c ****                 for(int i = 0; i < dsc->cmap_num; ++i) {
 1428              		.loc 1 159 15 is_stmt 0 view .LVU446
ARM GAS  /tmp/cci3f8Hk.s 			page 39


 1429 0034 5FB3     		cbz	r7, .L86
 1430              	.LBB29:
 160:Middlewares/lvgl/src/font/lv_font_loader.c ****                     if(NULL != cmaps[i].glyph_id_ofs_list)
 1431              		.loc 1 160 25 view .LVU447
 1432 0036 0024     		movs	r4, #0
 1433 0038 13E0     		b	.L85
 1434              	.LVL140:
 1435              	.L78:
 160:Middlewares/lvgl/src/font/lv_font_loader.c ****                     if(NULL != cmaps[i].glyph_id_ofs_list)
 1436              		.loc 1 160 25 view .LVU448
 1437              	.LBE29:
 1438              	.LBB30:
 139:Middlewares/lvgl/src/font/lv_font_loader.c ****                     (lv_font_fmt_txt_kern_classes_t *)dsc->kern_dsc;
 1439              		.loc 1 139 17 is_stmt 1 view .LVU449
 139:Middlewares/lvgl/src/font/lv_font_loader.c ****                     (lv_font_fmt_txt_kern_classes_t *)dsc->kern_dsc;
 1440              		.loc 1 139 50 is_stmt 0 view .LVU450
 1441 003a F468     		ldr	r4, [r6, #12]
 1442              	.LVL141:
 142:Middlewares/lvgl/src/font/lv_font_loader.c ****                     if(kern_dsc->class_pair_values)
 1443              		.loc 1 142 17 is_stmt 1 view .LVU451
 142:Middlewares/lvgl/src/font/lv_font_loader.c ****                     if(kern_dsc->class_pair_values)
 1444              		.loc 1 142 19 is_stmt 0 view .LVU452
 1445 003c 002C     		cmp	r4, #0
 1446 003e F8D0     		beq	.L79
 143:Middlewares/lvgl/src/font/lv_font_loader.c ****                         lv_mem_free((void *)kern_dsc->class_pair_values);
 1447              		.loc 1 143 21 is_stmt 1 view .LVU453
 143:Middlewares/lvgl/src/font/lv_font_loader.c ****                         lv_mem_free((void *)kern_dsc->class_pair_values);
 1448              		.loc 1 143 32 is_stmt 0 view .LVU454
 1449 0040 2068     		ldr	r0, [r4]
 1450              	.LVL142:
 143:Middlewares/lvgl/src/font/lv_font_loader.c ****                         lv_mem_free((void *)kern_dsc->class_pair_values);
 1451              		.loc 1 143 23 view .LVU455
 1452 0042 08B1     		cbz	r0, .L82
 144:Middlewares/lvgl/src/font/lv_font_loader.c **** 
 1453              		.loc 1 144 25 is_stmt 1 view .LVU456
 1454 0044 FFF7FEFF 		bl	lv_mem_free
 1455              	.LVL143:
 1456              	.L82:
 146:Middlewares/lvgl/src/font/lv_font_loader.c ****                         lv_mem_free((void *)kern_dsc->left_class_mapping);
 1457              		.loc 1 146 21 view .LVU457
 146:Middlewares/lvgl/src/font/lv_font_loader.c ****                         lv_mem_free((void *)kern_dsc->left_class_mapping);
 1458              		.loc 1 146 32 is_stmt 0 view .LVU458
 1459 0048 6068     		ldr	r0, [r4, #4]
 146:Middlewares/lvgl/src/font/lv_font_loader.c ****                         lv_mem_free((void *)kern_dsc->left_class_mapping);
 1460              		.loc 1 146 23 view .LVU459
 1461 004a 08B1     		cbz	r0, .L83
 147:Middlewares/lvgl/src/font/lv_font_loader.c **** 
 1462              		.loc 1 147 25 is_stmt 1 view .LVU460
 1463 004c FFF7FEFF 		bl	lv_mem_free
 1464              	.LVL144:
 1465              	.L83:
 149:Middlewares/lvgl/src/font/lv_font_loader.c ****                         lv_mem_free((void *)kern_dsc->right_class_mapping);
 1466              		.loc 1 149 21 view .LVU461
 149:Middlewares/lvgl/src/font/lv_font_loader.c ****                         lv_mem_free((void *)kern_dsc->right_class_mapping);
 1467              		.loc 1 149 32 is_stmt 0 view .LVU462
 1468 0050 A068     		ldr	r0, [r4, #8]
 149:Middlewares/lvgl/src/font/lv_font_loader.c ****                         lv_mem_free((void *)kern_dsc->right_class_mapping);
ARM GAS  /tmp/cci3f8Hk.s 			page 40


 1469              		.loc 1 149 23 view .LVU463
 1470 0052 08B1     		cbz	r0, .L84
 150:Middlewares/lvgl/src/font/lv_font_loader.c **** 
 1471              		.loc 1 150 25 is_stmt 1 view .LVU464
 1472 0054 FFF7FEFF 		bl	lv_mem_free
 1473              	.LVL145:
 1474              	.L84:
 152:Middlewares/lvgl/src/font/lv_font_loader.c ****                 }
 1475              		.loc 1 152 21 view .LVU465
 1476 0058 2046     		mov	r0, r4
 1477 005a FFF7FEFF 		bl	lv_mem_free
 1478              	.LVL146:
 1479 005e E8E7     		b	.L79
 1480              	.LVL147:
 1481              	.L88:
 152:Middlewares/lvgl/src/font/lv_font_loader.c ****                 }
 1482              		.loc 1 152 21 is_stmt 0 view .LVU466
 1483              	.LBE30:
 1484              	.LBB31:
 160:Middlewares/lvgl/src/font/lv_font_loader.c ****                     if(NULL != cmaps[i].glyph_id_ofs_list)
 1485              		.loc 1 160 51 is_stmt 1 discriminator 2 view .LVU467
 1486 0060 0134     		adds	r4, r4, #1
 1487              	.LVL148:
 1488              	.L85:
 160:Middlewares/lvgl/src/font/lv_font_loader.c ****                     if(NULL != cmaps[i].glyph_id_ofs_list)
 1489              		.loc 1 160 32 discriminator 1 view .LVU468
 160:Middlewares/lvgl/src/font/lv_font_loader.c ****                     if(NULL != cmaps[i].glyph_id_ofs_list)
 1490              		.loc 1 160 39 is_stmt 0 discriminator 1 view .LVU469
 1491 0062 738A     		ldrh	r3, [r6, #18]
 1492 0064 C3F30803 		ubfx	r3, r3, #0, #9
 160:Middlewares/lvgl/src/font/lv_font_loader.c ****                     if(NULL != cmaps[i].glyph_id_ofs_list)
 1493              		.loc 1 160 17 discriminator 1 view .LVU470
 1494 0068 A342     		cmp	r3, r4
 1495 006a 0DDD     		ble	.L97
 161:Middlewares/lvgl/src/font/lv_font_loader.c ****                         lv_mem_free((void *)cmaps[i].glyph_id_ofs_list);
 1496              		.loc 1 161 21 is_stmt 1 view .LVU471
 161:Middlewares/lvgl/src/font/lv_font_loader.c ****                         lv_mem_free((void *)cmaps[i].glyph_id_ofs_list);
 1497              		.loc 1 161 37 is_stmt 0 view .LVU472
 1498 006c 04EB8405 		add	r5, r4, r4, lsl #2
 1499 0070 07EB8505 		add	r5, r7, r5, lsl #2
 161:Middlewares/lvgl/src/font/lv_font_loader.c ****                         lv_mem_free((void *)cmaps[i].glyph_id_ofs_list);
 1500              		.loc 1 161 40 view .LVU473
 1501 0074 E868     		ldr	r0, [r5, #12]
 161:Middlewares/lvgl/src/font/lv_font_loader.c ****                         lv_mem_free((void *)cmaps[i].glyph_id_ofs_list);
 1502              		.loc 1 161 23 view .LVU474
 1503 0076 08B1     		cbz	r0, .L87
 162:Middlewares/lvgl/src/font/lv_font_loader.c ****                     if(NULL != cmaps[i].unicode_list)
 1504              		.loc 1 162 25 is_stmt 1 view .LVU475
 1505 0078 FFF7FEFF 		bl	lv_mem_free
 1506              	.LVL149:
 1507              	.L87:
 163:Middlewares/lvgl/src/font/lv_font_loader.c ****                         lv_mem_free((void *)cmaps[i].unicode_list);
 1508              		.loc 1 163 21 view .LVU476
 163:Middlewares/lvgl/src/font/lv_font_loader.c ****                         lv_mem_free((void *)cmaps[i].unicode_list);
 1509              		.loc 1 163 40 is_stmt 0 view .LVU477
 1510 007c A868     		ldr	r0, [r5, #8]
 163:Middlewares/lvgl/src/font/lv_font_loader.c ****                         lv_mem_free((void *)cmaps[i].unicode_list);
ARM GAS  /tmp/cci3f8Hk.s 			page 41


 1511              		.loc 1 163 23 view .LVU478
 1512 007e 0028     		cmp	r0, #0
 1513 0080 EED0     		beq	.L88
 164:Middlewares/lvgl/src/font/lv_font_loader.c ****                 }
 1514              		.loc 1 164 25 is_stmt 1 view .LVU479
 1515 0082 FFF7FEFF 		bl	lv_mem_free
 1516              	.LVL150:
 1517 0086 EBE7     		b	.L88
 1518              	.L97:
 164:Middlewares/lvgl/src/font/lv_font_loader.c ****                 }
 1519              		.loc 1 164 25 is_stmt 0 view .LVU480
 1520              	.LBE31:
 166:Middlewares/lvgl/src/font/lv_font_loader.c ****             }
 1521              		.loc 1 166 17 is_stmt 1 view .LVU481
 1522 0088 3846     		mov	r0, r7
 1523 008a FFF7FEFF 		bl	lv_mem_free
 1524              	.LVL151:
 1525              	.L86:
 169:Middlewares/lvgl/src/font/lv_font_loader.c ****                 lv_mem_free((void *)dsc->glyph_bitmap);
 1526              		.loc 1 169 13 view .LVU482
 169:Middlewares/lvgl/src/font/lv_font_loader.c ****                 lv_mem_free((void *)dsc->glyph_bitmap);
 1527              		.loc 1 169 27 is_stmt 0 view .LVU483
 1528 008e 3068     		ldr	r0, [r6]
 169:Middlewares/lvgl/src/font/lv_font_loader.c ****                 lv_mem_free((void *)dsc->glyph_bitmap);
 1529              		.loc 1 169 15 view .LVU484
 1530 0090 08B1     		cbz	r0, .L90
 170:Middlewares/lvgl/src/font/lv_font_loader.c ****             }
 1531              		.loc 1 170 17 is_stmt 1 view .LVU485
 1532 0092 FFF7FEFF 		bl	lv_mem_free
 1533              	.LVL152:
 1534              	.L90:
 172:Middlewares/lvgl/src/font/lv_font_loader.c ****                 lv_mem_free((void *)dsc->glyph_dsc);
 1535              		.loc 1 172 13 view .LVU486
 172:Middlewares/lvgl/src/font/lv_font_loader.c ****                 lv_mem_free((void *)dsc->glyph_dsc);
 1536              		.loc 1 172 27 is_stmt 0 view .LVU487
 1537 0096 7068     		ldr	r0, [r6, #4]
 172:Middlewares/lvgl/src/font/lv_font_loader.c ****                 lv_mem_free((void *)dsc->glyph_dsc);
 1538              		.loc 1 172 15 view .LVU488
 1539 0098 08B1     		cbz	r0, .L91
 173:Middlewares/lvgl/src/font/lv_font_loader.c ****             }
 1540              		.loc 1 173 17 is_stmt 1 view .LVU489
 1541 009a FFF7FEFF 		bl	lv_mem_free
 1542              	.LVL153:
 1543              	.L91:
 175:Middlewares/lvgl/src/font/lv_font_loader.c ****         }
 1544              		.loc 1 175 13 view .LVU490
 1545 009e 3046     		mov	r0, r6
 1546 00a0 FFF7FEFF 		bl	lv_mem_free
 1547              	.LVL154:
 1548              	.L77:
 175:Middlewares/lvgl/src/font/lv_font_loader.c ****         }
 1549              		.loc 1 175 13 is_stmt 0 view .LVU491
 1550              	.LBE27:
 177:Middlewares/lvgl/src/font/lv_font_loader.c ****     }
 1551              		.loc 1 177 9 is_stmt 1 view .LVU492
 1552 00a4 4046     		mov	r0, r8
 1553 00a6 FFF7FEFF 		bl	lv_mem_free
ARM GAS  /tmp/cci3f8Hk.s 			page 42


 1554              	.LVL155:
 1555              	.LBE26:
 179:Middlewares/lvgl/src/font/lv_font_loader.c **** 
 1556              		.loc 1 179 1 is_stmt 0 view .LVU493
 1557 00aa BDE8F081 		pop	{r4, r5, r6, r7, r8, pc}
 1558              	.LVL156:
 1559              	.L94:
 1560              	.LCFI16:
 1561              		.cfi_def_cfa_offset 0
 1562              		.cfi_restore 4
 1563              		.cfi_restore 5
 1564              		.cfi_restore 6
 1565              		.cfi_restore 7
 1566              		.cfi_restore 8
 1567              		.cfi_restore 14
 179:Middlewares/lvgl/src/font/lv_font_loader.c **** 
 1568              		.loc 1 179 1 view .LVU494
 1569 00ae 7047     		bx	lr
 1570              		.cfi_endproc
 1571              	.LFE185:
 1573              		.section	.rodata.load_kern.str1.4,"aMS",%progbits,1
 1574              		.align	2
 1575              	.LC2:
 1576 0000 6B65726E 		.ascii	"kern\000"
 1576      00
 1577              		.section	.text.load_kern,"ax",%progbits
 1578              		.align	1
 1579              		.global	load_kern
 1580              		.syntax unified
 1581              		.thumb
 1582              		.thumb_func
 1583              		.fpu fpv4-sp-d16
 1585              	load_kern:
 1586              	.LVL157:
 1587              	.LFB194:
 466:Middlewares/lvgl/src/font/lv_font_loader.c **** 
 467:Middlewares/lvgl/src/font/lv_font_loader.c **** /*
 468:Middlewares/lvgl/src/font/lv_font_loader.c ****  * Loads a `lv_font_t` from a binary file, given a `lv_fs_file_t`.
 469:Middlewares/lvgl/src/font/lv_font_loader.c ****  *
 470:Middlewares/lvgl/src/font/lv_font_loader.c ****  * Memory allocations on `lvgl_load_font` should be immediately zeroed and
 471:Middlewares/lvgl/src/font/lv_font_loader.c ****  * the pointer should be set on the `lv_font_t` data before any possible return.
 472:Middlewares/lvgl/src/font/lv_font_loader.c ****  *
 473:Middlewares/lvgl/src/font/lv_font_loader.c ****  * When something fails, it returns `false` and the memory on the `lv_font_t`
 474:Middlewares/lvgl/src/font/lv_font_loader.c ****  * still needs to be freed using `lv_font_free`.
 475:Middlewares/lvgl/src/font/lv_font_loader.c ****  *
 476:Middlewares/lvgl/src/font/lv_font_loader.c ****  * `lv_font_free` will assume that all non-null pointers are allocated and
 477:Middlewares/lvgl/src/font/lv_font_loader.c ****  * should be freed.
 478:Middlewares/lvgl/src/font/lv_font_loader.c ****  */
 479:Middlewares/lvgl/src/font/lv_font_loader.c **** static bool lvgl_load_font(lv_fs_file_t * fp, lv_font_t * font)
 480:Middlewares/lvgl/src/font/lv_font_loader.c **** {
 481:Middlewares/lvgl/src/font/lv_font_loader.c ****     lv_font_fmt_txt_dsc_t * font_dsc = (lv_font_fmt_txt_dsc_t *)
 482:Middlewares/lvgl/src/font/lv_font_loader.c ****                                        lv_mem_alloc(sizeof(lv_font_fmt_txt_dsc_t));
 483:Middlewares/lvgl/src/font/lv_font_loader.c **** 
 484:Middlewares/lvgl/src/font/lv_font_loader.c ****     memset(font_dsc, 0, sizeof(lv_font_fmt_txt_dsc_t));
 485:Middlewares/lvgl/src/font/lv_font_loader.c **** 
 486:Middlewares/lvgl/src/font/lv_font_loader.c ****     font->dsc = font_dsc;
 487:Middlewares/lvgl/src/font/lv_font_loader.c **** 
ARM GAS  /tmp/cci3f8Hk.s 			page 43


 488:Middlewares/lvgl/src/font/lv_font_loader.c ****     /*header*/
 489:Middlewares/lvgl/src/font/lv_font_loader.c ****     int32_t header_length = read_label(fp, 0, "head");
 490:Middlewares/lvgl/src/font/lv_font_loader.c ****     if(header_length < 0) {
 491:Middlewares/lvgl/src/font/lv_font_loader.c ****         return false;
 492:Middlewares/lvgl/src/font/lv_font_loader.c ****     }
 493:Middlewares/lvgl/src/font/lv_font_loader.c **** 
 494:Middlewares/lvgl/src/font/lv_font_loader.c ****     font_header_bin_t font_header;
 495:Middlewares/lvgl/src/font/lv_font_loader.c ****     if(lv_fs_read(fp, &font_header, sizeof(font_header_bin_t), NULL) != LV_FS_RES_OK) {
 496:Middlewares/lvgl/src/font/lv_font_loader.c ****         return false;
 497:Middlewares/lvgl/src/font/lv_font_loader.c ****     }
 498:Middlewares/lvgl/src/font/lv_font_loader.c **** 
 499:Middlewares/lvgl/src/font/lv_font_loader.c ****     font->base_line = -font_header.descent;
 500:Middlewares/lvgl/src/font/lv_font_loader.c ****     font->line_height = font_header.ascent - font_header.descent;
 501:Middlewares/lvgl/src/font/lv_font_loader.c ****     font->get_glyph_dsc = lv_font_get_glyph_dsc_fmt_txt;
 502:Middlewares/lvgl/src/font/lv_font_loader.c ****     font->get_glyph_bitmap = lv_font_get_bitmap_fmt_txt;
 503:Middlewares/lvgl/src/font/lv_font_loader.c ****     font->subpx = font_header.subpixels_mode;
 504:Middlewares/lvgl/src/font/lv_font_loader.c ****     font->underline_position = font_header.underline_position;
 505:Middlewares/lvgl/src/font/lv_font_loader.c ****     font->underline_thickness = font_header.underline_thickness;
 506:Middlewares/lvgl/src/font/lv_font_loader.c **** 
 507:Middlewares/lvgl/src/font/lv_font_loader.c ****     font_dsc->bpp = font_header.bits_per_pixel;
 508:Middlewares/lvgl/src/font/lv_font_loader.c ****     font_dsc->kern_scale = font_header.kerning_scale;
 509:Middlewares/lvgl/src/font/lv_font_loader.c ****     font_dsc->bitmap_format = font_header.compression_id;
 510:Middlewares/lvgl/src/font/lv_font_loader.c **** 
 511:Middlewares/lvgl/src/font/lv_font_loader.c ****     /*cmaps*/
 512:Middlewares/lvgl/src/font/lv_font_loader.c ****     uint32_t cmaps_start = header_length;
 513:Middlewares/lvgl/src/font/lv_font_loader.c ****     int32_t cmaps_length = load_cmaps(fp, font_dsc, cmaps_start);
 514:Middlewares/lvgl/src/font/lv_font_loader.c ****     if(cmaps_length < 0) {
 515:Middlewares/lvgl/src/font/lv_font_loader.c ****         return false;
 516:Middlewares/lvgl/src/font/lv_font_loader.c ****     }
 517:Middlewares/lvgl/src/font/lv_font_loader.c **** 
 518:Middlewares/lvgl/src/font/lv_font_loader.c ****     /*loca*/
 519:Middlewares/lvgl/src/font/lv_font_loader.c ****     uint32_t loca_start = cmaps_start + cmaps_length;
 520:Middlewares/lvgl/src/font/lv_font_loader.c ****     int32_t loca_length = read_label(fp, loca_start, "loca");
 521:Middlewares/lvgl/src/font/lv_font_loader.c ****     if(loca_length < 0) {
 522:Middlewares/lvgl/src/font/lv_font_loader.c ****         return false;
 523:Middlewares/lvgl/src/font/lv_font_loader.c ****     }
 524:Middlewares/lvgl/src/font/lv_font_loader.c **** 
 525:Middlewares/lvgl/src/font/lv_font_loader.c ****     uint32_t loca_count;
 526:Middlewares/lvgl/src/font/lv_font_loader.c ****     if(lv_fs_read(fp, &loca_count, sizeof(uint32_t), NULL) != LV_FS_RES_OK) {
 527:Middlewares/lvgl/src/font/lv_font_loader.c ****         return false;
 528:Middlewares/lvgl/src/font/lv_font_loader.c ****     }
 529:Middlewares/lvgl/src/font/lv_font_loader.c **** 
 530:Middlewares/lvgl/src/font/lv_font_loader.c ****     bool failed = false;
 531:Middlewares/lvgl/src/font/lv_font_loader.c ****     uint32_t * glyph_offset = lv_mem_alloc(sizeof(uint32_t) * (loca_count + 1));
 532:Middlewares/lvgl/src/font/lv_font_loader.c **** 
 533:Middlewares/lvgl/src/font/lv_font_loader.c ****     if(font_header.index_to_loc_format == 0) {
 534:Middlewares/lvgl/src/font/lv_font_loader.c ****         for(unsigned int i = 0; i < loca_count; ++i) {
 535:Middlewares/lvgl/src/font/lv_font_loader.c ****             uint16_t offset;
 536:Middlewares/lvgl/src/font/lv_font_loader.c ****             if(lv_fs_read(fp, &offset, sizeof(uint16_t), NULL) != LV_FS_RES_OK) {
 537:Middlewares/lvgl/src/font/lv_font_loader.c ****                 failed = true;
 538:Middlewares/lvgl/src/font/lv_font_loader.c ****                 break;
 539:Middlewares/lvgl/src/font/lv_font_loader.c ****             }
 540:Middlewares/lvgl/src/font/lv_font_loader.c ****             glyph_offset[i] = offset;
 541:Middlewares/lvgl/src/font/lv_font_loader.c ****         }
 542:Middlewares/lvgl/src/font/lv_font_loader.c ****     }
 543:Middlewares/lvgl/src/font/lv_font_loader.c ****     else if(font_header.index_to_loc_format == 1) {
 544:Middlewares/lvgl/src/font/lv_font_loader.c ****         if(lv_fs_read(fp, glyph_offset, loca_count * sizeof(uint32_t), NULL) != LV_FS_RES_OK) {
ARM GAS  /tmp/cci3f8Hk.s 			page 44


 545:Middlewares/lvgl/src/font/lv_font_loader.c ****             failed = true;
 546:Middlewares/lvgl/src/font/lv_font_loader.c ****         }
 547:Middlewares/lvgl/src/font/lv_font_loader.c ****     }
 548:Middlewares/lvgl/src/font/lv_font_loader.c ****     else {
 549:Middlewares/lvgl/src/font/lv_font_loader.c ****         LV_LOG_WARN("Unknown index_to_loc_format: %d.", font_header.index_to_loc_format);
 550:Middlewares/lvgl/src/font/lv_font_loader.c ****         failed = true;
 551:Middlewares/lvgl/src/font/lv_font_loader.c ****     }
 552:Middlewares/lvgl/src/font/lv_font_loader.c **** 
 553:Middlewares/lvgl/src/font/lv_font_loader.c ****     if(failed) {
 554:Middlewares/lvgl/src/font/lv_font_loader.c ****         lv_mem_free(glyph_offset);
 555:Middlewares/lvgl/src/font/lv_font_loader.c ****         return false;
 556:Middlewares/lvgl/src/font/lv_font_loader.c ****     }
 557:Middlewares/lvgl/src/font/lv_font_loader.c **** 
 558:Middlewares/lvgl/src/font/lv_font_loader.c ****     /*glyph*/
 559:Middlewares/lvgl/src/font/lv_font_loader.c ****     uint32_t glyph_start = loca_start + loca_length;
 560:Middlewares/lvgl/src/font/lv_font_loader.c ****     int32_t glyph_length = load_glyph(
 561:Middlewares/lvgl/src/font/lv_font_loader.c ****                                fp, font_dsc, glyph_start, glyph_offset, loca_count, &font_header);
 562:Middlewares/lvgl/src/font/lv_font_loader.c **** 
 563:Middlewares/lvgl/src/font/lv_font_loader.c ****     lv_mem_free(glyph_offset);
 564:Middlewares/lvgl/src/font/lv_font_loader.c **** 
 565:Middlewares/lvgl/src/font/lv_font_loader.c ****     if(glyph_length < 0) {
 566:Middlewares/lvgl/src/font/lv_font_loader.c ****         return false;
 567:Middlewares/lvgl/src/font/lv_font_loader.c ****     }
 568:Middlewares/lvgl/src/font/lv_font_loader.c **** 
 569:Middlewares/lvgl/src/font/lv_font_loader.c ****     if(font_header.tables_count < 4) {
 570:Middlewares/lvgl/src/font/lv_font_loader.c ****         font_dsc->kern_dsc = NULL;
 571:Middlewares/lvgl/src/font/lv_font_loader.c ****         font_dsc->kern_classes = 0;
 572:Middlewares/lvgl/src/font/lv_font_loader.c ****         font_dsc->kern_scale = 0;
 573:Middlewares/lvgl/src/font/lv_font_loader.c ****         return true;
 574:Middlewares/lvgl/src/font/lv_font_loader.c ****     }
 575:Middlewares/lvgl/src/font/lv_font_loader.c **** 
 576:Middlewares/lvgl/src/font/lv_font_loader.c ****     uint32_t kern_start = glyph_start + glyph_length;
 577:Middlewares/lvgl/src/font/lv_font_loader.c **** 
 578:Middlewares/lvgl/src/font/lv_font_loader.c ****     int32_t kern_length = load_kern(fp, font_dsc, font_header.glyph_id_format, kern_start);
 579:Middlewares/lvgl/src/font/lv_font_loader.c **** 
 580:Middlewares/lvgl/src/font/lv_font_loader.c ****     return kern_length >= 0;
 581:Middlewares/lvgl/src/font/lv_font_loader.c **** }
 582:Middlewares/lvgl/src/font/lv_font_loader.c **** 
 583:Middlewares/lvgl/src/font/lv_font_loader.c **** int32_t load_kern(lv_fs_file_t * fp, lv_font_fmt_txt_dsc_t * font_dsc, uint8_t format, uint32_t sta
 584:Middlewares/lvgl/src/font/lv_font_loader.c **** {
 1588              		.loc 1 584 1 is_stmt 1 view -0
 1589              		.cfi_startproc
 1590              		@ args = 0, pretend = 0, frame = 16
 1591              		@ frame_needed = 0, uses_anonymous_args = 0
 1592              		.loc 1 584 1 is_stmt 0 view .LVU496
 1593 0000 2DE9F047 		push	{r4, r5, r6, r7, r8, r9, r10, lr}
 1594              	.LCFI17:
 1595              		.cfi_def_cfa_offset 32
 1596              		.cfi_offset 4, -32
 1597              		.cfi_offset 5, -28
 1598              		.cfi_offset 6, -24
 1599              		.cfi_offset 7, -20
 1600              		.cfi_offset 8, -16
 1601              		.cfi_offset 9, -12
 1602              		.cfi_offset 10, -8
 1603              		.cfi_offset 14, -4
 1604 0004 84B0     		sub	sp, sp, #16
ARM GAS  /tmp/cci3f8Hk.s 			page 45


 1605              	.LCFI18:
 1606              		.cfi_def_cfa_offset 48
 1607 0006 0446     		mov	r4, r0
 1608 0008 0E46     		mov	r6, r1
 1609 000a 9046     		mov	r8, r2
 585:Middlewares/lvgl/src/font/lv_font_loader.c ****     int32_t kern_length = read_label(fp, start, "kern");
 1610              		.loc 1 585 5 is_stmt 1 view .LVU497
 1611              		.loc 1 585 27 is_stmt 0 view .LVU498
 1612 000c 694A     		ldr	r2, .L115
 1613              	.LVL158:
 1614              		.loc 1 585 27 view .LVU499
 1615 000e 1946     		mov	r1, r3
 1616              	.LVL159:
 1617              		.loc 1 585 27 view .LVU500
 1618 0010 FFF7FEFF 		bl	read_label
 1619              	.LVL160:
 586:Middlewares/lvgl/src/font/lv_font_loader.c ****     if(kern_length < 0) {
 1620              		.loc 1 586 5 is_stmt 1 view .LVU501
 1621              		.loc 1 586 7 is_stmt 0 view .LVU502
 1622 0014 071E     		subs	r7, r0, #0
 1623 0016 C0F2C780 		blt	.L111
 587:Middlewares/lvgl/src/font/lv_font_loader.c ****         return -1;
 588:Middlewares/lvgl/src/font/lv_font_loader.c ****     }
 589:Middlewares/lvgl/src/font/lv_font_loader.c **** 
 590:Middlewares/lvgl/src/font/lv_font_loader.c ****     uint8_t kern_format_type;
 1624              		.loc 1 590 5 is_stmt 1 view .LVU503
 591:Middlewares/lvgl/src/font/lv_font_loader.c ****     int32_t padding;
 1625              		.loc 1 591 5 view .LVU504
 592:Middlewares/lvgl/src/font/lv_font_loader.c ****     if(lv_fs_read(fp, &kern_format_type, sizeof(uint8_t), NULL) != LV_FS_RES_OK ||
 1626              		.loc 1 592 5 view .LVU505
 1627              		.loc 1 592 8 is_stmt 0 view .LVU506
 1628 001a 0023     		movs	r3, #0
 1629 001c 0122     		movs	r2, #1
 1630 001e 0DF10F01 		add	r1, sp, #15
 1631 0022 2046     		mov	r0, r4
 1632              	.LVL161:
 1633              		.loc 1 592 8 view .LVU507
 1634 0024 FFF7FEFF 		bl	lv_fs_read
 1635              	.LVL162:
 1636              		.loc 1 592 7 view .LVU508
 1637 0028 0028     		cmp	r0, #0
 1638 002a 74D1     		bne	.L100
 593:Middlewares/lvgl/src/font/lv_font_loader.c ****        lv_fs_read(fp, &padding, 3 * sizeof(uint8_t), NULL) != LV_FS_RES_OK) {
 1639              		.loc 1 593 8 discriminator 1 view .LVU509
 1640 002c 0023     		movs	r3, #0
 1641 002e 0322     		movs	r2, #3
 1642 0030 02A9     		add	r1, sp, #8
 1643 0032 2046     		mov	r0, r4
 1644 0034 FFF7FEFF 		bl	lv_fs_read
 1645              	.LVL163:
 592:Middlewares/lvgl/src/font/lv_font_loader.c ****     if(lv_fs_read(fp, &kern_format_type, sizeof(uint8_t), NULL) != LV_FS_RES_OK ||
 1646              		.loc 1 592 81 discriminator 1 view .LVU510
 1647 0038 0028     		cmp	r0, #0
 1648 003a 6CD1     		bne	.L100
 594:Middlewares/lvgl/src/font/lv_font_loader.c ****         return -1;
 595:Middlewares/lvgl/src/font/lv_font_loader.c ****     }
 596:Middlewares/lvgl/src/font/lv_font_loader.c **** 
ARM GAS  /tmp/cci3f8Hk.s 			page 46


 597:Middlewares/lvgl/src/font/lv_font_loader.c ****     if(0 == kern_format_type) { /*sorted pairs*/
 1649              		.loc 1 597 5 is_stmt 1 view .LVU511
 1650              		.loc 1 597 10 is_stmt 0 view .LVU512
 1651 003c 9DF80F30 		ldrb	r3, [sp, #15]	@ zero_extendqisi2
 1652              		.loc 1 597 7 view .LVU513
 1653 0040 002B     		cmp	r3, #0
 1654 0042 6BD0     		beq	.L114
 598:Middlewares/lvgl/src/font/lv_font_loader.c ****         lv_font_fmt_txt_kern_pair_t * kern_pair = lv_mem_alloc(sizeof(lv_font_fmt_txt_kern_pair_t))
 599:Middlewares/lvgl/src/font/lv_font_loader.c **** 
 600:Middlewares/lvgl/src/font/lv_font_loader.c ****         memset(kern_pair, 0, sizeof(lv_font_fmt_txt_kern_pair_t));
 601:Middlewares/lvgl/src/font/lv_font_loader.c **** 
 602:Middlewares/lvgl/src/font/lv_font_loader.c ****         font_dsc->kern_dsc = kern_pair;
 603:Middlewares/lvgl/src/font/lv_font_loader.c ****         font_dsc->kern_classes = 0;
 604:Middlewares/lvgl/src/font/lv_font_loader.c **** 
 605:Middlewares/lvgl/src/font/lv_font_loader.c ****         uint32_t glyph_entries;
 606:Middlewares/lvgl/src/font/lv_font_loader.c ****         if(lv_fs_read(fp, &glyph_entries, sizeof(uint32_t), NULL) != LV_FS_RES_OK) {
 607:Middlewares/lvgl/src/font/lv_font_loader.c ****             return -1;
 608:Middlewares/lvgl/src/font/lv_font_loader.c ****         }
 609:Middlewares/lvgl/src/font/lv_font_loader.c **** 
 610:Middlewares/lvgl/src/font/lv_font_loader.c ****         int ids_size;
 611:Middlewares/lvgl/src/font/lv_font_loader.c ****         if(format == 0) {
 612:Middlewares/lvgl/src/font/lv_font_loader.c ****             ids_size = sizeof(int8_t) * 2 * glyph_entries;
 613:Middlewares/lvgl/src/font/lv_font_loader.c ****         }
 614:Middlewares/lvgl/src/font/lv_font_loader.c ****         else {
 615:Middlewares/lvgl/src/font/lv_font_loader.c ****             ids_size = sizeof(int16_t) * 2 * glyph_entries;
 616:Middlewares/lvgl/src/font/lv_font_loader.c ****         }
 617:Middlewares/lvgl/src/font/lv_font_loader.c **** 
 618:Middlewares/lvgl/src/font/lv_font_loader.c ****         uint8_t * glyph_ids = lv_mem_alloc(ids_size);
 619:Middlewares/lvgl/src/font/lv_font_loader.c ****         int8_t * values = lv_mem_alloc(glyph_entries);
 620:Middlewares/lvgl/src/font/lv_font_loader.c **** 
 621:Middlewares/lvgl/src/font/lv_font_loader.c ****         kern_pair->glyph_ids_size = format;
 622:Middlewares/lvgl/src/font/lv_font_loader.c ****         kern_pair->pair_cnt = glyph_entries;
 623:Middlewares/lvgl/src/font/lv_font_loader.c ****         kern_pair->glyph_ids = glyph_ids;
 624:Middlewares/lvgl/src/font/lv_font_loader.c ****         kern_pair->values = values;
 625:Middlewares/lvgl/src/font/lv_font_loader.c **** 
 626:Middlewares/lvgl/src/font/lv_font_loader.c ****         if(lv_fs_read(fp, glyph_ids, ids_size, NULL) != LV_FS_RES_OK) {
 627:Middlewares/lvgl/src/font/lv_font_loader.c ****             return -1;
 628:Middlewares/lvgl/src/font/lv_font_loader.c ****         }
 629:Middlewares/lvgl/src/font/lv_font_loader.c **** 
 630:Middlewares/lvgl/src/font/lv_font_loader.c ****         if(lv_fs_read(fp, values, glyph_entries, NULL) != LV_FS_RES_OK) {
 631:Middlewares/lvgl/src/font/lv_font_loader.c ****             return -1;
 632:Middlewares/lvgl/src/font/lv_font_loader.c ****         }
 633:Middlewares/lvgl/src/font/lv_font_loader.c ****     }
 634:Middlewares/lvgl/src/font/lv_font_loader.c ****     else if(3 == kern_format_type) { /*array M*N of classes*/
 1655              		.loc 1 634 10 is_stmt 1 view .LVU514
 1656              		.loc 1 634 12 is_stmt 0 view .LVU515
 1657 0044 032B     		cmp	r3, #3
 1658 0046 40F0B280 		bne	.L112
 1659              	.LBB32:
 635:Middlewares/lvgl/src/font/lv_font_loader.c **** 
 636:Middlewares/lvgl/src/font/lv_font_loader.c ****         lv_font_fmt_txt_kern_classes_t * kern_classes = lv_mem_alloc(sizeof(lv_font_fmt_txt_kern_cl
 1660              		.loc 1 636 9 is_stmt 1 view .LVU516
 1661              		.loc 1 636 57 is_stmt 0 view .LVU517
 1662 004a 1020     		movs	r0, #16
 1663 004c FFF7FEFF 		bl	lv_mem_alloc
 1664              	.LVL164:
 1665 0050 0546     		mov	r5, r0
ARM GAS  /tmp/cci3f8Hk.s 			page 47


 1666              	.LVL165:
 637:Middlewares/lvgl/src/font/lv_font_loader.c **** 
 638:Middlewares/lvgl/src/font/lv_font_loader.c ****         memset(kern_classes, 0, sizeof(lv_font_fmt_txt_kern_classes_t));
 1667              		.loc 1 638 9 is_stmt 1 view .LVU518
 1668 0052 0023     		movs	r3, #0
 1669 0054 0360     		str	r3, [r0]	@ unaligned
 1670 0056 4360     		str	r3, [r0, #4]	@ unaligned
 1671 0058 8360     		str	r3, [r0, #8]	@ unaligned
 1672 005a C360     		str	r3, [r0, #12]	@ unaligned
 639:Middlewares/lvgl/src/font/lv_font_loader.c **** 
 640:Middlewares/lvgl/src/font/lv_font_loader.c ****         font_dsc->kern_dsc = kern_classes;
 1673              		.loc 1 640 9 view .LVU519
 1674              		.loc 1 640 28 is_stmt 0 view .LVU520
 1675 005c F060     		str	r0, [r6, #12]
 641:Middlewares/lvgl/src/font/lv_font_loader.c ****         font_dsc->kern_classes = 1;
 1676              		.loc 1 641 9 is_stmt 1 view .LVU521
 1677              		.loc 1 641 32 is_stmt 0 view .LVU522
 1678 005e F27C     		ldrb	r2, [r6, #19]	@ zero_extendqisi2
 1679 0060 42F02002 		orr	r2, r2, #32
 1680 0064 F274     		strb	r2, [r6, #19]
 642:Middlewares/lvgl/src/font/lv_font_loader.c **** 
 643:Middlewares/lvgl/src/font/lv_font_loader.c ****         uint16_t kern_class_mapping_length;
 1681              		.loc 1 643 9 is_stmt 1 view .LVU523
 644:Middlewares/lvgl/src/font/lv_font_loader.c ****         uint8_t kern_table_rows;
 1682              		.loc 1 644 9 view .LVU524
 645:Middlewares/lvgl/src/font/lv_font_loader.c ****         uint8_t kern_table_cols;
 1683              		.loc 1 645 9 view .LVU525
 646:Middlewares/lvgl/src/font/lv_font_loader.c **** 
 647:Middlewares/lvgl/src/font/lv_font_loader.c ****         if(lv_fs_read(fp, &kern_class_mapping_length, sizeof(uint16_t), NULL) != LV_FS_RES_OK ||
 1684              		.loc 1 647 9 view .LVU526
 1685              		.loc 1 647 12 is_stmt 0 view .LVU527
 1686 0066 0222     		movs	r2, #2
 1687 0068 01A9     		add	r1, sp, #4
 1688 006a 2046     		mov	r0, r4
 1689              	.LVL166:
 1690              		.loc 1 647 12 view .LVU528
 1691 006c FFF7FEFF 		bl	lv_fs_read
 1692              	.LVL167:
 1693              		.loc 1 647 11 view .LVU529
 1694 0070 0028     		cmp	r0, #0
 1695 0072 40F09680 		bne	.L108
 648:Middlewares/lvgl/src/font/lv_font_loader.c ****            lv_fs_read(fp, &kern_table_rows, sizeof(uint8_t), NULL) != LV_FS_RES_OK ||
 1696              		.loc 1 648 12 discriminator 1 view .LVU530
 1697 0076 0023     		movs	r3, #0
 1698 0078 0122     		movs	r2, #1
 1699 007a 0DF10201 		add	r1, sp, #2
 1700 007e 2046     		mov	r0, r4
 1701 0080 FFF7FEFF 		bl	lv_fs_read
 1702              	.LVL168:
 647:Middlewares/lvgl/src/font/lv_font_loader.c ****            lv_fs_read(fp, &kern_table_rows, sizeof(uint8_t), NULL) != LV_FS_RES_OK ||
 1703              		.loc 1 647 95 discriminator 1 view .LVU531
 1704 0084 0028     		cmp	r0, #0
 1705 0086 40F08C80 		bne	.L108
 649:Middlewares/lvgl/src/font/lv_font_loader.c ****            lv_fs_read(fp, &kern_table_cols, sizeof(uint8_t), NULL) != LV_FS_RES_OK) {
 1706              		.loc 1 649 12 view .LVU532
 1707 008a 0023     		movs	r3, #0
 1708 008c 0122     		movs	r2, #1
ARM GAS  /tmp/cci3f8Hk.s 			page 48


 1709 008e 0DF10301 		add	r1, sp, #3
 1710 0092 2046     		mov	r0, r4
 1711 0094 FFF7FEFF 		bl	lv_fs_read
 1712              	.LVL169:
 648:Middlewares/lvgl/src/font/lv_font_loader.c ****            lv_fs_read(fp, &kern_table_rows, sizeof(uint8_t), NULL) != LV_FS_RES_OK ||
 1713              		.loc 1 648 84 view .LVU533
 1714 0098 0028     		cmp	r0, #0
 1715 009a 40F08280 		bne	.L108
 650:Middlewares/lvgl/src/font/lv_font_loader.c ****             return -1;
 651:Middlewares/lvgl/src/font/lv_font_loader.c ****         }
 652:Middlewares/lvgl/src/font/lv_font_loader.c **** 
 653:Middlewares/lvgl/src/font/lv_font_loader.c ****         int kern_values_length = sizeof(int8_t) * kern_table_rows * kern_table_cols;
 1716              		.loc 1 653 9 is_stmt 1 view .LVU534
 1717              		.loc 1 653 49 is_stmt 0 view .LVU535
 1718 009e 9DF80230 		ldrb	r3, [sp, #2]	@ zero_extendqisi2
 1719              		.loc 1 653 67 view .LVU536
 1720 00a2 9DF803A0 		ldrb	r10, [sp, #3]	@ zero_extendqisi2
 1721 00a6 03FB0AFA 		mul	r10, r3, r10
 1722              	.LVL170:
 654:Middlewares/lvgl/src/font/lv_font_loader.c **** 
 655:Middlewares/lvgl/src/font/lv_font_loader.c ****         uint8_t * kern_left = lv_mem_alloc(kern_class_mapping_length);
 1723              		.loc 1 655 9 is_stmt 1 view .LVU537
 1724              		.loc 1 655 31 is_stmt 0 view .LVU538
 1725 00aa BDF80400 		ldrh	r0, [sp, #4]
 1726 00ae FFF7FEFF 		bl	lv_mem_alloc
 1727              	.LVL171:
 1728 00b2 0646     		mov	r6, r0
 1729              	.LVL172:
 656:Middlewares/lvgl/src/font/lv_font_loader.c ****         uint8_t * kern_right = lv_mem_alloc(kern_class_mapping_length);
 1730              		.loc 1 656 9 is_stmt 1 view .LVU539
 1731              		.loc 1 656 32 is_stmt 0 view .LVU540
 1732 00b4 BDF80400 		ldrh	r0, [sp, #4]
 1733              	.LVL173:
 1734              		.loc 1 656 32 view .LVU541
 1735 00b8 FFF7FEFF 		bl	lv_mem_alloc
 1736              	.LVL174:
 1737 00bc 8046     		mov	r8, r0
 1738              	.LVL175:
 657:Middlewares/lvgl/src/font/lv_font_loader.c ****         int8_t * kern_values = lv_mem_alloc(kern_values_length);
 1739              		.loc 1 657 9 is_stmt 1 view .LVU542
 1740              		.loc 1 657 32 is_stmt 0 view .LVU543
 1741 00be 5046     		mov	r0, r10
 1742              	.LVL176:
 1743              		.loc 1 657 32 view .LVU544
 1744 00c0 FFF7FEFF 		bl	lv_mem_alloc
 1745              	.LVL177:
 1746 00c4 8146     		mov	r9, r0
 1747              	.LVL178:
 658:Middlewares/lvgl/src/font/lv_font_loader.c **** 
 659:Middlewares/lvgl/src/font/lv_font_loader.c ****         kern_classes->left_class_mapping  = kern_left;
 1748              		.loc 1 659 9 is_stmt 1 view .LVU545
 1749              		.loc 1 659 43 is_stmt 0 view .LVU546
 1750 00c6 6E60     		str	r6, [r5, #4]
 660:Middlewares/lvgl/src/font/lv_font_loader.c ****         kern_classes->right_class_mapping = kern_right;
 1751              		.loc 1 660 9 is_stmt 1 view .LVU547
 1752              		.loc 1 660 43 is_stmt 0 view .LVU548
 1753 00c8 C5F80880 		str	r8, [r5, #8]
ARM GAS  /tmp/cci3f8Hk.s 			page 49


 661:Middlewares/lvgl/src/font/lv_font_loader.c ****         kern_classes->left_class_cnt = kern_table_rows;
 1754              		.loc 1 661 9 is_stmt 1 view .LVU549
 1755              		.loc 1 661 38 is_stmt 0 view .LVU550
 1756 00cc 9DF80230 		ldrb	r3, [sp, #2]	@ zero_extendqisi2
 1757 00d0 2B73     		strb	r3, [r5, #12]
 662:Middlewares/lvgl/src/font/lv_font_loader.c ****         kern_classes->right_class_cnt = kern_table_cols;
 1758              		.loc 1 662 9 is_stmt 1 view .LVU551
 1759              		.loc 1 662 39 is_stmt 0 view .LVU552
 1760 00d2 9DF80330 		ldrb	r3, [sp, #3]	@ zero_extendqisi2
 1761 00d6 6B73     		strb	r3, [r5, #13]
 663:Middlewares/lvgl/src/font/lv_font_loader.c ****         kern_classes->class_pair_values = kern_values;
 1762              		.loc 1 663 9 is_stmt 1 view .LVU553
 1763              		.loc 1 663 41 is_stmt 0 view .LVU554
 1764 00d8 2860     		str	r0, [r5]
 664:Middlewares/lvgl/src/font/lv_font_loader.c **** 
 665:Middlewares/lvgl/src/font/lv_font_loader.c ****         if(lv_fs_read(fp, kern_left, kern_class_mapping_length, NULL) != LV_FS_RES_OK ||
 1765              		.loc 1 665 9 is_stmt 1 view .LVU555
 1766              		.loc 1 665 12 is_stmt 0 view .LVU556
 1767 00da 0023     		movs	r3, #0
 1768 00dc BDF80420 		ldrh	r2, [sp, #4]
 1769 00e0 3146     		mov	r1, r6
 1770 00e2 2046     		mov	r0, r4
 1771              	.LVL179:
 1772              		.loc 1 665 12 view .LVU557
 1773 00e4 FFF7FEFF 		bl	lv_fs_read
 1774              	.LVL180:
 1775              		.loc 1 665 11 view .LVU558
 1776 00e8 0028     		cmp	r0, #0
 1777 00ea 5AD1     		bne	.L108
 666:Middlewares/lvgl/src/font/lv_font_loader.c ****            lv_fs_read(fp, kern_right, kern_class_mapping_length, NULL) != LV_FS_RES_OK ||
 1778              		.loc 1 666 12 discriminator 1 view .LVU559
 1779 00ec 0023     		movs	r3, #0
 1780 00ee BDF80420 		ldrh	r2, [sp, #4]
 1781 00f2 4146     		mov	r1, r8
 1782 00f4 2046     		mov	r0, r4
 1783 00f6 FFF7FEFF 		bl	lv_fs_read
 1784              	.LVL181:
 665:Middlewares/lvgl/src/font/lv_font_loader.c ****            lv_fs_read(fp, kern_right, kern_class_mapping_length, NULL) != LV_FS_RES_OK ||
 1785              		.loc 1 665 87 discriminator 1 view .LVU560
 1786 00fa 0028     		cmp	r0, #0
 1787 00fc 51D1     		bne	.L108
 667:Middlewares/lvgl/src/font/lv_font_loader.c ****            lv_fs_read(fp, kern_values, kern_values_length, NULL) != LV_FS_RES_OK) {
 1788              		.loc 1 667 12 view .LVU561
 1789 00fe 0023     		movs	r3, #0
 1790 0100 5246     		mov	r2, r10
 1791 0102 4946     		mov	r1, r9
 1792 0104 2046     		mov	r0, r4
 1793 0106 FFF7FEFF 		bl	lv_fs_read
 1794              	.LVL182:
 666:Middlewares/lvgl/src/font/lv_font_loader.c ****            lv_fs_read(fp, kern_right, kern_class_mapping_length, NULL) != LV_FS_RES_OK ||
 1795              		.loc 1 666 88 view .LVU562
 1796 010a 0028     		cmp	r0, #0
 1797 010c 49D1     		bne	.L108
 1798              	.LVL183:
 1799              	.L98:
 666:Middlewares/lvgl/src/font/lv_font_loader.c ****            lv_fs_read(fp, kern_right, kern_class_mapping_length, NULL) != LV_FS_RES_OK ||
 1800              		.loc 1 666 88 view .LVU563
ARM GAS  /tmp/cci3f8Hk.s 			page 50


 1801              	.LBE32:
 668:Middlewares/lvgl/src/font/lv_font_loader.c ****             return -1;
 669:Middlewares/lvgl/src/font/lv_font_loader.c ****         }
 670:Middlewares/lvgl/src/font/lv_font_loader.c ****     }
 671:Middlewares/lvgl/src/font/lv_font_loader.c ****     else {
 672:Middlewares/lvgl/src/font/lv_font_loader.c ****         LV_LOG_WARN("Unknown kern_format_type: %d", kern_format_type);
 673:Middlewares/lvgl/src/font/lv_font_loader.c ****         return -1;
 674:Middlewares/lvgl/src/font/lv_font_loader.c ****     }
 675:Middlewares/lvgl/src/font/lv_font_loader.c **** 
 676:Middlewares/lvgl/src/font/lv_font_loader.c ****     return kern_length;
 677:Middlewares/lvgl/src/font/lv_font_loader.c **** }
 1802              		.loc 1 677 1 view .LVU564
 1803 010e 3846     		mov	r0, r7
 1804 0110 04B0     		add	sp, sp, #16
 1805              	.LCFI19:
 1806              		.cfi_remember_state
 1807              		.cfi_def_cfa_offset 32
 1808              		@ sp needed
 1809 0112 BDE8F087 		pop	{r4, r5, r6, r7, r8, r9, r10, pc}
 1810              	.LVL184:
 1811              	.L100:
 1812              	.LCFI20:
 1813              		.cfi_restore_state
 594:Middlewares/lvgl/src/font/lv_font_loader.c ****     }
 1814              		.loc 1 594 9 is_stmt 1 view .LVU565
 594:Middlewares/lvgl/src/font/lv_font_loader.c ****     }
 1815              		.loc 1 594 16 is_stmt 0 view .LVU566
 1816 0116 4FF0FF37 		mov	r7, #-1
 1817              	.LVL185:
 594:Middlewares/lvgl/src/font/lv_font_loader.c ****     }
 1818              		.loc 1 594 16 view .LVU567
 1819 011a F8E7     		b	.L98
 1820              	.LVL186:
 1821              	.L114:
 1822              	.LBB33:
 598:Middlewares/lvgl/src/font/lv_font_loader.c **** 
 1823              		.loc 1 598 9 is_stmt 1 view .LVU568
 598:Middlewares/lvgl/src/font/lv_font_loader.c **** 
 1824              		.loc 1 598 51 is_stmt 0 view .LVU569
 1825 011c 0C20     		movs	r0, #12
 1826 011e FFF7FEFF 		bl	lv_mem_alloc
 1827              	.LVL187:
 1828 0122 0546     		mov	r5, r0
 1829              	.LVL188:
 600:Middlewares/lvgl/src/font/lv_font_loader.c **** 
 1830              		.loc 1 600 9 is_stmt 1 view .LVU570
 1831 0124 0023     		movs	r3, #0
 1832 0126 0360     		str	r3, [r0]	@ unaligned
 1833 0128 4360     		str	r3, [r0, #4]	@ unaligned
 1834 012a 8360     		str	r3, [r0, #8]	@ unaligned
 602:Middlewares/lvgl/src/font/lv_font_loader.c ****         font_dsc->kern_classes = 0;
 1835              		.loc 1 602 9 view .LVU571
 602:Middlewares/lvgl/src/font/lv_font_loader.c ****         font_dsc->kern_classes = 0;
 1836              		.loc 1 602 28 is_stmt 0 view .LVU572
 1837 012c F060     		str	r0, [r6, #12]
 603:Middlewares/lvgl/src/font/lv_font_loader.c **** 
 1838              		.loc 1 603 9 is_stmt 1 view .LVU573
ARM GAS  /tmp/cci3f8Hk.s 			page 51


 603:Middlewares/lvgl/src/font/lv_font_loader.c **** 
 1839              		.loc 1 603 32 is_stmt 0 view .LVU574
 1840 012e F27C     		ldrb	r2, [r6, #19]	@ zero_extendqisi2
 1841 0130 63F34512 		bfi	r2, r3, #5, #1
 1842 0134 F274     		strb	r2, [r6, #19]
 605:Middlewares/lvgl/src/font/lv_font_loader.c ****         if(lv_fs_read(fp, &glyph_entries, sizeof(uint32_t), NULL) != LV_FS_RES_OK) {
 1843              		.loc 1 605 9 is_stmt 1 view .LVU575
 606:Middlewares/lvgl/src/font/lv_font_loader.c ****             return -1;
 1844              		.loc 1 606 9 view .LVU576
 606:Middlewares/lvgl/src/font/lv_font_loader.c ****             return -1;
 1845              		.loc 1 606 12 is_stmt 0 view .LVU577
 1846 0136 0422     		movs	r2, #4
 1847 0138 0DEB0201 		add	r1, sp, r2
 1848 013c 2046     		mov	r0, r4
 1849              	.LVL189:
 606:Middlewares/lvgl/src/font/lv_font_loader.c ****             return -1;
 1850              		.loc 1 606 12 view .LVU578
 1851 013e FFF7FEFF 		bl	lv_fs_read
 1852              	.LVL190:
 606:Middlewares/lvgl/src/font/lv_font_loader.c ****             return -1;
 1853              		.loc 1 606 11 view .LVU579
 1854 0142 38BB     		cbnz	r0, .L103
 610:Middlewares/lvgl/src/font/lv_font_loader.c ****         if(format == 0) {
 1855              		.loc 1 610 9 is_stmt 1 view .LVU580
 611:Middlewares/lvgl/src/font/lv_font_loader.c ****             ids_size = sizeof(int8_t) * 2 * glyph_entries;
 1856              		.loc 1 611 9 view .LVU581
 611:Middlewares/lvgl/src/font/lv_font_loader.c ****             ids_size = sizeof(int8_t) * 2 * glyph_entries;
 1857              		.loc 1 611 11 is_stmt 0 view .LVU582
 1858 0144 B8F1000F 		cmp	r8, #0
 1859 0148 27D1     		bne	.L104
 612:Middlewares/lvgl/src/font/lv_font_loader.c ****         }
 1860              		.loc 1 612 13 is_stmt 1 view .LVU583
 612:Middlewares/lvgl/src/font/lv_font_loader.c ****         }
 1861              		.loc 1 612 43 is_stmt 0 view .LVU584
 1862 014a 019B     		ldr	r3, [sp, #4]
 1863 014c 4FEA4309 		lsl	r9, r3, #1
 1864              	.LVL191:
 1865              	.L105:
 618:Middlewares/lvgl/src/font/lv_font_loader.c ****         int8_t * values = lv_mem_alloc(glyph_entries);
 1866              		.loc 1 618 9 is_stmt 1 view .LVU585
 618:Middlewares/lvgl/src/font/lv_font_loader.c ****         int8_t * values = lv_mem_alloc(glyph_entries);
 1867              		.loc 1 618 31 is_stmt 0 view .LVU586
 1868 0150 4846     		mov	r0, r9
 1869 0152 FFF7FEFF 		bl	lv_mem_alloc
 1870              	.LVL192:
 1871 0156 0646     		mov	r6, r0
 1872              	.LVL193:
 619:Middlewares/lvgl/src/font/lv_font_loader.c **** 
 1873              		.loc 1 619 9 is_stmt 1 view .LVU587
 619:Middlewares/lvgl/src/font/lv_font_loader.c **** 
 1874              		.loc 1 619 27 is_stmt 0 view .LVU588
 1875 0158 0198     		ldr	r0, [sp, #4]
 1876              	.LVL194:
 619:Middlewares/lvgl/src/font/lv_font_loader.c **** 
 1877              		.loc 1 619 27 view .LVU589
 1878 015a FFF7FEFF 		bl	lv_mem_alloc
 1879              	.LVL195:
ARM GAS  /tmp/cci3f8Hk.s 			page 52


 1880 015e 8246     		mov	r10, r0
 1881              	.LVL196:
 621:Middlewares/lvgl/src/font/lv_font_loader.c ****         kern_pair->pair_cnt = glyph_entries;
 1882              		.loc 1 621 9 is_stmt 1 view .LVU590
 621:Middlewares/lvgl/src/font/lv_font_loader.c ****         kern_pair->pair_cnt = glyph_entries;
 1883              		.loc 1 621 35 is_stmt 0 view .LVU591
 1884 0160 EB7A     		ldrb	r3, [r5, #11]	@ zero_extendqisi2
 1885 0162 68F38713 		bfi	r3, r8, #6, #2
 1886              	.LVL197:
 621:Middlewares/lvgl/src/font/lv_font_loader.c ****         kern_pair->pair_cnt = glyph_entries;
 1887              		.loc 1 621 35 view .LVU592
 1888 0166 EB72     		strb	r3, [r5, #11]
 622:Middlewares/lvgl/src/font/lv_font_loader.c ****         kern_pair->glyph_ids = glyph_ids;
 1889              		.loc 1 622 9 is_stmt 1 view .LVU593
 622:Middlewares/lvgl/src/font/lv_font_loader.c ****         kern_pair->glyph_ids = glyph_ids;
 1890              		.loc 1 622 29 is_stmt 0 view .LVU594
 1891 0168 AB68     		ldr	r3, [r5, #8]
 1892 016a 019A     		ldr	r2, [sp, #4]
 1893 016c 62F31D03 		bfi	r3, r2, #0, #30
 1894 0170 AB60     		str	r3, [r5, #8]
 623:Middlewares/lvgl/src/font/lv_font_loader.c ****         kern_pair->values = values;
 1895              		.loc 1 623 9 is_stmt 1 view .LVU595
 623:Middlewares/lvgl/src/font/lv_font_loader.c ****         kern_pair->values = values;
 1896              		.loc 1 623 30 is_stmt 0 view .LVU596
 1897 0172 2E60     		str	r6, [r5]
 624:Middlewares/lvgl/src/font/lv_font_loader.c **** 
 1898              		.loc 1 624 9 is_stmt 1 view .LVU597
 624:Middlewares/lvgl/src/font/lv_font_loader.c **** 
 1899              		.loc 1 624 27 is_stmt 0 view .LVU598
 1900 0174 6860     		str	r0, [r5, #4]
 626:Middlewares/lvgl/src/font/lv_font_loader.c ****             return -1;
 1901              		.loc 1 626 9 is_stmt 1 view .LVU599
 626:Middlewares/lvgl/src/font/lv_font_loader.c ****             return -1;
 1902              		.loc 1 626 12 is_stmt 0 view .LVU600
 1903 0176 0023     		movs	r3, #0
 1904 0178 4A46     		mov	r2, r9
 1905 017a 3146     		mov	r1, r6
 1906 017c 2046     		mov	r0, r4
 1907              	.LVL198:
 626:Middlewares/lvgl/src/font/lv_font_loader.c ****             return -1;
 1908              		.loc 1 626 12 view .LVU601
 1909 017e FFF7FEFF 		bl	lv_fs_read
 1910              	.LVL199:
 626:Middlewares/lvgl/src/font/lv_font_loader.c ****             return -1;
 1911              		.loc 1 626 11 view .LVU602
 1912 0182 38B9     		cbnz	r0, .L103
 630:Middlewares/lvgl/src/font/lv_font_loader.c ****             return -1;
 1913              		.loc 1 630 9 is_stmt 1 view .LVU603
 630:Middlewares/lvgl/src/font/lv_font_loader.c ****             return -1;
 1914              		.loc 1 630 12 is_stmt 0 view .LVU604
 1915 0184 0023     		movs	r3, #0
 1916 0186 019A     		ldr	r2, [sp, #4]
 1917 0188 5146     		mov	r1, r10
 1918 018a 2046     		mov	r0, r4
 1919 018c FFF7FEFF 		bl	lv_fs_read
 1920              	.LVL200:
 630:Middlewares/lvgl/src/font/lv_font_loader.c ****             return -1;
ARM GAS  /tmp/cci3f8Hk.s 			page 53


 1921              		.loc 1 630 11 view .LVU605
 1922 0190 0028     		cmp	r0, #0
 1923 0192 BCD0     		beq	.L98
 1924              	.LVL201:
 1925              	.L103:
 607:Middlewares/lvgl/src/font/lv_font_loader.c ****         }
 1926              		.loc 1 607 20 discriminator 1 view .LVU606
 1927 0194 4FF0FF37 		mov	r7, #-1
 1928              	.LVL202:
 607:Middlewares/lvgl/src/font/lv_font_loader.c ****         }
 1929              		.loc 1 607 20 discriminator 1 view .LVU607
 1930 0198 B9E7     		b	.L98
 1931              	.LVL203:
 1932              	.L104:
 615:Middlewares/lvgl/src/font/lv_font_loader.c ****         }
 1933              		.loc 1 615 13 is_stmt 1 view .LVU608
 615:Middlewares/lvgl/src/font/lv_font_loader.c ****         }
 1934              		.loc 1 615 44 is_stmt 0 view .LVU609
 1935 019a 019B     		ldr	r3, [sp, #4]
 1936 019c 4FEA8309 		lsl	r9, r3, #2
 1937              	.LVL204:
 615:Middlewares/lvgl/src/font/lv_font_loader.c ****         }
 1938              		.loc 1 615 44 view .LVU610
 1939 01a0 D6E7     		b	.L105
 1940              	.LVL205:
 1941              	.L108:
 615:Middlewares/lvgl/src/font/lv_font_loader.c ****         }
 1942              		.loc 1 615 44 view .LVU611
 1943              	.LBE33:
 1944              	.LBB34:
 650:Middlewares/lvgl/src/font/lv_font_loader.c ****         }
 1945              		.loc 1 650 20 discriminator 1 view .LVU612
 1946 01a2 4FF0FF37 		mov	r7, #-1
 1947              	.LVL206:
 650:Middlewares/lvgl/src/font/lv_font_loader.c ****         }
 1948              		.loc 1 650 20 discriminator 1 view .LVU613
 1949 01a6 B2E7     		b	.L98
 1950              	.LVL207:
 1951              	.L111:
 650:Middlewares/lvgl/src/font/lv_font_loader.c ****         }
 1952              		.loc 1 650 20 discriminator 1 view .LVU614
 1953              	.LBE34:
 587:Middlewares/lvgl/src/font/lv_font_loader.c ****     }
 1954              		.loc 1 587 16 view .LVU615
 1955 01a8 4FF0FF37 		mov	r7, #-1
 1956 01ac AFE7     		b	.L98
 1957              	.LVL208:
 1958              	.L112:
 673:Middlewares/lvgl/src/font/lv_font_loader.c ****     }
 1959              		.loc 1 673 16 view .LVU616
 1960 01ae 4FF0FF37 		mov	r7, #-1
 1961              	.LVL209:
 673:Middlewares/lvgl/src/font/lv_font_loader.c ****     }
 1962              		.loc 1 673 16 view .LVU617
 1963 01b2 ACE7     		b	.L98
 1964              	.L116:
 1965              		.align	2
ARM GAS  /tmp/cci3f8Hk.s 			page 54


 1966              	.L115:
 1967 01b4 00000000 		.word	.LC2
 1968              		.cfi_endproc
 1969              	.LFE194:
 1971              		.section	.rodata.lvgl_load_font.str1.4,"aMS",%progbits,1
 1972              		.align	2
 1973              	.LC3:
 1974 0000 68656164 		.ascii	"head\000"
 1974      00
 1975 0005 000000   		.align	2
 1976              	.LC4:
 1977 0008 6C6F6361 		.ascii	"loca\000"
 1977      00
 1978              		.section	.text.lvgl_load_font,"ax",%progbits
 1979              		.align	1
 1980              		.syntax unified
 1981              		.thumb
 1982              		.thumb_func
 1983              		.fpu fpv4-sp-d16
 1985              	lvgl_load_font:
 1986              	.LVL210:
 1987              	.LFB193:
 480:Middlewares/lvgl/src/font/lv_font_loader.c ****     lv_font_fmt_txt_dsc_t * font_dsc = (lv_font_fmt_txt_dsc_t *)
 1988              		.loc 1 480 1 is_stmt 1 view -0
 1989              		.cfi_startproc
 1990              		@ args = 0, pretend = 0, frame = 48
 1991              		@ frame_needed = 0, uses_anonymous_args = 0
 480:Middlewares/lvgl/src/font/lv_font_loader.c ****     lv_font_fmt_txt_dsc_t * font_dsc = (lv_font_fmt_txt_dsc_t *)
 1992              		.loc 1 480 1 is_stmt 0 view .LVU619
 1993 0000 2DE9F043 		push	{r4, r5, r6, r7, r8, r9, lr}
 1994              	.LCFI21:
 1995              		.cfi_def_cfa_offset 28
 1996              		.cfi_offset 4, -28
 1997              		.cfi_offset 5, -24
 1998              		.cfi_offset 6, -20
 1999              		.cfi_offset 7, -16
 2000              		.cfi_offset 8, -12
 2001              		.cfi_offset 9, -8
 2002              		.cfi_offset 14, -4
 2003 0004 8FB0     		sub	sp, sp, #60
 2004              	.LCFI22:
 2005              		.cfi_def_cfa_offset 88
 2006 0006 0746     		mov	r7, r0
 2007 0008 0D46     		mov	r5, r1
 481:Middlewares/lvgl/src/font/lv_font_loader.c ****                                        lv_mem_alloc(sizeof(lv_font_fmt_txt_dsc_t));
 2008              		.loc 1 481 5 is_stmt 1 view .LVU620
 482:Middlewares/lvgl/src/font/lv_font_loader.c **** 
 2009              		.loc 1 482 40 is_stmt 0 view .LVU621
 2010 000a 1820     		movs	r0, #24
 2011              	.LVL211:
 482:Middlewares/lvgl/src/font/lv_font_loader.c **** 
 2012              		.loc 1 482 40 view .LVU622
 2013 000c FFF7FEFF 		bl	lv_mem_alloc
 2014              	.LVL212:
 482:Middlewares/lvgl/src/font/lv_font_loader.c **** 
 2015              		.loc 1 482 40 view .LVU623
 2016 0010 0446     		mov	r4, r0
ARM GAS  /tmp/cci3f8Hk.s 			page 55


 2017              	.LVL213:
 484:Middlewares/lvgl/src/font/lv_font_loader.c **** 
 2018              		.loc 1 484 5 is_stmt 1 view .LVU624
 2019 0012 0021     		movs	r1, #0
 2020 0014 0160     		str	r1, [r0]	@ unaligned
 2021 0016 4160     		str	r1, [r0, #4]	@ unaligned
 2022 0018 8160     		str	r1, [r0, #8]	@ unaligned
 2023 001a C160     		str	r1, [r0, #12]	@ unaligned
 2024 001c 0161     		str	r1, [r0, #16]	@ unaligned
 2025 001e 4161     		str	r1, [r0, #20]	@ unaligned
 486:Middlewares/lvgl/src/font/lv_font_loader.c **** 
 2026              		.loc 1 486 5 view .LVU625
 486:Middlewares/lvgl/src/font/lv_font_loader.c **** 
 2027              		.loc 1 486 15 is_stmt 0 view .LVU626
 2028 0020 2861     		str	r0, [r5, #16]
 489:Middlewares/lvgl/src/font/lv_font_loader.c ****     if(header_length < 0) {
 2029              		.loc 1 489 5 is_stmt 1 view .LVU627
 489:Middlewares/lvgl/src/font/lv_font_loader.c ****     if(header_length < 0) {
 2030              		.loc 1 489 29 is_stmt 0 view .LVU628
 2031 0022 574A     		ldr	r2, .L138
 2032 0024 3846     		mov	r0, r7
 2033              	.LVL214:
 489:Middlewares/lvgl/src/font/lv_font_loader.c ****     if(header_length < 0) {
 2034              		.loc 1 489 29 view .LVU629
 2035 0026 FFF7FEFF 		bl	read_label
 2036              	.LVL215:
 490:Middlewares/lvgl/src/font/lv_font_loader.c ****         return false;
 2037              		.loc 1 490 5 is_stmt 1 view .LVU630
 490:Middlewares/lvgl/src/font/lv_font_loader.c ****         return false;
 2038              		.loc 1 490 7 is_stmt 0 view .LVU631
 2039 002a 061E     		subs	r6, r0, #0
 2040 002c C0F29D80 		blt	.L126
 494:Middlewares/lvgl/src/font/lv_font_loader.c ****     if(lv_fs_read(fp, &font_header, sizeof(font_header_bin_t), NULL) != LV_FS_RES_OK) {
 2041              		.loc 1 494 5 is_stmt 1 view .LVU632
 495:Middlewares/lvgl/src/font/lv_font_loader.c ****         return false;
 2042              		.loc 1 495 5 view .LVU633
 495:Middlewares/lvgl/src/font/lv_font_loader.c ****         return false;
 2043              		.loc 1 495 8 is_stmt 0 view .LVU634
 2044 0030 0023     		movs	r3, #0
 2045 0032 2822     		movs	r2, #40
 2046 0034 04A9     		add	r1, sp, #16
 2047 0036 3846     		mov	r0, r7
 2048              	.LVL216:
 495:Middlewares/lvgl/src/font/lv_font_loader.c ****         return false;
 2049              		.loc 1 495 8 view .LVU635
 2050 0038 FFF7FEFF 		bl	lv_fs_read
 2051              	.LVL217:
 495:Middlewares/lvgl/src/font/lv_font_loader.c ****         return false;
 2052              		.loc 1 495 7 view .LVU636
 2053 003c 08B1     		cbz	r0, .L135
 496:Middlewares/lvgl/src/font/lv_font_loader.c ****     }
 2054              		.loc 1 496 16 view .LVU637
 2055 003e 0020     		movs	r0, #0
 2056 0040 94E0     		b	.L118
 2057              	.L135:
 499:Middlewares/lvgl/src/font/lv_font_loader.c ****     font->line_height = font_header.ascent - font_header.descent;
 2058              		.loc 1 499 5 is_stmt 1 view .LVU638
ARM GAS  /tmp/cci3f8Hk.s 			page 56


 499:Middlewares/lvgl/src/font/lv_font_loader.c ****     font->line_height = font_header.ascent - font_header.descent;
 2059              		.loc 1 499 35 is_stmt 0 view .LVU639
 2060 0042 BDF81A20 		ldrh	r2, [sp, #26]
 499:Middlewares/lvgl/src/font/lv_font_loader.c ****     font->line_height = font_header.ascent - font_header.descent;
 2061              		.loc 1 499 21 view .LVU640
 2062 0046 5342     		rsbs	r3, r2, #0
 2063 0048 6B81     		strh	r3, [r5, #10]	@ movhi
 500:Middlewares/lvgl/src/font/lv_font_loader.c ****     font->get_glyph_dsc = lv_font_get_glyph_dsc_fmt_txt;
 2064              		.loc 1 500 5 is_stmt 1 view .LVU641
 500:Middlewares/lvgl/src/font/lv_font_loader.c ****     font->get_glyph_dsc = lv_font_get_glyph_dsc_fmt_txt;
 2065              		.loc 1 500 36 is_stmt 0 view .LVU642
 2066 004a BDF81830 		ldrh	r3, [sp, #24]
 500:Middlewares/lvgl/src/font/lv_font_loader.c ****     font->get_glyph_dsc = lv_font_get_glyph_dsc_fmt_txt;
 2067              		.loc 1 500 44 view .LVU643
 2068 004e 9B1A     		subs	r3, r3, r2
 500:Middlewares/lvgl/src/font/lv_font_loader.c ****     font->get_glyph_dsc = lv_font_get_glyph_dsc_fmt_txt;
 2069              		.loc 1 500 23 view .LVU644
 2070 0050 2B81     		strh	r3, [r5, #8]	@ movhi
 501:Middlewares/lvgl/src/font/lv_font_loader.c ****     font->get_glyph_bitmap = lv_font_get_bitmap_fmt_txt;
 2071              		.loc 1 501 5 is_stmt 1 view .LVU645
 501:Middlewares/lvgl/src/font/lv_font_loader.c ****     font->get_glyph_bitmap = lv_font_get_bitmap_fmt_txt;
 2072              		.loc 1 501 25 is_stmt 0 view .LVU646
 2073 0052 4C4B     		ldr	r3, .L138+4
 2074 0054 2B60     		str	r3, [r5]
 502:Middlewares/lvgl/src/font/lv_font_loader.c ****     font->subpx = font_header.subpixels_mode;
 2075              		.loc 1 502 5 is_stmt 1 view .LVU647
 502:Middlewares/lvgl/src/font/lv_font_loader.c ****     font->subpx = font_header.subpixels_mode;
 2076              		.loc 1 502 28 is_stmt 0 view .LVU648
 2077 0056 4C4B     		ldr	r3, .L138+8
 2078 0058 6B60     		str	r3, [r5, #4]
 503:Middlewares/lvgl/src/font/lv_font_loader.c ****     font->underline_position = font_header.underline_position;
 2079              		.loc 1 503 5 is_stmt 1 view .LVU649
 503:Middlewares/lvgl/src/font/lv_font_loader.c ****     font->underline_position = font_header.underline_position;
 2080              		.loc 1 503 30 is_stmt 0 view .LVU650
 2081 005a 9DF83220 		ldrb	r2, [sp, #50]	@ zero_extendqisi2
 503:Middlewares/lvgl/src/font/lv_font_loader.c ****     font->underline_position = font_header.underline_position;
 2082              		.loc 1 503 17 view .LVU651
 2083 005e 2B7B     		ldrb	r3, [r5, #12]	@ zero_extendqisi2
 2084 0060 62F30103 		bfi	r3, r2, #0, #2
 2085 0064 2B73     		strb	r3, [r5, #12]
 504:Middlewares/lvgl/src/font/lv_font_loader.c ****     font->underline_thickness = font_header.underline_thickness;
 2086              		.loc 1 504 5 is_stmt 1 view .LVU652
 504:Middlewares/lvgl/src/font/lv_font_loader.c ****     font->underline_thickness = font_header.underline_thickness;
 2087              		.loc 1 504 43 is_stmt 0 view .LVU653
 2088 0066 BDF93430 		ldrsh	r3, [sp, #52]
 504:Middlewares/lvgl/src/font/lv_font_loader.c ****     font->underline_thickness = font_header.underline_thickness;
 2089              		.loc 1 504 30 view .LVU654
 2090 006a 6B73     		strb	r3, [r5, #13]
 505:Middlewares/lvgl/src/font/lv_font_loader.c **** 
 2091              		.loc 1 505 5 is_stmt 1 view .LVU655
 505:Middlewares/lvgl/src/font/lv_font_loader.c **** 
 2092              		.loc 1 505 44 is_stmt 0 view .LVU656
 2093 006c BDF83630 		ldrh	r3, [sp, #54]
 505:Middlewares/lvgl/src/font/lv_font_loader.c **** 
 2094              		.loc 1 505 31 view .LVU657
 2095 0070 AB73     		strb	r3, [r5, #14]
 507:Middlewares/lvgl/src/font/lv_font_loader.c ****     font_dsc->kern_scale = font_header.kerning_scale;
ARM GAS  /tmp/cci3f8Hk.s 			page 57


 2096              		.loc 1 507 5 is_stmt 1 view .LVU658
 507:Middlewares/lvgl/src/font/lv_font_loader.c ****     font_dsc->kern_scale = font_header.kerning_scale;
 2097              		.loc 1 507 32 is_stmt 0 view .LVU659
 2098 0072 9DF82D20 		ldrb	r2, [sp, #45]	@ zero_extendqisi2
 507:Middlewares/lvgl/src/font/lv_font_loader.c ****     font_dsc->kern_scale = font_header.kerning_scale;
 2099              		.loc 1 507 19 view .LVU660
 2100 0076 E37C     		ldrb	r3, [r4, #19]	@ zero_extendqisi2
 2101 0078 62F34403 		bfi	r3, r2, #1, #4
 2102 007c E374     		strb	r3, [r4, #19]
 508:Middlewares/lvgl/src/font/lv_font_loader.c ****     font_dsc->bitmap_format = font_header.compression_id;
 2103              		.loc 1 508 5 is_stmt 1 view .LVU661
 508:Middlewares/lvgl/src/font/lv_font_loader.c ****     font_dsc->bitmap_format = font_header.compression_id;
 2104              		.loc 1 508 39 is_stmt 0 view .LVU662
 2105 007e BDF82830 		ldrh	r3, [sp, #40]
 508:Middlewares/lvgl/src/font/lv_font_loader.c ****     font_dsc->bitmap_format = font_header.compression_id;
 2106              		.loc 1 508 26 view .LVU663
 2107 0082 2382     		strh	r3, [r4, #16]	@ movhi
 509:Middlewares/lvgl/src/font/lv_font_loader.c **** 
 2108              		.loc 1 509 5 is_stmt 1 view .LVU664
 509:Middlewares/lvgl/src/font/lv_font_loader.c **** 
 2109              		.loc 1 509 42 is_stmt 0 view .LVU665
 2110 0084 9DF83120 		ldrb	r2, [sp, #49]	@ zero_extendqisi2
 509:Middlewares/lvgl/src/font/lv_font_loader.c **** 
 2111              		.loc 1 509 29 view .LVU666
 2112 0088 E37C     		ldrb	r3, [r4, #19]	@ zero_extendqisi2
 2113 008a 62F38713 		bfi	r3, r2, #6, #2
 2114 008e E374     		strb	r3, [r4, #19]
 512:Middlewares/lvgl/src/font/lv_font_loader.c ****     int32_t cmaps_length = load_cmaps(fp, font_dsc, cmaps_start);
 2115              		.loc 1 512 5 is_stmt 1 view .LVU667
 2116              	.LVL218:
 513:Middlewares/lvgl/src/font/lv_font_loader.c ****     if(cmaps_length < 0) {
 2117              		.loc 1 513 5 view .LVU668
 513:Middlewares/lvgl/src/font/lv_font_loader.c ****     if(cmaps_length < 0) {
 2118              		.loc 1 513 28 is_stmt 0 view .LVU669
 2119 0090 3246     		mov	r2, r6
 2120 0092 2146     		mov	r1, r4
 2121 0094 3846     		mov	r0, r7
 2122 0096 FFF7FEFF 		bl	load_cmaps
 2123              	.LVL219:
 514:Middlewares/lvgl/src/font/lv_font_loader.c ****         return false;
 2124              		.loc 1 514 5 is_stmt 1 view .LVU670
 514:Middlewares/lvgl/src/font/lv_font_loader.c ****         return false;
 2125              		.loc 1 514 7 is_stmt 0 view .LVU671
 2126 009a 0028     		cmp	r0, #0
 514:Middlewares/lvgl/src/font/lv_font_loader.c ****         return false;
 2127              		.loc 1 514 7 view .LVU672
 2128 009c 69DB     		blt	.L128
 519:Middlewares/lvgl/src/font/lv_font_loader.c ****     int32_t loca_length = read_label(fp, loca_start, "loca");
 2129              		.loc 1 519 5 is_stmt 1 view .LVU673
 519:Middlewares/lvgl/src/font/lv_font_loader.c ****     int32_t loca_length = read_label(fp, loca_start, "loca");
 2130              		.loc 1 519 14 is_stmt 0 view .LVU674
 2131 009e 0644     		add	r6, r6, r0
 2132              	.LVL220:
 520:Middlewares/lvgl/src/font/lv_font_loader.c ****     if(loca_length < 0) {
 2133              		.loc 1 520 5 is_stmt 1 view .LVU675
 520:Middlewares/lvgl/src/font/lv_font_loader.c ****     if(loca_length < 0) {
 2134              		.loc 1 520 27 is_stmt 0 view .LVU676
ARM GAS  /tmp/cci3f8Hk.s 			page 58


 2135 00a0 3A4A     		ldr	r2, .L138+12
 2136 00a2 3146     		mov	r1, r6
 2137 00a4 3846     		mov	r0, r7
 2138              	.LVL221:
 520:Middlewares/lvgl/src/font/lv_font_loader.c ****     if(loca_length < 0) {
 2139              		.loc 1 520 27 view .LVU677
 2140 00a6 FFF7FEFF 		bl	read_label
 2141              	.LVL222:
 521:Middlewares/lvgl/src/font/lv_font_loader.c ****         return false;
 2142              		.loc 1 521 5 is_stmt 1 view .LVU678
 521:Middlewares/lvgl/src/font/lv_font_loader.c ****         return false;
 2143              		.loc 1 521 7 is_stmt 0 view .LVU679
 2144 00aa B0F10008 		subs	r8, r0, #0
 2145 00ae 62DB     		blt	.L129
 525:Middlewares/lvgl/src/font/lv_font_loader.c ****     if(lv_fs_read(fp, &loca_count, sizeof(uint32_t), NULL) != LV_FS_RES_OK) {
 2146              		.loc 1 525 5 is_stmt 1 view .LVU680
 526:Middlewares/lvgl/src/font/lv_font_loader.c ****         return false;
 2147              		.loc 1 526 5 view .LVU681
 526:Middlewares/lvgl/src/font/lv_font_loader.c ****         return false;
 2148              		.loc 1 526 8 is_stmt 0 view .LVU682
 2149 00b0 0023     		movs	r3, #0
 2150 00b2 0422     		movs	r2, #4
 2151 00b4 03A9     		add	r1, sp, #12
 2152 00b6 3846     		mov	r0, r7
 2153              	.LVL223:
 526:Middlewares/lvgl/src/font/lv_font_loader.c ****         return false;
 2154              		.loc 1 526 8 view .LVU683
 2155 00b8 FFF7FEFF 		bl	lv_fs_read
 2156              	.LVL224:
 526:Middlewares/lvgl/src/font/lv_font_loader.c ****         return false;
 2157              		.loc 1 526 7 view .LVU684
 2158 00bc 08B1     		cbz	r0, .L136
 527:Middlewares/lvgl/src/font/lv_font_loader.c ****     }
 2159              		.loc 1 527 16 view .LVU685
 2160 00be 0020     		movs	r0, #0
 2161 00c0 54E0     		b	.L118
 2162              	.L136:
 530:Middlewares/lvgl/src/font/lv_font_loader.c ****     uint32_t * glyph_offset = lv_mem_alloc(sizeof(uint32_t) * (loca_count + 1));
 2163              		.loc 1 530 5 is_stmt 1 view .LVU686
 2164              	.LVL225:
 531:Middlewares/lvgl/src/font/lv_font_loader.c **** 
 2165              		.loc 1 531 5 view .LVU687
 531:Middlewares/lvgl/src/font/lv_font_loader.c **** 
 2166              		.loc 1 531 75 is_stmt 0 view .LVU688
 2167 00c2 0398     		ldr	r0, [sp, #12]
 2168 00c4 0130     		adds	r0, r0, #1
 531:Middlewares/lvgl/src/font/lv_font_loader.c **** 
 2169              		.loc 1 531 31 view .LVU689
 2170 00c6 8000     		lsls	r0, r0, #2
 2171 00c8 FFF7FEFF 		bl	lv_mem_alloc
 2172              	.LVL226:
 2173 00cc 8146     		mov	r9, r0
 2174              	.LVL227:
 533:Middlewares/lvgl/src/font/lv_font_loader.c ****         for(unsigned int i = 0; i < loca_count; ++i) {
 2175              		.loc 1 533 5 is_stmt 1 view .LVU690
 533:Middlewares/lvgl/src/font/lv_font_loader.c ****         for(unsigned int i = 0; i < loca_count; ++i) {
 2176              		.loc 1 533 19 is_stmt 0 view .LVU691
ARM GAS  /tmp/cci3f8Hk.s 			page 59


 2177 00ce 9DF82A30 		ldrb	r3, [sp, #42]	@ zero_extendqisi2
 533:Middlewares/lvgl/src/font/lv_font_loader.c ****         for(unsigned int i = 0; i < loca_count; ++i) {
 2178              		.loc 1 533 7 view .LVU692
 2179 00d2 33B1     		cbz	r3, .L131
 543:Middlewares/lvgl/src/font/lv_font_loader.c ****         if(lv_fs_read(fp, glyph_offset, loca_count * sizeof(uint32_t), NULL) != LV_FS_RES_OK) {
 2180              		.loc 1 543 10 is_stmt 1 view .LVU693
 543:Middlewares/lvgl/src/font/lv_font_loader.c ****         if(lv_fs_read(fp, glyph_offset, loca_count * sizeof(uint32_t), NULL) != LV_FS_RES_OK) {
 2181              		.loc 1 543 12 is_stmt 0 view .LVU694
 2182 00d4 012B     		cmp	r3, #1
 2183 00d6 17D0     		beq	.L137
 2184              	.LVL228:
 2185              	.L122:
 554:Middlewares/lvgl/src/font/lv_font_loader.c ****         return false;
 2186              		.loc 1 554 9 is_stmt 1 view .LVU695
 2187 00d8 4846     		mov	r0, r9
 2188 00da FFF7FEFF 		bl	lv_mem_free
 2189              	.LVL229:
 555:Middlewares/lvgl/src/font/lv_font_loader.c ****     }
 2190              		.loc 1 555 9 view .LVU696
 555:Middlewares/lvgl/src/font/lv_font_loader.c ****     }
 2191              		.loc 1 555 16 is_stmt 0 view .LVU697
 2192 00de 0020     		movs	r0, #0
 2193 00e0 44E0     		b	.L118
 2194              	.LVL230:
 2195              	.L131:
 2196              	.LBB35:
 534:Middlewares/lvgl/src/font/lv_font_loader.c ****             uint16_t offset;
 2197              		.loc 1 534 26 view .LVU698
 2198 00e2 0025     		movs	r5, #0
 2199              	.LVL231:
 2200              	.L119:
 534:Middlewares/lvgl/src/font/lv_font_loader.c ****             uint16_t offset;
 2201              		.loc 1 534 33 is_stmt 1 discriminator 1 view .LVU699
 534:Middlewares/lvgl/src/font/lv_font_loader.c ****             uint16_t offset;
 2202              		.loc 1 534 35 is_stmt 0 discriminator 1 view .LVU700
 2203 00e4 039B     		ldr	r3, [sp, #12]
 534:Middlewares/lvgl/src/font/lv_font_loader.c ****             uint16_t offset;
 2204              		.loc 1 534 9 discriminator 1 view .LVU701
 2205 00e6 AB42     		cmp	r3, r5
 2206 00e8 17D9     		bls	.L124
 2207              	.LBB36:
 535:Middlewares/lvgl/src/font/lv_font_loader.c ****             if(lv_fs_read(fp, &offset, sizeof(uint16_t), NULL) != LV_FS_RES_OK) {
 2208              		.loc 1 535 13 is_stmt 1 view .LVU702
 536:Middlewares/lvgl/src/font/lv_font_loader.c ****                 failed = true;
 2209              		.loc 1 536 13 view .LVU703
 536:Middlewares/lvgl/src/font/lv_font_loader.c ****                 failed = true;
 2210              		.loc 1 536 16 is_stmt 0 view .LVU704
 2211 00ea 0023     		movs	r3, #0
 2212 00ec 0222     		movs	r2, #2
 2213 00ee 0DF10A01 		add	r1, sp, #10
 2214 00f2 3846     		mov	r0, r7
 2215 00f4 FFF7FEFF 		bl	lv_fs_read
 2216              	.LVL232:
 536:Middlewares/lvgl/src/font/lv_font_loader.c ****                 failed = true;
 2217              		.loc 1 536 15 view .LVU705
 2218 00f8 0028     		cmp	r0, #0
 2219 00fa EDD1     		bne	.L122
ARM GAS  /tmp/cci3f8Hk.s 			page 60


 540:Middlewares/lvgl/src/font/lv_font_loader.c ****         }
 2220              		.loc 1 540 13 is_stmt 1 view .LVU706
 540:Middlewares/lvgl/src/font/lv_font_loader.c ****         }
 2221              		.loc 1 540 29 is_stmt 0 view .LVU707
 2222 00fc BDF80A30 		ldrh	r3, [sp, #10]
 2223 0100 49F82530 		str	r3, [r9, r5, lsl #2]
 2224              	.LBE36:
 534:Middlewares/lvgl/src/font/lv_font_loader.c ****             uint16_t offset;
 2225              		.loc 1 534 49 is_stmt 1 view .LVU708
 2226 0104 0135     		adds	r5, r5, #1
 2227              	.LVL233:
 534:Middlewares/lvgl/src/font/lv_font_loader.c ****             uint16_t offset;
 2228              		.loc 1 534 49 is_stmt 0 view .LVU709
 2229 0106 EDE7     		b	.L119
 2230              	.LVL234:
 2231              	.L137:
 534:Middlewares/lvgl/src/font/lv_font_loader.c ****             uint16_t offset;
 2232              		.loc 1 534 49 view .LVU710
 2233              	.LBE35:
 544:Middlewares/lvgl/src/font/lv_font_loader.c ****             failed = true;
 2234              		.loc 1 544 9 is_stmt 1 view .LVU711
 544:Middlewares/lvgl/src/font/lv_font_loader.c ****             failed = true;
 2235              		.loc 1 544 12 is_stmt 0 view .LVU712
 2236 0108 0023     		movs	r3, #0
 2237 010a 039A     		ldr	r2, [sp, #12]
 2238 010c 9200     		lsls	r2, r2, #2
 2239 010e 0146     		mov	r1, r0
 2240 0110 3846     		mov	r0, r7
 2241              	.LVL235:
 544:Middlewares/lvgl/src/font/lv_font_loader.c ****             failed = true;
 2242              		.loc 1 544 12 view .LVU713
 2243 0112 FFF7FEFF 		bl	lv_fs_read
 2244              	.LVL236:
 544:Middlewares/lvgl/src/font/lv_font_loader.c ****             failed = true;
 2245              		.loc 1 544 11 view .LVU714
 2246 0116 0028     		cmp	r0, #0
 2247 0118 DED1     		bne	.L122
 2248              	.LVL237:
 2249              	.L124:
 559:Middlewares/lvgl/src/font/lv_font_loader.c ****     int32_t glyph_length = load_glyph(
 2250              		.loc 1 559 5 is_stmt 1 view .LVU715
 559:Middlewares/lvgl/src/font/lv_font_loader.c ****     int32_t glyph_length = load_glyph(
 2251              		.loc 1 559 14 is_stmt 0 view .LVU716
 2252 011a 4644     		add	r6, r6, r8
 2253              	.LVL238:
 560:Middlewares/lvgl/src/font/lv_font_loader.c ****                                fp, font_dsc, glyph_start, glyph_offset, loca_count, &font_header);
 2254              		.loc 1 560 5 is_stmt 1 view .LVU717
 560:Middlewares/lvgl/src/font/lv_font_loader.c ****                                fp, font_dsc, glyph_start, glyph_offset, loca_count, &font_header);
 2255              		.loc 1 560 28 is_stmt 0 view .LVU718
 2256 011c 04AB     		add	r3, sp, #16
 2257 011e 0193     		str	r3, [sp, #4]
 2258 0120 039B     		ldr	r3, [sp, #12]
 2259 0122 0093     		str	r3, [sp]
 2260 0124 4B46     		mov	r3, r9
 2261 0126 3246     		mov	r2, r6
 2262 0128 2146     		mov	r1, r4
 2263 012a 3846     		mov	r0, r7
ARM GAS  /tmp/cci3f8Hk.s 			page 61


 2264 012c FFF7FEFF 		bl	load_glyph
 2265              	.LVL239:
 2266 0130 0546     		mov	r5, r0
 2267              	.LVL240:
 563:Middlewares/lvgl/src/font/lv_font_loader.c **** 
 2268              		.loc 1 563 5 is_stmt 1 view .LVU719
 2269 0132 4846     		mov	r0, r9
 2270              	.LVL241:
 563:Middlewares/lvgl/src/font/lv_font_loader.c **** 
 2271              		.loc 1 563 5 is_stmt 0 view .LVU720
 2272 0134 FFF7FEFF 		bl	lv_mem_free
 2273              	.LVL242:
 565:Middlewares/lvgl/src/font/lv_font_loader.c ****         return false;
 2274              		.loc 1 565 5 is_stmt 1 view .LVU721
 565:Middlewares/lvgl/src/font/lv_font_loader.c ****         return false;
 2275              		.loc 1 565 7 is_stmt 0 view .LVU722
 2276 0138 002D     		cmp	r5, #0
 2277 013a 1EDB     		blt	.L132
 569:Middlewares/lvgl/src/font/lv_font_loader.c ****         font_dsc->kern_dsc = NULL;
 2278              		.loc 1 569 5 is_stmt 1 view .LVU723
 569:Middlewares/lvgl/src/font/lv_font_loader.c ****         font_dsc->kern_dsc = NULL;
 2279              		.loc 1 569 19 is_stmt 0 view .LVU724
 2280 013c BDF81430 		ldrh	r3, [sp, #20]
 569:Middlewares/lvgl/src/font/lv_font_loader.c ****         font_dsc->kern_dsc = NULL;
 2281              		.loc 1 569 7 view .LVU725
 2282 0140 032B     		cmp	r3, #3
 2283 0142 08D8     		bhi	.L125
 570:Middlewares/lvgl/src/font/lv_font_loader.c ****         font_dsc->kern_classes = 0;
 2284              		.loc 1 570 9 is_stmt 1 view .LVU726
 570:Middlewares/lvgl/src/font/lv_font_loader.c ****         font_dsc->kern_classes = 0;
 2285              		.loc 1 570 28 is_stmt 0 view .LVU727
 2286 0144 0023     		movs	r3, #0
 2287 0146 E360     		str	r3, [r4, #12]
 571:Middlewares/lvgl/src/font/lv_font_loader.c ****         font_dsc->kern_scale = 0;
 2288              		.loc 1 571 9 is_stmt 1 view .LVU728
 571:Middlewares/lvgl/src/font/lv_font_loader.c ****         font_dsc->kern_scale = 0;
 2289              		.loc 1 571 32 is_stmt 0 view .LVU729
 2290 0148 E27C     		ldrb	r2, [r4, #19]	@ zero_extendqisi2
 2291 014a 63F34512 		bfi	r2, r3, #5, #1
 2292 014e E274     		strb	r2, [r4, #19]
 572:Middlewares/lvgl/src/font/lv_font_loader.c ****         return true;
 2293              		.loc 1 572 9 is_stmt 1 view .LVU730
 572:Middlewares/lvgl/src/font/lv_font_loader.c ****         return true;
 2294              		.loc 1 572 30 is_stmt 0 view .LVU731
 2295 0150 2382     		strh	r3, [r4, #16]	@ movhi
 573:Middlewares/lvgl/src/font/lv_font_loader.c ****     }
 2296              		.loc 1 573 9 is_stmt 1 view .LVU732
 573:Middlewares/lvgl/src/font/lv_font_loader.c ****     }
 2297              		.loc 1 573 16 is_stmt 0 view .LVU733
 2298 0152 0120     		movs	r0, #1
 2299 0154 0AE0     		b	.L118
 2300              	.L125:
 576:Middlewares/lvgl/src/font/lv_font_loader.c **** 
 2301              		.loc 1 576 5 is_stmt 1 view .LVU734
 2302              	.LVL243:
 578:Middlewares/lvgl/src/font/lv_font_loader.c **** 
 2303              		.loc 1 578 5 view .LVU735
ARM GAS  /tmp/cci3f8Hk.s 			page 62


 578:Middlewares/lvgl/src/font/lv_font_loader.c **** 
 2304              		.loc 1 578 27 is_stmt 0 view .LVU736
 2305 0156 AB19     		adds	r3, r5, r6
 2306              	.LVL244:
 578:Middlewares/lvgl/src/font/lv_font_loader.c **** 
 2307              		.loc 1 578 27 view .LVU737
 2308 0158 9DF82B20 		ldrb	r2, [sp, #43]	@ zero_extendqisi2
 2309 015c 2146     		mov	r1, r4
 2310 015e 3846     		mov	r0, r7
 2311 0160 FFF7FEFF 		bl	load_kern
 2312              	.LVL245:
 580:Middlewares/lvgl/src/font/lv_font_loader.c **** }
 2313              		.loc 1 580 5 is_stmt 1 view .LVU738
 580:Middlewares/lvgl/src/font/lv_font_loader.c **** }
 2314              		.loc 1 580 24 is_stmt 0 view .LVU739
 2315 0164 C043     		mvns	r0, r0
 2316              	.LVL246:
 580:Middlewares/lvgl/src/font/lv_font_loader.c **** }
 2317              		.loc 1 580 24 view .LVU740
 2318 0166 C00F     		lsrs	r0, r0, #31
 2319              	.LVL247:
 580:Middlewares/lvgl/src/font/lv_font_loader.c **** }
 2320              		.loc 1 580 24 view .LVU741
 2321 0168 00E0     		b	.L118
 2322              	.LVL248:
 2323              	.L126:
 491:Middlewares/lvgl/src/font/lv_font_loader.c ****     }
 2324              		.loc 1 491 16 view .LVU742
 2325 016a 0020     		movs	r0, #0
 2326              	.LVL249:
 2327              	.L118:
 581:Middlewares/lvgl/src/font/lv_font_loader.c **** 
 2328              		.loc 1 581 1 view .LVU743
 2329 016c 0FB0     		add	sp, sp, #60
 2330              	.LCFI23:
 2331              		.cfi_remember_state
 2332              		.cfi_def_cfa_offset 28
 2333              		@ sp needed
 2334 016e BDE8F083 		pop	{r4, r5, r6, r7, r8, r9, pc}
 2335              	.LVL250:
 2336              	.L128:
 2337              	.LCFI24:
 2338              		.cfi_restore_state
 515:Middlewares/lvgl/src/font/lv_font_loader.c ****     }
 2339              		.loc 1 515 16 view .LVU744
 2340 0172 0020     		movs	r0, #0
 2341              	.LVL251:
 515:Middlewares/lvgl/src/font/lv_font_loader.c ****     }
 2342              		.loc 1 515 16 view .LVU745
 2343 0174 FAE7     		b	.L118
 2344              	.LVL252:
 2345              	.L129:
 522:Middlewares/lvgl/src/font/lv_font_loader.c ****     }
 2346              		.loc 1 522 16 view .LVU746
 2347 0176 0020     		movs	r0, #0
 2348              	.LVL253:
 522:Middlewares/lvgl/src/font/lv_font_loader.c ****     }
ARM GAS  /tmp/cci3f8Hk.s 			page 63


 2349              		.loc 1 522 16 view .LVU747
 2350 0178 F8E7     		b	.L118
 2351              	.LVL254:
 2352              	.L132:
 566:Middlewares/lvgl/src/font/lv_font_loader.c ****     }
 2353              		.loc 1 566 16 view .LVU748
 2354 017a 0020     		movs	r0, #0
 2355 017c F6E7     		b	.L118
 2356              	.L139:
 2357 017e 00BF     		.align	2
 2358              	.L138:
 2359 0180 00000000 		.word	.LC3
 2360 0184 00000000 		.word	lv_font_get_glyph_dsc_fmt_txt
 2361 0188 00000000 		.word	lv_font_get_bitmap_fmt_txt
 2362 018c 08000000 		.word	.LC4
 2363              		.cfi_endproc
 2364              	.LFE193:
 2366              		.section	.text.lv_font_load,"ax",%progbits
 2367              		.align	1
 2368              		.global	lv_font_load
 2369              		.syntax unified
 2370              		.thumb
 2371              		.thumb_func
 2372              		.fpu fpv4-sp-d16
 2374              	lv_font_load:
 2375              	.LVL255:
 2376              	.LFB184:
  87:Middlewares/lvgl/src/font/lv_font_loader.c ****     lv_fs_file_t file;
 2377              		.loc 1 87 1 is_stmt 1 view -0
 2378              		.cfi_startproc
 2379              		@ args = 0, pretend = 0, frame = 8
 2380              		@ frame_needed = 0, uses_anonymous_args = 0
  87:Middlewares/lvgl/src/font/lv_font_loader.c ****     lv_fs_file_t file;
 2381              		.loc 1 87 1 is_stmt 0 view .LVU750
 2382 0000 10B5     		push	{r4, lr}
 2383              	.LCFI25:
 2384              		.cfi_def_cfa_offset 8
 2385              		.cfi_offset 4, -8
 2386              		.cfi_offset 14, -4
 2387 0002 82B0     		sub	sp, sp, #8
 2388              	.LCFI26:
 2389              		.cfi_def_cfa_offset 16
 2390 0004 0146     		mov	r1, r0
  88:Middlewares/lvgl/src/font/lv_font_loader.c ****     lv_fs_res_t res = lv_fs_open(&file, font_name, LV_FS_MODE_RD);
 2391              		.loc 1 88 5 is_stmt 1 view .LVU751
  89:Middlewares/lvgl/src/font/lv_font_loader.c ****     if(res != LV_FS_RES_OK)
 2392              		.loc 1 89 5 view .LVU752
  89:Middlewares/lvgl/src/font/lv_font_loader.c ****     if(res != LV_FS_RES_OK)
 2393              		.loc 1 89 23 is_stmt 0 view .LVU753
 2394 0006 0222     		movs	r2, #2
 2395 0008 6846     		mov	r0, sp
 2396              	.LVL256:
  89:Middlewares/lvgl/src/font/lv_font_loader.c ****     if(res != LV_FS_RES_OK)
 2397              		.loc 1 89 23 view .LVU754
 2398 000a FFF7FEFF 		bl	lv_fs_open
 2399              	.LVL257:
  90:Middlewares/lvgl/src/font/lv_font_loader.c ****         return NULL;
ARM GAS  /tmp/cci3f8Hk.s 			page 64


 2400              		.loc 1 90 5 is_stmt 1 view .LVU755
  90:Middlewares/lvgl/src/font/lv_font_loader.c ****         return NULL;
 2401              		.loc 1 90 7 is_stmt 0 view .LVU756
 2402 000e D8B9     		cbnz	r0, .L143
  93:Middlewares/lvgl/src/font/lv_font_loader.c ****     if(font) {
 2403              		.loc 1 93 5 is_stmt 1 view .LVU757
  93:Middlewares/lvgl/src/font/lv_font_loader.c ****     if(font) {
 2404              		.loc 1 93 24 is_stmt 0 view .LVU758
 2405 0010 1820     		movs	r0, #24
 2406              	.LVL258:
  93:Middlewares/lvgl/src/font/lv_font_loader.c ****     if(font) {
 2407              		.loc 1 93 24 view .LVU759
 2408 0012 FFF7FEFF 		bl	lv_mem_alloc
 2409              	.LVL259:
  94:Middlewares/lvgl/src/font/lv_font_loader.c ****         memset(font, 0, sizeof(lv_font_t));
 2410              		.loc 1 94 5 is_stmt 1 view .LVU760
  94:Middlewares/lvgl/src/font/lv_font_loader.c ****         memset(font, 0, sizeof(lv_font_t));
 2411              		.loc 1 94 7 is_stmt 0 view .LVU761
 2412 0016 0446     		mov	r4, r0
 2413 0018 58B1     		cbz	r0, .L142
  95:Middlewares/lvgl/src/font/lv_font_loader.c ****         if(!lvgl_load_font(&file, font)) {
 2414              		.loc 1 95 9 is_stmt 1 view .LVU762
 2415 001a 0023     		movs	r3, #0
 2416 001c 0360     		str	r3, [r0]	@ unaligned
 2417 001e 4360     		str	r3, [r0, #4]	@ unaligned
 2418 0020 8360     		str	r3, [r0, #8]	@ unaligned
 2419 0022 C360     		str	r3, [r0, #12]	@ unaligned
 2420 0024 0361     		str	r3, [r0, #16]	@ unaligned
 2421 0026 4361     		str	r3, [r0, #20]	@ unaligned
  96:Middlewares/lvgl/src/font/lv_font_loader.c ****             LV_LOG_WARN("Error loading font file: %s\n", font_name);
 2422              		.loc 1 96 9 view .LVU763
  96:Middlewares/lvgl/src/font/lv_font_loader.c ****             LV_LOG_WARN("Error loading font file: %s\n", font_name);
 2423              		.loc 1 96 13 is_stmt 0 view .LVU764
 2424 0028 0146     		mov	r1, r0
 2425 002a 6846     		mov	r0, sp
 2426              	.LVL260:
  96:Middlewares/lvgl/src/font/lv_font_loader.c ****             LV_LOG_WARN("Error loading font file: %s\n", font_name);
 2427              		.loc 1 96 13 view .LVU765
 2428 002c FFF7FEFF 		bl	lvgl_load_font
 2429              	.LVL261:
  96:Middlewares/lvgl/src/font/lv_font_loader.c ****             LV_LOG_WARN("Error loading font file: %s\n", font_name);
 2430              		.loc 1 96 11 view .LVU766
 2431 0030 28B1     		cbz	r0, .L145
 2432              	.LVL262:
 2433              	.L142:
 108:Middlewares/lvgl/src/font/lv_font_loader.c **** 
 2434              		.loc 1 108 5 is_stmt 1 view .LVU767
 2435 0032 6846     		mov	r0, sp
 2436 0034 FFF7FEFF 		bl	lv_fs_close
 2437              	.LVL263:
 110:Middlewares/lvgl/src/font/lv_font_loader.c **** }
 2438              		.loc 1 110 5 view .LVU768
 2439              	.L140:
 111:Middlewares/lvgl/src/font/lv_font_loader.c **** 
 2440              		.loc 1 111 1 is_stmt 0 view .LVU769
 2441 0038 2046     		mov	r0, r4
 2442 003a 02B0     		add	sp, sp, #8
ARM GAS  /tmp/cci3f8Hk.s 			page 65


 2443              	.LCFI27:
 2444              		.cfi_remember_state
 2445              		.cfi_def_cfa_offset 8
 2446              		@ sp needed
 2447 003c 10BD     		pop	{r4, pc}
 2448              	.LVL264:
 2449              	.L145:
 2450              	.LCFI28:
 2451              		.cfi_restore_state
  97:Middlewares/lvgl/src/font/lv_font_loader.c ****             /*
 2452              		.loc 1 97 68 is_stmt 1 view .LVU770
 103:Middlewares/lvgl/src/font/lv_font_loader.c ****             font = NULL;
 2453              		.loc 1 103 13 view .LVU771
 2454 003e 2046     		mov	r0, r4
 2455 0040 FFF7FEFF 		bl	lv_font_free
 2456              	.LVL265:
 104:Middlewares/lvgl/src/font/lv_font_loader.c ****         }
 2457              		.loc 1 104 13 view .LVU772
 104:Middlewares/lvgl/src/font/lv_font_loader.c ****         }
 2458              		.loc 1 104 18 is_stmt 0 view .LVU773
 2459 0044 0024     		movs	r4, #0
 2460 0046 F4E7     		b	.L142
 2461              	.LVL266:
 2462              	.L143:
  91:Middlewares/lvgl/src/font/lv_font_loader.c **** 
 2463              		.loc 1 91 16 view .LVU774
 2464 0048 0024     		movs	r4, #0
 2465 004a F5E7     		b	.L140
 2466              		.cfi_endproc
 2467              	.LFE184:
 2469              		.text
 2470              	.Letext0:
 2471              		.file 2 "/home/akinya/gcc-arm-none-eabi/arm-none-eabi/include/machine/_default_types.h"
 2472              		.file 3 "/home/akinya/gcc-arm-none-eabi/arm-none-eabi/include/sys/_stdint.h"
 2473              		.file 4 "Middlewares/lvgl/src/font/../../src/hal/../misc/lv_area.h"
 2474              		.file 5 "Middlewares/lvgl/src/font/../../src/core/../misc/../font/lv_font.h"
 2475              		.file 6 "Middlewares/lvgl/src/font/../../src/core/../draw/../misc/lv_fs.h"
 2476              		.file 7 "Middlewares/lvgl/src/font/../../src/font/lv_font_fmt_txt.h"
 2477              		.file 8 "Middlewares/lvgl/src/font/../../src/misc/lv_mem.h"
 2478              		.file 9 "/home/akinya/gcc-arm-none-eabi/arm-none-eabi/include/string.h"
 2479              		.file 10 "<built-in>"
ARM GAS  /tmp/cci3f8Hk.s 			page 66

