ARM GAS  /tmp/ccjEXvZv.s 			page 1


   1              		.cpu cortex-m4
   2              		.eabi_attribute 27, 1
   3              		.eabi_attribute 28, 1
   4              		.eabi_attribute 20, 1
   5              		.eabi_attribute 21, 1
   6              		.eabi_attribute 23, 3
   7              		.eabi_attribute 24, 1
   8              		.eabi_attribute 25, 1
   9              		.eabi_attribute 26, 1
  10              		.eabi_attribute 30, 1
  11              		.eabi_attribute 34, 1
  12              		.eabi_attribute 18, 4
  13              		.file	"lv_indev.c"
  14              		.text
  15              	.Ltext0:
  16              		.cfi_sections	.debug_frame
  17              		.section	.text.indev_proc_reset_query_handler,"ax",%progbits
  18              		.align	1
  19              		.arch armv7e-m
  20              		.syntax unified
  21              		.thumb
  22              		.thumb_func
  23              		.fpu fpv4-sp-d16
  25              	indev_proc_reset_query_handler:
  26              	.LVL0:
  27              	.LFB178:
  28              		.file 1 "Middlewares/lvgl/src/core/lv_indev.c"
   1:Middlewares/lvgl/src/core/lv_indev.c **** /**
   2:Middlewares/lvgl/src/core/lv_indev.c ****  * @file lv_indev.c
   3:Middlewares/lvgl/src/core/lv_indev.c ****  *
   4:Middlewares/lvgl/src/core/lv_indev.c ****  */
   5:Middlewares/lvgl/src/core/lv_indev.c **** 
   6:Middlewares/lvgl/src/core/lv_indev.c **** /*********************
   7:Middlewares/lvgl/src/core/lv_indev.c ****  *      INCLUDES
   8:Middlewares/lvgl/src/core/lv_indev.c ****  ********************/
   9:Middlewares/lvgl/src/core/lv_indev.c **** #include "lv_indev.h"
  10:Middlewares/lvgl/src/core/lv_indev.c **** #include "lv_disp.h"
  11:Middlewares/lvgl/src/core/lv_indev.c **** #include "lv_obj.h"
  12:Middlewares/lvgl/src/core/lv_indev.c **** #include "lv_indev_scroll.h"
  13:Middlewares/lvgl/src/core/lv_indev.c **** #include "lv_group.h"
  14:Middlewares/lvgl/src/core/lv_indev.c **** #include "lv_refr.h"
  15:Middlewares/lvgl/src/core/lv_indev.c **** 
  16:Middlewares/lvgl/src/core/lv_indev.c **** #include "../hal/lv_hal_tick.h"
  17:Middlewares/lvgl/src/core/lv_indev.c **** #include "../misc/lv_timer.h"
  18:Middlewares/lvgl/src/core/lv_indev.c **** #include "../misc/lv_math.h"
  19:Middlewares/lvgl/src/core/lv_indev.c **** 
  20:Middlewares/lvgl/src/core/lv_indev.c **** /*********************
  21:Middlewares/lvgl/src/core/lv_indev.c ****  *      DEFINES
  22:Middlewares/lvgl/src/core/lv_indev.c ****  *********************/
  23:Middlewares/lvgl/src/core/lv_indev.c **** #if LV_INDEV_DEF_SCROLL_THROW <= 0
  24:Middlewares/lvgl/src/core/lv_indev.c ****     #warning "LV_INDEV_DRAG_THROW must be greater than 0"
  25:Middlewares/lvgl/src/core/lv_indev.c **** #endif
  26:Middlewares/lvgl/src/core/lv_indev.c **** 
  27:Middlewares/lvgl/src/core/lv_indev.c **** /**********************
  28:Middlewares/lvgl/src/core/lv_indev.c ****  *      TYPEDEFS
  29:Middlewares/lvgl/src/core/lv_indev.c ****  **********************/
  30:Middlewares/lvgl/src/core/lv_indev.c **** 
ARM GAS  /tmp/ccjEXvZv.s 			page 2


  31:Middlewares/lvgl/src/core/lv_indev.c **** /**********************
  32:Middlewares/lvgl/src/core/lv_indev.c ****  *  STATIC PROTOTYPES
  33:Middlewares/lvgl/src/core/lv_indev.c ****  **********************/
  34:Middlewares/lvgl/src/core/lv_indev.c **** static void indev_pointer_proc(lv_indev_t * i, lv_indev_data_t * data);
  35:Middlewares/lvgl/src/core/lv_indev.c **** static void indev_keypad_proc(lv_indev_t * i, lv_indev_data_t * data);
  36:Middlewares/lvgl/src/core/lv_indev.c **** static void indev_encoder_proc(lv_indev_t * i, lv_indev_data_t * data);
  37:Middlewares/lvgl/src/core/lv_indev.c **** static void indev_button_proc(lv_indev_t * i, lv_indev_data_t * data);
  38:Middlewares/lvgl/src/core/lv_indev.c **** static void indev_proc_press(_lv_indev_proc_t * proc);
  39:Middlewares/lvgl/src/core/lv_indev.c **** static void indev_proc_release(_lv_indev_proc_t * proc);
  40:Middlewares/lvgl/src/core/lv_indev.c **** static void indev_proc_reset_query_handler(lv_indev_t * indev);
  41:Middlewares/lvgl/src/core/lv_indev.c **** static void indev_click_focus(_lv_indev_proc_t * proc);
  42:Middlewares/lvgl/src/core/lv_indev.c **** static void indev_gesture(_lv_indev_proc_t * proc);
  43:Middlewares/lvgl/src/core/lv_indev.c **** static bool indev_reset_check(_lv_indev_proc_t * proc);
  44:Middlewares/lvgl/src/core/lv_indev.c **** 
  45:Middlewares/lvgl/src/core/lv_indev.c **** /**********************
  46:Middlewares/lvgl/src/core/lv_indev.c ****  *  STATIC VARIABLES
  47:Middlewares/lvgl/src/core/lv_indev.c ****  **********************/
  48:Middlewares/lvgl/src/core/lv_indev.c **** static lv_indev_t * indev_act;
  49:Middlewares/lvgl/src/core/lv_indev.c **** static lv_obj_t * indev_obj_act = NULL;
  50:Middlewares/lvgl/src/core/lv_indev.c **** 
  51:Middlewares/lvgl/src/core/lv_indev.c **** /**********************
  52:Middlewares/lvgl/src/core/lv_indev.c ****  *      MACROS
  53:Middlewares/lvgl/src/core/lv_indev.c ****  **********************/
  54:Middlewares/lvgl/src/core/lv_indev.c **** #if LV_LOG_TRACE_INDEV
  55:Middlewares/lvgl/src/core/lv_indev.c **** #  define INDEV_TRACE(...) LV_LOG_TRACE( __VA_ARGS__)
  56:Middlewares/lvgl/src/core/lv_indev.c **** #else
  57:Middlewares/lvgl/src/core/lv_indev.c **** #  define INDEV_TRACE(...)
  58:Middlewares/lvgl/src/core/lv_indev.c **** #endif
  59:Middlewares/lvgl/src/core/lv_indev.c **** 
  60:Middlewares/lvgl/src/core/lv_indev.c **** /**********************
  61:Middlewares/lvgl/src/core/lv_indev.c ****  *   GLOBAL FUNCTIONS
  62:Middlewares/lvgl/src/core/lv_indev.c ****  **********************/
  63:Middlewares/lvgl/src/core/lv_indev.c **** 
  64:Middlewares/lvgl/src/core/lv_indev.c **** void lv_indev_read_timer_cb(lv_timer_t * timer)
  65:Middlewares/lvgl/src/core/lv_indev.c **** {
  66:Middlewares/lvgl/src/core/lv_indev.c ****     INDEV_TRACE("begin");
  67:Middlewares/lvgl/src/core/lv_indev.c **** 
  68:Middlewares/lvgl/src/core/lv_indev.c ****     lv_indev_data_t data;
  69:Middlewares/lvgl/src/core/lv_indev.c **** 
  70:Middlewares/lvgl/src/core/lv_indev.c ****     indev_act = timer->user_data;
  71:Middlewares/lvgl/src/core/lv_indev.c **** 
  72:Middlewares/lvgl/src/core/lv_indev.c ****     /*Read and process all indevs*/
  73:Middlewares/lvgl/src/core/lv_indev.c ****     if(indev_act->driver->disp == NULL) return; /*Not assigned to any displays*/
  74:Middlewares/lvgl/src/core/lv_indev.c **** 
  75:Middlewares/lvgl/src/core/lv_indev.c ****     /*Handle reset query before processing the point*/
  76:Middlewares/lvgl/src/core/lv_indev.c ****     indev_proc_reset_query_handler(indev_act);
  77:Middlewares/lvgl/src/core/lv_indev.c **** 
  78:Middlewares/lvgl/src/core/lv_indev.c ****     if(indev_act->proc.disabled) return;
  79:Middlewares/lvgl/src/core/lv_indev.c ****     bool continue_reading;
  80:Middlewares/lvgl/src/core/lv_indev.c ****     do {
  81:Middlewares/lvgl/src/core/lv_indev.c ****         /*Read the data*/
  82:Middlewares/lvgl/src/core/lv_indev.c ****         _lv_indev_read(indev_act, &data);
  83:Middlewares/lvgl/src/core/lv_indev.c ****         continue_reading = data.continue_reading;
  84:Middlewares/lvgl/src/core/lv_indev.c **** 
  85:Middlewares/lvgl/src/core/lv_indev.c ****         /*The active object might deleted even in the read function*/
  86:Middlewares/lvgl/src/core/lv_indev.c ****         indev_proc_reset_query_handler(indev_act);
  87:Middlewares/lvgl/src/core/lv_indev.c ****         indev_obj_act = NULL;
ARM GAS  /tmp/ccjEXvZv.s 			page 3


  88:Middlewares/lvgl/src/core/lv_indev.c **** 
  89:Middlewares/lvgl/src/core/lv_indev.c ****         indev_act->proc.state = data.state;
  90:Middlewares/lvgl/src/core/lv_indev.c **** 
  91:Middlewares/lvgl/src/core/lv_indev.c ****         /*Save the last activity time*/
  92:Middlewares/lvgl/src/core/lv_indev.c ****         if(indev_act->proc.state == LV_INDEV_STATE_PRESSED) {
  93:Middlewares/lvgl/src/core/lv_indev.c ****             indev_act->driver->disp->last_activity_time = lv_tick_get();
  94:Middlewares/lvgl/src/core/lv_indev.c ****         }
  95:Middlewares/lvgl/src/core/lv_indev.c ****         else if(indev_act->driver->type == LV_INDEV_TYPE_ENCODER && data.enc_diff) {
  96:Middlewares/lvgl/src/core/lv_indev.c ****             indev_act->driver->disp->last_activity_time = lv_tick_get();
  97:Middlewares/lvgl/src/core/lv_indev.c ****         }
  98:Middlewares/lvgl/src/core/lv_indev.c **** 
  99:Middlewares/lvgl/src/core/lv_indev.c ****         if(indev_act->driver->type == LV_INDEV_TYPE_POINTER) {
 100:Middlewares/lvgl/src/core/lv_indev.c ****             indev_pointer_proc(indev_act, &data);
 101:Middlewares/lvgl/src/core/lv_indev.c ****         }
 102:Middlewares/lvgl/src/core/lv_indev.c ****         else if(indev_act->driver->type == LV_INDEV_TYPE_KEYPAD) {
 103:Middlewares/lvgl/src/core/lv_indev.c ****             indev_keypad_proc(indev_act, &data);
 104:Middlewares/lvgl/src/core/lv_indev.c ****         }
 105:Middlewares/lvgl/src/core/lv_indev.c ****         else if(indev_act->driver->type == LV_INDEV_TYPE_ENCODER) {
 106:Middlewares/lvgl/src/core/lv_indev.c ****             indev_encoder_proc(indev_act, &data);
 107:Middlewares/lvgl/src/core/lv_indev.c ****         }
 108:Middlewares/lvgl/src/core/lv_indev.c ****         else if(indev_act->driver->type == LV_INDEV_TYPE_BUTTON) {
 109:Middlewares/lvgl/src/core/lv_indev.c ****             indev_button_proc(indev_act, &data);
 110:Middlewares/lvgl/src/core/lv_indev.c ****         }
 111:Middlewares/lvgl/src/core/lv_indev.c ****         /*Handle reset query if it happened in during processing*/
 112:Middlewares/lvgl/src/core/lv_indev.c ****         indev_proc_reset_query_handler(indev_act);
 113:Middlewares/lvgl/src/core/lv_indev.c ****     } while(continue_reading);
 114:Middlewares/lvgl/src/core/lv_indev.c **** 
 115:Middlewares/lvgl/src/core/lv_indev.c ****     /*End of indev processing, so no act indev*/
 116:Middlewares/lvgl/src/core/lv_indev.c ****     indev_act     = NULL;
 117:Middlewares/lvgl/src/core/lv_indev.c ****     indev_obj_act = NULL;
 118:Middlewares/lvgl/src/core/lv_indev.c **** 
 119:Middlewares/lvgl/src/core/lv_indev.c ****     INDEV_TRACE("finished");
 120:Middlewares/lvgl/src/core/lv_indev.c **** }
 121:Middlewares/lvgl/src/core/lv_indev.c **** 
 122:Middlewares/lvgl/src/core/lv_indev.c **** void lv_indev_enable(lv_indev_t * indev, bool en)
 123:Middlewares/lvgl/src/core/lv_indev.c **** {
 124:Middlewares/lvgl/src/core/lv_indev.c ****     if(!indev) return;
 125:Middlewares/lvgl/src/core/lv_indev.c **** 
 126:Middlewares/lvgl/src/core/lv_indev.c ****     indev->proc.disabled = en ? 0 : 1;
 127:Middlewares/lvgl/src/core/lv_indev.c **** }
 128:Middlewares/lvgl/src/core/lv_indev.c **** 
 129:Middlewares/lvgl/src/core/lv_indev.c **** lv_indev_t * lv_indev_get_act(void)
 130:Middlewares/lvgl/src/core/lv_indev.c **** {
 131:Middlewares/lvgl/src/core/lv_indev.c ****     return indev_act;
 132:Middlewares/lvgl/src/core/lv_indev.c **** }
 133:Middlewares/lvgl/src/core/lv_indev.c **** 
 134:Middlewares/lvgl/src/core/lv_indev.c **** lv_indev_type_t lv_indev_get_type(const lv_indev_t * indev)
 135:Middlewares/lvgl/src/core/lv_indev.c **** {
 136:Middlewares/lvgl/src/core/lv_indev.c ****     if(indev == NULL) return LV_INDEV_TYPE_NONE;
 137:Middlewares/lvgl/src/core/lv_indev.c **** 
 138:Middlewares/lvgl/src/core/lv_indev.c ****     return indev->driver->type;
 139:Middlewares/lvgl/src/core/lv_indev.c **** }
 140:Middlewares/lvgl/src/core/lv_indev.c **** 
 141:Middlewares/lvgl/src/core/lv_indev.c **** void lv_indev_reset(lv_indev_t * indev, lv_obj_t * obj)
 142:Middlewares/lvgl/src/core/lv_indev.c **** {
 143:Middlewares/lvgl/src/core/lv_indev.c ****     if(indev) {
 144:Middlewares/lvgl/src/core/lv_indev.c ****         indev->proc.reset_query = 1;
ARM GAS  /tmp/ccjEXvZv.s 			page 4


 145:Middlewares/lvgl/src/core/lv_indev.c ****         if(indev_act == indev) indev_obj_act = NULL;
 146:Middlewares/lvgl/src/core/lv_indev.c ****         if(obj == NULL || indev->proc.types.pointer.last_pressed == obj) {
 147:Middlewares/lvgl/src/core/lv_indev.c ****             indev->proc.types.pointer.last_pressed = NULL;
 148:Middlewares/lvgl/src/core/lv_indev.c ****         }
 149:Middlewares/lvgl/src/core/lv_indev.c ****         if(obj == NULL || indev->proc.types.pointer.act_obj == obj) {
 150:Middlewares/lvgl/src/core/lv_indev.c ****             indev->proc.types.pointer.act_obj = NULL;
 151:Middlewares/lvgl/src/core/lv_indev.c ****         }
 152:Middlewares/lvgl/src/core/lv_indev.c ****         if(obj == NULL || indev->proc.types.pointer.last_obj == obj) {
 153:Middlewares/lvgl/src/core/lv_indev.c ****             indev->proc.types.pointer.last_obj = NULL;
 154:Middlewares/lvgl/src/core/lv_indev.c ****         }
 155:Middlewares/lvgl/src/core/lv_indev.c ****     }
 156:Middlewares/lvgl/src/core/lv_indev.c ****     else {
 157:Middlewares/lvgl/src/core/lv_indev.c ****         lv_indev_t * i = lv_indev_get_next(NULL);
 158:Middlewares/lvgl/src/core/lv_indev.c ****         while(i) {
 159:Middlewares/lvgl/src/core/lv_indev.c ****             i->proc.reset_query = 1;
 160:Middlewares/lvgl/src/core/lv_indev.c ****             if((i->driver->type == LV_INDEV_TYPE_POINTER || i->driver->type == LV_INDEV_TYPE_KEYPAD
 161:Middlewares/lvgl/src/core/lv_indev.c ****                (obj == NULL || i->proc.types.pointer.last_pressed == obj)) {
 162:Middlewares/lvgl/src/core/lv_indev.c ****                 i->proc.types.pointer.last_pressed = NULL;
 163:Middlewares/lvgl/src/core/lv_indev.c ****             }
 164:Middlewares/lvgl/src/core/lv_indev.c ****             if(obj == NULL || i->proc.types.pointer.act_obj == obj) {
 165:Middlewares/lvgl/src/core/lv_indev.c ****                 i->proc.types.pointer.act_obj = NULL;
 166:Middlewares/lvgl/src/core/lv_indev.c ****             }
 167:Middlewares/lvgl/src/core/lv_indev.c ****             if(obj == NULL || i->proc.types.pointer.last_obj == obj) {
 168:Middlewares/lvgl/src/core/lv_indev.c ****                 i->proc.types.pointer.last_obj = NULL;
 169:Middlewares/lvgl/src/core/lv_indev.c ****             }
 170:Middlewares/lvgl/src/core/lv_indev.c ****             i = lv_indev_get_next(i);
 171:Middlewares/lvgl/src/core/lv_indev.c ****         }
 172:Middlewares/lvgl/src/core/lv_indev.c ****         indev_obj_act = NULL;
 173:Middlewares/lvgl/src/core/lv_indev.c ****     }
 174:Middlewares/lvgl/src/core/lv_indev.c **** }
 175:Middlewares/lvgl/src/core/lv_indev.c **** 
 176:Middlewares/lvgl/src/core/lv_indev.c **** void lv_indev_reset_long_press(lv_indev_t * indev)
 177:Middlewares/lvgl/src/core/lv_indev.c **** {
 178:Middlewares/lvgl/src/core/lv_indev.c ****     indev->proc.long_pr_sent         = 0;
 179:Middlewares/lvgl/src/core/lv_indev.c ****     indev->proc.longpr_rep_timestamp = lv_tick_get();
 180:Middlewares/lvgl/src/core/lv_indev.c ****     indev->proc.pr_timestamp         = lv_tick_get();
 181:Middlewares/lvgl/src/core/lv_indev.c **** }
 182:Middlewares/lvgl/src/core/lv_indev.c **** 
 183:Middlewares/lvgl/src/core/lv_indev.c **** void lv_indev_set_cursor(lv_indev_t * indev, lv_obj_t * cur_obj)
 184:Middlewares/lvgl/src/core/lv_indev.c **** {
 185:Middlewares/lvgl/src/core/lv_indev.c ****     if(indev->driver->type != LV_INDEV_TYPE_POINTER) return;
 186:Middlewares/lvgl/src/core/lv_indev.c **** 
 187:Middlewares/lvgl/src/core/lv_indev.c ****     indev->cursor = cur_obj;
 188:Middlewares/lvgl/src/core/lv_indev.c ****     lv_obj_set_parent(indev->cursor, lv_disp_get_layer_sys(indev->driver->disp));
 189:Middlewares/lvgl/src/core/lv_indev.c ****     lv_obj_set_pos(indev->cursor, indev->proc.types.pointer.act_point.x, indev->proc.types.pointer.
 190:Middlewares/lvgl/src/core/lv_indev.c ****     lv_obj_clear_flag(indev->cursor, LV_OBJ_FLAG_CLICKABLE);
 191:Middlewares/lvgl/src/core/lv_indev.c ****     lv_obj_add_flag(indev->cursor, LV_OBJ_FLAG_IGNORE_LAYOUT | LV_OBJ_FLAG_FLOATING);
 192:Middlewares/lvgl/src/core/lv_indev.c **** }
 193:Middlewares/lvgl/src/core/lv_indev.c **** 
 194:Middlewares/lvgl/src/core/lv_indev.c **** void lv_indev_set_group(lv_indev_t * indev, lv_group_t * group)
 195:Middlewares/lvgl/src/core/lv_indev.c **** {
 196:Middlewares/lvgl/src/core/lv_indev.c ****     if(indev->driver->type == LV_INDEV_TYPE_KEYPAD || indev->driver->type == LV_INDEV_TYPE_ENCODER)
 197:Middlewares/lvgl/src/core/lv_indev.c ****         indev->group = group;
 198:Middlewares/lvgl/src/core/lv_indev.c ****     }
 199:Middlewares/lvgl/src/core/lv_indev.c **** }
 200:Middlewares/lvgl/src/core/lv_indev.c **** 
 201:Middlewares/lvgl/src/core/lv_indev.c **** void lv_indev_set_button_points(lv_indev_t * indev, const lv_point_t points[])
ARM GAS  /tmp/ccjEXvZv.s 			page 5


 202:Middlewares/lvgl/src/core/lv_indev.c **** {
 203:Middlewares/lvgl/src/core/lv_indev.c ****     if(indev->driver->type == LV_INDEV_TYPE_BUTTON) {
 204:Middlewares/lvgl/src/core/lv_indev.c ****         indev->btn_points = points;
 205:Middlewares/lvgl/src/core/lv_indev.c ****     }
 206:Middlewares/lvgl/src/core/lv_indev.c **** }
 207:Middlewares/lvgl/src/core/lv_indev.c **** 
 208:Middlewares/lvgl/src/core/lv_indev.c **** void lv_indev_get_point(const lv_indev_t * indev, lv_point_t * point)
 209:Middlewares/lvgl/src/core/lv_indev.c **** {
 210:Middlewares/lvgl/src/core/lv_indev.c ****     if(indev == NULL) {
 211:Middlewares/lvgl/src/core/lv_indev.c ****         point->x = 0;
 212:Middlewares/lvgl/src/core/lv_indev.c ****         point->y = 0;
 213:Middlewares/lvgl/src/core/lv_indev.c ****         return;
 214:Middlewares/lvgl/src/core/lv_indev.c ****     }
 215:Middlewares/lvgl/src/core/lv_indev.c ****     if(indev->driver->type != LV_INDEV_TYPE_POINTER && indev->driver->type != LV_INDEV_TYPE_BUTTON)
 216:Middlewares/lvgl/src/core/lv_indev.c ****         point->x = -1;
 217:Middlewares/lvgl/src/core/lv_indev.c ****         point->y = -1;
 218:Middlewares/lvgl/src/core/lv_indev.c ****     }
 219:Middlewares/lvgl/src/core/lv_indev.c ****     else {
 220:Middlewares/lvgl/src/core/lv_indev.c ****         point->x = indev->proc.types.pointer.act_point.x;
 221:Middlewares/lvgl/src/core/lv_indev.c ****         point->y = indev->proc.types.pointer.act_point.y;
 222:Middlewares/lvgl/src/core/lv_indev.c ****     }
 223:Middlewares/lvgl/src/core/lv_indev.c **** }
 224:Middlewares/lvgl/src/core/lv_indev.c **** 
 225:Middlewares/lvgl/src/core/lv_indev.c **** lv_dir_t lv_indev_get_gesture_dir(const lv_indev_t * indev)
 226:Middlewares/lvgl/src/core/lv_indev.c **** {
 227:Middlewares/lvgl/src/core/lv_indev.c ****     return indev->proc.types.pointer.gesture_dir;
 228:Middlewares/lvgl/src/core/lv_indev.c **** }
 229:Middlewares/lvgl/src/core/lv_indev.c **** 
 230:Middlewares/lvgl/src/core/lv_indev.c **** uint32_t lv_indev_get_key(const lv_indev_t * indev)
 231:Middlewares/lvgl/src/core/lv_indev.c **** {
 232:Middlewares/lvgl/src/core/lv_indev.c ****     if(indev->driver->type != LV_INDEV_TYPE_KEYPAD)
 233:Middlewares/lvgl/src/core/lv_indev.c ****         return 0;
 234:Middlewares/lvgl/src/core/lv_indev.c ****     else
 235:Middlewares/lvgl/src/core/lv_indev.c ****         return indev->proc.types.keypad.last_key;
 236:Middlewares/lvgl/src/core/lv_indev.c **** }
 237:Middlewares/lvgl/src/core/lv_indev.c **** 
 238:Middlewares/lvgl/src/core/lv_indev.c **** lv_dir_t lv_indev_get_scroll_dir(const lv_indev_t * indev)
 239:Middlewares/lvgl/src/core/lv_indev.c **** {
 240:Middlewares/lvgl/src/core/lv_indev.c ****     if(indev == NULL) return false;
 241:Middlewares/lvgl/src/core/lv_indev.c ****     if(indev->driver->type != LV_INDEV_TYPE_POINTER && indev->driver->type != LV_INDEV_TYPE_BUTTON)
 242:Middlewares/lvgl/src/core/lv_indev.c ****     return indev->proc.types.pointer.scroll_dir;
 243:Middlewares/lvgl/src/core/lv_indev.c **** }
 244:Middlewares/lvgl/src/core/lv_indev.c **** 
 245:Middlewares/lvgl/src/core/lv_indev.c **** lv_obj_t * lv_indev_get_scroll_obj(const lv_indev_t * indev)
 246:Middlewares/lvgl/src/core/lv_indev.c **** {
 247:Middlewares/lvgl/src/core/lv_indev.c ****     if(indev == NULL) return NULL;
 248:Middlewares/lvgl/src/core/lv_indev.c ****     if(indev->driver->type != LV_INDEV_TYPE_POINTER && indev->driver->type != LV_INDEV_TYPE_BUTTON)
 249:Middlewares/lvgl/src/core/lv_indev.c ****     return indev->proc.types.pointer.scroll_obj;
 250:Middlewares/lvgl/src/core/lv_indev.c **** }
 251:Middlewares/lvgl/src/core/lv_indev.c **** 
 252:Middlewares/lvgl/src/core/lv_indev.c **** void lv_indev_get_vect(const lv_indev_t * indev, lv_point_t * point)
 253:Middlewares/lvgl/src/core/lv_indev.c **** {
 254:Middlewares/lvgl/src/core/lv_indev.c ****     point->x = 0;
 255:Middlewares/lvgl/src/core/lv_indev.c ****     point->y = 0;
 256:Middlewares/lvgl/src/core/lv_indev.c **** 
 257:Middlewares/lvgl/src/core/lv_indev.c ****     if(indev == NULL) return;
 258:Middlewares/lvgl/src/core/lv_indev.c **** 
ARM GAS  /tmp/ccjEXvZv.s 			page 6


 259:Middlewares/lvgl/src/core/lv_indev.c ****     if(indev->driver->type == LV_INDEV_TYPE_POINTER || indev->driver->type == LV_INDEV_TYPE_BUTTON)
 260:Middlewares/lvgl/src/core/lv_indev.c ****         point->x = indev->proc.types.pointer.vect.x;
 261:Middlewares/lvgl/src/core/lv_indev.c ****         point->y = indev->proc.types.pointer.vect.y;
 262:Middlewares/lvgl/src/core/lv_indev.c ****     }
 263:Middlewares/lvgl/src/core/lv_indev.c **** }
 264:Middlewares/lvgl/src/core/lv_indev.c **** 
 265:Middlewares/lvgl/src/core/lv_indev.c **** void lv_indev_wait_release(lv_indev_t * indev)
 266:Middlewares/lvgl/src/core/lv_indev.c **** {
 267:Middlewares/lvgl/src/core/lv_indev.c ****     if(indev == NULL)return;
 268:Middlewares/lvgl/src/core/lv_indev.c ****     indev->proc.wait_until_release = 1;
 269:Middlewares/lvgl/src/core/lv_indev.c **** }
 270:Middlewares/lvgl/src/core/lv_indev.c **** 
 271:Middlewares/lvgl/src/core/lv_indev.c **** lv_obj_t * lv_indev_get_obj_act(void)
 272:Middlewares/lvgl/src/core/lv_indev.c **** {
 273:Middlewares/lvgl/src/core/lv_indev.c ****     return indev_obj_act;
 274:Middlewares/lvgl/src/core/lv_indev.c **** }
 275:Middlewares/lvgl/src/core/lv_indev.c **** 
 276:Middlewares/lvgl/src/core/lv_indev.c **** lv_timer_t * lv_indev_get_read_timer(lv_disp_t * indev)
 277:Middlewares/lvgl/src/core/lv_indev.c **** {
 278:Middlewares/lvgl/src/core/lv_indev.c ****     if(!indev) {
 279:Middlewares/lvgl/src/core/lv_indev.c ****         LV_LOG_WARN("lv_indev_get_read_timer: indev was NULL");
 280:Middlewares/lvgl/src/core/lv_indev.c ****         return NULL;
 281:Middlewares/lvgl/src/core/lv_indev.c ****     }
 282:Middlewares/lvgl/src/core/lv_indev.c **** 
 283:Middlewares/lvgl/src/core/lv_indev.c ****     return indev->refr_timer;
 284:Middlewares/lvgl/src/core/lv_indev.c **** }
 285:Middlewares/lvgl/src/core/lv_indev.c **** 
 286:Middlewares/lvgl/src/core/lv_indev.c **** lv_obj_t * lv_indev_search_obj(lv_obj_t * obj, lv_point_t * point)
 287:Middlewares/lvgl/src/core/lv_indev.c **** {
 288:Middlewares/lvgl/src/core/lv_indev.c ****     lv_obj_t * found_p = NULL;
 289:Middlewares/lvgl/src/core/lv_indev.c **** 
 290:Middlewares/lvgl/src/core/lv_indev.c ****     /*If the point is on this object check its children too*/
 291:Middlewares/lvgl/src/core/lv_indev.c ****     if(lv_obj_hit_test(obj, point)) {
 292:Middlewares/lvgl/src/core/lv_indev.c ****         int32_t i;
 293:Middlewares/lvgl/src/core/lv_indev.c ****         for(i = lv_obj_get_child_cnt(obj) - 1; i >= 0; i--) {
 294:Middlewares/lvgl/src/core/lv_indev.c ****             lv_obj_t * child = lv_obj_get_child(obj, i);
 295:Middlewares/lvgl/src/core/lv_indev.c ****             found_p = lv_indev_search_obj(child, point);
 296:Middlewares/lvgl/src/core/lv_indev.c **** 
 297:Middlewares/lvgl/src/core/lv_indev.c ****             /*If a child was found then break*/
 298:Middlewares/lvgl/src/core/lv_indev.c ****             if(found_p != NULL) break;
 299:Middlewares/lvgl/src/core/lv_indev.c ****         }
 300:Middlewares/lvgl/src/core/lv_indev.c **** 
 301:Middlewares/lvgl/src/core/lv_indev.c ****         /*If then the children was not ok, and this obj is clickable
 302:Middlewares/lvgl/src/core/lv_indev.c ****          * and it or its parent is not hidden then save this object*/
 303:Middlewares/lvgl/src/core/lv_indev.c ****         if(found_p == NULL && lv_obj_has_flag(obj, LV_OBJ_FLAG_CLICKABLE)) {
 304:Middlewares/lvgl/src/core/lv_indev.c ****             lv_obj_t * hidden_i = obj;
 305:Middlewares/lvgl/src/core/lv_indev.c ****             while(hidden_i != NULL) {
 306:Middlewares/lvgl/src/core/lv_indev.c ****                 if(lv_obj_has_flag(hidden_i, LV_OBJ_FLAG_HIDDEN) == true) break;
 307:Middlewares/lvgl/src/core/lv_indev.c ****                 hidden_i = lv_obj_get_parent(hidden_i);
 308:Middlewares/lvgl/src/core/lv_indev.c ****             }
 309:Middlewares/lvgl/src/core/lv_indev.c ****             /*No parent found with hidden == true*/
 310:Middlewares/lvgl/src/core/lv_indev.c ****             if(hidden_i == NULL && (lv_obj_get_state(obj) & LV_STATE_DISABLED) == false) found_p = 
 311:Middlewares/lvgl/src/core/lv_indev.c ****         }
 312:Middlewares/lvgl/src/core/lv_indev.c ****     }
 313:Middlewares/lvgl/src/core/lv_indev.c **** 
 314:Middlewares/lvgl/src/core/lv_indev.c ****     return found_p;
 315:Middlewares/lvgl/src/core/lv_indev.c **** }
ARM GAS  /tmp/ccjEXvZv.s 			page 7


 316:Middlewares/lvgl/src/core/lv_indev.c **** 
 317:Middlewares/lvgl/src/core/lv_indev.c **** /**********************
 318:Middlewares/lvgl/src/core/lv_indev.c ****  *   STATIC FUNCTIONS
 319:Middlewares/lvgl/src/core/lv_indev.c ****  **********************/
 320:Middlewares/lvgl/src/core/lv_indev.c **** 
 321:Middlewares/lvgl/src/core/lv_indev.c **** /**
 322:Middlewares/lvgl/src/core/lv_indev.c ****  * Process a new point from LV_INDEV_TYPE_POINTER input device
 323:Middlewares/lvgl/src/core/lv_indev.c ****  * @param i pointer to an input device
 324:Middlewares/lvgl/src/core/lv_indev.c ****  * @param data pointer to the data read from the input device
 325:Middlewares/lvgl/src/core/lv_indev.c ****  */
 326:Middlewares/lvgl/src/core/lv_indev.c **** static void indev_pointer_proc(lv_indev_t * i, lv_indev_data_t * data)
 327:Middlewares/lvgl/src/core/lv_indev.c **** {
 328:Middlewares/lvgl/src/core/lv_indev.c ****     lv_disp_t *disp = i->driver->disp;
 329:Middlewares/lvgl/src/core/lv_indev.c ****     /*Save the raw points so they can be used again in _lv_indev_read*/
 330:Middlewares/lvgl/src/core/lv_indev.c ****     i->proc.types.pointer.last_raw_point.x = data->point.x;
 331:Middlewares/lvgl/src/core/lv_indev.c ****     i->proc.types.pointer.last_raw_point.y = data->point.y;
 332:Middlewares/lvgl/src/core/lv_indev.c **** 
 333:Middlewares/lvgl/src/core/lv_indev.c ****     if(disp->driver->rotated == LV_DISP_ROT_180 || disp->driver->rotated == LV_DISP_ROT_270) {
 334:Middlewares/lvgl/src/core/lv_indev.c ****         data->point.x = disp->driver->hor_res - data->point.x - 1;
 335:Middlewares/lvgl/src/core/lv_indev.c ****         data->point.y = disp->driver->ver_res - data->point.y - 1;
 336:Middlewares/lvgl/src/core/lv_indev.c ****     }
 337:Middlewares/lvgl/src/core/lv_indev.c ****     if(disp->driver->rotated == LV_DISP_ROT_90 || disp->driver->rotated == LV_DISP_ROT_270) {
 338:Middlewares/lvgl/src/core/lv_indev.c ****         lv_coord_t tmp = data->point.y;
 339:Middlewares/lvgl/src/core/lv_indev.c ****         data->point.y = data->point.x;
 340:Middlewares/lvgl/src/core/lv_indev.c ****         data->point.x = disp->driver->ver_res - tmp - 1;
 341:Middlewares/lvgl/src/core/lv_indev.c ****     }
 342:Middlewares/lvgl/src/core/lv_indev.c **** 
 343:Middlewares/lvgl/src/core/lv_indev.c ****     /*Simple sanity check*/
 344:Middlewares/lvgl/src/core/lv_indev.c ****     if(data->point.x < 0) LV_LOG_WARN("X is %d which is smaller than zero", data->point.x);
 345:Middlewares/lvgl/src/core/lv_indev.c ****     if(data->point.x >= lv_disp_get_hor_res(i->driver->disp)) LV_LOG_WARN("X is %d which is greater
 346:Middlewares/lvgl/src/core/lv_indev.c ****     if(data->point.y < 0) LV_LOG_WARN("Y is %d which is smaller than zero", data->point.y);
 347:Middlewares/lvgl/src/core/lv_indev.c ****     if(data->point.y >= lv_disp_get_ver_res(i->driver->disp)) LV_LOG_WARN("Y is %d which is greater
 348:Middlewares/lvgl/src/core/lv_indev.c **** 
 349:Middlewares/lvgl/src/core/lv_indev.c ****     /*Move the cursor if set and moved*/
 350:Middlewares/lvgl/src/core/lv_indev.c ****     if(i->cursor != NULL &&
 351:Middlewares/lvgl/src/core/lv_indev.c ****        (i->proc.types.pointer.last_point.x != data->point.x || i->proc.types.pointer.last_point.y !
 352:Middlewares/lvgl/src/core/lv_indev.c ****         lv_obj_set_pos(i->cursor, data->point.x, data->point.y);
 353:Middlewares/lvgl/src/core/lv_indev.c ****     }
 354:Middlewares/lvgl/src/core/lv_indev.c **** 
 355:Middlewares/lvgl/src/core/lv_indev.c ****     i->proc.types.pointer.act_point.x = data->point.x;
 356:Middlewares/lvgl/src/core/lv_indev.c ****     i->proc.types.pointer.act_point.y = data->point.y;
 357:Middlewares/lvgl/src/core/lv_indev.c **** 
 358:Middlewares/lvgl/src/core/lv_indev.c ****     if(i->proc.state == LV_INDEV_STATE_PRESSED) {
 359:Middlewares/lvgl/src/core/lv_indev.c ****         indev_proc_press(&i->proc);
 360:Middlewares/lvgl/src/core/lv_indev.c ****     }
 361:Middlewares/lvgl/src/core/lv_indev.c ****     else {
 362:Middlewares/lvgl/src/core/lv_indev.c ****         indev_proc_release(&i->proc);
 363:Middlewares/lvgl/src/core/lv_indev.c ****     }
 364:Middlewares/lvgl/src/core/lv_indev.c **** 
 365:Middlewares/lvgl/src/core/lv_indev.c ****     i->proc.types.pointer.last_point.x = i->proc.types.pointer.act_point.x;
 366:Middlewares/lvgl/src/core/lv_indev.c ****     i->proc.types.pointer.last_point.y = i->proc.types.pointer.act_point.y;
 367:Middlewares/lvgl/src/core/lv_indev.c **** }
 368:Middlewares/lvgl/src/core/lv_indev.c **** 
 369:Middlewares/lvgl/src/core/lv_indev.c **** /**
 370:Middlewares/lvgl/src/core/lv_indev.c ****  * Process a new point from LV_INDEV_TYPE_KEYPAD input device
 371:Middlewares/lvgl/src/core/lv_indev.c ****  * @param i pointer to an input device
 372:Middlewares/lvgl/src/core/lv_indev.c ****  * @param data pointer to the data read from the input device
ARM GAS  /tmp/ccjEXvZv.s 			page 8


 373:Middlewares/lvgl/src/core/lv_indev.c ****  */
 374:Middlewares/lvgl/src/core/lv_indev.c **** static void indev_keypad_proc(lv_indev_t * i, lv_indev_data_t * data)
 375:Middlewares/lvgl/src/core/lv_indev.c **** {
 376:Middlewares/lvgl/src/core/lv_indev.c ****     if(data->state == LV_INDEV_STATE_PRESSED && i->proc.wait_until_release) return;
 377:Middlewares/lvgl/src/core/lv_indev.c **** 
 378:Middlewares/lvgl/src/core/lv_indev.c ****     if(i->proc.wait_until_release) {
 379:Middlewares/lvgl/src/core/lv_indev.c ****         i->proc.wait_until_release      = 0;
 380:Middlewares/lvgl/src/core/lv_indev.c ****         i->proc.pr_timestamp            = 0;
 381:Middlewares/lvgl/src/core/lv_indev.c ****         i->proc.long_pr_sent            = 0;
 382:Middlewares/lvgl/src/core/lv_indev.c ****         i->proc.types.keypad.last_state = LV_INDEV_STATE_RELEASED; /*To skip the processing of rele
 383:Middlewares/lvgl/src/core/lv_indev.c ****     }
 384:Middlewares/lvgl/src/core/lv_indev.c **** 
 385:Middlewares/lvgl/src/core/lv_indev.c ****     lv_group_t * g = i->group;
 386:Middlewares/lvgl/src/core/lv_indev.c ****     if(g == NULL) return;
 387:Middlewares/lvgl/src/core/lv_indev.c **** 
 388:Middlewares/lvgl/src/core/lv_indev.c ****     indev_obj_act = lv_group_get_focused(g);
 389:Middlewares/lvgl/src/core/lv_indev.c ****     if(indev_obj_act == NULL) return;
 390:Middlewares/lvgl/src/core/lv_indev.c **** 
 391:Middlewares/lvgl/src/core/lv_indev.c ****     /*Save the last key to compare it with the current latter on RELEASE*/
 392:Middlewares/lvgl/src/core/lv_indev.c ****     uint32_t prev_key = i->proc.types.keypad.last_key;
 393:Middlewares/lvgl/src/core/lv_indev.c **** 
 394:Middlewares/lvgl/src/core/lv_indev.c ****     /*Save the last key.
 395:Middlewares/lvgl/src/core/lv_indev.c ****      *It must be done here else `lv_indev_get_key` will return the last key in events*/
 396:Middlewares/lvgl/src/core/lv_indev.c ****     i->proc.types.keypad.last_key = data->key;
 397:Middlewares/lvgl/src/core/lv_indev.c **** 
 398:Middlewares/lvgl/src/core/lv_indev.c ****     /*Save the previous state so we can detect state changes below and also set the last state now
 399:Middlewares/lvgl/src/core/lv_indev.c ****      *so if any event handler on the way returns `LV_RES_INV` the last state is remembered
 400:Middlewares/lvgl/src/core/lv_indev.c ****      *for the next time*/
 401:Middlewares/lvgl/src/core/lv_indev.c ****     uint32_t prev_state             = i->proc.types.keypad.last_state;
 402:Middlewares/lvgl/src/core/lv_indev.c ****     i->proc.types.keypad.last_state = data->state;
 403:Middlewares/lvgl/src/core/lv_indev.c **** 
 404:Middlewares/lvgl/src/core/lv_indev.c ****     /*Key press happened*/
 405:Middlewares/lvgl/src/core/lv_indev.c ****     if(data->state == LV_INDEV_STATE_PRESSED && prev_state == LV_INDEV_STATE_RELEASED) {
 406:Middlewares/lvgl/src/core/lv_indev.c ****         LV_LOG_INFO("%d key is pressed", data->key);
 407:Middlewares/lvgl/src/core/lv_indev.c ****         i->proc.pr_timestamp = lv_tick_get();
 408:Middlewares/lvgl/src/core/lv_indev.c **** 
 409:Middlewares/lvgl/src/core/lv_indev.c ****         /*Simulate a press on the object if ENTER was pressed*/
 410:Middlewares/lvgl/src/core/lv_indev.c ****         if(data->key == LV_KEY_ENTER) {
 411:Middlewares/lvgl/src/core/lv_indev.c ****             /*Send the ENTER as a normal KEY*/
 412:Middlewares/lvgl/src/core/lv_indev.c ****             lv_group_send_data(g, LV_KEY_ENTER);
 413:Middlewares/lvgl/src/core/lv_indev.c **** 
 414:Middlewares/lvgl/src/core/lv_indev.c ****             lv_event_send(indev_obj_act, LV_EVENT_PRESSED, indev_act);
 415:Middlewares/lvgl/src/core/lv_indev.c ****             if(indev_reset_check(&i->proc)) return;
 416:Middlewares/lvgl/src/core/lv_indev.c ****         }
 417:Middlewares/lvgl/src/core/lv_indev.c ****         else if(data->key == LV_KEY_ESC) {
 418:Middlewares/lvgl/src/core/lv_indev.c ****             /*Send the ESC as a normal KEY*/
 419:Middlewares/lvgl/src/core/lv_indev.c ****             lv_group_send_data(g, LV_KEY_ESC);
 420:Middlewares/lvgl/src/core/lv_indev.c **** 
 421:Middlewares/lvgl/src/core/lv_indev.c ****             lv_event_send(indev_obj_act, LV_EVENT_CANCEL, indev_act);
 422:Middlewares/lvgl/src/core/lv_indev.c ****             if(indev_reset_check(&i->proc)) return;
 423:Middlewares/lvgl/src/core/lv_indev.c ****         }
 424:Middlewares/lvgl/src/core/lv_indev.c ****         /*Move the focus on NEXT*/
 425:Middlewares/lvgl/src/core/lv_indev.c ****         else if(data->key == LV_KEY_NEXT) {
 426:Middlewares/lvgl/src/core/lv_indev.c ****             lv_group_set_editing(g, false); /*Editing is not used by KEYPAD is be sure it is disabl
 427:Middlewares/lvgl/src/core/lv_indev.c ****             lv_group_focus_next(g);
 428:Middlewares/lvgl/src/core/lv_indev.c ****             if(indev_reset_check(&i->proc)) return;
 429:Middlewares/lvgl/src/core/lv_indev.c ****         }
ARM GAS  /tmp/ccjEXvZv.s 			page 9


 430:Middlewares/lvgl/src/core/lv_indev.c ****         /*Move the focus on PREV*/
 431:Middlewares/lvgl/src/core/lv_indev.c ****         else if(data->key == LV_KEY_PREV) {
 432:Middlewares/lvgl/src/core/lv_indev.c ****             lv_group_set_editing(g, false); /*Editing is not used by KEYPAD is be sure it is disabl
 433:Middlewares/lvgl/src/core/lv_indev.c ****             lv_group_focus_prev(g);
 434:Middlewares/lvgl/src/core/lv_indev.c ****             if(indev_reset_check(&i->proc)) return;
 435:Middlewares/lvgl/src/core/lv_indev.c ****         }
 436:Middlewares/lvgl/src/core/lv_indev.c ****         /*Just send other keys to the object (e.g. 'A' or `LV_GROUP_KEY_RIGHT`)*/
 437:Middlewares/lvgl/src/core/lv_indev.c ****         else {
 438:Middlewares/lvgl/src/core/lv_indev.c ****             lv_group_send_data(g, data->key);
 439:Middlewares/lvgl/src/core/lv_indev.c ****         }
 440:Middlewares/lvgl/src/core/lv_indev.c ****     }
 441:Middlewares/lvgl/src/core/lv_indev.c ****     /*Pressing*/
 442:Middlewares/lvgl/src/core/lv_indev.c ****     else if(data->state == LV_INDEV_STATE_PRESSED && prev_state == LV_INDEV_STATE_PRESSED) {
 443:Middlewares/lvgl/src/core/lv_indev.c **** 
 444:Middlewares/lvgl/src/core/lv_indev.c ****         if(data->key == LV_KEY_ENTER) {
 445:Middlewares/lvgl/src/core/lv_indev.c ****             lv_event_send(indev_obj_act, LV_EVENT_PRESSING, indev_act);
 446:Middlewares/lvgl/src/core/lv_indev.c ****             if(indev_reset_check(&i->proc)) return;
 447:Middlewares/lvgl/src/core/lv_indev.c ****         }
 448:Middlewares/lvgl/src/core/lv_indev.c **** 
 449:Middlewares/lvgl/src/core/lv_indev.c ****         /*Long press time has elapsed?*/
 450:Middlewares/lvgl/src/core/lv_indev.c ****         if(i->proc.long_pr_sent == 0 && lv_tick_elaps(i->proc.pr_timestamp) > i->driver->long_press
 451:Middlewares/lvgl/src/core/lv_indev.c ****             i->proc.long_pr_sent = 1;
 452:Middlewares/lvgl/src/core/lv_indev.c ****             if(data->key == LV_KEY_ENTER) {
 453:Middlewares/lvgl/src/core/lv_indev.c ****                 i->proc.longpr_rep_timestamp = lv_tick_get();
 454:Middlewares/lvgl/src/core/lv_indev.c ****                 lv_event_send(indev_obj_act, LV_EVENT_LONG_PRESSED, indev_act);
 455:Middlewares/lvgl/src/core/lv_indev.c ****                 if(indev_reset_check(&i->proc)) return;
 456:Middlewares/lvgl/src/core/lv_indev.c ****             }
 457:Middlewares/lvgl/src/core/lv_indev.c ****         }
 458:Middlewares/lvgl/src/core/lv_indev.c ****         /*Long press repeated time has elapsed?*/
 459:Middlewares/lvgl/src/core/lv_indev.c ****         else if(i->proc.long_pr_sent != 0 &&
 460:Middlewares/lvgl/src/core/lv_indev.c ****                 lv_tick_elaps(i->proc.longpr_rep_timestamp) > i->driver->long_press_repeat_time) {
 461:Middlewares/lvgl/src/core/lv_indev.c **** 
 462:Middlewares/lvgl/src/core/lv_indev.c ****             i->proc.longpr_rep_timestamp = lv_tick_get();
 463:Middlewares/lvgl/src/core/lv_indev.c **** 
 464:Middlewares/lvgl/src/core/lv_indev.c ****             /*Send LONG_PRESS_REP on ENTER*/
 465:Middlewares/lvgl/src/core/lv_indev.c ****             if(data->key == LV_KEY_ENTER) {
 466:Middlewares/lvgl/src/core/lv_indev.c ****                 lv_event_send(indev_obj_act, LV_EVENT_LONG_PRESSED_REPEAT, indev_act);
 467:Middlewares/lvgl/src/core/lv_indev.c ****                 if(indev_reset_check(&i->proc)) return;
 468:Middlewares/lvgl/src/core/lv_indev.c ****             }
 469:Middlewares/lvgl/src/core/lv_indev.c ****             /*Move the focus on NEXT again*/
 470:Middlewares/lvgl/src/core/lv_indev.c ****             else if(data->key == LV_KEY_NEXT) {
 471:Middlewares/lvgl/src/core/lv_indev.c ****                 lv_group_set_editing(g, false); /*Editing is not used by KEYPAD is be sure it is di
 472:Middlewares/lvgl/src/core/lv_indev.c ****                 lv_group_focus_next(g);
 473:Middlewares/lvgl/src/core/lv_indev.c ****                 if(indev_reset_check(&i->proc)) return;
 474:Middlewares/lvgl/src/core/lv_indev.c ****             }
 475:Middlewares/lvgl/src/core/lv_indev.c ****             /*Move the focus on PREV again*/
 476:Middlewares/lvgl/src/core/lv_indev.c ****             else if(data->key == LV_KEY_PREV) {
 477:Middlewares/lvgl/src/core/lv_indev.c ****                 lv_group_set_editing(g, false); /*Editing is not used by KEYPAD is be sure it is di
 478:Middlewares/lvgl/src/core/lv_indev.c ****                 lv_group_focus_prev(g);
 479:Middlewares/lvgl/src/core/lv_indev.c ****                 if(indev_reset_check(&i->proc)) return;
 480:Middlewares/lvgl/src/core/lv_indev.c ****             }
 481:Middlewares/lvgl/src/core/lv_indev.c ****             /*Just send other keys again to the object (e.g. 'A' or `LV_GROUP_KEY_RIGHT)*/
 482:Middlewares/lvgl/src/core/lv_indev.c ****             else {
 483:Middlewares/lvgl/src/core/lv_indev.c ****                 lv_group_send_data(g, data->key);
 484:Middlewares/lvgl/src/core/lv_indev.c ****                 if(indev_reset_check(&i->proc)) return;
 485:Middlewares/lvgl/src/core/lv_indev.c ****             }
 486:Middlewares/lvgl/src/core/lv_indev.c ****         }
ARM GAS  /tmp/ccjEXvZv.s 			page 10


 487:Middlewares/lvgl/src/core/lv_indev.c ****     }
 488:Middlewares/lvgl/src/core/lv_indev.c ****     /*Release happened*/
 489:Middlewares/lvgl/src/core/lv_indev.c ****     else if(data->state == LV_INDEV_STATE_RELEASED && prev_state == LV_INDEV_STATE_PRESSED) {
 490:Middlewares/lvgl/src/core/lv_indev.c ****         LV_LOG_INFO("%d key is released", data->key);
 491:Middlewares/lvgl/src/core/lv_indev.c ****         /*The user might clear the key when it was released. Always release the pressed key*/
 492:Middlewares/lvgl/src/core/lv_indev.c ****         data->key = prev_key;
 493:Middlewares/lvgl/src/core/lv_indev.c ****         if(data->key == LV_KEY_ENTER) {
 494:Middlewares/lvgl/src/core/lv_indev.c **** 
 495:Middlewares/lvgl/src/core/lv_indev.c ****             lv_event_send(indev_obj_act, LV_EVENT_RELEASED, indev_act);
 496:Middlewares/lvgl/src/core/lv_indev.c ****             if(indev_reset_check(&i->proc)) return;
 497:Middlewares/lvgl/src/core/lv_indev.c **** 
 498:Middlewares/lvgl/src/core/lv_indev.c ****             if(i->proc.long_pr_sent == 0) {
 499:Middlewares/lvgl/src/core/lv_indev.c ****                 lv_event_send(indev_obj_act, LV_EVENT_SHORT_CLICKED, indev_act);
 500:Middlewares/lvgl/src/core/lv_indev.c ****                 if(indev_reset_check(&i->proc)) return;
 501:Middlewares/lvgl/src/core/lv_indev.c ****             }
 502:Middlewares/lvgl/src/core/lv_indev.c **** 
 503:Middlewares/lvgl/src/core/lv_indev.c ****             lv_event_send(indev_obj_act, LV_EVENT_CLICKED, indev_act);
 504:Middlewares/lvgl/src/core/lv_indev.c ****             if(indev_reset_check(&i->proc)) return;
 505:Middlewares/lvgl/src/core/lv_indev.c **** 
 506:Middlewares/lvgl/src/core/lv_indev.c ****         }
 507:Middlewares/lvgl/src/core/lv_indev.c ****         i->proc.pr_timestamp = 0;
 508:Middlewares/lvgl/src/core/lv_indev.c ****         i->proc.long_pr_sent = 0;
 509:Middlewares/lvgl/src/core/lv_indev.c ****     }
 510:Middlewares/lvgl/src/core/lv_indev.c ****     indev_obj_act = NULL;
 511:Middlewares/lvgl/src/core/lv_indev.c **** }
 512:Middlewares/lvgl/src/core/lv_indev.c **** 
 513:Middlewares/lvgl/src/core/lv_indev.c **** /**
 514:Middlewares/lvgl/src/core/lv_indev.c ****  * Process a new point from LV_INDEV_TYPE_ENCODER input device
 515:Middlewares/lvgl/src/core/lv_indev.c ****  * @param i pointer to an input device
 516:Middlewares/lvgl/src/core/lv_indev.c ****  * @param data pointer to the data read from the input device
 517:Middlewares/lvgl/src/core/lv_indev.c ****  */
 518:Middlewares/lvgl/src/core/lv_indev.c **** static void indev_encoder_proc(lv_indev_t * i, lv_indev_data_t * data)
 519:Middlewares/lvgl/src/core/lv_indev.c **** {
 520:Middlewares/lvgl/src/core/lv_indev.c ****     if(data->state == LV_INDEV_STATE_PRESSED && i->proc.wait_until_release) return;
 521:Middlewares/lvgl/src/core/lv_indev.c **** 
 522:Middlewares/lvgl/src/core/lv_indev.c ****     if(i->proc.wait_until_release) {
 523:Middlewares/lvgl/src/core/lv_indev.c ****         i->proc.wait_until_release      = 0;
 524:Middlewares/lvgl/src/core/lv_indev.c ****         i->proc.pr_timestamp            = 0;
 525:Middlewares/lvgl/src/core/lv_indev.c ****         i->proc.long_pr_sent            = 0;
 526:Middlewares/lvgl/src/core/lv_indev.c ****         i->proc.types.keypad.last_state = LV_INDEV_STATE_RELEASED; /*To skip the processing of rele
 527:Middlewares/lvgl/src/core/lv_indev.c ****     }
 528:Middlewares/lvgl/src/core/lv_indev.c **** 
 529:Middlewares/lvgl/src/core/lv_indev.c ****     /*Save the last keys before anything else.
 530:Middlewares/lvgl/src/core/lv_indev.c ****      *They need to be already saved if the function returns for any reason*/
 531:Middlewares/lvgl/src/core/lv_indev.c ****     lv_indev_state_t last_state     = i->proc.types.keypad.last_state;
 532:Middlewares/lvgl/src/core/lv_indev.c ****     i->proc.types.keypad.last_state = data->state;
 533:Middlewares/lvgl/src/core/lv_indev.c ****     i->proc.types.keypad.last_key   = data->key;
 534:Middlewares/lvgl/src/core/lv_indev.c **** 
 535:Middlewares/lvgl/src/core/lv_indev.c ****     lv_group_t * g = i->group;
 536:Middlewares/lvgl/src/core/lv_indev.c ****     if(g == NULL) return;
 537:Middlewares/lvgl/src/core/lv_indev.c **** 
 538:Middlewares/lvgl/src/core/lv_indev.c ****     indev_obj_act = lv_group_get_focused(g);
 539:Middlewares/lvgl/src/core/lv_indev.c ****     if(indev_obj_act == NULL) return;
 540:Middlewares/lvgl/src/core/lv_indev.c **** 
 541:Middlewares/lvgl/src/core/lv_indev.c ****     /*Process the steps they are valid only with released button*/
 542:Middlewares/lvgl/src/core/lv_indev.c ****     if(data->state != LV_INDEV_STATE_RELEASED) {
 543:Middlewares/lvgl/src/core/lv_indev.c ****         data->enc_diff = 0;
ARM GAS  /tmp/ccjEXvZv.s 			page 11


 544:Middlewares/lvgl/src/core/lv_indev.c ****     }
 545:Middlewares/lvgl/src/core/lv_indev.c **** 
 546:Middlewares/lvgl/src/core/lv_indev.c ****     /*Refresh the focused object. It might change due to lv_group_focus_prev/next*/
 547:Middlewares/lvgl/src/core/lv_indev.c ****     indev_obj_act = lv_group_get_focused(g);
 548:Middlewares/lvgl/src/core/lv_indev.c ****     if(indev_obj_act == NULL) return;
 549:Middlewares/lvgl/src/core/lv_indev.c **** 
 550:Middlewares/lvgl/src/core/lv_indev.c ****     /*Button press happened*/
 551:Middlewares/lvgl/src/core/lv_indev.c ****     if(data->state == LV_INDEV_STATE_PRESSED && last_state == LV_INDEV_STATE_RELEASED) {
 552:Middlewares/lvgl/src/core/lv_indev.c ****         LV_LOG_INFO("pressed");
 553:Middlewares/lvgl/src/core/lv_indev.c **** 
 554:Middlewares/lvgl/src/core/lv_indev.c ****         i->proc.pr_timestamp = lv_tick_get();
 555:Middlewares/lvgl/src/core/lv_indev.c **** 
 556:Middlewares/lvgl/src/core/lv_indev.c ****         if(data->key == LV_KEY_ENTER) {
 557:Middlewares/lvgl/src/core/lv_indev.c ****             bool editable = lv_obj_is_editable(indev_obj_act);
 558:Middlewares/lvgl/src/core/lv_indev.c **** 
 559:Middlewares/lvgl/src/core/lv_indev.c ****             if(lv_group_get_editing(g) == true || editable == false) {
 560:Middlewares/lvgl/src/core/lv_indev.c ****                 lv_event_send(indev_obj_act, LV_EVENT_PRESSED, indev_act);
 561:Middlewares/lvgl/src/core/lv_indev.c ****                 if(indev_reset_check(&i->proc)) return;
 562:Middlewares/lvgl/src/core/lv_indev.c ****             }
 563:Middlewares/lvgl/src/core/lv_indev.c ****         }
 564:Middlewares/lvgl/src/core/lv_indev.c ****         else if(data->key == LV_KEY_LEFT) {
 565:Middlewares/lvgl/src/core/lv_indev.c ****             /*emulate encoder left*/
 566:Middlewares/lvgl/src/core/lv_indev.c ****             data->enc_diff--;
 567:Middlewares/lvgl/src/core/lv_indev.c ****         }
 568:Middlewares/lvgl/src/core/lv_indev.c ****         else if(data->key == LV_KEY_RIGHT) {
 569:Middlewares/lvgl/src/core/lv_indev.c ****             /*emulate encoder right*/
 570:Middlewares/lvgl/src/core/lv_indev.c ****             data->enc_diff++;
 571:Middlewares/lvgl/src/core/lv_indev.c ****         }
 572:Middlewares/lvgl/src/core/lv_indev.c ****         else if(data->key == LV_KEY_ESC) {
 573:Middlewares/lvgl/src/core/lv_indev.c ****             /*Send the ESC as a normal KEY*/
 574:Middlewares/lvgl/src/core/lv_indev.c ****             lv_group_send_data(g, LV_KEY_ESC);
 575:Middlewares/lvgl/src/core/lv_indev.c **** 
 576:Middlewares/lvgl/src/core/lv_indev.c ****             lv_event_send(indev_obj_act, LV_EVENT_CANCEL, indev_act);
 577:Middlewares/lvgl/src/core/lv_indev.c ****             if(indev_reset_check(&i->proc)) return;
 578:Middlewares/lvgl/src/core/lv_indev.c ****         }
 579:Middlewares/lvgl/src/core/lv_indev.c ****         /*Just send other keys to the object (e.g. 'A' or `LV_GROUP_KEY_RIGHT`)*/
 580:Middlewares/lvgl/src/core/lv_indev.c ****         else {
 581:Middlewares/lvgl/src/core/lv_indev.c ****             lv_group_send_data(g, data->key);
 582:Middlewares/lvgl/src/core/lv_indev.c ****         }
 583:Middlewares/lvgl/src/core/lv_indev.c ****     }
 584:Middlewares/lvgl/src/core/lv_indev.c ****     /*Pressing*/
 585:Middlewares/lvgl/src/core/lv_indev.c ****     else if(data->state == LV_INDEV_STATE_PRESSED && last_state == LV_INDEV_STATE_PRESSED) {
 586:Middlewares/lvgl/src/core/lv_indev.c ****         /*Long press*/
 587:Middlewares/lvgl/src/core/lv_indev.c ****         if(i->proc.long_pr_sent == 0 && lv_tick_elaps(i->proc.pr_timestamp) > i->driver->long_press
 588:Middlewares/lvgl/src/core/lv_indev.c **** 
 589:Middlewares/lvgl/src/core/lv_indev.c ****             i->proc.long_pr_sent = 1;
 590:Middlewares/lvgl/src/core/lv_indev.c ****             i->proc.longpr_rep_timestamp = lv_tick_get();
 591:Middlewares/lvgl/src/core/lv_indev.c **** 
 592:Middlewares/lvgl/src/core/lv_indev.c ****             if(data->key == LV_KEY_ENTER) {
 593:Middlewares/lvgl/src/core/lv_indev.c ****                 bool editable = lv_obj_is_editable(indev_obj_act);
 594:Middlewares/lvgl/src/core/lv_indev.c **** 
 595:Middlewares/lvgl/src/core/lv_indev.c ****                 /*On enter long press toggle edit mode.*/
 596:Middlewares/lvgl/src/core/lv_indev.c ****                 if(editable) {
 597:Middlewares/lvgl/src/core/lv_indev.c ****                     /*Don't leave edit mode if there is only one object (nowhere to navigate)*/
 598:Middlewares/lvgl/src/core/lv_indev.c ****                     if(lv_group_get_obj_count(g) > 1) {
 599:Middlewares/lvgl/src/core/lv_indev.c ****                         lv_group_set_editing(g, lv_group_get_editing(g) ? false : true); /*Toggle e
 600:Middlewares/lvgl/src/core/lv_indev.c ****                         lv_obj_clear_state(indev_obj_act, LV_STATE_PRESSED);    /*Remove the presse
ARM GAS  /tmp/ccjEXvZv.s 			page 12


 601:Middlewares/lvgl/src/core/lv_indev.c ****                     }
 602:Middlewares/lvgl/src/core/lv_indev.c ****                 }
 603:Middlewares/lvgl/src/core/lv_indev.c ****                 /*If not editable then just send a long press Call the ancestor's event handler*/
 604:Middlewares/lvgl/src/core/lv_indev.c ****                 else {
 605:Middlewares/lvgl/src/core/lv_indev.c ****                     lv_event_send(indev_obj_act, LV_EVENT_LONG_PRESSED, indev_act);
 606:Middlewares/lvgl/src/core/lv_indev.c ****                     if(indev_reset_check(&i->proc)) return;
 607:Middlewares/lvgl/src/core/lv_indev.c ****                 }
 608:Middlewares/lvgl/src/core/lv_indev.c ****             }
 609:Middlewares/lvgl/src/core/lv_indev.c **** 
 610:Middlewares/lvgl/src/core/lv_indev.c ****             i->proc.long_pr_sent = 1;
 611:Middlewares/lvgl/src/core/lv_indev.c ****         }
 612:Middlewares/lvgl/src/core/lv_indev.c ****         /*Long press repeated time has elapsed?*/
 613:Middlewares/lvgl/src/core/lv_indev.c ****         else if(i->proc.long_pr_sent != 0 && lv_tick_elaps(i->proc.longpr_rep_timestamp) > i->drive
 614:Middlewares/lvgl/src/core/lv_indev.c **** 
 615:Middlewares/lvgl/src/core/lv_indev.c ****             i->proc.longpr_rep_timestamp = lv_tick_get();
 616:Middlewares/lvgl/src/core/lv_indev.c **** 
 617:Middlewares/lvgl/src/core/lv_indev.c ****             if(data->key == LV_KEY_ENTER) {
 618:Middlewares/lvgl/src/core/lv_indev.c ****                 lv_event_send(indev_obj_act, LV_EVENT_LONG_PRESSED_REPEAT, indev_act);
 619:Middlewares/lvgl/src/core/lv_indev.c ****                 if(indev_reset_check(&i->proc)) return;
 620:Middlewares/lvgl/src/core/lv_indev.c ****             }
 621:Middlewares/lvgl/src/core/lv_indev.c ****             else if(data->key == LV_KEY_LEFT) {
 622:Middlewares/lvgl/src/core/lv_indev.c ****                 /*emulate encoder left*/
 623:Middlewares/lvgl/src/core/lv_indev.c ****                 data->enc_diff--;
 624:Middlewares/lvgl/src/core/lv_indev.c ****             }
 625:Middlewares/lvgl/src/core/lv_indev.c ****             else if(data->key == LV_KEY_RIGHT) {
 626:Middlewares/lvgl/src/core/lv_indev.c ****                 /*emulate encoder right*/
 627:Middlewares/lvgl/src/core/lv_indev.c ****                 data->enc_diff++;
 628:Middlewares/lvgl/src/core/lv_indev.c ****             }
 629:Middlewares/lvgl/src/core/lv_indev.c ****             else {
 630:Middlewares/lvgl/src/core/lv_indev.c ****                 lv_group_send_data(g, data->key);
 631:Middlewares/lvgl/src/core/lv_indev.c ****                 if(indev_reset_check(&i->proc)) return;
 632:Middlewares/lvgl/src/core/lv_indev.c ****             }
 633:Middlewares/lvgl/src/core/lv_indev.c **** 
 634:Middlewares/lvgl/src/core/lv_indev.c ****         }
 635:Middlewares/lvgl/src/core/lv_indev.c **** 
 636:Middlewares/lvgl/src/core/lv_indev.c ****     }
 637:Middlewares/lvgl/src/core/lv_indev.c ****     /*Release happened*/
 638:Middlewares/lvgl/src/core/lv_indev.c ****     else if(data->state == LV_INDEV_STATE_RELEASED && last_state == LV_INDEV_STATE_PRESSED) {
 639:Middlewares/lvgl/src/core/lv_indev.c ****         LV_LOG_INFO("released");
 640:Middlewares/lvgl/src/core/lv_indev.c **** 
 641:Middlewares/lvgl/src/core/lv_indev.c ****         if(data->key == LV_KEY_ENTER) {
 642:Middlewares/lvgl/src/core/lv_indev.c ****             bool editable = lv_obj_is_editable(indev_obj_act);
 643:Middlewares/lvgl/src/core/lv_indev.c **** 
 644:Middlewares/lvgl/src/core/lv_indev.c ****             /*The button was released on a non-editable object. Just send enter*/
 645:Middlewares/lvgl/src/core/lv_indev.c ****             if(editable == false) {
 646:Middlewares/lvgl/src/core/lv_indev.c ****                 lv_event_send(indev_obj_act, LV_EVENT_RELEASED, indev_act);
 647:Middlewares/lvgl/src/core/lv_indev.c ****                 if(indev_reset_check(&i->proc)) return;
 648:Middlewares/lvgl/src/core/lv_indev.c **** 
 649:Middlewares/lvgl/src/core/lv_indev.c ****                 if(i->proc.long_pr_sent == 0) lv_event_send(indev_obj_act, LV_EVENT_SHORT_CLICKED, 
 650:Middlewares/lvgl/src/core/lv_indev.c ****                 if(indev_reset_check(&i->proc)) return;
 651:Middlewares/lvgl/src/core/lv_indev.c **** 
 652:Middlewares/lvgl/src/core/lv_indev.c ****                 lv_event_send(indev_obj_act, LV_EVENT_CLICKED, indev_act);
 653:Middlewares/lvgl/src/core/lv_indev.c ****                 if(indev_reset_check(&i->proc)) return;
 654:Middlewares/lvgl/src/core/lv_indev.c **** 
 655:Middlewares/lvgl/src/core/lv_indev.c ****             }
 656:Middlewares/lvgl/src/core/lv_indev.c ****             /*An object is being edited and the button is released.*/
 657:Middlewares/lvgl/src/core/lv_indev.c ****             else if(lv_group_get_editing(g)) {
ARM GAS  /tmp/ccjEXvZv.s 			page 13


 658:Middlewares/lvgl/src/core/lv_indev.c ****                 /*Ignore long pressed enter release because it comes from mode switch*/
 659:Middlewares/lvgl/src/core/lv_indev.c ****                 if(!i->proc.long_pr_sent || lv_group_get_obj_count(g) <= 1) {
 660:Middlewares/lvgl/src/core/lv_indev.c ****                     lv_event_send(indev_obj_act, LV_EVENT_RELEASED, indev_act);
 661:Middlewares/lvgl/src/core/lv_indev.c ****                     if(indev_reset_check(&i->proc)) return;
 662:Middlewares/lvgl/src/core/lv_indev.c **** 
 663:Middlewares/lvgl/src/core/lv_indev.c ****                     lv_event_send(indev_obj_act, LV_EVENT_SHORT_CLICKED, indev_act);
 664:Middlewares/lvgl/src/core/lv_indev.c ****                     if(indev_reset_check(&i->proc)) return;
 665:Middlewares/lvgl/src/core/lv_indev.c **** 
 666:Middlewares/lvgl/src/core/lv_indev.c ****                     lv_event_send(indev_obj_act, LV_EVENT_CLICKED, indev_act);
 667:Middlewares/lvgl/src/core/lv_indev.c ****                     if(indev_reset_check(&i->proc)) return;
 668:Middlewares/lvgl/src/core/lv_indev.c **** 
 669:Middlewares/lvgl/src/core/lv_indev.c **** 
 670:Middlewares/lvgl/src/core/lv_indev.c ****                     lv_group_send_data(g, LV_KEY_ENTER);
 671:Middlewares/lvgl/src/core/lv_indev.c ****                 } else {
 672:Middlewares/lvgl/src/core/lv_indev.c ****                     lv_obj_clear_state(indev_obj_act, LV_STATE_PRESSED);    /*Remove the pressed st
 673:Middlewares/lvgl/src/core/lv_indev.c ****                 }
 674:Middlewares/lvgl/src/core/lv_indev.c ****             }
 675:Middlewares/lvgl/src/core/lv_indev.c ****             /*If the focused object is editable and now in navigate mode then on enter switch edit
 676:Middlewares/lvgl/src/core/lv_indev.c ****                mode*/
 677:Middlewares/lvgl/src/core/lv_indev.c ****             else if(editable && !lv_group_get_editing(g) && !i->proc.long_pr_sent) {
 678:Middlewares/lvgl/src/core/lv_indev.c ****                 lv_group_set_editing(g, true); /*Set edit mode*/
 679:Middlewares/lvgl/src/core/lv_indev.c ****             }
 680:Middlewares/lvgl/src/core/lv_indev.c ****         }
 681:Middlewares/lvgl/src/core/lv_indev.c **** 
 682:Middlewares/lvgl/src/core/lv_indev.c ****         i->proc.pr_timestamp = 0;
 683:Middlewares/lvgl/src/core/lv_indev.c ****         i->proc.long_pr_sent = 0;
 684:Middlewares/lvgl/src/core/lv_indev.c ****     }
 685:Middlewares/lvgl/src/core/lv_indev.c ****     indev_obj_act = NULL;
 686:Middlewares/lvgl/src/core/lv_indev.c **** 
 687:Middlewares/lvgl/src/core/lv_indev.c ****     /*if encoder steps or simulated steps via left/right keys*/
 688:Middlewares/lvgl/src/core/lv_indev.c ****     if(data->enc_diff != 0) {
 689:Middlewares/lvgl/src/core/lv_indev.c ****         LV_LOG_INFO("rotated by %d", data->enc_diff);
 690:Middlewares/lvgl/src/core/lv_indev.c ****         /*In edit mode send LEFT/RIGHT keys*/
 691:Middlewares/lvgl/src/core/lv_indev.c ****         if(lv_group_get_editing(g)) {
 692:Middlewares/lvgl/src/core/lv_indev.c ****             int32_t s;
 693:Middlewares/lvgl/src/core/lv_indev.c ****             if(data->enc_diff < 0) {
 694:Middlewares/lvgl/src/core/lv_indev.c ****                 for(s = 0; s < -data->enc_diff; s++) lv_group_send_data(g, LV_KEY_LEFT);
 695:Middlewares/lvgl/src/core/lv_indev.c ****             }
 696:Middlewares/lvgl/src/core/lv_indev.c ****             else if(data->enc_diff > 0) {
 697:Middlewares/lvgl/src/core/lv_indev.c ****                 for(s = 0; s < data->enc_diff; s++) lv_group_send_data(g, LV_KEY_RIGHT);
 698:Middlewares/lvgl/src/core/lv_indev.c ****             }
 699:Middlewares/lvgl/src/core/lv_indev.c ****         }
 700:Middlewares/lvgl/src/core/lv_indev.c ****         /*In navigate mode focus on the next/prev objects*/
 701:Middlewares/lvgl/src/core/lv_indev.c ****         else {
 702:Middlewares/lvgl/src/core/lv_indev.c ****             int32_t s;
 703:Middlewares/lvgl/src/core/lv_indev.c ****             if(data->enc_diff < 0) {
 704:Middlewares/lvgl/src/core/lv_indev.c ****                 for(s = 0; s < -data->enc_diff; s++) lv_group_focus_prev(g);
 705:Middlewares/lvgl/src/core/lv_indev.c ****             }
 706:Middlewares/lvgl/src/core/lv_indev.c ****             else if(data->enc_diff > 0) {
 707:Middlewares/lvgl/src/core/lv_indev.c ****                 for(s = 0; s < data->enc_diff; s++) lv_group_focus_next(g);
 708:Middlewares/lvgl/src/core/lv_indev.c ****             }
 709:Middlewares/lvgl/src/core/lv_indev.c ****         }
 710:Middlewares/lvgl/src/core/lv_indev.c ****     }
 711:Middlewares/lvgl/src/core/lv_indev.c **** }
 712:Middlewares/lvgl/src/core/lv_indev.c **** 
 713:Middlewares/lvgl/src/core/lv_indev.c **** /**
 714:Middlewares/lvgl/src/core/lv_indev.c ****  * Process new points from a input device. indev->state.pressed has to be set
ARM GAS  /tmp/ccjEXvZv.s 			page 14


 715:Middlewares/lvgl/src/core/lv_indev.c ****  * @param indev pointer to an input device state
 716:Middlewares/lvgl/src/core/lv_indev.c ****  * @param x x coordinate of the next point
 717:Middlewares/lvgl/src/core/lv_indev.c ****  * @param y y coordinate of the next point
 718:Middlewares/lvgl/src/core/lv_indev.c ****  */
 719:Middlewares/lvgl/src/core/lv_indev.c **** static void indev_button_proc(lv_indev_t * i, lv_indev_data_t * data)
 720:Middlewares/lvgl/src/core/lv_indev.c **** {
 721:Middlewares/lvgl/src/core/lv_indev.c ****     /*Die gracefully if i->btn_points is NULL*/
 722:Middlewares/lvgl/src/core/lv_indev.c ****     if(i->btn_points == NULL) {
 723:Middlewares/lvgl/src/core/lv_indev.c ****         LV_LOG_WARN("btn_points is NULL");
 724:Middlewares/lvgl/src/core/lv_indev.c ****         return;
 725:Middlewares/lvgl/src/core/lv_indev.c ****     }
 726:Middlewares/lvgl/src/core/lv_indev.c **** 
 727:Middlewares/lvgl/src/core/lv_indev.c ****     lv_coord_t x = i->btn_points[data->btn_id].x;
 728:Middlewares/lvgl/src/core/lv_indev.c ****     lv_coord_t y = i->btn_points[data->btn_id].y;
 729:Middlewares/lvgl/src/core/lv_indev.c **** 
 730:Middlewares/lvgl/src/core/lv_indev.c ****     static lv_indev_state_t prev_state = LV_INDEV_STATE_RELEASED;
 731:Middlewares/lvgl/src/core/lv_indev.c ****     if(prev_state != data->state) {
 732:Middlewares/lvgl/src/core/lv_indev.c ****         if(data->state == LV_INDEV_STATE_PRESSED) {
 733:Middlewares/lvgl/src/core/lv_indev.c ****             LV_LOG_INFO("button %d is pressed (x:%d y:%d)", data->btn_id, x, y);
 734:Middlewares/lvgl/src/core/lv_indev.c ****         }
 735:Middlewares/lvgl/src/core/lv_indev.c ****         else {
 736:Middlewares/lvgl/src/core/lv_indev.c ****             LV_LOG_INFO("button %d is released (x:%d y:%d)", data->btn_id, x, y);
 737:Middlewares/lvgl/src/core/lv_indev.c ****         }
 738:Middlewares/lvgl/src/core/lv_indev.c ****     }
 739:Middlewares/lvgl/src/core/lv_indev.c **** 
 740:Middlewares/lvgl/src/core/lv_indev.c ****     /*If a new point comes always make a release*/
 741:Middlewares/lvgl/src/core/lv_indev.c ****     if(data->state == LV_INDEV_STATE_PRESSED) {
 742:Middlewares/lvgl/src/core/lv_indev.c ****         if(i->proc.types.pointer.last_point.x != x ||
 743:Middlewares/lvgl/src/core/lv_indev.c ****            i->proc.types.pointer.last_point.y != y) {
 744:Middlewares/lvgl/src/core/lv_indev.c ****             indev_proc_release(&i->proc);
 745:Middlewares/lvgl/src/core/lv_indev.c ****         }
 746:Middlewares/lvgl/src/core/lv_indev.c ****     }
 747:Middlewares/lvgl/src/core/lv_indev.c **** 
 748:Middlewares/lvgl/src/core/lv_indev.c ****     if(indev_reset_check(&i->proc)) return;
 749:Middlewares/lvgl/src/core/lv_indev.c **** 
 750:Middlewares/lvgl/src/core/lv_indev.c ****     /*Save the new points*/
 751:Middlewares/lvgl/src/core/lv_indev.c ****     i->proc.types.pointer.act_point.x = x;
 752:Middlewares/lvgl/src/core/lv_indev.c ****     i->proc.types.pointer.act_point.y = y;
 753:Middlewares/lvgl/src/core/lv_indev.c **** 
 754:Middlewares/lvgl/src/core/lv_indev.c ****     if(data->state == LV_INDEV_STATE_PRESSED) indev_proc_press(&i->proc);
 755:Middlewares/lvgl/src/core/lv_indev.c ****     else indev_proc_release(&i->proc);
 756:Middlewares/lvgl/src/core/lv_indev.c **** 
 757:Middlewares/lvgl/src/core/lv_indev.c ****     if(indev_reset_check(&i->proc)) return;
 758:Middlewares/lvgl/src/core/lv_indev.c **** 
 759:Middlewares/lvgl/src/core/lv_indev.c ****     i->proc.types.pointer.last_point.x = i->proc.types.pointer.act_point.x;
 760:Middlewares/lvgl/src/core/lv_indev.c ****     i->proc.types.pointer.last_point.y = i->proc.types.pointer.act_point.y;
 761:Middlewares/lvgl/src/core/lv_indev.c **** }
 762:Middlewares/lvgl/src/core/lv_indev.c **** 
 763:Middlewares/lvgl/src/core/lv_indev.c **** /**
 764:Middlewares/lvgl/src/core/lv_indev.c ****  * Process the pressed state of LV_INDEV_TYPE_POINTER input devices
 765:Middlewares/lvgl/src/core/lv_indev.c ****  * @param indev pointer to an input device 'proc'
 766:Middlewares/lvgl/src/core/lv_indev.c ****  * @return LV_RES_OK: no indev reset required; LV_RES_INV: indev reset is required
 767:Middlewares/lvgl/src/core/lv_indev.c ****  */
 768:Middlewares/lvgl/src/core/lv_indev.c **** static void indev_proc_press(_lv_indev_proc_t * proc)
 769:Middlewares/lvgl/src/core/lv_indev.c **** {
 770:Middlewares/lvgl/src/core/lv_indev.c ****     LV_LOG_INFO("pressed at x:%d y:%d", proc->types.pointer.act_point.x, proc->types.pointer.act_po
 771:Middlewares/lvgl/src/core/lv_indev.c ****     indev_obj_act = proc->types.pointer.act_obj;
ARM GAS  /tmp/ccjEXvZv.s 			page 15


 772:Middlewares/lvgl/src/core/lv_indev.c **** 
 773:Middlewares/lvgl/src/core/lv_indev.c ****     if(proc->wait_until_release != 0) return;
 774:Middlewares/lvgl/src/core/lv_indev.c **** 
 775:Middlewares/lvgl/src/core/lv_indev.c ****     lv_disp_t * disp = indev_act->driver->disp;
 776:Middlewares/lvgl/src/core/lv_indev.c ****     bool new_obj_searched = false;
 777:Middlewares/lvgl/src/core/lv_indev.c **** 
 778:Middlewares/lvgl/src/core/lv_indev.c ****     /*If there is no last object then search*/
 779:Middlewares/lvgl/src/core/lv_indev.c ****     if(indev_obj_act == NULL) {
 780:Middlewares/lvgl/src/core/lv_indev.c ****         indev_obj_act = lv_indev_search_obj(lv_disp_get_layer_sys(disp), &proc->types.pointer.act_p
 781:Middlewares/lvgl/src/core/lv_indev.c ****         if(indev_obj_act == NULL) indev_obj_act = lv_indev_search_obj(lv_disp_get_layer_top(disp),
 782:Middlewares/lvgl/src/core/lv_indev.c ****                                                                           &proc->types.pointer.act_
 783:Middlewares/lvgl/src/core/lv_indev.c ****         if(indev_obj_act == NULL) indev_obj_act = lv_indev_search_obj(lv_disp_get_scr_act(disp),
 784:Middlewares/lvgl/src/core/lv_indev.c ****                                                                           &proc->types.pointer.act_
 785:Middlewares/lvgl/src/core/lv_indev.c ****         new_obj_searched = true;
 786:Middlewares/lvgl/src/core/lv_indev.c ****     }
 787:Middlewares/lvgl/src/core/lv_indev.c ****     /*If there is last object but it is not scrolled and not protected also search*/
 788:Middlewares/lvgl/src/core/lv_indev.c ****     else if(proc->types.pointer.scroll_obj == NULL &&
 789:Middlewares/lvgl/src/core/lv_indev.c ****             lv_obj_has_flag(indev_obj_act, LV_OBJ_FLAG_PRESS_LOCK) == false) {
 790:Middlewares/lvgl/src/core/lv_indev.c ****         indev_obj_act = lv_indev_search_obj(lv_disp_get_layer_sys(disp), &proc->types.pointer.act_p
 791:Middlewares/lvgl/src/core/lv_indev.c ****         if(indev_obj_act == NULL) indev_obj_act = lv_indev_search_obj(lv_disp_get_layer_top(disp),
 792:Middlewares/lvgl/src/core/lv_indev.c ****                                                                           &proc->types.pointer.act_
 793:Middlewares/lvgl/src/core/lv_indev.c ****         if(indev_obj_act == NULL) indev_obj_act = lv_indev_search_obj(lv_disp_get_scr_act(disp),
 794:Middlewares/lvgl/src/core/lv_indev.c ****                                                                           &proc->types.pointer.act_
 795:Middlewares/lvgl/src/core/lv_indev.c ****         new_obj_searched = true;
 796:Middlewares/lvgl/src/core/lv_indev.c ****     }
 797:Middlewares/lvgl/src/core/lv_indev.c **** 
 798:Middlewares/lvgl/src/core/lv_indev.c ****     /*The last object might have scroll throw. Stop it manually*/
 799:Middlewares/lvgl/src/core/lv_indev.c ****     if(new_obj_searched && proc->types.pointer.last_obj) {
 800:Middlewares/lvgl/src/core/lv_indev.c ****         proc->types.pointer.scroll_throw_vect.x = 0;
 801:Middlewares/lvgl/src/core/lv_indev.c ****         proc->types.pointer.scroll_throw_vect.y = 0;
 802:Middlewares/lvgl/src/core/lv_indev.c ****         _lv_indev_scroll_throw_handler(proc);
 803:Middlewares/lvgl/src/core/lv_indev.c ****         if(indev_reset_check(proc)) return;
 804:Middlewares/lvgl/src/core/lv_indev.c ****     }
 805:Middlewares/lvgl/src/core/lv_indev.c **** 
 806:Middlewares/lvgl/src/core/lv_indev.c ****     /*If a new object was found reset some variables and send a pressed Call the ancestor's event h
 807:Middlewares/lvgl/src/core/lv_indev.c ****     if(indev_obj_act != proc->types.pointer.act_obj) {
 808:Middlewares/lvgl/src/core/lv_indev.c ****         proc->types.pointer.last_point.x = proc->types.pointer.act_point.x;
 809:Middlewares/lvgl/src/core/lv_indev.c ****         proc->types.pointer.last_point.y = proc->types.pointer.act_point.y;
 810:Middlewares/lvgl/src/core/lv_indev.c **** 
 811:Middlewares/lvgl/src/core/lv_indev.c ****         /*If a new object found the previous was lost, so send a Call the ancestor's event handler*
 812:Middlewares/lvgl/src/core/lv_indev.c ****         if(proc->types.pointer.act_obj != NULL) {
 813:Middlewares/lvgl/src/core/lv_indev.c ****             /*Save the obj because in special cases `act_obj` can change in the Call the ancestor's
 814:Middlewares/lvgl/src/core/lv_indev.c ****             lv_obj_t * last_obj = proc->types.pointer.act_obj;
 815:Middlewares/lvgl/src/core/lv_indev.c **** 
 816:Middlewares/lvgl/src/core/lv_indev.c ****             lv_event_send(last_obj, LV_EVENT_PRESS_LOST, indev_act);
 817:Middlewares/lvgl/src/core/lv_indev.c ****             if(indev_reset_check(proc)) return;
 818:Middlewares/lvgl/src/core/lv_indev.c ****         }
 819:Middlewares/lvgl/src/core/lv_indev.c **** 
 820:Middlewares/lvgl/src/core/lv_indev.c ****         proc->types.pointer.act_obj  = indev_obj_act; /*Save the pressed object*/
 821:Middlewares/lvgl/src/core/lv_indev.c ****         proc->types.pointer.last_obj = indev_obj_act;
 822:Middlewares/lvgl/src/core/lv_indev.c **** 
 823:Middlewares/lvgl/src/core/lv_indev.c ****         if(indev_obj_act != NULL) {
 824:Middlewares/lvgl/src/core/lv_indev.c ****             /*Save the time when the obj pressed to count long press time.*/
 825:Middlewares/lvgl/src/core/lv_indev.c ****             proc->pr_timestamp                 = lv_tick_get();
 826:Middlewares/lvgl/src/core/lv_indev.c ****             proc->long_pr_sent                 = 0;
 827:Middlewares/lvgl/src/core/lv_indev.c ****             proc->types.pointer.scroll_sum.x     = 0;
 828:Middlewares/lvgl/src/core/lv_indev.c ****             proc->types.pointer.scroll_sum.y     = 0;
ARM GAS  /tmp/ccjEXvZv.s 			page 16


 829:Middlewares/lvgl/src/core/lv_indev.c ****             proc->types.pointer.scroll_dir = LV_DIR_NONE;
 830:Middlewares/lvgl/src/core/lv_indev.c ****             proc->types.pointer.gesture_dir = LV_DIR_NONE;
 831:Middlewares/lvgl/src/core/lv_indev.c ****             proc->types.pointer.gesture_sent   = 0;
 832:Middlewares/lvgl/src/core/lv_indev.c ****             proc->types.pointer.gesture_sum.x  = 0;
 833:Middlewares/lvgl/src/core/lv_indev.c ****             proc->types.pointer.gesture_sum.y  = 0;
 834:Middlewares/lvgl/src/core/lv_indev.c ****             proc->types.pointer.vect.x         = 0;
 835:Middlewares/lvgl/src/core/lv_indev.c ****             proc->types.pointer.vect.y         = 0;
 836:Middlewares/lvgl/src/core/lv_indev.c **** 
 837:Middlewares/lvgl/src/core/lv_indev.c ****             /*Call the ancestor's event handler about the press*/
 838:Middlewares/lvgl/src/core/lv_indev.c ****             lv_event_send(indev_obj_act, LV_EVENT_PRESSED, indev_act);
 839:Middlewares/lvgl/src/core/lv_indev.c ****             if(indev_reset_check(proc)) return;
 840:Middlewares/lvgl/src/core/lv_indev.c **** 
 841:Middlewares/lvgl/src/core/lv_indev.c ****             if(indev_act->proc.wait_until_release) return;
 842:Middlewares/lvgl/src/core/lv_indev.c **** 
 843:Middlewares/lvgl/src/core/lv_indev.c ****             /*Handle focus*/
 844:Middlewares/lvgl/src/core/lv_indev.c ****             indev_click_focus(&indev_act->proc);
 845:Middlewares/lvgl/src/core/lv_indev.c ****             if(indev_reset_check(proc)) return;
 846:Middlewares/lvgl/src/core/lv_indev.c **** 
 847:Middlewares/lvgl/src/core/lv_indev.c ****         }
 848:Middlewares/lvgl/src/core/lv_indev.c ****     }
 849:Middlewares/lvgl/src/core/lv_indev.c **** 
 850:Middlewares/lvgl/src/core/lv_indev.c ****     /*Calculate the vector and apply a low pass filter: new value = 0.5 * old_value + 0.5 * new_val
 851:Middlewares/lvgl/src/core/lv_indev.c ****     proc->types.pointer.vect.x = proc->types.pointer.act_point.x - proc->types.pointer.last_point.x
 852:Middlewares/lvgl/src/core/lv_indev.c ****     proc->types.pointer.vect.y = proc->types.pointer.act_point.y - proc->types.pointer.last_point.y
 853:Middlewares/lvgl/src/core/lv_indev.c **** 
 854:Middlewares/lvgl/src/core/lv_indev.c ****     proc->types.pointer.scroll_throw_vect.x = (proc->types.pointer.scroll_throw_vect.x * 4) >> 3;
 855:Middlewares/lvgl/src/core/lv_indev.c ****     proc->types.pointer.scroll_throw_vect.y = (proc->types.pointer.scroll_throw_vect.y * 4) >> 3;
 856:Middlewares/lvgl/src/core/lv_indev.c **** 
 857:Middlewares/lvgl/src/core/lv_indev.c ****     proc->types.pointer.scroll_throw_vect.x += (proc->types.pointer.vect.x * 4) >> 3;
 858:Middlewares/lvgl/src/core/lv_indev.c ****     proc->types.pointer.scroll_throw_vect.y += (proc->types.pointer.vect.y * 4) >> 3;
 859:Middlewares/lvgl/src/core/lv_indev.c **** 
 860:Middlewares/lvgl/src/core/lv_indev.c ****     proc->types.pointer.scroll_throw_vect_ori = proc->types.pointer.scroll_throw_vect;
 861:Middlewares/lvgl/src/core/lv_indev.c **** 
 862:Middlewares/lvgl/src/core/lv_indev.c ****     if(indev_obj_act) {
 863:Middlewares/lvgl/src/core/lv_indev.c ****         lv_event_send(indev_obj_act, LV_EVENT_PRESSING, indev_act);
 864:Middlewares/lvgl/src/core/lv_indev.c ****         if(indev_reset_check(proc)) return;
 865:Middlewares/lvgl/src/core/lv_indev.c **** 
 866:Middlewares/lvgl/src/core/lv_indev.c ****         if(indev_act->proc.wait_until_release) return;
 867:Middlewares/lvgl/src/core/lv_indev.c **** 
 868:Middlewares/lvgl/src/core/lv_indev.c ****         _lv_indev_scroll_handler(proc);
 869:Middlewares/lvgl/src/core/lv_indev.c ****         if(indev_reset_check(proc)) return;
 870:Middlewares/lvgl/src/core/lv_indev.c ****         indev_gesture(proc);
 871:Middlewares/lvgl/src/core/lv_indev.c ****         if(indev_reset_check(proc)) return;
 872:Middlewares/lvgl/src/core/lv_indev.c **** 
 873:Middlewares/lvgl/src/core/lv_indev.c ****         /*If there is no scrolling then check for long press time*/
 874:Middlewares/lvgl/src/core/lv_indev.c ****         if(proc->types.pointer.scroll_obj == NULL && proc->long_pr_sent == 0) {
 875:Middlewares/lvgl/src/core/lv_indev.c ****             /*Call the ancestor's event handler about the long press if enough time elapsed*/
 876:Middlewares/lvgl/src/core/lv_indev.c ****             if(lv_tick_elaps(proc->pr_timestamp) > indev_act->driver->long_press_time) {
 877:Middlewares/lvgl/src/core/lv_indev.c ****                 lv_event_send(indev_obj_act, LV_EVENT_LONG_PRESSED, indev_act);
 878:Middlewares/lvgl/src/core/lv_indev.c ****                 if(indev_reset_check(proc)) return;
 879:Middlewares/lvgl/src/core/lv_indev.c **** 
 880:Middlewares/lvgl/src/core/lv_indev.c ****                 /*Mark the Call the ancestor's event handler sending to do not send it again*/
 881:Middlewares/lvgl/src/core/lv_indev.c ****                 proc->long_pr_sent = 1;
 882:Middlewares/lvgl/src/core/lv_indev.c **** 
 883:Middlewares/lvgl/src/core/lv_indev.c ****                 /*Save the long press time stamp for the long press repeat handler*/
 884:Middlewares/lvgl/src/core/lv_indev.c ****                 proc->longpr_rep_timestamp = lv_tick_get();
 885:Middlewares/lvgl/src/core/lv_indev.c ****             }
ARM GAS  /tmp/ccjEXvZv.s 			page 17


 886:Middlewares/lvgl/src/core/lv_indev.c ****         }
 887:Middlewares/lvgl/src/core/lv_indev.c **** 
 888:Middlewares/lvgl/src/core/lv_indev.c ****         /*Send long press repeated Call the ancestor's event handler*/
 889:Middlewares/lvgl/src/core/lv_indev.c ****         if(proc->types.pointer.scroll_obj == NULL && proc->long_pr_sent == 1) {
 890:Middlewares/lvgl/src/core/lv_indev.c ****             /*Call the ancestor's event handler about the long press repeat if enough time elapsed*
 891:Middlewares/lvgl/src/core/lv_indev.c ****             if(lv_tick_elaps(proc->longpr_rep_timestamp) > indev_act->driver->long_press_repeat_tim
 892:Middlewares/lvgl/src/core/lv_indev.c ****                 lv_event_send(indev_obj_act, LV_EVENT_LONG_PRESSED_REPEAT, indev_act);
 893:Middlewares/lvgl/src/core/lv_indev.c ****                 if(indev_reset_check(proc)) return;
 894:Middlewares/lvgl/src/core/lv_indev.c ****                 proc->longpr_rep_timestamp = lv_tick_get();
 895:Middlewares/lvgl/src/core/lv_indev.c ****             }
 896:Middlewares/lvgl/src/core/lv_indev.c ****         }
 897:Middlewares/lvgl/src/core/lv_indev.c ****     }
 898:Middlewares/lvgl/src/core/lv_indev.c **** }
 899:Middlewares/lvgl/src/core/lv_indev.c **** 
 900:Middlewares/lvgl/src/core/lv_indev.c **** /**
 901:Middlewares/lvgl/src/core/lv_indev.c ****  * Process the released state of LV_INDEV_TYPE_POINTER input devices
 902:Middlewares/lvgl/src/core/lv_indev.c ****  * @param proc pointer to an input device 'proc'
 903:Middlewares/lvgl/src/core/lv_indev.c ****  */
 904:Middlewares/lvgl/src/core/lv_indev.c **** static void indev_proc_release(_lv_indev_proc_t * proc)
 905:Middlewares/lvgl/src/core/lv_indev.c **** {
 906:Middlewares/lvgl/src/core/lv_indev.c ****     if(proc->wait_until_release != 0) {
 907:Middlewares/lvgl/src/core/lv_indev.c ****         proc->types.pointer.act_obj  = NULL;
 908:Middlewares/lvgl/src/core/lv_indev.c ****         proc->types.pointer.last_obj = NULL;
 909:Middlewares/lvgl/src/core/lv_indev.c ****         proc->pr_timestamp           = 0;
 910:Middlewares/lvgl/src/core/lv_indev.c ****         proc->longpr_rep_timestamp   = 0;
 911:Middlewares/lvgl/src/core/lv_indev.c ****         proc->wait_until_release     = 0;
 912:Middlewares/lvgl/src/core/lv_indev.c ****     }
 913:Middlewares/lvgl/src/core/lv_indev.c ****     indev_obj_act = proc->types.pointer.act_obj;
 914:Middlewares/lvgl/src/core/lv_indev.c ****     lv_obj_t * scroll_obj = proc->types.pointer.scroll_obj;
 915:Middlewares/lvgl/src/core/lv_indev.c **** 
 916:Middlewares/lvgl/src/core/lv_indev.c ****     /*Forget the act obj and send a released Call the ancestor's event handler*/
 917:Middlewares/lvgl/src/core/lv_indev.c ****     if(indev_obj_act) {
 918:Middlewares/lvgl/src/core/lv_indev.c ****         LV_LOG_INFO("released");
 919:Middlewares/lvgl/src/core/lv_indev.c **** 
 920:Middlewares/lvgl/src/core/lv_indev.c ****         /*Send RELEASE Call the ancestor's event handler and event*/
 921:Middlewares/lvgl/src/core/lv_indev.c ****         lv_event_send(indev_obj_act, LV_EVENT_RELEASED, indev_act);
 922:Middlewares/lvgl/src/core/lv_indev.c ****         if(indev_reset_check(proc)) return;
 923:Middlewares/lvgl/src/core/lv_indev.c **** 
 924:Middlewares/lvgl/src/core/lv_indev.c ****         /*Send CLICK if no scrolling*/
 925:Middlewares/lvgl/src/core/lv_indev.c ****         if(scroll_obj == NULL) {
 926:Middlewares/lvgl/src/core/lv_indev.c ****             if(proc->long_pr_sent == 0) {
 927:Middlewares/lvgl/src/core/lv_indev.c ****                 lv_event_send(indev_obj_act, LV_EVENT_SHORT_CLICKED, indev_act);
 928:Middlewares/lvgl/src/core/lv_indev.c ****                 if(indev_reset_check(proc)) return;
 929:Middlewares/lvgl/src/core/lv_indev.c ****             }
 930:Middlewares/lvgl/src/core/lv_indev.c **** 
 931:Middlewares/lvgl/src/core/lv_indev.c ****             lv_event_send(indev_obj_act, LV_EVENT_CLICKED, indev_act);
 932:Middlewares/lvgl/src/core/lv_indev.c ****             if(indev_reset_check(proc)) return;
 933:Middlewares/lvgl/src/core/lv_indev.c ****         }
 934:Middlewares/lvgl/src/core/lv_indev.c **** 
 935:Middlewares/lvgl/src/core/lv_indev.c ****         proc->types.pointer.act_obj = NULL;
 936:Middlewares/lvgl/src/core/lv_indev.c ****         proc->pr_timestamp          = 0;
 937:Middlewares/lvgl/src/core/lv_indev.c ****         proc->longpr_rep_timestamp  = 0;
 938:Middlewares/lvgl/src/core/lv_indev.c **** 
 939:Middlewares/lvgl/src/core/lv_indev.c ****     }
 940:Middlewares/lvgl/src/core/lv_indev.c **** 
 941:Middlewares/lvgl/src/core/lv_indev.c ****     /*The reset can be set in the Call the ancestor's event handler function.
 942:Middlewares/lvgl/src/core/lv_indev.c ****      * In case of reset query ignore the remaining parts.*/
ARM GAS  /tmp/ccjEXvZv.s 			page 18


 943:Middlewares/lvgl/src/core/lv_indev.c ****     if(scroll_obj) {
 944:Middlewares/lvgl/src/core/lv_indev.c ****         _lv_indev_scroll_throw_handler(proc);
 945:Middlewares/lvgl/src/core/lv_indev.c ****         if(indev_reset_check(proc)) return;
 946:Middlewares/lvgl/src/core/lv_indev.c ****     }
 947:Middlewares/lvgl/src/core/lv_indev.c **** }
 948:Middlewares/lvgl/src/core/lv_indev.c **** 
 949:Middlewares/lvgl/src/core/lv_indev.c **** /**
 950:Middlewares/lvgl/src/core/lv_indev.c ****  * Process a new point from LV_INDEV_TYPE_BUTTON input device
 951:Middlewares/lvgl/src/core/lv_indev.c ****  * @param i pointer to an input device
 952:Middlewares/lvgl/src/core/lv_indev.c ****  * @param data pointer to the data read from the input device
 953:Middlewares/lvgl/src/core/lv_indev.c ****  * Reset input device if a reset query has been sent to it
 954:Middlewares/lvgl/src/core/lv_indev.c ****  * @param indev pointer to an input device
 955:Middlewares/lvgl/src/core/lv_indev.c ****  */
 956:Middlewares/lvgl/src/core/lv_indev.c **** static void indev_proc_reset_query_handler(lv_indev_t * indev)
 957:Middlewares/lvgl/src/core/lv_indev.c **** {
  29              		.loc 1 957 1 view -0
  30              		.cfi_startproc
  31              		@ args = 0, pretend = 0, frame = 0
  32              		@ frame_needed = 0, uses_anonymous_args = 0
  33              		@ link register save eliminated.
 958:Middlewares/lvgl/src/core/lv_indev.c ****     if(indev->proc.reset_query) {
  34              		.loc 1 958 5 view .LVU1
  35              		.loc 1 958 8 is_stmt 0 view .LVU2
  36 0000 4379     		ldrb	r3, [r0, #5]	@ zero_extendqisi2
  37              		.loc 1 958 7 view .LVU3
  38 0002 13F0020F 		tst	r3, #2
  39 0006 1BD0     		beq	.L1
 959:Middlewares/lvgl/src/core/lv_indev.c ****         indev->proc.types.pointer.act_obj           = NULL;
  40              		.loc 1 959 9 is_stmt 1 view .LVU4
  41              		.loc 1 959 53 is_stmt 0 view .LVU5
  42 0008 0023     		movs	r3, #0
  43 000a 4362     		str	r3, [r0, #36]
 960:Middlewares/lvgl/src/core/lv_indev.c ****         indev->proc.types.pointer.last_obj          = NULL;
  44              		.loc 1 960 9 is_stmt 1 view .LVU6
  45              		.loc 1 960 53 is_stmt 0 view .LVU7
  46 000c 8362     		str	r3, [r0, #40]
 961:Middlewares/lvgl/src/core/lv_indev.c ****         indev->proc.types.pointer.scroll_obj          = NULL;
  47              		.loc 1 961 9 is_stmt 1 view .LVU8
  48              		.loc 1 961 55 is_stmt 0 view .LVU9
  49 000e C362     		str	r3, [r0, #44]
 962:Middlewares/lvgl/src/core/lv_indev.c ****         indev->proc.long_pr_sent                    = 0;
  50              		.loc 1 962 9 is_stmt 1 view .LVU10
  51              		.loc 1 962 53 is_stmt 0 view .LVU11
  52 0010 4279     		ldrb	r2, [r0, #5]	@ zero_extendqisi2
  53 0012 63F30002 		bfi	r2, r3, #0, #1
  54 0016 4271     		strb	r2, [r0, #5]
 963:Middlewares/lvgl/src/core/lv_indev.c ****         indev->proc.pr_timestamp                    = 0;
  55              		.loc 1 963 9 is_stmt 1 view .LVU12
  56              		.loc 1 963 53 is_stmt 0 view .LVU13
  57 0018 4364     		str	r3, [r0, #68]
 964:Middlewares/lvgl/src/core/lv_indev.c ****         indev->proc.longpr_rep_timestamp            = 0;
  58              		.loc 1 964 9 is_stmt 1 view .LVU14
  59              		.loc 1 964 53 is_stmt 0 view .LVU15
  60 001a 8364     		str	r3, [r0, #72]
 965:Middlewares/lvgl/src/core/lv_indev.c ****         indev->proc.types.pointer.scroll_sum.x        = 0;
  61              		.loc 1 965 9 is_stmt 1 view .LVU16
  62              		.loc 1 965 55 is_stmt 0 view .LVU17
ARM GAS  /tmp/ccjEXvZv.s 			page 19


  63 001c 0383     		strh	r3, [r0, #24]	@ movhi
 966:Middlewares/lvgl/src/core/lv_indev.c ****         indev->proc.types.pointer.scroll_sum.y        = 0;
  64              		.loc 1 966 9 is_stmt 1 view .LVU18
  65              		.loc 1 966 55 is_stmt 0 view .LVU19
  66 001e 4383     		strh	r3, [r0, #26]	@ movhi
 967:Middlewares/lvgl/src/core/lv_indev.c ****         indev->proc.types.pointer.scroll_dir = LV_DIR_NONE;
  67              		.loc 1 967 9 is_stmt 1 view .LVU20
  68              		.loc 1 967 46 is_stmt 0 view .LVU21
  69 0020 90F84020 		ldrb	r2, [r0, #64]	@ zero_extendqisi2
  70 0024 63F30302 		bfi	r2, r3, #0, #4
  71 0028 80F84020 		strb	r2, [r0, #64]
 968:Middlewares/lvgl/src/core/lv_indev.c ****         indev->proc.types.pointer.scroll_throw_vect.x = 0;
  72              		.loc 1 968 9 is_stmt 1 view .LVU22
  73              		.loc 1 968 55 is_stmt 0 view .LVU23
  74 002c 8383     		strh	r3, [r0, #28]	@ movhi
 969:Middlewares/lvgl/src/core/lv_indev.c ****         indev->proc.types.pointer.scroll_throw_vect.y = 0;
  75              		.loc 1 969 9 is_stmt 1 view .LVU24
  76              		.loc 1 969 55 is_stmt 0 view .LVU25
  77 002e C383     		strh	r3, [r0, #30]	@ movhi
 970:Middlewares/lvgl/src/core/lv_indev.c ****         indev->proc.types.pointer.gesture_sum.x     = 0;
  78              		.loc 1 970 9 is_stmt 1 view .LVU26
  79              		.loc 1 970 53 is_stmt 0 view .LVU27
  80 0030 8387     		strh	r3, [r0, #60]	@ movhi
 971:Middlewares/lvgl/src/core/lv_indev.c ****         indev->proc.types.pointer.gesture_sum.y     = 0;
  81              		.loc 1 971 9 is_stmt 1 view .LVU28
  82              		.loc 1 971 53 is_stmt 0 view .LVU29
  83 0032 C387     		strh	r3, [r0, #62]	@ movhi
 972:Middlewares/lvgl/src/core/lv_indev.c ****         indev->proc.reset_query                     = 0;
  84              		.loc 1 972 9 is_stmt 1 view .LVU30
  85              		.loc 1 972 53 is_stmt 0 view .LVU31
  86 0034 4279     		ldrb	r2, [r0, #5]	@ zero_extendqisi2
  87 0036 63F34102 		bfi	r2, r3, #1, #1
  88 003a 4271     		strb	r2, [r0, #5]
 973:Middlewares/lvgl/src/core/lv_indev.c ****         indev_obj_act                               = NULL;
  89              		.loc 1 973 9 is_stmt 1 view .LVU32
  90              		.loc 1 973 53 is_stmt 0 view .LVU33
  91 003c 014A     		ldr	r2, .L3
  92 003e 1360     		str	r3, [r2]
  93              	.L1:
 974:Middlewares/lvgl/src/core/lv_indev.c ****     }
 975:Middlewares/lvgl/src/core/lv_indev.c **** }
  94              		.loc 1 975 1 view .LVU34
  95 0040 7047     		bx	lr
  96              	.L4:
  97 0042 00BF     		.align	2
  98              	.L3:
  99 0044 00000000 		.word	.LANCHOR0
 100              		.cfi_endproc
 101              	.LFE178:
 103              		.section	.text.indev_reset_check,"ax",%progbits
 104              		.align	1
 105              		.syntax unified
 106              		.thumb
 107              		.thumb_func
 108              		.fpu fpv4-sp-d16
 110              	indev_reset_check:
 111              	.LVL1:
ARM GAS  /tmp/ccjEXvZv.s 			page 20


 112              	.LFB181:
 976:Middlewares/lvgl/src/core/lv_indev.c **** 
 977:Middlewares/lvgl/src/core/lv_indev.c **** /**
 978:Middlewares/lvgl/src/core/lv_indev.c ****  * Handle focus/defocus on click for POINTER input devices
 979:Middlewares/lvgl/src/core/lv_indev.c ****  * @param proc pointer to the state of the indev
 980:Middlewares/lvgl/src/core/lv_indev.c ****  */
 981:Middlewares/lvgl/src/core/lv_indev.c **** static void indev_click_focus(_lv_indev_proc_t * proc)
 982:Middlewares/lvgl/src/core/lv_indev.c **** {
 983:Middlewares/lvgl/src/core/lv_indev.c ****     /*Handle click focus*/
 984:Middlewares/lvgl/src/core/lv_indev.c ****     lv_obj_t * obj_to_focus = indev_obj_act;
 985:Middlewares/lvgl/src/core/lv_indev.c ****     if(lv_obj_has_flag(obj_to_focus, LV_OBJ_FLAG_CLICK_FOCUSABLE) &&
 986:Middlewares/lvgl/src/core/lv_indev.c ****        proc->types.pointer.last_pressed != obj_to_focus) {
 987:Middlewares/lvgl/src/core/lv_indev.c ****         lv_group_t * g_act = lv_obj_get_group(obj_to_focus);
 988:Middlewares/lvgl/src/core/lv_indev.c ****         lv_group_t * g_prev = proc->types.pointer.last_pressed ? lv_obj_get_group(proc->types.point
 989:Middlewares/lvgl/src/core/lv_indev.c **** 
 990:Middlewares/lvgl/src/core/lv_indev.c ****         /*If both the last and act. obj. are in the same group (or no group but it's also the same)
 991:Middlewares/lvgl/src/core/lv_indev.c ****         if(g_act == g_prev) {
 992:Middlewares/lvgl/src/core/lv_indev.c ****             /*The objects are in a group*/
 993:Middlewares/lvgl/src/core/lv_indev.c ****             if(g_act) {
 994:Middlewares/lvgl/src/core/lv_indev.c ****                 lv_group_focus_obj(obj_to_focus);
 995:Middlewares/lvgl/src/core/lv_indev.c ****                 if(indev_reset_check(proc)) return;
 996:Middlewares/lvgl/src/core/lv_indev.c ****             }
 997:Middlewares/lvgl/src/core/lv_indev.c ****             /*The object are not in group*/
 998:Middlewares/lvgl/src/core/lv_indev.c ****             else {
 999:Middlewares/lvgl/src/core/lv_indev.c ****                 if(proc->types.pointer.last_pressed) {
1000:Middlewares/lvgl/src/core/lv_indev.c ****                     lv_event_send(proc->types.pointer.last_pressed, LV_EVENT_DEFOCUSED, indev_act);
1001:Middlewares/lvgl/src/core/lv_indev.c ****                     if(indev_reset_check(proc)) return;
1002:Middlewares/lvgl/src/core/lv_indev.c ****                 }
1003:Middlewares/lvgl/src/core/lv_indev.c **** 
1004:Middlewares/lvgl/src/core/lv_indev.c ****                 lv_event_send(obj_to_focus, LV_EVENT_FOCUSED, indev_act);
1005:Middlewares/lvgl/src/core/lv_indev.c ****                 if(indev_reset_check(proc)) return;
1006:Middlewares/lvgl/src/core/lv_indev.c ****             }
1007:Middlewares/lvgl/src/core/lv_indev.c ****         }
1008:Middlewares/lvgl/src/core/lv_indev.c ****         /*The object are not in the same group (in different group or one in not a group)*/
1009:Middlewares/lvgl/src/core/lv_indev.c ****         else {
1010:Middlewares/lvgl/src/core/lv_indev.c ****             /*If the prev. obj. is not in a group then defocus it.*/
1011:Middlewares/lvgl/src/core/lv_indev.c ****             if(g_prev == NULL && proc->types.pointer.last_pressed) {
1012:Middlewares/lvgl/src/core/lv_indev.c ****                 lv_event_send(proc->types.pointer.last_pressed, LV_EVENT_DEFOCUSED, indev_act);
1013:Middlewares/lvgl/src/core/lv_indev.c ****                 if(indev_reset_check(proc)) return;
1014:Middlewares/lvgl/src/core/lv_indev.c ****             }
1015:Middlewares/lvgl/src/core/lv_indev.c ****             /*Focus on a non-group object*/
1016:Middlewares/lvgl/src/core/lv_indev.c ****             else {
1017:Middlewares/lvgl/src/core/lv_indev.c ****                 if(proc->types.pointer.last_pressed) {
1018:Middlewares/lvgl/src/core/lv_indev.c ****                     /*If the prev. object also wasn't in a group defocus it*/
1019:Middlewares/lvgl/src/core/lv_indev.c ****                     if(g_prev == NULL) {
1020:Middlewares/lvgl/src/core/lv_indev.c ****                         lv_event_send(proc->types.pointer.last_pressed, LV_EVENT_DEFOCUSED, indev_a
1021:Middlewares/lvgl/src/core/lv_indev.c ****                         if(indev_reset_check(proc)) return;
1022:Middlewares/lvgl/src/core/lv_indev.c ****                     }
1023:Middlewares/lvgl/src/core/lv_indev.c ****                     /*If the prev. object also was in a group at least "LEAVE" it instead of defocu
1024:Middlewares/lvgl/src/core/lv_indev.c ****                     else {
1025:Middlewares/lvgl/src/core/lv_indev.c ****                         lv_event_send(proc->types.pointer.last_pressed, LV_EVENT_LEAVE, indev_act);
1026:Middlewares/lvgl/src/core/lv_indev.c ****                         if(indev_reset_check(proc)) return;
1027:Middlewares/lvgl/src/core/lv_indev.c ****                     }
1028:Middlewares/lvgl/src/core/lv_indev.c ****                 }
1029:Middlewares/lvgl/src/core/lv_indev.c ****             }
1030:Middlewares/lvgl/src/core/lv_indev.c **** 
1031:Middlewares/lvgl/src/core/lv_indev.c ****             /*Focus to the act. in its group*/
ARM GAS  /tmp/ccjEXvZv.s 			page 21


1032:Middlewares/lvgl/src/core/lv_indev.c ****             if(g_act) {
1033:Middlewares/lvgl/src/core/lv_indev.c ****                 lv_group_focus_obj(obj_to_focus);
1034:Middlewares/lvgl/src/core/lv_indev.c ****                 if(indev_reset_check(proc)) return;
1035:Middlewares/lvgl/src/core/lv_indev.c ****             }
1036:Middlewares/lvgl/src/core/lv_indev.c ****             else {
1037:Middlewares/lvgl/src/core/lv_indev.c ****                 lv_event_send(obj_to_focus, LV_EVENT_FOCUSED, indev_act);
1038:Middlewares/lvgl/src/core/lv_indev.c ****                 if(indev_reset_check(proc)) return;
1039:Middlewares/lvgl/src/core/lv_indev.c ****             }
1040:Middlewares/lvgl/src/core/lv_indev.c ****         }
1041:Middlewares/lvgl/src/core/lv_indev.c ****         proc->types.pointer.last_pressed = obj_to_focus;
1042:Middlewares/lvgl/src/core/lv_indev.c ****     }
1043:Middlewares/lvgl/src/core/lv_indev.c **** 
1044:Middlewares/lvgl/src/core/lv_indev.c **** }
1045:Middlewares/lvgl/src/core/lv_indev.c **** 
1046:Middlewares/lvgl/src/core/lv_indev.c **** /**
1047:Middlewares/lvgl/src/core/lv_indev.c **** * Handle the gesture of indev_proc_p->types.pointer.act_obj
1048:Middlewares/lvgl/src/core/lv_indev.c **** * @param indev pointer to a input device state
1049:Middlewares/lvgl/src/core/lv_indev.c **** */
1050:Middlewares/lvgl/src/core/lv_indev.c **** void indev_gesture(_lv_indev_proc_t * proc)
1051:Middlewares/lvgl/src/core/lv_indev.c **** {
1052:Middlewares/lvgl/src/core/lv_indev.c **** 
1053:Middlewares/lvgl/src/core/lv_indev.c ****     if(proc->types.pointer.scroll_obj) return;
1054:Middlewares/lvgl/src/core/lv_indev.c ****     if(proc->types.pointer.gesture_sent) return;
1055:Middlewares/lvgl/src/core/lv_indev.c **** 
1056:Middlewares/lvgl/src/core/lv_indev.c ****     lv_obj_t * gesture_obj = proc->types.pointer.act_obj;
1057:Middlewares/lvgl/src/core/lv_indev.c **** 
1058:Middlewares/lvgl/src/core/lv_indev.c ****     /*If gesture parent is active check recursively the gesture attribute*/
1059:Middlewares/lvgl/src/core/lv_indev.c ****     while(gesture_obj && lv_obj_has_flag(gesture_obj, LV_OBJ_FLAG_GESTURE_BUBBLE)) {
1060:Middlewares/lvgl/src/core/lv_indev.c ****         gesture_obj = lv_obj_get_parent(gesture_obj);
1061:Middlewares/lvgl/src/core/lv_indev.c ****     }
1062:Middlewares/lvgl/src/core/lv_indev.c **** 
1063:Middlewares/lvgl/src/core/lv_indev.c ****     if(gesture_obj == NULL) return;
1064:Middlewares/lvgl/src/core/lv_indev.c **** 
1065:Middlewares/lvgl/src/core/lv_indev.c ****     if((LV_ABS(proc->types.pointer.vect.x) < indev_act->driver->gesture_min_velocity) &&
1066:Middlewares/lvgl/src/core/lv_indev.c ****        (LV_ABS(proc->types.pointer.vect.y) < indev_act->driver->gesture_min_velocity)) {
1067:Middlewares/lvgl/src/core/lv_indev.c ****         proc->types.pointer.gesture_sum.x = 0;
1068:Middlewares/lvgl/src/core/lv_indev.c ****         proc->types.pointer.gesture_sum.y = 0;
1069:Middlewares/lvgl/src/core/lv_indev.c ****     }
1070:Middlewares/lvgl/src/core/lv_indev.c **** 
1071:Middlewares/lvgl/src/core/lv_indev.c ****     /*Count the movement by gesture*/
1072:Middlewares/lvgl/src/core/lv_indev.c ****     proc->types.pointer.gesture_sum.x += proc->types.pointer.vect.x;
1073:Middlewares/lvgl/src/core/lv_indev.c ****     proc->types.pointer.gesture_sum.y += proc->types.pointer.vect.y;
1074:Middlewares/lvgl/src/core/lv_indev.c **** 
1075:Middlewares/lvgl/src/core/lv_indev.c ****     if((LV_ABS(proc->types.pointer.gesture_sum.x) > indev_act->driver->gesture_limit) ||
1076:Middlewares/lvgl/src/core/lv_indev.c ****        (LV_ABS(proc->types.pointer.gesture_sum.y) > indev_act->driver->gesture_limit)) {
1077:Middlewares/lvgl/src/core/lv_indev.c **** 
1078:Middlewares/lvgl/src/core/lv_indev.c ****         proc->types.pointer.gesture_sent = 1;
1079:Middlewares/lvgl/src/core/lv_indev.c **** 
1080:Middlewares/lvgl/src/core/lv_indev.c ****         if(LV_ABS(proc->types.pointer.gesture_sum.x) > LV_ABS(proc->types.pointer.gesture_sum.y)) {
1081:Middlewares/lvgl/src/core/lv_indev.c ****             if(proc->types.pointer.gesture_sum.x > 0)
1082:Middlewares/lvgl/src/core/lv_indev.c ****                 proc->types.pointer.gesture_dir = LV_DIR_RIGHT;
1083:Middlewares/lvgl/src/core/lv_indev.c ****             else
1084:Middlewares/lvgl/src/core/lv_indev.c ****                 proc->types.pointer.gesture_dir = LV_DIR_LEFT;
1085:Middlewares/lvgl/src/core/lv_indev.c ****         }
1086:Middlewares/lvgl/src/core/lv_indev.c ****         else {
1087:Middlewares/lvgl/src/core/lv_indev.c ****             if(proc->types.pointer.gesture_sum.y > 0)
1088:Middlewares/lvgl/src/core/lv_indev.c ****                 proc->types.pointer.gesture_dir = LV_DIR_BOTTOM;
ARM GAS  /tmp/ccjEXvZv.s 			page 22


1089:Middlewares/lvgl/src/core/lv_indev.c ****             else
1090:Middlewares/lvgl/src/core/lv_indev.c ****                 proc->types.pointer.gesture_dir = LV_DIR_TOP;
1091:Middlewares/lvgl/src/core/lv_indev.c ****         }
1092:Middlewares/lvgl/src/core/lv_indev.c **** 
1093:Middlewares/lvgl/src/core/lv_indev.c ****         lv_event_send(gesture_obj, LV_EVENT_GESTURE, indev_act);
1094:Middlewares/lvgl/src/core/lv_indev.c ****         if(indev_reset_check(proc)) return;
1095:Middlewares/lvgl/src/core/lv_indev.c ****     }
1096:Middlewares/lvgl/src/core/lv_indev.c **** }
1097:Middlewares/lvgl/src/core/lv_indev.c **** 
1098:Middlewares/lvgl/src/core/lv_indev.c **** /**
1099:Middlewares/lvgl/src/core/lv_indev.c ****  * Checks if the reset_query flag has been set. If so, perform necessary global indev cleanup actio
1100:Middlewares/lvgl/src/core/lv_indev.c ****  * @param proc pointer to an input device 'proc'
1101:Middlewares/lvgl/src/core/lv_indev.c ****  * @return true if indev query should be immediately truncated.
1102:Middlewares/lvgl/src/core/lv_indev.c ****  */
1103:Middlewares/lvgl/src/core/lv_indev.c **** static bool indev_reset_check(_lv_indev_proc_t * proc)
1104:Middlewares/lvgl/src/core/lv_indev.c **** {
 113              		.loc 1 1104 1 is_stmt 1 view -0
 114              		.cfi_startproc
 115              		@ args = 0, pretend = 0, frame = 0
 116              		@ frame_needed = 0, uses_anonymous_args = 0
 117              		@ link register save eliminated.
1105:Middlewares/lvgl/src/core/lv_indev.c ****     if(proc->reset_query) {
 118              		.loc 1 1105 5 view .LVU36
 119              		.loc 1 1105 8 is_stmt 0 view .LVU37
 120 0000 4078     		ldrb	r0, [r0, #1]	@ zero_extendqisi2
 121              	.LVL2:
 122              		.loc 1 1105 7 view .LVU38
 123 0002 10F0020F 		tst	r0, #2
 124 0006 02D0     		beq	.L6
1106:Middlewares/lvgl/src/core/lv_indev.c ****         indev_obj_act = NULL;
 125              		.loc 1 1106 9 is_stmt 1 view .LVU39
 126              		.loc 1 1106 23 is_stmt 0 view .LVU40
 127 0008 024B     		ldr	r3, .L7
 128 000a 0022     		movs	r2, #0
 129 000c 1A60     		str	r2, [r3]
 130              	.L6:
1107:Middlewares/lvgl/src/core/lv_indev.c ****     }
1108:Middlewares/lvgl/src/core/lv_indev.c **** 
1109:Middlewares/lvgl/src/core/lv_indev.c ****     return proc->reset_query ? true : false;
 131              		.loc 1 1109 5 is_stmt 1 view .LVU41
1110:Middlewares/lvgl/src/core/lv_indev.c **** }
 132              		.loc 1 1110 1 is_stmt 0 view .LVU42
 133 000e C0F34000 		ubfx	r0, r0, #1, #1
 134 0012 7047     		bx	lr
 135              	.L8:
 136              		.align	2
 137              	.L7:
 138 0014 00000000 		.word	.LANCHOR0
 139              		.cfi_endproc
 140              	.LFE181:
 142              		.section	.text.indev_proc_release,"ax",%progbits
 143              		.align	1
 144              		.syntax unified
 145              		.thumb
 146              		.thumb_func
 147              		.fpu fpv4-sp-d16
 149              	indev_proc_release:
ARM GAS  /tmp/ccjEXvZv.s 			page 23


 150              	.LVL3:
 151              	.LFB177:
 905:Middlewares/lvgl/src/core/lv_indev.c ****     if(proc->wait_until_release != 0) {
 152              		.loc 1 905 1 is_stmt 1 view -0
 153              		.cfi_startproc
 154              		@ args = 0, pretend = 0, frame = 0
 155              		@ frame_needed = 0, uses_anonymous_args = 0
 905:Middlewares/lvgl/src/core/lv_indev.c ****     if(proc->wait_until_release != 0) {
 156              		.loc 1 905 1 is_stmt 0 view .LVU44
 157 0000 38B5     		push	{r3, r4, r5, lr}
 158              	.LCFI0:
 159              		.cfi_def_cfa_offset 16
 160              		.cfi_offset 3, -16
 161              		.cfi_offset 4, -12
 162              		.cfi_offset 5, -8
 163              		.cfi_offset 14, -4
 164 0002 0446     		mov	r4, r0
 906:Middlewares/lvgl/src/core/lv_indev.c ****         proc->types.pointer.act_obj  = NULL;
 165              		.loc 1 906 5 is_stmt 1 view .LVU45
 906:Middlewares/lvgl/src/core/lv_indev.c ****         proc->types.pointer.act_obj  = NULL;
 166              		.loc 1 906 33 is_stmt 0 view .LVU46
 167 0004 4378     		ldrb	r3, [r0, #1]	@ zero_extendqisi2
 906:Middlewares/lvgl/src/core/lv_indev.c ****         proc->types.pointer.act_obj  = NULL;
 168              		.loc 1 906 7 view .LVU47
 169 0006 13F0080F 		tst	r3, #8
 170 000a 08D0     		beq	.L10
 907:Middlewares/lvgl/src/core/lv_indev.c ****         proc->types.pointer.last_obj = NULL;
 171              		.loc 1 907 9 is_stmt 1 view .LVU48
 907:Middlewares/lvgl/src/core/lv_indev.c ****         proc->types.pointer.last_obj = NULL;
 172              		.loc 1 907 38 is_stmt 0 view .LVU49
 173 000c 0023     		movs	r3, #0
 174 000e 0362     		str	r3, [r0, #32]
 908:Middlewares/lvgl/src/core/lv_indev.c ****         proc->pr_timestamp           = 0;
 175              		.loc 1 908 9 is_stmt 1 view .LVU50
 908:Middlewares/lvgl/src/core/lv_indev.c ****         proc->pr_timestamp           = 0;
 176              		.loc 1 908 38 is_stmt 0 view .LVU51
 177 0010 4362     		str	r3, [r0, #36]
 909:Middlewares/lvgl/src/core/lv_indev.c ****         proc->longpr_rep_timestamp   = 0;
 178              		.loc 1 909 9 is_stmt 1 view .LVU52
 909:Middlewares/lvgl/src/core/lv_indev.c ****         proc->longpr_rep_timestamp   = 0;
 179              		.loc 1 909 38 is_stmt 0 view .LVU53
 180 0012 0364     		str	r3, [r0, #64]
 910:Middlewares/lvgl/src/core/lv_indev.c ****         proc->wait_until_release     = 0;
 181              		.loc 1 910 9 is_stmt 1 view .LVU54
 910:Middlewares/lvgl/src/core/lv_indev.c ****         proc->wait_until_release     = 0;
 182              		.loc 1 910 38 is_stmt 0 view .LVU55
 183 0014 4364     		str	r3, [r0, #68]
 911:Middlewares/lvgl/src/core/lv_indev.c ****     }
 184              		.loc 1 911 9 is_stmt 1 view .LVU56
 911:Middlewares/lvgl/src/core/lv_indev.c ****     }
 185              		.loc 1 911 38 is_stmt 0 view .LVU57
 186 0016 4278     		ldrb	r2, [r0, #1]	@ zero_extendqisi2
 187 0018 63F3C302 		bfi	r2, r3, #3, #1
 188 001c 4270     		strb	r2, [r0, #1]
 189              	.L10:
 913:Middlewares/lvgl/src/core/lv_indev.c ****     lv_obj_t * scroll_obj = proc->types.pointer.scroll_obj;
 190              		.loc 1 913 5 is_stmt 1 view .LVU58
ARM GAS  /tmp/ccjEXvZv.s 			page 24


 913:Middlewares/lvgl/src/core/lv_indev.c ****     lv_obj_t * scroll_obj = proc->types.pointer.scroll_obj;
 191              		.loc 1 913 40 is_stmt 0 view .LVU59
 192 001e 206A     		ldr	r0, [r4, #32]
 193              	.LVL4:
 913:Middlewares/lvgl/src/core/lv_indev.c ****     lv_obj_t * scroll_obj = proc->types.pointer.scroll_obj;
 194              		.loc 1 913 19 view .LVU60
 195 0020 1B4B     		ldr	r3, .L17
 196 0022 1860     		str	r0, [r3]
 914:Middlewares/lvgl/src/core/lv_indev.c **** 
 197              		.loc 1 914 5 is_stmt 1 view .LVU61
 914:Middlewares/lvgl/src/core/lv_indev.c **** 
 198              		.loc 1 914 16 is_stmt 0 view .LVU62
 199 0024 A56A     		ldr	r5, [r4, #40]
 200              	.LVL5:
 917:Middlewares/lvgl/src/core/lv_indev.c ****         LV_LOG_INFO("released");
 201              		.loc 1 917 5 is_stmt 1 view .LVU63
 917:Middlewares/lvgl/src/core/lv_indev.c ****         LV_LOG_INFO("released");
 202              		.loc 1 917 7 is_stmt 0 view .LVU64
 203 0026 68B1     		cbz	r0, .L11
 918:Middlewares/lvgl/src/core/lv_indev.c **** 
 204              		.loc 1 918 32 is_stmt 1 view .LVU65
 921:Middlewares/lvgl/src/core/lv_indev.c ****         if(indev_reset_check(proc)) return;
 205              		.loc 1 921 9 view .LVU66
 206 0028 1A4B     		ldr	r3, .L17+4
 207 002a 1A68     		ldr	r2, [r3]
 208 002c 0821     		movs	r1, #8
 209 002e FFF7FEFF 		bl	lv_event_send
 210              	.LVL6:
 922:Middlewares/lvgl/src/core/lv_indev.c **** 
 211              		.loc 1 922 9 view .LVU67
 922:Middlewares/lvgl/src/core/lv_indev.c **** 
 212              		.loc 1 922 12 is_stmt 0 view .LVU68
 213 0032 2046     		mov	r0, r4
 214 0034 FFF7FEFF 		bl	indev_reset_check
 215              	.LVL7:
 922:Middlewares/lvgl/src/core/lv_indev.c **** 
 216              		.loc 1 922 11 view .LVU69
 217 0038 58B9     		cbnz	r0, .L9
 925:Middlewares/lvgl/src/core/lv_indev.c ****             if(proc->long_pr_sent == 0) {
 218              		.loc 1 925 9 is_stmt 1 view .LVU70
 925:Middlewares/lvgl/src/core/lv_indev.c ****             if(proc->long_pr_sent == 0) {
 219              		.loc 1 925 11 is_stmt 0 view .LVU71
 220 003a 5DB1     		cbz	r5, .L16
 221              	.L13:
 935:Middlewares/lvgl/src/core/lv_indev.c ****         proc->pr_timestamp          = 0;
 222              		.loc 1 935 9 is_stmt 1 view .LVU72
 935:Middlewares/lvgl/src/core/lv_indev.c ****         proc->pr_timestamp          = 0;
 223              		.loc 1 935 37 is_stmt 0 view .LVU73
 224 003c 0023     		movs	r3, #0
 225 003e 2362     		str	r3, [r4, #32]
 936:Middlewares/lvgl/src/core/lv_indev.c ****         proc->longpr_rep_timestamp  = 0;
 226              		.loc 1 936 9 is_stmt 1 view .LVU74
 936:Middlewares/lvgl/src/core/lv_indev.c ****         proc->longpr_rep_timestamp  = 0;
 227              		.loc 1 936 37 is_stmt 0 view .LVU75
 228 0040 2364     		str	r3, [r4, #64]
 937:Middlewares/lvgl/src/core/lv_indev.c **** 
 229              		.loc 1 937 9 is_stmt 1 view .LVU76
ARM GAS  /tmp/ccjEXvZv.s 			page 25


 937:Middlewares/lvgl/src/core/lv_indev.c **** 
 230              		.loc 1 937 37 is_stmt 0 view .LVU77
 231 0042 6364     		str	r3, [r4, #68]
 232              	.L11:
 943:Middlewares/lvgl/src/core/lv_indev.c ****         _lv_indev_scroll_throw_handler(proc);
 233              		.loc 1 943 5 is_stmt 1 view .LVU78
 943:Middlewares/lvgl/src/core/lv_indev.c ****         _lv_indev_scroll_throw_handler(proc);
 234              		.loc 1 943 7 is_stmt 0 view .LVU79
 235 0044 2DB1     		cbz	r5, .L9
 944:Middlewares/lvgl/src/core/lv_indev.c ****         if(indev_reset_check(proc)) return;
 236              		.loc 1 944 9 is_stmt 1 view .LVU80
 237 0046 2046     		mov	r0, r4
 238 0048 FFF7FEFF 		bl	_lv_indev_scroll_throw_handler
 239              	.LVL8:
 945:Middlewares/lvgl/src/core/lv_indev.c ****     }
 240              		.loc 1 945 9 view .LVU81
 945:Middlewares/lvgl/src/core/lv_indev.c ****     }
 241              		.loc 1 945 12 is_stmt 0 view .LVU82
 242 004c 2046     		mov	r0, r4
 243 004e FFF7FEFF 		bl	indev_reset_check
 244              	.LVL9:
 245              	.L9:
 947:Middlewares/lvgl/src/core/lv_indev.c **** 
 246              		.loc 1 947 1 view .LVU83
 247 0052 38BD     		pop	{r3, r4, r5, pc}
 248              	.LVL10:
 249              	.L16:
 926:Middlewares/lvgl/src/core/lv_indev.c ****                 lv_event_send(indev_obj_act, LV_EVENT_SHORT_CLICKED, indev_act);
 250              		.loc 1 926 13 is_stmt 1 view .LVU84
 926:Middlewares/lvgl/src/core/lv_indev.c ****                 lv_event_send(indev_obj_act, LV_EVENT_SHORT_CLICKED, indev_act);
 251              		.loc 1 926 35 is_stmt 0 view .LVU85
 252 0054 6378     		ldrb	r3, [r4, #1]	@ zero_extendqisi2
 926:Middlewares/lvgl/src/core/lv_indev.c ****                 lv_event_send(indev_obj_act, LV_EVENT_SHORT_CLICKED, indev_act);
 253              		.loc 1 926 15 view .LVU86
 254 0056 13F0010F 		tst	r3, #1
 255 005a 0BD1     		bne	.L14
 927:Middlewares/lvgl/src/core/lv_indev.c ****                 if(indev_reset_check(proc)) return;
 256              		.loc 1 927 17 is_stmt 1 view .LVU87
 257 005c 0D4B     		ldr	r3, .L17+4
 258 005e 1A68     		ldr	r2, [r3]
 259 0060 0421     		movs	r1, #4
 260 0062 0B4B     		ldr	r3, .L17
 261 0064 1868     		ldr	r0, [r3]
 262 0066 FFF7FEFF 		bl	lv_event_send
 263              	.LVL11:
 928:Middlewares/lvgl/src/core/lv_indev.c ****             }
 264              		.loc 1 928 17 view .LVU88
 928:Middlewares/lvgl/src/core/lv_indev.c ****             }
 265              		.loc 1 928 20 is_stmt 0 view .LVU89
 266 006a 2046     		mov	r0, r4
 267 006c FFF7FEFF 		bl	indev_reset_check
 268              	.LVL12:
 928:Middlewares/lvgl/src/core/lv_indev.c ****             }
 269              		.loc 1 928 19 view .LVU90
 270 0070 0028     		cmp	r0, #0
 271 0072 EED1     		bne	.L9
 272              	.L14:
ARM GAS  /tmp/ccjEXvZv.s 			page 26


 931:Middlewares/lvgl/src/core/lv_indev.c ****             if(indev_reset_check(proc)) return;
 273              		.loc 1 931 13 is_stmt 1 view .LVU91
 274 0074 074B     		ldr	r3, .L17+4
 275 0076 1A68     		ldr	r2, [r3]
 276 0078 0721     		movs	r1, #7
 277 007a 054B     		ldr	r3, .L17
 278 007c 1868     		ldr	r0, [r3]
 279 007e FFF7FEFF 		bl	lv_event_send
 280              	.LVL13:
 932:Middlewares/lvgl/src/core/lv_indev.c ****         }
 281              		.loc 1 932 13 view .LVU92
 932:Middlewares/lvgl/src/core/lv_indev.c ****         }
 282              		.loc 1 932 16 is_stmt 0 view .LVU93
 283 0082 2046     		mov	r0, r4
 284 0084 FFF7FEFF 		bl	indev_reset_check
 285              	.LVL14:
 932:Middlewares/lvgl/src/core/lv_indev.c ****         }
 286              		.loc 1 932 15 view .LVU94
 287 0088 0028     		cmp	r0, #0
 288 008a D7D0     		beq	.L13
 289 008c E1E7     		b	.L9
 290              	.L18:
 291 008e 00BF     		.align	2
 292              	.L17:
 293 0090 00000000 		.word	.LANCHOR0
 294 0094 00000000 		.word	.LANCHOR1
 295              		.cfi_endproc
 296              	.LFE177:
 298              		.section	.text.indev_click_focus,"ax",%progbits
 299              		.align	1
 300              		.syntax unified
 301              		.thumb
 302              		.thumb_func
 303              		.fpu fpv4-sp-d16
 305              	indev_click_focus:
 306              	.LVL15:
 307              	.LFB179:
 982:Middlewares/lvgl/src/core/lv_indev.c ****     /*Handle click focus*/
 308              		.loc 1 982 1 is_stmt 1 view -0
 309              		.cfi_startproc
 310              		@ args = 0, pretend = 0, frame = 0
 311              		@ frame_needed = 0, uses_anonymous_args = 0
 982:Middlewares/lvgl/src/core/lv_indev.c ****     /*Handle click focus*/
 312              		.loc 1 982 1 is_stmt 0 view .LVU96
 313 0000 70B5     		push	{r4, r5, r6, lr}
 314              	.LCFI1:
 315              		.cfi_def_cfa_offset 16
 316              		.cfi_offset 4, -16
 317              		.cfi_offset 5, -12
 318              		.cfi_offset 6, -8
 319              		.cfi_offset 14, -4
 320 0002 0446     		mov	r4, r0
 984:Middlewares/lvgl/src/core/lv_indev.c ****     if(lv_obj_has_flag(obj_to_focus, LV_OBJ_FLAG_CLICK_FOCUSABLE) &&
 321              		.loc 1 984 5 is_stmt 1 view .LVU97
 984:Middlewares/lvgl/src/core/lv_indev.c ****     if(lv_obj_has_flag(obj_to_focus, LV_OBJ_FLAG_CLICK_FOCUSABLE) &&
 322              		.loc 1 984 16 is_stmt 0 view .LVU98
 323 0004 3B4B     		ldr	r3, .L34
ARM GAS  /tmp/ccjEXvZv.s 			page 27


 324 0006 1D68     		ldr	r5, [r3]
 325              	.LVL16:
 985:Middlewares/lvgl/src/core/lv_indev.c ****        proc->types.pointer.last_pressed != obj_to_focus) {
 326              		.loc 1 985 5 is_stmt 1 view .LVU99
 985:Middlewares/lvgl/src/core/lv_indev.c ****        proc->types.pointer.last_pressed != obj_to_focus) {
 327              		.loc 1 985 8 is_stmt 0 view .LVU100
 328 0008 0421     		movs	r1, #4
 329 000a 2846     		mov	r0, r5
 330              	.LVL17:
 985:Middlewares/lvgl/src/core/lv_indev.c ****        proc->types.pointer.last_pressed != obj_to_focus) {
 331              		.loc 1 985 8 view .LVU101
 332 000c FFF7FEFF 		bl	lv_obj_has_flag
 333              	.LVL18:
 985:Middlewares/lvgl/src/core/lv_indev.c ****        proc->types.pointer.last_pressed != obj_to_focus) {
 334              		.loc 1 985 7 view .LVU102
 335 0010 30B3     		cbz	r0, .L19
 986:Middlewares/lvgl/src/core/lv_indev.c ****         lv_group_t * g_act = lv_obj_get_group(obj_to_focus);
 336              		.loc 1 986 27 discriminator 1 view .LVU103
 337 0012 E36A     		ldr	r3, [r4, #44]
 985:Middlewares/lvgl/src/core/lv_indev.c ****        proc->types.pointer.last_pressed != obj_to_focus) {
 338              		.loc 1 985 67 discriminator 1 view .LVU104
 339 0014 AB42     		cmp	r3, r5
 340 0016 23D0     		beq	.L19
 341              	.LBB2:
 987:Middlewares/lvgl/src/core/lv_indev.c ****         lv_group_t * g_prev = proc->types.pointer.last_pressed ? lv_obj_get_group(proc->types.point
 342              		.loc 1 987 9 is_stmt 1 view .LVU105
 987:Middlewares/lvgl/src/core/lv_indev.c ****         lv_group_t * g_prev = proc->types.pointer.last_pressed ? lv_obj_get_group(proc->types.point
 343              		.loc 1 987 30 is_stmt 0 view .LVU106
 344 0018 2846     		mov	r0, r5
 345 001a FFF7FEFF 		bl	lv_obj_get_group
 346              	.LVL19:
 347 001e 0646     		mov	r6, r0
 348              	.LVL20:
 988:Middlewares/lvgl/src/core/lv_indev.c **** 
 349              		.loc 1 988 9 is_stmt 1 view .LVU107
 988:Middlewares/lvgl/src/core/lv_indev.c **** 
 350              		.loc 1 988 50 is_stmt 0 view .LVU108
 351 0020 E06A     		ldr	r0, [r4, #44]
 352              	.LVL21:
 988:Middlewares/lvgl/src/core/lv_indev.c **** 
 353              		.loc 1 988 117 view .LVU109
 354 0022 08B1     		cbz	r0, .L21
 988:Middlewares/lvgl/src/core/lv_indev.c **** 
 355              		.loc 1 988 66 discriminator 1 view .LVU110
 356 0024 FFF7FEFF 		bl	lv_obj_get_group
 357              	.LVL22:
 358              	.L21:
 991:Middlewares/lvgl/src/core/lv_indev.c ****             /*The objects are in a group*/
 359              		.loc 1 991 9 is_stmt 1 discriminator 4 view .LVU111
 991:Middlewares/lvgl/src/core/lv_indev.c ****             /*The objects are in a group*/
 360              		.loc 1 991 11 is_stmt 0 discriminator 4 view .LVU112
 361 0028 B042     		cmp	r0, r6
 362 002a 1AD0     		beq	.L31
1011:Middlewares/lvgl/src/core/lv_indev.c ****                 lv_event_send(proc->types.pointer.last_pressed, LV_EVENT_DEFOCUSED, indev_act);
 363              		.loc 1 1011 13 is_stmt 1 view .LVU113
1011:Middlewares/lvgl/src/core/lv_indev.c ****                 lv_event_send(proc->types.pointer.last_pressed, LV_EVENT_DEFOCUSED, indev_act);
 364              		.loc 1 1011 15 is_stmt 0 view .LVU114
ARM GAS  /tmp/ccjEXvZv.s 			page 28


 365 002c 0028     		cmp	r0, #0
 366 002e 3AD0     		beq	.L32
 367              	.L26:
1017:Middlewares/lvgl/src/core/lv_indev.c ****                     /*If the prev. object also wasn't in a group defocus it*/
 368              		.loc 1 1017 17 is_stmt 1 view .LVU115
1017:Middlewares/lvgl/src/core/lv_indev.c ****                     /*If the prev. object also wasn't in a group defocus it*/
 369              		.loc 1 1017 39 is_stmt 0 view .LVU116
 370 0030 E36A     		ldr	r3, [r4, #44]
1017:Middlewares/lvgl/src/core/lv_indev.c ****                     /*If the prev. object also wasn't in a group defocus it*/
 371              		.loc 1 1017 19 view .LVU117
 372 0032 5BB1     		cbz	r3, .L27
1019:Middlewares/lvgl/src/core/lv_indev.c ****                         lv_event_send(proc->types.pointer.last_pressed, LV_EVENT_DEFOCUSED, indev_a
 373              		.loc 1 1019 21 is_stmt 1 view .LVU118
1019:Middlewares/lvgl/src/core/lv_indev.c ****                         lv_event_send(proc->types.pointer.last_pressed, LV_EVENT_DEFOCUSED, indev_a
 374              		.loc 1 1019 23 is_stmt 0 view .LVU119
 375 0034 0028     		cmp	r0, #0
 376 0036 45D0     		beq	.L33
1025:Middlewares/lvgl/src/core/lv_indev.c ****                         if(indev_reset_check(proc)) return;
 377              		.loc 1 1025 25 is_stmt 1 view .LVU120
 378 0038 2F4A     		ldr	r2, .L34+4
 379 003a 1268     		ldr	r2, [r2]
 380 003c 1021     		movs	r1, #16
 381 003e 1846     		mov	r0, r3
 382              	.LVL23:
1025:Middlewares/lvgl/src/core/lv_indev.c ****                         if(indev_reset_check(proc)) return;
 383              		.loc 1 1025 25 is_stmt 0 view .LVU121
 384 0040 FFF7FEFF 		bl	lv_event_send
 385              	.LVL24:
1026:Middlewares/lvgl/src/core/lv_indev.c ****                     }
 386              		.loc 1 1026 25 is_stmt 1 view .LVU122
1026:Middlewares/lvgl/src/core/lv_indev.c ****                     }
 387              		.loc 1 1026 28 is_stmt 0 view .LVU123
 388 0044 2046     		mov	r0, r4
 389 0046 FFF7FEFF 		bl	indev_reset_check
 390              	.LVL25:
1026:Middlewares/lvgl/src/core/lv_indev.c ****                     }
 391              		.loc 1 1026 27 view .LVU124
 392 004a 48B9     		cbnz	r0, .L19
 393              	.L27:
1032:Middlewares/lvgl/src/core/lv_indev.c ****                 lv_group_focus_obj(obj_to_focus);
 394              		.loc 1 1032 13 is_stmt 1 view .LVU125
1032:Middlewares/lvgl/src/core/lv_indev.c ****                 lv_group_focus_obj(obj_to_focus);
 395              		.loc 1 1032 15 is_stmt 0 view .LVU126
 396 004c 002E     		cmp	r6, #0
 397 004e 45D0     		beq	.L29
1033:Middlewares/lvgl/src/core/lv_indev.c ****                 if(indev_reset_check(proc)) return;
 398              		.loc 1 1033 17 is_stmt 1 view .LVU127
 399 0050 2846     		mov	r0, r5
 400 0052 FFF7FEFF 		bl	lv_group_focus_obj
 401              	.LVL26:
1034:Middlewares/lvgl/src/core/lv_indev.c ****             }
 402              		.loc 1 1034 17 view .LVU128
1034:Middlewares/lvgl/src/core/lv_indev.c ****             }
 403              		.loc 1 1034 20 is_stmt 0 view .LVU129
 404 0056 2046     		mov	r0, r4
 405 0058 FFF7FEFF 		bl	indev_reset_check
 406              	.LVL27:
ARM GAS  /tmp/ccjEXvZv.s 			page 29


1034:Middlewares/lvgl/src/core/lv_indev.c ****             }
 407              		.loc 1 1034 19 view .LVU130
 408 005c 00B9     		cbnz	r0, .L19
 409              	.L24:
1041:Middlewares/lvgl/src/core/lv_indev.c ****     }
 410              		.loc 1 1041 9 is_stmt 1 view .LVU131
1041:Middlewares/lvgl/src/core/lv_indev.c ****     }
 411              		.loc 1 1041 42 is_stmt 0 view .LVU132
 412 005e E562     		str	r5, [r4, #44]
 413              	.LVL28:
 414              	.L19:
1041:Middlewares/lvgl/src/core/lv_indev.c ****     }
 415              		.loc 1 1041 42 view .LVU133
 416              	.LBE2:
1044:Middlewares/lvgl/src/core/lv_indev.c **** 
 417              		.loc 1 1044 1 view .LVU134
 418 0060 70BD     		pop	{r4, r5, r6, pc}
 419              	.LVL29:
 420              	.L31:
 421              	.LBB3:
 993:Middlewares/lvgl/src/core/lv_indev.c ****                 lv_group_focus_obj(obj_to_focus);
 422              		.loc 1 993 13 is_stmt 1 view .LVU135
 993:Middlewares/lvgl/src/core/lv_indev.c ****                 lv_group_focus_obj(obj_to_focus);
 423              		.loc 1 993 15 is_stmt 0 view .LVU136
 424 0062 46B1     		cbz	r6, .L23
 994:Middlewares/lvgl/src/core/lv_indev.c ****                 if(indev_reset_check(proc)) return;
 425              		.loc 1 994 17 is_stmt 1 view .LVU137
 426 0064 2846     		mov	r0, r5
 427              	.LVL30:
 994:Middlewares/lvgl/src/core/lv_indev.c ****                 if(indev_reset_check(proc)) return;
 428              		.loc 1 994 17 is_stmt 0 view .LVU138
 429 0066 FFF7FEFF 		bl	lv_group_focus_obj
 430              	.LVL31:
 995:Middlewares/lvgl/src/core/lv_indev.c ****             }
 431              		.loc 1 995 17 is_stmt 1 view .LVU139
 995:Middlewares/lvgl/src/core/lv_indev.c ****             }
 432              		.loc 1 995 20 is_stmt 0 view .LVU140
 433 006a 2046     		mov	r0, r4
 434 006c FFF7FEFF 		bl	indev_reset_check
 435              	.LVL32:
 995:Middlewares/lvgl/src/core/lv_indev.c ****             }
 436              		.loc 1 995 19 view .LVU141
 437 0070 0028     		cmp	r0, #0
 438 0072 F4D0     		beq	.L24
 439 0074 F4E7     		b	.L19
 440              	.LVL33:
 441              	.L23:
 999:Middlewares/lvgl/src/core/lv_indev.c ****                     lv_event_send(proc->types.pointer.last_pressed, LV_EVENT_DEFOCUSED, indev_act);
 442              		.loc 1 999 17 is_stmt 1 view .LVU142
 999:Middlewares/lvgl/src/core/lv_indev.c ****                     lv_event_send(proc->types.pointer.last_pressed, LV_EVENT_DEFOCUSED, indev_act);
 443              		.loc 1 999 39 is_stmt 0 view .LVU143
 444 0076 E06A     		ldr	r0, [r4, #44]
 445              	.LVL34:
 999:Middlewares/lvgl/src/core/lv_indev.c ****                     lv_event_send(proc->types.pointer.last_pressed, LV_EVENT_DEFOCUSED, indev_act);
 446              		.loc 1 999 19 view .LVU144
 447 0078 48B1     		cbz	r0, .L25
1000:Middlewares/lvgl/src/core/lv_indev.c ****                     if(indev_reset_check(proc)) return;
ARM GAS  /tmp/ccjEXvZv.s 			page 30


 448              		.loc 1 1000 21 is_stmt 1 view .LVU145
 449 007a 1F4B     		ldr	r3, .L34+4
 450 007c 1A68     		ldr	r2, [r3]
 451 007e 0F21     		movs	r1, #15
 452 0080 FFF7FEFF 		bl	lv_event_send
 453              	.LVL35:
1001:Middlewares/lvgl/src/core/lv_indev.c ****                 }
 454              		.loc 1 1001 21 view .LVU146
1001:Middlewares/lvgl/src/core/lv_indev.c ****                 }
 455              		.loc 1 1001 24 is_stmt 0 view .LVU147
 456 0084 2046     		mov	r0, r4
 457 0086 FFF7FEFF 		bl	indev_reset_check
 458              	.LVL36:
1001:Middlewares/lvgl/src/core/lv_indev.c ****                 }
 459              		.loc 1 1001 23 view .LVU148
 460 008a 0028     		cmp	r0, #0
 461 008c E8D1     		bne	.L19
 462              	.L25:
1004:Middlewares/lvgl/src/core/lv_indev.c ****                 if(indev_reset_check(proc)) return;
 463              		.loc 1 1004 17 is_stmt 1 view .LVU149
 464 008e 1A4B     		ldr	r3, .L34+4
 465 0090 1A68     		ldr	r2, [r3]
 466 0092 0E21     		movs	r1, #14
 467 0094 2846     		mov	r0, r5
 468 0096 FFF7FEFF 		bl	lv_event_send
 469              	.LVL37:
1005:Middlewares/lvgl/src/core/lv_indev.c ****             }
 470              		.loc 1 1005 17 view .LVU150
1005:Middlewares/lvgl/src/core/lv_indev.c ****             }
 471              		.loc 1 1005 20 is_stmt 0 view .LVU151
 472 009a 2046     		mov	r0, r4
 473 009c FFF7FEFF 		bl	indev_reset_check
 474              	.LVL38:
1005:Middlewares/lvgl/src/core/lv_indev.c ****             }
 475              		.loc 1 1005 19 view .LVU152
 476 00a0 0028     		cmp	r0, #0
 477 00a2 DCD0     		beq	.L24
 478 00a4 DCE7     		b	.L19
 479              	.LVL39:
 480              	.L32:
1011:Middlewares/lvgl/src/core/lv_indev.c ****                 lv_event_send(proc->types.pointer.last_pressed, LV_EVENT_DEFOCUSED, indev_act);
 481              		.loc 1 1011 53 discriminator 1 view .LVU153
 482 00a6 E36A     		ldr	r3, [r4, #44]
1011:Middlewares/lvgl/src/core/lv_indev.c ****                 lv_event_send(proc->types.pointer.last_pressed, LV_EVENT_DEFOCUSED, indev_act);
 483              		.loc 1 1011 31 discriminator 1 view .LVU154
 484 00a8 002B     		cmp	r3, #0
 485 00aa C1D0     		beq	.L26
1012:Middlewares/lvgl/src/core/lv_indev.c ****                 if(indev_reset_check(proc)) return;
 486              		.loc 1 1012 17 is_stmt 1 view .LVU155
 487 00ac 124A     		ldr	r2, .L34+4
 488 00ae 1268     		ldr	r2, [r2]
 489 00b0 0F21     		movs	r1, #15
 490 00b2 1846     		mov	r0, r3
 491              	.LVL40:
1012:Middlewares/lvgl/src/core/lv_indev.c ****                 if(indev_reset_check(proc)) return;
 492              		.loc 1 1012 17 is_stmt 0 view .LVU156
 493 00b4 FFF7FEFF 		bl	lv_event_send
ARM GAS  /tmp/ccjEXvZv.s 			page 31


 494              	.LVL41:
1013:Middlewares/lvgl/src/core/lv_indev.c ****             }
 495              		.loc 1 1013 17 is_stmt 1 view .LVU157
1013:Middlewares/lvgl/src/core/lv_indev.c ****             }
 496              		.loc 1 1013 20 is_stmt 0 view .LVU158
 497 00b8 2046     		mov	r0, r4
 498 00ba FFF7FEFF 		bl	indev_reset_check
 499              	.LVL42:
1013:Middlewares/lvgl/src/core/lv_indev.c ****             }
 500              		.loc 1 1013 19 view .LVU159
 501 00be 0028     		cmp	r0, #0
 502 00c0 C4D0     		beq	.L27
 503 00c2 CDE7     		b	.L19
 504              	.LVL43:
 505              	.L33:
1020:Middlewares/lvgl/src/core/lv_indev.c ****                         if(indev_reset_check(proc)) return;
 506              		.loc 1 1020 25 is_stmt 1 view .LVU160
 507 00c4 0C4A     		ldr	r2, .L34+4
 508 00c6 1268     		ldr	r2, [r2]
 509 00c8 0F21     		movs	r1, #15
 510 00ca 1846     		mov	r0, r3
 511              	.LVL44:
1020:Middlewares/lvgl/src/core/lv_indev.c ****                         if(indev_reset_check(proc)) return;
 512              		.loc 1 1020 25 is_stmt 0 view .LVU161
 513 00cc FFF7FEFF 		bl	lv_event_send
 514              	.LVL45:
1021:Middlewares/lvgl/src/core/lv_indev.c ****                     }
 515              		.loc 1 1021 25 is_stmt 1 view .LVU162
1021:Middlewares/lvgl/src/core/lv_indev.c ****                     }
 516              		.loc 1 1021 28 is_stmt 0 view .LVU163
 517 00d0 2046     		mov	r0, r4
 518 00d2 FFF7FEFF 		bl	indev_reset_check
 519              	.LVL46:
1021:Middlewares/lvgl/src/core/lv_indev.c ****                     }
 520              		.loc 1 1021 27 view .LVU164
 521 00d6 0028     		cmp	r0, #0
 522 00d8 B8D0     		beq	.L27
 523 00da C1E7     		b	.L19
 524              	.L29:
1037:Middlewares/lvgl/src/core/lv_indev.c ****                 if(indev_reset_check(proc)) return;
 525              		.loc 1 1037 17 is_stmt 1 view .LVU165
 526 00dc 064B     		ldr	r3, .L34+4
 527 00de 1A68     		ldr	r2, [r3]
 528 00e0 0E21     		movs	r1, #14
 529 00e2 2846     		mov	r0, r5
 530 00e4 FFF7FEFF 		bl	lv_event_send
 531              	.LVL47:
1038:Middlewares/lvgl/src/core/lv_indev.c ****             }
 532              		.loc 1 1038 17 view .LVU166
1038:Middlewares/lvgl/src/core/lv_indev.c ****             }
 533              		.loc 1 1038 20 is_stmt 0 view .LVU167
 534 00e8 2046     		mov	r0, r4
 535 00ea FFF7FEFF 		bl	indev_reset_check
 536              	.LVL48:
1038:Middlewares/lvgl/src/core/lv_indev.c ****             }
 537              		.loc 1 1038 19 view .LVU168
 538 00ee 0028     		cmp	r0, #0
ARM GAS  /tmp/ccjEXvZv.s 			page 32


 539 00f0 B5D0     		beq	.L24
 540 00f2 B5E7     		b	.L19
 541              	.L35:
 542              		.align	2
 543              	.L34:
 544 00f4 00000000 		.word	.LANCHOR0
 545 00f8 00000000 		.word	.LANCHOR1
 546              	.LBE3:
 547              		.cfi_endproc
 548              	.LFE179:
 550              		.section	.text.indev_gesture,"ax",%progbits
 551              		.align	1
 552              		.syntax unified
 553              		.thumb
 554              		.thumb_func
 555              		.fpu fpv4-sp-d16
 557              	indev_gesture:
 558              	.LVL49:
 559              	.LFB180:
1051:Middlewares/lvgl/src/core/lv_indev.c **** 
 560              		.loc 1 1051 1 is_stmt 1 view -0
 561              		.cfi_startproc
 562              		@ args = 0, pretend = 0, frame = 0
 563              		@ frame_needed = 0, uses_anonymous_args = 0
1053:Middlewares/lvgl/src/core/lv_indev.c ****     if(proc->types.pointer.gesture_sent) return;
 564              		.loc 1 1053 5 view .LVU170
1053:Middlewares/lvgl/src/core/lv_indev.c ****     if(proc->types.pointer.gesture_sent) return;
 565              		.loc 1 1053 27 is_stmt 0 view .LVU171
 566 0000 836A     		ldr	r3, [r0, #40]
1053:Middlewares/lvgl/src/core/lv_indev.c ****     if(proc->types.pointer.gesture_sent) return;
 567              		.loc 1 1053 7 view .LVU172
 568 0002 03B1     		cbz	r3, .L51
 569 0004 7047     		bx	lr
 570              	.L51:
1051:Middlewares/lvgl/src/core/lv_indev.c **** 
 571              		.loc 1 1051 1 view .LVU173
 572 0006 70B5     		push	{r4, r5, r6, lr}
 573              	.LCFI2:
 574              		.cfi_def_cfa_offset 16
 575              		.cfi_offset 4, -16
 576              		.cfi_offset 5, -12
 577              		.cfi_offset 6, -8
 578              		.cfi_offset 14, -4
 579 0008 0546     		mov	r5, r0
1054:Middlewares/lvgl/src/core/lv_indev.c **** 
 580              		.loc 1 1054 5 is_stmt 1 view .LVU174
1054:Middlewares/lvgl/src/core/lv_indev.c **** 
 581              		.loc 1 1054 8 is_stmt 0 view .LVU175
 582 000a 90F83D30 		ldrb	r3, [r0, #61]	@ zero_extendqisi2
1054:Middlewares/lvgl/src/core/lv_indev.c **** 
 583              		.loc 1 1054 7 view .LVU176
 584 000e 13F0010F 		tst	r3, #1
 585 0012 61D1     		bne	.L36
1056:Middlewares/lvgl/src/core/lv_indev.c **** 
 586              		.loc 1 1056 5 is_stmt 1 view .LVU177
1056:Middlewares/lvgl/src/core/lv_indev.c **** 
 587              		.loc 1 1056 16 is_stmt 0 view .LVU178
ARM GAS  /tmp/ccjEXvZv.s 			page 33


 588 0014 046A     		ldr	r4, [r0, #32]
 589              	.LVL50:
1059:Middlewares/lvgl/src/core/lv_indev.c ****         gesture_obj = lv_obj_get_parent(gesture_obj);
 590              		.loc 1 1059 5 is_stmt 1 view .LVU179
1059:Middlewares/lvgl/src/core/lv_indev.c ****         gesture_obj = lv_obj_get_parent(gesture_obj);
 591              		.loc 1 1059 10 is_stmt 0 view .LVU180
 592 0016 03E0     		b	.L38
 593              	.LVL51:
 594              	.L40:
1060:Middlewares/lvgl/src/core/lv_indev.c ****     }
 595              		.loc 1 1060 9 is_stmt 1 view .LVU181
1060:Middlewares/lvgl/src/core/lv_indev.c ****     }
 596              		.loc 1 1060 23 is_stmt 0 view .LVU182
 597 0018 2046     		mov	r0, r4
 598 001a FFF7FEFF 		bl	lv_obj_get_parent
 599              	.LVL52:
 600 001e 0446     		mov	r4, r0
 601              	.LVL53:
 602              	.L38:
1059:Middlewares/lvgl/src/core/lv_indev.c ****         gesture_obj = lv_obj_get_parent(gesture_obj);
 603              		.loc 1 1059 10 is_stmt 1 view .LVU183
 604 0020 34B1     		cbz	r4, .L39
1059:Middlewares/lvgl/src/core/lv_indev.c ****         gesture_obj = lv_obj_get_parent(gesture_obj);
 605              		.loc 1 1059 26 is_stmt 0 discriminator 1 view .LVU184
 606 0022 4FF40051 		mov	r1, #8192
 607 0026 2046     		mov	r0, r4
 608 0028 FFF7FEFF 		bl	lv_obj_has_flag
 609              	.LVL54:
1059:Middlewares/lvgl/src/core/lv_indev.c ****         gesture_obj = lv_obj_get_parent(gesture_obj);
 610              		.loc 1 1059 23 discriminator 1 view .LVU185
 611 002c 0028     		cmp	r0, #0
 612 002e F3D1     		bne	.L40
 613              	.L39:
1063:Middlewares/lvgl/src/core/lv_indev.c **** 
 614              		.loc 1 1063 5 is_stmt 1 view .LVU186
1063:Middlewares/lvgl/src/core/lv_indev.c **** 
 615              		.loc 1 1063 7 is_stmt 0 view .LVU187
 616 0030 002C     		cmp	r4, #0
 617 0032 51D0     		beq	.L36
1065:Middlewares/lvgl/src/core/lv_indev.c ****        (LV_ABS(proc->types.pointer.vect.y) < indev_act->driver->gesture_min_velocity)) {
 618              		.loc 1 1065 5 is_stmt 1 view .LVU188
1065:Middlewares/lvgl/src/core/lv_indev.c ****        (LV_ABS(proc->types.pointer.vect.y) < indev_act->driver->gesture_min_velocity)) {
 619              		.loc 1 1065 9 is_stmt 0 view .LVU189
 620 0034 B5F91030 		ldrsh	r3, [r5, #16]
 621 0038 83EAE371 		eor	r1, r3, r3, asr #31
 622 003c A1EBE371 		sub	r1, r1, r3, asr #31
 623 0040 89B2     		uxth	r1, r1
1065:Middlewares/lvgl/src/core/lv_indev.c ****        (LV_ABS(proc->types.pointer.vect.y) < indev_act->driver->gesture_min_velocity)) {
 624              		.loc 1 1065 55 view .LVU190
 625 0042 334A     		ldr	r2, .L52
 626 0044 1268     		ldr	r2, [r2]
 627 0046 1068     		ldr	r0, [r2]
1065:Middlewares/lvgl/src/core/lv_indev.c ****        (LV_ABS(proc->types.pointer.vect.y) < indev_act->driver->gesture_min_velocity)) {
 628              		.loc 1 1065 44 view .LVU191
 629 0048 807E     		ldrb	r0, [r0, #26]	@ zero_extendqisi2
1065:Middlewares/lvgl/src/core/lv_indev.c ****        (LV_ABS(proc->types.pointer.vect.y) < indev_act->driver->gesture_min_velocity)) {
 630              		.loc 1 1065 7 view .LVU192
ARM GAS  /tmp/ccjEXvZv.s 			page 34


 631 004a 8142     		cmp	r1, r0
 632 004c 0AD2     		bcs	.L41
1066:Middlewares/lvgl/src/core/lv_indev.c ****         proc->types.pointer.gesture_sum.x = 0;
 633              		.loc 1 1066 9 discriminator 1 view .LVU193
 634 004e B5F91210 		ldrsh	r1, [r5, #18]
 635 0052 0029     		cmp	r1, #0
 636 0054 B8BF     		it	lt
 637 0056 4942     		rsblt	r1, r1, #0
 638 0058 89B2     		uxth	r1, r1
1065:Middlewares/lvgl/src/core/lv_indev.c ****        (LV_ABS(proc->types.pointer.vect.y) < indev_act->driver->gesture_min_velocity)) {
 639              		.loc 1 1065 87 discriminator 1 view .LVU194
 640 005a 8842     		cmp	r0, r1
 641 005c 02D9     		bls	.L41
1067:Middlewares/lvgl/src/core/lv_indev.c ****         proc->types.pointer.gesture_sum.y = 0;
 642              		.loc 1 1067 9 is_stmt 1 view .LVU195
1067:Middlewares/lvgl/src/core/lv_indev.c ****         proc->types.pointer.gesture_sum.y = 0;
 643              		.loc 1 1067 43 is_stmt 0 view .LVU196
 644 005e 0021     		movs	r1, #0
 645 0060 2987     		strh	r1, [r5, #56]	@ movhi
1068:Middlewares/lvgl/src/core/lv_indev.c ****     }
 646              		.loc 1 1068 9 is_stmt 1 view .LVU197
1068:Middlewares/lvgl/src/core/lv_indev.c ****     }
 647              		.loc 1 1068 43 is_stmt 0 view .LVU198
 648 0062 6987     		strh	r1, [r5, #58]	@ movhi
 649              	.L41:
1072:Middlewares/lvgl/src/core/lv_indev.c ****     proc->types.pointer.gesture_sum.y += proc->types.pointer.vect.y;
 650              		.loc 1 1072 5 is_stmt 1 view .LVU199
1072:Middlewares/lvgl/src/core/lv_indev.c ****     proc->types.pointer.gesture_sum.y += proc->types.pointer.vect.y;
 651              		.loc 1 1072 39 is_stmt 0 view .LVU200
 652 0064 298F     		ldrh	r1, [r5, #56]
 653 0066 11FA83F3 		uxtah	r3, r1, r3
 654 006a 1BB2     		sxth	r3, r3
 655 006c 2B87     		strh	r3, [r5, #56]	@ movhi
1073:Middlewares/lvgl/src/core/lv_indev.c **** 
 656              		.loc 1 1073 5 is_stmt 1 view .LVU201
1073:Middlewares/lvgl/src/core/lv_indev.c **** 
 657              		.loc 1 1073 66 is_stmt 0 view .LVU202
 658 006e 698A     		ldrh	r1, [r5, #18]
1073:Middlewares/lvgl/src/core/lv_indev.c **** 
 659              		.loc 1 1073 39 view .LVU203
 660 0070 688F     		ldrh	r0, [r5, #58]
 661 0072 0144     		add	r1, r1, r0
 662 0074 09B2     		sxth	r1, r1
 663 0076 6987     		strh	r1, [r5, #58]	@ movhi
1075:Middlewares/lvgl/src/core/lv_indev.c ****        (LV_ABS(proc->types.pointer.gesture_sum.y) > indev_act->driver->gesture_limit)) {
 664              		.loc 1 1075 5 is_stmt 1 view .LVU204
1075:Middlewares/lvgl/src/core/lv_indev.c ****        (LV_ABS(proc->types.pointer.gesture_sum.y) > indev_act->driver->gesture_limit)) {
 665              		.loc 1 1075 9 is_stmt 0 view .LVU205
 666 0078 83EAE370 		eor	r0, r3, r3, asr #31
 667 007c A0EBE370 		sub	r0, r0, r3, asr #31
 668 0080 80B2     		uxth	r0, r0
1075:Middlewares/lvgl/src/core/lv_indev.c ****        (LV_ABS(proc->types.pointer.gesture_sum.y) > indev_act->driver->gesture_limit)) {
 669              		.loc 1 1075 51 view .LVU206
 670 0082 1668     		ldr	r6, [r2]
 671 0084 96F81BC0 		ldrb	ip, [r6, #27]	@ zero_extendqisi2
1075:Middlewares/lvgl/src/core/lv_indev.c ****        (LV_ABS(proc->types.pointer.gesture_sum.y) > indev_act->driver->gesture_limit)) {
 672              		.loc 1 1075 7 view .LVU207
ARM GAS  /tmp/ccjEXvZv.s 			page 35


 673 0088 6045     		cmp	r0, ip
 674 008a 07D8     		bhi	.L42
1076:Middlewares/lvgl/src/core/lv_indev.c **** 
 675              		.loc 1 1076 9 discriminator 1 view .LVU208
 676 008c 81EAE17E 		eor	lr, r1, r1, asr #31
 677 0090 AEEBE17E 		sub	lr, lr, r1, asr #31
 678 0094 1FFA8EFE 		uxth	lr, lr
1075:Middlewares/lvgl/src/core/lv_indev.c ****        (LV_ABS(proc->types.pointer.gesture_sum.y) > indev_act->driver->gesture_limit)) {
 679              		.loc 1 1075 87 discriminator 1 view .LVU209
 680 0098 F445     		cmp	ip, lr
 681 009a 1DD2     		bcs	.L36
 682              	.L42:
1078:Middlewares/lvgl/src/core/lv_indev.c **** 
 683              		.loc 1 1078 9 is_stmt 1 view .LVU210
1078:Middlewares/lvgl/src/core/lv_indev.c **** 
 684              		.loc 1 1078 42 is_stmt 0 view .LVU211
 685 009c 95F83DC0 		ldrb	ip, [r5, #61]	@ zero_extendqisi2
 686 00a0 4CF0010C 		orr	ip, ip, #1
 687 00a4 85F83DC0 		strb	ip, [r5, #61]
1080:Middlewares/lvgl/src/core/lv_indev.c ****             if(proc->types.pointer.gesture_sum.x > 0)
 688              		.loc 1 1080 9 is_stmt 1 view .LVU212
1080:Middlewares/lvgl/src/core/lv_indev.c ****             if(proc->types.pointer.gesture_sum.x > 0)
 689              		.loc 1 1080 56 is_stmt 0 view .LVU213
 690 00a8 81EAE17C 		eor	ip, r1, r1, asr #31
 691 00ac ACEBE17C 		sub	ip, ip, r1, asr #31
 692 00b0 1FFA8CFC 		uxth	ip, ip
1080:Middlewares/lvgl/src/core/lv_indev.c ****             if(proc->types.pointer.gesture_sum.x > 0)
 693              		.loc 1 1080 11 view .LVU214
 694 00b4 6045     		cmp	r0, ip
 695 00b6 18D9     		bls	.L43
1081:Middlewares/lvgl/src/core/lv_indev.c ****                 proc->types.pointer.gesture_dir = LV_DIR_RIGHT;
 696              		.loc 1 1081 13 is_stmt 1 view .LVU215
1081:Middlewares/lvgl/src/core/lv_indev.c ****                 proc->types.pointer.gesture_dir = LV_DIR_RIGHT;
 697              		.loc 1 1081 15 is_stmt 0 view .LVU216
 698 00b8 002B     		cmp	r3, #0
 699 00ba 0EDD     		ble	.L44
1082:Middlewares/lvgl/src/core/lv_indev.c ****             else
 700              		.loc 1 1082 17 is_stmt 1 view .LVU217
1082:Middlewares/lvgl/src/core/lv_indev.c ****             else
 701              		.loc 1 1082 49 is_stmt 0 view .LVU218
 702 00bc 95F83C30 		ldrb	r3, [r5, #60]	@ zero_extendqisi2
 703 00c0 0221     		movs	r1, #2
 704 00c2 61F30713 		bfi	r3, r1, #4, #4
 705 00c6 85F83C30 		strb	r3, [r5, #60]
 706              	.L45:
1093:Middlewares/lvgl/src/core/lv_indev.c ****         if(indev_reset_check(proc)) return;
 707              		.loc 1 1093 9 is_stmt 1 view .LVU219
 708 00ca 0C21     		movs	r1, #12
 709 00cc 2046     		mov	r0, r4
 710 00ce FFF7FEFF 		bl	lv_event_send
 711              	.LVL55:
1094:Middlewares/lvgl/src/core/lv_indev.c ****     }
 712              		.loc 1 1094 9 view .LVU220
1094:Middlewares/lvgl/src/core/lv_indev.c ****     }
 713              		.loc 1 1094 12 is_stmt 0 view .LVU221
 714 00d2 2846     		mov	r0, r5
 715 00d4 FFF7FEFF 		bl	indev_reset_check
ARM GAS  /tmp/ccjEXvZv.s 			page 36


 716              	.LVL56:
 717              	.L36:
1096:Middlewares/lvgl/src/core/lv_indev.c **** 
 718              		.loc 1 1096 1 view .LVU222
 719 00d8 70BD     		pop	{r4, r5, r6, pc}
 720              	.LVL57:
 721              	.L44:
1084:Middlewares/lvgl/src/core/lv_indev.c ****         }
 722              		.loc 1 1084 17 is_stmt 1 view .LVU223
1084:Middlewares/lvgl/src/core/lv_indev.c ****         }
 723              		.loc 1 1084 49 is_stmt 0 view .LVU224
 724 00da 95F83C30 		ldrb	r3, [r5, #60]	@ zero_extendqisi2
 725 00de 0121     		movs	r1, #1
 726 00e0 61F30713 		bfi	r3, r1, #4, #4
 727 00e4 85F83C30 		strb	r3, [r5, #60]
 728 00e8 EFE7     		b	.L45
 729              	.L43:
1087:Middlewares/lvgl/src/core/lv_indev.c ****                 proc->types.pointer.gesture_dir = LV_DIR_BOTTOM;
 730              		.loc 1 1087 13 is_stmt 1 view .LVU225
1087:Middlewares/lvgl/src/core/lv_indev.c ****                 proc->types.pointer.gesture_dir = LV_DIR_BOTTOM;
 731              		.loc 1 1087 15 is_stmt 0 view .LVU226
 732 00ea 0029     		cmp	r1, #0
 733 00ec 07DD     		ble	.L46
1088:Middlewares/lvgl/src/core/lv_indev.c ****             else
 734              		.loc 1 1088 17 is_stmt 1 view .LVU227
1088:Middlewares/lvgl/src/core/lv_indev.c ****             else
 735              		.loc 1 1088 49 is_stmt 0 view .LVU228
 736 00ee 95F83C30 		ldrb	r3, [r5, #60]	@ zero_extendqisi2
 737 00f2 0821     		movs	r1, #8
 738 00f4 61F30713 		bfi	r3, r1, #4, #4
 739 00f8 85F83C30 		strb	r3, [r5, #60]
 740 00fc E5E7     		b	.L45
 741              	.L46:
1090:Middlewares/lvgl/src/core/lv_indev.c ****         }
 742              		.loc 1 1090 17 is_stmt 1 view .LVU229
1090:Middlewares/lvgl/src/core/lv_indev.c ****         }
 743              		.loc 1 1090 49 is_stmt 0 view .LVU230
 744 00fe 95F83C30 		ldrb	r3, [r5, #60]	@ zero_extendqisi2
 745 0102 0421     		movs	r1, #4
 746 0104 61F30713 		bfi	r3, r1, #4, #4
 747 0108 85F83C30 		strb	r3, [r5, #60]
 748 010c DDE7     		b	.L45
 749              	.L53:
 750 010e 00BF     		.align	2
 751              	.L52:
 752 0110 00000000 		.word	.LANCHOR1
 753              		.cfi_endproc
 754              	.LFE180:
 756              		.section	.text.indev_keypad_proc,"ax",%progbits
 757              		.align	1
 758              		.syntax unified
 759              		.thumb
 760              		.thumb_func
 761              		.fpu fpv4-sp-d16
 763              	indev_keypad_proc:
 764              	.LVL58:
 765              	.LFB173:
ARM GAS  /tmp/ccjEXvZv.s 			page 37


 375:Middlewares/lvgl/src/core/lv_indev.c ****     if(data->state == LV_INDEV_STATE_PRESSED && i->proc.wait_until_release) return;
 766              		.loc 1 375 1 is_stmt 1 view -0
 767              		.cfi_startproc
 768              		@ args = 0, pretend = 0, frame = 0
 769              		@ frame_needed = 0, uses_anonymous_args = 0
 375:Middlewares/lvgl/src/core/lv_indev.c ****     if(data->state == LV_INDEV_STATE_PRESSED && i->proc.wait_until_release) return;
 770              		.loc 1 375 1 is_stmt 0 view .LVU232
 771 0000 70B5     		push	{r4, r5, r6, lr}
 772              	.LCFI3:
 773              		.cfi_def_cfa_offset 16
 774              		.cfi_offset 4, -16
 775              		.cfi_offset 5, -12
 776              		.cfi_offset 6, -8
 777              		.cfi_offset 14, -4
 778 0002 0446     		mov	r4, r0
 779 0004 0D46     		mov	r5, r1
 376:Middlewares/lvgl/src/core/lv_indev.c **** 
 780              		.loc 1 376 5 is_stmt 1 view .LVU233
 376:Middlewares/lvgl/src/core/lv_indev.c **** 
 781              		.loc 1 376 12 is_stmt 0 view .LVU234
 782 0006 8B7B     		ldrb	r3, [r1, #14]	@ zero_extendqisi2
 376:Middlewares/lvgl/src/core/lv_indev.c **** 
 783              		.loc 1 376 7 view .LVU235
 784 0008 012B     		cmp	r3, #1
 785 000a 28D0     		beq	.L73
 786              	.L55:
 378:Middlewares/lvgl/src/core/lv_indev.c ****         i->proc.wait_until_release      = 0;
 787              		.loc 1 378 5 is_stmt 1 view .LVU236
 378:Middlewares/lvgl/src/core/lv_indev.c ****         i->proc.wait_until_release      = 0;
 788              		.loc 1 378 8 is_stmt 0 view .LVU237
 789 000c 6379     		ldrb	r3, [r4, #5]	@ zero_extendqisi2
 378:Middlewares/lvgl/src/core/lv_indev.c ****         i->proc.wait_until_release      = 0;
 790              		.loc 1 378 7 view .LVU238
 791 000e 13F0080F 		tst	r3, #8
 792 0012 0AD0     		beq	.L57
 379:Middlewares/lvgl/src/core/lv_indev.c ****         i->proc.pr_timestamp            = 0;
 793              		.loc 1 379 9 is_stmt 1 view .LVU239
 379:Middlewares/lvgl/src/core/lv_indev.c ****         i->proc.pr_timestamp            = 0;
 794              		.loc 1 379 41 is_stmt 0 view .LVU240
 795 0014 6379     		ldrb	r3, [r4, #5]	@ zero_extendqisi2
 796 0016 6FF3C303 		bfc	r3, #3, #1
 797 001a 6371     		strb	r3, [r4, #5]
 380:Middlewares/lvgl/src/core/lv_indev.c ****         i->proc.long_pr_sent            = 0;
 798              		.loc 1 380 9 is_stmt 1 view .LVU241
 380:Middlewares/lvgl/src/core/lv_indev.c ****         i->proc.long_pr_sent            = 0;
 799              		.loc 1 380 41 is_stmt 0 view .LVU242
 800 001c 0023     		movs	r3, #0
 801 001e 6364     		str	r3, [r4, #68]
 381:Middlewares/lvgl/src/core/lv_indev.c ****         i->proc.types.keypad.last_state = LV_INDEV_STATE_RELEASED; /*To skip the processing of rele
 802              		.loc 1 381 9 is_stmt 1 view .LVU243
 381:Middlewares/lvgl/src/core/lv_indev.c ****         i->proc.types.keypad.last_state = LV_INDEV_STATE_RELEASED; /*To skip the processing of rele
 803              		.loc 1 381 41 is_stmt 0 view .LVU244
 804 0020 6279     		ldrb	r2, [r4, #5]	@ zero_extendqisi2
 805 0022 63F30002 		bfi	r2, r3, #0, #1
 806 0026 6271     		strb	r2, [r4, #5]
 382:Middlewares/lvgl/src/core/lv_indev.c ****     }
 807              		.loc 1 382 9 is_stmt 1 view .LVU245
ARM GAS  /tmp/ccjEXvZv.s 			page 38


 382:Middlewares/lvgl/src/core/lv_indev.c ****     }
 808              		.loc 1 382 41 is_stmt 0 view .LVU246
 809 0028 2372     		strb	r3, [r4, #8]
 810              	.L57:
 385:Middlewares/lvgl/src/core/lv_indev.c ****     if(g == NULL) return;
 811              		.loc 1 385 5 is_stmt 1 view .LVU247
 385:Middlewares/lvgl/src/core/lv_indev.c ****     if(g == NULL) return;
 812              		.loc 1 385 18 is_stmt 0 view .LVU248
 813 002a 266D     		ldr	r6, [r4, #80]
 814              	.LVL59:
 386:Middlewares/lvgl/src/core/lv_indev.c **** 
 815              		.loc 1 386 5 is_stmt 1 view .LVU249
 386:Middlewares/lvgl/src/core/lv_indev.c **** 
 816              		.loc 1 386 7 is_stmt 0 view .LVU250
 817 002c B6B1     		cbz	r6, .L54
 388:Middlewares/lvgl/src/core/lv_indev.c ****     if(indev_obj_act == NULL) return;
 818              		.loc 1 388 5 is_stmt 1 view .LVU251
 388:Middlewares/lvgl/src/core/lv_indev.c ****     if(indev_obj_act == NULL) return;
 819              		.loc 1 388 21 is_stmt 0 view .LVU252
 820 002e 3046     		mov	r0, r6
 821              	.LVL60:
 388:Middlewares/lvgl/src/core/lv_indev.c ****     if(indev_obj_act == NULL) return;
 822              		.loc 1 388 21 view .LVU253
 823 0030 FFF7FEFF 		bl	lv_group_get_focused
 824              	.LVL61:
 388:Middlewares/lvgl/src/core/lv_indev.c ****     if(indev_obj_act == NULL) return;
 825              		.loc 1 388 19 view .LVU254
 826 0034 8A4B     		ldr	r3, .L87
 827 0036 1860     		str	r0, [r3]
 389:Middlewares/lvgl/src/core/lv_indev.c **** 
 828              		.loc 1 389 5 is_stmt 1 view .LVU255
 389:Middlewares/lvgl/src/core/lv_indev.c **** 
 829              		.loc 1 389 7 is_stmt 0 view .LVU256
 830 0038 80B1     		cbz	r0, .L54
 392:Middlewares/lvgl/src/core/lv_indev.c **** 
 831              		.loc 1 392 5 is_stmt 1 view .LVU257
 392:Middlewares/lvgl/src/core/lv_indev.c **** 
 832              		.loc 1 392 14 is_stmt 0 view .LVU258
 833 003a E168     		ldr	r1, [r4, #12]
 834              	.LVL62:
 396:Middlewares/lvgl/src/core/lv_indev.c **** 
 835              		.loc 1 396 5 is_stmt 1 view .LVU259
 396:Middlewares/lvgl/src/core/lv_indev.c **** 
 836              		.loc 1 396 41 is_stmt 0 view .LVU260
 837 003c 6B68     		ldr	r3, [r5, #4]
 396:Middlewares/lvgl/src/core/lv_indev.c **** 
 838              		.loc 1 396 35 view .LVU261
 839 003e E360     		str	r3, [r4, #12]
 401:Middlewares/lvgl/src/core/lv_indev.c ****     i->proc.types.keypad.last_state = data->state;
 840              		.loc 1 401 5 is_stmt 1 view .LVU262
 401:Middlewares/lvgl/src/core/lv_indev.c ****     i->proc.types.keypad.last_state = data->state;
 841              		.loc 1 401 59 is_stmt 0 view .LVU263
 842 0040 227A     		ldrb	r2, [r4, #8]	@ zero_extendqisi2
 843              	.LVL63:
 402:Middlewares/lvgl/src/core/lv_indev.c **** 
 844              		.loc 1 402 5 is_stmt 1 view .LVU264
 402:Middlewares/lvgl/src/core/lv_indev.c **** 
ARM GAS  /tmp/ccjEXvZv.s 			page 39


 845              		.loc 1 402 43 is_stmt 0 view .LVU265
 846 0042 AB7B     		ldrb	r3, [r5, #14]	@ zero_extendqisi2
 402:Middlewares/lvgl/src/core/lv_indev.c **** 
 847              		.loc 1 402 37 view .LVU266
 848 0044 2372     		strb	r3, [r4, #8]
 405:Middlewares/lvgl/src/core/lv_indev.c ****         LV_LOG_INFO("%d key is pressed", data->key);
 849              		.loc 1 405 5 is_stmt 1 view .LVU267
 405:Middlewares/lvgl/src/core/lv_indev.c ****         LV_LOG_INFO("%d key is pressed", data->key);
 850              		.loc 1 405 7 is_stmt 0 view .LVU268
 851 0046 012B     		cmp	r3, #1
 852 0048 0ED0     		beq	.L74
 853              	.L58:
 442:Middlewares/lvgl/src/core/lv_indev.c **** 
 854              		.loc 1 442 10 is_stmt 1 view .LVU269
 442:Middlewares/lvgl/src/core/lv_indev.c **** 
 855              		.loc 1 442 12 is_stmt 0 view .LVU270
 856 004a 012B     		cmp	r3, #1
 857 004c 58D0     		beq	.L75
 858              	.L64:
 489:Middlewares/lvgl/src/core/lv_indev.c ****         LV_LOG_INFO("%d key is released", data->key);
 859              		.loc 1 489 10 is_stmt 1 view .LVU271
 489:Middlewares/lvgl/src/core/lv_indev.c ****         LV_LOG_INFO("%d key is released", data->key);
 860              		.loc 1 489 12 is_stmt 0 view .LVU272
 861 004e 13B9     		cbnz	r3, .L60
 489:Middlewares/lvgl/src/core/lv_indev.c ****         LV_LOG_INFO("%d key is released", data->key);
 862              		.loc 1 489 52 discriminator 1 view .LVU273
 863 0050 012A     		cmp	r2, #1
 864 0052 00F0D180 		beq	.L76
 865              	.LVL64:
 866              	.L60:
 510:Middlewares/lvgl/src/core/lv_indev.c **** }
 867              		.loc 1 510 5 is_stmt 1 view .LVU274
 510:Middlewares/lvgl/src/core/lv_indev.c **** }
 868              		.loc 1 510 19 is_stmt 0 view .LVU275
 869 0056 824B     		ldr	r3, .L87
 870 0058 0022     		movs	r2, #0
 871 005a 1A60     		str	r2, [r3]
 872              	.LVL65:
 873              	.L54:
 511:Middlewares/lvgl/src/core/lv_indev.c **** 
 874              		.loc 1 511 1 view .LVU276
 875 005c 70BD     		pop	{r4, r5, r6, pc}
 876              	.LVL66:
 877              	.L73:
 376:Middlewares/lvgl/src/core/lv_indev.c **** 
 878              		.loc 1 376 46 discriminator 1 view .LVU277
 879 005e 4379     		ldrb	r3, [r0, #5]	@ zero_extendqisi2
 880 0060 13F0080F 		tst	r3, #8
 881 0064 D2D0     		beq	.L55
 882 0066 F9E7     		b	.L54
 883              	.LVL67:
 884              	.L74:
 405:Middlewares/lvgl/src/core/lv_indev.c ****         LV_LOG_INFO("%d key is pressed", data->key);
 885              		.loc 1 405 46 discriminator 1 view .LVU278
 886 0068 002A     		cmp	r2, #0
 887 006a EED1     		bne	.L58
 406:Middlewares/lvgl/src/core/lv_indev.c ****         i->proc.pr_timestamp = lv_tick_get();
ARM GAS  /tmp/ccjEXvZv.s 			page 40


 888              		.loc 1 406 52 is_stmt 1 view .LVU279
 407:Middlewares/lvgl/src/core/lv_indev.c **** 
 889              		.loc 1 407 9 view .LVU280
 407:Middlewares/lvgl/src/core/lv_indev.c **** 
 890              		.loc 1 407 32 is_stmt 0 view .LVU281
 891 006c FFF7FEFF 		bl	lv_tick_get
 892              	.LVL68:
 407:Middlewares/lvgl/src/core/lv_indev.c **** 
 893              		.loc 1 407 30 view .LVU282
 894 0070 6064     		str	r0, [r4, #68]
 410:Middlewares/lvgl/src/core/lv_indev.c ****             /*Send the ENTER as a normal KEY*/
 895              		.loc 1 410 9 is_stmt 1 view .LVU283
 410:Middlewares/lvgl/src/core/lv_indev.c ****             /*Send the ENTER as a normal KEY*/
 896              		.loc 1 410 16 is_stmt 0 view .LVU284
 897 0072 6968     		ldr	r1, [r5, #4]
 410:Middlewares/lvgl/src/core/lv_indev.c ****             /*Send the ENTER as a normal KEY*/
 898              		.loc 1 410 11 view .LVU285
 899 0074 0A29     		cmp	r1, #10
 900 0076 09D0     		beq	.L77
 417:Middlewares/lvgl/src/core/lv_indev.c ****             /*Send the ESC as a normal KEY*/
 901              		.loc 1 417 14 is_stmt 1 view .LVU286
 417:Middlewares/lvgl/src/core/lv_indev.c ****             /*Send the ESC as a normal KEY*/
 902              		.loc 1 417 16 is_stmt 0 view .LVU287
 903 0078 1B29     		cmp	r1, #27
 904 007a 17D0     		beq	.L78
 425:Middlewares/lvgl/src/core/lv_indev.c ****             lv_group_set_editing(g, false); /*Editing is not used by KEYPAD is be sure it is disabl
 905              		.loc 1 425 14 is_stmt 1 view .LVU288
 425:Middlewares/lvgl/src/core/lv_indev.c ****             lv_group_set_editing(g, false); /*Editing is not used by KEYPAD is be sure it is disabl
 906              		.loc 1 425 16 is_stmt 0 view .LVU289
 907 007c 0929     		cmp	r1, #9
 908 007e 25D0     		beq	.L79
 431:Middlewares/lvgl/src/core/lv_indev.c ****             lv_group_set_editing(g, false); /*Editing is not used by KEYPAD is be sure it is disabl
 909              		.loc 1 431 14 is_stmt 1 view .LVU290
 431:Middlewares/lvgl/src/core/lv_indev.c ****             lv_group_set_editing(g, false); /*Editing is not used by KEYPAD is be sure it is disabl
 910              		.loc 1 431 16 is_stmt 0 view .LVU291
 911 0080 0B29     		cmp	r1, #11
 912 0082 30D0     		beq	.L80
 438:Middlewares/lvgl/src/core/lv_indev.c ****         }
 913              		.loc 1 438 13 is_stmt 1 view .LVU292
 914 0084 3046     		mov	r0, r6
 915 0086 FFF7FEFF 		bl	lv_group_send_data
 916              	.LVL69:
 917 008a E4E7     		b	.L60
 918              	.L77:
 412:Middlewares/lvgl/src/core/lv_indev.c **** 
 919              		.loc 1 412 13 view .LVU293
 920 008c 3046     		mov	r0, r6
 921 008e FFF7FEFF 		bl	lv_group_send_data
 922              	.LVL70:
 414:Middlewares/lvgl/src/core/lv_indev.c ****             if(indev_reset_check(&i->proc)) return;
 923              		.loc 1 414 13 view .LVU294
 924 0092 744B     		ldr	r3, .L87+4
 925 0094 1A68     		ldr	r2, [r3]
 926 0096 0121     		movs	r1, #1
 927 0098 714B     		ldr	r3, .L87
 928 009a 1868     		ldr	r0, [r3]
 929 009c FFF7FEFF 		bl	lv_event_send
ARM GAS  /tmp/ccjEXvZv.s 			page 41


 930              	.LVL71:
 415:Middlewares/lvgl/src/core/lv_indev.c ****         }
 931              		.loc 1 415 13 view .LVU295
 415:Middlewares/lvgl/src/core/lv_indev.c ****         }
 932              		.loc 1 415 16 is_stmt 0 view .LVU296
 933 00a0 201D     		adds	r0, r4, #4
 934 00a2 FFF7FEFF 		bl	indev_reset_check
 935              	.LVL72:
 415:Middlewares/lvgl/src/core/lv_indev.c ****         }
 936              		.loc 1 415 15 view .LVU297
 937 00a6 0028     		cmp	r0, #0
 938 00a8 D5D0     		beq	.L60
 939 00aa D7E7     		b	.L54
 940              	.L78:
 419:Middlewares/lvgl/src/core/lv_indev.c **** 
 941              		.loc 1 419 13 is_stmt 1 view .LVU298
 942 00ac 3046     		mov	r0, r6
 943 00ae FFF7FEFF 		bl	lv_group_send_data
 944              	.LVL73:
 421:Middlewares/lvgl/src/core/lv_indev.c ****             if(indev_reset_check(&i->proc)) return;
 945              		.loc 1 421 13 view .LVU299
 946 00b2 6C4B     		ldr	r3, .L87+4
 947 00b4 1A68     		ldr	r2, [r3]
 948 00b6 2021     		movs	r1, #32
 949 00b8 694B     		ldr	r3, .L87
 950 00ba 1868     		ldr	r0, [r3]
 951 00bc FFF7FEFF 		bl	lv_event_send
 952              	.LVL74:
 422:Middlewares/lvgl/src/core/lv_indev.c ****         }
 953              		.loc 1 422 13 view .LVU300
 422:Middlewares/lvgl/src/core/lv_indev.c ****         }
 954              		.loc 1 422 16 is_stmt 0 view .LVU301
 955 00c0 201D     		adds	r0, r4, #4
 956 00c2 FFF7FEFF 		bl	indev_reset_check
 957              	.LVL75:
 422:Middlewares/lvgl/src/core/lv_indev.c ****         }
 958              		.loc 1 422 15 view .LVU302
 959 00c6 0028     		cmp	r0, #0
 960 00c8 C5D0     		beq	.L60
 961 00ca C7E7     		b	.L54
 962              	.L79:
 426:Middlewares/lvgl/src/core/lv_indev.c ****             lv_group_focus_next(g);
 963              		.loc 1 426 13 is_stmt 1 view .LVU303
 964 00cc 0021     		movs	r1, #0
 965 00ce 3046     		mov	r0, r6
 966 00d0 FFF7FEFF 		bl	lv_group_set_editing
 967              	.LVL76:
 427:Middlewares/lvgl/src/core/lv_indev.c ****             if(indev_reset_check(&i->proc)) return;
 968              		.loc 1 427 13 view .LVU304
 969 00d4 3046     		mov	r0, r6
 970 00d6 FFF7FEFF 		bl	lv_group_focus_next
 971              	.LVL77:
 428:Middlewares/lvgl/src/core/lv_indev.c ****         }
 972              		.loc 1 428 13 view .LVU305
 428:Middlewares/lvgl/src/core/lv_indev.c ****         }
 973              		.loc 1 428 16 is_stmt 0 view .LVU306
 974 00da 201D     		adds	r0, r4, #4
ARM GAS  /tmp/ccjEXvZv.s 			page 42


 975 00dc FFF7FEFF 		bl	indev_reset_check
 976              	.LVL78:
 428:Middlewares/lvgl/src/core/lv_indev.c ****         }
 977              		.loc 1 428 15 view .LVU307
 978 00e0 0028     		cmp	r0, #0
 979 00e2 B8D0     		beq	.L60
 980 00e4 BAE7     		b	.L54
 981              	.L80:
 432:Middlewares/lvgl/src/core/lv_indev.c ****             lv_group_focus_prev(g);
 982              		.loc 1 432 13 is_stmt 1 view .LVU308
 983 00e6 0021     		movs	r1, #0
 984 00e8 3046     		mov	r0, r6
 985 00ea FFF7FEFF 		bl	lv_group_set_editing
 986              	.LVL79:
 433:Middlewares/lvgl/src/core/lv_indev.c ****             if(indev_reset_check(&i->proc)) return;
 987              		.loc 1 433 13 view .LVU309
 988 00ee 3046     		mov	r0, r6
 989 00f0 FFF7FEFF 		bl	lv_group_focus_prev
 990              	.LVL80:
 434:Middlewares/lvgl/src/core/lv_indev.c ****         }
 991              		.loc 1 434 13 view .LVU310
 434:Middlewares/lvgl/src/core/lv_indev.c ****         }
 992              		.loc 1 434 16 is_stmt 0 view .LVU311
 993 00f4 201D     		adds	r0, r4, #4
 994 00f6 FFF7FEFF 		bl	indev_reset_check
 995              	.LVL81:
 434:Middlewares/lvgl/src/core/lv_indev.c ****         }
 996              		.loc 1 434 15 view .LVU312
 997 00fa 0028     		cmp	r0, #0
 998 00fc ABD0     		beq	.L60
 999 00fe ADE7     		b	.L54
 1000              	.LVL82:
 1001              	.L75:
 442:Middlewares/lvgl/src/core/lv_indev.c **** 
 1002              		.loc 1 442 51 discriminator 1 view .LVU313
 1003 0100 012A     		cmp	r2, #1
 1004 0102 A4D1     		bne	.L64
 444:Middlewares/lvgl/src/core/lv_indev.c ****             lv_event_send(indev_obj_act, LV_EVENT_PRESSING, indev_act);
 1005              		.loc 1 444 9 is_stmt 1 view .LVU314
 444:Middlewares/lvgl/src/core/lv_indev.c ****             lv_event_send(indev_obj_act, LV_EVENT_PRESSING, indev_act);
 1006              		.loc 1 444 16 is_stmt 0 view .LVU315
 1007 0104 6B68     		ldr	r3, [r5, #4]
 444:Middlewares/lvgl/src/core/lv_indev.c ****             lv_event_send(indev_obj_act, LV_EVENT_PRESSING, indev_act);
 1008              		.loc 1 444 11 view .LVU316
 1009 0106 0A2B     		cmp	r3, #10
 1010 0108 21D0     		beq	.L81
 1011              	.LVL83:
 1012              	.L65:
 450:Middlewares/lvgl/src/core/lv_indev.c ****             i->proc.long_pr_sent = 1;
 1013              		.loc 1 450 9 is_stmt 1 view .LVU317
 450:Middlewares/lvgl/src/core/lv_indev.c ****             i->proc.long_pr_sent = 1;
 1014              		.loc 1 450 33 is_stmt 0 view .LVU318
 1015 010a 6379     		ldrb	r3, [r4, #5]	@ zero_extendqisi2
 450:Middlewares/lvgl/src/core/lv_indev.c ****             i->proc.long_pr_sent = 1;
 1016              		.loc 1 450 11 view .LVU319
 1017 010c 13F0010F 		tst	r3, #1
 1018 0110 28D0     		beq	.L82
ARM GAS  /tmp/ccjEXvZv.s 			page 43


 1019              	.L66:
 459:Middlewares/lvgl/src/core/lv_indev.c ****                 lv_tick_elaps(i->proc.longpr_rep_timestamp) > i->driver->long_press_repeat_time) {
 1020              		.loc 1 459 14 is_stmt 1 view .LVU320
 459:Middlewares/lvgl/src/core/lv_indev.c ****                 lv_tick_elaps(i->proc.longpr_rep_timestamp) > i->driver->long_press_repeat_time) {
 1021              		.loc 1 459 38 is_stmt 0 view .LVU321
 1022 0112 6379     		ldrb	r3, [r4, #5]	@ zero_extendqisi2
 459:Middlewares/lvgl/src/core/lv_indev.c ****                 lv_tick_elaps(i->proc.longpr_rep_timestamp) > i->driver->long_press_repeat_time) {
 1023              		.loc 1 459 16 view .LVU322
 1024 0114 13F0010F 		tst	r3, #1
 1025 0118 9DD0     		beq	.L60
 460:Middlewares/lvgl/src/core/lv_indev.c **** 
 1026              		.loc 1 460 17 discriminator 1 view .LVU323
 1027 011a A06C     		ldr	r0, [r4, #72]
 1028 011c FFF7FEFF 		bl	lv_tick_elaps
 1029              	.LVL84:
 460:Middlewares/lvgl/src/core/lv_indev.c **** 
 1030              		.loc 1 460 64 discriminator 1 view .LVU324
 1031 0120 2368     		ldr	r3, [r4]
 460:Middlewares/lvgl/src/core/lv_indev.c **** 
 1032              		.loc 1 460 72 discriminator 1 view .LVU325
 1033 0122 DB8B     		ldrh	r3, [r3, #30]
 459:Middlewares/lvgl/src/core/lv_indev.c ****                 lv_tick_elaps(i->proc.longpr_rep_timestamp) > i->driver->long_press_repeat_time) {
 1034              		.loc 1 459 43 discriminator 1 view .LVU326
 1035 0124 9842     		cmp	r0, r3
 1036 0126 96D9     		bls	.L60
 462:Middlewares/lvgl/src/core/lv_indev.c **** 
 1037              		.loc 1 462 13 is_stmt 1 view .LVU327
 462:Middlewares/lvgl/src/core/lv_indev.c **** 
 1038              		.loc 1 462 44 is_stmt 0 view .LVU328
 1039 0128 FFF7FEFF 		bl	lv_tick_get
 1040              	.LVL85:
 462:Middlewares/lvgl/src/core/lv_indev.c **** 
 1041              		.loc 1 462 42 view .LVU329
 1042 012c A064     		str	r0, [r4, #72]
 465:Middlewares/lvgl/src/core/lv_indev.c ****                 lv_event_send(indev_obj_act, LV_EVENT_LONG_PRESSED_REPEAT, indev_act);
 1043              		.loc 1 465 13 is_stmt 1 view .LVU330
 465:Middlewares/lvgl/src/core/lv_indev.c ****                 lv_event_send(indev_obj_act, LV_EVENT_LONG_PRESSED_REPEAT, indev_act);
 1044              		.loc 1 465 20 is_stmt 0 view .LVU331
 1045 012e 6968     		ldr	r1, [r5, #4]
 465:Middlewares/lvgl/src/core/lv_indev.c ****                 lv_event_send(indev_obj_act, LV_EVENT_LONG_PRESSED_REPEAT, indev_act);
 1046              		.loc 1 465 15 view .LVU332
 1047 0130 0A29     		cmp	r1, #10
 1048 0132 37D0     		beq	.L83
 470:Middlewares/lvgl/src/core/lv_indev.c ****                 lv_group_set_editing(g, false); /*Editing is not used by KEYPAD is be sure it is di
 1049              		.loc 1 470 18 is_stmt 1 view .LVU333
 470:Middlewares/lvgl/src/core/lv_indev.c ****                 lv_group_set_editing(g, false); /*Editing is not used by KEYPAD is be sure it is di
 1050              		.loc 1 470 20 is_stmt 0 view .LVU334
 1051 0134 0929     		cmp	r1, #9
 1052 0136 43D0     		beq	.L84
 476:Middlewares/lvgl/src/core/lv_indev.c ****                 lv_group_set_editing(g, false); /*Editing is not used by KEYPAD is be sure it is di
 1053              		.loc 1 476 18 is_stmt 1 view .LVU335
 476:Middlewares/lvgl/src/core/lv_indev.c ****                 lv_group_set_editing(g, false); /*Editing is not used by KEYPAD is be sure it is di
 1054              		.loc 1 476 20 is_stmt 0 view .LVU336
 1055 0138 0B29     		cmp	r1, #11
 1056 013a 4FD0     		beq	.L85
 483:Middlewares/lvgl/src/core/lv_indev.c ****                 if(indev_reset_check(&i->proc)) return;
 1057              		.loc 1 483 17 is_stmt 1 view .LVU337
ARM GAS  /tmp/ccjEXvZv.s 			page 44


 1058 013c 3046     		mov	r0, r6
 1059 013e FFF7FEFF 		bl	lv_group_send_data
 1060              	.LVL86:
 484:Middlewares/lvgl/src/core/lv_indev.c ****             }
 1061              		.loc 1 484 17 view .LVU338
 484:Middlewares/lvgl/src/core/lv_indev.c ****             }
 1062              		.loc 1 484 20 is_stmt 0 view .LVU339
 1063 0142 201D     		adds	r0, r4, #4
 1064 0144 FFF7FEFF 		bl	indev_reset_check
 1065              	.LVL87:
 484:Middlewares/lvgl/src/core/lv_indev.c ****             }
 1066              		.loc 1 484 19 view .LVU340
 1067 0148 0028     		cmp	r0, #0
 1068 014a 84D0     		beq	.L60
 1069 014c 86E7     		b	.L54
 1070              	.LVL88:
 1071              	.L81:
 445:Middlewares/lvgl/src/core/lv_indev.c ****             if(indev_reset_check(&i->proc)) return;
 1072              		.loc 1 445 13 is_stmt 1 view .LVU341
 1073 014e 454B     		ldr	r3, .L87+4
 1074 0150 1A68     		ldr	r2, [r3]
 1075              	.LVL89:
 445:Middlewares/lvgl/src/core/lv_indev.c ****             if(indev_reset_check(&i->proc)) return;
 1076              		.loc 1 445 13 is_stmt 0 view .LVU342
 1077 0152 0221     		movs	r1, #2
 1078              	.LVL90:
 445:Middlewares/lvgl/src/core/lv_indev.c ****             if(indev_reset_check(&i->proc)) return;
 1079              		.loc 1 445 13 view .LVU343
 1080 0154 FFF7FEFF 		bl	lv_event_send
 1081              	.LVL91:
 446:Middlewares/lvgl/src/core/lv_indev.c ****         }
 1082              		.loc 1 446 13 is_stmt 1 view .LVU344
 446:Middlewares/lvgl/src/core/lv_indev.c ****         }
 1083              		.loc 1 446 16 is_stmt 0 view .LVU345
 1084 0158 201D     		adds	r0, r4, #4
 1085 015a FFF7FEFF 		bl	indev_reset_check
 1086              	.LVL92:
 446:Middlewares/lvgl/src/core/lv_indev.c ****         }
 1087              		.loc 1 446 15 view .LVU346
 1088 015e 0028     		cmp	r0, #0
 1089 0160 D3D0     		beq	.L65
 1090 0162 7BE7     		b	.L54
 1091              	.L82:
 450:Middlewares/lvgl/src/core/lv_indev.c ****             i->proc.long_pr_sent = 1;
 1092              		.loc 1 450 41 discriminator 1 view .LVU347
 1093 0164 606C     		ldr	r0, [r4, #68]
 1094 0166 FFF7FEFF 		bl	lv_tick_elaps
 1095              	.LVL93:
 450:Middlewares/lvgl/src/core/lv_indev.c ****             i->proc.long_pr_sent = 1;
 1096              		.loc 1 450 80 discriminator 1 view .LVU348
 1097 016a 2368     		ldr	r3, [r4]
 450:Middlewares/lvgl/src/core/lv_indev.c ****             i->proc.long_pr_sent = 1;
 1098              		.loc 1 450 88 discriminator 1 view .LVU349
 1099 016c 9B8B     		ldrh	r3, [r3, #28]
 450:Middlewares/lvgl/src/core/lv_indev.c ****             i->proc.long_pr_sent = 1;
 1100              		.loc 1 450 38 discriminator 1 view .LVU350
 1101 016e 9842     		cmp	r0, r3
ARM GAS  /tmp/ccjEXvZv.s 			page 45


 1102 0170 CFD9     		bls	.L66
 451:Middlewares/lvgl/src/core/lv_indev.c ****             if(data->key == LV_KEY_ENTER) {
 1103              		.loc 1 451 13 is_stmt 1 view .LVU351
 451:Middlewares/lvgl/src/core/lv_indev.c ****             if(data->key == LV_KEY_ENTER) {
 1104              		.loc 1 451 34 is_stmt 0 view .LVU352
 1105 0172 6379     		ldrb	r3, [r4, #5]	@ zero_extendqisi2
 1106 0174 43F00103 		orr	r3, r3, #1
 1107 0178 6371     		strb	r3, [r4, #5]
 452:Middlewares/lvgl/src/core/lv_indev.c ****                 i->proc.longpr_rep_timestamp = lv_tick_get();
 1108              		.loc 1 452 13 is_stmt 1 view .LVU353
 452:Middlewares/lvgl/src/core/lv_indev.c ****                 i->proc.longpr_rep_timestamp = lv_tick_get();
 1109              		.loc 1 452 20 is_stmt 0 view .LVU354
 1110 017a 6B68     		ldr	r3, [r5, #4]
 452:Middlewares/lvgl/src/core/lv_indev.c ****                 i->proc.longpr_rep_timestamp = lv_tick_get();
 1111              		.loc 1 452 15 view .LVU355
 1112 017c 0A2B     		cmp	r3, #10
 1113 017e 7FF46AAF 		bne	.L60
 453:Middlewares/lvgl/src/core/lv_indev.c ****                 lv_event_send(indev_obj_act, LV_EVENT_LONG_PRESSED, indev_act);
 1114              		.loc 1 453 17 is_stmt 1 view .LVU356
 453:Middlewares/lvgl/src/core/lv_indev.c ****                 lv_event_send(indev_obj_act, LV_EVENT_LONG_PRESSED, indev_act);
 1115              		.loc 1 453 48 is_stmt 0 view .LVU357
 1116 0182 FFF7FEFF 		bl	lv_tick_get
 1117              	.LVL94:
 453:Middlewares/lvgl/src/core/lv_indev.c ****                 lv_event_send(indev_obj_act, LV_EVENT_LONG_PRESSED, indev_act);
 1118              		.loc 1 453 46 view .LVU358
 1119 0186 A064     		str	r0, [r4, #72]
 454:Middlewares/lvgl/src/core/lv_indev.c ****                 if(indev_reset_check(&i->proc)) return;
 1120              		.loc 1 454 17 is_stmt 1 view .LVU359
 1121 0188 364B     		ldr	r3, .L87+4
 1122 018a 1A68     		ldr	r2, [r3]
 1123 018c 0521     		movs	r1, #5
 1124 018e 344B     		ldr	r3, .L87
 1125 0190 1868     		ldr	r0, [r3]
 1126 0192 FFF7FEFF 		bl	lv_event_send
 1127              	.LVL95:
 455:Middlewares/lvgl/src/core/lv_indev.c ****             }
 1128              		.loc 1 455 17 view .LVU360
 455:Middlewares/lvgl/src/core/lv_indev.c ****             }
 1129              		.loc 1 455 20 is_stmt 0 view .LVU361
 1130 0196 201D     		adds	r0, r4, #4
 1131 0198 FFF7FEFF 		bl	indev_reset_check
 1132              	.LVL96:
 455:Middlewares/lvgl/src/core/lv_indev.c ****             }
 1133              		.loc 1 455 19 view .LVU362
 1134 019c 0028     		cmp	r0, #0
 1135 019e 3FF45AAF 		beq	.L60
 1136 01a2 5BE7     		b	.L54
 1137              	.L83:
 466:Middlewares/lvgl/src/core/lv_indev.c ****                 if(indev_reset_check(&i->proc)) return;
 1138              		.loc 1 466 17 is_stmt 1 view .LVU363
 1139 01a4 2F4B     		ldr	r3, .L87+4
 1140 01a6 1A68     		ldr	r2, [r3]
 1141 01a8 0621     		movs	r1, #6
 1142 01aa 2D4B     		ldr	r3, .L87
 1143 01ac 1868     		ldr	r0, [r3]
 1144 01ae FFF7FEFF 		bl	lv_event_send
 1145              	.LVL97:
ARM GAS  /tmp/ccjEXvZv.s 			page 46


 467:Middlewares/lvgl/src/core/lv_indev.c ****             }
 1146              		.loc 1 467 17 view .LVU364
 467:Middlewares/lvgl/src/core/lv_indev.c ****             }
 1147              		.loc 1 467 20 is_stmt 0 view .LVU365
 1148 01b2 201D     		adds	r0, r4, #4
 1149 01b4 FFF7FEFF 		bl	indev_reset_check
 1150              	.LVL98:
 467:Middlewares/lvgl/src/core/lv_indev.c ****             }
 1151              		.loc 1 467 19 view .LVU366
 1152 01b8 0028     		cmp	r0, #0
 1153 01ba 3FF44CAF 		beq	.L60
 1154 01be 4DE7     		b	.L54
 1155              	.L84:
 471:Middlewares/lvgl/src/core/lv_indev.c ****                 lv_group_focus_next(g);
 1156              		.loc 1 471 17 is_stmt 1 view .LVU367
 1157 01c0 0021     		movs	r1, #0
 1158 01c2 3046     		mov	r0, r6
 1159 01c4 FFF7FEFF 		bl	lv_group_set_editing
 1160              	.LVL99:
 472:Middlewares/lvgl/src/core/lv_indev.c ****                 if(indev_reset_check(&i->proc)) return;
 1161              		.loc 1 472 17 view .LVU368
 1162 01c8 3046     		mov	r0, r6
 1163 01ca FFF7FEFF 		bl	lv_group_focus_next
 1164              	.LVL100:
 473:Middlewares/lvgl/src/core/lv_indev.c ****             }
 1165              		.loc 1 473 17 view .LVU369
 473:Middlewares/lvgl/src/core/lv_indev.c ****             }
 1166              		.loc 1 473 20 is_stmt 0 view .LVU370
 1167 01ce 201D     		adds	r0, r4, #4
 1168 01d0 FFF7FEFF 		bl	indev_reset_check
 1169              	.LVL101:
 473:Middlewares/lvgl/src/core/lv_indev.c ****             }
 1170              		.loc 1 473 19 view .LVU371
 1171 01d4 0028     		cmp	r0, #0
 1172 01d6 3FF43EAF 		beq	.L60
 1173 01da 3FE7     		b	.L54
 1174              	.L85:
 477:Middlewares/lvgl/src/core/lv_indev.c ****                 lv_group_focus_prev(g);
 1175              		.loc 1 477 17 is_stmt 1 view .LVU372
 1176 01dc 0021     		movs	r1, #0
 1177 01de 3046     		mov	r0, r6
 1178 01e0 FFF7FEFF 		bl	lv_group_set_editing
 1179              	.LVL102:
 478:Middlewares/lvgl/src/core/lv_indev.c ****                 if(indev_reset_check(&i->proc)) return;
 1180              		.loc 1 478 17 view .LVU373
 1181 01e4 3046     		mov	r0, r6
 1182 01e6 FFF7FEFF 		bl	lv_group_focus_prev
 1183              	.LVL103:
 479:Middlewares/lvgl/src/core/lv_indev.c ****             }
 1184              		.loc 1 479 17 view .LVU374
 479:Middlewares/lvgl/src/core/lv_indev.c ****             }
 1185              		.loc 1 479 20 is_stmt 0 view .LVU375
 1186 01ea 201D     		adds	r0, r4, #4
 1187 01ec FFF7FEFF 		bl	indev_reset_check
 1188              	.LVL104:
 479:Middlewares/lvgl/src/core/lv_indev.c ****             }
 1189              		.loc 1 479 19 view .LVU376
ARM GAS  /tmp/ccjEXvZv.s 			page 47


 1190 01f0 0028     		cmp	r0, #0
 1191 01f2 3FF430AF 		beq	.L60
 1192 01f6 31E7     		b	.L54
 1193              	.LVL105:
 1194              	.L76:
 490:Middlewares/lvgl/src/core/lv_indev.c ****         /*The user might clear the key when it was released. Always release the pressed key*/
 1195              		.loc 1 490 53 is_stmt 1 view .LVU377
 492:Middlewares/lvgl/src/core/lv_indev.c ****         if(data->key == LV_KEY_ENTER) {
 1196              		.loc 1 492 9 view .LVU378
 492:Middlewares/lvgl/src/core/lv_indev.c ****         if(data->key == LV_KEY_ENTER) {
 1197              		.loc 1 492 19 is_stmt 0 view .LVU379
 1198 01f8 6960     		str	r1, [r5, #4]
 493:Middlewares/lvgl/src/core/lv_indev.c **** 
 1199              		.loc 1 493 9 is_stmt 1 view .LVU380
 493:Middlewares/lvgl/src/core/lv_indev.c **** 
 1200              		.loc 1 493 11 is_stmt 0 view .LVU381
 1201 01fa 0A29     		cmp	r1, #10
 1202 01fc 06D0     		beq	.L86
 1203              	.LVL106:
 1204              	.L70:
 507:Middlewares/lvgl/src/core/lv_indev.c ****         i->proc.long_pr_sent = 0;
 1205              		.loc 1 507 9 is_stmt 1 view .LVU382
 507:Middlewares/lvgl/src/core/lv_indev.c ****         i->proc.long_pr_sent = 0;
 1206              		.loc 1 507 30 is_stmt 0 view .LVU383
 1207 01fe 0022     		movs	r2, #0
 1208 0200 6264     		str	r2, [r4, #68]
 508:Middlewares/lvgl/src/core/lv_indev.c ****     }
 1209              		.loc 1 508 9 is_stmt 1 view .LVU384
 508:Middlewares/lvgl/src/core/lv_indev.c ****     }
 1210              		.loc 1 508 30 is_stmt 0 view .LVU385
 1211 0202 6379     		ldrb	r3, [r4, #5]	@ zero_extendqisi2
 1212 0204 62F30003 		bfi	r3, r2, #0, #1
 1213 0208 6371     		strb	r3, [r4, #5]
 1214 020a 24E7     		b	.L60
 1215              	.LVL107:
 1216              	.L86:
 495:Middlewares/lvgl/src/core/lv_indev.c ****             if(indev_reset_check(&i->proc)) return;
 1217              		.loc 1 495 13 is_stmt 1 view .LVU386
 1218 020c 154B     		ldr	r3, .L87+4
 1219 020e 1A68     		ldr	r2, [r3]
 1220              	.LVL108:
 495:Middlewares/lvgl/src/core/lv_indev.c ****             if(indev_reset_check(&i->proc)) return;
 1221              		.loc 1 495 13 is_stmt 0 view .LVU387
 1222 0210 0821     		movs	r1, #8
 1223              	.LVL109:
 495:Middlewares/lvgl/src/core/lv_indev.c ****             if(indev_reset_check(&i->proc)) return;
 1224              		.loc 1 495 13 view .LVU388
 1225 0212 FFF7FEFF 		bl	lv_event_send
 1226              	.LVL110:
 496:Middlewares/lvgl/src/core/lv_indev.c **** 
 1227              		.loc 1 496 13 is_stmt 1 view .LVU389
 496:Middlewares/lvgl/src/core/lv_indev.c **** 
 1228              		.loc 1 496 16 is_stmt 0 view .LVU390
 1229 0216 251D     		adds	r5, r4, #4
 1230              	.LVL111:
 496:Middlewares/lvgl/src/core/lv_indev.c **** 
 1231              		.loc 1 496 16 view .LVU391
ARM GAS  /tmp/ccjEXvZv.s 			page 48


 1232 0218 2846     		mov	r0, r5
 1233 021a FFF7FEFF 		bl	indev_reset_check
 1234              	.LVL112:
 496:Middlewares/lvgl/src/core/lv_indev.c **** 
 1235              		.loc 1 496 15 view .LVU392
 1236 021e 0028     		cmp	r0, #0
 1237 0220 7FF41CAF 		bne	.L54
 498:Middlewares/lvgl/src/core/lv_indev.c ****                 lv_event_send(indev_obj_act, LV_EVENT_SHORT_CLICKED, indev_act);
 1238              		.loc 1 498 13 is_stmt 1 view .LVU393
 498:Middlewares/lvgl/src/core/lv_indev.c ****                 lv_event_send(indev_obj_act, LV_EVENT_SHORT_CLICKED, indev_act);
 1239              		.loc 1 498 37 is_stmt 0 view .LVU394
 1240 0224 6379     		ldrb	r3, [r4, #5]	@ zero_extendqisi2
 498:Middlewares/lvgl/src/core/lv_indev.c ****                 lv_event_send(indev_obj_act, LV_EVENT_SHORT_CLICKED, indev_act);
 1241              		.loc 1 498 15 view .LVU395
 1242 0226 13F0010F 		tst	r3, #1
 1243 022a 0CD1     		bne	.L71
 499:Middlewares/lvgl/src/core/lv_indev.c ****                 if(indev_reset_check(&i->proc)) return;
 1244              		.loc 1 499 17 is_stmt 1 view .LVU396
 1245 022c 0D4B     		ldr	r3, .L87+4
 1246 022e 1A68     		ldr	r2, [r3]
 1247 0230 0421     		movs	r1, #4
 1248 0232 0B4B     		ldr	r3, .L87
 1249 0234 1868     		ldr	r0, [r3]
 1250 0236 FFF7FEFF 		bl	lv_event_send
 1251              	.LVL113:
 500:Middlewares/lvgl/src/core/lv_indev.c ****             }
 1252              		.loc 1 500 17 view .LVU397
 500:Middlewares/lvgl/src/core/lv_indev.c ****             }
 1253              		.loc 1 500 20 is_stmt 0 view .LVU398
 1254 023a 2846     		mov	r0, r5
 1255 023c FFF7FEFF 		bl	indev_reset_check
 1256              	.LVL114:
 500:Middlewares/lvgl/src/core/lv_indev.c ****             }
 1257              		.loc 1 500 19 view .LVU399
 1258 0240 0028     		cmp	r0, #0
 1259 0242 7FF40BAF 		bne	.L54
 1260              	.L71:
 503:Middlewares/lvgl/src/core/lv_indev.c ****             if(indev_reset_check(&i->proc)) return;
 1261              		.loc 1 503 13 is_stmt 1 view .LVU400
 1262 0246 074B     		ldr	r3, .L87+4
 1263 0248 1A68     		ldr	r2, [r3]
 1264 024a 0721     		movs	r1, #7
 1265 024c 044B     		ldr	r3, .L87
 1266 024e 1868     		ldr	r0, [r3]
 1267 0250 FFF7FEFF 		bl	lv_event_send
 1268              	.LVL115:
 504:Middlewares/lvgl/src/core/lv_indev.c **** 
 1269              		.loc 1 504 13 view .LVU401
 504:Middlewares/lvgl/src/core/lv_indev.c **** 
 1270              		.loc 1 504 16 is_stmt 0 view .LVU402
 1271 0254 2846     		mov	r0, r5
 1272 0256 FFF7FEFF 		bl	indev_reset_check
 1273              	.LVL116:
 504:Middlewares/lvgl/src/core/lv_indev.c **** 
 1274              		.loc 1 504 15 view .LVU403
 1275 025a 0028     		cmp	r0, #0
 1276 025c CFD0     		beq	.L70
ARM GAS  /tmp/ccjEXvZv.s 			page 49


 1277 025e FDE6     		b	.L54
 1278              	.L88:
 1279              		.align	2
 1280              	.L87:
 1281 0260 00000000 		.word	.LANCHOR0
 1282 0264 00000000 		.word	.LANCHOR1
 1283              		.cfi_endproc
 1284              	.LFE173:
 1286              		.section	.text.indev_encoder_proc,"ax",%progbits
 1287              		.align	1
 1288              		.syntax unified
 1289              		.thumb
 1290              		.thumb_func
 1291              		.fpu fpv4-sp-d16
 1293              	indev_encoder_proc:
 1294              	.LVL117:
 1295              	.LFB174:
 519:Middlewares/lvgl/src/core/lv_indev.c ****     if(data->state == LV_INDEV_STATE_PRESSED && i->proc.wait_until_release) return;
 1296              		.loc 1 519 1 is_stmt 1 view -0
 1297              		.cfi_startproc
 1298              		@ args = 0, pretend = 0, frame = 0
 1299              		@ frame_needed = 0, uses_anonymous_args = 0
 519:Middlewares/lvgl/src/core/lv_indev.c ****     if(data->state == LV_INDEV_STATE_PRESSED && i->proc.wait_until_release) return;
 1300              		.loc 1 519 1 is_stmt 0 view .LVU405
 1301 0000 F8B5     		push	{r3, r4, r5, r6, r7, lr}
 1302              	.LCFI4:
 1303              		.cfi_def_cfa_offset 24
 1304              		.cfi_offset 3, -24
 1305              		.cfi_offset 4, -20
 1306              		.cfi_offset 5, -16
 1307              		.cfi_offset 6, -12
 1308              		.cfi_offset 7, -8
 1309              		.cfi_offset 14, -4
 1310 0002 0446     		mov	r4, r0
 1311 0004 0D46     		mov	r5, r1
 520:Middlewares/lvgl/src/core/lv_indev.c **** 
 1312              		.loc 1 520 5 is_stmt 1 view .LVU406
 520:Middlewares/lvgl/src/core/lv_indev.c **** 
 1313              		.loc 1 520 12 is_stmt 0 view .LVU407
 1314 0006 8B7B     		ldrb	r3, [r1, #14]	@ zero_extendqisi2
 520:Middlewares/lvgl/src/core/lv_indev.c **** 
 1315              		.loc 1 520 7 view .LVU408
 1316 0008 012B     		cmp	r3, #1
 1317 000a 37D0     		beq	.L132
 1318              	.L90:
 522:Middlewares/lvgl/src/core/lv_indev.c ****         i->proc.wait_until_release      = 0;
 1319              		.loc 1 522 5 is_stmt 1 view .LVU409
 522:Middlewares/lvgl/src/core/lv_indev.c ****         i->proc.wait_until_release      = 0;
 1320              		.loc 1 522 8 is_stmt 0 view .LVU410
 1321 000c 6379     		ldrb	r3, [r4, #5]	@ zero_extendqisi2
 522:Middlewares/lvgl/src/core/lv_indev.c ****         i->proc.wait_until_release      = 0;
 1322              		.loc 1 522 7 view .LVU411
 1323 000e 13F0080F 		tst	r3, #8
 1324 0012 0AD0     		beq	.L92
 523:Middlewares/lvgl/src/core/lv_indev.c ****         i->proc.pr_timestamp            = 0;
 1325              		.loc 1 523 9 is_stmt 1 view .LVU412
 523:Middlewares/lvgl/src/core/lv_indev.c ****         i->proc.pr_timestamp            = 0;
ARM GAS  /tmp/ccjEXvZv.s 			page 50


 1326              		.loc 1 523 41 is_stmt 0 view .LVU413
 1327 0014 6379     		ldrb	r3, [r4, #5]	@ zero_extendqisi2
 1328 0016 6FF3C303 		bfc	r3, #3, #1
 1329 001a 6371     		strb	r3, [r4, #5]
 524:Middlewares/lvgl/src/core/lv_indev.c ****         i->proc.long_pr_sent            = 0;
 1330              		.loc 1 524 9 is_stmt 1 view .LVU414
 524:Middlewares/lvgl/src/core/lv_indev.c ****         i->proc.long_pr_sent            = 0;
 1331              		.loc 1 524 41 is_stmt 0 view .LVU415
 1332 001c 0023     		movs	r3, #0
 1333 001e 6364     		str	r3, [r4, #68]
 525:Middlewares/lvgl/src/core/lv_indev.c ****         i->proc.types.keypad.last_state = LV_INDEV_STATE_RELEASED; /*To skip the processing of rele
 1334              		.loc 1 525 9 is_stmt 1 view .LVU416
 525:Middlewares/lvgl/src/core/lv_indev.c ****         i->proc.types.keypad.last_state = LV_INDEV_STATE_RELEASED; /*To skip the processing of rele
 1335              		.loc 1 525 41 is_stmt 0 view .LVU417
 1336 0020 6279     		ldrb	r2, [r4, #5]	@ zero_extendqisi2
 1337 0022 63F30002 		bfi	r2, r3, #0, #1
 1338 0026 6271     		strb	r2, [r4, #5]
 526:Middlewares/lvgl/src/core/lv_indev.c ****     }
 1339              		.loc 1 526 9 is_stmt 1 view .LVU418
 526:Middlewares/lvgl/src/core/lv_indev.c ****     }
 1340              		.loc 1 526 41 is_stmt 0 view .LVU419
 1341 0028 2372     		strb	r3, [r4, #8]
 1342              	.L92:
 531:Middlewares/lvgl/src/core/lv_indev.c ****     i->proc.types.keypad.last_state = data->state;
 1343              		.loc 1 531 5 is_stmt 1 view .LVU420
 531:Middlewares/lvgl/src/core/lv_indev.c ****     i->proc.types.keypad.last_state = data->state;
 1344              		.loc 1 531 22 is_stmt 0 view .LVU421
 1345 002a 277A     		ldrb	r7, [r4, #8]	@ zero_extendqisi2
 1346              	.LVL118:
 532:Middlewares/lvgl/src/core/lv_indev.c ****     i->proc.types.keypad.last_key   = data->key;
 1347              		.loc 1 532 5 is_stmt 1 view .LVU422
 532:Middlewares/lvgl/src/core/lv_indev.c ****     i->proc.types.keypad.last_key   = data->key;
 1348              		.loc 1 532 43 is_stmt 0 view .LVU423
 1349 002c AB7B     		ldrb	r3, [r5, #14]	@ zero_extendqisi2
 532:Middlewares/lvgl/src/core/lv_indev.c ****     i->proc.types.keypad.last_key   = data->key;
 1350              		.loc 1 532 37 view .LVU424
 1351 002e 2372     		strb	r3, [r4, #8]
 533:Middlewares/lvgl/src/core/lv_indev.c **** 
 1352              		.loc 1 533 5 is_stmt 1 view .LVU425
 533:Middlewares/lvgl/src/core/lv_indev.c **** 
 1353              		.loc 1 533 43 is_stmt 0 view .LVU426
 1354 0030 6B68     		ldr	r3, [r5, #4]
 533:Middlewares/lvgl/src/core/lv_indev.c **** 
 1355              		.loc 1 533 37 view .LVU427
 1356 0032 E360     		str	r3, [r4, #12]
 535:Middlewares/lvgl/src/core/lv_indev.c ****     if(g == NULL) return;
 1357              		.loc 1 535 5 is_stmt 1 view .LVU428
 535:Middlewares/lvgl/src/core/lv_indev.c ****     if(g == NULL) return;
 1358              		.loc 1 535 18 is_stmt 0 view .LVU429
 1359 0034 266D     		ldr	r6, [r4, #80]
 1360              	.LVL119:
 536:Middlewares/lvgl/src/core/lv_indev.c **** 
 1361              		.loc 1 536 5 is_stmt 1 view .LVU430
 536:Middlewares/lvgl/src/core/lv_indev.c **** 
 1362              		.loc 1 536 7 is_stmt 0 view .LVU431
 1363 0036 06B3     		cbz	r6, .L89
 538:Middlewares/lvgl/src/core/lv_indev.c ****     if(indev_obj_act == NULL) return;
ARM GAS  /tmp/ccjEXvZv.s 			page 51


 1364              		.loc 1 538 5 is_stmt 1 view .LVU432
 538:Middlewares/lvgl/src/core/lv_indev.c ****     if(indev_obj_act == NULL) return;
 1365              		.loc 1 538 21 is_stmt 0 view .LVU433
 1366 0038 3046     		mov	r0, r6
 1367              	.LVL120:
 538:Middlewares/lvgl/src/core/lv_indev.c ****     if(indev_obj_act == NULL) return;
 1368              		.loc 1 538 21 view .LVU434
 1369 003a FFF7FEFF 		bl	lv_group_get_focused
 1370              	.LVL121:
 538:Middlewares/lvgl/src/core/lv_indev.c ****     if(indev_obj_act == NULL) return;
 1371              		.loc 1 538 19 view .LVU435
 1372 003e 8E4B     		ldr	r3, .L149
 1373 0040 1860     		str	r0, [r3]
 539:Middlewares/lvgl/src/core/lv_indev.c **** 
 1374              		.loc 1 539 5 is_stmt 1 view .LVU436
 539:Middlewares/lvgl/src/core/lv_indev.c **** 
 1375              		.loc 1 539 7 is_stmt 0 view .LVU437
 1376 0042 D0B1     		cbz	r0, .L89
 542:Middlewares/lvgl/src/core/lv_indev.c ****         data->enc_diff = 0;
 1377              		.loc 1 542 5 is_stmt 1 view .LVU438
 542:Middlewares/lvgl/src/core/lv_indev.c ****         data->enc_diff = 0;
 1378              		.loc 1 542 12 is_stmt 0 view .LVU439
 1379 0044 AB7B     		ldrb	r3, [r5, #14]	@ zero_extendqisi2
 542:Middlewares/lvgl/src/core/lv_indev.c ****         data->enc_diff = 0;
 1380              		.loc 1 542 7 view .LVU440
 1381 0046 0BB1     		cbz	r3, .L93
 543:Middlewares/lvgl/src/core/lv_indev.c ****     }
 1382              		.loc 1 543 9 is_stmt 1 view .LVU441
 543:Middlewares/lvgl/src/core/lv_indev.c ****     }
 1383              		.loc 1 543 24 is_stmt 0 view .LVU442
 1384 0048 0023     		movs	r3, #0
 1385 004a AB81     		strh	r3, [r5, #12]	@ movhi
 1386              	.L93:
 547:Middlewares/lvgl/src/core/lv_indev.c ****     if(indev_obj_act == NULL) return;
 1387              		.loc 1 547 5 is_stmt 1 view .LVU443
 547:Middlewares/lvgl/src/core/lv_indev.c ****     if(indev_obj_act == NULL) return;
 1388              		.loc 1 547 21 is_stmt 0 view .LVU444
 1389 004c 3046     		mov	r0, r6
 1390 004e FFF7FEFF 		bl	lv_group_get_focused
 1391              	.LVL122:
 547:Middlewares/lvgl/src/core/lv_indev.c ****     if(indev_obj_act == NULL) return;
 1392              		.loc 1 547 19 view .LVU445
 1393 0052 894B     		ldr	r3, .L149
 1394 0054 1860     		str	r0, [r3]
 548:Middlewares/lvgl/src/core/lv_indev.c **** 
 1395              		.loc 1 548 5 is_stmt 1 view .LVU446
 548:Middlewares/lvgl/src/core/lv_indev.c **** 
 1396              		.loc 1 548 7 is_stmt 0 view .LVU447
 1397 0056 80B1     		cbz	r0, .L89
 551:Middlewares/lvgl/src/core/lv_indev.c ****         LV_LOG_INFO("pressed");
 1398              		.loc 1 551 5 is_stmt 1 view .LVU448
 551:Middlewares/lvgl/src/core/lv_indev.c ****         LV_LOG_INFO("pressed");
 1399              		.loc 1 551 12 is_stmt 0 view .LVU449
 1400 0058 AB7B     		ldrb	r3, [r5, #14]	@ zero_extendqisi2
 551:Middlewares/lvgl/src/core/lv_indev.c ****         LV_LOG_INFO("pressed");
 1401              		.loc 1 551 7 view .LVU450
 1402 005a 012B     		cmp	r3, #1
ARM GAS  /tmp/ccjEXvZv.s 			page 52


 1403 005c 13D0     		beq	.L133
 1404              	.L94:
 585:Middlewares/lvgl/src/core/lv_indev.c ****         /*Long press*/
 1405              		.loc 1 585 10 is_stmt 1 view .LVU451
 585:Middlewares/lvgl/src/core/lv_indev.c ****         /*Long press*/
 1406              		.loc 1 585 12 is_stmt 0 view .LVU452
 1407 005e 012B     		cmp	r3, #1
 1408 0060 55D0     		beq	.L134
 1409              	.L101:
 638:Middlewares/lvgl/src/core/lv_indev.c ****         LV_LOG_INFO("released");
 1410              		.loc 1 638 10 is_stmt 1 view .LVU453
 638:Middlewares/lvgl/src/core/lv_indev.c ****         LV_LOG_INFO("released");
 1411              		.loc 1 638 12 is_stmt 0 view .LVU454
 1412 0062 13B9     		cbnz	r3, .L97
 638:Middlewares/lvgl/src/core/lv_indev.c ****         LV_LOG_INFO("released");
 1413              		.loc 1 638 52 discriminator 1 view .LVU455
 1414 0064 012F     		cmp	r7, #1
 1415 0066 00F0CB80 		beq	.L135
 1416              	.LVL123:
 1417              	.L97:
 685:Middlewares/lvgl/src/core/lv_indev.c **** 
 1418              		.loc 1 685 5 is_stmt 1 view .LVU456
 685:Middlewares/lvgl/src/core/lv_indev.c **** 
 1419              		.loc 1 685 19 is_stmt 0 view .LVU457
 1420 006a 834B     		ldr	r3, .L149
 1421 006c 0022     		movs	r2, #0
 1422 006e 1A60     		str	r2, [r3]
 688:Middlewares/lvgl/src/core/lv_indev.c ****         LV_LOG_INFO("rotated by %d", data->enc_diff);
 1423              		.loc 1 688 5 is_stmt 1 view .LVU458
 688:Middlewares/lvgl/src/core/lv_indev.c ****         LV_LOG_INFO("rotated by %d", data->enc_diff);
 1424              		.loc 1 688 12 is_stmt 0 view .LVU459
 1425 0070 B5F90C30 		ldrsh	r3, [r5, #12]
 688:Middlewares/lvgl/src/core/lv_indev.c ****         LV_LOG_INFO("rotated by %d", data->enc_diff);
 1426              		.loc 1 688 7 view .LVU460
 1427 0074 002B     		cmp	r3, #0
 1428 0076 40F05481 		bne	.L136
 1429              	.LVL124:
 1430              	.L89:
 711:Middlewares/lvgl/src/core/lv_indev.c **** 
 1431              		.loc 1 711 1 view .LVU461
 1432 007a F8BD     		pop	{r3, r4, r5, r6, r7, pc}
 1433              	.LVL125:
 1434              	.L132:
 520:Middlewares/lvgl/src/core/lv_indev.c **** 
 1435              		.loc 1 520 46 discriminator 1 view .LVU462
 1436 007c 4379     		ldrb	r3, [r0, #5]	@ zero_extendqisi2
 1437 007e 13F0080F 		tst	r3, #8
 1438 0082 C3D0     		beq	.L90
 1439 0084 F9E7     		b	.L89
 1440              	.LVL126:
 1441              	.L133:
 551:Middlewares/lvgl/src/core/lv_indev.c ****         LV_LOG_INFO("pressed");
 1442              		.loc 1 551 46 discriminator 1 view .LVU463
 1443 0086 002F     		cmp	r7, #0
 1444 0088 E9D1     		bne	.L94
 552:Middlewares/lvgl/src/core/lv_indev.c **** 
 1445              		.loc 1 552 31 is_stmt 1 view .LVU464
ARM GAS  /tmp/ccjEXvZv.s 			page 53


 554:Middlewares/lvgl/src/core/lv_indev.c **** 
 1446              		.loc 1 554 9 view .LVU465
 554:Middlewares/lvgl/src/core/lv_indev.c **** 
 1447              		.loc 1 554 32 is_stmt 0 view .LVU466
 1448 008a FFF7FEFF 		bl	lv_tick_get
 1449              	.LVL127:
 554:Middlewares/lvgl/src/core/lv_indev.c **** 
 1450              		.loc 1 554 30 view .LVU467
 1451 008e 6064     		str	r0, [r4, #68]
 556:Middlewares/lvgl/src/core/lv_indev.c ****             bool editable = lv_obj_is_editable(indev_obj_act);
 1452              		.loc 1 556 9 is_stmt 1 view .LVU468
 556:Middlewares/lvgl/src/core/lv_indev.c ****             bool editable = lv_obj_is_editable(indev_obj_act);
 1453              		.loc 1 556 16 is_stmt 0 view .LVU469
 1454 0090 6968     		ldr	r1, [r5, #4]
 556:Middlewares/lvgl/src/core/lv_indev.c ****             bool editable = lv_obj_is_editable(indev_obj_act);
 1455              		.loc 1 556 11 view .LVU470
 1456 0092 0A29     		cmp	r1, #10
 1457 0094 09D0     		beq	.L137
 564:Middlewares/lvgl/src/core/lv_indev.c ****             /*emulate encoder left*/
 1458              		.loc 1 564 14 is_stmt 1 view .LVU471
 564:Middlewares/lvgl/src/core/lv_indev.c ****             /*emulate encoder left*/
 1459              		.loc 1 564 16 is_stmt 0 view .LVU472
 1460 0096 1429     		cmp	r1, #20
 1461 0098 1FD0     		beq	.L138
 568:Middlewares/lvgl/src/core/lv_indev.c ****             /*emulate encoder right*/
 1462              		.loc 1 568 14 is_stmt 1 view .LVU473
 568:Middlewares/lvgl/src/core/lv_indev.c ****             /*emulate encoder right*/
 1463              		.loc 1 568 16 is_stmt 0 view .LVU474
 1464 009a 1329     		cmp	r1, #19
 1465 009c 22D0     		beq	.L139
 572:Middlewares/lvgl/src/core/lv_indev.c ****             /*Send the ESC as a normal KEY*/
 1466              		.loc 1 572 14 is_stmt 1 view .LVU475
 572:Middlewares/lvgl/src/core/lv_indev.c ****             /*Send the ESC as a normal KEY*/
 1467              		.loc 1 572 16 is_stmt 0 view .LVU476
 1468 009e 1B29     		cmp	r1, #27
 1469 00a0 25D0     		beq	.L140
 581:Middlewares/lvgl/src/core/lv_indev.c ****         }
 1470              		.loc 1 581 13 is_stmt 1 view .LVU477
 1471 00a2 3046     		mov	r0, r6
 1472 00a4 FFF7FEFF 		bl	lv_group_send_data
 1473              	.LVL128:
 1474 00a8 DFE7     		b	.L97
 1475              	.L137:
 1476              	.LBB4:
 557:Middlewares/lvgl/src/core/lv_indev.c **** 
 1477              		.loc 1 557 13 view .LVU478
 557:Middlewares/lvgl/src/core/lv_indev.c **** 
 1478              		.loc 1 557 29 is_stmt 0 view .LVU479
 1479 00aa 734B     		ldr	r3, .L149
 1480 00ac 1868     		ldr	r0, [r3]
 1481 00ae FFF7FEFF 		bl	lv_obj_is_editable
 1482              	.LVL129:
 1483 00b2 0746     		mov	r7, r0
 1484              	.LVL130:
 559:Middlewares/lvgl/src/core/lv_indev.c ****                 lv_event_send(indev_obj_act, LV_EVENT_PRESSED, indev_act);
 1485              		.loc 1 559 13 is_stmt 1 view .LVU480
 559:Middlewares/lvgl/src/core/lv_indev.c ****                 lv_event_send(indev_obj_act, LV_EVENT_PRESSED, indev_act);
ARM GAS  /tmp/ccjEXvZv.s 			page 54


 1486              		.loc 1 559 16 is_stmt 0 view .LVU481
 1487 00b4 3046     		mov	r0, r6
 1488 00b6 FFF7FEFF 		bl	lv_group_get_editing
 1489              	.LVL131:
 559:Middlewares/lvgl/src/core/lv_indev.c ****                 lv_event_send(indev_obj_act, LV_EVENT_PRESSED, indev_act);
 1490              		.loc 1 559 15 view .LVU482
 1491 00ba 08B9     		cbnz	r0, .L96
 559:Middlewares/lvgl/src/core/lv_indev.c ****                 lv_event_send(indev_obj_act, LV_EVENT_PRESSED, indev_act);
 1492              		.loc 1 559 48 discriminator 1 view .LVU483
 1493 00bc 002F     		cmp	r7, #0
 1494 00be D4D1     		bne	.L97
 1495              	.L96:
 560:Middlewares/lvgl/src/core/lv_indev.c ****                 if(indev_reset_check(&i->proc)) return;
 1496              		.loc 1 560 17 is_stmt 1 view .LVU484
 1497 00c0 6E4B     		ldr	r3, .L149+4
 1498 00c2 1A68     		ldr	r2, [r3]
 1499 00c4 0121     		movs	r1, #1
 1500 00c6 6C4B     		ldr	r3, .L149
 1501 00c8 1868     		ldr	r0, [r3]
 1502 00ca FFF7FEFF 		bl	lv_event_send
 1503              	.LVL132:
 561:Middlewares/lvgl/src/core/lv_indev.c ****             }
 1504              		.loc 1 561 17 view .LVU485
 561:Middlewares/lvgl/src/core/lv_indev.c ****             }
 1505              		.loc 1 561 20 is_stmt 0 view .LVU486
 1506 00ce 201D     		adds	r0, r4, #4
 1507 00d0 FFF7FEFF 		bl	indev_reset_check
 1508              	.LVL133:
 561:Middlewares/lvgl/src/core/lv_indev.c ****             }
 1509              		.loc 1 561 19 view .LVU487
 1510 00d4 0028     		cmp	r0, #0
 1511 00d6 C8D0     		beq	.L97
 1512 00d8 CFE7     		b	.L89
 1513              	.LVL134:
 1514              	.L138:
 561:Middlewares/lvgl/src/core/lv_indev.c ****             }
 1515              		.loc 1 561 19 view .LVU488
 1516              	.LBE4:
 566:Middlewares/lvgl/src/core/lv_indev.c ****         }
 1517              		.loc 1 566 13 is_stmt 1 view .LVU489
 566:Middlewares/lvgl/src/core/lv_indev.c ****         }
 1518              		.loc 1 566 17 is_stmt 0 view .LVU490
 1519 00da B5F90C30 		ldrsh	r3, [r5, #12]
 566:Middlewares/lvgl/src/core/lv_indev.c ****         }
 1520              		.loc 1 566 27 view .LVU491
 1521 00de 013B     		subs	r3, r3, #1
 1522 00e0 AB81     		strh	r3, [r5, #12]	@ movhi
 1523 00e2 C2E7     		b	.L97
 1524              	.L139:
 570:Middlewares/lvgl/src/core/lv_indev.c ****         }
 1525              		.loc 1 570 13 is_stmt 1 view .LVU492
 570:Middlewares/lvgl/src/core/lv_indev.c ****         }
 1526              		.loc 1 570 17 is_stmt 0 view .LVU493
 1527 00e4 B5F90C30 		ldrsh	r3, [r5, #12]
 570:Middlewares/lvgl/src/core/lv_indev.c ****         }
 1528              		.loc 1 570 27 view .LVU494
 1529 00e8 0133     		adds	r3, r3, #1
ARM GAS  /tmp/ccjEXvZv.s 			page 55


 1530 00ea AB81     		strh	r3, [r5, #12]	@ movhi
 1531 00ec BDE7     		b	.L97
 1532              	.L140:
 574:Middlewares/lvgl/src/core/lv_indev.c **** 
 1533              		.loc 1 574 13 is_stmt 1 view .LVU495
 1534 00ee 3046     		mov	r0, r6
 1535 00f0 FFF7FEFF 		bl	lv_group_send_data
 1536              	.LVL135:
 576:Middlewares/lvgl/src/core/lv_indev.c ****             if(indev_reset_check(&i->proc)) return;
 1537              		.loc 1 576 13 view .LVU496
 1538 00f4 614B     		ldr	r3, .L149+4
 1539 00f6 1A68     		ldr	r2, [r3]
 1540 00f8 2021     		movs	r1, #32
 1541 00fa 5F4B     		ldr	r3, .L149
 1542 00fc 1868     		ldr	r0, [r3]
 1543 00fe FFF7FEFF 		bl	lv_event_send
 1544              	.LVL136:
 577:Middlewares/lvgl/src/core/lv_indev.c ****         }
 1545              		.loc 1 577 13 view .LVU497
 577:Middlewares/lvgl/src/core/lv_indev.c ****         }
 1546              		.loc 1 577 16 is_stmt 0 view .LVU498
 1547 0102 201D     		adds	r0, r4, #4
 1548 0104 FFF7FEFF 		bl	indev_reset_check
 1549              	.LVL137:
 577:Middlewares/lvgl/src/core/lv_indev.c ****         }
 1550              		.loc 1 577 15 view .LVU499
 1551 0108 0028     		cmp	r0, #0
 1552 010a AED0     		beq	.L97
 1553 010c B5E7     		b	.L89
 1554              	.L134:
 585:Middlewares/lvgl/src/core/lv_indev.c ****         /*Long press*/
 1555              		.loc 1 585 51 discriminator 1 view .LVU500
 1556 010e 012F     		cmp	r7, #1
 1557 0110 A7D1     		bne	.L101
 587:Middlewares/lvgl/src/core/lv_indev.c **** 
 1558              		.loc 1 587 9 is_stmt 1 view .LVU501
 587:Middlewares/lvgl/src/core/lv_indev.c **** 
 1559              		.loc 1 587 33 is_stmt 0 view .LVU502
 1560 0112 6379     		ldrb	r3, [r4, #5]	@ zero_extendqisi2
 587:Middlewares/lvgl/src/core/lv_indev.c **** 
 1561              		.loc 1 587 11 view .LVU503
 1562 0114 13F0010F 		tst	r3, #1
 1563 0118 19D0     		beq	.L141
 1564              	.L102:
 613:Middlewares/lvgl/src/core/lv_indev.c **** 
 1565              		.loc 1 613 14 is_stmt 1 view .LVU504
 613:Middlewares/lvgl/src/core/lv_indev.c **** 
 1566              		.loc 1 613 38 is_stmt 0 view .LVU505
 1567 011a 6379     		ldrb	r3, [r4, #5]	@ zero_extendqisi2
 613:Middlewares/lvgl/src/core/lv_indev.c **** 
 1568              		.loc 1 613 16 view .LVU506
 1569 011c 13F0010F 		tst	r3, #1
 1570 0120 A3D0     		beq	.L97
 613:Middlewares/lvgl/src/core/lv_indev.c **** 
 1571              		.loc 1 613 46 discriminator 1 view .LVU507
 1572 0122 A06C     		ldr	r0, [r4, #72]
 1573 0124 FFF7FEFF 		bl	lv_tick_elaps
ARM GAS  /tmp/ccjEXvZv.s 			page 56


 1574              	.LVL138:
 613:Middlewares/lvgl/src/core/lv_indev.c **** 
 1575              		.loc 1 613 93 discriminator 1 view .LVU508
 1576 0128 2368     		ldr	r3, [r4]
 613:Middlewares/lvgl/src/core/lv_indev.c **** 
 1577              		.loc 1 613 101 discriminator 1 view .LVU509
 1578 012a DB8B     		ldrh	r3, [r3, #30]
 613:Middlewares/lvgl/src/core/lv_indev.c **** 
 1579              		.loc 1 613 43 discriminator 1 view .LVU510
 1580 012c 9842     		cmp	r0, r3
 1581 012e 9CD9     		bls	.L97
 615:Middlewares/lvgl/src/core/lv_indev.c **** 
 1582              		.loc 1 615 13 is_stmt 1 view .LVU511
 615:Middlewares/lvgl/src/core/lv_indev.c **** 
 1583              		.loc 1 615 44 is_stmt 0 view .LVU512
 1584 0130 FFF7FEFF 		bl	lv_tick_get
 1585              	.LVL139:
 615:Middlewares/lvgl/src/core/lv_indev.c **** 
 1586              		.loc 1 615 42 view .LVU513
 1587 0134 A064     		str	r0, [r4, #72]
 617:Middlewares/lvgl/src/core/lv_indev.c ****                 lv_event_send(indev_obj_act, LV_EVENT_LONG_PRESSED_REPEAT, indev_act);
 1588              		.loc 1 617 13 is_stmt 1 view .LVU514
 617:Middlewares/lvgl/src/core/lv_indev.c ****                 lv_event_send(indev_obj_act, LV_EVENT_LONG_PRESSED_REPEAT, indev_act);
 1589              		.loc 1 617 20 is_stmt 0 view .LVU515
 1590 0136 6968     		ldr	r1, [r5, #4]
 617:Middlewares/lvgl/src/core/lv_indev.c ****                 lv_event_send(indev_obj_act, LV_EVENT_LONG_PRESSED_REPEAT, indev_act);
 1591              		.loc 1 617 15 view .LVU516
 1592 0138 0A29     		cmp	r1, #10
 1593 013a 44D0     		beq	.L142
 621:Middlewares/lvgl/src/core/lv_indev.c ****                 /*emulate encoder left*/
 1594              		.loc 1 621 18 is_stmt 1 view .LVU517
 621:Middlewares/lvgl/src/core/lv_indev.c ****                 /*emulate encoder left*/
 1595              		.loc 1 621 20 is_stmt 0 view .LVU518
 1596 013c 1429     		cmp	r1, #20
 1597 013e 50D0     		beq	.L143
 625:Middlewares/lvgl/src/core/lv_indev.c ****                 /*emulate encoder right*/
 1598              		.loc 1 625 18 is_stmt 1 view .LVU519
 625:Middlewares/lvgl/src/core/lv_indev.c ****                 /*emulate encoder right*/
 1599              		.loc 1 625 20 is_stmt 0 view .LVU520
 1600 0140 1329     		cmp	r1, #19
 1601 0142 53D1     		bne	.L107
 627:Middlewares/lvgl/src/core/lv_indev.c ****             }
 1602              		.loc 1 627 17 is_stmt 1 view .LVU521
 627:Middlewares/lvgl/src/core/lv_indev.c ****             }
 1603              		.loc 1 627 21 is_stmt 0 view .LVU522
 1604 0144 B5F90C30 		ldrsh	r3, [r5, #12]
 627:Middlewares/lvgl/src/core/lv_indev.c ****             }
 1605              		.loc 1 627 31 view .LVU523
 1606 0148 0133     		adds	r3, r3, #1
 1607 014a AB81     		strh	r3, [r5, #12]	@ movhi
 1608 014c 8DE7     		b	.L97
 1609              	.L141:
 587:Middlewares/lvgl/src/core/lv_indev.c **** 
 1610              		.loc 1 587 41 discriminator 1 view .LVU524
 1611 014e 606C     		ldr	r0, [r4, #68]
 1612 0150 FFF7FEFF 		bl	lv_tick_elaps
 1613              	.LVL140:
ARM GAS  /tmp/ccjEXvZv.s 			page 57


 587:Middlewares/lvgl/src/core/lv_indev.c **** 
 1614              		.loc 1 587 80 discriminator 1 view .LVU525
 1615 0154 2368     		ldr	r3, [r4]
 587:Middlewares/lvgl/src/core/lv_indev.c **** 
 1616              		.loc 1 587 88 discriminator 1 view .LVU526
 1617 0156 9B8B     		ldrh	r3, [r3, #28]
 587:Middlewares/lvgl/src/core/lv_indev.c **** 
 1618              		.loc 1 587 38 discriminator 1 view .LVU527
 1619 0158 9842     		cmp	r0, r3
 1620 015a DED9     		bls	.L102
 589:Middlewares/lvgl/src/core/lv_indev.c ****             i->proc.longpr_rep_timestamp = lv_tick_get();
 1621              		.loc 1 589 13 is_stmt 1 view .LVU528
 589:Middlewares/lvgl/src/core/lv_indev.c ****             i->proc.longpr_rep_timestamp = lv_tick_get();
 1622              		.loc 1 589 34 is_stmt 0 view .LVU529
 1623 015c 6379     		ldrb	r3, [r4, #5]	@ zero_extendqisi2
 1624 015e 43F00103 		orr	r3, r3, #1
 1625 0162 6371     		strb	r3, [r4, #5]
 590:Middlewares/lvgl/src/core/lv_indev.c **** 
 1626              		.loc 1 590 13 is_stmt 1 view .LVU530
 590:Middlewares/lvgl/src/core/lv_indev.c **** 
 1627              		.loc 1 590 44 is_stmt 0 view .LVU531
 1628 0164 FFF7FEFF 		bl	lv_tick_get
 1629              	.LVL141:
 590:Middlewares/lvgl/src/core/lv_indev.c **** 
 1630              		.loc 1 590 42 view .LVU532
 1631 0168 A064     		str	r0, [r4, #72]
 592:Middlewares/lvgl/src/core/lv_indev.c ****                 bool editable = lv_obj_is_editable(indev_obj_act);
 1632              		.loc 1 592 13 is_stmt 1 view .LVU533
 592:Middlewares/lvgl/src/core/lv_indev.c ****                 bool editable = lv_obj_is_editable(indev_obj_act);
 1633              		.loc 1 592 20 is_stmt 0 view .LVU534
 1634 016a 6B68     		ldr	r3, [r5, #4]
 592:Middlewares/lvgl/src/core/lv_indev.c ****                 bool editable = lv_obj_is_editable(indev_obj_act);
 1635              		.loc 1 592 15 view .LVU535
 1636 016c 0A2B     		cmp	r3, #10
 1637 016e 04D0     		beq	.L144
 1638              	.L103:
 610:Middlewares/lvgl/src/core/lv_indev.c ****         }
 1639              		.loc 1 610 13 is_stmt 1 view .LVU536
 610:Middlewares/lvgl/src/core/lv_indev.c ****         }
 1640              		.loc 1 610 34 is_stmt 0 view .LVU537
 1641 0170 6379     		ldrb	r3, [r4, #5]	@ zero_extendqisi2
 1642 0172 43F00103 		orr	r3, r3, #1
 1643 0176 6371     		strb	r3, [r4, #5]
 1644 0178 77E7     		b	.L97
 1645              	.L144:
 1646              	.LBB5:
 593:Middlewares/lvgl/src/core/lv_indev.c **** 
 1647              		.loc 1 593 17 is_stmt 1 view .LVU538
 593:Middlewares/lvgl/src/core/lv_indev.c **** 
 1648              		.loc 1 593 33 is_stmt 0 view .LVU539
 1649 017a 3F4B     		ldr	r3, .L149
 1650 017c 1868     		ldr	r0, [r3]
 1651 017e FFF7FEFF 		bl	lv_obj_is_editable
 1652              	.LVL142:
 596:Middlewares/lvgl/src/core/lv_indev.c ****                     /*Don't leave edit mode if there is only one object (nowhere to navigate)*/
 1653              		.loc 1 596 17 is_stmt 1 view .LVU540
 596:Middlewares/lvgl/src/core/lv_indev.c ****                     /*Don't leave edit mode if there is only one object (nowhere to navigate)*/
ARM GAS  /tmp/ccjEXvZv.s 			page 58


 1654              		.loc 1 596 19 is_stmt 0 view .LVU541
 1655 0182 98B1     		cbz	r0, .L104
 598:Middlewares/lvgl/src/core/lv_indev.c ****                         lv_group_set_editing(g, lv_group_get_editing(g) ? false : true); /*Toggle e
 1656              		.loc 1 598 21 is_stmt 1 view .LVU542
 598:Middlewares/lvgl/src/core/lv_indev.c ****                         lv_group_set_editing(g, lv_group_get_editing(g) ? false : true); /*Toggle e
 1657              		.loc 1 598 24 is_stmt 0 view .LVU543
 1658 0184 3046     		mov	r0, r6
 1659              	.LVL143:
 598:Middlewares/lvgl/src/core/lv_indev.c ****                         lv_group_set_editing(g, lv_group_get_editing(g) ? false : true); /*Toggle e
 1660              		.loc 1 598 24 view .LVU544
 1661 0186 FFF7FEFF 		bl	lv_group_get_obj_count
 1662              	.LVL144:
 598:Middlewares/lvgl/src/core/lv_indev.c ****                         lv_group_set_editing(g, lv_group_get_editing(g) ? false : true); /*Toggle e
 1663              		.loc 1 598 23 view .LVU545
 1664 018a 0128     		cmp	r0, #1
 1665 018c F0D9     		bls	.L103
 599:Middlewares/lvgl/src/core/lv_indev.c ****                         lv_obj_clear_state(indev_obj_act, LV_STATE_PRESSED);    /*Remove the presse
 1666              		.loc 1 599 25 is_stmt 1 view .LVU546
 599:Middlewares/lvgl/src/core/lv_indev.c ****                         lv_obj_clear_state(indev_obj_act, LV_STATE_PRESSED);    /*Remove the presse
 1667              		.loc 1 599 49 is_stmt 0 view .LVU547
 1668 018e 3046     		mov	r0, r6
 1669 0190 FFF7FEFF 		bl	lv_group_get_editing
 1670              	.LVL145:
 599:Middlewares/lvgl/src/core/lv_indev.c ****                         lv_obj_clear_state(indev_obj_act, LV_STATE_PRESSED);    /*Remove the presse
 1671              		.loc 1 599 25 view .LVU548
 1672 0194 80F00101 		eor	r1, r0, #1
 1673 0198 C9B2     		uxtb	r1, r1
 1674 019a 3046     		mov	r0, r6
 1675 019c FFF7FEFF 		bl	lv_group_set_editing
 1676              	.LVL146:
 600:Middlewares/lvgl/src/core/lv_indev.c ****                     }
 1677              		.loc 1 600 25 is_stmt 1 view .LVU549
 1678 01a0 2021     		movs	r1, #32
 1679 01a2 354B     		ldr	r3, .L149
 1680 01a4 1868     		ldr	r0, [r3]
 1681 01a6 FFF7FEFF 		bl	lv_obj_clear_state
 1682              	.LVL147:
 1683 01aa E1E7     		b	.L103
 1684              	.LVL148:
 1685              	.L104:
 605:Middlewares/lvgl/src/core/lv_indev.c ****                     if(indev_reset_check(&i->proc)) return;
 1686              		.loc 1 605 21 view .LVU550
 1687 01ac 334B     		ldr	r3, .L149+4
 1688 01ae 1A68     		ldr	r2, [r3]
 1689 01b0 0521     		movs	r1, #5
 1690 01b2 314B     		ldr	r3, .L149
 1691 01b4 1868     		ldr	r0, [r3]
 1692              	.LVL149:
 605:Middlewares/lvgl/src/core/lv_indev.c ****                     if(indev_reset_check(&i->proc)) return;
 1693              		.loc 1 605 21 is_stmt 0 view .LVU551
 1694 01b6 FFF7FEFF 		bl	lv_event_send
 1695              	.LVL150:
 606:Middlewares/lvgl/src/core/lv_indev.c ****                 }
 1696              		.loc 1 606 21 is_stmt 1 view .LVU552
 606:Middlewares/lvgl/src/core/lv_indev.c ****                 }
 1697              		.loc 1 606 24 is_stmt 0 view .LVU553
 1698 01ba 201D     		adds	r0, r4, #4
ARM GAS  /tmp/ccjEXvZv.s 			page 59


 1699 01bc FFF7FEFF 		bl	indev_reset_check
 1700              	.LVL151:
 606:Middlewares/lvgl/src/core/lv_indev.c ****                 }
 1701              		.loc 1 606 23 view .LVU554
 1702 01c0 0028     		cmp	r0, #0
 1703 01c2 D5D0     		beq	.L103
 1704 01c4 59E7     		b	.L89
 1705              	.L142:
 606:Middlewares/lvgl/src/core/lv_indev.c ****                 }
 1706              		.loc 1 606 23 view .LVU555
 1707              	.LBE5:
 618:Middlewares/lvgl/src/core/lv_indev.c ****                 if(indev_reset_check(&i->proc)) return;
 1708              		.loc 1 618 17 is_stmt 1 view .LVU556
 1709 01c6 2D4B     		ldr	r3, .L149+4
 1710 01c8 1A68     		ldr	r2, [r3]
 1711 01ca 0621     		movs	r1, #6
 1712 01cc 2A4B     		ldr	r3, .L149
 1713 01ce 1868     		ldr	r0, [r3]
 1714 01d0 FFF7FEFF 		bl	lv_event_send
 1715              	.LVL152:
 619:Middlewares/lvgl/src/core/lv_indev.c ****             }
 1716              		.loc 1 619 17 view .LVU557
 619:Middlewares/lvgl/src/core/lv_indev.c ****             }
 1717              		.loc 1 619 20 is_stmt 0 view .LVU558
 1718 01d4 201D     		adds	r0, r4, #4
 1719 01d6 FFF7FEFF 		bl	indev_reset_check
 1720              	.LVL153:
 619:Middlewares/lvgl/src/core/lv_indev.c ****             }
 1721              		.loc 1 619 19 view .LVU559
 1722 01da 0028     		cmp	r0, #0
 1723 01dc 3FF445AF 		beq	.L97
 1724 01e0 4BE7     		b	.L89
 1725              	.L143:
 623:Middlewares/lvgl/src/core/lv_indev.c ****             }
 1726              		.loc 1 623 17 is_stmt 1 view .LVU560
 623:Middlewares/lvgl/src/core/lv_indev.c ****             }
 1727              		.loc 1 623 21 is_stmt 0 view .LVU561
 1728 01e2 B5F90C30 		ldrsh	r3, [r5, #12]
 623:Middlewares/lvgl/src/core/lv_indev.c ****             }
 1729              		.loc 1 623 31 view .LVU562
 1730 01e6 013B     		subs	r3, r3, #1
 1731 01e8 AB81     		strh	r3, [r5, #12]	@ movhi
 1732 01ea 3EE7     		b	.L97
 1733              	.L107:
 630:Middlewares/lvgl/src/core/lv_indev.c ****                 if(indev_reset_check(&i->proc)) return;
 1734              		.loc 1 630 17 is_stmt 1 view .LVU563
 1735 01ec 3046     		mov	r0, r6
 1736 01ee FFF7FEFF 		bl	lv_group_send_data
 1737              	.LVL154:
 631:Middlewares/lvgl/src/core/lv_indev.c ****             }
 1738              		.loc 1 631 17 view .LVU564
 631:Middlewares/lvgl/src/core/lv_indev.c ****             }
 1739              		.loc 1 631 20 is_stmt 0 view .LVU565
 1740 01f2 201D     		adds	r0, r4, #4
 1741 01f4 FFF7FEFF 		bl	indev_reset_check
 1742              	.LVL155:
 631:Middlewares/lvgl/src/core/lv_indev.c ****             }
ARM GAS  /tmp/ccjEXvZv.s 			page 60


 1743              		.loc 1 631 19 view .LVU566
 1744 01f8 0028     		cmp	r0, #0
 1745 01fa 3FF436AF 		beq	.L97
 1746 01fe 3CE7     		b	.L89
 1747              	.L135:
 639:Middlewares/lvgl/src/core/lv_indev.c **** 
 1748              		.loc 1 639 32 is_stmt 1 view .LVU567
 641:Middlewares/lvgl/src/core/lv_indev.c ****             bool editable = lv_obj_is_editable(indev_obj_act);
 1749              		.loc 1 641 9 view .LVU568
 641:Middlewares/lvgl/src/core/lv_indev.c ****             bool editable = lv_obj_is_editable(indev_obj_act);
 1750              		.loc 1 641 16 is_stmt 0 view .LVU569
 1751 0200 6B68     		ldr	r3, [r5, #4]
 641:Middlewares/lvgl/src/core/lv_indev.c ****             bool editable = lv_obj_is_editable(indev_obj_act);
 1752              		.loc 1 641 11 view .LVU570
 1753 0202 0A2B     		cmp	r3, #10
 1754 0204 06D0     		beq	.L145
 1755              	.LVL156:
 1756              	.L108:
 682:Middlewares/lvgl/src/core/lv_indev.c ****         i->proc.long_pr_sent = 0;
 1757              		.loc 1 682 9 is_stmt 1 view .LVU571
 682:Middlewares/lvgl/src/core/lv_indev.c ****         i->proc.long_pr_sent = 0;
 1758              		.loc 1 682 30 is_stmt 0 view .LVU572
 1759 0206 0022     		movs	r2, #0
 1760 0208 6264     		str	r2, [r4, #68]
 683:Middlewares/lvgl/src/core/lv_indev.c ****     }
 1761              		.loc 1 683 9 is_stmt 1 view .LVU573
 683:Middlewares/lvgl/src/core/lv_indev.c ****     }
 1762              		.loc 1 683 30 is_stmt 0 view .LVU574
 1763 020a 6379     		ldrb	r3, [r4, #5]	@ zero_extendqisi2
 1764 020c 62F30003 		bfi	r3, r2, #0, #1
 1765 0210 6371     		strb	r3, [r4, #5]
 1766 0212 2AE7     		b	.L97
 1767              	.LVL157:
 1768              	.L145:
 1769              	.LBB6:
 642:Middlewares/lvgl/src/core/lv_indev.c **** 
 1770              		.loc 1 642 13 is_stmt 1 view .LVU575
 642:Middlewares/lvgl/src/core/lv_indev.c **** 
 1771              		.loc 1 642 29 is_stmt 0 view .LVU576
 1772 0214 FFF7FEFF 		bl	lv_obj_is_editable
 1773              	.LVL158:
 645:Middlewares/lvgl/src/core/lv_indev.c ****                 lv_event_send(indev_obj_act, LV_EVENT_RELEASED, indev_act);
 1774              		.loc 1 645 13 is_stmt 1 view .LVU577
 645:Middlewares/lvgl/src/core/lv_indev.c ****                 lv_event_send(indev_obj_act, LV_EVENT_RELEASED, indev_act);
 1775              		.loc 1 645 15 is_stmt 0 view .LVU578
 1776 0218 0028     		cmp	r0, #0
 1777 021a 31D1     		bne	.L109
 646:Middlewares/lvgl/src/core/lv_indev.c ****                 if(indev_reset_check(&i->proc)) return;
 1778              		.loc 1 646 17 is_stmt 1 view .LVU579
 1779 021c 174B     		ldr	r3, .L149+4
 1780 021e 1A68     		ldr	r2, [r3]
 1781 0220 0821     		movs	r1, #8
 1782 0222 154B     		ldr	r3, .L149
 1783 0224 1868     		ldr	r0, [r3]
 1784              	.LVL159:
 646:Middlewares/lvgl/src/core/lv_indev.c ****                 if(indev_reset_check(&i->proc)) return;
 1785              		.loc 1 646 17 is_stmt 0 view .LVU580
ARM GAS  /tmp/ccjEXvZv.s 			page 61


 1786 0226 FFF7FEFF 		bl	lv_event_send
 1787              	.LVL160:
 647:Middlewares/lvgl/src/core/lv_indev.c **** 
 1788              		.loc 1 647 17 is_stmt 1 view .LVU581
 647:Middlewares/lvgl/src/core/lv_indev.c **** 
 1789              		.loc 1 647 20 is_stmt 0 view .LVU582
 1790 022a 271D     		adds	r7, r4, #4
 1791              	.LVL161:
 647:Middlewares/lvgl/src/core/lv_indev.c **** 
 1792              		.loc 1 647 20 view .LVU583
 1793 022c 3846     		mov	r0, r7
 1794 022e FFF7FEFF 		bl	indev_reset_check
 1795              	.LVL162:
 647:Middlewares/lvgl/src/core/lv_indev.c **** 
 1796              		.loc 1 647 19 view .LVU584
 1797 0232 0028     		cmp	r0, #0
 1798 0234 7FF421AF 		bne	.L89
 649:Middlewares/lvgl/src/core/lv_indev.c ****                 if(indev_reset_check(&i->proc)) return;
 1799              		.loc 1 649 17 is_stmt 1 view .LVU585
 649:Middlewares/lvgl/src/core/lv_indev.c ****                 if(indev_reset_check(&i->proc)) return;
 1800              		.loc 1 649 41 is_stmt 0 view .LVU586
 1801 0238 6379     		ldrb	r3, [r4, #5]	@ zero_extendqisi2
 649:Middlewares/lvgl/src/core/lv_indev.c ****                 if(indev_reset_check(&i->proc)) return;
 1802              		.loc 1 649 19 view .LVU587
 1803 023a 13F0010F 		tst	r3, #1
 1804 023e 12D0     		beq	.L146
 1805              	.L110:
 650:Middlewares/lvgl/src/core/lv_indev.c **** 
 1806              		.loc 1 650 17 is_stmt 1 view .LVU588
 650:Middlewares/lvgl/src/core/lv_indev.c **** 
 1807              		.loc 1 650 20 is_stmt 0 view .LVU589
 1808 0240 3846     		mov	r0, r7
 1809 0242 FFF7FEFF 		bl	indev_reset_check
 1810              	.LVL163:
 650:Middlewares/lvgl/src/core/lv_indev.c **** 
 1811              		.loc 1 650 19 view .LVU590
 1812 0246 0028     		cmp	r0, #0
 1813 0248 7FF417AF 		bne	.L89
 652:Middlewares/lvgl/src/core/lv_indev.c ****                 if(indev_reset_check(&i->proc)) return;
 1814              		.loc 1 652 17 is_stmt 1 view .LVU591
 1815 024c 0B4B     		ldr	r3, .L149+4
 1816 024e 1A68     		ldr	r2, [r3]
 1817 0250 0721     		movs	r1, #7
 1818 0252 094B     		ldr	r3, .L149
 1819 0254 1868     		ldr	r0, [r3]
 1820 0256 FFF7FEFF 		bl	lv_event_send
 1821              	.LVL164:
 653:Middlewares/lvgl/src/core/lv_indev.c **** 
 1822              		.loc 1 653 17 view .LVU592
 653:Middlewares/lvgl/src/core/lv_indev.c **** 
 1823              		.loc 1 653 20 is_stmt 0 view .LVU593
 1824 025a 3846     		mov	r0, r7
 1825 025c FFF7FEFF 		bl	indev_reset_check
 1826              	.LVL165:
 653:Middlewares/lvgl/src/core/lv_indev.c **** 
 1827              		.loc 1 653 19 view .LVU594
 1828 0260 0028     		cmp	r0, #0
ARM GAS  /tmp/ccjEXvZv.s 			page 62


 1829 0262 D0D0     		beq	.L108
 1830 0264 09E7     		b	.L89
 1831              	.L146:
 649:Middlewares/lvgl/src/core/lv_indev.c ****                 if(indev_reset_check(&i->proc)) return;
 1832              		.loc 1 649 47 is_stmt 1 discriminator 1 view .LVU595
 1833 0266 054B     		ldr	r3, .L149+4
 1834 0268 1A68     		ldr	r2, [r3]
 1835 026a 0421     		movs	r1, #4
 1836 026c 024B     		ldr	r3, .L149
 1837 026e 1868     		ldr	r0, [r3]
 1838 0270 FFF7FEFF 		bl	lv_event_send
 1839              	.LVL166:
 1840 0274 E4E7     		b	.L110
 1841              	.L150:
 1842 0276 00BF     		.align	2
 1843              	.L149:
 1844 0278 00000000 		.word	.LANCHOR0
 1845 027c 00000000 		.word	.LANCHOR1
 1846              	.LVL167:
 1847              	.L109:
 657:Middlewares/lvgl/src/core/lv_indev.c ****                 /*Ignore long pressed enter release because it comes from mode switch*/
 1848              		.loc 1 657 18 view .LVU596
 657:Middlewares/lvgl/src/core/lv_indev.c ****                 /*Ignore long pressed enter release because it comes from mode switch*/
 1849              		.loc 1 657 21 is_stmt 0 view .LVU597
 1850 0280 3046     		mov	r0, r6
 1851              	.LVL168:
 657:Middlewares/lvgl/src/core/lv_indev.c ****                 /*Ignore long pressed enter release because it comes from mode switch*/
 1852              		.loc 1 657 21 view .LVU598
 1853 0282 FFF7FEFF 		bl	lv_group_get_editing
 1854              	.LVL169:
 657:Middlewares/lvgl/src/core/lv_indev.c ****                 /*Ignore long pressed enter release because it comes from mode switch*/
 1855              		.loc 1 657 20 view .LVU599
 1856 0286 0028     		cmp	r0, #0
 1857 0288 3BD0     		beq	.L111
 659:Middlewares/lvgl/src/core/lv_indev.c ****                     lv_event_send(indev_obj_act, LV_EVENT_RELEASED, indev_act);
 1858              		.loc 1 659 17 is_stmt 1 view .LVU600
 659:Middlewares/lvgl/src/core/lv_indev.c ****                     lv_event_send(indev_obj_act, LV_EVENT_RELEASED, indev_act);
 1859              		.loc 1 659 20 is_stmt 0 view .LVU601
 1860 028a 6379     		ldrb	r3, [r4, #5]	@ zero_extendqisi2
 659:Middlewares/lvgl/src/core/lv_indev.c ****                     lv_event_send(indev_obj_act, LV_EVENT_RELEASED, indev_act);
 1861              		.loc 1 659 19 view .LVU602
 1862 028c 13F0010F 		tst	r3, #1
 1863 0290 04D0     		beq	.L112
 659:Middlewares/lvgl/src/core/lv_indev.c ****                     lv_event_send(indev_obj_act, LV_EVENT_RELEASED, indev_act);
 1864              		.loc 1 659 45 discriminator 1 view .LVU603
 1865 0292 3046     		mov	r0, r6
 1866 0294 FFF7FEFF 		bl	lv_group_get_obj_count
 1867              	.LVL170:
 659:Middlewares/lvgl/src/core/lv_indev.c ****                     lv_event_send(indev_obj_act, LV_EVENT_RELEASED, indev_act);
 1868              		.loc 1 659 42 discriminator 1 view .LVU604
 1869 0298 0128     		cmp	r0, #1
 1870 029a 2CD8     		bhi	.L113
 1871              	.L112:
 660:Middlewares/lvgl/src/core/lv_indev.c ****                     if(indev_reset_check(&i->proc)) return;
 1872              		.loc 1 660 21 is_stmt 1 view .LVU605
 1873 029c 424B     		ldr	r3, .L151
 1874 029e 1A68     		ldr	r2, [r3]
ARM GAS  /tmp/ccjEXvZv.s 			page 63


 1875 02a0 0821     		movs	r1, #8
 1876 02a2 424B     		ldr	r3, .L151+4
 1877 02a4 1868     		ldr	r0, [r3]
 1878 02a6 FFF7FEFF 		bl	lv_event_send
 1879              	.LVL171:
 661:Middlewares/lvgl/src/core/lv_indev.c **** 
 1880              		.loc 1 661 21 view .LVU606
 661:Middlewares/lvgl/src/core/lv_indev.c **** 
 1881              		.loc 1 661 24 is_stmt 0 view .LVU607
 1882 02aa 271D     		adds	r7, r4, #4
 1883              	.LVL172:
 661:Middlewares/lvgl/src/core/lv_indev.c **** 
 1884              		.loc 1 661 24 view .LVU608
 1885 02ac 3846     		mov	r0, r7
 1886 02ae FFF7FEFF 		bl	indev_reset_check
 1887              	.LVL173:
 661:Middlewares/lvgl/src/core/lv_indev.c **** 
 1888              		.loc 1 661 23 view .LVU609
 1889 02b2 0028     		cmp	r0, #0
 1890 02b4 7FF4E1AE 		bne	.L89
 663:Middlewares/lvgl/src/core/lv_indev.c ****                     if(indev_reset_check(&i->proc)) return;
 1891              		.loc 1 663 21 is_stmt 1 view .LVU610
 1892 02b8 3B4B     		ldr	r3, .L151
 1893 02ba 1A68     		ldr	r2, [r3]
 1894 02bc 0421     		movs	r1, #4
 1895 02be 3B4B     		ldr	r3, .L151+4
 1896 02c0 1868     		ldr	r0, [r3]
 1897 02c2 FFF7FEFF 		bl	lv_event_send
 1898              	.LVL174:
 664:Middlewares/lvgl/src/core/lv_indev.c **** 
 1899              		.loc 1 664 21 view .LVU611
 664:Middlewares/lvgl/src/core/lv_indev.c **** 
 1900              		.loc 1 664 24 is_stmt 0 view .LVU612
 1901 02c6 3846     		mov	r0, r7
 1902 02c8 FFF7FEFF 		bl	indev_reset_check
 1903              	.LVL175:
 664:Middlewares/lvgl/src/core/lv_indev.c **** 
 1904              		.loc 1 664 23 view .LVU613
 1905 02cc 0028     		cmp	r0, #0
 1906 02ce 7FF4D4AE 		bne	.L89
 666:Middlewares/lvgl/src/core/lv_indev.c ****                     if(indev_reset_check(&i->proc)) return;
 1907              		.loc 1 666 21 is_stmt 1 view .LVU614
 1908 02d2 354B     		ldr	r3, .L151
 1909 02d4 1A68     		ldr	r2, [r3]
 1910 02d6 0721     		movs	r1, #7
 1911 02d8 344B     		ldr	r3, .L151+4
 1912 02da 1868     		ldr	r0, [r3]
 1913 02dc FFF7FEFF 		bl	lv_event_send
 1914              	.LVL176:
 667:Middlewares/lvgl/src/core/lv_indev.c **** 
 1915              		.loc 1 667 21 view .LVU615
 667:Middlewares/lvgl/src/core/lv_indev.c **** 
 1916              		.loc 1 667 24 is_stmt 0 view .LVU616
 1917 02e0 3846     		mov	r0, r7
 1918 02e2 FFF7FEFF 		bl	indev_reset_check
 1919              	.LVL177:
 667:Middlewares/lvgl/src/core/lv_indev.c **** 
ARM GAS  /tmp/ccjEXvZv.s 			page 64


 1920              		.loc 1 667 23 view .LVU617
 1921 02e6 0028     		cmp	r0, #0
 1922 02e8 7FF4C7AE 		bne	.L89
 670:Middlewares/lvgl/src/core/lv_indev.c ****                 } else {
 1923              		.loc 1 670 21 is_stmt 1 view .LVU618
 1924 02ec 0A21     		movs	r1, #10
 1925 02ee 3046     		mov	r0, r6
 1926 02f0 FFF7FEFF 		bl	lv_group_send_data
 1927              	.LVL178:
 1928 02f4 87E7     		b	.L108
 1929              	.LVL179:
 1930              	.L113:
 672:Middlewares/lvgl/src/core/lv_indev.c ****                 }
 1931              		.loc 1 672 21 view .LVU619
 1932 02f6 2021     		movs	r1, #32
 1933 02f8 2C4B     		ldr	r3, .L151+4
 1934 02fa 1868     		ldr	r0, [r3]
 1935 02fc FFF7FEFF 		bl	lv_obj_clear_state
 1936              	.LVL180:
 1937 0300 81E7     		b	.L108
 1938              	.L111:
 677:Middlewares/lvgl/src/core/lv_indev.c ****                 lv_group_set_editing(g, true); /*Set edit mode*/
 1939              		.loc 1 677 18 discriminator 1 view .LVU620
 677:Middlewares/lvgl/src/core/lv_indev.c ****                 lv_group_set_editing(g, true); /*Set edit mode*/
 1940              		.loc 1 677 34 is_stmt 0 discriminator 1 view .LVU621
 1941 0302 3046     		mov	r0, r6
 1942 0304 FFF7FEFF 		bl	lv_group_get_editing
 1943              	.LVL181:
 677:Middlewares/lvgl/src/core/lv_indev.c ****                 lv_group_set_editing(g, true); /*Set edit mode*/
 1944              		.loc 1 677 30 discriminator 1 view .LVU622
 1945 0308 0028     		cmp	r0, #0
 1946 030a 7FF47CAF 		bne	.L108
 677:Middlewares/lvgl/src/core/lv_indev.c ****                 lv_group_set_editing(g, true); /*Set edit mode*/
 1947              		.loc 1 677 61 discriminator 2 view .LVU623
 1948 030e 6379     		ldrb	r3, [r4, #5]	@ zero_extendqisi2
 677:Middlewares/lvgl/src/core/lv_indev.c ****                 lv_group_set_editing(g, true); /*Set edit mode*/
 1949              		.loc 1 677 58 discriminator 2 view .LVU624
 1950 0310 13F0010F 		tst	r3, #1
 1951 0314 7FF477AF 		bne	.L108
 678:Middlewares/lvgl/src/core/lv_indev.c ****             }
 1952              		.loc 1 678 17 is_stmt 1 view .LVU625
 1953 0318 0121     		movs	r1, #1
 1954 031a 3046     		mov	r0, r6
 1955 031c FFF7FEFF 		bl	lv_group_set_editing
 1956              	.LVL182:
 1957 0320 71E7     		b	.L108
 1958              	.LVL183:
 1959              	.L136:
 678:Middlewares/lvgl/src/core/lv_indev.c ****             }
 1960              		.loc 1 678 17 is_stmt 0 view .LVU626
 1961              	.LBE6:
 689:Middlewares/lvgl/src/core/lv_indev.c ****         /*In edit mode send LEFT/RIGHT keys*/
 1962              		.loc 1 689 53 is_stmt 1 view .LVU627
 691:Middlewares/lvgl/src/core/lv_indev.c ****             int32_t s;
 1963              		.loc 1 691 9 view .LVU628
 691:Middlewares/lvgl/src/core/lv_indev.c ****             int32_t s;
 1964              		.loc 1 691 12 is_stmt 0 view .LVU629
ARM GAS  /tmp/ccjEXvZv.s 			page 65


 1965 0322 3046     		mov	r0, r6
 1966 0324 FFF7FEFF 		bl	lv_group_get_editing
 1967              	.LVL184:
 691:Middlewares/lvgl/src/core/lv_indev.c ****             int32_t s;
 1968              		.loc 1 691 11 view .LVU630
 1969 0328 F8B1     		cbz	r0, .L114
 1970              	.LBB7:
 692:Middlewares/lvgl/src/core/lv_indev.c ****             if(data->enc_diff < 0) {
 1971              		.loc 1 692 13 is_stmt 1 view .LVU631
 693:Middlewares/lvgl/src/core/lv_indev.c ****                 for(s = 0; s < -data->enc_diff; s++) lv_group_send_data(g, LV_KEY_LEFT);
 1972              		.loc 1 693 13 view .LVU632
 693:Middlewares/lvgl/src/core/lv_indev.c ****                 for(s = 0; s < -data->enc_diff; s++) lv_group_send_data(g, LV_KEY_LEFT);
 1973              		.loc 1 693 20 is_stmt 0 view .LVU633
 1974 032a B5F90C30 		ldrsh	r3, [r5, #12]
 693:Middlewares/lvgl/src/core/lv_indev.c ****                 for(s = 0; s < -data->enc_diff; s++) lv_group_send_data(g, LV_KEY_LEFT);
 1975              		.loc 1 693 15 view .LVU634
 1976 032e 002B     		cmp	r3, #0
 1977 0330 0FDB     		blt	.L147
 696:Middlewares/lvgl/src/core/lv_indev.c ****                 for(s = 0; s < data->enc_diff; s++) lv_group_send_data(g, LV_KEY_RIGHT);
 1978              		.loc 1 696 18 is_stmt 1 view .LVU635
 696:Middlewares/lvgl/src/core/lv_indev.c ****                 for(s = 0; s < data->enc_diff; s++) lv_group_send_data(g, LV_KEY_RIGHT);
 1979              		.loc 1 696 20 is_stmt 0 view .LVU636
 1980 0332 002B     		cmp	r3, #0
 1981 0334 7FF7A1AE 		ble	.L89
 697:Middlewares/lvgl/src/core/lv_indev.c ****             }
 1982              		.loc 1 697 23 view .LVU637
 1983 0338 0024     		movs	r4, #0
 1984              	.LVL185:
 697:Middlewares/lvgl/src/core/lv_indev.c ****             }
 1985              		.loc 1 697 23 view .LVU638
 1986 033a 11E0     		b	.L118
 1987              	.LVL186:
 1988              	.L117:
 694:Middlewares/lvgl/src/core/lv_indev.c ****             }
 1989              		.loc 1 694 54 is_stmt 1 discriminator 3 view .LVU639
 1990 033c 1421     		movs	r1, #20
 1991 033e 3046     		mov	r0, r6
 1992 0340 FFF7FEFF 		bl	lv_group_send_data
 1993              	.LVL187:
 694:Middlewares/lvgl/src/core/lv_indev.c ****             }
 1994              		.loc 1 694 49 discriminator 3 view .LVU640
 694:Middlewares/lvgl/src/core/lv_indev.c ****             }
 1995              		.loc 1 694 50 is_stmt 0 discriminator 3 view .LVU641
 1996 0344 0134     		adds	r4, r4, #1
 1997              	.LVL188:
 1998              	.L115:
 694:Middlewares/lvgl/src/core/lv_indev.c ****             }
 1999              		.loc 1 694 28 is_stmt 1 discriminator 1 view .LVU642
 694:Middlewares/lvgl/src/core/lv_indev.c ****             }
 2000              		.loc 1 694 37 is_stmt 0 discriminator 1 view .LVU643
 2001 0346 B5F90C30 		ldrsh	r3, [r5, #12]
 694:Middlewares/lvgl/src/core/lv_indev.c ****             }
 2002              		.loc 1 694 32 discriminator 1 view .LVU644
 2003 034a 5B42     		rsbs	r3, r3, #0
 694:Middlewares/lvgl/src/core/lv_indev.c ****             }
 2004              		.loc 1 694 17 discriminator 1 view .LVU645
 2005 034c A342     		cmp	r3, r4
ARM GAS  /tmp/ccjEXvZv.s 			page 66


 2006 034e F5DC     		bgt	.L117
 2007 0350 93E6     		b	.L89
 2008              	.LVL189:
 2009              	.L147:
 694:Middlewares/lvgl/src/core/lv_indev.c ****             }
 2010              		.loc 1 694 23 view .LVU646
 2011 0352 0024     		movs	r4, #0
 2012              	.LVL190:
 694:Middlewares/lvgl/src/core/lv_indev.c ****             }
 2013              		.loc 1 694 23 view .LVU647
 2014 0354 F7E7     		b	.L115
 2015              	.LVL191:
 2016              	.L119:
 697:Middlewares/lvgl/src/core/lv_indev.c ****             }
 2017              		.loc 1 697 53 is_stmt 1 discriminator 3 view .LVU648
 2018 0356 1321     		movs	r1, #19
 2019 0358 3046     		mov	r0, r6
 2020 035a FFF7FEFF 		bl	lv_group_send_data
 2021              	.LVL192:
 697:Middlewares/lvgl/src/core/lv_indev.c ****             }
 2022              		.loc 1 697 48 discriminator 3 view .LVU649
 697:Middlewares/lvgl/src/core/lv_indev.c ****             }
 2023              		.loc 1 697 49 is_stmt 0 discriminator 3 view .LVU650
 2024 035e 0134     		adds	r4, r4, #1
 2025              	.LVL193:
 2026              	.L118:
 697:Middlewares/lvgl/src/core/lv_indev.c ****             }
 2027              		.loc 1 697 28 is_stmt 1 discriminator 1 view .LVU651
 697:Middlewares/lvgl/src/core/lv_indev.c ****             }
 2028              		.loc 1 697 36 is_stmt 0 discriminator 1 view .LVU652
 2029 0360 B5F90C30 		ldrsh	r3, [r5, #12]
 697:Middlewares/lvgl/src/core/lv_indev.c ****             }
 2030              		.loc 1 697 17 discriminator 1 view .LVU653
 2031 0364 A342     		cmp	r3, r4
 2032 0366 F6DC     		bgt	.L119
 2033 0368 87E6     		b	.L89
 2034              	.LVL194:
 2035              	.L114:
 697:Middlewares/lvgl/src/core/lv_indev.c ****             }
 2036              		.loc 1 697 17 discriminator 1 view .LVU654
 2037              	.LBE7:
 2038              	.LBB8:
 702:Middlewares/lvgl/src/core/lv_indev.c ****             if(data->enc_diff < 0) {
 2039              		.loc 1 702 13 is_stmt 1 view .LVU655
 703:Middlewares/lvgl/src/core/lv_indev.c ****                 for(s = 0; s < -data->enc_diff; s++) lv_group_focus_prev(g);
 2040              		.loc 1 703 13 view .LVU656
 703:Middlewares/lvgl/src/core/lv_indev.c ****                 for(s = 0; s < -data->enc_diff; s++) lv_group_focus_prev(g);
 2041              		.loc 1 703 20 is_stmt 0 view .LVU657
 2042 036a B5F90C30 		ldrsh	r3, [r5, #12]
 703:Middlewares/lvgl/src/core/lv_indev.c ****                 for(s = 0; s < -data->enc_diff; s++) lv_group_focus_prev(g);
 2043              		.loc 1 703 15 view .LVU658
 2044 036e 002B     		cmp	r3, #0
 2045 0370 0EDB     		blt	.L148
 706:Middlewares/lvgl/src/core/lv_indev.c ****                 for(s = 0; s < data->enc_diff; s++) lv_group_focus_next(g);
 2046              		.loc 1 706 18 is_stmt 1 view .LVU659
 706:Middlewares/lvgl/src/core/lv_indev.c ****                 for(s = 0; s < data->enc_diff; s++) lv_group_focus_next(g);
 2047              		.loc 1 706 20 is_stmt 0 view .LVU660
ARM GAS  /tmp/ccjEXvZv.s 			page 67


 2048 0372 002B     		cmp	r3, #0
 2049 0374 7FF781AE 		ble	.L89
 707:Middlewares/lvgl/src/core/lv_indev.c ****             }
 2050              		.loc 1 707 23 view .LVU661
 2051 0378 0024     		movs	r4, #0
 2052              	.LVL195:
 707:Middlewares/lvgl/src/core/lv_indev.c ****             }
 2053              		.loc 1 707 23 view .LVU662
 2054 037a 0FE0     		b	.L123
 2055              	.LVL196:
 2056              	.L122:
 704:Middlewares/lvgl/src/core/lv_indev.c ****             }
 2057              		.loc 1 704 54 is_stmt 1 discriminator 3 view .LVU663
 2058 037c 3046     		mov	r0, r6
 2059 037e FFF7FEFF 		bl	lv_group_focus_prev
 2060              	.LVL197:
 704:Middlewares/lvgl/src/core/lv_indev.c ****             }
 2061              		.loc 1 704 49 discriminator 3 view .LVU664
 704:Middlewares/lvgl/src/core/lv_indev.c ****             }
 2062              		.loc 1 704 50 is_stmt 0 discriminator 3 view .LVU665
 2063 0382 0134     		adds	r4, r4, #1
 2064              	.LVL198:
 2065              	.L120:
 704:Middlewares/lvgl/src/core/lv_indev.c ****             }
 2066              		.loc 1 704 28 is_stmt 1 discriminator 1 view .LVU666
 704:Middlewares/lvgl/src/core/lv_indev.c ****             }
 2067              		.loc 1 704 37 is_stmt 0 discriminator 1 view .LVU667
 2068 0384 B5F90C30 		ldrsh	r3, [r5, #12]
 704:Middlewares/lvgl/src/core/lv_indev.c ****             }
 2069              		.loc 1 704 32 discriminator 1 view .LVU668
 2070 0388 5B42     		rsbs	r3, r3, #0
 704:Middlewares/lvgl/src/core/lv_indev.c ****             }
 2071              		.loc 1 704 17 discriminator 1 view .LVU669
 2072 038a A342     		cmp	r3, r4
 2073 038c F6DC     		bgt	.L122
 2074 038e 74E6     		b	.L89
 2075              	.LVL199:
 2076              	.L148:
 704:Middlewares/lvgl/src/core/lv_indev.c ****             }
 2077              		.loc 1 704 23 view .LVU670
 2078 0390 0024     		movs	r4, #0
 2079              	.LVL200:
 704:Middlewares/lvgl/src/core/lv_indev.c ****             }
 2080              		.loc 1 704 23 view .LVU671
 2081 0392 F7E7     		b	.L120
 2082              	.LVL201:
 2083              	.L124:
 707:Middlewares/lvgl/src/core/lv_indev.c ****             }
 2084              		.loc 1 707 53 is_stmt 1 discriminator 3 view .LVU672
 2085 0394 3046     		mov	r0, r6
 2086 0396 FFF7FEFF 		bl	lv_group_focus_next
 2087              	.LVL202:
 707:Middlewares/lvgl/src/core/lv_indev.c ****             }
 2088              		.loc 1 707 48 discriminator 3 view .LVU673
 707:Middlewares/lvgl/src/core/lv_indev.c ****             }
 2089              		.loc 1 707 49 is_stmt 0 discriminator 3 view .LVU674
 2090 039a 0134     		adds	r4, r4, #1
ARM GAS  /tmp/ccjEXvZv.s 			page 68


 2091              	.LVL203:
 2092              	.L123:
 707:Middlewares/lvgl/src/core/lv_indev.c ****             }
 2093              		.loc 1 707 28 is_stmt 1 discriminator 1 view .LVU675
 707:Middlewares/lvgl/src/core/lv_indev.c ****             }
 2094              		.loc 1 707 36 is_stmt 0 discriminator 1 view .LVU676
 2095 039c B5F90C30 		ldrsh	r3, [r5, #12]
 707:Middlewares/lvgl/src/core/lv_indev.c ****             }
 2096              		.loc 1 707 17 discriminator 1 view .LVU677
 2097 03a0 A342     		cmp	r3, r4
 2098 03a2 F7DC     		bgt	.L124
 2099 03a4 69E6     		b	.L89
 2100              	.L152:
 2101 03a6 00BF     		.align	2
 2102              	.L151:
 2103 03a8 00000000 		.word	.LANCHOR1
 2104 03ac 00000000 		.word	.LANCHOR0
 2105              	.LBE8:
 2106              		.cfi_endproc
 2107              	.LFE174:
 2109              		.section	.text.lv_indev_enable,"ax",%progbits
 2110              		.align	1
 2111              		.global	lv_indev_enable
 2112              		.syntax unified
 2113              		.thumb
 2114              		.thumb_func
 2115              		.fpu fpv4-sp-d16
 2117              	lv_indev_enable:
 2118              	.LVL204:
 2119              	.LFB154:
 123:Middlewares/lvgl/src/core/lv_indev.c ****     if(!indev) return;
 2120              		.loc 1 123 1 is_stmt 1 view -0
 2121              		.cfi_startproc
 2122              		@ args = 0, pretend = 0, frame = 0
 2123              		@ frame_needed = 0, uses_anonymous_args = 0
 2124              		@ link register save eliminated.
 124:Middlewares/lvgl/src/core/lv_indev.c **** 
 2125              		.loc 1 124 5 view .LVU679
 124:Middlewares/lvgl/src/core/lv_indev.c **** 
 2126              		.loc 1 124 7 is_stmt 0 view .LVU680
 2127 0000 28B1     		cbz	r0, .L153
 126:Middlewares/lvgl/src/core/lv_indev.c **** }
 2128              		.loc 1 126 5 is_stmt 1 view .LVU681
 126:Middlewares/lvgl/src/core/lv_indev.c **** }
 2129              		.loc 1 126 35 is_stmt 0 view .LVU682
 2130 0002 81F00101 		eor	r1, r1, #1
 2131              	.LVL205:
 126:Middlewares/lvgl/src/core/lv_indev.c **** }
 2132              		.loc 1 126 26 view .LVU683
 2133 0006 4279     		ldrb	r2, [r0, #5]	@ zero_extendqisi2
 2134 0008 61F38202 		bfi	r2, r1, #2, #1
 2135 000c 4271     		strb	r2, [r0, #5]
 2136              	.L153:
 127:Middlewares/lvgl/src/core/lv_indev.c **** 
 2137              		.loc 1 127 1 view .LVU684
 2138 000e 7047     		bx	lr
 2139              		.cfi_endproc
ARM GAS  /tmp/ccjEXvZv.s 			page 69


 2140              	.LFE154:
 2142              		.section	.text.lv_indev_get_act,"ax",%progbits
 2143              		.align	1
 2144              		.global	lv_indev_get_act
 2145              		.syntax unified
 2146              		.thumb
 2147              		.thumb_func
 2148              		.fpu fpv4-sp-d16
 2150              	lv_indev_get_act:
 2151              	.LFB155:
 130:Middlewares/lvgl/src/core/lv_indev.c ****     return indev_act;
 2152              		.loc 1 130 1 is_stmt 1 view -0
 2153              		.cfi_startproc
 2154              		@ args = 0, pretend = 0, frame = 0
 2155              		@ frame_needed = 0, uses_anonymous_args = 0
 2156              		@ link register save eliminated.
 131:Middlewares/lvgl/src/core/lv_indev.c **** }
 2157              		.loc 1 131 5 view .LVU686
 132:Middlewares/lvgl/src/core/lv_indev.c **** 
 2158              		.loc 1 132 1 is_stmt 0 view .LVU687
 2159 0000 014B     		ldr	r3, .L156
 2160 0002 1868     		ldr	r0, [r3]
 2161 0004 7047     		bx	lr
 2162              	.L157:
 2163 0006 00BF     		.align	2
 2164              	.L156:
 2165 0008 00000000 		.word	.LANCHOR1
 2166              		.cfi_endproc
 2167              	.LFE155:
 2169              		.section	.text.lv_indev_get_type,"ax",%progbits
 2170              		.align	1
 2171              		.global	lv_indev_get_type
 2172              		.syntax unified
 2173              		.thumb
 2174              		.thumb_func
 2175              		.fpu fpv4-sp-d16
 2177              	lv_indev_get_type:
 2178              	.LVL206:
 2179              	.LFB156:
 135:Middlewares/lvgl/src/core/lv_indev.c ****     if(indev == NULL) return LV_INDEV_TYPE_NONE;
 2180              		.loc 1 135 1 is_stmt 1 view -0
 2181              		.cfi_startproc
 2182              		@ args = 0, pretend = 0, frame = 0
 2183              		@ frame_needed = 0, uses_anonymous_args = 0
 2184              		@ link register save eliminated.
 136:Middlewares/lvgl/src/core/lv_indev.c **** 
 2185              		.loc 1 136 5 view .LVU689
 136:Middlewares/lvgl/src/core/lv_indev.c **** 
 2186              		.loc 1 136 7 is_stmt 0 view .LVU690
 2187 0000 10B1     		cbz	r0, .L160
 138:Middlewares/lvgl/src/core/lv_indev.c **** }
 2188              		.loc 1 138 5 is_stmt 1 view .LVU691
 138:Middlewares/lvgl/src/core/lv_indev.c **** }
 2189              		.loc 1 138 17 is_stmt 0 view .LVU692
 2190 0002 0368     		ldr	r3, [r0]
 138:Middlewares/lvgl/src/core/lv_indev.c **** }
 2191              		.loc 1 138 25 view .LVU693
ARM GAS  /tmp/ccjEXvZv.s 			page 70


 2192 0004 1878     		ldrb	r0, [r3]	@ zero_extendqisi2
 2193              	.LVL207:
 138:Middlewares/lvgl/src/core/lv_indev.c **** }
 2194              		.loc 1 138 25 view .LVU694
 2195 0006 7047     		bx	lr
 2196              	.LVL208:
 2197              	.L160:
 136:Middlewares/lvgl/src/core/lv_indev.c **** 
 2198              		.loc 1 136 30 view .LVU695
 2199 0008 0020     		movs	r0, #0
 2200              	.LVL209:
 139:Middlewares/lvgl/src/core/lv_indev.c **** 
 2201              		.loc 1 139 1 view .LVU696
 2202 000a 7047     		bx	lr
 2203              		.cfi_endproc
 2204              	.LFE156:
 2206              		.section	.text.lv_indev_reset,"ax",%progbits
 2207              		.align	1
 2208              		.global	lv_indev_reset
 2209              		.syntax unified
 2210              		.thumb
 2211              		.thumb_func
 2212              		.fpu fpv4-sp-d16
 2214              	lv_indev_reset:
 2215              	.LVL210:
 2216              	.LFB157:
 142:Middlewares/lvgl/src/core/lv_indev.c ****     if(indev) {
 2217              		.loc 1 142 1 is_stmt 1 view -0
 2218              		.cfi_startproc
 2219              		@ args = 0, pretend = 0, frame = 0
 2220              		@ frame_needed = 0, uses_anonymous_args = 0
 142:Middlewares/lvgl/src/core/lv_indev.c ****     if(indev) {
 2221              		.loc 1 142 1 is_stmt 0 view .LVU698
 2222 0000 10B5     		push	{r4, lr}
 2223              	.LCFI5:
 2224              		.cfi_def_cfa_offset 8
 2225              		.cfi_offset 4, -8
 2226              		.cfi_offset 14, -4
 2227 0002 0C46     		mov	r4, r1
 143:Middlewares/lvgl/src/core/lv_indev.c ****         indev->proc.reset_query = 1;
 2228              		.loc 1 143 5 is_stmt 1 view .LVU699
 143:Middlewares/lvgl/src/core/lv_indev.c ****         indev->proc.reset_query = 1;
 2229              		.loc 1 143 7 is_stmt 0 view .LVU700
 2230 0004 F8B1     		cbz	r0, .L162
 2231 0006 0346     		mov	r3, r0
 144:Middlewares/lvgl/src/core/lv_indev.c ****         if(indev_act == indev) indev_obj_act = NULL;
 2232              		.loc 1 144 9 is_stmt 1 view .LVU701
 144:Middlewares/lvgl/src/core/lv_indev.c ****         if(indev_act == indev) indev_obj_act = NULL;
 2233              		.loc 1 144 33 is_stmt 0 view .LVU702
 2234 0008 4279     		ldrb	r2, [r0, #5]	@ zero_extendqisi2
 2235 000a 42F00202 		orr	r2, r2, #2
 2236 000e 4271     		strb	r2, [r0, #5]
 145:Middlewares/lvgl/src/core/lv_indev.c ****         if(obj == NULL || indev->proc.types.pointer.last_pressed == obj) {
 2237              		.loc 1 145 9 is_stmt 1 view .LVU703
 145:Middlewares/lvgl/src/core/lv_indev.c ****         if(obj == NULL || indev->proc.types.pointer.last_pressed == obj) {
 2238              		.loc 1 145 22 is_stmt 0 view .LVU704
 2239 0010 224A     		ldr	r2, .L182
ARM GAS  /tmp/ccjEXvZv.s 			page 71


 2240 0012 1268     		ldr	r2, [r2]
 145:Middlewares/lvgl/src/core/lv_indev.c ****         if(obj == NULL || indev->proc.types.pointer.last_pressed == obj) {
 2241              		.loc 1 145 11 view .LVU705
 2242 0014 8242     		cmp	r2, r0
 2243 0016 12D0     		beq	.L179
 2244              	.LVL211:
 2245              	.L163:
 146:Middlewares/lvgl/src/core/lv_indev.c ****             indev->proc.types.pointer.last_pressed = NULL;
 2246              		.loc 1 146 9 is_stmt 1 view .LVU706
 146:Middlewares/lvgl/src/core/lv_indev.c ****             indev->proc.types.pointer.last_pressed = NULL;
 2247              		.loc 1 146 11 is_stmt 0 view .LVU707
 2248 0018 14B1     		cbz	r4, .L164
 146:Middlewares/lvgl/src/core/lv_indev.c ****             indev->proc.types.pointer.last_pressed = NULL;
 2249              		.loc 1 146 52 discriminator 1 view .LVU708
 2250 001a 1A6B     		ldr	r2, [r3, #48]
 146:Middlewares/lvgl/src/core/lv_indev.c ****             indev->proc.types.pointer.last_pressed = NULL;
 2251              		.loc 1 146 24 discriminator 1 view .LVU709
 2252 001c A242     		cmp	r2, r4
 2253 001e 01D1     		bne	.L165
 2254              	.L164:
 147:Middlewares/lvgl/src/core/lv_indev.c ****         }
 2255              		.loc 1 147 13 is_stmt 1 view .LVU710
 147:Middlewares/lvgl/src/core/lv_indev.c ****         }
 2256              		.loc 1 147 52 is_stmt 0 view .LVU711
 2257 0020 0022     		movs	r2, #0
 2258 0022 1A63     		str	r2, [r3, #48]
 2259              	.L165:
 149:Middlewares/lvgl/src/core/lv_indev.c ****             indev->proc.types.pointer.act_obj = NULL;
 2260              		.loc 1 149 9 is_stmt 1 view .LVU712
 149:Middlewares/lvgl/src/core/lv_indev.c ****             indev->proc.types.pointer.act_obj = NULL;
 2261              		.loc 1 149 11 is_stmt 0 view .LVU713
 2262 0024 14B1     		cbz	r4, .L166
 149:Middlewares/lvgl/src/core/lv_indev.c ****             indev->proc.types.pointer.act_obj = NULL;
 2263              		.loc 1 149 52 discriminator 1 view .LVU714
 2264 0026 5A6A     		ldr	r2, [r3, #36]
 149:Middlewares/lvgl/src/core/lv_indev.c ****             indev->proc.types.pointer.act_obj = NULL;
 2265              		.loc 1 149 24 discriminator 1 view .LVU715
 2266 0028 A242     		cmp	r2, r4
 2267 002a 01D1     		bne	.L167
 2268              	.L166:
 150:Middlewares/lvgl/src/core/lv_indev.c ****         }
 2269              		.loc 1 150 13 is_stmt 1 view .LVU716
 150:Middlewares/lvgl/src/core/lv_indev.c ****         }
 2270              		.loc 1 150 47 is_stmt 0 view .LVU717
 2271 002c 0022     		movs	r2, #0
 2272 002e 5A62     		str	r2, [r3, #36]
 2273              	.L167:
 152:Middlewares/lvgl/src/core/lv_indev.c ****             indev->proc.types.pointer.last_obj = NULL;
 2274              		.loc 1 152 9 is_stmt 1 view .LVU718
 152:Middlewares/lvgl/src/core/lv_indev.c ****             indev->proc.types.pointer.last_obj = NULL;
 2275              		.loc 1 152 11 is_stmt 0 view .LVU719
 2276 0030 14B1     		cbz	r4, .L168
 152:Middlewares/lvgl/src/core/lv_indev.c ****             indev->proc.types.pointer.last_obj = NULL;
 2277              		.loc 1 152 52 discriminator 1 view .LVU720
 2278 0032 9A6A     		ldr	r2, [r3, #40]
 152:Middlewares/lvgl/src/core/lv_indev.c ****             indev->proc.types.pointer.last_obj = NULL;
 2279              		.loc 1 152 24 discriminator 1 view .LVU721
ARM GAS  /tmp/ccjEXvZv.s 			page 72


 2280 0034 A242     		cmp	r2, r4
 2281 0036 01D1     		bne	.L161
 2282              	.L168:
 153:Middlewares/lvgl/src/core/lv_indev.c ****         }
 2283              		.loc 1 153 13 is_stmt 1 view .LVU722
 153:Middlewares/lvgl/src/core/lv_indev.c ****         }
 2284              		.loc 1 153 48 is_stmt 0 view .LVU723
 2285 0038 0022     		movs	r2, #0
 2286 003a 9A62     		str	r2, [r3, #40]
 2287              	.LVL212:
 2288              	.L161:
 174:Middlewares/lvgl/src/core/lv_indev.c **** 
 2289              		.loc 1 174 1 view .LVU724
 2290 003c 10BD     		pop	{r4, pc}
 2291              	.LVL213:
 2292              	.L179:
 145:Middlewares/lvgl/src/core/lv_indev.c ****         if(obj == NULL || indev->proc.types.pointer.last_pressed == obj) {
 2293              		.loc 1 145 32 is_stmt 1 discriminator 1 view .LVU725
 145:Middlewares/lvgl/src/core/lv_indev.c ****         if(obj == NULL || indev->proc.types.pointer.last_pressed == obj) {
 2294              		.loc 1 145 46 is_stmt 0 discriminator 1 view .LVU726
 2295 003e 184A     		ldr	r2, .L182+4
 2296 0040 0021     		movs	r1, #0
 2297              	.LVL214:
 145:Middlewares/lvgl/src/core/lv_indev.c ****         if(obj == NULL || indev->proc.types.pointer.last_pressed == obj) {
 2298              		.loc 1 145 46 discriminator 1 view .LVU727
 2299 0042 1160     		str	r1, [r2]
 2300 0044 E8E7     		b	.L163
 2301              	.LVL215:
 2302              	.L162:
 2303              	.LBB9:
 157:Middlewares/lvgl/src/core/lv_indev.c ****         while(i) {
 2304              		.loc 1 157 9 is_stmt 1 view .LVU728
 157:Middlewares/lvgl/src/core/lv_indev.c ****         while(i) {
 2305              		.loc 1 157 26 is_stmt 0 view .LVU729
 2306 0046 0020     		movs	r0, #0
 2307              	.LVL216:
 157:Middlewares/lvgl/src/core/lv_indev.c ****         while(i) {
 2308              		.loc 1 157 26 view .LVU730
 2309 0048 FFF7FEFF 		bl	lv_indev_get_next
 2310              	.LVL217:
 158:Middlewares/lvgl/src/core/lv_indev.c ****             i->proc.reset_query = 1;
 2311              		.loc 1 158 9 is_stmt 1 view .LVU731
 158:Middlewares/lvgl/src/core/lv_indev.c ****             i->proc.reset_query = 1;
 2312              		.loc 1 158 14 is_stmt 0 view .LVU732
 2313 004c 0AE0     		b	.L170
 2314              	.L181:
 160:Middlewares/lvgl/src/core/lv_indev.c ****                (obj == NULL || i->proc.types.pointer.last_pressed == obj)) {
 2315              		.loc 1 160 102 discriminator 1 view .LVU733
 2316 004e 14B1     		cbz	r4, .L172
 161:Middlewares/lvgl/src/core/lv_indev.c ****                 i->proc.types.pointer.last_pressed = NULL;
 2317              		.loc 1 161 53 view .LVU734
 2318 0050 036B     		ldr	r3, [r0, #48]
 161:Middlewares/lvgl/src/core/lv_indev.c ****                 i->proc.types.pointer.last_pressed = NULL;
 2319              		.loc 1 161 29 view .LVU735
 2320 0052 A342     		cmp	r3, r4
 2321 0054 11D1     		bne	.L171
 2322              	.L172:
ARM GAS  /tmp/ccjEXvZv.s 			page 73


 162:Middlewares/lvgl/src/core/lv_indev.c ****             }
 2323              		.loc 1 162 17 is_stmt 1 view .LVU736
 162:Middlewares/lvgl/src/core/lv_indev.c ****             }
 2324              		.loc 1 162 52 is_stmt 0 view .LVU737
 2325 0056 0023     		movs	r3, #0
 2326 0058 0363     		str	r3, [r0, #48]
 2327 005a 0EE0     		b	.L171
 2328              	.L175:
 168:Middlewares/lvgl/src/core/lv_indev.c ****             }
 2329              		.loc 1 168 17 is_stmt 1 view .LVU738
 168:Middlewares/lvgl/src/core/lv_indev.c ****             }
 2330              		.loc 1 168 48 is_stmt 0 view .LVU739
 2331 005c 0023     		movs	r3, #0
 2332 005e 8362     		str	r3, [r0, #40]
 2333              	.L176:
 170:Middlewares/lvgl/src/core/lv_indev.c ****         }
 2334              		.loc 1 170 13 is_stmt 1 view .LVU740
 170:Middlewares/lvgl/src/core/lv_indev.c ****         }
 2335              		.loc 1 170 17 is_stmt 0 view .LVU741
 2336 0060 FFF7FEFF 		bl	lv_indev_get_next
 2337              	.LVL218:
 2338              	.L170:
 158:Middlewares/lvgl/src/core/lv_indev.c ****             i->proc.reset_query = 1;
 2339              		.loc 1 158 14 is_stmt 1 view .LVU742
 2340 0064 A8B1     		cbz	r0, .L180
 159:Middlewares/lvgl/src/core/lv_indev.c ****             if((i->driver->type == LV_INDEV_TYPE_POINTER || i->driver->type == LV_INDEV_TYPE_KEYPAD
 2341              		.loc 1 159 13 view .LVU743
 159:Middlewares/lvgl/src/core/lv_indev.c ****             if((i->driver->type == LV_INDEV_TYPE_POINTER || i->driver->type == LV_INDEV_TYPE_KEYPAD
 2342              		.loc 1 159 33 is_stmt 0 view .LVU744
 2343 0066 4379     		ldrb	r3, [r0, #5]	@ zero_extendqisi2
 2344 0068 43F00203 		orr	r3, r3, #2
 2345 006c 4371     		strb	r3, [r0, #5]
 160:Middlewares/lvgl/src/core/lv_indev.c ****                (obj == NULL || i->proc.types.pointer.last_pressed == obj)) {
 2346              		.loc 1 160 13 is_stmt 1 view .LVU745
 160:Middlewares/lvgl/src/core/lv_indev.c ****                (obj == NULL || i->proc.types.pointer.last_pressed == obj)) {
 2347              		.loc 1 160 18 is_stmt 0 view .LVU746
 2348 006e 0368     		ldr	r3, [r0]
 160:Middlewares/lvgl/src/core/lv_indev.c ****                (obj == NULL || i->proc.types.pointer.last_pressed == obj)) {
 2349              		.loc 1 160 26 view .LVU747
 2350 0070 1B78     		ldrb	r3, [r3]	@ zero_extendqisi2
 160:Middlewares/lvgl/src/core/lv_indev.c ****                (obj == NULL || i->proc.types.pointer.last_pressed == obj)) {
 2351              		.loc 1 160 58 view .LVU748
 2352 0072 013B     		subs	r3, r3, #1
 2353 0074 DBB2     		uxtb	r3, r3
 160:Middlewares/lvgl/src/core/lv_indev.c ****                (obj == NULL || i->proc.types.pointer.last_pressed == obj)) {
 2354              		.loc 1 160 15 view .LVU749
 2355 0076 012B     		cmp	r3, #1
 2356 0078 E9D9     		bls	.L181
 2357              	.L171:
 164:Middlewares/lvgl/src/core/lv_indev.c ****                 i->proc.types.pointer.act_obj = NULL;
 2358              		.loc 1 164 13 is_stmt 1 view .LVU750
 164:Middlewares/lvgl/src/core/lv_indev.c ****                 i->proc.types.pointer.act_obj = NULL;
 2359              		.loc 1 164 15 is_stmt 0 view .LVU751
 2360 007a 14B1     		cbz	r4, .L173
 164:Middlewares/lvgl/src/core/lv_indev.c ****                 i->proc.types.pointer.act_obj = NULL;
 2361              		.loc 1 164 52 discriminator 1 view .LVU752
 2362 007c 436A     		ldr	r3, [r0, #36]
ARM GAS  /tmp/ccjEXvZv.s 			page 74


 164:Middlewares/lvgl/src/core/lv_indev.c ****                 i->proc.types.pointer.act_obj = NULL;
 2363              		.loc 1 164 28 discriminator 1 view .LVU753
 2364 007e A342     		cmp	r3, r4
 2365 0080 01D1     		bne	.L174
 2366              	.L173:
 165:Middlewares/lvgl/src/core/lv_indev.c ****             }
 2367              		.loc 1 165 17 is_stmt 1 view .LVU754
 165:Middlewares/lvgl/src/core/lv_indev.c ****             }
 2368              		.loc 1 165 47 is_stmt 0 view .LVU755
 2369 0082 0023     		movs	r3, #0
 2370 0084 4362     		str	r3, [r0, #36]
 2371              	.L174:
 167:Middlewares/lvgl/src/core/lv_indev.c ****                 i->proc.types.pointer.last_obj = NULL;
 2372              		.loc 1 167 13 is_stmt 1 view .LVU756
 167:Middlewares/lvgl/src/core/lv_indev.c ****                 i->proc.types.pointer.last_obj = NULL;
 2373              		.loc 1 167 15 is_stmt 0 view .LVU757
 2374 0086 002C     		cmp	r4, #0
 2375 0088 E8D0     		beq	.L175
 167:Middlewares/lvgl/src/core/lv_indev.c ****                 i->proc.types.pointer.last_obj = NULL;
 2376              		.loc 1 167 52 discriminator 1 view .LVU758
 2377 008a 836A     		ldr	r3, [r0, #40]
 167:Middlewares/lvgl/src/core/lv_indev.c ****                 i->proc.types.pointer.last_obj = NULL;
 2378              		.loc 1 167 28 discriminator 1 view .LVU759
 2379 008c A342     		cmp	r3, r4
 2380 008e E7D1     		bne	.L176
 2381 0090 E4E7     		b	.L175
 2382              	.L180:
 172:Middlewares/lvgl/src/core/lv_indev.c ****     }
 2383              		.loc 1 172 9 is_stmt 1 view .LVU760
 172:Middlewares/lvgl/src/core/lv_indev.c ****     }
 2384              		.loc 1 172 23 is_stmt 0 view .LVU761
 2385 0092 034B     		ldr	r3, .L182+4
 2386 0094 0022     		movs	r2, #0
 2387 0096 1A60     		str	r2, [r3]
 2388              	.LBE9:
 174:Middlewares/lvgl/src/core/lv_indev.c **** 
 2389              		.loc 1 174 1 view .LVU762
 2390 0098 D0E7     		b	.L161
 2391              	.L183:
 2392 009a 00BF     		.align	2
 2393              	.L182:
 2394 009c 00000000 		.word	.LANCHOR1
 2395 00a0 00000000 		.word	.LANCHOR0
 2396              		.cfi_endproc
 2397              	.LFE157:
 2399              		.section	.text.lv_indev_reset_long_press,"ax",%progbits
 2400              		.align	1
 2401              		.global	lv_indev_reset_long_press
 2402              		.syntax unified
 2403              		.thumb
 2404              		.thumb_func
 2405              		.fpu fpv4-sp-d16
 2407              	lv_indev_reset_long_press:
 2408              	.LVL219:
 2409              	.LFB158:
 177:Middlewares/lvgl/src/core/lv_indev.c ****     indev->proc.long_pr_sent         = 0;
 2410              		.loc 1 177 1 is_stmt 1 view -0
ARM GAS  /tmp/ccjEXvZv.s 			page 75


 2411              		.cfi_startproc
 2412              		@ args = 0, pretend = 0, frame = 0
 2413              		@ frame_needed = 0, uses_anonymous_args = 0
 177:Middlewares/lvgl/src/core/lv_indev.c ****     indev->proc.long_pr_sent         = 0;
 2414              		.loc 1 177 1 is_stmt 0 view .LVU764
 2415 0000 10B5     		push	{r4, lr}
 2416              	.LCFI6:
 2417              		.cfi_def_cfa_offset 8
 2418              		.cfi_offset 4, -8
 2419              		.cfi_offset 14, -4
 2420 0002 0446     		mov	r4, r0
 178:Middlewares/lvgl/src/core/lv_indev.c ****     indev->proc.longpr_rep_timestamp = lv_tick_get();
 2421              		.loc 1 178 5 is_stmt 1 view .LVU765
 178:Middlewares/lvgl/src/core/lv_indev.c ****     indev->proc.longpr_rep_timestamp = lv_tick_get();
 2422              		.loc 1 178 38 is_stmt 0 view .LVU766
 2423 0004 4379     		ldrb	r3, [r0, #5]	@ zero_extendqisi2
 2424 0006 6FF30003 		bfc	r3, #0, #1
 2425 000a 4371     		strb	r3, [r0, #5]
 179:Middlewares/lvgl/src/core/lv_indev.c ****     indev->proc.pr_timestamp         = lv_tick_get();
 2426              		.loc 1 179 5 is_stmt 1 view .LVU767
 179:Middlewares/lvgl/src/core/lv_indev.c ****     indev->proc.pr_timestamp         = lv_tick_get();
 2427              		.loc 1 179 40 is_stmt 0 view .LVU768
 2428 000c FFF7FEFF 		bl	lv_tick_get
 2429              	.LVL220:
 179:Middlewares/lvgl/src/core/lv_indev.c ****     indev->proc.pr_timestamp         = lv_tick_get();
 2430              		.loc 1 179 38 view .LVU769
 2431 0010 A064     		str	r0, [r4, #72]
 180:Middlewares/lvgl/src/core/lv_indev.c **** }
 2432              		.loc 1 180 5 is_stmt 1 view .LVU770
 180:Middlewares/lvgl/src/core/lv_indev.c **** }
 2433              		.loc 1 180 40 is_stmt 0 view .LVU771
 2434 0012 FFF7FEFF 		bl	lv_tick_get
 2435              	.LVL221:
 180:Middlewares/lvgl/src/core/lv_indev.c **** }
 2436              		.loc 1 180 38 view .LVU772
 2437 0016 6064     		str	r0, [r4, #68]
 181:Middlewares/lvgl/src/core/lv_indev.c **** 
 2438              		.loc 1 181 1 view .LVU773
 2439 0018 10BD     		pop	{r4, pc}
 181:Middlewares/lvgl/src/core/lv_indev.c **** 
 2440              		.loc 1 181 1 view .LVU774
 2441              		.cfi_endproc
 2442              	.LFE158:
 2444              		.section	.text.lv_indev_set_cursor,"ax",%progbits
 2445              		.align	1
 2446              		.global	lv_indev_set_cursor
 2447              		.syntax unified
 2448              		.thumb
 2449              		.thumb_func
 2450              		.fpu fpv4-sp-d16
 2452              	lv_indev_set_cursor:
 2453              	.LVL222:
 2454              	.LFB159:
 184:Middlewares/lvgl/src/core/lv_indev.c ****     if(indev->driver->type != LV_INDEV_TYPE_POINTER) return;
 2455              		.loc 1 184 1 is_stmt 1 view -0
 2456              		.cfi_startproc
 2457              		@ args = 0, pretend = 0, frame = 0
ARM GAS  /tmp/ccjEXvZv.s 			page 76


 2458              		@ frame_needed = 0, uses_anonymous_args = 0
 184:Middlewares/lvgl/src/core/lv_indev.c ****     if(indev->driver->type != LV_INDEV_TYPE_POINTER) return;
 2459              		.loc 1 184 1 is_stmt 0 view .LVU776
 2460 0000 38B5     		push	{r3, r4, r5, lr}
 2461              	.LCFI7:
 2462              		.cfi_def_cfa_offset 16
 2463              		.cfi_offset 3, -16
 2464              		.cfi_offset 4, -12
 2465              		.cfi_offset 5, -8
 2466              		.cfi_offset 14, -4
 185:Middlewares/lvgl/src/core/lv_indev.c **** 
 2467              		.loc 1 185 5 is_stmt 1 view .LVU777
 185:Middlewares/lvgl/src/core/lv_indev.c **** 
 2468              		.loc 1 185 13 is_stmt 0 view .LVU778
 2469 0002 0368     		ldr	r3, [r0]
 185:Middlewares/lvgl/src/core/lv_indev.c **** 
 2470              		.loc 1 185 21 view .LVU779
 2471 0004 1A78     		ldrb	r2, [r3]	@ zero_extendqisi2
 185:Middlewares/lvgl/src/core/lv_indev.c **** 
 2472              		.loc 1 185 7 view .LVU780
 2473 0006 012A     		cmp	r2, #1
 2474 0008 00D0     		beq	.L189
 2475              	.LVL223:
 2476              	.L186:
 192:Middlewares/lvgl/src/core/lv_indev.c **** 
 2477              		.loc 1 192 1 view .LVU781
 2478 000a 38BD     		pop	{r3, r4, r5, pc}
 2479              	.LVL224:
 2480              	.L189:
 192:Middlewares/lvgl/src/core/lv_indev.c **** 
 2481              		.loc 1 192 1 view .LVU782
 2482 000c 0446     		mov	r4, r0
 2483 000e 0D46     		mov	r5, r1
 187:Middlewares/lvgl/src/core/lv_indev.c ****     lv_obj_set_parent(indev->cursor, lv_disp_get_layer_sys(indev->driver->disp));
 2484              		.loc 1 187 5 is_stmt 1 view .LVU783
 187:Middlewares/lvgl/src/core/lv_indev.c ****     lv_obj_set_parent(indev->cursor, lv_disp_get_layer_sys(indev->driver->disp));
 2485              		.loc 1 187 19 is_stmt 0 view .LVU784
 2486 0010 C164     		str	r1, [r0, #76]
 188:Middlewares/lvgl/src/core/lv_indev.c ****     lv_obj_set_pos(indev->cursor, indev->proc.types.pointer.act_point.x, indev->proc.types.pointer.
 2487              		.loc 1 188 5 is_stmt 1 view .LVU785
 188:Middlewares/lvgl/src/core/lv_indev.c ****     lv_obj_set_pos(indev->cursor, indev->proc.types.pointer.act_point.x, indev->proc.types.pointer.
 2488              		.loc 1 188 38 is_stmt 0 view .LVU786
 2489 0012 1869     		ldr	r0, [r3, #16]
 2490              	.LVL225:
 188:Middlewares/lvgl/src/core/lv_indev.c ****     lv_obj_set_pos(indev->cursor, indev->proc.types.pointer.act_point.x, indev->proc.types.pointer.
 2491              		.loc 1 188 38 view .LVU787
 2492 0014 FFF7FEFF 		bl	lv_disp_get_layer_sys
 2493              	.LVL226:
 188:Middlewares/lvgl/src/core/lv_indev.c ****     lv_obj_set_pos(indev->cursor, indev->proc.types.pointer.act_point.x, indev->proc.types.pointer.
 2494              		.loc 1 188 38 view .LVU788
 2495 0018 0146     		mov	r1, r0
 188:Middlewares/lvgl/src/core/lv_indev.c ****     lv_obj_set_pos(indev->cursor, indev->proc.types.pointer.act_point.x, indev->proc.types.pointer.
 2496              		.loc 1 188 5 view .LVU789
 2497 001a 2846     		mov	r0, r5
 2498 001c FFF7FEFF 		bl	lv_obj_set_parent
 2499              	.LVL227:
 189:Middlewares/lvgl/src/core/lv_indev.c ****     lv_obj_clear_flag(indev->cursor, LV_OBJ_FLAG_CLICKABLE);
ARM GAS  /tmp/ccjEXvZv.s 			page 77


 2500              		.loc 1 189 5 is_stmt 1 view .LVU790
 2501 0020 B4F90A20 		ldrsh	r2, [r4, #10]
 2502 0024 B4F90810 		ldrsh	r1, [r4, #8]
 2503 0028 E06C     		ldr	r0, [r4, #76]
 2504 002a FFF7FEFF 		bl	lv_obj_set_pos
 2505              	.LVL228:
 190:Middlewares/lvgl/src/core/lv_indev.c ****     lv_obj_add_flag(indev->cursor, LV_OBJ_FLAG_IGNORE_LAYOUT | LV_OBJ_FLAG_FLOATING);
 2506              		.loc 1 190 5 view .LVU791
 2507 002e 0221     		movs	r1, #2
 2508 0030 E06C     		ldr	r0, [r4, #76]
 2509 0032 FFF7FEFF 		bl	lv_obj_clear_flag
 2510              	.LVL229:
 191:Middlewares/lvgl/src/core/lv_indev.c **** }
 2511              		.loc 1 191 5 view .LVU792
 2512 0036 4FF4C031 		mov	r1, #98304
 2513 003a E06C     		ldr	r0, [r4, #76]
 2514 003c FFF7FEFF 		bl	lv_obj_add_flag
 2515              	.LVL230:
 2516 0040 E3E7     		b	.L186
 2517              		.cfi_endproc
 2518              	.LFE159:
 2520              		.section	.text.lv_indev_set_group,"ax",%progbits
 2521              		.align	1
 2522              		.global	lv_indev_set_group
 2523              		.syntax unified
 2524              		.thumb
 2525              		.thumb_func
 2526              		.fpu fpv4-sp-d16
 2528              	lv_indev_set_group:
 2529              	.LVL231:
 2530              	.LFB160:
 195:Middlewares/lvgl/src/core/lv_indev.c ****     if(indev->driver->type == LV_INDEV_TYPE_KEYPAD || indev->driver->type == LV_INDEV_TYPE_ENCODER)
 2531              		.loc 1 195 1 view -0
 2532              		.cfi_startproc
 2533              		@ args = 0, pretend = 0, frame = 0
 2534              		@ frame_needed = 0, uses_anonymous_args = 0
 2535              		@ link register save eliminated.
 196:Middlewares/lvgl/src/core/lv_indev.c ****         indev->group = group;
 2536              		.loc 1 196 5 view .LVU794
 196:Middlewares/lvgl/src/core/lv_indev.c ****         indev->group = group;
 2537              		.loc 1 196 13 is_stmt 0 view .LVU795
 2538 0000 0368     		ldr	r3, [r0]
 196:Middlewares/lvgl/src/core/lv_indev.c ****         indev->group = group;
 2539              		.loc 1 196 21 view .LVU796
 2540 0002 1B78     		ldrb	r3, [r3]	@ zero_extendqisi2
 196:Middlewares/lvgl/src/core/lv_indev.c ****         indev->group = group;
 2541              		.loc 1 196 7 view .LVU797
 2542 0004 022B     		cmp	r3, #2
 2543 0006 01D0     		beq	.L191
 196:Middlewares/lvgl/src/core/lv_indev.c ****         indev->group = group;
 2544              		.loc 1 196 52 discriminator 1 view .LVU798
 2545 0008 042B     		cmp	r3, #4
 2546 000a 00D1     		bne	.L190
 2547              	.L191:
 197:Middlewares/lvgl/src/core/lv_indev.c ****     }
 2548              		.loc 1 197 9 is_stmt 1 view .LVU799
 197:Middlewares/lvgl/src/core/lv_indev.c ****     }
ARM GAS  /tmp/ccjEXvZv.s 			page 78


 2549              		.loc 1 197 22 is_stmt 0 view .LVU800
 2550 000c 0165     		str	r1, [r0, #80]
 2551              	.L190:
 199:Middlewares/lvgl/src/core/lv_indev.c **** 
 2552              		.loc 1 199 1 view .LVU801
 2553 000e 7047     		bx	lr
 2554              		.cfi_endproc
 2555              	.LFE160:
 2557              		.section	.text.lv_indev_set_button_points,"ax",%progbits
 2558              		.align	1
 2559              		.global	lv_indev_set_button_points
 2560              		.syntax unified
 2561              		.thumb
 2562              		.thumb_func
 2563              		.fpu fpv4-sp-d16
 2565              	lv_indev_set_button_points:
 2566              	.LVL232:
 2567              	.LFB161:
 202:Middlewares/lvgl/src/core/lv_indev.c ****     if(indev->driver->type == LV_INDEV_TYPE_BUTTON) {
 2568              		.loc 1 202 1 is_stmt 1 view -0
 2569              		.cfi_startproc
 2570              		@ args = 0, pretend = 0, frame = 0
 2571              		@ frame_needed = 0, uses_anonymous_args = 0
 2572              		@ link register save eliminated.
 203:Middlewares/lvgl/src/core/lv_indev.c ****         indev->btn_points = points;
 2573              		.loc 1 203 5 view .LVU803
 203:Middlewares/lvgl/src/core/lv_indev.c ****         indev->btn_points = points;
 2574              		.loc 1 203 13 is_stmt 0 view .LVU804
 2575 0000 0368     		ldr	r3, [r0]
 203:Middlewares/lvgl/src/core/lv_indev.c ****         indev->btn_points = points;
 2576              		.loc 1 203 21 view .LVU805
 2577 0002 1B78     		ldrb	r3, [r3]	@ zero_extendqisi2
 203:Middlewares/lvgl/src/core/lv_indev.c ****         indev->btn_points = points;
 2578              		.loc 1 203 7 view .LVU806
 2579 0004 032B     		cmp	r3, #3
 2580 0006 00D0     		beq	.L195
 2581              	.L193:
 206:Middlewares/lvgl/src/core/lv_indev.c **** 
 2582              		.loc 1 206 1 view .LVU807
 2583 0008 7047     		bx	lr
 2584              	.L195:
 204:Middlewares/lvgl/src/core/lv_indev.c ****     }
 2585              		.loc 1 204 9 is_stmt 1 view .LVU808
 204:Middlewares/lvgl/src/core/lv_indev.c ****     }
 2586              		.loc 1 204 27 is_stmt 0 view .LVU809
 2587 000a 4165     		str	r1, [r0, #84]
 206:Middlewares/lvgl/src/core/lv_indev.c **** 
 2588              		.loc 1 206 1 view .LVU810
 2589 000c FCE7     		b	.L193
 2590              		.cfi_endproc
 2591              	.LFE161:
 2593              		.section	.text.lv_indev_get_point,"ax",%progbits
 2594              		.align	1
 2595              		.global	lv_indev_get_point
 2596              		.syntax unified
 2597              		.thumb
 2598              		.thumb_func
ARM GAS  /tmp/ccjEXvZv.s 			page 79


 2599              		.fpu fpv4-sp-d16
 2601              	lv_indev_get_point:
 2602              	.LVL233:
 2603              	.LFB162:
 209:Middlewares/lvgl/src/core/lv_indev.c ****     if(indev == NULL) {
 2604              		.loc 1 209 1 is_stmt 1 view -0
 2605              		.cfi_startproc
 2606              		@ args = 0, pretend = 0, frame = 0
 2607              		@ frame_needed = 0, uses_anonymous_args = 0
 2608              		@ link register save eliminated.
 210:Middlewares/lvgl/src/core/lv_indev.c ****         point->x = 0;
 2609              		.loc 1 210 5 view .LVU812
 210:Middlewares/lvgl/src/core/lv_indev.c ****         point->x = 0;
 2610              		.loc 1 210 7 is_stmt 0 view .LVU813
 2611 0000 0346     		mov	r3, r0
 2612 0002 50B1     		cbz	r0, .L200
 215:Middlewares/lvgl/src/core/lv_indev.c ****         point->x = -1;
 2613              		.loc 1 215 5 is_stmt 1 view .LVU814
 215:Middlewares/lvgl/src/core/lv_indev.c ****         point->x = -1;
 2614              		.loc 1 215 13 is_stmt 0 view .LVU815
 2615 0004 0268     		ldr	r2, [r0]
 215:Middlewares/lvgl/src/core/lv_indev.c ****         point->x = -1;
 2616              		.loc 1 215 21 view .LVU816
 2617 0006 1278     		ldrb	r2, [r2]	@ zero_extendqisi2
 215:Middlewares/lvgl/src/core/lv_indev.c ****         point->x = -1;
 2618              		.loc 1 215 7 view .LVU817
 2619 0008 012A     		cmp	r2, #1
 2620 000a 0AD0     		beq	.L199
 215:Middlewares/lvgl/src/core/lv_indev.c ****         point->x = -1;
 2621              		.loc 1 215 53 discriminator 1 view .LVU818
 2622 000c 032A     		cmp	r2, #3
 2623 000e 08D0     		beq	.L199
 216:Middlewares/lvgl/src/core/lv_indev.c ****         point->y = -1;
 2624              		.loc 1 216 9 is_stmt 1 view .LVU819
 216:Middlewares/lvgl/src/core/lv_indev.c ****         point->y = -1;
 2625              		.loc 1 216 18 is_stmt 0 view .LVU820
 2626 0010 4FF6FF73 		movw	r3, #65535
 2627 0014 0B80     		strh	r3, [r1]	@ movhi
 217:Middlewares/lvgl/src/core/lv_indev.c ****     }
 2628              		.loc 1 217 9 is_stmt 1 view .LVU821
 217:Middlewares/lvgl/src/core/lv_indev.c ****     }
 2629              		.loc 1 217 18 is_stmt 0 view .LVU822
 2630 0016 4B80     		strh	r3, [r1, #2]	@ movhi
 2631 0018 7047     		bx	lr
 2632              	.L200:
 211:Middlewares/lvgl/src/core/lv_indev.c ****         point->y = 0;
 2633              		.loc 1 211 9 is_stmt 1 view .LVU823
 211:Middlewares/lvgl/src/core/lv_indev.c ****         point->y = 0;
 2634              		.loc 1 211 18 is_stmt 0 view .LVU824
 2635 001a 0023     		movs	r3, #0
 2636 001c 0B80     		strh	r3, [r1]	@ movhi
 212:Middlewares/lvgl/src/core/lv_indev.c ****         return;
 2637              		.loc 1 212 9 is_stmt 1 view .LVU825
 212:Middlewares/lvgl/src/core/lv_indev.c ****         return;
 2638              		.loc 1 212 18 is_stmt 0 view .LVU826
 2639 001e 4B80     		strh	r3, [r1, #2]	@ movhi
 213:Middlewares/lvgl/src/core/lv_indev.c ****     }
ARM GAS  /tmp/ccjEXvZv.s 			page 80


 2640              		.loc 1 213 9 is_stmt 1 view .LVU827
 2641 0020 7047     		bx	lr
 2642              	.L199:
 220:Middlewares/lvgl/src/core/lv_indev.c ****         point->y = indev->proc.types.pointer.act_point.y;
 2643              		.loc 1 220 9 view .LVU828
 220:Middlewares/lvgl/src/core/lv_indev.c ****         point->y = indev->proc.types.pointer.act_point.y;
 2644              		.loc 1 220 55 is_stmt 0 view .LVU829
 2645 0022 B3F90820 		ldrsh	r2, [r3, #8]
 220:Middlewares/lvgl/src/core/lv_indev.c ****         point->y = indev->proc.types.pointer.act_point.y;
 2646              		.loc 1 220 18 view .LVU830
 2647 0026 0A80     		strh	r2, [r1]	@ movhi
 221:Middlewares/lvgl/src/core/lv_indev.c ****     }
 2648              		.loc 1 221 9 is_stmt 1 view .LVU831
 221:Middlewares/lvgl/src/core/lv_indev.c ****     }
 2649              		.loc 1 221 55 is_stmt 0 view .LVU832
 2650 0028 B3F90A30 		ldrsh	r3, [r3, #10]
 221:Middlewares/lvgl/src/core/lv_indev.c ****     }
 2651              		.loc 1 221 18 view .LVU833
 2652 002c 4B80     		strh	r3, [r1, #2]	@ movhi
 223:Middlewares/lvgl/src/core/lv_indev.c **** 
 2653              		.loc 1 223 1 view .LVU834
 2654 002e 7047     		bx	lr
 2655              		.cfi_endproc
 2656              	.LFE162:
 2658              		.section	.text.lv_indev_get_gesture_dir,"ax",%progbits
 2659              		.align	1
 2660              		.global	lv_indev_get_gesture_dir
 2661              		.syntax unified
 2662              		.thumb
 2663              		.thumb_func
 2664              		.fpu fpv4-sp-d16
 2666              	lv_indev_get_gesture_dir:
 2667              	.LVL234:
 2668              	.LFB163:
 226:Middlewares/lvgl/src/core/lv_indev.c ****     return indev->proc.types.pointer.gesture_dir;
 2669              		.loc 1 226 1 is_stmt 1 view -0
 2670              		.cfi_startproc
 2671              		@ args = 0, pretend = 0, frame = 0
 2672              		@ frame_needed = 0, uses_anonymous_args = 0
 2673              		@ link register save eliminated.
 227:Middlewares/lvgl/src/core/lv_indev.c **** }
 2674              		.loc 1 227 5 view .LVU836
 227:Middlewares/lvgl/src/core/lv_indev.c **** }
 2675              		.loc 1 227 37 is_stmt 0 view .LVU837
 2676 0000 90F84000 		ldrb	r0, [r0, #64]	@ zero_extendqisi2
 2677              	.LVL235:
 228:Middlewares/lvgl/src/core/lv_indev.c **** 
 2678              		.loc 1 228 1 view .LVU838
 2679 0004 0009     		lsrs	r0, r0, #4
 2680 0006 7047     		bx	lr
 2681              		.cfi_endproc
 2682              	.LFE163:
 2684              		.section	.text.lv_indev_get_key,"ax",%progbits
 2685              		.align	1
 2686              		.global	lv_indev_get_key
 2687              		.syntax unified
 2688              		.thumb
ARM GAS  /tmp/ccjEXvZv.s 			page 81


 2689              		.thumb_func
 2690              		.fpu fpv4-sp-d16
 2692              	lv_indev_get_key:
 2693              	.LVL236:
 2694              	.LFB164:
 231:Middlewares/lvgl/src/core/lv_indev.c ****     if(indev->driver->type != LV_INDEV_TYPE_KEYPAD)
 2695              		.loc 1 231 1 is_stmt 1 view -0
 2696              		.cfi_startproc
 2697              		@ args = 0, pretend = 0, frame = 0
 2698              		@ frame_needed = 0, uses_anonymous_args = 0
 2699              		@ link register save eliminated.
 232:Middlewares/lvgl/src/core/lv_indev.c ****         return 0;
 2700              		.loc 1 232 5 view .LVU840
 232:Middlewares/lvgl/src/core/lv_indev.c ****         return 0;
 2701              		.loc 1 232 13 is_stmt 0 view .LVU841
 2702 0000 0368     		ldr	r3, [r0]
 232:Middlewares/lvgl/src/core/lv_indev.c ****         return 0;
 2703              		.loc 1 232 21 view .LVU842
 2704 0002 1B78     		ldrb	r3, [r3]	@ zero_extendqisi2
 232:Middlewares/lvgl/src/core/lv_indev.c ****         return 0;
 2705              		.loc 1 232 7 view .LVU843
 2706 0004 022B     		cmp	r3, #2
 2707 0006 01D0     		beq	.L205
 233:Middlewares/lvgl/src/core/lv_indev.c ****     else
 2708              		.loc 1 233 16 view .LVU844
 2709 0008 0020     		movs	r0, #0
 2710              	.LVL237:
 236:Middlewares/lvgl/src/core/lv_indev.c **** 
 2711              		.loc 1 236 1 view .LVU845
 2712 000a 7047     		bx	lr
 2713              	.LVL238:
 2714              	.L205:
 235:Middlewares/lvgl/src/core/lv_indev.c **** }
 2715              		.loc 1 235 9 is_stmt 1 view .LVU846
 235:Middlewares/lvgl/src/core/lv_indev.c **** }
 2716              		.loc 1 235 40 is_stmt 0 view .LVU847
 2717 000c C068     		ldr	r0, [r0, #12]
 2718              	.LVL239:
 235:Middlewares/lvgl/src/core/lv_indev.c **** }
 2719              		.loc 1 235 40 view .LVU848
 2720 000e 7047     		bx	lr
 2721              		.cfi_endproc
 2722              	.LFE164:
 2724              		.section	.text.lv_indev_get_scroll_dir,"ax",%progbits
 2725              		.align	1
 2726              		.global	lv_indev_get_scroll_dir
 2727              		.syntax unified
 2728              		.thumb
 2729              		.thumb_func
 2730              		.fpu fpv4-sp-d16
 2732              	lv_indev_get_scroll_dir:
 2733              	.LVL240:
 2734              	.LFB165:
 239:Middlewares/lvgl/src/core/lv_indev.c ****     if(indev == NULL) return false;
 2735              		.loc 1 239 1 is_stmt 1 view -0
 2736              		.cfi_startproc
 2737              		@ args = 0, pretend = 0, frame = 0
ARM GAS  /tmp/ccjEXvZv.s 			page 82


 2738              		@ frame_needed = 0, uses_anonymous_args = 0
 2739              		@ link register save eliminated.
 240:Middlewares/lvgl/src/core/lv_indev.c ****     if(indev->driver->type != LV_INDEV_TYPE_POINTER && indev->driver->type != LV_INDEV_TYPE_BUTTON)
 2740              		.loc 1 240 5 view .LVU850
 240:Middlewares/lvgl/src/core/lv_indev.c ****     if(indev->driver->type != LV_INDEV_TYPE_POINTER && indev->driver->type != LV_INDEV_TYPE_BUTTON)
 2741              		.loc 1 240 7 is_stmt 0 view .LVU851
 2742 0000 0346     		mov	r3, r0
 2743 0002 50B1     		cbz	r0, .L209
 241:Middlewares/lvgl/src/core/lv_indev.c ****     return indev->proc.types.pointer.scroll_dir;
 2744              		.loc 1 241 5 is_stmt 1 view .LVU852
 241:Middlewares/lvgl/src/core/lv_indev.c ****     return indev->proc.types.pointer.scroll_dir;
 2745              		.loc 1 241 13 is_stmt 0 view .LVU853
 2746 0004 0268     		ldr	r2, [r0]
 241:Middlewares/lvgl/src/core/lv_indev.c ****     return indev->proc.types.pointer.scroll_dir;
 2747              		.loc 1 241 21 view .LVU854
 2748 0006 1278     		ldrb	r2, [r2]	@ zero_extendqisi2
 241:Middlewares/lvgl/src/core/lv_indev.c ****     return indev->proc.types.pointer.scroll_dir;
 2749              		.loc 1 241 7 view .LVU855
 2750 0008 012A     		cmp	r2, #1
 2751 000a 01D0     		beq	.L208
 241:Middlewares/lvgl/src/core/lv_indev.c ****     return indev->proc.types.pointer.scroll_dir;
 2752              		.loc 1 241 53 discriminator 1 view .LVU856
 2753 000c 032A     		cmp	r2, #3
 2754 000e 06D1     		bne	.L210
 2755              	.L208:
 242:Middlewares/lvgl/src/core/lv_indev.c **** }
 2756              		.loc 1 242 5 is_stmt 1 view .LVU857
 242:Middlewares/lvgl/src/core/lv_indev.c **** }
 2757              		.loc 1 242 37 is_stmt 0 view .LVU858
 2758 0010 93F84000 		ldrb	r0, [r3, #64]	@ zero_extendqisi2
 2759              	.LVL241:
 242:Middlewares/lvgl/src/core/lv_indev.c **** }
 2760              		.loc 1 242 37 view .LVU859
 2761 0014 00F00F00 		and	r0, r0, #15
 2762 0018 7047     		bx	lr
 2763              	.LVL242:
 2764              	.L209:
 240:Middlewares/lvgl/src/core/lv_indev.c ****     if(indev->driver->type != LV_INDEV_TYPE_POINTER && indev->driver->type != LV_INDEV_TYPE_BUTTON)
 2765              		.loc 1 240 30 view .LVU860
 2766 001a 0020     		movs	r0, #0
 2767              	.LVL243:
 240:Middlewares/lvgl/src/core/lv_indev.c ****     if(indev->driver->type != LV_INDEV_TYPE_POINTER && indev->driver->type != LV_INDEV_TYPE_BUTTON)
 2768              		.loc 1 240 30 view .LVU861
 2769 001c 7047     		bx	lr
 2770              	.LVL244:
 2771              	.L210:
 241:Middlewares/lvgl/src/core/lv_indev.c ****     return indev->proc.types.pointer.scroll_dir;
 2772              		.loc 1 241 108 view .LVU862
 2773 001e 0020     		movs	r0, #0
 2774              	.LVL245:
 243:Middlewares/lvgl/src/core/lv_indev.c **** 
 2775              		.loc 1 243 1 view .LVU863
 2776 0020 7047     		bx	lr
 2777              		.cfi_endproc
 2778              	.LFE165:
 2780              		.section	.text.lv_indev_get_scroll_obj,"ax",%progbits
 2781              		.align	1
ARM GAS  /tmp/ccjEXvZv.s 			page 83


 2782              		.global	lv_indev_get_scroll_obj
 2783              		.syntax unified
 2784              		.thumb
 2785              		.thumb_func
 2786              		.fpu fpv4-sp-d16
 2788              	lv_indev_get_scroll_obj:
 2789              	.LVL246:
 2790              	.LFB166:
 246:Middlewares/lvgl/src/core/lv_indev.c ****     if(indev == NULL) return NULL;
 2791              		.loc 1 246 1 is_stmt 1 view -0
 2792              		.cfi_startproc
 2793              		@ args = 0, pretend = 0, frame = 0
 2794              		@ frame_needed = 0, uses_anonymous_args = 0
 2795              		@ link register save eliminated.
 247:Middlewares/lvgl/src/core/lv_indev.c ****     if(indev->driver->type != LV_INDEV_TYPE_POINTER && indev->driver->type != LV_INDEV_TYPE_BUTTON)
 2796              		.loc 1 247 5 view .LVU865
 247:Middlewares/lvgl/src/core/lv_indev.c ****     if(indev->driver->type != LV_INDEV_TYPE_POINTER && indev->driver->type != LV_INDEV_TYPE_BUTTON)
 2797              		.loc 1 247 7 is_stmt 0 view .LVU866
 2798 0000 0346     		mov	r3, r0
 2799 0002 38B1     		cbz	r0, .L214
 248:Middlewares/lvgl/src/core/lv_indev.c ****     return indev->proc.types.pointer.scroll_obj;
 2800              		.loc 1 248 5 is_stmt 1 view .LVU867
 248:Middlewares/lvgl/src/core/lv_indev.c ****     return indev->proc.types.pointer.scroll_obj;
 2801              		.loc 1 248 13 is_stmt 0 view .LVU868
 2802 0004 0268     		ldr	r2, [r0]
 248:Middlewares/lvgl/src/core/lv_indev.c ****     return indev->proc.types.pointer.scroll_obj;
 2803              		.loc 1 248 21 view .LVU869
 2804 0006 1278     		ldrb	r2, [r2]	@ zero_extendqisi2
 248:Middlewares/lvgl/src/core/lv_indev.c ****     return indev->proc.types.pointer.scroll_obj;
 2805              		.loc 1 248 7 view .LVU870
 2806 0008 012A     		cmp	r2, #1
 2807 000a 01D0     		beq	.L213
 248:Middlewares/lvgl/src/core/lv_indev.c ****     return indev->proc.types.pointer.scroll_obj;
 2808              		.loc 1 248 53 discriminator 1 view .LVU871
 2809 000c 032A     		cmp	r2, #3
 2810 000e 02D1     		bne	.L215
 2811              	.L213:
 249:Middlewares/lvgl/src/core/lv_indev.c **** }
 2812              		.loc 1 249 5 is_stmt 1 view .LVU872
 249:Middlewares/lvgl/src/core/lv_indev.c **** }
 2813              		.loc 1 249 37 is_stmt 0 view .LVU873
 2814 0010 D86A     		ldr	r0, [r3, #44]
 2815              	.LVL247:
 249:Middlewares/lvgl/src/core/lv_indev.c **** }
 2816              		.loc 1 249 37 view .LVU874
 2817 0012 7047     		bx	lr
 2818              	.LVL248:
 2819              	.L214:
 249:Middlewares/lvgl/src/core/lv_indev.c **** }
 2820              		.loc 1 249 37 view .LVU875
 2821 0014 7047     		bx	lr
 2822              	.L215:
 248:Middlewares/lvgl/src/core/lv_indev.c ****     return indev->proc.types.pointer.scroll_obj;
 2823              		.loc 1 248 108 view .LVU876
 2824 0016 0020     		movs	r0, #0
 2825              	.LVL249:
 250:Middlewares/lvgl/src/core/lv_indev.c **** 
ARM GAS  /tmp/ccjEXvZv.s 			page 84


 2826              		.loc 1 250 1 view .LVU877
 2827 0018 7047     		bx	lr
 2828              		.cfi_endproc
 2829              	.LFE166:
 2831              		.section	.text.lv_indev_get_vect,"ax",%progbits
 2832              		.align	1
 2833              		.global	lv_indev_get_vect
 2834              		.syntax unified
 2835              		.thumb
 2836              		.thumb_func
 2837              		.fpu fpv4-sp-d16
 2839              	lv_indev_get_vect:
 2840              	.LVL250:
 2841              	.LFB167:
 253:Middlewares/lvgl/src/core/lv_indev.c ****     point->x = 0;
 2842              		.loc 1 253 1 is_stmt 1 view -0
 2843              		.cfi_startproc
 2844              		@ args = 0, pretend = 0, frame = 0
 2845              		@ frame_needed = 0, uses_anonymous_args = 0
 2846              		@ link register save eliminated.
 254:Middlewares/lvgl/src/core/lv_indev.c ****     point->y = 0;
 2847              		.loc 1 254 5 view .LVU879
 254:Middlewares/lvgl/src/core/lv_indev.c ****     point->y = 0;
 2848              		.loc 1 254 14 is_stmt 0 view .LVU880
 2849 0000 0023     		movs	r3, #0
 2850 0002 0B80     		strh	r3, [r1]	@ movhi
 255:Middlewares/lvgl/src/core/lv_indev.c **** 
 2851              		.loc 1 255 5 is_stmt 1 view .LVU881
 255:Middlewares/lvgl/src/core/lv_indev.c **** 
 2852              		.loc 1 255 14 is_stmt 0 view .LVU882
 2853 0004 4B80     		strh	r3, [r1, #2]	@ movhi
 257:Middlewares/lvgl/src/core/lv_indev.c **** 
 2854              		.loc 1 257 5 is_stmt 1 view .LVU883
 257:Middlewares/lvgl/src/core/lv_indev.c **** 
 2855              		.loc 1 257 7 is_stmt 0 view .LVU884
 2856 0006 0346     		mov	r3, r0
 2857 0008 58B1     		cbz	r0, .L216
 259:Middlewares/lvgl/src/core/lv_indev.c ****         point->x = indev->proc.types.pointer.vect.x;
 2858              		.loc 1 259 5 is_stmt 1 view .LVU885
 259:Middlewares/lvgl/src/core/lv_indev.c ****         point->x = indev->proc.types.pointer.vect.x;
 2859              		.loc 1 259 13 is_stmt 0 view .LVU886
 2860 000a 0268     		ldr	r2, [r0]
 259:Middlewares/lvgl/src/core/lv_indev.c ****         point->x = indev->proc.types.pointer.vect.x;
 2861              		.loc 1 259 21 view .LVU887
 2862 000c 1278     		ldrb	r2, [r2]	@ zero_extendqisi2
 259:Middlewares/lvgl/src/core/lv_indev.c ****         point->x = indev->proc.types.pointer.vect.x;
 2863              		.loc 1 259 7 view .LVU888
 2864 000e 012A     		cmp	r2, #1
 2865 0010 01D0     		beq	.L218
 259:Middlewares/lvgl/src/core/lv_indev.c ****         point->x = indev->proc.types.pointer.vect.x;
 2866              		.loc 1 259 53 discriminator 1 view .LVU889
 2867 0012 032A     		cmp	r2, #3
 2868 0014 05D1     		bne	.L216
 2869              	.L218:
 260:Middlewares/lvgl/src/core/lv_indev.c ****         point->y = indev->proc.types.pointer.vect.y;
 2870              		.loc 1 260 9 is_stmt 1 view .LVU890
 260:Middlewares/lvgl/src/core/lv_indev.c ****         point->y = indev->proc.types.pointer.vect.y;
ARM GAS  /tmp/ccjEXvZv.s 			page 85


 2871              		.loc 1 260 50 is_stmt 0 view .LVU891
 2872 0016 B3F91420 		ldrsh	r2, [r3, #20]
 260:Middlewares/lvgl/src/core/lv_indev.c ****         point->y = indev->proc.types.pointer.vect.y;
 2873              		.loc 1 260 18 view .LVU892
 2874 001a 0A80     		strh	r2, [r1]	@ movhi
 261:Middlewares/lvgl/src/core/lv_indev.c ****     }
 2875              		.loc 1 261 9 is_stmt 1 view .LVU893
 261:Middlewares/lvgl/src/core/lv_indev.c ****     }
 2876              		.loc 1 261 50 is_stmt 0 view .LVU894
 2877 001c B3F91630 		ldrsh	r3, [r3, #22]
 261:Middlewares/lvgl/src/core/lv_indev.c ****     }
 2878              		.loc 1 261 18 view .LVU895
 2879 0020 4B80     		strh	r3, [r1, #2]	@ movhi
 2880              	.L216:
 263:Middlewares/lvgl/src/core/lv_indev.c **** 
 2881              		.loc 1 263 1 view .LVU896
 2882 0022 7047     		bx	lr
 2883              		.cfi_endproc
 2884              	.LFE167:
 2886              		.section	.text.lv_indev_wait_release,"ax",%progbits
 2887              		.align	1
 2888              		.global	lv_indev_wait_release
 2889              		.syntax unified
 2890              		.thumb
 2891              		.thumb_func
 2892              		.fpu fpv4-sp-d16
 2894              	lv_indev_wait_release:
 2895              	.LVL251:
 2896              	.LFB168:
 266:Middlewares/lvgl/src/core/lv_indev.c ****     if(indev == NULL)return;
 2897              		.loc 1 266 1 is_stmt 1 view -0
 2898              		.cfi_startproc
 2899              		@ args = 0, pretend = 0, frame = 0
 2900              		@ frame_needed = 0, uses_anonymous_args = 0
 2901              		@ link register save eliminated.
 267:Middlewares/lvgl/src/core/lv_indev.c ****     indev->proc.wait_until_release = 1;
 2902              		.loc 1 267 5 view .LVU898
 267:Middlewares/lvgl/src/core/lv_indev.c ****     indev->proc.wait_until_release = 1;
 2903              		.loc 1 267 7 is_stmt 0 view .LVU899
 2904 0000 18B1     		cbz	r0, .L219
 268:Middlewares/lvgl/src/core/lv_indev.c **** }
 2905              		.loc 1 268 5 is_stmt 1 view .LVU900
 268:Middlewares/lvgl/src/core/lv_indev.c **** }
 2906              		.loc 1 268 36 is_stmt 0 view .LVU901
 2907 0002 4379     		ldrb	r3, [r0, #5]	@ zero_extendqisi2
 2908 0004 43F00803 		orr	r3, r3, #8
 2909 0008 4371     		strb	r3, [r0, #5]
 2910              	.L219:
 269:Middlewares/lvgl/src/core/lv_indev.c **** 
 2911              		.loc 1 269 1 view .LVU902
 2912 000a 7047     		bx	lr
 2913              		.cfi_endproc
 2914              	.LFE168:
 2916              		.section	.text.lv_indev_get_obj_act,"ax",%progbits
 2917              		.align	1
 2918              		.global	lv_indev_get_obj_act
 2919              		.syntax unified
ARM GAS  /tmp/ccjEXvZv.s 			page 86


 2920              		.thumb
 2921              		.thumb_func
 2922              		.fpu fpv4-sp-d16
 2924              	lv_indev_get_obj_act:
 2925              	.LFB169:
 272:Middlewares/lvgl/src/core/lv_indev.c ****     return indev_obj_act;
 2926              		.loc 1 272 1 is_stmt 1 view -0
 2927              		.cfi_startproc
 2928              		@ args = 0, pretend = 0, frame = 0
 2929              		@ frame_needed = 0, uses_anonymous_args = 0
 2930              		@ link register save eliminated.
 273:Middlewares/lvgl/src/core/lv_indev.c **** }
 2931              		.loc 1 273 5 view .LVU904
 274:Middlewares/lvgl/src/core/lv_indev.c **** 
 2932              		.loc 1 274 1 is_stmt 0 view .LVU905
 2933 0000 014B     		ldr	r3, .L222
 2934 0002 1868     		ldr	r0, [r3]
 2935 0004 7047     		bx	lr
 2936              	.L223:
 2937 0006 00BF     		.align	2
 2938              	.L222:
 2939 0008 00000000 		.word	.LANCHOR0
 2940              		.cfi_endproc
 2941              	.LFE169:
 2943              		.section	.text.lv_indev_get_read_timer,"ax",%progbits
 2944              		.align	1
 2945              		.global	lv_indev_get_read_timer
 2946              		.syntax unified
 2947              		.thumb
 2948              		.thumb_func
 2949              		.fpu fpv4-sp-d16
 2951              	lv_indev_get_read_timer:
 2952              	.LVL252:
 2953              	.LFB170:
 277:Middlewares/lvgl/src/core/lv_indev.c ****     if(!indev) {
 2954              		.loc 1 277 1 is_stmt 1 view -0
 2955              		.cfi_startproc
 2956              		@ args = 0, pretend = 0, frame = 0
 2957              		@ frame_needed = 0, uses_anonymous_args = 0
 2958              		@ link register save eliminated.
 278:Middlewares/lvgl/src/core/lv_indev.c ****         LV_LOG_WARN("lv_indev_get_read_timer: indev was NULL");
 2959              		.loc 1 278 5 view .LVU907
 278:Middlewares/lvgl/src/core/lv_indev.c ****         LV_LOG_WARN("lv_indev_get_read_timer: indev was NULL");
 2960              		.loc 1 278 7 is_stmt 0 view .LVU908
 2961 0000 08B1     		cbz	r0, .L226
 283:Middlewares/lvgl/src/core/lv_indev.c **** }
 2962              		.loc 1 283 5 is_stmt 1 view .LVU909
 283:Middlewares/lvgl/src/core/lv_indev.c **** }
 2963              		.loc 1 283 17 is_stmt 0 view .LVU910
 2964 0002 4068     		ldr	r0, [r0, #4]
 2965              	.LVL253:
 283:Middlewares/lvgl/src/core/lv_indev.c **** }
 2966              		.loc 1 283 17 view .LVU911
 2967 0004 7047     		bx	lr
 2968              	.LVL254:
 2969              	.L226:
 284:Middlewares/lvgl/src/core/lv_indev.c **** 
ARM GAS  /tmp/ccjEXvZv.s 			page 87


 2970              		.loc 1 284 1 view .LVU912
 2971 0006 7047     		bx	lr
 2972              		.cfi_endproc
 2973              	.LFE170:
 2975              		.section	.text.lv_indev_search_obj,"ax",%progbits
 2976              		.align	1
 2977              		.global	lv_indev_search_obj
 2978              		.syntax unified
 2979              		.thumb
 2980              		.thumb_func
 2981              		.fpu fpv4-sp-d16
 2983              	lv_indev_search_obj:
 2984              	.LVL255:
 2985              	.LFB171:
 287:Middlewares/lvgl/src/core/lv_indev.c ****     lv_obj_t * found_p = NULL;
 2986              		.loc 1 287 1 is_stmt 1 view -0
 2987              		.cfi_startproc
 2988              		@ args = 0, pretend = 0, frame = 0
 2989              		@ frame_needed = 0, uses_anonymous_args = 0
 287:Middlewares/lvgl/src/core/lv_indev.c ****     lv_obj_t * found_p = NULL;
 2990              		.loc 1 287 1 is_stmt 0 view .LVU914
 2991 0000 F8B5     		push	{r3, r4, r5, r6, r7, lr}
 2992              	.LCFI8:
 2993              		.cfi_def_cfa_offset 24
 2994              		.cfi_offset 3, -24
 2995              		.cfi_offset 4, -20
 2996              		.cfi_offset 5, -16
 2997              		.cfi_offset 6, -12
 2998              		.cfi_offset 7, -8
 2999              		.cfi_offset 14, -4
 3000 0002 0546     		mov	r5, r0
 3001 0004 0E46     		mov	r6, r1
 288:Middlewares/lvgl/src/core/lv_indev.c **** 
 3002              		.loc 1 288 5 is_stmt 1 view .LVU915
 3003              	.LVL256:
 291:Middlewares/lvgl/src/core/lv_indev.c ****         int32_t i;
 3004              		.loc 1 291 5 view .LVU916
 291:Middlewares/lvgl/src/core/lv_indev.c ****         int32_t i;
 3005              		.loc 1 291 8 is_stmt 0 view .LVU917
 3006 0006 FFF7FEFF 		bl	lv_obj_hit_test
 3007              	.LVL257:
 291:Middlewares/lvgl/src/core/lv_indev.c ****         int32_t i;
 3008              		.loc 1 291 7 view .LVU918
 3009 000a 60B3     		cbz	r0, .L235
 3010              	.LBB10:
 292:Middlewares/lvgl/src/core/lv_indev.c ****         for(i = lv_obj_get_child_cnt(obj) - 1; i >= 0; i--) {
 3011              		.loc 1 292 9 is_stmt 1 view .LVU919
 293:Middlewares/lvgl/src/core/lv_indev.c ****             lv_obj_t * child = lv_obj_get_child(obj, i);
 3012              		.loc 1 293 9 view .LVU920
 293:Middlewares/lvgl/src/core/lv_indev.c ****             lv_obj_t * child = lv_obj_get_child(obj, i);
 3013              		.loc 1 293 17 is_stmt 0 view .LVU921
 3014 000c 2846     		mov	r0, r5
 3015 000e FFF7FEFF 		bl	lv_obj_get_child_cnt
 3016              	.LVL258:
 293:Middlewares/lvgl/src/core/lv_indev.c ****             lv_obj_t * child = lv_obj_get_child(obj, i);
 3017              		.loc 1 293 43 view .LVU922
 3018 0012 441E     		subs	r4, r0, #1
ARM GAS  /tmp/ccjEXvZv.s 			page 88


 3019              	.LVL259:
 293:Middlewares/lvgl/src/core/lv_indev.c ****             lv_obj_t * child = lv_obj_get_child(obj, i);
 3020              		.loc 1 293 43 view .LVU923
 3021              	.LBE10:
 288:Middlewares/lvgl/src/core/lv_indev.c **** 
 3022              		.loc 1 288 16 view .LVU924
 3023 0014 0027     		movs	r7, #0
 3024              	.LVL260:
 3025              	.L229:
 3026              	.LBB13:
 293:Middlewares/lvgl/src/core/lv_indev.c ****             lv_obj_t * child = lv_obj_get_child(obj, i);
 3027              		.loc 1 293 48 is_stmt 1 discriminator 1 view .LVU925
 293:Middlewares/lvgl/src/core/lv_indev.c ****             lv_obj_t * child = lv_obj_get_child(obj, i);
 3028              		.loc 1 293 9 is_stmt 0 discriminator 1 view .LVU926
 3029 0016 002C     		cmp	r4, #0
 3030 0018 0ADB     		blt	.L230
 3031              	.LBB11:
 294:Middlewares/lvgl/src/core/lv_indev.c ****             found_p = lv_indev_search_obj(child, point);
 3032              		.loc 1 294 13 is_stmt 1 view .LVU927
 294:Middlewares/lvgl/src/core/lv_indev.c ****             found_p = lv_indev_search_obj(child, point);
 3033              		.loc 1 294 32 is_stmt 0 view .LVU928
 3034 001a 2146     		mov	r1, r4
 3035 001c 2846     		mov	r0, r5
 3036 001e FFF7FEFF 		bl	lv_obj_get_child
 3037              	.LVL261:
 295:Middlewares/lvgl/src/core/lv_indev.c **** 
 3038              		.loc 1 295 13 is_stmt 1 view .LVU929
 295:Middlewares/lvgl/src/core/lv_indev.c **** 
 3039              		.loc 1 295 23 is_stmt 0 view .LVU930
 3040 0022 3146     		mov	r1, r6
 3041 0024 FFF7FEFF 		bl	lv_indev_search_obj
 3042              	.LVL262:
 298:Middlewares/lvgl/src/core/lv_indev.c ****         }
 3043              		.loc 1 298 13 is_stmt 1 view .LVU931
 298:Middlewares/lvgl/src/core/lv_indev.c ****         }
 3044              		.loc 1 298 15 is_stmt 0 view .LVU932
 3045 0028 0746     		mov	r7, r0
 3046 002a 08B9     		cbnz	r0, .L230
 3047              	.LBE11:
 293:Middlewares/lvgl/src/core/lv_indev.c ****             lv_obj_t * child = lv_obj_get_child(obj, i);
 3048              		.loc 1 293 56 is_stmt 1 discriminator 2 view .LVU933
 293:Middlewares/lvgl/src/core/lv_indev.c ****             lv_obj_t * child = lv_obj_get_child(obj, i);
 3049              		.loc 1 293 57 is_stmt 0 discriminator 2 view .LVU934
 3050 002c 013C     		subs	r4, r4, #1
 3051              	.LVL263:
 293:Middlewares/lvgl/src/core/lv_indev.c ****             lv_obj_t * child = lv_obj_get_child(obj, i);
 3052              		.loc 1 293 57 discriminator 2 view .LVU935
 3053 002e F2E7     		b	.L229
 3054              	.LVL264:
 3055              	.L230:
 303:Middlewares/lvgl/src/core/lv_indev.c ****             lv_obj_t * hidden_i = obj;
 3056              		.loc 1 303 9 is_stmt 1 view .LVU936
 303:Middlewares/lvgl/src/core/lv_indev.c ****             lv_obj_t * hidden_i = obj;
 3057              		.loc 1 303 11 is_stmt 0 view .LVU937
 3058 0030 D7B9     		cbnz	r7, .L227
 303:Middlewares/lvgl/src/core/lv_indev.c ****             lv_obj_t * hidden_i = obj;
 3059              		.loc 1 303 31 discriminator 1 view .LVU938
ARM GAS  /tmp/ccjEXvZv.s 			page 89


 3060 0032 0221     		movs	r1, #2
 3061 0034 2846     		mov	r0, r5
 3062 0036 FFF7FEFF 		bl	lv_obj_has_flag
 3063              	.LVL265:
 303:Middlewares/lvgl/src/core/lv_indev.c ****             lv_obj_t * hidden_i = obj;
 3064              		.loc 1 303 28 discriminator 1 view .LVU939
 3065 003a A8B1     		cbz	r0, .L227
 3066              	.LBB12:
 304:Middlewares/lvgl/src/core/lv_indev.c ****             while(hidden_i != NULL) {
 3067              		.loc 1 304 24 view .LVU940
 3068 003c 2C46     		mov	r4, r5
 3069              	.LVL266:
 3070              	.L232:
 305:Middlewares/lvgl/src/core/lv_indev.c ****                 if(lv_obj_has_flag(hidden_i, LV_OBJ_FLAG_HIDDEN) == true) break;
 3071              		.loc 1 305 18 is_stmt 1 view .LVU941
 3072 003e 4CB1     		cbz	r4, .L233
 306:Middlewares/lvgl/src/core/lv_indev.c ****                 hidden_i = lv_obj_get_parent(hidden_i);
 3073              		.loc 1 306 17 view .LVU942
 306:Middlewares/lvgl/src/core/lv_indev.c ****                 hidden_i = lv_obj_get_parent(hidden_i);
 3074              		.loc 1 306 20 is_stmt 0 view .LVU943
 3075 0040 0121     		movs	r1, #1
 3076 0042 2046     		mov	r0, r4
 3077 0044 FFF7FEFF 		bl	lv_obj_has_flag
 3078              	.LVL267:
 306:Middlewares/lvgl/src/core/lv_indev.c ****                 hidden_i = lv_obj_get_parent(hidden_i);
 3079              		.loc 1 306 19 view .LVU944
 3080 0048 20B9     		cbnz	r0, .L233
 307:Middlewares/lvgl/src/core/lv_indev.c ****             }
 3081              		.loc 1 307 17 is_stmt 1 view .LVU945
 307:Middlewares/lvgl/src/core/lv_indev.c ****             }
 3082              		.loc 1 307 28 is_stmt 0 view .LVU946
 3083 004a 2046     		mov	r0, r4
 3084 004c FFF7FEFF 		bl	lv_obj_get_parent
 3085              	.LVL268:
 3086 0050 0446     		mov	r4, r0
 3087              	.LVL269:
 307:Middlewares/lvgl/src/core/lv_indev.c ****             }
 3088              		.loc 1 307 28 view .LVU947
 3089 0052 F4E7     		b	.L232
 3090              	.LVL270:
 3091              	.L233:
 310:Middlewares/lvgl/src/core/lv_indev.c ****         }
 3092              		.loc 1 310 13 is_stmt 1 view .LVU948
 310:Middlewares/lvgl/src/core/lv_indev.c ****         }
 3093              		.loc 1 310 15 is_stmt 0 view .LVU949
 3094 0054 44B9     		cbnz	r4, .L227
 310:Middlewares/lvgl/src/core/lv_indev.c ****         }
 3095              		.loc 1 310 37 discriminator 1 view .LVU950
 3096 0056 2846     		mov	r0, r5
 3097 0058 FFF7FEFF 		bl	lv_obj_get_state
 3098              	.LVL271:
 310:Middlewares/lvgl/src/core/lv_indev.c ****         }
 3099              		.loc 1 310 33 discriminator 1 view .LVU951
 3100 005c 10F0800F 		tst	r0, #128
 3101 0060 02D1     		bne	.L227
 310:Middlewares/lvgl/src/core/lv_indev.c ****         }
 3102              		.loc 1 310 98 view .LVU952
ARM GAS  /tmp/ccjEXvZv.s 			page 90


 3103 0062 2F46     		mov	r7, r5
 3104              	.LVL272:
 310:Middlewares/lvgl/src/core/lv_indev.c ****         }
 3105              		.loc 1 310 98 view .LVU953
 3106              	.LBE12:
 3107              	.LBE13:
 314:Middlewares/lvgl/src/core/lv_indev.c **** }
 3108              		.loc 1 314 5 is_stmt 1 view .LVU954
 314:Middlewares/lvgl/src/core/lv_indev.c **** }
 3109              		.loc 1 314 12 is_stmt 0 view .LVU955
 3110 0064 00E0     		b	.L227
 3111              	.LVL273:
 3112              	.L235:
 288:Middlewares/lvgl/src/core/lv_indev.c **** 
 3113              		.loc 1 288 16 view .LVU956
 3114 0066 0027     		movs	r7, #0
 3115              	.LVL274:
 3116              	.L227:
 315:Middlewares/lvgl/src/core/lv_indev.c **** 
 3117              		.loc 1 315 1 view .LVU957
 3118 0068 3846     		mov	r0, r7
 3119 006a F8BD     		pop	{r3, r4, r5, r6, r7, pc}
 315:Middlewares/lvgl/src/core/lv_indev.c **** 
 3120              		.loc 1 315 1 view .LVU958
 3121              		.cfi_endproc
 3122              	.LFE171:
 3124              		.section	.text.indev_proc_press,"ax",%progbits
 3125              		.align	1
 3126              		.syntax unified
 3127              		.thumb
 3128              		.thumb_func
 3129              		.fpu fpv4-sp-d16
 3131              	indev_proc_press:
 3132              	.LVL275:
 3133              	.LFB176:
 769:Middlewares/lvgl/src/core/lv_indev.c ****     LV_LOG_INFO("pressed at x:%d y:%d", proc->types.pointer.act_point.x, proc->types.pointer.act_po
 3134              		.loc 1 769 1 is_stmt 1 view -0
 3135              		.cfi_startproc
 3136              		@ args = 0, pretend = 0, frame = 0
 3137              		@ frame_needed = 0, uses_anonymous_args = 0
 769:Middlewares/lvgl/src/core/lv_indev.c ****     LV_LOG_INFO("pressed at x:%d y:%d", proc->types.pointer.act_point.x, proc->types.pointer.act_po
 3138              		.loc 1 769 1 is_stmt 0 view .LVU960
 3139 0000 70B5     		push	{r4, r5, r6, lr}
 3140              	.LCFI9:
 3141              		.cfi_def_cfa_offset 16
 3142              		.cfi_offset 4, -16
 3143              		.cfi_offset 5, -12
 3144              		.cfi_offset 6, -8
 3145              		.cfi_offset 14, -4
 3146 0002 0446     		mov	r4, r0
 770:Middlewares/lvgl/src/core/lv_indev.c ****     indev_obj_act = proc->types.pointer.act_obj;
 3147              		.loc 1 770 106 is_stmt 1 view .LVU961
 771:Middlewares/lvgl/src/core/lv_indev.c **** 
 3148              		.loc 1 771 5 view .LVU962
 771:Middlewares/lvgl/src/core/lv_indev.c **** 
 3149              		.loc 1 771 40 is_stmt 0 view .LVU963
 3150 0004 006A     		ldr	r0, [r0, #32]
ARM GAS  /tmp/ccjEXvZv.s 			page 91


 3151              	.LVL276:
 771:Middlewares/lvgl/src/core/lv_indev.c **** 
 3152              		.loc 1 771 19 view .LVU964
 3153 0006 9E4B     		ldr	r3, .L257
 3154 0008 1860     		str	r0, [r3]
 773:Middlewares/lvgl/src/core/lv_indev.c **** 
 3155              		.loc 1 773 5 is_stmt 1 view .LVU965
 773:Middlewares/lvgl/src/core/lv_indev.c **** 
 3156              		.loc 1 773 33 is_stmt 0 view .LVU966
 3157 000a 6378     		ldrb	r3, [r4, #1]	@ zero_extendqisi2
 773:Middlewares/lvgl/src/core/lv_indev.c **** 
 3158              		.loc 1 773 7 view .LVU967
 3159 000c 13F0080F 		tst	r3, #8
 3160 0010 40F08C80 		bne	.L239
 775:Middlewares/lvgl/src/core/lv_indev.c ****     bool new_obj_searched = false;
 3161              		.loc 1 775 5 is_stmt 1 view .LVU968
 775:Middlewares/lvgl/src/core/lv_indev.c ****     bool new_obj_searched = false;
 3162              		.loc 1 775 33 is_stmt 0 view .LVU969
 3163 0014 9B4B     		ldr	r3, .L257+4
 3164 0016 1B68     		ldr	r3, [r3]
 3165 0018 1B68     		ldr	r3, [r3]
 775:Middlewares/lvgl/src/core/lv_indev.c ****     bool new_obj_searched = false;
 3166              		.loc 1 775 17 view .LVU970
 3167 001a 1D69     		ldr	r5, [r3, #16]
 3168              	.LVL277:
 776:Middlewares/lvgl/src/core/lv_indev.c **** 
 3169              		.loc 1 776 5 is_stmt 1 view .LVU971
 779:Middlewares/lvgl/src/core/lv_indev.c ****         indev_obj_act = lv_indev_search_obj(lv_disp_get_layer_sys(disp), &proc->types.pointer.act_p
 3170              		.loc 1 779 5 view .LVU972
 779:Middlewares/lvgl/src/core/lv_indev.c ****         indev_obj_act = lv_indev_search_obj(lv_disp_get_layer_sys(disp), &proc->types.pointer.act_p
 3171              		.loc 1 779 7 is_stmt 0 view .LVU973
 3172 001c 0028     		cmp	r0, #0
 3173 001e 00F08680 		beq	.L250
 788:Middlewares/lvgl/src/core/lv_indev.c ****             lv_obj_has_flag(indev_obj_act, LV_OBJ_FLAG_PRESS_LOCK) == false) {
 3174              		.loc 1 788 10 is_stmt 1 view .LVU974
 788:Middlewares/lvgl/src/core/lv_indev.c ****             lv_obj_has_flag(indev_obj_act, LV_OBJ_FLAG_PRESS_LOCK) == false) {
 3175              		.loc 1 788 32 is_stmt 0 view .LVU975
 3176 0022 A36A     		ldr	r3, [r4, #40]
 788:Middlewares/lvgl/src/core/lv_indev.c ****             lv_obj_has_flag(indev_obj_act, LV_OBJ_FLAG_PRESS_LOCK) == false) {
 3177              		.loc 1 788 12 view .LVU976
 3178 0024 002B     		cmp	r3, #0
 3179 0026 00F0B280 		beq	.L251
 3180              	.LVL278:
 3181              	.L244:
 807:Middlewares/lvgl/src/core/lv_indev.c ****         proc->types.pointer.last_point.x = proc->types.pointer.act_point.x;
 3182              		.loc 1 807 5 is_stmt 1 view .LVU977
 807:Middlewares/lvgl/src/core/lv_indev.c ****         proc->types.pointer.last_point.x = proc->types.pointer.act_point.x;
 3183              		.loc 1 807 44 is_stmt 0 view .LVU978
 3184 002a 206A     		ldr	r0, [r4, #32]
 807:Middlewares/lvgl/src/core/lv_indev.c ****         proc->types.pointer.last_point.x = proc->types.pointer.act_point.x;
 3185              		.loc 1 807 22 view .LVU979
 3186 002c 944B     		ldr	r3, .L257
 3187 002e 1B68     		ldr	r3, [r3]
 807:Middlewares/lvgl/src/core/lv_indev.c ****         proc->types.pointer.last_point.x = proc->types.pointer.act_point.x;
 3188              		.loc 1 807 7 view .LVU980
 3189 0030 9842     		cmp	r0, r3
 3190 0032 4FD0     		beq	.L246
ARM GAS  /tmp/ccjEXvZv.s 			page 92


 808:Middlewares/lvgl/src/core/lv_indev.c ****         proc->types.pointer.last_point.y = proc->types.pointer.act_point.y;
 3191              		.loc 1 808 9 is_stmt 1 view .LVU981
 808:Middlewares/lvgl/src/core/lv_indev.c ****         proc->types.pointer.last_point.y = proc->types.pointer.act_point.y;
 3192              		.loc 1 808 73 is_stmt 0 view .LVU982
 3193 0034 B4F90430 		ldrsh	r3, [r4, #4]
 808:Middlewares/lvgl/src/core/lv_indev.c ****         proc->types.pointer.last_point.y = proc->types.pointer.act_point.y;
 3194              		.loc 1 808 42 view .LVU983
 3195 0038 2381     		strh	r3, [r4, #8]	@ movhi
 809:Middlewares/lvgl/src/core/lv_indev.c **** 
 3196              		.loc 1 809 9 is_stmt 1 view .LVU984
 809:Middlewares/lvgl/src/core/lv_indev.c **** 
 3197              		.loc 1 809 73 is_stmt 0 view .LVU985
 3198 003a B4F90630 		ldrsh	r3, [r4, #6]
 809:Middlewares/lvgl/src/core/lv_indev.c **** 
 3199              		.loc 1 809 42 view .LVU986
 3200 003e 6381     		strh	r3, [r4, #10]	@ movhi
 812:Middlewares/lvgl/src/core/lv_indev.c ****             /*Save the obj because in special cases `act_obj` can change in the Call the ancestor's
 3201              		.loc 1 812 9 is_stmt 1 view .LVU987
 812:Middlewares/lvgl/src/core/lv_indev.c ****             /*Save the obj because in special cases `act_obj` can change in the Call the ancestor's
 3202              		.loc 1 812 11 is_stmt 0 view .LVU988
 3203 0040 48B1     		cbz	r0, .L247
 3204              	.LBB14:
 814:Middlewares/lvgl/src/core/lv_indev.c **** 
 3205              		.loc 1 814 13 is_stmt 1 view .LVU989
 3206              	.LVL279:
 816:Middlewares/lvgl/src/core/lv_indev.c ****             if(indev_reset_check(proc)) return;
 3207              		.loc 1 816 13 view .LVU990
 3208 0042 904B     		ldr	r3, .L257+4
 3209 0044 1A68     		ldr	r2, [r3]
 3210 0046 0321     		movs	r1, #3
 3211 0048 FFF7FEFF 		bl	lv_event_send
 3212              	.LVL280:
 817:Middlewares/lvgl/src/core/lv_indev.c ****         }
 3213              		.loc 1 817 13 view .LVU991
 817:Middlewares/lvgl/src/core/lv_indev.c ****         }
 3214              		.loc 1 817 16 is_stmt 0 view .LVU992
 3215 004c 2046     		mov	r0, r4
 3216 004e FFF7FEFF 		bl	indev_reset_check
 3217              	.LVL281:
 817:Middlewares/lvgl/src/core/lv_indev.c ****         }
 3218              		.loc 1 817 15 view .LVU993
 3219 0052 0028     		cmp	r0, #0
 3220 0054 6AD1     		bne	.L239
 3221              	.L247:
 817:Middlewares/lvgl/src/core/lv_indev.c ****         }
 3222              		.loc 1 817 15 view .LVU994
 3223              	.LBE14:
 820:Middlewares/lvgl/src/core/lv_indev.c ****         proc->types.pointer.last_obj = indev_obj_act;
 3224              		.loc 1 820 9 is_stmt 1 view .LVU995
 820:Middlewares/lvgl/src/core/lv_indev.c ****         proc->types.pointer.last_obj = indev_obj_act;
 3225              		.loc 1 820 38 is_stmt 0 view .LVU996
 3226 0056 8A4B     		ldr	r3, .L257
 3227 0058 1B68     		ldr	r3, [r3]
 3228 005a 2362     		str	r3, [r4, #32]
 821:Middlewares/lvgl/src/core/lv_indev.c **** 
 3229              		.loc 1 821 9 is_stmt 1 view .LVU997
 821:Middlewares/lvgl/src/core/lv_indev.c **** 
ARM GAS  /tmp/ccjEXvZv.s 			page 93


 3230              		.loc 1 821 38 is_stmt 0 view .LVU998
 3231 005c 6362     		str	r3, [r4, #36]
 823:Middlewares/lvgl/src/core/lv_indev.c ****             /*Save the time when the obj pressed to count long press time.*/
 3232              		.loc 1 823 9 is_stmt 1 view .LVU999
 823:Middlewares/lvgl/src/core/lv_indev.c ****             /*Save the time when the obj pressed to count long press time.*/
 3233              		.loc 1 823 11 is_stmt 0 view .LVU1000
 3234 005e 002B     		cmp	r3, #0
 3235 0060 38D0     		beq	.L246
 825:Middlewares/lvgl/src/core/lv_indev.c ****             proc->long_pr_sent                 = 0;
 3236              		.loc 1 825 13 is_stmt 1 view .LVU1001
 825:Middlewares/lvgl/src/core/lv_indev.c ****             proc->long_pr_sent                 = 0;
 3237              		.loc 1 825 50 is_stmt 0 view .LVU1002
 3238 0062 FFF7FEFF 		bl	lv_tick_get
 3239              	.LVL282:
 825:Middlewares/lvgl/src/core/lv_indev.c ****             proc->long_pr_sent                 = 0;
 3240              		.loc 1 825 48 view .LVU1003
 3241 0066 2064     		str	r0, [r4, #64]
 826:Middlewares/lvgl/src/core/lv_indev.c ****             proc->types.pointer.scroll_sum.x     = 0;
 3242              		.loc 1 826 13 is_stmt 1 view .LVU1004
 826:Middlewares/lvgl/src/core/lv_indev.c ****             proc->types.pointer.scroll_sum.x     = 0;
 3243              		.loc 1 826 48 is_stmt 0 view .LVU1005
 3244 0068 6378     		ldrb	r3, [r4, #1]	@ zero_extendqisi2
 3245 006a 6FF30003 		bfc	r3, #0, #1
 3246 006e 6370     		strb	r3, [r4, #1]
 827:Middlewares/lvgl/src/core/lv_indev.c ****             proc->types.pointer.scroll_sum.y     = 0;
 3247              		.loc 1 827 13 is_stmt 1 view .LVU1006
 827:Middlewares/lvgl/src/core/lv_indev.c ****             proc->types.pointer.scroll_sum.y     = 0;
 3248              		.loc 1 827 50 is_stmt 0 view .LVU1007
 3249 0070 0023     		movs	r3, #0
 3250 0072 A382     		strh	r3, [r4, #20]	@ movhi
 828:Middlewares/lvgl/src/core/lv_indev.c ****             proc->types.pointer.scroll_dir = LV_DIR_NONE;
 3251              		.loc 1 828 13 is_stmt 1 view .LVU1008
 828:Middlewares/lvgl/src/core/lv_indev.c ****             proc->types.pointer.scroll_dir = LV_DIR_NONE;
 3252              		.loc 1 828 50 is_stmt 0 view .LVU1009
 3253 0074 E382     		strh	r3, [r4, #22]	@ movhi
 829:Middlewares/lvgl/src/core/lv_indev.c ****             proc->types.pointer.gesture_dir = LV_DIR_NONE;
 3254              		.loc 1 829 13 is_stmt 1 view .LVU1010
 829:Middlewares/lvgl/src/core/lv_indev.c ****             proc->types.pointer.gesture_dir = LV_DIR_NONE;
 3255              		.loc 1 829 44 is_stmt 0 view .LVU1011
 3256 0076 94F83C20 		ldrb	r2, [r4, #60]	@ zero_extendqisi2
 3257 007a 63F30302 		bfi	r2, r3, #0, #4
 3258 007e 84F83C20 		strb	r2, [r4, #60]
 830:Middlewares/lvgl/src/core/lv_indev.c ****             proc->types.pointer.gesture_sent   = 0;
 3259              		.loc 1 830 13 is_stmt 1 view .LVU1012
 830:Middlewares/lvgl/src/core/lv_indev.c ****             proc->types.pointer.gesture_sent   = 0;
 3260              		.loc 1 830 45 is_stmt 0 view .LVU1013
 3261 0082 D2B2     		uxtb	r2, r2
 3262 0084 63F30712 		bfi	r2, r3, #4, #4
 3263 0088 84F83C20 		strb	r2, [r4, #60]
 831:Middlewares/lvgl/src/core/lv_indev.c ****             proc->types.pointer.gesture_sum.x  = 0;
 3264              		.loc 1 831 13 is_stmt 1 view .LVU1014
 831:Middlewares/lvgl/src/core/lv_indev.c ****             proc->types.pointer.gesture_sum.x  = 0;
 3265              		.loc 1 831 48 is_stmt 0 view .LVU1015
 3266 008c 94F83D20 		ldrb	r2, [r4, #61]	@ zero_extendqisi2
 3267 0090 63F30002 		bfi	r2, r3, #0, #1
 3268 0094 84F83D20 		strb	r2, [r4, #61]
 832:Middlewares/lvgl/src/core/lv_indev.c ****             proc->types.pointer.gesture_sum.y  = 0;
ARM GAS  /tmp/ccjEXvZv.s 			page 94


 3269              		.loc 1 832 13 is_stmt 1 view .LVU1016
 832:Middlewares/lvgl/src/core/lv_indev.c ****             proc->types.pointer.gesture_sum.y  = 0;
 3270              		.loc 1 832 48 is_stmt 0 view .LVU1017
 3271 0098 2387     		strh	r3, [r4, #56]	@ movhi
 833:Middlewares/lvgl/src/core/lv_indev.c ****             proc->types.pointer.vect.x         = 0;
 3272              		.loc 1 833 13 is_stmt 1 view .LVU1018
 833:Middlewares/lvgl/src/core/lv_indev.c ****             proc->types.pointer.vect.x         = 0;
 3273              		.loc 1 833 48 is_stmt 0 view .LVU1019
 3274 009a 6387     		strh	r3, [r4, #58]	@ movhi
 834:Middlewares/lvgl/src/core/lv_indev.c ****             proc->types.pointer.vect.y         = 0;
 3275              		.loc 1 834 13 is_stmt 1 view .LVU1020
 834:Middlewares/lvgl/src/core/lv_indev.c ****             proc->types.pointer.vect.y         = 0;
 3276              		.loc 1 834 48 is_stmt 0 view .LVU1021
 3277 009c 2382     		strh	r3, [r4, #16]	@ movhi
 835:Middlewares/lvgl/src/core/lv_indev.c **** 
 3278              		.loc 1 835 13 is_stmt 1 view .LVU1022
 835:Middlewares/lvgl/src/core/lv_indev.c **** 
 3279              		.loc 1 835 48 is_stmt 0 view .LVU1023
 3280 009e 6382     		strh	r3, [r4, #18]	@ movhi
 838:Middlewares/lvgl/src/core/lv_indev.c ****             if(indev_reset_check(proc)) return;
 3281              		.loc 1 838 13 is_stmt 1 view .LVU1024
 3282 00a0 784B     		ldr	r3, .L257+4
 3283 00a2 1A68     		ldr	r2, [r3]
 3284 00a4 0121     		movs	r1, #1
 3285 00a6 764B     		ldr	r3, .L257
 3286 00a8 1868     		ldr	r0, [r3]
 3287 00aa FFF7FEFF 		bl	lv_event_send
 3288              	.LVL283:
 839:Middlewares/lvgl/src/core/lv_indev.c **** 
 3289              		.loc 1 839 13 view .LVU1025
 839:Middlewares/lvgl/src/core/lv_indev.c **** 
 3290              		.loc 1 839 16 is_stmt 0 view .LVU1026
 3291 00ae 2046     		mov	r0, r4
 3292 00b0 FFF7FEFF 		bl	indev_reset_check
 3293              	.LVL284:
 839:Middlewares/lvgl/src/core/lv_indev.c **** 
 3294              		.loc 1 839 15 view .LVU1027
 3295 00b4 0028     		cmp	r0, #0
 3296 00b6 39D1     		bne	.L239
 841:Middlewares/lvgl/src/core/lv_indev.c **** 
 3297              		.loc 1 841 13 is_stmt 1 view .LVU1028
 841:Middlewares/lvgl/src/core/lv_indev.c **** 
 3298              		.loc 1 841 25 is_stmt 0 view .LVU1029
 3299 00b8 724B     		ldr	r3, .L257+4
 3300 00ba 1868     		ldr	r0, [r3]
 841:Middlewares/lvgl/src/core/lv_indev.c **** 
 3301              		.loc 1 841 16 view .LVU1030
 3302 00bc 4379     		ldrb	r3, [r0, #5]	@ zero_extendqisi2
 841:Middlewares/lvgl/src/core/lv_indev.c **** 
 3303              		.loc 1 841 15 view .LVU1031
 3304 00be 13F0080F 		tst	r3, #8
 3305 00c2 33D1     		bne	.L239
 844:Middlewares/lvgl/src/core/lv_indev.c ****             if(indev_reset_check(proc)) return;
 3306              		.loc 1 844 13 is_stmt 1 view .LVU1032
 3307 00c4 0430     		adds	r0, r0, #4
 3308 00c6 FFF7FEFF 		bl	indev_click_focus
 3309              	.LVL285:
ARM GAS  /tmp/ccjEXvZv.s 			page 95


 845:Middlewares/lvgl/src/core/lv_indev.c **** 
 3310              		.loc 1 845 13 view .LVU1033
 845:Middlewares/lvgl/src/core/lv_indev.c **** 
 3311              		.loc 1 845 16 is_stmt 0 view .LVU1034
 3312 00ca 2046     		mov	r0, r4
 3313 00cc FFF7FEFF 		bl	indev_reset_check
 3314              	.LVL286:
 845:Middlewares/lvgl/src/core/lv_indev.c **** 
 3315              		.loc 1 845 15 view .LVU1035
 3316 00d0 0028     		cmp	r0, #0
 3317 00d2 2BD1     		bne	.L239
 3318              	.L246:
 851:Middlewares/lvgl/src/core/lv_indev.c ****     proc->types.pointer.vect.y = proc->types.pointer.act_point.y - proc->types.pointer.last_point.y
 3319              		.loc 1 851 5 is_stmt 1 view .LVU1036
 851:Middlewares/lvgl/src/core/lv_indev.c ****     proc->types.pointer.vect.y = proc->types.pointer.act_point.y - proc->types.pointer.last_point.y
 3320              		.loc 1 851 63 is_stmt 0 view .LVU1037
 3321 00d4 A188     		ldrh	r1, [r4, #4]
 851:Middlewares/lvgl/src/core/lv_indev.c ****     proc->types.pointer.vect.y = proc->types.pointer.act_point.y - proc->types.pointer.last_point.y
 3322              		.loc 1 851 98 view .LVU1038
 3323 00d6 2089     		ldrh	r0, [r4, #8]
 851:Middlewares/lvgl/src/core/lv_indev.c ****     proc->types.pointer.vect.y = proc->types.pointer.act_point.y - proc->types.pointer.last_point.y
 3324              		.loc 1 851 66 view .LVU1039
 3325 00d8 091A     		subs	r1, r1, r0
 3326 00da 08B2     		sxth	r0, r1
 851:Middlewares/lvgl/src/core/lv_indev.c ****     proc->types.pointer.vect.y = proc->types.pointer.act_point.y - proc->types.pointer.last_point.y
 3327              		.loc 1 851 32 view .LVU1040
 3328 00dc 2082     		strh	r0, [r4, #16]	@ movhi
 852:Middlewares/lvgl/src/core/lv_indev.c **** 
 3329              		.loc 1 852 5 is_stmt 1 view .LVU1041
 852:Middlewares/lvgl/src/core/lv_indev.c **** 
 3330              		.loc 1 852 63 is_stmt 0 view .LVU1042
 3331 00de E388     		ldrh	r3, [r4, #6]
 852:Middlewares/lvgl/src/core/lv_indev.c **** 
 3332              		.loc 1 852 98 view .LVU1043
 3333 00e0 6289     		ldrh	r2, [r4, #10]
 852:Middlewares/lvgl/src/core/lv_indev.c **** 
 3334              		.loc 1 852 66 view .LVU1044
 3335 00e2 9B1A     		subs	r3, r3, r2
 3336 00e4 1AB2     		sxth	r2, r3
 852:Middlewares/lvgl/src/core/lv_indev.c **** 
 3337              		.loc 1 852 32 view .LVU1045
 3338 00e6 6282     		strh	r2, [r4, #18]	@ movhi
 854:Middlewares/lvgl/src/core/lv_indev.c ****     proc->types.pointer.scroll_throw_vect.y = (proc->types.pointer.scroll_throw_vect.y * 4) >> 3;
 3339              		.loc 1 854 5 is_stmt 1 view .LVU1046
 854:Middlewares/lvgl/src/core/lv_indev.c ****     proc->types.pointer.scroll_throw_vect.y = (proc->types.pointer.scroll_throw_vect.y * 4) >> 3;
 3340              		.loc 1 854 85 is_stmt 0 view .LVU1047
 3341 00e8 B4F91810 		ldrsh	r1, [r4, #24]
 854:Middlewares/lvgl/src/core/lv_indev.c ****     proc->types.pointer.scroll_throw_vect.y = (proc->types.pointer.scroll_throw_vect.y * 4) >> 3;
 3342              		.loc 1 854 45 view .LVU1048
 3343 00ec 4910     		asrs	r1, r1, #1
 3344 00ee 2183     		strh	r1, [r4, #24]	@ movhi
 855:Middlewares/lvgl/src/core/lv_indev.c **** 
 3345              		.loc 1 855 5 is_stmt 1 view .LVU1049
 855:Middlewares/lvgl/src/core/lv_indev.c **** 
 3346              		.loc 1 855 85 is_stmt 0 view .LVU1050
 3347 00f0 B4F91A30 		ldrsh	r3, [r4, #26]
 855:Middlewares/lvgl/src/core/lv_indev.c **** 
ARM GAS  /tmp/ccjEXvZv.s 			page 96


 3348              		.loc 1 855 45 view .LVU1051
 3349 00f4 5B10     		asrs	r3, r3, #1
 3350 00f6 6383     		strh	r3, [r4, #26]	@ movhi
 857:Middlewares/lvgl/src/core/lv_indev.c ****     proc->types.pointer.scroll_throw_vect.y += (proc->types.pointer.vect.y * 4) >> 3;
 3351              		.loc 1 857 5 is_stmt 1 view .LVU1052
 857:Middlewares/lvgl/src/core/lv_indev.c ****     proc->types.pointer.scroll_throw_vect.y += (proc->types.pointer.vect.y * 4) >> 3;
 3352              		.loc 1 857 45 is_stmt 0 view .LVU1053
 3353 00f8 01EB6001 		add	r1, r1, r0, asr #1
 3354 00fc 2183     		strh	r1, [r4, #24]	@ movhi
 858:Middlewares/lvgl/src/core/lv_indev.c **** 
 3355              		.loc 1 858 5 is_stmt 1 view .LVU1054
 858:Middlewares/lvgl/src/core/lv_indev.c **** 
 3356              		.loc 1 858 45 is_stmt 0 view .LVU1055
 3357 00fe 03EB6203 		add	r3, r3, r2, asr #1
 3358 0102 6383     		strh	r3, [r4, #26]	@ movhi
 860:Middlewares/lvgl/src/core/lv_indev.c **** 
 3359              		.loc 1 860 5 is_stmt 1 view .LVU1056
 860:Middlewares/lvgl/src/core/lv_indev.c **** 
 3360              		.loc 1 860 47 is_stmt 0 view .LVU1057
 3361 0104 A369     		ldr	r3, [r4, #24]
 3362 0106 E361     		str	r3, [r4, #28]
 862:Middlewares/lvgl/src/core/lv_indev.c ****         lv_event_send(indev_obj_act, LV_EVENT_PRESSING, indev_act);
 3363              		.loc 1 862 5 is_stmt 1 view .LVU1058
 862:Middlewares/lvgl/src/core/lv_indev.c ****         lv_event_send(indev_obj_act, LV_EVENT_PRESSING, indev_act);
 3364              		.loc 1 862 8 is_stmt 0 view .LVU1059
 3365 0108 5D4B     		ldr	r3, .L257
 3366 010a 1868     		ldr	r0, [r3]
 862:Middlewares/lvgl/src/core/lv_indev.c ****         lv_event_send(indev_obj_act, LV_EVENT_PRESSING, indev_act);
 3367              		.loc 1 862 7 view .LVU1060
 3368 010c 70B1     		cbz	r0, .L239
 863:Middlewares/lvgl/src/core/lv_indev.c ****         if(indev_reset_check(proc)) return;
 3369              		.loc 1 863 9 is_stmt 1 view .LVU1061
 3370 010e 5D4B     		ldr	r3, .L257+4
 3371 0110 1A68     		ldr	r2, [r3]
 3372 0112 0221     		movs	r1, #2
 3373 0114 FFF7FEFF 		bl	lv_event_send
 3374              	.LVL287:
 864:Middlewares/lvgl/src/core/lv_indev.c **** 
 3375              		.loc 1 864 9 view .LVU1062
 864:Middlewares/lvgl/src/core/lv_indev.c **** 
 3376              		.loc 1 864 12 is_stmt 0 view .LVU1063
 3377 0118 2046     		mov	r0, r4
 3378 011a FFF7FEFF 		bl	indev_reset_check
 3379              	.LVL288:
 864:Middlewares/lvgl/src/core/lv_indev.c **** 
 3380              		.loc 1 864 11 view .LVU1064
 3381 011e 28B9     		cbnz	r0, .L239
 866:Middlewares/lvgl/src/core/lv_indev.c **** 
 3382              		.loc 1 866 9 is_stmt 1 view .LVU1065
 866:Middlewares/lvgl/src/core/lv_indev.c **** 
 3383              		.loc 1 866 21 is_stmt 0 view .LVU1066
 3384 0120 584B     		ldr	r3, .L257+4
 3385 0122 1B68     		ldr	r3, [r3]
 866:Middlewares/lvgl/src/core/lv_indev.c **** 
 3386              		.loc 1 866 12 view .LVU1067
 3387 0124 5B79     		ldrb	r3, [r3, #5]	@ zero_extendqisi2
 866:Middlewares/lvgl/src/core/lv_indev.c **** 
ARM GAS  /tmp/ccjEXvZv.s 			page 97


 3388              		.loc 1 866 11 view .LVU1068
 3389 0126 13F0080F 		tst	r3, #8
 3390 012a 57D0     		beq	.L252
 3391              	.LVL289:
 3392              	.L239:
 898:Middlewares/lvgl/src/core/lv_indev.c **** 
 3393              		.loc 1 898 1 view .LVU1069
 3394 012c 70BD     		pop	{r4, r5, r6, pc}
 3395              	.LVL290:
 3396              	.L250:
 780:Middlewares/lvgl/src/core/lv_indev.c ****         if(indev_obj_act == NULL) indev_obj_act = lv_indev_search_obj(lv_disp_get_layer_top(disp),
 3397              		.loc 1 780 9 is_stmt 1 view .LVU1070
 780:Middlewares/lvgl/src/core/lv_indev.c ****         if(indev_obj_act == NULL) indev_obj_act = lv_indev_search_obj(lv_disp_get_layer_top(disp),
 3398              		.loc 1 780 25 is_stmt 0 view .LVU1071
 3399 012e 2846     		mov	r0, r5
 3400 0130 FFF7FEFF 		bl	lv_disp_get_layer_sys
 3401              	.LVL291:
 3402 0134 261D     		adds	r6, r4, #4
 3403 0136 3146     		mov	r1, r6
 3404 0138 FFF7FEFF 		bl	lv_indev_search_obj
 3405              	.LVL292:
 780:Middlewares/lvgl/src/core/lv_indev.c ****         if(indev_obj_act == NULL) indev_obj_act = lv_indev_search_obj(lv_disp_get_layer_top(disp),
 3406              		.loc 1 780 23 view .LVU1072
 3407 013c 504B     		ldr	r3, .L257
 3408 013e 1860     		str	r0, [r3]
 781:Middlewares/lvgl/src/core/lv_indev.c ****                                                                           &proc->types.pointer.act_
 3409              		.loc 1 781 9 is_stmt 1 view .LVU1073
 781:Middlewares/lvgl/src/core/lv_indev.c ****                                                                           &proc->types.pointer.act_
 3410              		.loc 1 781 11 is_stmt 0 view .LVU1074
 3411 0140 98B1     		cbz	r0, .L253
 3412              	.L242:
 783:Middlewares/lvgl/src/core/lv_indev.c ****                                                                           &proc->types.pointer.act_
 3413              		.loc 1 783 9 is_stmt 1 view .LVU1075
 783:Middlewares/lvgl/src/core/lv_indev.c ****                                                                           &proc->types.pointer.act_
 3414              		.loc 1 783 26 is_stmt 0 view .LVU1076
 3415 0142 4F4B     		ldr	r3, .L257
 3416 0144 1B68     		ldr	r3, [r3]
 783:Middlewares/lvgl/src/core/lv_indev.c ****                                                                           &proc->types.pointer.act_
 3417              		.loc 1 783 11 view .LVU1077
 3418 0146 CBB1     		cbz	r3, .L254
 3419              	.L243:
 3420              	.LVL293:
 799:Middlewares/lvgl/src/core/lv_indev.c ****         proc->types.pointer.scroll_throw_vect.x = 0;
 3421              		.loc 1 799 47 discriminator 1 view .LVU1078
 3422 0148 636A     		ldr	r3, [r4, #36]
 799:Middlewares/lvgl/src/core/lv_indev.c ****         proc->types.pointer.scroll_throw_vect.x = 0;
 3423              		.loc 1 799 25 discriminator 1 view .LVU1079
 3424 014a 002B     		cmp	r3, #0
 3425 014c 3FF46DAF 		beq	.L244
 800:Middlewares/lvgl/src/core/lv_indev.c ****         proc->types.pointer.scroll_throw_vect.y = 0;
 3426              		.loc 1 800 9 is_stmt 1 view .LVU1080
 800:Middlewares/lvgl/src/core/lv_indev.c ****         proc->types.pointer.scroll_throw_vect.y = 0;
 3427              		.loc 1 800 49 is_stmt 0 view .LVU1081
 3428 0150 0023     		movs	r3, #0
 3429 0152 2383     		strh	r3, [r4, #24]	@ movhi
 801:Middlewares/lvgl/src/core/lv_indev.c ****         _lv_indev_scroll_throw_handler(proc);
 3430              		.loc 1 801 9 is_stmt 1 view .LVU1082
ARM GAS  /tmp/ccjEXvZv.s 			page 98


 801:Middlewares/lvgl/src/core/lv_indev.c ****         _lv_indev_scroll_throw_handler(proc);
 3431              		.loc 1 801 49 is_stmt 0 view .LVU1083
 3432 0154 6383     		strh	r3, [r4, #26]	@ movhi
 802:Middlewares/lvgl/src/core/lv_indev.c ****         if(indev_reset_check(proc)) return;
 3433              		.loc 1 802 9 is_stmt 1 view .LVU1084
 3434 0156 2046     		mov	r0, r4
 3435 0158 FFF7FEFF 		bl	_lv_indev_scroll_throw_handler
 3436              	.LVL294:
 803:Middlewares/lvgl/src/core/lv_indev.c ****     }
 3437              		.loc 1 803 9 view .LVU1085
 803:Middlewares/lvgl/src/core/lv_indev.c ****     }
 3438              		.loc 1 803 12 is_stmt 0 view .LVU1086
 3439 015c 2046     		mov	r0, r4
 3440 015e FFF7FEFF 		bl	indev_reset_check
 3441              	.LVL295:
 803:Middlewares/lvgl/src/core/lv_indev.c ****     }
 3442              		.loc 1 803 11 view .LVU1087
 3443 0162 0028     		cmp	r0, #0
 3444 0164 3FF461AF 		beq	.L244
 3445 0168 E0E7     		b	.L239
 3446              	.LVL296:
 3447              	.L253:
 781:Middlewares/lvgl/src/core/lv_indev.c ****                                                                           &proc->types.pointer.act_
 3448              		.loc 1 781 35 is_stmt 1 discriminator 1 view .LVU1088
 781:Middlewares/lvgl/src/core/lv_indev.c ****                                                                           &proc->types.pointer.act_
 3449              		.loc 1 781 51 is_stmt 0 discriminator 1 view .LVU1089
 3450 016a 2846     		mov	r0, r5
 3451 016c FFF7FEFF 		bl	lv_disp_get_layer_top
 3452              	.LVL297:
 3453 0170 3146     		mov	r1, r6
 3454 0172 FFF7FEFF 		bl	lv_indev_search_obj
 3455              	.LVL298:
 781:Middlewares/lvgl/src/core/lv_indev.c ****                                                                           &proc->types.pointer.act_
 3456              		.loc 1 781 49 discriminator 1 view .LVU1090
 3457 0176 424B     		ldr	r3, .L257
 3458 0178 1860     		str	r0, [r3]
 3459 017a E2E7     		b	.L242
 3460              	.L254:
 783:Middlewares/lvgl/src/core/lv_indev.c ****                                                                           &proc->types.pointer.act_
 3461              		.loc 1 783 35 is_stmt 1 discriminator 1 view .LVU1091
 783:Middlewares/lvgl/src/core/lv_indev.c ****                                                                           &proc->types.pointer.act_
 3462              		.loc 1 783 51 is_stmt 0 discriminator 1 view .LVU1092
 3463 017c 2846     		mov	r0, r5
 3464 017e FFF7FEFF 		bl	lv_disp_get_scr_act
 3465              	.LVL299:
 3466 0182 3146     		mov	r1, r6
 3467 0184 FFF7FEFF 		bl	lv_indev_search_obj
 3468              	.LVL300:
 783:Middlewares/lvgl/src/core/lv_indev.c ****                                                                           &proc->types.pointer.act_
 3469              		.loc 1 783 49 discriminator 1 view .LVU1093
 3470 0188 3D4B     		ldr	r3, .L257
 3471 018a 1860     		str	r0, [r3]
 3472 018c DCE7     		b	.L243
 3473              	.L251:
 789:Middlewares/lvgl/src/core/lv_indev.c ****         indev_obj_act = lv_indev_search_obj(lv_disp_get_layer_sys(disp), &proc->types.pointer.act_p
 3474              		.loc 1 789 13 discriminator 1 view .LVU1094
 3475 018e 4FF40061 		mov	r1, #2048
ARM GAS  /tmp/ccjEXvZv.s 			page 99


 3476 0192 FFF7FEFF 		bl	lv_obj_has_flag
 3477              	.LVL301:
 788:Middlewares/lvgl/src/core/lv_indev.c ****             lv_obj_has_flag(indev_obj_act, LV_OBJ_FLAG_PRESS_LOCK) == false) {
 3478              		.loc 1 788 52 discriminator 1 view .LVU1095
 3479 0196 0028     		cmp	r0, #0
 3480 0198 7FF447AF 		bne	.L244
 790:Middlewares/lvgl/src/core/lv_indev.c ****         if(indev_obj_act == NULL) indev_obj_act = lv_indev_search_obj(lv_disp_get_layer_top(disp),
 3481              		.loc 1 790 9 is_stmt 1 view .LVU1096
 790:Middlewares/lvgl/src/core/lv_indev.c ****         if(indev_obj_act == NULL) indev_obj_act = lv_indev_search_obj(lv_disp_get_layer_top(disp),
 3482              		.loc 1 790 25 is_stmt 0 view .LVU1097
 3483 019c 2846     		mov	r0, r5
 3484 019e FFF7FEFF 		bl	lv_disp_get_layer_sys
 3485              	.LVL302:
 3486 01a2 261D     		adds	r6, r4, #4
 3487 01a4 3146     		mov	r1, r6
 3488 01a6 FFF7FEFF 		bl	lv_indev_search_obj
 3489              	.LVL303:
 790:Middlewares/lvgl/src/core/lv_indev.c ****         if(indev_obj_act == NULL) indev_obj_act = lv_indev_search_obj(lv_disp_get_layer_top(disp),
 3490              		.loc 1 790 23 view .LVU1098
 3491 01aa 354B     		ldr	r3, .L257
 3492 01ac 1860     		str	r0, [r3]
 791:Middlewares/lvgl/src/core/lv_indev.c ****                                                                           &proc->types.pointer.act_
 3493              		.loc 1 791 9 is_stmt 1 view .LVU1099
 791:Middlewares/lvgl/src/core/lv_indev.c ****                                                                           &proc->types.pointer.act_
 3494              		.loc 1 791 11 is_stmt 0 view .LVU1100
 3495 01ae 60B1     		cbz	r0, .L255
 3496              	.L245:
 793:Middlewares/lvgl/src/core/lv_indev.c ****                                                                           &proc->types.pointer.act_
 3497              		.loc 1 793 9 is_stmt 1 view .LVU1101
 793:Middlewares/lvgl/src/core/lv_indev.c ****                                                                           &proc->types.pointer.act_
 3498              		.loc 1 793 26 is_stmt 0 view .LVU1102
 3499 01b0 334B     		ldr	r3, .L257
 3500 01b2 1B68     		ldr	r3, [r3]
 793:Middlewares/lvgl/src/core/lv_indev.c ****                                                                           &proc->types.pointer.act_
 3501              		.loc 1 793 11 view .LVU1103
 3502 01b4 002B     		cmp	r3, #0
 3503 01b6 C7D1     		bne	.L243
 793:Middlewares/lvgl/src/core/lv_indev.c ****                                                                           &proc->types.pointer.act_
 3504              		.loc 1 793 35 is_stmt 1 discriminator 1 view .LVU1104
 793:Middlewares/lvgl/src/core/lv_indev.c ****                                                                           &proc->types.pointer.act_
 3505              		.loc 1 793 51 is_stmt 0 discriminator 1 view .LVU1105
 3506 01b8 2846     		mov	r0, r5
 3507 01ba FFF7FEFF 		bl	lv_disp_get_scr_act
 3508              	.LVL304:
 3509 01be 3146     		mov	r1, r6
 3510 01c0 FFF7FEFF 		bl	lv_indev_search_obj
 3511              	.LVL305:
 793:Middlewares/lvgl/src/core/lv_indev.c ****                                                                           &proc->types.pointer.act_
 3512              		.loc 1 793 49 discriminator 1 view .LVU1106
 3513 01c4 2E4B     		ldr	r3, .L257
 3514 01c6 1860     		str	r0, [r3]
 3515 01c8 BEE7     		b	.L243
 3516              	.L255:
 791:Middlewares/lvgl/src/core/lv_indev.c ****                                                                           &proc->types.pointer.act_
 3517              		.loc 1 791 35 is_stmt 1 discriminator 1 view .LVU1107
 791:Middlewares/lvgl/src/core/lv_indev.c ****                                                                           &proc->types.pointer.act_
 3518              		.loc 1 791 51 is_stmt 0 discriminator 1 view .LVU1108
ARM GAS  /tmp/ccjEXvZv.s 			page 100


 3519 01ca 2846     		mov	r0, r5
 3520 01cc FFF7FEFF 		bl	lv_disp_get_layer_top
 3521              	.LVL306:
 3522 01d0 3146     		mov	r1, r6
 3523 01d2 FFF7FEFF 		bl	lv_indev_search_obj
 3524              	.LVL307:
 791:Middlewares/lvgl/src/core/lv_indev.c ****                                                                           &proc->types.pointer.act_
 3525              		.loc 1 791 49 discriminator 1 view .LVU1109
 3526 01d6 2A4B     		ldr	r3, .L257
 3527 01d8 1860     		str	r0, [r3]
 3528 01da E9E7     		b	.L245
 3529              	.LVL308:
 3530              	.L252:
 868:Middlewares/lvgl/src/core/lv_indev.c ****         if(indev_reset_check(proc)) return;
 3531              		.loc 1 868 9 is_stmt 1 view .LVU1110
 3532 01dc 2046     		mov	r0, r4
 3533 01de FFF7FEFF 		bl	_lv_indev_scroll_handler
 3534              	.LVL309:
 869:Middlewares/lvgl/src/core/lv_indev.c ****         indev_gesture(proc);
 3535              		.loc 1 869 9 view .LVU1111
 869:Middlewares/lvgl/src/core/lv_indev.c ****         indev_gesture(proc);
 3536              		.loc 1 869 12 is_stmt 0 view .LVU1112
 3537 01e2 2046     		mov	r0, r4
 3538 01e4 FFF7FEFF 		bl	indev_reset_check
 3539              	.LVL310:
 869:Middlewares/lvgl/src/core/lv_indev.c ****         indev_gesture(proc);
 3540              		.loc 1 869 11 view .LVU1113
 3541 01e8 0028     		cmp	r0, #0
 3542 01ea 9FD1     		bne	.L239
 870:Middlewares/lvgl/src/core/lv_indev.c ****         if(indev_reset_check(proc)) return;
 3543              		.loc 1 870 9 is_stmt 1 view .LVU1114
 3544 01ec 2046     		mov	r0, r4
 3545 01ee FFF7FEFF 		bl	indev_gesture
 3546              	.LVL311:
 871:Middlewares/lvgl/src/core/lv_indev.c **** 
 3547              		.loc 1 871 9 view .LVU1115
 871:Middlewares/lvgl/src/core/lv_indev.c **** 
 3548              		.loc 1 871 12 is_stmt 0 view .LVU1116
 3549 01f2 2046     		mov	r0, r4
 3550 01f4 FFF7FEFF 		bl	indev_reset_check
 3551              	.LVL312:
 871:Middlewares/lvgl/src/core/lv_indev.c **** 
 3552              		.loc 1 871 11 view .LVU1117
 3553 01f8 0028     		cmp	r0, #0
 3554 01fa 97D1     		bne	.L239
 874:Middlewares/lvgl/src/core/lv_indev.c ****             /*Call the ancestor's event handler about the long press if enough time elapsed*/
 3555              		.loc 1 874 9 is_stmt 1 view .LVU1118
 874:Middlewares/lvgl/src/core/lv_indev.c ****             /*Call the ancestor's event handler about the long press if enough time elapsed*/
 3556              		.loc 1 874 31 is_stmt 0 view .LVU1119
 3557 01fc A36A     		ldr	r3, [r4, #40]
 874:Middlewares/lvgl/src/core/lv_indev.c ****             /*Call the ancestor's event handler about the long press if enough time elapsed*/
 3558              		.loc 1 874 11 view .LVU1120
 3559 01fe F3B1     		cbz	r3, .L256
 3560              	.L248:
 889:Middlewares/lvgl/src/core/lv_indev.c ****             /*Call the ancestor's event handler about the long press repeat if enough time elapsed*
 3561              		.loc 1 889 9 is_stmt 1 view .LVU1121
 889:Middlewares/lvgl/src/core/lv_indev.c ****             /*Call the ancestor's event handler about the long press repeat if enough time elapsed*
ARM GAS  /tmp/ccjEXvZv.s 			page 101


 3562              		.loc 1 889 31 is_stmt 0 view .LVU1122
 3563 0200 A36A     		ldr	r3, [r4, #40]
 889:Middlewares/lvgl/src/core/lv_indev.c ****             /*Call the ancestor's event handler about the long press repeat if enough time elapsed*
 3564              		.loc 1 889 11 view .LVU1123
 3565 0202 002B     		cmp	r3, #0
 3566 0204 92D1     		bne	.L239
 889:Middlewares/lvgl/src/core/lv_indev.c ****             /*Call the ancestor's event handler about the long press repeat if enough time elapsed*
 3567              		.loc 1 889 73 discriminator 1 view .LVU1124
 3568 0206 6378     		ldrb	r3, [r4, #1]	@ zero_extendqisi2
 889:Middlewares/lvgl/src/core/lv_indev.c ****             /*Call the ancestor's event handler about the long press repeat if enough time elapsed*
 3569              		.loc 1 889 51 discriminator 1 view .LVU1125
 3570 0208 13F0010F 		tst	r3, #1
 3571 020c 8ED0     		beq	.L239
 891:Middlewares/lvgl/src/core/lv_indev.c ****                 lv_event_send(indev_obj_act, LV_EVENT_LONG_PRESSED_REPEAT, indev_act);
 3572              		.loc 1 891 13 is_stmt 1 view .LVU1126
 891:Middlewares/lvgl/src/core/lv_indev.c ****                 lv_event_send(indev_obj_act, LV_EVENT_LONG_PRESSED_REPEAT, indev_act);
 3573              		.loc 1 891 16 is_stmt 0 view .LVU1127
 3574 020e 606C     		ldr	r0, [r4, #68]
 3575 0210 FFF7FEFF 		bl	lv_tick_elaps
 3576              	.LVL313:
 891:Middlewares/lvgl/src/core/lv_indev.c ****                 lv_event_send(indev_obj_act, LV_EVENT_LONG_PRESSED_REPEAT, indev_act);
 3577              		.loc 1 891 69 view .LVU1128
 3578 0214 1B4B     		ldr	r3, .L257+4
 3579 0216 1A68     		ldr	r2, [r3]
 3580 0218 1368     		ldr	r3, [r2]
 891:Middlewares/lvgl/src/core/lv_indev.c ****                 lv_event_send(indev_obj_act, LV_EVENT_LONG_PRESSED_REPEAT, indev_act);
 3581              		.loc 1 891 77 view .LVU1129
 3582 021a DB8B     		ldrh	r3, [r3, #30]
 891:Middlewares/lvgl/src/core/lv_indev.c ****                 lv_event_send(indev_obj_act, LV_EVENT_LONG_PRESSED_REPEAT, indev_act);
 3583              		.loc 1 891 15 view .LVU1130
 3584 021c 9842     		cmp	r0, r3
 3585 021e 85D9     		bls	.L239
 892:Middlewares/lvgl/src/core/lv_indev.c ****                 if(indev_reset_check(proc)) return;
 3586              		.loc 1 892 17 is_stmt 1 view .LVU1131
 3587 0220 0621     		movs	r1, #6
 3588 0222 174B     		ldr	r3, .L257
 3589 0224 1868     		ldr	r0, [r3]
 3590 0226 FFF7FEFF 		bl	lv_event_send
 3591              	.LVL314:
 893:Middlewares/lvgl/src/core/lv_indev.c ****                 proc->longpr_rep_timestamp = lv_tick_get();
 3592              		.loc 1 893 17 view .LVU1132
 893:Middlewares/lvgl/src/core/lv_indev.c ****                 proc->longpr_rep_timestamp = lv_tick_get();
 3593              		.loc 1 893 20 is_stmt 0 view .LVU1133
 3594 022a 2046     		mov	r0, r4
 3595 022c FFF7FEFF 		bl	indev_reset_check
 3596              	.LVL315:
 893:Middlewares/lvgl/src/core/lv_indev.c ****                 proc->longpr_rep_timestamp = lv_tick_get();
 3597              		.loc 1 893 19 view .LVU1134
 3598 0230 0028     		cmp	r0, #0
 3599 0232 7FF47BAF 		bne	.L239
 894:Middlewares/lvgl/src/core/lv_indev.c ****             }
 3600              		.loc 1 894 17 is_stmt 1 view .LVU1135
 894:Middlewares/lvgl/src/core/lv_indev.c ****             }
 3601              		.loc 1 894 46 is_stmt 0 view .LVU1136
 3602 0236 FFF7FEFF 		bl	lv_tick_get
 3603              	.LVL316:
 894:Middlewares/lvgl/src/core/lv_indev.c ****             }
ARM GAS  /tmp/ccjEXvZv.s 			page 102


 3604              		.loc 1 894 44 view .LVU1137
 3605 023a 6064     		str	r0, [r4, #68]
 3606 023c 76E7     		b	.L239
 3607              	.L256:
 874:Middlewares/lvgl/src/core/lv_indev.c ****             /*Call the ancestor's event handler about the long press if enough time elapsed*/
 3608              		.loc 1 874 73 discriminator 1 view .LVU1138
 3609 023e 6378     		ldrb	r3, [r4, #1]	@ zero_extendqisi2
 874:Middlewares/lvgl/src/core/lv_indev.c ****             /*Call the ancestor's event handler about the long press if enough time elapsed*/
 3610              		.loc 1 874 51 discriminator 1 view .LVU1139
 3611 0240 13F0010F 		tst	r3, #1
 3612 0244 DCD1     		bne	.L248
 876:Middlewares/lvgl/src/core/lv_indev.c ****                 lv_event_send(indev_obj_act, LV_EVENT_LONG_PRESSED, indev_act);
 3613              		.loc 1 876 13 is_stmt 1 view .LVU1140
 876:Middlewares/lvgl/src/core/lv_indev.c ****                 lv_event_send(indev_obj_act, LV_EVENT_LONG_PRESSED, indev_act);
 3614              		.loc 1 876 16 is_stmt 0 view .LVU1141
 3615 0246 206C     		ldr	r0, [r4, #64]
 3616 0248 FFF7FEFF 		bl	lv_tick_elaps
 3617              	.LVL317:
 876:Middlewares/lvgl/src/core/lv_indev.c ****                 lv_event_send(indev_obj_act, LV_EVENT_LONG_PRESSED, indev_act);
 3618              		.loc 1 876 61 view .LVU1142
 3619 024c 0D4B     		ldr	r3, .L257+4
 3620 024e 1A68     		ldr	r2, [r3]
 3621 0250 1368     		ldr	r3, [r2]
 876:Middlewares/lvgl/src/core/lv_indev.c ****                 lv_event_send(indev_obj_act, LV_EVENT_LONG_PRESSED, indev_act);
 3622              		.loc 1 876 69 view .LVU1143
 3623 0252 9B8B     		ldrh	r3, [r3, #28]
 876:Middlewares/lvgl/src/core/lv_indev.c ****                 lv_event_send(indev_obj_act, LV_EVENT_LONG_PRESSED, indev_act);
 3624              		.loc 1 876 15 view .LVU1144
 3625 0254 9842     		cmp	r0, r3
 3626 0256 D3D9     		bls	.L248
 877:Middlewares/lvgl/src/core/lv_indev.c ****                 if(indev_reset_check(proc)) return;
 3627              		.loc 1 877 17 is_stmt 1 view .LVU1145
 3628 0258 0521     		movs	r1, #5
 3629 025a 094B     		ldr	r3, .L257
 3630 025c 1868     		ldr	r0, [r3]
 3631 025e FFF7FEFF 		bl	lv_event_send
 3632              	.LVL318:
 878:Middlewares/lvgl/src/core/lv_indev.c **** 
 3633              		.loc 1 878 17 view .LVU1146
 878:Middlewares/lvgl/src/core/lv_indev.c **** 
 3634              		.loc 1 878 20 is_stmt 0 view .LVU1147
 3635 0262 2046     		mov	r0, r4
 3636 0264 FFF7FEFF 		bl	indev_reset_check
 3637              	.LVL319:
 878:Middlewares/lvgl/src/core/lv_indev.c **** 
 3638              		.loc 1 878 19 view .LVU1148
 3639 0268 0028     		cmp	r0, #0
 3640 026a 7FF45FAF 		bne	.L239
 881:Middlewares/lvgl/src/core/lv_indev.c **** 
 3641              		.loc 1 881 17 is_stmt 1 view .LVU1149
 881:Middlewares/lvgl/src/core/lv_indev.c **** 
 3642              		.loc 1 881 36 is_stmt 0 view .LVU1150
 3643 026e 6378     		ldrb	r3, [r4, #1]	@ zero_extendqisi2
 3644 0270 43F00103 		orr	r3, r3, #1
 3645 0274 6370     		strb	r3, [r4, #1]
 884:Middlewares/lvgl/src/core/lv_indev.c ****             }
 3646              		.loc 1 884 17 is_stmt 1 view .LVU1151
ARM GAS  /tmp/ccjEXvZv.s 			page 103


 884:Middlewares/lvgl/src/core/lv_indev.c ****             }
 3647              		.loc 1 884 46 is_stmt 0 view .LVU1152
 3648 0276 FFF7FEFF 		bl	lv_tick_get
 3649              	.LVL320:
 884:Middlewares/lvgl/src/core/lv_indev.c ****             }
 3650              		.loc 1 884 44 view .LVU1153
 3651 027a 6064     		str	r0, [r4, #68]
 3652 027c C0E7     		b	.L248
 3653              	.L258:
 3654 027e 00BF     		.align	2
 3655              	.L257:
 3656 0280 00000000 		.word	.LANCHOR0
 3657 0284 00000000 		.word	.LANCHOR1
 3658              		.cfi_endproc
 3659              	.LFE176:
 3661              		.section	.text.indev_pointer_proc,"ax",%progbits
 3662              		.align	1
 3663              		.syntax unified
 3664              		.thumb
 3665              		.thumb_func
 3666              		.fpu fpv4-sp-d16
 3668              	indev_pointer_proc:
 3669              	.LVL321:
 3670              	.LFB172:
 327:Middlewares/lvgl/src/core/lv_indev.c ****     lv_disp_t *disp = i->driver->disp;
 3671              		.loc 1 327 1 is_stmt 1 view -0
 3672              		.cfi_startproc
 3673              		@ args = 0, pretend = 0, frame = 0
 3674              		@ frame_needed = 0, uses_anonymous_args = 0
 327:Middlewares/lvgl/src/core/lv_indev.c ****     lv_disp_t *disp = i->driver->disp;
 3675              		.loc 1 327 1 is_stmt 0 view .LVU1155
 3676 0000 38B5     		push	{r3, r4, r5, lr}
 3677              	.LCFI10:
 3678              		.cfi_def_cfa_offset 16
 3679              		.cfi_offset 3, -16
 3680              		.cfi_offset 4, -12
 3681              		.cfi_offset 5, -8
 3682              		.cfi_offset 14, -4
 3683 0002 0446     		mov	r4, r0
 3684 0004 0D46     		mov	r5, r1
 328:Middlewares/lvgl/src/core/lv_indev.c ****     /*Save the raw points so they can be used again in _lv_indev_read*/
 3685              		.loc 1 328 5 is_stmt 1 view .LVU1156
 328:Middlewares/lvgl/src/core/lv_indev.c ****     /*Save the raw points so they can be used again in _lv_indev_read*/
 3686              		.loc 1 328 24 is_stmt 0 view .LVU1157
 3687 0006 0368     		ldr	r3, [r0]
 328:Middlewares/lvgl/src/core/lv_indev.c ****     /*Save the raw points so they can be used again in _lv_indev_read*/
 3688              		.loc 1 328 16 view .LVU1158
 3689 0008 1969     		ldr	r1, [r3, #16]
 3690              	.LVL322:
 330:Middlewares/lvgl/src/core/lv_indev.c ****     i->proc.types.pointer.last_raw_point.y = data->point.y;
 3691              		.loc 1 330 5 is_stmt 1 view .LVU1159
 330:Middlewares/lvgl/src/core/lv_indev.c ****     i->proc.types.pointer.last_raw_point.y = data->point.y;
 3692              		.loc 1 330 57 is_stmt 0 view .LVU1160
 3693 000a B5F90030 		ldrsh	r3, [r5]
 330:Middlewares/lvgl/src/core/lv_indev.c ****     i->proc.types.pointer.last_raw_point.y = data->point.y;
 3694              		.loc 1 330 44 view .LVU1161
 3695 000e 0382     		strh	r3, [r0, #16]	@ movhi
ARM GAS  /tmp/ccjEXvZv.s 			page 104


 331:Middlewares/lvgl/src/core/lv_indev.c **** 
 3696              		.loc 1 331 5 is_stmt 1 view .LVU1162
 331:Middlewares/lvgl/src/core/lv_indev.c **** 
 3697              		.loc 1 331 57 is_stmt 0 view .LVU1163
 3698 0010 B5F90200 		ldrsh	r0, [r5, #2]
 3699              	.LVL323:
 331:Middlewares/lvgl/src/core/lv_indev.c **** 
 3700              		.loc 1 331 44 view .LVU1164
 3701 0014 6082     		strh	r0, [r4, #18]	@ movhi
 333:Middlewares/lvgl/src/core/lv_indev.c ****         data->point.x = disp->driver->hor_res - data->point.x - 1;
 3702              		.loc 1 333 5 is_stmt 1 view .LVU1165
 333:Middlewares/lvgl/src/core/lv_indev.c ****         data->point.x = disp->driver->hor_res - data->point.x - 1;
 3703              		.loc 1 333 12 is_stmt 0 view .LVU1166
 3704 0016 0A68     		ldr	r2, [r1]
 333:Middlewares/lvgl/src/core/lv_indev.c ****         data->point.x = disp->driver->hor_res - data->point.x - 1;
 3705              		.loc 1 333 30 view .LVU1167
 3706 0018 137A     		ldrb	r3, [r2, #8]	@ zero_extendqisi2
 3707 001a 03F01803 		and	r3, r3, #24
 333:Middlewares/lvgl/src/core/lv_indev.c ****         data->point.x = disp->driver->hor_res - data->point.x - 1;
 3708              		.loc 1 333 7 view .LVU1168
 3709 001e 102B     		cmp	r3, #16
 3710 0020 01D0     		beq	.L260
 333:Middlewares/lvgl/src/core/lv_indev.c ****         data->point.x = disp->driver->hor_res - data->point.x - 1;
 3711              		.loc 1 333 49 discriminator 1 view .LVU1169
 3712 0022 182B     		cmp	r3, #24
 3713 0024 0CD1     		bne	.L261
 3714              	.L260:
 334:Middlewares/lvgl/src/core/lv_indev.c ****         data->point.y = disp->driver->ver_res - data->point.y - 1;
 3715              		.loc 1 334 9 is_stmt 1 view .LVU1170
 334:Middlewares/lvgl/src/core/lv_indev.c ****         data->point.y = disp->driver->ver_res - data->point.y - 1;
 3716              		.loc 1 334 37 is_stmt 0 view .LVU1171
 3717 0026 1288     		ldrh	r2, [r2]
 334:Middlewares/lvgl/src/core/lv_indev.c ****         data->point.y = disp->driver->ver_res - data->point.y - 1;
 3718              		.loc 1 334 60 view .LVU1172
 3719 0028 2B88     		ldrh	r3, [r5]
 334:Middlewares/lvgl/src/core/lv_indev.c ****         data->point.y = disp->driver->ver_res - data->point.y - 1;
 3720              		.loc 1 334 47 view .LVU1173
 3721 002a D21A     		subs	r2, r2, r3
 3722 002c 92B2     		uxth	r2, r2
 334:Middlewares/lvgl/src/core/lv_indev.c ****         data->point.y = disp->driver->ver_res - data->point.y - 1;
 3723              		.loc 1 334 63 view .LVU1174
 3724 002e 013A     		subs	r2, r2, #1
 334:Middlewares/lvgl/src/core/lv_indev.c ****         data->point.y = disp->driver->ver_res - data->point.y - 1;
 3725              		.loc 1 334 23 view .LVU1175
 3726 0030 2A80     		strh	r2, [r5]	@ movhi
 335:Middlewares/lvgl/src/core/lv_indev.c ****     }
 3727              		.loc 1 335 9 is_stmt 1 view .LVU1176
 335:Middlewares/lvgl/src/core/lv_indev.c ****     }
 3728              		.loc 1 335 29 is_stmt 0 view .LVU1177
 3729 0032 0B68     		ldr	r3, [r1]
 335:Middlewares/lvgl/src/core/lv_indev.c ****     }
 3730              		.loc 1 335 37 view .LVU1178
 3731 0034 5B88     		ldrh	r3, [r3, #2]
 335:Middlewares/lvgl/src/core/lv_indev.c ****     }
 3732              		.loc 1 335 60 view .LVU1179
 3733 0036 80B2     		uxth	r0, r0
 335:Middlewares/lvgl/src/core/lv_indev.c ****     }
ARM GAS  /tmp/ccjEXvZv.s 			page 105


 3734              		.loc 1 335 47 view .LVU1180
 3735 0038 1B1A     		subs	r3, r3, r0
 3736 003a 9BB2     		uxth	r3, r3
 335:Middlewares/lvgl/src/core/lv_indev.c ****     }
 3737              		.loc 1 335 63 view .LVU1181
 3738 003c 013B     		subs	r3, r3, #1
 335:Middlewares/lvgl/src/core/lv_indev.c ****     }
 3739              		.loc 1 335 23 view .LVU1182
 3740 003e 6B80     		strh	r3, [r5, #2]	@ movhi
 3741              	.L261:
 337:Middlewares/lvgl/src/core/lv_indev.c ****         lv_coord_t tmp = data->point.y;
 3742              		.loc 1 337 5 is_stmt 1 view .LVU1183
 337:Middlewares/lvgl/src/core/lv_indev.c ****         lv_coord_t tmp = data->point.y;
 3743              		.loc 1 337 12 is_stmt 0 view .LVU1184
 3744 0040 0B68     		ldr	r3, [r1]
 337:Middlewares/lvgl/src/core/lv_indev.c ****         lv_coord_t tmp = data->point.y;
 3745              		.loc 1 337 30 view .LVU1185
 3746 0042 1B7A     		ldrb	r3, [r3, #8]	@ zero_extendqisi2
 3747 0044 03F01803 		and	r3, r3, #24
 337:Middlewares/lvgl/src/core/lv_indev.c ****         lv_coord_t tmp = data->point.y;
 3748              		.loc 1 337 7 view .LVU1186
 3749 0048 082B     		cmp	r3, #8
 3750 004a 01D0     		beq	.L262
 337:Middlewares/lvgl/src/core/lv_indev.c ****         lv_coord_t tmp = data->point.y;
 3751              		.loc 1 337 48 discriminator 1 view .LVU1187
 3752 004c 182B     		cmp	r3, #24
 3753 004e 0AD1     		bne	.L263
 3754              	.L262:
 3755              	.LBB15:
 338:Middlewares/lvgl/src/core/lv_indev.c ****         data->point.y = data->point.x;
 3756              		.loc 1 338 9 is_stmt 1 view .LVU1188
 338:Middlewares/lvgl/src/core/lv_indev.c ****         data->point.y = data->point.x;
 3757              		.loc 1 338 20 is_stmt 0 view .LVU1189
 3758 0050 B5F90220 		ldrsh	r2, [r5, #2]
 3759              	.LVL324:
 339:Middlewares/lvgl/src/core/lv_indev.c ****         data->point.x = disp->driver->ver_res - tmp - 1;
 3760              		.loc 1 339 9 is_stmt 1 view .LVU1190
 339:Middlewares/lvgl/src/core/lv_indev.c ****         data->point.x = disp->driver->ver_res - tmp - 1;
 3761              		.loc 1 339 36 is_stmt 0 view .LVU1191
 3762 0054 B5F90030 		ldrsh	r3, [r5]
 339:Middlewares/lvgl/src/core/lv_indev.c ****         data->point.x = disp->driver->ver_res - tmp - 1;
 3763              		.loc 1 339 23 view .LVU1192
 3764 0058 6B80     		strh	r3, [r5, #2]	@ movhi
 340:Middlewares/lvgl/src/core/lv_indev.c ****     }
 3765              		.loc 1 340 9 is_stmt 1 view .LVU1193
 340:Middlewares/lvgl/src/core/lv_indev.c ****     }
 3766              		.loc 1 340 29 is_stmt 0 view .LVU1194
 3767 005a 0B68     		ldr	r3, [r1]
 340:Middlewares/lvgl/src/core/lv_indev.c ****     }
 3768              		.loc 1 340 37 view .LVU1195
 3769 005c 5B88     		ldrh	r3, [r3, #2]
 340:Middlewares/lvgl/src/core/lv_indev.c ****     }
 3770              		.loc 1 340 47 view .LVU1196
 3771 005e 9B1A     		subs	r3, r3, r2
 3772 0060 9BB2     		uxth	r3, r3
 340:Middlewares/lvgl/src/core/lv_indev.c ****     }
 3773              		.loc 1 340 53 view .LVU1197
ARM GAS  /tmp/ccjEXvZv.s 			page 106


 3774 0062 013B     		subs	r3, r3, #1
 340:Middlewares/lvgl/src/core/lv_indev.c ****     }
 3775              		.loc 1 340 23 view .LVU1198
 3776 0064 2B80     		strh	r3, [r5]	@ movhi
 3777              	.LVL325:
 3778              	.L263:
 340:Middlewares/lvgl/src/core/lv_indev.c ****     }
 3779              		.loc 1 340 23 view .LVU1199
 3780              	.LBE15:
 344:Middlewares/lvgl/src/core/lv_indev.c ****     if(data->point.x >= lv_disp_get_hor_res(i->driver->disp)) LV_LOG_WARN("X is %d which is greater
 3781              		.loc 1 344 5 is_stmt 1 view .LVU1200
 345:Middlewares/lvgl/src/core/lv_indev.c ****     if(data->point.y < 0) LV_LOG_WARN("Y is %d which is smaller than zero", data->point.y);
 3782              		.loc 1 345 5 view .LVU1201
 345:Middlewares/lvgl/src/core/lv_indev.c ****     if(data->point.y < 0) LV_LOG_WARN("Y is %d which is smaller than zero", data->point.y);
 3783              		.loc 1 345 46 is_stmt 0 view .LVU1202
 3784 0066 2368     		ldr	r3, [r4]
 345:Middlewares/lvgl/src/core/lv_indev.c ****     if(data->point.y < 0) LV_LOG_WARN("Y is %d which is smaller than zero", data->point.y);
 3785              		.loc 1 345 25 view .LVU1203
 3786 0068 1869     		ldr	r0, [r3, #16]
 3787 006a FFF7FEFF 		bl	lv_disp_get_hor_res
 3788              	.LVL326:
 346:Middlewares/lvgl/src/core/lv_indev.c ****     if(data->point.y >= lv_disp_get_ver_res(i->driver->disp)) LV_LOG_WARN("Y is %d which is greater
 3789              		.loc 1 346 5 is_stmt 1 view .LVU1204
 347:Middlewares/lvgl/src/core/lv_indev.c **** 
 3790              		.loc 1 347 5 view .LVU1205
 347:Middlewares/lvgl/src/core/lv_indev.c **** 
 3791              		.loc 1 347 46 is_stmt 0 view .LVU1206
 3792 006e 2368     		ldr	r3, [r4]
 347:Middlewares/lvgl/src/core/lv_indev.c **** 
 3793              		.loc 1 347 25 view .LVU1207
 3794 0070 1869     		ldr	r0, [r3, #16]
 3795 0072 FFF7FEFF 		bl	lv_disp_get_ver_res
 3796              	.LVL327:
 350:Middlewares/lvgl/src/core/lv_indev.c ****        (i->proc.types.pointer.last_point.x != data->point.x || i->proc.types.pointer.last_point.y !
 3797              		.loc 1 350 5 is_stmt 1 view .LVU1208
 350:Middlewares/lvgl/src/core/lv_indev.c ****        (i->proc.types.pointer.last_point.x != data->point.x || i->proc.types.pointer.last_point.y !
 3798              		.loc 1 350 9 is_stmt 0 view .LVU1209
 3799 0076 E06C     		ldr	r0, [r4, #76]
 350:Middlewares/lvgl/src/core/lv_indev.c ****        (i->proc.types.pointer.last_point.x != data->point.x || i->proc.types.pointer.last_point.y !
 3800              		.loc 1 350 7 view .LVU1210
 3801 0078 18B1     		cbz	r0, .L264
 351:Middlewares/lvgl/src/core/lv_indev.c ****         lv_obj_set_pos(i->cursor, data->point.x, data->point.y);
 3802              		.loc 1 351 61 discriminator 1 view .LVU1211
 3803 007a E268     		ldr	r2, [r4, #12]
 3804 007c 2B68     		ldr	r3, [r5]
 350:Middlewares/lvgl/src/core/lv_indev.c ****        (i->proc.types.pointer.last_point.x != data->point.x || i->proc.types.pointer.last_point.y !
 3805              		.loc 1 350 26 discriminator 1 view .LVU1212
 3806 007e 9A42     		cmp	r2, r3
 3807 0080 12D1     		bne	.L268
 3808              	.L264:
 355:Middlewares/lvgl/src/core/lv_indev.c ****     i->proc.types.pointer.act_point.y = data->point.y;
 3809              		.loc 1 355 5 is_stmt 1 view .LVU1213
 355:Middlewares/lvgl/src/core/lv_indev.c ****     i->proc.types.pointer.act_point.y = data->point.y;
 3810              		.loc 1 355 52 is_stmt 0 view .LVU1214
 3811 0082 B5F90030 		ldrsh	r3, [r5]
 355:Middlewares/lvgl/src/core/lv_indev.c ****     i->proc.types.pointer.act_point.y = data->point.y;
 3812              		.loc 1 355 39 view .LVU1215
ARM GAS  /tmp/ccjEXvZv.s 			page 107


 3813 0086 2381     		strh	r3, [r4, #8]	@ movhi
 356:Middlewares/lvgl/src/core/lv_indev.c **** 
 3814              		.loc 1 356 5 is_stmt 1 view .LVU1216
 356:Middlewares/lvgl/src/core/lv_indev.c **** 
 3815              		.loc 1 356 52 is_stmt 0 view .LVU1217
 3816 0088 B5F90230 		ldrsh	r3, [r5, #2]
 356:Middlewares/lvgl/src/core/lv_indev.c **** 
 3817              		.loc 1 356 39 view .LVU1218
 3818 008c 6381     		strh	r3, [r4, #10]	@ movhi
 358:Middlewares/lvgl/src/core/lv_indev.c ****         indev_proc_press(&i->proc);
 3819              		.loc 1 358 5 is_stmt 1 view .LVU1219
 358:Middlewares/lvgl/src/core/lv_indev.c ****         indev_proc_press(&i->proc);
 3820              		.loc 1 358 15 is_stmt 0 view .LVU1220
 3821 008e 2379     		ldrb	r3, [r4, #4]	@ zero_extendqisi2
 358:Middlewares/lvgl/src/core/lv_indev.c ****         indev_proc_press(&i->proc);
 3822              		.loc 1 358 7 view .LVU1221
 3823 0090 012B     		cmp	r3, #1
 3824 0092 10D0     		beq	.L269
 362:Middlewares/lvgl/src/core/lv_indev.c ****     }
 3825              		.loc 1 362 9 is_stmt 1 view .LVU1222
 3826 0094 201D     		adds	r0, r4, #4
 3827 0096 FFF7FEFF 		bl	indev_proc_release
 3828              	.LVL328:
 3829              	.L266:
 365:Middlewares/lvgl/src/core/lv_indev.c ****     i->proc.types.pointer.last_point.y = i->proc.types.pointer.act_point.y;
 3830              		.loc 1 365 5 view .LVU1223
 365:Middlewares/lvgl/src/core/lv_indev.c ****     i->proc.types.pointer.last_point.y = i->proc.types.pointer.act_point.y;
 3831              		.loc 1 365 73 is_stmt 0 view .LVU1224
 3832 009a B4F90830 		ldrsh	r3, [r4, #8]
 365:Middlewares/lvgl/src/core/lv_indev.c ****     i->proc.types.pointer.last_point.y = i->proc.types.pointer.act_point.y;
 3833              		.loc 1 365 40 view .LVU1225
 3834 009e A381     		strh	r3, [r4, #12]	@ movhi
 366:Middlewares/lvgl/src/core/lv_indev.c **** }
 3835              		.loc 1 366 5 is_stmt 1 view .LVU1226
 366:Middlewares/lvgl/src/core/lv_indev.c **** }
 3836              		.loc 1 366 73 is_stmt 0 view .LVU1227
 3837 00a0 B4F90A30 		ldrsh	r3, [r4, #10]
 366:Middlewares/lvgl/src/core/lv_indev.c **** }
 3838              		.loc 1 366 40 view .LVU1228
 3839 00a4 E381     		strh	r3, [r4, #14]	@ movhi
 367:Middlewares/lvgl/src/core/lv_indev.c **** 
 3840              		.loc 1 367 1 view .LVU1229
 3841 00a6 38BD     		pop	{r3, r4, r5, pc}
 3842              	.LVL329:
 3843              	.L268:
 352:Middlewares/lvgl/src/core/lv_indev.c ****     }
 3844              		.loc 1 352 9 is_stmt 1 view .LVU1230
 3845 00a8 B5F90220 		ldrsh	r2, [r5, #2]
 3846 00ac B5F90010 		ldrsh	r1, [r5]
 3847 00b0 FFF7FEFF 		bl	lv_obj_set_pos
 3848              	.LVL330:
 3849 00b4 E5E7     		b	.L264
 3850              	.L269:
 359:Middlewares/lvgl/src/core/lv_indev.c ****     }
 3851              		.loc 1 359 9 view .LVU1231
 3852 00b6 201D     		adds	r0, r4, #4
 3853 00b8 FFF7FEFF 		bl	indev_proc_press
ARM GAS  /tmp/ccjEXvZv.s 			page 108


 3854              	.LVL331:
 3855 00bc EDE7     		b	.L266
 3856              		.cfi_endproc
 3857              	.LFE172:
 3859              		.section	.text.indev_button_proc,"ax",%progbits
 3860              		.align	1
 3861              		.syntax unified
 3862              		.thumb
 3863              		.thumb_func
 3864              		.fpu fpv4-sp-d16
 3866              	indev_button_proc:
 3867              	.LVL332:
 3868              	.LFB175:
 720:Middlewares/lvgl/src/core/lv_indev.c ****     /*Die gracefully if i->btn_points is NULL*/
 3869              		.loc 1 720 1 view -0
 3870              		.cfi_startproc
 3871              		@ args = 0, pretend = 0, frame = 0
 3872              		@ frame_needed = 0, uses_anonymous_args = 0
 722:Middlewares/lvgl/src/core/lv_indev.c ****         LV_LOG_WARN("btn_points is NULL");
 3873              		.loc 1 722 5 view .LVU1233
 722:Middlewares/lvgl/src/core/lv_indev.c ****         LV_LOG_WARN("btn_points is NULL");
 3874              		.loc 1 722 9 is_stmt 0 view .LVU1234
 3875 0000 436D     		ldr	r3, [r0, #84]
 722:Middlewares/lvgl/src/core/lv_indev.c ****         LV_LOG_WARN("btn_points is NULL");
 3876              		.loc 1 722 7 view .LVU1235
 3877 0002 BBB3     		cbz	r3, .L277
 720:Middlewares/lvgl/src/core/lv_indev.c ****     /*Die gracefully if i->btn_points is NULL*/
 3878              		.loc 1 720 1 view .LVU1236
 3879 0004 2DE9F041 		push	{r4, r5, r6, r7, r8, lr}
 3880              	.LCFI11:
 3881              		.cfi_def_cfa_offset 24
 3882              		.cfi_offset 4, -24
 3883              		.cfi_offset 5, -20
 3884              		.cfi_offset 6, -16
 3885              		.cfi_offset 7, -12
 3886              		.cfi_offset 8, -8
 3887              		.cfi_offset 14, -4
 3888 0008 0446     		mov	r4, r0
 3889 000a 0D46     		mov	r5, r1
 727:Middlewares/lvgl/src/core/lv_indev.c ****     lv_coord_t y = i->btn_points[data->btn_id].y;
 3890              		.loc 1 727 5 is_stmt 1 view .LVU1237
 727:Middlewares/lvgl/src/core/lv_indev.c ****     lv_coord_t y = i->btn_points[data->btn_id].y;
 3891              		.loc 1 727 38 is_stmt 0 view .LVU1238
 3892 000c 8A68     		ldr	r2, [r1, #8]
 727:Middlewares/lvgl/src/core/lv_indev.c ****     lv_coord_t y = i->btn_points[data->btn_id].y;
 3893              		.loc 1 727 33 view .LVU1239
 3894 000e 03EB8201 		add	r1, r3, r2, lsl #2
 3895              	.LVL333:
 727:Middlewares/lvgl/src/core/lv_indev.c ****     lv_coord_t y = i->btn_points[data->btn_id].y;
 3896              		.loc 1 727 16 view .LVU1240
 3897 0012 33F92270 		ldrsh	r7, [r3, r2, lsl #2]
 3898              	.LVL334:
 728:Middlewares/lvgl/src/core/lv_indev.c **** 
 3899              		.loc 1 728 5 is_stmt 1 view .LVU1241
 728:Middlewares/lvgl/src/core/lv_indev.c **** 
 3900              		.loc 1 728 16 is_stmt 0 view .LVU1242
 3901 0016 B1F90280 		ldrsh	r8, [r1, #2]
ARM GAS  /tmp/ccjEXvZv.s 			page 109


 3902              	.LVL335:
 730:Middlewares/lvgl/src/core/lv_indev.c ****     if(prev_state != data->state) {
 3903              		.loc 1 730 5 is_stmt 1 view .LVU1243
 731:Middlewares/lvgl/src/core/lv_indev.c ****         if(data->state == LV_INDEV_STATE_PRESSED) {
 3904              		.loc 1 731 5 view .LVU1244
 731:Middlewares/lvgl/src/core/lv_indev.c ****         if(data->state == LV_INDEV_STATE_PRESSED) {
 3905              		.loc 1 731 26 is_stmt 0 view .LVU1245
 3906 001a AB7B     		ldrb	r3, [r5, #14]	@ zero_extendqisi2
 736:Middlewares/lvgl/src/core/lv_indev.c ****         }
 3907              		.loc 1 736 81 is_stmt 1 view .LVU1246
 741:Middlewares/lvgl/src/core/lv_indev.c ****         if(i->proc.types.pointer.last_point.x != x ||
 3908              		.loc 1 741 5 view .LVU1247
 741:Middlewares/lvgl/src/core/lv_indev.c ****         if(i->proc.types.pointer.last_point.x != x ||
 3909              		.loc 1 741 7 is_stmt 0 view .LVU1248
 3910 001c 012B     		cmp	r3, #1
 3911 001e 19D0     		beq	.L280
 3912              	.LVL336:
 3913              	.L272:
 748:Middlewares/lvgl/src/core/lv_indev.c **** 
 3914              		.loc 1 748 5 is_stmt 1 view .LVU1249
 748:Middlewares/lvgl/src/core/lv_indev.c **** 
 3915              		.loc 1 748 8 is_stmt 0 view .LVU1250
 3916 0020 261D     		adds	r6, r4, #4
 3917 0022 3046     		mov	r0, r6
 3918 0024 FFF7FEFF 		bl	indev_reset_check
 3919              	.LVL337:
 748:Middlewares/lvgl/src/core/lv_indev.c **** 
 3920              		.loc 1 748 7 view .LVU1251
 3921 0028 90B9     		cbnz	r0, .L270
 751:Middlewares/lvgl/src/core/lv_indev.c ****     i->proc.types.pointer.act_point.y = y;
 3922              		.loc 1 751 5 is_stmt 1 view .LVU1252
 751:Middlewares/lvgl/src/core/lv_indev.c ****     i->proc.types.pointer.act_point.y = y;
 3923              		.loc 1 751 39 is_stmt 0 view .LVU1253
 3924 002a 2781     		strh	r7, [r4, #8]	@ movhi
 752:Middlewares/lvgl/src/core/lv_indev.c **** 
 3925              		.loc 1 752 5 is_stmt 1 view .LVU1254
 752:Middlewares/lvgl/src/core/lv_indev.c **** 
 3926              		.loc 1 752 39 is_stmt 0 view .LVU1255
 3927 002c A4F80A80 		strh	r8, [r4, #10]	@ movhi
 754:Middlewares/lvgl/src/core/lv_indev.c ****     else indev_proc_release(&i->proc);
 3928              		.loc 1 754 5 is_stmt 1 view .LVU1256
 754:Middlewares/lvgl/src/core/lv_indev.c ****     else indev_proc_release(&i->proc);
 3929              		.loc 1 754 12 is_stmt 0 view .LVU1257
 3930 0030 AB7B     		ldrb	r3, [r5, #14]	@ zero_extendqisi2
 754:Middlewares/lvgl/src/core/lv_indev.c ****     else indev_proc_release(&i->proc);
 3931              		.loc 1 754 7 view .LVU1258
 3932 0032 012B     		cmp	r3, #1
 3933 0034 1AD0     		beq	.L281
 755:Middlewares/lvgl/src/core/lv_indev.c **** 
 3934              		.loc 1 755 10 is_stmt 1 view .LVU1259
 3935 0036 3046     		mov	r0, r6
 3936 0038 FFF7FEFF 		bl	indev_proc_release
 3937              	.LVL338:
 3938              	.L275:
 757:Middlewares/lvgl/src/core/lv_indev.c **** 
 3939              		.loc 1 757 5 view .LVU1260
 757:Middlewares/lvgl/src/core/lv_indev.c **** 
ARM GAS  /tmp/ccjEXvZv.s 			page 110


 3940              		.loc 1 757 8 is_stmt 0 view .LVU1261
 3941 003c 3046     		mov	r0, r6
 3942 003e FFF7FEFF 		bl	indev_reset_check
 3943              	.LVL339:
 757:Middlewares/lvgl/src/core/lv_indev.c **** 
 3944              		.loc 1 757 7 view .LVU1262
 3945 0042 28B9     		cbnz	r0, .L270
 759:Middlewares/lvgl/src/core/lv_indev.c ****     i->proc.types.pointer.last_point.y = i->proc.types.pointer.act_point.y;
 3946              		.loc 1 759 5 is_stmt 1 view .LVU1263
 759:Middlewares/lvgl/src/core/lv_indev.c ****     i->proc.types.pointer.last_point.y = i->proc.types.pointer.act_point.y;
 3947              		.loc 1 759 73 is_stmt 0 view .LVU1264
 3948 0044 B4F90830 		ldrsh	r3, [r4, #8]
 759:Middlewares/lvgl/src/core/lv_indev.c ****     i->proc.types.pointer.last_point.y = i->proc.types.pointer.act_point.y;
 3949              		.loc 1 759 40 view .LVU1265
 3950 0048 A381     		strh	r3, [r4, #12]	@ movhi
 760:Middlewares/lvgl/src/core/lv_indev.c **** }
 3951              		.loc 1 760 5 is_stmt 1 view .LVU1266
 760:Middlewares/lvgl/src/core/lv_indev.c **** }
 3952              		.loc 1 760 73 is_stmt 0 view .LVU1267
 3953 004a B4F90A30 		ldrsh	r3, [r4, #10]
 760:Middlewares/lvgl/src/core/lv_indev.c **** }
 3954              		.loc 1 760 40 view .LVU1268
 3955 004e E381     		strh	r3, [r4, #14]	@ movhi
 3956              	.L270:
 761:Middlewares/lvgl/src/core/lv_indev.c **** 
 3957              		.loc 1 761 1 view .LVU1269
 3958 0050 BDE8F081 		pop	{r4, r5, r6, r7, r8, pc}
 3959              	.LVL340:
 3960              	.L280:
 742:Middlewares/lvgl/src/core/lv_indev.c ****            i->proc.types.pointer.last_point.y != y) {
 3961              		.loc 1 742 9 is_stmt 1 view .LVU1270
 742:Middlewares/lvgl/src/core/lv_indev.c ****            i->proc.types.pointer.last_point.y != y) {
 3962              		.loc 1 742 44 is_stmt 0 view .LVU1271
 3963 0054 B0F90C30 		ldrsh	r3, [r0, #12]
 742:Middlewares/lvgl/src/core/lv_indev.c ****            i->proc.types.pointer.last_point.y != y) {
 3964              		.loc 1 742 11 view .LVU1272
 3965 0058 BB42     		cmp	r3, r7
 3966 005a 03D1     		bne	.L273
 743:Middlewares/lvgl/src/core/lv_indev.c ****             indev_proc_release(&i->proc);
 3967              		.loc 1 743 44 discriminator 1 view .LVU1273
 3968 005c B0F90E30 		ldrsh	r3, [r0, #14]
 742:Middlewares/lvgl/src/core/lv_indev.c ****            i->proc.types.pointer.last_point.y != y) {
 3969              		.loc 1 742 52 discriminator 1 view .LVU1274
 3970 0060 4345     		cmp	r3, r8
 3971 0062 DDD0     		beq	.L272
 3972              	.L273:
 744:Middlewares/lvgl/src/core/lv_indev.c ****         }
 3973              		.loc 1 744 13 is_stmt 1 view .LVU1275
 3974 0064 201D     		adds	r0, r4, #4
 3975              	.LVL341:
 744:Middlewares/lvgl/src/core/lv_indev.c ****         }
 3976              		.loc 1 744 13 is_stmt 0 view .LVU1276
 3977 0066 FFF7FEFF 		bl	indev_proc_release
 3978              	.LVL342:
 3979 006a D9E7     		b	.L272
 3980              	.L281:
 754:Middlewares/lvgl/src/core/lv_indev.c ****     else indev_proc_release(&i->proc);
ARM GAS  /tmp/ccjEXvZv.s 			page 111


 3981              		.loc 1 754 47 is_stmt 1 discriminator 1 view .LVU1277
 3982 006c 3046     		mov	r0, r6
 3983 006e FFF7FEFF 		bl	indev_proc_press
 3984              	.LVL343:
 3985 0072 E3E7     		b	.L275
 3986              	.LVL344:
 3987              	.L277:
 3988              	.LCFI12:
 3989              		.cfi_def_cfa_offset 0
 3990              		.cfi_restore 4
 3991              		.cfi_restore 5
 3992              		.cfi_restore 6
 3993              		.cfi_restore 7
 3994              		.cfi_restore 8
 3995              		.cfi_restore 14
 754:Middlewares/lvgl/src/core/lv_indev.c ****     else indev_proc_release(&i->proc);
 3996              		.loc 1 754 47 is_stmt 0 discriminator 1 view .LVU1278
 3997 0074 7047     		bx	lr
 3998              		.cfi_endproc
 3999              	.LFE175:
 4001              		.section	.text.lv_indev_read_timer_cb,"ax",%progbits
 4002              		.align	1
 4003              		.global	lv_indev_read_timer_cb
 4004              		.syntax unified
 4005              		.thumb
 4006              		.thumb_func
 4007              		.fpu fpv4-sp-d16
 4009              	lv_indev_read_timer_cb:
 4010              	.LVL345:
 4011              	.LFB153:
  65:Middlewares/lvgl/src/core/lv_indev.c ****     INDEV_TRACE("begin");
 4012              		.loc 1 65 1 is_stmt 1 view -0
 4013              		.cfi_startproc
 4014              		@ args = 0, pretend = 0, frame = 16
 4015              		@ frame_needed = 0, uses_anonymous_args = 0
  66:Middlewares/lvgl/src/core/lv_indev.c **** 
 4016              		.loc 1 66 25 view .LVU1280
  68:Middlewares/lvgl/src/core/lv_indev.c **** 
 4017              		.loc 1 68 5 view .LVU1281
  70:Middlewares/lvgl/src/core/lv_indev.c **** 
 4018              		.loc 1 70 5 view .LVU1282
  70:Middlewares/lvgl/src/core/lv_indev.c **** 
 4019              		.loc 1 70 22 is_stmt 0 view .LVU1283
 4020 0000 C068     		ldr	r0, [r0, #12]
 4021              	.LVL346:
  70:Middlewares/lvgl/src/core/lv_indev.c **** 
 4022              		.loc 1 70 15 view .LVU1284
 4023 0002 304B     		ldr	r3, .L302
 4024 0004 1860     		str	r0, [r3]
  73:Middlewares/lvgl/src/core/lv_indev.c **** 
 4025              		.loc 1 73 5 is_stmt 1 view .LVU1285
  73:Middlewares/lvgl/src/core/lv_indev.c **** 
 4026              		.loc 1 73 17 is_stmt 0 view .LVU1286
 4027 0006 0368     		ldr	r3, [r0]
  73:Middlewares/lvgl/src/core/lv_indev.c **** 
 4028              		.loc 1 73 25 view .LVU1287
 4029 0008 1B69     		ldr	r3, [r3, #16]
ARM GAS  /tmp/ccjEXvZv.s 			page 112


  73:Middlewares/lvgl/src/core/lv_indev.c **** 
 4030              		.loc 1 73 7 view .LVU1288
 4031 000a 002B     		cmp	r3, #0
 4032 000c 58D0     		beq	.L293
  65:Middlewares/lvgl/src/core/lv_indev.c ****     INDEV_TRACE("begin");
 4033              		.loc 1 65 1 view .LVU1289
 4034 000e 30B5     		push	{r4, r5, lr}
 4035              	.LCFI13:
 4036              		.cfi_def_cfa_offset 12
 4037              		.cfi_offset 4, -12
 4038              		.cfi_offset 5, -8
 4039              		.cfi_offset 14, -4
 4040 0010 85B0     		sub	sp, sp, #20
 4041              	.LCFI14:
 4042              		.cfi_def_cfa_offset 32
  76:Middlewares/lvgl/src/core/lv_indev.c **** 
 4043              		.loc 1 76 5 is_stmt 1 view .LVU1290
 4044 0012 FFF7FEFF 		bl	indev_proc_reset_query_handler
 4045              	.LVL347:
  78:Middlewares/lvgl/src/core/lv_indev.c ****     bool continue_reading;
 4046              		.loc 1 78 5 view .LVU1291
  78:Middlewares/lvgl/src/core/lv_indev.c ****     bool continue_reading;
 4047              		.loc 1 78 17 is_stmt 0 view .LVU1292
 4048 0016 2B4B     		ldr	r3, .L302
 4049 0018 1B68     		ldr	r3, [r3]
  78:Middlewares/lvgl/src/core/lv_indev.c ****     bool continue_reading;
 4050              		.loc 1 78 8 view .LVU1293
 4051 001a 5B79     		ldrb	r3, [r3, #5]	@ zero_extendqisi2
  78:Middlewares/lvgl/src/core/lv_indev.c ****     bool continue_reading;
 4052              		.loc 1 78 7 view .LVU1294
 4053 001c 13F0040F 		tst	r3, #4
 4054 0020 18D0     		beq	.L290
 4055 0022 4BE0     		b	.L282
 4056              	.LVL348:
 4057              	.L297:
  93:Middlewares/lvgl/src/core/lv_indev.c ****         }
 4058              		.loc 1 93 13 is_stmt 1 view .LVU1295
  93:Middlewares/lvgl/src/core/lv_indev.c ****         }
 4059              		.loc 1 93 22 is_stmt 0 view .LVU1296
 4060 0024 1368     		ldr	r3, [r2]
  93:Middlewares/lvgl/src/core/lv_indev.c ****         }
 4061              		.loc 1 93 30 view .LVU1297
 4062 0026 1C69     		ldr	r4, [r3, #16]
  93:Middlewares/lvgl/src/core/lv_indev.c ****         }
 4063              		.loc 1 93 59 view .LVU1298
 4064 0028 FFF7FEFF 		bl	lv_tick_get
 4065              	.LVL349:
  93:Middlewares/lvgl/src/core/lv_indev.c ****         }
 4066              		.loc 1 93 57 view .LVU1299
 4067 002c C4F85401 		str	r0, [r4, #340]
 4068 0030 27E0     		b	.L285
 4069              	.L298:
  95:Middlewares/lvgl/src/core/lv_indev.c ****             indev_act->driver->disp->last_activity_time = lv_tick_get();
 4070              		.loc 1 95 73 discriminator 1 view .LVU1300
 4071 0032 BDF90C20 		ldrsh	r2, [sp, #12]
  95:Middlewares/lvgl/src/core/lv_indev.c ****             indev_act->driver->disp->last_activity_time = lv_tick_get();
 4072              		.loc 1 95 66 discriminator 1 view .LVU1301
ARM GAS  /tmp/ccjEXvZv.s 			page 113


 4073 0036 22B3     		cbz	r2, .L285
  96:Middlewares/lvgl/src/core/lv_indev.c ****         }
 4074              		.loc 1 96 13 is_stmt 1 view .LVU1302
  96:Middlewares/lvgl/src/core/lv_indev.c ****         }
 4075              		.loc 1 96 30 is_stmt 0 view .LVU1303
 4076 0038 1C69     		ldr	r4, [r3, #16]
  96:Middlewares/lvgl/src/core/lv_indev.c ****         }
 4077              		.loc 1 96 59 view .LVU1304
 4078 003a FFF7FEFF 		bl	lv_tick_get
 4079              	.LVL350:
  96:Middlewares/lvgl/src/core/lv_indev.c ****         }
 4080              		.loc 1 96 57 view .LVU1305
 4081 003e C4F85401 		str	r0, [r4, #340]
 4082 0042 1EE0     		b	.L285
 4083              	.L299:
 100:Middlewares/lvgl/src/core/lv_indev.c ****         }
 4084              		.loc 1 100 13 is_stmt 1 view .LVU1306
 4085 0044 6946     		mov	r1, sp
 4086 0046 FFF7FEFF 		bl	indev_pointer_proc
 4087              	.LVL351:
 4088              	.L287:
 112:Middlewares/lvgl/src/core/lv_indev.c ****     } while(continue_reading);
 4089              		.loc 1 112 9 view .LVU1307
 4090 004a 1E4B     		ldr	r3, .L302
 4091 004c 1868     		ldr	r0, [r3]
 4092 004e FFF7FEFF 		bl	indev_proc_reset_query_handler
 4093              	.LVL352:
 113:Middlewares/lvgl/src/core/lv_indev.c **** 
 4094              		.loc 1 113 12 view .LVU1308
 113:Middlewares/lvgl/src/core/lv_indev.c **** 
 4095              		.loc 1 113 5 is_stmt 0 view .LVU1309
 4096 0052 75B3     		cbz	r5, .L296
 4097              	.LVL353:
 4098              	.L290:
  79:Middlewares/lvgl/src/core/lv_indev.c ****     do {
 4099              		.loc 1 79 5 is_stmt 1 view .LVU1310
  80:Middlewares/lvgl/src/core/lv_indev.c ****         /*Read the data*/
 4100              		.loc 1 80 5 view .LVU1311
  82:Middlewares/lvgl/src/core/lv_indev.c ****         continue_reading = data.continue_reading;
 4101              		.loc 1 82 9 view .LVU1312
 4102 0054 1B4C     		ldr	r4, .L302
 4103 0056 6946     		mov	r1, sp
 4104 0058 2068     		ldr	r0, [r4]
 4105 005a FFF7FEFF 		bl	_lv_indev_read
 4106              	.LVL354:
  83:Middlewares/lvgl/src/core/lv_indev.c **** 
 4107              		.loc 1 83 9 view .LVU1313
  83:Middlewares/lvgl/src/core/lv_indev.c **** 
 4108              		.loc 1 83 26 is_stmt 0 view .LVU1314
 4109 005e 9DF80F50 		ldrb	r5, [sp, #15]	@ zero_extendqisi2
 4110              	.LVL355:
  86:Middlewares/lvgl/src/core/lv_indev.c ****         indev_obj_act = NULL;
 4111              		.loc 1 86 9 is_stmt 1 view .LVU1315
 4112 0062 2068     		ldr	r0, [r4]
 4113 0064 FFF7FEFF 		bl	indev_proc_reset_query_handler
 4114              	.LVL356:
  87:Middlewares/lvgl/src/core/lv_indev.c **** 
ARM GAS  /tmp/ccjEXvZv.s 			page 114


 4115              		.loc 1 87 9 view .LVU1316
  87:Middlewares/lvgl/src/core/lv_indev.c **** 
 4116              		.loc 1 87 23 is_stmt 0 view .LVU1317
 4117 0068 174B     		ldr	r3, .L302+4
 4118 006a 0022     		movs	r2, #0
 4119 006c 1A60     		str	r2, [r3]
  89:Middlewares/lvgl/src/core/lv_indev.c **** 
 4120              		.loc 1 89 9 is_stmt 1 view .LVU1318
  89:Middlewares/lvgl/src/core/lv_indev.c **** 
 4121              		.loc 1 89 18 is_stmt 0 view .LVU1319
 4122 006e 2268     		ldr	r2, [r4]
  89:Middlewares/lvgl/src/core/lv_indev.c **** 
 4123              		.loc 1 89 37 view .LVU1320
 4124 0070 9DF80E30 		ldrb	r3, [sp, #14]	@ zero_extendqisi2
  89:Middlewares/lvgl/src/core/lv_indev.c **** 
 4125              		.loc 1 89 31 view .LVU1321
 4126 0074 1371     		strb	r3, [r2, #4]
  92:Middlewares/lvgl/src/core/lv_indev.c ****             indev_act->driver->disp->last_activity_time = lv_tick_get();
 4127              		.loc 1 92 9 is_stmt 1 view .LVU1322
  92:Middlewares/lvgl/src/core/lv_indev.c ****             indev_act->driver->disp->last_activity_time = lv_tick_get();
 4128              		.loc 1 92 11 is_stmt 0 view .LVU1323
 4129 0076 012B     		cmp	r3, #1
 4130 0078 D4D0     		beq	.L297
  95:Middlewares/lvgl/src/core/lv_indev.c ****             indev_act->driver->disp->last_activity_time = lv_tick_get();
 4131              		.loc 1 95 14 is_stmt 1 view .LVU1324
  95:Middlewares/lvgl/src/core/lv_indev.c ****             indev_act->driver->disp->last_activity_time = lv_tick_get();
 4132              		.loc 1 95 26 is_stmt 0 view .LVU1325
 4133 007a 1368     		ldr	r3, [r2]
  95:Middlewares/lvgl/src/core/lv_indev.c ****             indev_act->driver->disp->last_activity_time = lv_tick_get();
 4134              		.loc 1 95 34 view .LVU1326
 4135 007c 1A78     		ldrb	r2, [r3]	@ zero_extendqisi2
  95:Middlewares/lvgl/src/core/lv_indev.c ****             indev_act->driver->disp->last_activity_time = lv_tick_get();
 4136              		.loc 1 95 16 view .LVU1327
 4137 007e 042A     		cmp	r2, #4
 4138 0080 D7D0     		beq	.L298
 4139              	.L285:
  99:Middlewares/lvgl/src/core/lv_indev.c ****             indev_pointer_proc(indev_act, &data);
 4140              		.loc 1 99 9 is_stmt 1 view .LVU1328
  99:Middlewares/lvgl/src/core/lv_indev.c ****             indev_pointer_proc(indev_act, &data);
 4141              		.loc 1 99 21 is_stmt 0 view .LVU1329
 4142 0082 104B     		ldr	r3, .L302
 4143 0084 1868     		ldr	r0, [r3]
 4144 0086 0368     		ldr	r3, [r0]
  99:Middlewares/lvgl/src/core/lv_indev.c ****             indev_pointer_proc(indev_act, &data);
 4145              		.loc 1 99 29 view .LVU1330
 4146 0088 1B78     		ldrb	r3, [r3]	@ zero_extendqisi2
  99:Middlewares/lvgl/src/core/lv_indev.c ****             indev_pointer_proc(indev_act, &data);
 4147              		.loc 1 99 11 view .LVU1331
 4148 008a 012B     		cmp	r3, #1
 4149 008c DAD0     		beq	.L299
 102:Middlewares/lvgl/src/core/lv_indev.c ****             indev_keypad_proc(indev_act, &data);
 4150              		.loc 1 102 14 is_stmt 1 view .LVU1332
 102:Middlewares/lvgl/src/core/lv_indev.c ****             indev_keypad_proc(indev_act, &data);
 4151              		.loc 1 102 16 is_stmt 0 view .LVU1333
 4152 008e 022B     		cmp	r3, #2
 4153 0090 07D0     		beq	.L300
 105:Middlewares/lvgl/src/core/lv_indev.c ****             indev_encoder_proc(indev_act, &data);
ARM GAS  /tmp/ccjEXvZv.s 			page 115


 4154              		.loc 1 105 14 is_stmt 1 view .LVU1334
 105:Middlewares/lvgl/src/core/lv_indev.c ****             indev_encoder_proc(indev_act, &data);
 4155              		.loc 1 105 16 is_stmt 0 view .LVU1335
 4156 0092 042B     		cmp	r3, #4
 4157 0094 09D0     		beq	.L301
 108:Middlewares/lvgl/src/core/lv_indev.c ****             indev_button_proc(indev_act, &data);
 4158              		.loc 1 108 14 is_stmt 1 view .LVU1336
 108:Middlewares/lvgl/src/core/lv_indev.c ****             indev_button_proc(indev_act, &data);
 4159              		.loc 1 108 16 is_stmt 0 view .LVU1337
 4160 0096 032B     		cmp	r3, #3
 4161 0098 D7D1     		bne	.L287
 109:Middlewares/lvgl/src/core/lv_indev.c ****         }
 4162              		.loc 1 109 13 is_stmt 1 view .LVU1338
 4163 009a 6946     		mov	r1, sp
 4164 009c FFF7FEFF 		bl	indev_button_proc
 4165              	.LVL357:
 4166 00a0 D3E7     		b	.L287
 4167              	.L300:
 103:Middlewares/lvgl/src/core/lv_indev.c ****         }
 4168              		.loc 1 103 13 view .LVU1339
 4169 00a2 6946     		mov	r1, sp
 4170 00a4 FFF7FEFF 		bl	indev_keypad_proc
 4171              	.LVL358:
 4172 00a8 CFE7     		b	.L287
 4173              	.L301:
 106:Middlewares/lvgl/src/core/lv_indev.c ****         }
 4174              		.loc 1 106 13 view .LVU1340
 4175 00aa 6946     		mov	r1, sp
 4176 00ac FFF7FEFF 		bl	indev_encoder_proc
 4177              	.LVL359:
 4178 00b0 CBE7     		b	.L287
 4179              	.L296:
 116:Middlewares/lvgl/src/core/lv_indev.c ****     indev_obj_act = NULL;
 4180              		.loc 1 116 5 view .LVU1341
 116:Middlewares/lvgl/src/core/lv_indev.c ****     indev_obj_act = NULL;
 4181              		.loc 1 116 19 is_stmt 0 view .LVU1342
 4182 00b2 0023     		movs	r3, #0
 4183 00b4 034A     		ldr	r2, .L302
 4184 00b6 1360     		str	r3, [r2]
 117:Middlewares/lvgl/src/core/lv_indev.c **** 
 4185              		.loc 1 117 5 is_stmt 1 view .LVU1343
 117:Middlewares/lvgl/src/core/lv_indev.c **** 
 4186              		.loc 1 117 19 is_stmt 0 view .LVU1344
 4187 00b8 034A     		ldr	r2, .L302+4
 4188 00ba 1360     		str	r3, [r2]
 119:Middlewares/lvgl/src/core/lv_indev.c **** }
 4189              		.loc 1 119 28 is_stmt 1 view .LVU1345
 4190              	.LVL360:
 4191              	.L282:
 120:Middlewares/lvgl/src/core/lv_indev.c **** 
 4192              		.loc 1 120 1 is_stmt 0 view .LVU1346
 4193 00bc 05B0     		add	sp, sp, #20
 4194              	.LCFI15:
 4195              		.cfi_def_cfa_offset 12
 4196              		@ sp needed
 4197 00be 30BD     		pop	{r4, r5, pc}
 4198              	.L293:
ARM GAS  /tmp/ccjEXvZv.s 			page 116


 4199              	.LCFI16:
 4200              		.cfi_def_cfa_offset 0
 4201              		.cfi_restore 4
 4202              		.cfi_restore 5
 4203              		.cfi_restore 14
 4204 00c0 7047     		bx	lr
 4205              	.L303:
 4206 00c2 00BF     		.align	2
 4207              	.L302:
 4208 00c4 00000000 		.word	.LANCHOR1
 4209 00c8 00000000 		.word	.LANCHOR0
 4210              		.cfi_endproc
 4211              	.LFE153:
 4213              		.section	.bss.indev_act,"aw",%nobits
 4214              		.align	2
 4215              		.set	.LANCHOR1,. + 0
 4218              	indev_act:
 4219 0000 00000000 		.space	4
 4220              		.section	.bss.indev_obj_act,"aw",%nobits
 4221              		.align	2
 4222              		.set	.LANCHOR0,. + 0
 4225              	indev_obj_act:
 4226 0000 00000000 		.space	4
 4227              		.text
 4228              	.Letext0:
 4229              		.file 2 "/home/akinya/gcc-arm-none-eabi/arm-none-eabi/include/machine/_default_types.h"
 4230              		.file 3 "/home/akinya/gcc-arm-none-eabi/arm-none-eabi/include/sys/_stdint.h"
 4231              		.file 4 "Middlewares/lvgl/src/core/../misc/../font/../misc/lv_area.h"
 4232              		.file 5 "Middlewares/lvgl/src/core/../misc/../font/lv_font.h"
 4233              		.file 6 "Middlewares/lvgl/src/core/../misc/lv_color.h"
 4234              		.file 7 "Middlewares/lvgl/src/core/../misc/lv_style.h"
 4235              		.file 8 "Middlewares/lvgl/src/core/../hal/../misc/lv_ll.h"
 4236              		.file 9 "Middlewares/lvgl/src/core/../hal/../misc/lv_timer.h"
 4237              		.file 10 "Middlewares/lvgl/src/core/../hal/lv_hal_disp.h"
 4238              		.file 11 "Middlewares/lvgl/src/core/lv_theme.h"
 4239              		.file 12 "Middlewares/lvgl/src/core/lv_obj.h"
 4240              		.file 13 "Middlewares/lvgl/src/core/../hal/lv_hal_indev.h"
 4241              		.file 14 "Middlewares/lvgl/src/core/lv_group.h"
 4242              		.file 15 "Middlewares/lvgl/src/core/lv_obj_scroll.h"
 4243              		.file 16 "Middlewares/lvgl/src/core/lv_obj_style.h"
 4244              		.file 17 "Middlewares/lvgl/src/core/lv_obj_class.h"
 4245              		.file 18 "Middlewares/lvgl/src/core/lv_event.h"
 4246              		.file 19 "Middlewares/lvgl/src/core/lv_obj_tree.h"
 4247              		.file 20 "Middlewares/lvgl/src/core/lv_indev_scroll.h"
 4248              		.file 21 "Middlewares/lvgl/src/core/../hal/lv_hal_tick.h"
 4249              		.file 22 "Middlewares/lvgl/src/core/lv_disp.h"
 4250              		.file 23 "Middlewares/lvgl/src/core/lv_obj_pos.h"
ARM GAS  /tmp/ccjEXvZv.s 			page 117


DEFINED SYMBOLS
                            *ABS*:0000000000000000 lv_indev.c
     /tmp/ccjEXvZv.s:18     .text.indev_proc_reset_query_handler:0000000000000000 $t
     /tmp/ccjEXvZv.s:25     .text.indev_proc_reset_query_handler:0000000000000000 indev_proc_reset_query_handler
     /tmp/ccjEXvZv.s:99     .text.indev_proc_reset_query_handler:0000000000000044 $d
     /tmp/ccjEXvZv.s:104    .text.indev_reset_check:0000000000000000 $t
     /tmp/ccjEXvZv.s:110    .text.indev_reset_check:0000000000000000 indev_reset_check
     /tmp/ccjEXvZv.s:138    .text.indev_reset_check:0000000000000014 $d
     /tmp/ccjEXvZv.s:143    .text.indev_proc_release:0000000000000000 $t
     /tmp/ccjEXvZv.s:149    .text.indev_proc_release:0000000000000000 indev_proc_release
     /tmp/ccjEXvZv.s:293    .text.indev_proc_release:0000000000000090 $d
     /tmp/ccjEXvZv.s:299    .text.indev_click_focus:0000000000000000 $t
     /tmp/ccjEXvZv.s:305    .text.indev_click_focus:0000000000000000 indev_click_focus
     /tmp/ccjEXvZv.s:544    .text.indev_click_focus:00000000000000f4 $d
     /tmp/ccjEXvZv.s:551    .text.indev_gesture:0000000000000000 $t
     /tmp/ccjEXvZv.s:557    .text.indev_gesture:0000000000000000 indev_gesture
     /tmp/ccjEXvZv.s:752    .text.indev_gesture:0000000000000110 $d
     /tmp/ccjEXvZv.s:757    .text.indev_keypad_proc:0000000000000000 $t
     /tmp/ccjEXvZv.s:763    .text.indev_keypad_proc:0000000000000000 indev_keypad_proc
     /tmp/ccjEXvZv.s:1281   .text.indev_keypad_proc:0000000000000260 $d
     /tmp/ccjEXvZv.s:1287   .text.indev_encoder_proc:0000000000000000 $t
     /tmp/ccjEXvZv.s:1293   .text.indev_encoder_proc:0000000000000000 indev_encoder_proc
     /tmp/ccjEXvZv.s:1844   .text.indev_encoder_proc:0000000000000278 $d
     /tmp/ccjEXvZv.s:1850   .text.indev_encoder_proc:0000000000000280 $t
     /tmp/ccjEXvZv.s:2103   .text.indev_encoder_proc:00000000000003a8 $d
     /tmp/ccjEXvZv.s:2110   .text.lv_indev_enable:0000000000000000 $t
     /tmp/ccjEXvZv.s:2117   .text.lv_indev_enable:0000000000000000 lv_indev_enable
     /tmp/ccjEXvZv.s:2143   .text.lv_indev_get_act:0000000000000000 $t
     /tmp/ccjEXvZv.s:2150   .text.lv_indev_get_act:0000000000000000 lv_indev_get_act
     /tmp/ccjEXvZv.s:2165   .text.lv_indev_get_act:0000000000000008 $d
     /tmp/ccjEXvZv.s:2170   .text.lv_indev_get_type:0000000000000000 $t
     /tmp/ccjEXvZv.s:2177   .text.lv_indev_get_type:0000000000000000 lv_indev_get_type
     /tmp/ccjEXvZv.s:2207   .text.lv_indev_reset:0000000000000000 $t
     /tmp/ccjEXvZv.s:2214   .text.lv_indev_reset:0000000000000000 lv_indev_reset
     /tmp/ccjEXvZv.s:2394   .text.lv_indev_reset:000000000000009c $d
     /tmp/ccjEXvZv.s:2400   .text.lv_indev_reset_long_press:0000000000000000 $t
     /tmp/ccjEXvZv.s:2407   .text.lv_indev_reset_long_press:0000000000000000 lv_indev_reset_long_press
     /tmp/ccjEXvZv.s:2445   .text.lv_indev_set_cursor:0000000000000000 $t
     /tmp/ccjEXvZv.s:2452   .text.lv_indev_set_cursor:0000000000000000 lv_indev_set_cursor
     /tmp/ccjEXvZv.s:2521   .text.lv_indev_set_group:0000000000000000 $t
     /tmp/ccjEXvZv.s:2528   .text.lv_indev_set_group:0000000000000000 lv_indev_set_group
     /tmp/ccjEXvZv.s:2558   .text.lv_indev_set_button_points:0000000000000000 $t
     /tmp/ccjEXvZv.s:2565   .text.lv_indev_set_button_points:0000000000000000 lv_indev_set_button_points
     /tmp/ccjEXvZv.s:2594   .text.lv_indev_get_point:0000000000000000 $t
     /tmp/ccjEXvZv.s:2601   .text.lv_indev_get_point:0000000000000000 lv_indev_get_point
     /tmp/ccjEXvZv.s:2659   .text.lv_indev_get_gesture_dir:0000000000000000 $t
     /tmp/ccjEXvZv.s:2666   .text.lv_indev_get_gesture_dir:0000000000000000 lv_indev_get_gesture_dir
     /tmp/ccjEXvZv.s:2685   .text.lv_indev_get_key:0000000000000000 $t
     /tmp/ccjEXvZv.s:2692   .text.lv_indev_get_key:0000000000000000 lv_indev_get_key
     /tmp/ccjEXvZv.s:2725   .text.lv_indev_get_scroll_dir:0000000000000000 $t
     /tmp/ccjEXvZv.s:2732   .text.lv_indev_get_scroll_dir:0000000000000000 lv_indev_get_scroll_dir
     /tmp/ccjEXvZv.s:2781   .text.lv_indev_get_scroll_obj:0000000000000000 $t
     /tmp/ccjEXvZv.s:2788   .text.lv_indev_get_scroll_obj:0000000000000000 lv_indev_get_scroll_obj
     /tmp/ccjEXvZv.s:2832   .text.lv_indev_get_vect:0000000000000000 $t
     /tmp/ccjEXvZv.s:2839   .text.lv_indev_get_vect:0000000000000000 lv_indev_get_vect
     /tmp/ccjEXvZv.s:2887   .text.lv_indev_wait_release:0000000000000000 $t
     /tmp/ccjEXvZv.s:2894   .text.lv_indev_wait_release:0000000000000000 lv_indev_wait_release
ARM GAS  /tmp/ccjEXvZv.s 			page 118


     /tmp/ccjEXvZv.s:2917   .text.lv_indev_get_obj_act:0000000000000000 $t
     /tmp/ccjEXvZv.s:2924   .text.lv_indev_get_obj_act:0000000000000000 lv_indev_get_obj_act
     /tmp/ccjEXvZv.s:2939   .text.lv_indev_get_obj_act:0000000000000008 $d
     /tmp/ccjEXvZv.s:2944   .text.lv_indev_get_read_timer:0000000000000000 $t
     /tmp/ccjEXvZv.s:2951   .text.lv_indev_get_read_timer:0000000000000000 lv_indev_get_read_timer
     /tmp/ccjEXvZv.s:2976   .text.lv_indev_search_obj:0000000000000000 $t
     /tmp/ccjEXvZv.s:2983   .text.lv_indev_search_obj:0000000000000000 lv_indev_search_obj
     /tmp/ccjEXvZv.s:3125   .text.indev_proc_press:0000000000000000 $t
     /tmp/ccjEXvZv.s:3131   .text.indev_proc_press:0000000000000000 indev_proc_press
     /tmp/ccjEXvZv.s:3656   .text.indev_proc_press:0000000000000280 $d
     /tmp/ccjEXvZv.s:3662   .text.indev_pointer_proc:0000000000000000 $t
     /tmp/ccjEXvZv.s:3668   .text.indev_pointer_proc:0000000000000000 indev_pointer_proc
     /tmp/ccjEXvZv.s:3860   .text.indev_button_proc:0000000000000000 $t
     /tmp/ccjEXvZv.s:3866   .text.indev_button_proc:0000000000000000 indev_button_proc
     /tmp/ccjEXvZv.s:4002   .text.lv_indev_read_timer_cb:0000000000000000 $t
     /tmp/ccjEXvZv.s:4009   .text.lv_indev_read_timer_cb:0000000000000000 lv_indev_read_timer_cb
     /tmp/ccjEXvZv.s:4208   .text.lv_indev_read_timer_cb:00000000000000c4 $d
     /tmp/ccjEXvZv.s:4214   .bss.indev_act:0000000000000000 $d
     /tmp/ccjEXvZv.s:4218   .bss.indev_act:0000000000000000 indev_act
     /tmp/ccjEXvZv.s:4221   .bss.indev_obj_act:0000000000000000 $d
     /tmp/ccjEXvZv.s:4225   .bss.indev_obj_act:0000000000000000 indev_obj_act

UNDEFINED SYMBOLS
lv_event_send
_lv_indev_scroll_throw_handler
lv_obj_has_flag
lv_obj_get_group
lv_group_focus_obj
lv_obj_get_parent
lv_group_get_focused
lv_tick_get
lv_group_send_data
lv_group_set_editing
lv_group_focus_next
lv_group_focus_prev
lv_tick_elaps
lv_obj_is_editable
lv_group_get_editing
lv_group_get_obj_count
lv_obj_clear_state
lv_indev_get_next
lv_disp_get_layer_sys
lv_obj_set_parent
lv_obj_set_pos
lv_obj_clear_flag
lv_obj_add_flag
lv_obj_hit_test
lv_obj_get_child_cnt
lv_obj_get_child
lv_obj_get_state
lv_disp_get_layer_top
lv_disp_get_scr_act
_lv_indev_scroll_handler
lv_disp_get_hor_res
lv_disp_get_ver_res
_lv_indev_read
