ARM GAS  /tmp/ccR17GfH.s 			page 1


   1              		.cpu cortex-m4
   2              		.eabi_attribute 27, 1
   3              		.eabi_attribute 28, 1
   4              		.eabi_attribute 20, 1
   5              		.eabi_attribute 21, 1
   6              		.eabi_attribute 23, 3
   7              		.eabi_attribute 24, 1
   8              		.eabi_attribute 25, 1
   9              		.eabi_attribute 26, 1
  10              		.eabi_attribute 30, 1
  11              		.eabi_attribute 34, 1
  12              		.eabi_attribute 18, 4
  13              		.file	"lv_math.c"
  14              		.text
  15              	.Ltext0:
  16              		.cfi_sections	.debug_frame
  17              		.section	.text.lv_trigo_sin,"ax",%progbits
  18              		.align	1
  19              		.global	lv_trigo_sin
  20              		.arch armv7e-m
  21              		.syntax unified
  22              		.thumb
  23              		.thumb_func
  24              		.fpu fpv4-sp-d16
  26              	lv_trigo_sin:
  27              	.LVL0:
  28              	.LFB1:
  29              		.file 1 "Middlewares/lvgl/src/misc/lv_math.c"
   1:Middlewares/lvgl/src/misc/lv_math.c **** /**
   2:Middlewares/lvgl/src/misc/lv_math.c ****  * @file lv_math.c
   3:Middlewares/lvgl/src/misc/lv_math.c ****  *
   4:Middlewares/lvgl/src/misc/lv_math.c ****  */
   5:Middlewares/lvgl/src/misc/lv_math.c **** 
   6:Middlewares/lvgl/src/misc/lv_math.c **** /*********************
   7:Middlewares/lvgl/src/misc/lv_math.c ****  *      INCLUDES
   8:Middlewares/lvgl/src/misc/lv_math.c ****  *********************/
   9:Middlewares/lvgl/src/misc/lv_math.c **** #include "lv_math.h"
  10:Middlewares/lvgl/src/misc/lv_math.c **** #include <stdbool.h>
  11:Middlewares/lvgl/src/misc/lv_math.c **** 
  12:Middlewares/lvgl/src/misc/lv_math.c **** /*********************
  13:Middlewares/lvgl/src/misc/lv_math.c ****  *      DEFINES
  14:Middlewares/lvgl/src/misc/lv_math.c ****  *********************/
  15:Middlewares/lvgl/src/misc/lv_math.c **** 
  16:Middlewares/lvgl/src/misc/lv_math.c **** /**********************
  17:Middlewares/lvgl/src/misc/lv_math.c ****  *      TYPEDEFS
  18:Middlewares/lvgl/src/misc/lv_math.c ****  **********************/
  19:Middlewares/lvgl/src/misc/lv_math.c **** 
  20:Middlewares/lvgl/src/misc/lv_math.c **** /**********************
  21:Middlewares/lvgl/src/misc/lv_math.c ****  *  STATIC PROTOTYPES
  22:Middlewares/lvgl/src/misc/lv_math.c ****  **********************/
  23:Middlewares/lvgl/src/misc/lv_math.c **** 
  24:Middlewares/lvgl/src/misc/lv_math.c **** /**********************
  25:Middlewares/lvgl/src/misc/lv_math.c ****  *  STATIC VARIABLES
  26:Middlewares/lvgl/src/misc/lv_math.c ****  **********************/
  27:Middlewares/lvgl/src/misc/lv_math.c **** static const int16_t sin0_90_table[] = {
  28:Middlewares/lvgl/src/misc/lv_math.c ****     0,     572,   1144,  1715,  2286,  2856,  3425,  3993,  4560,  5126,  5690,  6252,  6813,  7371
  29:Middlewares/lvgl/src/misc/lv_math.c ****     9032,  9580,  10126, 10668, 11207, 11743, 12275, 12803, 13328, 13848, 14364, 14876, 15383, 1588
ARM GAS  /tmp/ccR17GfH.s 			page 2


  30:Middlewares/lvgl/src/misc/lv_math.c ****     17364, 17846, 18323, 18794, 19260, 19720, 20173, 20621, 21062, 21497, 21925, 22347, 22762, 2317
  31:Middlewares/lvgl/src/misc/lv_math.c ****     24351, 24730, 25101, 25465, 25821, 26169, 26509, 26841, 27165, 27481, 27788, 28087, 28377, 2865
  32:Middlewares/lvgl/src/misc/lv_math.c ****     29451, 29697, 29934, 30162, 30381, 30591, 30791, 30982, 31163, 31335, 31498, 31650, 31794, 3192
  33:Middlewares/lvgl/src/misc/lv_math.c ****     32269, 32364, 32448, 32523, 32587, 32642, 32687, 32722, 32747, 32762, 32767
  34:Middlewares/lvgl/src/misc/lv_math.c **** };
  35:Middlewares/lvgl/src/misc/lv_math.c **** 
  36:Middlewares/lvgl/src/misc/lv_math.c **** /**********************
  37:Middlewares/lvgl/src/misc/lv_math.c ****  *      MACROS
  38:Middlewares/lvgl/src/misc/lv_math.c ****  **********************/
  39:Middlewares/lvgl/src/misc/lv_math.c **** 
  40:Middlewares/lvgl/src/misc/lv_math.c **** /**********************
  41:Middlewares/lvgl/src/misc/lv_math.c ****  *   GLOBAL FUNCTIONS
  42:Middlewares/lvgl/src/misc/lv_math.c ****  **********************/
  43:Middlewares/lvgl/src/misc/lv_math.c **** 
  44:Middlewares/lvgl/src/misc/lv_math.c **** /**
  45:Middlewares/lvgl/src/misc/lv_math.c ****  * Return with sinus of an angle
  46:Middlewares/lvgl/src/misc/lv_math.c ****  * @param angle
  47:Middlewares/lvgl/src/misc/lv_math.c ****  * @return sinus of 'angle'. sin(-90) = -32767, sin(90) = 32767
  48:Middlewares/lvgl/src/misc/lv_math.c ****  */
  49:Middlewares/lvgl/src/misc/lv_math.c **** LV_ATTRIBUTE_FAST_MEM int16_t lv_trigo_sin(int16_t angle)
  50:Middlewares/lvgl/src/misc/lv_math.c **** {
  30              		.loc 1 50 1 view -0
  31              		.cfi_startproc
  32              		@ args = 0, pretend = 0, frame = 0
  33              		@ frame_needed = 0, uses_anonymous_args = 0
  34              		@ link register save eliminated.
  51:Middlewares/lvgl/src/misc/lv_math.c ****     int16_t ret = 0;
  35              		.loc 1 51 5 view .LVU1
  52:Middlewares/lvgl/src/misc/lv_math.c ****     angle       = angle % 360;
  36              		.loc 1 52 5 view .LVU2
  37              		.loc 1 52 17 is_stmt 0 view .LVU3
  38 0000 1C4B     		ldr	r3, .L8
  39 0002 83FB0023 		smull	r2, r3, r3, r0
  40 0006 0344     		add	r3, r3, r0
  41 0008 C217     		asrs	r2, r0, #31
  42 000a C2EB2323 		rsb	r3, r2, r3, asr #8
  43 000e 4FF4B472 		mov	r2, #360
  44 0012 02FB1300 		mls	r0, r2, r3, r0
  45              	.LVL1:
  46              		.loc 1 52 17 view .LVU4
  47 0016 00B2     		sxth	r0, r0
  48              	.LVL2:
  53:Middlewares/lvgl/src/misc/lv_math.c **** 
  54:Middlewares/lvgl/src/misc/lv_math.c ****     if(angle < 0) angle = 360 + angle;
  49              		.loc 1 54 5 is_stmt 1 view .LVU5
  50              		.loc 1 54 7 is_stmt 0 view .LVU6
  51 0018 0028     		cmp	r0, #0
  52 001a 05DB     		blt	.L7
  53              	.L2:
  55:Middlewares/lvgl/src/misc/lv_math.c **** 
  56:Middlewares/lvgl/src/misc/lv_math.c ****     if(angle < 90) {
  54              		.loc 1 56 5 is_stmt 1 view .LVU7
  55              		.loc 1 56 7 is_stmt 0 view .LVU8
  56 001c 5928     		cmp	r0, #89
  57 001e 06DC     		bgt	.L3
  57:Middlewares/lvgl/src/misc/lv_math.c ****         ret = sin0_90_table[angle];
  58              		.loc 1 57 9 is_stmt 1 view .LVU9
ARM GAS  /tmp/ccR17GfH.s 			page 3


  59              		.loc 1 57 13 is_stmt 0 view .LVU10
  60 0020 154B     		ldr	r3, .L8+4
  61 0022 33F91000 		ldrsh	r0, [r3, r0, lsl #1]
  62              	.LVL3:
  63              		.loc 1 57 13 view .LVU11
  64 0026 7047     		bx	lr
  65              	.LVL4:
  66              	.L7:
  54:Middlewares/lvgl/src/misc/lv_math.c **** 
  67              		.loc 1 54 19 is_stmt 1 discriminator 1 view .LVU12
  54:Middlewares/lvgl/src/misc/lv_math.c **** 
  68              		.loc 1 54 31 is_stmt 0 discriminator 1 view .LVU13
  69 0028 1044     		add	r0, r0, r2
  70              	.LVL5:
  54:Middlewares/lvgl/src/misc/lv_math.c **** 
  71              		.loc 1 54 25 discriminator 1 view .LVU14
  72 002a 00B2     		sxth	r0, r0
  73              	.LVL6:
  54:Middlewares/lvgl/src/misc/lv_math.c **** 
  74              		.loc 1 54 25 discriminator 1 view .LVU15
  75 002c F6E7     		b	.L2
  76              	.L3:
  58:Middlewares/lvgl/src/misc/lv_math.c ****     }
  59:Middlewares/lvgl/src/misc/lv_math.c ****     else if(angle >= 90 && angle < 180) {
  77              		.loc 1 59 10 is_stmt 1 view .LVU16
  78              		.loc 1 59 25 is_stmt 0 view .LVU17
  79 002e 80B2     		uxth	r0, r0
  80              		.loc 1 59 25 view .LVU18
  81 0030 A0F15A03 		sub	r3, r0, #90
  82 0034 9BB2     		uxth	r3, r3
  83              		.loc 1 59 12 view .LVU19
  84 0036 592B     		cmp	r3, #89
  85 0038 06D8     		bhi	.L5
  60:Middlewares/lvgl/src/misc/lv_math.c ****         angle = 180 - angle;
  86              		.loc 1 60 9 is_stmt 1 view .LVU20
  87              		.loc 1 60 21 is_stmt 0 view .LVU21
  88 003a C0F1B400 		rsb	r0, r0, #180
  89              	.LVL7:
  90              		.loc 1 60 15 view .LVU22
  91 003e 00B2     		sxth	r0, r0
  92              	.LVL8:
  61:Middlewares/lvgl/src/misc/lv_math.c ****         ret   = sin0_90_table[angle];
  93              		.loc 1 61 9 is_stmt 1 view .LVU23
  94              		.loc 1 61 15 is_stmt 0 view .LVU24
  95 0040 0D4B     		ldr	r3, .L8+4
  96 0042 33F91000 		ldrsh	r0, [r3, r0, lsl #1]
  97              	.LVL9:
  98              		.loc 1 61 15 view .LVU25
  99 0046 7047     		bx	lr
 100              	.LVL10:
 101              	.L5:
  62:Middlewares/lvgl/src/misc/lv_math.c ****     }
  63:Middlewares/lvgl/src/misc/lv_math.c ****     else if(angle >= 180 && angle < 270) {
 102              		.loc 1 63 10 is_stmt 1 view .LVU26
 103              		.loc 1 63 26 is_stmt 0 view .LVU27
 104 0048 A0F1B403 		sub	r3, r0, #180
 105 004c 9BB2     		uxth	r3, r3
ARM GAS  /tmp/ccR17GfH.s 			page 4


 106              		.loc 1 63 12 view .LVU28
 107 004e 592B     		cmp	r3, #89
 108 0050 06D8     		bhi	.L6
  64:Middlewares/lvgl/src/misc/lv_math.c ****         angle = angle - 180;
 109              		.loc 1 64 9 is_stmt 1 view .LVU29
 110              		.loc 1 64 15 is_stmt 0 view .LVU30
 111 0052 1BB2     		sxth	r3, r3
 112              	.LVL11:
  65:Middlewares/lvgl/src/misc/lv_math.c ****         ret   = -sin0_90_table[angle];
 113              		.loc 1 65 9 is_stmt 1 view .LVU31
 114              		.loc 1 65 31 is_stmt 0 view .LVU32
 115 0054 084A     		ldr	r2, .L8+4
 116 0056 32F81300 		ldrh	r0, [r2, r3, lsl #1]
 117              		.loc 1 65 15 view .LVU33
 118 005a 4042     		rsbs	r0, r0, #0
 119 005c 00B2     		sxth	r0, r0
 120              	.LVL12:
 121              		.loc 1 65 15 view .LVU34
 122 005e 7047     		bx	lr
 123              	.LVL13:
 124              	.L6:
  66:Middlewares/lvgl/src/misc/lv_math.c ****     }
  67:Middlewares/lvgl/src/misc/lv_math.c ****     else {   /*angle >=270*/
  68:Middlewares/lvgl/src/misc/lv_math.c ****         angle = 360 - angle;
 125              		.loc 1 68 9 is_stmt 1 view .LVU35
 126              		.loc 1 68 21 is_stmt 0 view .LVU36
 127 0060 C0F5B470 		rsb	r0, r0, #360
 128              	.LVL14:
 129              		.loc 1 68 15 view .LVU37
 130 0064 00B2     		sxth	r0, r0
 131              	.LVL15:
  69:Middlewares/lvgl/src/misc/lv_math.c ****         ret   = -sin0_90_table[angle];
 132              		.loc 1 69 9 is_stmt 1 view .LVU38
 133              		.loc 1 69 31 is_stmt 0 view .LVU39
 134 0066 044B     		ldr	r3, .L8+4
 135 0068 33F81000 		ldrh	r0, [r3, r0, lsl #1]
 136              	.LVL16:
 137              		.loc 1 69 15 view .LVU40
 138 006c 4042     		rsbs	r0, r0, #0
 139 006e 00B2     		sxth	r0, r0
 140              	.LVL17:
  70:Middlewares/lvgl/src/misc/lv_math.c ****     }
  71:Middlewares/lvgl/src/misc/lv_math.c **** 
  72:Middlewares/lvgl/src/misc/lv_math.c ****     return ret;
 141              		.loc 1 72 5 is_stmt 1 view .LVU41
  73:Middlewares/lvgl/src/misc/lv_math.c **** }
 142              		.loc 1 73 1 is_stmt 0 view .LVU42
 143 0070 7047     		bx	lr
 144              	.L9:
 145 0072 00BF     		.align	2
 146              	.L8:
 147 0074 B7600BB6 		.word	-1240768329
 148 0078 00000000 		.word	.LANCHOR0
 149              		.cfi_endproc
 150              	.LFE1:
 152              		.section	.text.lv_bezier3,"ax",%progbits
 153              		.align	1
ARM GAS  /tmp/ccR17GfH.s 			page 5


 154              		.global	lv_bezier3
 155              		.syntax unified
 156              		.thumb
 157              		.thumb_func
 158              		.fpu fpv4-sp-d16
 160              	lv_bezier3:
 161              	.LVL18:
 162              	.LFB2:
  74:Middlewares/lvgl/src/misc/lv_math.c **** 
  75:Middlewares/lvgl/src/misc/lv_math.c **** /**
  76:Middlewares/lvgl/src/misc/lv_math.c ****  * Calculate a value of a Cubic Bezier function.
  77:Middlewares/lvgl/src/misc/lv_math.c ****  * @param t time in range of [0..LV_BEZIER_VAL_MAX]
  78:Middlewares/lvgl/src/misc/lv_math.c ****  * @param u0 start values in range of [0..LV_BEZIER_VAL_MAX]
  79:Middlewares/lvgl/src/misc/lv_math.c ****  * @param u1 control value 1 values in range of [0..LV_BEZIER_VAL_MAX]
  80:Middlewares/lvgl/src/misc/lv_math.c ****  * @param u2 control value 2 in range of [0..LV_BEZIER_VAL_MAX]
  81:Middlewares/lvgl/src/misc/lv_math.c ****  * @param u3 end values in range of [0..LV_BEZIER_VAL_MAX]
  82:Middlewares/lvgl/src/misc/lv_math.c ****  * @return the value calculated from the given parameters in range of [0..LV_BEZIER_VAL_MAX]
  83:Middlewares/lvgl/src/misc/lv_math.c ****  */
  84:Middlewares/lvgl/src/misc/lv_math.c **** uint32_t lv_bezier3(uint32_t t, uint32_t u0, uint32_t u1, uint32_t u2, uint32_t u3)
  85:Middlewares/lvgl/src/misc/lv_math.c **** {
 163              		.loc 1 85 1 is_stmt 1 view -0
 164              		.cfi_startproc
 165              		@ args = 4, pretend = 0, frame = 0
 166              		@ frame_needed = 0, uses_anonymous_args = 0
 167              		.loc 1 85 1 is_stmt 0 view .LVU44
 168 0000 70B5     		push	{r4, r5, r6, lr}
 169              	.LCFI0:
 170              		.cfi_def_cfa_offset 16
 171              		.cfi_offset 4, -16
 172              		.cfi_offset 5, -12
 173              		.cfi_offset 6, -8
 174              		.cfi_offset 14, -4
  86:Middlewares/lvgl/src/misc/lv_math.c ****     uint32_t t_rem  = 1024 - t;
 175              		.loc 1 86 5 is_stmt 1 view .LVU45
 176              		.loc 1 86 14 is_stmt 0 view .LVU46
 177 0002 C0F5806C 		rsb	ip, r0, #1024
 178              	.LVL19:
  87:Middlewares/lvgl/src/misc/lv_math.c ****     uint32_t t_rem2 = (t_rem * t_rem) >> 10;
 179              		.loc 1 87 5 is_stmt 1 view .LVU47
 180              		.loc 1 87 30 is_stmt 0 view .LVU48
 181 0006 0CFB0CF4 		mul	r4, ip, ip
 182              		.loc 1 87 14 view .LVU49
 183 000a A40A     		lsrs	r4, r4, #10
 184              	.LVL20:
  88:Middlewares/lvgl/src/misc/lv_math.c ****     uint32_t t_rem3 = (t_rem2 * t_rem) >> 10;
 185              		.loc 1 88 5 is_stmt 1 view .LVU50
 186              		.loc 1 88 31 is_stmt 0 view .LVU51
 187 000c 04FB0CF6 		mul	r6, r4, ip
 188              		.loc 1 88 14 view .LVU52
 189 0010 B60A     		lsrs	r6, r6, #10
 190              	.LVL21:
  89:Middlewares/lvgl/src/misc/lv_math.c ****     uint32_t t2     = (t * t) >> 10;
 191              		.loc 1 89 5 is_stmt 1 view .LVU53
 192              		.loc 1 89 26 is_stmt 0 view .LVU54
 193 0012 00FB00FE 		mul	lr, r0, r0
 194              		.loc 1 89 14 view .LVU55
 195 0016 4FEA9E2E 		lsr	lr, lr, #10
ARM GAS  /tmp/ccR17GfH.s 			page 6


 196              	.LVL22:
  90:Middlewares/lvgl/src/misc/lv_math.c ****     uint32_t t3     = (t2 * t) >> 10;
 197              		.loc 1 90 5 is_stmt 1 view .LVU56
 198              		.loc 1 90 27 is_stmt 0 view .LVU57
 199 001a 0EFB00F5 		mul	r5, lr, r0
 200              		.loc 1 90 14 view .LVU58
 201 001e AD0A     		lsrs	r5, r5, #10
 202              	.LVL23:
  91:Middlewares/lvgl/src/misc/lv_math.c **** 
  92:Middlewares/lvgl/src/misc/lv_math.c ****     uint32_t v1 = (t_rem3 * u0) >> 10;
 203              		.loc 1 92 5 is_stmt 1 view .LVU59
 204              		.loc 1 92 27 is_stmt 0 view .LVU60
 205 0020 01FB06F6 		mul	r6, r1, r6
 206              	.LVL24:
  93:Middlewares/lvgl/src/misc/lv_math.c ****     uint32_t v2 = (3 * t_rem2 * t * u1) >> 20;
 207              		.loc 1 93 5 is_stmt 1 view .LVU61
 208              		.loc 1 93 31 is_stmt 0 view .LVU62
 209 0024 04FB00F0 		mul	r0, r4, r0
 210              	.LVL25:
 211              		.loc 1 93 35 view .LVU63
 212 0028 00FB02F2 		mul	r2, r0, r2
 213              	.LVL26:
 214              		.loc 1 93 35 view .LVU64
 215 002c 02EB4202 		add	r2, r2, r2, lsl #1
 216              		.loc 1 93 14 view .LVU65
 217 0030 120D     		lsrs	r2, r2, #20
 218              	.LVL27:
  94:Middlewares/lvgl/src/misc/lv_math.c ****     uint32_t v3 = (3 * t_rem * t2 * u2) >> 20;
 219              		.loc 1 94 5 is_stmt 1 view .LVU66
 220              		.loc 1 94 30 is_stmt 0 view .LVU67
 221 0032 0EFB0CFC 		mul	ip, lr, ip
 222              	.LVL28:
 223              		.loc 1 94 35 view .LVU68
 224 0036 03FB0CF3 		mul	r3, r3, ip
 225              	.LVL29:
 226              		.loc 1 94 35 view .LVU69
 227 003a 03EB4303 		add	r3, r3, r3, lsl #1
 228              	.LVL30:
  95:Middlewares/lvgl/src/misc/lv_math.c ****     uint32_t v4 = (t3 * u3) >> 10;
 229              		.loc 1 95 5 is_stmt 1 view .LVU70
 230              		.loc 1 95 23 is_stmt 0 view .LVU71
 231 003e 0498     		ldr	r0, [sp, #16]
 232 0040 05FB00F0 		mul	r0, r5, r0
 233              	.LVL31:
  96:Middlewares/lvgl/src/misc/lv_math.c **** 
  97:Middlewares/lvgl/src/misc/lv_math.c ****     return v1 + v2 + v3 + v4;
 234              		.loc 1 97 5 is_stmt 1 view .LVU72
 235              		.loc 1 97 15 is_stmt 0 view .LVU73
 236 0044 02EB9622 		add	r2, r2, r6, lsr #10
 237              	.LVL32:
 238              		.loc 1 97 20 view .LVU74
 239 0048 02EB1352 		add	r2, r2, r3, lsr #20
  98:Middlewares/lvgl/src/misc/lv_math.c **** }
 240              		.loc 1 98 1 view .LVU75
 241 004c 02EB9020 		add	r0, r2, r0, lsr #10
 242              	.LVL33:
 243              		.loc 1 98 1 view .LVU76
ARM GAS  /tmp/ccR17GfH.s 			page 7


 244 0050 70BD     		pop	{r4, r5, r6, pc}
 245              		.loc 1 98 1 view .LVU77
 246              		.cfi_endproc
 247              	.LFE2:
 249              		.section	.text.lv_sqrt,"ax",%progbits
 250              		.align	1
 251              		.global	lv_sqrt
 252              		.syntax unified
 253              		.thumb
 254              		.thumb_func
 255              		.fpu fpv4-sp-d16
 257              	lv_sqrt:
 258              	.LVL34:
 259              	.LFB3:
  99:Middlewares/lvgl/src/misc/lv_math.c **** 
 100:Middlewares/lvgl/src/misc/lv_math.c **** /**
 101:Middlewares/lvgl/src/misc/lv_math.c ****  * Get the square root of a number
 102:Middlewares/lvgl/src/misc/lv_math.c ****  * @param x integer which square root should be calculated
 103:Middlewares/lvgl/src/misc/lv_math.c ****  * @param q store the result here. q->i: integer part, q->f: fractional part in 1/256 unit
 104:Middlewares/lvgl/src/misc/lv_math.c ****  * @param mask optional to skip some iterations if the magnitude of the root is known.
 105:Middlewares/lvgl/src/misc/lv_math.c ****  * Set to 0x8000 by default.
 106:Middlewares/lvgl/src/misc/lv_math.c ****  * If root < 16: mask = 0x80
 107:Middlewares/lvgl/src/misc/lv_math.c ****  * If root < 256: mask = 0x800
 108:Middlewares/lvgl/src/misc/lv_math.c ****  * Else: mask = 0x8000
 109:Middlewares/lvgl/src/misc/lv_math.c ****  */
 110:Middlewares/lvgl/src/misc/lv_math.c **** LV_ATTRIBUTE_FAST_MEM void lv_sqrt(uint32_t x, lv_sqrt_res_t * q, uint32_t mask)
 111:Middlewares/lvgl/src/misc/lv_math.c **** {
 260              		.loc 1 111 1 is_stmt 1 view -0
 261              		.cfi_startproc
 262              		@ args = 0, pretend = 0, frame = 0
 263              		@ frame_needed = 0, uses_anonymous_args = 0
 264              		.loc 1 111 1 is_stmt 0 view .LVU79
 265 0000 00B5     		push	{lr}
 266              	.LCFI1:
 267              		.cfi_def_cfa_offset 4
 268              		.cfi_offset 14, -4
 112:Middlewares/lvgl/src/misc/lv_math.c ****     x = x << 8; /*To get 4 bit precision. (sqrt(256) = 16 = 4 bit)*/
 269              		.loc 1 112 5 is_stmt 1 view .LVU80
 270              		.loc 1 112 7 is_stmt 0 view .LVU81
 271 0002 0002     		lsls	r0, r0, #8
 272              	.LVL35:
 113:Middlewares/lvgl/src/misc/lv_math.c **** 
 114:Middlewares/lvgl/src/misc/lv_math.c ****     uint32_t root = 0;
 273              		.loc 1 114 5 is_stmt 1 view .LVU82
 274              		.loc 1 114 14 is_stmt 0 view .LVU83
 275 0004 4FF0000C 		mov	ip, #0
 276 0008 01E0     		b	.L14
 277              	.LVL36:
 278              	.L13:
 115:Middlewares/lvgl/src/misc/lv_math.c ****     uint32_t trial;
 116:Middlewares/lvgl/src/misc/lv_math.c ****     // http://ww1.microchip.com/...en/AppNotes/91040a.pdf
 117:Middlewares/lvgl/src/misc/lv_math.c ****     do {
 118:Middlewares/lvgl/src/misc/lv_math.c ****         trial = root + mask;
 119:Middlewares/lvgl/src/misc/lv_math.c ****         if(trial * trial <= x) root = trial;
 120:Middlewares/lvgl/src/misc/lv_math.c ****         mask = mask >> 1;
 279              		.loc 1 120 9 is_stmt 1 view .LVU84
 121:Middlewares/lvgl/src/misc/lv_math.c ****     } while(mask);
ARM GAS  /tmp/ccR17GfH.s 			page 8


 280              		.loc 1 121 12 view .LVU85
 281              		.loc 1 121 5 is_stmt 0 view .LVU86
 282 000a 5208     		lsrs	r2, r2, #1
 283              	.LVL37:
 284              		.loc 1 121 5 view .LVU87
 285 000c 07D0     		beq	.L17
 286              	.LVL38:
 287              	.L14:
 115:Middlewares/lvgl/src/misc/lv_math.c ****     uint32_t trial;
 288              		.loc 1 115 5 is_stmt 1 view .LVU88
 117:Middlewares/lvgl/src/misc/lv_math.c ****         trial = root + mask;
 289              		.loc 1 117 5 view .LVU89
 118:Middlewares/lvgl/src/misc/lv_math.c ****         if(trial * trial <= x) root = trial;
 290              		.loc 1 118 9 view .LVU90
 118:Middlewares/lvgl/src/misc/lv_math.c ****         if(trial * trial <= x) root = trial;
 291              		.loc 1 118 15 is_stmt 0 view .LVU91
 292 000e 02EB0C03 		add	r3, r2, ip
 293              	.LVL39:
 119:Middlewares/lvgl/src/misc/lv_math.c ****         mask = mask >> 1;
 294              		.loc 1 119 9 is_stmt 1 view .LVU92
 119:Middlewares/lvgl/src/misc/lv_math.c ****         mask = mask >> 1;
 295              		.loc 1 119 18 is_stmt 0 view .LVU93
 296 0012 03FB03FE 		mul	lr, r3, r3
 119:Middlewares/lvgl/src/misc/lv_math.c ****         mask = mask >> 1;
 297              		.loc 1 119 11 view .LVU94
 298 0016 8645     		cmp	lr, r0
 299 0018 F7D8     		bhi	.L13
 119:Middlewares/lvgl/src/misc/lv_math.c ****         mask = mask >> 1;
 300              		.loc 1 119 37 view .LVU95
 301 001a 9C46     		mov	ip, r3
 302              	.LVL40:
 119:Middlewares/lvgl/src/misc/lv_math.c ****         mask = mask >> 1;
 303              		.loc 1 119 37 view .LVU96
 304 001c F5E7     		b	.L13
 305              	.LVL41:
 306              	.L17:
 122:Middlewares/lvgl/src/misc/lv_math.c **** 
 123:Middlewares/lvgl/src/misc/lv_math.c ****     q->i = root >> 4;
 307              		.loc 1 123 5 is_stmt 1 view .LVU97
 308              		.loc 1 123 17 is_stmt 0 view .LVU98
 309 001e 4FEA1C13 		lsr	r3, ip, #4
 310              	.LVL42:
 311              		.loc 1 123 10 view .LVU99
 312 0022 0B80     		strh	r3, [r1]	@ movhi
 124:Middlewares/lvgl/src/misc/lv_math.c ****     q->f = (root & 0xf) << 4;
 313              		.loc 1 124 5 is_stmt 1 view .LVU100
 314              		.loc 1 124 25 is_stmt 0 view .LVU101
 315 0024 4FEA0C1C 		lsl	ip, ip, #4
 316              	.LVL43:
 317              		.loc 1 124 25 view .LVU102
 318 0028 0CF0F00C 		and	ip, ip, #240
 319              		.loc 1 124 10 view .LVU103
 320 002c A1F802C0 		strh	ip, [r1, #2]	@ movhi
 125:Middlewares/lvgl/src/misc/lv_math.c **** }
 321              		.loc 1 125 1 view .LVU104
 322 0030 5DF804FB 		ldr	pc, [sp], #4
 323              		.cfi_endproc
ARM GAS  /tmp/ccR17GfH.s 			page 9


 324              	.LFE3:
 326              		.section	.text.lv_atan2,"ax",%progbits
 327              		.align	1
 328              		.global	lv_atan2
 329              		.syntax unified
 330              		.thumb
 331              		.thumb_func
 332              		.fpu fpv4-sp-d16
 334              	lv_atan2:
 335              	.LVL44:
 336              	.LFB4:
 126:Middlewares/lvgl/src/misc/lv_math.c **** 
 127:Middlewares/lvgl/src/misc/lv_math.c **** /**
 128:Middlewares/lvgl/src/misc/lv_math.c ****  * Calculate the atan2 of a vector.
 129:Middlewares/lvgl/src/misc/lv_math.c ****  * @param x
 130:Middlewares/lvgl/src/misc/lv_math.c ****  * @param y
 131:Middlewares/lvgl/src/misc/lv_math.c ****  * @return the angle in degree calculated from the given parameters in range of [0..360]
 132:Middlewares/lvgl/src/misc/lv_math.c ****  */
 133:Middlewares/lvgl/src/misc/lv_math.c **** uint16_t lv_atan2(int x, int y)
 134:Middlewares/lvgl/src/misc/lv_math.c **** {
 337              		.loc 1 134 1 is_stmt 1 view -0
 338              		.cfi_startproc
 339              		@ args = 0, pretend = 0, frame = 0
 340              		@ frame_needed = 0, uses_anonymous_args = 0
 341              		@ link register save eliminated.
 135:Middlewares/lvgl/src/misc/lv_math.c ****     // Fast XY vector to integer degree algorithm - Jan 2011 www.RomanBlack.com
 136:Middlewares/lvgl/src/misc/lv_math.c ****     // Converts any XY values including 0 to a degree value that should be
 137:Middlewares/lvgl/src/misc/lv_math.c ****     // within +/- 1 degree of the accurate value without needing
 138:Middlewares/lvgl/src/misc/lv_math.c ****     // large slow trig functions like ArcTan() or ArcCos().
 139:Middlewares/lvgl/src/misc/lv_math.c ****     // NOTE! at least one of the X or Y values must be non-zero!
 140:Middlewares/lvgl/src/misc/lv_math.c ****     // This is the full version, for all 4 quadrants and will generate
 141:Middlewares/lvgl/src/misc/lv_math.c ****     // the angle in integer degrees from 0-360.
 142:Middlewares/lvgl/src/misc/lv_math.c ****     // Any values of X and Y are usable including negative values provided
 143:Middlewares/lvgl/src/misc/lv_math.c ****     // they are between -1456 and 1456 so the 16bit multiply does not overflow.
 144:Middlewares/lvgl/src/misc/lv_math.c **** 
 145:Middlewares/lvgl/src/misc/lv_math.c ****     unsigned char negflag;
 342              		.loc 1 145 5 view .LVU106
 146:Middlewares/lvgl/src/misc/lv_math.c ****     unsigned char tempdegree;
 343              		.loc 1 146 5 view .LVU107
 147:Middlewares/lvgl/src/misc/lv_math.c ****     unsigned char comp;
 344              		.loc 1 147 5 view .LVU108
 148:Middlewares/lvgl/src/misc/lv_math.c ****     unsigned int degree;     // this will hold the result
 345              		.loc 1 148 5 view .LVU109
 149:Middlewares/lvgl/src/misc/lv_math.c ****     unsigned int ux;
 346              		.loc 1 149 5 view .LVU110
 150:Middlewares/lvgl/src/misc/lv_math.c ****     unsigned int uy;
 347              		.loc 1 150 5 view .LVU111
 151:Middlewares/lvgl/src/misc/lv_math.c **** 
 152:Middlewares/lvgl/src/misc/lv_math.c ****     // Save the sign flags then remove signs and get XY as unsigned ints
 153:Middlewares/lvgl/src/misc/lv_math.c ****     negflag = 0;
 348              		.loc 1 153 5 view .LVU112
 154:Middlewares/lvgl/src/misc/lv_math.c ****     if(x < 0) {
 349              		.loc 1 154 5 view .LVU113
 350              		.loc 1 154 7 is_stmt 0 view .LVU114
 351 0000 0028     		cmp	r0, #0
 352              		.loc 1 154 7 view .LVU115
 353 0002 2DDB     		blt	.L38
ARM GAS  /tmp/ccR17GfH.s 			page 10


 153:Middlewares/lvgl/src/misc/lv_math.c ****     if(x < 0) {
 354              		.loc 1 153 13 view .LVU116
 355 0004 0022     		movs	r2, #0
 356              	.LVL45:
 357              	.L19:
 155:Middlewares/lvgl/src/misc/lv_math.c ****         negflag += 0x01;    // x flag bit
 156:Middlewares/lvgl/src/misc/lv_math.c ****         x = (0 - x);        // is now +
 157:Middlewares/lvgl/src/misc/lv_math.c ****     }
 158:Middlewares/lvgl/src/misc/lv_math.c ****     ux = x;                // copy to unsigned var before multiply
 358              		.loc 1 158 5 is_stmt 1 view .LVU117
 159:Middlewares/lvgl/src/misc/lv_math.c ****     if(y < 0) {
 359              		.loc 1 159 5 view .LVU118
 360              		.loc 1 159 7 is_stmt 0 view .LVU119
 361 0006 0029     		cmp	r1, #0
 362 0008 2DDB     		blt	.L39
 363              	.L20:
 160:Middlewares/lvgl/src/misc/lv_math.c ****         negflag += 0x02;    // y flag bit
 161:Middlewares/lvgl/src/misc/lv_math.c ****         y = (0 - y);        // is now +
 162:Middlewares/lvgl/src/misc/lv_math.c ****     }
 163:Middlewares/lvgl/src/misc/lv_math.c ****     uy = y;                // copy to unsigned var before multiply
 364              		.loc 1 163 5 is_stmt 1 view .LVU120
 365              	.LVL46:
 164:Middlewares/lvgl/src/misc/lv_math.c **** 
 165:Middlewares/lvgl/src/misc/lv_math.c ****     // 1. Calc the scaled "degrees"
 166:Middlewares/lvgl/src/misc/lv_math.c ****     if(ux > uy) {
 366              		.loc 1 166 5 view .LVU121
 367              		.loc 1 166 7 is_stmt 0 view .LVU122
 368 000a 8842     		cmp	r0, r1
 369 000c 2FD9     		bls	.L21
 167:Middlewares/lvgl/src/misc/lv_math.c ****         degree = (uy * 45) / ux;   // degree result will be 0-45 range
 370              		.loc 1 167 9 is_stmt 1 view .LVU123
 371              		.loc 1 167 22 is_stmt 0 view .LVU124
 372 000e 01EB4101 		add	r1, r1, r1, lsl #1
 373              	.LVL47:
 374              		.loc 1 167 22 view .LVU125
 375 0012 C1EB0111 		rsb	r1, r1, r1, lsl #4
 376              		.loc 1 167 16 view .LVU126
 377 0016 B1FBF0F0 		udiv	r0, r1, r0
 378              	.LVL48:
 168:Middlewares/lvgl/src/misc/lv_math.c ****         negflag += 0x10;    // octant flag bit
 379              		.loc 1 168 9 is_stmt 1 view .LVU127
 380              		.loc 1 168 17 is_stmt 0 view .LVU128
 381 001a 1032     		adds	r2, r2, #16
 382              	.LVL49:
 383              		.loc 1 168 17 view .LVU129
 384 001c D2B2     		uxtb	r2, r2
 385              	.LVL50:
 386              	.L22:
 169:Middlewares/lvgl/src/misc/lv_math.c ****     }
 170:Middlewares/lvgl/src/misc/lv_math.c ****     else {
 171:Middlewares/lvgl/src/misc/lv_math.c ****         degree = (ux * 45) / uy;   // degree result will be 0-45 range
 172:Middlewares/lvgl/src/misc/lv_math.c ****     }
 173:Middlewares/lvgl/src/misc/lv_math.c **** 
 174:Middlewares/lvgl/src/misc/lv_math.c ****     // 2. Compensate for the 4 degree error curve
 175:Middlewares/lvgl/src/misc/lv_math.c ****     comp = 0;
 387              		.loc 1 175 5 is_stmt 1 view .LVU130
 176:Middlewares/lvgl/src/misc/lv_math.c ****     tempdegree = degree;    // use an unsigned char for speed!
ARM GAS  /tmp/ccR17GfH.s 			page 11


 388              		.loc 1 176 5 view .LVU131
 389              		.loc 1 176 16 is_stmt 0 view .LVU132
 390 001e C1B2     		uxtb	r1, r0
 391              	.LVL51:
 177:Middlewares/lvgl/src/misc/lv_math.c ****     if(tempdegree > 22) {    // if top half of range
 392              		.loc 1 177 5 is_stmt 1 view .LVU133
 393              		.loc 1 177 7 is_stmt 0 view .LVU134
 394 0020 1629     		cmp	r1, #22
 395 0022 2DD9     		bls	.L23
 178:Middlewares/lvgl/src/misc/lv_math.c ****         if(tempdegree <= 44) comp++;
 396              		.loc 1 178 9 is_stmt 1 view .LVU135
 397              		.loc 1 178 11 is_stmt 0 view .LVU136
 398 0024 2C29     		cmp	r1, #44
 399 0026 29D9     		bls	.L36
 175:Middlewares/lvgl/src/misc/lv_math.c ****     tempdegree = degree;    // use an unsigned char for speed!
 400              		.loc 1 175 10 view .LVU137
 401 0028 0023     		movs	r3, #0
 402              	.L24:
 403              	.LVL52:
 179:Middlewares/lvgl/src/misc/lv_math.c ****         if(tempdegree <= 41) comp++;
 404              		.loc 1 179 9 is_stmt 1 view .LVU138
 405              		.loc 1 179 11 is_stmt 0 view .LVU139
 406 002a 2929     		cmp	r1, #41
 407 002c 01D8     		bhi	.L25
 408              		.loc 1 179 30 is_stmt 1 discriminator 1 view .LVU140
 409              		.loc 1 179 34 is_stmt 0 discriminator 1 view .LVU141
 410 002e 0133     		adds	r3, r3, #1
 411              	.LVL53:
 412              		.loc 1 179 34 discriminator 1 view .LVU142
 413 0030 DBB2     		uxtb	r3, r3
 414              	.LVL54:
 415              	.L25:
 180:Middlewares/lvgl/src/misc/lv_math.c ****         if(tempdegree <= 37) comp++;
 416              		.loc 1 180 9 is_stmt 1 view .LVU143
 417              		.loc 1 180 11 is_stmt 0 view .LVU144
 418 0032 2529     		cmp	r1, #37
 419 0034 01D8     		bhi	.L26
 420              		.loc 1 180 30 is_stmt 1 discriminator 1 view .LVU145
 421              		.loc 1 180 34 is_stmt 0 discriminator 1 view .LVU146
 422 0036 0133     		adds	r3, r3, #1
 423              	.LVL55:
 424              		.loc 1 180 34 discriminator 1 view .LVU147
 425 0038 DBB2     		uxtb	r3, r3
 426              	.LVL56:
 427              	.L26:
 181:Middlewares/lvgl/src/misc/lv_math.c ****         if(tempdegree <= 32) comp++;  // max is 4 degrees compensated
 428              		.loc 1 181 9 is_stmt 1 view .LVU148
 429              		.loc 1 181 11 is_stmt 0 view .LVU149
 430 003a 2029     		cmp	r1, #32
 431 003c 01D8     		bhi	.L27
 432              		.loc 1 181 30 is_stmt 1 discriminator 1 view .LVU150
 433              		.loc 1 181 34 is_stmt 0 discriminator 1 view .LVU151
 434 003e 0133     		adds	r3, r3, #1
 435              	.LVL57:
 436              		.loc 1 181 34 discriminator 1 view .LVU152
 437 0040 DBB2     		uxtb	r3, r3
 438              	.LVL58:
ARM GAS  /tmp/ccR17GfH.s 			page 12


 439              	.L27:
 182:Middlewares/lvgl/src/misc/lv_math.c ****     }
 183:Middlewares/lvgl/src/misc/lv_math.c ****     else {   // else is lower half of range
 184:Middlewares/lvgl/src/misc/lv_math.c ****         if(tempdegree >= 2) comp++;
 185:Middlewares/lvgl/src/misc/lv_math.c ****         if(tempdegree >= 6) comp++;
 186:Middlewares/lvgl/src/misc/lv_math.c ****         if(tempdegree >= 10) comp++;
 187:Middlewares/lvgl/src/misc/lv_math.c ****         if(tempdegree >= 15) comp++;  // max is 4 degrees compensated
 188:Middlewares/lvgl/src/misc/lv_math.c ****     }
 189:Middlewares/lvgl/src/misc/lv_math.c ****     degree += comp;   // degree is now accurate to +/- 1 degree!
 440              		.loc 1 189 5 is_stmt 1 view .LVU153
 441              		.loc 1 189 12 is_stmt 0 view .LVU154
 442 0042 1844     		add	r0, r0, r3
 443              	.LVL59:
 190:Middlewares/lvgl/src/misc/lv_math.c **** 
 191:Middlewares/lvgl/src/misc/lv_math.c ****     // Invert degree if it was X>Y octant, makes 0-45 into 90-45
 192:Middlewares/lvgl/src/misc/lv_math.c ****     if(negflag & 0x10) degree = (90 - degree);
 444              		.loc 1 192 5 is_stmt 1 view .LVU155
 445              		.loc 1 192 7 is_stmt 0 view .LVU156
 446 0044 12F0100F 		tst	r2, #16
 447 0048 01D0     		beq	.L31
 448              		.loc 1 192 24 is_stmt 1 discriminator 1 view .LVU157
 449              		.loc 1 192 31 is_stmt 0 discriminator 1 view .LVU158
 450 004a C0F15A00 		rsb	r0, r0, #90
 451              	.LVL60:
 452              	.L31:
 193:Middlewares/lvgl/src/misc/lv_math.c **** 
 194:Middlewares/lvgl/src/misc/lv_math.c ****     // 3. Degree is now 0-90 range for this quadrant,
 195:Middlewares/lvgl/src/misc/lv_math.c ****     // need to invert it for whichever quadrant it was in
 196:Middlewares/lvgl/src/misc/lv_math.c ****     if(negflag & 0x02) { // if -Y
 453              		.loc 1 196 5 is_stmt 1 view .LVU159
 454              		.loc 1 196 7 is_stmt 0 view .LVU160
 455 004e 12F0020F 		tst	r2, #2
 456 0052 2AD0     		beq	.L32
 197:Middlewares/lvgl/src/misc/lv_math.c ****         if(negflag & 0x01)   // if -Y -X
 457              		.loc 1 197 9 is_stmt 1 view .LVU161
 458              		.loc 1 197 11 is_stmt 0 view .LVU162
 459 0054 12F0010F 		tst	r2, #1
 460 0058 24D0     		beq	.L33
 198:Middlewares/lvgl/src/misc/lv_math.c ****             degree = (180 + degree);
 461              		.loc 1 198 13 is_stmt 1 view .LVU163
 462              		.loc 1 198 20 is_stmt 0 view .LVU164
 463 005a B430     		adds	r0, r0, #180
 464              	.LVL61:
 465              	.L34:
 199:Middlewares/lvgl/src/misc/lv_math.c ****         else        // else is -Y +X
 200:Middlewares/lvgl/src/misc/lv_math.c ****             degree = (180 - degree);
 201:Middlewares/lvgl/src/misc/lv_math.c ****     }
 202:Middlewares/lvgl/src/misc/lv_math.c ****     else {   // else is +Y
 203:Middlewares/lvgl/src/misc/lv_math.c ****         if(negflag & 0x01)   // if +Y -X
 204:Middlewares/lvgl/src/misc/lv_math.c ****             degree = (360 - degree);
 205:Middlewares/lvgl/src/misc/lv_math.c ****     }
 206:Middlewares/lvgl/src/misc/lv_math.c ****     return degree;
 466              		.loc 1 206 5 is_stmt 1 view .LVU165
 207:Middlewares/lvgl/src/misc/lv_math.c **** }
 467              		.loc 1 207 1 is_stmt 0 view .LVU166
 468 005c 80B2     		uxth	r0, r0
 469              	.LVL62:
ARM GAS  /tmp/ccR17GfH.s 			page 13


 470              		.loc 1 207 1 view .LVU167
 471 005e 7047     		bx	lr
 472              	.LVL63:
 473              	.L38:
 155:Middlewares/lvgl/src/misc/lv_math.c ****         x = (0 - x);        // is now +
 474              		.loc 1 155 9 is_stmt 1 view .LVU168
 156:Middlewares/lvgl/src/misc/lv_math.c ****     }
 475              		.loc 1 156 9 view .LVU169
 156:Middlewares/lvgl/src/misc/lv_math.c ****     }
 476              		.loc 1 156 11 is_stmt 0 view .LVU170
 477 0060 4042     		rsbs	r0, r0, #0
 478              	.LVL64:
 155:Middlewares/lvgl/src/misc/lv_math.c ****         x = (0 - x);        // is now +
 479              		.loc 1 155 17 view .LVU171
 480 0062 0122     		movs	r2, #1
 481 0064 CFE7     		b	.L19
 482              	.LVL65:
 483              	.L39:
 160:Middlewares/lvgl/src/misc/lv_math.c ****         y = (0 - y);        // is now +
 484              		.loc 1 160 9 is_stmt 1 view .LVU172
 160:Middlewares/lvgl/src/misc/lv_math.c ****         y = (0 - y);        // is now +
 485              		.loc 1 160 17 is_stmt 0 view .LVU173
 486 0066 0232     		adds	r2, r2, #2
 487              	.LVL66:
 160:Middlewares/lvgl/src/misc/lv_math.c ****         y = (0 - y);        // is now +
 488              		.loc 1 160 17 view .LVU174
 489 0068 D2B2     		uxtb	r2, r2
 490              	.LVL67:
 161:Middlewares/lvgl/src/misc/lv_math.c ****     }
 491              		.loc 1 161 9 is_stmt 1 view .LVU175
 161:Middlewares/lvgl/src/misc/lv_math.c ****     }
 492              		.loc 1 161 11 is_stmt 0 view .LVU176
 493 006a 4942     		rsbs	r1, r1, #0
 494              	.LVL68:
 161:Middlewares/lvgl/src/misc/lv_math.c ****     }
 495              		.loc 1 161 11 view .LVU177
 496 006c CDE7     		b	.L20
 497              	.LVL69:
 498              	.L21:
 171:Middlewares/lvgl/src/misc/lv_math.c ****     }
 499              		.loc 1 171 9 is_stmt 1 view .LVU178
 171:Middlewares/lvgl/src/misc/lv_math.c ****     }
 500              		.loc 1 171 22 is_stmt 0 view .LVU179
 501 006e 00EB4000 		add	r0, r0, r0, lsl #1
 502              	.LVL70:
 171:Middlewares/lvgl/src/misc/lv_math.c ****     }
 503              		.loc 1 171 22 view .LVU180
 504 0072 C0EB0010 		rsb	r0, r0, r0, lsl #4
 171:Middlewares/lvgl/src/misc/lv_math.c ****     }
 505              		.loc 1 171 16 view .LVU181
 506 0076 B0FBF1F0 		udiv	r0, r0, r1
 507              	.LVL71:
 171:Middlewares/lvgl/src/misc/lv_math.c ****     }
 508              		.loc 1 171 16 view .LVU182
 509 007a D0E7     		b	.L22
 510              	.LVL72:
 511              	.L36:
ARM GAS  /tmp/ccR17GfH.s 			page 14


 178:Middlewares/lvgl/src/misc/lv_math.c ****         if(tempdegree <= 41) comp++;
 512              		.loc 1 178 34 view .LVU183
 513 007c 0123     		movs	r3, #1
 514 007e D4E7     		b	.L24
 515              	.L23:
 184:Middlewares/lvgl/src/misc/lv_math.c ****         if(tempdegree >= 6) comp++;
 516              		.loc 1 184 9 is_stmt 1 view .LVU184
 184:Middlewares/lvgl/src/misc/lv_math.c ****         if(tempdegree >= 6) comp++;
 517              		.loc 1 184 11 is_stmt 0 view .LVU185
 518 0080 0129     		cmp	r1, #1
 519 0082 0DD9     		bls	.L40
 184:Middlewares/lvgl/src/misc/lv_math.c ****         if(tempdegree >= 6) comp++;
 520              		.loc 1 184 33 view .LVU186
 521 0084 0123     		movs	r3, #1
 522              	.L28:
 523              	.LVL73:
 185:Middlewares/lvgl/src/misc/lv_math.c ****         if(tempdegree >= 10) comp++;
 524              		.loc 1 185 9 is_stmt 1 view .LVU187
 185:Middlewares/lvgl/src/misc/lv_math.c ****         if(tempdegree >= 10) comp++;
 525              		.loc 1 185 11 is_stmt 0 view .LVU188
 526 0086 0529     		cmp	r1, #5
 527 0088 01D9     		bls	.L29
 185:Middlewares/lvgl/src/misc/lv_math.c ****         if(tempdegree >= 10) comp++;
 528              		.loc 1 185 29 is_stmt 1 discriminator 1 view .LVU189
 185:Middlewares/lvgl/src/misc/lv_math.c ****         if(tempdegree >= 10) comp++;
 529              		.loc 1 185 33 is_stmt 0 discriminator 1 view .LVU190
 530 008a 0133     		adds	r3, r3, #1
 531              	.LVL74:
 185:Middlewares/lvgl/src/misc/lv_math.c ****         if(tempdegree >= 10) comp++;
 532              		.loc 1 185 33 discriminator 1 view .LVU191
 533 008c DBB2     		uxtb	r3, r3
 534              	.LVL75:
 535              	.L29:
 186:Middlewares/lvgl/src/misc/lv_math.c ****         if(tempdegree >= 15) comp++;  // max is 4 degrees compensated
 536              		.loc 1 186 9 is_stmt 1 view .LVU192
 186:Middlewares/lvgl/src/misc/lv_math.c ****         if(tempdegree >= 15) comp++;  // max is 4 degrees compensated
 537              		.loc 1 186 11 is_stmt 0 view .LVU193
 538 008e 0929     		cmp	r1, #9
 539 0090 01D9     		bls	.L30
 186:Middlewares/lvgl/src/misc/lv_math.c ****         if(tempdegree >= 15) comp++;  // max is 4 degrees compensated
 540              		.loc 1 186 30 is_stmt 1 discriminator 1 view .LVU194
 186:Middlewares/lvgl/src/misc/lv_math.c ****         if(tempdegree >= 15) comp++;  // max is 4 degrees compensated
 541              		.loc 1 186 34 is_stmt 0 discriminator 1 view .LVU195
 542 0092 0133     		adds	r3, r3, #1
 543              	.LVL76:
 186:Middlewares/lvgl/src/misc/lv_math.c ****         if(tempdegree >= 15) comp++;  // max is 4 degrees compensated
 544              		.loc 1 186 34 discriminator 1 view .LVU196
 545 0094 DBB2     		uxtb	r3, r3
 546              	.LVL77:
 547              	.L30:
 187:Middlewares/lvgl/src/misc/lv_math.c ****     }
 548              		.loc 1 187 9 is_stmt 1 view .LVU197
 187:Middlewares/lvgl/src/misc/lv_math.c ****     }
 549              		.loc 1 187 11 is_stmt 0 view .LVU198
 550 0096 0E29     		cmp	r1, #14
 551 0098 D3D9     		bls	.L27
 187:Middlewares/lvgl/src/misc/lv_math.c ****     }
ARM GAS  /tmp/ccR17GfH.s 			page 15


 552              		.loc 1 187 30 is_stmt 1 discriminator 1 view .LVU199
 187:Middlewares/lvgl/src/misc/lv_math.c ****     }
 553              		.loc 1 187 34 is_stmt 0 discriminator 1 view .LVU200
 554 009a 0133     		adds	r3, r3, #1
 555              	.LVL78:
 187:Middlewares/lvgl/src/misc/lv_math.c ****     }
 556              		.loc 1 187 34 discriminator 1 view .LVU201
 557 009c DBB2     		uxtb	r3, r3
 558              	.LVL79:
 187:Middlewares/lvgl/src/misc/lv_math.c ****     }
 559              		.loc 1 187 34 discriminator 1 view .LVU202
 560 009e D0E7     		b	.L27
 561              	.LVL80:
 562              	.L40:
 175:Middlewares/lvgl/src/misc/lv_math.c ****     tempdegree = degree;    // use an unsigned char for speed!
 563              		.loc 1 175 10 view .LVU203
 564 00a0 0023     		movs	r3, #0
 565 00a2 F0E7     		b	.L28
 566              	.LVL81:
 567              	.L33:
 200:Middlewares/lvgl/src/misc/lv_math.c ****     }
 568              		.loc 1 200 13 is_stmt 1 view .LVU204
 200:Middlewares/lvgl/src/misc/lv_math.c ****     }
 569              		.loc 1 200 20 is_stmt 0 view .LVU205
 570 00a4 C0F1B400 		rsb	r0, r0, #180
 571              	.LVL82:
 200:Middlewares/lvgl/src/misc/lv_math.c ****     }
 572              		.loc 1 200 20 view .LVU206
 573 00a8 D8E7     		b	.L34
 574              	.L32:
 203:Middlewares/lvgl/src/misc/lv_math.c ****             degree = (360 - degree);
 575              		.loc 1 203 9 is_stmt 1 view .LVU207
 203:Middlewares/lvgl/src/misc/lv_math.c ****             degree = (360 - degree);
 576              		.loc 1 203 11 is_stmt 0 view .LVU208
 577 00aa 12F0010F 		tst	r2, #1
 578 00ae D5D0     		beq	.L34
 204:Middlewares/lvgl/src/misc/lv_math.c ****     }
 579              		.loc 1 204 13 is_stmt 1 view .LVU209
 204:Middlewares/lvgl/src/misc/lv_math.c ****     }
 580              		.loc 1 204 20 is_stmt 0 view .LVU210
 581 00b0 C0F5B470 		rsb	r0, r0, #360
 582              	.LVL83:
 204:Middlewares/lvgl/src/misc/lv_math.c ****     }
 583              		.loc 1 204 20 view .LVU211
 584 00b4 D2E7     		b	.L34
 585              		.cfi_endproc
 586              	.LFE4:
 588              		.section	.text.lv_pow,"ax",%progbits
 589              		.align	1
 590              		.global	lv_pow
 591              		.syntax unified
 592              		.thumb
 593              		.thumb_func
 594              		.fpu fpv4-sp-d16
 596              	lv_pow:
 597              	.LVL84:
 598              	.LFB5:
ARM GAS  /tmp/ccR17GfH.s 			page 16


 208:Middlewares/lvgl/src/misc/lv_math.c **** 
 209:Middlewares/lvgl/src/misc/lv_math.c **** /**
 210:Middlewares/lvgl/src/misc/lv_math.c ****  * Calculate the integer exponents.
 211:Middlewares/lvgl/src/misc/lv_math.c ****  * @param base
 212:Middlewares/lvgl/src/misc/lv_math.c ****  * @param power
 213:Middlewares/lvgl/src/misc/lv_math.c ****  * @return base raised to the power exponent
 214:Middlewares/lvgl/src/misc/lv_math.c ****  */
 215:Middlewares/lvgl/src/misc/lv_math.c **** int64_t lv_pow(int64_t base, int8_t exp)
 216:Middlewares/lvgl/src/misc/lv_math.c **** {
 599              		.loc 1 216 1 is_stmt 1 view -0
 600              		.cfi_startproc
 601              		@ args = 0, pretend = 0, frame = 0
 602              		@ frame_needed = 0, uses_anonymous_args = 0
 603              		.loc 1 216 1 is_stmt 0 view .LVU213
 604 0000 0346     		mov	r3, r0
 605 0002 8C46     		mov	ip, r1
 217:Middlewares/lvgl/src/misc/lv_math.c ****     int64_t result = 1;
 606              		.loc 1 217 5 is_stmt 1 view .LVU214
 607              	.LVL85:
 218:Middlewares/lvgl/src/misc/lv_math.c ****     while(exp) {
 608              		.loc 1 218 5 view .LVU215
 217:Middlewares/lvgl/src/misc/lv_math.c ****     int64_t result = 1;
 609              		.loc 1 217 13 is_stmt 0 view .LVU216
 610 0004 0120     		movs	r0, #1
 611              	.LVL86:
 217:Middlewares/lvgl/src/misc/lv_math.c ****     int64_t result = 1;
 612              		.loc 1 217 13 view .LVU217
 613 0006 0021     		movs	r1, #0
 614              	.LVL87:
 615              		.loc 1 218 10 is_stmt 1 view .LVU218
 616 0008 B2B1     		cbz	r2, .L49
 216:Middlewares/lvgl/src/misc/lv_math.c ****     int64_t result = 1;
 617              		.loc 1 216 1 is_stmt 0 view .LVU219
 618 000a 00B5     		push	{lr}
 619              	.LCFI2:
 620              		.cfi_def_cfa_offset 4
 621              		.cfi_offset 14, -4
 622 000c 07E0     		b	.L44
 623              	.LVL88:
 624              	.L43:
 219:Middlewares/lvgl/src/misc/lv_math.c ****         if(exp & 1)
 220:Middlewares/lvgl/src/misc/lv_math.c ****             result *= base;
 221:Middlewares/lvgl/src/misc/lv_math.c ****         exp >>= 1;
 625              		.loc 1 221 9 is_stmt 1 view .LVU220
 626              		.loc 1 221 13 is_stmt 0 view .LVU221
 627 000e 5210     		asrs	r2, r2, #1
 628              	.LVL89:
 222:Middlewares/lvgl/src/misc/lv_math.c ****         base *= base;
 629              		.loc 1 222 9 is_stmt 1 view .LVU222
 630              		.loc 1 222 14 is_stmt 0 view .LVU223
 631 0010 03FB0CFE 		mul	lr, r3, ip
 632 0014 A3FB033C 		umull	r3, ip, r3, r3
 633 0018 0CEB4E0C 		add	ip, ip, lr, lsl #1
 634              	.LVL90:
 218:Middlewares/lvgl/src/misc/lv_math.c ****         if(exp & 1)
 635              		.loc 1 218 10 is_stmt 1 view .LVU224
 636 001c 52B1     		cbz	r2, .L50
ARM GAS  /tmp/ccR17GfH.s 			page 17


 637              	.LVL91:
 638              	.L44:
 219:Middlewares/lvgl/src/misc/lv_math.c ****         if(exp & 1)
 639              		.loc 1 219 9 view .LVU225
 219:Middlewares/lvgl/src/misc/lv_math.c ****         if(exp & 1)
 640              		.loc 1 219 11 is_stmt 0 view .LVU226
 641 001e 12F0010F 		tst	r2, #1
 642 0022 F4D0     		beq	.L43
 220:Middlewares/lvgl/src/misc/lv_math.c ****         exp >>= 1;
 643              		.loc 1 220 13 is_stmt 1 view .LVU227
 220:Middlewares/lvgl/src/misc/lv_math.c ****         exp >>= 1;
 644              		.loc 1 220 20 is_stmt 0 view .LVU228
 645 0024 00FB0CFE 		mul	lr, r0, ip
 646 0028 03FB01EE 		mla	lr, r3, r1, lr
 647 002c A0FB0301 		umull	r0, r1, r0, r3
 648 0030 7144     		add	r1, r1, lr
 649              	.LVL92:
 220:Middlewares/lvgl/src/misc/lv_math.c ****         exp >>= 1;
 650              		.loc 1 220 20 view .LVU229
 651 0032 ECE7     		b	.L43
 652              	.LVL93:
 653              	.L50:
 223:Middlewares/lvgl/src/misc/lv_math.c ****     }
 224:Middlewares/lvgl/src/misc/lv_math.c **** 
 225:Middlewares/lvgl/src/misc/lv_math.c ****     return result;
 654              		.loc 1 225 5 is_stmt 1 view .LVU230
 226:Middlewares/lvgl/src/misc/lv_math.c **** }
 655              		.loc 1 226 1 is_stmt 0 view .LVU231
 656 0034 5DF804FB 		ldr	pc, [sp], #4
 657              	.L49:
 658              	.LCFI3:
 659              		.cfi_def_cfa_offset 0
 660              		.cfi_restore 14
 661              		.loc 1 226 1 view .LVU232
 662 0038 7047     		bx	lr
 663              		.cfi_endproc
 664              	.LFE5:
 666              		.section	.text.lv_map,"ax",%progbits
 667              		.align	1
 668              		.global	lv_map
 669              		.syntax unified
 670              		.thumb
 671              		.thumb_func
 672              		.fpu fpv4-sp-d16
 674              	lv_map:
 675              	.LVL94:
 676              	.LFB6:
 227:Middlewares/lvgl/src/misc/lv_math.c **** 
 228:Middlewares/lvgl/src/misc/lv_math.c **** /**
 229:Middlewares/lvgl/src/misc/lv_math.c ****  * Get the mapped of a number given an input and output range
 230:Middlewares/lvgl/src/misc/lv_math.c ****  * @param x integer which mapped value should be calculated
 231:Middlewares/lvgl/src/misc/lv_math.c ****  * @param min_in min input range
 232:Middlewares/lvgl/src/misc/lv_math.c ****  * @param max_in max input range
 233:Middlewares/lvgl/src/misc/lv_math.c ****  * @param min_out max output range
 234:Middlewares/lvgl/src/misc/lv_math.c ****  * @param max_out max output range
 235:Middlewares/lvgl/src/misc/lv_math.c ****  * @return the mapped number
 236:Middlewares/lvgl/src/misc/lv_math.c ****  */
ARM GAS  /tmp/ccR17GfH.s 			page 18


 237:Middlewares/lvgl/src/misc/lv_math.c **** int32_t lv_map(int32_t x, int32_t min_in, int32_t max_in, int32_t min_out, int32_t max_out)
 238:Middlewares/lvgl/src/misc/lv_math.c **** {
 677              		.loc 1 238 1 is_stmt 1 view -0
 678              		.cfi_startproc
 679              		@ args = 4, pretend = 0, frame = 0
 680              		@ frame_needed = 0, uses_anonymous_args = 0
 681              		.loc 1 238 1 is_stmt 0 view .LVU234
 682 0000 00B5     		push	{lr}
 683              	.LCFI4:
 684              		.cfi_def_cfa_offset 4
 685              		.cfi_offset 14, -4
 239:Middlewares/lvgl/src/misc/lv_math.c ****     if(x >= max_in) return max_out;
 686              		.loc 1 239 5 is_stmt 1 view .LVU235
 687              		.loc 1 239 7 is_stmt 0 view .LVU236
 688 0002 9042     		cmp	r0, r2
 689 0004 0EDA     		bge	.L53
 240:Middlewares/lvgl/src/misc/lv_math.c ****     if(x <= min_in) return min_out;
 690              		.loc 1 240 5 is_stmt 1 view .LVU237
 691              		.loc 1 240 7 is_stmt 0 view .LVU238
 692 0006 8842     		cmp	r0, r1
 693 0008 0EDD     		ble	.L54
 241:Middlewares/lvgl/src/misc/lv_math.c **** 
 242:Middlewares/lvgl/src/misc/lv_math.c ****     /**
 243:Middlewares/lvgl/src/misc/lv_math.c ****      * The equation should be:
 244:Middlewares/lvgl/src/misc/lv_math.c ****      *   ((x - min_in) * delta_out) / delta in) + min_out
 245:Middlewares/lvgl/src/misc/lv_math.c ****      * To avoid rounding error reorder the operations:
 246:Middlewares/lvgl/src/misc/lv_math.c ****      *   (x - min_in) * (delta_out / delta_min) + min_out
 247:Middlewares/lvgl/src/misc/lv_math.c ****      */
 248:Middlewares/lvgl/src/misc/lv_math.c **** 
 249:Middlewares/lvgl/src/misc/lv_math.c ****     int32_t delta_in = max_in - min_in;
 694              		.loc 1 249 5 is_stmt 1 view .LVU239
 695              		.loc 1 249 13 is_stmt 0 view .LVU240
 696 000a A2EB010C 		sub	ip, r2, r1
 697              	.LVL95:
 250:Middlewares/lvgl/src/misc/lv_math.c ****     int32_t delta_out = max_out - min_out;
 698              		.loc 1 250 5 is_stmt 1 view .LVU241
 699              		.loc 1 250 13 is_stmt 0 view .LVU242
 700 000e 019A     		ldr	r2, [sp, #4]
 701              	.LVL96:
 702              		.loc 1 250 13 view .LVU243
 703 0010 A2EB030E 		sub	lr, r2, r3
 704              	.LVL97:
 251:Middlewares/lvgl/src/misc/lv_math.c **** 
 252:Middlewares/lvgl/src/misc/lv_math.c ****     return ((x - min_in) * delta_out) / delta_in + min_out;
 705              		.loc 1 252 5 is_stmt 1 view .LVU244
 706              		.loc 1 252 16 is_stmt 0 view .LVU245
 707 0014 421A     		subs	r2, r0, r1
 708              		.loc 1 252 26 view .LVU246
 709 0016 0EFB02F2 		mul	r2, lr, r2
 710              		.loc 1 252 39 view .LVU247
 711 001a 92FBFCF2 		sdiv	r2, r2, ip
 712              		.loc 1 252 50 view .LVU248
 713 001e D018     		adds	r0, r2, r3
 714              	.LVL98:
 715              	.L51:
 253:Middlewares/lvgl/src/misc/lv_math.c **** }
 716              		.loc 1 253 1 view .LVU249
ARM GAS  /tmp/ccR17GfH.s 			page 19


 717 0020 5DF804FB 		ldr	pc, [sp], #4
 718              	.LVL99:
 719              	.L53:
 239:Middlewares/lvgl/src/misc/lv_math.c ****     if(x <= min_in) return min_out;
 720              		.loc 1 239 28 view .LVU250
 721 0024 0198     		ldr	r0, [sp, #4]
 722              	.LVL100:
 239:Middlewares/lvgl/src/misc/lv_math.c ****     if(x <= min_in) return min_out;
 723              		.loc 1 239 28 view .LVU251
 724 0026 FBE7     		b	.L51
 725              	.LVL101:
 726              	.L54:
 240:Middlewares/lvgl/src/misc/lv_math.c **** 
 727              		.loc 1 240 28 view .LVU252
 728 0028 1846     		mov	r0, r3
 729              	.LVL102:
 240:Middlewares/lvgl/src/misc/lv_math.c **** 
 730              		.loc 1 240 28 view .LVU253
 731 002a F9E7     		b	.L51
 732              		.cfi_endproc
 733              	.LFE6:
 735              		.section	.text.lv_rand,"ax",%progbits
 736              		.align	1
 737              		.global	lv_rand
 738              		.syntax unified
 739              		.thumb
 740              		.thumb_func
 741              		.fpu fpv4-sp-d16
 743              	lv_rand:
 744              	.LVL103:
 745              	.LFB7:
 254:Middlewares/lvgl/src/misc/lv_math.c **** 
 255:Middlewares/lvgl/src/misc/lv_math.c **** uint32_t lv_rand(uint32_t min, uint32_t max)
 256:Middlewares/lvgl/src/misc/lv_math.c **** {
 746              		.loc 1 256 1 is_stmt 1 view -0
 747              		.cfi_startproc
 748              		@ args = 0, pretend = 0, frame = 0
 749              		@ frame_needed = 0, uses_anonymous_args = 0
 750              		@ link register save eliminated.
 257:Middlewares/lvgl/src/misc/lv_math.c ****     static uint32_t a = 0x1234ABCD; /*Seed*/
 751              		.loc 1 257 5 view .LVU255
 258:Middlewares/lvgl/src/misc/lv_math.c **** 
 259:Middlewares/lvgl/src/misc/lv_math.c ****     /*Algorithm "xor" from p. 4 of Marsaglia, "Xorshift RNGs"*/
 260:Middlewares/lvgl/src/misc/lv_math.c ****     uint32_t x = a;
 752              		.loc 1 260 5 view .LVU256
 753              		.loc 1 260 14 is_stmt 0 view .LVU257
 754 0000 084A     		ldr	r2, .L57
 755 0002 1368     		ldr	r3, [r2]
 756              	.LVL104:
 261:Middlewares/lvgl/src/misc/lv_math.c ****     x ^= x << 13;
 757              		.loc 1 261 5 is_stmt 1 view .LVU258
 758              		.loc 1 261 7 is_stmt 0 view .LVU259
 759 0004 83EA4333 		eor	r3, r3, r3, lsl #13
 760              	.LVL105:
 262:Middlewares/lvgl/src/misc/lv_math.c ****     x ^= x >> 17;
 761              		.loc 1 262 5 is_stmt 1 view .LVU260
 762              		.loc 1 262 7 is_stmt 0 view .LVU261
ARM GAS  /tmp/ccR17GfH.s 			page 20


 763 0008 83EA5343 		eor	r3, r3, r3, lsr #17
 764              	.LVL106:
 263:Middlewares/lvgl/src/misc/lv_math.c ****     x ^= x << 5;
 765              		.loc 1 263 5 is_stmt 1 view .LVU262
 766              		.loc 1 263 7 is_stmt 0 view .LVU263
 767 000c 83EA4313 		eor	r3, r3, r3, lsl #5
 768              	.LVL107:
 264:Middlewares/lvgl/src/misc/lv_math.c ****     a = x;
 769              		.loc 1 264 5 is_stmt 1 view .LVU264
 770              		.loc 1 264 7 is_stmt 0 view .LVU265
 771 0010 1360     		str	r3, [r2]
 265:Middlewares/lvgl/src/misc/lv_math.c **** 
 266:Middlewares/lvgl/src/misc/lv_math.c ****     return (a % (max - min + 1)) + min;
 772              		.loc 1 266 5 is_stmt 1 view .LVU266
 773              		.loc 1 266 22 is_stmt 0 view .LVU267
 774 0012 091A     		subs	r1, r1, r0
 775              	.LVL108:
 776              		.loc 1 266 28 view .LVU268
 777 0014 0131     		adds	r1, r1, #1
 778              		.loc 1 266 15 view .LVU269
 779 0016 B3FBF1F2 		udiv	r2, r3, r1
 780 001a 01FB1233 		mls	r3, r1, r2, r3
 781              	.LVL109:
 267:Middlewares/lvgl/src/misc/lv_math.c **** }
 782              		.loc 1 267 1 view .LVU270
 783 001e 1844     		add	r0, r0, r3
 784              	.LVL110:
 785              		.loc 1 267 1 view .LVU271
 786 0020 7047     		bx	lr
 787              	.L58:
 788 0022 00BF     		.align	2
 789              	.L57:
 790 0024 00000000 		.word	.LANCHOR1
 791              		.cfi_endproc
 792              	.LFE7:
 794              		.section	.data.a.0,"aw"
 795              		.align	2
 796              		.set	.LANCHOR1,. + 0
 799              	a.0:
 800 0000 CDAB3412 		.word	305441741
 801              		.section	.rodata.sin0_90_table,"a"
 802              		.align	2
 803              		.set	.LANCHOR0,. + 0
 806              	sin0_90_table:
 807 0000 0000     		.short	0
 808 0002 3C02     		.short	572
 809 0004 7804     		.short	1144
 810 0006 B306     		.short	1715
 811 0008 EE08     		.short	2286
 812 000a 280B     		.short	2856
 813 000c 610D     		.short	3425
 814 000e 990F     		.short	3993
 815 0010 D011     		.short	4560
 816 0012 0614     		.short	5126
 817 0014 3A16     		.short	5690
 818 0016 6C18     		.short	6252
 819 0018 9D1A     		.short	6813
ARM GAS  /tmp/ccR17GfH.s 			page 21


 820 001a CB1C     		.short	7371
 821 001c F71E     		.short	7927
 822 001e 2121     		.short	8481
 823 0020 4823     		.short	9032
 824 0022 6C25     		.short	9580
 825 0024 8E27     		.short	10126
 826 0026 AC29     		.short	10668
 827 0028 C72B     		.short	11207
 828 002a DF2D     		.short	11743
 829 002c F32F     		.short	12275
 830 002e 0332     		.short	12803
 831 0030 1034     		.short	13328
 832 0032 1836     		.short	13848
 833 0034 1C38     		.short	14364
 834 0036 1C3A     		.short	14876
 835 0038 173C     		.short	15383
 836 003a 0E3E     		.short	15886
 837 003c FF3F     		.short	16383
 838 003e EC41     		.short	16876
 839 0040 D443     		.short	17364
 840 0042 B645     		.short	17846
 841 0044 9347     		.short	18323
 842 0046 6A49     		.short	18794
 843 0048 3C4B     		.short	19260
 844 004a 084D     		.short	19720
 845 004c CD4E     		.short	20173
 846 004e 8D50     		.short	20621
 847 0050 4652     		.short	21062
 848 0052 F953     		.short	21497
 849 0054 A555     		.short	21925
 850 0056 4B57     		.short	22347
 851 0058 EA58     		.short	22762
 852 005a 825A     		.short	23170
 853 005c 135C     		.short	23571
 854 005e 9C5D     		.short	23964
 855 0060 1F5F     		.short	24351
 856 0062 9A60     		.short	24730
 857 0064 0D62     		.short	25101
 858 0066 7963     		.short	25465
 859 0068 DD64     		.short	25821
 860 006a 3966     		.short	26169
 861 006c 8D67     		.short	26509
 862 006e D968     		.short	26841
 863 0070 1D6A     		.short	27165
 864 0072 596B     		.short	27481
 865 0074 8C6C     		.short	27788
 866 0076 B76D     		.short	28087
 867 0078 D96E     		.short	28377
 868 007a F36F     		.short	28659
 869 007c 0471     		.short	28932
 870 007e 0C72     		.short	29196
 871 0080 0B73     		.short	29451
 872 0082 0174     		.short	29697
 873 0084 EE74     		.short	29934
 874 0086 D275     		.short	30162
 875 0088 AD76     		.short	30381
 876 008a 7F77     		.short	30591
ARM GAS  /tmp/ccR17GfH.s 			page 22


 877 008c 4778     		.short	30791
 878 008e 0679     		.short	30982
 879 0090 BB79     		.short	31163
 880 0092 677A     		.short	31335
 881 0094 0A7B     		.short	31498
 882 0096 A27B     		.short	31650
 883 0098 327C     		.short	31794
 884 009a B77C     		.short	31927
 885 009c 337D     		.short	32051
 886 009e A57D     		.short	32165
 887 00a0 0D7E     		.short	32269
 888 00a2 6C7E     		.short	32364
 889 00a4 C07E     		.short	32448
 890 00a6 0B7F     		.short	32523
 891 00a8 4B7F     		.short	32587
 892 00aa 827F     		.short	32642
 893 00ac AF7F     		.short	32687
 894 00ae D27F     		.short	32722
 895 00b0 EB7F     		.short	32747
 896 00b2 FA7F     		.short	32762
 897 00b4 FF7F     		.short	32767
 898              		.text
 899              	.Letext0:
 900              		.file 2 "/home/akinya/gcc-arm-none-eabi/arm-none-eabi/include/machine/_default_types.h"
 901              		.file 3 "/home/akinya/gcc-arm-none-eabi/arm-none-eabi/include/sys/_stdint.h"
 902              		.file 4 "Middlewares/lvgl/src/misc/lv_math.h"
ARM GAS  /tmp/ccR17GfH.s 			page 23

