ARM GAS  /tmp/ccSK5Jfi.s 			page 1


   1              		.cpu cortex-m4
   2              		.eabi_attribute 27, 1
   3              		.eabi_attribute 28, 1
   4              		.eabi_attribute 20, 1
   5              		.eabi_attribute 21, 1
   6              		.eabi_attribute 23, 3
   7              		.eabi_attribute 24, 1
   8              		.eabi_attribute 25, 1
   9              		.eabi_attribute 26, 1
  10              		.eabi_attribute 30, 1
  11              		.eabi_attribute 34, 1
  12              		.eabi_attribute 18, 4
  13              		.file	"lv_obj_scroll.c"
  14              		.text
  15              	.Ltext0:
  16              		.cfi_sections	.debug_frame
  17              		.section	.text.scroll_by_raw,"ax",%progbits
  18              		.align	1
  19              		.arch armv7e-m
  20              		.syntax unified
  21              		.thumb
  22              		.thumb_func
  23              		.fpu fpv4-sp-d16
  25              	scroll_by_raw:
  26              	.LVL0:
  27              	.LFB179:
  28              		.file 1 "Middlewares/lvgl/src/core/lv_obj_scroll.c"
   1:Middlewares/lvgl/src/core/lv_obj_scroll.c **** /**
   2:Middlewares/lvgl/src/core/lv_obj_scroll.c ****  * @file lv_obj_scroll.c
   3:Middlewares/lvgl/src/core/lv_obj_scroll.c ****  *
   4:Middlewares/lvgl/src/core/lv_obj_scroll.c ****  */
   5:Middlewares/lvgl/src/core/lv_obj_scroll.c **** 
   6:Middlewares/lvgl/src/core/lv_obj_scroll.c **** /*********************
   7:Middlewares/lvgl/src/core/lv_obj_scroll.c ****  *      INCLUDES
   8:Middlewares/lvgl/src/core/lv_obj_scroll.c ****  *********************/
   9:Middlewares/lvgl/src/core/lv_obj_scroll.c **** #include "lv_obj_scroll.h"
  10:Middlewares/lvgl/src/core/lv_obj_scroll.c **** #include "lv_obj.h"
  11:Middlewares/lvgl/src/core/lv_obj_scroll.c **** #include "lv_indev.h"
  12:Middlewares/lvgl/src/core/lv_obj_scroll.c **** #include "lv_disp.h"
  13:Middlewares/lvgl/src/core/lv_obj_scroll.c **** #include "lv_indev_scroll.h"
  14:Middlewares/lvgl/src/core/lv_obj_scroll.c **** 
  15:Middlewares/lvgl/src/core/lv_obj_scroll.c **** /*********************
  16:Middlewares/lvgl/src/core/lv_obj_scroll.c ****  *      DEFINES
  17:Middlewares/lvgl/src/core/lv_obj_scroll.c ****  *********************/
  18:Middlewares/lvgl/src/core/lv_obj_scroll.c **** #define MY_CLASS &lv_obj_class
  19:Middlewares/lvgl/src/core/lv_obj_scroll.c **** #define SCROLL_ANIM_TIME_MIN    200    /*ms*/
  20:Middlewares/lvgl/src/core/lv_obj_scroll.c **** #define SCROLL_ANIM_TIME_MAX    400    /*ms*/
  21:Middlewares/lvgl/src/core/lv_obj_scroll.c **** #define SCROLLBAR_MIN_SIZE      (LV_DPX(10))
  22:Middlewares/lvgl/src/core/lv_obj_scroll.c **** 
  23:Middlewares/lvgl/src/core/lv_obj_scroll.c **** /**********************
  24:Middlewares/lvgl/src/core/lv_obj_scroll.c ****  *      TYPEDEFS
  25:Middlewares/lvgl/src/core/lv_obj_scroll.c ****  **********************/
  26:Middlewares/lvgl/src/core/lv_obj_scroll.c **** 
  27:Middlewares/lvgl/src/core/lv_obj_scroll.c **** /**********************
  28:Middlewares/lvgl/src/core/lv_obj_scroll.c ****  *  GLOBAL PROTOTYPES
  29:Middlewares/lvgl/src/core/lv_obj_scroll.c ****  **********************/
  30:Middlewares/lvgl/src/core/lv_obj_scroll.c **** 
ARM GAS  /tmp/ccSK5Jfi.s 			page 2


  31:Middlewares/lvgl/src/core/lv_obj_scroll.c **** /**********************
  32:Middlewares/lvgl/src/core/lv_obj_scroll.c ****  *  STATIC PROTOTYPES
  33:Middlewares/lvgl/src/core/lv_obj_scroll.c ****  **********************/
  34:Middlewares/lvgl/src/core/lv_obj_scroll.c **** static void scroll_by_raw(lv_obj_t * obj, lv_coord_t x, lv_coord_t y);
  35:Middlewares/lvgl/src/core/lv_obj_scroll.c **** static void scroll_x_anim(void * obj, int32_t v);
  36:Middlewares/lvgl/src/core/lv_obj_scroll.c **** static void scroll_y_anim(void * obj, int32_t v);
  37:Middlewares/lvgl/src/core/lv_obj_scroll.c **** static void scroll_anim_ready_cb(lv_anim_t * a);
  38:Middlewares/lvgl/src/core/lv_obj_scroll.c **** static void scroll_area_into_view(const lv_area_t * area, lv_obj_t * child, lv_point_t * scroll_val
  39:Middlewares/lvgl/src/core/lv_obj_scroll.c **** 
  40:Middlewares/lvgl/src/core/lv_obj_scroll.c **** /**********************
  41:Middlewares/lvgl/src/core/lv_obj_scroll.c ****  *  STATIC VARIABLES
  42:Middlewares/lvgl/src/core/lv_obj_scroll.c ****  **********************/
  43:Middlewares/lvgl/src/core/lv_obj_scroll.c **** 
  44:Middlewares/lvgl/src/core/lv_obj_scroll.c **** /**********************
  45:Middlewares/lvgl/src/core/lv_obj_scroll.c ****  *      MACROS
  46:Middlewares/lvgl/src/core/lv_obj_scroll.c ****  **********************/
  47:Middlewares/lvgl/src/core/lv_obj_scroll.c **** 
  48:Middlewares/lvgl/src/core/lv_obj_scroll.c **** /**********************
  49:Middlewares/lvgl/src/core/lv_obj_scroll.c ****  *   GLOBAL FUNCTIONS
  50:Middlewares/lvgl/src/core/lv_obj_scroll.c ****  **********************/
  51:Middlewares/lvgl/src/core/lv_obj_scroll.c **** 
  52:Middlewares/lvgl/src/core/lv_obj_scroll.c **** /*=====================
  53:Middlewares/lvgl/src/core/lv_obj_scroll.c ****  * Setter functions
  54:Middlewares/lvgl/src/core/lv_obj_scroll.c ****  *====================*/
  55:Middlewares/lvgl/src/core/lv_obj_scroll.c **** 
  56:Middlewares/lvgl/src/core/lv_obj_scroll.c **** void lv_obj_set_scrollbar_mode(lv_obj_t * obj, lv_scrollbar_mode_t mode)
  57:Middlewares/lvgl/src/core/lv_obj_scroll.c **** {
  58:Middlewares/lvgl/src/core/lv_obj_scroll.c ****     LV_ASSERT_OBJ(obj, MY_CLASS);
  59:Middlewares/lvgl/src/core/lv_obj_scroll.c **** 
  60:Middlewares/lvgl/src/core/lv_obj_scroll.c ****     lv_obj_allocate_spec_attr(obj);
  61:Middlewares/lvgl/src/core/lv_obj_scroll.c **** 
  62:Middlewares/lvgl/src/core/lv_obj_scroll.c ****     if(obj->spec_attr->scrollbar_mode == mode) return;
  63:Middlewares/lvgl/src/core/lv_obj_scroll.c ****     obj->spec_attr->scrollbar_mode = mode;
  64:Middlewares/lvgl/src/core/lv_obj_scroll.c ****     lv_obj_invalidate(obj);
  65:Middlewares/lvgl/src/core/lv_obj_scroll.c **** }
  66:Middlewares/lvgl/src/core/lv_obj_scroll.c **** 
  67:Middlewares/lvgl/src/core/lv_obj_scroll.c **** void lv_obj_set_scroll_dir(lv_obj_t * obj, lv_dir_t dir)
  68:Middlewares/lvgl/src/core/lv_obj_scroll.c **** {
  69:Middlewares/lvgl/src/core/lv_obj_scroll.c ****     lv_obj_allocate_spec_attr(obj);
  70:Middlewares/lvgl/src/core/lv_obj_scroll.c **** 
  71:Middlewares/lvgl/src/core/lv_obj_scroll.c ****     if(dir != obj->spec_attr->scroll_dir) {
  72:Middlewares/lvgl/src/core/lv_obj_scroll.c ****         obj->spec_attr->scroll_dir = dir;
  73:Middlewares/lvgl/src/core/lv_obj_scroll.c ****     }
  74:Middlewares/lvgl/src/core/lv_obj_scroll.c **** }
  75:Middlewares/lvgl/src/core/lv_obj_scroll.c **** 
  76:Middlewares/lvgl/src/core/lv_obj_scroll.c **** void lv_obj_set_scroll_snap_x(lv_obj_t * obj, lv_scroll_snap_t align)
  77:Middlewares/lvgl/src/core/lv_obj_scroll.c **** {
  78:Middlewares/lvgl/src/core/lv_obj_scroll.c ****     lv_obj_allocate_spec_attr(obj);
  79:Middlewares/lvgl/src/core/lv_obj_scroll.c ****     obj->spec_attr->scroll_snap_x = align;
  80:Middlewares/lvgl/src/core/lv_obj_scroll.c **** }
  81:Middlewares/lvgl/src/core/lv_obj_scroll.c **** 
  82:Middlewares/lvgl/src/core/lv_obj_scroll.c **** void lv_obj_set_scroll_snap_y(lv_obj_t * obj, lv_scroll_snap_t align)
  83:Middlewares/lvgl/src/core/lv_obj_scroll.c **** {
  84:Middlewares/lvgl/src/core/lv_obj_scroll.c ****     lv_obj_allocate_spec_attr(obj);
  85:Middlewares/lvgl/src/core/lv_obj_scroll.c ****     obj->spec_attr->scroll_snap_y = align;
  86:Middlewares/lvgl/src/core/lv_obj_scroll.c **** }
  87:Middlewares/lvgl/src/core/lv_obj_scroll.c **** 
ARM GAS  /tmp/ccSK5Jfi.s 			page 3


  88:Middlewares/lvgl/src/core/lv_obj_scroll.c **** /*=====================
  89:Middlewares/lvgl/src/core/lv_obj_scroll.c ****  * Getter functions
  90:Middlewares/lvgl/src/core/lv_obj_scroll.c ****  *====================*/
  91:Middlewares/lvgl/src/core/lv_obj_scroll.c **** 
  92:Middlewares/lvgl/src/core/lv_obj_scroll.c **** lv_scrollbar_mode_t lv_obj_get_scrollbar_mode(const lv_obj_t * obj)
  93:Middlewares/lvgl/src/core/lv_obj_scroll.c **** {
  94:Middlewares/lvgl/src/core/lv_obj_scroll.c ****     if(obj->spec_attr) return obj->spec_attr->scrollbar_mode;
  95:Middlewares/lvgl/src/core/lv_obj_scroll.c ****     else return LV_SCROLLBAR_MODE_AUTO;
  96:Middlewares/lvgl/src/core/lv_obj_scroll.c **** }
  97:Middlewares/lvgl/src/core/lv_obj_scroll.c **** 
  98:Middlewares/lvgl/src/core/lv_obj_scroll.c **** lv_dir_t lv_obj_get_scroll_dir(const lv_obj_t * obj)
  99:Middlewares/lvgl/src/core/lv_obj_scroll.c **** {
 100:Middlewares/lvgl/src/core/lv_obj_scroll.c ****     if(obj->spec_attr) return obj->spec_attr->scroll_dir;
 101:Middlewares/lvgl/src/core/lv_obj_scroll.c ****     else return LV_DIR_ALL;
 102:Middlewares/lvgl/src/core/lv_obj_scroll.c **** }
 103:Middlewares/lvgl/src/core/lv_obj_scroll.c **** 
 104:Middlewares/lvgl/src/core/lv_obj_scroll.c **** lv_scroll_snap_t lv_obj_get_scroll_snap_x(const lv_obj_t * obj)
 105:Middlewares/lvgl/src/core/lv_obj_scroll.c **** {
 106:Middlewares/lvgl/src/core/lv_obj_scroll.c ****     if(obj->spec_attr) return obj->spec_attr->scroll_snap_x;
 107:Middlewares/lvgl/src/core/lv_obj_scroll.c ****     else return LV_SCROLL_SNAP_NONE;
 108:Middlewares/lvgl/src/core/lv_obj_scroll.c **** }
 109:Middlewares/lvgl/src/core/lv_obj_scroll.c **** 
 110:Middlewares/lvgl/src/core/lv_obj_scroll.c **** lv_scroll_snap_t lv_obj_get_scroll_snap_y(const lv_obj_t * obj)
 111:Middlewares/lvgl/src/core/lv_obj_scroll.c **** {
 112:Middlewares/lvgl/src/core/lv_obj_scroll.c ****     if(obj->spec_attr) return obj->spec_attr->scroll_snap_y;
 113:Middlewares/lvgl/src/core/lv_obj_scroll.c ****     else return LV_SCROLL_SNAP_NONE;
 114:Middlewares/lvgl/src/core/lv_obj_scroll.c **** }
 115:Middlewares/lvgl/src/core/lv_obj_scroll.c **** 
 116:Middlewares/lvgl/src/core/lv_obj_scroll.c **** lv_coord_t lv_obj_get_scroll_x(const lv_obj_t * obj)
 117:Middlewares/lvgl/src/core/lv_obj_scroll.c **** {
 118:Middlewares/lvgl/src/core/lv_obj_scroll.c ****     if(obj->spec_attr == NULL) return 0;
 119:Middlewares/lvgl/src/core/lv_obj_scroll.c ****     return -obj->spec_attr->scroll.x;
 120:Middlewares/lvgl/src/core/lv_obj_scroll.c **** }
 121:Middlewares/lvgl/src/core/lv_obj_scroll.c **** 
 122:Middlewares/lvgl/src/core/lv_obj_scroll.c **** lv_coord_t lv_obj_get_scroll_y(const lv_obj_t * obj)
 123:Middlewares/lvgl/src/core/lv_obj_scroll.c **** {
 124:Middlewares/lvgl/src/core/lv_obj_scroll.c ****     if(obj->spec_attr == NULL) return 0;
 125:Middlewares/lvgl/src/core/lv_obj_scroll.c ****     return -obj->spec_attr->scroll.y;
 126:Middlewares/lvgl/src/core/lv_obj_scroll.c **** }
 127:Middlewares/lvgl/src/core/lv_obj_scroll.c **** 
 128:Middlewares/lvgl/src/core/lv_obj_scroll.c **** lv_coord_t lv_obj_get_scroll_top(lv_obj_t * obj)
 129:Middlewares/lvgl/src/core/lv_obj_scroll.c **** {
 130:Middlewares/lvgl/src/core/lv_obj_scroll.c ****     if(obj->spec_attr == NULL) return 0;
 131:Middlewares/lvgl/src/core/lv_obj_scroll.c ****     return -obj->spec_attr->scroll.y;
 132:Middlewares/lvgl/src/core/lv_obj_scroll.c **** }
 133:Middlewares/lvgl/src/core/lv_obj_scroll.c **** 
 134:Middlewares/lvgl/src/core/lv_obj_scroll.c **** lv_coord_t lv_obj_get_scroll_bottom(lv_obj_t * obj)
 135:Middlewares/lvgl/src/core/lv_obj_scroll.c **** {
 136:Middlewares/lvgl/src/core/lv_obj_scroll.c ****     LV_ASSERT_OBJ(obj, MY_CLASS);
 137:Middlewares/lvgl/src/core/lv_obj_scroll.c **** 
 138:Middlewares/lvgl/src/core/lv_obj_scroll.c ****     lv_coord_t child_res = LV_COORD_MIN;
 139:Middlewares/lvgl/src/core/lv_obj_scroll.c ****     uint32_t i;
 140:Middlewares/lvgl/src/core/lv_obj_scroll.c ****     uint32_t child_cnt = lv_obj_get_child_cnt(obj);
 141:Middlewares/lvgl/src/core/lv_obj_scroll.c ****     for(i = 0; i < child_cnt; i++) {
 142:Middlewares/lvgl/src/core/lv_obj_scroll.c ****         lv_obj_t * child = lv_obj_get_child(obj, i);
 143:Middlewares/lvgl/src/core/lv_obj_scroll.c ****         if(lv_obj_has_flag_any(child,  LV_OBJ_FLAG_HIDDEN | LV_OBJ_FLAG_FLOATING)) continue;
 144:Middlewares/lvgl/src/core/lv_obj_scroll.c ****         child_res = LV_MAX(child_res, child->coords.y2);
ARM GAS  /tmp/ccSK5Jfi.s 			page 4


 145:Middlewares/lvgl/src/core/lv_obj_scroll.c ****     }
 146:Middlewares/lvgl/src/core/lv_obj_scroll.c **** 
 147:Middlewares/lvgl/src/core/lv_obj_scroll.c ****     lv_coord_t pad_top = lv_obj_get_style_pad_top(obj, LV_PART_MAIN);
 148:Middlewares/lvgl/src/core/lv_obj_scroll.c ****     lv_coord_t pad_bottom = lv_obj_get_style_pad_bottom(obj, LV_PART_MAIN);
 149:Middlewares/lvgl/src/core/lv_obj_scroll.c ****     lv_coord_t border_width = lv_obj_get_style_border_width(obj, LV_PART_MAIN);
 150:Middlewares/lvgl/src/core/lv_obj_scroll.c **** 
 151:Middlewares/lvgl/src/core/lv_obj_scroll.c ****     if(child_res != LV_COORD_MIN) {
 152:Middlewares/lvgl/src/core/lv_obj_scroll.c ****         child_res -= (obj->coords.y2 - pad_bottom - border_width);
 153:Middlewares/lvgl/src/core/lv_obj_scroll.c ****     }
 154:Middlewares/lvgl/src/core/lv_obj_scroll.c **** 
 155:Middlewares/lvgl/src/core/lv_obj_scroll.c ****     lv_coord_t self_h = lv_obj_get_self_height(obj);
 156:Middlewares/lvgl/src/core/lv_obj_scroll.c ****     self_h = self_h - (lv_obj_get_height(obj) - pad_top - pad_bottom - 2 * border_width);
 157:Middlewares/lvgl/src/core/lv_obj_scroll.c ****     self_h -= lv_obj_get_scroll_y(obj);
 158:Middlewares/lvgl/src/core/lv_obj_scroll.c ****     return LV_MAX(child_res, self_h);
 159:Middlewares/lvgl/src/core/lv_obj_scroll.c **** }
 160:Middlewares/lvgl/src/core/lv_obj_scroll.c **** 
 161:Middlewares/lvgl/src/core/lv_obj_scroll.c **** lv_coord_t lv_obj_get_scroll_left(lv_obj_t * obj)
 162:Middlewares/lvgl/src/core/lv_obj_scroll.c **** {
 163:Middlewares/lvgl/src/core/lv_obj_scroll.c ****     LV_ASSERT_OBJ(obj, MY_CLASS);
 164:Middlewares/lvgl/src/core/lv_obj_scroll.c **** 
 165:Middlewares/lvgl/src/core/lv_obj_scroll.c ****     /*Normally can't scroll the object out on the left.
 166:Middlewares/lvgl/src/core/lv_obj_scroll.c ****      *So simply use the current scroll position as "left size"*/
 167:Middlewares/lvgl/src/core/lv_obj_scroll.c ****     if(lv_obj_get_style_base_dir(obj, LV_PART_MAIN) != LV_BASE_DIR_RTL) {
 168:Middlewares/lvgl/src/core/lv_obj_scroll.c ****         if(obj->spec_attr == NULL) return 0;
 169:Middlewares/lvgl/src/core/lv_obj_scroll.c ****         return -obj->spec_attr->scroll.x;
 170:Middlewares/lvgl/src/core/lv_obj_scroll.c ****     }
 171:Middlewares/lvgl/src/core/lv_obj_scroll.c **** 
 172:Middlewares/lvgl/src/core/lv_obj_scroll.c ****     /*With RTL base direction scrolling the left is normal so find the left most coordinate*/
 173:Middlewares/lvgl/src/core/lv_obj_scroll.c ****     lv_coord_t pad_right = lv_obj_get_style_pad_right(obj, LV_PART_MAIN);
 174:Middlewares/lvgl/src/core/lv_obj_scroll.c ****     lv_coord_t pad_left = lv_obj_get_style_pad_left(obj, LV_PART_MAIN);
 175:Middlewares/lvgl/src/core/lv_obj_scroll.c ****     lv_coord_t border_width = lv_obj_get_style_border_width(obj, LV_PART_MAIN);
 176:Middlewares/lvgl/src/core/lv_obj_scroll.c **** 
 177:Middlewares/lvgl/src/core/lv_obj_scroll.c ****     lv_coord_t child_res = 0;
 178:Middlewares/lvgl/src/core/lv_obj_scroll.c **** 
 179:Middlewares/lvgl/src/core/lv_obj_scroll.c ****     uint32_t i;
 180:Middlewares/lvgl/src/core/lv_obj_scroll.c ****     lv_coord_t x1 = LV_COORD_MAX;
 181:Middlewares/lvgl/src/core/lv_obj_scroll.c ****     uint32_t child_cnt = lv_obj_get_child_cnt(obj);
 182:Middlewares/lvgl/src/core/lv_obj_scroll.c ****     for(i = 0; i < child_cnt; i++) {
 183:Middlewares/lvgl/src/core/lv_obj_scroll.c ****        lv_obj_t * child = lv_obj_get_child(obj, i);
 184:Middlewares/lvgl/src/core/lv_obj_scroll.c ****        if(lv_obj_has_flag_any(child,  LV_OBJ_FLAG_HIDDEN | LV_OBJ_FLAG_FLOATING)) continue;
 185:Middlewares/lvgl/src/core/lv_obj_scroll.c ****         x1 = LV_MIN(x1, child->coords.x1);
 186:Middlewares/lvgl/src/core/lv_obj_scroll.c **** 
 187:Middlewares/lvgl/src/core/lv_obj_scroll.c ****     }
 188:Middlewares/lvgl/src/core/lv_obj_scroll.c **** 
 189:Middlewares/lvgl/src/core/lv_obj_scroll.c ****     if(x1 != LV_COORD_MAX) {
 190:Middlewares/lvgl/src/core/lv_obj_scroll.c ****         child_res = x1;
 191:Middlewares/lvgl/src/core/lv_obj_scroll.c ****         child_res = (obj->coords.x1 + pad_left + border_width) - child_res;
 192:Middlewares/lvgl/src/core/lv_obj_scroll.c ****     } else {
 193:Middlewares/lvgl/src/core/lv_obj_scroll.c ****         child_res = LV_COORD_MIN;
 194:Middlewares/lvgl/src/core/lv_obj_scroll.c ****     }
 195:Middlewares/lvgl/src/core/lv_obj_scroll.c **** 
 196:Middlewares/lvgl/src/core/lv_obj_scroll.c ****     lv_coord_t self_w = lv_obj_get_self_width(obj);
 197:Middlewares/lvgl/src/core/lv_obj_scroll.c ****     self_w = self_w - (lv_obj_get_width(obj) - pad_right - pad_left - 2 * border_width);
 198:Middlewares/lvgl/src/core/lv_obj_scroll.c ****     self_w += lv_obj_get_scroll_x(obj);
 199:Middlewares/lvgl/src/core/lv_obj_scroll.c **** 
 200:Middlewares/lvgl/src/core/lv_obj_scroll.c ****     return LV_MAX(child_res, self_w);
 201:Middlewares/lvgl/src/core/lv_obj_scroll.c **** }
ARM GAS  /tmp/ccSK5Jfi.s 			page 5


 202:Middlewares/lvgl/src/core/lv_obj_scroll.c **** 
 203:Middlewares/lvgl/src/core/lv_obj_scroll.c **** lv_coord_t lv_obj_get_scroll_right(lv_obj_t * obj)
 204:Middlewares/lvgl/src/core/lv_obj_scroll.c **** {
 205:Middlewares/lvgl/src/core/lv_obj_scroll.c ****     LV_ASSERT_OBJ(obj, MY_CLASS);
 206:Middlewares/lvgl/src/core/lv_obj_scroll.c **** 
 207:Middlewares/lvgl/src/core/lv_obj_scroll.c ****     /*With RTL base dir can't scroll to the object out on the right.
 208:Middlewares/lvgl/src/core/lv_obj_scroll.c ****      *So simply use the current scroll position as "right size"*/
 209:Middlewares/lvgl/src/core/lv_obj_scroll.c ****     if(lv_obj_get_style_base_dir(obj, LV_PART_MAIN) == LV_BASE_DIR_RTL) {
 210:Middlewares/lvgl/src/core/lv_obj_scroll.c ****         if(obj->spec_attr == NULL) return 0;
 211:Middlewares/lvgl/src/core/lv_obj_scroll.c ****         return obj->spec_attr->scroll.x;
 212:Middlewares/lvgl/src/core/lv_obj_scroll.c ****     }
 213:Middlewares/lvgl/src/core/lv_obj_scroll.c **** 
 214:Middlewares/lvgl/src/core/lv_obj_scroll.c ****     /*With other base direction (LTR) scrolling to the right is normal so find the right most coord
 215:Middlewares/lvgl/src/core/lv_obj_scroll.c ****     lv_coord_t child_res = LV_COORD_MIN;
 216:Middlewares/lvgl/src/core/lv_obj_scroll.c ****     uint32_t i;
 217:Middlewares/lvgl/src/core/lv_obj_scroll.c ****     uint32_t child_cnt = lv_obj_get_child_cnt(obj);
 218:Middlewares/lvgl/src/core/lv_obj_scroll.c ****     for(i = 0; i < child_cnt; i++) {
 219:Middlewares/lvgl/src/core/lv_obj_scroll.c ****         lv_obj_t * child = lv_obj_get_child(obj, i);
 220:Middlewares/lvgl/src/core/lv_obj_scroll.c ****         if(lv_obj_has_flag_any(child,  LV_OBJ_FLAG_HIDDEN | LV_OBJ_FLAG_FLOATING)) continue;
 221:Middlewares/lvgl/src/core/lv_obj_scroll.c ****         child_res = LV_MAX(child_res, child->coords.x2);
 222:Middlewares/lvgl/src/core/lv_obj_scroll.c ****     }
 223:Middlewares/lvgl/src/core/lv_obj_scroll.c **** 
 224:Middlewares/lvgl/src/core/lv_obj_scroll.c ****     lv_coord_t pad_right = lv_obj_get_style_pad_right(obj, LV_PART_MAIN);
 225:Middlewares/lvgl/src/core/lv_obj_scroll.c ****     lv_coord_t pad_left = lv_obj_get_style_pad_left(obj, LV_PART_MAIN);
 226:Middlewares/lvgl/src/core/lv_obj_scroll.c ****     lv_coord_t border_width = lv_obj_get_style_border_width(obj, LV_PART_MAIN);
 227:Middlewares/lvgl/src/core/lv_obj_scroll.c **** 
 228:Middlewares/lvgl/src/core/lv_obj_scroll.c ****     if(child_res != LV_COORD_MIN) {
 229:Middlewares/lvgl/src/core/lv_obj_scroll.c ****         child_res -= (obj->coords.x2 - pad_right - border_width);
 230:Middlewares/lvgl/src/core/lv_obj_scroll.c ****     }
 231:Middlewares/lvgl/src/core/lv_obj_scroll.c **** 
 232:Middlewares/lvgl/src/core/lv_obj_scroll.c ****     lv_coord_t self_w;
 233:Middlewares/lvgl/src/core/lv_obj_scroll.c ****     self_w = lv_obj_get_self_width(obj);
 234:Middlewares/lvgl/src/core/lv_obj_scroll.c ****     self_w = self_w - (lv_obj_get_width(obj) - pad_right - pad_left - 2 * border_width);
 235:Middlewares/lvgl/src/core/lv_obj_scroll.c ****     self_w -= lv_obj_get_scroll_x(obj);
 236:Middlewares/lvgl/src/core/lv_obj_scroll.c ****     return LV_MAX(child_res, self_w);
 237:Middlewares/lvgl/src/core/lv_obj_scroll.c **** }
 238:Middlewares/lvgl/src/core/lv_obj_scroll.c **** 
 239:Middlewares/lvgl/src/core/lv_obj_scroll.c **** void lv_obj_get_scroll_end(struct _lv_obj_t  * obj, lv_point_t * end)
 240:Middlewares/lvgl/src/core/lv_obj_scroll.c **** {
 241:Middlewares/lvgl/src/core/lv_obj_scroll.c ****     lv_anim_t * a;
 242:Middlewares/lvgl/src/core/lv_obj_scroll.c ****     a = lv_anim_get(obj, scroll_x_anim);
 243:Middlewares/lvgl/src/core/lv_obj_scroll.c ****     end->x = a ? -a->end_value : lv_obj_get_scroll_x(obj);
 244:Middlewares/lvgl/src/core/lv_obj_scroll.c **** 
 245:Middlewares/lvgl/src/core/lv_obj_scroll.c ****     a = lv_anim_get(obj, scroll_y_anim);
 246:Middlewares/lvgl/src/core/lv_obj_scroll.c ****     end->y = a ? -a->end_value : lv_obj_get_scroll_y(obj);
 247:Middlewares/lvgl/src/core/lv_obj_scroll.c **** }
 248:Middlewares/lvgl/src/core/lv_obj_scroll.c **** 
 249:Middlewares/lvgl/src/core/lv_obj_scroll.c **** /*=====================
 250:Middlewares/lvgl/src/core/lv_obj_scroll.c ****  * Other functions
 251:Middlewares/lvgl/src/core/lv_obj_scroll.c ****  *====================*/
 252:Middlewares/lvgl/src/core/lv_obj_scroll.c **** 
 253:Middlewares/lvgl/src/core/lv_obj_scroll.c **** void lv_obj_scroll_by(lv_obj_t * obj, lv_coord_t x, lv_coord_t y, lv_anim_enable_t anim_en)
 254:Middlewares/lvgl/src/core/lv_obj_scroll.c **** {
 255:Middlewares/lvgl/src/core/lv_obj_scroll.c ****     if(x == 0 && y == 0) return;
 256:Middlewares/lvgl/src/core/lv_obj_scroll.c ****     if(anim_en == LV_ANIM_ON) {
 257:Middlewares/lvgl/src/core/lv_obj_scroll.c ****         lv_disp_t * d = lv_obj_get_disp(obj);
 258:Middlewares/lvgl/src/core/lv_obj_scroll.c ****         lv_anim_t a;
ARM GAS  /tmp/ccSK5Jfi.s 			page 6


 259:Middlewares/lvgl/src/core/lv_obj_scroll.c ****         lv_anim_init(&a);
 260:Middlewares/lvgl/src/core/lv_obj_scroll.c ****         lv_anim_set_var(&a, obj);
 261:Middlewares/lvgl/src/core/lv_obj_scroll.c ****         lv_anim_set_ready_cb(&a, scroll_anim_ready_cb);
 262:Middlewares/lvgl/src/core/lv_obj_scroll.c **** 
 263:Middlewares/lvgl/src/core/lv_obj_scroll.c ****         if(x) {
 264:Middlewares/lvgl/src/core/lv_obj_scroll.c ****             uint32_t t = lv_anim_speed_to_time((lv_disp_get_hor_res(d) * 2) >> 2, 0, x);
 265:Middlewares/lvgl/src/core/lv_obj_scroll.c ****             if(t < SCROLL_ANIM_TIME_MIN) t = SCROLL_ANIM_TIME_MIN;
 266:Middlewares/lvgl/src/core/lv_obj_scroll.c ****             if(t > SCROLL_ANIM_TIME_MAX) t = SCROLL_ANIM_TIME_MAX;
 267:Middlewares/lvgl/src/core/lv_obj_scroll.c ****             lv_anim_set_time(&a, t);
 268:Middlewares/lvgl/src/core/lv_obj_scroll.c ****             lv_coord_t sx = lv_obj_get_scroll_x(obj);
 269:Middlewares/lvgl/src/core/lv_obj_scroll.c ****             lv_anim_set_values(&a, -sx, -sx + x);
 270:Middlewares/lvgl/src/core/lv_obj_scroll.c ****             lv_anim_set_exec_cb(&a, scroll_x_anim);
 271:Middlewares/lvgl/src/core/lv_obj_scroll.c ****             lv_anim_set_path_cb(&a, lv_anim_path_ease_out);
 272:Middlewares/lvgl/src/core/lv_obj_scroll.c **** 
 273:Middlewares/lvgl/src/core/lv_obj_scroll.c ****             lv_res_t res;
 274:Middlewares/lvgl/src/core/lv_obj_scroll.c ****             res = lv_event_send(obj, LV_EVENT_SCROLL_BEGIN, &a);
 275:Middlewares/lvgl/src/core/lv_obj_scroll.c ****             if(res != LV_RES_OK) return;
 276:Middlewares/lvgl/src/core/lv_obj_scroll.c ****             lv_anim_start(&a);
 277:Middlewares/lvgl/src/core/lv_obj_scroll.c ****         }
 278:Middlewares/lvgl/src/core/lv_obj_scroll.c **** 
 279:Middlewares/lvgl/src/core/lv_obj_scroll.c ****         if(y) {
 280:Middlewares/lvgl/src/core/lv_obj_scroll.c ****             uint32_t t = lv_anim_speed_to_time((lv_disp_get_ver_res(d) * 2) >> 2, 0, y);
 281:Middlewares/lvgl/src/core/lv_obj_scroll.c ****             if(t < SCROLL_ANIM_TIME_MIN) t = SCROLL_ANIM_TIME_MIN;
 282:Middlewares/lvgl/src/core/lv_obj_scroll.c ****             if(t > SCROLL_ANIM_TIME_MAX) t = SCROLL_ANIM_TIME_MAX;
 283:Middlewares/lvgl/src/core/lv_obj_scroll.c ****             lv_anim_set_time(&a, t);
 284:Middlewares/lvgl/src/core/lv_obj_scroll.c ****             lv_coord_t sy = lv_obj_get_scroll_y(obj);
 285:Middlewares/lvgl/src/core/lv_obj_scroll.c ****             lv_anim_set_values(&a, -sy, -sy + y);
 286:Middlewares/lvgl/src/core/lv_obj_scroll.c ****             lv_anim_set_exec_cb(&a,  scroll_y_anim);
 287:Middlewares/lvgl/src/core/lv_obj_scroll.c ****             lv_anim_set_path_cb(&a, lv_anim_path_ease_out);
 288:Middlewares/lvgl/src/core/lv_obj_scroll.c ****             
 289:Middlewares/lvgl/src/core/lv_obj_scroll.c ****             lv_res_t res;
 290:Middlewares/lvgl/src/core/lv_obj_scroll.c ****             res = lv_event_send(obj, LV_EVENT_SCROLL_BEGIN, &a);
 291:Middlewares/lvgl/src/core/lv_obj_scroll.c ****             if(res != LV_RES_OK) return;
 292:Middlewares/lvgl/src/core/lv_obj_scroll.c ****             lv_anim_start(&a);
 293:Middlewares/lvgl/src/core/lv_obj_scroll.c ****         }
 294:Middlewares/lvgl/src/core/lv_obj_scroll.c ****     } else {
 295:Middlewares/lvgl/src/core/lv_obj_scroll.c ****         /*Remove pending animations*/
 296:Middlewares/lvgl/src/core/lv_obj_scroll.c ****         bool y_del = lv_anim_del(obj, scroll_y_anim);
 297:Middlewares/lvgl/src/core/lv_obj_scroll.c ****         bool x_del = lv_anim_del(obj, scroll_x_anim);
 298:Middlewares/lvgl/src/core/lv_obj_scroll.c ****         scroll_by_raw(obj, x, y);
 299:Middlewares/lvgl/src/core/lv_obj_scroll.c ****         if(y_del || x_del) {
 300:Middlewares/lvgl/src/core/lv_obj_scroll.c ****             lv_res_t res;
 301:Middlewares/lvgl/src/core/lv_obj_scroll.c ****             res = lv_event_send(obj, LV_EVENT_SCROLL_END, NULL);
 302:Middlewares/lvgl/src/core/lv_obj_scroll.c ****             if(res != LV_RES_OK) return;
 303:Middlewares/lvgl/src/core/lv_obj_scroll.c ****         }
 304:Middlewares/lvgl/src/core/lv_obj_scroll.c ****     }
 305:Middlewares/lvgl/src/core/lv_obj_scroll.c **** }
 306:Middlewares/lvgl/src/core/lv_obj_scroll.c **** 
 307:Middlewares/lvgl/src/core/lv_obj_scroll.c **** void lv_obj_scroll_to(lv_obj_t * obj, lv_coord_t x, lv_coord_t y, lv_anim_enable_t anim_en)
 308:Middlewares/lvgl/src/core/lv_obj_scroll.c **** {
 309:Middlewares/lvgl/src/core/lv_obj_scroll.c ****     lv_obj_scroll_to_x(obj, x, anim_en);
 310:Middlewares/lvgl/src/core/lv_obj_scroll.c ****     lv_obj_scroll_to_y(obj, y, anim_en);
 311:Middlewares/lvgl/src/core/lv_obj_scroll.c **** }
 312:Middlewares/lvgl/src/core/lv_obj_scroll.c **** 
 313:Middlewares/lvgl/src/core/lv_obj_scroll.c **** void lv_obj_scroll_to_x(lv_obj_t * obj, lv_coord_t x, lv_anim_enable_t anim_en)
 314:Middlewares/lvgl/src/core/lv_obj_scroll.c **** {
 315:Middlewares/lvgl/src/core/lv_obj_scroll.c ****     lv_anim_del(obj, scroll_x_anim);
ARM GAS  /tmp/ccSK5Jfi.s 			page 7


 316:Middlewares/lvgl/src/core/lv_obj_scroll.c **** 
 317:Middlewares/lvgl/src/core/lv_obj_scroll.c ****     /*Don't let scroll more then naturally possible by the size of the content*/
 318:Middlewares/lvgl/src/core/lv_obj_scroll.c ****     if(lv_obj_get_style_base_dir(obj, LV_PART_MAIN) != LV_BASE_DIR_RTL) {
 319:Middlewares/lvgl/src/core/lv_obj_scroll.c ****         if(x < 0) x = 0;
 320:Middlewares/lvgl/src/core/lv_obj_scroll.c ****         if(x > 0) {
 321:Middlewares/lvgl/src/core/lv_obj_scroll.c ****             lv_coord_t  scroll_max = lv_obj_get_scroll_left(obj) + lv_obj_get_scroll_right(obj);
 322:Middlewares/lvgl/src/core/lv_obj_scroll.c ****             if(scroll_max < 0) scroll_max = 0;
 323:Middlewares/lvgl/src/core/lv_obj_scroll.c **** 
 324:Middlewares/lvgl/src/core/lv_obj_scroll.c ****             if(x > scroll_max) x = scroll_max;
 325:Middlewares/lvgl/src/core/lv_obj_scroll.c ****         }
 326:Middlewares/lvgl/src/core/lv_obj_scroll.c ****     } else {
 327:Middlewares/lvgl/src/core/lv_obj_scroll.c ****         if(x > 0) x = 0;
 328:Middlewares/lvgl/src/core/lv_obj_scroll.c ****         if(x < 0) {
 329:Middlewares/lvgl/src/core/lv_obj_scroll.c ****             lv_coord_t  scroll_max = lv_obj_get_scroll_left(obj) + lv_obj_get_scroll_right(obj);
 330:Middlewares/lvgl/src/core/lv_obj_scroll.c ****             if(scroll_max < 0) scroll_max = 0;
 331:Middlewares/lvgl/src/core/lv_obj_scroll.c **** 
 332:Middlewares/lvgl/src/core/lv_obj_scroll.c ****             if(x < -scroll_max) x = -scroll_max;
 333:Middlewares/lvgl/src/core/lv_obj_scroll.c ****         }
 334:Middlewares/lvgl/src/core/lv_obj_scroll.c ****     }
 335:Middlewares/lvgl/src/core/lv_obj_scroll.c **** 
 336:Middlewares/lvgl/src/core/lv_obj_scroll.c ****     lv_coord_t scroll_x = lv_obj_get_scroll_x(obj);
 337:Middlewares/lvgl/src/core/lv_obj_scroll.c ****     lv_coord_t diff = -x + scroll_x;
 338:Middlewares/lvgl/src/core/lv_obj_scroll.c **** 
 339:Middlewares/lvgl/src/core/lv_obj_scroll.c ****     lv_obj_scroll_by(obj, diff, 0, anim_en);
 340:Middlewares/lvgl/src/core/lv_obj_scroll.c **** }
 341:Middlewares/lvgl/src/core/lv_obj_scroll.c **** 
 342:Middlewares/lvgl/src/core/lv_obj_scroll.c **** void lv_obj_scroll_to_y(lv_obj_t * obj, lv_coord_t y, lv_anim_enable_t anim_en)
 343:Middlewares/lvgl/src/core/lv_obj_scroll.c **** {
 344:Middlewares/lvgl/src/core/lv_obj_scroll.c ****     lv_anim_del(obj, scroll_y_anim);
 345:Middlewares/lvgl/src/core/lv_obj_scroll.c **** 
 346:Middlewares/lvgl/src/core/lv_obj_scroll.c ****     /*Don't let scroll more then naturally possible by the size of the content*/
 347:Middlewares/lvgl/src/core/lv_obj_scroll.c ****     if(y < 0) y = 0;
 348:Middlewares/lvgl/src/core/lv_obj_scroll.c ****     if(y > 0) {
 349:Middlewares/lvgl/src/core/lv_obj_scroll.c ****         lv_coord_t  scroll_max = lv_obj_get_scroll_top(obj) + lv_obj_get_scroll_bottom(obj);
 350:Middlewares/lvgl/src/core/lv_obj_scroll.c ****         if(scroll_max < 0) scroll_max = 0;
 351:Middlewares/lvgl/src/core/lv_obj_scroll.c ****         if(y > scroll_max) y = scroll_max;
 352:Middlewares/lvgl/src/core/lv_obj_scroll.c ****     }
 353:Middlewares/lvgl/src/core/lv_obj_scroll.c **** 
 354:Middlewares/lvgl/src/core/lv_obj_scroll.c ****     lv_coord_t scroll_y = lv_obj_get_scroll_y(obj);
 355:Middlewares/lvgl/src/core/lv_obj_scroll.c ****     lv_coord_t diff = -y + scroll_y;
 356:Middlewares/lvgl/src/core/lv_obj_scroll.c **** 
 357:Middlewares/lvgl/src/core/lv_obj_scroll.c ****     lv_obj_scroll_by(obj, 0, diff, anim_en);
 358:Middlewares/lvgl/src/core/lv_obj_scroll.c **** }
 359:Middlewares/lvgl/src/core/lv_obj_scroll.c **** 
 360:Middlewares/lvgl/src/core/lv_obj_scroll.c **** void lv_obj_scroll_to_view(lv_obj_t * obj, lv_anim_enable_t anim_en)
 361:Middlewares/lvgl/src/core/lv_obj_scroll.c **** {
 362:Middlewares/lvgl/src/core/lv_obj_scroll.c ****     /*Be sure the screens layout is correct*/
 363:Middlewares/lvgl/src/core/lv_obj_scroll.c ****     lv_obj_update_layout(obj);
 364:Middlewares/lvgl/src/core/lv_obj_scroll.c **** 
 365:Middlewares/lvgl/src/core/lv_obj_scroll.c ****     lv_point_t p = {0, 0};
 366:Middlewares/lvgl/src/core/lv_obj_scroll.c ****     scroll_area_into_view(&obj->coords, obj, &p, anim_en);
 367:Middlewares/lvgl/src/core/lv_obj_scroll.c **** }
 368:Middlewares/lvgl/src/core/lv_obj_scroll.c **** 
 369:Middlewares/lvgl/src/core/lv_obj_scroll.c **** void lv_obj_scroll_to_view_recursive(lv_obj_t * obj, lv_anim_enable_t anim_en)
 370:Middlewares/lvgl/src/core/lv_obj_scroll.c **** {
 371:Middlewares/lvgl/src/core/lv_obj_scroll.c ****     /*Be sure the screens layout is correct*/
 372:Middlewares/lvgl/src/core/lv_obj_scroll.c ****     lv_obj_update_layout(obj);
ARM GAS  /tmp/ccSK5Jfi.s 			page 8


 373:Middlewares/lvgl/src/core/lv_obj_scroll.c **** 
 374:Middlewares/lvgl/src/core/lv_obj_scroll.c ****     lv_point_t p = {0, 0};
 375:Middlewares/lvgl/src/core/lv_obj_scroll.c ****     lv_obj_t * child = obj;
 376:Middlewares/lvgl/src/core/lv_obj_scroll.c ****     lv_obj_t * parent = lv_obj_get_parent(child);
 377:Middlewares/lvgl/src/core/lv_obj_scroll.c ****     while(parent) {
 378:Middlewares/lvgl/src/core/lv_obj_scroll.c ****         scroll_area_into_view(&obj->coords, child, &p, anim_en);
 379:Middlewares/lvgl/src/core/lv_obj_scroll.c ****         child = parent;
 380:Middlewares/lvgl/src/core/lv_obj_scroll.c ****         parent = lv_obj_get_parent(parent);
 381:Middlewares/lvgl/src/core/lv_obj_scroll.c ****     }
 382:Middlewares/lvgl/src/core/lv_obj_scroll.c **** }
 383:Middlewares/lvgl/src/core/lv_obj_scroll.c **** 
 384:Middlewares/lvgl/src/core/lv_obj_scroll.c **** bool lv_obj_is_scrolling(const lv_obj_t * obj)
 385:Middlewares/lvgl/src/core/lv_obj_scroll.c **** {
 386:Middlewares/lvgl/src/core/lv_obj_scroll.c ****     lv_indev_t * indev = lv_indev_get_next(NULL);
 387:Middlewares/lvgl/src/core/lv_obj_scroll.c ****     while(indev) {
 388:Middlewares/lvgl/src/core/lv_obj_scroll.c ****         if(lv_indev_get_scroll_obj(indev) == obj) return true;
 389:Middlewares/lvgl/src/core/lv_obj_scroll.c ****         indev = lv_indev_get_next(indev);
 390:Middlewares/lvgl/src/core/lv_obj_scroll.c ****     }
 391:Middlewares/lvgl/src/core/lv_obj_scroll.c **** 
 392:Middlewares/lvgl/src/core/lv_obj_scroll.c ****     return false;
 393:Middlewares/lvgl/src/core/lv_obj_scroll.c **** }
 394:Middlewares/lvgl/src/core/lv_obj_scroll.c **** 
 395:Middlewares/lvgl/src/core/lv_obj_scroll.c **** void lv_obj_update_snap(lv_obj_t * obj, lv_anim_enable_t anim_en)
 396:Middlewares/lvgl/src/core/lv_obj_scroll.c **** {
 397:Middlewares/lvgl/src/core/lv_obj_scroll.c ****     lv_obj_update_layout(obj);
 398:Middlewares/lvgl/src/core/lv_obj_scroll.c ****     lv_point_t p;
 399:Middlewares/lvgl/src/core/lv_obj_scroll.c ****     lv_indev_scroll_get_snap_dist(obj, &p);
 400:Middlewares/lvgl/src/core/lv_obj_scroll.c ****     lv_obj_scroll_by(obj, p.x, p.y, anim_en);
 401:Middlewares/lvgl/src/core/lv_obj_scroll.c **** }
 402:Middlewares/lvgl/src/core/lv_obj_scroll.c **** 
 403:Middlewares/lvgl/src/core/lv_obj_scroll.c **** void lv_obj_get_scrollbar_area(lv_obj_t * obj, lv_area_t * hor_area, lv_area_t * ver_area)
 404:Middlewares/lvgl/src/core/lv_obj_scroll.c **** {
 405:Middlewares/lvgl/src/core/lv_obj_scroll.c ****     lv_area_set(hor_area, 0, 0, -1, -1);
 406:Middlewares/lvgl/src/core/lv_obj_scroll.c ****     lv_area_set(ver_area, 0, 0, -1, -1);
 407:Middlewares/lvgl/src/core/lv_obj_scroll.c **** 
 408:Middlewares/lvgl/src/core/lv_obj_scroll.c ****     if(lv_obj_has_flag(obj, LV_OBJ_FLAG_SCROLLABLE) == false) return;
 409:Middlewares/lvgl/src/core/lv_obj_scroll.c **** 
 410:Middlewares/lvgl/src/core/lv_obj_scroll.c ****     lv_dir_t sm = lv_obj_get_scrollbar_mode(obj);
 411:Middlewares/lvgl/src/core/lv_obj_scroll.c ****     if(sm == LV_SCROLLBAR_MODE_OFF)  return;
 412:Middlewares/lvgl/src/core/lv_obj_scroll.c **** 
 413:Middlewares/lvgl/src/core/lv_obj_scroll.c ****     /*If there is no indev scrolling this object but `mode==active` return*/
 414:Middlewares/lvgl/src/core/lv_obj_scroll.c ****     lv_indev_t * indev = lv_indev_get_next(NULL);
 415:Middlewares/lvgl/src/core/lv_obj_scroll.c ****     if(sm == LV_SCROLLBAR_MODE_ACTIVE) {
 416:Middlewares/lvgl/src/core/lv_obj_scroll.c ****         while(indev) {
 417:Middlewares/lvgl/src/core/lv_obj_scroll.c ****             if(lv_indev_get_scroll_obj(indev) == obj) break;
 418:Middlewares/lvgl/src/core/lv_obj_scroll.c ****             indev = lv_indev_get_next(indev);
 419:Middlewares/lvgl/src/core/lv_obj_scroll.c ****         }
 420:Middlewares/lvgl/src/core/lv_obj_scroll.c ****         if(indev == NULL)  return;
 421:Middlewares/lvgl/src/core/lv_obj_scroll.c ****     }
 422:Middlewares/lvgl/src/core/lv_obj_scroll.c **** 
 423:Middlewares/lvgl/src/core/lv_obj_scroll.c ****     lv_coord_t st = lv_obj_get_scroll_top(obj);
 424:Middlewares/lvgl/src/core/lv_obj_scroll.c ****     lv_coord_t sb = lv_obj_get_scroll_bottom(obj);
 425:Middlewares/lvgl/src/core/lv_obj_scroll.c ****     lv_coord_t sl = lv_obj_get_scroll_left(obj);
 426:Middlewares/lvgl/src/core/lv_obj_scroll.c ****     lv_coord_t sr = lv_obj_get_scroll_right(obj);
 427:Middlewares/lvgl/src/core/lv_obj_scroll.c **** 
 428:Middlewares/lvgl/src/core/lv_obj_scroll.c ****     lv_dir_t dir = lv_obj_get_scroll_dir(obj);
 429:Middlewares/lvgl/src/core/lv_obj_scroll.c **** 
ARM GAS  /tmp/ccSK5Jfi.s 			page 9


 430:Middlewares/lvgl/src/core/lv_obj_scroll.c ****     bool ver_draw = false;
 431:Middlewares/lvgl/src/core/lv_obj_scroll.c ****     if((dir & LV_DIR_VER) &&
 432:Middlewares/lvgl/src/core/lv_obj_scroll.c ****             ((sm == LV_SCROLLBAR_MODE_ON) ||
 433:Middlewares/lvgl/src/core/lv_obj_scroll.c ****                     (sm == LV_SCROLLBAR_MODE_AUTO && (st > 0 || sb > 0)) ||
 434:Middlewares/lvgl/src/core/lv_obj_scroll.c ****                     (sm == LV_SCROLLBAR_MODE_ACTIVE && lv_indev_get_scroll_dir(indev) == LV_DIR_VER
 435:Middlewares/lvgl/src/core/lv_obj_scroll.c ****         ver_draw = true;
 436:Middlewares/lvgl/src/core/lv_obj_scroll.c ****     }
 437:Middlewares/lvgl/src/core/lv_obj_scroll.c **** 
 438:Middlewares/lvgl/src/core/lv_obj_scroll.c **** 
 439:Middlewares/lvgl/src/core/lv_obj_scroll.c ****     bool hor_draw = false;
 440:Middlewares/lvgl/src/core/lv_obj_scroll.c ****     if((dir & LV_DIR_HOR) &&
 441:Middlewares/lvgl/src/core/lv_obj_scroll.c ****             ((sm == LV_SCROLLBAR_MODE_ON) ||
 442:Middlewares/lvgl/src/core/lv_obj_scroll.c ****                     (sm == LV_SCROLLBAR_MODE_AUTO && (sl > 0 || sr > 0)) ||
 443:Middlewares/lvgl/src/core/lv_obj_scroll.c ****                     (sm == LV_SCROLLBAR_MODE_ACTIVE && lv_indev_get_scroll_dir(indev) == LV_DIR_HOR
 444:Middlewares/lvgl/src/core/lv_obj_scroll.c ****         hor_draw = true;
 445:Middlewares/lvgl/src/core/lv_obj_scroll.c ****     }
 446:Middlewares/lvgl/src/core/lv_obj_scroll.c **** 
 447:Middlewares/lvgl/src/core/lv_obj_scroll.c ****     if(!hor_draw && !ver_draw) return;
 448:Middlewares/lvgl/src/core/lv_obj_scroll.c **** 
 449:Middlewares/lvgl/src/core/lv_obj_scroll.c ****     lv_coord_t end_space = lv_obj_get_style_pad_top(obj, LV_PART_SCROLLBAR);
 450:Middlewares/lvgl/src/core/lv_obj_scroll.c ****     lv_coord_t side_space = lv_obj_get_style_pad_right(obj, LV_PART_SCROLLBAR);
 451:Middlewares/lvgl/src/core/lv_obj_scroll.c ****     lv_coord_t tickness = lv_obj_get_style_width(obj, LV_PART_SCROLLBAR);
 452:Middlewares/lvgl/src/core/lv_obj_scroll.c **** 
 453:Middlewares/lvgl/src/core/lv_obj_scroll.c ****     lv_coord_t obj_h = lv_obj_get_height(obj);
 454:Middlewares/lvgl/src/core/lv_obj_scroll.c ****     lv_coord_t obj_w = lv_obj_get_width(obj);
 455:Middlewares/lvgl/src/core/lv_obj_scroll.c **** 
 456:Middlewares/lvgl/src/core/lv_obj_scroll.c ****     lv_coord_t ver_reg_space = ver_draw ? tickness + side_space : 0;
 457:Middlewares/lvgl/src/core/lv_obj_scroll.c ****     lv_coord_t hor_req_space = hor_draw ? tickness + side_space : 0;
 458:Middlewares/lvgl/src/core/lv_obj_scroll.c ****     lv_coord_t rem;
 459:Middlewares/lvgl/src/core/lv_obj_scroll.c **** 
 460:Middlewares/lvgl/src/core/lv_obj_scroll.c ****     if(lv_obj_get_style_bg_opa(obj, LV_PART_SCROLLBAR) < LV_OPA_MIN &&
 461:Middlewares/lvgl/src/core/lv_obj_scroll.c ****        lv_obj_get_style_border_opa(obj, LV_PART_SCROLLBAR) < LV_OPA_MIN) {
 462:Middlewares/lvgl/src/core/lv_obj_scroll.c ****         return;
 463:Middlewares/lvgl/src/core/lv_obj_scroll.c ****     }
 464:Middlewares/lvgl/src/core/lv_obj_scroll.c **** 
 465:Middlewares/lvgl/src/core/lv_obj_scroll.c ****     /*Draw horizontal scrollbar if the mode is ON or can be scrolled in this direction*/
 466:Middlewares/lvgl/src/core/lv_obj_scroll.c ****     lv_coord_t content_h = obj_h + st + sb;
 467:Middlewares/lvgl/src/core/lv_obj_scroll.c ****     if(ver_draw && content_h) {
 468:Middlewares/lvgl/src/core/lv_obj_scroll.c ****        ver_area->y1 = obj->coords.y1;
 469:Middlewares/lvgl/src/core/lv_obj_scroll.c ****        ver_area->y2 = obj->coords.y2;
 470:Middlewares/lvgl/src/core/lv_obj_scroll.c ****        ver_area->x2 = obj->coords.x2 - side_space;
 471:Middlewares/lvgl/src/core/lv_obj_scroll.c ****        ver_area->x1 =ver_area->x2 - tickness;
 472:Middlewares/lvgl/src/core/lv_obj_scroll.c **** 
 473:Middlewares/lvgl/src/core/lv_obj_scroll.c ****         lv_coord_t sb_h = ((obj_h - end_space * 2 - hor_req_space) * obj_h) / content_h;
 474:Middlewares/lvgl/src/core/lv_obj_scroll.c ****         sb_h = LV_MAX(sb_h, SCROLLBAR_MIN_SIZE);
 475:Middlewares/lvgl/src/core/lv_obj_scroll.c ****         rem = (obj_h - end_space * 2 - hor_req_space) - sb_h;  /*Remaining size from the scrollbar 
 476:Middlewares/lvgl/src/core/lv_obj_scroll.c ****         lv_coord_t scroll_h = content_h - obj_h; /*The size of the content which can be really scro
 477:Middlewares/lvgl/src/core/lv_obj_scroll.c ****         if(scroll_h <= 0) {
 478:Middlewares/lvgl/src/core/lv_obj_scroll.c ****            ver_area->y1 = obj->coords.y1 + end_space;
 479:Middlewares/lvgl/src/core/lv_obj_scroll.c ****            ver_area->y2 = obj->coords.y2 - end_space - hor_req_space - 1;
 480:Middlewares/lvgl/src/core/lv_obj_scroll.c ****            ver_area->x2 = obj->coords.x2 - side_space;
 481:Middlewares/lvgl/src/core/lv_obj_scroll.c ****            ver_area->x1 =ver_area->x2 - tickness + 1;
 482:Middlewares/lvgl/src/core/lv_obj_scroll.c ****         } else {
 483:Middlewares/lvgl/src/core/lv_obj_scroll.c ****             lv_coord_t sb_y = (rem * sb) / scroll_h;
 484:Middlewares/lvgl/src/core/lv_obj_scroll.c ****             sb_y = rem - sb_y;
 485:Middlewares/lvgl/src/core/lv_obj_scroll.c **** 
 486:Middlewares/lvgl/src/core/lv_obj_scroll.c ****            ver_area->y1 = obj->coords.y1 + sb_y + end_space;
ARM GAS  /tmp/ccSK5Jfi.s 			page 10


 487:Middlewares/lvgl/src/core/lv_obj_scroll.c ****            ver_area->y2 =ver_area->y1 + sb_h - 1;
 488:Middlewares/lvgl/src/core/lv_obj_scroll.c ****            ver_area->x2 = obj->coords.x2 - side_space;
 489:Middlewares/lvgl/src/core/lv_obj_scroll.c ****            ver_area->x1 =ver_area->x2 - tickness;
 490:Middlewares/lvgl/src/core/lv_obj_scroll.c ****             if(ver_area->y1 < obj->coords.y1 + end_space) {
 491:Middlewares/lvgl/src/core/lv_obj_scroll.c ****                ver_area->y1 = obj->coords.y1 + end_space;
 492:Middlewares/lvgl/src/core/lv_obj_scroll.c ****                 if(ver_area->y1 + SCROLLBAR_MIN_SIZE >ver_area->y2)ver_area->y2 =ver_area->y1 + SCR
 493:Middlewares/lvgl/src/core/lv_obj_scroll.c ****             }
 494:Middlewares/lvgl/src/core/lv_obj_scroll.c ****             if(ver_area->y2 > obj->coords.y2 - hor_req_space - end_space) {
 495:Middlewares/lvgl/src/core/lv_obj_scroll.c ****                ver_area->y2 = obj->coords.y2 - hor_req_space - end_space;
 496:Middlewares/lvgl/src/core/lv_obj_scroll.c ****                 if(ver_area->y2 - SCROLLBAR_MIN_SIZE <ver_area->y1)ver_area->y1 =ver_area->y2 - SCR
 497:Middlewares/lvgl/src/core/lv_obj_scroll.c ****             }
 498:Middlewares/lvgl/src/core/lv_obj_scroll.c ****         }
 499:Middlewares/lvgl/src/core/lv_obj_scroll.c ****     }
 500:Middlewares/lvgl/src/core/lv_obj_scroll.c **** 
 501:Middlewares/lvgl/src/core/lv_obj_scroll.c ****     /*Draw horizontal scrollbar if the mode is ON or can be scrolled in this direction*/
 502:Middlewares/lvgl/src/core/lv_obj_scroll.c ****     lv_coord_t content_w = obj_w + sl + sr;
 503:Middlewares/lvgl/src/core/lv_obj_scroll.c ****     if(hor_draw && content_w) {
 504:Middlewares/lvgl/src/core/lv_obj_scroll.c ****         hor_area->y2 = obj->coords.y2 - side_space;
 505:Middlewares/lvgl/src/core/lv_obj_scroll.c ****         hor_area->y1 = hor_area->y2 - tickness;
 506:Middlewares/lvgl/src/core/lv_obj_scroll.c ****         hor_area->x1 = obj->coords.x1;
 507:Middlewares/lvgl/src/core/lv_obj_scroll.c ****         hor_area->x2 = obj->coords.x2;
 508:Middlewares/lvgl/src/core/lv_obj_scroll.c **** 
 509:Middlewares/lvgl/src/core/lv_obj_scroll.c ****         lv_coord_t sb_w = ((obj_w - end_space * 2 - ver_reg_space) * obj_w) / content_w;
 510:Middlewares/lvgl/src/core/lv_obj_scroll.c ****         sb_w = LV_MAX(sb_w, SCROLLBAR_MIN_SIZE);
 511:Middlewares/lvgl/src/core/lv_obj_scroll.c ****         rem = (obj_w - end_space * 2 - ver_reg_space) - sb_w;  /*Remaining size from the scrollbar 
 512:Middlewares/lvgl/src/core/lv_obj_scroll.c ****         lv_coord_t scroll_w = content_w - obj_w; /*The size of the content which can be really scro
 513:Middlewares/lvgl/src/core/lv_obj_scroll.c ****         if(scroll_w <= 0) {
 514:Middlewares/lvgl/src/core/lv_obj_scroll.c ****             hor_area->y2 = obj->coords.y2 - side_space;
 515:Middlewares/lvgl/src/core/lv_obj_scroll.c ****             hor_area->y1 = hor_area->y2 - tickness + 1;
 516:Middlewares/lvgl/src/core/lv_obj_scroll.c ****             hor_area->x1 = obj->coords.x1 + end_space;
 517:Middlewares/lvgl/src/core/lv_obj_scroll.c ****             hor_area->x2 = obj->coords.x2 - end_space - ver_reg_space - 1;
 518:Middlewares/lvgl/src/core/lv_obj_scroll.c ****         } else {
 519:Middlewares/lvgl/src/core/lv_obj_scroll.c ****             lv_coord_t sb_x = (rem * sr) / scroll_w;
 520:Middlewares/lvgl/src/core/lv_obj_scroll.c ****             sb_x = rem - sb_x;
 521:Middlewares/lvgl/src/core/lv_obj_scroll.c **** 
 522:Middlewares/lvgl/src/core/lv_obj_scroll.c ****             hor_area->x1 = obj->coords.x1 + sb_x + end_space;
 523:Middlewares/lvgl/src/core/lv_obj_scroll.c ****             hor_area->x2 = hor_area->x1 + sb_w - 1;
 524:Middlewares/lvgl/src/core/lv_obj_scroll.c ****             hor_area->y2 = obj->coords.y2 - side_space;
 525:Middlewares/lvgl/src/core/lv_obj_scroll.c ****             hor_area->y1 = hor_area->y2 - tickness;
 526:Middlewares/lvgl/src/core/lv_obj_scroll.c ****             if(hor_area->x1 < obj->coords.x1 + end_space) {
 527:Middlewares/lvgl/src/core/lv_obj_scroll.c ****                 hor_area->x1 = obj->coords.x1 + end_space;
 528:Middlewares/lvgl/src/core/lv_obj_scroll.c ****                 if(hor_area->x1 + SCROLLBAR_MIN_SIZE > hor_area->x2) hor_area->x2 = hor_area->x1 + 
 529:Middlewares/lvgl/src/core/lv_obj_scroll.c ****             }
 530:Middlewares/lvgl/src/core/lv_obj_scroll.c ****             if(hor_area->x2 > obj->coords.x2 - ver_reg_space - end_space) {
 531:Middlewares/lvgl/src/core/lv_obj_scroll.c ****                 hor_area->x2 = obj->coords.x2 - ver_reg_space - end_space;
 532:Middlewares/lvgl/src/core/lv_obj_scroll.c ****                 if(hor_area->x2 - SCROLLBAR_MIN_SIZE < hor_area->x1) hor_area->x1 = hor_area->x2 - 
 533:Middlewares/lvgl/src/core/lv_obj_scroll.c ****             }
 534:Middlewares/lvgl/src/core/lv_obj_scroll.c ****         }
 535:Middlewares/lvgl/src/core/lv_obj_scroll.c ****     }
 536:Middlewares/lvgl/src/core/lv_obj_scroll.c **** }
 537:Middlewares/lvgl/src/core/lv_obj_scroll.c **** 
 538:Middlewares/lvgl/src/core/lv_obj_scroll.c **** void lv_obj_scrollbar_invalidate(lv_obj_t * obj)
 539:Middlewares/lvgl/src/core/lv_obj_scroll.c **** {
 540:Middlewares/lvgl/src/core/lv_obj_scroll.c ****     lv_area_t hor_area;
 541:Middlewares/lvgl/src/core/lv_obj_scroll.c ****     lv_area_t ver_area;
 542:Middlewares/lvgl/src/core/lv_obj_scroll.c ****     lv_obj_get_scrollbar_area(obj, &hor_area, &ver_area);
 543:Middlewares/lvgl/src/core/lv_obj_scroll.c **** 
ARM GAS  /tmp/ccSK5Jfi.s 			page 11


 544:Middlewares/lvgl/src/core/lv_obj_scroll.c ****     if(lv_area_get_size(&hor_area) <= 0 && lv_area_get_size(&ver_area) <= 0) return;
 545:Middlewares/lvgl/src/core/lv_obj_scroll.c **** 
 546:Middlewares/lvgl/src/core/lv_obj_scroll.c ****     if(lv_area_get_size(&hor_area) > 0) lv_obj_invalidate_area(obj, &hor_area);
 547:Middlewares/lvgl/src/core/lv_obj_scroll.c ****     if(lv_area_get_size(&ver_area) > 0) lv_obj_invalidate_area(obj, &ver_area);
 548:Middlewares/lvgl/src/core/lv_obj_scroll.c **** }
 549:Middlewares/lvgl/src/core/lv_obj_scroll.c **** 
 550:Middlewares/lvgl/src/core/lv_obj_scroll.c **** void lv_obj_readjust_scroll(lv_obj_t * obj, lv_anim_enable_t anim_en)
 551:Middlewares/lvgl/src/core/lv_obj_scroll.c **** {
 552:Middlewares/lvgl/src/core/lv_obj_scroll.c ****     /*Be sure the bottom side is not remains scrolled in*/
 553:Middlewares/lvgl/src/core/lv_obj_scroll.c ****     /*With snapping the content can't be scrolled in*/
 554:Middlewares/lvgl/src/core/lv_obj_scroll.c ****     if(lv_obj_get_scroll_snap_y(obj) == LV_SCROLL_SNAP_NONE) {
 555:Middlewares/lvgl/src/core/lv_obj_scroll.c ****         lv_coord_t st = lv_obj_get_scroll_top(obj);
 556:Middlewares/lvgl/src/core/lv_obj_scroll.c ****         lv_coord_t sb = lv_obj_get_scroll_bottom(obj);
 557:Middlewares/lvgl/src/core/lv_obj_scroll.c ****         if(sb < 0 && st > 0) {
 558:Middlewares/lvgl/src/core/lv_obj_scroll.c ****             sb = LV_MIN(st, -sb);
 559:Middlewares/lvgl/src/core/lv_obj_scroll.c ****             lv_obj_scroll_by(obj, 0, sb, anim_en);
 560:Middlewares/lvgl/src/core/lv_obj_scroll.c ****         }
 561:Middlewares/lvgl/src/core/lv_obj_scroll.c ****     }
 562:Middlewares/lvgl/src/core/lv_obj_scroll.c **** 
 563:Middlewares/lvgl/src/core/lv_obj_scroll.c ****     if(lv_obj_get_scroll_snap_x(obj) == LV_SCROLL_SNAP_NONE) {
 564:Middlewares/lvgl/src/core/lv_obj_scroll.c ****         lv_coord_t sl = lv_obj_get_scroll_left(obj);
 565:Middlewares/lvgl/src/core/lv_obj_scroll.c ****         lv_coord_t sr = lv_obj_get_scroll_right(obj);
 566:Middlewares/lvgl/src/core/lv_obj_scroll.c ****         if(lv_obj_get_style_base_dir(obj, LV_PART_MAIN) != LV_BASE_DIR_RTL) {
 567:Middlewares/lvgl/src/core/lv_obj_scroll.c ****             /*Be sure the left side is not remains scrolled in*/
 568:Middlewares/lvgl/src/core/lv_obj_scroll.c ****             if(sr < 0 && sl > 0) {
 569:Middlewares/lvgl/src/core/lv_obj_scroll.c ****                 sr = LV_MIN(sl, -sr);
 570:Middlewares/lvgl/src/core/lv_obj_scroll.c ****                 lv_obj_scroll_by(obj, sr, 0, anim_en);
 571:Middlewares/lvgl/src/core/lv_obj_scroll.c ****             }
 572:Middlewares/lvgl/src/core/lv_obj_scroll.c ****         } else {
 573:Middlewares/lvgl/src/core/lv_obj_scroll.c ****             /*Be sure the right side is not remains scrolled in*/
 574:Middlewares/lvgl/src/core/lv_obj_scroll.c ****             if(sl < 0 && sr > 0) {
 575:Middlewares/lvgl/src/core/lv_obj_scroll.c ****                 sr = LV_MIN(sr, -sl);
 576:Middlewares/lvgl/src/core/lv_obj_scroll.c ****                 lv_obj_scroll_by(obj, sl, 0, anim_en);
 577:Middlewares/lvgl/src/core/lv_obj_scroll.c ****             }
 578:Middlewares/lvgl/src/core/lv_obj_scroll.c ****         }
 579:Middlewares/lvgl/src/core/lv_obj_scroll.c ****     }
 580:Middlewares/lvgl/src/core/lv_obj_scroll.c **** }
 581:Middlewares/lvgl/src/core/lv_obj_scroll.c **** 
 582:Middlewares/lvgl/src/core/lv_obj_scroll.c **** /**********************
 583:Middlewares/lvgl/src/core/lv_obj_scroll.c ****  *   STATIC FUNCTIONS
 584:Middlewares/lvgl/src/core/lv_obj_scroll.c ****  **********************/
 585:Middlewares/lvgl/src/core/lv_obj_scroll.c **** 
 586:Middlewares/lvgl/src/core/lv_obj_scroll.c **** static void scroll_by_raw(lv_obj_t * obj, lv_coord_t x, lv_coord_t y)
 587:Middlewares/lvgl/src/core/lv_obj_scroll.c **** {
  29              		.loc 1 587 1 view -0
  30              		.cfi_startproc
  31              		@ args = 0, pretend = 0, frame = 0
  32              		@ frame_needed = 0, uses_anonymous_args = 0
  33              		.loc 1 587 1 is_stmt 0 view .LVU1
  34 0000 70B5     		push	{r4, r5, r6, lr}
  35              	.LCFI0:
  36              		.cfi_def_cfa_offset 16
  37              		.cfi_offset 4, -16
  38              		.cfi_offset 5, -12
  39              		.cfi_offset 6, -8
  40              		.cfi_offset 14, -4
  41 0002 0446     		mov	r4, r0
ARM GAS  /tmp/ccSK5Jfi.s 			page 12


  42 0004 1546     		mov	r5, r2
 588:Middlewares/lvgl/src/core/lv_obj_scroll.c ****     if(x == 0 && y == 0) return;
  43              		.loc 1 588 5 is_stmt 1 view .LVU2
  44              		.loc 1 588 7 is_stmt 0 view .LVU3
  45 0006 0E46     		mov	r6, r1
  46 0008 01B9     		cbnz	r1, .L2
  47              		.loc 1 588 15 discriminator 1 view .LVU4
  48 000a BAB1     		cbz	r2, .L1
  49              	.L2:
 589:Middlewares/lvgl/src/core/lv_obj_scroll.c **** 
 590:Middlewares/lvgl/src/core/lv_obj_scroll.c ****     lv_obj_allocate_spec_attr(obj);
  50              		.loc 1 590 5 is_stmt 1 view .LVU5
  51 000c 2046     		mov	r0, r4
  52              	.LVL1:
  53              		.loc 1 590 5 is_stmt 0 view .LVU6
  54 000e FFF7FEFF 		bl	lv_obj_allocate_spec_attr
  55              	.LVL2:
 591:Middlewares/lvgl/src/core/lv_obj_scroll.c **** 
 592:Middlewares/lvgl/src/core/lv_obj_scroll.c ****     obj->spec_attr->scroll.x += x;
  56              		.loc 1 592 5 is_stmt 1 view .LVU7
  57              		.loc 1 592 8 is_stmt 0 view .LVU8
  58 0012 A268     		ldr	r2, [r4, #8]
  59              		.loc 1 592 30 view .LVU9
  60 0014 138A     		ldrh	r3, [r2, #16]
  61 0016 3344     		add	r3, r3, r6
  62 0018 1382     		strh	r3, [r2, #16]	@ movhi
 593:Middlewares/lvgl/src/core/lv_obj_scroll.c ****     obj->spec_attr->scroll.y += y;
  63              		.loc 1 593 5 is_stmt 1 view .LVU10
  64              		.loc 1 593 8 is_stmt 0 view .LVU11
  65 001a A268     		ldr	r2, [r4, #8]
  66              		.loc 1 593 30 view .LVU12
  67 001c 538A     		ldrh	r3, [r2, #18]
  68 001e 2B44     		add	r3, r3, r5
  69 0020 5382     		strh	r3, [r2, #18]	@ movhi
 594:Middlewares/lvgl/src/core/lv_obj_scroll.c **** 
 595:Middlewares/lvgl/src/core/lv_obj_scroll.c ****     lv_obj_move_children_by(obj, x, y, true);
  70              		.loc 1 595 5 is_stmt 1 view .LVU13
  71 0022 0123     		movs	r3, #1
  72 0024 2A46     		mov	r2, r5
  73 0026 3146     		mov	r1, r6
  74 0028 2046     		mov	r0, r4
  75 002a FFF7FEFF 		bl	lv_obj_move_children_by
  76              	.LVL3:
 596:Middlewares/lvgl/src/core/lv_obj_scroll.c ****     lv_res_t res = lv_event_send(obj, LV_EVENT_SCROLL, NULL);
  77              		.loc 1 596 5 view .LVU14
  78              		.loc 1 596 20 is_stmt 0 view .LVU15
  79 002e 0022     		movs	r2, #0
  80 0030 0B21     		movs	r1, #11
  81 0032 2046     		mov	r0, r4
  82 0034 FFF7FEFF 		bl	lv_event_send
  83              	.LVL4:
 597:Middlewares/lvgl/src/core/lv_obj_scroll.c ****     if(res != LV_RES_OK) return;
  84              		.loc 1 597 5 is_stmt 1 view .LVU16
  85              		.loc 1 597 7 is_stmt 0 view .LVU17
  86 0038 0128     		cmp	r0, #1
  87 003a 00D0     		beq	.L5
  88              	.LVL5:
ARM GAS  /tmp/ccSK5Jfi.s 			page 13


  89              	.L1:
 598:Middlewares/lvgl/src/core/lv_obj_scroll.c ****     lv_obj_invalidate(obj);
 599:Middlewares/lvgl/src/core/lv_obj_scroll.c **** }
  90              		.loc 1 599 1 view .LVU18
  91 003c 70BD     		pop	{r4, r5, r6, pc}
  92              	.LVL6:
  93              	.L5:
 598:Middlewares/lvgl/src/core/lv_obj_scroll.c ****     lv_obj_invalidate(obj);
  94              		.loc 1 598 5 is_stmt 1 view .LVU19
  95 003e 2046     		mov	r0, r4
  96              	.LVL7:
 598:Middlewares/lvgl/src/core/lv_obj_scroll.c ****     lv_obj_invalidate(obj);
  97              		.loc 1 598 5 is_stmt 0 view .LVU20
  98 0040 FFF7FEFF 		bl	lv_obj_invalidate
  99              	.LVL8:
 100 0044 FAE7     		b	.L1
 101              		.cfi_endproc
 102              	.LFE179:
 104              		.section	.text.scroll_anim_ready_cb,"ax",%progbits
 105              		.align	1
 106              		.syntax unified
 107              		.thumb
 108              		.thumb_func
 109              		.fpu fpv4-sp-d16
 111              	scroll_anim_ready_cb:
 112              	.LVL9:
 113              	.LFB182:
 600:Middlewares/lvgl/src/core/lv_obj_scroll.c **** 
 601:Middlewares/lvgl/src/core/lv_obj_scroll.c **** static void scroll_x_anim(void * obj, int32_t v)
 602:Middlewares/lvgl/src/core/lv_obj_scroll.c **** {
 603:Middlewares/lvgl/src/core/lv_obj_scroll.c ****     scroll_by_raw(obj, v + lv_obj_get_scroll_x(obj), 0);
 604:Middlewares/lvgl/src/core/lv_obj_scroll.c **** }
 605:Middlewares/lvgl/src/core/lv_obj_scroll.c **** 
 606:Middlewares/lvgl/src/core/lv_obj_scroll.c **** static void scroll_y_anim(void * obj, int32_t v)
 607:Middlewares/lvgl/src/core/lv_obj_scroll.c **** {
 608:Middlewares/lvgl/src/core/lv_obj_scroll.c ****     scroll_by_raw(obj, 0, v + lv_obj_get_scroll_y(obj));
 609:Middlewares/lvgl/src/core/lv_obj_scroll.c **** }
 610:Middlewares/lvgl/src/core/lv_obj_scroll.c **** 
 611:Middlewares/lvgl/src/core/lv_obj_scroll.c **** static void scroll_anim_ready_cb(lv_anim_t * a)
 612:Middlewares/lvgl/src/core/lv_obj_scroll.c **** {
 114              		.loc 1 612 1 is_stmt 1 view -0
 115              		.cfi_startproc
 116              		@ args = 0, pretend = 0, frame = 0
 117              		@ frame_needed = 0, uses_anonymous_args = 0
 118              		.loc 1 612 1 is_stmt 0 view .LVU22
 119 0000 08B5     		push	{r3, lr}
 120              	.LCFI1:
 121              		.cfi_def_cfa_offset 8
 122              		.cfi_offset 3, -8
 123              		.cfi_offset 14, -4
 613:Middlewares/lvgl/src/core/lv_obj_scroll.c ****     lv_event_send(a->var, LV_EVENT_SCROLL_END, NULL);
 124              		.loc 1 613 5 is_stmt 1 view .LVU23
 125 0002 0022     		movs	r2, #0
 126 0004 0A21     		movs	r1, #10
 127 0006 0068     		ldr	r0, [r0]
 128              	.LVL10:
 129              		.loc 1 613 5 is_stmt 0 view .LVU24
ARM GAS  /tmp/ccSK5Jfi.s 			page 14


 130 0008 FFF7FEFF 		bl	lv_event_send
 131              	.LVL11:
 614:Middlewares/lvgl/src/core/lv_obj_scroll.c **** }
 132              		.loc 1 614 1 view .LVU25
 133 000c 08BD     		pop	{r3, pc}
 134              		.cfi_endproc
 135              	.LFE182:
 137              		.section	.text.lv_obj_set_scrollbar_mode,"ax",%progbits
 138              		.align	1
 139              		.global	lv_obj_set_scrollbar_mode
 140              		.syntax unified
 141              		.thumb
 142              		.thumb_func
 143              		.fpu fpv4-sp-d16
 145              	lv_obj_set_scrollbar_mode:
 146              	.LVL12:
 147              	.LFB153:
  57:Middlewares/lvgl/src/core/lv_obj_scroll.c ****     LV_ASSERT_OBJ(obj, MY_CLASS);
 148              		.loc 1 57 1 is_stmt 1 view -0
 149              		.cfi_startproc
 150              		@ args = 0, pretend = 0, frame = 0
 151              		@ frame_needed = 0, uses_anonymous_args = 0
  57:Middlewares/lvgl/src/core/lv_obj_scroll.c ****     LV_ASSERT_OBJ(obj, MY_CLASS);
 152              		.loc 1 57 1 is_stmt 0 view .LVU27
 153 0000 38B5     		push	{r3, r4, r5, lr}
 154              	.LCFI2:
 155              		.cfi_def_cfa_offset 16
 156              		.cfi_offset 3, -16
 157              		.cfi_offset 4, -12
 158              		.cfi_offset 5, -8
 159              		.cfi_offset 14, -4
 160 0002 0446     		mov	r4, r0
 161 0004 0D46     		mov	r5, r1
  58:Middlewares/lvgl/src/core/lv_obj_scroll.c **** 
 162              		.loc 1 58 5 is_stmt 1 view .LVU28
  58:Middlewares/lvgl/src/core/lv_obj_scroll.c **** 
 163              		.loc 1 58 5 view .LVU29
  58:Middlewares/lvgl/src/core/lv_obj_scroll.c **** 
 164              		.loc 1 58 5 view .LVU30
  60:Middlewares/lvgl/src/core/lv_obj_scroll.c **** 
 165              		.loc 1 60 5 view .LVU31
 166 0006 FFF7FEFF 		bl	lv_obj_allocate_spec_attr
 167              	.LVL13:
  62:Middlewares/lvgl/src/core/lv_obj_scroll.c ****     obj->spec_attr->scrollbar_mode = mode;
 168              		.loc 1 62 5 view .LVU32
  62:Middlewares/lvgl/src/core/lv_obj_scroll.c ****     obj->spec_attr->scrollbar_mode = mode;
 169              		.loc 1 62 11 is_stmt 0 view .LVU33
 170 000a A268     		ldr	r2, [r4, #8]
  62:Middlewares/lvgl/src/core/lv_obj_scroll.c ****     obj->spec_attr->scrollbar_mode = mode;
 171              		.loc 1 62 22 view .LVU34
 172 000c 137E     		ldrb	r3, [r2, #24]	@ zero_extendqisi2
 173 000e 03F00303 		and	r3, r3, #3
  62:Middlewares/lvgl/src/core/lv_obj_scroll.c ****     obj->spec_attr->scrollbar_mode = mode;
 174              		.loc 1 62 7 view .LVU35
 175 0012 AB42     		cmp	r3, r5
 176 0014 06D0     		beq	.L8
  63:Middlewares/lvgl/src/core/lv_obj_scroll.c ****     lv_obj_invalidate(obj);
ARM GAS  /tmp/ccSK5Jfi.s 			page 15


 177              		.loc 1 63 5 is_stmt 1 view .LVU36
  63:Middlewares/lvgl/src/core/lv_obj_scroll.c ****     lv_obj_invalidate(obj);
 178              		.loc 1 63 36 is_stmt 0 view .LVU37
 179 0016 137E     		ldrb	r3, [r2, #24]	@ zero_extendqisi2
 180 0018 65F30103 		bfi	r3, r5, #0, #2
 181 001c 1376     		strb	r3, [r2, #24]
  64:Middlewares/lvgl/src/core/lv_obj_scroll.c **** }
 182              		.loc 1 64 5 is_stmt 1 view .LVU38
 183 001e 2046     		mov	r0, r4
 184 0020 FFF7FEFF 		bl	lv_obj_invalidate
 185              	.LVL14:
 186              	.L8:
  65:Middlewares/lvgl/src/core/lv_obj_scroll.c **** 
 187              		.loc 1 65 1 is_stmt 0 view .LVU39
 188 0024 38BD     		pop	{r3, r4, r5, pc}
  65:Middlewares/lvgl/src/core/lv_obj_scroll.c **** 
 189              		.loc 1 65 1 view .LVU40
 190              		.cfi_endproc
 191              	.LFE153:
 193              		.section	.text.lv_obj_set_scroll_dir,"ax",%progbits
 194              		.align	1
 195              		.global	lv_obj_set_scroll_dir
 196              		.syntax unified
 197              		.thumb
 198              		.thumb_func
 199              		.fpu fpv4-sp-d16
 201              	lv_obj_set_scroll_dir:
 202              	.LVL15:
 203              	.LFB154:
  68:Middlewares/lvgl/src/core/lv_obj_scroll.c ****     lv_obj_allocate_spec_attr(obj);
 204              		.loc 1 68 1 is_stmt 1 view -0
 205              		.cfi_startproc
 206              		@ args = 0, pretend = 0, frame = 0
 207              		@ frame_needed = 0, uses_anonymous_args = 0
  68:Middlewares/lvgl/src/core/lv_obj_scroll.c ****     lv_obj_allocate_spec_attr(obj);
 208              		.loc 1 68 1 is_stmt 0 view .LVU42
 209 0000 38B5     		push	{r3, r4, r5, lr}
 210              	.LCFI3:
 211              		.cfi_def_cfa_offset 16
 212              		.cfi_offset 3, -16
 213              		.cfi_offset 4, -12
 214              		.cfi_offset 5, -8
 215              		.cfi_offset 14, -4
 216 0002 0546     		mov	r5, r0
 217 0004 0C46     		mov	r4, r1
  69:Middlewares/lvgl/src/core/lv_obj_scroll.c **** 
 218              		.loc 1 69 5 is_stmt 1 view .LVU43
 219 0006 FFF7FEFF 		bl	lv_obj_allocate_spec_attr
 220              	.LVL16:
  71:Middlewares/lvgl/src/core/lv_obj_scroll.c ****         obj->spec_attr->scroll_dir = dir;
 221              		.loc 1 71 5 view .LVU44
  71:Middlewares/lvgl/src/core/lv_obj_scroll.c ****         obj->spec_attr->scroll_dir = dir;
 222              		.loc 1 71 18 is_stmt 0 view .LVU45
 223 000a AA68     		ldr	r2, [r5, #8]
  71:Middlewares/lvgl/src/core/lv_obj_scroll.c ****         obj->spec_attr->scroll_dir = dir;
 224              		.loc 1 71 29 view .LVU46
 225 000c 537E     		ldrb	r3, [r2, #25]	@ zero_extendqisi2
ARM GAS  /tmp/ccSK5Jfi.s 			page 16


 226 000e 03F00F03 		and	r3, r3, #15
  71:Middlewares/lvgl/src/core/lv_obj_scroll.c ****         obj->spec_attr->scroll_dir = dir;
 227              		.loc 1 71 7 view .LVU47
 228 0012 A342     		cmp	r3, r4
 229 0014 03D0     		beq	.L11
  72:Middlewares/lvgl/src/core/lv_obj_scroll.c ****     }
 230              		.loc 1 72 9 is_stmt 1 view .LVU48
  72:Middlewares/lvgl/src/core/lv_obj_scroll.c ****     }
 231              		.loc 1 72 36 is_stmt 0 view .LVU49
 232 0016 537E     		ldrb	r3, [r2, #25]	@ zero_extendqisi2
 233 0018 64F30303 		bfi	r3, r4, #0, #4
 234              	.LVL17:
  72:Middlewares/lvgl/src/core/lv_obj_scroll.c ****     }
 235              		.loc 1 72 36 view .LVU50
 236 001c 5376     		strb	r3, [r2, #25]
 237              	.L11:
  74:Middlewares/lvgl/src/core/lv_obj_scroll.c **** 
 238              		.loc 1 74 1 view .LVU51
 239 001e 38BD     		pop	{r3, r4, r5, pc}
  74:Middlewares/lvgl/src/core/lv_obj_scroll.c **** 
 240              		.loc 1 74 1 view .LVU52
 241              		.cfi_endproc
 242              	.LFE154:
 244              		.section	.text.lv_obj_set_scroll_snap_x,"ax",%progbits
 245              		.align	1
 246              		.global	lv_obj_set_scroll_snap_x
 247              		.syntax unified
 248              		.thumb
 249              		.thumb_func
 250              		.fpu fpv4-sp-d16
 252              	lv_obj_set_scroll_snap_x:
 253              	.LVL18:
 254              	.LFB155:
  77:Middlewares/lvgl/src/core/lv_obj_scroll.c ****     lv_obj_allocate_spec_attr(obj);
 255              		.loc 1 77 1 is_stmt 1 view -0
 256              		.cfi_startproc
 257              		@ args = 0, pretend = 0, frame = 0
 258              		@ frame_needed = 0, uses_anonymous_args = 0
  77:Middlewares/lvgl/src/core/lv_obj_scroll.c ****     lv_obj_allocate_spec_attr(obj);
 259              		.loc 1 77 1 is_stmt 0 view .LVU54
 260 0000 38B5     		push	{r3, r4, r5, lr}
 261              	.LCFI4:
 262              		.cfi_def_cfa_offset 16
 263              		.cfi_offset 3, -16
 264              		.cfi_offset 4, -12
 265              		.cfi_offset 5, -8
 266              		.cfi_offset 14, -4
 267 0002 0546     		mov	r5, r0
 268 0004 0C46     		mov	r4, r1
  78:Middlewares/lvgl/src/core/lv_obj_scroll.c ****     obj->spec_attr->scroll_snap_x = align;
 269              		.loc 1 78 5 is_stmt 1 view .LVU55
 270 0006 FFF7FEFF 		bl	lv_obj_allocate_spec_attr
 271              	.LVL19:
  79:Middlewares/lvgl/src/core/lv_obj_scroll.c **** }
 272              		.loc 1 79 5 view .LVU56
  79:Middlewares/lvgl/src/core/lv_obj_scroll.c **** }
 273              		.loc 1 79 8 is_stmt 0 view .LVU57
ARM GAS  /tmp/ccSK5Jfi.s 			page 17


 274 000a AB68     		ldr	r3, [r5, #8]
  79:Middlewares/lvgl/src/core/lv_obj_scroll.c **** }
 275              		.loc 1 79 35 view .LVU58
 276 000c 1A7E     		ldrb	r2, [r3, #24]	@ zero_extendqisi2
 277 000e 64F38302 		bfi	r2, r4, #2, #2
 278 0012 1A76     		strb	r2, [r3, #24]
  80:Middlewares/lvgl/src/core/lv_obj_scroll.c **** 
 279              		.loc 1 80 1 view .LVU59
 280 0014 38BD     		pop	{r3, r4, r5, pc}
  80:Middlewares/lvgl/src/core/lv_obj_scroll.c **** 
 281              		.loc 1 80 1 view .LVU60
 282              		.cfi_endproc
 283              	.LFE155:
 285              		.section	.text.lv_obj_set_scroll_snap_y,"ax",%progbits
 286              		.align	1
 287              		.global	lv_obj_set_scroll_snap_y
 288              		.syntax unified
 289              		.thumb
 290              		.thumb_func
 291              		.fpu fpv4-sp-d16
 293              	lv_obj_set_scroll_snap_y:
 294              	.LVL20:
 295              	.LFB156:
  83:Middlewares/lvgl/src/core/lv_obj_scroll.c ****     lv_obj_allocate_spec_attr(obj);
 296              		.loc 1 83 1 is_stmt 1 view -0
 297              		.cfi_startproc
 298              		@ args = 0, pretend = 0, frame = 0
 299              		@ frame_needed = 0, uses_anonymous_args = 0
  83:Middlewares/lvgl/src/core/lv_obj_scroll.c ****     lv_obj_allocate_spec_attr(obj);
 300              		.loc 1 83 1 is_stmt 0 view .LVU62
 301 0000 38B5     		push	{r3, r4, r5, lr}
 302              	.LCFI5:
 303              		.cfi_def_cfa_offset 16
 304              		.cfi_offset 3, -16
 305              		.cfi_offset 4, -12
 306              		.cfi_offset 5, -8
 307              		.cfi_offset 14, -4
 308 0002 0546     		mov	r5, r0
 309 0004 0C46     		mov	r4, r1
  84:Middlewares/lvgl/src/core/lv_obj_scroll.c ****     obj->spec_attr->scroll_snap_y = align;
 310              		.loc 1 84 5 is_stmt 1 view .LVU63
 311 0006 FFF7FEFF 		bl	lv_obj_allocate_spec_attr
 312              	.LVL21:
  85:Middlewares/lvgl/src/core/lv_obj_scroll.c **** }
 313              		.loc 1 85 5 view .LVU64
  85:Middlewares/lvgl/src/core/lv_obj_scroll.c **** }
 314              		.loc 1 85 8 is_stmt 0 view .LVU65
 315 000a AB68     		ldr	r3, [r5, #8]
  85:Middlewares/lvgl/src/core/lv_obj_scroll.c **** }
 316              		.loc 1 85 35 view .LVU66
 317 000c 1A7E     		ldrb	r2, [r3, #24]	@ zero_extendqisi2
 318 000e 64F30512 		bfi	r2, r4, #4, #2
 319 0012 1A76     		strb	r2, [r3, #24]
  86:Middlewares/lvgl/src/core/lv_obj_scroll.c **** 
 320              		.loc 1 86 1 view .LVU67
 321 0014 38BD     		pop	{r3, r4, r5, pc}
  86:Middlewares/lvgl/src/core/lv_obj_scroll.c **** 
ARM GAS  /tmp/ccSK5Jfi.s 			page 18


 322              		.loc 1 86 1 view .LVU68
 323              		.cfi_endproc
 324              	.LFE156:
 326              		.section	.text.lv_obj_get_scrollbar_mode,"ax",%progbits
 327              		.align	1
 328              		.global	lv_obj_get_scrollbar_mode
 329              		.syntax unified
 330              		.thumb
 331              		.thumb_func
 332              		.fpu fpv4-sp-d16
 334              	lv_obj_get_scrollbar_mode:
 335              	.LVL22:
 336              	.LFB157:
  93:Middlewares/lvgl/src/core/lv_obj_scroll.c ****     if(obj->spec_attr) return obj->spec_attr->scrollbar_mode;
 337              		.loc 1 93 1 is_stmt 1 view -0
 338              		.cfi_startproc
 339              		@ args = 0, pretend = 0, frame = 0
 340              		@ frame_needed = 0, uses_anonymous_args = 0
 341              		@ link register save eliminated.
  94:Middlewares/lvgl/src/core/lv_obj_scroll.c ****     else return LV_SCROLLBAR_MODE_AUTO;
 342              		.loc 1 94 5 view .LVU70
  94:Middlewares/lvgl/src/core/lv_obj_scroll.c ****     else return LV_SCROLLBAR_MODE_AUTO;
 343              		.loc 1 94 11 is_stmt 0 view .LVU71
 344 0000 8368     		ldr	r3, [r0, #8]
  94:Middlewares/lvgl/src/core/lv_obj_scroll.c ****     else return LV_SCROLLBAR_MODE_AUTO;
 345              		.loc 1 94 7 view .LVU72
 346 0002 1BB1     		cbz	r3, .L20
  94:Middlewares/lvgl/src/core/lv_obj_scroll.c ****     else return LV_SCROLLBAR_MODE_AUTO;
 347              		.loc 1 94 24 is_stmt 1 discriminator 1 view .LVU73
  94:Middlewares/lvgl/src/core/lv_obj_scroll.c ****     else return LV_SCROLLBAR_MODE_AUTO;
 348              		.loc 1 94 45 is_stmt 0 discriminator 1 view .LVU74
 349 0004 187E     		ldrb	r0, [r3, #24]	@ zero_extendqisi2
 350              	.LVL23:
  94:Middlewares/lvgl/src/core/lv_obj_scroll.c ****     else return LV_SCROLLBAR_MODE_AUTO;
 351              		.loc 1 94 45 discriminator 1 view .LVU75
 352 0006 00F00300 		and	r0, r0, #3
 353 000a 7047     		bx	lr
 354              	.LVL24:
 355              	.L20:
  95:Middlewares/lvgl/src/core/lv_obj_scroll.c **** }
 356              		.loc 1 95 17 view .LVU76
 357 000c 0320     		movs	r0, #3
 358              	.LVL25:
  96:Middlewares/lvgl/src/core/lv_obj_scroll.c **** 
 359              		.loc 1 96 1 view .LVU77
 360 000e 7047     		bx	lr
 361              		.cfi_endproc
 362              	.LFE157:
 364              		.section	.text.lv_obj_get_scroll_dir,"ax",%progbits
 365              		.align	1
 366              		.global	lv_obj_get_scroll_dir
 367              		.syntax unified
 368              		.thumb
 369              		.thumb_func
 370              		.fpu fpv4-sp-d16
 372              	lv_obj_get_scroll_dir:
 373              	.LVL26:
ARM GAS  /tmp/ccSK5Jfi.s 			page 19


 374              	.LFB158:
  99:Middlewares/lvgl/src/core/lv_obj_scroll.c ****     if(obj->spec_attr) return obj->spec_attr->scroll_dir;
 375              		.loc 1 99 1 is_stmt 1 view -0
 376              		.cfi_startproc
 377              		@ args = 0, pretend = 0, frame = 0
 378              		@ frame_needed = 0, uses_anonymous_args = 0
 379              		@ link register save eliminated.
 100:Middlewares/lvgl/src/core/lv_obj_scroll.c ****     else return LV_DIR_ALL;
 380              		.loc 1 100 5 view .LVU79
 100:Middlewares/lvgl/src/core/lv_obj_scroll.c ****     else return LV_DIR_ALL;
 381              		.loc 1 100 11 is_stmt 0 view .LVU80
 382 0000 8368     		ldr	r3, [r0, #8]
 100:Middlewares/lvgl/src/core/lv_obj_scroll.c ****     else return LV_DIR_ALL;
 383              		.loc 1 100 7 view .LVU81
 384 0002 1BB1     		cbz	r3, .L23
 100:Middlewares/lvgl/src/core/lv_obj_scroll.c ****     else return LV_DIR_ALL;
 385              		.loc 1 100 24 is_stmt 1 discriminator 1 view .LVU82
 100:Middlewares/lvgl/src/core/lv_obj_scroll.c ****     else return LV_DIR_ALL;
 386              		.loc 1 100 45 is_stmt 0 discriminator 1 view .LVU83
 387 0004 587E     		ldrb	r0, [r3, #25]	@ zero_extendqisi2
 388              	.LVL27:
 100:Middlewares/lvgl/src/core/lv_obj_scroll.c ****     else return LV_DIR_ALL;
 389              		.loc 1 100 45 discriminator 1 view .LVU84
 390 0006 00F00F00 		and	r0, r0, #15
 391 000a 7047     		bx	lr
 392              	.LVL28:
 393              	.L23:
 101:Middlewares/lvgl/src/core/lv_obj_scroll.c **** }
 394              		.loc 1 101 17 view .LVU85
 395 000c 0F20     		movs	r0, #15
 396              	.LVL29:
 102:Middlewares/lvgl/src/core/lv_obj_scroll.c **** 
 397              		.loc 1 102 1 view .LVU86
 398 000e 7047     		bx	lr
 399              		.cfi_endproc
 400              	.LFE158:
 402              		.section	.text.lv_obj_get_scroll_snap_x,"ax",%progbits
 403              		.align	1
 404              		.global	lv_obj_get_scroll_snap_x
 405              		.syntax unified
 406              		.thumb
 407              		.thumb_func
 408              		.fpu fpv4-sp-d16
 410              	lv_obj_get_scroll_snap_x:
 411              	.LVL30:
 412              	.LFB159:
 105:Middlewares/lvgl/src/core/lv_obj_scroll.c ****     if(obj->spec_attr) return obj->spec_attr->scroll_snap_x;
 413              		.loc 1 105 1 is_stmt 1 view -0
 414              		.cfi_startproc
 415              		@ args = 0, pretend = 0, frame = 0
 416              		@ frame_needed = 0, uses_anonymous_args = 0
 417              		@ link register save eliminated.
 106:Middlewares/lvgl/src/core/lv_obj_scroll.c ****     else return LV_SCROLL_SNAP_NONE;
 418              		.loc 1 106 5 view .LVU88
 106:Middlewares/lvgl/src/core/lv_obj_scroll.c ****     else return LV_SCROLL_SNAP_NONE;
 419              		.loc 1 106 11 is_stmt 0 view .LVU89
 420 0000 8368     		ldr	r3, [r0, #8]
ARM GAS  /tmp/ccSK5Jfi.s 			page 20


 106:Middlewares/lvgl/src/core/lv_obj_scroll.c ****     else return LV_SCROLL_SNAP_NONE;
 421              		.loc 1 106 7 view .LVU90
 422 0002 1BB1     		cbz	r3, .L26
 106:Middlewares/lvgl/src/core/lv_obj_scroll.c ****     else return LV_SCROLL_SNAP_NONE;
 423              		.loc 1 106 24 is_stmt 1 discriminator 1 view .LVU91
 106:Middlewares/lvgl/src/core/lv_obj_scroll.c ****     else return LV_SCROLL_SNAP_NONE;
 424              		.loc 1 106 45 is_stmt 0 discriminator 1 view .LVU92
 425 0004 187E     		ldrb	r0, [r3, #24]	@ zero_extendqisi2
 426              	.LVL31:
 106:Middlewares/lvgl/src/core/lv_obj_scroll.c ****     else return LV_SCROLL_SNAP_NONE;
 427              		.loc 1 106 45 discriminator 1 view .LVU93
 428 0006 C0F38100 		ubfx	r0, r0, #2, #2
 429 000a 7047     		bx	lr
 430              	.LVL32:
 431              	.L26:
 107:Middlewares/lvgl/src/core/lv_obj_scroll.c **** }
 432              		.loc 1 107 17 view .LVU94
 433 000c 0020     		movs	r0, #0
 434              	.LVL33:
 108:Middlewares/lvgl/src/core/lv_obj_scroll.c **** 
 435              		.loc 1 108 1 view .LVU95
 436 000e 7047     		bx	lr
 437              		.cfi_endproc
 438              	.LFE159:
 440              		.section	.text.lv_obj_get_scroll_snap_y,"ax",%progbits
 441              		.align	1
 442              		.global	lv_obj_get_scroll_snap_y
 443              		.syntax unified
 444              		.thumb
 445              		.thumb_func
 446              		.fpu fpv4-sp-d16
 448              	lv_obj_get_scroll_snap_y:
 449              	.LVL34:
 450              	.LFB160:
 111:Middlewares/lvgl/src/core/lv_obj_scroll.c ****     if(obj->spec_attr) return obj->spec_attr->scroll_snap_y;
 451              		.loc 1 111 1 is_stmt 1 view -0
 452              		.cfi_startproc
 453              		@ args = 0, pretend = 0, frame = 0
 454              		@ frame_needed = 0, uses_anonymous_args = 0
 455              		@ link register save eliminated.
 112:Middlewares/lvgl/src/core/lv_obj_scroll.c ****     else return LV_SCROLL_SNAP_NONE;
 456              		.loc 1 112 5 view .LVU97
 112:Middlewares/lvgl/src/core/lv_obj_scroll.c ****     else return LV_SCROLL_SNAP_NONE;
 457              		.loc 1 112 11 is_stmt 0 view .LVU98
 458 0000 8368     		ldr	r3, [r0, #8]
 112:Middlewares/lvgl/src/core/lv_obj_scroll.c ****     else return LV_SCROLL_SNAP_NONE;
 459              		.loc 1 112 7 view .LVU99
 460 0002 1BB1     		cbz	r3, .L29
 112:Middlewares/lvgl/src/core/lv_obj_scroll.c ****     else return LV_SCROLL_SNAP_NONE;
 461              		.loc 1 112 24 is_stmt 1 discriminator 1 view .LVU100
 112:Middlewares/lvgl/src/core/lv_obj_scroll.c ****     else return LV_SCROLL_SNAP_NONE;
 462              		.loc 1 112 45 is_stmt 0 discriminator 1 view .LVU101
 463 0004 187E     		ldrb	r0, [r3, #24]	@ zero_extendqisi2
 464              	.LVL35:
 112:Middlewares/lvgl/src/core/lv_obj_scroll.c ****     else return LV_SCROLL_SNAP_NONE;
 465              		.loc 1 112 45 discriminator 1 view .LVU102
 466 0006 C0F30110 		ubfx	r0, r0, #4, #2
ARM GAS  /tmp/ccSK5Jfi.s 			page 21


 467 000a 7047     		bx	lr
 468              	.LVL36:
 469              	.L29:
 113:Middlewares/lvgl/src/core/lv_obj_scroll.c **** }
 470              		.loc 1 113 17 view .LVU103
 471 000c 0020     		movs	r0, #0
 472              	.LVL37:
 114:Middlewares/lvgl/src/core/lv_obj_scroll.c **** 
 473              		.loc 1 114 1 view .LVU104
 474 000e 7047     		bx	lr
 475              		.cfi_endproc
 476              	.LFE160:
 478              		.section	.text.lv_obj_get_scroll_x,"ax",%progbits
 479              		.align	1
 480              		.global	lv_obj_get_scroll_x
 481              		.syntax unified
 482              		.thumb
 483              		.thumb_func
 484              		.fpu fpv4-sp-d16
 486              	lv_obj_get_scroll_x:
 487              	.LVL38:
 488              	.LFB161:
 117:Middlewares/lvgl/src/core/lv_obj_scroll.c ****     if(obj->spec_attr == NULL) return 0;
 489              		.loc 1 117 1 is_stmt 1 view -0
 490              		.cfi_startproc
 491              		@ args = 0, pretend = 0, frame = 0
 492              		@ frame_needed = 0, uses_anonymous_args = 0
 493              		@ link register save eliminated.
 118:Middlewares/lvgl/src/core/lv_obj_scroll.c ****     return -obj->spec_attr->scroll.x;
 494              		.loc 1 118 5 view .LVU106
 118:Middlewares/lvgl/src/core/lv_obj_scroll.c ****     return -obj->spec_attr->scroll.x;
 495              		.loc 1 118 11 is_stmt 0 view .LVU107
 496 0000 8368     		ldr	r3, [r0, #8]
 118:Middlewares/lvgl/src/core/lv_obj_scroll.c ****     return -obj->spec_attr->scroll.x;
 497              		.loc 1 118 7 view .LVU108
 498 0002 1BB1     		cbz	r3, .L32
 119:Middlewares/lvgl/src/core/lv_obj_scroll.c **** }
 499              		.loc 1 119 5 is_stmt 1 view .LVU109
 119:Middlewares/lvgl/src/core/lv_obj_scroll.c **** }
 500              		.loc 1 119 35 is_stmt 0 view .LVU110
 501 0004 188A     		ldrh	r0, [r3, #16]
 502              	.LVL39:
 119:Middlewares/lvgl/src/core/lv_obj_scroll.c **** }
 503              		.loc 1 119 12 view .LVU111
 504 0006 4042     		rsbs	r0, r0, #0
 505 0008 00B2     		sxth	r0, r0
 506 000a 7047     		bx	lr
 507              	.LVL40:
 508              	.L32:
 118:Middlewares/lvgl/src/core/lv_obj_scroll.c ****     return -obj->spec_attr->scroll.x;
 509              		.loc 1 118 39 view .LVU112
 510 000c 0020     		movs	r0, #0
 511              	.LVL41:
 120:Middlewares/lvgl/src/core/lv_obj_scroll.c **** 
 512              		.loc 1 120 1 view .LVU113
 513 000e 7047     		bx	lr
 514              		.cfi_endproc
ARM GAS  /tmp/ccSK5Jfi.s 			page 22


 515              	.LFE161:
 517              		.section	.text.scroll_x_anim,"ax",%progbits
 518              		.align	1
 519              		.syntax unified
 520              		.thumb
 521              		.thumb_func
 522              		.fpu fpv4-sp-d16
 524              	scroll_x_anim:
 525              	.LVL42:
 526              	.LFB180:
 602:Middlewares/lvgl/src/core/lv_obj_scroll.c ****     scroll_by_raw(obj, v + lv_obj_get_scroll_x(obj), 0);
 527              		.loc 1 602 1 is_stmt 1 view -0
 528              		.cfi_startproc
 529              		@ args = 0, pretend = 0, frame = 0
 530              		@ frame_needed = 0, uses_anonymous_args = 0
 602:Middlewares/lvgl/src/core/lv_obj_scroll.c ****     scroll_by_raw(obj, v + lv_obj_get_scroll_x(obj), 0);
 531              		.loc 1 602 1 is_stmt 0 view .LVU115
 532 0000 38B5     		push	{r3, r4, r5, lr}
 533              	.LCFI6:
 534              		.cfi_def_cfa_offset 16
 535              		.cfi_offset 3, -16
 536              		.cfi_offset 4, -12
 537              		.cfi_offset 5, -8
 538              		.cfi_offset 14, -4
 539 0002 0446     		mov	r4, r0
 540 0004 0D46     		mov	r5, r1
 603:Middlewares/lvgl/src/core/lv_obj_scroll.c **** }
 541              		.loc 1 603 5 is_stmt 1 view .LVU116
 603:Middlewares/lvgl/src/core/lv_obj_scroll.c **** }
 542              		.loc 1 603 28 is_stmt 0 view .LVU117
 543 0006 FFF7FEFF 		bl	lv_obj_get_scroll_x
 544              	.LVL43:
 603:Middlewares/lvgl/src/core/lv_obj_scroll.c **** }
 545              		.loc 1 603 26 view .LVU118
 546 000a 15FA80F1 		uxtah	r1, r5, r0
 603:Middlewares/lvgl/src/core/lv_obj_scroll.c **** }
 547              		.loc 1 603 5 view .LVU119
 548 000e 0022     		movs	r2, #0
 549 0010 09B2     		sxth	r1, r1
 550 0012 2046     		mov	r0, r4
 551 0014 FFF7FEFF 		bl	scroll_by_raw
 552              	.LVL44:
 604:Middlewares/lvgl/src/core/lv_obj_scroll.c **** 
 553              		.loc 1 604 1 view .LVU120
 554 0018 38BD     		pop	{r3, r4, r5, pc}
 604:Middlewares/lvgl/src/core/lv_obj_scroll.c **** 
 555              		.loc 1 604 1 view .LVU121
 556              		.cfi_endproc
 557              	.LFE180:
 559              		.section	.text.lv_obj_get_scroll_y,"ax",%progbits
 560              		.align	1
 561              		.global	lv_obj_get_scroll_y
 562              		.syntax unified
 563              		.thumb
 564              		.thumb_func
 565              		.fpu fpv4-sp-d16
 567              	lv_obj_get_scroll_y:
ARM GAS  /tmp/ccSK5Jfi.s 			page 23


 568              	.LVL45:
 569              	.LFB162:
 123:Middlewares/lvgl/src/core/lv_obj_scroll.c ****     if(obj->spec_attr == NULL) return 0;
 570              		.loc 1 123 1 is_stmt 1 view -0
 571              		.cfi_startproc
 572              		@ args = 0, pretend = 0, frame = 0
 573              		@ frame_needed = 0, uses_anonymous_args = 0
 574              		@ link register save eliminated.
 124:Middlewares/lvgl/src/core/lv_obj_scroll.c ****     return -obj->spec_attr->scroll.y;
 575              		.loc 1 124 5 view .LVU123
 124:Middlewares/lvgl/src/core/lv_obj_scroll.c ****     return -obj->spec_attr->scroll.y;
 576              		.loc 1 124 11 is_stmt 0 view .LVU124
 577 0000 8368     		ldr	r3, [r0, #8]
 124:Middlewares/lvgl/src/core/lv_obj_scroll.c ****     return -obj->spec_attr->scroll.y;
 578              		.loc 1 124 7 view .LVU125
 579 0002 1BB1     		cbz	r3, .L37
 125:Middlewares/lvgl/src/core/lv_obj_scroll.c **** }
 580              		.loc 1 125 5 is_stmt 1 view .LVU126
 125:Middlewares/lvgl/src/core/lv_obj_scroll.c **** }
 581              		.loc 1 125 35 is_stmt 0 view .LVU127
 582 0004 588A     		ldrh	r0, [r3, #18]
 583              	.LVL46:
 125:Middlewares/lvgl/src/core/lv_obj_scroll.c **** }
 584              		.loc 1 125 12 view .LVU128
 585 0006 4042     		rsbs	r0, r0, #0
 586 0008 00B2     		sxth	r0, r0
 587 000a 7047     		bx	lr
 588              	.LVL47:
 589              	.L37:
 124:Middlewares/lvgl/src/core/lv_obj_scroll.c ****     return -obj->spec_attr->scroll.y;
 590              		.loc 1 124 39 view .LVU129
 591 000c 0020     		movs	r0, #0
 592              	.LVL48:
 126:Middlewares/lvgl/src/core/lv_obj_scroll.c **** 
 593              		.loc 1 126 1 view .LVU130
 594 000e 7047     		bx	lr
 595              		.cfi_endproc
 596              	.LFE162:
 598              		.section	.text.scroll_y_anim,"ax",%progbits
 599              		.align	1
 600              		.syntax unified
 601              		.thumb
 602              		.thumb_func
 603              		.fpu fpv4-sp-d16
 605              	scroll_y_anim:
 606              	.LVL49:
 607              	.LFB181:
 607:Middlewares/lvgl/src/core/lv_obj_scroll.c ****     scroll_by_raw(obj, 0, v + lv_obj_get_scroll_y(obj));
 608              		.loc 1 607 1 is_stmt 1 view -0
 609              		.cfi_startproc
 610              		@ args = 0, pretend = 0, frame = 0
 611              		@ frame_needed = 0, uses_anonymous_args = 0
 607:Middlewares/lvgl/src/core/lv_obj_scroll.c ****     scroll_by_raw(obj, 0, v + lv_obj_get_scroll_y(obj));
 612              		.loc 1 607 1 is_stmt 0 view .LVU132
 613 0000 38B5     		push	{r3, r4, r5, lr}
 614              	.LCFI7:
 615              		.cfi_def_cfa_offset 16
ARM GAS  /tmp/ccSK5Jfi.s 			page 24


 616              		.cfi_offset 3, -16
 617              		.cfi_offset 4, -12
 618              		.cfi_offset 5, -8
 619              		.cfi_offset 14, -4
 620 0002 0446     		mov	r4, r0
 621 0004 0D46     		mov	r5, r1
 608:Middlewares/lvgl/src/core/lv_obj_scroll.c **** }
 622              		.loc 1 608 5 is_stmt 1 view .LVU133
 608:Middlewares/lvgl/src/core/lv_obj_scroll.c **** }
 623              		.loc 1 608 31 is_stmt 0 view .LVU134
 624 0006 FFF7FEFF 		bl	lv_obj_get_scroll_y
 625              	.LVL50:
 608:Middlewares/lvgl/src/core/lv_obj_scroll.c **** }
 626              		.loc 1 608 29 view .LVU135
 627 000a 15FA80F2 		uxtah	r2, r5, r0
 608:Middlewares/lvgl/src/core/lv_obj_scroll.c **** }
 628              		.loc 1 608 5 view .LVU136
 629 000e 12B2     		sxth	r2, r2
 630 0010 0021     		movs	r1, #0
 631 0012 2046     		mov	r0, r4
 632 0014 FFF7FEFF 		bl	scroll_by_raw
 633              	.LVL51:
 609:Middlewares/lvgl/src/core/lv_obj_scroll.c **** 
 634              		.loc 1 609 1 view .LVU137
 635 0018 38BD     		pop	{r3, r4, r5, pc}
 609:Middlewares/lvgl/src/core/lv_obj_scroll.c **** 
 636              		.loc 1 609 1 view .LVU138
 637              		.cfi_endproc
 638              	.LFE181:
 640              		.section	.text.lv_obj_get_scroll_top,"ax",%progbits
 641              		.align	1
 642              		.global	lv_obj_get_scroll_top
 643              		.syntax unified
 644              		.thumb
 645              		.thumb_func
 646              		.fpu fpv4-sp-d16
 648              	lv_obj_get_scroll_top:
 649              	.LVL52:
 650              	.LFB163:
 129:Middlewares/lvgl/src/core/lv_obj_scroll.c ****     if(obj->spec_attr == NULL) return 0;
 651              		.loc 1 129 1 is_stmt 1 view -0
 652              		.cfi_startproc
 653              		@ args = 0, pretend = 0, frame = 0
 654              		@ frame_needed = 0, uses_anonymous_args = 0
 655              		@ link register save eliminated.
 130:Middlewares/lvgl/src/core/lv_obj_scroll.c ****     return -obj->spec_attr->scroll.y;
 656              		.loc 1 130 5 view .LVU140
 130:Middlewares/lvgl/src/core/lv_obj_scroll.c ****     return -obj->spec_attr->scroll.y;
 657              		.loc 1 130 11 is_stmt 0 view .LVU141
 658 0000 8368     		ldr	r3, [r0, #8]
 130:Middlewares/lvgl/src/core/lv_obj_scroll.c ****     return -obj->spec_attr->scroll.y;
 659              		.loc 1 130 7 view .LVU142
 660 0002 1BB1     		cbz	r3, .L42
 131:Middlewares/lvgl/src/core/lv_obj_scroll.c **** }
 661              		.loc 1 131 5 is_stmt 1 view .LVU143
 131:Middlewares/lvgl/src/core/lv_obj_scroll.c **** }
 662              		.loc 1 131 35 is_stmt 0 view .LVU144
ARM GAS  /tmp/ccSK5Jfi.s 			page 25


 663 0004 588A     		ldrh	r0, [r3, #18]
 664              	.LVL53:
 131:Middlewares/lvgl/src/core/lv_obj_scroll.c **** }
 665              		.loc 1 131 12 view .LVU145
 666 0006 4042     		rsbs	r0, r0, #0
 667 0008 00B2     		sxth	r0, r0
 668 000a 7047     		bx	lr
 669              	.LVL54:
 670              	.L42:
 130:Middlewares/lvgl/src/core/lv_obj_scroll.c ****     return -obj->spec_attr->scroll.y;
 671              		.loc 1 130 39 view .LVU146
 672 000c 0020     		movs	r0, #0
 673              	.LVL55:
 132:Middlewares/lvgl/src/core/lv_obj_scroll.c **** 
 674              		.loc 1 132 1 view .LVU147
 675 000e 7047     		bx	lr
 676              		.cfi_endproc
 677              	.LFE163:
 679              		.section	.text.lv_obj_get_scroll_bottom,"ax",%progbits
 680              		.align	1
 681              		.global	lv_obj_get_scroll_bottom
 682              		.syntax unified
 683              		.thumb
 684              		.thumb_func
 685              		.fpu fpv4-sp-d16
 687              	lv_obj_get_scroll_bottom:
 688              	.LVL56:
 689              	.LFB164:
 135:Middlewares/lvgl/src/core/lv_obj_scroll.c ****     LV_ASSERT_OBJ(obj, MY_CLASS);
 690              		.loc 1 135 1 is_stmt 1 view -0
 691              		.cfi_startproc
 692              		@ args = 0, pretend = 0, frame = 0
 693              		@ frame_needed = 0, uses_anonymous_args = 0
 135:Middlewares/lvgl/src/core/lv_obj_scroll.c ****     LV_ASSERT_OBJ(obj, MY_CLASS);
 694              		.loc 1 135 1 is_stmt 0 view .LVU149
 695 0000 2DE9F047 		push	{r4, r5, r6, r7, r8, r9, r10, lr}
 696              	.LCFI8:
 697              		.cfi_def_cfa_offset 32
 698              		.cfi_offset 4, -32
 699              		.cfi_offset 5, -28
 700              		.cfi_offset 6, -24
 701              		.cfi_offset 7, -20
 702              		.cfi_offset 8, -16
 703              		.cfi_offset 9, -12
 704              		.cfi_offset 10, -8
 705              		.cfi_offset 14, -4
 706 0004 0746     		mov	r7, r0
 136:Middlewares/lvgl/src/core/lv_obj_scroll.c **** 
 707              		.loc 1 136 5 is_stmt 1 view .LVU150
 136:Middlewares/lvgl/src/core/lv_obj_scroll.c **** 
 708              		.loc 1 136 5 view .LVU151
 136:Middlewares/lvgl/src/core/lv_obj_scroll.c **** 
 709              		.loc 1 136 5 view .LVU152
 138:Middlewares/lvgl/src/core/lv_obj_scroll.c ****     uint32_t i;
 710              		.loc 1 138 5 view .LVU153
 711              	.LVL57:
 139:Middlewares/lvgl/src/core/lv_obj_scroll.c ****     uint32_t child_cnt = lv_obj_get_child_cnt(obj);
ARM GAS  /tmp/ccSK5Jfi.s 			page 26


 712              		.loc 1 139 5 view .LVU154
 140:Middlewares/lvgl/src/core/lv_obj_scroll.c ****     for(i = 0; i < child_cnt; i++) {
 713              		.loc 1 140 5 view .LVU155
 140:Middlewares/lvgl/src/core/lv_obj_scroll.c ****     for(i = 0; i < child_cnt; i++) {
 714              		.loc 1 140 26 is_stmt 0 view .LVU156
 715 0006 FFF7FEFF 		bl	lv_obj_get_child_cnt
 716              	.LVL58:
 140:Middlewares/lvgl/src/core/lv_obj_scroll.c ****     for(i = 0; i < child_cnt; i++) {
 717              		.loc 1 140 26 view .LVU157
 718 000a 8046     		mov	r8, r0
 719              	.LVL59:
 141:Middlewares/lvgl/src/core/lv_obj_scroll.c ****         lv_obj_t * child = lv_obj_get_child(obj, i);
 720              		.loc 1 141 5 is_stmt 1 view .LVU158
 141:Middlewares/lvgl/src/core/lv_obj_scroll.c ****         lv_obj_t * child = lv_obj_get_child(obj, i);
 721              		.loc 1 141 11 is_stmt 0 view .LVU159
 722 000c 0024     		movs	r4, #0
 138:Middlewares/lvgl/src/core/lv_obj_scroll.c ****     uint32_t i;
 723              		.loc 1 138 16 view .LVU160
 724 000e 294E     		ldr	r6, .L51
 141:Middlewares/lvgl/src/core/lv_obj_scroll.c ****         lv_obj_t * child = lv_obj_get_child(obj, i);
 725              		.loc 1 141 5 view .LVU161
 726 0010 05E0     		b	.L44
 727              	.LVL60:
 728              	.L50:
 729              	.LBB91:
 144:Middlewares/lvgl/src/core/lv_obj_scroll.c ****     }
 730              		.loc 1 144 9 is_stmt 1 view .LVU162
 144:Middlewares/lvgl/src/core/lv_obj_scroll.c ****     }
 731              		.loc 1 144 21 is_stmt 0 view .LVU163
 732 0012 B5F91A30 		ldrsh	r3, [r5, #26]
 144:Middlewares/lvgl/src/core/lv_obj_scroll.c ****     }
 733              		.loc 1 144 19 view .LVU164
 734 0016 9E42     		cmp	r6, r3
 735 0018 B8BF     		it	lt
 736 001a 1E46     		movlt	r6, r3
 737              	.LVL61:
 738              	.L45:
 144:Middlewares/lvgl/src/core/lv_obj_scroll.c ****     }
 739              		.loc 1 144 19 view .LVU165
 740              	.LBE91:
 141:Middlewares/lvgl/src/core/lv_obj_scroll.c ****         lv_obj_t * child = lv_obj_get_child(obj, i);
 741              		.loc 1 141 31 is_stmt 1 discriminator 2 view .LVU166
 141:Middlewares/lvgl/src/core/lv_obj_scroll.c ****         lv_obj_t * child = lv_obj_get_child(obj, i);
 742              		.loc 1 141 32 is_stmt 0 discriminator 2 view .LVU167
 743 001c 0134     		adds	r4, r4, #1
 744              	.LVL62:
 745              	.L44:
 141:Middlewares/lvgl/src/core/lv_obj_scroll.c ****         lv_obj_t * child = lv_obj_get_child(obj, i);
 746              		.loc 1 141 16 is_stmt 1 discriminator 1 view .LVU168
 141:Middlewares/lvgl/src/core/lv_obj_scroll.c ****         lv_obj_t * child = lv_obj_get_child(obj, i);
 747              		.loc 1 141 5 is_stmt 0 discriminator 1 view .LVU169
 748 001e 4445     		cmp	r4, r8
 749 0020 0BD2     		bcs	.L49
 750              	.LBB92:
 142:Middlewares/lvgl/src/core/lv_obj_scroll.c ****         if(lv_obj_has_flag_any(child,  LV_OBJ_FLAG_HIDDEN | LV_OBJ_FLAG_FLOATING)) continue;
 751              		.loc 1 142 9 is_stmt 1 view .LVU170
 142:Middlewares/lvgl/src/core/lv_obj_scroll.c ****         if(lv_obj_has_flag_any(child,  LV_OBJ_FLAG_HIDDEN | LV_OBJ_FLAG_FLOATING)) continue;
ARM GAS  /tmp/ccSK5Jfi.s 			page 27


 752              		.loc 1 142 28 is_stmt 0 view .LVU171
 753 0022 2146     		mov	r1, r4
 754 0024 3846     		mov	r0, r7
 755 0026 FFF7FEFF 		bl	lv_obj_get_child
 756              	.LVL63:
 757 002a 0546     		mov	r5, r0
 758              	.LVL64:
 143:Middlewares/lvgl/src/core/lv_obj_scroll.c ****         child_res = LV_MAX(child_res, child->coords.y2);
 759              		.loc 1 143 9 is_stmt 1 view .LVU172
 143:Middlewares/lvgl/src/core/lv_obj_scroll.c ****         child_res = LV_MAX(child_res, child->coords.y2);
 760              		.loc 1 143 12 is_stmt 0 view .LVU173
 761 002c 4FF00111 		mov	r1, #65537
 762 0030 FFF7FEFF 		bl	lv_obj_has_flag_any
 763              	.LVL65:
 143:Middlewares/lvgl/src/core/lv_obj_scroll.c ****         child_res = LV_MAX(child_res, child->coords.y2);
 764              		.loc 1 143 11 view .LVU174
 765 0034 0028     		cmp	r0, #0
 766 0036 ECD0     		beq	.L50
 767 0038 F0E7     		b	.L45
 768              	.LVL66:
 769              	.L49:
 143:Middlewares/lvgl/src/core/lv_obj_scroll.c ****         child_res = LV_MAX(child_res, child->coords.y2);
 770              		.loc 1 143 11 view .LVU175
 771              	.LBE92:
 147:Middlewares/lvgl/src/core/lv_obj_scroll.c ****     lv_coord_t pad_bottom = lv_obj_get_style_pad_bottom(obj, LV_PART_MAIN);
 772              		.loc 1 147 5 is_stmt 1 view .LVU176
 773              	.LBB93:
 774              	.LBI93:
 775              		.file 2 "Middlewares/lvgl/src/core/lv_obj_style_gen.h"
   1:Middlewares/lvgl/src/core/lv_obj_style_gen.h **** static inline lv_coord_t lv_obj_get_style_width(const struct _lv_obj_t * obj, uint32_t part)
   2:Middlewares/lvgl/src/core/lv_obj_style_gen.h **** {
   3:Middlewares/lvgl/src/core/lv_obj_style_gen.h ****     lv_style_value_t v = lv_obj_get_style_prop(obj, part, LV_STYLE_WIDTH);
   4:Middlewares/lvgl/src/core/lv_obj_style_gen.h ****     return (lv_coord_t)v.num;
   5:Middlewares/lvgl/src/core/lv_obj_style_gen.h **** }
   6:Middlewares/lvgl/src/core/lv_obj_style_gen.h **** 
   7:Middlewares/lvgl/src/core/lv_obj_style_gen.h **** static inline lv_coord_t lv_obj_get_style_min_width(const struct _lv_obj_t * obj, uint32_t part)
   8:Middlewares/lvgl/src/core/lv_obj_style_gen.h **** {
   9:Middlewares/lvgl/src/core/lv_obj_style_gen.h ****     lv_style_value_t v = lv_obj_get_style_prop(obj, part, LV_STYLE_MIN_WIDTH);
  10:Middlewares/lvgl/src/core/lv_obj_style_gen.h ****     return (lv_coord_t)v.num;
  11:Middlewares/lvgl/src/core/lv_obj_style_gen.h **** }
  12:Middlewares/lvgl/src/core/lv_obj_style_gen.h **** 
  13:Middlewares/lvgl/src/core/lv_obj_style_gen.h **** static inline lv_coord_t lv_obj_get_style_max_width(const struct _lv_obj_t * obj, uint32_t part)
  14:Middlewares/lvgl/src/core/lv_obj_style_gen.h **** {
  15:Middlewares/lvgl/src/core/lv_obj_style_gen.h ****     lv_style_value_t v = lv_obj_get_style_prop(obj, part, LV_STYLE_MAX_WIDTH);
  16:Middlewares/lvgl/src/core/lv_obj_style_gen.h ****     return (lv_coord_t)v.num;
  17:Middlewares/lvgl/src/core/lv_obj_style_gen.h **** }
  18:Middlewares/lvgl/src/core/lv_obj_style_gen.h **** 
  19:Middlewares/lvgl/src/core/lv_obj_style_gen.h **** static inline lv_coord_t lv_obj_get_style_height(const struct _lv_obj_t * obj, uint32_t part)
  20:Middlewares/lvgl/src/core/lv_obj_style_gen.h **** {
  21:Middlewares/lvgl/src/core/lv_obj_style_gen.h ****     lv_style_value_t v = lv_obj_get_style_prop(obj, part, LV_STYLE_HEIGHT);
  22:Middlewares/lvgl/src/core/lv_obj_style_gen.h ****     return (lv_coord_t)v.num;
  23:Middlewares/lvgl/src/core/lv_obj_style_gen.h **** }
  24:Middlewares/lvgl/src/core/lv_obj_style_gen.h **** 
  25:Middlewares/lvgl/src/core/lv_obj_style_gen.h **** static inline lv_coord_t lv_obj_get_style_min_height(const struct _lv_obj_t * obj, uint32_t part)
  26:Middlewares/lvgl/src/core/lv_obj_style_gen.h **** {
  27:Middlewares/lvgl/src/core/lv_obj_style_gen.h ****     lv_style_value_t v = lv_obj_get_style_prop(obj, part, LV_STYLE_MIN_HEIGHT);
  28:Middlewares/lvgl/src/core/lv_obj_style_gen.h ****     return (lv_coord_t)v.num;
ARM GAS  /tmp/ccSK5Jfi.s 			page 28


  29:Middlewares/lvgl/src/core/lv_obj_style_gen.h **** }
  30:Middlewares/lvgl/src/core/lv_obj_style_gen.h **** 
  31:Middlewares/lvgl/src/core/lv_obj_style_gen.h **** static inline lv_coord_t lv_obj_get_style_max_height(const struct _lv_obj_t * obj, uint32_t part)
  32:Middlewares/lvgl/src/core/lv_obj_style_gen.h **** {
  33:Middlewares/lvgl/src/core/lv_obj_style_gen.h ****     lv_style_value_t v = lv_obj_get_style_prop(obj, part, LV_STYLE_MAX_HEIGHT);
  34:Middlewares/lvgl/src/core/lv_obj_style_gen.h ****     return (lv_coord_t)v.num;
  35:Middlewares/lvgl/src/core/lv_obj_style_gen.h **** }
  36:Middlewares/lvgl/src/core/lv_obj_style_gen.h **** 
  37:Middlewares/lvgl/src/core/lv_obj_style_gen.h **** static inline lv_coord_t lv_obj_get_style_x(const struct _lv_obj_t * obj, uint32_t part)
  38:Middlewares/lvgl/src/core/lv_obj_style_gen.h **** {
  39:Middlewares/lvgl/src/core/lv_obj_style_gen.h ****     lv_style_value_t v = lv_obj_get_style_prop(obj, part, LV_STYLE_X);
  40:Middlewares/lvgl/src/core/lv_obj_style_gen.h ****     return (lv_coord_t)v.num;
  41:Middlewares/lvgl/src/core/lv_obj_style_gen.h **** }
  42:Middlewares/lvgl/src/core/lv_obj_style_gen.h **** 
  43:Middlewares/lvgl/src/core/lv_obj_style_gen.h **** static inline lv_coord_t lv_obj_get_style_y(const struct _lv_obj_t * obj, uint32_t part)
  44:Middlewares/lvgl/src/core/lv_obj_style_gen.h **** {
  45:Middlewares/lvgl/src/core/lv_obj_style_gen.h ****     lv_style_value_t v = lv_obj_get_style_prop(obj, part, LV_STYLE_Y);
  46:Middlewares/lvgl/src/core/lv_obj_style_gen.h ****     return (lv_coord_t)v.num;
  47:Middlewares/lvgl/src/core/lv_obj_style_gen.h **** }
  48:Middlewares/lvgl/src/core/lv_obj_style_gen.h **** 
  49:Middlewares/lvgl/src/core/lv_obj_style_gen.h **** static inline lv_align_t lv_obj_get_style_align(const struct _lv_obj_t * obj, uint32_t part)
  50:Middlewares/lvgl/src/core/lv_obj_style_gen.h **** {
  51:Middlewares/lvgl/src/core/lv_obj_style_gen.h ****     lv_style_value_t v = lv_obj_get_style_prop(obj, part, LV_STYLE_ALIGN);
  52:Middlewares/lvgl/src/core/lv_obj_style_gen.h ****     return (lv_align_t)v.num;
  53:Middlewares/lvgl/src/core/lv_obj_style_gen.h **** }
  54:Middlewares/lvgl/src/core/lv_obj_style_gen.h **** 
  55:Middlewares/lvgl/src/core/lv_obj_style_gen.h **** static inline lv_coord_t lv_obj_get_style_transform_width(const struct _lv_obj_t * obj, uint32_t pa
  56:Middlewares/lvgl/src/core/lv_obj_style_gen.h **** {
  57:Middlewares/lvgl/src/core/lv_obj_style_gen.h ****     lv_style_value_t v = lv_obj_get_style_prop(obj, part, LV_STYLE_TRANSFORM_WIDTH);
  58:Middlewares/lvgl/src/core/lv_obj_style_gen.h ****     return (lv_coord_t)v.num;
  59:Middlewares/lvgl/src/core/lv_obj_style_gen.h **** }
  60:Middlewares/lvgl/src/core/lv_obj_style_gen.h **** 
  61:Middlewares/lvgl/src/core/lv_obj_style_gen.h **** static inline lv_coord_t lv_obj_get_style_transform_height(const struct _lv_obj_t * obj, uint32_t p
  62:Middlewares/lvgl/src/core/lv_obj_style_gen.h **** {
  63:Middlewares/lvgl/src/core/lv_obj_style_gen.h ****     lv_style_value_t v = lv_obj_get_style_prop(obj, part, LV_STYLE_TRANSFORM_HEIGHT);
  64:Middlewares/lvgl/src/core/lv_obj_style_gen.h ****     return (lv_coord_t)v.num;
  65:Middlewares/lvgl/src/core/lv_obj_style_gen.h **** }
  66:Middlewares/lvgl/src/core/lv_obj_style_gen.h **** 
  67:Middlewares/lvgl/src/core/lv_obj_style_gen.h **** static inline lv_coord_t lv_obj_get_style_translate_x(const struct _lv_obj_t * obj, uint32_t part)
  68:Middlewares/lvgl/src/core/lv_obj_style_gen.h **** {
  69:Middlewares/lvgl/src/core/lv_obj_style_gen.h ****     lv_style_value_t v = lv_obj_get_style_prop(obj, part, LV_STYLE_TRANSLATE_X);
  70:Middlewares/lvgl/src/core/lv_obj_style_gen.h ****     return (lv_coord_t)v.num;
  71:Middlewares/lvgl/src/core/lv_obj_style_gen.h **** }
  72:Middlewares/lvgl/src/core/lv_obj_style_gen.h **** 
  73:Middlewares/lvgl/src/core/lv_obj_style_gen.h **** static inline lv_coord_t lv_obj_get_style_translate_y(const struct _lv_obj_t * obj, uint32_t part)
  74:Middlewares/lvgl/src/core/lv_obj_style_gen.h **** {
  75:Middlewares/lvgl/src/core/lv_obj_style_gen.h ****     lv_style_value_t v = lv_obj_get_style_prop(obj, part, LV_STYLE_TRANSLATE_Y);
  76:Middlewares/lvgl/src/core/lv_obj_style_gen.h ****     return (lv_coord_t)v.num;
  77:Middlewares/lvgl/src/core/lv_obj_style_gen.h **** }
  78:Middlewares/lvgl/src/core/lv_obj_style_gen.h **** 
  79:Middlewares/lvgl/src/core/lv_obj_style_gen.h **** static inline lv_coord_t lv_obj_get_style_transform_zoom(const struct _lv_obj_t * obj, uint32_t par
  80:Middlewares/lvgl/src/core/lv_obj_style_gen.h **** {
  81:Middlewares/lvgl/src/core/lv_obj_style_gen.h ****     lv_style_value_t v = lv_obj_get_style_prop(obj, part, LV_STYLE_TRANSFORM_ZOOM);
  82:Middlewares/lvgl/src/core/lv_obj_style_gen.h ****     return (lv_coord_t)v.num;
  83:Middlewares/lvgl/src/core/lv_obj_style_gen.h **** }
  84:Middlewares/lvgl/src/core/lv_obj_style_gen.h **** 
  85:Middlewares/lvgl/src/core/lv_obj_style_gen.h **** static inline lv_coord_t lv_obj_get_style_transform_angle(const struct _lv_obj_t * obj, uint32_t pa
ARM GAS  /tmp/ccSK5Jfi.s 			page 29


  86:Middlewares/lvgl/src/core/lv_obj_style_gen.h **** {
  87:Middlewares/lvgl/src/core/lv_obj_style_gen.h ****     lv_style_value_t v = lv_obj_get_style_prop(obj, part, LV_STYLE_TRANSFORM_ANGLE);
  88:Middlewares/lvgl/src/core/lv_obj_style_gen.h ****     return (lv_coord_t)v.num;
  89:Middlewares/lvgl/src/core/lv_obj_style_gen.h **** }
  90:Middlewares/lvgl/src/core/lv_obj_style_gen.h **** 
  91:Middlewares/lvgl/src/core/lv_obj_style_gen.h **** static inline lv_coord_t lv_obj_get_style_pad_top(const struct _lv_obj_t * obj, uint32_t part)
 776              		.loc 2 91 26 view .LVU177
 777              	.LBB94:
  92:Middlewares/lvgl/src/core/lv_obj_style_gen.h **** {
  93:Middlewares/lvgl/src/core/lv_obj_style_gen.h ****     lv_style_value_t v = lv_obj_get_style_prop(obj, part, LV_STYLE_PAD_TOP);
 778              		.loc 2 93 5 view .LVU178
 779              		.loc 2 93 26 is_stmt 0 view .LVU179
 780 003a 41F21002 		movw	r2, #4112
 781 003e 0021     		movs	r1, #0
 782 0040 3846     		mov	r0, r7
 783 0042 FFF7FEFF 		bl	lv_obj_get_style_prop
 784              	.LVL67:
 785 0046 0546     		mov	r5, r0
  94:Middlewares/lvgl/src/core/lv_obj_style_gen.h ****     return (lv_coord_t)v.num;
 786              		.loc 2 94 5 is_stmt 1 view .LVU180
 787              	.LVL68:
 788              		.loc 2 94 5 is_stmt 0 view .LVU181
 789              	.LBE94:
 790              	.LBE93:
 148:Middlewares/lvgl/src/core/lv_obj_scroll.c ****     lv_coord_t border_width = lv_obj_get_style_border_width(obj, LV_PART_MAIN);
 791              		.loc 1 148 5 is_stmt 1 view .LVU182
 792              	.LBB95:
 793              	.LBI95:
  95:Middlewares/lvgl/src/core/lv_obj_style_gen.h **** }
  96:Middlewares/lvgl/src/core/lv_obj_style_gen.h **** 
  97:Middlewares/lvgl/src/core/lv_obj_style_gen.h **** static inline lv_coord_t lv_obj_get_style_pad_bottom(const struct _lv_obj_t * obj, uint32_t part)
 794              		.loc 2 97 26 view .LVU183
 795              	.LBB96:
  98:Middlewares/lvgl/src/core/lv_obj_style_gen.h **** {
  99:Middlewares/lvgl/src/core/lv_obj_style_gen.h ****     lv_style_value_t v = lv_obj_get_style_prop(obj, part, LV_STYLE_PAD_BOTTOM);
 796              		.loc 2 99 5 view .LVU184
 797              		.loc 2 99 26 is_stmt 0 view .LVU185
 798 0048 41F21102 		movw	r2, #4113
 799 004c 0021     		movs	r1, #0
 800 004e 3846     		mov	r0, r7
 801 0050 FFF7FEFF 		bl	lv_obj_get_style_prop
 802              	.LVL69:
 803 0054 8246     		mov	r10, r0
 100:Middlewares/lvgl/src/core/lv_obj_style_gen.h ****     return (lv_coord_t)v.num;
 804              		.loc 2 100 5 is_stmt 1 view .LVU186
 805              	.LVL70:
 806              		.loc 2 100 5 is_stmt 0 view .LVU187
 807              	.LBE96:
 808              	.LBE95:
 149:Middlewares/lvgl/src/core/lv_obj_scroll.c **** 
 809              		.loc 1 149 5 is_stmt 1 view .LVU188
 810              	.LBB97:
 811              	.LBI97:
 101:Middlewares/lvgl/src/core/lv_obj_style_gen.h **** }
 102:Middlewares/lvgl/src/core/lv_obj_style_gen.h **** 
 103:Middlewares/lvgl/src/core/lv_obj_style_gen.h **** static inline lv_coord_t lv_obj_get_style_pad_left(const struct _lv_obj_t * obj, uint32_t part)
 104:Middlewares/lvgl/src/core/lv_obj_style_gen.h **** {
ARM GAS  /tmp/ccSK5Jfi.s 			page 30


 105:Middlewares/lvgl/src/core/lv_obj_style_gen.h ****     lv_style_value_t v = lv_obj_get_style_prop(obj, part, LV_STYLE_PAD_LEFT);
 106:Middlewares/lvgl/src/core/lv_obj_style_gen.h ****     return (lv_coord_t)v.num;
 107:Middlewares/lvgl/src/core/lv_obj_style_gen.h **** }
 108:Middlewares/lvgl/src/core/lv_obj_style_gen.h **** 
 109:Middlewares/lvgl/src/core/lv_obj_style_gen.h **** static inline lv_coord_t lv_obj_get_style_pad_right(const struct _lv_obj_t * obj, uint32_t part)
 110:Middlewares/lvgl/src/core/lv_obj_style_gen.h **** {
 111:Middlewares/lvgl/src/core/lv_obj_style_gen.h ****     lv_style_value_t v = lv_obj_get_style_prop(obj, part, LV_STYLE_PAD_RIGHT);
 112:Middlewares/lvgl/src/core/lv_obj_style_gen.h ****     return (lv_coord_t)v.num;
 113:Middlewares/lvgl/src/core/lv_obj_style_gen.h **** }
 114:Middlewares/lvgl/src/core/lv_obj_style_gen.h **** 
 115:Middlewares/lvgl/src/core/lv_obj_style_gen.h **** static inline lv_coord_t lv_obj_get_style_pad_row(const struct _lv_obj_t * obj, uint32_t part)
 116:Middlewares/lvgl/src/core/lv_obj_style_gen.h **** {
 117:Middlewares/lvgl/src/core/lv_obj_style_gen.h ****     lv_style_value_t v = lv_obj_get_style_prop(obj, part, LV_STYLE_PAD_ROW);
 118:Middlewares/lvgl/src/core/lv_obj_style_gen.h ****     return (lv_coord_t)v.num;
 119:Middlewares/lvgl/src/core/lv_obj_style_gen.h **** }
 120:Middlewares/lvgl/src/core/lv_obj_style_gen.h **** 
 121:Middlewares/lvgl/src/core/lv_obj_style_gen.h **** static inline lv_coord_t lv_obj_get_style_pad_column(const struct _lv_obj_t * obj, uint32_t part)
 122:Middlewares/lvgl/src/core/lv_obj_style_gen.h **** {
 123:Middlewares/lvgl/src/core/lv_obj_style_gen.h ****     lv_style_value_t v = lv_obj_get_style_prop(obj, part, LV_STYLE_PAD_COLUMN);
 124:Middlewares/lvgl/src/core/lv_obj_style_gen.h ****     return (lv_coord_t)v.num;
 125:Middlewares/lvgl/src/core/lv_obj_style_gen.h **** }
 126:Middlewares/lvgl/src/core/lv_obj_style_gen.h **** 
 127:Middlewares/lvgl/src/core/lv_obj_style_gen.h **** static inline lv_coord_t lv_obj_get_style_radius(const struct _lv_obj_t * obj, uint32_t part)
 128:Middlewares/lvgl/src/core/lv_obj_style_gen.h **** {
 129:Middlewares/lvgl/src/core/lv_obj_style_gen.h ****     lv_style_value_t v = lv_obj_get_style_prop(obj, part, LV_STYLE_RADIUS);
 130:Middlewares/lvgl/src/core/lv_obj_style_gen.h ****     return (lv_coord_t)v.num;
 131:Middlewares/lvgl/src/core/lv_obj_style_gen.h **** }
 132:Middlewares/lvgl/src/core/lv_obj_style_gen.h **** 
 133:Middlewares/lvgl/src/core/lv_obj_style_gen.h **** static inline bool lv_obj_get_style_clip_corner(const struct _lv_obj_t * obj, uint32_t part)
 134:Middlewares/lvgl/src/core/lv_obj_style_gen.h **** {
 135:Middlewares/lvgl/src/core/lv_obj_style_gen.h ****     lv_style_value_t v = lv_obj_get_style_prop(obj, part, LV_STYLE_CLIP_CORNER);
 136:Middlewares/lvgl/src/core/lv_obj_style_gen.h ****     return (bool)v.num;
 137:Middlewares/lvgl/src/core/lv_obj_style_gen.h **** }
 138:Middlewares/lvgl/src/core/lv_obj_style_gen.h **** 
 139:Middlewares/lvgl/src/core/lv_obj_style_gen.h **** static inline lv_opa_t lv_obj_get_style_opa(const struct _lv_obj_t * obj, uint32_t part)
 140:Middlewares/lvgl/src/core/lv_obj_style_gen.h **** {
 141:Middlewares/lvgl/src/core/lv_obj_style_gen.h ****     lv_style_value_t v = lv_obj_get_style_prop(obj, part, LV_STYLE_OPA);
 142:Middlewares/lvgl/src/core/lv_obj_style_gen.h ****     return (lv_opa_t)v.num;
 143:Middlewares/lvgl/src/core/lv_obj_style_gen.h **** }
 144:Middlewares/lvgl/src/core/lv_obj_style_gen.h **** 
 145:Middlewares/lvgl/src/core/lv_obj_style_gen.h **** static inline const lv_color_filter_dsc_t * lv_obj_get_style_color_filter_dsc(const struct _lv_obj_
 146:Middlewares/lvgl/src/core/lv_obj_style_gen.h **** {
 147:Middlewares/lvgl/src/core/lv_obj_style_gen.h ****     lv_style_value_t v = lv_obj_get_style_prop(obj, part, LV_STYLE_COLOR_FILTER_DSC);
 148:Middlewares/lvgl/src/core/lv_obj_style_gen.h ****     return (const lv_color_filter_dsc_t *)v.ptr;
 149:Middlewares/lvgl/src/core/lv_obj_style_gen.h **** }
 150:Middlewares/lvgl/src/core/lv_obj_style_gen.h **** 
 151:Middlewares/lvgl/src/core/lv_obj_style_gen.h **** static inline lv_opa_t lv_obj_get_style_color_filter_opa(const struct _lv_obj_t * obj, uint32_t par
 152:Middlewares/lvgl/src/core/lv_obj_style_gen.h **** {
 153:Middlewares/lvgl/src/core/lv_obj_style_gen.h ****     lv_style_value_t v = lv_obj_get_style_prop(obj, part, LV_STYLE_COLOR_FILTER_OPA);
 154:Middlewares/lvgl/src/core/lv_obj_style_gen.h ****     return (lv_opa_t)v.num;
 155:Middlewares/lvgl/src/core/lv_obj_style_gen.h **** }
 156:Middlewares/lvgl/src/core/lv_obj_style_gen.h **** 
 157:Middlewares/lvgl/src/core/lv_obj_style_gen.h **** static inline uint32_t lv_obj_get_style_anim_time(const struct _lv_obj_t * obj, uint32_t part)
 158:Middlewares/lvgl/src/core/lv_obj_style_gen.h **** {
 159:Middlewares/lvgl/src/core/lv_obj_style_gen.h ****     lv_style_value_t v = lv_obj_get_style_prop(obj, part, LV_STYLE_ANIM_TIME);
 160:Middlewares/lvgl/src/core/lv_obj_style_gen.h ****     return (uint32_t)v.num;
 161:Middlewares/lvgl/src/core/lv_obj_style_gen.h **** }
ARM GAS  /tmp/ccSK5Jfi.s 			page 31


 162:Middlewares/lvgl/src/core/lv_obj_style_gen.h **** 
 163:Middlewares/lvgl/src/core/lv_obj_style_gen.h **** static inline uint32_t lv_obj_get_style_anim_speed(const struct _lv_obj_t * obj, uint32_t part)
 164:Middlewares/lvgl/src/core/lv_obj_style_gen.h **** {
 165:Middlewares/lvgl/src/core/lv_obj_style_gen.h ****     lv_style_value_t v = lv_obj_get_style_prop(obj, part, LV_STYLE_ANIM_SPEED);
 166:Middlewares/lvgl/src/core/lv_obj_style_gen.h ****     return (uint32_t)v.num;
 167:Middlewares/lvgl/src/core/lv_obj_style_gen.h **** }
 168:Middlewares/lvgl/src/core/lv_obj_style_gen.h **** 
 169:Middlewares/lvgl/src/core/lv_obj_style_gen.h **** static inline const lv_style_transition_dsc_t * lv_obj_get_style_transition(const struct _lv_obj_t 
 170:Middlewares/lvgl/src/core/lv_obj_style_gen.h **** {
 171:Middlewares/lvgl/src/core/lv_obj_style_gen.h ****     lv_style_value_t v = lv_obj_get_style_prop(obj, part, LV_STYLE_TRANSITION);
 172:Middlewares/lvgl/src/core/lv_obj_style_gen.h ****     return (const lv_style_transition_dsc_t *)v.ptr;
 173:Middlewares/lvgl/src/core/lv_obj_style_gen.h **** }
 174:Middlewares/lvgl/src/core/lv_obj_style_gen.h **** 
 175:Middlewares/lvgl/src/core/lv_obj_style_gen.h **** static inline lv_blend_mode_t lv_obj_get_style_blend_mode(const struct _lv_obj_t * obj, uint32_t pa
 176:Middlewares/lvgl/src/core/lv_obj_style_gen.h **** {
 177:Middlewares/lvgl/src/core/lv_obj_style_gen.h ****     lv_style_value_t v = lv_obj_get_style_prop(obj, part, LV_STYLE_BLEND_MODE);
 178:Middlewares/lvgl/src/core/lv_obj_style_gen.h ****     return (lv_blend_mode_t)v.num;
 179:Middlewares/lvgl/src/core/lv_obj_style_gen.h **** }
 180:Middlewares/lvgl/src/core/lv_obj_style_gen.h **** 
 181:Middlewares/lvgl/src/core/lv_obj_style_gen.h **** static inline uint16_t lv_obj_get_style_layout(const struct _lv_obj_t * obj, uint32_t part)
 182:Middlewares/lvgl/src/core/lv_obj_style_gen.h **** {
 183:Middlewares/lvgl/src/core/lv_obj_style_gen.h ****     lv_style_value_t v = lv_obj_get_style_prop(obj, part, LV_STYLE_LAYOUT);
 184:Middlewares/lvgl/src/core/lv_obj_style_gen.h ****     return (uint16_t)v.num;
 185:Middlewares/lvgl/src/core/lv_obj_style_gen.h **** }
 186:Middlewares/lvgl/src/core/lv_obj_style_gen.h **** 
 187:Middlewares/lvgl/src/core/lv_obj_style_gen.h **** static inline lv_base_dir_t lv_obj_get_style_base_dir(const struct _lv_obj_t * obj, uint32_t part)
 188:Middlewares/lvgl/src/core/lv_obj_style_gen.h **** {
 189:Middlewares/lvgl/src/core/lv_obj_style_gen.h ****     lv_style_value_t v = lv_obj_get_style_prop(obj, part, LV_STYLE_BASE_DIR);
 190:Middlewares/lvgl/src/core/lv_obj_style_gen.h ****     return (lv_base_dir_t)v.num;
 191:Middlewares/lvgl/src/core/lv_obj_style_gen.h **** }
 192:Middlewares/lvgl/src/core/lv_obj_style_gen.h **** 
 193:Middlewares/lvgl/src/core/lv_obj_style_gen.h **** static inline lv_color_t lv_obj_get_style_bg_color(const struct _lv_obj_t * obj, uint32_t part)
 194:Middlewares/lvgl/src/core/lv_obj_style_gen.h **** {
 195:Middlewares/lvgl/src/core/lv_obj_style_gen.h ****     lv_style_value_t v = lv_obj_get_style_prop(obj, part, LV_STYLE_BG_COLOR);
 196:Middlewares/lvgl/src/core/lv_obj_style_gen.h ****     return v.color;
 197:Middlewares/lvgl/src/core/lv_obj_style_gen.h **** }
 198:Middlewares/lvgl/src/core/lv_obj_style_gen.h **** 
 199:Middlewares/lvgl/src/core/lv_obj_style_gen.h **** static inline lv_color_t lv_obj_get_style_bg_color_filtered(const struct _lv_obj_t * obj, uint32_t 
 200:Middlewares/lvgl/src/core/lv_obj_style_gen.h **** {
 201:Middlewares/lvgl/src/core/lv_obj_style_gen.h ****     lv_style_value_t v = lv_obj_get_style_prop(obj, part, LV_STYLE_BG_COLOR_FILTERED);
 202:Middlewares/lvgl/src/core/lv_obj_style_gen.h ****     return v.color;
 203:Middlewares/lvgl/src/core/lv_obj_style_gen.h **** }
 204:Middlewares/lvgl/src/core/lv_obj_style_gen.h **** 
 205:Middlewares/lvgl/src/core/lv_obj_style_gen.h **** static inline lv_opa_t lv_obj_get_style_bg_opa(const struct _lv_obj_t * obj, uint32_t part)
 206:Middlewares/lvgl/src/core/lv_obj_style_gen.h **** {
 207:Middlewares/lvgl/src/core/lv_obj_style_gen.h ****     lv_style_value_t v = lv_obj_get_style_prop(obj, part, LV_STYLE_BG_OPA);
 208:Middlewares/lvgl/src/core/lv_obj_style_gen.h ****     return (lv_opa_t)v.num;
 209:Middlewares/lvgl/src/core/lv_obj_style_gen.h **** }
 210:Middlewares/lvgl/src/core/lv_obj_style_gen.h **** 
 211:Middlewares/lvgl/src/core/lv_obj_style_gen.h **** static inline lv_color_t lv_obj_get_style_bg_grad_color(const struct _lv_obj_t * obj, uint32_t part
 212:Middlewares/lvgl/src/core/lv_obj_style_gen.h **** {
 213:Middlewares/lvgl/src/core/lv_obj_style_gen.h ****     lv_style_value_t v = lv_obj_get_style_prop(obj, part, LV_STYLE_BG_GRAD_COLOR);
 214:Middlewares/lvgl/src/core/lv_obj_style_gen.h ****     return v.color;
 215:Middlewares/lvgl/src/core/lv_obj_style_gen.h **** }
 216:Middlewares/lvgl/src/core/lv_obj_style_gen.h **** 
 217:Middlewares/lvgl/src/core/lv_obj_style_gen.h **** static inline lv_color_t lv_obj_get_style_bg_grad_color_filtered(const struct _lv_obj_t * obj, uint
 218:Middlewares/lvgl/src/core/lv_obj_style_gen.h **** {
ARM GAS  /tmp/ccSK5Jfi.s 			page 32


 219:Middlewares/lvgl/src/core/lv_obj_style_gen.h ****     lv_style_value_t v = lv_obj_get_style_prop(obj, part, LV_STYLE_BG_GRAD_COLOR_FILTERED);
 220:Middlewares/lvgl/src/core/lv_obj_style_gen.h ****     return v.color;
 221:Middlewares/lvgl/src/core/lv_obj_style_gen.h **** }
 222:Middlewares/lvgl/src/core/lv_obj_style_gen.h **** 
 223:Middlewares/lvgl/src/core/lv_obj_style_gen.h **** static inline lv_grad_dir_t lv_obj_get_style_bg_grad_dir(const struct _lv_obj_t * obj, uint32_t par
 224:Middlewares/lvgl/src/core/lv_obj_style_gen.h **** {
 225:Middlewares/lvgl/src/core/lv_obj_style_gen.h ****     lv_style_value_t v = lv_obj_get_style_prop(obj, part, LV_STYLE_BG_GRAD_DIR);
 226:Middlewares/lvgl/src/core/lv_obj_style_gen.h ****     return (lv_grad_dir_t)v.num;
 227:Middlewares/lvgl/src/core/lv_obj_style_gen.h **** }
 228:Middlewares/lvgl/src/core/lv_obj_style_gen.h **** 
 229:Middlewares/lvgl/src/core/lv_obj_style_gen.h **** static inline lv_coord_t lv_obj_get_style_bg_main_stop(const struct _lv_obj_t * obj, uint32_t part)
 230:Middlewares/lvgl/src/core/lv_obj_style_gen.h **** {
 231:Middlewares/lvgl/src/core/lv_obj_style_gen.h ****     lv_style_value_t v = lv_obj_get_style_prop(obj, part, LV_STYLE_BG_MAIN_STOP);
 232:Middlewares/lvgl/src/core/lv_obj_style_gen.h ****     return (lv_coord_t)v.num;
 233:Middlewares/lvgl/src/core/lv_obj_style_gen.h **** }
 234:Middlewares/lvgl/src/core/lv_obj_style_gen.h **** 
 235:Middlewares/lvgl/src/core/lv_obj_style_gen.h **** static inline lv_coord_t lv_obj_get_style_bg_grad_stop(const struct _lv_obj_t * obj, uint32_t part)
 236:Middlewares/lvgl/src/core/lv_obj_style_gen.h **** {
 237:Middlewares/lvgl/src/core/lv_obj_style_gen.h ****     lv_style_value_t v = lv_obj_get_style_prop(obj, part, LV_STYLE_BG_GRAD_STOP);
 238:Middlewares/lvgl/src/core/lv_obj_style_gen.h ****     return (lv_coord_t)v.num;
 239:Middlewares/lvgl/src/core/lv_obj_style_gen.h **** }
 240:Middlewares/lvgl/src/core/lv_obj_style_gen.h **** 
 241:Middlewares/lvgl/src/core/lv_obj_style_gen.h **** static inline const void * lv_obj_get_style_bg_img_src(const struct _lv_obj_t * obj, uint32_t part)
 242:Middlewares/lvgl/src/core/lv_obj_style_gen.h **** {
 243:Middlewares/lvgl/src/core/lv_obj_style_gen.h ****     lv_style_value_t v = lv_obj_get_style_prop(obj, part, LV_STYLE_BG_IMG_SRC);
 244:Middlewares/lvgl/src/core/lv_obj_style_gen.h ****     return (const void *)v.ptr;
 245:Middlewares/lvgl/src/core/lv_obj_style_gen.h **** }
 246:Middlewares/lvgl/src/core/lv_obj_style_gen.h **** 
 247:Middlewares/lvgl/src/core/lv_obj_style_gen.h **** static inline lv_opa_t lv_obj_get_style_bg_img_opa(const struct _lv_obj_t * obj, uint32_t part)
 248:Middlewares/lvgl/src/core/lv_obj_style_gen.h **** {
 249:Middlewares/lvgl/src/core/lv_obj_style_gen.h ****     lv_style_value_t v = lv_obj_get_style_prop(obj, part, LV_STYLE_BG_IMG_OPA);
 250:Middlewares/lvgl/src/core/lv_obj_style_gen.h ****     return (lv_opa_t)v.num;
 251:Middlewares/lvgl/src/core/lv_obj_style_gen.h **** }
 252:Middlewares/lvgl/src/core/lv_obj_style_gen.h **** 
 253:Middlewares/lvgl/src/core/lv_obj_style_gen.h **** static inline lv_color_t lv_obj_get_style_bg_img_recolor(const struct _lv_obj_t * obj, uint32_t par
 254:Middlewares/lvgl/src/core/lv_obj_style_gen.h **** {
 255:Middlewares/lvgl/src/core/lv_obj_style_gen.h ****     lv_style_value_t v = lv_obj_get_style_prop(obj, part, LV_STYLE_BG_IMG_RECOLOR);
 256:Middlewares/lvgl/src/core/lv_obj_style_gen.h ****     return v.color;
 257:Middlewares/lvgl/src/core/lv_obj_style_gen.h **** }
 258:Middlewares/lvgl/src/core/lv_obj_style_gen.h **** 
 259:Middlewares/lvgl/src/core/lv_obj_style_gen.h **** static inline lv_color_t lv_obj_get_style_bg_img_recolor_filtered(const struct _lv_obj_t * obj, uin
 260:Middlewares/lvgl/src/core/lv_obj_style_gen.h **** {
 261:Middlewares/lvgl/src/core/lv_obj_style_gen.h ****     lv_style_value_t v = lv_obj_get_style_prop(obj, part, LV_STYLE_BG_IMG_RECOLOR_FILTERED);
 262:Middlewares/lvgl/src/core/lv_obj_style_gen.h ****     return v.color;
 263:Middlewares/lvgl/src/core/lv_obj_style_gen.h **** }
 264:Middlewares/lvgl/src/core/lv_obj_style_gen.h **** 
 265:Middlewares/lvgl/src/core/lv_obj_style_gen.h **** static inline lv_opa_t lv_obj_get_style_bg_img_recolor_opa(const struct _lv_obj_t * obj, uint32_t p
 266:Middlewares/lvgl/src/core/lv_obj_style_gen.h **** {
 267:Middlewares/lvgl/src/core/lv_obj_style_gen.h ****     lv_style_value_t v = lv_obj_get_style_prop(obj, part, LV_STYLE_BG_IMG_RECOLOR_OPA);
 268:Middlewares/lvgl/src/core/lv_obj_style_gen.h ****     return (lv_opa_t)v.num;
 269:Middlewares/lvgl/src/core/lv_obj_style_gen.h **** }
 270:Middlewares/lvgl/src/core/lv_obj_style_gen.h **** 
 271:Middlewares/lvgl/src/core/lv_obj_style_gen.h **** static inline bool lv_obj_get_style_bg_img_tiled(const struct _lv_obj_t * obj, uint32_t part)
 272:Middlewares/lvgl/src/core/lv_obj_style_gen.h **** {
 273:Middlewares/lvgl/src/core/lv_obj_style_gen.h ****     lv_style_value_t v = lv_obj_get_style_prop(obj, part, LV_STYLE_BG_IMG_TILED);
 274:Middlewares/lvgl/src/core/lv_obj_style_gen.h ****     return (bool)v.num;
 275:Middlewares/lvgl/src/core/lv_obj_style_gen.h **** }
ARM GAS  /tmp/ccSK5Jfi.s 			page 33


 276:Middlewares/lvgl/src/core/lv_obj_style_gen.h **** 
 277:Middlewares/lvgl/src/core/lv_obj_style_gen.h **** static inline lv_color_t lv_obj_get_style_border_color(const struct _lv_obj_t * obj, uint32_t part)
 278:Middlewares/lvgl/src/core/lv_obj_style_gen.h **** {
 279:Middlewares/lvgl/src/core/lv_obj_style_gen.h ****     lv_style_value_t v = lv_obj_get_style_prop(obj, part, LV_STYLE_BORDER_COLOR);
 280:Middlewares/lvgl/src/core/lv_obj_style_gen.h ****     return v.color;
 281:Middlewares/lvgl/src/core/lv_obj_style_gen.h **** }
 282:Middlewares/lvgl/src/core/lv_obj_style_gen.h **** 
 283:Middlewares/lvgl/src/core/lv_obj_style_gen.h **** static inline lv_color_t lv_obj_get_style_border_color_filtered(const struct _lv_obj_t * obj, uint3
 284:Middlewares/lvgl/src/core/lv_obj_style_gen.h **** {
 285:Middlewares/lvgl/src/core/lv_obj_style_gen.h ****     lv_style_value_t v = lv_obj_get_style_prop(obj, part, LV_STYLE_BORDER_COLOR_FILTERED);
 286:Middlewares/lvgl/src/core/lv_obj_style_gen.h ****     return v.color;
 287:Middlewares/lvgl/src/core/lv_obj_style_gen.h **** }
 288:Middlewares/lvgl/src/core/lv_obj_style_gen.h **** 
 289:Middlewares/lvgl/src/core/lv_obj_style_gen.h **** static inline lv_opa_t lv_obj_get_style_border_opa(const struct _lv_obj_t * obj, uint32_t part)
 290:Middlewares/lvgl/src/core/lv_obj_style_gen.h **** {
 291:Middlewares/lvgl/src/core/lv_obj_style_gen.h ****     lv_style_value_t v = lv_obj_get_style_prop(obj, part, LV_STYLE_BORDER_OPA);
 292:Middlewares/lvgl/src/core/lv_obj_style_gen.h ****     return (lv_opa_t)v.num;
 293:Middlewares/lvgl/src/core/lv_obj_style_gen.h **** }
 294:Middlewares/lvgl/src/core/lv_obj_style_gen.h **** 
 295:Middlewares/lvgl/src/core/lv_obj_style_gen.h **** static inline lv_coord_t lv_obj_get_style_border_width(const struct _lv_obj_t * obj, uint32_t part)
 812              		.loc 2 295 26 view .LVU189
 813              	.LBB98:
 296:Middlewares/lvgl/src/core/lv_obj_style_gen.h **** {
 297:Middlewares/lvgl/src/core/lv_obj_style_gen.h ****     lv_style_value_t v = lv_obj_get_style_prop(obj, part, LV_STYLE_BORDER_WIDTH);
 814              		.loc 2 297 5 view .LVU190
 815              		.loc 2 297 26 is_stmt 0 view .LVU191
 816 0056 41F23202 		movw	r2, #4146
 817 005a 0021     		movs	r1, #0
 818 005c 3846     		mov	r0, r7
 819 005e FFF7FEFF 		bl	lv_obj_get_style_prop
 820              	.LVL71:
 821 0062 8046     		mov	r8, r0
 822              	.LVL72:
 298:Middlewares/lvgl/src/core/lv_obj_style_gen.h ****     return (lv_coord_t)v.num;
 823              		.loc 2 298 5 is_stmt 1 view .LVU192
 824              		.loc 2 298 5 is_stmt 0 view .LVU193
 825              	.LBE98:
 826              	.LBE97:
 151:Middlewares/lvgl/src/core/lv_obj_scroll.c ****         child_res -= (obj->coords.y2 - pad_bottom - border_width);
 827              		.loc 1 151 5 is_stmt 1 view .LVU194
 151:Middlewares/lvgl/src/core/lv_obj_scroll.c ****         child_res -= (obj->coords.y2 - pad_bottom - border_width);
 828              		.loc 1 151 7 is_stmt 0 view .LVU195
 829 0064 16F5C04F 		cmn	r6, #24576
 830 0068 05D0     		beq	.L47
 152:Middlewares/lvgl/src/core/lv_obj_scroll.c ****     }
 831              		.loc 1 152 9 is_stmt 1 view .LVU196
 152:Middlewares/lvgl/src/core/lv_obj_scroll.c ****     }
 832              		.loc 1 152 34 is_stmt 0 view .LVU197
 833 006a 7B8B     		ldrh	r3, [r7, #26]
 152:Middlewares/lvgl/src/core/lv_obj_scroll.c ****     }
 834              		.loc 1 152 19 view .LVU198
 835 006c AAEB0303 		sub	r3, r10, r3
 836 0070 0344     		add	r3, r3, r0
 837 0072 1E44     		add	r6, r6, r3
 838              	.LVL73:
 152:Middlewares/lvgl/src/core/lv_obj_scroll.c ****     }
 839              		.loc 1 152 19 view .LVU199
ARM GAS  /tmp/ccSK5Jfi.s 			page 34


 840 0074 36B2     		sxth	r6, r6
 841              	.LVL74:
 842              	.L47:
 155:Middlewares/lvgl/src/core/lv_obj_scroll.c ****     self_h = self_h - (lv_obj_get_height(obj) - pad_top - pad_bottom - 2 * border_width);
 843              		.loc 1 155 5 is_stmt 1 view .LVU200
 155:Middlewares/lvgl/src/core/lv_obj_scroll.c ****     self_h = self_h - (lv_obj_get_height(obj) - pad_top - pad_bottom - 2 * border_width);
 844              		.loc 1 155 25 is_stmt 0 view .LVU201
 845 0076 3846     		mov	r0, r7
 846              	.LVL75:
 155:Middlewares/lvgl/src/core/lv_obj_scroll.c ****     self_h = self_h - (lv_obj_get_height(obj) - pad_top - pad_bottom - 2 * border_width);
 847              		.loc 1 155 25 view .LVU202
 848 0078 FFF7FEFF 		bl	lv_obj_get_self_height
 849              	.LVL76:
 850 007c 8146     		mov	r9, r0
 851              	.LVL77:
 156:Middlewares/lvgl/src/core/lv_obj_scroll.c ****     self_h -= lv_obj_get_scroll_y(obj);
 852              		.loc 1 156 5 is_stmt 1 view .LVU203
 156:Middlewares/lvgl/src/core/lv_obj_scroll.c ****     self_h -= lv_obj_get_scroll_y(obj);
 853              		.loc 1 156 74 is_stmt 0 view .LVU204
 854 007e 4FEA4808 		lsl	r8, r8, #1
 855 0082 1FFA88F8 		uxth	r8, r8
 156:Middlewares/lvgl/src/core/lv_obj_scroll.c ****     self_h -= lv_obj_get_scroll_y(obj);
 856              		.loc 1 156 24 view .LVU205
 857 0086 3846     		mov	r0, r7
 858 0088 FFF7FEFF 		bl	lv_obj_get_height
 859              	.LVL78:
 860 008c 84B2     		uxth	r4, r0
 861              	.LVL79:
 156:Middlewares/lvgl/src/core/lv_obj_scroll.c ****     self_h -= lv_obj_get_scroll_y(obj);
 862              		.loc 1 156 47 view .LVU206
 863 008e 2D1B     		subs	r5, r5, r4
 864              	.LVL80:
 156:Middlewares/lvgl/src/core/lv_obj_scroll.c ****     self_h -= lv_obj_get_scroll_y(obj);
 865              		.loc 1 156 57 view .LVU207
 866 0090 1AFA85F4 		uxtah	r4, r10, r5
 156:Middlewares/lvgl/src/core/lv_obj_scroll.c ****     self_h -= lv_obj_get_scroll_y(obj);
 867              		.loc 1 156 70 view .LVU208
 868 0094 18FA84F4 		uxtah	r4, r8, r4
 156:Middlewares/lvgl/src/core/lv_obj_scroll.c ****     self_h -= lv_obj_get_scroll_y(obj);
 869              		.loc 1 156 21 view .LVU209
 870 0098 19FA84F4 		uxtah	r4, r9, r4
 871 009c A4B2     		uxth	r4, r4
 872              	.LVL81:
 157:Middlewares/lvgl/src/core/lv_obj_scroll.c ****     return LV_MAX(child_res, self_h);
 873              		.loc 1 157 5 is_stmt 1 view .LVU210
 157:Middlewares/lvgl/src/core/lv_obj_scroll.c ****     return LV_MAX(child_res, self_h);
 874              		.loc 1 157 15 is_stmt 0 view .LVU211
 875 009e 3846     		mov	r0, r7
 876 00a0 FFF7FEFF 		bl	lv_obj_get_scroll_y
 877              	.LVL82:
 878 00a4 80B2     		uxth	r0, r0
 157:Middlewares/lvgl/src/core/lv_obj_scroll.c ****     return LV_MAX(child_res, self_h);
 879              		.loc 1 157 12 view .LVU212
 880 00a6 201A     		subs	r0, r4, r0
 881 00a8 00B2     		sxth	r0, r0
 882              	.LVL83:
 158:Middlewares/lvgl/src/core/lv_obj_scroll.c **** }
ARM GAS  /tmp/ccSK5Jfi.s 			page 35


 883              		.loc 1 158 5 is_stmt 1 view .LVU213
 159:Middlewares/lvgl/src/core/lv_obj_scroll.c **** 
 884              		.loc 1 159 1 is_stmt 0 view .LVU214
 885 00aa B042     		cmp	r0, r6
 886 00ac B8BF     		it	lt
 887 00ae 3046     		movlt	r0, r6
 888              	.LVL84:
 159:Middlewares/lvgl/src/core/lv_obj_scroll.c **** 
 889              		.loc 1 159 1 view .LVU215
 890 00b0 BDE8F087 		pop	{r4, r5, r6, r7, r8, r9, r10, pc}
 891              	.LVL85:
 892              	.L52:
 159:Middlewares/lvgl/src/core/lv_obj_scroll.c **** 
 893              		.loc 1 159 1 view .LVU216
 894              		.align	2
 895              	.L51:
 896 00b4 00A0FFFF 		.word	-24576
 897              		.cfi_endproc
 898              	.LFE164:
 900              		.section	.text.lv_obj_get_scroll_left,"ax",%progbits
 901              		.align	1
 902              		.global	lv_obj_get_scroll_left
 903              		.syntax unified
 904              		.thumb
 905              		.thumb_func
 906              		.fpu fpv4-sp-d16
 908              	lv_obj_get_scroll_left:
 909              	.LVL86:
 910              	.LFB165:
 162:Middlewares/lvgl/src/core/lv_obj_scroll.c ****     LV_ASSERT_OBJ(obj, MY_CLASS);
 911              		.loc 1 162 1 is_stmt 1 view -0
 912              		.cfi_startproc
 913              		@ args = 0, pretend = 0, frame = 0
 914              		@ frame_needed = 0, uses_anonymous_args = 0
 162:Middlewares/lvgl/src/core/lv_obj_scroll.c ****     LV_ASSERT_OBJ(obj, MY_CLASS);
 915              		.loc 1 162 1 is_stmt 0 view .LVU218
 916 0000 2DE9F84F 		push	{r3, r4, r5, r6, r7, r8, r9, r10, fp, lr}
 917              	.LCFI9:
 918              		.cfi_def_cfa_offset 40
 919              		.cfi_offset 3, -40
 920              		.cfi_offset 4, -36
 921              		.cfi_offset 5, -32
 922              		.cfi_offset 6, -28
 923              		.cfi_offset 7, -24
 924              		.cfi_offset 8, -20
 925              		.cfi_offset 9, -16
 926              		.cfi_offset 10, -12
 927              		.cfi_offset 11, -8
 928              		.cfi_offset 14, -4
 929 0004 0446     		mov	r4, r0
 163:Middlewares/lvgl/src/core/lv_obj_scroll.c **** 
 930              		.loc 1 163 5 is_stmt 1 view .LVU219
 163:Middlewares/lvgl/src/core/lv_obj_scroll.c **** 
 931              		.loc 1 163 5 view .LVU220
 163:Middlewares/lvgl/src/core/lv_obj_scroll.c **** 
 932              		.loc 1 163 5 view .LVU221
 167:Middlewares/lvgl/src/core/lv_obj_scroll.c ****         if(obj->spec_attr == NULL) return 0;
ARM GAS  /tmp/ccSK5Jfi.s 			page 36


 933              		.loc 1 167 5 view .LVU222
 934              	.LVL87:
 935              	.LBB99:
 936              	.LBI99:
 187:Middlewares/lvgl/src/core/lv_obj_style_gen.h **** {
 937              		.loc 2 187 29 view .LVU223
 938              	.LBB100:
 189:Middlewares/lvgl/src/core/lv_obj_style_gen.h ****     return (lv_base_dir_t)v.num;
 939              		.loc 2 189 5 view .LVU224
 189:Middlewares/lvgl/src/core/lv_obj_style_gen.h ****     return (lv_base_dir_t)v.num;
 940              		.loc 2 189 26 is_stmt 0 view .LVU225
 941 0006 41F26A42 		movw	r2, #5226
 942 000a 0021     		movs	r1, #0
 943 000c FFF7FEFF 		bl	lv_obj_get_style_prop
 944              	.LVL88:
 190:Middlewares/lvgl/src/core/lv_obj_style_gen.h **** }
 945              		.loc 2 190 5 is_stmt 1 view .LVU226
 190:Middlewares/lvgl/src/core/lv_obj_style_gen.h **** }
 946              		.loc 2 190 12 is_stmt 0 view .LVU227
 947 0010 C0B2     		uxtb	r0, r0
 948              	.LVL89:
 190:Middlewares/lvgl/src/core/lv_obj_style_gen.h **** }
 949              		.loc 2 190 12 view .LVU228
 950              	.LBE100:
 951              	.LBE99:
 167:Middlewares/lvgl/src/core/lv_obj_scroll.c ****         if(obj->spec_attr == NULL) return 0;
 952              		.loc 1 167 7 view .LVU229
 953 0012 0128     		cmp	r0, #1
 954 0014 07D0     		beq	.L54
 168:Middlewares/lvgl/src/core/lv_obj_scroll.c ****         return -obj->spec_attr->scroll.x;
 955              		.loc 1 168 9 is_stmt 1 view .LVU230
 168:Middlewares/lvgl/src/core/lv_obj_scroll.c ****         return -obj->spec_attr->scroll.x;
 956              		.loc 1 168 15 is_stmt 0 view .LVU231
 957 0016 A368     		ldr	r3, [r4, #8]
 168:Middlewares/lvgl/src/core/lv_obj_scroll.c ****         return -obj->spec_attr->scroll.x;
 958              		.loc 1 168 11 view .LVU232
 959 0018 002B     		cmp	r3, #0
 960 001a 60D0     		beq	.L60
 169:Middlewares/lvgl/src/core/lv_obj_scroll.c ****     }
 961              		.loc 1 169 9 is_stmt 1 view .LVU233
 169:Middlewares/lvgl/src/core/lv_obj_scroll.c ****     }
 962              		.loc 1 169 39 is_stmt 0 view .LVU234
 963 001c 188A     		ldrh	r0, [r3, #16]
 169:Middlewares/lvgl/src/core/lv_obj_scroll.c ****     }
 964              		.loc 1 169 16 view .LVU235
 965 001e 4042     		rsbs	r0, r0, #0
 966 0020 00B2     		sxth	r0, r0
 967              	.L55:
 201:Middlewares/lvgl/src/core/lv_obj_scroll.c **** 
 968              		.loc 1 201 1 view .LVU236
 969 0022 BDE8F88F 		pop	{r3, r4, r5, r6, r7, r8, r9, r10, fp, pc}
 970              	.LVL90:
 971              	.L54:
 173:Middlewares/lvgl/src/core/lv_obj_scroll.c ****     lv_coord_t pad_left = lv_obj_get_style_pad_left(obj, LV_PART_MAIN);
 972              		.loc 1 173 5 is_stmt 1 view .LVU237
 973              	.LBB101:
 974              	.LBI101:
ARM GAS  /tmp/ccSK5Jfi.s 			page 37


 109:Middlewares/lvgl/src/core/lv_obj_style_gen.h **** {
 975              		.loc 2 109 26 view .LVU238
 976              	.LBB102:
 111:Middlewares/lvgl/src/core/lv_obj_style_gen.h ****     return (lv_coord_t)v.num;
 977              		.loc 2 111 5 view .LVU239
 111:Middlewares/lvgl/src/core/lv_obj_style_gen.h ****     return (lv_coord_t)v.num;
 978              		.loc 2 111 26 is_stmt 0 view .LVU240
 979 0026 41F21302 		movw	r2, #4115
 980 002a 0021     		movs	r1, #0
 981 002c 2046     		mov	r0, r4
 982 002e FFF7FEFF 		bl	lv_obj_get_style_prop
 983              	.LVL91:
 984 0032 0746     		mov	r7, r0
 112:Middlewares/lvgl/src/core/lv_obj_style_gen.h **** }
 985              		.loc 2 112 5 is_stmt 1 view .LVU241
 986              	.LVL92:
 112:Middlewares/lvgl/src/core/lv_obj_style_gen.h **** }
 987              		.loc 2 112 5 is_stmt 0 view .LVU242
 988              	.LBE102:
 989              	.LBE101:
 174:Middlewares/lvgl/src/core/lv_obj_scroll.c ****     lv_coord_t border_width = lv_obj_get_style_border_width(obj, LV_PART_MAIN);
 990              		.loc 1 174 5 is_stmt 1 view .LVU243
 991              	.LBB103:
 992              	.LBI103:
 103:Middlewares/lvgl/src/core/lv_obj_style_gen.h **** {
 993              		.loc 2 103 26 view .LVU244
 994              	.LBB104:
 105:Middlewares/lvgl/src/core/lv_obj_style_gen.h ****     return (lv_coord_t)v.num;
 995              		.loc 2 105 5 view .LVU245
 105:Middlewares/lvgl/src/core/lv_obj_style_gen.h ****     return (lv_coord_t)v.num;
 996              		.loc 2 105 26 is_stmt 0 view .LVU246
 997 0034 41F21202 		movw	r2, #4114
 998 0038 0021     		movs	r1, #0
 999 003a 2046     		mov	r0, r4
 1000 003c FFF7FEFF 		bl	lv_obj_get_style_prop
 1001              	.LVL93:
 1002 0040 8246     		mov	r10, r0
 106:Middlewares/lvgl/src/core/lv_obj_style_gen.h **** }
 1003              		.loc 2 106 5 is_stmt 1 view .LVU247
 1004              	.LVL94:
 106:Middlewares/lvgl/src/core/lv_obj_style_gen.h **** }
 1005              		.loc 2 106 5 is_stmt 0 view .LVU248
 1006              	.LBE104:
 1007              	.LBE103:
 175:Middlewares/lvgl/src/core/lv_obj_scroll.c **** 
 1008              		.loc 1 175 5 is_stmt 1 view .LVU249
 1009              	.LBB105:
 1010              	.LBI105:
 295:Middlewares/lvgl/src/core/lv_obj_style_gen.h **** {
 1011              		.loc 2 295 26 view .LVU250
 1012              	.LBB106:
 297:Middlewares/lvgl/src/core/lv_obj_style_gen.h ****     return (lv_coord_t)v.num;
 1013              		.loc 2 297 5 view .LVU251
 297:Middlewares/lvgl/src/core/lv_obj_style_gen.h ****     return (lv_coord_t)v.num;
 1014              		.loc 2 297 26 is_stmt 0 view .LVU252
 1015 0042 41F23202 		movw	r2, #4146
 1016 0046 0021     		movs	r1, #0
ARM GAS  /tmp/ccSK5Jfi.s 			page 38


 1017 0048 2046     		mov	r0, r4
 1018 004a FFF7FEFF 		bl	lv_obj_get_style_prop
 1019              	.LVL95:
 1020 004e 8146     		mov	r9, r0
 1021              		.loc 2 298 5 is_stmt 1 view .LVU253
 1022              	.LVL96:
 1023              		.loc 2 298 5 is_stmt 0 view .LVU254
 1024              	.LBE106:
 1025              	.LBE105:
 177:Middlewares/lvgl/src/core/lv_obj_scroll.c **** 
 1026              		.loc 1 177 5 is_stmt 1 view .LVU255
 179:Middlewares/lvgl/src/core/lv_obj_scroll.c ****     lv_coord_t x1 = LV_COORD_MAX;
 1027              		.loc 1 179 5 view .LVU256
 180:Middlewares/lvgl/src/core/lv_obj_scroll.c ****     uint32_t child_cnt = lv_obj_get_child_cnt(obj);
 1028              		.loc 1 180 5 view .LVU257
 181:Middlewares/lvgl/src/core/lv_obj_scroll.c ****     for(i = 0; i < child_cnt; i++) {
 1029              		.loc 1 181 5 view .LVU258
 181:Middlewares/lvgl/src/core/lv_obj_scroll.c ****     for(i = 0; i < child_cnt; i++) {
 1030              		.loc 1 181 26 is_stmt 0 view .LVU259
 1031 0050 2046     		mov	r0, r4
 1032 0052 FFF7FEFF 		bl	lv_obj_get_child_cnt
 1033              	.LVL97:
 1034 0056 8346     		mov	fp, r0
 1035              	.LVL98:
 182:Middlewares/lvgl/src/core/lv_obj_scroll.c ****        lv_obj_t * child = lv_obj_get_child(obj, i);
 1036              		.loc 1 182 5 is_stmt 1 view .LVU260
 180:Middlewares/lvgl/src/core/lv_obj_scroll.c ****     uint32_t child_cnt = lv_obj_get_child_cnt(obj);
 1037              		.loc 1 180 16 is_stmt 0 view .LVU261
 1038 0058 4FF4C048 		mov	r8, #24576
 182:Middlewares/lvgl/src/core/lv_obj_scroll.c ****        lv_obj_t * child = lv_obj_get_child(obj, i);
 1039              		.loc 1 182 11 view .LVU262
 1040 005c 0025     		movs	r5, #0
 182:Middlewares/lvgl/src/core/lv_obj_scroll.c ****        lv_obj_t * child = lv_obj_get_child(obj, i);
 1041              		.loc 1 182 5 view .LVU263
 1042 005e 05E0     		b	.L56
 1043              	.LVL99:
 1044              	.L64:
 1045              	.LBB107:
 185:Middlewares/lvgl/src/core/lv_obj_scroll.c **** 
 1046              		.loc 1 185 9 is_stmt 1 view .LVU264
 185:Middlewares/lvgl/src/core/lv_obj_scroll.c **** 
 1047              		.loc 1 185 14 is_stmt 0 view .LVU265
 1048 0060 B6F91430 		ldrsh	r3, [r6, #20]
 185:Middlewares/lvgl/src/core/lv_obj_scroll.c **** 
 1049              		.loc 1 185 12 view .LVU266
 1050 0064 9845     		cmp	r8, r3
 1051 0066 A8BF     		it	ge
 1052 0068 9846     		movge	r8, r3
 1053              	.LVL100:
 1054              	.L57:
 185:Middlewares/lvgl/src/core/lv_obj_scroll.c **** 
 1055              		.loc 1 185 12 view .LVU267
 1056              	.LBE107:
 182:Middlewares/lvgl/src/core/lv_obj_scroll.c ****        lv_obj_t * child = lv_obj_get_child(obj, i);
 1057              		.loc 1 182 31 is_stmt 1 discriminator 2 view .LVU268
 182:Middlewares/lvgl/src/core/lv_obj_scroll.c ****        lv_obj_t * child = lv_obj_get_child(obj, i);
 1058              		.loc 1 182 32 is_stmt 0 discriminator 2 view .LVU269
ARM GAS  /tmp/ccSK5Jfi.s 			page 39


 1059 006a 0135     		adds	r5, r5, #1
 1060              	.LVL101:
 1061              	.L56:
 182:Middlewares/lvgl/src/core/lv_obj_scroll.c ****        lv_obj_t * child = lv_obj_get_child(obj, i);
 1062              		.loc 1 182 16 is_stmt 1 discriminator 1 view .LVU270
 182:Middlewares/lvgl/src/core/lv_obj_scroll.c ****        lv_obj_t * child = lv_obj_get_child(obj, i);
 1063              		.loc 1 182 5 is_stmt 0 discriminator 1 view .LVU271
 1064 006c 5D45     		cmp	r5, fp
 1065 006e 0BD2     		bcs	.L63
 1066              	.LBB108:
 183:Middlewares/lvgl/src/core/lv_obj_scroll.c ****        if(lv_obj_has_flag_any(child,  LV_OBJ_FLAG_HIDDEN | LV_OBJ_FLAG_FLOATING)) continue;
 1067              		.loc 1 183 8 is_stmt 1 view .LVU272
 183:Middlewares/lvgl/src/core/lv_obj_scroll.c ****        if(lv_obj_has_flag_any(child,  LV_OBJ_FLAG_HIDDEN | LV_OBJ_FLAG_FLOATING)) continue;
 1068              		.loc 1 183 27 is_stmt 0 view .LVU273
 1069 0070 2946     		mov	r1, r5
 1070 0072 2046     		mov	r0, r4
 1071 0074 FFF7FEFF 		bl	lv_obj_get_child
 1072              	.LVL102:
 1073 0078 0646     		mov	r6, r0
 1074              	.LVL103:
 184:Middlewares/lvgl/src/core/lv_obj_scroll.c ****         x1 = LV_MIN(x1, child->coords.x1);
 1075              		.loc 1 184 8 is_stmt 1 view .LVU274
 184:Middlewares/lvgl/src/core/lv_obj_scroll.c ****         x1 = LV_MIN(x1, child->coords.x1);
 1076              		.loc 1 184 11 is_stmt 0 view .LVU275
 1077 007a 4FF00111 		mov	r1, #65537
 1078 007e FFF7FEFF 		bl	lv_obj_has_flag_any
 1079              	.LVL104:
 184:Middlewares/lvgl/src/core/lv_obj_scroll.c ****         x1 = LV_MIN(x1, child->coords.x1);
 1080              		.loc 1 184 10 view .LVU276
 1081 0082 0028     		cmp	r0, #0
 1082 0084 ECD0     		beq	.L64
 1083 0086 F0E7     		b	.L57
 1084              	.LVL105:
 1085              	.L63:
 184:Middlewares/lvgl/src/core/lv_obj_scroll.c ****         x1 = LV_MIN(x1, child->coords.x1);
 1086              		.loc 1 184 10 view .LVU277
 1087              	.LBE108:
 189:Middlewares/lvgl/src/core/lv_obj_scroll.c ****         child_res = x1;
 1088              		.loc 1 189 5 is_stmt 1 view .LVU278
 189:Middlewares/lvgl/src/core/lv_obj_scroll.c ****         child_res = x1;
 1089              		.loc 1 189 7 is_stmt 0 view .LVU279
 1090 0088 B8F5C04F 		cmp	r8, #24576
 1091 008c 25D0     		beq	.L61
 190:Middlewares/lvgl/src/core/lv_obj_scroll.c ****         child_res = (obj->coords.x1 + pad_left + border_width) - child_res;
 1092              		.loc 1 190 9 is_stmt 1 view .LVU280
 1093              	.LVL106:
 191:Middlewares/lvgl/src/core/lv_obj_scroll.c ****     } else {
 1094              		.loc 1 191 9 view .LVU281
 191:Middlewares/lvgl/src/core/lv_obj_scroll.c ****     } else {
 1095              		.loc 1 191 33 is_stmt 0 view .LVU282
 1096 008e A08A     		ldrh	r0, [r4, #20]
 191:Middlewares/lvgl/src/core/lv_obj_scroll.c ****     } else {
 1097              		.loc 1 191 37 view .LVU283
 1098 0090 5044     		add	r0, r0, r10
 191:Middlewares/lvgl/src/core/lv_obj_scroll.c ****     } else {
 1099              		.loc 1 191 48 view .LVU284
 1100 0092 19FA80F0 		uxtah	r0, r9, r0
ARM GAS  /tmp/ccSK5Jfi.s 			page 40


 1101 0096 80B2     		uxth	r0, r0
 191:Middlewares/lvgl/src/core/lv_obj_scroll.c ****     } else {
 1102              		.loc 1 191 64 view .LVU285
 1103 0098 A0EB0800 		sub	r0, r0, r8
 191:Middlewares/lvgl/src/core/lv_obj_scroll.c ****     } else {
 1104              		.loc 1 191 19 view .LVU286
 1105 009c 05B2     		sxth	r5, r0
 1106              	.LVL107:
 1107              	.L59:
 196:Middlewares/lvgl/src/core/lv_obj_scroll.c ****     self_w = self_w - (lv_obj_get_width(obj) - pad_right - pad_left - 2 * border_width);
 1108              		.loc 1 196 5 is_stmt 1 view .LVU287
 196:Middlewares/lvgl/src/core/lv_obj_scroll.c ****     self_w = self_w - (lv_obj_get_width(obj) - pad_right - pad_left - 2 * border_width);
 1109              		.loc 1 196 25 is_stmt 0 view .LVU288
 1110 009e 2046     		mov	r0, r4
 1111 00a0 FFF7FEFF 		bl	lv_obj_get_self_width
 1112              	.LVL108:
 1113 00a4 8046     		mov	r8, r0
 1114              	.LVL109:
 197:Middlewares/lvgl/src/core/lv_obj_scroll.c ****     self_w += lv_obj_get_scroll_x(obj);
 1115              		.loc 1 197 5 is_stmt 1 view .LVU289
 197:Middlewares/lvgl/src/core/lv_obj_scroll.c ****     self_w += lv_obj_get_scroll_x(obj);
 1116              		.loc 1 197 73 is_stmt 0 view .LVU290
 1117 00a6 4FEA4909 		lsl	r9, r9, #1
 1118              	.LVL110:
 197:Middlewares/lvgl/src/core/lv_obj_scroll.c ****     self_w += lv_obj_get_scroll_x(obj);
 1119              		.loc 1 197 73 view .LVU291
 1120 00aa 1FFA89F9 		uxth	r9, r9
 197:Middlewares/lvgl/src/core/lv_obj_scroll.c ****     self_w += lv_obj_get_scroll_x(obj);
 1121              		.loc 1 197 24 view .LVU292
 1122 00ae 2046     		mov	r0, r4
 1123 00b0 FFF7FEFF 		bl	lv_obj_get_width
 1124              	.LVL111:
 1125 00b4 86B2     		uxth	r6, r0
 197:Middlewares/lvgl/src/core/lv_obj_scroll.c ****     self_w += lv_obj_get_scroll_x(obj);
 1126              		.loc 1 197 46 view .LVU293
 1127 00b6 BE1B     		subs	r6, r7, r6
 197:Middlewares/lvgl/src/core/lv_obj_scroll.c ****     self_w += lv_obj_get_scroll_x(obj);
 1128              		.loc 1 197 58 view .LVU294
 1129 00b8 1AFA86FA 		uxtah	r10, r10, r6
 1130              	.LVL112:
 197:Middlewares/lvgl/src/core/lv_obj_scroll.c ****     self_w += lv_obj_get_scroll_x(obj);
 1131              		.loc 1 197 69 view .LVU295
 1132 00bc 19FA8AF6 		uxtah	r6, r9, r10
 197:Middlewares/lvgl/src/core/lv_obj_scroll.c ****     self_w += lv_obj_get_scroll_x(obj);
 1133              		.loc 1 197 21 view .LVU296
 1134 00c0 18FA86F6 		uxtah	r6, r8, r6
 1135 00c4 B6B2     		uxth	r6, r6
 1136              	.LVL113:
 198:Middlewares/lvgl/src/core/lv_obj_scroll.c **** 
 1137              		.loc 1 198 5 is_stmt 1 view .LVU297
 198:Middlewares/lvgl/src/core/lv_obj_scroll.c **** 
 1138              		.loc 1 198 15 is_stmt 0 view .LVU298
 1139 00c6 2046     		mov	r0, r4
 1140 00c8 FFF7FEFF 		bl	lv_obj_get_scroll_x
 1141              	.LVL114:
 198:Middlewares/lvgl/src/core/lv_obj_scroll.c **** 
 1142              		.loc 1 198 12 view .LVU299
ARM GAS  /tmp/ccSK5Jfi.s 			page 41


 1143 00cc 16FA80F0 		uxtah	r0, r6, r0
 1144 00d0 00B2     		sxth	r0, r0
 1145              	.LVL115:
 200:Middlewares/lvgl/src/core/lv_obj_scroll.c **** }
 1146              		.loc 1 200 5 is_stmt 1 view .LVU300
 200:Middlewares/lvgl/src/core/lv_obj_scroll.c **** }
 1147              		.loc 1 200 12 is_stmt 0 view .LVU301
 1148 00d2 A842     		cmp	r0, r5
 1149 00d4 B8BF     		it	lt
 1150 00d6 2846     		movlt	r0, r5
 1151              	.LVL116:
 200:Middlewares/lvgl/src/core/lv_obj_scroll.c **** }
 1152              		.loc 1 200 12 view .LVU302
 1153 00d8 A3E7     		b	.L55
 1154              	.LVL117:
 1155              	.L61:
 193:Middlewares/lvgl/src/core/lv_obj_scroll.c ****     }
 1156              		.loc 1 193 19 view .LVU303
 1157 00da 024D     		ldr	r5, .L65
 1158              	.LVL118:
 193:Middlewares/lvgl/src/core/lv_obj_scroll.c ****     }
 1159              		.loc 1 193 19 view .LVU304
 1160 00dc DFE7     		b	.L59
 1161              	.LVL119:
 1162              	.L60:
 168:Middlewares/lvgl/src/core/lv_obj_scroll.c ****         return -obj->spec_attr->scroll.x;
 1163              		.loc 1 168 43 view .LVU305
 1164 00de 0020     		movs	r0, #0
 1165 00e0 9FE7     		b	.L55
 1166              	.L66:
 1167 00e2 00BF     		.align	2
 1168              	.L65:
 1169 00e4 00A0FFFF 		.word	-24576
 1170              		.cfi_endproc
 1171              	.LFE165:
 1173              		.section	.text.lv_obj_get_scroll_right,"ax",%progbits
 1174              		.align	1
 1175              		.global	lv_obj_get_scroll_right
 1176              		.syntax unified
 1177              		.thumb
 1178              		.thumb_func
 1179              		.fpu fpv4-sp-d16
 1181              	lv_obj_get_scroll_right:
 1182              	.LVL120:
 1183              	.LFB166:
 204:Middlewares/lvgl/src/core/lv_obj_scroll.c ****     LV_ASSERT_OBJ(obj, MY_CLASS);
 1184              		.loc 1 204 1 is_stmt 1 view -0
 1185              		.cfi_startproc
 1186              		@ args = 0, pretend = 0, frame = 0
 1187              		@ frame_needed = 0, uses_anonymous_args = 0
 204:Middlewares/lvgl/src/core/lv_obj_scroll.c ****     LV_ASSERT_OBJ(obj, MY_CLASS);
 1188              		.loc 1 204 1 is_stmt 0 view .LVU307
 1189 0000 2DE9F843 		push	{r3, r4, r5, r6, r7, r8, r9, lr}
 1190              	.LCFI10:
 1191              		.cfi_def_cfa_offset 32
 1192              		.cfi_offset 3, -32
 1193              		.cfi_offset 4, -28
ARM GAS  /tmp/ccSK5Jfi.s 			page 42


 1194              		.cfi_offset 5, -24
 1195              		.cfi_offset 6, -20
 1196              		.cfi_offset 7, -16
 1197              		.cfi_offset 8, -12
 1198              		.cfi_offset 9, -8
 1199              		.cfi_offset 14, -4
 1200 0004 0646     		mov	r6, r0
 205:Middlewares/lvgl/src/core/lv_obj_scroll.c **** 
 1201              		.loc 1 205 5 is_stmt 1 view .LVU308
 205:Middlewares/lvgl/src/core/lv_obj_scroll.c **** 
 1202              		.loc 1 205 5 view .LVU309
 205:Middlewares/lvgl/src/core/lv_obj_scroll.c **** 
 1203              		.loc 1 205 5 view .LVU310
 209:Middlewares/lvgl/src/core/lv_obj_scroll.c ****         if(obj->spec_attr == NULL) return 0;
 1204              		.loc 1 209 5 view .LVU311
 1205              	.LVL121:
 1206              	.LBB109:
 1207              	.LBI109:
 187:Middlewares/lvgl/src/core/lv_obj_style_gen.h **** {
 1208              		.loc 2 187 29 view .LVU312
 1209              	.LBB110:
 189:Middlewares/lvgl/src/core/lv_obj_style_gen.h ****     return (lv_base_dir_t)v.num;
 1210              		.loc 2 189 5 view .LVU313
 189:Middlewares/lvgl/src/core/lv_obj_style_gen.h ****     return (lv_base_dir_t)v.num;
 1211              		.loc 2 189 26 is_stmt 0 view .LVU314
 1212 0006 41F26A42 		movw	r2, #5226
 1213 000a 0021     		movs	r1, #0
 1214 000c FFF7FEFF 		bl	lv_obj_get_style_prop
 1215              	.LVL122:
 190:Middlewares/lvgl/src/core/lv_obj_style_gen.h **** }
 1216              		.loc 2 190 5 is_stmt 1 view .LVU315
 190:Middlewares/lvgl/src/core/lv_obj_style_gen.h **** }
 1217              		.loc 2 190 12 is_stmt 0 view .LVU316
 1218 0010 C0B2     		uxtb	r0, r0
 1219              	.LVL123:
 190:Middlewares/lvgl/src/core/lv_obj_style_gen.h **** }
 1220              		.loc 2 190 12 view .LVU317
 1221              	.LBE110:
 1222              	.LBE109:
 209:Middlewares/lvgl/src/core/lv_obj_scroll.c ****         if(obj->spec_attr == NULL) return 0;
 1223              		.loc 1 209 7 view .LVU318
 1224 0012 0128     		cmp	r0, #1
 1225 0014 05D1     		bne	.L68
 210:Middlewares/lvgl/src/core/lv_obj_scroll.c ****         return obj->spec_attr->scroll.x;
 1226              		.loc 1 210 9 is_stmt 1 view .LVU319
 210:Middlewares/lvgl/src/core/lv_obj_scroll.c ****         return obj->spec_attr->scroll.x;
 1227              		.loc 1 210 15 is_stmt 0 view .LVU320
 1228 0016 B368     		ldr	r3, [r6, #8]
 210:Middlewares/lvgl/src/core/lv_obj_scroll.c ****         return obj->spec_attr->scroll.x;
 1229              		.loc 1 210 11 view .LVU321
 1230 0018 002B     		cmp	r3, #0
 1231 001a 57D0     		beq	.L74
 211:Middlewares/lvgl/src/core/lv_obj_scroll.c ****     }
 1232              		.loc 1 211 9 is_stmt 1 view .LVU322
 211:Middlewares/lvgl/src/core/lv_obj_scroll.c ****     }
 1233              		.loc 1 211 38 is_stmt 0 view .LVU323
 1234 001c B3F91000 		ldrsh	r0, [r3, #16]
ARM GAS  /tmp/ccSK5Jfi.s 			page 43


 1235 0020 52E0     		b	.L69
 1236              	.L68:
 215:Middlewares/lvgl/src/core/lv_obj_scroll.c ****     uint32_t i;
 1237              		.loc 1 215 5 is_stmt 1 view .LVU324
 1238              	.LVL124:
 216:Middlewares/lvgl/src/core/lv_obj_scroll.c ****     uint32_t child_cnt = lv_obj_get_child_cnt(obj);
 1239              		.loc 1 216 5 view .LVU325
 217:Middlewares/lvgl/src/core/lv_obj_scroll.c ****     for(i = 0; i < child_cnt; i++) {
 1240              		.loc 1 217 5 view .LVU326
 217:Middlewares/lvgl/src/core/lv_obj_scroll.c ****     for(i = 0; i < child_cnt; i++) {
 1241              		.loc 1 217 26 is_stmt 0 view .LVU327
 1242 0022 3046     		mov	r0, r6
 1243 0024 FFF7FEFF 		bl	lv_obj_get_child_cnt
 1244              	.LVL125:
 1245 0028 8046     		mov	r8, r0
 1246              	.LVL126:
 218:Middlewares/lvgl/src/core/lv_obj_scroll.c ****         lv_obj_t * child = lv_obj_get_child(obj, i);
 1247              		.loc 1 218 5 is_stmt 1 view .LVU328
 218:Middlewares/lvgl/src/core/lv_obj_scroll.c ****         lv_obj_t * child = lv_obj_get_child(obj, i);
 1248              		.loc 1 218 11 is_stmt 0 view .LVU329
 1249 002a 0024     		movs	r4, #0
 215:Middlewares/lvgl/src/core/lv_obj_scroll.c ****     uint32_t i;
 1250              		.loc 1 215 16 view .LVU330
 1251 002c 284F     		ldr	r7, .L78
 218:Middlewares/lvgl/src/core/lv_obj_scroll.c ****         lv_obj_t * child = lv_obj_get_child(obj, i);
 1252              		.loc 1 218 5 view .LVU331
 1253 002e 05E0     		b	.L70
 1254              	.LVL127:
 1255              	.L77:
 1256              	.LBB111:
 221:Middlewares/lvgl/src/core/lv_obj_scroll.c ****     }
 1257              		.loc 1 221 9 is_stmt 1 view .LVU332
 221:Middlewares/lvgl/src/core/lv_obj_scroll.c ****     }
 1258              		.loc 1 221 21 is_stmt 0 view .LVU333
 1259 0030 B5F91830 		ldrsh	r3, [r5, #24]
 221:Middlewares/lvgl/src/core/lv_obj_scroll.c ****     }
 1260              		.loc 1 221 19 view .LVU334
 1261 0034 9F42     		cmp	r7, r3
 1262 0036 B8BF     		it	lt
 1263 0038 1F46     		movlt	r7, r3
 1264              	.LVL128:
 1265              	.L71:
 221:Middlewares/lvgl/src/core/lv_obj_scroll.c ****     }
 1266              		.loc 1 221 19 view .LVU335
 1267              	.LBE111:
 218:Middlewares/lvgl/src/core/lv_obj_scroll.c ****         lv_obj_t * child = lv_obj_get_child(obj, i);
 1268              		.loc 1 218 31 is_stmt 1 discriminator 2 view .LVU336
 218:Middlewares/lvgl/src/core/lv_obj_scroll.c ****         lv_obj_t * child = lv_obj_get_child(obj, i);
 1269              		.loc 1 218 32 is_stmt 0 discriminator 2 view .LVU337
 1270 003a 0134     		adds	r4, r4, #1
 1271              	.LVL129:
 1272              	.L70:
 218:Middlewares/lvgl/src/core/lv_obj_scroll.c ****         lv_obj_t * child = lv_obj_get_child(obj, i);
 1273              		.loc 1 218 16 is_stmt 1 discriminator 1 view .LVU338
 218:Middlewares/lvgl/src/core/lv_obj_scroll.c ****         lv_obj_t * child = lv_obj_get_child(obj, i);
 1274              		.loc 1 218 5 is_stmt 0 discriminator 1 view .LVU339
 1275 003c 4445     		cmp	r4, r8
ARM GAS  /tmp/ccSK5Jfi.s 			page 44


 1276 003e 0BD2     		bcs	.L76
 1277              	.LBB112:
 219:Middlewares/lvgl/src/core/lv_obj_scroll.c ****         if(lv_obj_has_flag_any(child,  LV_OBJ_FLAG_HIDDEN | LV_OBJ_FLAG_FLOATING)) continue;
 1278              		.loc 1 219 9 is_stmt 1 view .LVU340
 219:Middlewares/lvgl/src/core/lv_obj_scroll.c ****         if(lv_obj_has_flag_any(child,  LV_OBJ_FLAG_HIDDEN | LV_OBJ_FLAG_FLOATING)) continue;
 1279              		.loc 1 219 28 is_stmt 0 view .LVU341
 1280 0040 2146     		mov	r1, r4
 1281 0042 3046     		mov	r0, r6
 1282 0044 FFF7FEFF 		bl	lv_obj_get_child
 1283              	.LVL130:
 1284 0048 0546     		mov	r5, r0
 1285              	.LVL131:
 220:Middlewares/lvgl/src/core/lv_obj_scroll.c ****         child_res = LV_MAX(child_res, child->coords.x2);
 1286              		.loc 1 220 9 is_stmt 1 view .LVU342
 220:Middlewares/lvgl/src/core/lv_obj_scroll.c ****         child_res = LV_MAX(child_res, child->coords.x2);
 1287              		.loc 1 220 12 is_stmt 0 view .LVU343
 1288 004a 4FF00111 		mov	r1, #65537
 1289 004e FFF7FEFF 		bl	lv_obj_has_flag_any
 1290              	.LVL132:
 220:Middlewares/lvgl/src/core/lv_obj_scroll.c ****         child_res = LV_MAX(child_res, child->coords.x2);
 1291              		.loc 1 220 11 view .LVU344
 1292 0052 0028     		cmp	r0, #0
 1293 0054 ECD0     		beq	.L77
 1294 0056 F0E7     		b	.L71
 1295              	.LVL133:
 1296              	.L76:
 220:Middlewares/lvgl/src/core/lv_obj_scroll.c ****         child_res = LV_MAX(child_res, child->coords.x2);
 1297              		.loc 1 220 11 view .LVU345
 1298              	.LBE112:
 224:Middlewares/lvgl/src/core/lv_obj_scroll.c ****     lv_coord_t pad_left = lv_obj_get_style_pad_left(obj, LV_PART_MAIN);
 1299              		.loc 1 224 5 is_stmt 1 view .LVU346
 1300              	.LBB113:
 1301              	.LBI113:
 109:Middlewares/lvgl/src/core/lv_obj_style_gen.h **** {
 1302              		.loc 2 109 26 view .LVU347
 1303              	.LBB114:
 111:Middlewares/lvgl/src/core/lv_obj_style_gen.h ****     return (lv_coord_t)v.num;
 1304              		.loc 2 111 5 view .LVU348
 111:Middlewares/lvgl/src/core/lv_obj_style_gen.h ****     return (lv_coord_t)v.num;
 1305              		.loc 2 111 26 is_stmt 0 view .LVU349
 1306 0058 41F21302 		movw	r2, #4115
 1307 005c 0021     		movs	r1, #0
 1308 005e 3046     		mov	r0, r6
 1309 0060 FFF7FEFF 		bl	lv_obj_get_style_prop
 1310              	.LVL134:
 1311 0064 0446     		mov	r4, r0
 1312              	.LVL135:
 112:Middlewares/lvgl/src/core/lv_obj_style_gen.h **** }
 1313              		.loc 2 112 5 is_stmt 1 view .LVU350
 112:Middlewares/lvgl/src/core/lv_obj_style_gen.h **** }
 1314              		.loc 2 112 5 is_stmt 0 view .LVU351
 1315              	.LBE114:
 1316              	.LBE113:
 225:Middlewares/lvgl/src/core/lv_obj_scroll.c ****     lv_coord_t border_width = lv_obj_get_style_border_width(obj, LV_PART_MAIN);
 1317              		.loc 1 225 5 is_stmt 1 view .LVU352
 1318              	.LBB115:
 1319              	.LBI115:
ARM GAS  /tmp/ccSK5Jfi.s 			page 45


 103:Middlewares/lvgl/src/core/lv_obj_style_gen.h **** {
 1320              		.loc 2 103 26 view .LVU353
 1321              	.LBB116:
 105:Middlewares/lvgl/src/core/lv_obj_style_gen.h ****     return (lv_coord_t)v.num;
 1322              		.loc 2 105 5 view .LVU354
 105:Middlewares/lvgl/src/core/lv_obj_style_gen.h ****     return (lv_coord_t)v.num;
 1323              		.loc 2 105 26 is_stmt 0 view .LVU355
 1324 0066 41F21202 		movw	r2, #4114
 1325 006a 0021     		movs	r1, #0
 1326 006c 3046     		mov	r0, r6
 1327 006e FFF7FEFF 		bl	lv_obj_get_style_prop
 1328              	.LVL136:
 1329 0072 8146     		mov	r9, r0
 106:Middlewares/lvgl/src/core/lv_obj_style_gen.h **** }
 1330              		.loc 2 106 5 is_stmt 1 view .LVU356
 1331              	.LVL137:
 106:Middlewares/lvgl/src/core/lv_obj_style_gen.h **** }
 1332              		.loc 2 106 5 is_stmt 0 view .LVU357
 1333              	.LBE116:
 1334              	.LBE115:
 226:Middlewares/lvgl/src/core/lv_obj_scroll.c **** 
 1335              		.loc 1 226 5 is_stmt 1 view .LVU358
 1336              	.LBB117:
 1337              	.LBI117:
 295:Middlewares/lvgl/src/core/lv_obj_style_gen.h **** {
 1338              		.loc 2 295 26 view .LVU359
 1339              	.LBB118:
 297:Middlewares/lvgl/src/core/lv_obj_style_gen.h ****     return (lv_coord_t)v.num;
 1340              		.loc 2 297 5 view .LVU360
 297:Middlewares/lvgl/src/core/lv_obj_style_gen.h ****     return (lv_coord_t)v.num;
 1341              		.loc 2 297 26 is_stmt 0 view .LVU361
 1342 0074 41F23202 		movw	r2, #4146
 1343 0078 0021     		movs	r1, #0
 1344 007a 3046     		mov	r0, r6
 1345 007c FFF7FEFF 		bl	lv_obj_get_style_prop
 1346              	.LVL138:
 1347 0080 0546     		mov	r5, r0
 1348              		.loc 2 298 5 is_stmt 1 view .LVU362
 1349              	.LVL139:
 1350              		.loc 2 298 5 is_stmt 0 view .LVU363
 1351              	.LBE118:
 1352              	.LBE117:
 228:Middlewares/lvgl/src/core/lv_obj_scroll.c ****         child_res -= (obj->coords.x2 - pad_right - border_width);
 1353              		.loc 1 228 5 is_stmt 1 view .LVU364
 228:Middlewares/lvgl/src/core/lv_obj_scroll.c ****         child_res -= (obj->coords.x2 - pad_right - border_width);
 1354              		.loc 1 228 7 is_stmt 0 view .LVU365
 1355 0082 17F5C04F 		cmn	r7, #24576
 1356 0086 04D0     		beq	.L73
 229:Middlewares/lvgl/src/core/lv_obj_scroll.c ****     }
 1357              		.loc 1 229 9 is_stmt 1 view .LVU366
 229:Middlewares/lvgl/src/core/lv_obj_scroll.c ****     }
 1358              		.loc 1 229 34 is_stmt 0 view .LVU367
 1359 0088 308B     		ldrh	r0, [r6, #24]
 229:Middlewares/lvgl/src/core/lv_obj_scroll.c ****     }
 1360              		.loc 1 229 19 view .LVU368
 1361 008a 201A     		subs	r0, r4, r0
 1362 008c 2844     		add	r0, r0, r5
ARM GAS  /tmp/ccSK5Jfi.s 			page 46


 1363 008e 0744     		add	r7, r7, r0
 1364              	.LVL140:
 229:Middlewares/lvgl/src/core/lv_obj_scroll.c ****     }
 1365              		.loc 1 229 19 view .LVU369
 1366 0090 3FB2     		sxth	r7, r7
 1367              	.LVL141:
 1368              	.L73:
 232:Middlewares/lvgl/src/core/lv_obj_scroll.c ****     self_w = lv_obj_get_self_width(obj);
 1369              		.loc 1 232 5 is_stmt 1 view .LVU370
 233:Middlewares/lvgl/src/core/lv_obj_scroll.c ****     self_w = self_w - (lv_obj_get_width(obj) - pad_right - pad_left - 2 * border_width);
 1370              		.loc 1 233 5 view .LVU371
 233:Middlewares/lvgl/src/core/lv_obj_scroll.c ****     self_w = self_w - (lv_obj_get_width(obj) - pad_right - pad_left - 2 * border_width);
 1371              		.loc 1 233 14 is_stmt 0 view .LVU372
 1372 0092 3046     		mov	r0, r6
 1373 0094 FFF7FEFF 		bl	lv_obj_get_self_width
 1374              	.LVL142:
 1375 0098 8046     		mov	r8, r0
 1376              	.LVL143:
 234:Middlewares/lvgl/src/core/lv_obj_scroll.c ****     self_w -= lv_obj_get_scroll_x(obj);
 1377              		.loc 1 234 5 is_stmt 1 view .LVU373
 234:Middlewares/lvgl/src/core/lv_obj_scroll.c ****     self_w -= lv_obj_get_scroll_x(obj);
 1378              		.loc 1 234 73 is_stmt 0 view .LVU374
 1379 009a 6D00     		lsls	r5, r5, #1
 1380              	.LVL144:
 234:Middlewares/lvgl/src/core/lv_obj_scroll.c ****     self_w -= lv_obj_get_scroll_x(obj);
 1381              		.loc 1 234 73 view .LVU375
 1382 009c ADB2     		uxth	r5, r5
 234:Middlewares/lvgl/src/core/lv_obj_scroll.c ****     self_w -= lv_obj_get_scroll_x(obj);
 1383              		.loc 1 234 24 view .LVU376
 1384 009e 3046     		mov	r0, r6
 1385 00a0 FFF7FEFF 		bl	lv_obj_get_width
 1386              	.LVL145:
 1387 00a4 80B2     		uxth	r0, r0
 234:Middlewares/lvgl/src/core/lv_obj_scroll.c ****     self_w -= lv_obj_get_scroll_x(obj);
 1388              		.loc 1 234 46 view .LVU377
 1389 00a6 241A     		subs	r4, r4, r0
 1390              	.LVL146:
 234:Middlewares/lvgl/src/core/lv_obj_scroll.c ****     self_w -= lv_obj_get_scroll_x(obj);
 1391              		.loc 1 234 58 view .LVU378
 1392 00a8 19FA84F4 		uxtah	r4, r9, r4
 234:Middlewares/lvgl/src/core/lv_obj_scroll.c ****     self_w -= lv_obj_get_scroll_x(obj);
 1393              		.loc 1 234 69 view .LVU379
 1394 00ac 15FA84F4 		uxtah	r4, r5, r4
 234:Middlewares/lvgl/src/core/lv_obj_scroll.c ****     self_w -= lv_obj_get_scroll_x(obj);
 1395              		.loc 1 234 21 view .LVU380
 1396 00b0 18FA84F4 		uxtah	r4, r8, r4
 1397 00b4 A4B2     		uxth	r4, r4
 1398              	.LVL147:
 235:Middlewares/lvgl/src/core/lv_obj_scroll.c ****     return LV_MAX(child_res, self_w);
 1399              		.loc 1 235 5 is_stmt 1 view .LVU381
 235:Middlewares/lvgl/src/core/lv_obj_scroll.c ****     return LV_MAX(child_res, self_w);
 1400              		.loc 1 235 15 is_stmt 0 view .LVU382
 1401 00b6 3046     		mov	r0, r6
 1402 00b8 FFF7FEFF 		bl	lv_obj_get_scroll_x
 1403              	.LVL148:
 1404 00bc 80B2     		uxth	r0, r0
 235:Middlewares/lvgl/src/core/lv_obj_scroll.c ****     return LV_MAX(child_res, self_w);
ARM GAS  /tmp/ccSK5Jfi.s 			page 47


 1405              		.loc 1 235 12 view .LVU383
 1406 00be 201A     		subs	r0, r4, r0
 1407 00c0 00B2     		sxth	r0, r0
 1408              	.LVL149:
 236:Middlewares/lvgl/src/core/lv_obj_scroll.c **** }
 1409              		.loc 1 236 5 is_stmt 1 view .LVU384
 236:Middlewares/lvgl/src/core/lv_obj_scroll.c **** }
 1410              		.loc 1 236 12 is_stmt 0 view .LVU385
 1411 00c2 B842     		cmp	r0, r7
 1412 00c4 B8BF     		it	lt
 1413 00c6 3846     		movlt	r0, r7
 1414              	.LVL150:
 1415              	.L69:
 237:Middlewares/lvgl/src/core/lv_obj_scroll.c **** 
 1416              		.loc 1 237 1 view .LVU386
 1417 00c8 BDE8F883 		pop	{r3, r4, r5, r6, r7, r8, r9, pc}
 1418              	.LVL151:
 1419              	.L74:
 210:Middlewares/lvgl/src/core/lv_obj_scroll.c ****         return obj->spec_attr->scroll.x;
 1420              		.loc 1 210 43 view .LVU387
 1421 00cc 0020     		movs	r0, #0
 1422 00ce FBE7     		b	.L69
 1423              	.L79:
 1424              		.align	2
 1425              	.L78:
 1426 00d0 00A0FFFF 		.word	-24576
 1427              		.cfi_endproc
 1428              	.LFE166:
 1430              		.section	.text.lv_obj_get_scroll_end,"ax",%progbits
 1431              		.align	1
 1432              		.global	lv_obj_get_scroll_end
 1433              		.syntax unified
 1434              		.thumb
 1435              		.thumb_func
 1436              		.fpu fpv4-sp-d16
 1438              	lv_obj_get_scroll_end:
 1439              	.LVL152:
 1440              	.LFB167:
 240:Middlewares/lvgl/src/core/lv_obj_scroll.c ****     lv_anim_t * a;
 1441              		.loc 1 240 1 is_stmt 1 view -0
 1442              		.cfi_startproc
 1443              		@ args = 0, pretend = 0, frame = 0
 1444              		@ frame_needed = 0, uses_anonymous_args = 0
 240:Middlewares/lvgl/src/core/lv_obj_scroll.c ****     lv_anim_t * a;
 1445              		.loc 1 240 1 is_stmt 0 view .LVU389
 1446 0000 38B5     		push	{r3, r4, r5, lr}
 1447              	.LCFI11:
 1448              		.cfi_def_cfa_offset 16
 1449              		.cfi_offset 3, -16
 1450              		.cfi_offset 4, -12
 1451              		.cfi_offset 5, -8
 1452              		.cfi_offset 14, -4
 1453 0002 0546     		mov	r5, r0
 1454 0004 0C46     		mov	r4, r1
 241:Middlewares/lvgl/src/core/lv_obj_scroll.c ****     a = lv_anim_get(obj, scroll_x_anim);
 1455              		.loc 1 241 5 is_stmt 1 view .LVU390
 242:Middlewares/lvgl/src/core/lv_obj_scroll.c ****     end->x = a ? -a->end_value : lv_obj_get_scroll_x(obj);
ARM GAS  /tmp/ccSK5Jfi.s 			page 48


 1456              		.loc 1 242 5 view .LVU391
 242:Middlewares/lvgl/src/core/lv_obj_scroll.c ****     end->x = a ? -a->end_value : lv_obj_get_scroll_x(obj);
 1457              		.loc 1 242 9 is_stmt 0 view .LVU392
 1458 0006 0D49     		ldr	r1, .L86
 1459              	.LVL153:
 242:Middlewares/lvgl/src/core/lv_obj_scroll.c ****     end->x = a ? -a->end_value : lv_obj_get_scroll_x(obj);
 1460              		.loc 1 242 9 view .LVU393
 1461 0008 FFF7FEFF 		bl	lv_anim_get
 1462              	.LVL154:
 243:Middlewares/lvgl/src/core/lv_obj_scroll.c **** 
 1463              		.loc 1 243 5 is_stmt 1 view .LVU394
 243:Middlewares/lvgl/src/core/lv_obj_scroll.c **** 
 1464              		.loc 1 243 12 is_stmt 0 view .LVU395
 1465 000c 68B1     		cbz	r0, .L81
 243:Middlewares/lvgl/src/core/lv_obj_scroll.c **** 
 1466              		.loc 1 243 20 discriminator 1 view .LVU396
 1467 000e 436A     		ldr	r3, [r0, #36]
 243:Middlewares/lvgl/src/core/lv_obj_scroll.c **** 
 1468              		.loc 1 243 12 discriminator 1 view .LVU397
 1469 0010 5B42     		rsbs	r3, r3, #0
 1470 0012 1BB2     		sxth	r3, r3
 1471              	.LVL155:
 1472              	.L82:
 243:Middlewares/lvgl/src/core/lv_obj_scroll.c **** 
 1473              		.loc 1 243 12 discriminator 4 view .LVU398
 1474 0014 2380     		strh	r3, [r4]	@ movhi
 245:Middlewares/lvgl/src/core/lv_obj_scroll.c ****     end->y = a ? -a->end_value : lv_obj_get_scroll_y(obj);
 1475              		.loc 1 245 5 is_stmt 1 discriminator 4 view .LVU399
 245:Middlewares/lvgl/src/core/lv_obj_scroll.c ****     end->y = a ? -a->end_value : lv_obj_get_scroll_y(obj);
 1476              		.loc 1 245 9 is_stmt 0 discriminator 4 view .LVU400
 1477 0016 0A49     		ldr	r1, .L86+4
 1478 0018 2846     		mov	r0, r5
 1479 001a FFF7FEFF 		bl	lv_anim_get
 1480              	.LVL156:
 246:Middlewares/lvgl/src/core/lv_obj_scroll.c **** }
 1481              		.loc 1 246 5 is_stmt 1 discriminator 4 view .LVU401
 246:Middlewares/lvgl/src/core/lv_obj_scroll.c **** }
 1482              		.loc 1 246 12 is_stmt 0 discriminator 4 view .LVU402
 1483 001e 48B1     		cbz	r0, .L83
 246:Middlewares/lvgl/src/core/lv_obj_scroll.c **** }
 1484              		.loc 1 246 20 discriminator 1 view .LVU403
 1485 0020 406A     		ldr	r0, [r0, #36]
 1486              	.LVL157:
 246:Middlewares/lvgl/src/core/lv_obj_scroll.c **** }
 1487              		.loc 1 246 12 discriminator 1 view .LVU404
 1488 0022 4042     		rsbs	r0, r0, #0
 1489 0024 00B2     		sxth	r0, r0
 1490              	.L84:
 246:Middlewares/lvgl/src/core/lv_obj_scroll.c **** }
 1491              		.loc 1 246 12 discriminator 4 view .LVU405
 1492 0026 6080     		strh	r0, [r4, #2]	@ movhi
 247:Middlewares/lvgl/src/core/lv_obj_scroll.c **** 
 1493              		.loc 1 247 1 discriminator 4 view .LVU406
 1494 0028 38BD     		pop	{r3, r4, r5, pc}
 1495              	.LVL158:
 1496              	.L81:
 243:Middlewares/lvgl/src/core/lv_obj_scroll.c **** 
ARM GAS  /tmp/ccSK5Jfi.s 			page 49


 1497              		.loc 1 243 34 discriminator 2 view .LVU407
 1498 002a 2846     		mov	r0, r5
 1499              	.LVL159:
 243:Middlewares/lvgl/src/core/lv_obj_scroll.c **** 
 1500              		.loc 1 243 34 discriminator 2 view .LVU408
 1501 002c FFF7FEFF 		bl	lv_obj_get_scroll_x
 1502              	.LVL160:
 1503 0030 0346     		mov	r3, r0
 1504 0032 EFE7     		b	.L82
 1505              	.LVL161:
 1506              	.L83:
 246:Middlewares/lvgl/src/core/lv_obj_scroll.c **** }
 1507              		.loc 1 246 34 discriminator 2 view .LVU409
 1508 0034 2846     		mov	r0, r5
 1509              	.LVL162:
 246:Middlewares/lvgl/src/core/lv_obj_scroll.c **** }
 1510              		.loc 1 246 34 discriminator 2 view .LVU410
 1511 0036 FFF7FEFF 		bl	lv_obj_get_scroll_y
 1512              	.LVL163:
 1513 003a F4E7     		b	.L84
 1514              	.L87:
 1515              		.align	2
 1516              	.L86:
 1517 003c 00000000 		.word	scroll_x_anim
 1518 0040 00000000 		.word	scroll_y_anim
 1519              		.cfi_endproc
 1520              	.LFE167:
 1522              		.section	.text.lv_obj_scroll_by,"ax",%progbits
 1523              		.align	1
 1524              		.global	lv_obj_scroll_by
 1525              		.syntax unified
 1526              		.thumb
 1527              		.thumb_func
 1528              		.fpu fpv4-sp-d16
 1530              	lv_obj_scroll_by:
 1531              	.LVL164:
 1532              	.LFB168:
 254:Middlewares/lvgl/src/core/lv_obj_scroll.c ****     if(x == 0 && y == 0) return;
 1533              		.loc 1 254 1 is_stmt 1 view -0
 1534              		.cfi_startproc
 1535              		@ args = 0, pretend = 0, frame = 72
 1536              		@ frame_needed = 0, uses_anonymous_args = 0
 254:Middlewares/lvgl/src/core/lv_obj_scroll.c ****     if(x == 0 && y == 0) return;
 1537              		.loc 1 254 1 is_stmt 0 view .LVU412
 1538 0000 2DE9F041 		push	{r4, r5, r6, r7, r8, lr}
 1539              	.LCFI12:
 1540              		.cfi_def_cfa_offset 24
 1541              		.cfi_offset 4, -24
 1542              		.cfi_offset 5, -20
 1543              		.cfi_offset 6, -16
 1544              		.cfi_offset 7, -12
 1545              		.cfi_offset 8, -8
 1546              		.cfi_offset 14, -4
 1547 0004 92B0     		sub	sp, sp, #72
 1548              	.LCFI13:
 1549              		.cfi_def_cfa_offset 96
 1550 0006 0446     		mov	r4, r0
ARM GAS  /tmp/ccSK5Jfi.s 			page 50


 1551 0008 1546     		mov	r5, r2
 255:Middlewares/lvgl/src/core/lv_obj_scroll.c ****     if(anim_en == LV_ANIM_ON) {
 1552              		.loc 1 255 5 is_stmt 1 view .LVU413
 255:Middlewares/lvgl/src/core/lv_obj_scroll.c ****     if(anim_en == LV_ANIM_ON) {
 1553              		.loc 1 255 7 is_stmt 0 view .LVU414
 1554 000a 0F46     		mov	r7, r1
 1555 000c 01B9     		cbnz	r1, .L89
 255:Middlewares/lvgl/src/core/lv_obj_scroll.c ****     if(anim_en == LV_ANIM_ON) {
 1556              		.loc 1 255 15 discriminator 1 view .LVU415
 1557 000e CAB1     		cbz	r2, .L88
 1558              	.L89:
 256:Middlewares/lvgl/src/core/lv_obj_scroll.c ****         lv_disp_t * d = lv_obj_get_disp(obj);
 1559              		.loc 1 256 5 is_stmt 1 view .LVU416
 256:Middlewares/lvgl/src/core/lv_obj_scroll.c ****         lv_disp_t * d = lv_obj_get_disp(obj);
 1560              		.loc 1 256 7 is_stmt 0 view .LVU417
 1561 0010 012B     		cmp	r3, #1
 1562 0012 1AD0     		beq	.L103
 1563              	.LBB119:
 296:Middlewares/lvgl/src/core/lv_obj_scroll.c ****         bool x_del = lv_anim_del(obj, scroll_x_anim);
 1564              		.loc 1 296 9 is_stmt 1 view .LVU418
 296:Middlewares/lvgl/src/core/lv_obj_scroll.c ****         bool x_del = lv_anim_del(obj, scroll_x_anim);
 1565              		.loc 1 296 22 is_stmt 0 view .LVU419
 1566 0014 3D49     		ldr	r1, .L105
 1567              	.LVL165:
 296:Middlewares/lvgl/src/core/lv_obj_scroll.c ****         bool x_del = lv_anim_del(obj, scroll_x_anim);
 1568              		.loc 1 296 22 view .LVU420
 1569 0016 2046     		mov	r0, r4
 1570              	.LVL166:
 296:Middlewares/lvgl/src/core/lv_obj_scroll.c ****         bool x_del = lv_anim_del(obj, scroll_x_anim);
 1571              		.loc 1 296 22 view .LVU421
 1572 0018 FFF7FEFF 		bl	lv_anim_del
 1573              	.LVL167:
 296:Middlewares/lvgl/src/core/lv_obj_scroll.c ****         bool x_del = lv_anim_del(obj, scroll_x_anim);
 1574              		.loc 1 296 22 view .LVU422
 1575 001c 0646     		mov	r6, r0
 1576              	.LVL168:
 297:Middlewares/lvgl/src/core/lv_obj_scroll.c ****         scroll_by_raw(obj, x, y);
 1577              		.loc 1 297 9 is_stmt 1 view .LVU423
 297:Middlewares/lvgl/src/core/lv_obj_scroll.c ****         scroll_by_raw(obj, x, y);
 1578              		.loc 1 297 22 is_stmt 0 view .LVU424
 1579 001e 3C49     		ldr	r1, .L105+4
 1580 0020 2046     		mov	r0, r4
 1581 0022 FFF7FEFF 		bl	lv_anim_del
 1582              	.LVL169:
 1583 0026 8046     		mov	r8, r0
 1584              	.LVL170:
 298:Middlewares/lvgl/src/core/lv_obj_scroll.c ****         if(y_del || x_del) {
 1585              		.loc 1 298 9 is_stmt 1 view .LVU425
 1586 0028 2A46     		mov	r2, r5
 1587 002a 3946     		mov	r1, r7
 1588 002c 2046     		mov	r0, r4
 1589 002e FFF7FEFF 		bl	scroll_by_raw
 1590              	.LVL171:
 299:Middlewares/lvgl/src/core/lv_obj_scroll.c ****             lv_res_t res;
 1591              		.loc 1 299 9 view .LVU426
 299:Middlewares/lvgl/src/core/lv_obj_scroll.c ****             lv_res_t res;
 1592              		.loc 1 299 11 is_stmt 0 view .LVU427
ARM GAS  /tmp/ccSK5Jfi.s 			page 51


 1593 0032 16B9     		cbnz	r6, .L97
 299:Middlewares/lvgl/src/core/lv_obj_scroll.c ****             lv_res_t res;
 1594              		.loc 1 299 18 discriminator 1 view .LVU428
 1595 0034 B8F1000F 		cmp	r8, #0
 1596 0038 04D0     		beq	.L88
 1597              	.L97:
 1598              	.LBB120:
 300:Middlewares/lvgl/src/core/lv_obj_scroll.c ****             res = lv_event_send(obj, LV_EVENT_SCROLL_END, NULL);
 1599              		.loc 1 300 13 is_stmt 1 view .LVU429
 301:Middlewares/lvgl/src/core/lv_obj_scroll.c ****             if(res != LV_RES_OK) return;
 1600              		.loc 1 301 13 view .LVU430
 301:Middlewares/lvgl/src/core/lv_obj_scroll.c ****             if(res != LV_RES_OK) return;
 1601              		.loc 1 301 19 is_stmt 0 view .LVU431
 1602 003a 0022     		movs	r2, #0
 1603 003c 0A21     		movs	r1, #10
 1604 003e 2046     		mov	r0, r4
 1605 0040 FFF7FEFF 		bl	lv_event_send
 1606              	.LVL172:
 302:Middlewares/lvgl/src/core/lv_obj_scroll.c ****         }
 1607              		.loc 1 302 13 is_stmt 1 view .LVU432
 1608              	.L88:
 302:Middlewares/lvgl/src/core/lv_obj_scroll.c ****         }
 1609              		.loc 1 302 13 is_stmt 0 view .LVU433
 1610              	.LBE120:
 1611              	.LBE119:
 305:Middlewares/lvgl/src/core/lv_obj_scroll.c **** 
 1612              		.loc 1 305 1 view .LVU434
 1613 0044 12B0     		add	sp, sp, #72
 1614              	.LCFI14:
 1615              		.cfi_remember_state
 1616              		.cfi_def_cfa_offset 24
 1617              		@ sp needed
 1618 0046 BDE8F081 		pop	{r4, r5, r6, r7, r8, pc}
 1619              	.LVL173:
 1620              	.L103:
 1621              	.LCFI15:
 1622              		.cfi_restore_state
 1623              	.LBB121:
 257:Middlewares/lvgl/src/core/lv_obj_scroll.c ****         lv_anim_t a;
 1624              		.loc 1 257 9 is_stmt 1 view .LVU435
 257:Middlewares/lvgl/src/core/lv_obj_scroll.c ****         lv_anim_t a;
 1625              		.loc 1 257 25 is_stmt 0 view .LVU436
 1626 004a 2046     		mov	r0, r4
 1627              	.LVL174:
 257:Middlewares/lvgl/src/core/lv_obj_scroll.c ****         lv_anim_t a;
 1628              		.loc 1 257 25 view .LVU437
 1629 004c FFF7FEFF 		bl	lv_obj_get_disp
 1630              	.LVL175:
 257:Middlewares/lvgl/src/core/lv_obj_scroll.c ****         lv_anim_t a;
 1631              		.loc 1 257 25 view .LVU438
 1632 0050 0646     		mov	r6, r0
 1633              	.LVL176:
 258:Middlewares/lvgl/src/core/lv_obj_scroll.c ****         lv_anim_init(&a);
 1634              		.loc 1 258 9 is_stmt 1 view .LVU439
 259:Middlewares/lvgl/src/core/lv_obj_scroll.c ****         lv_anim_set_var(&a, obj);
 1635              		.loc 1 259 9 view .LVU440
 1636 0052 01A8     		add	r0, sp, #4
ARM GAS  /tmp/ccSK5Jfi.s 			page 52


 1637              	.LVL177:
 259:Middlewares/lvgl/src/core/lv_obj_scroll.c ****         lv_anim_set_var(&a, obj);
 1638              		.loc 1 259 9 is_stmt 0 view .LVU441
 1639 0054 FFF7FEFF 		bl	lv_anim_init
 1640              	.LVL178:
 260:Middlewares/lvgl/src/core/lv_obj_scroll.c ****         lv_anim_set_ready_cb(&a, scroll_anim_ready_cb);
 1641              		.loc 1 260 9 is_stmt 1 view .LVU442
 1642              	.LBB122:
 1643              	.LBI122:
 1644              		.file 3 "Middlewares/lvgl/src/core/../misc/lv_anim.h"
   1:Middlewares/lvgl/src/core/../misc/lv_anim.h **** /**
   2:Middlewares/lvgl/src/core/../misc/lv_anim.h ****  * @file lv_anim.h
   3:Middlewares/lvgl/src/core/../misc/lv_anim.h ****  *
   4:Middlewares/lvgl/src/core/../misc/lv_anim.h ****  */
   5:Middlewares/lvgl/src/core/../misc/lv_anim.h **** 
   6:Middlewares/lvgl/src/core/../misc/lv_anim.h **** #ifndef LV_ANIM_H
   7:Middlewares/lvgl/src/core/../misc/lv_anim.h **** #define LV_ANIM_H
   8:Middlewares/lvgl/src/core/../misc/lv_anim.h **** 
   9:Middlewares/lvgl/src/core/../misc/lv_anim.h **** #ifdef __cplusplus
  10:Middlewares/lvgl/src/core/../misc/lv_anim.h **** extern "C" {
  11:Middlewares/lvgl/src/core/../misc/lv_anim.h **** #endif
  12:Middlewares/lvgl/src/core/../misc/lv_anim.h **** 
  13:Middlewares/lvgl/src/core/../misc/lv_anim.h **** /*********************
  14:Middlewares/lvgl/src/core/../misc/lv_anim.h ****  *      INCLUDES
  15:Middlewares/lvgl/src/core/../misc/lv_anim.h ****  *********************/
  16:Middlewares/lvgl/src/core/../misc/lv_anim.h **** #include "../lv_conf_internal.h"
  17:Middlewares/lvgl/src/core/../misc/lv_anim.h **** 
  18:Middlewares/lvgl/src/core/../misc/lv_anim.h **** #include <stdint.h>
  19:Middlewares/lvgl/src/core/../misc/lv_anim.h **** #include <stdbool.h>
  20:Middlewares/lvgl/src/core/../misc/lv_anim.h **** #include <string.h>
  21:Middlewares/lvgl/src/core/../misc/lv_anim.h **** 
  22:Middlewares/lvgl/src/core/../misc/lv_anim.h **** /*********************
  23:Middlewares/lvgl/src/core/../misc/lv_anim.h ****  *      DEFINES
  24:Middlewares/lvgl/src/core/../misc/lv_anim.h ****  *********************/
  25:Middlewares/lvgl/src/core/../misc/lv_anim.h **** 
  26:Middlewares/lvgl/src/core/../misc/lv_anim.h **** /**********************
  27:Middlewares/lvgl/src/core/../misc/lv_anim.h ****  *      TYPEDEFS
  28:Middlewares/lvgl/src/core/../misc/lv_anim.h ****  **********************/
  29:Middlewares/lvgl/src/core/../misc/lv_anim.h **** 
  30:Middlewares/lvgl/src/core/../misc/lv_anim.h **** /** Can be used to indicate if animations are enabled or disabled in a case*/
  31:Middlewares/lvgl/src/core/../misc/lv_anim.h **** typedef enum {
  32:Middlewares/lvgl/src/core/../misc/lv_anim.h ****     LV_ANIM_OFF,
  33:Middlewares/lvgl/src/core/../misc/lv_anim.h ****     LV_ANIM_ON,
  34:Middlewares/lvgl/src/core/../misc/lv_anim.h **** }lv_anim_enable_t;
  35:Middlewares/lvgl/src/core/../misc/lv_anim.h **** 
  36:Middlewares/lvgl/src/core/../misc/lv_anim.h **** #define LV_ANIM_REPEAT_INFINITE      0xFFFF
  37:Middlewares/lvgl/src/core/../misc/lv_anim.h **** LV_EXPORT_CONST_INT(LV_ANIM_REPEAT_INFINITE);
  38:Middlewares/lvgl/src/core/../misc/lv_anim.h **** 
  39:Middlewares/lvgl/src/core/../misc/lv_anim.h **** struct _lv_anim_t;
  40:Middlewares/lvgl/src/core/../misc/lv_anim.h **** 
  41:Middlewares/lvgl/src/core/../misc/lv_anim.h **** /** Get the current value during an animation*/
  42:Middlewares/lvgl/src/core/../misc/lv_anim.h **** typedef int32_t (*lv_anim_path_cb_t)(const struct _lv_anim_t *);
  43:Middlewares/lvgl/src/core/../misc/lv_anim.h **** 
  44:Middlewares/lvgl/src/core/../misc/lv_anim.h **** /** Generic prototype of "animator" functions.
  45:Middlewares/lvgl/src/core/../misc/lv_anim.h ****  * First parameter is the variable to animate.
  46:Middlewares/lvgl/src/core/../misc/lv_anim.h ****  * Second parameter is the value to set.
  47:Middlewares/lvgl/src/core/../misc/lv_anim.h ****  * Compatible with `lv_xxx_set_yyy(obj, value)` functions
ARM GAS  /tmp/ccSK5Jfi.s 			page 53


  48:Middlewares/lvgl/src/core/../misc/lv_anim.h ****  * The `x` in `_xcb_t` means its not a fully generic prototype because
  49:Middlewares/lvgl/src/core/../misc/lv_anim.h ****  * it doesn't receive `lv_anim_t *` as its first argument*/
  50:Middlewares/lvgl/src/core/../misc/lv_anim.h **** typedef void (*lv_anim_exec_xcb_t)(void *, int32_t);
  51:Middlewares/lvgl/src/core/../misc/lv_anim.h **** 
  52:Middlewares/lvgl/src/core/../misc/lv_anim.h **** /** Same as `lv_anim_exec_xcb_t` but receives `lv_anim_t *` as the first parameter.
  53:Middlewares/lvgl/src/core/../misc/lv_anim.h ****  * It's more consistent but less convenient. Might be used by binding generator functions.*/
  54:Middlewares/lvgl/src/core/../misc/lv_anim.h **** typedef void (*lv_anim_custom_exec_cb_t)(struct _lv_anim_t *, int32_t);
  55:Middlewares/lvgl/src/core/../misc/lv_anim.h **** 
  56:Middlewares/lvgl/src/core/../misc/lv_anim.h **** /** Callback to call when the animation is ready*/
  57:Middlewares/lvgl/src/core/../misc/lv_anim.h **** typedef void (*lv_anim_ready_cb_t)(struct _lv_anim_t *);
  58:Middlewares/lvgl/src/core/../misc/lv_anim.h **** 
  59:Middlewares/lvgl/src/core/../misc/lv_anim.h **** /** Callback to call when the animation really stars (considering `delay`)*/
  60:Middlewares/lvgl/src/core/../misc/lv_anim.h **** typedef void (*lv_anim_start_cb_t)(struct _lv_anim_t *);
  61:Middlewares/lvgl/src/core/../misc/lv_anim.h **** 
  62:Middlewares/lvgl/src/core/../misc/lv_anim.h **** /** Callback used when the animation values are relative to get the current value*/
  63:Middlewares/lvgl/src/core/../misc/lv_anim.h **** typedef int32_t (*lv_anim_get_value_cb_t)(struct _lv_anim_t *);
  64:Middlewares/lvgl/src/core/../misc/lv_anim.h **** 
  65:Middlewares/lvgl/src/core/../misc/lv_anim.h **** /** Describes an animation*/
  66:Middlewares/lvgl/src/core/../misc/lv_anim.h **** typedef struct _lv_anim_t {
  67:Middlewares/lvgl/src/core/../misc/lv_anim.h ****     void * var;                          /**<Variable to animate*/
  68:Middlewares/lvgl/src/core/../misc/lv_anim.h ****     lv_anim_exec_xcb_t exec_cb;          /**< Function to execute to animate*/
  69:Middlewares/lvgl/src/core/../misc/lv_anim.h ****     lv_anim_start_cb_t start_cb;         /**< Call it when the animation is starts (considering `de
  70:Middlewares/lvgl/src/core/../misc/lv_anim.h ****     lv_anim_ready_cb_t ready_cb;         /**< Call it when the animation is ready*/
  71:Middlewares/lvgl/src/core/../misc/lv_anim.h ****     lv_anim_get_value_cb_t get_value_cb; /**< Get the current value in relative mode*/
  72:Middlewares/lvgl/src/core/../misc/lv_anim.h **** #if LV_USE_USER_DATA
  73:Middlewares/lvgl/src/core/../misc/lv_anim.h ****     void * user_data; /**< Custom user data*/
  74:Middlewares/lvgl/src/core/../misc/lv_anim.h **** #endif
  75:Middlewares/lvgl/src/core/../misc/lv_anim.h ****     lv_anim_path_cb_t path_cb;         /**< Describe the path (curve) of animations*/
  76:Middlewares/lvgl/src/core/../misc/lv_anim.h ****     int32_t start_value;               /**< Start value*/
  77:Middlewares/lvgl/src/core/../misc/lv_anim.h ****     int32_t current_value;             /**< Current value*/
  78:Middlewares/lvgl/src/core/../misc/lv_anim.h ****     int32_t end_value;                 /**< End value*/
  79:Middlewares/lvgl/src/core/../misc/lv_anim.h ****     int32_t time;                /**< Animation time in ms*/
  80:Middlewares/lvgl/src/core/../misc/lv_anim.h ****     int32_t act_time;            /**< Current time in animation. Set to negative to make delay.*/
  81:Middlewares/lvgl/src/core/../misc/lv_anim.h ****     uint32_t playback_delay;     /**< Wait before play back*/
  82:Middlewares/lvgl/src/core/../misc/lv_anim.h ****     uint32_t playback_time;      /**< Duration of playback animation*/
  83:Middlewares/lvgl/src/core/../misc/lv_anim.h ****     uint32_t repeat_delay;       /**< Wait before repeat*/
  84:Middlewares/lvgl/src/core/../misc/lv_anim.h ****     uint16_t repeat_cnt;         /**< Repeat count for the animation*/
  85:Middlewares/lvgl/src/core/../misc/lv_anim.h ****     uint8_t early_apply  : 1;    /**< 1: Apply start value immediately even is there is `delay`*/
  86:Middlewares/lvgl/src/core/../misc/lv_anim.h **** 
  87:Middlewares/lvgl/src/core/../misc/lv_anim.h ****     /*Animation system use these - user shouldn't set*/
  88:Middlewares/lvgl/src/core/../misc/lv_anim.h ****     uint8_t playback_now : 1; /**< Play back is in progress*/
  89:Middlewares/lvgl/src/core/../misc/lv_anim.h ****     uint8_t run_round : 1;    /**< Indicates the animation has run in this round*/
  90:Middlewares/lvgl/src/core/../misc/lv_anim.h ****     uint8_t start_cb_called : 1;    /**< Indicates that the `start_cb` was already called*/
  91:Middlewares/lvgl/src/core/../misc/lv_anim.h ****     uint32_t time_orig;
  92:Middlewares/lvgl/src/core/../misc/lv_anim.h **** } lv_anim_t;
  93:Middlewares/lvgl/src/core/../misc/lv_anim.h **** 
  94:Middlewares/lvgl/src/core/../misc/lv_anim.h **** /**********************
  95:Middlewares/lvgl/src/core/../misc/lv_anim.h ****  * GLOBAL PROTOTYPES
  96:Middlewares/lvgl/src/core/../misc/lv_anim.h ****  **********************/
  97:Middlewares/lvgl/src/core/../misc/lv_anim.h **** 
  98:Middlewares/lvgl/src/core/../misc/lv_anim.h **** /**
  99:Middlewares/lvgl/src/core/../misc/lv_anim.h ****  * Init. the animation module
 100:Middlewares/lvgl/src/core/../misc/lv_anim.h ****  */
 101:Middlewares/lvgl/src/core/../misc/lv_anim.h **** void _lv_anim_core_init(void);
 102:Middlewares/lvgl/src/core/../misc/lv_anim.h **** 
 103:Middlewares/lvgl/src/core/../misc/lv_anim.h **** /**
 104:Middlewares/lvgl/src/core/../misc/lv_anim.h ****  * Initialize an animation variable.
ARM GAS  /tmp/ccSK5Jfi.s 			page 54


 105:Middlewares/lvgl/src/core/../misc/lv_anim.h ****  * E.g.:
 106:Middlewares/lvgl/src/core/../misc/lv_anim.h ****  * lv_anim_t a;
 107:Middlewares/lvgl/src/core/../misc/lv_anim.h ****  * lv_anim_init(&a);
 108:Middlewares/lvgl/src/core/../misc/lv_anim.h ****  * lv_anim_set_...(&a);
 109:Middlewares/lvgl/src/core/../misc/lv_anim.h ****  * lv_anim_start(&a);
 110:Middlewares/lvgl/src/core/../misc/lv_anim.h ****  * @param a     pointer to an `lv_anim_t` variable to initialize
 111:Middlewares/lvgl/src/core/../misc/lv_anim.h ****  */
 112:Middlewares/lvgl/src/core/../misc/lv_anim.h **** void lv_anim_init(lv_anim_t * a);
 113:Middlewares/lvgl/src/core/../misc/lv_anim.h **** 
 114:Middlewares/lvgl/src/core/../misc/lv_anim.h **** /**
 115:Middlewares/lvgl/src/core/../misc/lv_anim.h ****  * Set a variable to animate
 116:Middlewares/lvgl/src/core/../misc/lv_anim.h ****  * @param a     pointer to an initialized `lv_anim_t` variable
 117:Middlewares/lvgl/src/core/../misc/lv_anim.h ****  * @param var   pointer to a variable to animate
 118:Middlewares/lvgl/src/core/../misc/lv_anim.h ****  */
 119:Middlewares/lvgl/src/core/../misc/lv_anim.h **** static inline void lv_anim_set_var(lv_anim_t * a, void * var)
 1645              		.loc 3 119 20 view .LVU443
 1646              	.LBB123:
 120:Middlewares/lvgl/src/core/../misc/lv_anim.h **** {
 121:Middlewares/lvgl/src/core/../misc/lv_anim.h ****     a->var = var;
 1647              		.loc 3 121 5 view .LVU444
 1648              		.loc 3 121 12 is_stmt 0 view .LVU445
 1649 0058 0194     		str	r4, [sp, #4]
 1650              	.LVL179:
 1651              		.loc 3 121 12 view .LVU446
 1652              	.LBE123:
 1653              	.LBE122:
 261:Middlewares/lvgl/src/core/lv_obj_scroll.c **** 
 1654              		.loc 1 261 9 is_stmt 1 view .LVU447
 1655              	.LBB124:
 1656              	.LBI124:
 122:Middlewares/lvgl/src/core/../misc/lv_anim.h **** }
 123:Middlewares/lvgl/src/core/../misc/lv_anim.h **** 
 124:Middlewares/lvgl/src/core/../misc/lv_anim.h **** /**
 125:Middlewares/lvgl/src/core/../misc/lv_anim.h ****  * Set a function to animate `var`
 126:Middlewares/lvgl/src/core/../misc/lv_anim.h ****  * @param a         pointer to an initialized `lv_anim_t` variable
 127:Middlewares/lvgl/src/core/../misc/lv_anim.h ****  * @param exec_cb   a function to execute during animation
 128:Middlewares/lvgl/src/core/../misc/lv_anim.h ****  *                  LVGL's built-in functions can be used.
 129:Middlewares/lvgl/src/core/../misc/lv_anim.h ****  *                  E.g. lv_obj_set_x
 130:Middlewares/lvgl/src/core/../misc/lv_anim.h ****  */
 131:Middlewares/lvgl/src/core/../misc/lv_anim.h **** static inline void lv_anim_set_exec_cb(lv_anim_t * a, lv_anim_exec_xcb_t exec_cb)
 132:Middlewares/lvgl/src/core/../misc/lv_anim.h **** {
 133:Middlewares/lvgl/src/core/../misc/lv_anim.h ****     a->exec_cb = exec_cb;
 134:Middlewares/lvgl/src/core/../misc/lv_anim.h **** }
 135:Middlewares/lvgl/src/core/../misc/lv_anim.h **** 
 136:Middlewares/lvgl/src/core/../misc/lv_anim.h **** /**
 137:Middlewares/lvgl/src/core/../misc/lv_anim.h ****  * Set the duration of an animation
 138:Middlewares/lvgl/src/core/../misc/lv_anim.h ****  * @param a         pointer to an initialized `lv_anim_t` variable
 139:Middlewares/lvgl/src/core/../misc/lv_anim.h ****  * @param duration  duration of the animation in milliseconds
 140:Middlewares/lvgl/src/core/../misc/lv_anim.h ****  */
 141:Middlewares/lvgl/src/core/../misc/lv_anim.h **** static inline void lv_anim_set_time(lv_anim_t * a, uint32_t duration)
 142:Middlewares/lvgl/src/core/../misc/lv_anim.h **** {
 143:Middlewares/lvgl/src/core/../misc/lv_anim.h ****     a->time = duration;
 144:Middlewares/lvgl/src/core/../misc/lv_anim.h **** }
 145:Middlewares/lvgl/src/core/../misc/lv_anim.h **** 
 146:Middlewares/lvgl/src/core/../misc/lv_anim.h **** /**
 147:Middlewares/lvgl/src/core/../misc/lv_anim.h ****  * Set a delay before starting the animation
 148:Middlewares/lvgl/src/core/../misc/lv_anim.h ****  * @param a         pointer to an initialized `lv_anim_t` variable
ARM GAS  /tmp/ccSK5Jfi.s 			page 55


 149:Middlewares/lvgl/src/core/../misc/lv_anim.h ****  * @param delay     delay before the animation in milliseconds
 150:Middlewares/lvgl/src/core/../misc/lv_anim.h ****  */
 151:Middlewares/lvgl/src/core/../misc/lv_anim.h **** static inline void lv_anim_set_delay(lv_anim_t * a, uint32_t delay)
 152:Middlewares/lvgl/src/core/../misc/lv_anim.h **** {
 153:Middlewares/lvgl/src/core/../misc/lv_anim.h ****     a->act_time = -(int32_t)(delay);
 154:Middlewares/lvgl/src/core/../misc/lv_anim.h **** }
 155:Middlewares/lvgl/src/core/../misc/lv_anim.h **** 
 156:Middlewares/lvgl/src/core/../misc/lv_anim.h **** /**
 157:Middlewares/lvgl/src/core/../misc/lv_anim.h ****  * Set the start and end values of an animation
 158:Middlewares/lvgl/src/core/../misc/lv_anim.h ****  * @param a         pointer to an initialized `lv_anim_t` variable
 159:Middlewares/lvgl/src/core/../misc/lv_anim.h ****  * @param start     the start value
 160:Middlewares/lvgl/src/core/../misc/lv_anim.h ****  * @param end       the end value
 161:Middlewares/lvgl/src/core/../misc/lv_anim.h ****  */
 162:Middlewares/lvgl/src/core/../misc/lv_anim.h **** static inline void lv_anim_set_values(lv_anim_t * a, int32_t start, int32_t end)
 163:Middlewares/lvgl/src/core/../misc/lv_anim.h **** {
 164:Middlewares/lvgl/src/core/../misc/lv_anim.h ****     a->start_value = start;
 165:Middlewares/lvgl/src/core/../misc/lv_anim.h ****     a->current_value = start;
 166:Middlewares/lvgl/src/core/../misc/lv_anim.h ****     a->end_value = end;
 167:Middlewares/lvgl/src/core/../misc/lv_anim.h **** }
 168:Middlewares/lvgl/src/core/../misc/lv_anim.h **** 
 169:Middlewares/lvgl/src/core/../misc/lv_anim.h **** /**
 170:Middlewares/lvgl/src/core/../misc/lv_anim.h ****  * Similar to `lv_anim_set_exec_cb` but `lv_anim_custom_exec_cb_t` receives
 171:Middlewares/lvgl/src/core/../misc/lv_anim.h ****  * `lv_anim_t * ` as its first parameter instead of `void *`.
 172:Middlewares/lvgl/src/core/../misc/lv_anim.h ****  * This function might be used when LVGL is binded to other languages because
 173:Middlewares/lvgl/src/core/../misc/lv_anim.h ****  * it's more consistent to have `lv_anim_t *` as first parameter.
 174:Middlewares/lvgl/src/core/../misc/lv_anim.h ****  * The variable to animate can be stored in the animation's `user_sata`
 175:Middlewares/lvgl/src/core/../misc/lv_anim.h ****  * @param a         pointer to an initialized `lv_anim_t` variable
 176:Middlewares/lvgl/src/core/../misc/lv_anim.h ****  * @param exec_cb   a function to execute.
 177:Middlewares/lvgl/src/core/../misc/lv_anim.h ****  */
 178:Middlewares/lvgl/src/core/../misc/lv_anim.h **** static inline void lv_anim_set_custom_exec_cb(lv_anim_t * a, lv_anim_custom_exec_cb_t exec_cb)
 179:Middlewares/lvgl/src/core/../misc/lv_anim.h **** {
 180:Middlewares/lvgl/src/core/../misc/lv_anim.h ****     a->var     = a;
 181:Middlewares/lvgl/src/core/../misc/lv_anim.h ****     a->exec_cb = (lv_anim_exec_xcb_t)exec_cb;
 182:Middlewares/lvgl/src/core/../misc/lv_anim.h **** }
 183:Middlewares/lvgl/src/core/../misc/lv_anim.h **** 
 184:Middlewares/lvgl/src/core/../misc/lv_anim.h **** /**
 185:Middlewares/lvgl/src/core/../misc/lv_anim.h ****  * Set the path (curve) of the animation.
 186:Middlewares/lvgl/src/core/../misc/lv_anim.h ****  * @param a         pointer to an initialized `lv_anim_t` variable
 187:Middlewares/lvgl/src/core/../misc/lv_anim.h ****  * @param path_cb a function the get the current value of the animation.
 188:Middlewares/lvgl/src/core/../misc/lv_anim.h ****  */
 189:Middlewares/lvgl/src/core/../misc/lv_anim.h **** static inline void lv_anim_set_path_cb(lv_anim_t * a, lv_anim_path_cb_t path_cb)
 190:Middlewares/lvgl/src/core/../misc/lv_anim.h **** {
 191:Middlewares/lvgl/src/core/../misc/lv_anim.h ****     a->path_cb = path_cb;
 192:Middlewares/lvgl/src/core/../misc/lv_anim.h **** }
 193:Middlewares/lvgl/src/core/../misc/lv_anim.h **** 
 194:Middlewares/lvgl/src/core/../misc/lv_anim.h **** /**
 195:Middlewares/lvgl/src/core/../misc/lv_anim.h ****  * Set a function call when the animation really starts (considering `delay`)
 196:Middlewares/lvgl/src/core/../misc/lv_anim.h ****  * @param a         pointer to an initialized `lv_anim_t` variable
 197:Middlewares/lvgl/src/core/../misc/lv_anim.h ****  * @param start_cb  a function call when the animation starts
 198:Middlewares/lvgl/src/core/../misc/lv_anim.h ****  */
 199:Middlewares/lvgl/src/core/../misc/lv_anim.h **** static inline void lv_anim_set_start_cb(lv_anim_t * a, lv_anim_ready_cb_t start_cb)
 200:Middlewares/lvgl/src/core/../misc/lv_anim.h **** {
 201:Middlewares/lvgl/src/core/../misc/lv_anim.h ****     a->start_cb = start_cb;
 202:Middlewares/lvgl/src/core/../misc/lv_anim.h **** }
 203:Middlewares/lvgl/src/core/../misc/lv_anim.h **** 
 204:Middlewares/lvgl/src/core/../misc/lv_anim.h **** /**
 205:Middlewares/lvgl/src/core/../misc/lv_anim.h ****  * Set a function to use the current value of the variable and make start and end value
ARM GAS  /tmp/ccSK5Jfi.s 			page 56


 206:Middlewares/lvgl/src/core/../misc/lv_anim.h ****  * relative the the returned current value.
 207:Middlewares/lvgl/src/core/../misc/lv_anim.h ****  * @param a             pointer to an initialized `lv_anim_t` variable
 208:Middlewares/lvgl/src/core/../misc/lv_anim.h ****  * @param get_value_cb  a function call when the animation starts
 209:Middlewares/lvgl/src/core/../misc/lv_anim.h ****  */
 210:Middlewares/lvgl/src/core/../misc/lv_anim.h **** static inline void lv_anim_set_get_value_cb(lv_anim_t * a, lv_anim_get_value_cb_t get_value_cb)
 211:Middlewares/lvgl/src/core/../misc/lv_anim.h **** {
 212:Middlewares/lvgl/src/core/../misc/lv_anim.h ****     a->get_value_cb = get_value_cb;
 213:Middlewares/lvgl/src/core/../misc/lv_anim.h **** }
 214:Middlewares/lvgl/src/core/../misc/lv_anim.h **** 
 215:Middlewares/lvgl/src/core/../misc/lv_anim.h **** /**
 216:Middlewares/lvgl/src/core/../misc/lv_anim.h ****  * Set a function call when the animation is ready
 217:Middlewares/lvgl/src/core/../misc/lv_anim.h ****  * @param a         pointer to an initialized `lv_anim_t` variable
 218:Middlewares/lvgl/src/core/../misc/lv_anim.h ****  * @param ready_cb  a function call when the animation is ready
 219:Middlewares/lvgl/src/core/../misc/lv_anim.h ****  */
 220:Middlewares/lvgl/src/core/../misc/lv_anim.h **** static inline void lv_anim_set_ready_cb(lv_anim_t * a, lv_anim_ready_cb_t ready_cb)
 1657              		.loc 3 220 20 view .LVU448
 1658              	.LBB125:
 221:Middlewares/lvgl/src/core/../misc/lv_anim.h **** {
 222:Middlewares/lvgl/src/core/../misc/lv_anim.h ****     a->ready_cb = ready_cb;
 1659              		.loc 3 222 5 view .LVU449
 1660              		.loc 3 222 17 is_stmt 0 view .LVU450
 1661 005a 2E4B     		ldr	r3, .L105+8
 1662 005c 0493     		str	r3, [sp, #16]
 1663              	.LVL180:
 1664              		.loc 3 222 17 view .LVU451
 1665              	.LBE125:
 1666              	.LBE124:
 263:Middlewares/lvgl/src/core/lv_obj_scroll.c ****             uint32_t t = lv_anim_speed_to_time((lv_disp_get_hor_res(d) * 2) >> 2, 0, x);
 1667              		.loc 1 263 9 is_stmt 1 view .LVU452
 263:Middlewares/lvgl/src/core/lv_obj_scroll.c ****             uint32_t t = lv_anim_speed_to_time((lv_disp_get_hor_res(d) * 2) >> 2, 0, x);
 1668              		.loc 1 263 11 is_stmt 0 view .LVU453
 1669 005e 97B9     		cbnz	r7, .L104
 1670              	.L92:
 279:Middlewares/lvgl/src/core/lv_obj_scroll.c ****             uint32_t t = lv_anim_speed_to_time((lv_disp_get_ver_res(d) * 2) >> 2, 0, y);
 1671              		.loc 1 279 9 is_stmt 1 view .LVU454
 279:Middlewares/lvgl/src/core/lv_obj_scroll.c ****             uint32_t t = lv_anim_speed_to_time((lv_disp_get_ver_res(d) * 2) >> 2, 0, y);
 1672              		.loc 1 279 11 is_stmt 0 view .LVU455
 1673 0060 002D     		cmp	r5, #0
 1674 0062 EFD0     		beq	.L88
 1675              	.LBB126:
 280:Middlewares/lvgl/src/core/lv_obj_scroll.c ****             if(t < SCROLL_ANIM_TIME_MIN) t = SCROLL_ANIM_TIME_MIN;
 1676              		.loc 1 280 13 is_stmt 1 view .LVU456
 280:Middlewares/lvgl/src/core/lv_obj_scroll.c ****             if(t < SCROLL_ANIM_TIME_MIN) t = SCROLL_ANIM_TIME_MIN;
 1677              		.loc 1 280 49 is_stmt 0 view .LVU457
 1678 0064 3046     		mov	r0, r6
 1679 0066 FFF7FEFF 		bl	lv_disp_get_ver_res
 1680              	.LVL181:
 280:Middlewares/lvgl/src/core/lv_obj_scroll.c ****             if(t < SCROLL_ANIM_TIME_MIN) t = SCROLL_ANIM_TIME_MIN;
 1681              		.loc 1 280 26 view .LVU458
 1682 006a 2A46     		mov	r2, r5
 1683 006c 0021     		movs	r1, #0
 1684 006e 40F35D00 		sbfx	r0, r0, #1, #30
 1685 0072 FFF7FEFF 		bl	lv_anim_speed_to_time
 1686              	.LVL182:
 281:Middlewares/lvgl/src/core/lv_obj_scroll.c ****             if(t > SCROLL_ANIM_TIME_MAX) t = SCROLL_ANIM_TIME_MAX;
 1687              		.loc 1 281 13 is_stmt 1 view .LVU459
 281:Middlewares/lvgl/src/core/lv_obj_scroll.c ****             if(t > SCROLL_ANIM_TIME_MAX) t = SCROLL_ANIM_TIME_MAX;
ARM GAS  /tmp/ccSK5Jfi.s 			page 57


 1688              		.loc 1 281 15 is_stmt 0 view .LVU460
 1689 0076 C728     		cmp	r0, #199
 1690 0078 2FD9     		bls	.L100
 282:Middlewares/lvgl/src/core/lv_obj_scroll.c ****             lv_anim_set_time(&a, t);
 1691              		.loc 1 282 13 is_stmt 1 view .LVU461
 282:Middlewares/lvgl/src/core/lv_obj_scroll.c ****             lv_anim_set_time(&a, t);
 1692              		.loc 1 282 15 is_stmt 0 view .LVU462
 1693 007a B0F5C87F 		cmp	r0, #400
 1694 007e 2DD9     		bls	.L96
 282:Middlewares/lvgl/src/core/lv_obj_scroll.c ****             lv_anim_set_time(&a, t);
 1695              		.loc 1 282 44 view .LVU463
 1696 0080 4FF4C870 		mov	r0, #400
 1697              	.LVL183:
 282:Middlewares/lvgl/src/core/lv_obj_scroll.c ****             lv_anim_set_time(&a, t);
 1698              		.loc 1 282 44 view .LVU464
 1699 0084 2AE0     		b	.L96
 1700              	.L104:
 282:Middlewares/lvgl/src/core/lv_obj_scroll.c ****             lv_anim_set_time(&a, t);
 1701              		.loc 1 282 44 view .LVU465
 1702              	.LBE126:
 1703              	.LBB135:
 264:Middlewares/lvgl/src/core/lv_obj_scroll.c ****             if(t < SCROLL_ANIM_TIME_MIN) t = SCROLL_ANIM_TIME_MIN;
 1704              		.loc 1 264 13 is_stmt 1 view .LVU466
 264:Middlewares/lvgl/src/core/lv_obj_scroll.c ****             if(t < SCROLL_ANIM_TIME_MIN) t = SCROLL_ANIM_TIME_MIN;
 1705              		.loc 1 264 49 is_stmt 0 view .LVU467
 1706 0086 3046     		mov	r0, r6
 1707 0088 FFF7FEFF 		bl	lv_disp_get_hor_res
 1708              	.LVL184:
 264:Middlewares/lvgl/src/core/lv_obj_scroll.c ****             if(t < SCROLL_ANIM_TIME_MIN) t = SCROLL_ANIM_TIME_MIN;
 1709              		.loc 1 264 26 view .LVU468
 1710 008c 3A46     		mov	r2, r7
 1711 008e 0021     		movs	r1, #0
 1712 0090 40F35D00 		sbfx	r0, r0, #1, #30
 1713 0094 FFF7FEFF 		bl	lv_anim_speed_to_time
 1714              	.LVL185:
 265:Middlewares/lvgl/src/core/lv_obj_scroll.c ****             if(t > SCROLL_ANIM_TIME_MAX) t = SCROLL_ANIM_TIME_MAX;
 1715              		.loc 1 265 13 is_stmt 1 view .LVU469
 265:Middlewares/lvgl/src/core/lv_obj_scroll.c ****             if(t > SCROLL_ANIM_TIME_MAX) t = SCROLL_ANIM_TIME_MAX;
 1716              		.loc 1 265 15 is_stmt 0 view .LVU470
 1717 0098 C728     		cmp	r0, #199
 1718 009a 05D9     		bls	.L98
 266:Middlewares/lvgl/src/core/lv_obj_scroll.c ****             lv_anim_set_time(&a, t);
 1719              		.loc 1 266 13 is_stmt 1 view .LVU471
 266:Middlewares/lvgl/src/core/lv_obj_scroll.c ****             lv_anim_set_time(&a, t);
 1720              		.loc 1 266 15 is_stmt 0 view .LVU472
 1721 009c B0F5C87F 		cmp	r0, #400
 1722 00a0 03D9     		bls	.L93
 266:Middlewares/lvgl/src/core/lv_obj_scroll.c ****             lv_anim_set_time(&a, t);
 1723              		.loc 1 266 44 view .LVU473
 1724 00a2 4FF4C870 		mov	r0, #400
 1725              	.LVL186:
 266:Middlewares/lvgl/src/core/lv_obj_scroll.c ****             lv_anim_set_time(&a, t);
 1726              		.loc 1 266 44 view .LVU474
 1727 00a6 00E0     		b	.L93
 1728              	.LVL187:
 1729              	.L98:
 265:Middlewares/lvgl/src/core/lv_obj_scroll.c ****             if(t > SCROLL_ANIM_TIME_MAX) t = SCROLL_ANIM_TIME_MAX;
ARM GAS  /tmp/ccSK5Jfi.s 			page 58


 1730              		.loc 1 265 44 view .LVU475
 1731 00a8 C820     		movs	r0, #200
 1732              	.LVL188:
 1733              	.L93:
 267:Middlewares/lvgl/src/core/lv_obj_scroll.c ****             lv_coord_t sx = lv_obj_get_scroll_x(obj);
 1734              		.loc 1 267 13 is_stmt 1 view .LVU476
 1735              	.LBB136:
 1736              	.LBI136:
 141:Middlewares/lvgl/src/core/../misc/lv_anim.h **** {
 1737              		.loc 3 141 20 view .LVU477
 1738              	.LBB137:
 143:Middlewares/lvgl/src/core/../misc/lv_anim.h **** }
 1739              		.loc 3 143 5 view .LVU478
 143:Middlewares/lvgl/src/core/../misc/lv_anim.h **** }
 1740              		.loc 3 143 13 is_stmt 0 view .LVU479
 1741 00aa 0B90     		str	r0, [sp, #44]
 1742              	.LVL189:
 143:Middlewares/lvgl/src/core/../misc/lv_anim.h **** }
 1743              		.loc 3 143 13 view .LVU480
 1744              	.LBE137:
 1745              	.LBE136:
 268:Middlewares/lvgl/src/core/lv_obj_scroll.c ****             lv_anim_set_values(&a, -sx, -sx + x);
 1746              		.loc 1 268 13 is_stmt 1 view .LVU481
 268:Middlewares/lvgl/src/core/lv_obj_scroll.c ****             lv_anim_set_values(&a, -sx, -sx + x);
 1747              		.loc 1 268 29 is_stmt 0 view .LVU482
 1748 00ac 2046     		mov	r0, r4
 1749              	.LVL190:
 268:Middlewares/lvgl/src/core/lv_obj_scroll.c ****             lv_anim_set_values(&a, -sx, -sx + x);
 1750              		.loc 1 268 29 view .LVU483
 1751 00ae FFF7FEFF 		bl	lv_obj_get_scroll_x
 1752              	.LVL191:
 269:Middlewares/lvgl/src/core/lv_obj_scroll.c ****             lv_anim_set_exec_cb(&a, scroll_x_anim);
 1753              		.loc 1 269 13 is_stmt 1 view .LVU484
 269:Middlewares/lvgl/src/core/lv_obj_scroll.c ****             lv_anim_set_exec_cb(&a, scroll_x_anim);
 1754              		.loc 1 269 36 is_stmt 0 view .LVU485
 1755 00b2 4342     		rsbs	r3, r0, #0
 269:Middlewares/lvgl/src/core/lv_obj_scroll.c ****             lv_anim_set_exec_cb(&a, scroll_x_anim);
 1756              		.loc 1 269 45 view .LVU486
 1757 00b4 381A     		subs	r0, r7, r0
 1758              	.LVL192:
 1759              	.LBB138:
 1760              	.LBI138:
 162:Middlewares/lvgl/src/core/../misc/lv_anim.h **** {
 1761              		.loc 3 162 20 is_stmt 1 view .LVU487
 1762              	.LBB139:
 164:Middlewares/lvgl/src/core/../misc/lv_anim.h ****     a->current_value = start;
 1763              		.loc 3 164 5 view .LVU488
 164:Middlewares/lvgl/src/core/../misc/lv_anim.h ****     a->current_value = start;
 1764              		.loc 3 164 20 is_stmt 0 view .LVU489
 1765 00b6 0893     		str	r3, [sp, #32]
 165:Middlewares/lvgl/src/core/../misc/lv_anim.h ****     a->end_value = end;
 1766              		.loc 3 165 5 is_stmt 1 view .LVU490
 165:Middlewares/lvgl/src/core/../misc/lv_anim.h ****     a->end_value = end;
 1767              		.loc 3 165 22 is_stmt 0 view .LVU491
 1768 00b8 0993     		str	r3, [sp, #36]
 166:Middlewares/lvgl/src/core/../misc/lv_anim.h **** }
 1769              		.loc 3 166 5 is_stmt 1 view .LVU492
ARM GAS  /tmp/ccSK5Jfi.s 			page 59


 166:Middlewares/lvgl/src/core/../misc/lv_anim.h **** }
 1770              		.loc 3 166 18 is_stmt 0 view .LVU493
 1771 00ba 0A90     		str	r0, [sp, #40]
 1772              	.LVL193:
 166:Middlewares/lvgl/src/core/../misc/lv_anim.h **** }
 1773              		.loc 3 166 18 view .LVU494
 1774              	.LBE139:
 1775              	.LBE138:
 270:Middlewares/lvgl/src/core/lv_obj_scroll.c ****             lv_anim_set_path_cb(&a, lv_anim_path_ease_out);
 1776              		.loc 1 270 13 is_stmt 1 view .LVU495
 1777              	.LBB140:
 1778              	.LBI140:
 131:Middlewares/lvgl/src/core/../misc/lv_anim.h **** {
 1779              		.loc 3 131 20 view .LVU496
 1780              	.LBB141:
 133:Middlewares/lvgl/src/core/../misc/lv_anim.h **** }
 1781              		.loc 3 133 5 view .LVU497
 133:Middlewares/lvgl/src/core/../misc/lv_anim.h **** }
 1782              		.loc 3 133 16 is_stmt 0 view .LVU498
 1783 00bc 144B     		ldr	r3, .L105+4
 1784 00be 0293     		str	r3, [sp, #8]
 1785              	.LVL194:
 133:Middlewares/lvgl/src/core/../misc/lv_anim.h **** }
 1786              		.loc 3 133 16 view .LVU499
 1787              	.LBE141:
 1788              	.LBE140:
 271:Middlewares/lvgl/src/core/lv_obj_scroll.c **** 
 1789              		.loc 1 271 13 is_stmt 1 view .LVU500
 1790              	.LBB142:
 1791              	.LBI142:
 189:Middlewares/lvgl/src/core/../misc/lv_anim.h **** {
 1792              		.loc 3 189 20 view .LVU501
 1793              	.LBB143:
 191:Middlewares/lvgl/src/core/../misc/lv_anim.h **** }
 1794              		.loc 3 191 5 view .LVU502
 191:Middlewares/lvgl/src/core/../misc/lv_anim.h **** }
 1795              		.loc 3 191 16 is_stmt 0 view .LVU503
 1796 00c0 154B     		ldr	r3, .L105+12
 1797 00c2 0793     		str	r3, [sp, #28]
 1798              	.LVL195:
 191:Middlewares/lvgl/src/core/../misc/lv_anim.h **** }
 1799              		.loc 3 191 16 view .LVU504
 1800              	.LBE143:
 1801              	.LBE142:
 273:Middlewares/lvgl/src/core/lv_obj_scroll.c ****             res = lv_event_send(obj, LV_EVENT_SCROLL_BEGIN, &a);
 1802              		.loc 1 273 13 is_stmt 1 view .LVU505
 274:Middlewares/lvgl/src/core/lv_obj_scroll.c ****             if(res != LV_RES_OK) return;
 1803              		.loc 1 274 13 view .LVU506
 274:Middlewares/lvgl/src/core/lv_obj_scroll.c ****             if(res != LV_RES_OK) return;
 1804              		.loc 1 274 19 is_stmt 0 view .LVU507
 1805 00c4 01AA     		add	r2, sp, #4
 1806 00c6 0921     		movs	r1, #9
 1807 00c8 2046     		mov	r0, r4
 1808 00ca FFF7FEFF 		bl	lv_event_send
 1809              	.LVL196:
 275:Middlewares/lvgl/src/core/lv_obj_scroll.c ****             lv_anim_start(&a);
 1810              		.loc 1 275 13 is_stmt 1 view .LVU508
ARM GAS  /tmp/ccSK5Jfi.s 			page 60


 275:Middlewares/lvgl/src/core/lv_obj_scroll.c ****             lv_anim_start(&a);
 1811              		.loc 1 275 15 is_stmt 0 view .LVU509
 1812 00ce 0128     		cmp	r0, #1
 1813 00d0 B8D1     		bne	.L88
 276:Middlewares/lvgl/src/core/lv_obj_scroll.c ****         }
 1814              		.loc 1 276 13 is_stmt 1 view .LVU510
 1815 00d2 01A8     		add	r0, sp, #4
 1816              	.LVL197:
 276:Middlewares/lvgl/src/core/lv_obj_scroll.c ****         }
 1817              		.loc 1 276 13 is_stmt 0 view .LVU511
 1818 00d4 FFF7FEFF 		bl	lv_anim_start
 1819              	.LVL198:
 1820 00d8 C2E7     		b	.L92
 1821              	.LVL199:
 1822              	.L100:
 276:Middlewares/lvgl/src/core/lv_obj_scroll.c ****         }
 1823              		.loc 1 276 13 view .LVU512
 1824              	.LBE135:
 1825              	.LBB144:
 281:Middlewares/lvgl/src/core/lv_obj_scroll.c ****             if(t > SCROLL_ANIM_TIME_MAX) t = SCROLL_ANIM_TIME_MAX;
 1826              		.loc 1 281 44 view .LVU513
 1827 00da C820     		movs	r0, #200
 1828              	.LVL200:
 1829              	.L96:
 283:Middlewares/lvgl/src/core/lv_obj_scroll.c ****             lv_coord_t sy = lv_obj_get_scroll_y(obj);
 1830              		.loc 1 283 13 is_stmt 1 view .LVU514
 1831              	.LBB127:
 1832              	.LBI127:
 141:Middlewares/lvgl/src/core/../misc/lv_anim.h **** {
 1833              		.loc 3 141 20 view .LVU515
 1834              	.LBB128:
 143:Middlewares/lvgl/src/core/../misc/lv_anim.h **** }
 1835              		.loc 3 143 5 view .LVU516
 143:Middlewares/lvgl/src/core/../misc/lv_anim.h **** }
 1836              		.loc 3 143 13 is_stmt 0 view .LVU517
 1837 00dc 0B90     		str	r0, [sp, #44]
 1838              	.LVL201:
 143:Middlewares/lvgl/src/core/../misc/lv_anim.h **** }
 1839              		.loc 3 143 13 view .LVU518
 1840              	.LBE128:
 1841              	.LBE127:
 284:Middlewares/lvgl/src/core/lv_obj_scroll.c ****             lv_anim_set_values(&a, -sy, -sy + y);
 1842              		.loc 1 284 13 is_stmt 1 view .LVU519
 284:Middlewares/lvgl/src/core/lv_obj_scroll.c ****             lv_anim_set_values(&a, -sy, -sy + y);
 1843              		.loc 1 284 29 is_stmt 0 view .LVU520
 1844 00de 2046     		mov	r0, r4
 1845              	.LVL202:
 284:Middlewares/lvgl/src/core/lv_obj_scroll.c ****             lv_anim_set_values(&a, -sy, -sy + y);
 1846              		.loc 1 284 29 view .LVU521
 1847 00e0 FFF7FEFF 		bl	lv_obj_get_scroll_y
 1848              	.LVL203:
 285:Middlewares/lvgl/src/core/lv_obj_scroll.c ****             lv_anim_set_exec_cb(&a,  scroll_y_anim);
 1849              		.loc 1 285 13 is_stmt 1 view .LVU522
 285:Middlewares/lvgl/src/core/lv_obj_scroll.c ****             lv_anim_set_exec_cb(&a,  scroll_y_anim);
 1850              		.loc 1 285 36 is_stmt 0 view .LVU523
 1851 00e4 4342     		rsbs	r3, r0, #0
 285:Middlewares/lvgl/src/core/lv_obj_scroll.c ****             lv_anim_set_exec_cb(&a,  scroll_y_anim);
ARM GAS  /tmp/ccSK5Jfi.s 			page 61


 1852              		.loc 1 285 45 view .LVU524
 1853 00e6 281A     		subs	r0, r5, r0
 1854              	.LVL204:
 1855              	.LBB129:
 1856              	.LBI129:
 162:Middlewares/lvgl/src/core/../misc/lv_anim.h **** {
 1857              		.loc 3 162 20 is_stmt 1 view .LVU525
 1858              	.LBB130:
 164:Middlewares/lvgl/src/core/../misc/lv_anim.h ****     a->current_value = start;
 1859              		.loc 3 164 5 view .LVU526
 164:Middlewares/lvgl/src/core/../misc/lv_anim.h ****     a->current_value = start;
 1860              		.loc 3 164 20 is_stmt 0 view .LVU527
 1861 00e8 0893     		str	r3, [sp, #32]
 165:Middlewares/lvgl/src/core/../misc/lv_anim.h ****     a->end_value = end;
 1862              		.loc 3 165 5 is_stmt 1 view .LVU528
 165:Middlewares/lvgl/src/core/../misc/lv_anim.h ****     a->end_value = end;
 1863              		.loc 3 165 22 is_stmt 0 view .LVU529
 1864 00ea 0993     		str	r3, [sp, #36]
 166:Middlewares/lvgl/src/core/../misc/lv_anim.h **** }
 1865              		.loc 3 166 5 is_stmt 1 view .LVU530
 166:Middlewares/lvgl/src/core/../misc/lv_anim.h **** }
 1866              		.loc 3 166 18 is_stmt 0 view .LVU531
 1867 00ec 0A90     		str	r0, [sp, #40]
 1868              	.LVL205:
 166:Middlewares/lvgl/src/core/../misc/lv_anim.h **** }
 1869              		.loc 3 166 18 view .LVU532
 1870              	.LBE130:
 1871              	.LBE129:
 286:Middlewares/lvgl/src/core/lv_obj_scroll.c ****             lv_anim_set_path_cb(&a, lv_anim_path_ease_out);
 1872              		.loc 1 286 13 is_stmt 1 view .LVU533
 1873              	.LBB131:
 1874              	.LBI131:
 131:Middlewares/lvgl/src/core/../misc/lv_anim.h **** {
 1875              		.loc 3 131 20 view .LVU534
 1876              	.LBB132:
 133:Middlewares/lvgl/src/core/../misc/lv_anim.h **** }
 1877              		.loc 3 133 5 view .LVU535
 133:Middlewares/lvgl/src/core/../misc/lv_anim.h **** }
 1878              		.loc 3 133 16 is_stmt 0 view .LVU536
 1879 00ee 074B     		ldr	r3, .L105
 1880 00f0 0293     		str	r3, [sp, #8]
 1881              	.LVL206:
 133:Middlewares/lvgl/src/core/../misc/lv_anim.h **** }
 1882              		.loc 3 133 16 view .LVU537
 1883              	.LBE132:
 1884              	.LBE131:
 287:Middlewares/lvgl/src/core/lv_obj_scroll.c ****             
 1885              		.loc 1 287 13 is_stmt 1 view .LVU538
 1886              	.LBB133:
 1887              	.LBI133:
 189:Middlewares/lvgl/src/core/../misc/lv_anim.h **** {
 1888              		.loc 3 189 20 view .LVU539
 1889              	.LBB134:
 191:Middlewares/lvgl/src/core/../misc/lv_anim.h **** }
 1890              		.loc 3 191 5 view .LVU540
 191:Middlewares/lvgl/src/core/../misc/lv_anim.h **** }
 1891              		.loc 3 191 16 is_stmt 0 view .LVU541
ARM GAS  /tmp/ccSK5Jfi.s 			page 62


 1892 00f2 094B     		ldr	r3, .L105+12
 1893 00f4 0793     		str	r3, [sp, #28]
 1894              	.LVL207:
 191:Middlewares/lvgl/src/core/../misc/lv_anim.h **** }
 1895              		.loc 3 191 16 view .LVU542
 1896              	.LBE134:
 1897              	.LBE133:
 289:Middlewares/lvgl/src/core/lv_obj_scroll.c ****             res = lv_event_send(obj, LV_EVENT_SCROLL_BEGIN, &a);
 1898              		.loc 1 289 13 is_stmt 1 view .LVU543
 290:Middlewares/lvgl/src/core/lv_obj_scroll.c ****             if(res != LV_RES_OK) return;
 1899              		.loc 1 290 13 view .LVU544
 290:Middlewares/lvgl/src/core/lv_obj_scroll.c ****             if(res != LV_RES_OK) return;
 1900              		.loc 1 290 19 is_stmt 0 view .LVU545
 1901 00f6 01AA     		add	r2, sp, #4
 1902 00f8 0921     		movs	r1, #9
 1903 00fa 2046     		mov	r0, r4
 1904 00fc FFF7FEFF 		bl	lv_event_send
 1905              	.LVL208:
 291:Middlewares/lvgl/src/core/lv_obj_scroll.c ****             lv_anim_start(&a);
 1906              		.loc 1 291 13 is_stmt 1 view .LVU546
 291:Middlewares/lvgl/src/core/lv_obj_scroll.c ****             lv_anim_start(&a);
 1907              		.loc 1 291 15 is_stmt 0 view .LVU547
 1908 0100 0128     		cmp	r0, #1
 1909 0102 9FD1     		bne	.L88
 292:Middlewares/lvgl/src/core/lv_obj_scroll.c ****         }
 1910              		.loc 1 292 13 is_stmt 1 view .LVU548
 1911 0104 01A8     		add	r0, sp, #4
 1912              	.LVL209:
 292:Middlewares/lvgl/src/core/lv_obj_scroll.c ****         }
 1913              		.loc 1 292 13 is_stmt 0 view .LVU549
 1914 0106 FFF7FEFF 		bl	lv_anim_start
 1915              	.LVL210:
 1916 010a 9BE7     		b	.L88
 1917              	.L106:
 1918              		.align	2
 1919              	.L105:
 1920 010c 00000000 		.word	scroll_y_anim
 1921 0110 00000000 		.word	scroll_x_anim
 1922 0114 00000000 		.word	scroll_anim_ready_cb
 1923 0118 00000000 		.word	lv_anim_path_ease_out
 1924              	.LBE144:
 1925              	.LBE121:
 1926              		.cfi_endproc
 1927              	.LFE168:
 1929              		.section	.text.scroll_area_into_view,"ax",%progbits
 1930              		.align	1
 1931              		.syntax unified
 1932              		.thumb
 1933              		.thumb_func
 1934              		.fpu fpv4-sp-d16
 1936              	scroll_area_into_view:
 1937              	.LVL211:
 1938              	.LFB183:
 615:Middlewares/lvgl/src/core/lv_obj_scroll.c **** 
 616:Middlewares/lvgl/src/core/lv_obj_scroll.c **** static void scroll_area_into_view(const lv_area_t * area, lv_obj_t * child, lv_point_t * scroll_val
 617:Middlewares/lvgl/src/core/lv_obj_scroll.c **** {
 1939              		.loc 1 617 1 is_stmt 1 view -0
ARM GAS  /tmp/ccSK5Jfi.s 			page 63


 1940              		.cfi_startproc
 1941              		@ args = 0, pretend = 0, frame = 24
 1942              		@ frame_needed = 0, uses_anonymous_args = 0
 1943              		.loc 1 617 1 is_stmt 0 view .LVU551
 1944 0000 2DE9F04F 		push	{r4, r5, r6, r7, r8, r9, r10, fp, lr}
 1945              	.LCFI16:
 1946              		.cfi_def_cfa_offset 36
 1947              		.cfi_offset 4, -36
 1948              		.cfi_offset 5, -32
 1949              		.cfi_offset 6, -28
 1950              		.cfi_offset 7, -24
 1951              		.cfi_offset 8, -20
 1952              		.cfi_offset 9, -16
 1953              		.cfi_offset 10, -12
 1954              		.cfi_offset 11, -8
 1955              		.cfi_offset 14, -4
 1956 0004 87B0     		sub	sp, sp, #28
 1957              	.LCFI17:
 1958              		.cfi_def_cfa_offset 64
 1959 0006 8146     		mov	r9, r0
 1960 0008 0C46     		mov	r4, r1
 1961 000a 0391     		str	r1, [sp, #12]
 1962 000c 9046     		mov	r8, r2
 1963 000e 0193     		str	r3, [sp, #4]
 618:Middlewares/lvgl/src/core/lv_obj_scroll.c ****     lv_obj_t * parent = lv_obj_get_parent(child);
 1964              		.loc 1 618 5 is_stmt 1 view .LVU552
 1965              		.loc 1 618 25 is_stmt 0 view .LVU553
 1966 0010 0846     		mov	r0, r1
 1967              	.LVL212:
 1968              		.loc 1 618 25 view .LVU554
 1969 0012 FFF7FEFF 		bl	lv_obj_get_parent
 1970              	.LVL213:
 1971              		.loc 1 618 25 view .LVU555
 1972 0016 0546     		mov	r5, r0
 1973              	.LVL214:
 619:Middlewares/lvgl/src/core/lv_obj_scroll.c ****     lv_dir_t scroll_dir = lv_obj_get_scroll_dir(parent);
 1974              		.loc 1 619 5 is_stmt 1 view .LVU556
 1975              		.loc 1 619 27 is_stmt 0 view .LVU557
 1976 0018 FFF7FEFF 		bl	lv_obj_get_scroll_dir
 1977              	.LVL215:
 1978              		.loc 1 619 27 view .LVU558
 1979 001c 0090     		str	r0, [sp]
 1980              	.LVL216:
 620:Middlewares/lvgl/src/core/lv_obj_scroll.c ****     lv_coord_t snap_goal = 0;
 1981              		.loc 1 620 5 is_stmt 1 view .LVU559
 621:Middlewares/lvgl/src/core/lv_obj_scroll.c ****     lv_coord_t act = 0;
 1982              		.loc 1 621 5 view .LVU560
 622:Middlewares/lvgl/src/core/lv_obj_scroll.c ****     const lv_area_t * area_tmp;
 1983              		.loc 1 622 5 view .LVU561
 623:Middlewares/lvgl/src/core/lv_obj_scroll.c **** 
 624:Middlewares/lvgl/src/core/lv_obj_scroll.c ****     lv_coord_t y_scroll = 0;
 1984              		.loc 1 624 5 view .LVU562
 625:Middlewares/lvgl/src/core/lv_obj_scroll.c ****     lv_scroll_snap_t snap_y = lv_obj_get_scroll_snap_y(parent);
 1985              		.loc 1 625 5 view .LVU563
 1986              		.loc 1 625 31 is_stmt 0 view .LVU564
 1987 001e 2846     		mov	r0, r5
 1988 0020 FFF7FEFF 		bl	lv_obj_get_scroll_snap_y
ARM GAS  /tmp/ccSK5Jfi.s 			page 64


 1989              	.LVL217:
 626:Middlewares/lvgl/src/core/lv_obj_scroll.c ****     if(snap_y != LV_SCROLL_SNAP_NONE) area_tmp = &child->coords;
 1990              		.loc 1 626 5 is_stmt 1 view .LVU565
 1991              		.loc 1 626 7 is_stmt 0 view .LVU566
 1992 0024 0290     		str	r0, [sp, #8]
 1993 0026 10B1     		cbz	r0, .L131
 1994              		.loc 1 626 39 is_stmt 1 discriminator 1 view .LVU567
 1995              		.loc 1 626 48 is_stmt 0 discriminator 1 view .LVU568
 1996 0028 04F1140B 		add	fp, r4, #20
 1997              	.LVL218:
 1998              		.loc 1 626 48 discriminator 1 view .LVU569
 1999 002c 00E0     		b	.L108
 2000              	.LVL219:
 2001              	.L131:
 627:Middlewares/lvgl/src/core/lv_obj_scroll.c ****     else area_tmp = area;
 2002              		.loc 1 627 19 view .LVU570
 2003 002e CB46     		mov	fp, r9
 2004              	.L108:
 2005              	.LVL220:
 628:Middlewares/lvgl/src/core/lv_obj_scroll.c **** 
 629:Middlewares/lvgl/src/core/lv_obj_scroll.c ****     lv_coord_t ptop = lv_obj_get_style_pad_top(parent, LV_PART_MAIN);
 2006              		.loc 1 629 5 is_stmt 1 view .LVU571
 2007              	.LBB145:
 2008              	.LBI145:
  91:Middlewares/lvgl/src/core/lv_obj_style_gen.h **** {
 2009              		.loc 2 91 26 view .LVU572
 2010              	.LBB146:
  93:Middlewares/lvgl/src/core/lv_obj_style_gen.h ****     return (lv_coord_t)v.num;
 2011              		.loc 2 93 5 view .LVU573
  93:Middlewares/lvgl/src/core/lv_obj_style_gen.h ****     return (lv_coord_t)v.num;
 2012              		.loc 2 93 26 is_stmt 0 view .LVU574
 2013 0030 41F21002 		movw	r2, #4112
 2014 0034 0021     		movs	r1, #0
 2015 0036 2846     		mov	r0, r5
 2016              	.LVL221:
  93:Middlewares/lvgl/src/core/lv_obj_style_gen.h ****     return (lv_coord_t)v.num;
 2017              		.loc 2 93 26 view .LVU575
 2018 0038 FFF7FEFF 		bl	lv_obj_get_style_prop
 2019              	.LVL222:
 2020 003c 0646     		mov	r6, r0
 2021              	.LVL223:
  94:Middlewares/lvgl/src/core/lv_obj_style_gen.h **** }
 2022              		.loc 2 94 5 is_stmt 1 view .LVU576
  94:Middlewares/lvgl/src/core/lv_obj_style_gen.h **** }
 2023              		.loc 2 94 5 is_stmt 0 view .LVU577
 2024              	.LBE146:
 2025              	.LBE145:
 630:Middlewares/lvgl/src/core/lv_obj_scroll.c ****     lv_coord_t pbottom = lv_obj_get_style_pad_bottom(parent, LV_PART_MAIN);
 2026              		.loc 1 630 5 is_stmt 1 view .LVU578
 2027              	.LBB147:
 2028              	.LBI147:
  97:Middlewares/lvgl/src/core/lv_obj_style_gen.h **** {
 2029              		.loc 2 97 26 view .LVU579
 2030              	.LBB148:
  99:Middlewares/lvgl/src/core/lv_obj_style_gen.h ****     return (lv_coord_t)v.num;
 2031              		.loc 2 99 5 view .LVU580
  99:Middlewares/lvgl/src/core/lv_obj_style_gen.h ****     return (lv_coord_t)v.num;
ARM GAS  /tmp/ccSK5Jfi.s 			page 65


 2032              		.loc 2 99 26 is_stmt 0 view .LVU581
 2033 003e 41F21102 		movw	r2, #4113
 2034 0042 0021     		movs	r1, #0
 2035 0044 2846     		mov	r0, r5
 2036 0046 FFF7FEFF 		bl	lv_obj_get_style_prop
 2037              	.LVL224:
 100:Middlewares/lvgl/src/core/lv_obj_style_gen.h **** }
 2038              		.loc 2 100 5 is_stmt 1 view .LVU582
 100:Middlewares/lvgl/src/core/lv_obj_style_gen.h **** }
 2039              		.loc 2 100 5 is_stmt 0 view .LVU583
 2040              	.LBE148:
 2041              	.LBE147:
 631:Middlewares/lvgl/src/core/lv_obj_scroll.c ****     lv_coord_t top_diff = parent->coords.y1 + ptop - area_tmp->y1 - scroll_value->y;
 2042              		.loc 1 631 5 is_stmt 1 view .LVU584
 2043              		.loc 1 631 41 is_stmt 0 view .LVU585
 2044 004a EC8A     		ldrh	r4, [r5, #22]
 2045              	.LVL225:
 2046              		.loc 1 631 45 view .LVU586
 2047 004c B6B2     		uxth	r6, r6
 2048              		.loc 1 631 45 view .LVU587
 2049 004e 3444     		add	r4, r4, r6
 2050 0050 A4B2     		uxth	r4, r4
 2051              		.loc 1 631 62 view .LVU588
 2052 0052 BBF80230 		ldrh	r3, [fp, #2]
 2053              		.loc 1 631 52 view .LVU589
 2054 0056 E41A     		subs	r4, r4, r3
 2055 0058 A4B2     		uxth	r4, r4
 2056              		.loc 1 631 81 view .LVU590
 2057 005a B8F80270 		ldrh	r7, [r8, #2]
 2058              		.loc 1 631 67 view .LVU591
 2059 005e E41B     		subs	r4, r4, r7
 2060              		.loc 1 631 16 view .LVU592
 2061 0060 24B2     		sxth	r4, r4
 2062              	.LVL226:
 632:Middlewares/lvgl/src/core/lv_obj_scroll.c ****     lv_coord_t bottom_diff = -(parent->coords.y2 - pbottom - area_tmp->y2 - scroll_value->y);
 2063              		.loc 1 632 5 is_stmt 1 view .LVU593
 2064              		.loc 1 632 70 is_stmt 0 view .LVU594
 2065 0062 BBF80630 		ldrh	r3, [fp, #6]
 2066              		.loc 1 632 30 view .LVU595
 2067 0066 1FFA80FA 		uxth	r10, r0
 2068              		.loc 1 632 46 view .LVU596
 2069 006a 6A8B     		ldrh	r2, [r5, #26]
 2070              		.loc 1 632 30 view .LVU597
 2071 006c AAEB0202 		sub	r2, r10, r2
 2072 0070 1344     		add	r3, r3, r2
 2073 0072 1F44     		add	r7, r7, r3
 2074 0074 BBB2     		uxth	r3, r7
 2075 0076 0593     		str	r3, [sp, #20]
 2076              		.loc 1 632 16 view .LVU598
 2077 0078 3FB2     		sxth	r7, r7
 2078              	.LVL227:
 633:Middlewares/lvgl/src/core/lv_obj_scroll.c ****     lv_coord_t parent_h = lv_obj_get_height(parent) - ptop - pbottom;
 2079              		.loc 1 633 5 is_stmt 1 view .LVU599
 2080              		.loc 1 633 27 is_stmt 0 view .LVU600
 2081 007a 2846     		mov	r0, r5
 2082              	.LVL228:
 2083              		.loc 1 633 27 view .LVU601
ARM GAS  /tmp/ccSK5Jfi.s 			page 66


 2084 007c FFF7FEFF 		bl	lv_obj_get_height
 2085              	.LVL229:
 2086 0080 83B2     		uxth	r3, r0
 2087              		.loc 1 633 53 view .LVU602
 2088 0082 9B1B     		subs	r3, r3, r6
 2089 0084 9BB2     		uxth	r3, r3
 2090              		.loc 1 633 60 view .LVU603
 2091 0086 A3EB0A03 		sub	r3, r3, r10
 2092              		.loc 1 633 16 view .LVU604
 2093 008a 1BB2     		sxth	r3, r3
 2094 008c 0493     		str	r3, [sp, #16]
 2095              	.LVL230:
 634:Middlewares/lvgl/src/core/lv_obj_scroll.c ****     if((top_diff > 0 && bottom_diff > 0)) y_scroll = 0;
 2096              		.loc 1 634 5 is_stmt 1 view .LVU605
 2097              		.loc 1 634 7 is_stmt 0 view .LVU606
 2098 008e 002C     		cmp	r4, #0
 2099 0090 40F3A180 		ble	.L109
 2100              		.loc 1 634 22 discriminator 1 view .LVU607
 2101 0094 002F     		cmp	r7, #0
 2102 0096 40F39E80 		ble	.L109
 2103              		.loc 1 634 52 view .LVU608
 2104 009a 0024     		movs	r4, #0
 2105              	.LVL231:
 2106              	.L110:
 635:Middlewares/lvgl/src/core/lv_obj_scroll.c ****     else if(top_diff > 0) {
 636:Middlewares/lvgl/src/core/lv_obj_scroll.c ****         y_scroll = top_diff;
 637:Middlewares/lvgl/src/core/lv_obj_scroll.c ****         /*Do not let scrolling in*/
 638:Middlewares/lvgl/src/core/lv_obj_scroll.c ****         lv_coord_t st = lv_obj_get_scroll_top(parent);
 639:Middlewares/lvgl/src/core/lv_obj_scroll.c ****         if(st - y_scroll < 0) y_scroll = 0;
 640:Middlewares/lvgl/src/core/lv_obj_scroll.c ****     }
 641:Middlewares/lvgl/src/core/lv_obj_scroll.c ****     else if(bottom_diff > 0) {
 642:Middlewares/lvgl/src/core/lv_obj_scroll.c ****         y_scroll = -bottom_diff;
 643:Middlewares/lvgl/src/core/lv_obj_scroll.c ****         /*Do not let scrolling in*/
 644:Middlewares/lvgl/src/core/lv_obj_scroll.c ****         lv_coord_t sb = lv_obj_get_scroll_bottom(parent);
 645:Middlewares/lvgl/src/core/lv_obj_scroll.c ****         if(sb + y_scroll < 0) y_scroll = 0;
 646:Middlewares/lvgl/src/core/lv_obj_scroll.c ****     }
 647:Middlewares/lvgl/src/core/lv_obj_scroll.c **** 
 648:Middlewares/lvgl/src/core/lv_obj_scroll.c ****     switch(snap_y) {
 2107              		.loc 1 648 5 is_stmt 1 view .LVU609
 2108 009c 029B     		ldr	r3, [sp, #8]
 2109 009e 022B     		cmp	r3, #2
 2110 00a0 00F0C080 		beq	.L112
 2111 00a4 032B     		cmp	r3, #3
 2112 00a6 00F0CD80 		beq	.L113
 2113 00aa 012B     		cmp	r3, #1
 2114 00ac 00F0AD80 		beq	.L147
 2115              	.LVL232:
 2116              	.L114:
 649:Middlewares/lvgl/src/core/lv_obj_scroll.c ****     case LV_SCROLL_SNAP_START:
 650:Middlewares/lvgl/src/core/lv_obj_scroll.c ****         snap_goal = parent->coords.y1 + ptop;
 651:Middlewares/lvgl/src/core/lv_obj_scroll.c ****         act = area_tmp->y1 + y_scroll;
 652:Middlewares/lvgl/src/core/lv_obj_scroll.c ****         y_scroll += snap_goal - act;
 653:Middlewares/lvgl/src/core/lv_obj_scroll.c ****         break;
 654:Middlewares/lvgl/src/core/lv_obj_scroll.c ****     case LV_SCROLL_SNAP_END:
 655:Middlewares/lvgl/src/core/lv_obj_scroll.c ****         snap_goal = parent->coords.y2 - pbottom;
 656:Middlewares/lvgl/src/core/lv_obj_scroll.c ****         act = area_tmp->y2 + y_scroll;
 657:Middlewares/lvgl/src/core/lv_obj_scroll.c ****         y_scroll += snap_goal - act;
ARM GAS  /tmp/ccSK5Jfi.s 			page 67


 658:Middlewares/lvgl/src/core/lv_obj_scroll.c ****         break;
 659:Middlewares/lvgl/src/core/lv_obj_scroll.c ****     case LV_SCROLL_SNAP_CENTER:
 660:Middlewares/lvgl/src/core/lv_obj_scroll.c ****         snap_goal = parent->coords.y1 + ptop + parent_h / 2;
 661:Middlewares/lvgl/src/core/lv_obj_scroll.c ****         act = lv_area_get_height(area_tmp) / 2 + area_tmp->y1 + y_scroll;
 662:Middlewares/lvgl/src/core/lv_obj_scroll.c ****         y_scroll += snap_goal - act;
 663:Middlewares/lvgl/src/core/lv_obj_scroll.c ****         break;
 664:Middlewares/lvgl/src/core/lv_obj_scroll.c ****     }
 665:Middlewares/lvgl/src/core/lv_obj_scroll.c **** 
 666:Middlewares/lvgl/src/core/lv_obj_scroll.c ****     lv_coord_t x_scroll = 0;
 2117              		.loc 1 666 5 view .LVU610
 667:Middlewares/lvgl/src/core/lv_obj_scroll.c ****     lv_scroll_snap_t snap_x = lv_obj_get_scroll_snap_x(parent);
 2118              		.loc 1 667 5 view .LVU611
 2119              		.loc 1 667 31 is_stmt 0 view .LVU612
 2120 00b0 2846     		mov	r0, r5
 2121 00b2 FFF7FEFF 		bl	lv_obj_get_scroll_snap_x
 2122              	.LVL233:
 668:Middlewares/lvgl/src/core/lv_obj_scroll.c ****     if(snap_x != LV_SCROLL_SNAP_NONE) area_tmp = &child->coords;
 2123              		.loc 1 668 5 is_stmt 1 view .LVU613
 2124              		.loc 1 668 7 is_stmt 0 view .LVU614
 2125 00b6 8346     		mov	fp, r0
 2126              	.LVL234:
 2127              		.loc 1 668 7 view .LVU615
 2128 00b8 10B1     		cbz	r0, .L115
 2129              		.loc 1 668 39 is_stmt 1 discriminator 1 view .LVU616
 2130              		.loc 1 668 48 is_stmt 0 discriminator 1 view .LVU617
 2131 00ba 039B     		ldr	r3, [sp, #12]
 2132 00bc 03F11409 		add	r9, r3, #20
 2133              	.LVL235:
 2134              	.L115:
 669:Middlewares/lvgl/src/core/lv_obj_scroll.c ****     else area_tmp = area;
 670:Middlewares/lvgl/src/core/lv_obj_scroll.c **** 
 671:Middlewares/lvgl/src/core/lv_obj_scroll.c ****     lv_coord_t pleft = lv_obj_get_style_pad_left(parent, LV_PART_MAIN);
 2135              		.loc 1 671 5 is_stmt 1 view .LVU618
 2136              	.LBB149:
 2137              	.LBI149:
 103:Middlewares/lvgl/src/core/lv_obj_style_gen.h **** {
 2138              		.loc 2 103 26 view .LVU619
 2139              	.LBB150:
 105:Middlewares/lvgl/src/core/lv_obj_style_gen.h ****     return (lv_coord_t)v.num;
 2140              		.loc 2 105 5 view .LVU620
 105:Middlewares/lvgl/src/core/lv_obj_style_gen.h ****     return (lv_coord_t)v.num;
 2141              		.loc 2 105 26 is_stmt 0 view .LVU621
 2142 00c0 41F21202 		movw	r2, #4114
 2143 00c4 0021     		movs	r1, #0
 2144 00c6 2846     		mov	r0, r5
 2145              	.LVL236:
 105:Middlewares/lvgl/src/core/lv_obj_style_gen.h ****     return (lv_coord_t)v.num;
 2146              		.loc 2 105 26 view .LVU622
 2147 00c8 FFF7FEFF 		bl	lv_obj_get_style_prop
 2148              	.LVL237:
 2149 00cc 0746     		mov	r7, r0
 2150              	.LVL238:
 106:Middlewares/lvgl/src/core/lv_obj_style_gen.h **** }
 2151              		.loc 2 106 5 is_stmt 1 view .LVU623
 106:Middlewares/lvgl/src/core/lv_obj_style_gen.h **** }
 2152              		.loc 2 106 5 is_stmt 0 view .LVU624
 2153              	.LBE150:
ARM GAS  /tmp/ccSK5Jfi.s 			page 68


 2154              	.LBE149:
 672:Middlewares/lvgl/src/core/lv_obj_scroll.c ****     lv_coord_t pright = lv_obj_get_style_pad_right(parent, LV_PART_MAIN);
 2155              		.loc 1 672 5 is_stmt 1 view .LVU625
 2156              	.LBB151:
 2157              	.LBI151:
 109:Middlewares/lvgl/src/core/lv_obj_style_gen.h **** {
 2158              		.loc 2 109 26 view .LVU626
 2159              	.LBB152:
 111:Middlewares/lvgl/src/core/lv_obj_style_gen.h ****     return (lv_coord_t)v.num;
 2160              		.loc 2 111 5 view .LVU627
 111:Middlewares/lvgl/src/core/lv_obj_style_gen.h ****     return (lv_coord_t)v.num;
 2161              		.loc 2 111 26 is_stmt 0 view .LVU628
 2162 00ce 41F21302 		movw	r2, #4115
 2163 00d2 0021     		movs	r1, #0
 2164 00d4 2846     		mov	r0, r5
 2165 00d6 FFF7FEFF 		bl	lv_obj_get_style_prop
 2166              	.LVL239:
 112:Middlewares/lvgl/src/core/lv_obj_style_gen.h **** }
 2167              		.loc 2 112 5 is_stmt 1 view .LVU629
 112:Middlewares/lvgl/src/core/lv_obj_style_gen.h **** }
 2168              		.loc 2 112 5 is_stmt 0 view .LVU630
 2169              	.LBE152:
 2170              	.LBE151:
 673:Middlewares/lvgl/src/core/lv_obj_scroll.c ****     lv_coord_t left_diff = parent->coords.x1 + pleft - area_tmp->x1 - scroll_value->x;
 2171              		.loc 1 673 5 is_stmt 1 view .LVU631
 2172              		.loc 1 673 42 is_stmt 0 view .LVU632
 2173 00da AE8A     		ldrh	r6, [r5, #20]
 2174              		.loc 1 673 46 view .LVU633
 2175 00dc BFB2     		uxth	r7, r7
 2176              		.loc 1 673 46 view .LVU634
 2177 00de 3E44     		add	r6, r6, r7
 2178 00e0 B6B2     		uxth	r6, r6
 2179              		.loc 1 673 64 view .LVU635
 2180 00e2 B9F80030 		ldrh	r3, [r9]
 2181              		.loc 1 673 54 view .LVU636
 2182 00e6 F61A     		subs	r6, r6, r3
 2183 00e8 B6B2     		uxth	r6, r6
 2184              		.loc 1 673 83 view .LVU637
 2185 00ea B8F80030 		ldrh	r3, [r8]
 2186              		.loc 1 673 69 view .LVU638
 2187 00ee F61A     		subs	r6, r6, r3
 2188              		.loc 1 673 16 view .LVU639
 2189 00f0 36B2     		sxth	r6, r6
 2190              	.LVL240:
 674:Middlewares/lvgl/src/core/lv_obj_scroll.c ****     lv_coord_t right_diff = -(parent->coords.x2 - pright - area_tmp->x2- scroll_value->x);
 2191              		.loc 1 674 5 is_stmt 1 view .LVU640
 2192              		.loc 1 674 68 is_stmt 0 view .LVU641
 2193 00f2 B9F80420 		ldrh	r2, [r9, #4]
 2194              		.loc 1 674 29 view .LVU642
 2195 00f6 1FFA80FA 		uxth	r10, r0
 2196              		.loc 1 674 45 view .LVU643
 2197 00fa 298B     		ldrh	r1, [r5, #24]
 2198              		.loc 1 674 29 view .LVU644
 2199 00fc AAEB0101 		sub	r1, r10, r1
 2200 0100 0A44     		add	r2, r2, r1
 2201 0102 1344     		add	r3, r3, r2
 2202 0104 9AB2     		uxth	r2, r3
ARM GAS  /tmp/ccSK5Jfi.s 			page 69


 2203              		.loc 1 674 16 view .LVU645
 2204 0106 1BB2     		sxth	r3, r3
 2205              	.LVL241:
 675:Middlewares/lvgl/src/core/lv_obj_scroll.c ****     if((left_diff > 0 && right_diff > 0)) x_scroll = 0;
 2206              		.loc 1 675 5 is_stmt 1 view .LVU646
 2207              		.loc 1 675 7 is_stmt 0 view .LVU647
 2208 0108 002E     		cmp	r6, #0
 2209 010a 40F3BA80 		ble	.L116
 2210              		.loc 1 675 23 discriminator 1 view .LVU648
 2211 010e 002B     		cmp	r3, #0
 2212 0110 40F3B780 		ble	.L116
 2213              		.loc 1 675 52 view .LVU649
 2214 0114 0026     		movs	r6, #0
 2215              	.LVL242:
 2216              	.L117:
 676:Middlewares/lvgl/src/core/lv_obj_scroll.c ****     else if(left_diff > 0) {
 677:Middlewares/lvgl/src/core/lv_obj_scroll.c ****         x_scroll = left_diff;
 678:Middlewares/lvgl/src/core/lv_obj_scroll.c ****         /*Do not let scrolling in*/
 679:Middlewares/lvgl/src/core/lv_obj_scroll.c ****         lv_coord_t sl = lv_obj_get_scroll_left(parent);
 680:Middlewares/lvgl/src/core/lv_obj_scroll.c ****         if(sl + x_scroll > 0) x_scroll = 0;
 681:Middlewares/lvgl/src/core/lv_obj_scroll.c ****     }
 682:Middlewares/lvgl/src/core/lv_obj_scroll.c ****     else if(right_diff > 0) {
 683:Middlewares/lvgl/src/core/lv_obj_scroll.c ****         x_scroll = -right_diff;
 684:Middlewares/lvgl/src/core/lv_obj_scroll.c ****         /*Do not let scrolling in*/
 685:Middlewares/lvgl/src/core/lv_obj_scroll.c ****         lv_coord_t sr = lv_obj_get_scroll_right(parent);
 686:Middlewares/lvgl/src/core/lv_obj_scroll.c ****         if(sr + x_scroll < 0) x_scroll = 0;
 687:Middlewares/lvgl/src/core/lv_obj_scroll.c ****     }
 688:Middlewares/lvgl/src/core/lv_obj_scroll.c **** 
 689:Middlewares/lvgl/src/core/lv_obj_scroll.c ****     lv_coord_t parent_w = lv_obj_get_width(parent) - pleft - pright;
 2217              		.loc 1 689 5 is_stmt 1 view .LVU650
 2218              		.loc 1 689 27 is_stmt 0 view .LVU651
 2219 0116 2846     		mov	r0, r5
 2220 0118 FFF7FEFF 		bl	lv_obj_get_width
 2221              	.LVL243:
 2222 011c 83B2     		uxth	r3, r0
 2223              		.loc 1 689 52 view .LVU652
 2224 011e DB1B     		subs	r3, r3, r7
 2225 0120 9BB2     		uxth	r3, r3
 2226              		.loc 1 689 60 view .LVU653
 2227 0122 A3EB0A03 		sub	r3, r3, r10
 2228              		.loc 1 689 16 view .LVU654
 2229 0126 1BB2     		sxth	r3, r3
 2230              	.LVL244:
 690:Middlewares/lvgl/src/core/lv_obj_scroll.c ****     switch(snap_x) {
 2231              		.loc 1 690 5 is_stmt 1 view .LVU655
 2232 0128 BBF1020F 		cmp	fp, #2
 2233 012c 00F0CF80 		beq	.L119
 2234 0130 BBF1030F 		cmp	fp, #3
 2235 0134 00F0DB80 		beq	.L120
 2236 0138 BBF1010F 		cmp	fp, #1
 2237 013c 00F0BA80 		beq	.L148
 2238              	.LVL245:
 2239              	.L121:
 691:Middlewares/lvgl/src/core/lv_obj_scroll.c ****     case LV_SCROLL_SNAP_START:
 692:Middlewares/lvgl/src/core/lv_obj_scroll.c ****         snap_goal = parent->coords.x1 + pleft;
 693:Middlewares/lvgl/src/core/lv_obj_scroll.c ****         act = area_tmp->x1 + x_scroll;
 694:Middlewares/lvgl/src/core/lv_obj_scroll.c ****         x_scroll += snap_goal - act;
ARM GAS  /tmp/ccSK5Jfi.s 			page 70


 695:Middlewares/lvgl/src/core/lv_obj_scroll.c ****         break;
 696:Middlewares/lvgl/src/core/lv_obj_scroll.c ****     case LV_SCROLL_SNAP_END:
 697:Middlewares/lvgl/src/core/lv_obj_scroll.c ****         snap_goal = parent->coords.x2 - pright;
 698:Middlewares/lvgl/src/core/lv_obj_scroll.c ****         act = area_tmp->x2 + x_scroll;
 699:Middlewares/lvgl/src/core/lv_obj_scroll.c ****         x_scroll += snap_goal - act;
 700:Middlewares/lvgl/src/core/lv_obj_scroll.c ****         break;
 701:Middlewares/lvgl/src/core/lv_obj_scroll.c ****     case LV_SCROLL_SNAP_CENTER:
 702:Middlewares/lvgl/src/core/lv_obj_scroll.c ****         snap_goal = parent->coords.x1 + pleft + parent_w / 2;
 703:Middlewares/lvgl/src/core/lv_obj_scroll.c ****         act = lv_area_get_width(area_tmp) / 2 + area_tmp->x1 + x_scroll;
 704:Middlewares/lvgl/src/core/lv_obj_scroll.c ****         x_scroll += snap_goal - act;
 705:Middlewares/lvgl/src/core/lv_obj_scroll.c ****         break;
 706:Middlewares/lvgl/src/core/lv_obj_scroll.c ****     }
 707:Middlewares/lvgl/src/core/lv_obj_scroll.c **** 
 708:Middlewares/lvgl/src/core/lv_obj_scroll.c ****     /*Remove any pending scroll animations.*/
 709:Middlewares/lvgl/src/core/lv_obj_scroll.c ****     bool y_del = lv_anim_del(parent, scroll_y_anim);
 2240              		.loc 1 709 5 view .LVU656
 2241              		.loc 1 709 18 is_stmt 0 view .LVU657
 2242 0140 7E49     		ldr	r1, .L154
 2243 0142 2846     		mov	r0, r5
 2244 0144 FFF7FEFF 		bl	lv_anim_del
 2245              	.LVL246:
 2246 0148 0746     		mov	r7, r0
 2247              	.LVL247:
 710:Middlewares/lvgl/src/core/lv_obj_scroll.c ****     bool x_del = lv_anim_del(parent, scroll_x_anim);
 2248              		.loc 1 710 5 is_stmt 1 view .LVU658
 2249              		.loc 1 710 18 is_stmt 0 view .LVU659
 2250 014a 7D49     		ldr	r1, .L154+4
 2251 014c 2846     		mov	r0, r5
 2252 014e FFF7FEFF 		bl	lv_anim_del
 2253              	.LVL248:
 711:Middlewares/lvgl/src/core/lv_obj_scroll.c ****     if(y_del || x_del) {
 2254              		.loc 1 711 5 is_stmt 1 view .LVU660
 2255              		.loc 1 711 7 is_stmt 0 view .LVU661
 2256 0152 07B9     		cbnz	r7, .L122
 2257              		.loc 1 711 14 discriminator 1 view .LVU662
 2258 0154 30B1     		cbz	r0, .L123
 2259              	.L122:
 2260              	.LBB153:
 712:Middlewares/lvgl/src/core/lv_obj_scroll.c ****         lv_res_t res;
 2261              		.loc 1 712 9 is_stmt 1 view .LVU663
 713:Middlewares/lvgl/src/core/lv_obj_scroll.c ****         res = lv_event_send(parent, LV_EVENT_SCROLL_END, NULL);
 2262              		.loc 1 713 9 view .LVU664
 2263              		.loc 1 713 15 is_stmt 0 view .LVU665
 2264 0156 0022     		movs	r2, #0
 2265 0158 0A21     		movs	r1, #10
 2266 015a 2846     		mov	r0, r5
 2267              	.LVL249:
 2268              		.loc 1 713 15 view .LVU666
 2269 015c FFF7FEFF 		bl	lv_event_send
 2270              	.LVL250:
 714:Middlewares/lvgl/src/core/lv_obj_scroll.c ****         if(res != LV_RES_OK) return;
 2271              		.loc 1 714 9 is_stmt 1 view .LVU667
 2272              		.loc 1 714 11 is_stmt 0 view .LVU668
 2273 0160 0128     		cmp	r0, #1
 2274 0162 35D1     		bne	.L107
 2275              	.LVL251:
 2276              	.L123:
ARM GAS  /tmp/ccSK5Jfi.s 			page 71


 2277              		.loc 1 714 11 view .LVU669
 2278              	.LBE153:
 715:Middlewares/lvgl/src/core/lv_obj_scroll.c ****     }
 716:Middlewares/lvgl/src/core/lv_obj_scroll.c **** 
 717:Middlewares/lvgl/src/core/lv_obj_scroll.c ****     if((scroll_dir & LV_DIR_LEFT) == 0 && x_scroll < 0) x_scroll = 0;
 2279              		.loc 1 717 5 is_stmt 1 view .LVU670
 2280              		.loc 1 717 7 is_stmt 0 view .LVU671
 2281 0164 009B     		ldr	r3, [sp]
 2282 0166 13F0010F 		tst	r3, #1
 2283 016a 02D1     		bne	.L125
 2284              		.loc 1 717 40 discriminator 1 view .LVU672
 2285 016c 002E     		cmp	r6, #0
 2286 016e C0F2DC80 		blt	.L149
 2287              	.LVL252:
 2288              	.L125:
 718:Middlewares/lvgl/src/core/lv_obj_scroll.c ****     if((scroll_dir & LV_DIR_RIGHT) == 0 && x_scroll > 0) x_scroll = 0;
 2289              		.loc 1 718 5 is_stmt 1 view .LVU673
 2290              		.loc 1 718 7 is_stmt 0 view .LVU674
 2291 0172 009B     		ldr	r3, [sp]
 2292 0174 13F0020F 		tst	r3, #2
 2293 0178 02D1     		bne	.L126
 2294              		.loc 1 718 41 discriminator 1 view .LVU675
 2295 017a 002E     		cmp	r6, #0
 2296 017c 00DD     		ble	.L126
 2297              		.loc 1 718 67 view .LVU676
 2298 017e 0026     		movs	r6, #0
 2299              	.LVL253:
 2300              	.L126:
 719:Middlewares/lvgl/src/core/lv_obj_scroll.c ****     if((scroll_dir & LV_DIR_TOP) == 0 && y_scroll < 0) y_scroll = 0;
 2301              		.loc 1 719 5 is_stmt 1 view .LVU677
 2302              		.loc 1 719 7 is_stmt 0 view .LVU678
 2303 0180 009B     		ldr	r3, [sp]
 2304 0182 13F0040F 		tst	r3, #4
 2305 0186 02D1     		bne	.L127
 2306              		.loc 1 719 39 discriminator 1 view .LVU679
 2307 0188 002C     		cmp	r4, #0
 2308 018a C0F2D080 		blt	.L150
 2309              	.LVL254:
 2310              	.L127:
 720:Middlewares/lvgl/src/core/lv_obj_scroll.c ****     if((scroll_dir & LV_DIR_BOTTOM) == 0 && y_scroll > 0) y_scroll = 0;
 2311              		.loc 1 720 5 is_stmt 1 view .LVU680
 2312              		.loc 1 720 7 is_stmt 0 view .LVU681
 2313 018e 009B     		ldr	r3, [sp]
 2314 0190 13F0080F 		tst	r3, #8
 2315 0194 02D1     		bne	.L128
 2316              		.loc 1 720 42 discriminator 1 view .LVU682
 2317 0196 002C     		cmp	r4, #0
 2318 0198 00DD     		ble	.L128
 2319              		.loc 1 720 68 view .LVU683
 2320 019a 0024     		movs	r4, #0
 2321              	.LVL255:
 2322              	.L128:
 721:Middlewares/lvgl/src/core/lv_obj_scroll.c **** 
 722:Middlewares/lvgl/src/core/lv_obj_scroll.c ****     scroll_value->x += anim_en == LV_ANIM_OFF ? 0 : x_scroll;
 2323              		.loc 1 722 5 is_stmt 1 view .LVU684
 2324              		.loc 1 722 21 is_stmt 0 view .LVU685
 2325 019c B8F80030 		ldrh	r3, [r8]
ARM GAS  /tmp/ccSK5Jfi.s 			page 72


 2326 01a0 019A     		ldr	r2, [sp, #4]
 2327 01a2 002A     		cmp	r2, #0
 2328 01a4 00F0C580 		beq	.L144
 2329              		.loc 1 722 21 discriminator 1 view .LVU686
 2330 01a8 B2B2     		uxth	r2, r6
 2331              	.L129:
 2332              		.loc 1 722 21 discriminator 4 view .LVU687
 2333 01aa 1344     		add	r3, r3, r2
 2334 01ac A8F80030 		strh	r3, [r8]	@ movhi
 723:Middlewares/lvgl/src/core/lv_obj_scroll.c ****     scroll_value->y += anim_en == LV_ANIM_OFF ? 0 : y_scroll;
 2335              		.loc 1 723 5 is_stmt 1 discriminator 4 view .LVU688
 2336              		.loc 1 723 21 is_stmt 0 discriminator 4 view .LVU689
 2337 01b0 B8F80230 		ldrh	r3, [r8, #2]
 2338 01b4 019A     		ldr	r2, [sp, #4]
 2339 01b6 002A     		cmp	r2, #0
 2340 01b8 00F0BD80 		beq	.L145
 2341              		.loc 1 723 21 discriminator 1 view .LVU690
 2342 01bc A2B2     		uxth	r2, r4
 2343              	.L130:
 2344              		.loc 1 723 21 discriminator 4 view .LVU691
 2345 01be 1344     		add	r3, r3, r2
 2346 01c0 A8F80230 		strh	r3, [r8, #2]	@ movhi
 724:Middlewares/lvgl/src/core/lv_obj_scroll.c ****     lv_obj_scroll_by(parent, x_scroll, y_scroll, anim_en);
 2347              		.loc 1 724 5 is_stmt 1 discriminator 4 view .LVU692
 2348 01c4 019B     		ldr	r3, [sp, #4]
 2349 01c6 2246     		mov	r2, r4
 2350 01c8 3146     		mov	r1, r6
 2351 01ca 2846     		mov	r0, r5
 2352 01cc FFF7FEFF 		bl	lv_obj_scroll_by
 2353              	.LVL256:
 2354              	.L107:
 725:Middlewares/lvgl/src/core/lv_obj_scroll.c **** }
 2355              		.loc 1 725 1 is_stmt 0 view .LVU693
 2356 01d0 07B0     		add	sp, sp, #28
 2357              	.LCFI18:
 2358              		.cfi_remember_state
 2359              		.cfi_def_cfa_offset 36
 2360              	.LVL257:
 2361              		.loc 1 725 1 view .LVU694
 2362              		@ sp needed
 2363 01d2 BDE8F08F 		pop	{r4, r5, r6, r7, r8, r9, r10, fp, pc}
 2364              	.LVL258:
 2365              	.L109:
 2366              	.LCFI19:
 2367              		.cfi_restore_state
 635:Middlewares/lvgl/src/core/lv_obj_scroll.c ****         y_scroll = top_diff;
 2368              		.loc 1 635 10 is_stmt 1 view .LVU695
 635:Middlewares/lvgl/src/core/lv_obj_scroll.c ****         y_scroll = top_diff;
 2369              		.loc 1 635 12 is_stmt 0 view .LVU696
 2370 01d6 002C     		cmp	r4, #0
 2371 01d8 08DD     		ble	.L111
 2372              	.LBB154:
 636:Middlewares/lvgl/src/core/lv_obj_scroll.c ****         /*Do not let scrolling in*/
 2373              		.loc 1 636 9 is_stmt 1 view .LVU697
 2374              	.LVL259:
 638:Middlewares/lvgl/src/core/lv_obj_scroll.c ****         if(st - y_scroll < 0) y_scroll = 0;
 2375              		.loc 1 638 9 view .LVU698
ARM GAS  /tmp/ccSK5Jfi.s 			page 73


 638:Middlewares/lvgl/src/core/lv_obj_scroll.c ****         if(st - y_scroll < 0) y_scroll = 0;
 2376              		.loc 1 638 25 is_stmt 0 view .LVU699
 2377 01da 2846     		mov	r0, r5
 2378 01dc FFF7FEFF 		bl	lv_obj_get_scroll_top
 2379              	.LVL260:
 639:Middlewares/lvgl/src/core/lv_obj_scroll.c ****     }
 2380              		.loc 1 639 9 is_stmt 1 view .LVU700
 639:Middlewares/lvgl/src/core/lv_obj_scroll.c ****     }
 2381              		.loc 1 639 15 is_stmt 0 view .LVU701
 2382 01e0 001B     		subs	r0, r0, r4
 2383              	.LVL261:
 639:Middlewares/lvgl/src/core/lv_obj_scroll.c ****     }
 2384              		.loc 1 639 11 view .LVU702
 2385 01e2 0028     		cmp	r0, #0
 2386 01e4 BFF65AAF 		bge	.L110
 639:Middlewares/lvgl/src/core/lv_obj_scroll.c ****     }
 2387              		.loc 1 639 40 view .LVU703
 2388 01e8 0024     		movs	r4, #0
 2389              	.LVL262:
 639:Middlewares/lvgl/src/core/lv_obj_scroll.c ****     }
 2390              		.loc 1 639 40 view .LVU704
 2391 01ea 57E7     		b	.L110
 2392              	.LVL263:
 2393              	.L111:
 639:Middlewares/lvgl/src/core/lv_obj_scroll.c ****     }
