ARM GAS  /tmp/ccyhZZXZ.s 			page 1


   1              		.cpu cortex-m4
   2              		.eabi_attribute 27, 1
   3              		.eabi_attribute 28, 1
   4              		.eabi_attribute 20, 1
   5              		.eabi_attribute 21, 1
   6              		.eabi_attribute 23, 3
   7              		.eabi_attribute 24, 1
   8              		.eabi_attribute 25, 1
   9              		.eabi_attribute 26, 1
  10              		.eabi_attribute 30, 1
  11              		.eabi_attribute 34, 1
  12              		.eabi_attribute 18, 4
  13              		.file	"lv_obj.c"
  14              		.text
  15              	.Ltext0:
  16              		.cfi_sections	.debug_frame
  17              		.section	.text.obj_valid_child,"ax",%progbits
  18              		.align	1
  19              		.arch armv7e-m
  20              		.syntax unified
  21              		.thumb
  22              		.thumb_func
  23              		.fpu fpv4-sp-d16
  25              	obj_valid_child:
  26              	.LVL0:
  27              	.LFB177:
  28              		.file 1 "Middlewares/lvgl/src/core/lv_obj.c"
   1:Middlewares/lvgl/src/core/lv_obj.c **** /**
   2:Middlewares/lvgl/src/core/lv_obj.c ****  * @file lv_obj.c
   3:Middlewares/lvgl/src/core/lv_obj.c ****  *
   4:Middlewares/lvgl/src/core/lv_obj.c ****  */
   5:Middlewares/lvgl/src/core/lv_obj.c **** 
   6:Middlewares/lvgl/src/core/lv_obj.c **** /*********************
   7:Middlewares/lvgl/src/core/lv_obj.c ****  *      INCLUDES
   8:Middlewares/lvgl/src/core/lv_obj.c ****  *********************/
   9:Middlewares/lvgl/src/core/lv_obj.c **** #include "lv_obj.h"
  10:Middlewares/lvgl/src/core/lv_obj.c **** #include "lv_indev.h"
  11:Middlewares/lvgl/src/core/lv_obj.c **** #include "lv_refr.h"
  12:Middlewares/lvgl/src/core/lv_obj.c **** #include "lv_group.h"
  13:Middlewares/lvgl/src/core/lv_obj.c **** #include "lv_disp.h"
  14:Middlewares/lvgl/src/core/lv_obj.c **** #include "lv_theme.h"
  15:Middlewares/lvgl/src/core/lv_obj.c **** #include "../misc/lv_assert.h"
  16:Middlewares/lvgl/src/core/lv_obj.c **** #include "../draw/lv_draw.h"
  17:Middlewares/lvgl/src/core/lv_obj.c **** #include "../misc/lv_anim.h"
  18:Middlewares/lvgl/src/core/lv_obj.c **** #include "../misc/lv_timer.h"
  19:Middlewares/lvgl/src/core/lv_obj.c **** #include "../misc/lv_async.h"
  20:Middlewares/lvgl/src/core/lv_obj.c **** #include "../misc/lv_fs.h"
  21:Middlewares/lvgl/src/core/lv_obj.c **** #include "../misc/lv_gc.h"
  22:Middlewares/lvgl/src/core/lv_obj.c **** #include "../misc/lv_math.h"
  23:Middlewares/lvgl/src/core/lv_obj.c **** #include "../misc/lv_log.h"
  24:Middlewares/lvgl/src/core/lv_obj.c **** #include "../hal/lv_hal.h"
  25:Middlewares/lvgl/src/core/lv_obj.c **** #include "../extra/lv_extra.h"
  26:Middlewares/lvgl/src/core/lv_obj.c **** #include <stdint.h>
  27:Middlewares/lvgl/src/core/lv_obj.c **** #include <string.h>
  28:Middlewares/lvgl/src/core/lv_obj.c **** 
  29:Middlewares/lvgl/src/core/lv_obj.c **** #if LV_USE_GPU_STM32_DMA2D
  30:Middlewares/lvgl/src/core/lv_obj.c ****     #include "../gpu/lv_gpu_stm32_dma2d.h"
ARM GAS  /tmp/ccyhZZXZ.s 			page 2


  31:Middlewares/lvgl/src/core/lv_obj.c **** #endif
  32:Middlewares/lvgl/src/core/lv_obj.c **** 
  33:Middlewares/lvgl/src/core/lv_obj.c **** #if LV_USE_GPU_NXP_PXP && LV_USE_GPU_NXP_PXP_AUTO_INIT
  34:Middlewares/lvgl/src/core/lv_obj.c ****     #include "../gpu/lv_gpu_nxp_pxp.h"
  35:Middlewares/lvgl/src/core/lv_obj.c ****     #include "../gpu/lv_gpu_nxp_pxp_osa.h"
  36:Middlewares/lvgl/src/core/lv_obj.c **** #endif
  37:Middlewares/lvgl/src/core/lv_obj.c **** 
  38:Middlewares/lvgl/src/core/lv_obj.c **** /*********************
  39:Middlewares/lvgl/src/core/lv_obj.c ****  *      DEFINES
  40:Middlewares/lvgl/src/core/lv_obj.c ****  *********************/
  41:Middlewares/lvgl/src/core/lv_obj.c **** #define MY_CLASS &lv_obj_class
  42:Middlewares/lvgl/src/core/lv_obj.c **** #define LV_OBJ_DEF_WIDTH    (LV_DPX(100))
  43:Middlewares/lvgl/src/core/lv_obj.c **** #define LV_OBJ_DEF_HEIGHT   (LV_DPX(50))
  44:Middlewares/lvgl/src/core/lv_obj.c **** #define GRID_DEBUG          0   /*Draw rectangles on grid cells*/
  45:Middlewares/lvgl/src/core/lv_obj.c **** #define STYLE_TRANSITION_MAX 32
  46:Middlewares/lvgl/src/core/lv_obj.c **** 
  47:Middlewares/lvgl/src/core/lv_obj.c **** /**********************
  48:Middlewares/lvgl/src/core/lv_obj.c ****  *      TYPEDEFS
  49:Middlewares/lvgl/src/core/lv_obj.c ****  **********************/
  50:Middlewares/lvgl/src/core/lv_obj.c **** 
  51:Middlewares/lvgl/src/core/lv_obj.c **** /**********************
  52:Middlewares/lvgl/src/core/lv_obj.c ****  *  STATIC PROTOTYPES
  53:Middlewares/lvgl/src/core/lv_obj.c ****  **********************/
  54:Middlewares/lvgl/src/core/lv_obj.c **** static void lv_obj_constructor(const lv_obj_class_t * class_p, lv_obj_t * obj);
  55:Middlewares/lvgl/src/core/lv_obj.c **** static void lv_obj_destructor(const lv_obj_class_t * class_p, lv_obj_t * obj);
  56:Middlewares/lvgl/src/core/lv_obj.c **** static void lv_obj_draw(lv_event_t * e);
  57:Middlewares/lvgl/src/core/lv_obj.c **** static void lv_obj_event(const lv_obj_class_t * class_p, lv_event_t * e);
  58:Middlewares/lvgl/src/core/lv_obj.c **** static void draw_scrollbar(lv_obj_t * obj, const lv_area_t * clip_area);
  59:Middlewares/lvgl/src/core/lv_obj.c **** static lv_res_t scrollbar_init_draw_dsc(lv_obj_t * obj, lv_draw_rect_dsc_t * dsc);
  60:Middlewares/lvgl/src/core/lv_obj.c **** static bool obj_valid_child(const lv_obj_t * parent, const lv_obj_t * obj_to_find);
  61:Middlewares/lvgl/src/core/lv_obj.c **** static void lv_obj_set_state(lv_obj_t * obj, lv_state_t new_state);
  62:Middlewares/lvgl/src/core/lv_obj.c **** 
  63:Middlewares/lvgl/src/core/lv_obj.c **** /**********************
  64:Middlewares/lvgl/src/core/lv_obj.c ****  *  STATIC VARIABLES
  65:Middlewares/lvgl/src/core/lv_obj.c ****  **********************/
  66:Middlewares/lvgl/src/core/lv_obj.c **** static bool lv_initialized = false;
  67:Middlewares/lvgl/src/core/lv_obj.c **** const lv_obj_class_t lv_obj_class = {
  68:Middlewares/lvgl/src/core/lv_obj.c ****     .constructor_cb = lv_obj_constructor,
  69:Middlewares/lvgl/src/core/lv_obj.c ****     .destructor_cb = lv_obj_destructor,
  70:Middlewares/lvgl/src/core/lv_obj.c ****     .event_cb = lv_obj_event,
  71:Middlewares/lvgl/src/core/lv_obj.c ****     .width_def = LV_DPI_DEF,
  72:Middlewares/lvgl/src/core/lv_obj.c ****     .height_def = LV_DPI_DEF,
  73:Middlewares/lvgl/src/core/lv_obj.c ****     .editable = LV_OBJ_CLASS_EDITABLE_FALSE,
  74:Middlewares/lvgl/src/core/lv_obj.c ****     .group_def = LV_OBJ_CLASS_GROUP_DEF_FALSE,
  75:Middlewares/lvgl/src/core/lv_obj.c ****     .instance_size = (sizeof(lv_obj_t)),
  76:Middlewares/lvgl/src/core/lv_obj.c ****     .base_class = NULL,
  77:Middlewares/lvgl/src/core/lv_obj.c **** };
  78:Middlewares/lvgl/src/core/lv_obj.c **** 
  79:Middlewares/lvgl/src/core/lv_obj.c **** /**********************
  80:Middlewares/lvgl/src/core/lv_obj.c ****  *      MACROS
  81:Middlewares/lvgl/src/core/lv_obj.c ****  **********************/
  82:Middlewares/lvgl/src/core/lv_obj.c **** 
  83:Middlewares/lvgl/src/core/lv_obj.c **** /**********************
  84:Middlewares/lvgl/src/core/lv_obj.c ****  *   GLOBAL FUNCTIONS
  85:Middlewares/lvgl/src/core/lv_obj.c ****  **********************/
  86:Middlewares/lvgl/src/core/lv_obj.c **** 
  87:Middlewares/lvgl/src/core/lv_obj.c **** void lv_init(void)
ARM GAS  /tmp/ccyhZZXZ.s 			page 3


  88:Middlewares/lvgl/src/core/lv_obj.c **** {
  89:Middlewares/lvgl/src/core/lv_obj.c ****     /*Do nothing if already initialized*/
  90:Middlewares/lvgl/src/core/lv_obj.c ****     if(lv_initialized) {
  91:Middlewares/lvgl/src/core/lv_obj.c ****         LV_LOG_WARN("lv_init: already inited");
  92:Middlewares/lvgl/src/core/lv_obj.c ****         return;
  93:Middlewares/lvgl/src/core/lv_obj.c ****     }
  94:Middlewares/lvgl/src/core/lv_obj.c **** 
  95:Middlewares/lvgl/src/core/lv_obj.c ****     LV_LOG_INFO("begin");
  96:Middlewares/lvgl/src/core/lv_obj.c **** 
  97:Middlewares/lvgl/src/core/lv_obj.c ****     /*Initialize the misc modules*/
  98:Middlewares/lvgl/src/core/lv_obj.c ****     lv_mem_init();
  99:Middlewares/lvgl/src/core/lv_obj.c **** 
 100:Middlewares/lvgl/src/core/lv_obj.c ****     _lv_timer_core_init();
 101:Middlewares/lvgl/src/core/lv_obj.c **** 
 102:Middlewares/lvgl/src/core/lv_obj.c ****     _lv_fs_init();
 103:Middlewares/lvgl/src/core/lv_obj.c **** 
 104:Middlewares/lvgl/src/core/lv_obj.c ****     _lv_anim_core_init();
 105:Middlewares/lvgl/src/core/lv_obj.c **** 
 106:Middlewares/lvgl/src/core/lv_obj.c ****     _lv_group_init();
 107:Middlewares/lvgl/src/core/lv_obj.c **** 
 108:Middlewares/lvgl/src/core/lv_obj.c **** #if LV_USE_GPU_STM32_DMA2D
 109:Middlewares/lvgl/src/core/lv_obj.c ****     /*Initialize DMA2D GPU*/
 110:Middlewares/lvgl/src/core/lv_obj.c ****     lv_gpu_stm32_dma2d_init();
 111:Middlewares/lvgl/src/core/lv_obj.c **** #endif
 112:Middlewares/lvgl/src/core/lv_obj.c **** 
 113:Middlewares/lvgl/src/core/lv_obj.c **** #if LV_USE_GPU_NXP_PXP && LV_USE_GPU_NXP_PXP_AUTO_INIT
 114:Middlewares/lvgl/src/core/lv_obj.c ****     if(lv_gpu_nxp_pxp_init(&pxp_default_cfg) != LV_RES_OK) {
 115:Middlewares/lvgl/src/core/lv_obj.c ****         LV_LOG_ERROR("PXP init error. STOP.\n");
 116:Middlewares/lvgl/src/core/lv_obj.c ****         for(; ;) ;
 117:Middlewares/lvgl/src/core/lv_obj.c ****     }
 118:Middlewares/lvgl/src/core/lv_obj.c **** #endif
 119:Middlewares/lvgl/src/core/lv_obj.c **** 
 120:Middlewares/lvgl/src/core/lv_obj.c ****     _lv_obj_style_init();
 121:Middlewares/lvgl/src/core/lv_obj.c ****     _lv_ll_init(&LV_GC_ROOT(_lv_disp_ll), sizeof(lv_disp_t));
 122:Middlewares/lvgl/src/core/lv_obj.c ****     _lv_ll_init(&LV_GC_ROOT(_lv_indev_ll), sizeof(lv_indev_t));
 123:Middlewares/lvgl/src/core/lv_obj.c **** 
 124:Middlewares/lvgl/src/core/lv_obj.c ****     /*Initialize the screen refresh system*/
 125:Middlewares/lvgl/src/core/lv_obj.c ****     _lv_refr_init();
 126:Middlewares/lvgl/src/core/lv_obj.c **** 
 127:Middlewares/lvgl/src/core/lv_obj.c ****     _lv_img_decoder_init();
 128:Middlewares/lvgl/src/core/lv_obj.c **** #if LV_IMG_CACHE_DEF_SIZE
 129:Middlewares/lvgl/src/core/lv_obj.c ****     lv_img_cache_set_size(LV_IMG_CACHE_DEF_SIZE);
 130:Middlewares/lvgl/src/core/lv_obj.c **** #endif
 131:Middlewares/lvgl/src/core/lv_obj.c ****     /*Test if the IDE has UTF-8 encoding*/
 132:Middlewares/lvgl/src/core/lv_obj.c ****     char * txt = "Ã";
 133:Middlewares/lvgl/src/core/lv_obj.c **** 
 134:Middlewares/lvgl/src/core/lv_obj.c ****     uint8_t * txt_u8 = (uint8_t *)txt;
 135:Middlewares/lvgl/src/core/lv_obj.c ****     if(txt_u8[0] != 0xc3 || txt_u8[1] != 0x81 || txt_u8[2] != 0x00) {
 136:Middlewares/lvgl/src/core/lv_obj.c ****         LV_LOG_WARN("The strings has no UTF-8 encoding. Non-ASCII characters won't be displayed.")
 137:Middlewares/lvgl/src/core/lv_obj.c ****     }
 138:Middlewares/lvgl/src/core/lv_obj.c **** 
 139:Middlewares/lvgl/src/core/lv_obj.c ****     uint32_t endianess_test = 0x11223344;
 140:Middlewares/lvgl/src/core/lv_obj.c ****     uint8_t * endianess_test_p = (uint8_t*) &endianess_test;
 141:Middlewares/lvgl/src/core/lv_obj.c ****     bool big_endian = endianess_test_p[0] == 0x11 ? true : false;
 142:Middlewares/lvgl/src/core/lv_obj.c **** 
 143:Middlewares/lvgl/src/core/lv_obj.c ****     if(big_endian) {
 144:Middlewares/lvgl/src/core/lv_obj.c ****         LV_ASSERT_MSG(LV_BIG_ENDIAN_SYSTEM == 1, "It's a big endian system but LV_BIG_ENDIAN_SYSTEM
ARM GAS  /tmp/ccyhZZXZ.s 			page 4


 145:Middlewares/lvgl/src/core/lv_obj.c ****     } else {
 146:Middlewares/lvgl/src/core/lv_obj.c ****         LV_ASSERT_MSG(LV_BIG_ENDIAN_SYSTEM == 0, "It's a little endian system but LV_BIG_ENDIAN_SYS
 147:Middlewares/lvgl/src/core/lv_obj.c ****     }
 148:Middlewares/lvgl/src/core/lv_obj.c **** 
 149:Middlewares/lvgl/src/core/lv_obj.c **** #if LV_USE_ASSERT_MEM_INTEGRITY
 150:Middlewares/lvgl/src/core/lv_obj.c ****     LV_LOG_WARN("Memory integrity checks are enabled via LV_USE_ASSERT_MEM_INTEGRITY which makes LV
 151:Middlewares/lvgl/src/core/lv_obj.c **** #endif
 152:Middlewares/lvgl/src/core/lv_obj.c **** 
 153:Middlewares/lvgl/src/core/lv_obj.c **** #if LV_USE_ASSERT_OBJ
 154:Middlewares/lvgl/src/core/lv_obj.c ****     LV_LOG_WARN("Object sanity checks are enabled via LV_USE_ASSERT_OBJ which makes LVGL much slowe
 155:Middlewares/lvgl/src/core/lv_obj.c **** #endif
 156:Middlewares/lvgl/src/core/lv_obj.c **** 
 157:Middlewares/lvgl/src/core/lv_obj.c **** #if LV_USE_ASSERT_STYLE
 158:Middlewares/lvgl/src/core/lv_obj.c ****     LV_LOG_WARN("Style sanity checks are enabled that uses more RAM")
 159:Middlewares/lvgl/src/core/lv_obj.c **** #endif
 160:Middlewares/lvgl/src/core/lv_obj.c **** 
 161:Middlewares/lvgl/src/core/lv_obj.c **** #if LV_LOG_LEVEL == LV_LOG_LEVEL_TRACE
 162:Middlewares/lvgl/src/core/lv_obj.c ****     LV_LOG_WARN("Log level is set the Trace which makes LVGL much slower")
 163:Middlewares/lvgl/src/core/lv_obj.c **** #endif
 164:Middlewares/lvgl/src/core/lv_obj.c **** 
 165:Middlewares/lvgl/src/core/lv_obj.c ****     lv_extra_init();
 166:Middlewares/lvgl/src/core/lv_obj.c **** 
 167:Middlewares/lvgl/src/core/lv_obj.c ****     lv_initialized = true;
 168:Middlewares/lvgl/src/core/lv_obj.c **** 
 169:Middlewares/lvgl/src/core/lv_obj.c ****     LV_LOG_TRACE("finished");
 170:Middlewares/lvgl/src/core/lv_obj.c **** }
 171:Middlewares/lvgl/src/core/lv_obj.c **** 
 172:Middlewares/lvgl/src/core/lv_obj.c **** #if LV_ENABLE_GC || !LV_MEM_CUSTOM
 173:Middlewares/lvgl/src/core/lv_obj.c **** 
 174:Middlewares/lvgl/src/core/lv_obj.c **** void lv_deinit(void)
 175:Middlewares/lvgl/src/core/lv_obj.c **** {
 176:Middlewares/lvgl/src/core/lv_obj.c ****     _lv_gc_clear_roots();
 177:Middlewares/lvgl/src/core/lv_obj.c **** 
 178:Middlewares/lvgl/src/core/lv_obj.c ****     lv_disp_set_default(NULL);
 179:Middlewares/lvgl/src/core/lv_obj.c ****     lv_mem_deinit();
 180:Middlewares/lvgl/src/core/lv_obj.c ****     lv_initialized = false;
 181:Middlewares/lvgl/src/core/lv_obj.c **** 
 182:Middlewares/lvgl/src/core/lv_obj.c ****     LV_LOG_INFO("lv_deinit done");
 183:Middlewares/lvgl/src/core/lv_obj.c **** 
 184:Middlewares/lvgl/src/core/lv_obj.c **** #if LV_USE_LOG
 185:Middlewares/lvgl/src/core/lv_obj.c ****     lv_log_register_print_cb(NULL);
 186:Middlewares/lvgl/src/core/lv_obj.c **** #endif
 187:Middlewares/lvgl/src/core/lv_obj.c **** }
 188:Middlewares/lvgl/src/core/lv_obj.c **** #endif
 189:Middlewares/lvgl/src/core/lv_obj.c **** 
 190:Middlewares/lvgl/src/core/lv_obj.c **** lv_obj_t * lv_obj_create(lv_obj_t * parent)
 191:Middlewares/lvgl/src/core/lv_obj.c **** {
 192:Middlewares/lvgl/src/core/lv_obj.c ****     LV_LOG_INFO("begin")
 193:Middlewares/lvgl/src/core/lv_obj.c ****     lv_obj_t * obj = lv_obj_class_create_obj(MY_CLASS, parent);
 194:Middlewares/lvgl/src/core/lv_obj.c ****     lv_obj_class_init_obj(obj);
 195:Middlewares/lvgl/src/core/lv_obj.c ****     return obj;
 196:Middlewares/lvgl/src/core/lv_obj.c **** }
 197:Middlewares/lvgl/src/core/lv_obj.c **** 
 198:Middlewares/lvgl/src/core/lv_obj.c **** /*=====================
 199:Middlewares/lvgl/src/core/lv_obj.c ****  * Setter functions
 200:Middlewares/lvgl/src/core/lv_obj.c ****  *====================*/
 201:Middlewares/lvgl/src/core/lv_obj.c **** 
ARM GAS  /tmp/ccyhZZXZ.s 			page 5


 202:Middlewares/lvgl/src/core/lv_obj.c **** /*-----------------
 203:Middlewares/lvgl/src/core/lv_obj.c ****  * Attribute set
 204:Middlewares/lvgl/src/core/lv_obj.c ****  *----------------*/
 205:Middlewares/lvgl/src/core/lv_obj.c **** 
 206:Middlewares/lvgl/src/core/lv_obj.c **** void lv_obj_add_flag(lv_obj_t * obj, lv_obj_flag_t f)
 207:Middlewares/lvgl/src/core/lv_obj.c **** {
 208:Middlewares/lvgl/src/core/lv_obj.c ****     LV_ASSERT_OBJ(obj, MY_CLASS);
 209:Middlewares/lvgl/src/core/lv_obj.c **** 
 210:Middlewares/lvgl/src/core/lv_obj.c ****     bool was_on_layout = lv_obj_is_layout_positioned(obj);
 211:Middlewares/lvgl/src/core/lv_obj.c **** 
 212:Middlewares/lvgl/src/core/lv_obj.c ****     if(f & LV_OBJ_FLAG_HIDDEN) lv_obj_invalidate(obj);
 213:Middlewares/lvgl/src/core/lv_obj.c **** 
 214:Middlewares/lvgl/src/core/lv_obj.c ****     obj->flags |= f;
 215:Middlewares/lvgl/src/core/lv_obj.c **** 
 216:Middlewares/lvgl/src/core/lv_obj.c ****     if(f & LV_OBJ_FLAG_HIDDEN) {
 217:Middlewares/lvgl/src/core/lv_obj.c ****         lv_obj_invalidate(obj);
 218:Middlewares/lvgl/src/core/lv_obj.c ****     }
 219:Middlewares/lvgl/src/core/lv_obj.c **** 
 220:Middlewares/lvgl/src/core/lv_obj.c ****     if((was_on_layout != lv_obj_is_layout_positioned(obj)) || (f & (LV_OBJ_FLAG_LAYOUT_1 |  LV_OBJ_
 221:Middlewares/lvgl/src/core/lv_obj.c ****         lv_obj_mark_layout_as_dirty(lv_obj_get_parent(obj));
 222:Middlewares/lvgl/src/core/lv_obj.c ****     }
 223:Middlewares/lvgl/src/core/lv_obj.c **** }
 224:Middlewares/lvgl/src/core/lv_obj.c **** 
 225:Middlewares/lvgl/src/core/lv_obj.c **** void lv_obj_clear_flag(lv_obj_t * obj, lv_obj_flag_t f)
 226:Middlewares/lvgl/src/core/lv_obj.c **** {
 227:Middlewares/lvgl/src/core/lv_obj.c ****     LV_ASSERT_OBJ(obj, MY_CLASS);
 228:Middlewares/lvgl/src/core/lv_obj.c **** 
 229:Middlewares/lvgl/src/core/lv_obj.c ****     bool was_on_layout = lv_obj_is_layout_positioned(obj);
 230:Middlewares/lvgl/src/core/lv_obj.c **** 
 231:Middlewares/lvgl/src/core/lv_obj.c ****     obj->flags &= (~f);
 232:Middlewares/lvgl/src/core/lv_obj.c **** 
 233:Middlewares/lvgl/src/core/lv_obj.c ****     if(f & LV_OBJ_FLAG_HIDDEN) {
 234:Middlewares/lvgl/src/core/lv_obj.c ****         lv_obj_invalidate(obj);
 235:Middlewares/lvgl/src/core/lv_obj.c ****         if(lv_obj_is_layout_positioned(obj)) {
 236:Middlewares/lvgl/src/core/lv_obj.c ****             lv_obj_mark_layout_as_dirty(lv_obj_get_parent(obj));
 237:Middlewares/lvgl/src/core/lv_obj.c ****         }
 238:Middlewares/lvgl/src/core/lv_obj.c ****     }
 239:Middlewares/lvgl/src/core/lv_obj.c **** 
 240:Middlewares/lvgl/src/core/lv_obj.c ****     if((was_on_layout != lv_obj_is_layout_positioned(obj)) || (f & (LV_OBJ_FLAG_LAYOUT_1 |  LV_OBJ_
 241:Middlewares/lvgl/src/core/lv_obj.c ****         lv_obj_mark_layout_as_dirty(lv_obj_get_parent(obj));
 242:Middlewares/lvgl/src/core/lv_obj.c ****     }
 243:Middlewares/lvgl/src/core/lv_obj.c **** }
 244:Middlewares/lvgl/src/core/lv_obj.c **** 
 245:Middlewares/lvgl/src/core/lv_obj.c **** void lv_obj_add_state(lv_obj_t * obj, lv_state_t state)
 246:Middlewares/lvgl/src/core/lv_obj.c **** {
 247:Middlewares/lvgl/src/core/lv_obj.c ****     LV_ASSERT_OBJ(obj, MY_CLASS);
 248:Middlewares/lvgl/src/core/lv_obj.c **** 
 249:Middlewares/lvgl/src/core/lv_obj.c ****     lv_state_t new_state = obj->state | state;
 250:Middlewares/lvgl/src/core/lv_obj.c ****     if(obj->state != new_state) {
 251:Middlewares/lvgl/src/core/lv_obj.c ****         lv_obj_set_state(obj, new_state);
 252:Middlewares/lvgl/src/core/lv_obj.c ****     }
 253:Middlewares/lvgl/src/core/lv_obj.c **** }
 254:Middlewares/lvgl/src/core/lv_obj.c **** 
 255:Middlewares/lvgl/src/core/lv_obj.c **** void lv_obj_clear_state(lv_obj_t * obj, lv_state_t state)
 256:Middlewares/lvgl/src/core/lv_obj.c **** {
 257:Middlewares/lvgl/src/core/lv_obj.c ****     LV_ASSERT_OBJ(obj, MY_CLASS);
 258:Middlewares/lvgl/src/core/lv_obj.c **** 
ARM GAS  /tmp/ccyhZZXZ.s 			page 6


 259:Middlewares/lvgl/src/core/lv_obj.c ****     lv_state_t new_state = obj->state & (~state);
 260:Middlewares/lvgl/src/core/lv_obj.c ****     if(obj->state != new_state) {
 261:Middlewares/lvgl/src/core/lv_obj.c ****         lv_obj_set_state(obj, new_state);
 262:Middlewares/lvgl/src/core/lv_obj.c ****     }
 263:Middlewares/lvgl/src/core/lv_obj.c **** }
 264:Middlewares/lvgl/src/core/lv_obj.c **** 
 265:Middlewares/lvgl/src/core/lv_obj.c **** /*=======================
 266:Middlewares/lvgl/src/core/lv_obj.c ****  * Getter functions
 267:Middlewares/lvgl/src/core/lv_obj.c ****  *======================*/
 268:Middlewares/lvgl/src/core/lv_obj.c **** 
 269:Middlewares/lvgl/src/core/lv_obj.c **** bool lv_obj_has_flag(const lv_obj_t * obj, lv_obj_flag_t f)
 270:Middlewares/lvgl/src/core/lv_obj.c **** {
 271:Middlewares/lvgl/src/core/lv_obj.c ****     LV_ASSERT_OBJ(obj, MY_CLASS);
 272:Middlewares/lvgl/src/core/lv_obj.c **** 
 273:Middlewares/lvgl/src/core/lv_obj.c ****     return (obj->flags & f)  == f ? true : false;
 274:Middlewares/lvgl/src/core/lv_obj.c **** }
 275:Middlewares/lvgl/src/core/lv_obj.c **** 
 276:Middlewares/lvgl/src/core/lv_obj.c **** bool lv_obj_has_flag_any(const lv_obj_t * obj, lv_obj_flag_t f)
 277:Middlewares/lvgl/src/core/lv_obj.c **** {
 278:Middlewares/lvgl/src/core/lv_obj.c ****     LV_ASSERT_OBJ(obj, MY_CLASS);
 279:Middlewares/lvgl/src/core/lv_obj.c **** 
 280:Middlewares/lvgl/src/core/lv_obj.c ****     return (obj->flags & f) ? true : false;
 281:Middlewares/lvgl/src/core/lv_obj.c **** }
 282:Middlewares/lvgl/src/core/lv_obj.c **** 
 283:Middlewares/lvgl/src/core/lv_obj.c **** lv_state_t lv_obj_get_state(const lv_obj_t * obj)
 284:Middlewares/lvgl/src/core/lv_obj.c **** {
 285:Middlewares/lvgl/src/core/lv_obj.c ****     LV_ASSERT_OBJ(obj, MY_CLASS);
 286:Middlewares/lvgl/src/core/lv_obj.c **** 
 287:Middlewares/lvgl/src/core/lv_obj.c ****     return obj->state;
 288:Middlewares/lvgl/src/core/lv_obj.c **** }
 289:Middlewares/lvgl/src/core/lv_obj.c **** 
 290:Middlewares/lvgl/src/core/lv_obj.c **** bool lv_obj_has_state(const lv_obj_t * obj, lv_state_t state)
 291:Middlewares/lvgl/src/core/lv_obj.c **** {
 292:Middlewares/lvgl/src/core/lv_obj.c ****     LV_ASSERT_OBJ(obj, MY_CLASS);
 293:Middlewares/lvgl/src/core/lv_obj.c **** 
 294:Middlewares/lvgl/src/core/lv_obj.c ****     return obj->state & state ? true : false;
 295:Middlewares/lvgl/src/core/lv_obj.c **** }
 296:Middlewares/lvgl/src/core/lv_obj.c **** 
 297:Middlewares/lvgl/src/core/lv_obj.c **** void * lv_obj_get_group(const lv_obj_t * obj)
 298:Middlewares/lvgl/src/core/lv_obj.c **** {
 299:Middlewares/lvgl/src/core/lv_obj.c ****     LV_ASSERT_OBJ(obj, MY_CLASS);
 300:Middlewares/lvgl/src/core/lv_obj.c **** 
 301:Middlewares/lvgl/src/core/lv_obj.c ****     if(obj->spec_attr) return obj->spec_attr->group_p;
 302:Middlewares/lvgl/src/core/lv_obj.c ****     else return NULL;
 303:Middlewares/lvgl/src/core/lv_obj.c **** }
 304:Middlewares/lvgl/src/core/lv_obj.c **** 
 305:Middlewares/lvgl/src/core/lv_obj.c **** /*-------------------
 306:Middlewares/lvgl/src/core/lv_obj.c ****  * OTHER FUNCTIONS
 307:Middlewares/lvgl/src/core/lv_obj.c ****  *------------------*/
 308:Middlewares/lvgl/src/core/lv_obj.c **** 
 309:Middlewares/lvgl/src/core/lv_obj.c **** void lv_obj_allocate_spec_attr(lv_obj_t * obj)
 310:Middlewares/lvgl/src/core/lv_obj.c **** {
 311:Middlewares/lvgl/src/core/lv_obj.c ****     LV_ASSERT_OBJ(obj, MY_CLASS);
 312:Middlewares/lvgl/src/core/lv_obj.c **** 
 313:Middlewares/lvgl/src/core/lv_obj.c ****     if(obj->spec_attr == NULL) {
 314:Middlewares/lvgl/src/core/lv_obj.c ****         static uint32_t x = 0;
 315:Middlewares/lvgl/src/core/lv_obj.c ****         x++;
ARM GAS  /tmp/ccyhZZXZ.s 			page 7


 316:Middlewares/lvgl/src/core/lv_obj.c ****         obj->spec_attr = lv_mem_alloc(sizeof(_lv_obj_spec_attr_t));
 317:Middlewares/lvgl/src/core/lv_obj.c ****         LV_ASSERT_MALLOC(obj->spec_attr);
 318:Middlewares/lvgl/src/core/lv_obj.c ****         if(obj->spec_attr == NULL) return;
 319:Middlewares/lvgl/src/core/lv_obj.c **** 
 320:Middlewares/lvgl/src/core/lv_obj.c ****         lv_memset_00(obj->spec_attr, sizeof(_lv_obj_spec_attr_t));
 321:Middlewares/lvgl/src/core/lv_obj.c **** 
 322:Middlewares/lvgl/src/core/lv_obj.c ****         obj->spec_attr->scroll_dir = LV_DIR_ALL;
 323:Middlewares/lvgl/src/core/lv_obj.c ****         obj->spec_attr->scrollbar_mode = LV_SCROLLBAR_MODE_AUTO;
 324:Middlewares/lvgl/src/core/lv_obj.c ****     }
 325:Middlewares/lvgl/src/core/lv_obj.c **** }
 326:Middlewares/lvgl/src/core/lv_obj.c **** 
 327:Middlewares/lvgl/src/core/lv_obj.c **** bool lv_obj_check_type(const lv_obj_t * obj, const lv_obj_class_t * class_p)
 328:Middlewares/lvgl/src/core/lv_obj.c **** {
 329:Middlewares/lvgl/src/core/lv_obj.c ****     if(obj == NULL) return false;
 330:Middlewares/lvgl/src/core/lv_obj.c ****     return obj->class_p == class_p ? true : false;
 331:Middlewares/lvgl/src/core/lv_obj.c **** }
 332:Middlewares/lvgl/src/core/lv_obj.c **** 
 333:Middlewares/lvgl/src/core/lv_obj.c **** bool lv_obj_has_class(const lv_obj_t * obj, const lv_obj_class_t * class_p)
 334:Middlewares/lvgl/src/core/lv_obj.c **** {
 335:Middlewares/lvgl/src/core/lv_obj.c ****     const lv_obj_class_t * obj_class = obj->class_p;
 336:Middlewares/lvgl/src/core/lv_obj.c ****     while(obj_class) {
 337:Middlewares/lvgl/src/core/lv_obj.c ****         if(obj_class == class_p) return true;
 338:Middlewares/lvgl/src/core/lv_obj.c ****         obj_class = obj_class->base_class;
 339:Middlewares/lvgl/src/core/lv_obj.c ****     }
 340:Middlewares/lvgl/src/core/lv_obj.c **** 
 341:Middlewares/lvgl/src/core/lv_obj.c ****     return false;
 342:Middlewares/lvgl/src/core/lv_obj.c **** }
 343:Middlewares/lvgl/src/core/lv_obj.c **** 
 344:Middlewares/lvgl/src/core/lv_obj.c **** const lv_obj_class_t * lv_obj_get_class(const lv_obj_t * obj)
 345:Middlewares/lvgl/src/core/lv_obj.c **** {
 346:Middlewares/lvgl/src/core/lv_obj.c ****     return obj->class_p;
 347:Middlewares/lvgl/src/core/lv_obj.c **** }
 348:Middlewares/lvgl/src/core/lv_obj.c **** 
 349:Middlewares/lvgl/src/core/lv_obj.c **** bool lv_obj_is_valid(const lv_obj_t * obj)
 350:Middlewares/lvgl/src/core/lv_obj.c **** {
 351:Middlewares/lvgl/src/core/lv_obj.c ****     lv_disp_t * disp = lv_disp_get_next(NULL);
 352:Middlewares/lvgl/src/core/lv_obj.c ****     while(disp) {
 353:Middlewares/lvgl/src/core/lv_obj.c ****         uint32_t i;
 354:Middlewares/lvgl/src/core/lv_obj.c ****         for(i = 0; i < disp->screen_cnt; i++) {
 355:Middlewares/lvgl/src/core/lv_obj.c ****             if(disp->screens[i] == obj) return true;
 356:Middlewares/lvgl/src/core/lv_obj.c ****             bool found = obj_valid_child(disp->screens[i], obj);
 357:Middlewares/lvgl/src/core/lv_obj.c ****             if(found) return true;
 358:Middlewares/lvgl/src/core/lv_obj.c ****         }
 359:Middlewares/lvgl/src/core/lv_obj.c **** 
 360:Middlewares/lvgl/src/core/lv_obj.c ****         disp = lv_disp_get_next(disp);
 361:Middlewares/lvgl/src/core/lv_obj.c ****     }
 362:Middlewares/lvgl/src/core/lv_obj.c **** 
 363:Middlewares/lvgl/src/core/lv_obj.c ****     return false;
 364:Middlewares/lvgl/src/core/lv_obj.c **** }
 365:Middlewares/lvgl/src/core/lv_obj.c **** 
 366:Middlewares/lvgl/src/core/lv_obj.c **** /**********************
 367:Middlewares/lvgl/src/core/lv_obj.c ****  *   STATIC FUNCTIONS
 368:Middlewares/lvgl/src/core/lv_obj.c ****  **********************/
 369:Middlewares/lvgl/src/core/lv_obj.c **** 
 370:Middlewares/lvgl/src/core/lv_obj.c **** static void lv_obj_constructor(const lv_obj_class_t * class_p, lv_obj_t * obj)
 371:Middlewares/lvgl/src/core/lv_obj.c **** {
 372:Middlewares/lvgl/src/core/lv_obj.c ****     LV_UNUSED(class_p);
ARM GAS  /tmp/ccyhZZXZ.s 			page 8


 373:Middlewares/lvgl/src/core/lv_obj.c ****     LV_TRACE_OBJ_CREATE("begin");
 374:Middlewares/lvgl/src/core/lv_obj.c **** 
 375:Middlewares/lvgl/src/core/lv_obj.c ****     lv_obj_t * parent = obj->parent;
 376:Middlewares/lvgl/src/core/lv_obj.c ****     if(parent) {
 377:Middlewares/lvgl/src/core/lv_obj.c ****         lv_coord_t sl = lv_obj_get_scroll_left(parent);
 378:Middlewares/lvgl/src/core/lv_obj.c ****         lv_coord_t st = lv_obj_get_scroll_top(parent);
 379:Middlewares/lvgl/src/core/lv_obj.c **** 
 380:Middlewares/lvgl/src/core/lv_obj.c ****         obj->coords.y1 = parent->coords.y1 + lv_obj_get_style_pad_top(parent, LV_PART_MAIN) - st;
 381:Middlewares/lvgl/src/core/lv_obj.c ****         obj->coords.y2 = obj->coords.y1 - 1;
 382:Middlewares/lvgl/src/core/lv_obj.c ****         obj->coords.x1  = parent->coords.x1 + lv_obj_get_style_pad_left(parent, LV_PART_MAIN) - sl;
 383:Middlewares/lvgl/src/core/lv_obj.c ****         obj->coords.x2  = obj->coords.x1 - 1;
 384:Middlewares/lvgl/src/core/lv_obj.c ****     }
 385:Middlewares/lvgl/src/core/lv_obj.c **** 
 386:Middlewares/lvgl/src/core/lv_obj.c ****     /*Set attributes*/
 387:Middlewares/lvgl/src/core/lv_obj.c ****     obj->flags = LV_OBJ_FLAG_CLICKABLE;
 388:Middlewares/lvgl/src/core/lv_obj.c ****     obj->flags |= LV_OBJ_FLAG_SNAPPABLE;
 389:Middlewares/lvgl/src/core/lv_obj.c ****     if(parent) obj->flags |= LV_OBJ_FLAG_PRESS_LOCK;
 390:Middlewares/lvgl/src/core/lv_obj.c ****     if(parent) obj->flags |= LV_OBJ_FLAG_SCROLL_CHAIN;
 391:Middlewares/lvgl/src/core/lv_obj.c ****     obj->flags |= LV_OBJ_FLAG_CLICK_FOCUSABLE;
 392:Middlewares/lvgl/src/core/lv_obj.c ****     obj->flags |= LV_OBJ_FLAG_SCROLLABLE;
 393:Middlewares/lvgl/src/core/lv_obj.c ****     obj->flags |= LV_OBJ_FLAG_SCROLL_ELASTIC;
 394:Middlewares/lvgl/src/core/lv_obj.c ****     obj->flags |= LV_OBJ_FLAG_SCROLL_MOMENTUM;
 395:Middlewares/lvgl/src/core/lv_obj.c ****     if(parent) obj->flags |= LV_OBJ_FLAG_GESTURE_BUBBLE;
 396:Middlewares/lvgl/src/core/lv_obj.c **** 
 397:Middlewares/lvgl/src/core/lv_obj.c ****     LV_TRACE_OBJ_CREATE("finished");
 398:Middlewares/lvgl/src/core/lv_obj.c **** }
 399:Middlewares/lvgl/src/core/lv_obj.c **** 
 400:Middlewares/lvgl/src/core/lv_obj.c **** static void lv_obj_destructor(const lv_obj_class_t * class_p, lv_obj_t * obj)
 401:Middlewares/lvgl/src/core/lv_obj.c **** {
 402:Middlewares/lvgl/src/core/lv_obj.c ****     LV_UNUSED(class_p);
 403:Middlewares/lvgl/src/core/lv_obj.c **** 
 404:Middlewares/lvgl/src/core/lv_obj.c ****     if(obj->spec_attr) {
 405:Middlewares/lvgl/src/core/lv_obj.c ****         if(obj->spec_attr->children) {
 406:Middlewares/lvgl/src/core/lv_obj.c ****             lv_mem_free(obj->spec_attr->children);
 407:Middlewares/lvgl/src/core/lv_obj.c ****             obj->spec_attr->children = NULL;
 408:Middlewares/lvgl/src/core/lv_obj.c ****         }
 409:Middlewares/lvgl/src/core/lv_obj.c ****         if(obj->spec_attr->event_dsc) {
 410:Middlewares/lvgl/src/core/lv_obj.c ****             lv_mem_free(obj->spec_attr->event_dsc);
 411:Middlewares/lvgl/src/core/lv_obj.c ****             obj->spec_attr->event_dsc = NULL;
 412:Middlewares/lvgl/src/core/lv_obj.c ****         }
 413:Middlewares/lvgl/src/core/lv_obj.c **** 
 414:Middlewares/lvgl/src/core/lv_obj.c ****         lv_mem_free(obj->spec_attr);
 415:Middlewares/lvgl/src/core/lv_obj.c ****         obj->spec_attr = NULL;
 416:Middlewares/lvgl/src/core/lv_obj.c ****     }
 417:Middlewares/lvgl/src/core/lv_obj.c **** 
 418:Middlewares/lvgl/src/core/lv_obj.c **** }
 419:Middlewares/lvgl/src/core/lv_obj.c **** 
 420:Middlewares/lvgl/src/core/lv_obj.c **** static void lv_obj_draw(lv_event_t * e)
 421:Middlewares/lvgl/src/core/lv_obj.c **** {
 422:Middlewares/lvgl/src/core/lv_obj.c ****     lv_event_code_t code = lv_event_get_code(e);
 423:Middlewares/lvgl/src/core/lv_obj.c ****     lv_obj_t * obj = lv_event_get_target(e);
 424:Middlewares/lvgl/src/core/lv_obj.c ****     if(code == LV_EVENT_COVER_CHECK) {
 425:Middlewares/lvgl/src/core/lv_obj.c ****         lv_cover_check_info_t * info = lv_event_get_param(e);
 426:Middlewares/lvgl/src/core/lv_obj.c ****         if(info->res == LV_COVER_RES_MASKED) return;
 427:Middlewares/lvgl/src/core/lv_obj.c ****         if(lv_obj_get_style_clip_corner(obj, LV_PART_MAIN)) {
 428:Middlewares/lvgl/src/core/lv_obj.c ****             info->res = LV_COVER_RES_MASKED;
 429:Middlewares/lvgl/src/core/lv_obj.c ****             return;
ARM GAS  /tmp/ccyhZZXZ.s 			page 9


 430:Middlewares/lvgl/src/core/lv_obj.c ****         }
 431:Middlewares/lvgl/src/core/lv_obj.c **** 
 432:Middlewares/lvgl/src/core/lv_obj.c ****         /*Most trivial test. Is the mask fully IN the object? If no it surely doesn't cover it*/
 433:Middlewares/lvgl/src/core/lv_obj.c ****         lv_coord_t r = lv_obj_get_style_radius(obj, LV_PART_MAIN);
 434:Middlewares/lvgl/src/core/lv_obj.c ****         lv_coord_t w = lv_obj_get_style_transform_width(obj, LV_PART_MAIN);
 435:Middlewares/lvgl/src/core/lv_obj.c ****         lv_coord_t h = lv_obj_get_style_transform_height(obj, LV_PART_MAIN);
 436:Middlewares/lvgl/src/core/lv_obj.c ****         lv_area_t coords;
 437:Middlewares/lvgl/src/core/lv_obj.c ****         lv_area_copy(&coords, &obj->coords);
 438:Middlewares/lvgl/src/core/lv_obj.c ****         coords.x1 -= w;
 439:Middlewares/lvgl/src/core/lv_obj.c ****         coords.x2 += w;
 440:Middlewares/lvgl/src/core/lv_obj.c ****         coords.y1 -= h;
 441:Middlewares/lvgl/src/core/lv_obj.c ****         coords.y2 += h;
 442:Middlewares/lvgl/src/core/lv_obj.c **** 
 443:Middlewares/lvgl/src/core/lv_obj.c ****         if(_lv_area_is_in(info->area, &coords, r) == false) {
 444:Middlewares/lvgl/src/core/lv_obj.c ****             info->res = LV_COVER_RES_NOT_COVER;
 445:Middlewares/lvgl/src/core/lv_obj.c ****            return;
 446:Middlewares/lvgl/src/core/lv_obj.c ****         }
 447:Middlewares/lvgl/src/core/lv_obj.c **** 
 448:Middlewares/lvgl/src/core/lv_obj.c ****         if(lv_obj_get_style_bg_opa(obj, LV_PART_MAIN) < LV_OPA_MAX) {
 449:Middlewares/lvgl/src/core/lv_obj.c ****             info->res = LV_COVER_RES_NOT_COVER;
 450:Middlewares/lvgl/src/core/lv_obj.c ****             return;
 451:Middlewares/lvgl/src/core/lv_obj.c ****         }
 452:Middlewares/lvgl/src/core/lv_obj.c **** 
 453:Middlewares/lvgl/src/core/lv_obj.c **** #if LV_DRAW_COMPLEX
 454:Middlewares/lvgl/src/core/lv_obj.c ****         if(lv_obj_get_style_blend_mode(obj, LV_PART_MAIN) != LV_BLEND_MODE_NORMAL) {
 455:Middlewares/lvgl/src/core/lv_obj.c ****             info->res = LV_COVER_RES_NOT_COVER;
 456:Middlewares/lvgl/src/core/lv_obj.c ****             return;
 457:Middlewares/lvgl/src/core/lv_obj.c ****         }
 458:Middlewares/lvgl/src/core/lv_obj.c **** #endif
 459:Middlewares/lvgl/src/core/lv_obj.c ****         if(lv_obj_get_style_opa(obj, LV_PART_MAIN) < LV_OPA_MAX) {
 460:Middlewares/lvgl/src/core/lv_obj.c ****             info->res = LV_COVER_RES_NOT_COVER;
 461:Middlewares/lvgl/src/core/lv_obj.c ****             return;
 462:Middlewares/lvgl/src/core/lv_obj.c ****         }
 463:Middlewares/lvgl/src/core/lv_obj.c **** 
 464:Middlewares/lvgl/src/core/lv_obj.c ****         info->res = LV_COVER_RES_COVER;
 465:Middlewares/lvgl/src/core/lv_obj.c **** 
 466:Middlewares/lvgl/src/core/lv_obj.c ****     }
 467:Middlewares/lvgl/src/core/lv_obj.c ****     else if(code == LV_EVENT_DRAW_MAIN) {
 468:Middlewares/lvgl/src/core/lv_obj.c ****         const lv_area_t * clip_area = lv_event_get_param(e);
 469:Middlewares/lvgl/src/core/lv_obj.c ****         lv_draw_rect_dsc_t draw_dsc;
 470:Middlewares/lvgl/src/core/lv_obj.c ****         lv_draw_rect_dsc_init(&draw_dsc);
 471:Middlewares/lvgl/src/core/lv_obj.c ****         /*If the border is drawn later disable loading its properties*/
 472:Middlewares/lvgl/src/core/lv_obj.c ****         if(lv_obj_get_style_border_post(obj, LV_PART_MAIN)) {
 473:Middlewares/lvgl/src/core/lv_obj.c ****             draw_dsc.border_post = 1;
 474:Middlewares/lvgl/src/core/lv_obj.c ****         }
 475:Middlewares/lvgl/src/core/lv_obj.c **** 
 476:Middlewares/lvgl/src/core/lv_obj.c ****         lv_obj_init_draw_rect_dsc(obj, LV_PART_MAIN, &draw_dsc);
 477:Middlewares/lvgl/src/core/lv_obj.c **** 
 478:Middlewares/lvgl/src/core/lv_obj.c ****         lv_coord_t w = lv_obj_get_style_transform_width(obj, LV_PART_MAIN);
 479:Middlewares/lvgl/src/core/lv_obj.c ****         lv_coord_t h = lv_obj_get_style_transform_height(obj, LV_PART_MAIN);
 480:Middlewares/lvgl/src/core/lv_obj.c ****         lv_area_t coords;
 481:Middlewares/lvgl/src/core/lv_obj.c ****         lv_area_copy(&coords, &obj->coords);
 482:Middlewares/lvgl/src/core/lv_obj.c ****         coords.x1 -= w;
 483:Middlewares/lvgl/src/core/lv_obj.c ****         coords.x2 += w;
 484:Middlewares/lvgl/src/core/lv_obj.c ****         coords.y1 -= h;
 485:Middlewares/lvgl/src/core/lv_obj.c ****         coords.y2 += h;
 486:Middlewares/lvgl/src/core/lv_obj.c **** 
ARM GAS  /tmp/ccyhZZXZ.s 			page 10


 487:Middlewares/lvgl/src/core/lv_obj.c **** 
 488:Middlewares/lvgl/src/core/lv_obj.c ****         lv_obj_draw_part_dsc_t part_dsc;
 489:Middlewares/lvgl/src/core/lv_obj.c ****         lv_obj_draw_dsc_init(&part_dsc, clip_area);
 490:Middlewares/lvgl/src/core/lv_obj.c ****         part_dsc.rect_dsc = &draw_dsc;
 491:Middlewares/lvgl/src/core/lv_obj.c ****         part_dsc.draw_area = &coords;
 492:Middlewares/lvgl/src/core/lv_obj.c ****         part_dsc.part = LV_PART_MAIN;
 493:Middlewares/lvgl/src/core/lv_obj.c ****         lv_event_send(obj, LV_EVENT_DRAW_PART_BEGIN, &part_dsc);
 494:Middlewares/lvgl/src/core/lv_obj.c **** 
 495:Middlewares/lvgl/src/core/lv_obj.c ****         lv_draw_rect(&coords, clip_area, &draw_dsc);
 496:Middlewares/lvgl/src/core/lv_obj.c **** 
 497:Middlewares/lvgl/src/core/lv_obj.c ****         lv_event_send(obj, LV_EVENT_DRAW_PART_END, &part_dsc);
 498:Middlewares/lvgl/src/core/lv_obj.c **** 
 499:Middlewares/lvgl/src/core/lv_obj.c **** #if LV_DRAW_COMPLEX
 500:Middlewares/lvgl/src/core/lv_obj.c ****         if(lv_obj_get_style_clip_corner(obj, LV_PART_MAIN)) {
 501:Middlewares/lvgl/src/core/lv_obj.c ****             lv_draw_mask_radius_param_t * mp = lv_mem_buf_get(sizeof(lv_draw_mask_radius_param_t));
 502:Middlewares/lvgl/src/core/lv_obj.c ****             lv_coord_t r = lv_obj_get_style_radius(obj, LV_PART_MAIN);
 503:Middlewares/lvgl/src/core/lv_obj.c ****             lv_draw_mask_radius_init(mp, &obj->coords, r, false);
 504:Middlewares/lvgl/src/core/lv_obj.c ****             /*Add the mask and use `obj+8` as custom id. Don't use `obj` directly because it might 
 505:Middlewares/lvgl/src/core/lv_obj.c ****             lv_draw_mask_add(mp, obj + 8);
 506:Middlewares/lvgl/src/core/lv_obj.c ****         }
 507:Middlewares/lvgl/src/core/lv_obj.c **** #endif
 508:Middlewares/lvgl/src/core/lv_obj.c ****     }
 509:Middlewares/lvgl/src/core/lv_obj.c ****     else if(code == LV_EVENT_DRAW_POST) {
 510:Middlewares/lvgl/src/core/lv_obj.c ****         const lv_area_t * clip_area = lv_event_get_param(e);
 511:Middlewares/lvgl/src/core/lv_obj.c ****         draw_scrollbar(obj, clip_area);
 512:Middlewares/lvgl/src/core/lv_obj.c **** 
 513:Middlewares/lvgl/src/core/lv_obj.c **** #if LV_DRAW_COMPLEX
 514:Middlewares/lvgl/src/core/lv_obj.c ****         if(lv_obj_get_style_clip_corner(obj, LV_PART_MAIN)) {
 515:Middlewares/lvgl/src/core/lv_obj.c ****             lv_draw_mask_radius_param_t * param = lv_draw_mask_remove_custom(obj + 8);
 516:Middlewares/lvgl/src/core/lv_obj.c ****             lv_mem_buf_release(param);
 517:Middlewares/lvgl/src/core/lv_obj.c ****         }
 518:Middlewares/lvgl/src/core/lv_obj.c **** #endif
 519:Middlewares/lvgl/src/core/lv_obj.c **** 
 520:Middlewares/lvgl/src/core/lv_obj.c ****         /*If the border is drawn later disable loading other properties*/
 521:Middlewares/lvgl/src/core/lv_obj.c ****         if(lv_obj_get_style_border_post(obj, LV_PART_MAIN)) {
 522:Middlewares/lvgl/src/core/lv_obj.c ****             lv_draw_rect_dsc_t draw_dsc;
 523:Middlewares/lvgl/src/core/lv_obj.c ****             lv_draw_rect_dsc_init(&draw_dsc);
 524:Middlewares/lvgl/src/core/lv_obj.c ****             draw_dsc.bg_opa = LV_OPA_TRANSP;
 525:Middlewares/lvgl/src/core/lv_obj.c ****             draw_dsc.outline_opa = LV_OPA_TRANSP;
 526:Middlewares/lvgl/src/core/lv_obj.c ****             draw_dsc.shadow_opa = LV_OPA_TRANSP;
 527:Middlewares/lvgl/src/core/lv_obj.c ****             lv_obj_init_draw_rect_dsc(obj, LV_PART_MAIN, &draw_dsc);
 528:Middlewares/lvgl/src/core/lv_obj.c **** 
 529:Middlewares/lvgl/src/core/lv_obj.c ****             lv_coord_t w = lv_obj_get_style_transform_width(obj, LV_PART_MAIN);
 530:Middlewares/lvgl/src/core/lv_obj.c ****             lv_coord_t h = lv_obj_get_style_transform_height(obj, LV_PART_MAIN);
 531:Middlewares/lvgl/src/core/lv_obj.c ****             lv_area_t coords;
 532:Middlewares/lvgl/src/core/lv_obj.c ****             lv_area_copy(&coords, &obj->coords);
 533:Middlewares/lvgl/src/core/lv_obj.c ****             coords.x1 -= w;
 534:Middlewares/lvgl/src/core/lv_obj.c ****             coords.x2 += w;
 535:Middlewares/lvgl/src/core/lv_obj.c ****             coords.y1 -= h;
 536:Middlewares/lvgl/src/core/lv_obj.c ****             coords.y2 += h;
 537:Middlewares/lvgl/src/core/lv_obj.c ****             lv_draw_rect(&coords, clip_area, &draw_dsc);
 538:Middlewares/lvgl/src/core/lv_obj.c ****         }
 539:Middlewares/lvgl/src/core/lv_obj.c ****     }
 540:Middlewares/lvgl/src/core/lv_obj.c **** }
 541:Middlewares/lvgl/src/core/lv_obj.c **** 
 542:Middlewares/lvgl/src/core/lv_obj.c **** static void draw_scrollbar(lv_obj_t * obj, const lv_area_t * clip_area)
 543:Middlewares/lvgl/src/core/lv_obj.c **** {
ARM GAS  /tmp/ccyhZZXZ.s 			page 11


 544:Middlewares/lvgl/src/core/lv_obj.c **** 
 545:Middlewares/lvgl/src/core/lv_obj.c ****     lv_area_t hor_area;
 546:Middlewares/lvgl/src/core/lv_obj.c ****     lv_area_t ver_area;
 547:Middlewares/lvgl/src/core/lv_obj.c ****     lv_obj_get_scrollbar_area(obj, &hor_area, &ver_area);
 548:Middlewares/lvgl/src/core/lv_obj.c **** 
 549:Middlewares/lvgl/src/core/lv_obj.c ****     if(lv_area_get_size(&hor_area) <= 0 && lv_area_get_size(&ver_area) <= 0) return;
 550:Middlewares/lvgl/src/core/lv_obj.c **** 
 551:Middlewares/lvgl/src/core/lv_obj.c ****     lv_draw_rect_dsc_t draw_dsc;
 552:Middlewares/lvgl/src/core/lv_obj.c ****     lv_res_t sb_res = scrollbar_init_draw_dsc(obj, &draw_dsc);
 553:Middlewares/lvgl/src/core/lv_obj.c ****     if(sb_res != LV_RES_OK) return;
 554:Middlewares/lvgl/src/core/lv_obj.c **** 
 555:Middlewares/lvgl/src/core/lv_obj.c ****     lv_obj_draw_part_dsc_t part_dsc;
 556:Middlewares/lvgl/src/core/lv_obj.c ****     lv_obj_draw_dsc_init(&part_dsc, clip_area);
 557:Middlewares/lvgl/src/core/lv_obj.c ****     part_dsc.rect_dsc = &draw_dsc;
 558:Middlewares/lvgl/src/core/lv_obj.c ****     part_dsc.part = LV_PART_SCROLLBAR;
 559:Middlewares/lvgl/src/core/lv_obj.c **** 
 560:Middlewares/lvgl/src/core/lv_obj.c ****     if(lv_area_get_size(&hor_area) > 0) {
 561:Middlewares/lvgl/src/core/lv_obj.c ****         part_dsc.draw_area = &hor_area;
 562:Middlewares/lvgl/src/core/lv_obj.c ****         lv_event_send(obj, LV_EVENT_DRAW_PART_BEGIN, &part_dsc);
 563:Middlewares/lvgl/src/core/lv_obj.c ****         lv_draw_rect(&hor_area, clip_area, &draw_dsc);
 564:Middlewares/lvgl/src/core/lv_obj.c ****         lv_event_send(obj, LV_EVENT_DRAW_PART_END, &part_dsc);
 565:Middlewares/lvgl/src/core/lv_obj.c ****     }
 566:Middlewares/lvgl/src/core/lv_obj.c ****     if(lv_area_get_size(&ver_area) > 0) {
 567:Middlewares/lvgl/src/core/lv_obj.c ****         part_dsc.draw_area = &ver_area;
 568:Middlewares/lvgl/src/core/lv_obj.c ****         lv_event_send(obj, LV_EVENT_DRAW_PART_BEGIN, &part_dsc);
 569:Middlewares/lvgl/src/core/lv_obj.c ****         lv_draw_rect(&ver_area, clip_area, &draw_dsc);
 570:Middlewares/lvgl/src/core/lv_obj.c ****         lv_event_send(obj, LV_EVENT_DRAW_PART_END, &part_dsc);
 571:Middlewares/lvgl/src/core/lv_obj.c ****     }
 572:Middlewares/lvgl/src/core/lv_obj.c **** }
 573:Middlewares/lvgl/src/core/lv_obj.c **** 
 574:Middlewares/lvgl/src/core/lv_obj.c **** /**
 575:Middlewares/lvgl/src/core/lv_obj.c ****  * Initialize the draw descriptor for the scrollbar
 576:Middlewares/lvgl/src/core/lv_obj.c ****  * @param obj pointer to an object
 577:Middlewares/lvgl/src/core/lv_obj.c ****  * @param dsc the draw descriptor to initialize
 578:Middlewares/lvgl/src/core/lv_obj.c ****  * @return LV_RES_OK: the scrollbar is visible; LV_RES_INV: the scrollbar is not visible
 579:Middlewares/lvgl/src/core/lv_obj.c ****  */
 580:Middlewares/lvgl/src/core/lv_obj.c **** static lv_res_t scrollbar_init_draw_dsc(lv_obj_t * obj, lv_draw_rect_dsc_t * dsc)
 581:Middlewares/lvgl/src/core/lv_obj.c **** {
 582:Middlewares/lvgl/src/core/lv_obj.c ****     lv_draw_rect_dsc_init(dsc);
 583:Middlewares/lvgl/src/core/lv_obj.c ****     dsc->bg_opa = lv_obj_get_style_bg_opa(obj, LV_PART_SCROLLBAR);
 584:Middlewares/lvgl/src/core/lv_obj.c ****     if(dsc->bg_opa > LV_OPA_MIN) {
 585:Middlewares/lvgl/src/core/lv_obj.c ****         dsc->bg_color = lv_obj_get_style_bg_color(obj, LV_PART_SCROLLBAR);
 586:Middlewares/lvgl/src/core/lv_obj.c ****     }
 587:Middlewares/lvgl/src/core/lv_obj.c **** 
 588:Middlewares/lvgl/src/core/lv_obj.c ****     dsc->border_opa = lv_obj_get_style_border_opa(obj, LV_PART_SCROLLBAR);
 589:Middlewares/lvgl/src/core/lv_obj.c ****     if(dsc->border_opa > LV_OPA_MIN) {
 590:Middlewares/lvgl/src/core/lv_obj.c ****         dsc->border_width = lv_obj_get_style_border_width(obj, LV_PART_SCROLLBAR);
 591:Middlewares/lvgl/src/core/lv_obj.c ****         if(dsc->border_width > 0) {
 592:Middlewares/lvgl/src/core/lv_obj.c ****             dsc->border_color = lv_obj_get_style_border_color(obj, LV_PART_SCROLLBAR);
 593:Middlewares/lvgl/src/core/lv_obj.c ****         } else {
 594:Middlewares/lvgl/src/core/lv_obj.c ****             dsc->border_opa = LV_OPA_TRANSP;
 595:Middlewares/lvgl/src/core/lv_obj.c ****         }
 596:Middlewares/lvgl/src/core/lv_obj.c ****     }
 597:Middlewares/lvgl/src/core/lv_obj.c **** 
 598:Middlewares/lvgl/src/core/lv_obj.c **** #if LV_DRAW_COMPLEX
 599:Middlewares/lvgl/src/core/lv_obj.c ****     dsc->shadow_opa = lv_obj_get_style_shadow_opa(obj, LV_PART_SCROLLBAR);
 600:Middlewares/lvgl/src/core/lv_obj.c ****     if(dsc->shadow_opa > LV_OPA_MIN) {
ARM GAS  /tmp/ccyhZZXZ.s 			page 12


 601:Middlewares/lvgl/src/core/lv_obj.c ****         dsc->shadow_width = lv_obj_get_style_shadow_width(obj, LV_PART_SCROLLBAR);
 602:Middlewares/lvgl/src/core/lv_obj.c ****         if(dsc->shadow_width > 0) {
 603:Middlewares/lvgl/src/core/lv_obj.c ****             dsc->shadow_spread = lv_obj_get_style_shadow_spread(obj, LV_PART_SCROLLBAR);
 604:Middlewares/lvgl/src/core/lv_obj.c ****             dsc->shadow_color = lv_obj_get_style_shadow_color(obj, LV_PART_SCROLLBAR);
 605:Middlewares/lvgl/src/core/lv_obj.c ****         } else {
 606:Middlewares/lvgl/src/core/lv_obj.c ****             dsc->shadow_opa = LV_OPA_TRANSP;
 607:Middlewares/lvgl/src/core/lv_obj.c ****         }
 608:Middlewares/lvgl/src/core/lv_obj.c ****     }
 609:Middlewares/lvgl/src/core/lv_obj.c **** 
 610:Middlewares/lvgl/src/core/lv_obj.c ****     lv_opa_t opa = lv_obj_get_style_opa(obj, LV_PART_SCROLLBAR);
 611:Middlewares/lvgl/src/core/lv_obj.c ****     if(opa < LV_OPA_MAX) {
 612:Middlewares/lvgl/src/core/lv_obj.c ****         dsc->bg_opa = (dsc->bg_opa * opa) >> 8;
 613:Middlewares/lvgl/src/core/lv_obj.c ****         dsc->border_opa = (dsc->bg_opa * opa) >> 8;
 614:Middlewares/lvgl/src/core/lv_obj.c ****         dsc->shadow_opa = (dsc->bg_opa * opa) >> 8;
 615:Middlewares/lvgl/src/core/lv_obj.c ****     }
 616:Middlewares/lvgl/src/core/lv_obj.c **** 
 617:Middlewares/lvgl/src/core/lv_obj.c ****     if(dsc->bg_opa != LV_OPA_TRANSP || dsc->border_opa != LV_OPA_TRANSP || dsc->shadow_opa != LV_OP
 618:Middlewares/lvgl/src/core/lv_obj.c ****         dsc->radius = lv_obj_get_style_radius(obj, LV_PART_SCROLLBAR);
 619:Middlewares/lvgl/src/core/lv_obj.c ****         return LV_RES_OK;
 620:Middlewares/lvgl/src/core/lv_obj.c ****     } else {
 621:Middlewares/lvgl/src/core/lv_obj.c ****         return LV_RES_INV;
 622:Middlewares/lvgl/src/core/lv_obj.c ****     }
 623:Middlewares/lvgl/src/core/lv_obj.c **** #else
 624:Middlewares/lvgl/src/core/lv_obj.c ****     if(dsc->bg_opa != LV_OPA_TRANSP || dsc->border_opa != LV_OPA_TRANSP) return LV_RES_OK;
 625:Middlewares/lvgl/src/core/lv_obj.c ****     else return LV_RES_INV;
 626:Middlewares/lvgl/src/core/lv_obj.c **** #endif
 627:Middlewares/lvgl/src/core/lv_obj.c **** }
 628:Middlewares/lvgl/src/core/lv_obj.c **** 
 629:Middlewares/lvgl/src/core/lv_obj.c **** static void lv_obj_event(const lv_obj_class_t * class_p, lv_event_t * e)
 630:Middlewares/lvgl/src/core/lv_obj.c **** {
 631:Middlewares/lvgl/src/core/lv_obj.c ****     LV_UNUSED(class_p);
 632:Middlewares/lvgl/src/core/lv_obj.c **** 
 633:Middlewares/lvgl/src/core/lv_obj.c ****     lv_event_code_t code = lv_event_get_code(e);
 634:Middlewares/lvgl/src/core/lv_obj.c ****     lv_obj_t * obj = lv_event_get_target(e);
 635:Middlewares/lvgl/src/core/lv_obj.c ****     if(code == LV_EVENT_PRESSED) {
 636:Middlewares/lvgl/src/core/lv_obj.c ****         lv_obj_add_state(obj, LV_STATE_PRESSED);
 637:Middlewares/lvgl/src/core/lv_obj.c ****     }
 638:Middlewares/lvgl/src/core/lv_obj.c ****     else if(code == LV_EVENT_RELEASED) {
 639:Middlewares/lvgl/src/core/lv_obj.c ****         lv_obj_clear_state(obj, LV_STATE_PRESSED);
 640:Middlewares/lvgl/src/core/lv_obj.c ****         void * param = lv_event_get_param(e);
 641:Middlewares/lvgl/src/core/lv_obj.c ****         /*Go the checked state if enabled*/
 642:Middlewares/lvgl/src/core/lv_obj.c ****         if(lv_indev_get_scroll_obj(param) == NULL && lv_obj_has_flag(obj, LV_OBJ_FLAG_CHECKABLE)) {
 643:Middlewares/lvgl/src/core/lv_obj.c ****             if(!(lv_obj_get_state(obj) & LV_STATE_CHECKED)) lv_obj_add_state(obj, LV_STATE_CHECKED)
 644:Middlewares/lvgl/src/core/lv_obj.c ****             else lv_obj_clear_state(obj, LV_STATE_CHECKED);
 645:Middlewares/lvgl/src/core/lv_obj.c **** 
 646:Middlewares/lvgl/src/core/lv_obj.c ****             lv_res_t res = lv_event_send(obj, LV_EVENT_VALUE_CHANGED, NULL);
 647:Middlewares/lvgl/src/core/lv_obj.c ****             if(res != LV_RES_OK) return;
 648:Middlewares/lvgl/src/core/lv_obj.c ****         }
 649:Middlewares/lvgl/src/core/lv_obj.c ****     }
 650:Middlewares/lvgl/src/core/lv_obj.c ****     else if(code == LV_EVENT_PRESS_LOST) {
 651:Middlewares/lvgl/src/core/lv_obj.c ****         lv_obj_clear_state(obj, LV_STATE_PRESSED);
 652:Middlewares/lvgl/src/core/lv_obj.c ****     }
 653:Middlewares/lvgl/src/core/lv_obj.c ****     else if(code == LV_EVENT_KEY) {
 654:Middlewares/lvgl/src/core/lv_obj.c ****         if(lv_obj_has_flag(obj, LV_OBJ_FLAG_CHECKABLE)) {
 655:Middlewares/lvgl/src/core/lv_obj.c ****             char c = *((char *)lv_event_get_param(e));
 656:Middlewares/lvgl/src/core/lv_obj.c ****             if(c == LV_KEY_RIGHT || c == LV_KEY_UP) {
 657:Middlewares/lvgl/src/core/lv_obj.c ****                 lv_obj_add_state(obj, LV_STATE_CHECKED);
ARM GAS  /tmp/ccyhZZXZ.s 			page 13


 658:Middlewares/lvgl/src/core/lv_obj.c ****             }
 659:Middlewares/lvgl/src/core/lv_obj.c ****             else if(c == LV_KEY_LEFT || c == LV_KEY_DOWN) {
 660:Middlewares/lvgl/src/core/lv_obj.c ****                 lv_obj_clear_state(obj, LV_STATE_CHECKED);
 661:Middlewares/lvgl/src/core/lv_obj.c ****             }
 662:Middlewares/lvgl/src/core/lv_obj.c **** 
 663:Middlewares/lvgl/src/core/lv_obj.c ****             /*With Enter LV_EVENT_RELEASED will send VALUE_CHANGE event*/
 664:Middlewares/lvgl/src/core/lv_obj.c ****             if(c != LV_KEY_ENTER) {
 665:Middlewares/lvgl/src/core/lv_obj.c ****                 lv_res_t res = lv_event_send(obj, LV_EVENT_VALUE_CHANGED, NULL);
 666:Middlewares/lvgl/src/core/lv_obj.c ****                 if(res != LV_RES_OK) return;
 667:Middlewares/lvgl/src/core/lv_obj.c ****             }
 668:Middlewares/lvgl/src/core/lv_obj.c ****         }
 669:Middlewares/lvgl/src/core/lv_obj.c ****     }
 670:Middlewares/lvgl/src/core/lv_obj.c ****     else if(code == LV_EVENT_FOCUSED) {
 671:Middlewares/lvgl/src/core/lv_obj.c ****         if(lv_obj_has_flag(obj, LV_OBJ_FLAG_SCROLL_ON_FOCUS)) {
 672:Middlewares/lvgl/src/core/lv_obj.c ****             lv_obj_scroll_to_view_recursive(obj, LV_ANIM_ON);
 673:Middlewares/lvgl/src/core/lv_obj.c ****         }
 674:Middlewares/lvgl/src/core/lv_obj.c **** 
 675:Middlewares/lvgl/src/core/lv_obj.c ****         bool editing = false;
 676:Middlewares/lvgl/src/core/lv_obj.c ****         editing = lv_group_get_editing(lv_obj_get_group(obj));
 677:Middlewares/lvgl/src/core/lv_obj.c ****         lv_state_t state = LV_STATE_FOCUSED;
 678:Middlewares/lvgl/src/core/lv_obj.c **** 
 679:Middlewares/lvgl/src/core/lv_obj.c ****         lv_indev_t * indev = lv_indev_get_act();
 680:Middlewares/lvgl/src/core/lv_obj.c ****         lv_indev_type_t indev_type = lv_indev_get_type(indev);
 681:Middlewares/lvgl/src/core/lv_obj.c ****         if(indev_type == LV_INDEV_TYPE_KEYPAD || indev_type == LV_INDEV_TYPE_ENCODER) state |= LV_S
 682:Middlewares/lvgl/src/core/lv_obj.c ****         if(editing) {
 683:Middlewares/lvgl/src/core/lv_obj.c ****             state |= LV_STATE_EDITED;
 684:Middlewares/lvgl/src/core/lv_obj.c ****             lv_obj_add_state(obj, state);
 685:Middlewares/lvgl/src/core/lv_obj.c ****         }
 686:Middlewares/lvgl/src/core/lv_obj.c ****         else {
 687:Middlewares/lvgl/src/core/lv_obj.c ****             lv_obj_add_state(obj, state);
 688:Middlewares/lvgl/src/core/lv_obj.c ****             lv_obj_clear_state(obj, LV_STATE_EDITED);
 689:Middlewares/lvgl/src/core/lv_obj.c ****         }
 690:Middlewares/lvgl/src/core/lv_obj.c ****     }
 691:Middlewares/lvgl/src/core/lv_obj.c ****     else if(code == LV_EVENT_SCROLL_BEGIN) {
 692:Middlewares/lvgl/src/core/lv_obj.c ****         lv_obj_add_state(obj, LV_STATE_SCROLLED);
 693:Middlewares/lvgl/src/core/lv_obj.c ****     }
 694:Middlewares/lvgl/src/core/lv_obj.c ****     else if(code == LV_EVENT_SCROLL_END) {
 695:Middlewares/lvgl/src/core/lv_obj.c ****         lv_obj_clear_state(obj, LV_STATE_SCROLLED);
 696:Middlewares/lvgl/src/core/lv_obj.c ****     }
 697:Middlewares/lvgl/src/core/lv_obj.c ****     else if(code == LV_EVENT_DEFOCUSED) {
 698:Middlewares/lvgl/src/core/lv_obj.c ****         lv_obj_clear_state(obj, LV_STATE_FOCUSED | LV_STATE_EDITED | LV_STATE_FOCUS_KEY);
 699:Middlewares/lvgl/src/core/lv_obj.c ****     }
 700:Middlewares/lvgl/src/core/lv_obj.c ****     else if(code == LV_EVENT_SIZE_CHANGED) {
 701:Middlewares/lvgl/src/core/lv_obj.c ****         lv_coord_t align = lv_obj_get_style_align(obj, LV_PART_MAIN);
 702:Middlewares/lvgl/src/core/lv_obj.c ****         uint16_t layout = lv_obj_get_style_layout(obj, LV_PART_MAIN);
 703:Middlewares/lvgl/src/core/lv_obj.c ****         if(layout || align) {
 704:Middlewares/lvgl/src/core/lv_obj.c ****             lv_obj_mark_layout_as_dirty(obj);
 705:Middlewares/lvgl/src/core/lv_obj.c ****         }
 706:Middlewares/lvgl/src/core/lv_obj.c **** 
 707:Middlewares/lvgl/src/core/lv_obj.c ****         uint32_t i;
 708:Middlewares/lvgl/src/core/lv_obj.c ****         uint32_t child_cnt = lv_obj_get_child_cnt(obj);
 709:Middlewares/lvgl/src/core/lv_obj.c ****         for(i = 0; i < child_cnt; i++) {
 710:Middlewares/lvgl/src/core/lv_obj.c ****             lv_obj_t * child = lv_obj_get_child(obj, i);
 711:Middlewares/lvgl/src/core/lv_obj.c ****             lv_obj_mark_layout_as_dirty(child);
 712:Middlewares/lvgl/src/core/lv_obj.c ****         }
 713:Middlewares/lvgl/src/core/lv_obj.c ****     }
 714:Middlewares/lvgl/src/core/lv_obj.c ****     else if(code == LV_EVENT_CHILD_CHANGED) {
ARM GAS  /tmp/ccyhZZXZ.s 			page 14


 715:Middlewares/lvgl/src/core/lv_obj.c ****         lv_coord_t w = lv_obj_get_style_width(obj, LV_PART_MAIN);
 716:Middlewares/lvgl/src/core/lv_obj.c ****         lv_coord_t h = lv_obj_get_style_height(obj, LV_PART_MAIN);
 717:Middlewares/lvgl/src/core/lv_obj.c ****         lv_coord_t align = lv_obj_get_style_align(obj, LV_PART_MAIN);
 718:Middlewares/lvgl/src/core/lv_obj.c ****         uint16_t layout = lv_obj_get_style_layout(obj, LV_PART_MAIN);
 719:Middlewares/lvgl/src/core/lv_obj.c ****         if(layout || align || w == LV_SIZE_CONTENT || h == LV_SIZE_CONTENT) {
 720:Middlewares/lvgl/src/core/lv_obj.c ****             lv_obj_mark_layout_as_dirty(obj);
 721:Middlewares/lvgl/src/core/lv_obj.c ****         }
 722:Middlewares/lvgl/src/core/lv_obj.c ****     }
 723:Middlewares/lvgl/src/core/lv_obj.c ****     else if(code == LV_EVENT_SCROLL_END) {
 724:Middlewares/lvgl/src/core/lv_obj.c ****         if(lv_obj_get_scrollbar_mode(obj) == LV_SCROLLBAR_MODE_ACTIVE) {
 725:Middlewares/lvgl/src/core/lv_obj.c ****             lv_obj_invalidate(obj);
 726:Middlewares/lvgl/src/core/lv_obj.c ****         }
 727:Middlewares/lvgl/src/core/lv_obj.c ****     }
 728:Middlewares/lvgl/src/core/lv_obj.c ****     else if(code == LV_EVENT_REFR_EXT_DRAW_SIZE) {
 729:Middlewares/lvgl/src/core/lv_obj.c ****         lv_coord_t * s = lv_event_get_param(e);
 730:Middlewares/lvgl/src/core/lv_obj.c ****         lv_coord_t d = lv_obj_calculate_ext_draw_size(obj, LV_PART_MAIN);
 731:Middlewares/lvgl/src/core/lv_obj.c ****         *s = LV_MAX(*s, d);
 732:Middlewares/lvgl/src/core/lv_obj.c ****     }
 733:Middlewares/lvgl/src/core/lv_obj.c ****     else if(code == LV_EVENT_DRAW_MAIN || code == LV_EVENT_DRAW_POST || code == LV_EVENT_COVER_CHEC
 734:Middlewares/lvgl/src/core/lv_obj.c ****         lv_obj_draw(e);
 735:Middlewares/lvgl/src/core/lv_obj.c ****     }
 736:Middlewares/lvgl/src/core/lv_obj.c **** }
 737:Middlewares/lvgl/src/core/lv_obj.c **** 
 738:Middlewares/lvgl/src/core/lv_obj.c **** /**
 739:Middlewares/lvgl/src/core/lv_obj.c ****  * Set the state (fully overwrite) of an object.
 740:Middlewares/lvgl/src/core/lv_obj.c ****  * If specified in the styles, transition animations will be started from the previous state to the
 741:Middlewares/lvgl/src/core/lv_obj.c ****  * @param obj       pointer to an object
 742:Middlewares/lvgl/src/core/lv_obj.c ****  * @param state     the new state
 743:Middlewares/lvgl/src/core/lv_obj.c ****  */
 744:Middlewares/lvgl/src/core/lv_obj.c **** static void lv_obj_set_state(lv_obj_t * obj, lv_state_t new_state)
 745:Middlewares/lvgl/src/core/lv_obj.c **** {
 746:Middlewares/lvgl/src/core/lv_obj.c ****     if(obj->state == new_state) return;
 747:Middlewares/lvgl/src/core/lv_obj.c **** 
 748:Middlewares/lvgl/src/core/lv_obj.c ****     LV_ASSERT_OBJ(obj, MY_CLASS);
 749:Middlewares/lvgl/src/core/lv_obj.c **** 
 750:Middlewares/lvgl/src/core/lv_obj.c ****     lv_state_t prev_state = obj->state;
 751:Middlewares/lvgl/src/core/lv_obj.c ****     obj->state = new_state;
 752:Middlewares/lvgl/src/core/lv_obj.c **** 
 753:Middlewares/lvgl/src/core/lv_obj.c ****     _lv_style_state_cmp_t cmp_res = _lv_obj_style_state_compare(obj, prev_state, new_state);
 754:Middlewares/lvgl/src/core/lv_obj.c ****     /*If there is no difference in styles there is nothing else to do*/
 755:Middlewares/lvgl/src/core/lv_obj.c ****     if(cmp_res == _LV_STYLE_STATE_CMP_SAME) return;
 756:Middlewares/lvgl/src/core/lv_obj.c **** 
 757:Middlewares/lvgl/src/core/lv_obj.c ****     _lv_obj_style_transition_dsc_t * ts = lv_mem_buf_get(sizeof(_lv_obj_style_transition_dsc_t) * S
 758:Middlewares/lvgl/src/core/lv_obj.c ****     lv_memset_00(ts, sizeof(_lv_obj_style_transition_dsc_t) * STYLE_TRANSITION_MAX);
 759:Middlewares/lvgl/src/core/lv_obj.c ****     uint32_t tsi = 0;
 760:Middlewares/lvgl/src/core/lv_obj.c ****     uint32_t i;
 761:Middlewares/lvgl/src/core/lv_obj.c ****     for(i = 0; i < obj->style_cnt && tsi < STYLE_TRANSITION_MAX; i++) {
 762:Middlewares/lvgl/src/core/lv_obj.c ****         _lv_obj_style_t * obj_style = &obj->styles[i];
 763:Middlewares/lvgl/src/core/lv_obj.c ****         lv_state_t state_act = lv_obj_style_get_selector_state(obj->styles[i].selector);
 764:Middlewares/lvgl/src/core/lv_obj.c ****         lv_part_t part_act = lv_obj_style_get_selector_part(obj->styles[i].selector);
 765:Middlewares/lvgl/src/core/lv_obj.c ****         if(state_act & (~new_state)) continue; /*Skip unrelated styles*/
 766:Middlewares/lvgl/src/core/lv_obj.c ****         if(obj_style->is_trans) continue;
 767:Middlewares/lvgl/src/core/lv_obj.c **** 
 768:Middlewares/lvgl/src/core/lv_obj.c ****         lv_style_value_t v;
 769:Middlewares/lvgl/src/core/lv_obj.c ****         if(lv_style_get_prop_inlined(obj_style->style, LV_STYLE_TRANSITION, &v) == false) continue;
 770:Middlewares/lvgl/src/core/lv_obj.c ****         const lv_style_transition_dsc_t * tr = v.ptr;
 771:Middlewares/lvgl/src/core/lv_obj.c **** 
ARM GAS  /tmp/ccyhZZXZ.s 			page 15


 772:Middlewares/lvgl/src/core/lv_obj.c ****         /*Add the props to the set if not added yet or added but with smaller weight*/
 773:Middlewares/lvgl/src/core/lv_obj.c ****         uint32_t j;
 774:Middlewares/lvgl/src/core/lv_obj.c ****         for(j = 0; tr->props[j] != 0 && tsi < STYLE_TRANSITION_MAX; j++) {
 775:Middlewares/lvgl/src/core/lv_obj.c ****             uint32_t t;
 776:Middlewares/lvgl/src/core/lv_obj.c ****             for(t = 0; t < tsi; t++) {
 777:Middlewares/lvgl/src/core/lv_obj.c ****                 lv_style_selector_t selector = ts[t].selector;
 778:Middlewares/lvgl/src/core/lv_obj.c ****                 lv_state_t state_ts = lv_obj_style_get_selector_state(selector);
 779:Middlewares/lvgl/src/core/lv_obj.c ****                 lv_part_t part_ts = lv_obj_style_get_selector_part(selector);
 780:Middlewares/lvgl/src/core/lv_obj.c ****                 if(ts[t].prop == tr->props[j] && part_ts == part_act && state_ts >= state_act) brea
 781:Middlewares/lvgl/src/core/lv_obj.c ****             }
 782:Middlewares/lvgl/src/core/lv_obj.c **** 
 783:Middlewares/lvgl/src/core/lv_obj.c ****             /*If not found  add it*/
 784:Middlewares/lvgl/src/core/lv_obj.c ****             if(t == tsi) {
 785:Middlewares/lvgl/src/core/lv_obj.c ****                 ts[tsi].time = tr->time;
 786:Middlewares/lvgl/src/core/lv_obj.c ****                 ts[tsi].delay = tr->delay;
 787:Middlewares/lvgl/src/core/lv_obj.c ****                 ts[tsi].path_cb = tr->path_xcb;
 788:Middlewares/lvgl/src/core/lv_obj.c ****                 ts[tsi].prop = tr->props[j];
 789:Middlewares/lvgl/src/core/lv_obj.c **** #if LV_USE_USER_DATA
 790:Middlewares/lvgl/src/core/lv_obj.c ****                 ts[tsi].user_data = tr->user_data;
 791:Middlewares/lvgl/src/core/lv_obj.c **** #endif
 792:Middlewares/lvgl/src/core/lv_obj.c ****                 ts[tsi].selector = obj_style->selector;
 793:Middlewares/lvgl/src/core/lv_obj.c ****                 tsi++;
 794:Middlewares/lvgl/src/core/lv_obj.c ****             }
 795:Middlewares/lvgl/src/core/lv_obj.c ****         }
 796:Middlewares/lvgl/src/core/lv_obj.c ****     }
 797:Middlewares/lvgl/src/core/lv_obj.c **** 
 798:Middlewares/lvgl/src/core/lv_obj.c ****     for(i = 0;i < tsi; i++) {
 799:Middlewares/lvgl/src/core/lv_obj.c ****         lv_part_t part_act = lv_obj_style_get_selector_part(ts[i].selector);
 800:Middlewares/lvgl/src/core/lv_obj.c ****         _lv_obj_style_create_transition(obj, part_act, prev_state, new_state, &ts[i]);
 801:Middlewares/lvgl/src/core/lv_obj.c ****     }
 802:Middlewares/lvgl/src/core/lv_obj.c **** 
 803:Middlewares/lvgl/src/core/lv_obj.c ****     lv_mem_buf_release(ts);
 804:Middlewares/lvgl/src/core/lv_obj.c **** 
 805:Middlewares/lvgl/src/core/lv_obj.c ****     if(cmp_res == _LV_STYLE_STATE_CMP_DIFF_REDRAW) {
 806:Middlewares/lvgl/src/core/lv_obj.c ****         lv_obj_invalidate(obj);
 807:Middlewares/lvgl/src/core/lv_obj.c ****     }
 808:Middlewares/lvgl/src/core/lv_obj.c ****     else if(cmp_res == _LV_STYLE_STATE_CMP_DIFF_LAYOUT) {
 809:Middlewares/lvgl/src/core/lv_obj.c ****         lv_obj_refresh_style(obj, LV_PART_ANY, LV_STYLE_PROP_ANY);
 810:Middlewares/lvgl/src/core/lv_obj.c ****     }
 811:Middlewares/lvgl/src/core/lv_obj.c ****     else if(cmp_res == _LV_STYLE_STATE_CMP_DIFF_DRAW_PAD) {
 812:Middlewares/lvgl/src/core/lv_obj.c ****         lv_obj_invalidate(obj);
 813:Middlewares/lvgl/src/core/lv_obj.c ****         lv_obj_refresh_ext_draw_size(obj);
 814:Middlewares/lvgl/src/core/lv_obj.c ****     }
 815:Middlewares/lvgl/src/core/lv_obj.c **** }
 816:Middlewares/lvgl/src/core/lv_obj.c **** 
 817:Middlewares/lvgl/src/core/lv_obj.c **** static bool obj_valid_child(const lv_obj_t * parent, const lv_obj_t * obj_to_find)
 818:Middlewares/lvgl/src/core/lv_obj.c **** {
  29              		.loc 1 818 1 view -0
  30              		.cfi_startproc
  31              		@ args = 0, pretend = 0, frame = 0
  32              		@ frame_needed = 0, uses_anonymous_args = 0
  33              		.loc 1 818 1 is_stmt 0 view .LVU1
  34 0000 F8B5     		push	{r3, r4, r5, r6, r7, lr}
  35              	.LCFI0:
  36              		.cfi_def_cfa_offset 24
  37              		.cfi_offset 3, -24
  38              		.cfi_offset 4, -20
ARM GAS  /tmp/ccyhZZXZ.s 			page 16


  39              		.cfi_offset 5, -16
  40              		.cfi_offset 6, -12
  41              		.cfi_offset 7, -8
  42              		.cfi_offset 14, -4
  43 0002 0646     		mov	r6, r0
  44 0004 0D46     		mov	r5, r1
 819:Middlewares/lvgl/src/core/lv_obj.c ****     /*Check all children of `parent`*/
 820:Middlewares/lvgl/src/core/lv_obj.c ****     uint32_t child_cnt = 0;
  45              		.loc 1 820 5 is_stmt 1 view .LVU2
  46              	.LVL1:
 821:Middlewares/lvgl/src/core/lv_obj.c ****     if(parent->spec_attr) child_cnt = parent->spec_attr->child_cnt;
  47              		.loc 1 821 5 view .LVU3
  48              		.loc 1 821 14 is_stmt 0 view .LVU4
  49 0006 8368     		ldr	r3, [r0, #8]
  50              		.loc 1 821 7 view .LVU5
  51 0008 13B1     		cbz	r3, .L6
  52              		.loc 1 821 27 is_stmt 1 discriminator 1 view .LVU6
  53              		.loc 1 821 37 is_stmt 0 discriminator 1 view .LVU7
  54 000a 5F68     		ldr	r7, [r3, #4]
  55              	.LVL2:
  56              	.L2:
 822:Middlewares/lvgl/src/core/lv_obj.c ****     uint32_t i;
  57              		.loc 1 822 5 is_stmt 1 view .LVU8
 823:Middlewares/lvgl/src/core/lv_obj.c ****     for(i = 0; i < child_cnt; i++) {
  58              		.loc 1 823 5 view .LVU9
  59              		.loc 1 823 11 is_stmt 0 view .LVU10
  60 000c 0024     		movs	r4, #0
  61              		.loc 1 823 5 view .LVU11
  62 000e 02E0     		b	.L3
  63              	.LVL3:
  64              	.L6:
 820:Middlewares/lvgl/src/core/lv_obj.c ****     if(parent->spec_attr) child_cnt = parent->spec_attr->child_cnt;
  65              		.loc 1 820 14 view .LVU12
  66 0010 0027     		movs	r7, #0
  67 0012 FBE7     		b	.L2
  68              	.LVL4:
  69              	.L10:
  70              		.loc 1 823 31 is_stmt 1 discriminator 2 view .LVU13
  71              		.loc 1 823 32 is_stmt 0 discriminator 2 view .LVU14
  72 0014 0134     		adds	r4, r4, #1
  73              	.LVL5:
  74              	.L3:
  75              		.loc 1 823 16 is_stmt 1 discriminator 1 view .LVU15
  76              		.loc 1 823 5 is_stmt 0 discriminator 1 view .LVU16
  77 0016 A742     		cmp	r7, r4
  78 0018 0CD9     		bls	.L9
  79              	.LBB94:
 824:Middlewares/lvgl/src/core/lv_obj.c ****         lv_obj_t * child = parent->spec_attr->children[i];
  80              		.loc 1 824 9 is_stmt 1 view .LVU17
  81              		.loc 1 824 34 is_stmt 0 view .LVU18
  82 001a B368     		ldr	r3, [r6, #8]
  83              		.loc 1 824 45 view .LVU19
  84 001c 1B68     		ldr	r3, [r3]
  85              		.loc 1 824 20 view .LVU20
  86 001e 53F82400 		ldr	r0, [r3, r4, lsl #2]
  87              	.LVL6:
 825:Middlewares/lvgl/src/core/lv_obj.c ****         if(child == obj_to_find) {
ARM GAS  /tmp/ccyhZZXZ.s 			page 17


  88              		.loc 1 825 9 is_stmt 1 view .LVU21
  89              		.loc 1 825 11 is_stmt 0 view .LVU22
  90 0022 A842     		cmp	r0, r5
  91 0024 09D0     		beq	.L7
 826:Middlewares/lvgl/src/core/lv_obj.c ****             return true;
 827:Middlewares/lvgl/src/core/lv_obj.c ****         }
 828:Middlewares/lvgl/src/core/lv_obj.c **** 
 829:Middlewares/lvgl/src/core/lv_obj.c ****         /*Check the children*/
 830:Middlewares/lvgl/src/core/lv_obj.c ****         bool found = obj_valid_child(child, obj_to_find);
  92              		.loc 1 830 9 is_stmt 1 view .LVU23
  93              		.loc 1 830 22 is_stmt 0 view .LVU24
  94 0026 2946     		mov	r1, r5
  95 0028 FFF7EAFF 		bl	obj_valid_child
  96              	.LVL7:
 831:Middlewares/lvgl/src/core/lv_obj.c ****         if(found) {
  97              		.loc 1 831 9 is_stmt 1 view .LVU25
  98              		.loc 1 831 11 is_stmt 0 view .LVU26
  99 002c 0346     		mov	r3, r0
 100 002e 0028     		cmp	r0, #0
 101 0030 F0D0     		beq	.L10
 102 0032 00E0     		b	.L4
 103              	.LVL8:
 104              	.L9:
 105              		.loc 1 831 11 view .LVU27
 106              	.LBE94:
 832:Middlewares/lvgl/src/core/lv_obj.c ****             return true;
 833:Middlewares/lvgl/src/core/lv_obj.c ****         }
 834:Middlewares/lvgl/src/core/lv_obj.c ****     }
 835:Middlewares/lvgl/src/core/lv_obj.c ****     return false;
 107              		.loc 1 835 12 view .LVU28
 108 0034 0023     		movs	r3, #0
 109              	.L4:
 836:Middlewares/lvgl/src/core/lv_obj.c **** }
 110              		.loc 1 836 1 view .LVU29
 111 0036 1846     		mov	r0, r3
 112 0038 F8BD     		pop	{r3, r4, r5, r6, r7, pc}
 113              	.LVL9:
 114              	.L7:
 115              	.LBB95:
 826:Middlewares/lvgl/src/core/lv_obj.c ****         }
 116              		.loc 1 826 20 view .LVU30
 117 003a 0123     		movs	r3, #1
 118 003c FBE7     		b	.L4
 119              	.LBE95:
 120              		.cfi_endproc
 121              	.LFE177:
 123              		.section	.text.scrollbar_init_draw_dsc,"ax",%progbits
 124              		.align	1
 125              		.syntax unified
 126              		.thumb
 127              		.thumb_func
 128              		.fpu fpv4-sp-d16
 130              	scrollbar_init_draw_dsc:
 131              	.LVL10:
 132              	.LFB174:
 581:Middlewares/lvgl/src/core/lv_obj.c ****     lv_draw_rect_dsc_init(dsc);
 133              		.loc 1 581 1 is_stmt 1 view -0
ARM GAS  /tmp/ccyhZZXZ.s 			page 18


 134              		.cfi_startproc
 135              		@ args = 0, pretend = 0, frame = 0
 136              		@ frame_needed = 0, uses_anonymous_args = 0
 581:Middlewares/lvgl/src/core/lv_obj.c ****     lv_draw_rect_dsc_init(dsc);
 137              		.loc 1 581 1 is_stmt 0 view .LVU32
 138 0000 38B5     		push	{r3, r4, r5, lr}
 139              	.LCFI1:
 140              		.cfi_def_cfa_offset 16
 141              		.cfi_offset 3, -16
 142              		.cfi_offset 4, -12
 143              		.cfi_offset 5, -8
 144              		.cfi_offset 14, -4
 145 0002 0546     		mov	r5, r0
 146 0004 0C46     		mov	r4, r1
 582:Middlewares/lvgl/src/core/lv_obj.c ****     dsc->bg_opa = lv_obj_get_style_bg_opa(obj, LV_PART_SCROLLBAR);
 147              		.loc 1 582 5 is_stmt 1 view .LVU33
 148 0006 0846     		mov	r0, r1
 149              	.LVL11:
 582:Middlewares/lvgl/src/core/lv_obj.c ****     dsc->bg_opa = lv_obj_get_style_bg_opa(obj, LV_PART_SCROLLBAR);
 150              		.loc 1 582 5 is_stmt 0 view .LVU34
 151 0008 FFF7FEFF 		bl	lv_draw_rect_dsc_init
 152              	.LVL12:
 583:Middlewares/lvgl/src/core/lv_obj.c ****     if(dsc->bg_opa > LV_OPA_MIN) {
 153              		.loc 1 583 5 is_stmt 1 view .LVU35
 154              	.LBB96:
 155              	.LBI96:
 156              		.file 2 "Middlewares/lvgl/src/core/lv_obj_style_gen.h"
   1:Middlewares/lvgl/src/core/lv_obj_style_gen.h **** static inline lv_coord_t lv_obj_get_style_width(const struct _lv_obj_t * obj, uint32_t part)
   2:Middlewares/lvgl/src/core/lv_obj_style_gen.h **** {
   3:Middlewares/lvgl/src/core/lv_obj_style_gen.h ****     lv_style_value_t v = lv_obj_get_style_prop(obj, part, LV_STYLE_WIDTH);
   4:Middlewares/lvgl/src/core/lv_obj_style_gen.h ****     return (lv_coord_t)v.num;
   5:Middlewares/lvgl/src/core/lv_obj_style_gen.h **** }
   6:Middlewares/lvgl/src/core/lv_obj_style_gen.h **** 
   7:Middlewares/lvgl/src/core/lv_obj_style_gen.h **** static inline lv_coord_t lv_obj_get_style_min_width(const struct _lv_obj_t * obj, uint32_t part)
   8:Middlewares/lvgl/src/core/lv_obj_style_gen.h **** {
   9:Middlewares/lvgl/src/core/lv_obj_style_gen.h ****     lv_style_value_t v = lv_obj_get_style_prop(obj, part, LV_STYLE_MIN_WIDTH);
  10:Middlewares/lvgl/src/core/lv_obj_style_gen.h ****     return (lv_coord_t)v.num;
  11:Middlewares/lvgl/src/core/lv_obj_style_gen.h **** }
  12:Middlewares/lvgl/src/core/lv_obj_style_gen.h **** 
  13:Middlewares/lvgl/src/core/lv_obj_style_gen.h **** static inline lv_coord_t lv_obj_get_style_max_width(const struct _lv_obj_t * obj, uint32_t part)
  14:Middlewares/lvgl/src/core/lv_obj_style_gen.h **** {
  15:Middlewares/lvgl/src/core/lv_obj_style_gen.h ****     lv_style_value_t v = lv_obj_get_style_prop(obj, part, LV_STYLE_MAX_WIDTH);
  16:Middlewares/lvgl/src/core/lv_obj_style_gen.h ****     return (lv_coord_t)v.num;
  17:Middlewares/lvgl/src/core/lv_obj_style_gen.h **** }
  18:Middlewares/lvgl/src/core/lv_obj_style_gen.h **** 
  19:Middlewares/lvgl/src/core/lv_obj_style_gen.h **** static inline lv_coord_t lv_obj_get_style_height(const struct _lv_obj_t * obj, uint32_t part)
  20:Middlewares/lvgl/src/core/lv_obj_style_gen.h **** {
  21:Middlewares/lvgl/src/core/lv_obj_style_gen.h ****     lv_style_value_t v = lv_obj_get_style_prop(obj, part, LV_STYLE_HEIGHT);
  22:Middlewares/lvgl/src/core/lv_obj_style_gen.h ****     return (lv_coord_t)v.num;
  23:Middlewares/lvgl/src/core/lv_obj_style_gen.h **** }
  24:Middlewares/lvgl/src/core/lv_obj_style_gen.h **** 
  25:Middlewares/lvgl/src/core/lv_obj_style_gen.h **** static inline lv_coord_t lv_obj_get_style_min_height(const struct _lv_obj_t * obj, uint32_t part)
  26:Middlewares/lvgl/src/core/lv_obj_style_gen.h **** {
  27:Middlewares/lvgl/src/core/lv_obj_style_gen.h ****     lv_style_value_t v = lv_obj_get_style_prop(obj, part, LV_STYLE_MIN_HEIGHT);
  28:Middlewares/lvgl/src/core/lv_obj_style_gen.h ****     return (lv_coord_t)v.num;
  29:Middlewares/lvgl/src/core/lv_obj_style_gen.h **** }
  30:Middlewares/lvgl/src/core/lv_obj_style_gen.h **** 
ARM GAS  /tmp/ccyhZZXZ.s 			page 19


  31:Middlewares/lvgl/src/core/lv_obj_style_gen.h **** static inline lv_coord_t lv_obj_get_style_max_height(const struct _lv_obj_t * obj, uint32_t part)
  32:Middlewares/lvgl/src/core/lv_obj_style_gen.h **** {
  33:Middlewares/lvgl/src/core/lv_obj_style_gen.h ****     lv_style_value_t v = lv_obj_get_style_prop(obj, part, LV_STYLE_MAX_HEIGHT);
  34:Middlewares/lvgl/src/core/lv_obj_style_gen.h ****     return (lv_coord_t)v.num;
  35:Middlewares/lvgl/src/core/lv_obj_style_gen.h **** }
  36:Middlewares/lvgl/src/core/lv_obj_style_gen.h **** 
  37:Middlewares/lvgl/src/core/lv_obj_style_gen.h **** static inline lv_coord_t lv_obj_get_style_x(const struct _lv_obj_t * obj, uint32_t part)
  38:Middlewares/lvgl/src/core/lv_obj_style_gen.h **** {
  39:Middlewares/lvgl/src/core/lv_obj_style_gen.h ****     lv_style_value_t v = lv_obj_get_style_prop(obj, part, LV_STYLE_X);
  40:Middlewares/lvgl/src/core/lv_obj_style_gen.h ****     return (lv_coord_t)v.num;
  41:Middlewares/lvgl/src/core/lv_obj_style_gen.h **** }
  42:Middlewares/lvgl/src/core/lv_obj_style_gen.h **** 
  43:Middlewares/lvgl/src/core/lv_obj_style_gen.h **** static inline lv_coord_t lv_obj_get_style_y(const struct _lv_obj_t * obj, uint32_t part)
  44:Middlewares/lvgl/src/core/lv_obj_style_gen.h **** {
  45:Middlewares/lvgl/src/core/lv_obj_style_gen.h ****     lv_style_value_t v = lv_obj_get_style_prop(obj, part, LV_STYLE_Y);
  46:Middlewares/lvgl/src/core/lv_obj_style_gen.h ****     return (lv_coord_t)v.num;
  47:Middlewares/lvgl/src/core/lv_obj_style_gen.h **** }
  48:Middlewares/lvgl/src/core/lv_obj_style_gen.h **** 
  49:Middlewares/lvgl/src/core/lv_obj_style_gen.h **** static inline lv_align_t lv_obj_get_style_align(const struct _lv_obj_t * obj, uint32_t part)
  50:Middlewares/lvgl/src/core/lv_obj_style_gen.h **** {
  51:Middlewares/lvgl/src/core/lv_obj_style_gen.h ****     lv_style_value_t v = lv_obj_get_style_prop(obj, part, LV_STYLE_ALIGN);
  52:Middlewares/lvgl/src/core/lv_obj_style_gen.h ****     return (lv_align_t)v.num;
  53:Middlewares/lvgl/src/core/lv_obj_style_gen.h **** }
  54:Middlewares/lvgl/src/core/lv_obj_style_gen.h **** 
  55:Middlewares/lvgl/src/core/lv_obj_style_gen.h **** static inline lv_coord_t lv_obj_get_style_transform_width(const struct _lv_obj_t * obj, uint32_t pa
  56:Middlewares/lvgl/src/core/lv_obj_style_gen.h **** {
  57:Middlewares/lvgl/src/core/lv_obj_style_gen.h ****     lv_style_value_t v = lv_obj_get_style_prop(obj, part, LV_STYLE_TRANSFORM_WIDTH);
  58:Middlewares/lvgl/src/core/lv_obj_style_gen.h ****     return (lv_coord_t)v.num;
  59:Middlewares/lvgl/src/core/lv_obj_style_gen.h **** }
  60:Middlewares/lvgl/src/core/lv_obj_style_gen.h **** 
  61:Middlewares/lvgl/src/core/lv_obj_style_gen.h **** static inline lv_coord_t lv_obj_get_style_transform_height(const struct _lv_obj_t * obj, uint32_t p
  62:Middlewares/lvgl/src/core/lv_obj_style_gen.h **** {
  63:Middlewares/lvgl/src/core/lv_obj_style_gen.h ****     lv_style_value_t v = lv_obj_get_style_prop(obj, part, LV_STYLE_TRANSFORM_HEIGHT);
  64:Middlewares/lvgl/src/core/lv_obj_style_gen.h ****     return (lv_coord_t)v.num;
  65:Middlewares/lvgl/src/core/lv_obj_style_gen.h **** }
  66:Middlewares/lvgl/src/core/lv_obj_style_gen.h **** 
  67:Middlewares/lvgl/src/core/lv_obj_style_gen.h **** static inline lv_coord_t lv_obj_get_style_translate_x(const struct _lv_obj_t * obj, uint32_t part)
  68:Middlewares/lvgl/src/core/lv_obj_style_gen.h **** {
  69:Middlewares/lvgl/src/core/lv_obj_style_gen.h ****     lv_style_value_t v = lv_obj_get_style_prop(obj, part, LV_STYLE_TRANSLATE_X);
  70:Middlewares/lvgl/src/core/lv_obj_style_gen.h ****     return (lv_coord_t)v.num;
  71:Middlewares/lvgl/src/core/lv_obj_style_gen.h **** }
  72:Middlewares/lvgl/src/core/lv_obj_style_gen.h **** 
  73:Middlewares/lvgl/src/core/lv_obj_style_gen.h **** static inline lv_coord_t lv_obj_get_style_translate_y(const struct _lv_obj_t * obj, uint32_t part)
  74:Middlewares/lvgl/src/core/lv_obj_style_gen.h **** {
  75:Middlewares/lvgl/src/core/lv_obj_style_gen.h ****     lv_style_value_t v = lv_obj_get_style_prop(obj, part, LV_STYLE_TRANSLATE_Y);
  76:Middlewares/lvgl/src/core/lv_obj_style_gen.h ****     return (lv_coord_t)v.num;
  77:Middlewares/lvgl/src/core/lv_obj_style_gen.h **** }
  78:Middlewares/lvgl/src/core/lv_obj_style_gen.h **** 
  79:Middlewares/lvgl/src/core/lv_obj_style_gen.h **** static inline lv_coord_t lv_obj_get_style_transform_zoom(const struct _lv_obj_t * obj, uint32_t par
  80:Middlewares/lvgl/src/core/lv_obj_style_gen.h **** {
  81:Middlewares/lvgl/src/core/lv_obj_style_gen.h ****     lv_style_value_t v = lv_obj_get_style_prop(obj, part, LV_STYLE_TRANSFORM_ZOOM);
  82:Middlewares/lvgl/src/core/lv_obj_style_gen.h ****     return (lv_coord_t)v.num;
  83:Middlewares/lvgl/src/core/lv_obj_style_gen.h **** }
  84:Middlewares/lvgl/src/core/lv_obj_style_gen.h **** 
  85:Middlewares/lvgl/src/core/lv_obj_style_gen.h **** static inline lv_coord_t lv_obj_get_style_transform_angle(const struct _lv_obj_t * obj, uint32_t pa
  86:Middlewares/lvgl/src/core/lv_obj_style_gen.h **** {
  87:Middlewares/lvgl/src/core/lv_obj_style_gen.h ****     lv_style_value_t v = lv_obj_get_style_prop(obj, part, LV_STYLE_TRANSFORM_ANGLE);
ARM GAS  /tmp/ccyhZZXZ.s 			page 20


  88:Middlewares/lvgl/src/core/lv_obj_style_gen.h ****     return (lv_coord_t)v.num;
  89:Middlewares/lvgl/src/core/lv_obj_style_gen.h **** }
  90:Middlewares/lvgl/src/core/lv_obj_style_gen.h **** 
  91:Middlewares/lvgl/src/core/lv_obj_style_gen.h **** static inline lv_coord_t lv_obj_get_style_pad_top(const struct _lv_obj_t * obj, uint32_t part)
  92:Middlewares/lvgl/src/core/lv_obj_style_gen.h **** {
  93:Middlewares/lvgl/src/core/lv_obj_style_gen.h ****     lv_style_value_t v = lv_obj_get_style_prop(obj, part, LV_STYLE_PAD_TOP);
  94:Middlewares/lvgl/src/core/lv_obj_style_gen.h ****     return (lv_coord_t)v.num;
  95:Middlewares/lvgl/src/core/lv_obj_style_gen.h **** }
  96:Middlewares/lvgl/src/core/lv_obj_style_gen.h **** 
  97:Middlewares/lvgl/src/core/lv_obj_style_gen.h **** static inline lv_coord_t lv_obj_get_style_pad_bottom(const struct _lv_obj_t * obj, uint32_t part)
  98:Middlewares/lvgl/src/core/lv_obj_style_gen.h **** {
  99:Middlewares/lvgl/src/core/lv_obj_style_gen.h ****     lv_style_value_t v = lv_obj_get_style_prop(obj, part, LV_STYLE_PAD_BOTTOM);
 100:Middlewares/lvgl/src/core/lv_obj_style_gen.h ****     return (lv_coord_t)v.num;
 101:Middlewares/lvgl/src/core/lv_obj_style_gen.h **** }
 102:Middlewares/lvgl/src/core/lv_obj_style_gen.h **** 
 103:Middlewares/lvgl/src/core/lv_obj_style_gen.h **** static inline lv_coord_t lv_obj_get_style_pad_left(const struct _lv_obj_t * obj, uint32_t part)
 104:Middlewares/lvgl/src/core/lv_obj_style_gen.h **** {
 105:Middlewares/lvgl/src/core/lv_obj_style_gen.h ****     lv_style_value_t v = lv_obj_get_style_prop(obj, part, LV_STYLE_PAD_LEFT);
 106:Middlewares/lvgl/src/core/lv_obj_style_gen.h ****     return (lv_coord_t)v.num;
 107:Middlewares/lvgl/src/core/lv_obj_style_gen.h **** }
 108:Middlewares/lvgl/src/core/lv_obj_style_gen.h **** 
 109:Middlewares/lvgl/src/core/lv_obj_style_gen.h **** static inline lv_coord_t lv_obj_get_style_pad_right(const struct _lv_obj_t * obj, uint32_t part)
 110:Middlewares/lvgl/src/core/lv_obj_style_gen.h **** {
 111:Middlewares/lvgl/src/core/lv_obj_style_gen.h ****     lv_style_value_t v = lv_obj_get_style_prop(obj, part, LV_STYLE_PAD_RIGHT);
 112:Middlewares/lvgl/src/core/lv_obj_style_gen.h ****     return (lv_coord_t)v.num;
 113:Middlewares/lvgl/src/core/lv_obj_style_gen.h **** }
 114:Middlewares/lvgl/src/core/lv_obj_style_gen.h **** 
 115:Middlewares/lvgl/src/core/lv_obj_style_gen.h **** static inline lv_coord_t lv_obj_get_style_pad_row(const struct _lv_obj_t * obj, uint32_t part)
 116:Middlewares/lvgl/src/core/lv_obj_style_gen.h **** {
 117:Middlewares/lvgl/src/core/lv_obj_style_gen.h ****     lv_style_value_t v = lv_obj_get_style_prop(obj, part, LV_STYLE_PAD_ROW);
 118:Middlewares/lvgl/src/core/lv_obj_style_gen.h ****     return (lv_coord_t)v.num;
 119:Middlewares/lvgl/src/core/lv_obj_style_gen.h **** }
 120:Middlewares/lvgl/src/core/lv_obj_style_gen.h **** 
 121:Middlewares/lvgl/src/core/lv_obj_style_gen.h **** static inline lv_coord_t lv_obj_get_style_pad_column(const struct _lv_obj_t * obj, uint32_t part)
 122:Middlewares/lvgl/src/core/lv_obj_style_gen.h **** {
 123:Middlewares/lvgl/src/core/lv_obj_style_gen.h ****     lv_style_value_t v = lv_obj_get_style_prop(obj, part, LV_STYLE_PAD_COLUMN);
 124:Middlewares/lvgl/src/core/lv_obj_style_gen.h ****     return (lv_coord_t)v.num;
 125:Middlewares/lvgl/src/core/lv_obj_style_gen.h **** }
 126:Middlewares/lvgl/src/core/lv_obj_style_gen.h **** 
 127:Middlewares/lvgl/src/core/lv_obj_style_gen.h **** static inline lv_coord_t lv_obj_get_style_radius(const struct _lv_obj_t * obj, uint32_t part)
 128:Middlewares/lvgl/src/core/lv_obj_style_gen.h **** {
 129:Middlewares/lvgl/src/core/lv_obj_style_gen.h ****     lv_style_value_t v = lv_obj_get_style_prop(obj, part, LV_STYLE_RADIUS);
 130:Middlewares/lvgl/src/core/lv_obj_style_gen.h ****     return (lv_coord_t)v.num;
 131:Middlewares/lvgl/src/core/lv_obj_style_gen.h **** }
 132:Middlewares/lvgl/src/core/lv_obj_style_gen.h **** 
 133:Middlewares/lvgl/src/core/lv_obj_style_gen.h **** static inline bool lv_obj_get_style_clip_corner(const struct _lv_obj_t * obj, uint32_t part)
 134:Middlewares/lvgl/src/core/lv_obj_style_gen.h **** {
 135:Middlewares/lvgl/src/core/lv_obj_style_gen.h ****     lv_style_value_t v = lv_obj_get_style_prop(obj, part, LV_STYLE_CLIP_CORNER);
 136:Middlewares/lvgl/src/core/lv_obj_style_gen.h ****     return (bool)v.num;
 137:Middlewares/lvgl/src/core/lv_obj_style_gen.h **** }
 138:Middlewares/lvgl/src/core/lv_obj_style_gen.h **** 
 139:Middlewares/lvgl/src/core/lv_obj_style_gen.h **** static inline lv_opa_t lv_obj_get_style_opa(const struct _lv_obj_t * obj, uint32_t part)
 140:Middlewares/lvgl/src/core/lv_obj_style_gen.h **** {
 141:Middlewares/lvgl/src/core/lv_obj_style_gen.h ****     lv_style_value_t v = lv_obj_get_style_prop(obj, part, LV_STYLE_OPA);
 142:Middlewares/lvgl/src/core/lv_obj_style_gen.h ****     return (lv_opa_t)v.num;
 143:Middlewares/lvgl/src/core/lv_obj_style_gen.h **** }
 144:Middlewares/lvgl/src/core/lv_obj_style_gen.h **** 
ARM GAS  /tmp/ccyhZZXZ.s 			page 21


 145:Middlewares/lvgl/src/core/lv_obj_style_gen.h **** static inline const lv_color_filter_dsc_t * lv_obj_get_style_color_filter_dsc(const struct _lv_obj_
 146:Middlewares/lvgl/src/core/lv_obj_style_gen.h **** {
 147:Middlewares/lvgl/src/core/lv_obj_style_gen.h ****     lv_style_value_t v = lv_obj_get_style_prop(obj, part, LV_STYLE_COLOR_FILTER_DSC);
 148:Middlewares/lvgl/src/core/lv_obj_style_gen.h ****     return (const lv_color_filter_dsc_t *)v.ptr;
 149:Middlewares/lvgl/src/core/lv_obj_style_gen.h **** }
 150:Middlewares/lvgl/src/core/lv_obj_style_gen.h **** 
 151:Middlewares/lvgl/src/core/lv_obj_style_gen.h **** static inline lv_opa_t lv_obj_get_style_color_filter_opa(const struct _lv_obj_t * obj, uint32_t par
 152:Middlewares/lvgl/src/core/lv_obj_style_gen.h **** {
 153:Middlewares/lvgl/src/core/lv_obj_style_gen.h ****     lv_style_value_t v = lv_obj_get_style_prop(obj, part, LV_STYLE_COLOR_FILTER_OPA);
 154:Middlewares/lvgl/src/core/lv_obj_style_gen.h ****     return (lv_opa_t)v.num;
 155:Middlewares/lvgl/src/core/lv_obj_style_gen.h **** }
 156:Middlewares/lvgl/src/core/lv_obj_style_gen.h **** 
 157:Middlewares/lvgl/src/core/lv_obj_style_gen.h **** static inline uint32_t lv_obj_get_style_anim_time(const struct _lv_obj_t * obj, uint32_t part)
 158:Middlewares/lvgl/src/core/lv_obj_style_gen.h **** {
 159:Middlewares/lvgl/src/core/lv_obj_style_gen.h ****     lv_style_value_t v = lv_obj_get_style_prop(obj, part, LV_STYLE_ANIM_TIME);
 160:Middlewares/lvgl/src/core/lv_obj_style_gen.h ****     return (uint32_t)v.num;
 161:Middlewares/lvgl/src/core/lv_obj_style_gen.h **** }
 162:Middlewares/lvgl/src/core/lv_obj_style_gen.h **** 
 163:Middlewares/lvgl/src/core/lv_obj_style_gen.h **** static inline uint32_t lv_obj_get_style_anim_speed(const struct _lv_obj_t * obj, uint32_t part)
 164:Middlewares/lvgl/src/core/lv_obj_style_gen.h **** {
 165:Middlewares/lvgl/src/core/lv_obj_style_gen.h ****     lv_style_value_t v = lv_obj_get_style_prop(obj, part, LV_STYLE_ANIM_SPEED);
 166:Middlewares/lvgl/src/core/lv_obj_style_gen.h ****     return (uint32_t)v.num;
 167:Middlewares/lvgl/src/core/lv_obj_style_gen.h **** }
 168:Middlewares/lvgl/src/core/lv_obj_style_gen.h **** 
 169:Middlewares/lvgl/src/core/lv_obj_style_gen.h **** static inline const lv_style_transition_dsc_t * lv_obj_get_style_transition(const struct _lv_obj_t 
 170:Middlewares/lvgl/src/core/lv_obj_style_gen.h **** {
 171:Middlewares/lvgl/src/core/lv_obj_style_gen.h ****     lv_style_value_t v = lv_obj_get_style_prop(obj, part, LV_STYLE_TRANSITION);
 172:Middlewares/lvgl/src/core/lv_obj_style_gen.h ****     return (const lv_style_transition_dsc_t *)v.ptr;
 173:Middlewares/lvgl/src/core/lv_obj_style_gen.h **** }
 174:Middlewares/lvgl/src/core/lv_obj_style_gen.h **** 
 175:Middlewares/lvgl/src/core/lv_obj_style_gen.h **** static inline lv_blend_mode_t lv_obj_get_style_blend_mode(const struct _lv_obj_t * obj, uint32_t pa
 176:Middlewares/lvgl/src/core/lv_obj_style_gen.h **** {
 177:Middlewares/lvgl/src/core/lv_obj_style_gen.h ****     lv_style_value_t v = lv_obj_get_style_prop(obj, part, LV_STYLE_BLEND_MODE);
 178:Middlewares/lvgl/src/core/lv_obj_style_gen.h ****     return (lv_blend_mode_t)v.num;
 179:Middlewares/lvgl/src/core/lv_obj_style_gen.h **** }
 180:Middlewares/lvgl/src/core/lv_obj_style_gen.h **** 
 181:Middlewares/lvgl/src/core/lv_obj_style_gen.h **** static inline uint16_t lv_obj_get_style_layout(const struct _lv_obj_t * obj, uint32_t part)
 182:Middlewares/lvgl/src/core/lv_obj_style_gen.h **** {
 183:Middlewares/lvgl/src/core/lv_obj_style_gen.h ****     lv_style_value_t v = lv_obj_get_style_prop(obj, part, LV_STYLE_LAYOUT);
 184:Middlewares/lvgl/src/core/lv_obj_style_gen.h ****     return (uint16_t)v.num;
 185:Middlewares/lvgl/src/core/lv_obj_style_gen.h **** }
 186:Middlewares/lvgl/src/core/lv_obj_style_gen.h **** 
 187:Middlewares/lvgl/src/core/lv_obj_style_gen.h **** static inline lv_base_dir_t lv_obj_get_style_base_dir(const struct _lv_obj_t * obj, uint32_t part)
 188:Middlewares/lvgl/src/core/lv_obj_style_gen.h **** {
 189:Middlewares/lvgl/src/core/lv_obj_style_gen.h ****     lv_style_value_t v = lv_obj_get_style_prop(obj, part, LV_STYLE_BASE_DIR);
 190:Middlewares/lvgl/src/core/lv_obj_style_gen.h ****     return (lv_base_dir_t)v.num;
 191:Middlewares/lvgl/src/core/lv_obj_style_gen.h **** }
 192:Middlewares/lvgl/src/core/lv_obj_style_gen.h **** 
 193:Middlewares/lvgl/src/core/lv_obj_style_gen.h **** static inline lv_color_t lv_obj_get_style_bg_color(const struct _lv_obj_t * obj, uint32_t part)
 194:Middlewares/lvgl/src/core/lv_obj_style_gen.h **** {
 195:Middlewares/lvgl/src/core/lv_obj_style_gen.h ****     lv_style_value_t v = lv_obj_get_style_prop(obj, part, LV_STYLE_BG_COLOR);
 196:Middlewares/lvgl/src/core/lv_obj_style_gen.h ****     return v.color;
 197:Middlewares/lvgl/src/core/lv_obj_style_gen.h **** }
 198:Middlewares/lvgl/src/core/lv_obj_style_gen.h **** 
 199:Middlewares/lvgl/src/core/lv_obj_style_gen.h **** static inline lv_color_t lv_obj_get_style_bg_color_filtered(const struct _lv_obj_t * obj, uint32_t 
 200:Middlewares/lvgl/src/core/lv_obj_style_gen.h **** {
 201:Middlewares/lvgl/src/core/lv_obj_style_gen.h ****     lv_style_value_t v = lv_obj_get_style_prop(obj, part, LV_STYLE_BG_COLOR_FILTERED);
ARM GAS  /tmp/ccyhZZXZ.s 			page 22


 202:Middlewares/lvgl/src/core/lv_obj_style_gen.h ****     return v.color;
 203:Middlewares/lvgl/src/core/lv_obj_style_gen.h **** }
 204:Middlewares/lvgl/src/core/lv_obj_style_gen.h **** 
 205:Middlewares/lvgl/src/core/lv_obj_style_gen.h **** static inline lv_opa_t lv_obj_get_style_bg_opa(const struct _lv_obj_t * obj, uint32_t part)
 157              		.loc 2 205 24 view .LVU36
 158              	.LBB97:
 206:Middlewares/lvgl/src/core/lv_obj_style_gen.h **** {
 207:Middlewares/lvgl/src/core/lv_obj_style_gen.h ****     lv_style_value_t v = lv_obj_get_style_prop(obj, part, LV_STYLE_BG_OPA);
 159              		.loc 2 207 5 view .LVU37
 160              		.loc 2 207 26 is_stmt 0 view .LVU38
 161 000c 2122     		movs	r2, #33
 162 000e 4FF48031 		mov	r1, #65536
 163 0012 2846     		mov	r0, r5
 164 0014 FFF7FEFF 		bl	lv_obj_get_style_prop
 165              	.LVL13:
 208:Middlewares/lvgl/src/core/lv_obj_style_gen.h ****     return (lv_opa_t)v.num;
 166              		.loc 2 208 5 is_stmt 1 view .LVU39
 167              		.loc 2 208 12 is_stmt 0 view .LVU40
 168 0018 C0B2     		uxtb	r0, r0
 169              	.LVL14:
 170              		.loc 2 208 12 view .LVU41
 171              	.LBE97:
 172              	.LBE96:
 583:Middlewares/lvgl/src/core/lv_obj.c ****     if(dsc->bg_opa > LV_OPA_MIN) {
 173              		.loc 1 583 17 view .LVU42
 174 001a A072     		strb	r0, [r4, #10]
 584:Middlewares/lvgl/src/core/lv_obj.c ****         dsc->bg_color = lv_obj_get_style_bg_color(obj, LV_PART_SCROLLBAR);
 175              		.loc 1 584 5 is_stmt 1 view .LVU43
 584:Middlewares/lvgl/src/core/lv_obj.c ****         dsc->bg_color = lv_obj_get_style_bg_color(obj, LV_PART_SCROLLBAR);
 176              		.loc 1 584 7 is_stmt 0 view .LVU44
 177 001c 0228     		cmp	r0, #2
 178 001e 3BD8     		bhi	.L21
 179              	.L12:
 588:Middlewares/lvgl/src/core/lv_obj.c ****     if(dsc->border_opa > LV_OPA_MIN) {
 180              		.loc 1 588 5 is_stmt 1 view .LVU45
 181              	.LVL15:
 182              	.LBB98:
 183              	.LBI98:
 209:Middlewares/lvgl/src/core/lv_obj_style_gen.h **** }
 210:Middlewares/lvgl/src/core/lv_obj_style_gen.h **** 
 211:Middlewares/lvgl/src/core/lv_obj_style_gen.h **** static inline lv_color_t lv_obj_get_style_bg_grad_color(const struct _lv_obj_t * obj, uint32_t part
 212:Middlewares/lvgl/src/core/lv_obj_style_gen.h **** {
 213:Middlewares/lvgl/src/core/lv_obj_style_gen.h ****     lv_style_value_t v = lv_obj_get_style_prop(obj, part, LV_STYLE_BG_GRAD_COLOR);
 214:Middlewares/lvgl/src/core/lv_obj_style_gen.h ****     return v.color;
 215:Middlewares/lvgl/src/core/lv_obj_style_gen.h **** }
 216:Middlewares/lvgl/src/core/lv_obj_style_gen.h **** 
 217:Middlewares/lvgl/src/core/lv_obj_style_gen.h **** static inline lv_color_t lv_obj_get_style_bg_grad_color_filtered(const struct _lv_obj_t * obj, uint
 218:Middlewares/lvgl/src/core/lv_obj_style_gen.h **** {
 219:Middlewares/lvgl/src/core/lv_obj_style_gen.h ****     lv_style_value_t v = lv_obj_get_style_prop(obj, part, LV_STYLE_BG_GRAD_COLOR_FILTERED);
 220:Middlewares/lvgl/src/core/lv_obj_style_gen.h ****     return v.color;
 221:Middlewares/lvgl/src/core/lv_obj_style_gen.h **** }
 222:Middlewares/lvgl/src/core/lv_obj_style_gen.h **** 
 223:Middlewares/lvgl/src/core/lv_obj_style_gen.h **** static inline lv_grad_dir_t lv_obj_get_style_bg_grad_dir(const struct _lv_obj_t * obj, uint32_t par
 224:Middlewares/lvgl/src/core/lv_obj_style_gen.h **** {
 225:Middlewares/lvgl/src/core/lv_obj_style_gen.h ****     lv_style_value_t v = lv_obj_get_style_prop(obj, part, LV_STYLE_BG_GRAD_DIR);
 226:Middlewares/lvgl/src/core/lv_obj_style_gen.h ****     return (lv_grad_dir_t)v.num;
 227:Middlewares/lvgl/src/core/lv_obj_style_gen.h **** }
ARM GAS  /tmp/ccyhZZXZ.s 			page 23


 228:Middlewares/lvgl/src/core/lv_obj_style_gen.h **** 
 229:Middlewares/lvgl/src/core/lv_obj_style_gen.h **** static inline lv_coord_t lv_obj_get_style_bg_main_stop(const struct _lv_obj_t * obj, uint32_t part)
 230:Middlewares/lvgl/src/core/lv_obj_style_gen.h **** {
 231:Middlewares/lvgl/src/core/lv_obj_style_gen.h ****     lv_style_value_t v = lv_obj_get_style_prop(obj, part, LV_STYLE_BG_MAIN_STOP);
 232:Middlewares/lvgl/src/core/lv_obj_style_gen.h ****     return (lv_coord_t)v.num;
 233:Middlewares/lvgl/src/core/lv_obj_style_gen.h **** }
 234:Middlewares/lvgl/src/core/lv_obj_style_gen.h **** 
 235:Middlewares/lvgl/src/core/lv_obj_style_gen.h **** static inline lv_coord_t lv_obj_get_style_bg_grad_stop(const struct _lv_obj_t * obj, uint32_t part)
 236:Middlewares/lvgl/src/core/lv_obj_style_gen.h **** {
 237:Middlewares/lvgl/src/core/lv_obj_style_gen.h ****     lv_style_value_t v = lv_obj_get_style_prop(obj, part, LV_STYLE_BG_GRAD_STOP);
 238:Middlewares/lvgl/src/core/lv_obj_style_gen.h ****     return (lv_coord_t)v.num;
 239:Middlewares/lvgl/src/core/lv_obj_style_gen.h **** }
 240:Middlewares/lvgl/src/core/lv_obj_style_gen.h **** 
 241:Middlewares/lvgl/src/core/lv_obj_style_gen.h **** static inline const void * lv_obj_get_style_bg_img_src(const struct _lv_obj_t * obj, uint32_t part)
 242:Middlewares/lvgl/src/core/lv_obj_style_gen.h **** {
 243:Middlewares/lvgl/src/core/lv_obj_style_gen.h ****     lv_style_value_t v = lv_obj_get_style_prop(obj, part, LV_STYLE_BG_IMG_SRC);
 244:Middlewares/lvgl/src/core/lv_obj_style_gen.h ****     return (const void *)v.ptr;
 245:Middlewares/lvgl/src/core/lv_obj_style_gen.h **** }
 246:Middlewares/lvgl/src/core/lv_obj_style_gen.h **** 
 247:Middlewares/lvgl/src/core/lv_obj_style_gen.h **** static inline lv_opa_t lv_obj_get_style_bg_img_opa(const struct _lv_obj_t * obj, uint32_t part)
 248:Middlewares/lvgl/src/core/lv_obj_style_gen.h **** {
 249:Middlewares/lvgl/src/core/lv_obj_style_gen.h ****     lv_style_value_t v = lv_obj_get_style_prop(obj, part, LV_STYLE_BG_IMG_OPA);
 250:Middlewares/lvgl/src/core/lv_obj_style_gen.h ****     return (lv_opa_t)v.num;
 251:Middlewares/lvgl/src/core/lv_obj_style_gen.h **** }
 252:Middlewares/lvgl/src/core/lv_obj_style_gen.h **** 
 253:Middlewares/lvgl/src/core/lv_obj_style_gen.h **** static inline lv_color_t lv_obj_get_style_bg_img_recolor(const struct _lv_obj_t * obj, uint32_t par
 254:Middlewares/lvgl/src/core/lv_obj_style_gen.h **** {
 255:Middlewares/lvgl/src/core/lv_obj_style_gen.h ****     lv_style_value_t v = lv_obj_get_style_prop(obj, part, LV_STYLE_BG_IMG_RECOLOR);
 256:Middlewares/lvgl/src/core/lv_obj_style_gen.h ****     return v.color;
 257:Middlewares/lvgl/src/core/lv_obj_style_gen.h **** }
 258:Middlewares/lvgl/src/core/lv_obj_style_gen.h **** 
 259:Middlewares/lvgl/src/core/lv_obj_style_gen.h **** static inline lv_color_t lv_obj_get_style_bg_img_recolor_filtered(const struct _lv_obj_t * obj, uin
 260:Middlewares/lvgl/src/core/lv_obj_style_gen.h **** {
 261:Middlewares/lvgl/src/core/lv_obj_style_gen.h ****     lv_style_value_t v = lv_obj_get_style_prop(obj, part, LV_STYLE_BG_IMG_RECOLOR_FILTERED);
 262:Middlewares/lvgl/src/core/lv_obj_style_gen.h ****     return v.color;
 263:Middlewares/lvgl/src/core/lv_obj_style_gen.h **** }
 264:Middlewares/lvgl/src/core/lv_obj_style_gen.h **** 
 265:Middlewares/lvgl/src/core/lv_obj_style_gen.h **** static inline lv_opa_t lv_obj_get_style_bg_img_recolor_opa(const struct _lv_obj_t * obj, uint32_t p
 266:Middlewares/lvgl/src/core/lv_obj_style_gen.h **** {
 267:Middlewares/lvgl/src/core/lv_obj_style_gen.h ****     lv_style_value_t v = lv_obj_get_style_prop(obj, part, LV_STYLE_BG_IMG_RECOLOR_OPA);
 268:Middlewares/lvgl/src/core/lv_obj_style_gen.h ****     return (lv_opa_t)v.num;
 269:Middlewares/lvgl/src/core/lv_obj_style_gen.h **** }
 270:Middlewares/lvgl/src/core/lv_obj_style_gen.h **** 
 271:Middlewares/lvgl/src/core/lv_obj_style_gen.h **** static inline bool lv_obj_get_style_bg_img_tiled(const struct _lv_obj_t * obj, uint32_t part)
 272:Middlewares/lvgl/src/core/lv_obj_style_gen.h **** {
 273:Middlewares/lvgl/src/core/lv_obj_style_gen.h ****     lv_style_value_t v = lv_obj_get_style_prop(obj, part, LV_STYLE_BG_IMG_TILED);
 274:Middlewares/lvgl/src/core/lv_obj_style_gen.h ****     return (bool)v.num;
 275:Middlewares/lvgl/src/core/lv_obj_style_gen.h **** }
 276:Middlewares/lvgl/src/core/lv_obj_style_gen.h **** 
 277:Middlewares/lvgl/src/core/lv_obj_style_gen.h **** static inline lv_color_t lv_obj_get_style_border_color(const struct _lv_obj_t * obj, uint32_t part)
 278:Middlewares/lvgl/src/core/lv_obj_style_gen.h **** {
 279:Middlewares/lvgl/src/core/lv_obj_style_gen.h ****     lv_style_value_t v = lv_obj_get_style_prop(obj, part, LV_STYLE_BORDER_COLOR);
 280:Middlewares/lvgl/src/core/lv_obj_style_gen.h ****     return v.color;
 281:Middlewares/lvgl/src/core/lv_obj_style_gen.h **** }
 282:Middlewares/lvgl/src/core/lv_obj_style_gen.h **** 
 283:Middlewares/lvgl/src/core/lv_obj_style_gen.h **** static inline lv_color_t lv_obj_get_style_border_color_filtered(const struct _lv_obj_t * obj, uint3
 284:Middlewares/lvgl/src/core/lv_obj_style_gen.h **** {
ARM GAS  /tmp/ccyhZZXZ.s 			page 24


 285:Middlewares/lvgl/src/core/lv_obj_style_gen.h ****     lv_style_value_t v = lv_obj_get_style_prop(obj, part, LV_STYLE_BORDER_COLOR_FILTERED);
 286:Middlewares/lvgl/src/core/lv_obj_style_gen.h ****     return v.color;
 287:Middlewares/lvgl/src/core/lv_obj_style_gen.h **** }
 288:Middlewares/lvgl/src/core/lv_obj_style_gen.h **** 
 289:Middlewares/lvgl/src/core/lv_obj_style_gen.h **** static inline lv_opa_t lv_obj_get_style_border_opa(const struct _lv_obj_t * obj, uint32_t part)
 184              		.loc 2 289 24 view .LVU46
 185              	.LBB99:
 290:Middlewares/lvgl/src/core/lv_obj_style_gen.h **** {
 291:Middlewares/lvgl/src/core/lv_obj_style_gen.h ****     lv_style_value_t v = lv_obj_get_style_prop(obj, part, LV_STYLE_BORDER_OPA);
 186              		.loc 2 291 5 view .LVU47
 187              		.loc 2 291 26 is_stmt 0 view .LVU48
 188 0020 3122     		movs	r2, #49
 189 0022 4FF48031 		mov	r1, #65536
 190 0026 2846     		mov	r0, r5
 191 0028 FFF7FEFF 		bl	lv_obj_get_style_prop
 192              	.LVL16:
 292:Middlewares/lvgl/src/core/lv_obj_style_gen.h ****     return (lv_opa_t)v.num;
 193              		.loc 2 292 5 is_stmt 1 view .LVU49
 194              		.loc 2 292 12 is_stmt 0 view .LVU50
 195 002c C0B2     		uxtb	r0, r0
 196              	.LVL17:
 197              		.loc 2 292 12 view .LVU51
 198              	.LBE99:
 199              	.LBE98:
 588:Middlewares/lvgl/src/core/lv_obj.c ****     if(dsc->border_opa > LV_OPA_MIN) {
 200              		.loc 1 588 21 view .LVU52
 201 002e A077     		strb	r0, [r4, #30]
 589:Middlewares/lvgl/src/core/lv_obj.c ****         dsc->border_width = lv_obj_get_style_border_width(obj, LV_PART_SCROLLBAR);
 202              		.loc 1 589 5 is_stmt 1 view .LVU53
 589:Middlewares/lvgl/src/core/lv_obj.c ****         dsc->border_width = lv_obj_get_style_border_width(obj, LV_PART_SCROLLBAR);
 203              		.loc 1 589 7 is_stmt 0 view .LVU54
 204 0030 0228     		cmp	r0, #2
 205 0032 39D8     		bhi	.L22
 206              	.L13:
 599:Middlewares/lvgl/src/core/lv_obj.c ****     if(dsc->shadow_opa > LV_OPA_MIN) {
 207              		.loc 1 599 5 is_stmt 1 view .LVU55
 208              	.LVL18:
 209              	.LBB100:
 210              	.LBI100:
 293:Middlewares/lvgl/src/core/lv_obj_style_gen.h **** }
 294:Middlewares/lvgl/src/core/lv_obj_style_gen.h **** 
 295:Middlewares/lvgl/src/core/lv_obj_style_gen.h **** static inline lv_coord_t lv_obj_get_style_border_width(const struct _lv_obj_t * obj, uint32_t part)
 296:Middlewares/lvgl/src/core/lv_obj_style_gen.h **** {
 297:Middlewares/lvgl/src/core/lv_obj_style_gen.h ****     lv_style_value_t v = lv_obj_get_style_prop(obj, part, LV_STYLE_BORDER_WIDTH);
 298:Middlewares/lvgl/src/core/lv_obj_style_gen.h ****     return (lv_coord_t)v.num;
 299:Middlewares/lvgl/src/core/lv_obj_style_gen.h **** }
 300:Middlewares/lvgl/src/core/lv_obj_style_gen.h **** 
 301:Middlewares/lvgl/src/core/lv_obj_style_gen.h **** static inline lv_border_side_t lv_obj_get_style_border_side(const struct _lv_obj_t * obj, uint32_t 
 302:Middlewares/lvgl/src/core/lv_obj_style_gen.h **** {
 303:Middlewares/lvgl/src/core/lv_obj_style_gen.h ****     lv_style_value_t v = lv_obj_get_style_prop(obj, part, LV_STYLE_BORDER_SIDE);
 304:Middlewares/lvgl/src/core/lv_obj_style_gen.h ****     return (lv_border_side_t)v.num;
 305:Middlewares/lvgl/src/core/lv_obj_style_gen.h **** }
 306:Middlewares/lvgl/src/core/lv_obj_style_gen.h **** 
 307:Middlewares/lvgl/src/core/lv_obj_style_gen.h **** static inline bool lv_obj_get_style_border_post(const struct _lv_obj_t * obj, uint32_t part)
 308:Middlewares/lvgl/src/core/lv_obj_style_gen.h **** {
 309:Middlewares/lvgl/src/core/lv_obj_style_gen.h ****     lv_style_value_t v = lv_obj_get_style_prop(obj, part, LV_STYLE_BORDER_POST);
 310:Middlewares/lvgl/src/core/lv_obj_style_gen.h ****     return (bool)v.num;
ARM GAS  /tmp/ccyhZZXZ.s 			page 25


 311:Middlewares/lvgl/src/core/lv_obj_style_gen.h **** }
 312:Middlewares/lvgl/src/core/lv_obj_style_gen.h **** 
 313:Middlewares/lvgl/src/core/lv_obj_style_gen.h **** static inline lv_color_t lv_obj_get_style_text_color(const struct _lv_obj_t * obj, uint32_t part)
 314:Middlewares/lvgl/src/core/lv_obj_style_gen.h **** {
 315:Middlewares/lvgl/src/core/lv_obj_style_gen.h ****     lv_style_value_t v = lv_obj_get_style_prop(obj, part, LV_STYLE_TEXT_COLOR);
 316:Middlewares/lvgl/src/core/lv_obj_style_gen.h ****     return v.color;
 317:Middlewares/lvgl/src/core/lv_obj_style_gen.h **** }
 318:Middlewares/lvgl/src/core/lv_obj_style_gen.h **** 
 319:Middlewares/lvgl/src/core/lv_obj_style_gen.h **** static inline lv_color_t lv_obj_get_style_text_color_filtered(const struct _lv_obj_t * obj, uint32_
 320:Middlewares/lvgl/src/core/lv_obj_style_gen.h **** {
 321:Middlewares/lvgl/src/core/lv_obj_style_gen.h ****     lv_style_value_t v = lv_obj_get_style_prop(obj, part, LV_STYLE_TEXT_COLOR_FILTERED);
 322:Middlewares/lvgl/src/core/lv_obj_style_gen.h ****     return v.color;
 323:Middlewares/lvgl/src/core/lv_obj_style_gen.h **** }
 324:Middlewares/lvgl/src/core/lv_obj_style_gen.h **** 
 325:Middlewares/lvgl/src/core/lv_obj_style_gen.h **** static inline lv_opa_t lv_obj_get_style_text_opa(const struct _lv_obj_t * obj, uint32_t part)
 326:Middlewares/lvgl/src/core/lv_obj_style_gen.h **** {
 327:Middlewares/lvgl/src/core/lv_obj_style_gen.h ****     lv_style_value_t v = lv_obj_get_style_prop(obj, part, LV_STYLE_TEXT_OPA);
 328:Middlewares/lvgl/src/core/lv_obj_style_gen.h ****     return (lv_opa_t)v.num;
 329:Middlewares/lvgl/src/core/lv_obj_style_gen.h **** }
 330:Middlewares/lvgl/src/core/lv_obj_style_gen.h **** 
 331:Middlewares/lvgl/src/core/lv_obj_style_gen.h **** static inline const lv_font_t * lv_obj_get_style_text_font(const struct _lv_obj_t * obj, uint32_t p
 332:Middlewares/lvgl/src/core/lv_obj_style_gen.h **** {
 333:Middlewares/lvgl/src/core/lv_obj_style_gen.h ****     lv_style_value_t v = lv_obj_get_style_prop(obj, part, LV_STYLE_TEXT_FONT);
 334:Middlewares/lvgl/src/core/lv_obj_style_gen.h ****     return (const lv_font_t *)v.ptr;
 335:Middlewares/lvgl/src/core/lv_obj_style_gen.h **** }
 336:Middlewares/lvgl/src/core/lv_obj_style_gen.h **** 
 337:Middlewares/lvgl/src/core/lv_obj_style_gen.h **** static inline lv_coord_t lv_obj_get_style_text_letter_space(const struct _lv_obj_t * obj, uint32_t 
 338:Middlewares/lvgl/src/core/lv_obj_style_gen.h **** {
 339:Middlewares/lvgl/src/core/lv_obj_style_gen.h ****     lv_style_value_t v = lv_obj_get_style_prop(obj, part, LV_STYLE_TEXT_LETTER_SPACE);
 340:Middlewares/lvgl/src/core/lv_obj_style_gen.h ****     return (lv_coord_t)v.num;
 341:Middlewares/lvgl/src/core/lv_obj_style_gen.h **** }
 342:Middlewares/lvgl/src/core/lv_obj_style_gen.h **** 
 343:Middlewares/lvgl/src/core/lv_obj_style_gen.h **** static inline lv_coord_t lv_obj_get_style_text_line_space(const struct _lv_obj_t * obj, uint32_t pa
 344:Middlewares/lvgl/src/core/lv_obj_style_gen.h **** {
 345:Middlewares/lvgl/src/core/lv_obj_style_gen.h ****     lv_style_value_t v = lv_obj_get_style_prop(obj, part, LV_STYLE_TEXT_LINE_SPACE);
 346:Middlewares/lvgl/src/core/lv_obj_style_gen.h ****     return (lv_coord_t)v.num;
 347:Middlewares/lvgl/src/core/lv_obj_style_gen.h **** }
 348:Middlewares/lvgl/src/core/lv_obj_style_gen.h **** 
 349:Middlewares/lvgl/src/core/lv_obj_style_gen.h **** static inline lv_text_decor_t lv_obj_get_style_text_decor(const struct _lv_obj_t * obj, uint32_t pa
 350:Middlewares/lvgl/src/core/lv_obj_style_gen.h **** {
 351:Middlewares/lvgl/src/core/lv_obj_style_gen.h ****     lv_style_value_t v = lv_obj_get_style_prop(obj, part, LV_STYLE_TEXT_DECOR);
 352:Middlewares/lvgl/src/core/lv_obj_style_gen.h ****     return (lv_text_decor_t)v.num;
 353:Middlewares/lvgl/src/core/lv_obj_style_gen.h **** }
 354:Middlewares/lvgl/src/core/lv_obj_style_gen.h **** 
 355:Middlewares/lvgl/src/core/lv_obj_style_gen.h **** static inline lv_text_align_t lv_obj_get_style_text_align(const struct _lv_obj_t * obj, uint32_t pa
 356:Middlewares/lvgl/src/core/lv_obj_style_gen.h **** {
 357:Middlewares/lvgl/src/core/lv_obj_style_gen.h ****     lv_style_value_t v = lv_obj_get_style_prop(obj, part, LV_STYLE_TEXT_ALIGN);
 358:Middlewares/lvgl/src/core/lv_obj_style_gen.h ****     return (lv_text_align_t)v.num;
 359:Middlewares/lvgl/src/core/lv_obj_style_gen.h **** }
 360:Middlewares/lvgl/src/core/lv_obj_style_gen.h **** 
 361:Middlewares/lvgl/src/core/lv_obj_style_gen.h **** static inline lv_opa_t lv_obj_get_style_img_opa(const struct _lv_obj_t * obj, uint32_t part)
 362:Middlewares/lvgl/src/core/lv_obj_style_gen.h **** {
 363:Middlewares/lvgl/src/core/lv_obj_style_gen.h ****     lv_style_value_t v = lv_obj_get_style_prop(obj, part, LV_STYLE_IMG_OPA);
 364:Middlewares/lvgl/src/core/lv_obj_style_gen.h ****     return (lv_opa_t)v.num;
 365:Middlewares/lvgl/src/core/lv_obj_style_gen.h **** }
 366:Middlewares/lvgl/src/core/lv_obj_style_gen.h **** 
 367:Middlewares/lvgl/src/core/lv_obj_style_gen.h **** static inline lv_color_t lv_obj_get_style_img_recolor(const struct _lv_obj_t * obj, uint32_t part)
ARM GAS  /tmp/ccyhZZXZ.s 			page 26


 368:Middlewares/lvgl/src/core/lv_obj_style_gen.h **** {
 369:Middlewares/lvgl/src/core/lv_obj_style_gen.h ****     lv_style_value_t v = lv_obj_get_style_prop(obj, part, LV_STYLE_IMG_RECOLOR);
 370:Middlewares/lvgl/src/core/lv_obj_style_gen.h ****     return v.color;
 371:Middlewares/lvgl/src/core/lv_obj_style_gen.h **** }
 372:Middlewares/lvgl/src/core/lv_obj_style_gen.h **** 
 373:Middlewares/lvgl/src/core/lv_obj_style_gen.h **** static inline lv_color_t lv_obj_get_style_img_recolor_filtered(const struct _lv_obj_t * obj, uint32
 374:Middlewares/lvgl/src/core/lv_obj_style_gen.h **** {
 375:Middlewares/lvgl/src/core/lv_obj_style_gen.h ****     lv_style_value_t v = lv_obj_get_style_prop(obj, part, LV_STYLE_IMG_RECOLOR_FILTERED);
 376:Middlewares/lvgl/src/core/lv_obj_style_gen.h ****     return v.color;
 377:Middlewares/lvgl/src/core/lv_obj_style_gen.h **** }
 378:Middlewares/lvgl/src/core/lv_obj_style_gen.h **** 
 379:Middlewares/lvgl/src/core/lv_obj_style_gen.h **** static inline lv_opa_t lv_obj_get_style_img_recolor_opa(const struct _lv_obj_t * obj, uint32_t part
 380:Middlewares/lvgl/src/core/lv_obj_style_gen.h **** {
 381:Middlewares/lvgl/src/core/lv_obj_style_gen.h ****     lv_style_value_t v = lv_obj_get_style_prop(obj, part, LV_STYLE_IMG_RECOLOR_OPA);
 382:Middlewares/lvgl/src/core/lv_obj_style_gen.h ****     return (lv_opa_t)v.num;
 383:Middlewares/lvgl/src/core/lv_obj_style_gen.h **** }
 384:Middlewares/lvgl/src/core/lv_obj_style_gen.h **** 
 385:Middlewares/lvgl/src/core/lv_obj_style_gen.h **** static inline lv_coord_t lv_obj_get_style_outline_width(const struct _lv_obj_t * obj, uint32_t part
 386:Middlewares/lvgl/src/core/lv_obj_style_gen.h **** {
 387:Middlewares/lvgl/src/core/lv_obj_style_gen.h ****     lv_style_value_t v = lv_obj_get_style_prop(obj, part, LV_STYLE_OUTLINE_WIDTH);
 388:Middlewares/lvgl/src/core/lv_obj_style_gen.h ****     return (lv_coord_t)v.num;
 389:Middlewares/lvgl/src/core/lv_obj_style_gen.h **** }
 390:Middlewares/lvgl/src/core/lv_obj_style_gen.h **** 
 391:Middlewares/lvgl/src/core/lv_obj_style_gen.h **** static inline lv_color_t lv_obj_get_style_outline_color(const struct _lv_obj_t * obj, uint32_t part
 392:Middlewares/lvgl/src/core/lv_obj_style_gen.h **** {
 393:Middlewares/lvgl/src/core/lv_obj_style_gen.h ****     lv_style_value_t v = lv_obj_get_style_prop(obj, part, LV_STYLE_OUTLINE_COLOR);
 394:Middlewares/lvgl/src/core/lv_obj_style_gen.h ****     return v.color;
 395:Middlewares/lvgl/src/core/lv_obj_style_gen.h **** }
 396:Middlewares/lvgl/src/core/lv_obj_style_gen.h **** 
 397:Middlewares/lvgl/src/core/lv_obj_style_gen.h **** static inline lv_color_t lv_obj_get_style_outline_color_filtered(const struct _lv_obj_t * obj, uint
 398:Middlewares/lvgl/src/core/lv_obj_style_gen.h **** {
 399:Middlewares/lvgl/src/core/lv_obj_style_gen.h ****     lv_style_value_t v = lv_obj_get_style_prop(obj, part, LV_STYLE_OUTLINE_COLOR_FILTERED);
 400:Middlewares/lvgl/src/core/lv_obj_style_gen.h ****     return v.color;
 401:Middlewares/lvgl/src/core/lv_obj_style_gen.h **** }
 402:Middlewares/lvgl/src/core/lv_obj_style_gen.h **** 
 403:Middlewares/lvgl/src/core/lv_obj_style_gen.h **** static inline lv_opa_t lv_obj_get_style_outline_opa(const struct _lv_obj_t * obj, uint32_t part)
 404:Middlewares/lvgl/src/core/lv_obj_style_gen.h **** {
 405:Middlewares/lvgl/src/core/lv_obj_style_gen.h ****     lv_style_value_t v = lv_obj_get_style_prop(obj, part, LV_STYLE_OUTLINE_OPA);
 406:Middlewares/lvgl/src/core/lv_obj_style_gen.h ****     return (lv_opa_t)v.num;
 407:Middlewares/lvgl/src/core/lv_obj_style_gen.h **** }
 408:Middlewares/lvgl/src/core/lv_obj_style_gen.h **** 
 409:Middlewares/lvgl/src/core/lv_obj_style_gen.h **** static inline lv_coord_t lv_obj_get_style_outline_pad(const struct _lv_obj_t * obj, uint32_t part)
 410:Middlewares/lvgl/src/core/lv_obj_style_gen.h **** {
 411:Middlewares/lvgl/src/core/lv_obj_style_gen.h ****     lv_style_value_t v = lv_obj_get_style_prop(obj, part, LV_STYLE_OUTLINE_PAD);
 412:Middlewares/lvgl/src/core/lv_obj_style_gen.h ****     return (lv_coord_t)v.num;
 413:Middlewares/lvgl/src/core/lv_obj_style_gen.h **** }
 414:Middlewares/lvgl/src/core/lv_obj_style_gen.h **** 
 415:Middlewares/lvgl/src/core/lv_obj_style_gen.h **** static inline lv_coord_t lv_obj_get_style_shadow_width(const struct _lv_obj_t * obj, uint32_t part)
 416:Middlewares/lvgl/src/core/lv_obj_style_gen.h **** {
 417:Middlewares/lvgl/src/core/lv_obj_style_gen.h ****     lv_style_value_t v = lv_obj_get_style_prop(obj, part, LV_STYLE_SHADOW_WIDTH);
 418:Middlewares/lvgl/src/core/lv_obj_style_gen.h ****     return (lv_coord_t)v.num;
 419:Middlewares/lvgl/src/core/lv_obj_style_gen.h **** }
 420:Middlewares/lvgl/src/core/lv_obj_style_gen.h **** 
 421:Middlewares/lvgl/src/core/lv_obj_style_gen.h **** static inline lv_coord_t lv_obj_get_style_shadow_ofs_x(const struct _lv_obj_t * obj, uint32_t part)
 422:Middlewares/lvgl/src/core/lv_obj_style_gen.h **** {
 423:Middlewares/lvgl/src/core/lv_obj_style_gen.h ****     lv_style_value_t v = lv_obj_get_style_prop(obj, part, LV_STYLE_SHADOW_OFS_X);
 424:Middlewares/lvgl/src/core/lv_obj_style_gen.h ****     return (lv_coord_t)v.num;
ARM GAS  /tmp/ccyhZZXZ.s 			page 27


 425:Middlewares/lvgl/src/core/lv_obj_style_gen.h **** }
 426:Middlewares/lvgl/src/core/lv_obj_style_gen.h **** 
 427:Middlewares/lvgl/src/core/lv_obj_style_gen.h **** static inline lv_coord_t lv_obj_get_style_shadow_ofs_y(const struct _lv_obj_t * obj, uint32_t part)
 428:Middlewares/lvgl/src/core/lv_obj_style_gen.h **** {
 429:Middlewares/lvgl/src/core/lv_obj_style_gen.h ****     lv_style_value_t v = lv_obj_get_style_prop(obj, part, LV_STYLE_SHADOW_OFS_Y);
 430:Middlewares/lvgl/src/core/lv_obj_style_gen.h ****     return (lv_coord_t)v.num;
 431:Middlewares/lvgl/src/core/lv_obj_style_gen.h **** }
 432:Middlewares/lvgl/src/core/lv_obj_style_gen.h **** 
 433:Middlewares/lvgl/src/core/lv_obj_style_gen.h **** static inline lv_coord_t lv_obj_get_style_shadow_spread(const struct _lv_obj_t * obj, uint32_t part
 434:Middlewares/lvgl/src/core/lv_obj_style_gen.h **** {
 435:Middlewares/lvgl/src/core/lv_obj_style_gen.h ****     lv_style_value_t v = lv_obj_get_style_prop(obj, part, LV_STYLE_SHADOW_SPREAD);
 436:Middlewares/lvgl/src/core/lv_obj_style_gen.h ****     return (lv_coord_t)v.num;
 437:Middlewares/lvgl/src/core/lv_obj_style_gen.h **** }
 438:Middlewares/lvgl/src/core/lv_obj_style_gen.h **** 
 439:Middlewares/lvgl/src/core/lv_obj_style_gen.h **** static inline lv_color_t lv_obj_get_style_shadow_color(const struct _lv_obj_t * obj, uint32_t part)
 440:Middlewares/lvgl/src/core/lv_obj_style_gen.h **** {
 441:Middlewares/lvgl/src/core/lv_obj_style_gen.h ****     lv_style_value_t v = lv_obj_get_style_prop(obj, part, LV_STYLE_SHADOW_COLOR);
 442:Middlewares/lvgl/src/core/lv_obj_style_gen.h ****     return v.color;
 443:Middlewares/lvgl/src/core/lv_obj_style_gen.h **** }
 444:Middlewares/lvgl/src/core/lv_obj_style_gen.h **** 
 445:Middlewares/lvgl/src/core/lv_obj_style_gen.h **** static inline lv_color_t lv_obj_get_style_shadow_color_filtered(const struct _lv_obj_t * obj, uint3
 446:Middlewares/lvgl/src/core/lv_obj_style_gen.h **** {
 447:Middlewares/lvgl/src/core/lv_obj_style_gen.h ****     lv_style_value_t v = lv_obj_get_style_prop(obj, part, LV_STYLE_SHADOW_COLOR_FILTERED);
 448:Middlewares/lvgl/src/core/lv_obj_style_gen.h ****     return v.color;
 449:Middlewares/lvgl/src/core/lv_obj_style_gen.h **** }
 450:Middlewares/lvgl/src/core/lv_obj_style_gen.h **** 
 451:Middlewares/lvgl/src/core/lv_obj_style_gen.h **** static inline lv_opa_t lv_obj_get_style_shadow_opa(const struct _lv_obj_t * obj, uint32_t part)
 211              		.loc 2 451 24 view .LVU56
 212              	.LBB101:
 452:Middlewares/lvgl/src/core/lv_obj_style_gen.h **** {
 453:Middlewares/lvgl/src/core/lv_obj_style_gen.h ****     lv_style_value_t v = lv_obj_get_style_prop(obj, part, LV_STYLE_SHADOW_OPA);
 213              		.loc 2 453 5 view .LVU57
 214              		.loc 2 453 26 is_stmt 0 view .LVU58
 215 0034 40F64502 		movw	r2, #2117
 216 0038 4FF48031 		mov	r1, #65536
 217 003c 2846     		mov	r0, r5
 218 003e FFF7FEFF 		bl	lv_obj_get_style_prop
 219              	.LVL19:
 454:Middlewares/lvgl/src/core/lv_obj_style_gen.h ****     return (lv_opa_t)v.num;
 220              		.loc 2 454 5 is_stmt 1 view .LVU59
 221              		.loc 2 454 12 is_stmt 0 view .LVU60
 222 0042 C0B2     		uxtb	r0, r0
 223              	.LVL20:
 224              		.loc 2 454 12 view .LVU61
 225              	.LBE101:
 226              	.LBE100:
 599:Middlewares/lvgl/src/core/lv_obj.c ****     if(dsc->shadow_opa > LV_OPA_MIN) {
 227              		.loc 1 599 21 view .LVU62
 228 0044 84F83200 		strb	r0, [r4, #50]
 600:Middlewares/lvgl/src/core/lv_obj.c ****         dsc->shadow_width = lv_obj_get_style_shadow_width(obj, LV_PART_SCROLLBAR);
 229              		.loc 1 600 5 is_stmt 1 view .LVU63
 600:Middlewares/lvgl/src/core/lv_obj.c ****         dsc->shadow_width = lv_obj_get_style_shadow_width(obj, LV_PART_SCROLLBAR);
 230              		.loc 1 600 7 is_stmt 0 view .LVU64
 231 0048 0228     		cmp	r0, #2
 232 004a 43D8     		bhi	.L23
 233              	.L15:
 610:Middlewares/lvgl/src/core/lv_obj.c ****     if(opa < LV_OPA_MAX) {
ARM GAS  /tmp/ccyhZZXZ.s 			page 28


 234              		.loc 1 610 5 is_stmt 1 view .LVU65
 235              	.LVL21:
 236              	.LBB102:
 237              	.LBI102:
 139:Middlewares/lvgl/src/core/lv_obj_style_gen.h **** {
 238              		.loc 2 139 24 view .LVU66
 239              	.LBB103:
 141:Middlewares/lvgl/src/core/lv_obj_style_gen.h ****     return (lv_opa_t)v.num;
 240              		.loc 2 141 5 view .LVU67
 141:Middlewares/lvgl/src/core/lv_obj_style_gen.h ****     return (lv_opa_t)v.num;
 241              		.loc 2 141 26 is_stmt 0 view .LVU68
 242 004c 40F26242 		movw	r2, #1122
 243 0050 4FF48031 		mov	r1, #65536
 244 0054 2846     		mov	r0, r5
 245 0056 FFF7FEFF 		bl	lv_obj_get_style_prop
 246              	.LVL22:
 142:Middlewares/lvgl/src/core/lv_obj_style_gen.h **** }
 247              		.loc 2 142 5 is_stmt 1 view .LVU69
 142:Middlewares/lvgl/src/core/lv_obj_style_gen.h **** }
 248              		.loc 2 142 12 is_stmt 0 view .LVU70
 249 005a C3B2     		uxtb	r3, r0
 250              	.LVL23:
 142:Middlewares/lvgl/src/core/lv_obj_style_gen.h **** }
 251              		.loc 2 142 12 view .LVU71
 252              	.LBE103:
 253              	.LBE102:
 611:Middlewares/lvgl/src/core/lv_obj.c ****         dsc->bg_opa = (dsc->bg_opa * opa) >> 8;
 254              		.loc 1 611 5 is_stmt 1 view .LVU72
 611:Middlewares/lvgl/src/core/lv_obj.c ****         dsc->bg_opa = (dsc->bg_opa * opa) >> 8;
 255              		.loc 1 611 7 is_stmt 0 view .LVU73
 256 005c FC2B     		cmp	r3, #252
 257 005e 0BD8     		bhi	.L17
 612:Middlewares/lvgl/src/core/lv_obj.c ****         dsc->border_opa = (dsc->bg_opa * opa) >> 8;
 258              		.loc 1 612 9 is_stmt 1 view .LVU74
 612:Middlewares/lvgl/src/core/lv_obj.c ****         dsc->border_opa = (dsc->bg_opa * opa) >> 8;
 259              		.loc 1 612 27 is_stmt 0 view .LVU75
 260 0060 A37A     		ldrb	r3, [r4, #10]	@ zero_extendqisi2
 261              	.LVL24:
 612:Middlewares/lvgl/src/core/lv_obj.c ****         dsc->border_opa = (dsc->bg_opa * opa) >> 8;
 262              		.loc 1 612 27 view .LVU76
 263 0062 C0B2     		uxtb	r0, r0
 612:Middlewares/lvgl/src/core/lv_obj.c ****         dsc->border_opa = (dsc->bg_opa * opa) >> 8;
 264              		.loc 1 612 36 view .LVU77
 265 0064 00FB03F3 		mul	r3, r0, r3
 612:Middlewares/lvgl/src/core/lv_obj.c ****         dsc->border_opa = (dsc->bg_opa * opa) >> 8;
 266              		.loc 1 612 21 view .LVU78
 267 0068 1B0A     		lsrs	r3, r3, #8
 268 006a A372     		strb	r3, [r4, #10]
 613:Middlewares/lvgl/src/core/lv_obj.c ****         dsc->shadow_opa = (dsc->bg_opa * opa) >> 8;
 269              		.loc 1 613 9 is_stmt 1 view .LVU79
 613:Middlewares/lvgl/src/core/lv_obj.c ****         dsc->shadow_opa = (dsc->bg_opa * opa) >> 8;
 270              		.loc 1 613 40 is_stmt 0 view .LVU80
 271 006c 00FB03F3 		mul	r3, r0, r3
 613:Middlewares/lvgl/src/core/lv_obj.c ****         dsc->shadow_opa = (dsc->bg_opa * opa) >> 8;
 272              		.loc 1 613 25 view .LVU81
 273 0070 1B0A     		lsrs	r3, r3, #8
 274 0072 A377     		strb	r3, [r4, #30]
ARM GAS  /tmp/ccyhZZXZ.s 			page 29


 614:Middlewares/lvgl/src/core/lv_obj.c ****     }
 275              		.loc 1 614 9 is_stmt 1 view .LVU82
 614:Middlewares/lvgl/src/core/lv_obj.c ****     }
 276              		.loc 1 614 25 is_stmt 0 view .LVU83
 277 0074 84F83230 		strb	r3, [r4, #50]
 278              	.LVL25:
 279              	.L17:
 617:Middlewares/lvgl/src/core/lv_obj.c ****         dsc->radius = lv_obj_get_style_radius(obj, LV_PART_SCROLLBAR);
 280              		.loc 1 617 5 is_stmt 1 view .LVU84
 617:Middlewares/lvgl/src/core/lv_obj.c ****         dsc->radius = lv_obj_get_style_radius(obj, LV_PART_SCROLLBAR);
 281              		.loc 1 617 11 is_stmt 0 view .LVU85
 282 0078 A37A     		ldrb	r3, [r4, #10]	@ zero_extendqisi2
 617:Middlewares/lvgl/src/core/lv_obj.c ****         dsc->radius = lv_obj_get_style_radius(obj, LV_PART_SCROLLBAR);
 283              		.loc 1 617 7 view .LVU86
 284 007a 23B9     		cbnz	r3, .L18
 617:Middlewares/lvgl/src/core/lv_obj.c ****         dsc->radius = lv_obj_get_style_radius(obj, LV_PART_SCROLLBAR);
 285              		.loc 1 617 43 discriminator 1 view .LVU87
 286 007c A37F     		ldrb	r3, [r4, #30]	@ zero_extendqisi2
 617:Middlewares/lvgl/src/core/lv_obj.c ****         dsc->radius = lv_obj_get_style_radius(obj, LV_PART_SCROLLBAR);
 287              		.loc 1 617 37 discriminator 1 view .LVU88
 288 007e 13B9     		cbnz	r3, .L18
 617:Middlewares/lvgl/src/core/lv_obj.c ****         dsc->radius = lv_obj_get_style_radius(obj, LV_PART_SCROLLBAR);
 289              		.loc 1 617 79 discriminator 2 view .LVU89
 290 0080 94F83200 		ldrb	r0, [r4, #50]	@ zero_extendqisi2
 617:Middlewares/lvgl/src/core/lv_obj.c ****         dsc->radius = lv_obj_get_style_radius(obj, LV_PART_SCROLLBAR);
 291              		.loc 1 617 73 discriminator 2 view .LVU90
 292 0084 38B1     		cbz	r0, .L19
 293              	.L18:
 618:Middlewares/lvgl/src/core/lv_obj.c ****         return LV_RES_OK;
 294              		.loc 1 618 9 is_stmt 1 view .LVU91
 295              	.LVL26:
 296              	.LBB104:
 297              	.LBI104:
 127:Middlewares/lvgl/src/core/lv_obj_style_gen.h **** {
 298              		.loc 2 127 26 view .LVU92
 299              	.LBB105:
 129:Middlewares/lvgl/src/core/lv_obj_style_gen.h ****     return (lv_coord_t)v.num;
 300              		.loc 2 129 5 view .LVU93
 129:Middlewares/lvgl/src/core/lv_obj_style_gen.h ****     return (lv_coord_t)v.num;
 301              		.loc 2 129 26 is_stmt 0 view .LVU94
 302 0086 6022     		movs	r2, #96
 303 0088 4FF48031 		mov	r1, #65536
 304 008c 2846     		mov	r0, r5
 305 008e FFF7FEFF 		bl	lv_obj_get_style_prop
 306              	.LVL27:
 130:Middlewares/lvgl/src/core/lv_obj_style_gen.h **** }
 307              		.loc 2 130 5 is_stmt 1 view .LVU95
 130:Middlewares/lvgl/src/core/lv_obj_style_gen.h **** }
 308              		.loc 2 130 5 is_stmt 0 view .LVU96
 309              	.LBE105:
 310              	.LBE104:
 618:Middlewares/lvgl/src/core/lv_obj.c ****         return LV_RES_OK;
 311              		.loc 1 618 21 view .LVU97
 312 0092 2080     		strh	r0, [r4]	@ movhi
 619:Middlewares/lvgl/src/core/lv_obj.c ****     } else {
 313              		.loc 1 619 9 is_stmt 1 view .LVU98
 619:Middlewares/lvgl/src/core/lv_obj.c ****     } else {
ARM GAS  /tmp/ccyhZZXZ.s 			page 30


 314              		.loc 1 619 16 is_stmt 0 view .LVU99
 315 0094 0120     		movs	r0, #1
 316              	.L19:
 627:Middlewares/lvgl/src/core/lv_obj.c **** 
 317              		.loc 1 627 1 view .LVU100
 318 0096 38BD     		pop	{r3, r4, r5, pc}
 319              	.LVL28:
 320              	.L21:
 585:Middlewares/lvgl/src/core/lv_obj.c ****     }
 321              		.loc 1 585 9 is_stmt 1 view .LVU101
 322              	.LBB106:
 323              	.LBI106:
 193:Middlewares/lvgl/src/core/lv_obj_style_gen.h **** {
 324              		.loc 2 193 26 view .LVU102
 325              	.LBB107:
 195:Middlewares/lvgl/src/core/lv_obj_style_gen.h ****     return v.color;
 326              		.loc 2 195 5 view .LVU103
 195:Middlewares/lvgl/src/core/lv_obj_style_gen.h ****     return v.color;
 327              		.loc 2 195 26 is_stmt 0 view .LVU104
 328 0098 2022     		movs	r2, #32
 329 009a 4FF48031 		mov	r1, #65536
 330 009e 2846     		mov	r0, r5
 331 00a0 FFF7FEFF 		bl	lv_obj_get_style_prop
 332              	.LVL29:
 196:Middlewares/lvgl/src/core/lv_obj_style_gen.h **** }
 333              		.loc 2 196 5 is_stmt 1 view .LVU105
 196:Middlewares/lvgl/src/core/lv_obj_style_gen.h **** }
 334              		.loc 2 196 5 is_stmt 0 view .LVU106
 335              	.LBE107:
 336              	.LBE106:
 585:Middlewares/lvgl/src/core/lv_obj.c ****     }
 337              		.loc 1 585 25 view .LVU107
 338 00a4 A080     		strh	r0, [r4, #4]	@ movhi
 339 00a6 BBE7     		b	.L12
 340              	.L22:
 590:Middlewares/lvgl/src/core/lv_obj.c ****         if(dsc->border_width > 0) {
 341              		.loc 1 590 9 is_stmt 1 view .LVU108
 342              	.LVL30:
 343              	.LBB108:
 344              	.LBI108:
 295:Middlewares/lvgl/src/core/lv_obj_style_gen.h **** {
 345              		.loc 2 295 26 view .LVU109
 346              	.LBB109:
 297:Middlewares/lvgl/src/core/lv_obj_style_gen.h ****     return (lv_coord_t)v.num;
 347              		.loc 2 297 5 view .LVU110
 297:Middlewares/lvgl/src/core/lv_obj_style_gen.h ****     return (lv_coord_t)v.num;
 348              		.loc 2 297 26 is_stmt 0 view .LVU111
 349 00a8 41F23202 		movw	r2, #4146
 350 00ac 4FF48031 		mov	r1, #65536
 351 00b0 2846     		mov	r0, r5
 352 00b2 FFF7FEFF 		bl	lv_obj_get_style_prop
 353              	.LVL31:
 298:Middlewares/lvgl/src/core/lv_obj_style_gen.h **** }
 354              		.loc 2 298 5 is_stmt 1 view .LVU112
 298:Middlewares/lvgl/src/core/lv_obj_style_gen.h **** }
 355              		.loc 2 298 12 is_stmt 0 view .LVU113
 356 00b6 00B2     		sxth	r0, r0
ARM GAS  /tmp/ccyhZZXZ.s 			page 31


 357              	.LVL32:
 298:Middlewares/lvgl/src/core/lv_obj_style_gen.h **** }
 358              		.loc 2 298 12 view .LVU114
 359              	.LBE109:
 360              	.LBE108:
 590:Middlewares/lvgl/src/core/lv_obj.c ****         if(dsc->border_width > 0) {
 361              		.loc 1 590 27 view .LVU115
 362 00b8 A083     		strh	r0, [r4, #28]	@ movhi
 591:Middlewares/lvgl/src/core/lv_obj.c ****             dsc->border_color = lv_obj_get_style_border_color(obj, LV_PART_SCROLLBAR);
 363              		.loc 1 591 9 is_stmt 1 view .LVU116
 591:Middlewares/lvgl/src/core/lv_obj.c ****             dsc->border_color = lv_obj_get_style_border_color(obj, LV_PART_SCROLLBAR);
 364              		.loc 1 591 11 is_stmt 0 view .LVU117
 365 00ba 0028     		cmp	r0, #0
 366 00bc 02DC     		bgt	.L24
 594:Middlewares/lvgl/src/core/lv_obj.c ****         }
 367              		.loc 1 594 13 is_stmt 1 view .LVU118
 594:Middlewares/lvgl/src/core/lv_obj.c ****         }
 368              		.loc 1 594 29 is_stmt 0 view .LVU119
 369 00be 0023     		movs	r3, #0
 370 00c0 A377     		strb	r3, [r4, #30]
 371 00c2 B7E7     		b	.L13
 372              	.L24:
 592:Middlewares/lvgl/src/core/lv_obj.c ****         } else {
 373              		.loc 1 592 13 is_stmt 1 view .LVU120
 374              	.LVL33:
 375              	.LBB110:
 376              	.LBI110:
 277:Middlewares/lvgl/src/core/lv_obj_style_gen.h **** {
 377              		.loc 2 277 26 view .LVU121
 378              	.LBB111:
 279:Middlewares/lvgl/src/core/lv_obj_style_gen.h ****     return v.color;
 379              		.loc 2 279 5 view .LVU122
 279:Middlewares/lvgl/src/core/lv_obj_style_gen.h ****     return v.color;
 380              		.loc 2 279 26 is_stmt 0 view .LVU123
 381 00c4 3022     		movs	r2, #48
 382 00c6 4FF48031 		mov	r1, #65536
 383 00ca 2846     		mov	r0, r5
 384 00cc FFF7FEFF 		bl	lv_obj_get_style_prop
 385              	.LVL34:
 280:Middlewares/lvgl/src/core/lv_obj_style_gen.h **** }
 386              		.loc 2 280 5 is_stmt 1 view .LVU124
 280:Middlewares/lvgl/src/core/lv_obj_style_gen.h **** }
 387              		.loc 2 280 5 is_stmt 0 view .LVU125
 388              	.LBE111:
 389              	.LBE110:
 592:Middlewares/lvgl/src/core/lv_obj.c ****         } else {
 390              		.loc 1 592 33 view .LVU126
 391 00d0 6083     		strh	r0, [r4, #26]	@ movhi
 392 00d2 AFE7     		b	.L13
 393              	.L23:
 601:Middlewares/lvgl/src/core/lv_obj.c ****         if(dsc->shadow_width > 0) {
 394              		.loc 1 601 9 is_stmt 1 view .LVU127
 395              	.LVL35:
 396              	.LBB112:
 397              	.LBI112:
 415:Middlewares/lvgl/src/core/lv_obj_style_gen.h **** {
 398              		.loc 2 415 26 view .LVU128
ARM GAS  /tmp/ccyhZZXZ.s 			page 32


 399              	.LBB113:
 417:Middlewares/lvgl/src/core/lv_obj_style_gen.h ****     return (lv_coord_t)v.num;
 400              		.loc 2 417 5 view .LVU129
 417:Middlewares/lvgl/src/core/lv_obj_style_gen.h ****     return (lv_coord_t)v.num;
 401              		.loc 2 417 26 is_stmt 0 view .LVU130
 402 00d4 4FF40462 		mov	r2, #2112
 403 00d8 4FF48031 		mov	r1, #65536
 404 00dc 2846     		mov	r0, r5
 405 00de FFF7FEFF 		bl	lv_obj_get_style_prop
 406              	.LVL36:
 418:Middlewares/lvgl/src/core/lv_obj_style_gen.h **** }
 407              		.loc 2 418 5 is_stmt 1 view .LVU131
 418:Middlewares/lvgl/src/core/lv_obj_style_gen.h **** }
 408              		.loc 2 418 12 is_stmt 0 view .LVU132
 409 00e2 00B2     		sxth	r0, r0
 410              	.LVL37:
 418:Middlewares/lvgl/src/core/lv_obj_style_gen.h **** }
 411              		.loc 2 418 12 view .LVU133
 412              	.LBE113:
 413              	.LBE112:
 601:Middlewares/lvgl/src/core/lv_obj.c ****         if(dsc->shadow_width > 0) {
 414              		.loc 1 601 27 view .LVU134
 415 00e4 6085     		strh	r0, [r4, #42]	@ movhi
 602:Middlewares/lvgl/src/core/lv_obj.c ****             dsc->shadow_spread = lv_obj_get_style_shadow_spread(obj, LV_PART_SCROLLBAR);
 416              		.loc 1 602 9 is_stmt 1 view .LVU135
 602:Middlewares/lvgl/src/core/lv_obj.c ****             dsc->shadow_spread = lv_obj_get_style_shadow_spread(obj, LV_PART_SCROLLBAR);
 417              		.loc 1 602 11 is_stmt 0 view .LVU136
 418 00e6 0028     		cmp	r0, #0
 419 00e8 03DC     		bgt	.L25
 606:Middlewares/lvgl/src/core/lv_obj.c ****         }
 420              		.loc 1 606 13 is_stmt 1 view .LVU137
 606:Middlewares/lvgl/src/core/lv_obj.c ****         }
 421              		.loc 1 606 29 is_stmt 0 view .LVU138
 422 00ea 0023     		movs	r3, #0
 423 00ec 84F83230 		strb	r3, [r4, #50]
 424 00f0 ACE7     		b	.L15
 425              	.L25:
 603:Middlewares/lvgl/src/core/lv_obj.c ****             dsc->shadow_color = lv_obj_get_style_shadow_color(obj, LV_PART_SCROLLBAR);
 426              		.loc 1 603 13 is_stmt 1 view .LVU139
 427              	.LVL38:
 428              	.LBB114:
 429              	.LBI114:
 433:Middlewares/lvgl/src/core/lv_obj_style_gen.h **** {
 430              		.loc 2 433 26 view .LVU140
 431              	.LBB115:
 435:Middlewares/lvgl/src/core/lv_obj_style_gen.h ****     return (lv_coord_t)v.num;
 432              		.loc 2 435 5 view .LVU141
 435:Middlewares/lvgl/src/core/lv_obj_style_gen.h ****     return (lv_coord_t)v.num;
 433              		.loc 2 435 26 is_stmt 0 view .LVU142
 434 00f2 40F64302 		movw	r2, #2115
 435 00f6 4FF48031 		mov	r1, #65536
 436 00fa 2846     		mov	r0, r5
 437 00fc FFF7FEFF 		bl	lv_obj_get_style_prop
 438              	.LVL39:
 436:Middlewares/lvgl/src/core/lv_obj_style_gen.h **** }
 439              		.loc 2 436 5 is_stmt 1 view .LVU143
 436:Middlewares/lvgl/src/core/lv_obj_style_gen.h **** }
ARM GAS  /tmp/ccyhZZXZ.s 			page 33


 440              		.loc 2 436 5 is_stmt 0 view .LVU144
 441              	.LBE115:
 442              	.LBE114:
 603:Middlewares/lvgl/src/core/lv_obj.c ****             dsc->shadow_color = lv_obj_get_style_shadow_color(obj, LV_PART_SCROLLBAR);
 443              		.loc 1 603 32 view .LVU145
 444 0100 2086     		strh	r0, [r4, #48]	@ movhi
 604:Middlewares/lvgl/src/core/lv_obj.c ****         } else {
 445              		.loc 1 604 13 is_stmt 1 view .LVU146
 446              	.LVL40:
 447              	.LBB116:
 448              	.LBI116:
 439:Middlewares/lvgl/src/core/lv_obj_style_gen.h **** {
 449              		.loc 2 439 26 view .LVU147
 450              	.LBB117:
 441:Middlewares/lvgl/src/core/lv_obj_style_gen.h ****     return v.color;
 451              		.loc 2 441 5 view .LVU148
 441:Middlewares/lvgl/src/core/lv_obj_style_gen.h ****     return v.color;
 452              		.loc 2 441 26 is_stmt 0 view .LVU149
 453 0102 4422     		movs	r2, #68
 454 0104 4FF48031 		mov	r1, #65536
 455 0108 2846     		mov	r0, r5
 456 010a FFF7FEFF 		bl	lv_obj_get_style_prop
 457              	.LVL41:
 442:Middlewares/lvgl/src/core/lv_obj_style_gen.h **** }
 458              		.loc 2 442 5 is_stmt 1 view .LVU150
 442:Middlewares/lvgl/src/core/lv_obj_style_gen.h **** }
 459              		.loc 2 442 5 is_stmt 0 view .LVU151
 460              	.LBE117:
 461              	.LBE116:
 604:Middlewares/lvgl/src/core/lv_obj.c ****         } else {
 462              		.loc 1 604 33 view .LVU152
 463 010e 2085     		strh	r0, [r4, #40]	@ movhi
 464 0110 9CE7     		b	.L15
 465              		.cfi_endproc
 466              	.LFE174:
 468              		.section	.text.draw_scrollbar,"ax",%progbits
 469              		.align	1
 470              		.syntax unified
 471              		.thumb
 472              		.thumb_func
 473              		.fpu fpv4-sp-d16
 475              	draw_scrollbar:
 476              	.LVL42:
 477              	.LFB173:
 543:Middlewares/lvgl/src/core/lv_obj.c **** 
 478              		.loc 1 543 1 is_stmt 1 view -0
 479              		.cfi_startproc
 480              		@ args = 0, pretend = 0, frame = 144
 481              		@ frame_needed = 0, uses_anonymous_args = 0
 543:Middlewares/lvgl/src/core/lv_obj.c **** 
 482              		.loc 1 543 1 is_stmt 0 view .LVU154
 483 0000 70B5     		push	{r4, r5, r6, lr}
 484              	.LCFI2:
 485              		.cfi_def_cfa_offset 16
 486              		.cfi_offset 4, -16
 487              		.cfi_offset 5, -12
 488              		.cfi_offset 6, -8
ARM GAS  /tmp/ccyhZZXZ.s 			page 34


 489              		.cfi_offset 14, -4
 490 0002 A4B0     		sub	sp, sp, #144
 491              	.LCFI3:
 492              		.cfi_def_cfa_offset 160
 493 0004 0446     		mov	r4, r0
 494 0006 0D46     		mov	r5, r1
 545:Middlewares/lvgl/src/core/lv_obj.c ****     lv_area_t ver_area;
 495              		.loc 1 545 5 is_stmt 1 view .LVU155
 546:Middlewares/lvgl/src/core/lv_obj.c ****     lv_obj_get_scrollbar_area(obj, &hor_area, &ver_area);
 496              		.loc 1 546 5 view .LVU156
 547:Middlewares/lvgl/src/core/lv_obj.c **** 
 497              		.loc 1 547 5 view .LVU157
 498 0008 20AA     		add	r2, sp, #128
 499 000a 22A9     		add	r1, sp, #136
 500              	.LVL43:
 547:Middlewares/lvgl/src/core/lv_obj.c **** 
 501              		.loc 1 547 5 is_stmt 0 view .LVU158
 502 000c FFF7FEFF 		bl	lv_obj_get_scrollbar_area
 503              	.LVL44:
 549:Middlewares/lvgl/src/core/lv_obj.c **** 
 504              		.loc 1 549 5 is_stmt 1 view .LVU159
 549:Middlewares/lvgl/src/core/lv_obj.c **** 
 505              		.loc 1 549 8 is_stmt 0 view .LVU160
 506 0010 22A8     		add	r0, sp, #136
 507 0012 FFF7FEFF 		bl	lv_area_get_size
 508              	.LVL45:
 549:Middlewares/lvgl/src/core/lv_obj.c **** 
 509              		.loc 1 549 7 view .LVU161
 510 0016 18B9     		cbnz	r0, .L27
 549:Middlewares/lvgl/src/core/lv_obj.c **** 
 511              		.loc 1 549 44 discriminator 1 view .LVU162
 512 0018 20A8     		add	r0, sp, #128
 513 001a FFF7FEFF 		bl	lv_area_get_size
 514              	.LVL46:
 549:Middlewares/lvgl/src/core/lv_obj.c **** 
 515              		.loc 1 549 41 discriminator 1 view .LVU163
 516 001e 28B1     		cbz	r0, .L26
 517              	.L27:
 551:Middlewares/lvgl/src/core/lv_obj.c ****     lv_res_t sb_res = scrollbar_init_draw_dsc(obj, &draw_dsc);
 518              		.loc 1 551 5 is_stmt 1 view .LVU164
 552:Middlewares/lvgl/src/core/lv_obj.c ****     if(sb_res != LV_RES_OK) return;
 519              		.loc 1 552 5 view .LVU165
 552:Middlewares/lvgl/src/core/lv_obj.c ****     if(sb_res != LV_RES_OK) return;
 520              		.loc 1 552 23 is_stmt 0 view .LVU166
 521 0020 13A9     		add	r1, sp, #76
 522 0022 2046     		mov	r0, r4
 523 0024 FFF7FEFF 		bl	scrollbar_init_draw_dsc
 524              	.LVL47:
 553:Middlewares/lvgl/src/core/lv_obj.c **** 
 525              		.loc 1 553 5 is_stmt 1 view .LVU167
 553:Middlewares/lvgl/src/core/lv_obj.c **** 
 526              		.loc 1 553 7 is_stmt 0 view .LVU168
 527 0028 0128     		cmp	r0, #1
 528 002a 01D0     		beq	.L33
 529              	.LVL48:
 530              	.L26:
 572:Middlewares/lvgl/src/core/lv_obj.c **** 
ARM GAS  /tmp/ccyhZZXZ.s 			page 35


 531              		.loc 1 572 1 view .LVU169
 532 002c 24B0     		add	sp, sp, #144
 533              	.LCFI4:
 534              		.cfi_remember_state
 535              		.cfi_def_cfa_offset 16
 536              		@ sp needed
 537 002e 70BD     		pop	{r4, r5, r6, pc}
 538              	.LVL49:
 539              	.L33:
 540              	.LCFI5:
 541              		.cfi_restore_state
 555:Middlewares/lvgl/src/core/lv_obj.c ****     lv_obj_draw_dsc_init(&part_dsc, clip_area);
 542              		.loc 1 555 5 is_stmt 1 view .LVU170
 556:Middlewares/lvgl/src/core/lv_obj.c ****     part_dsc.rect_dsc = &draw_dsc;
 543              		.loc 1 556 5 view .LVU171
 544 0030 2946     		mov	r1, r5
 545 0032 01A8     		add	r0, sp, #4
 546              	.LVL50:
 556:Middlewares/lvgl/src/core/lv_obj.c ****     part_dsc.rect_dsc = &draw_dsc;
 547              		.loc 1 556 5 is_stmt 0 view .LVU172
 548 0034 FFF7FEFF 		bl	lv_obj_draw_dsc_init
 549              	.LVL51:
 557:Middlewares/lvgl/src/core/lv_obj.c ****     part_dsc.part = LV_PART_SCROLLBAR;
 550              		.loc 1 557 5 is_stmt 1 view .LVU173
 557:Middlewares/lvgl/src/core/lv_obj.c ****     part_dsc.part = LV_PART_SCROLLBAR;
 551              		.loc 1 557 23 is_stmt 0 view .LVU174
 552 0038 13AB     		add	r3, sp, #76
 553 003a 0393     		str	r3, [sp, #12]
 558:Middlewares/lvgl/src/core/lv_obj.c **** 
 554              		.loc 1 558 5 is_stmt 1 view .LVU175
 558:Middlewares/lvgl/src/core/lv_obj.c **** 
 555              		.loc 1 558 19 is_stmt 0 view .LVU176
 556 003c 4FF48033 		mov	r3, #65536
 557 0040 0E93     		str	r3, [sp, #56]
 560:Middlewares/lvgl/src/core/lv_obj.c ****         part_dsc.draw_area = &hor_area;
 558              		.loc 1 560 5 is_stmt 1 view .LVU177
 560:Middlewares/lvgl/src/core/lv_obj.c ****         part_dsc.draw_area = &hor_area;
 559              		.loc 1 560 8 is_stmt 0 view .LVU178
 560 0042 22A8     		add	r0, sp, #136
 561 0044 FFF7FEFF 		bl	lv_area_get_size
 562              	.LVL52:
 560:Middlewares/lvgl/src/core/lv_obj.c ****         part_dsc.draw_area = &hor_area;
 563              		.loc 1 560 7 view .LVU179
 564 0048 B0B9     		cbnz	r0, .L34
 565              	.L29:
 566:Middlewares/lvgl/src/core/lv_obj.c ****         part_dsc.draw_area = &ver_area;
 566              		.loc 1 566 5 is_stmt 1 view .LVU180
 566:Middlewares/lvgl/src/core/lv_obj.c ****         part_dsc.draw_area = &ver_area;
 567              		.loc 1 566 8 is_stmt 0 view .LVU181
 568 004a 20A8     		add	r0, sp, #128
 569 004c FFF7FEFF 		bl	lv_area_get_size
 570              	.LVL53:
 566:Middlewares/lvgl/src/core/lv_obj.c ****         part_dsc.draw_area = &ver_area;
 571              		.loc 1 566 7 view .LVU182
 572 0050 0028     		cmp	r0, #0
 573 0052 EBD0     		beq	.L26
 567:Middlewares/lvgl/src/core/lv_obj.c ****         lv_event_send(obj, LV_EVENT_DRAW_PART_BEGIN, &part_dsc);
ARM GAS  /tmp/ccyhZZXZ.s 			page 36


 574              		.loc 1 567 9 is_stmt 1 view .LVU183
 567:Middlewares/lvgl/src/core/lv_obj.c ****         lv_event_send(obj, LV_EVENT_DRAW_PART_BEGIN, &part_dsc);
 575              		.loc 1 567 28 is_stmt 0 view .LVU184
 576 0054 20AE     		add	r6, sp, #128
 577 0056 0296     		str	r6, [sp, #8]
 568:Middlewares/lvgl/src/core/lv_obj.c ****         lv_draw_rect(&ver_area, clip_area, &draw_dsc);
 578              		.loc 1 568 9 is_stmt 1 view .LVU185
 579 0058 01AA     		add	r2, sp, #4
 580 005a 1A21     		movs	r1, #26
 581 005c 2046     		mov	r0, r4
 582 005e FFF7FEFF 		bl	lv_event_send
 583              	.LVL54:
 569:Middlewares/lvgl/src/core/lv_obj.c ****         lv_event_send(obj, LV_EVENT_DRAW_PART_END, &part_dsc);
 584              		.loc 1 569 9 view .LVU186
 585 0062 13AA     		add	r2, sp, #76
 586 0064 2946     		mov	r1, r5
 587 0066 3046     		mov	r0, r6
 588 0068 FFF7FEFF 		bl	lv_draw_rect
 589              	.LVL55:
 570:Middlewares/lvgl/src/core/lv_obj.c ****     }
 590              		.loc 1 570 9 view .LVU187
 591 006c 01AA     		add	r2, sp, #4
 592 006e 1B21     		movs	r1, #27
 593 0070 2046     		mov	r0, r4
 594 0072 FFF7FEFF 		bl	lv_event_send
 595              	.LVL56:
 596 0076 D9E7     		b	.L26
 597              	.L34:
 561:Middlewares/lvgl/src/core/lv_obj.c ****         lv_event_send(obj, LV_EVENT_DRAW_PART_BEGIN, &part_dsc);
 598              		.loc 1 561 9 view .LVU188
 561:Middlewares/lvgl/src/core/lv_obj.c ****         lv_event_send(obj, LV_EVENT_DRAW_PART_BEGIN, &part_dsc);
 599              		.loc 1 561 28 is_stmt 0 view .LVU189
 600 0078 22AE     		add	r6, sp, #136
 601 007a 0296     		str	r6, [sp, #8]
 562:Middlewares/lvgl/src/core/lv_obj.c ****         lv_draw_rect(&hor_area, clip_area, &draw_dsc);
 602              		.loc 1 562 9 is_stmt 1 view .LVU190
 603 007c 01AA     		add	r2, sp, #4
 604 007e 1A21     		movs	r1, #26
 605 0080 2046     		mov	r0, r4
 606 0082 FFF7FEFF 		bl	lv_event_send
 607              	.LVL57:
 563:Middlewares/lvgl/src/core/lv_obj.c ****         lv_event_send(obj, LV_EVENT_DRAW_PART_END, &part_dsc);
 608              		.loc 1 563 9 view .LVU191
 609 0086 13AA     		add	r2, sp, #76
 610 0088 2946     		mov	r1, r5
 611 008a 3046     		mov	r0, r6
 612 008c FFF7FEFF 		bl	lv_draw_rect
 613              	.LVL58:
 564:Middlewares/lvgl/src/core/lv_obj.c ****     }
 614              		.loc 1 564 9 view .LVU192
 615 0090 01AA     		add	r2, sp, #4
 616 0092 1B21     		movs	r1, #27
 617 0094 2046     		mov	r0, r4
 618 0096 FFF7FEFF 		bl	lv_event_send
 619              	.LVL59:
 620 009a D6E7     		b	.L29
 621              		.cfi_endproc
ARM GAS  /tmp/ccyhZZXZ.s 			page 37


 622              	.LFE173:
 624              		.section	.text.lv_obj_draw,"ax",%progbits
 625              		.align	1
 626              		.syntax unified
 627              		.thumb
 628              		.thumb_func
 629              		.fpu fpv4-sp-d16
 631              	lv_obj_draw:
 632              	.LVL60:
 633              	.LFB172:
 421:Middlewares/lvgl/src/core/lv_obj.c ****     lv_event_code_t code = lv_event_get_code(e);
 634              		.loc 1 421 1 view -0
 635              		.cfi_startproc
 636              		@ args = 0, pretend = 0, frame = 136
 637              		@ frame_needed = 0, uses_anonymous_args = 0
 421:Middlewares/lvgl/src/core/lv_obj.c ****     lv_event_code_t code = lv_event_get_code(e);
 638              		.loc 1 421 1 is_stmt 0 view .LVU194
 639 0000 2DE9F041 		push	{r4, r5, r6, r7, r8, lr}
 640              	.LCFI6:
 641              		.cfi_def_cfa_offset 24
 642              		.cfi_offset 4, -24
 643              		.cfi_offset 5, -20
 644              		.cfi_offset 6, -16
 645              		.cfi_offset 7, -12
 646              		.cfi_offset 8, -8
 647              		.cfi_offset 14, -4
 648 0004 A2B0     		sub	sp, sp, #136
 649              	.LCFI7:
 650              		.cfi_def_cfa_offset 160
 651 0006 0646     		mov	r6, r0
 422:Middlewares/lvgl/src/core/lv_obj.c ****     lv_obj_t * obj = lv_event_get_target(e);
 652              		.loc 1 422 5 is_stmt 1 view .LVU195
 422:Middlewares/lvgl/src/core/lv_obj.c ****     lv_obj_t * obj = lv_event_get_target(e);
 653              		.loc 1 422 28 is_stmt 0 view .LVU196
 654 0008 FFF7FEFF 		bl	lv_event_get_code
 655              	.LVL61:
 422:Middlewares/lvgl/src/core/lv_obj.c ****     lv_obj_t * obj = lv_event_get_target(e);
 656              		.loc 1 422 28 view .LVU197
 657 000c 0546     		mov	r5, r0
 658              	.LVL62:
 423:Middlewares/lvgl/src/core/lv_obj.c ****     if(code == LV_EVENT_COVER_CHECK) {
 659              		.loc 1 423 5 is_stmt 1 view .LVU198
 423:Middlewares/lvgl/src/core/lv_obj.c ****     if(code == LV_EVENT_COVER_CHECK) {
 660              		.loc 1 423 22 is_stmt 0 view .LVU199
 661 000e 3046     		mov	r0, r6
 662 0010 FFF7FEFF 		bl	lv_event_get_target
 663              	.LVL63:
 664 0014 0446     		mov	r4, r0
 665              	.LVL64:
 424:Middlewares/lvgl/src/core/lv_obj.c ****         lv_cover_check_info_t * info = lv_event_get_param(e);
 666              		.loc 1 424 5 is_stmt 1 view .LVU200
 424:Middlewares/lvgl/src/core/lv_obj.c ****         lv_cover_check_info_t * info = lv_event_get_param(e);
 667              		.loc 1 424 7 is_stmt 0 view .LVU201
 668 0016 122D     		cmp	r5, #18
 669 0018 07D0     		beq	.L49
 467:Middlewares/lvgl/src/core/lv_obj.c ****         const lv_area_t * clip_area = lv_event_get_param(e);
 670              		.loc 1 467 10 is_stmt 1 view .LVU202
ARM GAS  /tmp/ccyhZZXZ.s 			page 38


 467:Middlewares/lvgl/src/core/lv_obj.c ****         const lv_area_t * clip_area = lv_event_get_param(e);
 671              		.loc 1 467 12 is_stmt 0 view .LVU203
 672 001a 152D     		cmp	r5, #21
 673 001c 74D0     		beq	.L50
 509:Middlewares/lvgl/src/core/lv_obj.c ****         const lv_area_t * clip_area = lv_event_get_param(e);
 674              		.loc 1 509 10 is_stmt 1 view .LVU204
 509:Middlewares/lvgl/src/core/lv_obj.c ****         const lv_area_t * clip_area = lv_event_get_param(e);
 675              		.loc 1 509 12 is_stmt 0 view .LVU205
 676 001e 182D     		cmp	r5, #24
 677 0020 00F0EF80 		beq	.L51
 678              	.LVL65:
 679              	.L35:
 540:Middlewares/lvgl/src/core/lv_obj.c **** 
 680              		.loc 1 540 1 view .LVU206
 681 0024 22B0     		add	sp, sp, #136
 682              	.LCFI8:
 683              		.cfi_remember_state
 684              		.cfi_def_cfa_offset 24
 685              		@ sp needed
 686 0026 BDE8F081 		pop	{r4, r5, r6, r7, r8, pc}
 687              	.LVL66:
 688              	.L49:
 689              	.LCFI9:
 690              		.cfi_restore_state
 691              	.LBB118:
 425:Middlewares/lvgl/src/core/lv_obj.c ****         if(info->res == LV_COVER_RES_MASKED) return;
 692              		.loc 1 425 9 is_stmt 1 view .LVU207
 425:Middlewares/lvgl/src/core/lv_obj.c ****         if(info->res == LV_COVER_RES_MASKED) return;
 693              		.loc 1 425 40 is_stmt 0 view .LVU208
 694 002a 3046     		mov	r0, r6
 695              	.LVL67:
 425:Middlewares/lvgl/src/core/lv_obj.c ****         if(info->res == LV_COVER_RES_MASKED) return;
 696              		.loc 1 425 40 view .LVU209
 697 002c FFF7FEFF 		bl	lv_event_get_param
 698              	.LVL68:
 699 0030 0546     		mov	r5, r0
 700              	.LVL69:
 426:Middlewares/lvgl/src/core/lv_obj.c ****         if(lv_obj_get_style_clip_corner(obj, LV_PART_MAIN)) {
 701              		.loc 1 426 9 is_stmt 1 view .LVU210
 426:Middlewares/lvgl/src/core/lv_obj.c ****         if(lv_obj_get_style_clip_corner(obj, LV_PART_MAIN)) {
 702              		.loc 1 426 16 is_stmt 0 view .LVU211
 703 0032 0378     		ldrb	r3, [r0]	@ zero_extendqisi2
 426:Middlewares/lvgl/src/core/lv_obj.c ****         if(lv_obj_get_style_clip_corner(obj, LV_PART_MAIN)) {
 704              		.loc 1 426 11 view .LVU212
 705 0034 022B     		cmp	r3, #2
 706 0036 F5D0     		beq	.L35
 427:Middlewares/lvgl/src/core/lv_obj.c ****             info->res = LV_COVER_RES_MASKED;
 707              		.loc 1 427 9 is_stmt 1 view .LVU213
 708              	.LVL70:
 709              	.LBB119:
 710              	.LBI119:
 133:Middlewares/lvgl/src/core/lv_obj_style_gen.h **** {
 711              		.loc 2 133 20 view .LVU214
 712              	.LBB120:
 135:Middlewares/lvgl/src/core/lv_obj_style_gen.h ****     return (bool)v.num;
 713              		.loc 2 135 5 view .LVU215
 135:Middlewares/lvgl/src/core/lv_obj_style_gen.h ****     return (bool)v.num;
ARM GAS  /tmp/ccyhZZXZ.s 			page 39


 714              		.loc 2 135 26 is_stmt 0 view .LVU216
 715 0038 6122     		movs	r2, #97
 716 003a 0021     		movs	r1, #0
 717 003c 2046     		mov	r0, r4
 718              	.LVL71:
 135:Middlewares/lvgl/src/core/lv_obj_style_gen.h ****     return (bool)v.num;
 719              		.loc 2 135 26 view .LVU217
 720 003e FFF7FEFF 		bl	lv_obj_get_style_prop
 721              	.LVL72:
 136:Middlewares/lvgl/src/core/lv_obj_style_gen.h **** }
 722              		.loc 2 136 5 is_stmt 1 view .LVU218
 136:Middlewares/lvgl/src/core/lv_obj_style_gen.h **** }
 723              		.loc 2 136 5 is_stmt 0 view .LVU219
 724              	.LBE120:
 725              	.LBE119:
 427:Middlewares/lvgl/src/core/lv_obj.c ****             info->res = LV_COVER_RES_MASKED;
 726              		.loc 1 427 11 view .LVU220
 727 0042 10B1     		cbz	r0, .L38
 428:Middlewares/lvgl/src/core/lv_obj.c ****             return;
 728              		.loc 1 428 13 is_stmt 1 view .LVU221
 428:Middlewares/lvgl/src/core/lv_obj.c ****             return;
 729              		.loc 1 428 23 is_stmt 0 view .LVU222
 730 0044 0223     		movs	r3, #2
 731 0046 2B70     		strb	r3, [r5]
 429:Middlewares/lvgl/src/core/lv_obj.c ****         }
 732              		.loc 1 429 13 is_stmt 1 view .LVU223
 733 0048 ECE7     		b	.L35
 734              	.L38:
 433:Middlewares/lvgl/src/core/lv_obj.c ****         lv_coord_t w = lv_obj_get_style_transform_width(obj, LV_PART_MAIN);
 735              		.loc 1 433 9 view .LVU224
 736              	.LVL73:
 737              	.LBB121:
 738              	.LBI121:
 127:Middlewares/lvgl/src/core/lv_obj_style_gen.h **** {
 739              		.loc 2 127 26 view .LVU225
 740              	.LBB122:
 129:Middlewares/lvgl/src/core/lv_obj_style_gen.h ****     return (lv_coord_t)v.num;
 741              		.loc 2 129 5 view .LVU226
 129:Middlewares/lvgl/src/core/lv_obj_style_gen.h ****     return (lv_coord_t)v.num;
 742              		.loc 2 129 26 is_stmt 0 view .LVU227
 743 004a 6022     		movs	r2, #96
 744 004c 0021     		movs	r1, #0
 745 004e 2046     		mov	r0, r4
 746 0050 FFF7FEFF 		bl	lv_obj_get_style_prop
 747              	.LVL74:
 130:Middlewares/lvgl/src/core/lv_obj_style_gen.h **** }
 748              		.loc 2 130 5 is_stmt 1 view .LVU228
 130:Middlewares/lvgl/src/core/lv_obj_style_gen.h **** }
 749              		.loc 2 130 12 is_stmt 0 view .LVU229
 750 0054 07B2     		sxth	r7, r0
 751              	.LVL75:
 130:Middlewares/lvgl/src/core/lv_obj_style_gen.h **** }
 752              		.loc 2 130 12 view .LVU230
 753              	.LBE122:
 754              	.LBE121:
 434:Middlewares/lvgl/src/core/lv_obj.c ****         lv_coord_t h = lv_obj_get_style_transform_height(obj, LV_PART_MAIN);
 755              		.loc 1 434 9 is_stmt 1 view .LVU231
ARM GAS  /tmp/ccyhZZXZ.s 			page 40


 756              	.LBB123:
 757              	.LBI123:
  55:Middlewares/lvgl/src/core/lv_obj_style_gen.h **** {
 758              		.loc 2 55 26 view .LVU232
 759              	.LBB124:
  57:Middlewares/lvgl/src/core/lv_obj_style_gen.h ****     return (lv_coord_t)v.num;
 760              		.loc 2 57 5 view .LVU233
  57:Middlewares/lvgl/src/core/lv_obj_style_gen.h ****     return (lv_coord_t)v.num;
 761              		.loc 2 57 26 is_stmt 0 view .LVU234
 762 0056 40F60A02 		movw	r2, #2058
 763 005a 0021     		movs	r1, #0
 764 005c 2046     		mov	r0, r4
 765 005e FFF7FEFF 		bl	lv_obj_get_style_prop
 766              	.LVL76:
 767 0062 0646     		mov	r6, r0
 768              	.LVL77:
  58:Middlewares/lvgl/src/core/lv_obj_style_gen.h **** }
 769              		.loc 2 58 5 is_stmt 1 view .LVU235
  58:Middlewares/lvgl/src/core/lv_obj_style_gen.h **** }
 770              		.loc 2 58 5 is_stmt 0 view .LVU236
 771              	.LBE124:
 772              	.LBE123:
 435:Middlewares/lvgl/src/core/lv_obj.c ****         lv_area_t coords;
 773              		.loc 1 435 9 is_stmt 1 view .LVU237
 774              	.LBB125:
 775              	.LBI125:
  61:Middlewares/lvgl/src/core/lv_obj_style_gen.h **** {
 776              		.loc 2 61 26 view .LVU238
 777              	.LBB126:
  63:Middlewares/lvgl/src/core/lv_obj_style_gen.h ****     return (lv_coord_t)v.num;
 778              		.loc 2 63 5 view .LVU239
  63:Middlewares/lvgl/src/core/lv_obj_style_gen.h ****     return (lv_coord_t)v.num;
 779              		.loc 2 63 26 is_stmt 0 view .LVU240
 780 0064 40F60B02 		movw	r2, #2059
 781 0068 0021     		movs	r1, #0
 782 006a 2046     		mov	r0, r4
 783 006c FFF7FEFF 		bl	lv_obj_get_style_prop
 784              	.LVL78:
  64:Middlewares/lvgl/src/core/lv_obj_style_gen.h **** }
 785              		.loc 2 64 5 is_stmt 1 view .LVU241
  64:Middlewares/lvgl/src/core/lv_obj_style_gen.h **** }
 786              		.loc 2 64 5 is_stmt 0 view .LVU242
 787              	.LBE126:
 788              	.LBE125:
 436:Middlewares/lvgl/src/core/lv_obj.c ****         lv_area_copy(&coords, &obj->coords);
 789              		.loc 1 436 9 is_stmt 1 view .LVU243
 437:Middlewares/lvgl/src/core/lv_obj.c ****         coords.x1 -= w;
 790              		.loc 1 437 9 view .LVU244
 791              	.LBB127:
 792              	.LBI127:
 793              		.file 3 "Middlewares/lvgl/src/core/../misc/../font/../misc/lv_area.h"
   1:Middlewares/lvgl/src/core/../misc/../font/../misc/lv_area.h **** /**
   2:Middlewares/lvgl/src/core/../misc/../font/../misc/lv_area.h ****  * @file lv_area.h
   3:Middlewares/lvgl/src/core/../misc/../font/../misc/lv_area.h ****  *
   4:Middlewares/lvgl/src/core/../misc/../font/../misc/lv_area.h ****  */
   5:Middlewares/lvgl/src/core/../misc/../font/../misc/lv_area.h **** 
   6:Middlewares/lvgl/src/core/../misc/../font/../misc/lv_area.h **** #ifndef LV_AREA_H
ARM GAS  /tmp/ccyhZZXZ.s 			page 41


   7:Middlewares/lvgl/src/core/../misc/../font/../misc/lv_area.h **** #define LV_AREA_H
   8:Middlewares/lvgl/src/core/../misc/../font/../misc/lv_area.h **** 
   9:Middlewares/lvgl/src/core/../misc/../font/../misc/lv_area.h **** #ifdef __cplusplus
  10:Middlewares/lvgl/src/core/../misc/../font/../misc/lv_area.h **** extern "C" {
  11:Middlewares/lvgl/src/core/../misc/../font/../misc/lv_area.h **** #endif
  12:Middlewares/lvgl/src/core/../misc/../font/../misc/lv_area.h **** 
  13:Middlewares/lvgl/src/core/../misc/../font/../misc/lv_area.h **** /*********************
  14:Middlewares/lvgl/src/core/../misc/../font/../misc/lv_area.h ****  *      INCLUDES
  15:Middlewares/lvgl/src/core/../misc/../font/../misc/lv_area.h ****  *********************/
  16:Middlewares/lvgl/src/core/../misc/../font/../misc/lv_area.h **** #include "../lv_conf_internal.h"
  17:Middlewares/lvgl/src/core/../misc/../font/../misc/lv_area.h **** #include <string.h>
  18:Middlewares/lvgl/src/core/../misc/../font/../misc/lv_area.h **** #include <stdbool.h>
  19:Middlewares/lvgl/src/core/../misc/../font/../misc/lv_area.h **** #include <stdint.h>
  20:Middlewares/lvgl/src/core/../misc/../font/../misc/lv_area.h **** 
  21:Middlewares/lvgl/src/core/../misc/../font/../misc/lv_area.h **** /*********************
  22:Middlewares/lvgl/src/core/../misc/../font/../misc/lv_area.h ****  *      DEFINES
  23:Middlewares/lvgl/src/core/../misc/../font/../misc/lv_area.h ****  *********************/
  24:Middlewares/lvgl/src/core/../misc/../font/../misc/lv_area.h **** 
  25:Middlewares/lvgl/src/core/../misc/../font/../misc/lv_area.h **** #define _LV_COORD_MAX_REDUCE    8192
  26:Middlewares/lvgl/src/core/../misc/../font/../misc/lv_area.h **** 
  27:Middlewares/lvgl/src/core/../misc/../font/../misc/lv_area.h **** #if LV_USE_LARGE_COORD
  28:Middlewares/lvgl/src/core/../misc/../font/../misc/lv_area.h **** typedef int32_t lv_coord_t;
  29:Middlewares/lvgl/src/core/../misc/../font/../misc/lv_area.h **** #else
  30:Middlewares/lvgl/src/core/../misc/../font/../misc/lv_area.h **** typedef int16_t lv_coord_t;
  31:Middlewares/lvgl/src/core/../misc/../font/../misc/lv_area.h **** #endif
  32:Middlewares/lvgl/src/core/../misc/../font/../misc/lv_area.h **** 
  33:Middlewares/lvgl/src/core/../misc/../font/../misc/lv_area.h **** /*To allow some special values in the end reduce the max value*/
  34:Middlewares/lvgl/src/core/../misc/../font/../misc/lv_area.h **** #define LV_COORD_MAX ((lv_coord_t)((uint32_t)((uint32_t)1 << (8 * sizeof(lv_coord_t) - 1)) - _LV_CO
  35:Middlewares/lvgl/src/core/../misc/../font/../misc/lv_area.h **** #define LV_COORD_MIN (-LV_COORD_MAX)
  36:Middlewares/lvgl/src/core/../misc/../font/../misc/lv_area.h **** 
  37:Middlewares/lvgl/src/core/../misc/../font/../misc/lv_area.h **** LV_EXPORT_CONST_INT(LV_COORD_MAX);
  38:Middlewares/lvgl/src/core/../misc/../font/../misc/lv_area.h **** LV_EXPORT_CONST_INT(LV_COORD_MIN);
  39:Middlewares/lvgl/src/core/../misc/../font/../misc/lv_area.h **** 
  40:Middlewares/lvgl/src/core/../misc/../font/../misc/lv_area.h **** /**********************
  41:Middlewares/lvgl/src/core/../misc/../font/../misc/lv_area.h ****  *      TYPEDEFS
  42:Middlewares/lvgl/src/core/../misc/../font/../misc/lv_area.h ****  **********************/
  43:Middlewares/lvgl/src/core/../misc/../font/../misc/lv_area.h **** 
  44:Middlewares/lvgl/src/core/../misc/../font/../misc/lv_area.h **** /**
  45:Middlewares/lvgl/src/core/../misc/../font/../misc/lv_area.h ****  * Represents a point on the screen.
  46:Middlewares/lvgl/src/core/../misc/../font/../misc/lv_area.h ****  */
  47:Middlewares/lvgl/src/core/../misc/../font/../misc/lv_area.h **** typedef struct {
  48:Middlewares/lvgl/src/core/../misc/../font/../misc/lv_area.h ****     lv_coord_t x;
  49:Middlewares/lvgl/src/core/../misc/../font/../misc/lv_area.h ****     lv_coord_t y;
  50:Middlewares/lvgl/src/core/../misc/../font/../misc/lv_area.h **** } lv_point_t;
  51:Middlewares/lvgl/src/core/../misc/../font/../misc/lv_area.h **** 
  52:Middlewares/lvgl/src/core/../misc/../font/../misc/lv_area.h **** /** Represents an area of the screen.*/
  53:Middlewares/lvgl/src/core/../misc/../font/../misc/lv_area.h **** typedef struct {
  54:Middlewares/lvgl/src/core/../misc/../font/../misc/lv_area.h ****     lv_coord_t x1;
  55:Middlewares/lvgl/src/core/../misc/../font/../misc/lv_area.h ****     lv_coord_t y1;
  56:Middlewares/lvgl/src/core/../misc/../font/../misc/lv_area.h ****     lv_coord_t x2;
  57:Middlewares/lvgl/src/core/../misc/../font/../misc/lv_area.h ****     lv_coord_t y2;
  58:Middlewares/lvgl/src/core/../misc/../font/../misc/lv_area.h **** } lv_area_t;
  59:Middlewares/lvgl/src/core/../misc/../font/../misc/lv_area.h **** 
  60:Middlewares/lvgl/src/core/../misc/../font/../misc/lv_area.h **** /** Alignments*/
  61:Middlewares/lvgl/src/core/../misc/../font/../misc/lv_area.h **** enum {
  62:Middlewares/lvgl/src/core/../misc/../font/../misc/lv_area.h ****     LV_ALIGN_DEFAULT = 0,
  63:Middlewares/lvgl/src/core/../misc/../font/../misc/lv_area.h ****     LV_ALIGN_TOP_LEFT,
ARM GAS  /tmp/ccyhZZXZ.s 			page 42


  64:Middlewares/lvgl/src/core/../misc/../font/../misc/lv_area.h ****     LV_ALIGN_TOP_MID,
  65:Middlewares/lvgl/src/core/../misc/../font/../misc/lv_area.h ****     LV_ALIGN_TOP_RIGHT,
  66:Middlewares/lvgl/src/core/../misc/../font/../misc/lv_area.h ****     LV_ALIGN_BOTTOM_LEFT,
  67:Middlewares/lvgl/src/core/../misc/../font/../misc/lv_area.h ****     LV_ALIGN_BOTTOM_MID,
  68:Middlewares/lvgl/src/core/../misc/../font/../misc/lv_area.h ****     LV_ALIGN_BOTTOM_RIGHT,
  69:Middlewares/lvgl/src/core/../misc/../font/../misc/lv_area.h ****     LV_ALIGN_LEFT_MID,
  70:Middlewares/lvgl/src/core/../misc/../font/../misc/lv_area.h ****     LV_ALIGN_RIGHT_MID,
  71:Middlewares/lvgl/src/core/../misc/../font/../misc/lv_area.h ****     LV_ALIGN_CENTER,
  72:Middlewares/lvgl/src/core/../misc/../font/../misc/lv_area.h **** 
  73:Middlewares/lvgl/src/core/../misc/../font/../misc/lv_area.h ****     LV_ALIGN_OUT_TOP_LEFT,
  74:Middlewares/lvgl/src/core/../misc/../font/../misc/lv_area.h ****     LV_ALIGN_OUT_TOP_MID,
  75:Middlewares/lvgl/src/core/../misc/../font/../misc/lv_area.h ****     LV_ALIGN_OUT_TOP_RIGHT,
  76:Middlewares/lvgl/src/core/../misc/../font/../misc/lv_area.h ****     LV_ALIGN_OUT_BOTTOM_LEFT,
  77:Middlewares/lvgl/src/core/../misc/../font/../misc/lv_area.h ****     LV_ALIGN_OUT_BOTTOM_MID,
  78:Middlewares/lvgl/src/core/../misc/../font/../misc/lv_area.h ****     LV_ALIGN_OUT_BOTTOM_RIGHT,
  79:Middlewares/lvgl/src/core/../misc/../font/../misc/lv_area.h ****     LV_ALIGN_OUT_LEFT_TOP,
  80:Middlewares/lvgl/src/core/../misc/../font/../misc/lv_area.h ****     LV_ALIGN_OUT_LEFT_MID,
  81:Middlewares/lvgl/src/core/../misc/../font/../misc/lv_area.h ****     LV_ALIGN_OUT_LEFT_BOTTOM,
  82:Middlewares/lvgl/src/core/../misc/../font/../misc/lv_area.h ****     LV_ALIGN_OUT_RIGHT_TOP,
  83:Middlewares/lvgl/src/core/../misc/../font/../misc/lv_area.h ****     LV_ALIGN_OUT_RIGHT_MID,
  84:Middlewares/lvgl/src/core/../misc/../font/../misc/lv_area.h ****     LV_ALIGN_OUT_RIGHT_BOTTOM,
  85:Middlewares/lvgl/src/core/../misc/../font/../misc/lv_area.h **** };
  86:Middlewares/lvgl/src/core/../misc/../font/../misc/lv_area.h **** typedef uint8_t lv_align_t;
  87:Middlewares/lvgl/src/core/../misc/../font/../misc/lv_area.h **** 
  88:Middlewares/lvgl/src/core/../misc/../font/../misc/lv_area.h **** enum {
  89:Middlewares/lvgl/src/core/../misc/../font/../misc/lv_area.h ****     LV_DIR_NONE     = 0x00,
  90:Middlewares/lvgl/src/core/../misc/../font/../misc/lv_area.h ****     LV_DIR_LEFT     = (1 << 0),
  91:Middlewares/lvgl/src/core/../misc/../font/../misc/lv_area.h ****     LV_DIR_RIGHT    = (1 << 1),
  92:Middlewares/lvgl/src/core/../misc/../font/../misc/lv_area.h ****     LV_DIR_TOP      = (1 << 2),
  93:Middlewares/lvgl/src/core/../misc/../font/../misc/lv_area.h ****     LV_DIR_BOTTOM   = (1 << 3),
  94:Middlewares/lvgl/src/core/../misc/../font/../misc/lv_area.h ****     LV_DIR_HOR      = LV_DIR_LEFT | LV_DIR_RIGHT,
  95:Middlewares/lvgl/src/core/../misc/../font/../misc/lv_area.h ****     LV_DIR_VER      = LV_DIR_TOP | LV_DIR_BOTTOM,
  96:Middlewares/lvgl/src/core/../misc/../font/../misc/lv_area.h ****     LV_DIR_ALL      = LV_DIR_HOR | LV_DIR_VER,
  97:Middlewares/lvgl/src/core/../misc/../font/../misc/lv_area.h **** };
  98:Middlewares/lvgl/src/core/../misc/../font/../misc/lv_area.h **** 
  99:Middlewares/lvgl/src/core/../misc/../font/../misc/lv_area.h **** typedef uint8_t lv_dir_t;
 100:Middlewares/lvgl/src/core/../misc/../font/../misc/lv_area.h **** 
 101:Middlewares/lvgl/src/core/../misc/../font/../misc/lv_area.h **** /**********************
 102:Middlewares/lvgl/src/core/../misc/../font/../misc/lv_area.h ****  * GLOBAL PROTOTYPES
 103:Middlewares/lvgl/src/core/../misc/../font/../misc/lv_area.h ****  **********************/
 104:Middlewares/lvgl/src/core/../misc/../font/../misc/lv_area.h **** 
 105:Middlewares/lvgl/src/core/../misc/../font/../misc/lv_area.h **** /**
 106:Middlewares/lvgl/src/core/../misc/../font/../misc/lv_area.h ****  * Initialize an area
 107:Middlewares/lvgl/src/core/../misc/../font/../misc/lv_area.h ****  * @param area_p pointer to an area
 108:Middlewares/lvgl/src/core/../misc/../font/../misc/lv_area.h ****  * @param x1 left coordinate of the area
 109:Middlewares/lvgl/src/core/../misc/../font/../misc/lv_area.h ****  * @param y1 top coordinate of the area
 110:Middlewares/lvgl/src/core/../misc/../font/../misc/lv_area.h ****  * @param x2 right coordinate of the area
 111:Middlewares/lvgl/src/core/../misc/../font/../misc/lv_area.h ****  * @param y2 bottom coordinate of the area
 112:Middlewares/lvgl/src/core/../misc/../font/../misc/lv_area.h ****  */
 113:Middlewares/lvgl/src/core/../misc/../font/../misc/lv_area.h **** void lv_area_set(lv_area_t * area_p, lv_coord_t x1, lv_coord_t y1, lv_coord_t x2, lv_coord_t y2);
 114:Middlewares/lvgl/src/core/../misc/../font/../misc/lv_area.h **** 
 115:Middlewares/lvgl/src/core/../misc/../font/../misc/lv_area.h **** /**
 116:Middlewares/lvgl/src/core/../misc/../font/../misc/lv_area.h ****  * Copy an area
 117:Middlewares/lvgl/src/core/../misc/../font/../misc/lv_area.h ****  * @param dest pointer to the destination area
 118:Middlewares/lvgl/src/core/../misc/../font/../misc/lv_area.h ****  * @param src pointer to the source area
 119:Middlewares/lvgl/src/core/../misc/../font/../misc/lv_area.h ****  */
 120:Middlewares/lvgl/src/core/../misc/../font/../misc/lv_area.h **** inline static void lv_area_copy(lv_area_t * dest, const lv_area_t * src)
ARM GAS  /tmp/ccyhZZXZ.s 			page 43


 794              		.loc 3 120 20 view .LVU245
 795              	.LBB128:
 121:Middlewares/lvgl/src/core/../misc/../font/../misc/lv_area.h **** {
 122:Middlewares/lvgl/src/core/../misc/../font/../misc/lv_area.h ****     dest->x1 = src->x1;
 796              		.loc 3 122 5 view .LVU246
 797              		.loc 3 122 19 is_stmt 0 view .LVU247
 798 0070 B4F91410 		ldrsh	r1, [r4, #20]
 799              		.loc 3 122 14 view .LVU248
 800 0074 ADF84010 		strh	r1, [sp, #64]	@ movhi
 123:Middlewares/lvgl/src/core/../misc/../font/../misc/lv_area.h ****     dest->y1 = src->y1;
 801              		.loc 3 123 5 is_stmt 1 view .LVU249
 802              		.loc 3 123 19 is_stmt 0 view .LVU250
 803 0078 B4F91620 		ldrsh	r2, [r4, #22]
 804              		.loc 3 123 14 view .LVU251
 805 007c ADF84220 		strh	r2, [sp, #66]	@ movhi
 124:Middlewares/lvgl/src/core/../misc/../font/../misc/lv_area.h ****     dest->x2 = src->x2;
 806              		.loc 3 124 5 is_stmt 1 view .LVU252
 807              		.loc 3 124 19 is_stmt 0 view .LVU253
 808 0080 B4F918E0 		ldrsh	lr, [r4, #24]
 809              		.loc 3 124 14 view .LVU254
 810 0084 ADF844E0 		strh	lr, [sp, #68]	@ movhi
 125:Middlewares/lvgl/src/core/../misc/../font/../misc/lv_area.h ****     dest->y2 = src->y2;
 811              		.loc 3 125 5 is_stmt 1 view .LVU255
 812              		.loc 3 125 19 is_stmt 0 view .LVU256
 813 0088 B4F91AC0 		ldrsh	ip, [r4, #26]
 814              		.loc 3 125 14 view .LVU257
 815 008c ADF846C0 		strh	ip, [sp, #70]	@ movhi
 816              	.LVL79:
 817              		.loc 3 125 14 view .LVU258
 818              	.LBE128:
 819              	.LBE127:
 438:Middlewares/lvgl/src/core/lv_obj.c ****         coords.x2 += w;
 820              		.loc 1 438 9 is_stmt 1 view .LVU259
 438:Middlewares/lvgl/src/core/lv_obj.c ****         coords.x2 += w;
 821              		.loc 1 438 19 is_stmt 0 view .LVU260
 822 0090 B3B2     		uxth	r3, r6
 823 0092 C91A     		subs	r1, r1, r3
 824 0094 ADF84010 		strh	r1, [sp, #64]	@ movhi
 439:Middlewares/lvgl/src/core/lv_obj.c ****         coords.y1 -= h;
 825              		.loc 1 439 9 is_stmt 1 view .LVU261
 439:Middlewares/lvgl/src/core/lv_obj.c ****         coords.y1 -= h;
 826              		.loc 1 439 19 is_stmt 0 view .LVU262
 827 0098 7344     		add	r3, r3, lr
 828 009a ADF84430 		strh	r3, [sp, #68]	@ movhi
 440:Middlewares/lvgl/src/core/lv_obj.c ****         coords.y2 += h;
 829              		.loc 1 440 9 is_stmt 1 view .LVU263
 440:Middlewares/lvgl/src/core/lv_obj.c ****         coords.y2 += h;
 830              		.loc 1 440 19 is_stmt 0 view .LVU264
 831 009e 80B2     		uxth	r0, r0
 440:Middlewares/lvgl/src/core/lv_obj.c ****         coords.y2 += h;
 832              		.loc 1 440 19 view .LVU265
 833 00a0 121A     		subs	r2, r2, r0
 834 00a2 ADF84220 		strh	r2, [sp, #66]	@ movhi
 441:Middlewares/lvgl/src/core/lv_obj.c **** 
 835              		.loc 1 441 9 is_stmt 1 view .LVU266
 441:Middlewares/lvgl/src/core/lv_obj.c **** 
 836              		.loc 1 441 19 is_stmt 0 view .LVU267
ARM GAS  /tmp/ccyhZZXZ.s 			page 44


 837 00a6 6044     		add	r0, r0, ip
 838              	.LVL80:
 441:Middlewares/lvgl/src/core/lv_obj.c **** 
 839              		.loc 1 441 19 view .LVU268
 840 00a8 ADF84600 		strh	r0, [sp, #70]	@ movhi
 443:Middlewares/lvgl/src/core/lv_obj.c ****             info->res = LV_COVER_RES_NOT_COVER;
 841              		.loc 1 443 9 is_stmt 1 view .LVU269
 443:Middlewares/lvgl/src/core/lv_obj.c ****             info->res = LV_COVER_RES_NOT_COVER;
 842              		.loc 1 443 12 is_stmt 0 view .LVU270
 843 00ac 3A46     		mov	r2, r7
 844 00ae 10A9     		add	r1, sp, #64
 845 00b0 6868     		ldr	r0, [r5, #4]
 846 00b2 FFF7FEFF 		bl	_lv_area_is_in
 847              	.LVL81:
 443:Middlewares/lvgl/src/core/lv_obj.c ****             info->res = LV_COVER_RES_NOT_COVER;
 848              		.loc 1 443 11 view .LVU271
 849 00b6 10B9     		cbnz	r0, .L39
 444:Middlewares/lvgl/src/core/lv_obj.c ****            return;
 850              		.loc 1 444 13 is_stmt 1 view .LVU272
 444:Middlewares/lvgl/src/core/lv_obj.c ****            return;
 851              		.loc 1 444 23 is_stmt 0 view .LVU273
 852 00b8 0123     		movs	r3, #1
 853 00ba 2B70     		strb	r3, [r5]
 445:Middlewares/lvgl/src/core/lv_obj.c ****         }
 854              		.loc 1 445 12 is_stmt 1 view .LVU274
 855 00bc B2E7     		b	.L35
 856              	.L39:
 448:Middlewares/lvgl/src/core/lv_obj.c ****             info->res = LV_COVER_RES_NOT_COVER;
 857              		.loc 1 448 9 view .LVU275
 858              	.LVL82:
 859              	.LBB129:
 860              	.LBI129:
 205:Middlewares/lvgl/src/core/lv_obj_style_gen.h **** {
 861              		.loc 2 205 24 view .LVU276
 862              	.LBB130:
 207:Middlewares/lvgl/src/core/lv_obj_style_gen.h ****     return (lv_opa_t)v.num;
 863              		.loc 2 207 5 view .LVU277
 207:Middlewares/lvgl/src/core/lv_obj_style_gen.h ****     return (lv_opa_t)v.num;
 864              		.loc 2 207 26 is_stmt 0 view .LVU278
 865 00be 2122     		movs	r2, #33
 866 00c0 0021     		movs	r1, #0
 867 00c2 2046     		mov	r0, r4
 868 00c4 FFF7FEFF 		bl	lv_obj_get_style_prop
 869              	.LVL83:
 208:Middlewares/lvgl/src/core/lv_obj_style_gen.h **** }
 870              		.loc 2 208 5 is_stmt 1 view .LVU279
 208:Middlewares/lvgl/src/core/lv_obj_style_gen.h **** }
 871              		.loc 2 208 12 is_stmt 0 view .LVU280
 872 00c8 C0B2     		uxtb	r0, r0
 873              	.LVL84:
 208:Middlewares/lvgl/src/core/lv_obj_style_gen.h **** }
 874              		.loc 2 208 12 view .LVU281
 875              	.LBE130:
 876              	.LBE129:
 448:Middlewares/lvgl/src/core/lv_obj.c ****             info->res = LV_COVER_RES_NOT_COVER;
 877              		.loc 1 448 11 view .LVU282
 878 00ca FC28     		cmp	r0, #252
ARM GAS  /tmp/ccyhZZXZ.s 			page 45


 879 00cc 02D8     		bhi	.L40
 449:Middlewares/lvgl/src/core/lv_obj.c ****             return;
 880              		.loc 1 449 13 is_stmt 1 view .LVU283
 449:Middlewares/lvgl/src/core/lv_obj.c ****             return;
 881              		.loc 1 449 23 is_stmt 0 view .LVU284
 882 00ce 0123     		movs	r3, #1
 883 00d0 2B70     		strb	r3, [r5]
 450:Middlewares/lvgl/src/core/lv_obj.c ****         }
 884              		.loc 1 450 13 is_stmt 1 view .LVU285
 885 00d2 A7E7     		b	.L35
 886              	.L40:
 454:Middlewares/lvgl/src/core/lv_obj.c ****             info->res = LV_COVER_RES_NOT_COVER;
 887              		.loc 1 454 9 view .LVU286
 888              	.LVL85:
 889              	.LBB131:
 890              	.LBI131:
 175:Middlewares/lvgl/src/core/lv_obj_style_gen.h **** {
 891              		.loc 2 175 31 view .LVU287
 892              	.LBB132:
 177:Middlewares/lvgl/src/core/lv_obj_style_gen.h ****     return (lv_blend_mode_t)v.num;
 893              		.loc 2 177 5 view .LVU288
 177:Middlewares/lvgl/src/core/lv_obj_style_gen.h ****     return (lv_blend_mode_t)v.num;
 894              		.loc 2 177 26 is_stmt 0 view .LVU289
 895 00d4 6822     		movs	r2, #104
 896 00d6 0021     		movs	r1, #0
 897 00d8 2046     		mov	r0, r4
 898 00da FFF7FEFF 		bl	lv_obj_get_style_prop
 899              	.LVL86:
 178:Middlewares/lvgl/src/core/lv_obj_style_gen.h **** }
 900              		.loc 2 178 5 is_stmt 1 view .LVU290
 178:Middlewares/lvgl/src/core/lv_obj_style_gen.h **** }
 901              		.loc 2 178 5 is_stmt 0 view .LVU291
 902              	.LBE132:
 903              	.LBE131:
 454:Middlewares/lvgl/src/core/lv_obj.c ****             info->res = LV_COVER_RES_NOT_COVER;
 904              		.loc 1 454 11 view .LVU292
 905 00de 10F0FF0F 		tst	r0, #255
 906 00e2 02D0     		beq	.L41
 455:Middlewares/lvgl/src/core/lv_obj.c ****             return;
 907              		.loc 1 455 13 is_stmt 1 view .LVU293
 455:Middlewares/lvgl/src/core/lv_obj.c ****             return;
 908              		.loc 1 455 23 is_stmt 0 view .LVU294
 909 00e4 0123     		movs	r3, #1
 910 00e6 2B70     		strb	r3, [r5]
 456:Middlewares/lvgl/src/core/lv_obj.c ****         }
 911              		.loc 1 456 13 is_stmt 1 view .LVU295
 912 00e8 9CE7     		b	.L35
 913              	.L41:
 459:Middlewares/lvgl/src/core/lv_obj.c ****             info->res = LV_COVER_RES_NOT_COVER;
 914              		.loc 1 459 9 view .LVU296
 915              	.LVL87:
 916              	.LBB133:
 917              	.LBI133:
 139:Middlewares/lvgl/src/core/lv_obj_style_gen.h **** {
 918              		.loc 2 139 24 view .LVU297
 919              	.LBB134:
 141:Middlewares/lvgl/src/core/lv_obj_style_gen.h ****     return (lv_opa_t)v.num;
ARM GAS  /tmp/ccyhZZXZ.s 			page 46


 920              		.loc 2 141 5 view .LVU298
 141:Middlewares/lvgl/src/core/lv_obj_style_gen.h ****     return (lv_opa_t)v.num;
 921              		.loc 2 141 26 is_stmt 0 view .LVU299
 922 00ea 40F26242 		movw	r2, #1122
 923 00ee 0021     		movs	r1, #0
 924 00f0 2046     		mov	r0, r4
 925 00f2 FFF7FEFF 		bl	lv_obj_get_style_prop
 926              	.LVL88:
 142:Middlewares/lvgl/src/core/lv_obj_style_gen.h **** }
 927              		.loc 2 142 5 is_stmt 1 view .LVU300
 142:Middlewares/lvgl/src/core/lv_obj_style_gen.h **** }
 928              		.loc 2 142 12 is_stmt 0 view .LVU301
 929 00f6 C3B2     		uxtb	r3, r0
 930              	.LVL89:
 142:Middlewares/lvgl/src/core/lv_obj_style_gen.h **** }
 931              		.loc 2 142 12 view .LVU302
 932              	.LBE134:
 933              	.LBE133:
 459:Middlewares/lvgl/src/core/lv_obj.c ****             info->res = LV_COVER_RES_NOT_COVER;
 934              		.loc 1 459 11 view .LVU303
 935 00f8 FC2B     		cmp	r3, #252
 936 00fa 02D9     		bls	.L52
 464:Middlewares/lvgl/src/core/lv_obj.c **** 
 937              		.loc 1 464 9 is_stmt 1 view .LVU304
 464:Middlewares/lvgl/src/core/lv_obj.c **** 
 938              		.loc 1 464 19 is_stmt 0 view .LVU305
 939 00fc 0023     		movs	r3, #0
 940 00fe 2B70     		strb	r3, [r5]
 941              	.LBE118:
 942 0100 90E7     		b	.L35
 943              	.L52:
 944              	.LBB135:
 460:Middlewares/lvgl/src/core/lv_obj.c ****             return;
 945              		.loc 1 460 13 is_stmt 1 view .LVU306
 460:Middlewares/lvgl/src/core/lv_obj.c ****             return;
 946              		.loc 1 460 23 is_stmt 0 view .LVU307
 947 0102 0123     		movs	r3, #1
 948 0104 2B70     		strb	r3, [r5]
 461:Middlewares/lvgl/src/core/lv_obj.c ****         }
 949              		.loc 1 461 13 is_stmt 1 view .LVU308
 950 0106 8DE7     		b	.L35
 951              	.LVL90:
 952              	.L50:
 461:Middlewares/lvgl/src/core/lv_obj.c ****         }
 953              		.loc 1 461 13 is_stmt 0 view .LVU309
 954              	.LBE135:
 955              	.LBB136:
 468:Middlewares/lvgl/src/core/lv_obj.c ****         lv_draw_rect_dsc_t draw_dsc;
 956              		.loc 1 468 9 is_stmt 1 view .LVU310
 468:Middlewares/lvgl/src/core/lv_obj.c ****         lv_draw_rect_dsc_t draw_dsc;
 957              		.loc 1 468 39 is_stmt 0 view .LVU311
 958 0108 3046     		mov	r0, r6
 959              	.LVL91:
 468:Middlewares/lvgl/src/core/lv_obj.c ****         lv_draw_rect_dsc_t draw_dsc;
 960              		.loc 1 468 39 view .LVU312
 961 010a FFF7FEFF 		bl	lv_event_get_param
 962              	.LVL92:
ARM GAS  /tmp/ccyhZZXZ.s 			page 47


 963 010e 0646     		mov	r6, r0
 964              	.LVL93:
 469:Middlewares/lvgl/src/core/lv_obj.c ****         lv_draw_rect_dsc_init(&draw_dsc);
 965              		.loc 1 469 9 is_stmt 1 view .LVU313
 470:Middlewares/lvgl/src/core/lv_obj.c ****         /*If the border is drawn later disable loading its properties*/
 966              		.loc 1 470 9 view .LVU314
 967 0110 03A8     		add	r0, sp, #12
 968              	.LVL94:
 470:Middlewares/lvgl/src/core/lv_obj.c ****         /*If the border is drawn later disable loading its properties*/
 969              		.loc 1 470 9 is_stmt 0 view .LVU315
 970 0112 FFF7FEFF 		bl	lv_draw_rect_dsc_init
 971              	.LVL95:
 472:Middlewares/lvgl/src/core/lv_obj.c ****             draw_dsc.border_post = 1;
 972              		.loc 1 472 9 is_stmt 1 view .LVU316
 973              	.LBB137:
 974              	.LBI137:
 307:Middlewares/lvgl/src/core/lv_obj_style_gen.h **** {
 975              		.loc 2 307 20 view .LVU317
 976              	.LBB138:
 309:Middlewares/lvgl/src/core/lv_obj_style_gen.h ****     return (bool)v.num;
 977              		.loc 2 309 5 view .LVU318
 309:Middlewares/lvgl/src/core/lv_obj_style_gen.h ****     return (bool)v.num;
 978              		.loc 2 309 26 is_stmt 0 view .LVU319
 979 0116 3422     		movs	r2, #52
 980 0118 0021     		movs	r1, #0
 981 011a 2046     		mov	r0, r4
 982 011c FFF7FEFF 		bl	lv_obj_get_style_prop
 983              	.LVL96:
 310:Middlewares/lvgl/src/core/lv_obj_style_gen.h **** }
 984              		.loc 2 310 5 is_stmt 1 view .LVU320
 310:Middlewares/lvgl/src/core/lv_obj_style_gen.h **** }
 985              		.loc 2 310 5 is_stmt 0 view .LVU321
 986              	.LBE138:
 987              	.LBE137:
 472:Middlewares/lvgl/src/core/lv_obj.c ****             draw_dsc.border_post = 1;
 988              		.loc 1 472 11 view .LVU322
 989 0120 28B1     		cbz	r0, .L45
 473:Middlewares/lvgl/src/core/lv_obj.c ****         }
 990              		.loc 1 473 13 is_stmt 1 view .LVU323
 473:Middlewares/lvgl/src/core/lv_obj.c ****         }
 991              		.loc 1 473 34 is_stmt 0 view .LVU324
 992 0122 9DF82B30 		ldrb	r3, [sp, #43]	@ zero_extendqisi2
 993 0126 43F00103 		orr	r3, r3, #1
 994 012a 8DF82B30 		strb	r3, [sp, #43]
 995              	.L45:
 476:Middlewares/lvgl/src/core/lv_obj.c **** 
 996              		.loc 1 476 9 is_stmt 1 view .LVU325
 997 012e 03AF     		add	r7, sp, #12
 998 0130 3A46     		mov	r2, r7
 999 0132 0021     		movs	r1, #0
 1000 0134 2046     		mov	r0, r4
 1001 0136 FFF7FEFF 		bl	lv_obj_init_draw_rect_dsc
 1002              	.LVL97:
 478:Middlewares/lvgl/src/core/lv_obj.c ****         lv_coord_t h = lv_obj_get_style_transform_height(obj, LV_PART_MAIN);
 1003              		.loc 1 478 9 view .LVU326
 1004              	.LBB139:
 1005              	.LBI139:
ARM GAS  /tmp/ccyhZZXZ.s 			page 48


  55:Middlewares/lvgl/src/core/lv_obj_style_gen.h **** {
 1006              		.loc 2 55 26 view .LVU327
 1007              	.LBB140:
  57:Middlewares/lvgl/src/core/lv_obj_style_gen.h ****     return (lv_coord_t)v.num;
 1008              		.loc 2 57 5 view .LVU328
  57:Middlewares/lvgl/src/core/lv_obj_style_gen.h ****     return (lv_coord_t)v.num;
 1009              		.loc 2 57 26 is_stmt 0 view .LVU329
 1010 013a 40F60A02 		movw	r2, #2058
 1011 013e 0021     		movs	r1, #0
 1012 0140 2046     		mov	r0, r4
 1013 0142 FFF7FEFF 		bl	lv_obj_get_style_prop
 1014              	.LVL98:
 1015 0146 0546     		mov	r5, r0
 1016              	.LVL99:
  58:Middlewares/lvgl/src/core/lv_obj_style_gen.h **** }
 1017              		.loc 2 58 5 is_stmt 1 view .LVU330
  58:Middlewares/lvgl/src/core/lv_obj_style_gen.h **** }
 1018              		.loc 2 58 5 is_stmt 0 view .LVU331
 1019              	.LBE140:
 1020              	.LBE139:
 479:Middlewares/lvgl/src/core/lv_obj.c ****         lv_area_t coords;
 1021              		.loc 1 479 9 is_stmt 1 view .LVU332
 1022              	.LBB141:
 1023              	.LBI141:
  61:Middlewares/lvgl/src/core/lv_obj_style_gen.h **** {
 1024              		.loc 2 61 26 view .LVU333
 1025              	.LBB142:
  63:Middlewares/lvgl/src/core/lv_obj_style_gen.h ****     return (lv_coord_t)v.num;
 1026              		.loc 2 63 5 view .LVU334
  63:Middlewares/lvgl/src/core/lv_obj_style_gen.h ****     return (lv_coord_t)v.num;
 1027              		.loc 2 63 26 is_stmt 0 view .LVU335
 1028 0148 40F60B02 		movw	r2, #2059
 1029 014c 0021     		movs	r1, #0
 1030 014e 2046     		mov	r0, r4
 1031 0150 FFF7FEFF 		bl	lv_obj_get_style_prop
 1032              	.LVL100:
  64:Middlewares/lvgl/src/core/lv_obj_style_gen.h **** }
 1033              		.loc 2 64 5 is_stmt 1 view .LVU336
  64:Middlewares/lvgl/src/core/lv_obj_style_gen.h **** }
 1034              		.loc 2 64 5 is_stmt 0 view .LVU337
 1035              	.LBE142:
 1036              	.LBE141:
 480:Middlewares/lvgl/src/core/lv_obj.c ****         lv_area_copy(&coords, &obj->coords);
 1037              		.loc 1 480 9 is_stmt 1 view .LVU338
 481:Middlewares/lvgl/src/core/lv_obj.c ****         coords.x1 -= w;
 1038              		.loc 1 481 9 view .LVU339
 1039              	.LBB143:
 1040              	.LBI143:
 120:Middlewares/lvgl/src/core/../misc/../font/../misc/lv_area.h **** {
 1041              		.loc 3 120 20 view .LVU340
 1042              	.LBB144:
 122:Middlewares/lvgl/src/core/../misc/../font/../misc/lv_area.h ****     dest->y1 = src->y1;
 1043              		.loc 3 122 5 view .LVU341
 122:Middlewares/lvgl/src/core/../misc/../font/../misc/lv_area.h ****     dest->y1 = src->y1;
 1044              		.loc 3 122 19 is_stmt 0 view .LVU342
 1045 0154 B4F914C0 		ldrsh	ip, [r4, #20]
 122:Middlewares/lvgl/src/core/../misc/../font/../misc/lv_area.h ****     dest->y1 = src->y1;
ARM GAS  /tmp/ccyhZZXZ.s 			page 49


 1046              		.loc 3 122 14 view .LVU343
 1047 0158 ADF804C0 		strh	ip, [sp, #4]	@ movhi
 123:Middlewares/lvgl/src/core/../misc/../font/../misc/lv_area.h ****     dest->x2 = src->x2;
 1048              		.loc 3 123 5 is_stmt 1 view .LVU344
 123:Middlewares/lvgl/src/core/../misc/../font/../misc/lv_area.h ****     dest->x2 = src->x2;
 1049              		.loc 3 123 19 is_stmt 0 view .LVU345
 1050 015c B4F91610 		ldrsh	r1, [r4, #22]
 123:Middlewares/lvgl/src/core/../misc/../font/../misc/lv_area.h ****     dest->x2 = src->x2;
 1051              		.loc 3 123 14 view .LVU346
 1052 0160 ADF80610 		strh	r1, [sp, #6]	@ movhi
 124:Middlewares/lvgl/src/core/../misc/../font/../misc/lv_area.h ****     dest->y2 = src->y2;
 1053              		.loc 3 124 5 is_stmt 1 view .LVU347
 124:Middlewares/lvgl/src/core/../misc/../font/../misc/lv_area.h ****     dest->y2 = src->y2;
 1054              		.loc 3 124 19 is_stmt 0 view .LVU348
 1055 0164 B4F91830 		ldrsh	r3, [r4, #24]
 124:Middlewares/lvgl/src/core/../misc/../font/../misc/lv_area.h ****     dest->y2 = src->y2;
 1056              		.loc 3 124 14 view .LVU349
 1057 0168 ADF80830 		strh	r3, [sp, #8]	@ movhi
 1058              		.loc 3 125 5 is_stmt 1 view .LVU350
 1059              		.loc 3 125 19 is_stmt 0 view .LVU351
 1060 016c B4F91AE0 		ldrsh	lr, [r4, #26]
 1061              		.loc 3 125 14 view .LVU352
 1062 0170 ADF80AE0 		strh	lr, [sp, #10]	@ movhi
 1063              	.LVL101:
 1064              		.loc 3 125 14 view .LVU353
 1065              	.LBE144:
 1066              	.LBE143:
 482:Middlewares/lvgl/src/core/lv_obj.c ****         coords.x2 += w;
 1067              		.loc 1 482 9 is_stmt 1 view .LVU354
 482:Middlewares/lvgl/src/core/lv_obj.c ****         coords.x2 += w;
 1068              		.loc 1 482 19 is_stmt 0 view .LVU355
 1069 0174 AAB2     		uxth	r2, r5
 1070 0176 ACEB020C 		sub	ip, ip, r2
 1071 017a ADF804C0 		strh	ip, [sp, #4]	@ movhi
 483:Middlewares/lvgl/src/core/lv_obj.c ****         coords.y1 -= h;
 1072              		.loc 1 483 9 is_stmt 1 view .LVU356
 483:Middlewares/lvgl/src/core/lv_obj.c ****         coords.y1 -= h;
 1073              		.loc 1 483 19 is_stmt 0 view .LVU357
 1074 017e 1A44     		add	r2, r2, r3
 1075 0180 ADF80820 		strh	r2, [sp, #8]	@ movhi
 484:Middlewares/lvgl/src/core/lv_obj.c ****         coords.y2 += h;
 1076              		.loc 1 484 9 is_stmt 1 view .LVU358
 484:Middlewares/lvgl/src/core/lv_obj.c ****         coords.y2 += h;
 1077              		.loc 1 484 19 is_stmt 0 view .LVU359
 1078 0184 83B2     		uxth	r3, r0
 1079 0186 C91A     		subs	r1, r1, r3
 1080 0188 ADF80610 		strh	r1, [sp, #6]	@ movhi
 485:Middlewares/lvgl/src/core/lv_obj.c **** 
 1081              		.loc 1 485 9 is_stmt 1 view .LVU360
 485:Middlewares/lvgl/src/core/lv_obj.c **** 
 1082              		.loc 1 485 19 is_stmt 0 view .LVU361
 1083 018c 7344     		add	r3, r3, lr
 1084 018e ADF80A30 		strh	r3, [sp, #10]	@ movhi
 488:Middlewares/lvgl/src/core/lv_obj.c ****         lv_obj_draw_dsc_init(&part_dsc, clip_area);
 1085              		.loc 1 488 9 is_stmt 1 view .LVU362
 489:Middlewares/lvgl/src/core/lv_obj.c ****         part_dsc.rect_dsc = &draw_dsc;
 1086              		.loc 1 489 9 view .LVU363
ARM GAS  /tmp/ccyhZZXZ.s 			page 50


 1087 0192 3146     		mov	r1, r6
 1088 0194 10A8     		add	r0, sp, #64
 1089              	.LVL102:
 489:Middlewares/lvgl/src/core/lv_obj.c ****         part_dsc.rect_dsc = &draw_dsc;
 1090              		.loc 1 489 9 is_stmt 0 view .LVU364
 1091 0196 FFF7FEFF 		bl	lv_obj_draw_dsc_init
 1092              	.LVL103:
 490:Middlewares/lvgl/src/core/lv_obj.c ****         part_dsc.draw_area = &coords;
 1093              		.loc 1 490 9 is_stmt 1 view .LVU365
 490:Middlewares/lvgl/src/core/lv_obj.c ****         part_dsc.draw_area = &coords;
 1094              		.loc 1 490 27 is_stmt 0 view .LVU366
 1095 019a 1297     		str	r7, [sp, #72]
 491:Middlewares/lvgl/src/core/lv_obj.c ****         part_dsc.part = LV_PART_MAIN;
 1096              		.loc 1 491 9 is_stmt 1 view .LVU367
 491:Middlewares/lvgl/src/core/lv_obj.c ****         part_dsc.part = LV_PART_MAIN;
 1097              		.loc 1 491 28 is_stmt 0 view .LVU368
 1098 019c 0DF10408 		add	r8, sp, #4
 1099 01a0 CDF84480 		str	r8, [sp, #68]
 492:Middlewares/lvgl/src/core/lv_obj.c ****         lv_event_send(obj, LV_EVENT_DRAW_PART_BEGIN, &part_dsc);
 1100              		.loc 1 492 9 is_stmt 1 view .LVU369
 492:Middlewares/lvgl/src/core/lv_obj.c ****         lv_event_send(obj, LV_EVENT_DRAW_PART_BEGIN, &part_dsc);
 1101              		.loc 1 492 23 is_stmt 0 view .LVU370
 1102 01a4 0025     		movs	r5, #0
 1103              	.LVL104:
 492:Middlewares/lvgl/src/core/lv_obj.c ****         lv_event_send(obj, LV_EVENT_DRAW_PART_BEGIN, &part_dsc);
 1104              		.loc 1 492 23 view .LVU371
 1105 01a6 1D95     		str	r5, [sp, #116]
 493:Middlewares/lvgl/src/core/lv_obj.c **** 
 1106              		.loc 1 493 9 is_stmt 1 view .LVU372
 1107 01a8 10AA     		add	r2, sp, #64
 1108 01aa 1A21     		movs	r1, #26
 1109 01ac 2046     		mov	r0, r4
 1110 01ae FFF7FEFF 		bl	lv_event_send
 1111              	.LVL105:
 495:Middlewares/lvgl/src/core/lv_obj.c **** 
 1112              		.loc 1 495 9 view .LVU373
 1113 01b2 3A46     		mov	r2, r7
 1114 01b4 3146     		mov	r1, r6
 1115 01b6 4046     		mov	r0, r8
 1116 01b8 FFF7FEFF 		bl	lv_draw_rect
 1117              	.LVL106:
 497:Middlewares/lvgl/src/core/lv_obj.c **** 
 1118              		.loc 1 497 9 view .LVU374
 1119 01bc 10AA     		add	r2, sp, #64
 1120 01be 1B21     		movs	r1, #27
 1121 01c0 2046     		mov	r0, r4
 1122 01c2 FFF7FEFF 		bl	lv_event_send
 1123              	.LVL107:
 500:Middlewares/lvgl/src/core/lv_obj.c ****             lv_draw_mask_radius_param_t * mp = lv_mem_buf_get(sizeof(lv_draw_mask_radius_param_t));
 1124              		.loc 1 500 9 view .LVU375
 1125              	.LBB145:
 1126              	.LBI145:
 133:Middlewares/lvgl/src/core/lv_obj_style_gen.h **** {
 1127              		.loc 2 133 20 view .LVU376
 1128              	.LBB146:
 135:Middlewares/lvgl/src/core/lv_obj_style_gen.h ****     return (bool)v.num;
 1129              		.loc 2 135 5 view .LVU377
ARM GAS  /tmp/ccyhZZXZ.s 			page 51


 135:Middlewares/lvgl/src/core/lv_obj_style_gen.h ****     return (bool)v.num;
 1130              		.loc 2 135 26 is_stmt 0 view .LVU378
 1131 01c6 6122     		movs	r2, #97
 1132 01c8 2946     		mov	r1, r5
 1133 01ca 2046     		mov	r0, r4
 1134 01cc FFF7FEFF 		bl	lv_obj_get_style_prop
 1135              	.LVL108:
 136:Middlewares/lvgl/src/core/lv_obj_style_gen.h **** }
 1136              		.loc 2 136 5 is_stmt 1 view .LVU379
 136:Middlewares/lvgl/src/core/lv_obj_style_gen.h **** }
 1137              		.loc 2 136 5 is_stmt 0 view .LVU380
 1138              	.LBE146:
 1139              	.LBE145:
 500:Middlewares/lvgl/src/core/lv_obj.c ****             lv_draw_mask_radius_param_t * mp = lv_mem_buf_get(sizeof(lv_draw_mask_radius_param_t));
 1140              		.loc 1 500 11 view .LVU381
 1141 01d0 0028     		cmp	r0, #0
 1142 01d2 3FF427AF 		beq	.L35
 1143              	.LBB147:
 501:Middlewares/lvgl/src/core/lv_obj.c ****             lv_coord_t r = lv_obj_get_style_radius(obj, LV_PART_MAIN);
 1144              		.loc 1 501 13 is_stmt 1 view .LVU382
 501:Middlewares/lvgl/src/core/lv_obj.c ****             lv_coord_t r = lv_obj_get_style_radius(obj, LV_PART_MAIN);
 1145              		.loc 1 501 48 is_stmt 0 view .LVU383
 1146 01d6 1C20     		movs	r0, #28
 1147 01d8 FFF7FEFF 		bl	lv_mem_buf_get
 1148              	.LVL109:
 1149 01dc 0546     		mov	r5, r0
 1150              	.LVL110:
 502:Middlewares/lvgl/src/core/lv_obj.c ****             lv_draw_mask_radius_init(mp, &obj->coords, r, false);
 1151              		.loc 1 502 13 is_stmt 1 view .LVU384
 1152              	.LBB148:
 1153              	.LBI148:
 127:Middlewares/lvgl/src/core/lv_obj_style_gen.h **** {
 1154              		.loc 2 127 26 view .LVU385
 1155              	.LBB149:
 129:Middlewares/lvgl/src/core/lv_obj_style_gen.h ****     return (lv_coord_t)v.num;
 1156              		.loc 2 129 5 view .LVU386
 129:Middlewares/lvgl/src/core/lv_obj_style_gen.h ****     return (lv_coord_t)v.num;
 1157              		.loc 2 129 26 is_stmt 0 view .LVU387
 1158 01de 6022     		movs	r2, #96
 1159 01e0 0021     		movs	r1, #0
 1160 01e2 2046     		mov	r0, r4
 1161              	.LVL111:
 129:Middlewares/lvgl/src/core/lv_obj_style_gen.h ****     return (lv_coord_t)v.num;
 1162              		.loc 2 129 26 view .LVU388
 1163 01e4 FFF7FEFF 		bl	lv_obj_get_style_prop
 1164              	.LVL112:
 130:Middlewares/lvgl/src/core/lv_obj_style_gen.h **** }
 1165              		.loc 2 130 5 is_stmt 1 view .LVU389
 130:Middlewares/lvgl/src/core/lv_obj_style_gen.h **** }
 1166              		.loc 2 130 5 is_stmt 0 view .LVU390
 1167              	.LBE149:
 1168              	.LBE148:
 503:Middlewares/lvgl/src/core/lv_obj.c ****             /*Add the mask and use `obj+8` as custom id. Don't use `obj` directly because it might 
 1169              		.loc 1 503 13 is_stmt 1 view .LVU391
 1170 01e8 0023     		movs	r3, #0
 1171 01ea 02B2     		sxth	r2, r0
 1172 01ec 04F11401 		add	r1, r4, #20
ARM GAS  /tmp/ccyhZZXZ.s 			page 52


 1173 01f0 2846     		mov	r0, r5
 1174              	.LVL113:
 503:Middlewares/lvgl/src/core/lv_obj.c ****             /*Add the mask and use `obj+8` as custom id. Don't use `obj` directly because it might 
 1175              		.loc 1 503 13 is_stmt 0 view .LVU392
 1176 01f2 FFF7FEFF 		bl	lv_draw_mask_radius_init
 1177              	.LVL114:
 505:Middlewares/lvgl/src/core/lv_obj.c ****         }
 1178              		.loc 1 505 13 is_stmt 1 view .LVU393
 1179 01f6 04F59071 		add	r1, r4, #288
 1180 01fa 2846     		mov	r0, r5
 1181 01fc FFF7FEFF 		bl	lv_draw_mask_add
 1182              	.LVL115:
 1183 0200 10E7     		b	.L35
 1184              	.LVL116:
 1185              	.L51:
 505:Middlewares/lvgl/src/core/lv_obj.c ****         }
 1186              		.loc 1 505 13 is_stmt 0 view .LVU394
 1187              	.LBE147:
 1188              	.LBE136:
 1189              	.LBB150:
 510:Middlewares/lvgl/src/core/lv_obj.c ****         draw_scrollbar(obj, clip_area);
 1190              		.loc 1 510 9 is_stmt 1 view .LVU395
 510:Middlewares/lvgl/src/core/lv_obj.c ****         draw_scrollbar(obj, clip_area);
 1191              		.loc 1 510 39 is_stmt 0 view .LVU396
 1192 0202 3046     		mov	r0, r6
 1193              	.LVL117:
 510:Middlewares/lvgl/src/core/lv_obj.c ****         draw_scrollbar(obj, clip_area);
 1194              		.loc 1 510 39 view .LVU397
 1195 0204 FFF7FEFF 		bl	lv_event_get_param
 1196              	.LVL118:
 1197 0208 0546     		mov	r5, r0
 1198              	.LVL119:
 511:Middlewares/lvgl/src/core/lv_obj.c **** 
 1199              		.loc 1 511 9 is_stmt 1 view .LVU398
 1200 020a 0146     		mov	r1, r0
 1201 020c 2046     		mov	r0, r4
 1202              	.LVL120:
 511:Middlewares/lvgl/src/core/lv_obj.c **** 
 1203              		.loc 1 511 9 is_stmt 0 view .LVU399
 1204 020e FFF7FEFF 		bl	draw_scrollbar
 1205              	.LVL121:
 514:Middlewares/lvgl/src/core/lv_obj.c ****             lv_draw_mask_radius_param_t * param = lv_draw_mask_remove_custom(obj + 8);
 1206              		.loc 1 514 9 is_stmt 1 view .LVU400
 1207              	.LBB151:
 1208              	.LBI151:
 133:Middlewares/lvgl/src/core/lv_obj_style_gen.h **** {
 1209              		.loc 2 133 20 view .LVU401
 1210              	.LBB152:
 135:Middlewares/lvgl/src/core/lv_obj_style_gen.h ****     return (bool)v.num;
 1211              		.loc 2 135 5 view .LVU402
 135:Middlewares/lvgl/src/core/lv_obj_style_gen.h ****     return (bool)v.num;
 1212              		.loc 2 135 26 is_stmt 0 view .LVU403
 1213 0212 6122     		movs	r2, #97
 1214 0214 0021     		movs	r1, #0
 1215 0216 2046     		mov	r0, r4
 1216 0218 FFF7FEFF 		bl	lv_obj_get_style_prop
 1217              	.LVL122:
ARM GAS  /tmp/ccyhZZXZ.s 			page 53


 136:Middlewares/lvgl/src/core/lv_obj_style_gen.h **** }
 1218              		.loc 2 136 5 is_stmt 1 view .LVU404
 136:Middlewares/lvgl/src/core/lv_obj_style_gen.h **** }
 1219              		.loc 2 136 5 is_stmt 0 view .LVU405
 1220              	.LBE152:
 1221              	.LBE151:
 514:Middlewares/lvgl/src/core/lv_obj.c ****             lv_draw_mask_radius_param_t * param = lv_draw_mask_remove_custom(obj + 8);
 1222              		.loc 1 514 11 view .LVU406
 1223 021c 0028     		cmp	r0, #0
 1224 021e 47D1     		bne	.L53
 1225              	.L47:
 521:Middlewares/lvgl/src/core/lv_obj.c ****             lv_draw_rect_dsc_t draw_dsc;
 1226              		.loc 1 521 9 is_stmt 1 view .LVU407
 1227              	.LVL123:
 1228              	.LBB153:
 1229              	.LBI153:
 307:Middlewares/lvgl/src/core/lv_obj_style_gen.h **** {
 1230              		.loc 2 307 20 view .LVU408
 1231              	.LBB154:
 309:Middlewares/lvgl/src/core/lv_obj_style_gen.h ****     return (bool)v.num;
 1232              		.loc 2 309 5 view .LVU409
 309:Middlewares/lvgl/src/core/lv_obj_style_gen.h ****     return (bool)v.num;
 1233              		.loc 2 309 26 is_stmt 0 view .LVU410
 1234 0220 3422     		movs	r2, #52
 1235 0222 0021     		movs	r1, #0
 1236 0224 2046     		mov	r0, r4
 1237 0226 FFF7FEFF 		bl	lv_obj_get_style_prop
 1238              	.LVL124:
 310:Middlewares/lvgl/src/core/lv_obj_style_gen.h **** }
 1239              		.loc 2 310 5 is_stmt 1 view .LVU411
 310:Middlewares/lvgl/src/core/lv_obj_style_gen.h **** }
 1240              		.loc 2 310 5 is_stmt 0 view .LVU412
 1241              	.LBE154:
 1242              	.LBE153:
 521:Middlewares/lvgl/src/core/lv_obj.c ****             lv_draw_rect_dsc_t draw_dsc;
 1243              		.loc 1 521 11 view .LVU413
 1244 022a 0028     		cmp	r0, #0
 1245 022c 3FF4FAAE 		beq	.L35
 1246              	.LBB155:
 522:Middlewares/lvgl/src/core/lv_obj.c ****             lv_draw_rect_dsc_init(&draw_dsc);
 1247              		.loc 1 522 13 is_stmt 1 discriminator 3 view .LVU414
 523:Middlewares/lvgl/src/core/lv_obj.c ****             draw_dsc.bg_opa = LV_OPA_TRANSP;
 1248              		.loc 1 523 13 discriminator 3 view .LVU415
 1249 0230 10A8     		add	r0, sp, #64
 1250 0232 FFF7FEFF 		bl	lv_draw_rect_dsc_init
 1251              	.LVL125:
 524:Middlewares/lvgl/src/core/lv_obj.c ****             draw_dsc.outline_opa = LV_OPA_TRANSP;
 1252              		.loc 1 524 13 discriminator 3 view .LVU416
 524:Middlewares/lvgl/src/core/lv_obj.c ****             draw_dsc.outline_opa = LV_OPA_TRANSP;
 1253              		.loc 1 524 29 is_stmt 0 discriminator 3 view .LVU417
 1254 0236 0027     		movs	r7, #0
 1255 0238 8DF84A70 		strb	r7, [sp, #74]
 525:Middlewares/lvgl/src/core/lv_obj.c ****             draw_dsc.shadow_opa = LV_OPA_TRANSP;
 1256              		.loc 1 525 13 is_stmt 1 discriminator 3 view .LVU418
 525:Middlewares/lvgl/src/core/lv_obj.c ****             draw_dsc.shadow_opa = LV_OPA_TRANSP;
 1257              		.loc 1 525 34 is_stmt 0 discriminator 3 view .LVU419
 1258 023c 8DF86670 		strb	r7, [sp, #102]
ARM GAS  /tmp/ccyhZZXZ.s 			page 54


 526:Middlewares/lvgl/src/core/lv_obj.c ****             lv_obj_init_draw_rect_dsc(obj, LV_PART_MAIN, &draw_dsc);
 1259              		.loc 1 526 13 is_stmt 1 discriminator 3 view .LVU420
 526:Middlewares/lvgl/src/core/lv_obj.c ****             lv_obj_init_draw_rect_dsc(obj, LV_PART_MAIN, &draw_dsc);
 1260              		.loc 1 526 33 is_stmt 0 discriminator 3 view .LVU421
 1261 0240 8DF87270 		strb	r7, [sp, #114]
 527:Middlewares/lvgl/src/core/lv_obj.c **** 
 1262              		.loc 1 527 13 is_stmt 1 discriminator 3 view .LVU422
 1263 0244 10AA     		add	r2, sp, #64
 1264 0246 3946     		mov	r1, r7
 1265 0248 2046     		mov	r0, r4
 1266 024a FFF7FEFF 		bl	lv_obj_init_draw_rect_dsc
 1267              	.LVL126:
 529:Middlewares/lvgl/src/core/lv_obj.c ****             lv_coord_t h = lv_obj_get_style_transform_height(obj, LV_PART_MAIN);
 1268              		.loc 1 529 13 discriminator 3 view .LVU423
 1269              	.LBB156:
 1270              	.LBI156:
  55:Middlewares/lvgl/src/core/lv_obj_style_gen.h **** {
 1271              		.loc 2 55 26 discriminator 3 view .LVU424
 1272              	.LBB157:
  57:Middlewares/lvgl/src/core/lv_obj_style_gen.h ****     return (lv_coord_t)v.num;
 1273              		.loc 2 57 5 discriminator 3 view .LVU425
  57:Middlewares/lvgl/src/core/lv_obj_style_gen.h ****     return (lv_coord_t)v.num;
 1274              		.loc 2 57 26 is_stmt 0 discriminator 3 view .LVU426
 1275 024e 40F60A02 		movw	r2, #2058
 1276 0252 3946     		mov	r1, r7
 1277 0254 2046     		mov	r0, r4
 1278 0256 FFF7FEFF 		bl	lv_obj_get_style_prop
 1279              	.LVL127:
 1280 025a 0646     		mov	r6, r0
 1281              	.LVL128:
  58:Middlewares/lvgl/src/core/lv_obj_style_gen.h **** }
 1282              		.loc 2 58 5 is_stmt 1 discriminator 3 view .LVU427
  58:Middlewares/lvgl/src/core/lv_obj_style_gen.h **** }
 1283              		.loc 2 58 5 is_stmt 0 discriminator 3 view .LVU428
 1284              	.LBE157:
 1285              	.LBE156:
 530:Middlewares/lvgl/src/core/lv_obj.c ****             lv_area_t coords;
 1286              		.loc 1 530 13 is_stmt 1 discriminator 3 view .LVU429
 1287              	.LBB158:
 1288              	.LBI158:
  61:Middlewares/lvgl/src/core/lv_obj_style_gen.h **** {
 1289              		.loc 2 61 26 discriminator 3 view .LVU430
 1290              	.LBB159:
  63:Middlewares/lvgl/src/core/lv_obj_style_gen.h ****     return (lv_coord_t)v.num;
 1291              		.loc 2 63 5 discriminator 3 view .LVU431
  63:Middlewares/lvgl/src/core/lv_obj_style_gen.h ****     return (lv_coord_t)v.num;
 1292              		.loc 2 63 26 is_stmt 0 discriminator 3 view .LVU432
 1293 025c 40F60B02 		movw	r2, #2059
 1294 0260 3946     		mov	r1, r7
 1295 0262 2046     		mov	r0, r4
 1296 0264 FFF7FEFF 		bl	lv_obj_get_style_prop
 1297              	.LVL129:
  64:Middlewares/lvgl/src/core/lv_obj_style_gen.h **** }
 1298              		.loc 2 64 5 is_stmt 1 discriminator 3 view .LVU433
  64:Middlewares/lvgl/src/core/lv_obj_style_gen.h **** }
 1299              		.loc 2 64 5 is_stmt 0 discriminator 3 view .LVU434
 1300              	.LBE159:
ARM GAS  /tmp/ccyhZZXZ.s 			page 55


 1301              	.LBE158:
 531:Middlewares/lvgl/src/core/lv_obj.c ****             lv_area_copy(&coords, &obj->coords);
 1302              		.loc 1 531 13 is_stmt 1 discriminator 3 view .LVU435
 532:Middlewares/lvgl/src/core/lv_obj.c ****             coords.x1 -= w;
 1303              		.loc 1 532 13 discriminator 3 view .LVU436
 1304              	.LBB160:
 1305              	.LBI160:
 120:Middlewares/lvgl/src/core/../misc/../font/../misc/lv_area.h **** {
 1306              		.loc 3 120 20 discriminator 3 view .LVU437
 1307              	.LBB161:
 122:Middlewares/lvgl/src/core/../misc/../font/../misc/lv_area.h ****     dest->y1 = src->y1;
 1308              		.loc 3 122 5 discriminator 3 view .LVU438
 122:Middlewares/lvgl/src/core/../misc/../font/../misc/lv_area.h ****     dest->y1 = src->y1;
 1309              		.loc 3 122 19 is_stmt 0 discriminator 3 view .LVU439
 1310 0268 B4F91410 		ldrsh	r1, [r4, #20]
 122:Middlewares/lvgl/src/core/../misc/../font/../misc/lv_area.h ****     dest->y1 = src->y1;
 1311              		.loc 3 122 14 discriminator 3 view .LVU440
 1312 026c ADF80C10 		strh	r1, [sp, #12]	@ movhi
 123:Middlewares/lvgl/src/core/../misc/../font/../misc/lv_area.h ****     dest->x2 = src->x2;
 1313              		.loc 3 123 5 is_stmt 1 discriminator 3 view .LVU441
 123:Middlewares/lvgl/src/core/../misc/../font/../misc/lv_area.h ****     dest->x2 = src->x2;
 1314              		.loc 3 123 19 is_stmt 0 discriminator 3 view .LVU442
 1315 0270 B4F91620 		ldrsh	r2, [r4, #22]
 123:Middlewares/lvgl/src/core/../misc/../font/../misc/lv_area.h ****     dest->x2 = src->x2;
 1316              		.loc 3 123 14 discriminator 3 view .LVU443
 1317 0274 ADF80E20 		strh	r2, [sp, #14]	@ movhi
 124:Middlewares/lvgl/src/core/../misc/../font/../misc/lv_area.h ****     dest->y2 = src->y2;
 1318              		.loc 3 124 5 is_stmt 1 discriminator 3 view .LVU444
 124:Middlewares/lvgl/src/core/../misc/../font/../misc/lv_area.h ****     dest->y2 = src->y2;
 1319              		.loc 3 124 19 is_stmt 0 discriminator 3 view .LVU445
 1320 0278 B4F91870 		ldrsh	r7, [r4, #24]
 124:Middlewares/lvgl/src/core/../misc/../font/../misc/lv_area.h ****     dest->y2 = src->y2;
 1321              		.loc 3 124 14 discriminator 3 view .LVU446
 1322 027c ADF81070 		strh	r7, [sp, #16]	@ movhi
 1323              		.loc 3 125 5 is_stmt 1 discriminator 3 view .LVU447
 1324              		.loc 3 125 19 is_stmt 0 discriminator 3 view .LVU448
 1325 0280 B4F91A40 		ldrsh	r4, [r4, #26]
 1326              	.LVL130:
 1327              		.loc 3 125 14 discriminator 3 view .LVU449
 1328 0284 ADF81240 		strh	r4, [sp, #18]	@ movhi
 1329              	.LVL131:
 1330              		.loc 3 125 14 discriminator 3 view .LVU450
 1331              	.LBE161:
 1332              	.LBE160:
 533:Middlewares/lvgl/src/core/lv_obj.c ****             coords.x2 += w;
 1333              		.loc 1 533 13 is_stmt 1 discriminator 3 view .LVU451
 533:Middlewares/lvgl/src/core/lv_obj.c ****             coords.x2 += w;
 1334              		.loc 1 533 23 is_stmt 0 discriminator 3 view .LVU452
 1335 0288 B3B2     		uxth	r3, r6
 1336 028a C91A     		subs	r1, r1, r3
 1337 028c ADF80C10 		strh	r1, [sp, #12]	@ movhi
 534:Middlewares/lvgl/src/core/lv_obj.c ****             coords.y1 -= h;
 1338              		.loc 1 534 13 is_stmt 1 discriminator 3 view .LVU453
 534:Middlewares/lvgl/src/core/lv_obj.c ****             coords.y1 -= h;
 1339              		.loc 1 534 23 is_stmt 0 discriminator 3 view .LVU454
 1340 0290 3B44     		add	r3, r3, r7
 1341 0292 ADF81030 		strh	r3, [sp, #16]	@ movhi
ARM GAS  /tmp/ccyhZZXZ.s 			page 56


 535:Middlewares/lvgl/src/core/lv_obj.c ****             coords.y2 += h;
 1342              		.loc 1 535 13 is_stmt 1 discriminator 3 view .LVU455
 535:Middlewares/lvgl/src/core/lv_obj.c ****             coords.y2 += h;
 1343              		.loc 1 535 23 is_stmt 0 discriminator 3 view .LVU456
 1344 0296 80B2     		uxth	r0, r0
 535:Middlewares/lvgl/src/core/lv_obj.c ****             coords.y2 += h;
 1345              		.loc 1 535 23 discriminator 3 view .LVU457
 1346 0298 121A     		subs	r2, r2, r0
 1347 029a ADF80E20 		strh	r2, [sp, #14]	@ movhi
 536:Middlewares/lvgl/src/core/lv_obj.c ****             lv_draw_rect(&coords, clip_area, &draw_dsc);
 1348              		.loc 1 536 13 is_stmt 1 discriminator 3 view .LVU458
 536:Middlewares/lvgl/src/core/lv_obj.c ****             lv_draw_rect(&coords, clip_area, &draw_dsc);
 1349              		.loc 1 536 23 is_stmt 0 discriminator 3 view .LVU459
 1350 029e 2044     		add	r0, r0, r4
 1351              	.LVL132:
 536:Middlewares/lvgl/src/core/lv_obj.c ****             lv_draw_rect(&coords, clip_area, &draw_dsc);
 1352              		.loc 1 536 23 discriminator 3 view .LVU460
 1353 02a0 ADF81200 		strh	r0, [sp, #18]	@ movhi
 537:Middlewares/lvgl/src/core/lv_obj.c ****         }
 1354              		.loc 1 537 13 is_stmt 1 discriminator 3 view .LVU461
 1355 02a4 10AA     		add	r2, sp, #64
 1356 02a6 2946     		mov	r1, r5
 1357 02a8 03A8     		add	r0, sp, #12
 1358 02aa FFF7FEFF 		bl	lv_draw_rect
 1359              	.LVL133:
 1360 02ae B9E6     		b	.L35
 1361              	.LVL134:
 1362              	.L53:
 537:Middlewares/lvgl/src/core/lv_obj.c ****         }
 1363              		.loc 1 537 13 is_stmt 0 discriminator 3 view .LVU462
 1364              	.LBE155:
 1365              	.LBB162:
 515:Middlewares/lvgl/src/core/lv_obj.c ****             lv_mem_buf_release(param);
 1366              		.loc 1 515 13 is_stmt 1 view .LVU463
 515:Middlewares/lvgl/src/core/lv_obj.c ****             lv_mem_buf_release(param);
 1367              		.loc 1 515 51 is_stmt 0 view .LVU464
 1368 02b0 04F59070 		add	r0, r4, #288
 1369 02b4 FFF7FEFF 		bl	lv_draw_mask_remove_custom
 1370              	.LVL135:
 516:Middlewares/lvgl/src/core/lv_obj.c ****         }
 1371              		.loc 1 516 13 is_stmt 1 view .LVU465
 1372 02b8 FFF7FEFF 		bl	lv_mem_buf_release
 1373              	.LVL136:
 516:Middlewares/lvgl/src/core/lv_obj.c ****         }
 1374              		.loc 1 516 13 is_stmt 0 view .LVU466
 1375 02bc B0E7     		b	.L47
 1376              	.LBE162:
 1377              	.LBE150:
 1378              		.cfi_endproc
 1379              	.LFE172:
 1381              		.section	.text.lv_obj_destructor,"ax",%progbits
 1382              		.align	1
 1383              		.syntax unified
 1384              		.thumb
 1385              		.thumb_func
 1386              		.fpu fpv4-sp-d16
 1388              	lv_obj_destructor:
ARM GAS  /tmp/ccyhZZXZ.s 			page 57


 1389              	.LVL137:
 1390              	.LFB171:
 401:Middlewares/lvgl/src/core/lv_obj.c ****     LV_UNUSED(class_p);
 1391              		.loc 1 401 1 is_stmt 1 view -0
 1392              		.cfi_startproc
 1393              		@ args = 0, pretend = 0, frame = 0
 1394              		@ frame_needed = 0, uses_anonymous_args = 0
 402:Middlewares/lvgl/src/core/lv_obj.c **** 
 1395              		.loc 1 402 5 view .LVU468
 404:Middlewares/lvgl/src/core/lv_obj.c ****         if(obj->spec_attr->children) {
 1396              		.loc 1 404 5 view .LVU469
 404:Middlewares/lvgl/src/core/lv_obj.c ****         if(obj->spec_attr->children) {
 1397              		.loc 1 404 11 is_stmt 0 view .LVU470
 1398 0000 8B68     		ldr	r3, [r1, #8]
 404:Middlewares/lvgl/src/core/lv_obj.c ****         if(obj->spec_attr->children) {
 1399              		.loc 1 404 7 view .LVU471
 1400 0002 B3B1     		cbz	r3, .L59
 401:Middlewares/lvgl/src/core/lv_obj.c ****     LV_UNUSED(class_p);
 1401              		.loc 1 401 1 view .LVU472
 1402 0004 10B5     		push	{r4, lr}
 1403              	.LCFI10:
 1404              		.cfi_def_cfa_offset 8
 1405              		.cfi_offset 4, -8
 1406              		.cfi_offset 14, -4
 1407 0006 0C46     		mov	r4, r1
 405:Middlewares/lvgl/src/core/lv_obj.c ****             lv_mem_free(obj->spec_attr->children);
 1408              		.loc 1 405 9 is_stmt 1 view .LVU473
 405:Middlewares/lvgl/src/core/lv_obj.c ****             lv_mem_free(obj->spec_attr->children);
 1409              		.loc 1 405 26 is_stmt 0 view .LVU474
 1410 0008 1868     		ldr	r0, [r3]
 1411              	.LVL138:
 405:Middlewares/lvgl/src/core/lv_obj.c ****             lv_mem_free(obj->spec_attr->children);
 1412              		.loc 1 405 11 view .LVU475
 1413 000a 20B1     		cbz	r0, .L56
 406:Middlewares/lvgl/src/core/lv_obj.c ****             obj->spec_attr->children = NULL;
 1414              		.loc 1 406 13 is_stmt 1 view .LVU476
 1415 000c FFF7FEFF 		bl	lv_mem_free
 1416              	.LVL139:
 407:Middlewares/lvgl/src/core/lv_obj.c ****         }
 1417              		.loc 1 407 13 view .LVU477
 407:Middlewares/lvgl/src/core/lv_obj.c ****         }
 1418              		.loc 1 407 16 is_stmt 0 view .LVU478
 1419 0010 A368     		ldr	r3, [r4, #8]
 407:Middlewares/lvgl/src/core/lv_obj.c ****         }
 1420              		.loc 1 407 38 view .LVU479
 1421 0012 0022     		movs	r2, #0
 1422 0014 1A60     		str	r2, [r3]
 1423              	.L56:
 409:Middlewares/lvgl/src/core/lv_obj.c ****             lv_mem_free(obj->spec_attr->event_dsc);
 1424              		.loc 1 409 9 is_stmt 1 view .LVU480
 409:Middlewares/lvgl/src/core/lv_obj.c ****             lv_mem_free(obj->spec_attr->event_dsc);
 1425              		.loc 1 409 15 is_stmt 0 view .LVU481
 1426 0016 A368     		ldr	r3, [r4, #8]
 409:Middlewares/lvgl/src/core/lv_obj.c ****             lv_mem_free(obj->spec_attr->event_dsc);
 1427              		.loc 1 409 26 view .LVU482
 1428 0018 D868     		ldr	r0, [r3, #12]
 409:Middlewares/lvgl/src/core/lv_obj.c ****             lv_mem_free(obj->spec_attr->event_dsc);
ARM GAS  /tmp/ccyhZZXZ.s 			page 58


 1429              		.loc 1 409 11 view .LVU483
 1430 001a 20B1     		cbz	r0, .L57
 410:Middlewares/lvgl/src/core/lv_obj.c ****             obj->spec_attr->event_dsc = NULL;
 1431              		.loc 1 410 13 is_stmt 1 view .LVU484
 1432 001c FFF7FEFF 		bl	lv_mem_free
 1433              	.LVL140:
 411:Middlewares/lvgl/src/core/lv_obj.c ****         }
 1434              		.loc 1 411 13 view .LVU485
 411:Middlewares/lvgl/src/core/lv_obj.c ****         }
 1435              		.loc 1 411 16 is_stmt 0 view .LVU486
 1436 0020 A368     		ldr	r3, [r4, #8]
 411:Middlewares/lvgl/src/core/lv_obj.c ****         }
 1437              		.loc 1 411 39 view .LVU487
 1438 0022 0022     		movs	r2, #0
 1439 0024 DA60     		str	r2, [r3, #12]
 1440              	.L57:
 414:Middlewares/lvgl/src/core/lv_obj.c ****         obj->spec_attr = NULL;
 1441              		.loc 1 414 9 is_stmt 1 view .LVU488
 1442 0026 A068     		ldr	r0, [r4, #8]
 1443 0028 FFF7FEFF 		bl	lv_mem_free
 1444              	.LVL141:
 415:Middlewares/lvgl/src/core/lv_obj.c ****     }
 1445              		.loc 1 415 9 view .LVU489
 415:Middlewares/lvgl/src/core/lv_obj.c ****     }
 1446              		.loc 1 415 24 is_stmt 0 view .LVU490
 1447 002c 0023     		movs	r3, #0
 1448 002e A360     		str	r3, [r4, #8]
 418:Middlewares/lvgl/src/core/lv_obj.c **** 
 1449              		.loc 1 418 1 view .LVU491
 1450 0030 10BD     		pop	{r4, pc}
 1451              	.LVL142:
 1452              	.L59:
 1453              	.LCFI11:
 1454              		.cfi_def_cfa_offset 0
 1455              		.cfi_restore 4
 1456              		.cfi_restore 14
 418:Middlewares/lvgl/src/core/lv_obj.c **** 
 1457              		.loc 1 418 1 view .LVU492
 1458 0032 7047     		bx	lr
 1459              		.cfi_endproc
 1460              	.LFE171:
 1462              		.section	.text.lv_obj_constructor,"ax",%progbits
 1463              		.align	1
 1464              		.syntax unified
 1465              		.thumb
 1466              		.thumb_func
 1467              		.fpu fpv4-sp-d16
 1469              	lv_obj_constructor:
 1470              	.LVL143:
 1471              	.LFB170:
 371:Middlewares/lvgl/src/core/lv_obj.c ****     LV_UNUSED(class_p);
 1472              		.loc 1 371 1 is_stmt 1 view -0
 1473              		.cfi_startproc
 1474              		@ args = 0, pretend = 0, frame = 0
 1475              		@ frame_needed = 0, uses_anonymous_args = 0
 371:Middlewares/lvgl/src/core/lv_obj.c ****     LV_UNUSED(class_p);
 1476              		.loc 1 371 1 is_stmt 0 view .LVU494
ARM GAS  /tmp/ccyhZZXZ.s 			page 59


 1477 0000 2DE9F041 		push	{r4, r5, r6, r7, r8, lr}
 1478              	.LCFI12:
 1479              		.cfi_def_cfa_offset 24
 1480              		.cfi_offset 4, -24
 1481              		.cfi_offset 5, -20
 1482              		.cfi_offset 6, -16
 1483              		.cfi_offset 7, -12
 1484              		.cfi_offset 8, -8
 1485              		.cfi_offset 14, -4
 1486 0004 0C46     		mov	r4, r1
 372:Middlewares/lvgl/src/core/lv_obj.c ****     LV_TRACE_OBJ_CREATE("begin");
 1487              		.loc 1 372 5 is_stmt 1 view .LVU495
 373:Middlewares/lvgl/src/core/lv_obj.c **** 
 1488              		.loc 1 373 33 view .LVU496
 375:Middlewares/lvgl/src/core/lv_obj.c ****     if(parent) {
 1489              		.loc 1 375 5 view .LVU497
 375:Middlewares/lvgl/src/core/lv_obj.c ****     if(parent) {
 1490              		.loc 1 375 16 is_stmt 0 view .LVU498
 1491 0006 4D68     		ldr	r5, [r1, #4]
 1492              	.LVL144:
 376:Middlewares/lvgl/src/core/lv_obj.c ****         lv_coord_t sl = lv_obj_get_scroll_left(parent);
 1493              		.loc 1 376 5 is_stmt 1 view .LVU499
 376:Middlewares/lvgl/src/core/lv_obj.c ****         lv_coord_t sl = lv_obj_get_scroll_left(parent);
 1494              		.loc 1 376 7 is_stmt 0 view .LVU500
 1495 0008 35B3     		cbz	r5, .L63
 1496              	.LBB163:
 377:Middlewares/lvgl/src/core/lv_obj.c ****         lv_coord_t st = lv_obj_get_scroll_top(parent);
 1497              		.loc 1 377 9 is_stmt 1 view .LVU501
 377:Middlewares/lvgl/src/core/lv_obj.c ****         lv_coord_t st = lv_obj_get_scroll_top(parent);
 1498              		.loc 1 377 25 is_stmt 0 view .LVU502
 1499 000a 2846     		mov	r0, r5
 1500              	.LVL145:
 377:Middlewares/lvgl/src/core/lv_obj.c ****         lv_coord_t st = lv_obj_get_scroll_top(parent);
 1501              		.loc 1 377 25 view .LVU503
 1502 000c FFF7FEFF 		bl	lv_obj_get_scroll_left
 1503              	.LVL146:
 377:Middlewares/lvgl/src/core/lv_obj.c ****         lv_coord_t st = lv_obj_get_scroll_top(parent);
 1504              		.loc 1 377 25 view .LVU504
 1505 0010 0646     		mov	r6, r0
 1506              	.LVL147:
 378:Middlewares/lvgl/src/core/lv_obj.c **** 
 1507              		.loc 1 378 9 is_stmt 1 view .LVU505
 378:Middlewares/lvgl/src/core/lv_obj.c **** 
 1508              		.loc 1 378 25 is_stmt 0 view .LVU506
 1509 0012 2846     		mov	r0, r5
 1510 0014 FFF7FEFF 		bl	lv_obj_get_scroll_top
 1511              	.LVL148:
 1512 0018 0746     		mov	r7, r0
 1513              	.LVL149:
 380:Middlewares/lvgl/src/core/lv_obj.c ****         obj->coords.y2 = obj->coords.y1 - 1;
 1514              		.loc 1 380 9 is_stmt 1 view .LVU507
 380:Middlewares/lvgl/src/core/lv_obj.c ****         obj->coords.y2 = obj->coords.y1 - 1;
 1515              		.loc 1 380 40 is_stmt 0 view .LVU508
 1516 001a B5F81680 		ldrh	r8, [r5, #22]
 1517              	.LVL150:
 1518              	.LBB164:
 1519              	.LBI164:
ARM GAS  /tmp/ccyhZZXZ.s 			page 60


  91:Middlewares/lvgl/src/core/lv_obj_style_gen.h **** {
 1520              		.loc 2 91 26 is_stmt 1 view .LVU509
 1521              	.LBB165:
  93:Middlewares/lvgl/src/core/lv_obj_style_gen.h ****     return (lv_coord_t)v.num;
 1522              		.loc 2 93 5 view .LVU510
  93:Middlewares/lvgl/src/core/lv_obj_style_gen.h ****     return (lv_coord_t)v.num;
 1523              		.loc 2 93 26 is_stmt 0 view .LVU511
 1524 001e 41F21002 		movw	r2, #4112
 1525 0022 0021     		movs	r1, #0
 1526 0024 2846     		mov	r0, r5
 1527 0026 FFF7FEFF 		bl	lv_obj_get_style_prop
 1528              	.LVL151:
  94:Middlewares/lvgl/src/core/lv_obj_style_gen.h **** }
 1529              		.loc 2 94 5 is_stmt 1 view .LVU512
  94:Middlewares/lvgl/src/core/lv_obj_style_gen.h **** }
 1530              		.loc 2 94 5 is_stmt 0 view .LVU513
 1531              	.LBE165:
 1532              	.LBE164:
 380:Middlewares/lvgl/src/core/lv_obj.c ****         obj->coords.y2 = obj->coords.y1 - 1;
 1533              		.loc 1 380 44 view .LVU514
 1534 002a 18FA80F3 		uxtah	r3, r8, r0
 1535 002e 9BB2     		uxth	r3, r3
 380:Middlewares/lvgl/src/core/lv_obj.c ****         obj->coords.y2 = obj->coords.y1 - 1;
 1536              		.loc 1 380 93 view .LVU515
 1537 0030 DB1B     		subs	r3, r3, r7
 1538 0032 9AB2     		uxth	r2, r3
 380:Middlewares/lvgl/src/core/lv_obj.c ****         obj->coords.y2 = obj->coords.y1 - 1;
 1539              		.loc 1 380 24 view .LVU516
 1540 0034 E382     		strh	r3, [r4, #22]	@ movhi
 381:Middlewares/lvgl/src/core/lv_obj.c ****         obj->coords.x1  = parent->coords.x1 + lv_obj_get_style_pad_left(parent, LV_PART_MAIN) - sl;
 1541              		.loc 1 381 9 is_stmt 1 view .LVU517
 381:Middlewares/lvgl/src/core/lv_obj.c ****         obj->coords.x1  = parent->coords.x1 + lv_obj_get_style_pad_left(parent, LV_PART_MAIN) - sl;
 1542              		.loc 1 381 41 is_stmt 0 view .LVU518
 1543 0036 531E     		subs	r3, r2, #1
 381:Middlewares/lvgl/src/core/lv_obj.c ****         obj->coords.x1  = parent->coords.x1 + lv_obj_get_style_pad_left(parent, LV_PART_MAIN) - sl;
 1544              		.loc 1 381 24 view .LVU519
 1545 0038 6383     		strh	r3, [r4, #26]	@ movhi
 382:Middlewares/lvgl/src/core/lv_obj.c ****         obj->coords.x2  = obj->coords.x1 - 1;
 1546              		.loc 1 382 9 is_stmt 1 view .LVU520
 382:Middlewares/lvgl/src/core/lv_obj.c ****         obj->coords.x2  = obj->coords.x1 - 1;
 1547              		.loc 1 382 41 is_stmt 0 view .LVU521
 1548 003a AF8A     		ldrh	r7, [r5, #20]
 1549              	.LVL152:
 1550              	.LBB166:
 1551              	.LBI166:
 103:Middlewares/lvgl/src/core/lv_obj_style_gen.h **** {
 1552              		.loc 2 103 26 is_stmt 1 view .LVU522
 1553              	.LBB167:
 105:Middlewares/lvgl/src/core/lv_obj_style_gen.h ****     return (lv_coord_t)v.num;
 1554              		.loc 2 105 5 view .LVU523
 105:Middlewares/lvgl/src/core/lv_obj_style_gen.h ****     return (lv_coord_t)v.num;
 1555              		.loc 2 105 26 is_stmt 0 view .LVU524
 1556 003c 41F21202 		movw	r2, #4114
 1557 0040 0021     		movs	r1, #0
 1558 0042 2846     		mov	r0, r5
 1559 0044 FFF7FEFF 		bl	lv_obj_get_style_prop
 1560              	.LVL153:
ARM GAS  /tmp/ccyhZZXZ.s 			page 61


 106:Middlewares/lvgl/src/core/lv_obj_style_gen.h **** }
 1561              		.loc 2 106 5 is_stmt 1 view .LVU525
 106:Middlewares/lvgl/src/core/lv_obj_style_gen.h **** }
 1562              		.loc 2 106 5 is_stmt 0 view .LVU526
 1563              	.LBE167:
 1564              	.LBE166:
 382:Middlewares/lvgl/src/core/lv_obj.c ****         obj->coords.x2  = obj->coords.x1 - 1;
 1565              		.loc 1 382 45 view .LVU527
 1566 0048 17FA80F3 		uxtah	r3, r7, r0
 1567 004c 9BB2     		uxth	r3, r3
 382:Middlewares/lvgl/src/core/lv_obj.c ****         obj->coords.x2  = obj->coords.x1 - 1;
 1568              		.loc 1 382 95 view .LVU528
 1569 004e 981B     		subs	r0, r3, r6
 1570 0050 83B2     		uxth	r3, r0
 382:Middlewares/lvgl/src/core/lv_obj.c ****         obj->coords.x2  = obj->coords.x1 - 1;
 1571              		.loc 1 382 25 view .LVU529
 1572 0052 A082     		strh	r0, [r4, #20]	@ movhi
 383:Middlewares/lvgl/src/core/lv_obj.c ****     }
 1573              		.loc 1 383 9 is_stmt 1 view .LVU530
 383:Middlewares/lvgl/src/core/lv_obj.c ****     }
 1574              		.loc 1 383 42 is_stmt 0 view .LVU531
 1575 0054 013B     		subs	r3, r3, #1
 383:Middlewares/lvgl/src/core/lv_obj.c ****     }
 1576              		.loc 1 383 25 view .LVU532
 1577 0056 2383     		strh	r3, [r4, #24]	@ movhi
 1578              	.LVL154:
 1579              	.L63:
 383:Middlewares/lvgl/src/core/lv_obj.c ****     }
 1580              		.loc 1 383 25 view .LVU533
 1581              	.LBE163:
 387:Middlewares/lvgl/src/core/lv_obj.c ****     obj->flags |= LV_OBJ_FLAG_SNAPPABLE;
 1582              		.loc 1 387 5 is_stmt 1 view .LVU534
 387:Middlewares/lvgl/src/core/lv_obj.c ****     obj->flags |= LV_OBJ_FLAG_SNAPPABLE;
 1583              		.loc 1 387 16 is_stmt 0 view .LVU535
 1584 0058 0223     		movs	r3, #2
 1585 005a E361     		str	r3, [r4, #28]
 388:Middlewares/lvgl/src/core/lv_obj.c ****     if(parent) obj->flags |= LV_OBJ_FLAG_PRESS_LOCK;
 1586              		.loc 1 388 5 is_stmt 1 view .LVU536
 388:Middlewares/lvgl/src/core/lv_obj.c ****     if(parent) obj->flags |= LV_OBJ_FLAG_PRESS_LOCK;
 1587              		.loc 1 388 16 is_stmt 0 view .LVU537
 1588 005c 40F20243 		movw	r3, #1026
 1589 0060 E361     		str	r3, [r4, #28]
 389:Middlewares/lvgl/src/core/lv_obj.c ****     if(parent) obj->flags |= LV_OBJ_FLAG_SCROLL_CHAIN;
 1590              		.loc 1 389 5 is_stmt 1 view .LVU538
 389:Middlewares/lvgl/src/core/lv_obj.c ****     if(parent) obj->flags |= LV_OBJ_FLAG_SCROLL_CHAIN;
 1591              		.loc 1 389 7 is_stmt 0 view .LVU539
 1592 0062 15B1     		cbz	r5, .L64
 389:Middlewares/lvgl/src/core/lv_obj.c ****     if(parent) obj->flags |= LV_OBJ_FLAG_SCROLL_CHAIN;
 1593              		.loc 1 389 16 is_stmt 1 discriminator 1 view .LVU540
 389:Middlewares/lvgl/src/core/lv_obj.c ****     if(parent) obj->flags |= LV_OBJ_FLAG_SCROLL_CHAIN;
 1594              		.loc 1 389 27 is_stmt 0 discriminator 1 view .LVU541
 1595 0064 40F60243 		movw	r3, #3074
 1596 0068 E361     		str	r3, [r4, #28]
 1597              	.L64:
 390:Middlewares/lvgl/src/core/lv_obj.c ****     obj->flags |= LV_OBJ_FLAG_CLICK_FOCUSABLE;
 1598              		.loc 1 390 5 is_stmt 1 view .LVU542
 390:Middlewares/lvgl/src/core/lv_obj.c ****     obj->flags |= LV_OBJ_FLAG_CLICK_FOCUSABLE;
ARM GAS  /tmp/ccyhZZXZ.s 			page 62


 1599              		.loc 1 390 7 is_stmt 0 view .LVU543
 1600 006a 1DB1     		cbz	r5, .L65
 390:Middlewares/lvgl/src/core/lv_obj.c ****     obj->flags |= LV_OBJ_FLAG_CLICK_FOCUSABLE;
 1601              		.loc 1 390 16 is_stmt 1 discriminator 1 view .LVU544
 390:Middlewares/lvgl/src/core/lv_obj.c ****     obj->flags |= LV_OBJ_FLAG_CLICK_FOCUSABLE;
 1602              		.loc 1 390 27 is_stmt 0 discriminator 1 view .LVU545
 1603 006c E369     		ldr	r3, [r4, #28]
 1604 006e 43F48073 		orr	r3, r3, #256
 1605 0072 E361     		str	r3, [r4, #28]
 1606              	.L65:
 391:Middlewares/lvgl/src/core/lv_obj.c ****     obj->flags |= LV_OBJ_FLAG_SCROLLABLE;
 1607              		.loc 1 391 5 is_stmt 1 view .LVU546
 391:Middlewares/lvgl/src/core/lv_obj.c ****     obj->flags |= LV_OBJ_FLAG_SCROLLABLE;
 1608              		.loc 1 391 16 is_stmt 0 view .LVU547
 1609 0074 E369     		ldr	r3, [r4, #28]
 1610 0076 43F00402 		orr	r2, r3, #4
 1611 007a E261     		str	r2, [r4, #28]
 392:Middlewares/lvgl/src/core/lv_obj.c ****     obj->flags |= LV_OBJ_FLAG_SCROLL_ELASTIC;
 1612              		.loc 1 392 5 is_stmt 1 view .LVU548
 392:Middlewares/lvgl/src/core/lv_obj.c ****     obj->flags |= LV_OBJ_FLAG_SCROLL_ELASTIC;
 1613              		.loc 1 392 16 is_stmt 0 view .LVU549
 1614 007c 43F01402 		orr	r2, r3, #20
 1615 0080 E261     		str	r2, [r4, #28]
 393:Middlewares/lvgl/src/core/lv_obj.c ****     obj->flags |= LV_OBJ_FLAG_SCROLL_MOMENTUM;
 1616              		.loc 1 393 5 is_stmt 1 view .LVU550
 393:Middlewares/lvgl/src/core/lv_obj.c ****     obj->flags |= LV_OBJ_FLAG_SCROLL_MOMENTUM;
 1617              		.loc 1 393 16 is_stmt 0 view .LVU551
 1618 0082 43F03402 		orr	r2, r3, #52
 1619 0086 E261     		str	r2, [r4, #28]
 394:Middlewares/lvgl/src/core/lv_obj.c ****     if(parent) obj->flags |= LV_OBJ_FLAG_GESTURE_BUBBLE;
 1620              		.loc 1 394 5 is_stmt 1 view .LVU552
 394:Middlewares/lvgl/src/core/lv_obj.c ****     if(parent) obj->flags |= LV_OBJ_FLAG_GESTURE_BUBBLE;
 1621              		.loc 1 394 16 is_stmt 0 view .LVU553
 1622 0088 43F07403 		orr	r3, r3, #116
 1623 008c E361     		str	r3, [r4, #28]
 395:Middlewares/lvgl/src/core/lv_obj.c **** 
 1624              		.loc 1 395 5 is_stmt 1 view .LVU554
 395:Middlewares/lvgl/src/core/lv_obj.c **** 
 1625              		.loc 1 395 7 is_stmt 0 view .LVU555
 1626 008e 15B1     		cbz	r5, .L62
 395:Middlewares/lvgl/src/core/lv_obj.c **** 
 1627              		.loc 1 395 16 is_stmt 1 discriminator 1 view .LVU556
 395:Middlewares/lvgl/src/core/lv_obj.c **** 
 1628              		.loc 1 395 27 is_stmt 0 discriminator 1 view .LVU557
 1629 0090 43F40053 		orr	r3, r3, #8192
 1630 0094 E361     		str	r3, [r4, #28]
 397:Middlewares/lvgl/src/core/lv_obj.c **** }
 1631              		.loc 1 397 36 is_stmt 1 discriminator 1 view .LVU558
 1632              	.L62:
 398:Middlewares/lvgl/src/core/lv_obj.c **** 
 1633              		.loc 1 398 1 is_stmt 0 view .LVU559
 1634 0096 BDE8F081 		pop	{r4, r5, r6, r7, r8, pc}
 398:Middlewares/lvgl/src/core/lv_obj.c **** 
 1635              		.loc 1 398 1 view .LVU560
 1636              		.cfi_endproc
 1637              	.LFE170:
 1639              		.section	.text.lv_obj_set_state,"ax",%progbits
ARM GAS  /tmp/ccyhZZXZ.s 			page 63


 1640              		.align	1
 1641              		.syntax unified
 1642              		.thumb
 1643              		.thumb_func
 1644              		.fpu fpv4-sp-d16
 1646              	lv_obj_set_state:
 1647              	.LVL155:
 1648              	.LFB176:
 745:Middlewares/lvgl/src/core/lv_obj.c ****     if(obj->state == new_state) return;
 1649              		.loc 1 745 1 is_stmt 1 view -0
 1650              		.cfi_startproc
 1651              		@ args = 0, pretend = 0, frame = 40
 1652              		@ frame_needed = 0, uses_anonymous_args = 0
 745:Middlewares/lvgl/src/core/lv_obj.c ****     if(obj->state == new_state) return;
 1653              		.loc 1 745 1 is_stmt 0 view .LVU562
 1654 0000 2DE9F04F 		push	{r4, r5, r6, r7, r8, r9, r10, fp, lr}
 1655              	.LCFI13:
 1656              		.cfi_def_cfa_offset 36
 1657              		.cfi_offset 4, -36
 1658              		.cfi_offset 5, -32
 1659              		.cfi_offset 6, -28
 1660              		.cfi_offset 7, -24
 1661              		.cfi_offset 8, -20
 1662              		.cfi_offset 9, -16
 1663              		.cfi_offset 10, -12
 1664              		.cfi_offset 11, -8
 1665              		.cfi_offset 14, -4
 1666 0004 8DB0     		sub	sp, sp, #52
 1667              	.LCFI14:
 1668              		.cfi_def_cfa_offset 88
 1669 0006 0690     		str	r0, [sp, #24]
 1670 0008 0791     		str	r1, [sp, #28]
 746:Middlewares/lvgl/src/core/lv_obj.c **** 
 1671              		.loc 1 746 5 is_stmt 1 view .LVU563
 746:Middlewares/lvgl/src/core/lv_obj.c **** 
 1672              		.loc 1 746 11 is_stmt 0 view .LVU564
 1673 000a 038C     		ldrh	r3, [r0, #32]
 1674 000c 0993     		str	r3, [sp, #36]
 746:Middlewares/lvgl/src/core/lv_obj.c **** 
 1675              		.loc 1 746 7 view .LVU565
 1676 000e 8B42     		cmp	r3, r1
 1677 0010 06D0     		beq	.L68
 748:Middlewares/lvgl/src/core/lv_obj.c **** 
 1678              		.loc 1 748 5 is_stmt 1 view .LVU566
 748:Middlewares/lvgl/src/core/lv_obj.c **** 
 1679              		.loc 1 748 5 view .LVU567
 748:Middlewares/lvgl/src/core/lv_obj.c **** 
 1680              		.loc 1 748 5 view .LVU568
 750:Middlewares/lvgl/src/core/lv_obj.c ****     obj->state = new_state;
 1681              		.loc 1 750 5 view .LVU569
 1682              	.LVL156:
 751:Middlewares/lvgl/src/core/lv_obj.c **** 
 1683              		.loc 1 751 5 view .LVU570
 751:Middlewares/lvgl/src/core/lv_obj.c **** 
 1684              		.loc 1 751 16 is_stmt 0 view .LVU571
 1685 0012 0184     		strh	r1, [r0, #32]	@ movhi
 753:Middlewares/lvgl/src/core/lv_obj.c ****     /*If there is no difference in styles there is nothing else to do*/
ARM GAS  /tmp/ccyhZZXZ.s 			page 64


 1686              		.loc 1 753 5 is_stmt 1 view .LVU572
 753:Middlewares/lvgl/src/core/lv_obj.c ****     /*If there is no difference in styles there is nothing else to do*/
 1687              		.loc 1 753 37 is_stmt 0 view .LVU573
 1688 0014 0A46     		mov	r2, r1
 1689 0016 1946     		mov	r1, r3
 1690              	.LVL157:
 753:Middlewares/lvgl/src/core/lv_obj.c ****     /*If there is no difference in styles there is nothing else to do*/
 1691              		.loc 1 753 37 view .LVU574
 1692 0018 FFF7FEFF 		bl	_lv_obj_style_state_compare
 1693              	.LVL158:
 755:Middlewares/lvgl/src/core/lv_obj.c **** 
 1694              		.loc 1 755 5 is_stmt 1 view .LVU575
 755:Middlewares/lvgl/src/core/lv_obj.c **** 
 1695              		.loc 1 755 7 is_stmt 0 view .LVU576
 1696 001c 0A90     		str	r0, [sp, #40]
 1697 001e 10B9     		cbnz	r0, .L100
 1698              	.LVL159:
 1699              	.L68:
 815:Middlewares/lvgl/src/core/lv_obj.c **** 
 1700              		.loc 1 815 1 view .LVU577
 1701 0020 0DB0     		add	sp, sp, #52
 1702              	.LCFI15:
 1703              		.cfi_remember_state
 1704              		.cfi_def_cfa_offset 36
 1705              		@ sp needed
 1706 0022 BDE8F08F 		pop	{r4, r5, r6, r7, r8, r9, r10, fp, pc}
 1707              	.LVL160:
 1708              	.L100:
 1709              	.LCFI16:
 1710              		.cfi_restore_state
 757:Middlewares/lvgl/src/core/lv_obj.c ****     lv_memset_00(ts, sizeof(_lv_obj_style_transition_dsc_t) * STYLE_TRANSITION_MAX);
 1711              		.loc 1 757 5 is_stmt 1 view .LVU578
 757:Middlewares/lvgl/src/core/lv_obj.c ****     lv_memset_00(ts, sizeof(_lv_obj_style_transition_dsc_t) * STYLE_TRANSITION_MAX);
 1712              		.loc 1 757 43 is_stmt 0 view .LVU579
 1713 0026 4FF42070 		mov	r0, #640
 1714              	.LVL161:
 757:Middlewares/lvgl/src/core/lv_obj.c ****     lv_memset_00(ts, sizeof(_lv_obj_style_transition_dsc_t) * STYLE_TRANSITION_MAX);
 1715              		.loc 1 757 43 view .LVU580
 1716 002a FFF7FEFF 		bl	lv_mem_buf_get
 1717              	.LVL162:
 1718 002e 8246     		mov	r10, r0
 1719              	.LVL163:
 758:Middlewares/lvgl/src/core/lv_obj.c ****     uint32_t tsi = 0;
 1720              		.loc 1 758 5 is_stmt 1 view .LVU581
 1721 0030 4FF42071 		mov	r1, #640
 1722 0034 FFF7FEFF 		bl	lv_memset_00
 1723              	.LVL164:
 759:Middlewares/lvgl/src/core/lv_obj.c ****     uint32_t i;
 1724              		.loc 1 759 5 view .LVU582
 760:Middlewares/lvgl/src/core/lv_obj.c ****     for(i = 0; i < obj->style_cnt && tsi < STYLE_TRANSITION_MAX; i++) {
 1725              		.loc 1 760 5 view .LVU583
 761:Middlewares/lvgl/src/core/lv_obj.c ****         _lv_obj_style_t * obj_style = &obj->styles[i];
 1726              		.loc 1 761 5 view .LVU584
 761:Middlewares/lvgl/src/core/lv_obj.c ****         _lv_obj_style_t * obj_style = &obj->styles[i];
 1727              		.loc 1 761 11 is_stmt 0 view .LVU585
 1728 0038 0023     		movs	r3, #0
 1729 003a 0393     		str	r3, [sp, #12]
ARM GAS  /tmp/ccyhZZXZ.s 			page 65


 759:Middlewares/lvgl/src/core/lv_obj.c ****     uint32_t i;
 1730              		.loc 1 759 14 view .LVU586
 1731 003c 9B46     		mov	fp, r3
 761:Middlewares/lvgl/src/core/lv_obj.c ****         _lv_obj_style_t * obj_style = &obj->styles[i];
 1732              		.loc 1 761 5 view .LVU587
 1733 003e 1EE0     		b	.L70
 1734              	.LVL165:
 1735              	.L104:
 1736              	.LBB177:
 1737              	.LBB178:
 1738              	.LBB179:
 1739              	.LBB180:
 1740              		.file 4 "Middlewares/lvgl/src/core/../misc/lv_style.h"
   1:Middlewares/lvgl/src/core/../misc/lv_style.h **** /**
   2:Middlewares/lvgl/src/core/../misc/lv_style.h ****  * @file lv_style.h
   3:Middlewares/lvgl/src/core/../misc/lv_style.h ****  *
   4:Middlewares/lvgl/src/core/../misc/lv_style.h ****  */
   5:Middlewares/lvgl/src/core/../misc/lv_style.h **** 
   6:Middlewares/lvgl/src/core/../misc/lv_style.h **** #ifndef LV_STYLE_H
   7:Middlewares/lvgl/src/core/../misc/lv_style.h **** #define LV_STYLE_H
   8:Middlewares/lvgl/src/core/../misc/lv_style.h **** 
   9:Middlewares/lvgl/src/core/../misc/lv_style.h **** #ifdef __cplusplus
  10:Middlewares/lvgl/src/core/../misc/lv_style.h **** extern "C" {
  11:Middlewares/lvgl/src/core/../misc/lv_style.h **** #endif
  12:Middlewares/lvgl/src/core/../misc/lv_style.h **** 
  13:Middlewares/lvgl/src/core/../misc/lv_style.h **** /*********************
  14:Middlewares/lvgl/src/core/../misc/lv_style.h ****  *      INCLUDES
  15:Middlewares/lvgl/src/core/../misc/lv_style.h ****  *********************/
  16:Middlewares/lvgl/src/core/../misc/lv_style.h **** #include <stdbool.h>
  17:Middlewares/lvgl/src/core/../misc/lv_style.h **** #include "../font/lv_font.h"
  18:Middlewares/lvgl/src/core/../misc/lv_style.h **** #include "lv_color.h"
  19:Middlewares/lvgl/src/core/../misc/lv_style.h **** #include "lv_area.h"
  20:Middlewares/lvgl/src/core/../misc/lv_style.h **** #include "lv_anim.h"
  21:Middlewares/lvgl/src/core/../misc/lv_style.h **** #include "lv_txt.h"
  22:Middlewares/lvgl/src/core/../misc/lv_style.h **** #include "lv_types.h"
  23:Middlewares/lvgl/src/core/../misc/lv_style.h **** #include "lv_assert.h"
  24:Middlewares/lvgl/src/core/../misc/lv_style.h **** #include "lv_bidi.h"
  25:Middlewares/lvgl/src/core/../misc/lv_style.h **** 
  26:Middlewares/lvgl/src/core/../misc/lv_style.h **** /*********************
  27:Middlewares/lvgl/src/core/../misc/lv_style.h ****  *      DEFINES
  28:Middlewares/lvgl/src/core/../misc/lv_style.h ****  *********************/
  29:Middlewares/lvgl/src/core/../misc/lv_style.h **** 
  30:Middlewares/lvgl/src/core/../misc/lv_style.h **** #define LV_STYLE_SENTINEL_VALUE     0xAABBCCDD
  31:Middlewares/lvgl/src/core/../misc/lv_style.h **** 
  32:Middlewares/lvgl/src/core/../misc/lv_style.h **** /**
  33:Middlewares/lvgl/src/core/../misc/lv_style.h ****  * Flags for style properties
  34:Middlewares/lvgl/src/core/../misc/lv_style.h ****  */
  35:Middlewares/lvgl/src/core/../misc/lv_style.h **** #define LV_STYLE_PROP_INHERIT               (1 << 10)  /*Inherited*/
  36:Middlewares/lvgl/src/core/../misc/lv_style.h **** #define LV_STYLE_PROP_EXT_DRAW              (1 << 11)  /*Requires ext. draw size update when change
  37:Middlewares/lvgl/src/core/../misc/lv_style.h **** #define LV_STYLE_PROP_LAYOUT_REFR           (1 << 12)  /*Requires layout update when changed*/
  38:Middlewares/lvgl/src/core/../misc/lv_style.h **** #define LV_STYLE_PROP_PARENT_LAYOUT_REFR    (1 << 13)  /*Requires layout update on parent when chan
  39:Middlewares/lvgl/src/core/../misc/lv_style.h **** #define LV_STYLE_PROP_FILTER                (1 << 14)  /*Apply color filter*/
  40:Middlewares/lvgl/src/core/../misc/lv_style.h **** 
  41:Middlewares/lvgl/src/core/../misc/lv_style.h **** /**
  42:Middlewares/lvgl/src/core/../misc/lv_style.h ****  * Other constants
  43:Middlewares/lvgl/src/core/../misc/lv_style.h ****  */
  44:Middlewares/lvgl/src/core/../misc/lv_style.h **** #define LV_IMG_ZOOM_NONE            256        /*Value for not zooming the image*/
ARM GAS  /tmp/ccyhZZXZ.s 			page 66


  45:Middlewares/lvgl/src/core/../misc/lv_style.h **** LV_EXPORT_CONST_INT(LV_IMG_ZOOM_NONE);
  46:Middlewares/lvgl/src/core/../misc/lv_style.h **** 
  47:Middlewares/lvgl/src/core/../misc/lv_style.h **** #if LV_USE_ASSERT_STYLE
  48:Middlewares/lvgl/src/core/../misc/lv_style.h **** #define LV_STYLE_CONST_INIT(var_name, prop_array) const lv_style_t var_name = { .sentinel = LV_STYL
  49:Middlewares/lvgl/src/core/../misc/lv_style.h **** #else
  50:Middlewares/lvgl/src/core/../misc/lv_style.h **** #define LV_STYLE_CONST_INIT(var_name, prop_array) const lv_style_t var_name = { .v_p = { .const_pro
  51:Middlewares/lvgl/src/core/../misc/lv_style.h **** #endif
  52:Middlewares/lvgl/src/core/../misc/lv_style.h **** 
  53:Middlewares/lvgl/src/core/../misc/lv_style.h **** /**********************
  54:Middlewares/lvgl/src/core/../misc/lv_style.h ****  *      TYPEDEFS
  55:Middlewares/lvgl/src/core/../misc/lv_style.h ****  **********************/
  56:Middlewares/lvgl/src/core/../misc/lv_style.h **** 
  57:Middlewares/lvgl/src/core/../misc/lv_style.h **** /**
  58:Middlewares/lvgl/src/core/../misc/lv_style.h ****  * Possible options how to blend opaque drawings
  59:Middlewares/lvgl/src/core/../misc/lv_style.h ****  */
  60:Middlewares/lvgl/src/core/../misc/lv_style.h **** enum {
  61:Middlewares/lvgl/src/core/../misc/lv_style.h ****     LV_BLEND_MODE_NORMAL,     /**< Simply mix according to the opacity value*/
  62:Middlewares/lvgl/src/core/../misc/lv_style.h ****     LV_BLEND_MODE_ADDITIVE,   /**< Add the respective color channels*/
  63:Middlewares/lvgl/src/core/../misc/lv_style.h ****     LV_BLEND_MODE_SUBTRACTIVE,/**< Subtract the foreground from the background*/
  64:Middlewares/lvgl/src/core/../misc/lv_style.h **** };
  65:Middlewares/lvgl/src/core/../misc/lv_style.h **** 
  66:Middlewares/lvgl/src/core/../misc/lv_style.h **** typedef uint8_t lv_blend_mode_t;
  67:Middlewares/lvgl/src/core/../misc/lv_style.h **** 
  68:Middlewares/lvgl/src/core/../misc/lv_style.h **** /**
  69:Middlewares/lvgl/src/core/../misc/lv_style.h ****  * Some options to apply decorations on texts.
  70:Middlewares/lvgl/src/core/../misc/lv_style.h ****  * 'OR'ed values can be used.
  71:Middlewares/lvgl/src/core/../misc/lv_style.h ****  */
  72:Middlewares/lvgl/src/core/../misc/lv_style.h **** enum {
  73:Middlewares/lvgl/src/core/../misc/lv_style.h ****     LV_TEXT_DECOR_NONE          = 0x00,
  74:Middlewares/lvgl/src/core/../misc/lv_style.h ****     LV_TEXT_DECOR_UNDERLINE     = 0x01,
  75:Middlewares/lvgl/src/core/../misc/lv_style.h ****     LV_TEXT_DECOR_STRIKETHROUGH = 0x02,
  76:Middlewares/lvgl/src/core/../misc/lv_style.h **** };
  77:Middlewares/lvgl/src/core/../misc/lv_style.h **** 
  78:Middlewares/lvgl/src/core/../misc/lv_style.h **** typedef uint8_t lv_text_decor_t;
  79:Middlewares/lvgl/src/core/../misc/lv_style.h **** 
  80:Middlewares/lvgl/src/core/../misc/lv_style.h **** /**
  81:Middlewares/lvgl/src/core/../misc/lv_style.h ****  * Selects on which sides border should be drawn
  82:Middlewares/lvgl/src/core/../misc/lv_style.h ****  * 'OR'ed values can be used.
  83:Middlewares/lvgl/src/core/../misc/lv_style.h ****  */
  84:Middlewares/lvgl/src/core/../misc/lv_style.h **** enum {
  85:Middlewares/lvgl/src/core/../misc/lv_style.h ****     LV_BORDER_SIDE_NONE     = 0x00,
  86:Middlewares/lvgl/src/core/../misc/lv_style.h ****     LV_BORDER_SIDE_BOTTOM   = 0x01,
  87:Middlewares/lvgl/src/core/../misc/lv_style.h ****     LV_BORDER_SIDE_TOP      = 0x02,
  88:Middlewares/lvgl/src/core/../misc/lv_style.h ****     LV_BORDER_SIDE_LEFT     = 0x04,
  89:Middlewares/lvgl/src/core/../misc/lv_style.h ****     LV_BORDER_SIDE_RIGHT    = 0x08,
  90:Middlewares/lvgl/src/core/../misc/lv_style.h ****     LV_BORDER_SIDE_FULL     = 0x0F,
  91:Middlewares/lvgl/src/core/../misc/lv_style.h ****     LV_BORDER_SIDE_INTERNAL = 0x10, /**< FOR matrix-like objects (e.g. Button matrix)*/
  92:Middlewares/lvgl/src/core/../misc/lv_style.h **** };
  93:Middlewares/lvgl/src/core/../misc/lv_style.h **** typedef uint8_t lv_border_side_t;
  94:Middlewares/lvgl/src/core/../misc/lv_style.h **** 
  95:Middlewares/lvgl/src/core/../misc/lv_style.h **** /**
  96:Middlewares/lvgl/src/core/../misc/lv_style.h ****  * The direction of the gradient.
  97:Middlewares/lvgl/src/core/../misc/lv_style.h ****  */
  98:Middlewares/lvgl/src/core/../misc/lv_style.h **** enum {
  99:Middlewares/lvgl/src/core/../misc/lv_style.h ****     LV_GRAD_DIR_NONE, /**< No gradient (the `grad_color` property is ignored)*/
 100:Middlewares/lvgl/src/core/../misc/lv_style.h ****     LV_GRAD_DIR_VER,  /**< Vertical (top to bottom) gradient*/
 101:Middlewares/lvgl/src/core/../misc/lv_style.h ****     LV_GRAD_DIR_HOR,  /**< Horizontal (left to right) gradient*/
ARM GAS  /tmp/ccyhZZXZ.s 			page 67


 102:Middlewares/lvgl/src/core/../misc/lv_style.h **** };
 103:Middlewares/lvgl/src/core/../misc/lv_style.h **** 
 104:Middlewares/lvgl/src/core/../misc/lv_style.h **** typedef uint8_t lv_grad_dir_t;
 105:Middlewares/lvgl/src/core/../misc/lv_style.h **** 
 106:Middlewares/lvgl/src/core/../misc/lv_style.h **** /**
 107:Middlewares/lvgl/src/core/../misc/lv_style.h ****  * A common type to handle all the property types in the same way.
 108:Middlewares/lvgl/src/core/../misc/lv_style.h ****  */
 109:Middlewares/lvgl/src/core/../misc/lv_style.h **** typedef union {
 110:Middlewares/lvgl/src/core/../misc/lv_style.h ****     int32_t num;         /**< Number integer number (opacity, enums, booleans or "normal" numbers)*
 111:Middlewares/lvgl/src/core/../misc/lv_style.h ****     const void * ptr;    /**< Constant pointers  (font, cone text, etc)*/
 112:Middlewares/lvgl/src/core/../misc/lv_style.h ****     lv_color_t color;    /**< Colors*/
 113:Middlewares/lvgl/src/core/../misc/lv_style.h **** }lv_style_value_t;
 114:Middlewares/lvgl/src/core/../misc/lv_style.h **** 
 115:Middlewares/lvgl/src/core/../misc/lv_style.h **** /**
 116:Middlewares/lvgl/src/core/../misc/lv_style.h ****  * Enumeration of all built in style properties
 117:Middlewares/lvgl/src/core/../misc/lv_style.h ****  */
 118:Middlewares/lvgl/src/core/../misc/lv_style.h **** typedef enum {
 119:Middlewares/lvgl/src/core/../misc/lv_style.h ****     LV_STYLE_PROP_INV                = 0,
 120:Middlewares/lvgl/src/core/../misc/lv_style.h **** 
 121:Middlewares/lvgl/src/core/../misc/lv_style.h ****     /*Group 0*/
 122:Middlewares/lvgl/src/core/../misc/lv_style.h ****     LV_STYLE_WIDTH                   = 1 | LV_STYLE_PROP_LAYOUT_REFR,
 123:Middlewares/lvgl/src/core/../misc/lv_style.h ****     LV_STYLE_MIN_WIDTH               = 2 | LV_STYLE_PROP_LAYOUT_REFR,
 124:Middlewares/lvgl/src/core/../misc/lv_style.h ****     LV_STYLE_MAX_WIDTH               = 3 | LV_STYLE_PROP_LAYOUT_REFR,
 125:Middlewares/lvgl/src/core/../misc/lv_style.h ****     LV_STYLE_HEIGHT                  = 4 | LV_STYLE_PROP_LAYOUT_REFR,
 126:Middlewares/lvgl/src/core/../misc/lv_style.h ****     LV_STYLE_MIN_HEIGHT              = 5 | LV_STYLE_PROP_LAYOUT_REFR,
 127:Middlewares/lvgl/src/core/../misc/lv_style.h ****     LV_STYLE_MAX_HEIGHT              = 6 | LV_STYLE_PROP_LAYOUT_REFR,
 128:Middlewares/lvgl/src/core/../misc/lv_style.h ****     LV_STYLE_X                       = 7 | LV_STYLE_PROP_LAYOUT_REFR,
 129:Middlewares/lvgl/src/core/../misc/lv_style.h ****     LV_STYLE_Y                       = 8 | LV_STYLE_PROP_LAYOUT_REFR,
 130:Middlewares/lvgl/src/core/../misc/lv_style.h ****     LV_STYLE_ALIGN                   = 9 | LV_STYLE_PROP_LAYOUT_REFR,
 131:Middlewares/lvgl/src/core/../misc/lv_style.h ****     LV_STYLE_TRANSFORM_WIDTH         = 10 | LV_STYLE_PROP_EXT_DRAW,
 132:Middlewares/lvgl/src/core/../misc/lv_style.h ****     LV_STYLE_TRANSFORM_HEIGHT        = 11 | LV_STYLE_PROP_EXT_DRAW,
 133:Middlewares/lvgl/src/core/../misc/lv_style.h ****     LV_STYLE_TRANSLATE_X             = 12 | LV_STYLE_PROP_LAYOUT_REFR | LV_STYLE_PROP_PARENT_LAYOUT
 134:Middlewares/lvgl/src/core/../misc/lv_style.h ****     LV_STYLE_TRANSLATE_Y             = 13 | LV_STYLE_PROP_LAYOUT_REFR | LV_STYLE_PROP_PARENT_LAYOUT
 135:Middlewares/lvgl/src/core/../misc/lv_style.h ****     LV_STYLE_TRANSFORM_ZOOM          = 14 | LV_STYLE_PROP_EXT_DRAW,
 136:Middlewares/lvgl/src/core/../misc/lv_style.h ****     LV_STYLE_TRANSFORM_ANGLE         = 15 | LV_STYLE_PROP_EXT_DRAW,
 137:Middlewares/lvgl/src/core/../misc/lv_style.h **** 
 138:Middlewares/lvgl/src/core/../misc/lv_style.h ****     /*Group 1*/
 139:Middlewares/lvgl/src/core/../misc/lv_style.h ****     LV_STYLE_PAD_TOP                 = 16 | LV_STYLE_PROP_LAYOUT_REFR,
 140:Middlewares/lvgl/src/core/../misc/lv_style.h ****     LV_STYLE_PAD_BOTTOM              = 17 | LV_STYLE_PROP_LAYOUT_REFR,
 141:Middlewares/lvgl/src/core/../misc/lv_style.h ****     LV_STYLE_PAD_LEFT                = 18 | LV_STYLE_PROP_LAYOUT_REFR,
 142:Middlewares/lvgl/src/core/../misc/lv_style.h ****     LV_STYLE_PAD_RIGHT               = 19 | LV_STYLE_PROP_LAYOUT_REFR,
 143:Middlewares/lvgl/src/core/../misc/lv_style.h ****     LV_STYLE_PAD_ROW                 = 20 | LV_STYLE_PROP_LAYOUT_REFR,
 144:Middlewares/lvgl/src/core/../misc/lv_style.h ****     LV_STYLE_PAD_COLUMN              = 21 | LV_STYLE_PROP_LAYOUT_REFR,
 145:Middlewares/lvgl/src/core/../misc/lv_style.h **** 
 146:Middlewares/lvgl/src/core/../misc/lv_style.h ****     /*Group 2*/
 147:Middlewares/lvgl/src/core/../misc/lv_style.h ****     LV_STYLE_BG_COLOR                = 32,
 148:Middlewares/lvgl/src/core/../misc/lv_style.h ****     LV_STYLE_BG_COLOR_FILTERED       = 32 | LV_STYLE_PROP_FILTER,
 149:Middlewares/lvgl/src/core/../misc/lv_style.h ****     LV_STYLE_BG_OPA                  = 33,
 150:Middlewares/lvgl/src/core/../misc/lv_style.h ****     LV_STYLE_BG_GRAD_COLOR           = 34,
 151:Middlewares/lvgl/src/core/../misc/lv_style.h ****     LV_STYLE_BG_GRAD_COLOR_FILTERED  = 34 | LV_STYLE_PROP_FILTER,
 152:Middlewares/lvgl/src/core/../misc/lv_style.h ****     LV_STYLE_BG_GRAD_DIR             = 35,
 153:Middlewares/lvgl/src/core/../misc/lv_style.h ****     LV_STYLE_BG_MAIN_STOP            = 36,
 154:Middlewares/lvgl/src/core/../misc/lv_style.h ****     LV_STYLE_BG_GRAD_STOP            = 37,
 155:Middlewares/lvgl/src/core/../misc/lv_style.h **** 
 156:Middlewares/lvgl/src/core/../misc/lv_style.h ****     LV_STYLE_BG_IMG_SRC              = 38,
 157:Middlewares/lvgl/src/core/../misc/lv_style.h ****     LV_STYLE_BG_IMG_OPA              = 39,
 158:Middlewares/lvgl/src/core/../misc/lv_style.h ****     LV_STYLE_BG_IMG_RECOLOR          = 40,
ARM GAS  /tmp/ccyhZZXZ.s 			page 68


 159:Middlewares/lvgl/src/core/../misc/lv_style.h ****     LV_STYLE_BG_IMG_RECOLOR_FILTERED = 40 | LV_STYLE_PROP_FILTER,
 160:Middlewares/lvgl/src/core/../misc/lv_style.h ****     LV_STYLE_BG_IMG_RECOLOR_OPA      = 41,
 161:Middlewares/lvgl/src/core/../misc/lv_style.h ****     LV_STYLE_BG_IMG_TILED            = 42,
 162:Middlewares/lvgl/src/core/../misc/lv_style.h **** 
 163:Middlewares/lvgl/src/core/../misc/lv_style.h ****     /*Group 3*/
 164:Middlewares/lvgl/src/core/../misc/lv_style.h ****     LV_STYLE_BORDER_COLOR            = 48,
 165:Middlewares/lvgl/src/core/../misc/lv_style.h ****     LV_STYLE_BORDER_COLOR_FILTERED   = 48 | LV_STYLE_PROP_FILTER,
 166:Middlewares/lvgl/src/core/../misc/lv_style.h ****     LV_STYLE_BORDER_OPA              = 49,
 167:Middlewares/lvgl/src/core/../misc/lv_style.h ****     LV_STYLE_BORDER_WIDTH            = 50 | LV_STYLE_PROP_LAYOUT_REFR,
 168:Middlewares/lvgl/src/core/../misc/lv_style.h ****     LV_STYLE_BORDER_SIDE             = 51,
 169:Middlewares/lvgl/src/core/../misc/lv_style.h ****     LV_STYLE_BORDER_POST             = 52,
 170:Middlewares/lvgl/src/core/../misc/lv_style.h **** 
 171:Middlewares/lvgl/src/core/../misc/lv_style.h ****     LV_STYLE_OUTLINE_WIDTH           = 58 | LV_STYLE_PROP_EXT_DRAW,
 172:Middlewares/lvgl/src/core/../misc/lv_style.h ****     LV_STYLE_OUTLINE_COLOR           = 59,
 173:Middlewares/lvgl/src/core/../misc/lv_style.h ****     LV_STYLE_OUTLINE_COLOR_FILTERED  = 59 | LV_STYLE_PROP_FILTER,
 174:Middlewares/lvgl/src/core/../misc/lv_style.h ****     LV_STYLE_OUTLINE_OPA             = 60 | LV_STYLE_PROP_EXT_DRAW,
 175:Middlewares/lvgl/src/core/../misc/lv_style.h ****     LV_STYLE_OUTLINE_PAD             = 61 | LV_STYLE_PROP_EXT_DRAW,
 176:Middlewares/lvgl/src/core/../misc/lv_style.h **** 
 177:Middlewares/lvgl/src/core/../misc/lv_style.h ****     /*Group 4*/
 178:Middlewares/lvgl/src/core/../misc/lv_style.h ****     LV_STYLE_SHADOW_WIDTH            = 64 | LV_STYLE_PROP_EXT_DRAW,
 179:Middlewares/lvgl/src/core/../misc/lv_style.h ****     LV_STYLE_SHADOW_OFS_X            = 65 | LV_STYLE_PROP_EXT_DRAW,
 180:Middlewares/lvgl/src/core/../misc/lv_style.h ****     LV_STYLE_SHADOW_OFS_Y            = 66 | LV_STYLE_PROP_EXT_DRAW,
 181:Middlewares/lvgl/src/core/../misc/lv_style.h ****     LV_STYLE_SHADOW_SPREAD           = 67 | LV_STYLE_PROP_EXT_DRAW,
 182:Middlewares/lvgl/src/core/../misc/lv_style.h ****     LV_STYLE_SHADOW_COLOR            = 68,
 183:Middlewares/lvgl/src/core/../misc/lv_style.h ****     LV_STYLE_SHADOW_COLOR_FILTERED   = 68 | LV_STYLE_PROP_FILTER,
 184:Middlewares/lvgl/src/core/../misc/lv_style.h ****     LV_STYLE_SHADOW_OPA              = 69 | LV_STYLE_PROP_EXT_DRAW,
 185:Middlewares/lvgl/src/core/../misc/lv_style.h **** 
 186:Middlewares/lvgl/src/core/../misc/lv_style.h ****     LV_STYLE_IMG_OPA                 = 70,
 187:Middlewares/lvgl/src/core/../misc/lv_style.h ****     LV_STYLE_IMG_RECOLOR             = 71,
 188:Middlewares/lvgl/src/core/../misc/lv_style.h ****     LV_STYLE_IMG_RECOLOR_FILTERED    = 71 | LV_STYLE_PROP_FILTER,
 189:Middlewares/lvgl/src/core/../misc/lv_style.h ****     LV_STYLE_IMG_RECOLOR_OPA         = 72,
 190:Middlewares/lvgl/src/core/../misc/lv_style.h **** 
 191:Middlewares/lvgl/src/core/../misc/lv_style.h ****     LV_STYLE_LINE_WIDTH              = 73 | LV_STYLE_PROP_EXT_DRAW,
 192:Middlewares/lvgl/src/core/../misc/lv_style.h ****     LV_STYLE_LINE_DASH_WIDTH         = 74,
 193:Middlewares/lvgl/src/core/../misc/lv_style.h ****     LV_STYLE_LINE_DASH_GAP           = 75,
 194:Middlewares/lvgl/src/core/../misc/lv_style.h ****     LV_STYLE_LINE_ROUNDED            = 76,
 195:Middlewares/lvgl/src/core/../misc/lv_style.h ****     LV_STYLE_LINE_COLOR              = 77,
 196:Middlewares/lvgl/src/core/../misc/lv_style.h ****     LV_STYLE_LINE_COLOR_FILTERED     = 77 | LV_STYLE_PROP_FILTER,
 197:Middlewares/lvgl/src/core/../misc/lv_style.h ****     LV_STYLE_LINE_OPA                = 78,
 198:Middlewares/lvgl/src/core/../misc/lv_style.h **** 
 199:Middlewares/lvgl/src/core/../misc/lv_style.h ****     /*Group 5*/
 200:Middlewares/lvgl/src/core/../misc/lv_style.h ****     LV_STYLE_ARC_WIDTH               = 80 | LV_STYLE_PROP_EXT_DRAW,
 201:Middlewares/lvgl/src/core/../misc/lv_style.h ****     LV_STYLE_ARC_ROUNDED             = 81,
 202:Middlewares/lvgl/src/core/../misc/lv_style.h ****     LV_STYLE_ARC_COLOR               = 82,
 203:Middlewares/lvgl/src/core/../misc/lv_style.h ****     LV_STYLE_ARC_COLOR_FILTERED      = 82 | LV_STYLE_PROP_FILTER,
 204:Middlewares/lvgl/src/core/../misc/lv_style.h ****     LV_STYLE_ARC_OPA                 = 83,
 205:Middlewares/lvgl/src/core/../misc/lv_style.h ****     LV_STYLE_ARC_IMG_SRC             = 84,
 206:Middlewares/lvgl/src/core/../misc/lv_style.h **** 
 207:Middlewares/lvgl/src/core/../misc/lv_style.h ****     LV_STYLE_TEXT_COLOR              = 87 | LV_STYLE_PROP_INHERIT,
 208:Middlewares/lvgl/src/core/../misc/lv_style.h ****     LV_STYLE_TEXT_COLOR_FILTERED     = 87 | LV_STYLE_PROP_INHERIT | LV_STYLE_PROP_FILTER,
 209:Middlewares/lvgl/src/core/../misc/lv_style.h ****     LV_STYLE_TEXT_OPA                = 88 | LV_STYLE_PROP_INHERIT,
 210:Middlewares/lvgl/src/core/../misc/lv_style.h ****     LV_STYLE_TEXT_FONT               = 89 | LV_STYLE_PROP_INHERIT | LV_STYLE_PROP_LAYOUT_REFR,
 211:Middlewares/lvgl/src/core/../misc/lv_style.h ****     LV_STYLE_TEXT_LETTER_SPACE       = 90 | LV_STYLE_PROP_INHERIT | LV_STYLE_PROP_LAYOUT_REFR,
 212:Middlewares/lvgl/src/core/../misc/lv_style.h ****     LV_STYLE_TEXT_LINE_SPACE         = 91 | LV_STYLE_PROP_INHERIT | LV_STYLE_PROP_LAYOUT_REFR,
 213:Middlewares/lvgl/src/core/../misc/lv_style.h ****     LV_STYLE_TEXT_DECOR              = 92 | LV_STYLE_PROP_INHERIT,
 214:Middlewares/lvgl/src/core/../misc/lv_style.h ****     LV_STYLE_TEXT_ALIGN              = 93 | LV_STYLE_PROP_INHERIT | LV_STYLE_PROP_LAYOUT_REFR,
 215:Middlewares/lvgl/src/core/../misc/lv_style.h **** 
ARM GAS  /tmp/ccyhZZXZ.s 			page 69


 216:Middlewares/lvgl/src/core/../misc/lv_style.h ****     /*Group 6*/
 217:Middlewares/lvgl/src/core/../misc/lv_style.h ****     LV_STYLE_RADIUS                  = 96,
 218:Middlewares/lvgl/src/core/../misc/lv_style.h ****     LV_STYLE_CLIP_CORNER             = 97,
 219:Middlewares/lvgl/src/core/../misc/lv_style.h ****     LV_STYLE_OPA                     = 98 | LV_STYLE_PROP_INHERIT,
 220:Middlewares/lvgl/src/core/../misc/lv_style.h ****     LV_STYLE_COLOR_FILTER_DSC        = 99,
 221:Middlewares/lvgl/src/core/../misc/lv_style.h ****     LV_STYLE_COLOR_FILTER_OPA        = 100,
 222:Middlewares/lvgl/src/core/../misc/lv_style.h ****     LV_STYLE_ANIM_TIME               = 101,
 223:Middlewares/lvgl/src/core/../misc/lv_style.h ****     LV_STYLE_ANIM_SPEED              = 102,
 224:Middlewares/lvgl/src/core/../misc/lv_style.h ****     LV_STYLE_TRANSITION              = 103,
 225:Middlewares/lvgl/src/core/../misc/lv_style.h ****     LV_STYLE_BLEND_MODE              = 104,
 226:Middlewares/lvgl/src/core/../misc/lv_style.h ****     LV_STYLE_LAYOUT                  = 105 | LV_STYLE_PROP_LAYOUT_REFR,
 227:Middlewares/lvgl/src/core/../misc/lv_style.h ****     LV_STYLE_BASE_DIR                = 106 | LV_STYLE_PROP_INHERIT | LV_STYLE_PROP_LAYOUT_REFR,
 228:Middlewares/lvgl/src/core/../misc/lv_style.h **** 
 229:Middlewares/lvgl/src/core/../misc/lv_style.h ****     _LV_STYLE_LAST_BUILT_IN_PROP     = 111,
 230:Middlewares/lvgl/src/core/../misc/lv_style.h **** 
 231:Middlewares/lvgl/src/core/../misc/lv_style.h ****     LV_STYLE_PROP_ANY                = 0xFFFF
 232:Middlewares/lvgl/src/core/../misc/lv_style.h **** }lv_style_prop_t;
 233:Middlewares/lvgl/src/core/../misc/lv_style.h **** 
 234:Middlewares/lvgl/src/core/../misc/lv_style.h **** /**
 235:Middlewares/lvgl/src/core/../misc/lv_style.h ****  * Descriptor for style transitions
 236:Middlewares/lvgl/src/core/../misc/lv_style.h ****  */
 237:Middlewares/lvgl/src/core/../misc/lv_style.h **** typedef struct {
 238:Middlewares/lvgl/src/core/../misc/lv_style.h ****     const lv_style_prop_t * props; /**< An array with the properties to animate.*/
 239:Middlewares/lvgl/src/core/../misc/lv_style.h **** #if LV_USE_USER_DATA
 240:Middlewares/lvgl/src/core/../misc/lv_style.h ****     void * user_data;              /**< A custom user data that will be passed to the animation's u
 241:Middlewares/lvgl/src/core/../misc/lv_style.h **** #endif
 242:Middlewares/lvgl/src/core/../misc/lv_style.h ****     lv_anim_path_cb_t path_xcb;     /**< A path for the animation.*/
 243:Middlewares/lvgl/src/core/../misc/lv_style.h ****     uint32_t time;                 /**< Duration of the transition in [ms]*/
 244:Middlewares/lvgl/src/core/../misc/lv_style.h ****     uint32_t delay;                /**< Delay before the transition in [ms]*/
 245:Middlewares/lvgl/src/core/../misc/lv_style.h **** }lv_style_transition_dsc_t;
 246:Middlewares/lvgl/src/core/../misc/lv_style.h **** 
 247:Middlewares/lvgl/src/core/../misc/lv_style.h **** /**
 248:Middlewares/lvgl/src/core/../misc/lv_style.h ****  * Descriptor of a constant style property.
 249:Middlewares/lvgl/src/core/../misc/lv_style.h ****  */
 250:Middlewares/lvgl/src/core/../misc/lv_style.h **** typedef struct {
 251:Middlewares/lvgl/src/core/../misc/lv_style.h ****     lv_style_prop_t prop;
 252:Middlewares/lvgl/src/core/../misc/lv_style.h ****     lv_style_value_t value;
 253:Middlewares/lvgl/src/core/../misc/lv_style.h **** } lv_style_const_prop_t;
 254:Middlewares/lvgl/src/core/../misc/lv_style.h **** 
 255:Middlewares/lvgl/src/core/../misc/lv_style.h **** /**
 256:Middlewares/lvgl/src/core/../misc/lv_style.h ****  * Descriptor of a style (a collection of properties and values).
 257:Middlewares/lvgl/src/core/../misc/lv_style.h ****  */
 258:Middlewares/lvgl/src/core/../misc/lv_style.h **** typedef struct {
 259:Middlewares/lvgl/src/core/../misc/lv_style.h **** 
 260:Middlewares/lvgl/src/core/../misc/lv_style.h **** #if LV_USE_ASSERT_STYLE
 261:Middlewares/lvgl/src/core/../misc/lv_style.h ****     uint32_t sentinel;
 262:Middlewares/lvgl/src/core/../misc/lv_style.h **** #endif
 263:Middlewares/lvgl/src/core/../misc/lv_style.h **** 
 264:Middlewares/lvgl/src/core/../misc/lv_style.h ****     /*If there is only one property store it directly.
 265:Middlewares/lvgl/src/core/../misc/lv_style.h ****      *For more properties allocate an array*/
 266:Middlewares/lvgl/src/core/../misc/lv_style.h ****     union {
 267:Middlewares/lvgl/src/core/../misc/lv_style.h ****         lv_style_value_t value1;
 268:Middlewares/lvgl/src/core/../misc/lv_style.h ****         uint8_t * values_and_props;
 269:Middlewares/lvgl/src/core/../misc/lv_style.h ****         const lv_style_const_prop_t * const_props;
 270:Middlewares/lvgl/src/core/../misc/lv_style.h ****     } v_p;
 271:Middlewares/lvgl/src/core/../misc/lv_style.h **** 
 272:Middlewares/lvgl/src/core/../misc/lv_style.h ****     uint16_t prop1 :15;
ARM GAS  /tmp/ccyhZZXZ.s 			page 70


 273:Middlewares/lvgl/src/core/../misc/lv_style.h ****     uint16_t is_const :1;
 274:Middlewares/lvgl/src/core/../misc/lv_style.h ****     uint8_t has_group;
 275:Middlewares/lvgl/src/core/../misc/lv_style.h ****     uint8_t prop_cnt;
 276:Middlewares/lvgl/src/core/../misc/lv_style.h **** } lv_style_t;
 277:Middlewares/lvgl/src/core/../misc/lv_style.h **** 
 278:Middlewares/lvgl/src/core/../misc/lv_style.h **** /**********************
 279:Middlewares/lvgl/src/core/../misc/lv_style.h ****  * GLOBAL PROTOTYPES
 280:Middlewares/lvgl/src/core/../misc/lv_style.h ****  **********************/
 281:Middlewares/lvgl/src/core/../misc/lv_style.h **** 
 282:Middlewares/lvgl/src/core/../misc/lv_style.h **** 
 283:Middlewares/lvgl/src/core/../misc/lv_style.h **** /**
 284:Middlewares/lvgl/src/core/../misc/lv_style.h ****  * Initialize a style
 285:Middlewares/lvgl/src/core/../misc/lv_style.h ****  * @param style pointer to a style to initialize
 286:Middlewares/lvgl/src/core/../misc/lv_style.h ****  * @note Do not call `lv_style_init` on styles that are already have some properties
 287:Middlewares/lvgl/src/core/../misc/lv_style.h ****  *       because this function won't free the used memory just set a default state for the style.
 288:Middlewares/lvgl/src/core/../misc/lv_style.h ****  *       In other words be sure to initialize styles only once!
 289:Middlewares/lvgl/src/core/../misc/lv_style.h ****  */
 290:Middlewares/lvgl/src/core/../misc/lv_style.h **** void lv_style_init(lv_style_t * style);
 291:Middlewares/lvgl/src/core/../misc/lv_style.h **** 
 292:Middlewares/lvgl/src/core/../misc/lv_style.h **** /**
 293:Middlewares/lvgl/src/core/../misc/lv_style.h ****  * Clear all properties from a style and free all allocated memories.
 294:Middlewares/lvgl/src/core/../misc/lv_style.h ****  * @param style pointer to a style
 295:Middlewares/lvgl/src/core/../misc/lv_style.h ****  */
 296:Middlewares/lvgl/src/core/../misc/lv_style.h **** void lv_style_reset(lv_style_t * style);
 297:Middlewares/lvgl/src/core/../misc/lv_style.h **** 
 298:Middlewares/lvgl/src/core/../misc/lv_style.h **** /**
 299:Middlewares/lvgl/src/core/../misc/lv_style.h ****  * Register a new style property for custom usage
 300:Middlewares/lvgl/src/core/../misc/lv_style.h ****  * @return a new property ID.
 301:Middlewares/lvgl/src/core/../misc/lv_style.h ****  * @example
 302:Middlewares/lvgl/src/core/../misc/lv_style.h ****  * lv_style_prop_t MY_PROP;
 303:Middlewares/lvgl/src/core/../misc/lv_style.h ****  * static inline void lv_style_set_my_prop(lv_style_t * style, lv_color_t value) {
 304:Middlewares/lvgl/src/core/../misc/lv_style.h ****  * lv_style_value_t v = {.color = value}; lv_style_set_prop(style, MY_PROP, v); }
 305:Middlewares/lvgl/src/core/../misc/lv_style.h ****  *
 306:Middlewares/lvgl/src/core/../misc/lv_style.h ****  * ...
 307:Middlewares/lvgl/src/core/../misc/lv_style.h ****  * MY_PROP = lv_style_register_prop();
 308:Middlewares/lvgl/src/core/../misc/lv_style.h ****  * ...
 309:Middlewares/lvgl/src/core/../misc/lv_style.h ****  * lv_style_set_my_prop(&style1, lv_palette_main(LV_PALETTE_RED));
 310:Middlewares/lvgl/src/core/../misc/lv_style.h ****  */
 311:Middlewares/lvgl/src/core/../misc/lv_style.h **** lv_style_prop_t lv_style_register_prop(void);
 312:Middlewares/lvgl/src/core/../misc/lv_style.h **** 
 313:Middlewares/lvgl/src/core/../misc/lv_style.h **** /**
 314:Middlewares/lvgl/src/core/../misc/lv_style.h ****  * Remove a property from a style
 315:Middlewares/lvgl/src/core/../misc/lv_style.h ****  * @param style pointer to a style
 316:Middlewares/lvgl/src/core/../misc/lv_style.h ****  * @param prop  a style property ORed with a state.
 317:Middlewares/lvgl/src/core/../misc/lv_style.h ****  * @return true: the property was found and removed; false: the property wasn't found
 318:Middlewares/lvgl/src/core/../misc/lv_style.h ****  */
 319:Middlewares/lvgl/src/core/../misc/lv_style.h **** bool lv_style_remove_prop(lv_style_t * style, lv_style_prop_t prop);
 320:Middlewares/lvgl/src/core/../misc/lv_style.h **** 
 321:Middlewares/lvgl/src/core/../misc/lv_style.h **** /**
 322:Middlewares/lvgl/src/core/../misc/lv_style.h ****  * Set the value of property in a style.
 323:Middlewares/lvgl/src/core/../misc/lv_style.h ****  * This function shouldn't be used directly by the user.
 324:Middlewares/lvgl/src/core/../misc/lv_style.h ****  * Instead use `lv_style_set_<prop_name>()`. E.g. `lv_style_set_bg_color()`
 325:Middlewares/lvgl/src/core/../misc/lv_style.h ****  * @param style pointer to style
 326:Middlewares/lvgl/src/core/../misc/lv_style.h ****  * @param prop the ID of a property (e.g. `LV_STLYE_BG_COLOR`)
 327:Middlewares/lvgl/src/core/../misc/lv_style.h ****  * @param value `lv_style_value_t` variable in which a filed is set according to the type of `prop`
 328:Middlewares/lvgl/src/core/../misc/lv_style.h ****  */
 329:Middlewares/lvgl/src/core/../misc/lv_style.h **** void lv_style_set_prop(lv_style_t * style, lv_style_prop_t prop, lv_style_value_t value);
ARM GAS  /tmp/ccyhZZXZ.s 			page 71


 330:Middlewares/lvgl/src/core/../misc/lv_style.h **** 
 331:Middlewares/lvgl/src/core/../misc/lv_style.h **** /**
 332:Middlewares/lvgl/src/core/../misc/lv_style.h ****  * Get the value of a property
 333:Middlewares/lvgl/src/core/../misc/lv_style.h ****  * @param style pointer to a style
 334:Middlewares/lvgl/src/core/../misc/lv_style.h ****  * @param prop  the ID of a property
 335:Middlewares/lvgl/src/core/../misc/lv_style.h ****  * @param value pointer to a `lv_style_value_t` variable to store the value
 336:Middlewares/lvgl/src/core/../misc/lv_style.h ****  * @return LV_RES_INV: the property wsn't found in the style (`value` is unchanged)
 337:Middlewares/lvgl/src/core/../misc/lv_style.h ****  *         LV_RES_OK: the property was fond, and `value` is set accordingly
 338:Middlewares/lvgl/src/core/../misc/lv_style.h ****  * @note For performance reasons there are no sanity check on `style`
 339:Middlewares/lvgl/src/core/../misc/lv_style.h ****  */
 340:Middlewares/lvgl/src/core/../misc/lv_style.h **** lv_res_t lv_style_get_prop(lv_style_t * style, lv_style_prop_t prop, lv_style_value_t * value);
 341:Middlewares/lvgl/src/core/../misc/lv_style.h **** 
 342:Middlewares/lvgl/src/core/../misc/lv_style.h **** 
 343:Middlewares/lvgl/src/core/../misc/lv_style.h **** /**
 344:Middlewares/lvgl/src/core/../misc/lv_style.h ****  * Get the value of a property
 345:Middlewares/lvgl/src/core/../misc/lv_style.h ****  * @param style pointer to a style
 346:Middlewares/lvgl/src/core/../misc/lv_style.h ****  * @param prop  the ID of a property
 347:Middlewares/lvgl/src/core/../misc/lv_style.h ****  * @param value pointer to a `lv_style_value_t` variable to store the value
 348:Middlewares/lvgl/src/core/../misc/lv_style.h ****  * @return LV_RES_INV: the property wsn't found in the style (`value` is unchanged)
 349:Middlewares/lvgl/src/core/../misc/lv_style.h ****  *         LV_RES_OK: the property was fond, and `value` is set accordingly
 350:Middlewares/lvgl/src/core/../misc/lv_style.h ****  * @note For performance reasons there are no sanity check on `style`
 351:Middlewares/lvgl/src/core/../misc/lv_style.h ****  * @note This function is the same as ::lv_style_get_prop but inlined. Use it only on performance c
 352:Middlewares/lvgl/src/core/../misc/lv_style.h ****  */
 353:Middlewares/lvgl/src/core/../misc/lv_style.h **** static inline lv_res_t lv_style_get_prop_inlined(lv_style_t * style, lv_style_prop_t prop, lv_style
 354:Middlewares/lvgl/src/core/../misc/lv_style.h **** {
 355:Middlewares/lvgl/src/core/../misc/lv_style.h ****     if(style->is_const) {
 356:Middlewares/lvgl/src/core/../misc/lv_style.h ****         const lv_style_const_prop_t *const_prop;
 1741              		.loc 4 356 9 is_stmt 1 view .LVU588
 357:Middlewares/lvgl/src/core/../misc/lv_style.h ****         for(const_prop = style->v_p.const_props; const_prop->prop != LV_STYLE_PROP_INV; const_prop+
 1742              		.loc 4 357 9 view .LVU589
 1743              		.loc 4 357 24 is_stmt 0 view .LVU590
 1744 0040 1B68     		ldr	r3, [r3]
 1745              	.LVL166:
 1746              	.L73:
 1747              		.loc 4 357 50 is_stmt 1 view .LVU591
 1748              		.loc 4 357 60 is_stmt 0 view .LVU592
 1749 0042 1A88     		ldrh	r2, [r3]
 1750              		.loc 4 357 9 view .LVU593
 1751 0044 B2B1     		cbz	r2, .L75
 358:Middlewares/lvgl/src/core/../misc/lv_style.h ****             if(const_prop->prop == prop) {
 1752              		.loc 4 358 13 is_stmt 1 view .LVU594
 1753              		.loc 4 358 15 is_stmt 0 view .LVU595
 1754 0046 672A     		cmp	r2, #103
 1755 0048 01D0     		beq	.L101
 357:Middlewares/lvgl/src/core/../misc/lv_style.h ****         for(const_prop = style->v_p.const_props; const_prop->prop != LV_STYLE_PROP_INV; const_prop+
 1756              		.loc 4 357 89 is_stmt 1 view .LVU596
 357:Middlewares/lvgl/src/core/../misc/lv_style.h ****         for(const_prop = style->v_p.const_props; const_prop->prop != LV_STYLE_PROP_INV; const_prop+
 1757              		.loc 4 357 99 is_stmt 0 view .LVU597
 1758 004a 0833     		adds	r3, r3, #8
 1759              	.LVL167:
 357:Middlewares/lvgl/src/core/../misc/lv_style.h ****         for(const_prop = style->v_p.const_props; const_prop->prop != LV_STYLE_PROP_INV; const_prop+
 1760              		.loc 4 357 99 view .LVU598
 1761 004c F9E7     		b	.L73
 1762              	.L101:
 359:Middlewares/lvgl/src/core/../misc/lv_style.h ****                 *value = const_prop->value;
 1763              		.loc 4 359 17 is_stmt 1 view .LVU599
 1764              		.loc 4 359 24 is_stmt 0 view .LVU600
ARM GAS  /tmp/ccyhZZXZ.s 			page 72


 1765 004e 5B68     		ldr	r3, [r3, #4]
 1766              	.LVL168:
 1767              		.loc 4 359 24 view .LVU601
 1768 0050 0B93     		str	r3, [sp, #44]
 360:Middlewares/lvgl/src/core/../misc/lv_style.h ****                 return LV_RES_OK;
 1769              		.loc 4 360 17 is_stmt 1 view .LVU602
 1770              		.loc 4 360 24 is_stmt 0 view .LVU603
 1771 0052 0121     		movs	r1, #1
 1772 0054 0EE0     		b	.L75
 1773              	.LVL169:
 1774              	.L105:
 1775              		.loc 4 360 24 view .LVU604
 1776              	.LBE180:
 1777              	.LBB181:
 1778              	.LBB182:
 361:Middlewares/lvgl/src/core/../misc/lv_style.h ****             }
 362:Middlewares/lvgl/src/core/../misc/lv_style.h ****         }
 363:Middlewares/lvgl/src/core/../misc/lv_style.h ****         return LV_RES_INV;
 364:Middlewares/lvgl/src/core/../misc/lv_style.h ****     }
 365:Middlewares/lvgl/src/core/../misc/lv_style.h **** 
 366:Middlewares/lvgl/src/core/../misc/lv_style.h ****     if(style->prop_cnt == 0) return LV_RES_INV;
 367:Middlewares/lvgl/src/core/../misc/lv_style.h **** 
 368:Middlewares/lvgl/src/core/../misc/lv_style.h ****     if(style->prop_cnt > 1) {
 369:Middlewares/lvgl/src/core/../misc/lv_style.h ****         uint8_t * tmp = style->v_p.values_and_props + style->prop_cnt * sizeof(lv_style_value_t);
 370:Middlewares/lvgl/src/core/../misc/lv_style.h ****         uint16_t * props = (uint16_t *)tmp;
 371:Middlewares/lvgl/src/core/../misc/lv_style.h ****         uint32_t i;
 372:Middlewares/lvgl/src/core/../misc/lv_style.h ****         for(i = 0; i < style->prop_cnt; i++) {
 373:Middlewares/lvgl/src/core/../misc/lv_style.h ****             if(props[i] == prop) {
 374:Middlewares/lvgl/src/core/../misc/lv_style.h ****                 lv_style_value_t * values = (lv_style_value_t *)style->v_p.values_and_props;
 1779              		.loc 4 374 17 is_stmt 1 view .LVU605
 375:Middlewares/lvgl/src/core/../misc/lv_style.h ****                 *value = values[i];
 1780              		.loc 4 375 17 view .LVU606
 1781              		.loc 4 375 24 is_stmt 0 view .LVU607
 1782 0056 54F82330 		ldr	r3, [r4, r3, lsl #2]
 1783              	.LVL170:
 1784              		.loc 4 375 24 view .LVU608
 1785 005a 0B93     		str	r3, [sp, #44]
 376:Middlewares/lvgl/src/core/../misc/lv_style.h ****                 return LV_RES_OK;
 1786              		.loc 4 376 17 is_stmt 1 view .LVU609
 1787              		.loc 4 376 24 is_stmt 0 view .LVU610
 1788 005c 0121     		movs	r1, #1
 1789 005e 09E0     		b	.L75
 1790              	.LVL171:
 1791              	.L77:
 1792              		.loc 4 376 24 view .LVU611
 1793              	.LBE182:
 1794              	.LBE181:
 377:Middlewares/lvgl/src/core/../misc/lv_style.h ****             }
 378:Middlewares/lvgl/src/core/../misc/lv_style.h ****         }
 379:Middlewares/lvgl/src/core/../misc/lv_style.h ****     } else if(style->prop1 == prop) {
 1795              		.loc 4 379 12 is_stmt 1 view .LVU612
 1796              		.loc 4 379 20 is_stmt 0 view .LVU613
 1797 0060 9A88     		ldrh	r2, [r3, #4]
 1798 0062 C2F30E02 		ubfx	r2, r2, #0, #15
 1799              		.loc 4 379 14 view .LVU614
 1800 0066 672A     		cmp	r2, #103
 1801 0068 04D1     		bne	.L75
ARM GAS  /tmp/ccyhZZXZ.s 			page 73


 380:Middlewares/lvgl/src/core/../misc/lv_style.h ****         *value = style->v_p.value1;
 1802              		.loc 4 380 9 is_stmt 1 view .LVU615
 1803              		.loc 4 380 16 is_stmt 0 view .LVU616
 1804 006a 1B68     		ldr	r3, [r3]
 1805              	.LVL172:
 1806              		.loc 4 380 16 view .LVU617
 1807 006c 0B93     		str	r3, [sp, #44]
 381:Middlewares/lvgl/src/core/../misc/lv_style.h ****         return LV_RES_OK;
 1808              		.loc 4 381 9 is_stmt 1 view .LVU618
 1809              		.loc 4 381 16 is_stmt 0 view .LVU619
 1810 006e 0121     		movs	r1, #1
 1811 0070 00E0     		b	.L75
 1812              	.LVL173:
 1813              	.L95:
 366:Middlewares/lvgl/src/core/../misc/lv_style.h **** 
 1814              		.loc 4 366 37 view .LVU620
 1815 0072 1146     		mov	r1, r2
 1816              	.LVL174:
 1817              	.L75:
 366:Middlewares/lvgl/src/core/../misc/lv_style.h **** 
 1818              		.loc 4 366 37 view .LVU621
 1819              	.LBE179:
 1820              	.LBE178:
 769:Middlewares/lvgl/src/core/lv_obj.c ****         const lv_style_transition_dsc_t * tr = v.ptr;
 1821              		.loc 1 769 11 view .LVU622
 1822 0074 0029     		cmp	r1, #0
 1823 0076 42D1     		bne	.L102
 1824              	.LVL175:
 1825              	.L88:
 769:Middlewares/lvgl/src/core/lv_obj.c ****         const lv_style_transition_dsc_t * tr = v.ptr;
 1826              		.loc 1 769 11 view .LVU623
 1827              	.LBE177:
 761:Middlewares/lvgl/src/core/lv_obj.c ****         _lv_obj_style_t * obj_style = &obj->styles[i];
 1828              		.loc 1 761 66 is_stmt 1 discriminator 2 view .LVU624
 761:Middlewares/lvgl/src/core/lv_obj.c ****         _lv_obj_style_t * obj_style = &obj->styles[i];
 1829              		.loc 1 761 67 is_stmt 0 discriminator 2 view .LVU625
 1830 0078 039B     		ldr	r3, [sp, #12]
 1831              	.LVL176:
 761:Middlewares/lvgl/src/core/lv_obj.c ****         _lv_obj_style_t * obj_style = &obj->styles[i];
 1832              		.loc 1 761 67 discriminator 2 view .LVU626
 1833 007a 0133     		adds	r3, r3, #1
 1834 007c 0393     		str	r3, [sp, #12]
 1835              	.LVL177:
 1836              	.L70:
 761:Middlewares/lvgl/src/core/lv_obj.c ****         _lv_obj_style_t * obj_style = &obj->styles[i];
 1837              		.loc 1 761 16 is_stmt 1 discriminator 1 view .LVU627
 761:Middlewares/lvgl/src/core/lv_obj.c ****         _lv_obj_style_t * obj_style = &obj->styles[i];
 1838              		.loc 1 761 23 is_stmt 0 discriminator 1 view .LVU628
 1839 007e 069B     		ldr	r3, [sp, #24]
 1840 0080 5B8C     		ldrh	r3, [r3, #34]
 1841 0082 C3F3C503 		ubfx	r3, r3, #3, #6
 761:Middlewares/lvgl/src/core/lv_obj.c ****         _lv_obj_style_t * obj_style = &obj->styles[i];
 1842              		.loc 1 761 5 discriminator 1 view .LVU629
 1843 0086 039A     		ldr	r2, [sp, #12]
 1844 0088 9342     		cmp	r3, r2
 1845 008a 40F2B680 		bls	.L97
 761:Middlewares/lvgl/src/core/lv_obj.c ****         _lv_obj_style_t * obj_style = &obj->styles[i];
ARM GAS  /tmp/ccyhZZXZ.s 			page 74


 1846              		.loc 1 761 35 discriminator 3 view .LVU630
 1847 008e BBF11F0F 		cmp	fp, #31
 1848 0092 00F28680 		bhi	.L103
 1849              	.LBB189:
 762:Middlewares/lvgl/src/core/lv_obj.c ****         lv_state_t state_act = lv_obj_style_get_selector_state(obj->styles[i].selector);
 1850              		.loc 1 762 9 is_stmt 1 view .LVU631
 762:Middlewares/lvgl/src/core/lv_obj.c ****         lv_state_t state_act = lv_obj_style_get_selector_state(obj->styles[i].selector);
 1851              		.loc 1 762 43 is_stmt 0 view .LVU632
 1852 0096 069E     		ldr	r6, [sp, #24]
 1853 0098 F568     		ldr	r5, [r6, #12]
 762:Middlewares/lvgl/src/core/lv_obj.c ****         lv_state_t state_act = lv_obj_style_get_selector_state(obj->styles[i].selector);
 1854              		.loc 1 762 51 view .LVU633
 1855 009a 039B     		ldr	r3, [sp, #12]
 1856 009c DC00     		lsls	r4, r3, #3
 762:Middlewares/lvgl/src/core/lv_obj.c ****         lv_state_t state_act = lv_obj_style_get_selector_state(obj->styles[i].selector);
 1857              		.loc 1 762 27 view .LVU634
 1858 009e 05EBC307 		add	r7, r5, r3, lsl #3
 1859 00a2 0897     		str	r7, [sp, #32]
 1860              	.LVL178:
 763:Middlewares/lvgl/src/core/lv_obj.c ****         lv_part_t part_act = lv_obj_style_get_selector_part(obj->styles[i].selector);
 1861              		.loc 1 763 9 is_stmt 1 view .LVU635
 763:Middlewares/lvgl/src/core/lv_obj.c ****         lv_part_t part_act = lv_obj_style_get_selector_part(obj->styles[i].selector);
 1862              		.loc 1 763 78 is_stmt 0 view .LVU636
 1863 00a4 7868     		ldr	r0, [r7, #4]
 763:Middlewares/lvgl/src/core/lv_obj.c ****         lv_part_t part_act = lv_obj_style_get_selector_part(obj->styles[i].selector);
 1864              		.loc 1 763 32 view .LVU637
 1865 00a6 20F07F40 		bic	r0, r0, #-16777216
 1866 00aa FFF7FEFF 		bl	lv_obj_style_get_selector_state
 1867              	.LVL179:
 1868 00ae 8046     		mov	r8, r0
 1869 00b0 0590     		str	r0, [sp, #20]
 1870              	.LVL180:
 764:Middlewares/lvgl/src/core/lv_obj.c ****         if(state_act & (~new_state)) continue; /*Skip unrelated styles*/
 1871              		.loc 1 764 9 is_stmt 1 view .LVU638
 764:Middlewares/lvgl/src/core/lv_obj.c ****         if(state_act & (~new_state)) continue; /*Skip unrelated styles*/
 1872              		.loc 1 764 64 is_stmt 0 view .LVU639
 1873 00b2 F368     		ldr	r3, [r6, #12]
 764:Middlewares/lvgl/src/core/lv_obj.c ****         if(state_act & (~new_state)) continue; /*Skip unrelated styles*/
 1874              		.loc 1 764 72 view .LVU640
 1875 00b4 2344     		add	r3, r3, r4
 764:Middlewares/lvgl/src/core/lv_obj.c ****         if(state_act & (~new_state)) continue; /*Skip unrelated styles*/
 1876              		.loc 1 764 75 view .LVU641
 1877 00b6 5868     		ldr	r0, [r3, #4]
 764:Middlewares/lvgl/src/core/lv_obj.c ****         if(state_act & (~new_state)) continue; /*Skip unrelated styles*/
 1878              		.loc 1 764 30 view .LVU642
 1879 00b8 20F07F40 		bic	r0, r0, #-16777216
 1880 00bc FFF7FEFF 		bl	lv_obj_style_get_selector_part
 1881              	.LVL181:
 1882 00c0 0646     		mov	r6, r0
 1883              	.LVL182:
 765:Middlewares/lvgl/src/core/lv_obj.c ****         if(obj_style->is_trans) continue;
 1884              		.loc 1 765 9 is_stmt 1 view .LVU643
 765:Middlewares/lvgl/src/core/lv_obj.c ****         if(obj_style->is_trans) continue;
 1885              		.loc 1 765 11 is_stmt 0 view .LVU644
 1886 00c2 4346     		mov	r3, r8
 1887 00c4 079A     		ldr	r2, [sp, #28]
 1888 00c6 9343     		bics	r3, r3, r2
ARM GAS  /tmp/ccyhZZXZ.s 			page 75


 1889 00c8 D6D1     		bne	.L88
 766:Middlewares/lvgl/src/core/lv_obj.c **** 
 1890              		.loc 1 766 9 is_stmt 1 view .LVU645
 766:Middlewares/lvgl/src/core/lv_obj.c **** 
 1891              		.loc 1 766 12 is_stmt 0 view .LVU646
 1892 00ca FB79     		ldrb	r3, [r7, #7]	@ zero_extendqisi2
 766:Middlewares/lvgl/src/core/lv_obj.c **** 
 1893              		.loc 1 766 11 view .LVU647
 1894 00cc 13F00201 		ands	r1, r3, #2
 1895 00d0 D2D1     		bne	.L88
 768:Middlewares/lvgl/src/core/lv_obj.c ****         if(lv_style_get_prop_inlined(obj_style->style, LV_STYLE_TRANSITION, &v) == false) continue;
 1896              		.loc 1 768 9 is_stmt 1 view .LVU648
 769:Middlewares/lvgl/src/core/lv_obj.c ****         const lv_style_transition_dsc_t * tr = v.ptr;
 1897              		.loc 1 769 9 view .LVU649
 769:Middlewares/lvgl/src/core/lv_obj.c ****         const lv_style_transition_dsc_t * tr = v.ptr;
 1898              		.loc 1 769 12 is_stmt 0 view .LVU650
 1899 00d2 2B59     		ldr	r3, [r5, r4]
 1900              	.LVL183:
 1901              	.LBB185:
 1902              	.LBI178:
 353:Middlewares/lvgl/src/core/../misc/lv_style.h **** {
 1903              		.loc 4 353 24 is_stmt 1 view .LVU651
 1904              	.LBB184:
 355:Middlewares/lvgl/src/core/../misc/lv_style.h ****         const lv_style_const_prop_t *const_prop;
 1905              		.loc 4 355 5 view .LVU652
 355:Middlewares/lvgl/src/core/../misc/lv_style.h ****         const lv_style_const_prop_t *const_prop;
 1906              		.loc 4 355 7 is_stmt 0 view .LVU653
 1907 00d4 93F90520 		ldrsb	r2, [r3, #5]
 1908 00d8 002A     		cmp	r2, #0
 1909 00da B1DB     		blt	.L104
 366:Middlewares/lvgl/src/core/../misc/lv_style.h **** 
 1910              		.loc 4 366 5 is_stmt 1 view .LVU654
 366:Middlewares/lvgl/src/core/../misc/lv_style.h **** 
 1911              		.loc 4 366 13 is_stmt 0 view .LVU655
 1912 00dc DA79     		ldrb	r2, [r3, #7]	@ zero_extendqisi2
 366:Middlewares/lvgl/src/core/../misc/lv_style.h **** 
 1913              		.loc 4 366 7 view .LVU656
 1914 00de 002A     		cmp	r2, #0
 1915 00e0 C7D0     		beq	.L95
 368:Middlewares/lvgl/src/core/../misc/lv_style.h ****         uint8_t * tmp = style->v_p.values_and_props + style->prop_cnt * sizeof(lv_style_value_t);
 1916              		.loc 4 368 5 is_stmt 1 view .LVU657
 368:Middlewares/lvgl/src/core/../misc/lv_style.h ****         uint8_t * tmp = style->v_p.values_and_props + style->prop_cnt * sizeof(lv_style_value_t);
 1917              		.loc 4 368 7 is_stmt 0 view .LVU658
 1918 00e2 012A     		cmp	r2, #1
 1919 00e4 BCD9     		bls	.L77
 1920              	.LBB183:
 369:Middlewares/lvgl/src/core/../misc/lv_style.h ****         uint16_t * props = (uint16_t *)tmp;
 1921              		.loc 4 369 9 is_stmt 1 view .LVU659
 369:Middlewares/lvgl/src/core/../misc/lv_style.h ****         uint16_t * props = (uint16_t *)tmp;
 1922              		.loc 4 369 35 is_stmt 0 view .LVU660
 1923 00e6 1C68     		ldr	r4, [r3]
 369:Middlewares/lvgl/src/core/../misc/lv_style.h ****         uint16_t * props = (uint16_t *)tmp;
 1924              		.loc 4 369 71 view .LVU661
 1925 00e8 9500     		lsls	r5, r2, #2
 1926              	.LVL184:
 370:Middlewares/lvgl/src/core/../misc/lv_style.h ****         uint32_t i;
 1927              		.loc 4 370 9 is_stmt 1 view .LVU662
ARM GAS  /tmp/ccyhZZXZ.s 			page 76


 371:Middlewares/lvgl/src/core/../misc/lv_style.h ****         for(i = 0; i < style->prop_cnt; i++) {
 1928              		.loc 4 371 9 view .LVU663
 372:Middlewares/lvgl/src/core/../misc/lv_style.h ****             if(props[i] == prop) {
 1929              		.loc 4 372 9 view .LVU664
 372:Middlewares/lvgl/src/core/../misc/lv_style.h ****             if(props[i] == prop) {
 1930              		.loc 4 372 15 is_stmt 0 view .LVU665
 1931 00ea 0023     		movs	r3, #0
 1932              	.LVL185:
 1933              	.L78:
 372:Middlewares/lvgl/src/core/../misc/lv_style.h ****             if(props[i] == prop) {
 1934              		.loc 4 372 20 is_stmt 1 view .LVU666
 372:Middlewares/lvgl/src/core/../misc/lv_style.h ****             if(props[i] == prop) {
 1935              		.loc 4 372 9 is_stmt 0 view .LVU667
 1936 00ec 9A42     		cmp	r2, r3
 1937 00ee C1D9     		bls	.L75
 373:Middlewares/lvgl/src/core/../misc/lv_style.h ****                 lv_style_value_t * values = (lv_style_value_t *)style->v_p.values_and_props;
 1938              		.loc 4 373 13 is_stmt 1 view .LVU668
 373:Middlewares/lvgl/src/core/../misc/lv_style.h ****                 lv_style_value_t * values = (lv_style_value_t *)style->v_p.values_and_props;
 1939              		.loc 4 373 21 is_stmt 0 view .LVU669
 1940 00f0 6019     		adds	r0, r4, r5
 1941 00f2 30F81300 		ldrh	r0, [r0, r3, lsl #1]
 373:Middlewares/lvgl/src/core/../misc/lv_style.h ****                 lv_style_value_t * values = (lv_style_value_t *)style->v_p.values_and_props;
 1942              		.loc 4 373 15 view .LVU670
 1943 00f6 6728     		cmp	r0, #103
 1944 00f8 ADD0     		beq	.L105
 372:Middlewares/lvgl/src/core/../misc/lv_style.h ****             if(props[i] == prop) {
 1945              		.loc 4 372 41 is_stmt 1 view .LVU671
 372:Middlewares/lvgl/src/core/../misc/lv_style.h ****             if(props[i] == prop) {
 1946              		.loc 4 372 42 is_stmt 0 view .LVU672
 1947 00fa 0133     		adds	r3, r3, #1
 1948              	.LVL186:
 372:Middlewares/lvgl/src/core/../misc/lv_style.h ****             if(props[i] == prop) {
 1949              		.loc 4 372 42 view .LVU673
 1950 00fc F6E7     		b	.L78
 1951              	.LVL187:
 1952              	.L102:
 372:Middlewares/lvgl/src/core/../misc/lv_style.h ****             if(props[i] == prop) {
 1953              		.loc 4 372 42 view .LVU674
 1954              	.LBE183:
 1955              	.LBE184:
 1956              	.LBE185:
 770:Middlewares/lvgl/src/core/lv_obj.c **** 
 1957              		.loc 1 770 9 is_stmt 1 view .LVU675
 770:Middlewares/lvgl/src/core/lv_obj.c **** 
 1958              		.loc 1 770 43 is_stmt 0 view .LVU676
 1959 00fe DDF82C80 		ldr	r8, [sp, #44]
 1960              	.LVL188:
 773:Middlewares/lvgl/src/core/lv_obj.c ****         for(j = 0; tr->props[j] != 0 && tsi < STYLE_TRANSITION_MAX; j++) {
 1961              		.loc 1 773 9 is_stmt 1 view .LVU677
 774:Middlewares/lvgl/src/core/lv_obj.c ****             uint32_t t;
 1962              		.loc 1 774 9 view .LVU678
 774:Middlewares/lvgl/src/core/lv_obj.c ****             uint32_t t;
 1963              		.loc 1 774 15 is_stmt 0 view .LVU679
 1964 0102 0023     		movs	r3, #0
 1965              	.LVL189:
 774:Middlewares/lvgl/src/core/lv_obj.c ****             uint32_t t;
 1966              		.loc 1 774 15 view .LVU680
ARM GAS  /tmp/ccyhZZXZ.s 			page 77


 1967 0104 0493     		str	r3, [sp, #16]
 774:Middlewares/lvgl/src/core/lv_obj.c ****             uint32_t t;
 1968              		.loc 1 774 9 view .LVU681
 1969 0106 20E0     		b	.L81
 1970              	.LVL190:
 1971              	.L82:
 1972              	.LBB186:
 776:Middlewares/lvgl/src/core/lv_obj.c ****                 lv_style_selector_t selector = ts[t].selector;
 1973              		.loc 1 776 33 is_stmt 1 discriminator 2 view .LVU682
 776:Middlewares/lvgl/src/core/lv_obj.c ****                 lv_style_selector_t selector = ts[t].selector;
 1974              		.loc 1 776 34 is_stmt 0 discriminator 2 view .LVU683
 1975 0108 0134     		adds	r4, r4, #1
 1976              	.LVL191:
 1977              	.L87:
 776:Middlewares/lvgl/src/core/lv_obj.c ****                 lv_style_selector_t selector = ts[t].selector;
 1978              		.loc 1 776 24 is_stmt 1 discriminator 1 view .LVU684
 776:Middlewares/lvgl/src/core/lv_obj.c ****                 lv_style_selector_t selector = ts[t].selector;
 1979              		.loc 1 776 13 is_stmt 0 discriminator 1 view .LVU685
 1980 010a A345     		cmp	fp, r4
 1981 010c 18D9     		bls	.L83
 1982              	.LBB187:
 777:Middlewares/lvgl/src/core/lv_obj.c ****                 lv_state_t state_ts = lv_obj_style_get_selector_state(selector);
 1983              		.loc 1 777 17 is_stmt 1 view .LVU686
 777:Middlewares/lvgl/src/core/lv_obj.c ****                 lv_state_t state_ts = lv_obj_style_get_selector_state(selector);
 1984              		.loc 1 777 50 is_stmt 0 view .LVU687
 1985 010e 04EB8405 		add	r5, r4, r4, lsl #2
 1986 0112 0AEB8505 		add	r5, r10, r5, lsl #2
 777:Middlewares/lvgl/src/core/lv_obj.c ****                 lv_state_t state_ts = lv_obj_style_get_selector_state(selector);
 1987              		.loc 1 777 37 view .LVU688
 1988 0116 6F68     		ldr	r7, [r5, #4]
 1989              	.LVL192:
 778:Middlewares/lvgl/src/core/lv_obj.c ****                 lv_part_t part_ts = lv_obj_style_get_selector_part(selector);
 1990              		.loc 1 778 17 is_stmt 1 view .LVU689
 778:Middlewares/lvgl/src/core/lv_obj.c ****                 lv_part_t part_ts = lv_obj_style_get_selector_part(selector);
 1991              		.loc 1 778 39 is_stmt 0 view .LVU690
 1992 0118 3846     		mov	r0, r7
 1993 011a FFF7FEFF 		bl	lv_obj_style_get_selector_state
 1994              	.LVL193:
 1995 011e 0290     		str	r0, [sp, #8]
 1996              	.LVL194:
 779:Middlewares/lvgl/src/core/lv_obj.c ****                 if(ts[t].prop == tr->props[j] && part_ts == part_act && state_ts >= state_act) brea
 1997              		.loc 1 779 17 is_stmt 1 view .LVU691
 779:Middlewares/lvgl/src/core/lv_obj.c ****                 if(ts[t].prop == tr->props[j] && part_ts == part_act && state_ts >= state_act) brea
 1998              		.loc 1 779 37 is_stmt 0 view .LVU692
 1999 0120 3846     		mov	r0, r7
 2000 0122 FFF7FEFF 		bl	lv_obj_style_get_selector_part
 2001              	.LVL195:
 780:Middlewares/lvgl/src/core/lv_obj.c ****             }
 2002              		.loc 1 780 17 is_stmt 1 view .LVU693
 780:Middlewares/lvgl/src/core/lv_obj.c ****             }
 2003              		.loc 1 780 25 is_stmt 0 view .LVU694
 2004 0126 2A89     		ldrh	r2, [r5, #8]
 780:Middlewares/lvgl/src/core/lv_obj.c ****             }
 2005              		.loc 1 780 36 view .LVU695
 2006 0128 D8F80030 		ldr	r3, [r8]
 780:Middlewares/lvgl/src/core/lv_obj.c ****             }
 2007              		.loc 1 780 31 view .LVU696
ARM GAS  /tmp/ccyhZZXZ.s 			page 78


 2008 012c 33F80930 		ldrh	r3, [r3, r9]
 780:Middlewares/lvgl/src/core/lv_obj.c ****             }
 2009              		.loc 1 780 19 view .LVU697
 2010 0130 9A42     		cmp	r2, r3
 2011 0132 E9D1     		bne	.L82
 780:Middlewares/lvgl/src/core/lv_obj.c ****             }
 2012              		.loc 1 780 47 discriminator 1 view .LVU698
 2013 0134 8642     		cmp	r6, r0
 2014 0136 E7D1     		bne	.L82
 780:Middlewares/lvgl/src/core/lv_obj.c ****             }
 2015              		.loc 1 780 70 discriminator 2 view .LVU699
 2016 0138 059B     		ldr	r3, [sp, #20]
 2017 013a 029A     		ldr	r2, [sp, #8]
 2018 013c 9342     		cmp	r3, r2
 2019 013e E3D8     		bhi	.L82
 2020              	.LVL196:
 2021              	.L83:
 780:Middlewares/lvgl/src/core/lv_obj.c ****             }
 2022              		.loc 1 780 70 discriminator 2 view .LVU700
 2023              	.LBE187:
 784:Middlewares/lvgl/src/core/lv_obj.c ****                 ts[tsi].time = tr->time;
 2024              		.loc 1 784 13 is_stmt 1 view .LVU701
 784:Middlewares/lvgl/src/core/lv_obj.c ****                 ts[tsi].time = tr->time;
 2025              		.loc 1 784 15 is_stmt 0 view .LVU702
 2026 0140 A345     		cmp	fp, r4
 2027 0142 10D0     		beq	.L106
 2028              	.L85:
 784:Middlewares/lvgl/src/core/lv_obj.c ****                 ts[tsi].time = tr->time;
 2029              		.loc 1 784 15 view .LVU703
 2030              	.LBE186:
 774:Middlewares/lvgl/src/core/lv_obj.c ****             uint32_t t;
 2031              		.loc 1 774 69 is_stmt 1 discriminator 2 view .LVU704
 774:Middlewares/lvgl/src/core/lv_obj.c ****             uint32_t t;
 2032              		.loc 1 774 70 is_stmt 0 discriminator 2 view .LVU705
 2033 0144 049B     		ldr	r3, [sp, #16]
 2034 0146 0133     		adds	r3, r3, #1
 2035 0148 0493     		str	r3, [sp, #16]
 2036              	.LVL197:
 2037              	.L81:
 774:Middlewares/lvgl/src/core/lv_obj.c ****             uint32_t t;
 2038              		.loc 1 774 20 is_stmt 1 discriminator 1 view .LVU706
 774:Middlewares/lvgl/src/core/lv_obj.c ****             uint32_t t;
 2039              		.loc 1 774 22 is_stmt 0 discriminator 1 view .LVU707
 2040 014a D8F80030 		ldr	r3, [r8]
 774:Middlewares/lvgl/src/core/lv_obj.c ****             uint32_t t;
 2041              		.loc 1 774 29 discriminator 1 view .LVU708
 2042 014e 049A     		ldr	r2, [sp, #16]
 2043 0150 4FEA4209 		lsl	r9, r2, #1
 2044 0154 33F81230 		ldrh	r3, [r3, r2, lsl #1]
 774:Middlewares/lvgl/src/core/lv_obj.c ****             uint32_t t;
 2045              		.loc 1 774 9 discriminator 1 view .LVU709
 2046 0158 002B     		cmp	r3, #0
 2047 015a 8DD0     		beq	.L88
 774:Middlewares/lvgl/src/core/lv_obj.c ****             uint32_t t;
 2048              		.loc 1 774 38 discriminator 3 view .LVU710
 2049 015c BBF11F0F 		cmp	fp, #31
 2050 0160 8AD8     		bhi	.L88
ARM GAS  /tmp/ccyhZZXZ.s 			page 79


 2051              	.LBB188:
 776:Middlewares/lvgl/src/core/lv_obj.c ****                 lv_style_selector_t selector = ts[t].selector;
 2052              		.loc 1 776 19 view .LVU711
 2053 0162 0024     		movs	r4, #0
 2054 0164 D1E7     		b	.L87
 2055              	.LVL198:
 2056              	.L106:
 785:Middlewares/lvgl/src/core/lv_obj.c ****                 ts[tsi].delay = tr->delay;
 2057              		.loc 1 785 17 is_stmt 1 view .LVU712
 785:Middlewares/lvgl/src/core/lv_obj.c ****                 ts[tsi].delay = tr->delay;
 2058              		.loc 1 785 34 is_stmt 0 view .LVU713
 2059 0166 D8F80C10 		ldr	r1, [r8, #12]
 785:Middlewares/lvgl/src/core/lv_obj.c ****                 ts[tsi].delay = tr->delay;
 2060              		.loc 1 785 19 view .LVU714
 2061 016a 0BEB8B02 		add	r2, fp, fp, lsl #2
 2062 016e 0AEB8203 		add	r3, r10, r2, lsl #2
 785:Middlewares/lvgl/src/core/lv_obj.c ****                 ts[tsi].delay = tr->delay;
 2063              		.loc 1 785 30 view .LVU715
 2064 0172 2AF82210 		strh	r1, [r10, r2, lsl #2]	@ movhi
 786:Middlewares/lvgl/src/core/lv_obj.c ****                 ts[tsi].path_cb = tr->path_xcb;
 2065              		.loc 1 786 17 is_stmt 1 view .LVU716
 786:Middlewares/lvgl/src/core/lv_obj.c ****                 ts[tsi].path_cb = tr->path_xcb;
 2066              		.loc 1 786 35 is_stmt 0 view .LVU717
 2067 0176 D8F81020 		ldr	r2, [r8, #16]
 786:Middlewares/lvgl/src/core/lv_obj.c ****                 ts[tsi].path_cb = tr->path_xcb;
 2068              		.loc 1 786 31 view .LVU718
 2069 017a 5A80     		strh	r2, [r3, #2]	@ movhi
 787:Middlewares/lvgl/src/core/lv_obj.c ****                 ts[tsi].prop = tr->props[j];
 2070              		.loc 1 787 17 is_stmt 1 view .LVU719
 787:Middlewares/lvgl/src/core/lv_obj.c ****                 ts[tsi].prop = tr->props[j];
 2071              		.loc 1 787 37 is_stmt 0 view .LVU720
 2072 017c D8F80820 		ldr	r2, [r8, #8]
 787:Middlewares/lvgl/src/core/lv_obj.c ****                 ts[tsi].prop = tr->props[j];
 2073              		.loc 1 787 33 view .LVU721
 2074 0180 DA60     		str	r2, [r3, #12]
 788:Middlewares/lvgl/src/core/lv_obj.c **** #if LV_USE_USER_DATA
 2075              		.loc 1 788 17 is_stmt 1 view .LVU722
 788:Middlewares/lvgl/src/core/lv_obj.c **** #if LV_USE_USER_DATA
 2076              		.loc 1 788 34 is_stmt 0 view .LVU723
 2077 0182 D8F80020 		ldr	r2, [r8]
 788:Middlewares/lvgl/src/core/lv_obj.c **** #if LV_USE_USER_DATA
 2078              		.loc 1 788 41 view .LVU724
 2079 0186 32F80920 		ldrh	r2, [r2, r9]
 788:Middlewares/lvgl/src/core/lv_obj.c **** #if LV_USE_USER_DATA
 2080              		.loc 1 788 30 view .LVU725
 2081 018a 1A81     		strh	r2, [r3, #8]	@ movhi
 790:Middlewares/lvgl/src/core/lv_obj.c **** #endif
 2082              		.loc 1 790 17 is_stmt 1 view .LVU726
 790:Middlewares/lvgl/src/core/lv_obj.c **** #endif
 2083              		.loc 1 790 39 is_stmt 0 view .LVU727
 2084 018c D8F80420 		ldr	r2, [r8, #4]
 790:Middlewares/lvgl/src/core/lv_obj.c **** #endif
 2085              		.loc 1 790 35 view .LVU728
 2086 0190 1A61     		str	r2, [r3, #16]
 792:Middlewares/lvgl/src/core/lv_obj.c ****                 tsi++;
 2087              		.loc 1 792 17 is_stmt 1 view .LVU729
 792:Middlewares/lvgl/src/core/lv_obj.c ****                 tsi++;
ARM GAS  /tmp/ccyhZZXZ.s 			page 80


 2088              		.loc 1 792 45 is_stmt 0 view .LVU730
 2089 0192 089A     		ldr	r2, [sp, #32]
 2090 0194 5268     		ldr	r2, [r2, #4]
 2091 0196 C2F31702 		ubfx	r2, r2, #0, #24
 792:Middlewares/lvgl/src/core/lv_obj.c ****                 tsi++;
 2092              		.loc 1 792 34 view .LVU731
 2093 019a 5A60     		str	r2, [r3, #4]
 793:Middlewares/lvgl/src/core/lv_obj.c ****             }
 2094              		.loc 1 793 17 is_stmt 1 view .LVU732
 793:Middlewares/lvgl/src/core/lv_obj.c ****             }
 2095              		.loc 1 793 20 is_stmt 0 view .LVU733
 2096 019c 0BF1010B 		add	fp, fp, #1
 2097              	.LVL199:
 793:Middlewares/lvgl/src/core/lv_obj.c ****             }
 2098              		.loc 1 793 20 view .LVU734
 2099 01a0 D0E7     		b	.L85
 2100              	.LVL200:
 2101              	.L103:
 793:Middlewares/lvgl/src/core/lv_obj.c ****             }
 2102              		.loc 1 793 20 view .LVU735
 2103              	.LBE188:
 2104              	.LBE189:
 2105 01a2 0024     		movs	r4, #0
 2106 01a4 099E     		ldr	r6, [sp, #36]
 2107 01a6 069F     		ldr	r7, [sp, #24]
 2108 01a8 DDF81C80 		ldr	r8, [sp, #28]
 2109 01ac 0EE0     		b	.L91
 2110              	.LVL201:
 2111              	.L92:
 2112              	.LBB190:
 799:Middlewares/lvgl/src/core/lv_obj.c ****         _lv_obj_style_create_transition(obj, part_act, prev_state, new_state, &ts[i]);
 2113              		.loc 1 799 9 is_stmt 1 discriminator 3 view .LVU736
 799:Middlewares/lvgl/src/core/lv_obj.c ****         _lv_obj_style_create_transition(obj, part_act, prev_state, new_state, &ts[i]);
 2114              		.loc 1 799 63 is_stmt 0 discriminator 3 view .LVU737
 2115 01ae 04EB8405 		add	r5, r4, r4, lsl #2
 2116 01b2 0AEB8505 		add	r5, r10, r5, lsl #2
 799:Middlewares/lvgl/src/core/lv_obj.c ****         _lv_obj_style_create_transition(obj, part_act, prev_state, new_state, &ts[i]);
 2117              		.loc 1 799 30 discriminator 3 view .LVU738
 2118 01b6 6868     		ldr	r0, [r5, #4]
 2119 01b8 FFF7FEFF 		bl	lv_obj_style_get_selector_part
 2120              	.LVL202:
 2121 01bc 0146     		mov	r1, r0
 2122              	.LVL203:
 800:Middlewares/lvgl/src/core/lv_obj.c ****     }
 2123              		.loc 1 800 9 is_stmt 1 discriminator 3 view .LVU739
 2124 01be 0095     		str	r5, [sp]
 2125 01c0 4346     		mov	r3, r8
 2126 01c2 3246     		mov	r2, r6
 2127 01c4 3846     		mov	r0, r7
 2128              	.LVL204:
 800:Middlewares/lvgl/src/core/lv_obj.c ****     }
 2129              		.loc 1 800 9 is_stmt 0 discriminator 3 view .LVU740
 2130 01c6 FFF7FEFF 		bl	_lv_obj_style_create_transition
 2131              	.LVL205:
 800:Middlewares/lvgl/src/core/lv_obj.c ****     }
 2132              		.loc 1 800 9 discriminator 3 view .LVU741
 2133              	.LBE190:
ARM GAS  /tmp/ccyhZZXZ.s 			page 81


 798:Middlewares/lvgl/src/core/lv_obj.c ****         lv_part_t part_act = lv_obj_style_get_selector_part(ts[i].selector);
 2134              		.loc 1 798 24 is_stmt 1 discriminator 3 view .LVU742
 798:Middlewares/lvgl/src/core/lv_obj.c ****         lv_part_t part_act = lv_obj_style_get_selector_part(ts[i].selector);
 2135              		.loc 1 798 25 is_stmt 0 discriminator 3 view .LVU743
 2136 01ca 0134     		adds	r4, r4, #1
 2137              	.LVL206:
 2138              	.L91:
 798:Middlewares/lvgl/src/core/lv_obj.c ****         lv_part_t part_act = lv_obj_style_get_selector_part(ts[i].selector);
 2139              		.loc 1 798 15 is_stmt 1 discriminator 1 view .LVU744
 798:Middlewares/lvgl/src/core/lv_obj.c ****         lv_part_t part_act = lv_obj_style_get_selector_part(ts[i].selector);
 2140              		.loc 1 798 5 is_stmt 0 discriminator 1 view .LVU745
 2141 01cc A345     		cmp	fp, r4
 2142 01ce EED8     		bhi	.L92
 803:Middlewares/lvgl/src/core/lv_obj.c **** 
 2143              		.loc 1 803 5 is_stmt 1 view .LVU746
 2144 01d0 5046     		mov	r0, r10
 2145 01d2 FFF7FEFF 		bl	lv_mem_buf_release
 2146              	.LVL207:
 805:Middlewares/lvgl/src/core/lv_obj.c ****         lv_obj_invalidate(obj);
 2147              		.loc 1 805 5 view .LVU747
 805:Middlewares/lvgl/src/core/lv_obj.c ****         lv_obj_invalidate(obj);
 2148              		.loc 1 805 7 is_stmt 0 view .LVU748
 2149 01d6 0A9B     		ldr	r3, [sp, #40]
 2150 01d8 012B     		cmp	r3, #1
 2151 01da 14D0     		beq	.L107
 808:Middlewares/lvgl/src/core/lv_obj.c ****         lv_obj_refresh_style(obj, LV_PART_ANY, LV_STYLE_PROP_ANY);
 2152              		.loc 1 808 10 is_stmt 1 view .LVU749
 808:Middlewares/lvgl/src/core/lv_obj.c ****         lv_obj_refresh_style(obj, LV_PART_ANY, LV_STYLE_PROP_ANY);
 2153              		.loc 1 808 12 is_stmt 0 view .LVU750
 2154 01dc 0A9B     		ldr	r3, [sp, #40]
 2155 01de 032B     		cmp	r3, #3
 2156 01e0 15D0     		beq	.L108
 811:Middlewares/lvgl/src/core/lv_obj.c ****         lv_obj_invalidate(obj);
 2157              		.loc 1 811 10 is_stmt 1 view .LVU751
 811:Middlewares/lvgl/src/core/lv_obj.c ****         lv_obj_invalidate(obj);
 2158              		.loc 1 811 12 is_stmt 0 view .LVU752
 2159 01e2 0A9B     		ldr	r3, [sp, #40]
 2160 01e4 022B     		cmp	r3, #2
 2161 01e6 7FF41BAF 		bne	.L68
 812:Middlewares/lvgl/src/core/lv_obj.c ****         lv_obj_refresh_ext_draw_size(obj);
 2162              		.loc 1 812 9 is_stmt 1 view .LVU753
 2163 01ea 069C     		ldr	r4, [sp, #24]
 2164              	.LVL208:
 812:Middlewares/lvgl/src/core/lv_obj.c ****         lv_obj_refresh_ext_draw_size(obj);
 2165              		.loc 1 812 9 is_stmt 0 view .LVU754
 2166 01ec 2046     		mov	r0, r4
 2167 01ee FFF7FEFF 		bl	lv_obj_invalidate
 2168              	.LVL209:
 813:Middlewares/lvgl/src/core/lv_obj.c ****     }
 2169              		.loc 1 813 9 is_stmt 1 view .LVU755
 2170 01f2 2046     		mov	r0, r4
 2171 01f4 FFF7FEFF 		bl	lv_obj_refresh_ext_draw_size
 2172              	.LVL210:
 2173 01f8 12E7     		b	.L68
 2174              	.LVL211:
 2175              	.L97:
 813:Middlewares/lvgl/src/core/lv_obj.c ****     }
ARM GAS  /tmp/ccyhZZXZ.s 			page 82


 2176              		.loc 1 813 9 is_stmt 0 view .LVU756
 2177 01fa 0024     		movs	r4, #0
 2178 01fc 099E     		ldr	r6, [sp, #36]
 2179 01fe 069F     		ldr	r7, [sp, #24]
 2180 0200 DDF81C80 		ldr	r8, [sp, #28]
 2181 0204 E2E7     		b	.L91
 2182              	.LVL212:
 2183              	.L107:
 806:Middlewares/lvgl/src/core/lv_obj.c ****     }
 2184              		.loc 1 806 9 is_stmt 1 view .LVU757
 2185 0206 0698     		ldr	r0, [sp, #24]
 2186 0208 FFF7FEFF 		bl	lv_obj_invalidate
 2187              	.LVL213:
 2188 020c 08E7     		b	.L68
 2189              	.L108:
 809:Middlewares/lvgl/src/core/lv_obj.c ****     }
 2190              		.loc 1 809 9 view .LVU758
 2191 020e 4FF6FF72 		movw	r2, #65535
 2192 0212 4FF47021 		mov	r1, #983040
 2193 0216 0698     		ldr	r0, [sp, #24]
 2194 0218 FFF7FEFF 		bl	lv_obj_refresh_style
 2195              	.LVL214:
 2196 021c 00E7     		b	.L68
 2197              		.cfi_endproc
 2198              	.LFE176:
 2200              		.section	.text.lv_init,"ax",%progbits
 2201              		.align	1
 2202              		.global	lv_init
 2203              		.syntax unified
 2204              		.thumb
 2205              		.thumb_func
 2206              		.fpu fpv4-sp-d16
 2208              	lv_init:
 2209              	.LFB153:
  88:Middlewares/lvgl/src/core/lv_obj.c ****     /*Do nothing if already initialized*/
 2210              		.loc 1 88 1 view -0
 2211              		.cfi_startproc
 2212              		@ args = 0, pretend = 0, frame = 0
 2213              		@ frame_needed = 0, uses_anonymous_args = 0
 2214 0000 08B5     		push	{r3, lr}
 2215              	.LCFI17:
 2216              		.cfi_def_cfa_offset 8
 2217              		.cfi_offset 3, -8
 2218              		.cfi_offset 14, -4
  90:Middlewares/lvgl/src/core/lv_obj.c ****         LV_LOG_WARN("lv_init: already inited");
 2219              		.loc 1 90 5 view .LVU760
  90:Middlewares/lvgl/src/core/lv_obj.c ****         LV_LOG_WARN("lv_init: already inited");
 2220              		.loc 1 90 8 is_stmt 0 view .LVU761
 2221 0002 114B     		ldr	r3, .L113
 2222 0004 1B78     		ldrb	r3, [r3]	@ zero_extendqisi2
  90:Middlewares/lvgl/src/core/lv_obj.c ****         LV_LOG_WARN("lv_init: already inited");
 2223              		.loc 1 90 7 view .LVU762
 2224 0006 03B1     		cbz	r3, .L112
 2225              	.L109:
 170:Middlewares/lvgl/src/core/lv_obj.c **** 
 2226              		.loc 1 170 1 view .LVU763
 2227 0008 08BD     		pop	{r3, pc}
ARM GAS  /tmp/ccyhZZXZ.s 			page 83


 2228              	.L112:
  95:Middlewares/lvgl/src/core/lv_obj.c **** 
 2229              		.loc 1 95 25 is_stmt 1 view .LVU764
  98:Middlewares/lvgl/src/core/lv_obj.c **** 
 2230              		.loc 1 98 5 view .LVU765
 2231 000a FFF7FEFF 		bl	lv_mem_init
 2232              	.LVL215:
 100:Middlewares/lvgl/src/core/lv_obj.c **** 
 2233              		.loc 1 100 5 view .LVU766
 2234 000e FFF7FEFF 		bl	_lv_timer_core_init
 2235              	.LVL216:
 102:Middlewares/lvgl/src/core/lv_obj.c **** 
 2236              		.loc 1 102 5 view .LVU767
 2237 0012 FFF7FEFF 		bl	_lv_fs_init
 2238              	.LVL217:
 104:Middlewares/lvgl/src/core/lv_obj.c **** 
 2239              		.loc 1 104 5 view .LVU768
 2240 0016 FFF7FEFF 		bl	_lv_anim_core_init
 2241              	.LVL218:
 106:Middlewares/lvgl/src/core/lv_obj.c **** 
 2242              		.loc 1 106 5 view .LVU769
 2243 001a FFF7FEFF 		bl	_lv_group_init
 2244              	.LVL219:
 120:Middlewares/lvgl/src/core/lv_obj.c ****     _lv_ll_init(&LV_GC_ROOT(_lv_disp_ll), sizeof(lv_disp_t));
 2245              		.loc 1 120 5 view .LVU770
 2246 001e FFF7FEFF 		bl	_lv_obj_style_init
 2247              	.LVL220:
 121:Middlewares/lvgl/src/core/lv_obj.c ****     _lv_ll_init(&LV_GC_ROOT(_lv_indev_ll), sizeof(lv_indev_t));
 2248              		.loc 1 121 5 view .LVU771
 2249 0022 4FF4AC71 		mov	r1, #344
 2250 0026 0948     		ldr	r0, .L113+4
 2251 0028 FFF7FEFF 		bl	_lv_ll_init
 2252              	.LVL221:
 122:Middlewares/lvgl/src/core/lv_obj.c **** 
 2253              		.loc 1 122 5 view .LVU772
 2254 002c 5821     		movs	r1, #88
 2255 002e 0848     		ldr	r0, .L113+8
 2256 0030 FFF7FEFF 		bl	_lv_ll_init
 2257              	.LVL222:
 125:Middlewares/lvgl/src/core/lv_obj.c **** 
 2258              		.loc 1 125 5 view .LVU773
 2259 0034 FFF7FEFF 		bl	_lv_refr_init
 2260              	.LVL223:
 127:Middlewares/lvgl/src/core/lv_obj.c **** #if LV_IMG_CACHE_DEF_SIZE
 2261              		.loc 1 127 5 view .LVU774
 2262 0038 FFF7FEFF 		bl	_lv_img_decoder_init
 2263              	.LVL224:
 132:Middlewares/lvgl/src/core/lv_obj.c **** 
 2264              		.loc 1 132 5 view .LVU775
 134:Middlewares/lvgl/src/core/lv_obj.c ****     if(txt_u8[0] != 0xc3 || txt_u8[1] != 0x81 || txt_u8[2] != 0x00) {
 2265              		.loc 1 134 5 view .LVU776
 135:Middlewares/lvgl/src/core/lv_obj.c ****         LV_LOG_WARN("The strings has no UTF-8 encoding. Non-ASCII characters won't be displayed.")
 2266              		.loc 1 135 5 view .LVU777
 137:Middlewares/lvgl/src/core/lv_obj.c **** 
 2267              		.loc 1 137 5 view .LVU778
 139:Middlewares/lvgl/src/core/lv_obj.c ****     uint8_t * endianess_test_p = (uint8_t*) &endianess_test;
 2268              		.loc 1 139 5 view .LVU779
ARM GAS  /tmp/ccyhZZXZ.s 			page 84


 140:Middlewares/lvgl/src/core/lv_obj.c ****     bool big_endian = endianess_test_p[0] == 0x11 ? true : false;
 2269              		.loc 1 140 5 view .LVU780
 141:Middlewares/lvgl/src/core/lv_obj.c **** 
 2270              		.loc 1 141 5 view .LVU781
 143:Middlewares/lvgl/src/core/lv_obj.c ****         LV_ASSERT_MSG(LV_BIG_ENDIAN_SYSTEM == 1, "It's a big endian system but LV_BIG_ENDIAN_SYSTEM
 2271              		.loc 1 143 5 view .LVU782
 146:Middlewares/lvgl/src/core/lv_obj.c ****     }
 2272              		.loc 1 146 9 view .LVU783
 146:Middlewares/lvgl/src/core/lv_obj.c ****     }
 2273              		.loc 1 146 9 view .LVU784
 146:Middlewares/lvgl/src/core/lv_obj.c ****     }
 2274              		.loc 1 146 9 view .LVU785
 165:Middlewares/lvgl/src/core/lv_obj.c **** 
 2275              		.loc 1 165 5 view .LVU786
 2276 003c FFF7FEFF 		bl	lv_extra_init
 2277              	.LVL225:
 167:Middlewares/lvgl/src/core/lv_obj.c **** 
 2278              		.loc 1 167 5 view .LVU787
 167:Middlewares/lvgl/src/core/lv_obj.c **** 
 2279              		.loc 1 167 20 is_stmt 0 view .LVU788
 2280 0040 014B     		ldr	r3, .L113
 2281 0042 0122     		movs	r2, #1
 2282 0044 1A70     		strb	r2, [r3]
 169:Middlewares/lvgl/src/core/lv_obj.c **** }
 2283              		.loc 1 169 29 is_stmt 1 view .LVU789
 2284              	.LVL226:
 169:Middlewares/lvgl/src/core/lv_obj.c **** }
 2285              		.loc 1 169 29 is_stmt 0 view .LVU790
 2286 0046 DFE7     		b	.L109
 2287              	.L114:
 2288              		.align	2
 2289              	.L113:
 2290 0048 00000000 		.word	.LANCHOR0
 2291 004c 00000000 		.word	_lv_disp_ll
 2292 0050 00000000 		.word	_lv_indev_ll
 2293              		.cfi_endproc
 2294              	.LFE153:
 2296              		.section	.text.lv_deinit,"ax",%progbits
 2297              		.align	1
 2298              		.global	lv_deinit
 2299              		.syntax unified
 2300              		.thumb
 2301              		.thumb_func
 2302              		.fpu fpv4-sp-d16
 2304              	lv_deinit:
 2305              	.LFB154:
 175:Middlewares/lvgl/src/core/lv_obj.c ****     _lv_gc_clear_roots();
 2306              		.loc 1 175 1 is_stmt 1 view -0
 2307              		.cfi_startproc
 2308              		@ args = 0, pretend = 0, frame = 0
 2309              		@ frame_needed = 0, uses_anonymous_args = 0
 2310 0000 08B5     		push	{r3, lr}
 2311              	.LCFI18:
 2312              		.cfi_def_cfa_offset 8
 2313              		.cfi_offset 3, -8
 2314              		.cfi_offset 14, -4
 176:Middlewares/lvgl/src/core/lv_obj.c **** 
ARM GAS  /tmp/ccyhZZXZ.s 			page 85


 2315              		.loc 1 176 5 view .LVU792
 2316 0002 FFF7FEFF 		bl	_lv_gc_clear_roots
 2317              	.LVL227:
 178:Middlewares/lvgl/src/core/lv_obj.c ****     lv_mem_deinit();
 2318              		.loc 1 178 5 view .LVU793
 2319 0006 0020     		movs	r0, #0
 2320 0008 FFF7FEFF 		bl	lv_disp_set_default
 2321              	.LVL228:
 179:Middlewares/lvgl/src/core/lv_obj.c ****     lv_initialized = false;
 2322              		.loc 1 179 5 view .LVU794
 2323 000c FFF7FEFF 		bl	lv_mem_deinit
 2324              	.LVL229:
 180:Middlewares/lvgl/src/core/lv_obj.c **** 
 2325              		.loc 1 180 5 view .LVU795
 180:Middlewares/lvgl/src/core/lv_obj.c **** 
 2326              		.loc 1 180 20 is_stmt 0 view .LVU796
 2327 0010 014B     		ldr	r3, .L117
 2328 0012 0022     		movs	r2, #0
 2329 0014 1A70     		strb	r2, [r3]
 182:Middlewares/lvgl/src/core/lv_obj.c **** 
 2330              		.loc 1 182 34 is_stmt 1 view .LVU797
 187:Middlewares/lvgl/src/core/lv_obj.c **** #endif
 2331              		.loc 1 187 1 is_stmt 0 view .LVU798
 2332 0016 08BD     		pop	{r3, pc}
 2333              	.L118:
 2334              		.align	2
 2335              	.L117:
 2336 0018 00000000 		.word	.LANCHOR0
 2337              		.cfi_endproc
 2338              	.LFE154:
 2340              		.section	.text.lv_obj_create,"ax",%progbits
 2341              		.align	1
 2342              		.global	lv_obj_create
 2343              		.syntax unified
 2344              		.thumb
 2345              		.thumb_func
 2346              		.fpu fpv4-sp-d16
 2348              	lv_obj_create:
 2349              	.LVL230:
 2350              	.LFB155:
 191:Middlewares/lvgl/src/core/lv_obj.c ****     LV_LOG_INFO("begin")
 2351              		.loc 1 191 1 is_stmt 1 view -0
 2352              		.cfi_startproc
 2353              		@ args = 0, pretend = 0, frame = 0
 2354              		@ frame_needed = 0, uses_anonymous_args = 0
 191:Middlewares/lvgl/src/core/lv_obj.c ****     LV_LOG_INFO("begin")
 2355              		.loc 1 191 1 is_stmt 0 view .LVU800
 2356 0000 10B5     		push	{r4, lr}
 2357              	.LCFI19:
 2358              		.cfi_def_cfa_offset 8
 2359              		.cfi_offset 4, -8
 2360              		.cfi_offset 14, -4
 2361 0002 0146     		mov	r1, r0
 193:Middlewares/lvgl/src/core/lv_obj.c ****     lv_obj_class_init_obj(obj);
 2362              		.loc 1 193 5 is_stmt 1 view .LVU801
 193:Middlewares/lvgl/src/core/lv_obj.c ****     lv_obj_class_init_obj(obj);
 2363              		.loc 1 193 22 is_stmt 0 view .LVU802
ARM GAS  /tmp/ccyhZZXZ.s 			page 86


 2364 0004 0348     		ldr	r0, .L121
 2365              	.LVL231:
 193:Middlewares/lvgl/src/core/lv_obj.c ****     lv_obj_class_init_obj(obj);
 2366              		.loc 1 193 22 view .LVU803
 2367 0006 FFF7FEFF 		bl	lv_obj_class_create_obj
 2368              	.LVL232:
 193:Middlewares/lvgl/src/core/lv_obj.c ****     lv_obj_class_init_obj(obj);
 2369              		.loc 1 193 22 view .LVU804
 2370 000a 0446     		mov	r4, r0
 2371              	.LVL233:
 194:Middlewares/lvgl/src/core/lv_obj.c ****     return obj;
 2372              		.loc 1 194 5 is_stmt 1 view .LVU805
 2373 000c FFF7FEFF 		bl	lv_obj_class_init_obj
 2374              	.LVL234:
 195:Middlewares/lvgl/src/core/lv_obj.c **** }
 2375              		.loc 1 195 5 view .LVU806
 196:Middlewares/lvgl/src/core/lv_obj.c **** 
 2376              		.loc 1 196 1 is_stmt 0 view .LVU807
 2377 0010 2046     		mov	r0, r4
 2378 0012 10BD     		pop	{r4, pc}
 2379              	.LVL235:
 2380              	.L122:
 196:Middlewares/lvgl/src/core/lv_obj.c **** 
 2381              		.loc 1 196 1 view .LVU808
 2382              		.align	2
 2383              	.L121:
 2384 0014 00000000 		.word	.LANCHOR1
 2385              		.cfi_endproc
 2386              	.LFE155:
 2388              		.section	.text.lv_obj_add_flag,"ax",%progbits
 2389              		.align	1
 2390              		.global	lv_obj_add_flag
 2391              		.syntax unified
 2392              		.thumb
 2393              		.thumb_func
 2394              		.fpu fpv4-sp-d16
 2396              	lv_obj_add_flag:
 2397              	.LVL236:
 2398              	.LFB156:
 207:Middlewares/lvgl/src/core/lv_obj.c ****     LV_ASSERT_OBJ(obj, MY_CLASS);
 2399              		.loc 1 207 1 is_stmt 1 view -0
 2400              		.cfi_startproc
 2401              		@ args = 0, pretend = 0, frame = 0
 2402              		@ frame_needed = 0, uses_anonymous_args = 0
 207:Middlewares/lvgl/src/core/lv_obj.c ****     LV_ASSERT_OBJ(obj, MY_CLASS);
 2403              		.loc 1 207 1 is_stmt 0 view .LVU810
 2404 0000 F8B5     		push	{r3, r4, r5, r6, r7, lr}
 2405              	.LCFI20:
 2406              		.cfi_def_cfa_offset 24
 2407              		.cfi_offset 3, -24
 2408              		.cfi_offset 4, -20
 2409              		.cfi_offset 5, -16
 2410              		.cfi_offset 6, -12
 2411              		.cfi_offset 7, -8
 2412              		.cfi_offset 14, -4
 2413 0002 0446     		mov	r4, r0
 2414 0004 0D46     		mov	r5, r1
ARM GAS  /tmp/ccyhZZXZ.s 			page 87


 208:Middlewares/lvgl/src/core/lv_obj.c **** 
 2415              		.loc 1 208 5 is_stmt 1 view .LVU811
 208:Middlewares/lvgl/src/core/lv_obj.c **** 
 2416              		.loc 1 208 5 view .LVU812
 208:Middlewares/lvgl/src/core/lv_obj.c **** 
 2417              		.loc 1 208 5 view .LVU813
 210:Middlewares/lvgl/src/core/lv_obj.c **** 
 2418              		.loc 1 210 5 view .LVU814
 210:Middlewares/lvgl/src/core/lv_obj.c **** 
 2419              		.loc 1 210 26 is_stmt 0 view .LVU815
 2420 0006 FFF7FEFF 		bl	lv_obj_is_layout_positioned
 2421              	.LVL237:
 210:Middlewares/lvgl/src/core/lv_obj.c **** 
 2422              		.loc 1 210 26 view .LVU816
 2423 000a 0646     		mov	r6, r0
 2424              	.LVL238:
 212:Middlewares/lvgl/src/core/lv_obj.c **** 
 2425              		.loc 1 212 5 is_stmt 1 view .LVU817
 212:Middlewares/lvgl/src/core/lv_obj.c **** 
 2426              		.loc 1 212 7 is_stmt 0 view .LVU818
 2427 000c 15F00107 		ands	r7, r5, #1
 2428 0010 11D1     		bne	.L129
 2429              	.L124:
 214:Middlewares/lvgl/src/core/lv_obj.c **** 
 2430              		.loc 1 214 5 is_stmt 1 view .LVU819
 214:Middlewares/lvgl/src/core/lv_obj.c **** 
 2431              		.loc 1 214 16 is_stmt 0 view .LVU820
 2432 0012 E369     		ldr	r3, [r4, #28]
 2433 0014 2B43     		orrs	r3, r3, r5
 2434 0016 E361     		str	r3, [r4, #28]
 216:Middlewares/lvgl/src/core/lv_obj.c ****         lv_obj_invalidate(obj);
 2435              		.loc 1 216 5 is_stmt 1 view .LVU821
 216:Middlewares/lvgl/src/core/lv_obj.c ****         lv_obj_invalidate(obj);
 2436              		.loc 1 216 7 is_stmt 0 view .LVU822
 2437 0018 8FB9     		cbnz	r7, .L130
 2438              	.L125:
 220:Middlewares/lvgl/src/core/lv_obj.c ****         lv_obj_mark_layout_as_dirty(lv_obj_get_parent(obj));
 2439              		.loc 1 220 5 is_stmt 1 view .LVU823
 220:Middlewares/lvgl/src/core/lv_obj.c ****         lv_obj_mark_layout_as_dirty(lv_obj_get_parent(obj));
 2440              		.loc 1 220 26 is_stmt 0 view .LVU824
 2441 001a 2046     		mov	r0, r4
 2442 001c FFF7FEFF 		bl	lv_obj_is_layout_positioned
 2443              	.LVL239:
 220:Middlewares/lvgl/src/core/lv_obj.c ****         lv_obj_mark_layout_as_dirty(lv_obj_get_parent(obj));
 2444              		.loc 1 220 7 view .LVU825
 2445 0020 B042     		cmp	r0, r6
 2446 0022 02D1     		bne	.L126
 220:Middlewares/lvgl/src/core/lv_obj.c ****         lv_obj_mark_layout_as_dirty(lv_obj_get_parent(obj));
 2447              		.loc 1 220 60 discriminator 1 view .LVU826
 2448 0024 15F0C07F 		tst	r5, #25165824
 2449 0028 04D0     		beq	.L123
 2450              	.L126:
 221:Middlewares/lvgl/src/core/lv_obj.c ****     }
 2451              		.loc 1 221 9 is_stmt 1 view .LVU827
 2452 002a 2046     		mov	r0, r4
 2453 002c FFF7FEFF 		bl	lv_obj_get_parent
 2454              	.LVL240:
ARM GAS  /tmp/ccyhZZXZ.s 			page 88


 2455 0030 FFF7FEFF 		bl	lv_obj_mark_layout_as_dirty
 2456              	.LVL241:
 2457              	.L123:
 223:Middlewares/lvgl/src/core/lv_obj.c **** 
 2458              		.loc 1 223 1 is_stmt 0 view .LVU828
 2459 0034 F8BD     		pop	{r3, r4, r5, r6, r7, pc}
 2460              	.LVL242:
 2461              	.L129:
 212:Middlewares/lvgl/src/core/lv_obj.c **** 
 2462              		.loc 1 212 32 is_stmt 1 discriminator 1 view .LVU829
 2463 0036 2046     		mov	r0, r4
 2464 0038 FFF7FEFF 		bl	lv_obj_invalidate
 2465              	.LVL243:
 2466 003c E9E7     		b	.L124
 2467              	.L130:
 217:Middlewares/lvgl/src/core/lv_obj.c ****     }
 2468              		.loc 1 217 9 view .LVU830
 2469 003e 2046     		mov	r0, r4
 2470 0040 FFF7FEFF 		bl	lv_obj_invalidate
 2471              	.LVL244:
 2472 0044 E9E7     		b	.L125
 2473              		.cfi_endproc
 2474              	.LFE156:
 2476              		.section	.text.lv_obj_clear_flag,"ax",%progbits
 2477              		.align	1
 2478              		.global	lv_obj_clear_flag
 2479              		.syntax unified
 2480              		.thumb
 2481              		.thumb_func
 2482              		.fpu fpv4-sp-d16
 2484              	lv_obj_clear_flag:
 2485              	.LVL245:
 2486              	.LFB157:
 226:Middlewares/lvgl/src/core/lv_obj.c ****     LV_ASSERT_OBJ(obj, MY_CLASS);
 2487              		.loc 1 226 1 view -0
 2488              		.cfi_startproc
 2489              		@ args = 0, pretend = 0, frame = 0
 2490              		@ frame_needed = 0, uses_anonymous_args = 0
 226:Middlewares/lvgl/src/core/lv_obj.c ****     LV_ASSERT_OBJ(obj, MY_CLASS);
 2491              		.loc 1 226 1 is_stmt 0 view .LVU832
 2492 0000 70B5     		push	{r4, r5, r6, lr}
 2493              	.LCFI21:
 2494              		.cfi_def_cfa_offset 16
 2495              		.cfi_offset 4, -16
 2496              		.cfi_offset 5, -12
 2497              		.cfi_offset 6, -8
 2498              		.cfi_offset 14, -4
 2499 0002 0446     		mov	r4, r0
 2500 0004 0D46     		mov	r5, r1
 227:Middlewares/lvgl/src/core/lv_obj.c **** 
 2501              		.loc 1 227 5 is_stmt 1 view .LVU833
 227:Middlewares/lvgl/src/core/lv_obj.c **** 
 2502              		.loc 1 227 5 view .LVU834
 227:Middlewares/lvgl/src/core/lv_obj.c **** 
 2503              		.loc 1 227 5 view .LVU835
 229:Middlewares/lvgl/src/core/lv_obj.c **** 
 2504              		.loc 1 229 5 view .LVU836
ARM GAS  /tmp/ccyhZZXZ.s 			page 89


 229:Middlewares/lvgl/src/core/lv_obj.c **** 
 2505              		.loc 1 229 26 is_stmt 0 view .LVU837
 2506 0006 FFF7FEFF 		bl	lv_obj_is_layout_positioned
 2507              	.LVL246:
 229:Middlewares/lvgl/src/core/lv_obj.c **** 
 2508              		.loc 1 229 26 view .LVU838
 2509 000a 0646     		mov	r6, r0
 2510              	.LVL247:
 231:Middlewares/lvgl/src/core/lv_obj.c **** 
 2511              		.loc 1 231 5 is_stmt 1 view .LVU839
 231:Middlewares/lvgl/src/core/lv_obj.c **** 
 2512              		.loc 1 231 16 is_stmt 0 view .LVU840
 2513 000c E369     		ldr	r3, [r4, #28]
 2514 000e 23EA0503 		bic	r3, r3, r5
 2515 0012 E361     		str	r3, [r4, #28]
 233:Middlewares/lvgl/src/core/lv_obj.c ****         lv_obj_invalidate(obj);
 2516              		.loc 1 233 5 is_stmt 1 view .LVU841
 233:Middlewares/lvgl/src/core/lv_obj.c ****         lv_obj_invalidate(obj);
 2517              		.loc 1 233 7 is_stmt 0 view .LVU842
 2518 0014 15F0010F 		tst	r5, #1
 2519 0018 0DD1     		bne	.L136
 2520              	.L132:
 240:Middlewares/lvgl/src/core/lv_obj.c ****         lv_obj_mark_layout_as_dirty(lv_obj_get_parent(obj));
 2521              		.loc 1 240 5 is_stmt 1 view .LVU843
 240:Middlewares/lvgl/src/core/lv_obj.c ****         lv_obj_mark_layout_as_dirty(lv_obj_get_parent(obj));
 2522              		.loc 1 240 26 is_stmt 0 view .LVU844
 2523 001a 2046     		mov	r0, r4
 2524 001c FFF7FEFF 		bl	lv_obj_is_layout_positioned
 2525              	.LVL248:
 240:Middlewares/lvgl/src/core/lv_obj.c ****         lv_obj_mark_layout_as_dirty(lv_obj_get_parent(obj));
 2526              		.loc 1 240 7 view .LVU845
 2527 0020 B042     		cmp	r0, r6
 2528 0022 02D1     		bne	.L133
 240:Middlewares/lvgl/src/core/lv_obj.c ****         lv_obj_mark_layout_as_dirty(lv_obj_get_parent(obj));
 2529              		.loc 1 240 60 discriminator 1 view .LVU846
 2530 0024 15F0C07F 		tst	r5, #25165824
 2531 0028 04D0     		beq	.L131
 2532              	.L133:
 241:Middlewares/lvgl/src/core/lv_obj.c ****     }
 2533              		.loc 1 241 9 is_stmt 1 view .LVU847
 2534 002a 2046     		mov	r0, r4
 2535 002c FFF7FEFF 		bl	lv_obj_get_parent
 2536              	.LVL249:
 2537 0030 FFF7FEFF 		bl	lv_obj_mark_layout_as_dirty
 2538              	.LVL250:
 2539              	.L131:
 243:Middlewares/lvgl/src/core/lv_obj.c **** 
 2540              		.loc 1 243 1 is_stmt 0 view .LVU848
 2541 0034 70BD     		pop	{r4, r5, r6, pc}
 2542              	.LVL251:
 2543              	.L136:
 234:Middlewares/lvgl/src/core/lv_obj.c ****         if(lv_obj_is_layout_positioned(obj)) {
 2544              		.loc 1 234 9 is_stmt 1 view .LVU849
 2545 0036 2046     		mov	r0, r4
 2546 0038 FFF7FEFF 		bl	lv_obj_invalidate
 2547              	.LVL252:
 235:Middlewares/lvgl/src/core/lv_obj.c ****             lv_obj_mark_layout_as_dirty(lv_obj_get_parent(obj));
ARM GAS  /tmp/ccyhZZXZ.s 			page 90


 2548              		.loc 1 235 9 view .LVU850
 235:Middlewares/lvgl/src/core/lv_obj.c ****             lv_obj_mark_layout_as_dirty(lv_obj_get_parent(obj));
 2549              		.loc 1 235 12 is_stmt 0 view .LVU851
 2550 003c 2046     		mov	r0, r4
 2551 003e FFF7FEFF 		bl	lv_obj_is_layout_positioned
 2552              	.LVL253:
 235:Middlewares/lvgl/src/core/lv_obj.c ****             lv_obj_mark_layout_as_dirty(lv_obj_get_parent(obj));
 2553              		.loc 1 235 11 view .LVU852
 2554 0042 0028     		cmp	r0, #0
 2555 0044 E9D0     		beq	.L132
 236:Middlewares/lvgl/src/core/lv_obj.c ****         }
 2556              		.loc 1 236 13 is_stmt 1 view .LVU853
 2557 0046 2046     		mov	r0, r4
 2558 0048 FFF7FEFF 		bl	lv_obj_get_parent
 2559              	.LVL254:
 2560 004c FFF7FEFF 		bl	lv_obj_mark_layout_as_dirty
 2561              	.LVL255:
 2562 0050 E3E7     		b	.L132
 2563              		.cfi_endproc
 2564              	.LFE157:
 2566              		.section	.text.lv_obj_add_state,"ax",%progbits
 2567              		.align	1
 2568              		.global	lv_obj_add_state
 2569              		.syntax unified
 2570              		.thumb
 2571              		.thumb_func
 2572              		.fpu fpv4-sp-d16
 2574              	lv_obj_add_state:
 2575              	.LVL256:
 2576              	.LFB158:
 246:Middlewares/lvgl/src/core/lv_obj.c ****     LV_ASSERT_OBJ(obj, MY_CLASS);
 2577              		.loc 1 246 1 view -0
 2578              		.cfi_startproc
 2579              		@ args = 0, pretend = 0, frame = 0
 2580              		@ frame_needed = 0, uses_anonymous_args = 0
 246:Middlewares/lvgl/src/core/lv_obj.c ****     LV_ASSERT_OBJ(obj, MY_CLASS);
 2581              		.loc 1 246 1 is_stmt 0 view .LVU855
 2582 0000 08B5     		push	{r3, lr}
 2583              	.LCFI22:
 2584              		.cfi_def_cfa_offset 8
 2585              		.cfi_offset 3, -8
 2586              		.cfi_offset 14, -4
 247:Middlewares/lvgl/src/core/lv_obj.c **** 
 2587              		.loc 1 247 5 is_stmt 1 view .LVU856
 247:Middlewares/lvgl/src/core/lv_obj.c **** 
 2588              		.loc 1 247 5 view .LVU857
 247:Middlewares/lvgl/src/core/lv_obj.c **** 
 2589              		.loc 1 247 5 view .LVU858
 249:Middlewares/lvgl/src/core/lv_obj.c ****     if(obj->state != new_state) {
 2590              		.loc 1 249 5 view .LVU859
 249:Middlewares/lvgl/src/core/lv_obj.c ****     if(obj->state != new_state) {
 2591              		.loc 1 249 31 is_stmt 0 view .LVU860
 2592 0002 038C     		ldrh	r3, [r0, #32]
 249:Middlewares/lvgl/src/core/lv_obj.c ****     if(obj->state != new_state) {
 2593              		.loc 1 249 16 view .LVU861
 2594 0004 43EA0102 		orr	r2, r3, r1
 2595              	.LVL257:
ARM GAS  /tmp/ccyhZZXZ.s 			page 91


 250:Middlewares/lvgl/src/core/lv_obj.c ****         lv_obj_set_state(obj, new_state);
 2596              		.loc 1 250 5 is_stmt 1 view .LVU862
 250:Middlewares/lvgl/src/core/lv_obj.c ****         lv_obj_set_state(obj, new_state);
 2597              		.loc 1 250 7 is_stmt 0 view .LVU863
 2598 0008 31EA0303 		bics	r3, r1, r3
 2599 000c 00D1     		bne	.L140
 2600              	.LVL258:
 2601              	.L137:
 253:Middlewares/lvgl/src/core/lv_obj.c **** 
 2602              		.loc 1 253 1 view .LVU864
 2603 000e 08BD     		pop	{r3, pc}
 2604              	.LVL259:
 2605              	.L140:
 251:Middlewares/lvgl/src/core/lv_obj.c ****     }
 2606              		.loc 1 251 9 is_stmt 1 view .LVU865
 2607 0010 1146     		mov	r1, r2
 2608              	.LVL260:
 251:Middlewares/lvgl/src/core/lv_obj.c ****     }
 2609              		.loc 1 251 9 is_stmt 0 view .LVU866
 2610 0012 FFF7FEFF 		bl	lv_obj_set_state
 2611              	.LVL261:
 253:Middlewares/lvgl/src/core/lv_obj.c **** 
 2612              		.loc 1 253 1 view .LVU867
 2613 0016 FAE7     		b	.L137
 2614              		.cfi_endproc
 2615              	.LFE158:
 2617              		.section	.text.lv_obj_clear_state,"ax",%progbits
 2618              		.align	1
 2619              		.global	lv_obj_clear_state
 2620              		.syntax unified
 2621              		.thumb
 2622              		.thumb_func
 2623              		.fpu fpv4-sp-d16
 2625              	lv_obj_clear_state:
 2626              	.LVL262:
 2627              	.LFB159:
 256:Middlewares/lvgl/src/core/lv_obj.c ****     LV_ASSERT_OBJ(obj, MY_CLASS);
 2628              		.loc 1 256 1 is_stmt 1 view -0
 2629              		.cfi_startproc
 2630              		@ args = 0, pretend = 0, frame = 0
 2631              		@ frame_needed = 0, uses_anonymous_args = 0
 256:Middlewares/lvgl/src/core/lv_obj.c ****     LV_ASSERT_OBJ(obj, MY_CLASS);
 2632              		.loc 1 256 1 is_stmt 0 view .LVU869
 2633 0000 08B5     		push	{r3, lr}
 2634              	.LCFI23:
 2635              		.cfi_def_cfa_offset 8
 2636              		.cfi_offset 3, -8
 2637              		.cfi_offset 14, -4
 257:Middlewares/lvgl/src/core/lv_obj.c **** 
 2638              		.loc 1 257 5 is_stmt 1 view .LVU870
 257:Middlewares/lvgl/src/core/lv_obj.c **** 
 2639              		.loc 1 257 5 view .LVU871
 257:Middlewares/lvgl/src/core/lv_obj.c **** 
 2640              		.loc 1 257 5 view .LVU872
 259:Middlewares/lvgl/src/core/lv_obj.c ****     if(obj->state != new_state) {
 2641              		.loc 1 259 5 view .LVU873
 259:Middlewares/lvgl/src/core/lv_obj.c ****     if(obj->state != new_state) {
ARM GAS  /tmp/ccyhZZXZ.s 			page 92


 2642              		.loc 1 259 31 is_stmt 0 view .LVU874
 2643 0002 028C     		ldrh	r2, [r0, #32]
 2644 0004 B0F92030 		ldrsh	r3, [r0, #32]
 259:Middlewares/lvgl/src/core/lv_obj.c ****     if(obj->state != new_state) {
 2645              		.loc 1 259 39 view .LVU875
 2646 0008 23EA0101 		bic	r1, r3, r1
 2647              	.LVL263:
 259:Middlewares/lvgl/src/core/lv_obj.c ****     if(obj->state != new_state) {
 2648              		.loc 1 259 16 view .LVU876
 2649 000c 89B2     		uxth	r1, r1
 2650              	.LVL264:
 260:Middlewares/lvgl/src/core/lv_obj.c ****         lv_obj_set_state(obj, new_state);
 2651              		.loc 1 260 5 is_stmt 1 view .LVU877
 260:Middlewares/lvgl/src/core/lv_obj.c ****         lv_obj_set_state(obj, new_state);
 2652              		.loc 1 260 7 is_stmt 0 view .LVU878
 2653 000e 8A42     		cmp	r2, r1
 2654 0010 00D1     		bne	.L144
 2655              	.LVL265:
 2656              	.L141:
 263:Middlewares/lvgl/src/core/lv_obj.c **** 
 2657              		.loc 1 263 1 view .LVU879
 2658 0012 08BD     		pop	{r3, pc}
 2659              	.LVL266:
 2660              	.L144:
 261:Middlewares/lvgl/src/core/lv_obj.c ****     }
 2661              		.loc 1 261 9 is_stmt 1 view .LVU880
 2662 0014 FFF7FEFF 		bl	lv_obj_set_state
 2663              	.LVL267:
 263:Middlewares/lvgl/src/core/lv_obj.c **** 
 2664              		.loc 1 263 1 is_stmt 0 view .LVU881
 2665 0018 FBE7     		b	.L141
 2666              		.cfi_endproc
 2667              	.LFE159:
 2669              		.section	.text.lv_obj_has_flag,"ax",%progbits
 2670              		.align	1
 2671              		.global	lv_obj_has_flag
 2672              		.syntax unified
 2673              		.thumb
 2674              		.thumb_func
 2675              		.fpu fpv4-sp-d16
 2677              	lv_obj_has_flag:
 2678              	.LVL268:
 2679              	.LFB160:
 270:Middlewares/lvgl/src/core/lv_obj.c ****     LV_ASSERT_OBJ(obj, MY_CLASS);
 2680              		.loc 1 270 1 is_stmt 1 view -0
 2681              		.cfi_startproc
 2682              		@ args = 0, pretend = 0, frame = 0
 2683              		@ frame_needed = 0, uses_anonymous_args = 0
 2684              		@ link register save eliminated.
 271:Middlewares/lvgl/src/core/lv_obj.c **** 
 2685              		.loc 1 271 5 view .LVU883
 271:Middlewares/lvgl/src/core/lv_obj.c **** 
 2686              		.loc 1 271 5 view .LVU884
 271:Middlewares/lvgl/src/core/lv_obj.c **** 
 2687              		.loc 1 271 5 view .LVU885
 273:Middlewares/lvgl/src/core/lv_obj.c **** }
 2688              		.loc 1 273 5 view .LVU886
ARM GAS  /tmp/ccyhZZXZ.s 			page 93


 273:Middlewares/lvgl/src/core/lv_obj.c **** }
 2689              		.loc 1 273 16 is_stmt 0 view .LVU887
 2690 0000 C369     		ldr	r3, [r0, #28]
 273:Middlewares/lvgl/src/core/lv_obj.c **** }
 2691              		.loc 1 273 42 view .LVU888
 2692 0002 31EA0303 		bics	r3, r1, r3
 274:Middlewares/lvgl/src/core/lv_obj.c **** 
 2693              		.loc 1 274 1 view .LVU889
 2694 0006 0CBF     		ite	eq
 2695 0008 0120     		moveq	r0, #1
 2696              	.LVL269:
 274:Middlewares/lvgl/src/core/lv_obj.c **** 
 2697              		.loc 1 274 1 view .LVU890
 2698 000a 0020     		movne	r0, #0
 2699 000c 7047     		bx	lr
 2700              		.cfi_endproc
 2701              	.LFE160:
 2703              		.section	.text.lv_obj_has_flag_any,"ax",%progbits
 2704              		.align	1
 2705              		.global	lv_obj_has_flag_any
 2706              		.syntax unified
 2707              		.thumb
 2708              		.thumb_func
 2709              		.fpu fpv4-sp-d16
 2711              	lv_obj_has_flag_any:
 2712              	.LVL270:
 2713              	.LFB161:
 277:Middlewares/lvgl/src/core/lv_obj.c ****     LV_ASSERT_OBJ(obj, MY_CLASS);
 2714              		.loc 1 277 1 is_stmt 1 view -0
 2715              		.cfi_startproc
 2716              		@ args = 0, pretend = 0, frame = 0
 2717              		@ frame_needed = 0, uses_anonymous_args = 0
 2718              		@ link register save eliminated.
 278:Middlewares/lvgl/src/core/lv_obj.c **** 
 2719              		.loc 1 278 5 view .LVU892
 278:Middlewares/lvgl/src/core/lv_obj.c **** 
 2720              		.loc 1 278 5 view .LVU893
 278:Middlewares/lvgl/src/core/lv_obj.c **** 
 2721              		.loc 1 278 5 view .LVU894
 280:Middlewares/lvgl/src/core/lv_obj.c **** }
 2722              		.loc 1 280 5 view .LVU895
 280:Middlewares/lvgl/src/core/lv_obj.c **** }
 2723              		.loc 1 280 16 is_stmt 0 view .LVU896
 2724 0000 C369     		ldr	r3, [r0, #28]
 280:Middlewares/lvgl/src/core/lv_obj.c **** }
 2725              		.loc 1 280 36 view .LVU897
 2726 0002 0B42     		tst	r3, r1
 281:Middlewares/lvgl/src/core/lv_obj.c **** 
 2727              		.loc 1 281 1 view .LVU898
 2728 0004 14BF     		ite	ne
 2729 0006 0120     		movne	r0, #1
 2730              	.LVL271:
 281:Middlewares/lvgl/src/core/lv_obj.c **** 
 2731              		.loc 1 281 1 view .LVU899
 2732 0008 0020     		moveq	r0, #0
 2733 000a 7047     		bx	lr
 2734              		.cfi_endproc
ARM GAS  /tmp/ccyhZZXZ.s 			page 94


 2735              	.LFE161:
 2737              		.section	.text.lv_obj_get_state,"ax",%progbits
 2738              		.align	1
 2739              		.global	lv_obj_get_state
 2740              		.syntax unified
 2741              		.thumb
 2742              		.thumb_func
 2743              		.fpu fpv4-sp-d16
 2745              	lv_obj_get_state:
 2746              	.LVL272:
 2747              	.LFB162:
 284:Middlewares/lvgl/src/core/lv_obj.c ****     LV_ASSERT_OBJ(obj, MY_CLASS);
 2748              		.loc 1 284 1 is_stmt 1 view -0
 2749              		.cfi_startproc
 2750              		@ args = 0, pretend = 0, frame = 0
 2751              		@ frame_needed = 0, uses_anonymous_args = 0
 2752              		@ link register save eliminated.
 285:Middlewares/lvgl/src/core/lv_obj.c **** 
 2753              		.loc 1 285 5 view .LVU901
 285:Middlewares/lvgl/src/core/lv_obj.c **** 
 2754              		.loc 1 285 5 view .LVU902
 285:Middlewares/lvgl/src/core/lv_obj.c **** 
 2755              		.loc 1 285 5 view .LVU903
 287:Middlewares/lvgl/src/core/lv_obj.c **** }
 2756              		.loc 1 287 5 view .LVU904
 288:Middlewares/lvgl/src/core/lv_obj.c **** 
 2757              		.loc 1 288 1 is_stmt 0 view .LVU905
 2758 0000 008C     		ldrh	r0, [r0, #32]
 2759              	.LVL273:
 288:Middlewares/lvgl/src/core/lv_obj.c **** 
 2760              		.loc 1 288 1 view .LVU906
 2761 0002 7047     		bx	lr
 2762              		.cfi_endproc
 2763              	.LFE162:
 2765              		.section	.text.lv_obj_has_state,"ax",%progbits
 2766              		.align	1
 2767              		.global	lv_obj_has_state
 2768              		.syntax unified
 2769              		.thumb
 2770              		.thumb_func
 2771              		.fpu fpv4-sp-d16
 2773              	lv_obj_has_state:
 2774              	.LVL274:
 2775              	.LFB163:
 291:Middlewares/lvgl/src/core/lv_obj.c ****     LV_ASSERT_OBJ(obj, MY_CLASS);
 2776              		.loc 1 291 1 is_stmt 1 view -0
 2777              		.cfi_startproc
 2778              		@ args = 0, pretend = 0, frame = 0
 2779              		@ frame_needed = 0, uses_anonymous_args = 0
 2780              		@ link register save eliminated.
 292:Middlewares/lvgl/src/core/lv_obj.c **** 
 2781              		.loc 1 292 5 view .LVU908
 292:Middlewares/lvgl/src/core/lv_obj.c **** 
 2782              		.loc 1 292 5 view .LVU909
 292:Middlewares/lvgl/src/core/lv_obj.c **** 
 2783              		.loc 1 292 5 view .LVU910
 294:Middlewares/lvgl/src/core/lv_obj.c **** }
ARM GAS  /tmp/ccyhZZXZ.s 			page 95


 2784              		.loc 1 294 5 view .LVU911
 294:Middlewares/lvgl/src/core/lv_obj.c **** }
 2785              		.loc 1 294 15 is_stmt 0 view .LVU912
 2786 0000 038C     		ldrh	r3, [r0, #32]
 294:Middlewares/lvgl/src/core/lv_obj.c **** }
 2787              		.loc 1 294 38 view .LVU913
 2788 0002 0B42     		tst	r3, r1
 295:Middlewares/lvgl/src/core/lv_obj.c **** 
 2789              		.loc 1 295 1 view .LVU914
 2790 0004 14BF     		ite	ne
 2791 0006 0120     		movne	r0, #1
 2792              	.LVL275:
 295:Middlewares/lvgl/src/core/lv_obj.c **** 
 2793              		.loc 1 295 1 view .LVU915
 2794 0008 0020     		moveq	r0, #0
 2795 000a 7047     		bx	lr
 2796              		.cfi_endproc
 2797              	.LFE163:
 2799              		.section	.text.lv_obj_get_group,"ax",%progbits
 2800              		.align	1
 2801              		.global	lv_obj_get_group
 2802              		.syntax unified
 2803              		.thumb
 2804              		.thumb_func
 2805              		.fpu fpv4-sp-d16
 2807              	lv_obj_get_group:
 2808              	.LVL276:
 2809              	.LFB164:
 298:Middlewares/lvgl/src/core/lv_obj.c ****     LV_ASSERT_OBJ(obj, MY_CLASS);
 2810              		.loc 1 298 1 is_stmt 1 view -0
 2811              		.cfi_startproc
 2812              		@ args = 0, pretend = 0, frame = 0
 2813              		@ frame_needed = 0, uses_anonymous_args = 0
 2814              		@ link register save eliminated.
 299:Middlewares/lvgl/src/core/lv_obj.c **** 
 2815              		.loc 1 299 5 view .LVU917
 299:Middlewares/lvgl/src/core/lv_obj.c **** 
 2816              		.loc 1 299 5 view .LVU918
 299:Middlewares/lvgl/src/core/lv_obj.c **** 
 2817              		.loc 1 299 5 view .LVU919
 301:Middlewares/lvgl/src/core/lv_obj.c ****     else return NULL;
 2818              		.loc 1 301 5 view .LVU920
 301:Middlewares/lvgl/src/core/lv_obj.c ****     else return NULL;
 2819              		.loc 1 301 11 is_stmt 0 view .LVU921
 2820 0000 8068     		ldr	r0, [r0, #8]
 2821              	.LVL277:
 301:Middlewares/lvgl/src/core/lv_obj.c ****     else return NULL;
 2822              		.loc 1 301 7 view .LVU922
 2823 0002 00B1     		cbz	r0, .L149
 301:Middlewares/lvgl/src/core/lv_obj.c ****     else return NULL;
 2824              		.loc 1 301 24 is_stmt 1 discriminator 1 view .LVU923
 301:Middlewares/lvgl/src/core/lv_obj.c ****     else return NULL;
 2825              		.loc 1 301 45 is_stmt 0 discriminator 1 view .LVU924
 2826 0004 8068     		ldr	r0, [r0, #8]
 2827              	.L149:
 303:Middlewares/lvgl/src/core/lv_obj.c **** 
 2828              		.loc 1 303 1 view .LVU925
ARM GAS  /tmp/ccyhZZXZ.s 			page 96


 2829 0006 7047     		bx	lr
 2830              		.cfi_endproc
 2831              	.LFE164:
 2833              		.section	.text.lv_obj_event,"ax",%progbits
 2834              		.align	1
 2835              		.syntax unified
 2836              		.thumb
 2837              		.thumb_func
 2838              		.fpu fpv4-sp-d16
 2840              	lv_obj_event:
 2841              	.LVL278:
 2842              	.LFB175:
 630:Middlewares/lvgl/src/core/lv_obj.c ****     LV_UNUSED(class_p);
 2843              		.loc 1 630 1 is_stmt 1 view -0
 2844              		.cfi_startproc
 2845              		@ args = 0, pretend = 0, frame = 0
 2846              		@ frame_needed = 0, uses_anonymous_args = 0
 630:Middlewares/lvgl/src/core/lv_obj.c ****     LV_UNUSED(class_p);
 2847              		.loc 1 630 1 is_stmt 0 view .LVU927
 2848 0000 F8B5     		push	{r3, r4, r5, r6, r7, lr}
 2849              	.LCFI24:
 2850              		.cfi_def_cfa_offset 24
 2851              		.cfi_offset 3, -24
 2852              		.cfi_offset 4, -20
 2853              		.cfi_offset 5, -16
 2854              		.cfi_offset 6, -12
 2855              		.cfi_offset 7, -8
 2856              		.cfi_offset 14, -4
 2857 0002 0D46     		mov	r5, r1
 631:Middlewares/lvgl/src/core/lv_obj.c **** 
 2858              		.loc 1 631 5 is_stmt 1 view .LVU928
 633:Middlewares/lvgl/src/core/lv_obj.c ****     lv_obj_t * obj = lv_event_get_target(e);
 2859              		.loc 1 633 5 view .LVU929
 633:Middlewares/lvgl/src/core/lv_obj.c ****     lv_obj_t * obj = lv_event_get_target(e);
 2860              		.loc 1 633 28 is_stmt 0 view .LVU930
 2861 0004 0846     		mov	r0, r1
 2862              	.LVL279:
 633:Middlewares/lvgl/src/core/lv_obj.c ****     lv_obj_t * obj = lv_event_get_target(e);
 2863              		.loc 1 633 28 view .LVU931
 2864 0006 FFF7FEFF 		bl	lv_event_get_code
 2865              	.LVL280:
 633:Middlewares/lvgl/src/core/lv_obj.c ****     lv_obj_t * obj = lv_event_get_target(e);
 2866              		.loc 1 633 28 view .LVU932
 2867 000a 0446     		mov	r4, r0
 2868              	.LVL281:
 634:Middlewares/lvgl/src/core/lv_obj.c ****     if(code == LV_EVENT_PRESSED) {
 2869              		.loc 1 634 5 is_stmt 1 view .LVU933
 634:Middlewares/lvgl/src/core/lv_obj.c ****     if(code == LV_EVENT_PRESSED) {
 2870              		.loc 1 634 22 is_stmt 0 view .LVU934
 2871 000c 2846     		mov	r0, r5
 2872 000e FFF7FEFF 		bl	lv_event_get_target
 2873              	.LVL282:
 2874 0012 0646     		mov	r6, r0
 2875              	.LVL283:
 635:Middlewares/lvgl/src/core/lv_obj.c ****         lv_obj_add_state(obj, LV_STATE_PRESSED);
 2876              		.loc 1 635 5 is_stmt 1 view .LVU935
 635:Middlewares/lvgl/src/core/lv_obj.c ****         lv_obj_add_state(obj, LV_STATE_PRESSED);
ARM GAS  /tmp/ccyhZZXZ.s 			page 97


 2877              		.loc 1 635 7 is_stmt 0 view .LVU936
 2878 0014 012C     		cmp	r4, #1
 2879 0016 23D0     		beq	.L182
 638:Middlewares/lvgl/src/core/lv_obj.c ****         lv_obj_clear_state(obj, LV_STATE_PRESSED);
 2880              		.loc 1 638 10 is_stmt 1 view .LVU937
 638:Middlewares/lvgl/src/core/lv_obj.c ****         lv_obj_clear_state(obj, LV_STATE_PRESSED);
 2881              		.loc 1 638 12 is_stmt 0 view .LVU938
 2882 0018 082C     		cmp	r4, #8
 2883 001a 25D0     		beq	.L183
 650:Middlewares/lvgl/src/core/lv_obj.c ****         lv_obj_clear_state(obj, LV_STATE_PRESSED);
 2884              		.loc 1 650 10 is_stmt 1 view .LVU939
 650:Middlewares/lvgl/src/core/lv_obj.c ****         lv_obj_clear_state(obj, LV_STATE_PRESSED);
 2885              		.loc 1 650 12 is_stmt 0 view .LVU940
 2886 001c 032C     		cmp	r4, #3
 2887 001e 48D0     		beq	.L184
 653:Middlewares/lvgl/src/core/lv_obj.c ****         if(lv_obj_has_flag(obj, LV_OBJ_FLAG_CHECKABLE)) {
 2888              		.loc 1 653 10 is_stmt 1 view .LVU941
 653:Middlewares/lvgl/src/core/lv_obj.c ****         if(lv_obj_has_flag(obj, LV_OBJ_FLAG_CHECKABLE)) {
 2889              		.loc 1 653 12 is_stmt 0 view .LVU942
 2890 0020 0D2C     		cmp	r4, #13
 2891 0022 4AD0     		beq	.L185
 670:Middlewares/lvgl/src/core/lv_obj.c ****         if(lv_obj_has_flag(obj, LV_OBJ_FLAG_SCROLL_ON_FOCUS)) {
 2892              		.loc 1 670 10 is_stmt 1 view .LVU943
 670:Middlewares/lvgl/src/core/lv_obj.c ****         if(lv_obj_has_flag(obj, LV_OBJ_FLAG_SCROLL_ON_FOCUS)) {
 2893              		.loc 1 670 12 is_stmt 0 view .LVU944
 2894 0024 0E2C     		cmp	r4, #14
 2895 0026 6AD0     		beq	.L186
 691:Middlewares/lvgl/src/core/lv_obj.c ****         lv_obj_add_state(obj, LV_STATE_SCROLLED);
 2896              		.loc 1 691 10 is_stmt 1 view .LVU945
 691:Middlewares/lvgl/src/core/lv_obj.c ****         lv_obj_add_state(obj, LV_STATE_SCROLLED);
 2897              		.loc 1 691 12 is_stmt 0 view .LVU946
 2898 0028 092C     		cmp	r4, #9
 2899 002a 00F09480 		beq	.L187
 694:Middlewares/lvgl/src/core/lv_obj.c ****         lv_obj_clear_state(obj, LV_STATE_SCROLLED);
 2900              		.loc 1 694 10 is_stmt 1 view .LVU947
 694:Middlewares/lvgl/src/core/lv_obj.c ****         lv_obj_clear_state(obj, LV_STATE_SCROLLED);
 2901              		.loc 1 694 12 is_stmt 0 view .LVU948
 2902 002e 0A2C     		cmp	r4, #10
 2903 0030 00F09580 		beq	.L188
 697:Middlewares/lvgl/src/core/lv_obj.c ****         lv_obj_clear_state(obj, LV_STATE_FOCUSED | LV_STATE_EDITED | LV_STATE_FOCUS_KEY);
 2904              		.loc 1 697 10 is_stmt 1 view .LVU949
 697:Middlewares/lvgl/src/core/lv_obj.c ****         lv_obj_clear_state(obj, LV_STATE_FOCUSED | LV_STATE_EDITED | LV_STATE_FOCUS_KEY);
 2905              		.loc 1 697 12 is_stmt 0 view .LVU950
 2906 0034 0F2C     		cmp	r4, #15
 2907 0036 00F09680 		beq	.L189
 700:Middlewares/lvgl/src/core/lv_obj.c ****         lv_coord_t align = lv_obj_get_style_align(obj, LV_PART_MAIN);
 2908              		.loc 1 700 10 is_stmt 1 view .LVU951
 700:Middlewares/lvgl/src/core/lv_obj.c ****         lv_coord_t align = lv_obj_get_style_align(obj, LV_PART_MAIN);
 2909              		.loc 1 700 12 is_stmt 0 view .LVU952
 2910 003a 232C     		cmp	r4, #35
 2911 003c 00F09780 		beq	.L190
 714:Middlewares/lvgl/src/core/lv_obj.c ****         lv_coord_t w = lv_obj_get_style_width(obj, LV_PART_MAIN);
 2912              		.loc 1 714 10 is_stmt 1 view .LVU953
 714:Middlewares/lvgl/src/core/lv_obj.c ****         lv_coord_t w = lv_obj_get_style_width(obj, LV_PART_MAIN);
 2913              		.loc 1 714 12 is_stmt 0 view .LVU954
 2914 0040 222C     		cmp	r4, #34
 2915 0042 00F0B680 		beq	.L191
ARM GAS  /tmp/ccyhZZXZ.s 			page 98


 723:Middlewares/lvgl/src/core/lv_obj.c ****         if(lv_obj_get_scrollbar_mode(obj) == LV_SCROLLBAR_MODE_ACTIVE) {
 2916              		.loc 1 723 10 is_stmt 1 view .LVU955
 728:Middlewares/lvgl/src/core/lv_obj.c ****         lv_coord_t * s = lv_event_get_param(e);
 2917              		.loc 1 728 10 view .LVU956
 728:Middlewares/lvgl/src/core/lv_obj.c ****         lv_coord_t * s = lv_event_get_param(e);
 2918              		.loc 1 728 12 is_stmt 0 view .LVU957
 2919 0046 132C     		cmp	r4, #19
 2920 0048 00F0DB80 		beq	.L192
 733:Middlewares/lvgl/src/core/lv_obj.c ****         lv_obj_draw(e);
 2921              		.loc 1 733 10 is_stmt 1 view .LVU958
 733:Middlewares/lvgl/src/core/lv_obj.c ****         lv_obj_draw(e);
 2922              		.loc 1 733 12 is_stmt 0 view .LVU959
 2923 004c 152C     		cmp	r4, #21
 2924 004e 03D0     		beq	.L178
 733:Middlewares/lvgl/src/core/lv_obj.c ****         lv_obj_draw(e);
 2925              		.loc 1 733 40 discriminator 1 view .LVU960
 2926 0050 182C     		cmp	r4, #24
 2927 0052 01D0     		beq	.L178
 733:Middlewares/lvgl/src/core/lv_obj.c ****         lv_obj_draw(e);
 2928              		.loc 1 733 70 discriminator 2 view .LVU961
 2929 0054 122C     		cmp	r4, #18
 2930 0056 06D1     		bne	.L151
 2931              	.L178:
 734:Middlewares/lvgl/src/core/lv_obj.c ****     }
 2932              		.loc 1 734 9 is_stmt 1 view .LVU962
 2933 0058 2846     		mov	r0, r5
 2934              	.LVL284:
 734:Middlewares/lvgl/src/core/lv_obj.c ****     }
 2935              		.loc 1 734 9 is_stmt 0 view .LVU963
 2936 005a FFF7FEFF 		bl	lv_obj_draw
 2937              	.LVL285:
 2938 005e 02E0     		b	.L151
 2939              	.LVL286:
 2940              	.L182:
 636:Middlewares/lvgl/src/core/lv_obj.c ****     }
 2941              		.loc 1 636 9 is_stmt 1 view .LVU964
 2942 0060 2021     		movs	r1, #32
 2943 0062 FFF7FEFF 		bl	lv_obj_add_state
 2944              	.LVL287:
 2945              	.L151:
 736:Middlewares/lvgl/src/core/lv_obj.c **** 
 2946              		.loc 1 736 1 is_stmt 0 view .LVU965
 2947 0066 F8BD     		pop	{r3, r4, r5, r6, r7, pc}
 2948              	.LVL288:
 2949              	.L183:
 2950              	.LBB191:
 639:Middlewares/lvgl/src/core/lv_obj.c ****         void * param = lv_event_get_param(e);
 2951              		.loc 1 639 9 is_stmt 1 view .LVU966
 2952 0068 2021     		movs	r1, #32
 2953 006a FFF7FEFF 		bl	lv_obj_clear_state
 2954              	.LVL289:
 640:Middlewares/lvgl/src/core/lv_obj.c ****         /*Go the checked state if enabled*/
 2955              		.loc 1 640 9 view .LVU967
 640:Middlewares/lvgl/src/core/lv_obj.c ****         /*Go the checked state if enabled*/
 2956              		.loc 1 640 24 is_stmt 0 view .LVU968
 2957 006e 2846     		mov	r0, r5
 2958 0070 FFF7FEFF 		bl	lv_event_get_param
ARM GAS  /tmp/ccyhZZXZ.s 			page 99


 2959              	.LVL290:
 642:Middlewares/lvgl/src/core/lv_obj.c ****             if(!(lv_obj_get_state(obj) & LV_STATE_CHECKED)) lv_obj_add_state(obj, LV_STATE_CHECKED)
 2960              		.loc 1 642 9 is_stmt 1 view .LVU969
 642:Middlewares/lvgl/src/core/lv_obj.c ****             if(!(lv_obj_get_state(obj) & LV_STATE_CHECKED)) lv_obj_add_state(obj, LV_STATE_CHECKED)
 2961              		.loc 1 642 12 is_stmt 0 view .LVU970
 2962 0074 FFF7FEFF 		bl	lv_indev_get_scroll_obj
 2963              	.LVL291:
 642:Middlewares/lvgl/src/core/lv_obj.c ****             if(!(lv_obj_get_state(obj) & LV_STATE_CHECKED)) lv_obj_add_state(obj, LV_STATE_CHECKED)
 2964              		.loc 1 642 11 view .LVU971
 2965 0078 0028     		cmp	r0, #0
 2966 007a F4D1     		bne	.L151
 642:Middlewares/lvgl/src/core/lv_obj.c ****             if(!(lv_obj_get_state(obj) & LV_STATE_CHECKED)) lv_obj_add_state(obj, LV_STATE_CHECKED)
 2967              		.loc 1 642 54 discriminator 1 view .LVU972
 2968 007c 0821     		movs	r1, #8
 2969 007e 3046     		mov	r0, r6
 2970 0080 FFF7FEFF 		bl	lv_obj_has_flag
 2971              	.LVL292:
 642:Middlewares/lvgl/src/core/lv_obj.c ****             if(!(lv_obj_get_state(obj) & LV_STATE_CHECKED)) lv_obj_add_state(obj, LV_STATE_CHECKED)
 2972              		.loc 1 642 51 discriminator 1 view .LVU973
 2973 0084 0028     		cmp	r0, #0
 2974 0086 EED0     		beq	.L151
 2975              	.LBB192:
 643:Middlewares/lvgl/src/core/lv_obj.c ****             else lv_obj_clear_state(obj, LV_STATE_CHECKED);
 2976              		.loc 1 643 13 is_stmt 1 view .LVU974
 643:Middlewares/lvgl/src/core/lv_obj.c ****             else lv_obj_clear_state(obj, LV_STATE_CHECKED);
 2977              		.loc 1 643 18 is_stmt 0 view .LVU975
 2978 0088 3046     		mov	r0, r6
 2979 008a FFF7FEFF 		bl	lv_obj_get_state
 2980              	.LVL293:
 643:Middlewares/lvgl/src/core/lv_obj.c ****             else lv_obj_clear_state(obj, LV_STATE_CHECKED);
 2981              		.loc 1 643 15 view .LVU976
 2982 008e 10F0010F 		tst	r0, #1
 2983 0092 09D1     		bne	.L155
 643:Middlewares/lvgl/src/core/lv_obj.c ****             else lv_obj_clear_state(obj, LV_STATE_CHECKED);
 2984              		.loc 1 643 61 is_stmt 1 discriminator 1 view .LVU977
 2985 0094 0121     		movs	r1, #1
 2986 0096 3046     		mov	r0, r6
 2987 0098 FFF7FEFF 		bl	lv_obj_add_state
 2988              	.LVL294:
 2989              	.L156:
 646:Middlewares/lvgl/src/core/lv_obj.c ****             if(res != LV_RES_OK) return;
 2990              		.loc 1 646 13 view .LVU978
 646:Middlewares/lvgl/src/core/lv_obj.c ****             if(res != LV_RES_OK) return;
 2991              		.loc 1 646 28 is_stmt 0 view .LVU979
 2992 009c 0022     		movs	r2, #0
 2993 009e 1C21     		movs	r1, #28
 2994 00a0 3046     		mov	r0, r6
 2995 00a2 FFF7FEFF 		bl	lv_event_send
 2996              	.LVL295:
 647:Middlewares/lvgl/src/core/lv_obj.c ****         }
 2997              		.loc 1 647 13 is_stmt 1 view .LVU980
 2998 00a6 DEE7     		b	.L151
 2999              	.L155:
 644:Middlewares/lvgl/src/core/lv_obj.c **** 
 3000              		.loc 1 644 18 view .LVU981
 3001 00a8 0121     		movs	r1, #1
 3002 00aa 3046     		mov	r0, r6
ARM GAS  /tmp/ccyhZZXZ.s 			page 100


 3003 00ac FFF7FEFF 		bl	lv_obj_clear_state
 3004              	.LVL296:
 3005 00b0 F4E7     		b	.L156
 3006              	.LVL297:
 3007              	.L184:
 644:Middlewares/lvgl/src/core/lv_obj.c **** 
 3008              		.loc 1 644 18 is_stmt 0 view .LVU982
 3009              	.LBE192:
 3010              	.LBE191:
 651:Middlewares/lvgl/src/core/lv_obj.c ****     }
 3011              		.loc 1 651 9 is_stmt 1 view .LVU983
 3012 00b2 2021     		movs	r1, #32
 3013 00b4 FFF7FEFF 		bl	lv_obj_clear_state
 3014              	.LVL298:
 651:Middlewares/lvgl/src/core/lv_obj.c ****     }
 3015              		.loc 1 651 9 is_stmt 0 view .LVU984
 3016 00b8 D5E7     		b	.L151
 3017              	.LVL299:
 3018              	.L185:
 654:Middlewares/lvgl/src/core/lv_obj.c ****             char c = *((char *)lv_event_get_param(e));
 3019              		.loc 1 654 9 is_stmt 1 view .LVU985
 654:Middlewares/lvgl/src/core/lv_obj.c ****             char c = *((char *)lv_event_get_param(e));
 3020              		.loc 1 654 12 is_stmt 0 view .LVU986
 3021 00ba 0821     		movs	r1, #8
 3022 00bc FFF7FEFF 		bl	lv_obj_has_flag
 3023              	.LVL300:
 654:Middlewares/lvgl/src/core/lv_obj.c ****             char c = *((char *)lv_event_get_param(e));
 3024              		.loc 1 654 11 view .LVU987
 3025 00c0 0028     		cmp	r0, #0
 3026 00c2 D0D0     		beq	.L151
 3027              	.LBB193:
 655:Middlewares/lvgl/src/core/lv_obj.c ****             if(c == LV_KEY_RIGHT || c == LV_KEY_UP) {
 3028              		.loc 1 655 13 is_stmt 1 view .LVU988
 655:Middlewares/lvgl/src/core/lv_obj.c ****             if(c == LV_KEY_RIGHT || c == LV_KEY_UP) {
 3029              		.loc 1 655 32 is_stmt 0 view .LVU989
 3030 00c4 2846     		mov	r0, r5
 3031 00c6 FFF7FEFF 		bl	lv_event_get_param
 3032              	.LVL301:
 655:Middlewares/lvgl/src/core/lv_obj.c ****             if(c == LV_KEY_RIGHT || c == LV_KEY_UP) {
 3033              		.loc 1 655 18 view .LVU990
 3034 00ca 0478     		ldrb	r4, [r0]	@ zero_extendqisi2
 3035              	.LVL302:
 656:Middlewares/lvgl/src/core/lv_obj.c ****                 lv_obj_add_state(obj, LV_STATE_CHECKED);
 3036              		.loc 1 656 13 is_stmt 1 view .LVU991
 656:Middlewares/lvgl/src/core/lv_obj.c ****                 lv_obj_add_state(obj, LV_STATE_CHECKED);
 3037              		.loc 1 656 15 is_stmt 0 view .LVU992
 3038 00cc 132C     		cmp	r4, #19
 3039 00ce 0AD0     		beq	.L159
 656:Middlewares/lvgl/src/core/lv_obj.c ****                 lv_obj_add_state(obj, LV_STATE_CHECKED);
 3040              		.loc 1 656 34 discriminator 1 view .LVU993
 3041 00d0 112C     		cmp	r4, #17
 3042 00d2 08D0     		beq	.L159
 659:Middlewares/lvgl/src/core/lv_obj.c ****                 lv_obj_clear_state(obj, LV_STATE_CHECKED);
 3043              		.loc 1 659 18 is_stmt 1 view .LVU994
 659:Middlewares/lvgl/src/core/lv_obj.c ****                 lv_obj_clear_state(obj, LV_STATE_CHECKED);
 3044              		.loc 1 659 20 is_stmt 0 view .LVU995
 3045 00d4 142C     		cmp	r4, #20
ARM GAS  /tmp/ccyhZZXZ.s 			page 101


 3046 00d6 01D0     		beq	.L162
 659:Middlewares/lvgl/src/core/lv_obj.c ****                 lv_obj_clear_state(obj, LV_STATE_CHECKED);
 3047              		.loc 1 659 38 discriminator 1 view .LVU996
 3048 00d8 122C     		cmp	r4, #18
 3049 00da 08D1     		bne	.L161
 3050              	.L162:
 660:Middlewares/lvgl/src/core/lv_obj.c ****             }
 3051              		.loc 1 660 17 is_stmt 1 view .LVU997
 3052 00dc 0121     		movs	r1, #1
 3053 00de 3046     		mov	r0, r6
 3054 00e0 FFF7FEFF 		bl	lv_obj_clear_state
 3055              	.LVL303:
 3056 00e4 03E0     		b	.L161
 3057              	.L159:
 657:Middlewares/lvgl/src/core/lv_obj.c ****             }
 3058              		.loc 1 657 17 view .LVU998
 3059 00e6 0121     		movs	r1, #1
 3060 00e8 3046     		mov	r0, r6
 3061 00ea FFF7FEFF 		bl	lv_obj_add_state
 3062              	.LVL304:
 3063              	.L161:
 664:Middlewares/lvgl/src/core/lv_obj.c ****                 lv_res_t res = lv_event_send(obj, LV_EVENT_VALUE_CHANGED, NULL);
 3064              		.loc 1 664 13 view .LVU999
 664:Middlewares/lvgl/src/core/lv_obj.c ****                 lv_res_t res = lv_event_send(obj, LV_EVENT_VALUE_CHANGED, NULL);
 3065              		.loc 1 664 15 is_stmt 0 view .LVU1000
 3066 00ee 0A2C     		cmp	r4, #10
 3067 00f0 B9D0     		beq	.L151
 3068              	.LBB194:
 665:Middlewares/lvgl/src/core/lv_obj.c ****                 if(res != LV_RES_OK) return;
 3069              		.loc 1 665 17 is_stmt 1 view .LVU1001
 665:Middlewares/lvgl/src/core/lv_obj.c ****                 if(res != LV_RES_OK) return;
 3070              		.loc 1 665 32 is_stmt 0 view .LVU1002
 3071 00f2 0022     		movs	r2, #0
 3072 00f4 1C21     		movs	r1, #28
 3073 00f6 3046     		mov	r0, r6
 3074 00f8 FFF7FEFF 		bl	lv_event_send
 3075              	.LVL305:
 666:Middlewares/lvgl/src/core/lv_obj.c ****             }
 3076              		.loc 1 666 17 is_stmt 1 view .LVU1003
 3077 00fc B3E7     		b	.L151
 3078              	.LVL306:
 3079              	.L186:
 666:Middlewares/lvgl/src/core/lv_obj.c ****             }
 3080              		.loc 1 666 17 is_stmt 0 view .LVU1004
 3081              	.LBE194:
 3082              	.LBE193:
 3083              	.LBB195:
 671:Middlewares/lvgl/src/core/lv_obj.c ****             lv_obj_scroll_to_view_recursive(obj, LV_ANIM_ON);
 3084              		.loc 1 671 9 is_stmt 1 view .LVU1005
 671:Middlewares/lvgl/src/core/lv_obj.c ****             lv_obj_scroll_to_view_recursive(obj, LV_ANIM_ON);
 3085              		.loc 1 671 12 is_stmt 0 view .LVU1006
 3086 00fe 4FF40071 		mov	r1, #512
 3087 0102 FFF7FEFF 		bl	lv_obj_has_flag
 3088              	.LVL307:
 671:Middlewares/lvgl/src/core/lv_obj.c ****             lv_obj_scroll_to_view_recursive(obj, LV_ANIM_ON);
 3089              		.loc 1 671 11 view .LVU1007
 3090 0106 A8B9     		cbnz	r0, .L193
ARM GAS  /tmp/ccyhZZXZ.s 			page 102


 3091              	.L164:
 675:Middlewares/lvgl/src/core/lv_obj.c ****         editing = lv_group_get_editing(lv_obj_get_group(obj));
 3092              		.loc 1 675 9 is_stmt 1 view .LVU1008
 3093              	.LVL308:
 676:Middlewares/lvgl/src/core/lv_obj.c ****         lv_state_t state = LV_STATE_FOCUSED;
 3094              		.loc 1 676 9 view .LVU1009
 676:Middlewares/lvgl/src/core/lv_obj.c ****         lv_state_t state = LV_STATE_FOCUSED;
 3095              		.loc 1 676 40 is_stmt 0 view .LVU1010
 3096 0108 3046     		mov	r0, r6
 3097 010a FFF7FEFF 		bl	lv_obj_get_group
 3098              	.LVL309:
 676:Middlewares/lvgl/src/core/lv_obj.c ****         lv_state_t state = LV_STATE_FOCUSED;
 3099              		.loc 1 676 19 view .LVU1011
 3100 010e FFF7FEFF 		bl	lv_group_get_editing
 3101              	.LVL310:
 3102 0112 0446     		mov	r4, r0
 3103              	.LVL311:
 677:Middlewares/lvgl/src/core/lv_obj.c **** 
 3104              		.loc 1 677 9 is_stmt 1 view .LVU1012
 679:Middlewares/lvgl/src/core/lv_obj.c ****         lv_indev_type_t indev_type = lv_indev_get_type(indev);
 3105              		.loc 1 679 9 view .LVU1013
 679:Middlewares/lvgl/src/core/lv_obj.c ****         lv_indev_type_t indev_type = lv_indev_get_type(indev);
 3106              		.loc 1 679 30 is_stmt 0 view .LVU1014
 3107 0114 FFF7FEFF 		bl	lv_indev_get_act
 3108              	.LVL312:
 680:Middlewares/lvgl/src/core/lv_obj.c ****         if(indev_type == LV_INDEV_TYPE_KEYPAD || indev_type == LV_INDEV_TYPE_ENCODER) state |= LV_S
 3109              		.loc 1 680 9 is_stmt 1 view .LVU1015
 680:Middlewares/lvgl/src/core/lv_obj.c ****         if(indev_type == LV_INDEV_TYPE_KEYPAD || indev_type == LV_INDEV_TYPE_ENCODER) state |= LV_S
 3110              		.loc 1 680 38 is_stmt 0 view .LVU1016
 3111 0118 FFF7FEFF 		bl	lv_indev_get_type
 3112              	.LVL313:
 681:Middlewares/lvgl/src/core/lv_obj.c ****         if(editing) {
 3113              		.loc 1 681 9 is_stmt 1 view .LVU1017
 681:Middlewares/lvgl/src/core/lv_obj.c ****         if(editing) {
 3114              		.loc 1 681 11 is_stmt 0 view .LVU1018
 3115 011c 0228     		cmp	r0, #2
 3116 011e 0ED0     		beq	.L179
 681:Middlewares/lvgl/src/core/lv_obj.c ****         if(editing) {
 3117              		.loc 1 681 47 discriminator 2 view .LVU1019
 3118 0120 0428     		cmp	r0, #4
 3119 0122 0ED0     		beq	.L180
 677:Middlewares/lvgl/src/core/lv_obj.c **** 
 3120              		.loc 1 677 20 view .LVU1020
 3121 0124 0221     		movs	r1, #2
 3122              	.L165:
 3123              	.LVL314:
 682:Middlewares/lvgl/src/core/lv_obj.c ****             state |= LV_STATE_EDITED;
 3124              		.loc 1 682 9 is_stmt 1 view .LVU1021
 682:Middlewares/lvgl/src/core/lv_obj.c ****             state |= LV_STATE_EDITED;
 3125              		.loc 1 682 11 is_stmt 0 view .LVU1022
 3126 0126 74B1     		cbz	r4, .L166
 683:Middlewares/lvgl/src/core/lv_obj.c ****             lv_obj_add_state(obj, state);
 3127              		.loc 1 683 13 is_stmt 1 view .LVU1023
 3128              	.LVL315:
 684:Middlewares/lvgl/src/core/lv_obj.c ****         }
 3129              		.loc 1 684 13 view .LVU1024
 3130 0128 41F00801 		orr	r1, r1, #8
ARM GAS  /tmp/ccyhZZXZ.s 			page 103


 3131              	.LVL316:
 684:Middlewares/lvgl/src/core/lv_obj.c ****         }
 3132              		.loc 1 684 13 is_stmt 0 view .LVU1025
 3133 012c 3046     		mov	r0, r6
 3134              	.LVL317:
 684:Middlewares/lvgl/src/core/lv_obj.c ****         }
 3135              		.loc 1 684 13 view .LVU1026
 3136 012e FFF7FEFF 		bl	lv_obj_add_state
 3137              	.LVL318:
 3138 0132 98E7     		b	.L151
 3139              	.LVL319:
 3140              	.L193:
 672:Middlewares/lvgl/src/core/lv_obj.c ****         }
 3141              		.loc 1 672 13 is_stmt 1 view .LVU1027
 3142 0134 0121     		movs	r1, #1
 3143 0136 3046     		mov	r0, r6
 3144 0138 FFF7FEFF 		bl	lv_obj_scroll_to_view_recursive
 3145              	.LVL320:
 3146 013c E4E7     		b	.L164
 3147              	.LVL321:
 3148              	.L179:
 681:Middlewares/lvgl/src/core/lv_obj.c ****         if(editing) {
 3149              		.loc 1 681 93 is_stmt 0 view .LVU1028
 3150 013e 0621     		movs	r1, #6
 3151 0140 F1E7     		b	.L165
 3152              	.L180:
 3153 0142 0621     		movs	r1, #6
 3154 0144 EFE7     		b	.L165
 3155              	.LVL322:
 3156              	.L166:
 687:Middlewares/lvgl/src/core/lv_obj.c ****             lv_obj_clear_state(obj, LV_STATE_EDITED);
 3157              		.loc 1 687 13 is_stmt 1 view .LVU1029
 3158 0146 3046     		mov	r0, r6
 3159              	.LVL323:
 687:Middlewares/lvgl/src/core/lv_obj.c ****             lv_obj_clear_state(obj, LV_STATE_EDITED);
 3160              		.loc 1 687 13 is_stmt 0 view .LVU1030
 3161 0148 FFF7FEFF 		bl	lv_obj_add_state
 3162              	.LVL324:
 688:Middlewares/lvgl/src/core/lv_obj.c ****         }
 3163              		.loc 1 688 13 is_stmt 1 view .LVU1031
 3164 014c 0821     		movs	r1, #8
 3165 014e 3046     		mov	r0, r6
 3166 0150 FFF7FEFF 		bl	lv_obj_clear_state
 3167              	.LVL325:
 3168 0154 87E7     		b	.L151
 3169              	.LVL326:
 3170              	.L187:
 688:Middlewares/lvgl/src/core/lv_obj.c ****         }
 3171              		.loc 1 688 13 is_stmt 0 view .LVU1032
 3172              	.LBE195:
 692:Middlewares/lvgl/src/core/lv_obj.c ****     }
 3173              		.loc 1 692 9 is_stmt 1 view .LVU1033
 3174 0156 4021     		movs	r1, #64
 3175 0158 FFF7FEFF 		bl	lv_obj_add_state
 3176              	.LVL327:
 692:Middlewares/lvgl/src/core/lv_obj.c ****     }
 3177              		.loc 1 692 9 is_stmt 0 view .LVU1034
ARM GAS  /tmp/ccyhZZXZ.s 			page 104


 3178 015c 83E7     		b	.L151
 3179              	.LVL328:
 3180              	.L188:
 695:Middlewares/lvgl/src/core/lv_obj.c ****     }
 3181              		.loc 1 695 9 is_stmt 1 view .LVU1035
 3182 015e 4021     		movs	r1, #64
 3183 0160 FFF7FEFF 		bl	lv_obj_clear_state
 3184              	.LVL329:
 695:Middlewares/lvgl/src/core/lv_obj.c ****     }
 3185              		.loc 1 695 9 is_stmt 0 view .LVU1036
 3186 0164 7FE7     		b	.L151
 3187              	.LVL330:
 3188              	.L189:
 698:Middlewares/lvgl/src/core/lv_obj.c ****     }
 3189              		.loc 1 698 9 is_stmt 1 view .LVU1037
 3190 0166 0E21     		movs	r1, #14
 3191 0168 FFF7FEFF 		bl	lv_obj_clear_state
 3192              	.LVL331:
 698:Middlewares/lvgl/src/core/lv_obj.c ****     }
 3193              		.loc 1 698 9 is_stmt 0 view .LVU1038
 3194 016c 7BE7     		b	.L151
 3195              	.LVL332:
 3196              	.L190:
 3197              	.LBB196:
 701:Middlewares/lvgl/src/core/lv_obj.c ****         uint16_t layout = lv_obj_get_style_layout(obj, LV_PART_MAIN);
 3198              		.loc 1 701 9 is_stmt 1 view .LVU1039
 3199              	.LBB197:
 3200              	.LBI197:
  49:Middlewares/lvgl/src/core/lv_obj_style_gen.h **** {
 3201              		.loc 2 49 26 view .LVU1040
 3202              	.LBB198:
  51:Middlewares/lvgl/src/core/lv_obj_style_gen.h ****     return (lv_align_t)v.num;
 3203              		.loc 2 51 5 view .LVU1041
  51:Middlewares/lvgl/src/core/lv_obj_style_gen.h ****     return (lv_align_t)v.num;
 3204              		.loc 2 51 26 is_stmt 0 view .LVU1042
 3205 016e 41F20902 		movw	r2, #4105
 3206 0172 0021     		movs	r1, #0
 3207 0174 FFF7FEFF 		bl	lv_obj_get_style_prop
 3208              	.LVL333:
  52:Middlewares/lvgl/src/core/lv_obj_style_gen.h **** }
 3209              		.loc 2 52 5 is_stmt 1 view .LVU1043
  52:Middlewares/lvgl/src/core/lv_obj_style_gen.h **** }
 3210              		.loc 2 52 12 is_stmt 0 view .LVU1044
 3211 0178 C4B2     		uxtb	r4, r0
 3212              	.LVL334:
  52:Middlewares/lvgl/src/core/lv_obj_style_gen.h **** }
 3213              		.loc 2 52 12 view .LVU1045
 3214              	.LBE198:
 3215              	.LBE197:
 702:Middlewares/lvgl/src/core/lv_obj.c ****         if(layout || align) {
 3216              		.loc 1 702 9 is_stmt 1 view .LVU1046
 3217              	.LBB199:
 3218              	.LBI199:
 181:Middlewares/lvgl/src/core/lv_obj_style_gen.h **** {
 3219              		.loc 2 181 24 view .LVU1047
 3220              	.LBB200:
 183:Middlewares/lvgl/src/core/lv_obj_style_gen.h ****     return (uint16_t)v.num;
ARM GAS  /tmp/ccyhZZXZ.s 			page 105


 3221              		.loc 2 183 5 view .LVU1048
 183:Middlewares/lvgl/src/core/lv_obj_style_gen.h ****     return (uint16_t)v.num;
 3222              		.loc 2 183 26 is_stmt 0 view .LVU1049
 3223 017a 41F26902 		movw	r2, #4201
 3224 017e 0021     		movs	r1, #0
 3225 0180 3046     		mov	r0, r6
 3226 0182 FFF7FEFF 		bl	lv_obj_get_style_prop
 3227              	.LVL335:
 184:Middlewares/lvgl/src/core/lv_obj_style_gen.h **** }
 3228              		.loc 2 184 5 is_stmt 1 view .LVU1050
 184:Middlewares/lvgl/src/core/lv_obj_style_gen.h **** }
 3229              		.loc 2 184 12 is_stmt 0 view .LVU1051
 3230 0186 80B2     		uxth	r0, r0
 3231              	.LVL336:
 184:Middlewares/lvgl/src/core/lv_obj_style_gen.h **** }
 3232              		.loc 2 184 12 view .LVU1052
 3233              	.LBE200:
 3234              	.LBE199:
 703:Middlewares/lvgl/src/core/lv_obj.c ****             lv_obj_mark_layout_as_dirty(obj);
 3235              		.loc 1 703 9 is_stmt 1 view .LVU1053
 703:Middlewares/lvgl/src/core/lv_obj.c ****             lv_obj_mark_layout_as_dirty(obj);
 3236              		.loc 1 703 11 is_stmt 0 view .LVU1054
 3237 0188 00B9     		cbnz	r0, .L171
 703:Middlewares/lvgl/src/core/lv_obj.c ****             lv_obj_mark_layout_as_dirty(obj);
 3238              		.loc 1 703 19 discriminator 1 view .LVU1055
 3239 018a 14B1     		cbz	r4, .L172
 3240              	.L171:
 704:Middlewares/lvgl/src/core/lv_obj.c ****         }
 3241              		.loc 1 704 13 is_stmt 1 view .LVU1056
 3242 018c 3046     		mov	r0, r6
 3243              	.LVL337:
 704:Middlewares/lvgl/src/core/lv_obj.c ****         }
 3244              		.loc 1 704 13 is_stmt 0 view .LVU1057
 3245 018e FFF7FEFF 		bl	lv_obj_mark_layout_as_dirty
 3246              	.LVL338:
 3247              	.L172:
 707:Middlewares/lvgl/src/core/lv_obj.c ****         uint32_t child_cnt = lv_obj_get_child_cnt(obj);
 3248              		.loc 1 707 9 is_stmt 1 view .LVU1058
 708:Middlewares/lvgl/src/core/lv_obj.c ****         for(i = 0; i < child_cnt; i++) {
 3249              		.loc 1 708 9 view .LVU1059
 708:Middlewares/lvgl/src/core/lv_obj.c ****         for(i = 0; i < child_cnt; i++) {
 3250              		.loc 1 708 30 is_stmt 0 view .LVU1060
 3251 0192 3046     		mov	r0, r6
 3252 0194 FFF7FEFF 		bl	lv_obj_get_child_cnt
 3253              	.LVL339:
 3254 0198 0546     		mov	r5, r0
 3255              	.LVL340:
 709:Middlewares/lvgl/src/core/lv_obj.c ****             lv_obj_t * child = lv_obj_get_child(obj, i);
 3256              		.loc 1 709 9 is_stmt 1 view .LVU1061
 709:Middlewares/lvgl/src/core/lv_obj.c ****             lv_obj_t * child = lv_obj_get_child(obj, i);
 3257              		.loc 1 709 15 is_stmt 0 view .LVU1062
 3258 019a 0024     		movs	r4, #0
 3259              	.LVL341:
 709:Middlewares/lvgl/src/core/lv_obj.c ****             lv_obj_t * child = lv_obj_get_child(obj, i);
 3260              		.loc 1 709 9 view .LVU1063
 3261 019c 06E0     		b	.L173
 3262              	.LVL342:
ARM GAS  /tmp/ccyhZZXZ.s 			page 106


 3263              	.L174:
 3264              	.LBB201:
 710:Middlewares/lvgl/src/core/lv_obj.c ****             lv_obj_mark_layout_as_dirty(child);
 3265              		.loc 1 710 13 is_stmt 1 discriminator 3 view .LVU1064
 710:Middlewares/lvgl/src/core/lv_obj.c ****             lv_obj_mark_layout_as_dirty(child);
 3266              		.loc 1 710 32 is_stmt 0 discriminator 3 view .LVU1065
 3267 019e 2146     		mov	r1, r4
 3268 01a0 3046     		mov	r0, r6
 3269 01a2 FFF7FEFF 		bl	lv_obj_get_child
 3270              	.LVL343:
 711:Middlewares/lvgl/src/core/lv_obj.c ****         }
 3271              		.loc 1 711 13 is_stmt 1 discriminator 3 view .LVU1066
 3272 01a6 FFF7FEFF 		bl	lv_obj_mark_layout_as_dirty
 3273              	.LVL344:
 711:Middlewares/lvgl/src/core/lv_obj.c ****         }
 3274              		.loc 1 711 13 is_stmt 0 discriminator 3 view .LVU1067
 3275              	.LBE201:
 709:Middlewares/lvgl/src/core/lv_obj.c ****             lv_obj_t * child = lv_obj_get_child(obj, i);
 3276              		.loc 1 709 35 is_stmt 1 discriminator 3 view .LVU1068
 709:Middlewares/lvgl/src/core/lv_obj.c ****             lv_obj_t * child = lv_obj_get_child(obj, i);
 3277              		.loc 1 709 36 is_stmt 0 discriminator 3 view .LVU1069
 3278 01aa 0134     		adds	r4, r4, #1
 3279              	.LVL345:
 3280              	.L173:
 709:Middlewares/lvgl/src/core/lv_obj.c ****             lv_obj_t * child = lv_obj_get_child(obj, i);
 3281              		.loc 1 709 20 is_stmt 1 discriminator 1 view .LVU1070
 709:Middlewares/lvgl/src/core/lv_obj.c ****             lv_obj_t * child = lv_obj_get_child(obj, i);
 3282              		.loc 1 709 9 is_stmt 0 discriminator 1 view .LVU1071
 3283 01ac AC42     		cmp	r4, r5
 3284 01ae F6D3     		bcc	.L174
 3285 01b0 59E7     		b	.L151
 3286              	.LVL346:
 3287              	.L191:
 709:Middlewares/lvgl/src/core/lv_obj.c ****             lv_obj_t * child = lv_obj_get_child(obj, i);
 3288              		.loc 1 709 9 discriminator 1 view .LVU1072
 3289              	.LBE196:
 3290              	.LBB202:
 715:Middlewares/lvgl/src/core/lv_obj.c ****         lv_coord_t h = lv_obj_get_style_height(obj, LV_PART_MAIN);
 3291              		.loc 1 715 9 is_stmt 1 view .LVU1073
 3292              	.LBB203:
 3293              	.LBI203:
   1:Middlewares/lvgl/src/core/lv_obj_style_gen.h **** {
 3294              		.loc 2 1 26 view .LVU1074
 3295              	.LBB204:
   3:Middlewares/lvgl/src/core/lv_obj_style_gen.h ****     return (lv_coord_t)v.num;
 3296              		.loc 2 3 5 view .LVU1075
   3:Middlewares/lvgl/src/core/lv_obj_style_gen.h ****     return (lv_coord_t)v.num;
 3297              		.loc 2 3 26 is_stmt 0 view .LVU1076
 3298 01b2 41F20102 		movw	r2, #4097
 3299 01b6 0021     		movs	r1, #0
 3300 01b8 FFF7FEFF 		bl	lv_obj_get_style_prop
 3301              	.LVL347:
   4:Middlewares/lvgl/src/core/lv_obj_style_gen.h **** }
 3302              		.loc 2 4 5 is_stmt 1 view .LVU1077
   4:Middlewares/lvgl/src/core/lv_obj_style_gen.h **** }
 3303              		.loc 2 4 12 is_stmt 0 view .LVU1078
 3304 01bc 07B2     		sxth	r7, r0
ARM GAS  /tmp/ccyhZZXZ.s 			page 107


 3305              	.LVL348:
   4:Middlewares/lvgl/src/core/lv_obj_style_gen.h **** }
 3306              		.loc 2 4 12 view .LVU1079
 3307              	.LBE204:
 3308              	.LBE203:
 716:Middlewares/lvgl/src/core/lv_obj.c ****         lv_coord_t align = lv_obj_get_style_align(obj, LV_PART_MAIN);
 3309              		.loc 1 716 9 is_stmt 1 view .LVU1080
 3310              	.LBB205:
 3311              	.LBI205:
  19:Middlewares/lvgl/src/core/lv_obj_style_gen.h **** {
 3312              		.loc 2 19 26 view .LVU1081
 3313              	.LBB206:
  21:Middlewares/lvgl/src/core/lv_obj_style_gen.h ****     return (lv_coord_t)v.num;
 3314              		.loc 2 21 5 view .LVU1082
  21:Middlewares/lvgl/src/core/lv_obj_style_gen.h ****     return (lv_coord_t)v.num;
 3315              		.loc 2 21 26 is_stmt 0 view .LVU1083
 3316 01be 41F20402 		movw	r2, #4100
 3317 01c2 0021     		movs	r1, #0
 3318 01c4 3046     		mov	r0, r6
 3319 01c6 FFF7FEFF 		bl	lv_obj_get_style_prop
 3320              	.LVL349:
  22:Middlewares/lvgl/src/core/lv_obj_style_gen.h **** }
 3321              		.loc 2 22 5 is_stmt 1 view .LVU1084
  22:Middlewares/lvgl/src/core/lv_obj_style_gen.h **** }
 3322              		.loc 2 22 12 is_stmt 0 view .LVU1085
 3323 01ca 05B2     		sxth	r5, r0
 3324              	.LVL350:
  22:Middlewares/lvgl/src/core/lv_obj_style_gen.h **** }
 3325              		.loc 2 22 12 view .LVU1086
 3326              	.LBE206:
 3327              	.LBE205:
 717:Middlewares/lvgl/src/core/lv_obj.c ****         uint16_t layout = lv_obj_get_style_layout(obj, LV_PART_MAIN);
 3328              		.loc 1 717 9 is_stmt 1 view .LVU1087
 3329              	.LBB207:
 3330              	.LBI207:
  49:Middlewares/lvgl/src/core/lv_obj_style_gen.h **** {
 3331              		.loc 2 49 26 view .LVU1088
 3332              	.LBB208:
  51:Middlewares/lvgl/src/core/lv_obj_style_gen.h ****     return (lv_align_t)v.num;
 3333              		.loc 2 51 5 view .LVU1089
  51:Middlewares/lvgl/src/core/lv_obj_style_gen.h ****     return (lv_align_t)v.num;
 3334              		.loc 2 51 26 is_stmt 0 view .LVU1090
 3335 01cc 41F20902 		movw	r2, #4105
 3336 01d0 0021     		movs	r1, #0
 3337 01d2 3046     		mov	r0, r6
 3338 01d4 FFF7FEFF 		bl	lv_obj_get_style_prop
 3339              	.LVL351:
  52:Middlewares/lvgl/src/core/lv_obj_style_gen.h **** }
 3340              		.loc 2 52 5 is_stmt 1 view .LVU1091
  52:Middlewares/lvgl/src/core/lv_obj_style_gen.h **** }
 3341              		.loc 2 52 12 is_stmt 0 view .LVU1092
 3342 01d8 C4B2     		uxtb	r4, r0
 3343              	.LVL352:
  52:Middlewares/lvgl/src/core/lv_obj_style_gen.h **** }
 3344              		.loc 2 52 12 view .LVU1093
 3345              	.LBE208:
 3346              	.LBE207:
ARM GAS  /tmp/ccyhZZXZ.s 			page 108


 718:Middlewares/lvgl/src/core/lv_obj.c ****         if(layout || align || w == LV_SIZE_CONTENT || h == LV_SIZE_CONTENT) {
 3347              		.loc 1 718 9 is_stmt 1 view .LVU1094
 3348              	.LBB209:
 3349              	.LBI209:
 181:Middlewares/lvgl/src/core/lv_obj_style_gen.h **** {
 3350              		.loc 2 181 24 view .LVU1095
 3351              	.LBB210:
 183:Middlewares/lvgl/src/core/lv_obj_style_gen.h ****     return (uint16_t)v.num;
 3352              		.loc 2 183 5 view .LVU1096
 183:Middlewares/lvgl/src/core/lv_obj_style_gen.h ****     return (uint16_t)v.num;
 3353              		.loc 2 183 26 is_stmt 0 view .LVU1097
 3354 01da 41F26902 		movw	r2, #4201
 3355 01de 0021     		movs	r1, #0
 3356 01e0 3046     		mov	r0, r6
 3357 01e2 FFF7FEFF 		bl	lv_obj_get_style_prop
 3358              	.LVL353:
 184:Middlewares/lvgl/src/core/lv_obj_style_gen.h **** }
 3359              		.loc 2 184 5 is_stmt 1 view .LVU1098
 184:Middlewares/lvgl/src/core/lv_obj_style_gen.h **** }
 3360              		.loc 2 184 12 is_stmt 0 view .LVU1099
 3361 01e6 80B2     		uxth	r0, r0
 3362              	.LVL354:
 184:Middlewares/lvgl/src/core/lv_obj_style_gen.h **** }
 3363              		.loc 2 184 12 view .LVU1100
 3364              	.LBE210:
 3365              	.LBE209:
 719:Middlewares/lvgl/src/core/lv_obj.c ****             lv_obj_mark_layout_as_dirty(obj);
 3366              		.loc 1 719 9 is_stmt 1 view .LVU1101
 719:Middlewares/lvgl/src/core/lv_obj.c ****             lv_obj_mark_layout_as_dirty(obj);
 3367              		.loc 1 719 11 is_stmt 0 view .LVU1102
 3368 01e8 38B9     		cbnz	r0, .L176
 719:Middlewares/lvgl/src/core/lv_obj.c ****             lv_obj_mark_layout_as_dirty(obj);
 3369              		.loc 1 719 19 discriminator 1 view .LVU1103
 3370 01ea 34B9     		cbnz	r4, .L176
 719:Middlewares/lvgl/src/core/lv_obj.c ****             lv_obj_mark_layout_as_dirty(obj);
 3371              		.loc 1 719 28 discriminator 2 view .LVU1104
 3372 01ec 42F2D173 		movw	r3, #10193
 3373 01f0 9F42     		cmp	r7, r3
 3374 01f2 02D0     		beq	.L176
 719:Middlewares/lvgl/src/core/lv_obj.c ****             lv_obj_mark_layout_as_dirty(obj);
 3375              		.loc 1 719 52 discriminator 3 view .LVU1105
 3376 01f4 9D42     		cmp	r5, r3
 3377 01f6 7FF436AF 		bne	.L151
 3378              	.L176:
 720:Middlewares/lvgl/src/core/lv_obj.c ****         }
 3379              		.loc 1 720 13 is_stmt 1 view .LVU1106
 3380 01fa 3046     		mov	r0, r6
 3381              	.LVL355:
 720:Middlewares/lvgl/src/core/lv_obj.c ****         }
 3382              		.loc 1 720 13 is_stmt 0 view .LVU1107
 3383 01fc FFF7FEFF 		bl	lv_obj_mark_layout_as_dirty
 3384              	.LVL356:
 3385 0200 31E7     		b	.L151
 3386              	.LVL357:
 3387              	.L192:
 720:Middlewares/lvgl/src/core/lv_obj.c ****         }
 3388              		.loc 1 720 13 view .LVU1108
ARM GAS  /tmp/ccyhZZXZ.s 			page 109


 3389              	.LBE202:
 3390              	.LBB211:
 729:Middlewares/lvgl/src/core/lv_obj.c ****         lv_coord_t d = lv_obj_calculate_ext_draw_size(obj, LV_PART_MAIN);
 3391              		.loc 1 729 9 is_stmt 1 view .LVU1109
 729:Middlewares/lvgl/src/core/lv_obj.c ****         lv_coord_t d = lv_obj_calculate_ext_draw_size(obj, LV_PART_MAIN);
 3392              		.loc 1 729 26 is_stmt 0 view .LVU1110
 3393 0202 2846     		mov	r0, r5
 3394              	.LVL358:
 729:Middlewares/lvgl/src/core/lv_obj.c ****         lv_coord_t d = lv_obj_calculate_ext_draw_size(obj, LV_PART_MAIN);
 3395              		.loc 1 729 26 view .LVU1111
 3396 0204 FFF7FEFF 		bl	lv_event_get_param
 3397              	.LVL359:
 3398 0208 0446     		mov	r4, r0
 3399              	.LVL360:
 730:Middlewares/lvgl/src/core/lv_obj.c ****         *s = LV_MAX(*s, d);
 3400              		.loc 1 730 9 is_stmt 1 view .LVU1112
 730:Middlewares/lvgl/src/core/lv_obj.c ****         *s = LV_MAX(*s, d);
 3401              		.loc 1 730 24 is_stmt 0 view .LVU1113
 3402 020a 0021     		movs	r1, #0
 3403 020c 3046     		mov	r0, r6
 3404              	.LVL361:
 730:Middlewares/lvgl/src/core/lv_obj.c ****         *s = LV_MAX(*s, d);
 3405              		.loc 1 730 24 view .LVU1114
 3406 020e FFF7FEFF 		bl	lv_obj_calculate_ext_draw_size
 3407              	.LVL362:
 731:Middlewares/lvgl/src/core/lv_obj.c ****     }
 3408              		.loc 1 731 9 is_stmt 1 view .LVU1115
 731:Middlewares/lvgl/src/core/lv_obj.c ****     }
 3409              		.loc 1 731 14 is_stmt 0 view .LVU1116
 3410 0212 B4F90030 		ldrsh	r3, [r4]
 3411 0216 8342     		cmp	r3, r0
 3412 0218 B8BF     		it	lt
 3413 021a 0346     		movlt	r3, r0
 731:Middlewares/lvgl/src/core/lv_obj.c ****     }
 3414              		.loc 1 731 12 view .LVU1117
 3415 021c 2380     		strh	r3, [r4]	@ movhi
 3416              	.LBE211:
 3417 021e 22E7     		b	.L151
 3418              		.cfi_endproc
 3419              	.LFE175:
 3421              		.section	.text.lv_obj_allocate_spec_attr,"ax",%progbits
 3422              		.align	1
 3423              		.global	lv_obj_allocate_spec_attr
 3424              		.syntax unified
 3425              		.thumb
 3426              		.thumb_func
 3427              		.fpu fpv4-sp-d16
 3429              	lv_obj_allocate_spec_attr:
 3430              	.LVL363:
 3431              	.LFB165:
 310:Middlewares/lvgl/src/core/lv_obj.c ****     LV_ASSERT_OBJ(obj, MY_CLASS);
 3432              		.loc 1 310 1 is_stmt 1 view -0
 3433              		.cfi_startproc
 3434              		@ args = 0, pretend = 0, frame = 0
 3435              		@ frame_needed = 0, uses_anonymous_args = 0
 311:Middlewares/lvgl/src/core/lv_obj.c **** 
 3436              		.loc 1 311 5 view .LVU1119
ARM GAS  /tmp/ccyhZZXZ.s 			page 110


 311:Middlewares/lvgl/src/core/lv_obj.c **** 
 3437              		.loc 1 311 5 view .LVU1120
 311:Middlewares/lvgl/src/core/lv_obj.c **** 
 3438              		.loc 1 311 5 view .LVU1121
 313:Middlewares/lvgl/src/core/lv_obj.c ****         static uint32_t x = 0;
 3439              		.loc 1 313 5 view .LVU1122
 313:Middlewares/lvgl/src/core/lv_obj.c ****         static uint32_t x = 0;
 3440              		.loc 1 313 11 is_stmt 0 view .LVU1123
 3441 0000 8368     		ldr	r3, [r0, #8]
 313:Middlewares/lvgl/src/core/lv_obj.c ****         static uint32_t x = 0;
 3442              		.loc 1 313 7 view .LVU1124
 3443 0002 03B1     		cbz	r3, .L202
 3444 0004 7047     		bx	lr
 3445              	.L202:
 310:Middlewares/lvgl/src/core/lv_obj.c ****     LV_ASSERT_OBJ(obj, MY_CLASS);
 3446              		.loc 1 310 1 view .LVU1125
 3447 0006 10B5     		push	{r4, lr}
 3448              	.LCFI25:
 3449              		.cfi_def_cfa_offset 8
 3450              		.cfi_offset 4, -8
 3451              		.cfi_offset 14, -4
 3452 0008 0446     		mov	r4, r0
 3453              	.LBB212:
 314:Middlewares/lvgl/src/core/lv_obj.c ****         x++;
 3454              		.loc 1 314 9 is_stmt 1 view .LVU1126
 315:Middlewares/lvgl/src/core/lv_obj.c ****         obj->spec_attr = lv_mem_alloc(sizeof(_lv_obj_spec_attr_t));
 3455              		.loc 1 315 9 view .LVU1127
 315:Middlewares/lvgl/src/core/lv_obj.c ****         obj->spec_attr = lv_mem_alloc(sizeof(_lv_obj_spec_attr_t));
 3456              		.loc 1 315 10 is_stmt 0 view .LVU1128
 3457 000a 0C4A     		ldr	r2, .L203
 3458 000c 1368     		ldr	r3, [r2]
 3459 000e 0133     		adds	r3, r3, #1
 3460 0010 1360     		str	r3, [r2]
 316:Middlewares/lvgl/src/core/lv_obj.c ****         LV_ASSERT_MALLOC(obj->spec_attr);
 3461              		.loc 1 316 9 is_stmt 1 view .LVU1129
 316:Middlewares/lvgl/src/core/lv_obj.c ****         LV_ASSERT_MALLOC(obj->spec_attr);
 3462              		.loc 1 316 26 is_stmt 0 view .LVU1130
 3463 0012 1C20     		movs	r0, #28
 3464              	.LVL364:
 316:Middlewares/lvgl/src/core/lv_obj.c ****         LV_ASSERT_MALLOC(obj->spec_attr);
 3465              		.loc 1 316 26 view .LVU1131
 3466 0014 FFF7FEFF 		bl	lv_mem_alloc
 3467              	.LVL365:
 316:Middlewares/lvgl/src/core/lv_obj.c ****         LV_ASSERT_MALLOC(obj->spec_attr);
 3468              		.loc 1 316 24 view .LVU1132
 3469 0018 A060     		str	r0, [r4, #8]
 317:Middlewares/lvgl/src/core/lv_obj.c ****         if(obj->spec_attr == NULL) return;
 3470              		.loc 1 317 9 is_stmt 1 view .LVU1133
 317:Middlewares/lvgl/src/core/lv_obj.c ****         if(obj->spec_attr == NULL) return;
 3471              		.loc 1 317 9 view .LVU1134
 3472 001a 68B1     		cbz	r0, .L197
 317:Middlewares/lvgl/src/core/lv_obj.c ****         if(obj->spec_attr == NULL) return;
 3473              		.loc 1 317 9 view .LVU1135
 317:Middlewares/lvgl/src/core/lv_obj.c ****         if(obj->spec_attr == NULL) return;
 3474              		.loc 1 317 41 view .LVU1136
 318:Middlewares/lvgl/src/core/lv_obj.c **** 
 3475              		.loc 1 318 9 view .LVU1137
ARM GAS  /tmp/ccyhZZXZ.s 			page 111


 320:Middlewares/lvgl/src/core/lv_obj.c **** 
 3476              		.loc 1 320 9 view .LVU1138
 3477 001c 1C21     		movs	r1, #28
 3478 001e FFF7FEFF 		bl	lv_memset_00
 3479              	.LVL366:
 322:Middlewares/lvgl/src/core/lv_obj.c ****         obj->spec_attr->scrollbar_mode = LV_SCROLLBAR_MODE_AUTO;
 3480              		.loc 1 322 9 view .LVU1139
 322:Middlewares/lvgl/src/core/lv_obj.c ****         obj->spec_attr->scrollbar_mode = LV_SCROLLBAR_MODE_AUTO;
 3481              		.loc 1 322 12 is_stmt 0 view .LVU1140
 3482 0022 A268     		ldr	r2, [r4, #8]
 322:Middlewares/lvgl/src/core/lv_obj.c ****         obj->spec_attr->scrollbar_mode = LV_SCROLLBAR_MODE_AUTO;
 3483              		.loc 1 322 36 view .LVU1141
 3484 0024 537E     		ldrb	r3, [r2, #25]	@ zero_extendqisi2
 3485 0026 43F00F03 		orr	r3, r3, #15
 3486 002a 5376     		strb	r3, [r2, #25]
 323:Middlewares/lvgl/src/core/lv_obj.c ****     }
 3487              		.loc 1 323 9 is_stmt 1 view .LVU1142
 323:Middlewares/lvgl/src/core/lv_obj.c ****     }
 3488              		.loc 1 323 12 is_stmt 0 view .LVU1143
 3489 002c A268     		ldr	r2, [r4, #8]
 323:Middlewares/lvgl/src/core/lv_obj.c ****     }
 3490              		.loc 1 323 40 view .LVU1144
 3491 002e 137E     		ldrb	r3, [r2, #24]	@ zero_extendqisi2
 3492 0030 43F00303 		orr	r3, r3, #3
 3493 0034 1376     		strb	r3, [r2, #24]
 3494              	.LBE212:
 325:Middlewares/lvgl/src/core/lv_obj.c **** 
 3495              		.loc 1 325 1 view .LVU1145
 3496 0036 10BD     		pop	{r4, pc}
 3497              	.LVL367:
 3498              	.L197:
 3499              	.LBB213:
 317:Middlewares/lvgl/src/core/lv_obj.c ****         if(obj->spec_attr == NULL) return;
 3500              		.loc 1 317 9 is_stmt 1 discriminator 1 view .LVU1146
 317:Middlewares/lvgl/src/core/lv_obj.c ****         if(obj->spec_attr == NULL) return;
 3501              		.loc 1 317 9 discriminator 1 view .LVU1147
 317:Middlewares/lvgl/src/core/lv_obj.c ****         if(obj->spec_attr == NULL) return;
 3502              		.loc 1 317 9 discriminator 1 view .LVU1148
 317:Middlewares/lvgl/src/core/lv_obj.c ****         if(obj->spec_attr == NULL) return;
 3503              		.loc 1 317 9 discriminator 1 view .LVU1149
 3504 0038 FEE7     		b	.L197
 3505              	.L204:
 3506 003a 00BF     		.align	2
 3507              	.L203:
 3508 003c 00000000 		.word	.LANCHOR2
 3509              	.LBE213:
 3510              		.cfi_endproc
 3511              	.LFE165:
 3513              		.section	.text.lv_obj_check_type,"ax",%progbits
 3514              		.align	1
 3515              		.global	lv_obj_check_type
 3516              		.syntax unified
 3517              		.thumb
 3518              		.thumb_func
 3519              		.fpu fpv4-sp-d16
 3521              	lv_obj_check_type:
 3522              	.LVL368:
ARM GAS  /tmp/ccyhZZXZ.s 			page 112


 3523              	.LFB166:
 328:Middlewares/lvgl/src/core/lv_obj.c ****     if(obj == NULL) return false;
 3524              		.loc 1 328 1 view -0
 3525              		.cfi_startproc
 3526              		@ args = 0, pretend = 0, frame = 0
 3527              		@ frame_needed = 0, uses_anonymous_args = 0
 3528              		@ link register save eliminated.
 329:Middlewares/lvgl/src/core/lv_obj.c ****     return obj->class_p == class_p ? true : false;
 3529              		.loc 1 329 5 view .LVU1151
 329:Middlewares/lvgl/src/core/lv_obj.c ****     return obj->class_p == class_p ? true : false;
 3530              		.loc 1 329 7 is_stmt 0 view .LVU1152
 3531 0000 28B1     		cbz	r0, .L207
 330:Middlewares/lvgl/src/core/lv_obj.c **** }
 3532              		.loc 1 330 5 is_stmt 1 view .LVU1153
 330:Middlewares/lvgl/src/core/lv_obj.c **** }
 3533              		.loc 1 330 15 is_stmt 0 view .LVU1154
 3534 0002 0068     		ldr	r0, [r0]
 3535              	.LVL369:
 330:Middlewares/lvgl/src/core/lv_obj.c **** }
 3536              		.loc 1 330 43 view .LVU1155
 3537 0004 8842     		cmp	r0, r1
 3538 0006 14BF     		ite	ne
 3539 0008 0020     		movne	r0, #0
 3540 000a 0120     		moveq	r0, #1
 3541 000c 7047     		bx	lr
 3542              	.LVL370:
 3543              	.L207:
 329:Middlewares/lvgl/src/core/lv_obj.c ****     return obj->class_p == class_p ? true : false;
 3544              		.loc 1 329 28 view .LVU1156
 3545 000e 0020     		movs	r0, #0
 3546              	.LVL371:
 331:Middlewares/lvgl/src/core/lv_obj.c **** 
 3547              		.loc 1 331 1 view .LVU1157
 3548 0010 7047     		bx	lr
 3549              		.cfi_endproc
 3550              	.LFE166:
 3552              		.section	.text.lv_obj_has_class,"ax",%progbits
 3553              		.align	1
 3554              		.global	lv_obj_has_class
 3555              		.syntax unified
 3556              		.thumb
 3557              		.thumb_func
 3558              		.fpu fpv4-sp-d16
 3560              	lv_obj_has_class:
 3561              	.LVL372:
 3562              	.LFB167:
 334:Middlewares/lvgl/src/core/lv_obj.c ****     const lv_obj_class_t * obj_class = obj->class_p;
 3563              		.loc 1 334 1 is_stmt 1 view -0
 3564              		.cfi_startproc
 3565              		@ args = 0, pretend = 0, frame = 0
 3566              		@ frame_needed = 0, uses_anonymous_args = 0
 3567              		@ link register save eliminated.
 335:Middlewares/lvgl/src/core/lv_obj.c ****     while(obj_class) {
 3568              		.loc 1 335 5 view .LVU1159
 335:Middlewares/lvgl/src/core/lv_obj.c ****     while(obj_class) {
 3569              		.loc 1 335 28 is_stmt 0 view .LVU1160
 3570 0000 0368     		ldr	r3, [r0]
ARM GAS  /tmp/ccyhZZXZ.s 			page 113


 3571              	.LVL373:
 336:Middlewares/lvgl/src/core/lv_obj.c ****         if(obj_class == class_p) return true;
 3572              		.loc 1 336 5 is_stmt 1 view .LVU1161
 336:Middlewares/lvgl/src/core/lv_obj.c ****         if(obj_class == class_p) return true;
 3573              		.loc 1 336 10 is_stmt 0 view .LVU1162
 3574 0002 00E0     		b	.L209
 3575              	.L214:
 338:Middlewares/lvgl/src/core/lv_obj.c ****     }
 3576              		.loc 1 338 9 is_stmt 1 view .LVU1163
 338:Middlewares/lvgl/src/core/lv_obj.c ****     }
 3577              		.loc 1 338 19 is_stmt 0 view .LVU1164
 3578 0004 1B68     		ldr	r3, [r3]
 3579              	.LVL374:
 3580              	.L209:
 336:Middlewares/lvgl/src/core/lv_obj.c ****         if(obj_class == class_p) return true;
 3581              		.loc 1 336 10 is_stmt 1 view .LVU1165
 3582 0006 1BB1     		cbz	r3, .L213
 337:Middlewares/lvgl/src/core/lv_obj.c ****         obj_class = obj_class->base_class;
 3583              		.loc 1 337 9 view .LVU1166
 337:Middlewares/lvgl/src/core/lv_obj.c ****         obj_class = obj_class->base_class;
 3584              		.loc 1 337 11 is_stmt 0 view .LVU1167
 3585 0008 8B42     		cmp	r3, r1
 3586 000a FBD1     		bne	.L214
 337:Middlewares/lvgl/src/core/lv_obj.c ****         obj_class = obj_class->base_class;
 3587              		.loc 1 337 41 view .LVU1168
 3588 000c 0120     		movs	r0, #1
 3589              	.LVL375:
 342:Middlewares/lvgl/src/core/lv_obj.c **** 
 3590              		.loc 1 342 1 view .LVU1169
 3591 000e 7047     		bx	lr
 3592              	.LVL376:
 3593              	.L213:
 341:Middlewares/lvgl/src/core/lv_obj.c **** }
 3594              		.loc 1 341 12 view .LVU1170
 3595 0010 0020     		movs	r0, #0
 3596              	.LVL377:
 341:Middlewares/lvgl/src/core/lv_obj.c **** }
 3597              		.loc 1 341 12 view .LVU1171
 3598 0012 7047     		bx	lr
 3599              		.cfi_endproc
 3600              	.LFE167:
 3602              		.section	.text.lv_obj_get_class,"ax",%progbits
 3603              		.align	1
 3604              		.global	lv_obj_get_class
 3605              		.syntax unified
 3606              		.thumb
 3607              		.thumb_func
 3608              		.fpu fpv4-sp-d16
 3610              	lv_obj_get_class:
 3611              	.LVL378:
 3612              	.LFB168:
 345:Middlewares/lvgl/src/core/lv_obj.c ****     return obj->class_p;
 3613              		.loc 1 345 1 is_stmt 1 view -0
 3614              		.cfi_startproc
 3615              		@ args = 0, pretend = 0, frame = 0
 3616              		@ frame_needed = 0, uses_anonymous_args = 0
 3617              		@ link register save eliminated.
ARM GAS  /tmp/ccyhZZXZ.s 			page 114


 346:Middlewares/lvgl/src/core/lv_obj.c **** }
 3618              		.loc 1 346 5 view .LVU1173
 347:Middlewares/lvgl/src/core/lv_obj.c **** 
 3619              		.loc 1 347 1 is_stmt 0 view .LVU1174
 3620 0000 0068     		ldr	r0, [r0]
 3621              	.LVL379:
 347:Middlewares/lvgl/src/core/lv_obj.c **** 
 3622              		.loc 1 347 1 view .LVU1175
 3623 0002 7047     		bx	lr
 3624              		.cfi_endproc
 3625              	.LFE168:
 3627              		.section	.text.lv_obj_is_valid,"ax",%progbits
 3628              		.align	1
 3629              		.global	lv_obj_is_valid
 3630              		.syntax unified
 3631              		.thumb
 3632              		.thumb_func
 3633              		.fpu fpv4-sp-d16
 3635              	lv_obj_is_valid:
 3636              	.LVL380:
 3637              	.LFB169:
 350:Middlewares/lvgl/src/core/lv_obj.c ****     lv_disp_t * disp = lv_disp_get_next(NULL);
 3638              		.loc 1 350 1 is_stmt 1 view -0
 3639              		.cfi_startproc
 3640              		@ args = 0, pretend = 0, frame = 0
 3641              		@ frame_needed = 0, uses_anonymous_args = 0
 350:Middlewares/lvgl/src/core/lv_obj.c ****     lv_disp_t * disp = lv_disp_get_next(NULL);
 3642              		.loc 1 350 1 is_stmt 0 view .LVU1177
 3643 0000 70B5     		push	{r4, r5, r6, lr}
 3644              	.LCFI26:
 3645              		.cfi_def_cfa_offset 16
 3646              		.cfi_offset 4, -16
 3647              		.cfi_offset 5, -12
 3648              		.cfi_offset 6, -8
 3649              		.cfi_offset 14, -4
 3650 0002 0646     		mov	r6, r0
 351:Middlewares/lvgl/src/core/lv_obj.c ****     while(disp) {
 3651              		.loc 1 351 5 is_stmt 1 view .LVU1178
 351:Middlewares/lvgl/src/core/lv_obj.c ****     while(disp) {
 3652              		.loc 1 351 24 is_stmt 0 view .LVU1179
 3653 0004 0020     		movs	r0, #0
 3654              	.LVL381:
 351:Middlewares/lvgl/src/core/lv_obj.c ****     while(disp) {
 3655              		.loc 1 351 24 view .LVU1180
 3656 0006 FFF7FEFF 		bl	lv_disp_get_next
 3657              	.LVL382:
 3658 000a 0546     		mov	r5, r0
 3659              	.LVL383:
 352:Middlewares/lvgl/src/core/lv_obj.c ****         uint32_t i;
 3660              		.loc 1 352 5 is_stmt 1 view .LVU1181
 3661              	.L217:
 352:Middlewares/lvgl/src/core/lv_obj.c ****         uint32_t i;
 3662              		.loc 1 352 10 view .LVU1182
 3663 000c B5B1     		cbz	r5, .L224
 3664              	.LBB214:
 354:Middlewares/lvgl/src/core/lv_obj.c ****             if(disp->screens[i] == obj) return true;
 3665              		.loc 1 354 15 is_stmt 0 view .LVU1183
ARM GAS  /tmp/ccyhZZXZ.s 			page 115


 3666 000e 0024     		movs	r4, #0
 3667 0010 00E0     		b	.L220
 3668              	.LVL384:
 3669              	.L226:
 354:Middlewares/lvgl/src/core/lv_obj.c ****             if(disp->screens[i] == obj) return true;
 3670              		.loc 1 354 42 is_stmt 1 discriminator 2 view .LVU1184
 354:Middlewares/lvgl/src/core/lv_obj.c ****             if(disp->screens[i] == obj) return true;
 3671              		.loc 1 354 43 is_stmt 0 discriminator 2 view .LVU1185
 3672 0012 0134     		adds	r4, r4, #1
 3673              	.LVL385:
 3674              	.L220:
 354:Middlewares/lvgl/src/core/lv_obj.c ****             if(disp->screens[i] == obj) return true;
 3675              		.loc 1 354 20 is_stmt 1 discriminator 1 view .LVU1186
 354:Middlewares/lvgl/src/core/lv_obj.c ****             if(disp->screens[i] == obj) return true;
 3676              		.loc 1 354 28 is_stmt 0 discriminator 1 view .LVU1187
 3677 0014 6B6A     		ldr	r3, [r5, #36]
 354:Middlewares/lvgl/src/core/lv_obj.c ****             if(disp->screens[i] == obj) return true;
 3678              		.loc 1 354 9 discriminator 1 view .LVU1188
 3679 0016 A342     		cmp	r3, r4
 3680 0018 0BD9     		bls	.L225
 3681              	.LBB215:
 355:Middlewares/lvgl/src/core/lv_obj.c ****             bool found = obj_valid_child(disp->screens[i], obj);
 3682              		.loc 1 355 13 is_stmt 1 view .LVU1189
 355:Middlewares/lvgl/src/core/lv_obj.c ****             bool found = obj_valid_child(disp->screens[i], obj);
 3683              		.loc 1 355 20 is_stmt 0 view .LVU1190
 3684 001a EB68     		ldr	r3, [r5, #12]
 355:Middlewares/lvgl/src/core/lv_obj.c ****             bool found = obj_valid_child(disp->screens[i], obj);
 3685              		.loc 1 355 29 view .LVU1191
 3686 001c 53F82400 		ldr	r0, [r3, r4, lsl #2]
 355:Middlewares/lvgl/src/core/lv_obj.c ****             bool found = obj_valid_child(disp->screens[i], obj);
 3687              		.loc 1 355 15 view .LVU1192
 3688 0020 B042     		cmp	r0, r6
 3689 0022 0DD0     		beq	.L221
 356:Middlewares/lvgl/src/core/lv_obj.c ****             if(found) return true;
 3690              		.loc 1 356 13 is_stmt 1 view .LVU1193
 356:Middlewares/lvgl/src/core/lv_obj.c ****             if(found) return true;
 3691              		.loc 1 356 26 is_stmt 0 view .LVU1194
 3692 0024 3146     		mov	r1, r6
 3693 0026 FFF7FEFF 		bl	obj_valid_child
 3694              	.LVL386:
 357:Middlewares/lvgl/src/core/lv_obj.c ****         }
 3695              		.loc 1 357 13 is_stmt 1 view .LVU1195
 357:Middlewares/lvgl/src/core/lv_obj.c ****         }
 3696              		.loc 1 357 15 is_stmt 0 view .LVU1196
 3697 002a 0346     		mov	r3, r0
 3698 002c 0028     		cmp	r0, #0
 3699 002e F0D0     		beq	.L226
 3700 0030 07E0     		b	.L218
 3701              	.LVL387:
 3702              	.L225:
 357:Middlewares/lvgl/src/core/lv_obj.c ****         }
 3703              		.loc 1 357 15 view .LVU1197
 3704              	.LBE215:
 360:Middlewares/lvgl/src/core/lv_obj.c ****     }
 3705              		.loc 1 360 9 is_stmt 1 view .LVU1198
 360:Middlewares/lvgl/src/core/lv_obj.c ****     }
 3706              		.loc 1 360 16 is_stmt 0 view .LVU1199
ARM GAS  /tmp/ccyhZZXZ.s 			page 116


 3707 0032 2846     		mov	r0, r5
 3708 0034 FFF7FEFF 		bl	lv_disp_get_next
 3709              	.LVL388:
 3710 0038 0546     		mov	r5, r0
 3711              	.LVL389:
 360:Middlewares/lvgl/src/core/lv_obj.c ****     }
 3712              		.loc 1 360 16 view .LVU1200
 3713 003a E7E7     		b	.L217
 3714              	.LVL390:
 3715              	.L224:
 360:Middlewares/lvgl/src/core/lv_obj.c ****     }
 3716              		.loc 1 360 16 view .LVU1201
 3717              	.LBE214:
 363:Middlewares/lvgl/src/core/lv_obj.c **** }
 3718              		.loc 1 363 12 view .LVU1202
 3719 003c 0023     		movs	r3, #0
 3720 003e 00E0     		b	.L218
 3721              	.LVL391:
 3722              	.L221:
 3723              	.LBB217:
 3724              	.LBB216:
 355:Middlewares/lvgl/src/core/lv_obj.c ****             bool found = obj_valid_child(disp->screens[i], obj);
 3725              		.loc 1 355 48 view .LVU1203
 3726 0040 0123     		movs	r3, #1
 3727              	.LVL392:
 3728              	.L218:
 355:Middlewares/lvgl/src/core/lv_obj.c ****             bool found = obj_valid_child(disp->screens[i], obj);
 3729              		.loc 1 355 48 view .LVU1204
 3730              	.LBE216:
 3731              	.LBE217:
 364:Middlewares/lvgl/src/core/lv_obj.c **** 
 3732              		.loc 1 364 1 view .LVU1205
 3733 0042 1846     		mov	r0, r3
 3734 0044 70BD     		pop	{r4, r5, r6, pc}
 364:Middlewares/lvgl/src/core/lv_obj.c **** 
 3735              		.loc 1 364 1 view .LVU1206
 3736              		.cfi_endproc
 3737              	.LFE169:
 3739              		.global	lv_obj_class
 3740              		.section	.bss.lv_initialized,"aw",%nobits
 3741              		.set	.LANCHOR0,. + 0
 3744              	lv_initialized:
 3745 0000 00       		.space	1
 3746              		.section	.bss.x.0,"aw",%nobits
 3747              		.align	2
 3748              		.set	.LANCHOR2,. + 0
 3751              	x.0:
 3752 0000 00000000 		.space	4
 3753              		.section	.rodata.lv_obj_class,"a"
 3754              		.align	2
 3755              		.set	.LANCHOR1,. + 0
 3758              	lv_obj_class:
 3759 0000 00000000 		.word	0
 3760 0004 00000000 		.word	lv_obj_constructor
 3761 0008 00000000 		.word	lv_obj_destructor
 3762 000c 00000000 		.space	4
 3763 0010 00000000 		.word	lv_obj_event
ARM GAS  /tmp/ccyhZZXZ.s 			page 117


 3764 0014 8200     		.short	130
 3765 0016 8200     		.short	130
 3766 0018 4A       		.byte	74
 3767 0019 02       		.byte	2
 3768 001a 00       		.byte	0
 3769 001b 00       		.space	1
 3770              		.text
 3771              	.Letext0:
 3772              		.file 5 "/home/akinya/gcc-arm-none-eabi/arm-none-eabi/include/machine/_default_types.h"
 3773              		.file 6 "/home/akinya/gcc-arm-none-eabi/arm-none-eabi/include/sys/_stdint.h"
 3774              		.file 7 "Middlewares/lvgl/src/core/../misc/../font/lv_font.h"
 3775              		.file 8 "Middlewares/lvgl/src/core/../misc/lv_math.h"
 3776              		.file 9 "Middlewares/lvgl/src/core/../misc/lv_types.h"
 3777              		.file 10 "Middlewares/lvgl/src/core/../misc/lv_color.h"
 3778              		.file 11 "Middlewares/lvgl/src/core/../misc/lv_anim.h"
 3779              		.file 12 "Middlewares/lvgl/src/core/../misc/lv_txt.h"
 3780              		.file 13 "Middlewares/lvgl/src/core/../misc/lv_bidi.h"
 3781              		.file 14 "Middlewares/lvgl/src/core/../hal/../misc/lv_ll.h"
 3782              		.file 15 "Middlewares/lvgl/src/core/../hal/../misc/lv_timer.h"
 3783              		.file 16 "Middlewares/lvgl/src/core/../hal/lv_hal_disp.h"
 3784              		.file 17 "Middlewares/lvgl/src/core/lv_theme.h"
 3785              		.file 18 "Middlewares/lvgl/src/core/lv_obj.h"
 3786              		.file 19 "Middlewares/lvgl/src/core/../hal/lv_hal_indev.h"
 3787              		.file 20 "Middlewares/lvgl/src/core/lv_group.h"
 3788              		.file 21 "Middlewares/lvgl/src/core/lv_obj_scroll.h"
 3789              		.file 22 "Middlewares/lvgl/src/core/lv_obj_style.h"
 3790              		.file 23 "Middlewares/lvgl/src/core/../draw/lv_draw_mask.h"
 3791              		.file 24 "Middlewares/lvgl/src/core/../draw/lv_draw_rect.h"
 3792              		.file 25 "Middlewares/lvgl/src/core/../draw/lv_draw_label.h"
 3793              		.file 26 "Middlewares/lvgl/src/core/../draw/lv_draw_img.h"
 3794              		.file 27 "Middlewares/lvgl/src/core/../draw/lv_draw_line.h"
 3795              		.file 28 "Middlewares/lvgl/src/core/../draw/lv_draw_arc.h"
 3796              		.file 29 "Middlewares/lvgl/src/core/lv_obj_draw.h"
 3797              		.file 30 "Middlewares/lvgl/src/core/lv_obj_class.h"
 3798              		.file 31 "Middlewares/lvgl/src/core/lv_event.h"
 3799              		.file 32 "Middlewares/lvgl/src/core/../misc/lv_gc.h"
 3800              		.file 33 "Middlewares/lvgl/src/core/../hal/../misc/lv_mem.h"
 3801              		.file 34 "Middlewares/lvgl/src/core/lv_obj_pos.h"
 3802              		.file 35 "Middlewares/lvgl/src/core/lv_indev.h"
 3803              		.file 36 "Middlewares/lvgl/src/core/lv_obj_tree.h"
 3804              		.file 37 "Middlewares/lvgl/src/core/../draw/../misc/lv_fs.h"
 3805              		.file 38 "Middlewares/lvgl/src/core/lv_refr.h"
 3806              		.file 39 "Middlewares/lvgl/src/core/../draw/lv_img_decoder.h"
 3807              		.file 40 "Middlewares/lvgl/src/core/../extra/lv_extra.h"
ARM GAS  /tmp/ccyhZZXZ.s 			page 118


DEFINED SYMBOLS
                            *ABS*:0000000000000000 lv_obj.c
     /tmp/ccyhZZXZ.s:18     .text.obj_valid_child:0000000000000000 $t
     /tmp/ccyhZZXZ.s:25     .text.obj_valid_child:0000000000000000 obj_valid_child
     /tmp/ccyhZZXZ.s:124    .text.scrollbar_init_draw_dsc:0000000000000000 $t
     /tmp/ccyhZZXZ.s:130    .text.scrollbar_init_draw_dsc:0000000000000000 scrollbar_init_draw_dsc
     /tmp/ccyhZZXZ.s:469    .text.draw_scrollbar:0000000000000000 $t
     /tmp/ccyhZZXZ.s:475    .text.draw_scrollbar:0000000000000000 draw_scrollbar
     /tmp/ccyhZZXZ.s:625    .text.lv_obj_draw:0000000000000000 $t
     /tmp/ccyhZZXZ.s:631    .text.lv_obj_draw:0000000000000000 lv_obj_draw
     /tmp/ccyhZZXZ.s:1382   .text.lv_obj_destructor:0000000000000000 $t
     /tmp/ccyhZZXZ.s:1388   .text.lv_obj_destructor:0000000000000000 lv_obj_destructor
     /tmp/ccyhZZXZ.s:1463   .text.lv_obj_constructor:0000000000000000 $t
     /tmp/ccyhZZXZ.s:1469   .text.lv_obj_constructor:0000000000000000 lv_obj_constructor
     /tmp/ccyhZZXZ.s:1640   .text.lv_obj_set_state:0000000000000000 $t
     /tmp/ccyhZZXZ.s:1646   .text.lv_obj_set_state:0000000000000000 lv_obj_set_state
     /tmp/ccyhZZXZ.s:2201   .text.lv_init:0000000000000000 $t
     /tmp/ccyhZZXZ.s:2208   .text.lv_init:0000000000000000 lv_init
     /tmp/ccyhZZXZ.s:2290   .text.lv_init:0000000000000048 $d
     /tmp/ccyhZZXZ.s:2297   .text.lv_deinit:0000000000000000 $t
     /tmp/ccyhZZXZ.s:2304   .text.lv_deinit:0000000000000000 lv_deinit
     /tmp/ccyhZZXZ.s:2336   .text.lv_deinit:0000000000000018 $d
     /tmp/ccyhZZXZ.s:2341   .text.lv_obj_create:0000000000000000 $t
     /tmp/ccyhZZXZ.s:2348   .text.lv_obj_create:0000000000000000 lv_obj_create
     /tmp/ccyhZZXZ.s:2384   .text.lv_obj_create:0000000000000014 $d
     /tmp/ccyhZZXZ.s:2389   .text.lv_obj_add_flag:0000000000000000 $t
     /tmp/ccyhZZXZ.s:2396   .text.lv_obj_add_flag:0000000000000000 lv_obj_add_flag
     /tmp/ccyhZZXZ.s:2477   .text.lv_obj_clear_flag:0000000000000000 $t
     /tmp/ccyhZZXZ.s:2484   .text.lv_obj_clear_flag:0000000000000000 lv_obj_clear_flag
     /tmp/ccyhZZXZ.s:2567   .text.lv_obj_add_state:0000000000000000 $t
     /tmp/ccyhZZXZ.s:2574   .text.lv_obj_add_state:0000000000000000 lv_obj_add_state
     /tmp/ccyhZZXZ.s:2618   .text.lv_obj_clear_state:0000000000000000 $t
     /tmp/ccyhZZXZ.s:2625   .text.lv_obj_clear_state:0000000000000000 lv_obj_clear_state
     /tmp/ccyhZZXZ.s:2670   .text.lv_obj_has_flag:0000000000000000 $t
     /tmp/ccyhZZXZ.s:2677   .text.lv_obj_has_flag:0000000000000000 lv_obj_has_flag
     /tmp/ccyhZZXZ.s:2704   .text.lv_obj_has_flag_any:0000000000000000 $t
     /tmp/ccyhZZXZ.s:2711   .text.lv_obj_has_flag_any:0000000000000000 lv_obj_has_flag_any
     /tmp/ccyhZZXZ.s:2738   .text.lv_obj_get_state:0000000000000000 $t
     /tmp/ccyhZZXZ.s:2745   .text.lv_obj_get_state:0000000000000000 lv_obj_get_state
     /tmp/ccyhZZXZ.s:2766   .text.lv_obj_has_state:0000000000000000 $t
     /tmp/ccyhZZXZ.s:2773   .text.lv_obj_has_state:0000000000000000 lv_obj_has_state
     /tmp/ccyhZZXZ.s:2800   .text.lv_obj_get_group:0000000000000000 $t
     /tmp/ccyhZZXZ.s:2807   .text.lv_obj_get_group:0000000000000000 lv_obj_get_group
     /tmp/ccyhZZXZ.s:2834   .text.lv_obj_event:0000000000000000 $t
     /tmp/ccyhZZXZ.s:2840   .text.lv_obj_event:0000000000000000 lv_obj_event
     /tmp/ccyhZZXZ.s:3422   .text.lv_obj_allocate_spec_attr:0000000000000000 $t
     /tmp/ccyhZZXZ.s:3429   .text.lv_obj_allocate_spec_attr:0000000000000000 lv_obj_allocate_spec_attr
     /tmp/ccyhZZXZ.s:3508   .text.lv_obj_allocate_spec_attr:000000000000003c $d
     /tmp/ccyhZZXZ.s:3514   .text.lv_obj_check_type:0000000000000000 $t
     /tmp/ccyhZZXZ.s:3521   .text.lv_obj_check_type:0000000000000000 lv_obj_check_type
     /tmp/ccyhZZXZ.s:3553   .text.lv_obj_has_class:0000000000000000 $t
     /tmp/ccyhZZXZ.s:3560   .text.lv_obj_has_class:0000000000000000 lv_obj_has_class
     /tmp/ccyhZZXZ.s:3603   .text.lv_obj_get_class:0000000000000000 $t
     /tmp/ccyhZZXZ.s:3610   .text.lv_obj_get_class:0000000000000000 lv_obj_get_class
     /tmp/ccyhZZXZ.s:3628   .text.lv_obj_is_valid:0000000000000000 $t
     /tmp/ccyhZZXZ.s:3635   .text.lv_obj_is_valid:0000000000000000 lv_obj_is_valid
     /tmp/ccyhZZXZ.s:3758   .rodata.lv_obj_class:0000000000000000 lv_obj_class
ARM GAS  /tmp/ccyhZZXZ.s 			page 119


     /tmp/ccyhZZXZ.s:3744   .bss.lv_initialized:0000000000000000 lv_initialized
     /tmp/ccyhZZXZ.s:3745   .bss.lv_initialized:0000000000000000 $d
     /tmp/ccyhZZXZ.s:3747   .bss.x.0:0000000000000000 $d
     /tmp/ccyhZZXZ.s:3751   .bss.x.0:0000000000000000 x.0
     /tmp/ccyhZZXZ.s:3754   .rodata.lv_obj_class:0000000000000000 $d

UNDEFINED SYMBOLS
lv_draw_rect_dsc_init
lv_obj_get_style_prop
lv_obj_get_scrollbar_area
lv_area_get_size
lv_obj_draw_dsc_init
lv_event_send
lv_draw_rect
lv_event_get_code
lv_event_get_target
lv_event_get_param
_lv_area_is_in
lv_obj_init_draw_rect_dsc
lv_mem_buf_get
lv_draw_mask_radius_init
lv_draw_mask_add
lv_draw_mask_remove_custom
lv_mem_buf_release
lv_mem_free
lv_obj_get_scroll_left
lv_obj_get_scroll_top
_lv_obj_style_state_compare
lv_memset_00
lv_obj_style_get_selector_state
lv_obj_style_get_selector_part
_lv_obj_style_create_transition
lv_obj_invalidate
lv_obj_refresh_ext_draw_size
lv_obj_refresh_style
lv_mem_init
_lv_timer_core_init
_lv_fs_init
_lv_anim_core_init
_lv_group_init
_lv_obj_style_init
_lv_ll_init
_lv_refr_init
_lv_img_decoder_init
lv_extra_init
_lv_disp_ll
_lv_indev_ll
_lv_gc_clear_roots
lv_disp_set_default
lv_mem_deinit
lv_obj_class_create_obj
lv_obj_class_init_obj
lv_obj_is_layout_positioned
lv_obj_get_parent
lv_obj_mark_layout_as_dirty
lv_indev_get_scroll_obj
lv_group_get_editing
ARM GAS  /tmp/ccyhZZXZ.s 			page 120


lv_indev_get_act
lv_indev_get_type
lv_obj_scroll_to_view_recursive
lv_obj_get_child_cnt
lv_obj_get_child
lv_obj_calculate_ext_draw_size
lv_mem_alloc
lv_disp_get_next
