ARM GAS  /tmp/ccyhZZXZ.s 			page 1


   1              		.cpu cortex-m4
   2              		.eabi_attribute 27, 1
   3              		.eabi_attribute 28, 1
   4              		.eabi_attribute 20, 1
   5              		.eabi_attribute 21, 1
   6              		.eabi_attribute 23, 3
   7              		.eabi_attribute 24, 1
   8              		.eabi_attribute 25, 1
   9              		.eabi_attribute 26, 1
  10              		.eabi_attribute 30, 1
  11              		.eabi_attribute 34, 1
  12              		.eabi_attribute 18, 4
  13              		.file	"lv_obj.c"
  14              		.text
  15              	.Ltext0:
  16              		.cfi_sections	.debug_frame
  17              		.section	.text.obj_valid_child,"ax",%progbits
  18              		.align	1
  19              		.arch armv7e-m
  20              		.syntax unified
  21              		.thumb
  22              		.thumb_func
  23              		.fpu fpv4-sp-d16
  25              	obj_valid_child:
  26              	.LVL0:
  27              	.LFB177:
  28              		.file 1 "Middlewares/lvgl/src/core/lv_obj.c"
   1:Middlewares/lvgl/src/core/lv_obj.c **** /**
   2:Middlewares/lvgl/src/core/lv_obj.c ****  * @file lv_obj.c
   3:Middlewares/lvgl/src/core/lv_obj.c ****  *
   4:Middlewares/lvgl/src/core/lv_obj.c ****  */
   5:Middlewares/lvgl/src/core/lv_obj.c **** 
   6:Middlewares/lvgl/src/core/lv_obj.c **** /*********************
   7:Middlewares/lvgl/src/core/lv_obj.c ****  *      INCLUDES
   8:Middlewares/lvgl/src/core/lv_obj.c ****  *********************/
   9:Middlewares/lvgl/src/core/lv_obj.c **** #include "lv_obj.h"
  10:Middlewares/lvgl/src/core/lv_obj.c **** #include "lv_indev.h"
  11:Middlewares/lvgl/src/core/lv_obj.c **** #include "lv_refr.h"
  12:Middlewares/lvgl/src/core/lv_obj.c **** #include "lv_group.h"
  13:Middlewares/lvgl/src/core/lv_obj.c **** #include "lv_disp.h"
  14:Middlewares/lvgl/src/core/lv_obj.c **** #include "lv_theme.h"
  15:Middlewares/lvgl/src/core/lv_obj.c **** #include "../misc/lv_assert.h"
  16:Middlewares/lvgl/src/core/lv_obj.c **** #include "../draw/lv_draw.h"
  17:Middlewares/lvgl/src/core/lv_obj.c **** #include "../misc/lv_anim.h"
  18:Middlewares/lvgl/src/core/lv_obj.c **** #include "../misc/lv_timer.h"
  19:Middlewares/lvgl/src/core/lv_obj.c **** #include "../misc/lv_async.h"
  20:Middlewares/lvgl/src/core/lv_obj.c **** #include "../misc/lv_fs.h"
  21:Middlewares/lvgl/src/core/lv_obj.c **** #include "../misc/lv_gc.h"
  22:Middlewares/lvgl/src/core/lv_obj.c **** #include "../misc/lv_math.h"
  23:Middlewares/lvgl/src/core/lv_obj.c **** #include "../misc/lv_log.h"
  24:Middlewares/lvgl/src/core/lv_obj.c **** #include "../hal/lv_hal.h"
  25:Middlewares/lvgl/src/core/lv_obj.c **** #include "../extra/lv_extra.h"
  26:Middlewares/lvgl/src/core/lv_obj.c **** #include <stdint.h>
  27:Middlewares/lvgl/src/core/lv_obj.c **** #include <string.h>
  28:Middlewares/lvgl/src/core/lv_obj.c **** 
  29:Middlewares/lvgl/src/core/lv_obj.c **** #if LV_USE_GPU_STM32_DMA2D
  30:Middlewares/lvgl/src/core/lv_obj.c ****     #include "../gpu/lv_gpu_stm32_dma2d.h"
ARM GAS  /tmp/ccyhZZXZ.s 			page 2


  31:Middlewares/lvgl/src/core/lv_obj.c **** #endif
  32:Middlewares/lvgl/src/core/lv_obj.c **** 
  33:Middlewares/lvgl/src/core/lv_obj.c **** #if LV_USE_GPU_NXP_PXP && LV_USE_GPU_NXP_PXP_AUTO_INIT
  34:Middlewares/lvgl/src/core/lv_obj.c ****     #include "../gpu/lv_gpu_nxp_pxp.h"
  35:Middlewares/lvgl/src/core/lv_obj.c ****     #include "../gpu/lv_gpu_nxp_pxp_osa.h"
  36:Middlewares/lvgl/src/core/lv_obj.c **** #endif
  37:Middlewares/lvgl/src/core/lv_obj.c **** 
  38:Middlewares/lvgl/src/core/lv_obj.c **** /*********************
  39:Middlewares/lvgl/src/core/lv_obj.c ****  *      DEFINES
  40:Middlewares/lvgl/src/core/lv_obj.c ****  *********************/
  41:Middlewares/lvgl/src/core/lv_obj.c **** #define MY_CLASS &lv_obj_class
  42:Middlewares/lvgl/src/core/lv_obj.c **** #define LV_OBJ_DEF_WIDTH    (LV_DPX(100))
  43:Middlewares/lvgl/src/core/lv_obj.c **** #define LV_OBJ_DEF_HEIGHT   (LV_DPX(50))
  44:Middlewares/lvgl/src/core/lv_obj.c **** #define GRID_DEBUG          0   /*Draw rectangles on grid cells*/
  45:Middlewares/lvgl/src/core/lv_obj.c **** #define STYLE_TRANSITION_MAX 32
  46:Middlewares/lvgl/src/core/lv_obj.c **** 
  47:Middlewares/lvgl/src/core/lv_obj.c **** /**********************
  48:Middlewares/lvgl/src/core/lv_obj.c ****  *      TYPEDEFS
  49:Middlewares/lvgl/src/core/lv_obj.c ****  **********************/
  50:Middlewares/lvgl/src/core/lv_obj.c **** 
  51:Middlewares/lvgl/src/core/lv_obj.c **** /**********************
  52:Middlewares/lvgl/src/core/lv_obj.c ****  *  STATIC PROTOTYPES
  53:Middlewares/lvgl/src/core/lv_obj.c ****  **********************/
  54:Middlewares/lvgl/src/core/lv_obj.c **** static void lv_obj_constructor(const lv_obj_class_t * class_p, lv_obj_t * obj);
  55:Middlewares/lvgl/src/core/lv_obj.c **** static void lv_obj_destructor(const lv_obj_class_t * class_p, lv_obj_t * obj);
  56:Middlewares/lvgl/src/core/lv_obj.c **** static void lv_obj_draw(lv_event_t * e);
  57:Middlewares/lvgl/src/core/lv_obj.c **** static void lv_obj_event(const lv_obj_class_t * class_p, lv_event_t * e);
  58:Middlewares/lvgl/src/core/lv_obj.c **** static void draw_scrollbar(lv_obj_t * obj, const lv_area_t * clip_area);
  59:Middlewares/lvgl/src/core/lv_obj.c **** static lv_res_t scrollbar_init_draw_dsc(lv_obj_t * obj, lv_draw_rect_dsc_t * dsc);
  60:Middlewares/lvgl/src/core/lv_obj.c **** static bool obj_valid_child(const lv_obj_t * parent, const lv_obj_t * obj_to_find);
  61:Middlewares/lvgl/src/core/lv_obj.c **** static void lv_obj_set_state(lv_obj_t * obj, lv_state_t new_state);
  62:Middlewares/lvgl/src/core/lv_obj.c **** 
  63:Middlewares/lvgl/src/core/lv_obj.c **** /**********************
  64:Middlewares/lvgl/src/core/lv_obj.c ****  *  STATIC VARIABLES
  65:Middlewares/lvgl/src/core/lv_obj.c ****  **********************/
  66:Middlewares/lvgl/src/core/lv_obj.c **** static bool lv_initialized = false;
  67:Middlewares/lvgl/src/core/lv_obj.c **** const lv_obj_class_t lv_obj_class = {
  68:Middlewares/lvgl/src/core/lv_obj.c ****     .constructor_cb = lv_obj_constructor,
  69:Middlewares/lvgl/src/core/lv_obj.c ****     .destructor_cb = lv_obj_destructor,
  70:Middlewares/lvgl/src/core/lv_obj.c ****     .event_cb = lv_obj_event,
  71:Middlewares/lvgl/src/core/lv_obj.c ****     .width_def = LV_DPI_DEF,
  72:Middlewares/lvgl/src/core/lv_obj.c ****     .height_def = LV_DPI_DEF,
  73:Middlewares/lvgl/src/core/lv_obj.c ****     .editable = LV_OBJ_CLASS_EDITABLE_FALSE,
  74:Middlewares/lvgl/src/core/lv_obj.c ****     .group_def = LV_OBJ_CLASS_GROUP_DEF_FALSE,
  75:Middlewares/lvgl/src/core/lv_obj.c ****     .instance_size = (sizeof(lv_obj_t)),
  76:Middlewares/lvgl/src/core/lv_obj.c ****     .base_class = NULL,
  77:Middlewares/lvgl/src/core/lv_obj.c **** };
  78:Middlewares/lvgl/src/core/lv_obj.c **** 
  79:Middlewares/lvgl/src/core/lv_obj.c **** /**********************
  80:Middlewares/lvgl/src/core/lv_obj.c ****  *      MACROS
  81:Middlewares/lvgl/src/core/lv_obj.c ****  **********************/
  82:Middlewares/lvgl/src/core/lv_obj.c **** 
  83:Middlewares/lvgl/src/core/lv_obj.c **** /**********************
  84:Middlewares/lvgl/src/core/lv_obj.c ****  *   GLOBAL FUNCTIONS
  85:Middlewares/lvgl/src/core/lv_obj.c ****  **********************/
  86:Middlewares/lvgl/src/core/lv_obj.c **** 
  87:Middlewares/lvgl/src/core/lv_obj.c **** void lv_init(void)
ARM GAS  /tmp/ccyhZZXZ.s 			page 3


  88:Middlewares/lvgl/src/core/lv_obj.c **** {
  89:Middlewares/lvgl/src/core/lv_obj.c ****     /*Do nothing if already initialized*/
  90:Middlewares/lvgl/src/core/lv_obj.c ****     if(lv_initialized) {
  91:Middlewares/lvgl/src/core/lv_obj.c ****         LV_LOG_WARN("lv_init: already inited");
  92:Middlewares/lvgl/src/core/lv_obj.c ****         return;
  93:Middlewares/lvgl/src/core/lv_obj.c ****     }
  94:Middlewares/lvgl/src/core/lv_obj.c **** 
  95:Middlewares/lvgl/src/core/lv_obj.c ****     LV_LOG_INFO("begin");
  96:Middlewares/lvgl/src/core/lv_obj.c **** 
  97:Middlewares/lvgl/src/core/lv_obj.c ****     /*Initialize the misc modules*/
  98:Middlewares/lvgl/src/core/lv_obj.c ****     lv_mem_init();
  99:Middlewares/lvgl/src/core/lv_obj.c **** 
 100:Middlewares/lvgl/src/core/lv_obj.c ****     _lv_timer_core_init();
 101:Middlewares/lvgl/src/core/lv_obj.c **** 
 102:Middlewares/lvgl/src/core/lv_obj.c ****     _lv_fs_init();
 103:Middlewares/lvgl/src/core/lv_obj.c **** 
 104:Middlewares/lvgl/src/core/lv_obj.c ****     _lv_anim_core_init();
 105:Middlewares/lvgl/src/core/lv_obj.c **** 
 106:Middlewares/lvgl/src/core/lv_obj.c ****     _lv_group_init();
 107:Middlewares/lvgl/src/core/lv_obj.c **** 
 108:Middlewares/lvgl/src/core/lv_obj.c **** #if LV_USE_GPU_STM32_DMA2D
 109:Middlewares/lvgl/src/core/lv_obj.c ****     /*Initialize DMA2D GPU*/
 110:Middlewares/lvgl/src/core/lv_obj.c ****     lv_gpu_stm32_dma2d_init();
 111:Middlewares/lvgl/src/core/lv_obj.c **** #endif
 112:Middlewares/lvgl/src/core/lv_obj.c **** 
 113:Middlewares/lvgl/src/core/lv_obj.c **** #if LV_USE_GPU_NXP_PXP && LV_USE_GPU_NXP_PXP_AUTO_INIT
 114:Middlewares/lvgl/src/core/lv_obj.c ****     if(lv_gpu_nxp_pxp_init(&pxp_default_cfg) != LV_RES_OK) {
 115:Middlewares/lvgl/src/core/lv_obj.c ****         LV_LOG_ERROR("PXP init error. STOP.\n");
 116:Middlewares/lvgl/src/core/lv_obj.c ****         for(; ;) ;
 117:Middlewares/lvgl/src/core/lv_obj.c ****     }
 118:Middlewares/lvgl/src/core/lv_obj.c **** #endif
 119:Middlewares/lvgl/src/core/lv_obj.c **** 
 120:Middlewares/lvgl/src/core/lv_obj.c ****     _lv_obj_style_init();
 121:Middlewares/lvgl/src/core/lv_obj.c ****     _lv_ll_init(&LV_GC_ROOT(_lv_disp_ll), sizeof(lv_disp_t));
 122:Middlewares/lvgl/src/core/lv_obj.c ****     _lv_ll_init(&LV_GC_ROOT(_lv_indev_ll), sizeof(lv_indev_t));
 123:Middlewares/lvgl/src/core/lv_obj.c **** 
 124:Middlewares/lvgl/src/core/lv_obj.c ****     /*Initialize the screen refresh system*/
 125:Middlewares/lvgl/src/core/lv_obj.c ****     _lv_refr_init();
 126:Middlewares/lvgl/src/core/lv_obj.c **** 
 127:Middlewares/lvgl/src/core/lv_obj.c ****     _lv_img_decoder_init();
 128:Middlewares/lvgl/src/core/lv_obj.c **** #if LV_IMG_CACHE_DEF_SIZE
 129:Middlewares/lvgl/src/core/lv_obj.c ****     lv_img_cache_set_size(LV_IMG_CACHE_DEF_SIZE);
 130:Middlewares/lvgl/src/core/lv_obj.c **** #endif
 131:Middlewares/lvgl/src/core/lv_obj.c ****     /*Test if the IDE has UTF-8 encoding*/
 132:Middlewares/lvgl/src/core/lv_obj.c ****     char * txt = "Ã";
 133:Middlewares/lvgl/src/core/lv_obj.c **** 
 134:Middlewares/lvgl/src/core/lv_obj.c ****     uint8_t * txt_u8 = (uint8_t *)txt;
 135:Middlewares/lvgl/src/core/lv_obj.c ****     if(txt_u8[0] != 0xc3 || txt_u8[1] != 0x81 || txt_u8[2] != 0x00) {
 136:Middlewares/lvgl/src/core/lv_obj.c ****         LV_LOG_WARN("The strings has no UTF-8 encoding. Non-ASCII characters won't be displayed.")
 137:Middlewares/lvgl/src/core/lv_obj.c ****     }
 138:Middlewares/lvgl/src/core/lv_obj.c **** 
 139:Middlewares/lvgl/src/core/lv_obj.c ****     uint32_t endianess_test = 0x11223344;
 140:Middlewares/lvgl/src/core/lv_obj.c ****     uint8_t * endianess_test_p = (uint8_t*) &endianess_test;
 141:Middlewares/lvgl/src/core/lv_obj.c ****     bool big_endian = endianess_test_p[0] == 0x11 ? true : false;
 142:Middlewares/lvgl/src/core/lv_obj.c **** 
 143:Middlewares/lvgl/src/core/lv_obj.c ****     if(big_endian) {
 144:Middlewares/lvgl/src/core/lv_obj.c ****         LV_ASSERT_MSG(LV_BIG_ENDIAN_SYSTEM == 1, "It's a big endian system but LV_BIG_ENDIAN_SYSTEM
ARM GAS  /tmp/ccyhZZXZ.s 			page 4


 145:Middlewares/lvgl/src/core/lv_obj.c ****     } else {
 146:Middlewares/lvgl/src/core/lv_obj.c ****         LV_ASSERT_MSG(LV_BIG_ENDIAN_SYSTEM == 0, "It's a little endian system but LV_BIG_ENDIAN_SYS
 147:Middlewares/lvgl/src/core/lv_obj.c ****     }
 148:Middlewares/lvgl/src/core/lv_obj.c **** 
 149:Middlewares/lvgl/src/core/lv_obj.c **** #if LV_USE_ASSERT_MEM_INTEGRITY
 150:Middlewares/lvgl/src/core/lv_obj.c ****     LV_LOG_WARN("Memory integrity checks are enabled via LV_USE_ASSERT_MEM_INTEGRITY which makes LV
 151:Middlewares/lvgl/src/core/lv_obj.c **** #endif
 152:Middlewares/lvgl/src/core/lv_obj.c **** 
 153:Middlewares/lvgl/src/core/lv_obj.c **** #if LV_USE_ASSERT_OBJ
 154:Middlewares/lvgl/src/core/lv_obj.c ****     LV_LOG_WARN("Object sanity checks are enabled via LV_USE_ASSERT_OBJ which makes LVGL much slowe
 155:Middlewares/lvgl/src/core/lv_obj.c **** #endif
 156:Middlewares/lvgl/src/core/lv_obj.c **** 
 157:Middlewares/lvgl/src/core/lv_obj.c **** #if LV_USE_ASSERT_STYLE
 158:Middlewares/lvgl/src/core/lv_obj.c ****     LV_LOG_WARN("Style sanity checks are enabled that uses more RAM")
 159:Middlewares/lvgl/src/core/lv_obj.c **** #endif
 160:Middlewares/lvgl/src/core/lv_obj.c **** 
 161:Middlewares/lvgl/src/core/lv_obj.c **** #if LV_LOG_LEVEL == LV_LOG_LEVEL_TRACE
 162:Middlewares/lvgl/src/core/lv_obj.c ****     LV_LOG_WARN("Log level is set the Trace which makes LVGL much slower")
 163:Middlewares/lvgl/src/core/lv_obj.c **** #endif
 164:Middlewares/lvgl/src/core/lv_obj.c **** 
 165:Middlewares/lvgl/src/core/lv_obj.c ****     lv_extra_init();
 166:Middlewares/lvgl/src/core/lv_obj.c **** 
 167:Middlewares/lvgl/src/core/lv_obj.c ****     lv_initialized = true;
 168:Middlewares/lvgl/src/core/lv_obj.c **** 
 169:Middlewares/lvgl/src/core/lv_obj.c ****     LV_LOG_TRACE("finished");
 170:Middlewares/lvgl/src/core/lv_obj.c **** }
 171:Middlewares/lvgl/src/core/lv_obj.c **** 
 172:Middlewares/lvgl/src/core/lv_obj.c **** #if LV_ENABLE_GC || !LV_MEM_CUSTOM
 173:Middlewares/lvgl/src/core/lv_obj.c **** 
 174:Middlewares/lvgl/src/core/lv_obj.c **** void lv_deinit(void)
 175:Middlewares/lvgl/src/core/lv_obj.c **** {
 176:Middlewares/lvgl/src/core/lv_obj.c ****     _lv_gc_clear_roots();
 177:Middlewares/lvgl/src/core/lv_obj.c **** 
 178:Middlewares/lvgl/src/core/lv_obj.c ****     lv_disp_set_default(NULL);
 179:Middlewares/lvgl/src/core/lv_obj.c ****     lv_mem_deinit();
 180:Middlewares/lvgl/src/core/lv_obj.c ****     lv_initialized = false;
 181:Middlewares/lvgl/src/core/lv_obj.c **** 
 182:Middlewares/lvgl/src/core/lv_obj.c ****     LV_LOG_INFO("lv_deinit done");
 183:Middlewares/lvgl/src/core/lv_obj.c **** 
 184:Middlewares/lvgl/src/core/lv_obj.c **** #if LV_USE_LOG
 185:Middlewares/lvgl/src/core/lv_obj.c ****     lv_log_register_print_cb(NULL);
 186:Middlewares/lvgl/src/core/lv_obj.c **** #endif
 187:Middlewares/lvgl/src/core/lv_obj.c **** }
 188:Middlewares/lvgl/src/core/lv_obj.c **** #endif
 189:Middlewares/lvgl/src/core/lv_obj.c **** 
 190:Middlewares/lvgl/src/core/lv_obj.c **** lv_obj_t * lv_obj_create(lv_obj_t * parent)
 191:Middlewares/lvgl/src/core/lv_obj.c **** {
 192:Middlewares/lvgl/src/core/lv_obj.c ****     LV_LOG_INFO("begin")
 193:Middlewares/lvgl/src/core/lv_obj.c ****     lv_obj_t * obj = lv_obj_class_create_obj(MY_CLASS, parent);
 194:Middlewares/lvgl/src/core/lv_obj.c ****     lv_obj_class_init_obj(obj);
 195:Middlewares/lvgl/src/core/lv_obj.c ****     return obj;
 196:Middlewares/lvgl/src/core/lv_obj.c **** }
 197:Middlewares/lvgl/src/core/lv_obj.c **** 
 198:Middlewares/lvgl/src/core/lv_obj.c **** /*=====================
 199:Middlewares/lvgl/src/core/lv_obj.c ****  * Setter functions
 200:Middlewares/lvgl/src/core/lv_obj.c ****  *====================*/
 201:Middlewares/lvgl/src/core/lv_obj.c **** 
ARM GAS  /tmp/ccyhZZXZ.s 			page 5


 202:Middlewares/lvgl/src/core/lv_obj.c **** /*-----------------
 203:Middlewares/lvgl/src/core/lv_obj.c ****  * Attribute set
 204:Middlewares/lvgl/src/core/lv_obj.c ****  *----------------*/
 205:Middlewares/lvgl/src/core/lv_obj.c **** 
 206:Middlewares/lvgl/src/core/lv_obj.c **** void lv_obj_add_flag(lv_obj_t * obj, lv_obj_flag_t f)
 207:Middlewares/lvgl/src/core/lv_obj.c **** {
 208:Middlewares/lvgl/src/core/lv_obj.c ****     LV_ASSERT_OBJ(obj, MY_CLASS);
 209:Middlewares/lvgl/src/core/lv_obj.c **** 
 210:Middlewares/lvgl/src/core/lv_obj.c ****     bool was_on_layout = lv_obj_is_layout_positioned(obj);
 211:Middlewares/lvgl/src/core/lv_obj.c **** 
 212:Middlewares/lvgl/src/core/lv_obj.c ****     if(f & LV_OBJ_FLAG_HIDDEN) lv_obj_invalidate(obj);
 213:Middlewares/lvgl/src/core/lv_obj.c **** 
 214:Middlewares/lvgl/src/core/lv_obj.c ****     obj->flags |= f;
 215:Middlewares/lvgl/src/core/lv_obj.c **** 
 216:Middlewares/lvgl/src/core/lv_obj.c ****     if(f & LV_OBJ_FLAG_HIDDEN) {
 217:Middlewares/lvgl/src/core/lv_obj.c ****         lv_obj_invalidate(obj);
 218:Middlewares/lvgl/src/core/lv_obj.c ****     }
 219:Middlewares/lvgl/src/core/lv_obj.c **** 
 220:Middlewares/lvgl/src/core/lv_obj.c ****     if((was_on_layout != lv_obj_is_layout_positioned(obj)) || (f & (LV_OBJ_FLAG_LAYOUT_1 |  LV_OBJ_
 221:Middlewares/lvgl/src/core/lv_obj.c ****         lv_obj_mark_layout_as_dirty(lv_obj_get_parent(obj));
 222:Middlewares/lvgl/src/core/lv_obj.c ****     }
 223:Middlewares/lvgl/src/core/lv_obj.c **** }
 224:Middlewares/lvgl/src/core/lv_obj.c **** 
 225:Middlewares/lvgl/src/core/lv_obj.c **** void lv_obj_clear_flag(lv_obj_t * obj, lv_obj_flag_t f)
 226:Middlewares/lvgl/src/core/lv_obj.c **** {
 227:Middlewares/lvgl/src/core/lv_obj.c ****     LV_ASSERT_OBJ(obj, MY_CLASS);
 228:Middlewares/lvgl/src/core/lv_obj.c **** 
 229:Middlewares/lvgl/src/core/lv_obj.c ****     bool was_on_layout = lv_obj_is_layout_positioned(obj);
 230:Middlewares/lvgl/src/core/lv_obj.c **** 
 231:Middlewares/lvgl/src/core/lv_obj.c ****     obj->flags &= (~f);
 232:Middlewares/lvgl/src/core/lv_obj.c **** 
 233:Middlewares/lvgl/src/core/lv_obj.c ****     if(f & LV_OBJ_FLAG_HIDDEN) {
 234:Middlewares/lvgl/src/core/lv_obj.c ****         lv_obj_invalidate(obj);
 235:Middlewares/lvgl/src/core/lv_obj.c ****         if(lv_obj_is_layout_positioned(obj)) {
 236:Middlewares/lvgl/src/core/lv_obj.c ****             lv_obj_mark_layout_as_dirty(lv_obj_get_parent(obj));
 237:Middlewares/lvgl/src/core/lv_obj.c ****         }
 238:Middlewares/lvgl/src/core/lv_obj.c ****     }
 239:Middlewares/lvgl/src/core/lv_obj.c **** 
 240:Middlewares/lvgl/src/core/lv_obj.c ****     if((was_on_layout != lv_obj_is_layout_positioned(obj)) || (f & (LV_OBJ_FLAG_LAYOUT_1 |  LV_OBJ_
 241:Middlewares/lvgl/src/core/lv_obj.c ****         lv_obj_mark_layout_as_dirty(lv_obj_get_parent(obj));
 242:Middlewares/lvgl/src/core/lv_obj.c ****     }
 243:Middlewares/lvgl/src/core/lv_obj.c **** }
 244:Middlewares/lvgl/src/core/lv_obj.c **** 
 245:Middlewares/lvgl/src/core/lv_obj.c **** void lv_obj_add_state(lv_obj_t * obj, lv_state_t state)
 246:Middlewares/lvgl/src/core/lv_obj.c **** {
 247:Middlewares/lvgl/src/core/lv_obj.c ****     LV_ASSERT_OBJ(obj, MY_CLASS);
 248:Middlewares/lvgl/src/core/lv_obj.c **** 
 249:Middlewares/lvgl/src/core/lv_obj.c ****     lv_state_t new_state = obj->state | state;
 250:Middlewares/lvgl/src/core/lv_obj.c ****     if(obj->state != new_state) {
 251:Middlewares/lvgl/src/core/lv_obj.c ****         lv_obj_set_state(obj, new_state);
 252:Middlewares/lvgl/src/core/lv_obj.c ****     }
 253:Middlewares/lvgl/src/core/lv_obj.c **** }
 254:Middlewares/lvgl/src/core/lv_obj.c **** 
 255:Middlewares/lvgl/src/core/lv_obj.c **** void lv_obj_clear_state(lv_obj_t * obj, lv_state_t state)
 256:Middlewares/lvgl/src/core/lv_obj.c **** {
 257:Middlewares/lvgl/src/core/lv_obj.c ****     LV_ASSERT_OBJ(obj, MY_CLASS);
 258:Middlewares/lvgl/src/core/lv_obj.c **** 
ARM GAS  /tmp/ccyhZZXZ.s 			page 6


 259:Middlewares/lvgl/src/core/lv_obj.c ****     lv_state_t new_state = obj->state & (~state);
 260:Middlewares/lvgl/src/core/lv_obj.c ****     if(obj->state != new_state) {
 261:Middlewares/lvgl/src/core/lv_obj.c ****         lv_obj_set_state(obj, new_state);
 262:Middlewares/lvgl/src/core/lv_obj.c ****     }
 263:Middlewares/lvgl/src/core/lv_obj.c **** }
 264:Middlewares/lvgl/src/core/lv_obj.c **** 
 265:Middlewares/lvgl/src/core/lv_obj.c **** /*=======================
 266:Middlewares/lvgl/src/core/lv_obj.c ****  * Getter functions
 267:Middlewares/lvgl/src/core/lv_obj.c ****  *======================*/
 268:Middlewares/lvgl/src/core/lv_obj.c **** 
 269:Middlewares/lvgl/src/core/lv_obj.c **** bool lv_obj_has_flag(const lv_obj_t * obj, lv_obj_flag_t f)
 270:Middlewares/lvgl/src/core/lv_obj.c **** {
 271:Middlewares/lvgl/src/core/lv_obj.c ****     LV_ASSERT_OBJ(obj, MY_CLASS);
 272:Middlewares/lvgl/src/core/lv_obj.c **** 
 273:Middlewares/lvgl/src/core/lv_obj.c ****     return (obj->flags & f)  == f ? true : false;
 274:Middlewares/lvgl/src/core/lv_obj.c **** }
 275:Middlewares/lvgl/src/core/lv_obj.c **** 
 276:Middlewares/lvgl/src/core/lv_obj.c **** bool lv_obj_has_flag_any(const lv_obj_t * obj, lv_obj_flag_t f)
 277:Middlewares/lvgl/src/core/lv_obj.c **** {
 278:Middlewares/lvgl/src/core/lv_obj.c ****     LV_ASSERT_OBJ(obj, MY_CLASS);
 279:Middlewares/lvgl/src/core/lv_obj.c **** 
 280:Middlewares/lvgl/src/core/lv_obj.c ****     return (obj->flags & f) ? true : false;
 281:Middlewares/lvgl/src/core/lv_obj.c **** }
 282:Middlewares/lvgl/src/core/lv_obj.c **** 
 283:Middlewares/lvgl/src/core/lv_obj.c **** lv_state_t lv_obj_get_state(const lv_obj_t * obj)
 284:Middlewares/lvgl/src/core/lv_obj.c **** {
 285:Middlewares/lvgl/src/core/lv_obj.c ****     LV_ASSERT_OBJ(obj, MY_CLASS);
 286:Middlewares/lvgl/src/core/lv_obj.c **** 
 287:Middlewares/lvgl/src/core/lv_obj.c ****     return obj->state;
 288:Middlewares/lvgl/src/core/lv_obj.c **** }
 289:Middlewares/lvgl/src/core/lv_obj.c **** 
 290:Middlewares/lvgl/src/core/lv_obj.c **** bool lv_obj_has_state(const lv_obj_t * obj, lv_state_t state)
 291:Middlewares/lvgl/src/core/lv_obj.c **** {
 292:Middlewares/lvgl/src/core/lv_obj.c ****     LV_ASSERT_OBJ(obj, MY_CLASS);
 293:Middlewares/lvgl/src/core/lv_obj.c **** 
 294:Middlewares/lvgl/src/core/lv_obj.c ****     return obj->state & state ? true : false;
 295:Middlewares/lvgl/src/core/lv_obj.c **** }
 296:Middlewares/lvgl/src/core/lv_obj.c **** 
 297:Middlewares/lvgl/src/core/lv_obj.c **** void * lv_obj_get_group(const lv_obj_t * obj)
 298:Middlewares/lvgl/src/core/lv_obj.c **** {
 299:Middlewares/lvgl/src/core/lv_obj.c ****     LV_ASSERT_OBJ(obj, MY_CLASS);
 300:Middlewares/lvgl/src/core/lv_obj.c **** 
 301:Middlewares/lvgl/src/core/lv_obj.c ****     if(obj->spec_attr) return obj->spec_attr->group_p;
 302:Middlewares/lvgl/src/core/lv_obj.c ****     else return NULL;
 303:Middlewares/lvgl/src/core/lv_obj.c **** }
 304:Middlewares/lvgl/src/core/lv_obj.c **** 
 305:Middlewares/lvgl/src/core/lv_obj.c **** /*-------------------
 306:Middlewares/lvgl/src/core/lv_obj.c ****  * OTHER FUNCTIONS
 307:Middlewares/lvgl/src/core/lv_obj.c ****  *------------------*/
 308:Middlewares/lvgl/src/core/lv_obj.c **** 
 309:Middlewares/lvgl/src/core/lv_obj.c **** void lv_obj_allocate_spec_attr(lv_obj_t * obj)
 310:Middlewares/lvgl/src/core/lv_obj.c **** {
 311:Middlewares/lvgl/src/core/lv_obj.c ****     LV_ASSERT_OBJ(obj, MY_CLASS);
 312:Middlewares/lvgl/src/core/lv_obj.c **** 
 313:Middlewares/lvgl/src/core/lv_obj.c ****     if(obj->spec_attr == NULL) {
 314:Middlewares/lvgl/src/core/lv_obj.c ****         static uint32_t x = 0;
 315:Middlewares/lvgl/src/core/lv_obj.c ****         x++;
ARM GAS  /tmp/ccyhZZXZ.s 			page 7


 316:Middlewares/lvgl/src/core/lv_obj.c ****         obj->spec_attr = lv_mem_alloc(sizeof(_lv_obj_spec_attr_t));
 317:Middlewares/lvgl/src/core/lv_obj.c ****         LV_ASSERT_MALLOC(obj->spec_attr);
 318:Middlewares/lvgl/src/core/lv_obj.c ****         if(obj->spec_attr == NULL) return;
 319:Middlewares/lvgl/src/core/lv_obj.c **** 
 320:Middlewares/lvgl/src/core/lv_obj.c ****         lv_memset_00(obj->spec_attr, sizeof(_lv_obj_spec_attr_t));
 321:Middlewares/lvgl/src/core/lv_obj.c **** 
 322:Middlewares/lvgl/src/core/lv_obj.c ****         obj->spec_attr->scroll_dir = LV_DIR_ALL;
 323:Middlewares/lvgl/src/core/lv_obj.c ****         obj->spec_attr->scrollbar_mode = LV_SCROLLBAR_MODE_AUTO;
 324:Middlewares/lvgl/src/core/lv_obj.c ****     }
 325:Middlewares/lvgl/src/core/lv_obj.c **** }
 326:Middlewares/lvgl/src/core/lv_obj.c **** 
 327:Middlewares/lvgl/src/core/lv_obj.c **** bool lv_obj_check_type(const lv_obj_t * obj, const lv_obj_class_t * class_p)
 328:Middlewares/lvgl/src/core/lv_obj.c **** {
 329:Middlewares/lvgl/src/core/lv_obj.c ****     if(obj == NULL) return false;
 330:Middlewares/lvgl/src/core/lv_obj.c ****     return obj->class_p == class_p ? true : false;
 331:Middlewares/lvgl/src/core/lv_obj.c **** }
 332:Middlewares/lvgl/src/core/lv_obj.c **** 
 333:Middlewares/lvgl/src/core/lv_obj.c **** bool lv_obj_has_class(const lv_obj_t * obj, const lv_obj_class_t * class_p)
 334:Middlewares/lvgl/src/core/lv_obj.c **** {
 335:Middlewares/lvgl/src/core/lv_obj.c ****     const lv_obj_class_t * obj_class = obj->class_p;
 336:Middlewares/lvgl/src/core/lv_obj.c ****     while(obj_class) {
 337:Middlewares/lvgl/src/core/lv_obj.c ****         if(obj_class == class_p) return true;
 338:Middlewares/lvgl/src/core/lv_obj.c ****         obj_class = obj_class->base_class;
 339:Middlewares/lvgl/src/core/lv_obj.c ****     }
 340:Middlewares/lvgl/src/core/lv_obj.c **** 
 341:Middlewares/lvgl/src/core/lv_obj.c ****     return false;
 342:Middlewares/lvgl/src/core/lv_obj.c **** }
 343:Middlewares/lvgl/src/core/lv_obj.c **** 
 344:Middlewares/lvgl/src/core/lv_obj.c **** const lv_obj_class_t * lv_obj_get_class(const lv_obj_t * obj)
 345:Middlewares/lvgl/src/core/lv_obj.c **** {
 346:Middlewares/lvgl/src/core/lv_obj.c ****     return obj->class_p;
 347:Middlewares/lvgl/src/core/lv_obj.c **** }
 348:Middlewares/lvgl/src/core/lv_obj.c **** 
 349:Middlewares/lvgl/src/core/lv_obj.c **** bool lv_obj_is_valid(const lv_obj_t * obj)
 350:Middlewares/lvgl/src/core/lv_obj.c **** {
 351:Middlewares/lvgl/src/core/lv_obj.c ****     lv_disp_t * disp = lv_disp_get_next(NULL);
 352:Middlewares/lvgl/src/core/lv_obj.c ****     while(disp) {
 353:Middlewares/lvgl/src/core/lv_obj.c ****         uint32_t i;
 354:Middlewares/lvgl/src/core/lv_obj.c ****         for(i = 0; i < disp->screen_cnt; i++) {
 355:Middlewares/lvgl/src/core/lv_obj.c ****             if(disp->screens[i] == obj) return true;
 356:Middlewares/lvgl/src/core/lv_obj.c ****             bool found = obj_valid_child(disp->screens[i], obj);
 357:Middlewares/lvgl/src/core/lv_obj.c ****             if(found) return true;
 358:Middlewares/lvgl/src/core/lv_obj.c ****         }
 359:Middlewares/lvgl/src/core/lv_obj.c **** 
 360:Middlewares/lvgl/src/core/lv_obj.c ****         disp = lv_disp_get_next(disp);
 361:Middlewares/lvgl/src/core/lv_obj.c ****     }
 362:Middlewares/lvgl/src/core/lv_obj.c **** 
 363:Middlewares/lvgl/src/core/lv_obj.c ****     return false;
 364:Middlewares/lvgl/src/core/lv_obj.c **** }
 365:Middlewares/lvgl/src/core/lv_obj.c **** 
 366:Middlewares/lvgl/src/core/lv_obj.c **** /**********************
 367:Middlewares/lvgl/src/core/lv_obj.c ****  *   STATIC FUNCTIONS
 368:Middlewares/lvgl/src/core/lv_obj.c ****  **********************/
 369:Middlewares/lvgl/src/core/lv_obj.c **** 
 370:Middlewares/lvgl/src/core/lv_obj.c **** static void lv_obj_constructor(const lv_obj_class_t * class_p, lv_obj_t * obj)
 371:Middlewares/lvgl/src/core/lv_obj.c **** {
 372:Middlewares/lvgl/src/core/lv_obj.c ****     LV_UNUSED(class_p);
ARM GAS  /tmp/ccyhZZXZ.s 			page 8


 373:Middlewares/lvgl/src/core/lv_obj.c ****     LV_TRACE_OBJ_CREATE("begin");
 374:Middlewares/lvgl/src/core/lv_obj.c **** 
 375:Middlewares/lvgl/src/core/lv_obj.c ****     lv_obj_t * parent = obj->parent;
 376:Middlewares/lvgl/src/core/lv_obj.c ****     if(parent) {
 377:Middlewares/lvgl/src/core/lv_obj.c ****         lv_coord_t sl = lv_obj_get_scroll_left(parent);
 378:Middlewares/lvgl/src/core/lv_obj.c ****         lv_coord_t st = lv_obj_get_scroll_top(parent);
 379:Middlewares/lvgl/src/core/lv_obj.c **** 
 380:Middlewares/lvgl/src/core/lv_obj.c ****         obj->coords.y1 = parent->coords.y1 + lv_obj_get_style_pad_top(parent, LV_PART_MAIN) - st;
 381:Middlewares/lvgl/src/core/lv_obj.c ****         obj->coords.y2 = obj->coords.y1 - 1;
 382:Middlewares/lvgl/src/core/lv_obj.c ****         obj->coords.x1  = parent->coords.x1 + lv_obj_get_style_pad_left(parent, LV_PART_MAIN) - sl;
 383:Middlewares/lvgl/src/core/lv_obj.c ****         obj->coords.x2  = obj->coords.x1 - 1;
 384:Middlewares/lvgl/src/core/lv_obj.c ****     }
 385:Middlewares/lvgl/src/core/lv_obj.c **** 
 386:Middlewares/lvgl/src/core/lv_obj.c ****     /*Set attributes*/
 387:Middlewares/lvgl/src/core/lv_obj.c ****     obj->flags = LV_OBJ_FLAG_CLICKABLE;
 388:Middlewares/lvgl/src/core/lv_obj.c ****     obj->flags |= LV_OBJ_FLAG_SNAPPABLE;
 389:Middlewares/lvgl/src/core/lv_obj.c ****     if(parent) obj->flags |= LV_OBJ_FLAG_PRESS_LOCK;
 390:Middlewares/lvgl/src/core/lv_obj.c ****     if(parent) obj->flags |= LV_OBJ_FLAG_SCROLL_CHAIN;
 391:Middlewares/lvgl/src/core/lv_obj.c ****     obj->flags |= LV_OBJ_FLAG_CLICK_FOCUSABLE;
 392:Middlewares/lvgl/src/core/lv_obj.c ****     obj->flags |= LV_OBJ_FLAG_SCROLLABLE;
 393:Middlewares/lvgl/src/core/lv_obj.c ****     obj->flags |= LV_OBJ_FLAG_SCROLL_ELASTIC;
 394:Middlewares/lvgl/src/core/lv_obj.c ****     obj->flags |= LV_OBJ_FLAG_SCROLL_MOMENTUM;
 395:Middlewares/lvgl/src/core/lv_obj.c ****     if(parent) obj->flags |= LV_OBJ_FLAG_GESTURE_BUBBLE;
 396:Middlewares/lvgl/src/core/lv_obj.c **** 
 397:Middlewares/lvgl/src/core/lv_obj.c ****     LV_TRACE_OBJ_CREATE("finished");
 398:Middlewares/lvgl/src/core/lv_obj.c **** }
 399:Middlewares/lvgl/src/core/lv_obj.c **** 
 400:Middlewares/lvgl/src/core/lv_obj.c **** static void lv_obj_destructor(const lv_obj_class_t * class_p, lv_obj_t * obj)
 401:Middlewares/lvgl/src/core/lv_obj.c **** {
 402:Middlewares/lvgl/src/core/lv_obj.c ****     LV_UNUSED(class_p);
 403:Middlewares/lvgl/src/core/lv_obj.c **** 
 404:Middlewares/lvgl/src/core/lv_obj.c ****     if(obj->spec_attr) {
 405:Middlewares/lvgl/src/core/lv_obj.c ****         if(obj->spec_attr->children) {
 406:Middlewares/lvgl/src/core/lv_obj.c ****             lv_mem_free(obj->spec_attr->children);
 407:Middlewares/lvgl/src/core/lv_obj.c ****             obj->spec_attr->children = NULL;
 408:Middlewares/lvgl/src/core/lv_obj.c ****         }
 409:Middlewares/lvgl/src/core/lv_obj.c ****         if(obj->spec_attr->event_dsc) {
 410:Middlewares/lvgl/src/core/lv_obj.c ****             lv_mem_free(obj->spec_attr->event_dsc);
 411:Middlewares/lvgl/src/core/lv_obj.c ****             obj->spec_attr->event_dsc = NULL;
 412:Middlewares/lvgl/src/core/lv_obj.c ****         }
 413:Middlewares/lvgl/src/core/lv_obj.c **** 
 414:Middlewares/lvgl/src/core/lv_obj.c ****         lv_mem_free(obj->spec_attr);
 415:Middlewares/lvgl/src/core/lv_obj.c ****         obj->spec_attr = NULL;
 416:Middlewares/lvgl/src/core/lv_obj.c ****     }
 417:Middlewares/lvgl/src/core/lv_obj.c **** 
 418:Middlewares/lvgl/src/core/lv_obj.c **** }
 419:Middlewares/lvgl/src/core/lv_obj.c **** 
 420:Middlewares/lvgl/src/core/lv_obj.c **** static void lv_obj_draw(lv_event_t * e)
 421:Middlewares/lvgl/src/core/lv_obj.c **** {
 422:Middlewares/lvgl/src/core/lv_obj.c ****     lv_event_code_t code = lv_event_get_code(e);
 423:Middlewares/lvgl/src/core/lv_obj.c ****     lv_obj_t * obj = lv_event_get_target(e);
 424:Middlewares/lvgl/src/core/lv_obj.c ****     if(code == LV_EVENT_COVER_CHECK) {
 425:Middlewares/lvgl/src/core/lv_obj.c ****         lv_cover_check_info_t * info = lv_event_get_param(e);
 426:Middlewares/lvgl/src/core/lv_obj.c ****         if(info->res == LV_COVER_RES_MASKED) return;
 427:Middlewares/lvgl/src/core/lv_obj.c ****         if(lv_obj_get_style_clip_corner(obj, LV_PART_MAIN)) {
 428:Middlewares/lvgl/src/core/lv_obj.c ****             info->res = LV_COVER_RES_MASKED;
 429:Middlewares/lvgl/src/core/lv_obj.c ****             return;
ARM GAS  /tmp/ccyhZZXZ.s 			page 9


 430:Middlewares/lvgl/src/core/lv_obj.c ****         }
 431:Middlewares/lvgl/src/core/lv_obj.c **** 
 432:Middlewares/lvgl/src/core/lv_obj.c ****         /*Most trivial test. Is the mask fully IN the object? If no it surely doesn't cover it*/
 433:Middlewares/lvgl/src/core/lv_obj.c ****         lv_coord_t r = lv_obj_get_style_radius(obj, LV_PART_MAIN);
 434:Middlewares/lvgl/src/core/lv_obj.c ****         lv_coord_t w = lv_obj_get_style_transform_width(obj, LV_PART_MAIN);
 435:Middlewares/lvgl/src/core/lv_obj.c ****         lv_coord_t h = lv_obj_get_style_transform_height(obj, LV_PART_MAIN);
 436:Middlewares/lvgl/src/core/lv_obj.c ****         lv_area_t coords;
 437:Middlewares/lvgl/src/core/lv_obj.c ****         lv_area_copy(&coords, &obj->coords);
 438:Middlewares/lvgl/src/core/lv_obj.c ****         coords.x1 -= w;
 439:Middlewares/lvgl/src/core/lv_obj.c ****         coords.x2 += w;
 440:Middlewares/lvgl/src/core/lv_obj.c ****         coords.y1 -= h;
 441:Middlewares/lvgl/src/core/lv_obj.c ****         coords.y2 += h;
 442:Middlewares/lvgl/src/core/lv_obj.c **** 
 443:Middlewares/lvgl/src/core/lv_obj.c ****         if(_lv_area_is_in(info->area, &coords, r) == false) {
 444:Middlewares/lvgl/src/core/lv_obj.c ****             info->res = LV_COVER_RES_NOT_COVER;
 445:Middlewares/lvgl/src/core/lv_obj.c ****            return;
 446:Middlewares/lvgl/src/core/lv_obj.c ****         }
 447:Middlewares/lvgl/src/core/lv_obj.c **** 
 448:Middlewares/lvgl/src/core/lv_obj.c ****         if(lv_obj_get_style_bg_opa(obj, LV_PART_MAIN) < LV_OPA_MAX) {
 449:Middlewares/lvgl/src/core/lv_obj.c ****             info->res = LV_COVER_RES_NOT_COVER;
 450:Middlewares/lvgl/src/core/lv_obj.c ****             return;
 451:Middlewares/lvgl/src/core/lv_obj.c ****         }
 452:Middlewares/lvgl/src/core/lv_obj.c **** 
 453:Middlewares/lvgl/src/core/lv_obj.c **** #if LV_DRAW_COMPLEX
 454:Middlewares/lvgl/src/core/lv_obj.c ****         if(lv_obj_get_style_blend_mode(obj, LV_PART_MAIN) != LV_BLEND_MODE_NORMAL) {
 455:Middlewares/lvgl/src/core/lv_obj.c ****             info->res = LV_COVER_RES_NOT_COVER;
 456:Middlewares/lvgl/src/core/lv_obj.c ****             return;
 457:Middlewares/lvgl/src/core/lv_obj.c ****         }
 458:Middlewares/lvgl/src/core/lv_obj.c **** #endif
 459:Middlewares/lvgl/src/core/lv_obj.c ****         if(lv_obj_get_style_opa(obj, LV_PART_MAIN) < LV_OPA_MAX) {
 460:Middlewares/lvgl/src/core/lv_obj.c ****             info->res = LV_COVER_RES_NOT_COVER;
 461:Middlewares/lvgl/src/core/lv_obj.c ****             return;
 462:Middlewares/lvgl/src/core/lv_obj.c ****         }
 463:Middlewares/lvgl/src/core/lv_obj.c **** 
 464:Middlewares/lvgl/src/core/lv_obj.c ****         info->res = LV_COVER_RES_COVER;
 465:Middlewares/lvgl/src/core/lv_obj.c **** 
 466:Middlewares/lvgl/src/core/lv_obj.c ****     }
 467:Middlewares/lvgl/src/core/lv_obj.c ****     else if(code == LV_EVENT_DRAW_MAIN) {
 468:Middlewares/lvgl/src/core/lv_obj.c ****         const lv_area_t * clip_area = lv_event_get_param(e);
 469:Middlewares/lvgl/src/core/lv_obj.c ****         lv_draw_rect_dsc_t draw_dsc;
 470:Middlewares/lvgl/src/core/lv_obj.c ****         lv_draw_rect_dsc_init(&draw_dsc);
 471:Middlewares/lvgl/src/core/lv_obj.c ****         /*If the border is drawn later disable loading its properties*/
 472:Middlewares/lvgl/src/core/lv_obj.c ****         if(lv_obj_get_style_border_post(obj, LV_PART_MAIN)) {
 473:Middlewares/lvgl/src/core/lv_obj.c ****             draw_dsc.border_post = 1;
 474:Middlewares/lvgl/src/core/lv_obj.c ****         }
 475:Middlewares/lvgl/src/core/lv_obj.c **** 
 476:Middlewares/lvgl/src/core/lv_obj.c ****         lv_obj_init_draw_rect_dsc(obj, LV_PART_MAIN, &draw_dsc);
 477:Middlewares/lvgl/src/core/lv_obj.c **** 
 478:Middlewares/lvgl/src/core/lv_obj.c ****         lv_coord_t w = lv_obj_get_style_transform_width(obj, LV_PART_MAIN);
 479:Middlewares/lvgl/src/core/lv_obj.c ****         lv_coord_t h = lv_obj_get_style_transform_height(obj, LV_PART_MAIN);
 480:Middlewares/lvgl/src/core/lv_obj.c ****         lv_area_t coords;
 481:Middlewares/lvgl/src/core/lv_obj.c ****         lv_area_copy(&coords, &obj->coords);
 482:Middlewares/lvgl/src/core/lv_obj.c ****         coords.x1 -= w;
 483:Middlewares/lvgl/src/core/lv_obj.c ****         coords.x2 += w;
 484:Middlewares/lvgl/src/core/lv_obj.c ****         coords.y1 -= h;
 485:Middlewares/lvgl/src/core/lv_obj.c ****         coords.y2 += h;
 486:Middlewares/lvgl/src/core/lv_obj.c **** 
ARM GAS  /tmp/ccyhZZXZ.s 			page 10


 487:Middlewares/lvgl/src/core/lv_obj.c **** 
 488:Middlewares/lvgl/src/core/lv_obj.c ****         lv_obj_draw_part_dsc_t part_dsc;
 489:Middlewares/lvgl/src/core/lv_obj.c ****         lv_obj_draw_dsc_init(&part_dsc, clip_area);
 490:Middlewares/lvgl/src/core/lv_obj.c ****         part_dsc.rect_dsc = &draw_dsc;
 491:Middlewares/lvgl/src/core/lv_obj.c ****         part_dsc.draw_area = &coords;
 492:Middlewares/lvgl/src/core/lv_obj.c ****         part_dsc.part = LV_PART_MAIN;
 493:Middlewares/lvgl/src/core/lv_obj.c ****         lv_event_send(obj, LV_EVENT_DRAW_PART_BEGIN, &part_dsc);
 494:Middlewares/lvgl/src/core/lv_obj.c **** 
 495:Middlewares/lvgl/src/core/lv_obj.c ****         lv_draw_rect(&coords, clip_area, &draw_dsc);
 496:Middlewares/lvgl/src/core/lv_obj.c **** 
 497:Middlewares/lvgl/src/core/lv_obj.c ****         lv_event_send(obj, LV_EVENT_DRAW_PART_END, &part_dsc);
 498:Middlewares/lvgl/src/core/lv_obj.c **** 
 499:Middlewares/lvgl/src/core/lv_obj.c **** #if LV_DRAW_COMPLEX
 500:Middlewares/lvgl/src/core/lv_obj.c ****         if(lv_obj_get_style_clip_corner(obj, LV_PART_MAIN)) {
 501:Middlewares/lvgl/src/core/lv_obj.c ****             lv_draw_mask_radius_param_t * mp = lv_mem_buf_get(sizeof(lv_draw_mask_radius_param_t));
 502:Middlewares/lvgl/src/core/lv_obj.c ****             lv_coord_t r = lv_obj_get_style_radius(obj, LV_PART_MAIN);
 503:Middlewares/lvgl/src/core/lv_obj.c ****             lv_draw_mask_radius_init(mp, &obj->coords, r, false);
 504:Middlewares/lvgl/src/core/lv_obj.c ****             /*Add the mask and use `obj+8` as custom id. Don't use `obj` directly because it might 
 505:Middlewares/lvgl/src/core/lv_obj.c ****             lv_draw_mask_add(mp, obj + 8);
 506:Middlewares/lvgl/src/core/lv_obj.c ****         }
 507:Middlewares/lvgl/src/core/lv_obj.c **** #endif
 508:Middlewares/lvgl/src/core/lv_obj.c ****     }
 509:Middlewares/lvgl/src/core/lv_obj.c ****     else if(code == LV_EVENT_DRAW_POST) {
 510:Middlewares/lvgl/src/core/lv_obj.c ****         const lv_area_t * clip_area = lv_event_get_param(e);
 511:Middlewares/lvgl/src/core/lv_obj.c ****         draw_scrollbar(obj, clip_area);
 512:Middlewares/lvgl/src/core/lv_obj.c **** 
 513:Middlewares/lvgl/src/core/lv_obj.c **** #if LV_DRAW_COMPLEX
 514:Middlewares/lvgl/src/core/lv_obj.c ****         if(lv_obj_get_style_clip_corner(obj, LV_PART_MAIN)) {
 515:Middlewares/lvgl/src/core/lv_obj.c ****             lv_draw_mask_radius_param_t * param = lv_draw_mask_remove_custom(obj + 8);
 516:Middlewares/lvgl/src/core/lv_obj.c ****             lv_mem_buf_release(param);
 517:Middlewares/lvgl/src/core/lv_obj.c ****         }
 518:Middlewares/lvgl/src/core/lv_obj.c **** #endif
 519:Middlewares/lvgl/src/core/lv_obj.c **** 
 520:Middlewares/lvgl/src/core/lv_obj.c ****         /*If the border is drawn later disable loading other properties*/
 521:Middlewares/lvgl/src/core/lv_obj.c ****         if(lv_obj_get_style_border_post(obj, LV_PART_MAIN)) {
 522:Middlewares/lvgl/src/core/lv_obj.c ****             lv_draw_rect_dsc_t draw_dsc;
 523:Middlewares/lvgl/src/core/lv_obj.c ****             lv_draw_rect_dsc_init(&draw_dsc);
 524:Middlewares/lvgl/src/core/lv_obj.c ****             draw_dsc.bg_opa = LV_OPA_TRANSP;
 525:Middlewares/lvgl/src/core/lv_obj.c ****             draw_dsc.outline_opa = LV_OPA_TRANSP;
 526:Middlewares/lvgl/src/core/lv_obj.c ****             draw_dsc.shadow_opa = LV_OPA_TRANSP;
 527:Middlewares/lvgl/src/core/lv_obj.c ****             lv_obj_init_draw_rect_dsc(obj, LV_PART_MAIN, &draw_dsc);
 528:Middlewares/lvgl/src/core/lv_obj.c **** 
 529:Middlewares/lvgl/src/core/lv_obj.c ****             lv_coord_t w = lv_obj_get_style_transform_width(obj, LV_PART_MAIN);
 530:Middlewares/lvgl/src/core/lv_obj.c ****             lv_coord_t h = lv_obj_get_style_transform_height(obj, LV_PART_MAIN);
 531:Middlewares/lvgl/src/core/lv_obj.c ****             lv_area_t coords;
 532:Middlewares/lvgl/src/core/lv_obj.c ****             lv_area_copy(&coords, &obj->coords);
 533:Middlewares/lvgl/src/core/lv_obj.c ****             coords.x1 -= w;
 534:Middlewares/lvgl/src/core/lv_obj.c ****             coords.x2 += w;
 535:Middlewares/lvgl/src/core/lv_obj.c ****             coords.y1 -= h;
 536:Middlewares/lvgl/src/core/lv_obj.c ****             coords.y2 += h;
 537:Middlewares/lvgl/src/core/lv_obj.c ****             lv_draw_rect(&coords, clip_area, &draw_dsc);
 538:Middlewares/lvgl/src/core/lv_obj.c ****         }
 539:Middlewares/lvgl/src/core/lv_obj.c ****     }
 540:Middlewares/lvgl/src/core/lv_obj.c **** }
 541:Middlewares/lvgl/src/core/lv_obj.c **** 
 542:Middlewares/lvgl/src/core/lv_obj.c **** static void draw_scrollbar(lv_obj_t * obj, const lv_area_t * clip_area)
 543:Middlewares/lvgl/src/core/lv_obj.c **** {
ARM GAS  /tmp/ccyhZZXZ.s 			page 11


 544:Middlewares/lvgl/src/core/lv_obj.c **** 
 545:Middlewares/lvgl/src/core/lv_obj.c ****     lv_area_t hor_area;
 546:Middlewares/lvgl/src/core/lv_obj.c ****     lv_area_t ver_area;
 547:Middlewares/lvgl/src/core/lv_obj.c ****     lv_obj_get_scrollbar_area(obj, &hor_area, &ver_area);
 548:Middlewares/lvgl/src/core/lv_obj.c **** 
 549:Middlewares/lvgl/src/core/lv_obj.c ****     if(lv_area_get_size(&hor_area) <= 0 && lv_area_get_size(&ver_area) <= 0) return;
 550:Middlewares/lvgl/src/core/lv_obj.c **** 
 551:Middlewares/lvgl/src/core/lv_obj.c ****     lv_draw_rect_dsc_t draw_dsc;
 552:Middlewares/lvgl/src/core/lv_obj.c ****     lv_res_t sb_res = scrollbar_init_draw_dsc(obj, &draw_dsc);
 553:Middlewares/lvgl/src/core/lv_obj.c ****     if(sb_res != LV_RES_OK) return;
 554:Middlewares/lvgl/src/core/lv_obj.c **** 
 555:Middlewares/lvgl/src/core/lv_obj.c ****     lv_obj_draw_part_dsc_t part_dsc;
 556:Middlewares/lvgl/src/core/lv_obj.c ****     lv_obj_draw_dsc_init(&part_dsc, clip_area);
 557:Middlewares/lvgl/src/core/lv_obj.c ****     part_dsc.rect_dsc = &draw_dsc;
 558:Middlewares/lvgl/src/core/lv_obj.c ****     part_dsc.part = LV_PART_SCROLLBAR;
 559:Middlewares/lvgl/src/core/lv_obj.c **** 
 560:Middlewares/lvgl/src/core/lv_obj.c ****     if(lv_area_get_size(&hor_area) > 0) {
 561:Middlewares/lvgl/src/core/lv_obj.c ****         part_dsc.draw_area = &hor_area;
 562:Middlewares/lvgl/src/core/lv_obj.c ****         lv_event_send(obj, LV_EVENT_DRAW_PART_BEGIN, &part_dsc);
 563:Middlewares/lvgl/src/core/lv_obj.c ****         lv_draw_rect(&hor_area, clip_area, &draw_dsc);
 564:Middlewares/lvgl/src/core/lv_obj.c ****         lv_event_send(obj, LV_EVENT_DRAW_PART_END, &part_dsc);
 565:Middlewares/lvgl/src/core/lv_obj.c ****     }
 566:Middlewares/lvgl/src/core/lv_obj.c ****     if(lv_area_get_size(&ver_area) > 0) {
 567:Middlewares/lvgl/src/core/lv_obj.c ****         part_dsc.draw_area = &ver_area;
 568:Middlewares/lvgl/src/core/lv_obj.c ****         lv_event_send(obj, LV_EVENT_DRAW_PART_BEGIN, &part_dsc);
 569:Middlewares/lvgl/src/core/lv_obj.c ****         lv_draw_rect(&ver_area, clip_area, &draw_dsc);
 570:Middlewares/lvgl/src/core/lv_obj.c ****         lv_event_send(obj, LV_EVENT_DRAW_PART_END, &part_dsc);
 571:Middlewares/lvgl/src/core/lv_obj.c ****     }
 572:Middlewares/lvgl/src/core/lv_obj.c **** }
 573:Middlewares/lvgl/src/core/lv_obj.c **** 
 574:Middlewares/lvgl/src/core/lv_obj.c **** /**
 575:Middlewares/lvgl/src/core/lv_obj.c ****  * Initialize the draw descriptor for the scrollbar
 576:Middlewares/lvgl/src/core/lv_obj.c ****  * @param obj pointer to an object
 577:Middlewares/lvgl/src/core/lv_obj.c ****  * @param dsc the draw descriptor to initialize
 578:Middlewares/lvgl/src/core/lv_obj.c ****  * @return LV_RES_OK: the scrollbar is visible; LV_RES_INV: the scrollbar is not visible
 579:Middlewares/lvgl/src/core/lv_obj.c ****  */
 580:Middlewares/lvgl/src/core/lv_obj.c **** static lv_res_t scrollbar_init_draw_dsc(lv_obj_t * obj, lv_draw_rect_dsc_t * dsc)
 581:Middlewares/lvgl/src/core/lv_obj.c **** {
 582:Middlewares/lvgl/src/core/lv_obj.c ****     lv_draw_rect_dsc_init(dsc);
 583:Middlewares/lvgl/src/core/lv_obj.c ****     dsc->bg_opa = lv_obj_get_style_bg_opa(obj, LV_PART_SCROLLBAR);
 584:Middlewares/lvgl/src/core/lv_obj.c ****     if(dsc->bg_opa > LV_OPA_MIN) {
 585:Middlewares/lvgl/src/core/lv_obj.c ****         dsc->bg_color = lv_obj_get_style_bg_color(obj, LV_PART_SCROLLBAR);
 586:Middlewares/lvgl/src/core/lv_obj.c ****     }
 587:Middlewares/lvgl/src/core/lv_obj.c **** 
 588:Middlewares/lvgl/src/core/lv_obj.c ****     dsc->border_opa = lv_obj_get_style_border_opa(obj, LV_PART_SCROLLBAR);
 589:Middlewares/lvgl/src/core/lv_obj.c ****     if(dsc->border_opa > LV_OPA_MIN) {
 590:Middlewares/lvgl/src/core/lv_obj.c ****         dsc->border_width = lv_obj_get_style_border_width(obj, LV_PART_SCROLLBAR);
 591:Middlewares/lvgl/src/core/lv_obj.c ****         if(dsc->border_width > 0) {
 592:Middlewares/lvgl/src/core/lv_obj.c ****             dsc->border_color = lv_obj_get_style_border_color(obj, LV_PART_SCROLLBAR);
 593:Middlewares/lvgl/src/core/lv_obj.c ****         } else {
 594:Middlewares/lvgl/src/core/lv_obj.c ****             dsc->border_opa = LV_OPA_TRANSP;
 595:Middlewares/lvgl/src/core/lv_obj.c ****         }
 596:Middlewares/lvgl/src/core/lv_obj.c ****     }
 597:Middlewares/lvgl/src/core/lv_obj.c **** 
 598:Middlewares/lvgl/src/core/lv_obj.c **** #if LV_DRAW_COMPLEX
 599:Middlewares/lvgl/src/core/lv_obj.c ****     dsc->shadow_opa = lv_obj_get_style_shadow_opa(obj, LV_PART_SCROLLBAR);
 600:Middlewares/lvgl/src/core/lv_obj.c ****     if(dsc->shadow_opa > LV_OPA_MIN) {
ARM GAS  /tmp/ccyhZZXZ.s 			page 12


 601:Middlewares/lvgl/src/core/lv_obj.c ****         dsc->shadow_width = lv_obj_get_style_shadow_width(obj, LV_PART_SCROLLBAR);
 602:Middlewares/lvgl/src/core/lv_obj.c ****         if(dsc->shadow_width > 0) {
 603:Middlewares/lvgl/src/core/lv_obj.c ****             dsc->shadow_spread = lv_obj_get_style_shadow_spread(obj, LV_PART_SCROLLBAR);
 604:Middlewares/lvgl/src/core/lv_obj.c ****             dsc->shadow_color = lv_obj_get_style_shadow_color(obj, LV_PART_SCROLLBAR);
 605:Middlewares/lvgl/src/core/lv_obj.c ****         } else {
 606:Middlewares/lvgl/src/core/lv_obj.c ****             dsc->shadow_opa = LV_OPA_TRANSP;
 607:Middlewares/lvgl/src/core/lv_obj.c ****         }
 608:Middlewares/lvgl/src/core/lv_obj.c ****     }
 609:Middlewares/lvgl/src/core/lv_obj.c **** 
 610:Middlewares/lvgl/src/core/lv_obj.c ****     lv_opa_t opa = lv_obj_get_style_opa(obj, LV_PART_SCROLLBAR);
 611:Middlewares/lvgl/src/core/lv_obj.c ****     if(opa < LV_OPA_MAX) {
 612:Middlewares/lvgl/src/core/lv_obj.c ****         dsc->bg_opa = (dsc->bg_opa * opa) >> 8;
 613:Middlewares/lvgl/src/core/lv_obj.c ****         dsc->border_opa = (dsc->bg_opa * opa) >> 8;
 614:Middlewares/lvgl/src/core/lv_obj.c ****         dsc->shadow_opa = (dsc->bg_opa * opa) >> 8;
 615:Middlewares/lvgl/src/core/lv_obj.c ****     }
 616:Middlewares/lvgl/src/core/lv_obj.c **** 
 617:Middlewares/lvgl/src/core/lv_obj.c ****     if(dsc->bg_opa != LV_OPA_TRANSP || dsc->border_opa != LV_OPA_TRANSP || dsc->shadow_opa != LV_OP
 618:Middlewares/lvgl/src/core/lv_obj.c ****         dsc->radius = lv_obj_get_style_radius(obj, LV_PART_SCROLLBAR);
 619:Middlewares/lvgl/src/core/lv_obj.c ****         return LV_RES_OK;
 620:Middlewares/lvgl/src/core/lv_obj.c ****     } else {
 621:Middlewares/lvgl/src/core/lv_obj.c ****         return LV_RES_INV;
 622:Middlewares/lvgl/src/core/lv_obj.c ****     }
 623:Middlewares/lvgl/src/core/lv_obj.c **** #else
 624:Middlewares/lvgl/src/core/lv_obj.c ****     if(dsc->bg_opa != LV_OPA_TRANSP || dsc->border_opa != LV_OPA_TRANSP) return LV_RES_OK;
 625:Middlewares/lvgl/src/core/lv_obj.c ****     else return LV_RES_INV;
 626:Middlewares/lvgl/src/core/lv_obj.c **** #endif
 627:Middlewares/lvgl/src/core/lv_obj.c **** }
 628:Middlewares/lvgl/src/core/lv_obj.c **** 
 629:Middlewares/lvgl/src/core/lv_obj.c **** static void lv_obj_event(const lv_obj_class_t * class_p, lv_event_t * e)
 630:Middlewares/lvgl/src/core/lv_obj.c **** {
 631:Middlewares/lvgl/src/core/lv_obj.c ****     LV_UNUSED(class_p);
 632:Middlewares/lvgl/src/core/lv_obj.c **** 
 633:Middlewares/lvgl/src/core/lv_obj.c ****     lv_event_code_t code = lv_event_get_code(e);
 634:Middlewares/lvgl/src/core/lv_obj.c ****     lv_obj_t * obj = lv_event_get_target(e);
 635:Middlewares/lvgl/src/core/lv_obj.c ****     if(code == LV_EVENT_PRESSED) {
 636:Middlewares/lvgl/src/core/lv_obj.c ****         lv_obj_add_state(obj, LV_STATE_PRESSED);
 637:Middlewares/lvgl/src/core/lv_obj.c ****     }
 638:Middlewares/lvgl/src/core/lv_obj.c ****     else if(code == LV_EVENT_RELEASED) {
 639:Middlewares/lvgl/src/core/lv_obj.c ****         lv_obj_clear_state(obj, LV_STATE_PRESSED);
 640:Middlewares/lvgl/src/core/lv_obj.c ****         void * param = lv_event_get_param(e);
 641:Middlewares/lvgl/src/core/lv_obj.c ****         /*Go the checked state if enabled*/
 642:Middlewares/lvgl/src/core/lv_obj.c ****         if(lv_indev_get_scroll_obj(param) == NULL && lv_obj_has_flag(obj, LV_OBJ_FLAG_CHECKABLE)) {
 643:Middlewares/lvgl/src/core/lv_obj.c ****             if(!(lv_obj_get_state(obj) & LV_STATE_CHECKED)) lv_obj_add_state(obj, LV_STATE_CHECKED)
 644:Middlewares/lvgl/src/core/lv_obj.c ****             else lv_obj_clear_state(obj, LV_STATE_CHECKED);
 645:Middlewares/lvgl/src/core/lv_obj.c **** 
 646:Middlewares/lvgl/src/core/lv_obj.c ****             lv_res_t res = lv_event_send(obj, LV_EVENT_VALUE_CHANGED, NULL);
 647:Middlewares/lvgl/src/core/lv_obj.c ****             if(res != LV_RES_OK) return;
 648:Middlewares/lvgl/src/core/lv_obj.c ****         }
 649:Middlewares/lvgl/src/core/lv_obj.c ****     }
 650:Middlewares/lvgl/src/core/lv_obj.c ****     else if(code == LV_EVENT_PRESS_LOST) {
 651:Middlewares/lvgl/src/core/lv_obj.c ****         lv_obj_clear_state(obj, LV_STATE_PRESSED);
 652:Middlewares/lvgl/src/core/lv_obj.c ****     }
 653:Middlewares/lvgl/src/core/lv_obj.c ****     else if(code == LV_EVENT_KEY) {
 654:Middlewares/lvgl/src/core/lv_obj.c ****         if(lv_obj_has_flag(obj, LV_OBJ_FLAG_CHECKABLE)) {
 655:Middlewares/lvgl/src/core/lv_obj.c ****             char c = *((char *)lv_event_get_param(e));
 656:Middlewares/lvgl/src/core/lv_obj.c ****             if(c == LV_KEY_RIGHT || c == LV_KEY_UP) {
 657:Middlewares/lvgl/src/core/lv_obj.c ****                 lv_obj_add_state(obj, LV_STATE_CHECKED);
ARM GAS  /tmp/ccyhZZXZ.s 			page 13


 658:Middlewares/lvgl/src/core/lv_obj.c ****             }
 659:Middlewares/lvgl/src/core/lv_obj.c ****             else if(c == LV_KEY_LEFT || c == LV_KEY_DOWN) {
 660:Middlewares/lvgl/src/core/lv_obj.c ****                 lv_obj_clear_state(obj, LV_STATE_CHECKED);
 661:Middlewares/lvgl/src/core/lv_obj.c ****             }
 662:Middlewares/lvgl/src/core/lv_obj.c **** 
 663:Middlewares/lvgl/src/core/lv_obj.c ****             /*With Enter LV_EVENT_RELEASED will send VALUE_CHANGE event*/
 664:Middlewares/lvgl/src/core/lv_obj.c ****             if(c != LV_KEY_ENTER) {
 665:Middlewares/lvgl/src/core/lv_obj.c ****                 lv_res_t res = lv_event_send(obj, LV_EVENT_VALUE_CHANGED, NULL);
 666:Middlewares/lvgl/src/core/lv_obj.c ****                 if(res != LV_RES_OK) return;
 667:Middlewares/lvgl/src/core/lv_obj.c ****             }
 668:Middlewares/lvgl/src/core/lv_obj.c ****         }
 669:Middlewares/lvgl/src/core/lv_obj.c ****     }
 670:Middlewares/lvgl/src/core/lv_obj.c ****     else if(code == LV_EVENT_FOCUSED) {
 671:Middlewares/lvgl/src/core/lv_obj.c ****         if(lv_obj_has_flag(obj, LV_OBJ_FLAG_SCROLL_ON_FOCUS)) {
 672:Middlewares/lvgl/src/core/lv_obj.c ****             lv_obj_scroll_to_view_recursive(obj, LV_ANIM_ON);
 673:Middlewares/lvgl/src/core/lv_obj.c ****         }
 674:Middlewares/lvgl/src/core/lv_obj.c **** 
 675:Middlewares/lvgl/src/core/lv_obj.c ****         bool editing = false;
 676:Middlewares/lvgl/src/core/lv_obj.c ****         editing = lv_group_get_editing(lv_obj_get_group(obj));
 677:Middlewares/lvgl/src/core/lv_obj.c ****         lv_state_t state = LV_STATE_FOCUSED;
 678:Middlewares/lvgl/src/core/lv_obj.c **** 
 679:Middlewares/lvgl/src/core/lv_obj.c ****         lv_indev_t * indev = lv_indev_get_act();
 680:Middlewares/lvgl/src/core/lv_obj.c ****         lv_indev_type_t indev_type = lv_indev_get_type(indev);
 681:Middlewares/lvgl/src/core/lv_obj.c ****         if(indev_type == LV_INDEV_TYPE_KEYPAD || indev_type == LV_INDEV_TYPE_ENCODER) state |= LV_S
 682:Middlewares/lvgl/src/core/lv_obj.c ****         if(editing) {
 683:Middlewares/lvgl/src/core/lv_obj.c ****             state |= LV_STATE_EDITED;
 684:Middlewares/lvgl/src/core/lv_obj.c ****             lv_obj_add_state(obj, state);
 685:Middlewares/lvgl/src/core/lv_obj.c ****         }
 686:Middlewares/lvgl/src/core/lv_obj.c ****         else {
 687:Middlewares/lvgl/src/core/lv_obj.c ****             lv_obj_add_state(obj, state);
 688:Middlewares/lvgl/src/core/lv_obj.c ****             lv_obj_clear_state(obj, LV_STATE_EDITED);
 689:Middlewares/lvgl/src/core/lv_obj.c ****         }
 690:Middlewares/lvgl/src/core/lv_obj.c ****     }
 691:Middlewares/lvgl/src/core/lv_obj.c ****     else if(code == LV_EVENT_SCROLL_BEGIN) {
 692:Middlewares/lvgl/src/core/lv_obj.c ****         lv_obj_add_state(obj, LV_STATE_SCROLLED);
 693:Middlewares/lvgl/src/core/lv_obj.c ****     }
 694:Middlewares/lvgl/src/core/lv_obj.c ****     else if(code == LV_EVENT_SCROLL_END) {
 695:Middlewares/lvgl/src/core/lv_obj.c ****         lv_obj_clear_state(obj, LV_STATE_SCROLLED);
 696:Middlewares/lvgl/src/core/lv_obj.c ****     }
 697:Middlewares/lvgl/src/core/lv_obj.c ****     else if(code == LV_EVENT_DEFOCUSED) {
 698:Middlewares/lvgl/src/core/lv_obj.c ****         lv_obj_clear_state(obj, LV_STATE_FOCUSED | LV_STATE_EDITED | LV_STATE_FOCUS_KEY);
 699:Middlewares/lvgl/src/core/lv_obj.c ****     }
 700:Middlewares/lvgl/src/core/lv_obj.c ****     else if(code == LV_EVENT_SIZE_CHANGED) {
 701:Middlewares/lvgl/src/core/lv_obj.c ****         lv_coord_t align = lv_obj_get_style_align(obj, LV_PART_MAIN);
 702:Middlewares/lvgl/src/core/lv_obj.c ****         uint16_t layout = lv_obj_get_style_layout(obj, LV_PART_MAIN);
 703:Middlewares/lvgl/src/core/lv_obj.c ****         if(layout || align) {
 704:Middlewares/lvgl/src/core/lv_obj.c ****             lv_obj_mark_layout_as_dirty(obj);
 705:Middlewares/lvgl/src/core/lv_obj.c ****         }
 706:Middlewares/lvgl/src/core/lv_obj.c **** 
 707:Middlewares/lvgl/src/core/lv_obj.c ****         uint32_t i;
 708:Middlewares/lvgl/src/core/lv_obj.c ****         uint32_t child_cnt = lv_obj_get_child_cnt(obj);
 709:Middlewares/lvgl/src/core/lv_obj.c ****         for(i = 0; i < child_cnt; i++) {
 710:Middlewares/lvgl/src/core/lv_obj.c ****             lv_obj_t * child = lv_obj_get_child(obj, i);
 711:Middlewares/lvgl/src/core/lv_obj.c ****             lv_obj_mark_layout_as_dirty(child);
 712:Middlewares/lvgl/src/core/lv_obj.c ****         }
 713:Middlewares/lvgl/src/core/lv_obj.c ****     }
 714:Middlewares/lvgl/src/core/lv_obj.c ****     else if(code == LV_EVENT_CHILD_CHANGED) {
ARM GAS  /tmp/ccyhZZXZ.s 			page 14


 715:Middlewares/lvgl/src/core/lv_obj.c ****         lv_coord_t w = lv_obj_get_style_width(obj, LV_PART_MAIN);
 716:Middlewares/lvgl/src/core/lv_obj.c ****         lv_coord_t h = lv_obj_get_style_height(obj, LV_PART_MAIN);
 717:Middlewares/lvgl/src/core/lv_obj.c ****         lv_coord_t align = lv_obj_get_style_align(obj, LV_PART_MAIN);
 718:Middlewares/lvgl/src/core/lv_obj.c ****         uint16_t layout = lv_obj_get_style_layout(obj, LV_PART_MAIN);
 719:Middlewares/lvgl/src/core/lv_obj.c ****         if(layout || align || w == LV_SIZE_CONTENT || h == LV_SIZE_CONTENT) {
 720:Middlewares/lvgl/src/core/lv_obj.c ****             lv_obj_mark_layout_as_dirty(obj);
 721:Middlewares/lvgl/src/core/lv_obj.c ****         }
 722:Middlewares/lvgl/src/core/lv_obj.c ****     }
 723:Middlewares/lvgl/src/core/lv_obj.c ****     else if(code == LV_EVENT_SCROLL_END) {
 724:Middlewares/lvgl/src/core/lv_obj.c ****         if(lv_obj_get_scrollbar_mode(obj) == LV_SCROLLBAR_MODE_ACTIVE) {
 725:Middlewares/lvgl/src/core/lv_obj.c ****             lv_obj_invalidate(obj);
 726:Middlewares/lvgl/src/core/lv_obj.c ****         }
 727:Middlewares/lvgl/src/core/lv_obj.c ****     }
 728:Middlewares/lvgl/src/core/lv_obj.c ****     else if(code == LV_EVENT_REFR_EXT_DRAW_SIZE) {
 729:Middlewares/lvgl/src/core/lv_obj.c ****         lv_coord_t * s = lv_event_get_param(e);
 730:Middlewares/lvgl/src/core/lv_obj.c ****         lv_coord_t d = lv_obj_calculate_ext_draw_size(obj, LV_PART_MAIN);
 731:Middlewares/lvgl/src/core/lv_obj.c ****         *s = LV_MAX(*s, d);
 732:Middlewares/lvgl/src/core/lv_obj.c ****     }
 733:Middlewares/lvgl/src/core/lv_obj.c ****     else if(code == LV_EVENT_DRAW_MAIN || code == LV_EVENT_DRAW_POST || code == LV_EVENT_COVER_CHEC
 734:Middlewares/lvgl/src/core/lv_obj.c ****         lv_obj_draw(e);
 735:Middlewares/lvgl/src/core/lv_obj.c ****     }
 736:Middlewares/lvgl/src/core/lv_obj.c **** }
 737:Middlewares/lvgl/src/core/lv_obj.c **** 
 738:Middlewares/lvgl/src/core/lv_obj.c **** /**
 739:Middlewares/lvgl/src/core/lv_obj.c ****  * Set the state (fully overwrite) of an object.
 740:Middlewares/lvgl/src/core/lv_obj.c ****  * If specified in the styles, transition animations will be started from the previous state to the
 741:Middlewares/lvgl/src/core/lv_obj.c ****  * @param obj       pointer to an object
 742:Middlewares/lvgl/src/core/lv_obj.c ****  * @param state     the new state
 743:Middlewares/lvgl/src/core/lv_obj.c ****  */
 744:Middlewares/lvgl/src/core/lv_obj.c **** static void lv_obj_set_state(lv_obj_t * obj, lv_state_t new_state)
 745:Middlewares/lvgl/src/core/lv_obj.c **** {
 746:Middlewares/lvgl/src/core/lv_obj.c ****     if(obj->state == new_state) return;
 747:Middlewares/lvgl/src/core/lv_obj.c **** 
 748:Middlewares/lvgl/src/core/lv_obj.c ****     LV_ASSERT_OBJ(obj, MY_CLASS);
 749:Middlewares/lvgl/src/core/lv_obj.c **** 
 750:Middlewares/lvgl/src/core/lv_obj.c ****     lv_state_t prev_state = obj->state;
 751:Middlewares/lvgl/src/core/lv_obj.c ****     obj->state = new_state;
 752:Middlewares/lvgl/src/core/lv_obj.c **** 
 753:Middlewares/lvgl/src/core/lv_obj.c ****     _lv_style_state_cmp_t cmp_res = _lv_obj_style_state_compare(obj, prev_state, new_state);
 754:Middlewares/lvgl/src/core/lv_obj.c ****     /*If there is no difference in styles there is nothing else to do*/
 755:Middlewares/lvgl/src/core/lv_obj.c ****     if(cmp_res == _LV_STYLE_STATE_CMP_SAME) return;
 756:Middlewares/lvgl/src/core/lv_obj.c **** 
 757:Middlewares/lvgl/src/core/lv_obj.c ****     _lv_obj_style_transition_dsc_t * ts = lv_mem_buf_get(sizeof(_lv_obj_style_transition_dsc_t) * S
 758:Middlewares/lvgl/src/core/lv_obj.c ****     lv_memset_00(ts, sizeof(_lv_obj_style_transition_dsc_t) * STYLE_TRANSITION_MAX);
 759:Middlewares/lvgl/src/core/lv_obj.c ****     uint32_t tsi = 0;
 760:Middlewares/lvgl/src/core/lv_obj.c ****     uint32_t i;
 761:Middlewares/lvgl/src/core/lv_obj.c ****     for(i = 0; i < obj->style_cnt && tsi < STYLE_TRANSITION_MAX; i++) {
 762:Middlewares/lvgl/src/core/lv_obj.c ****         _lv_obj_style_t * obj_style = &obj->styles[i];
 763:Middlewares/lvgl/src/core/lv_obj.c ****         lv_state_t state_act = lv_obj_style_get_selector_state(obj->styles[i].selector);
 764:Middlewares/lvgl/src/core/lv_obj.c ****         lv_part_t part_act = lv_obj_style_get_selector_part(obj->styles[i].selector);
 765:Middlewares/lvgl/src/core/lv_obj.c ****         if(state_act & (~new_state)) continue; /*Skip unrelated styles*/
 766:Middlewares/lvgl/src/core/lv_obj.c ****         if(obj_style->is_trans) continue;
 767:Middlewares/lvgl/src/core/lv_obj.c **** 
 768:Middlewares/lvgl/src/core/lv_obj.c ****         lv_style_value_t v;
 769:Middlewares/lvgl/src/core/lv_obj.c ****         if(lv_style_get_prop_inlined(obj_style->style, LV_STYLE_TRANSITION, &v) == false) continue;
 770:Middlewares/lvgl/src/core/lv_obj.c ****         const lv_style_transition_dsc_t * tr = v.ptr;
 771:Middlewares/lvgl/src/core/lv_obj.c **** 
ARM GAS  /tmp/ccyhZZXZ.s 			page 15


 772:Middlewares/lvgl/src/core/lv_obj.c ****         /*Add the props to the set if not added yet or added but with smaller weight*/
 773:Middlewares/lvgl/src/core/lv_obj.c ****         uint32_t j;
 774:Middlewares/lvgl/src/core/lv_obj.c ****         for(j = 0; tr->props[j] != 0 && tsi < STYLE_TRANSITION_MAX; j++) {
 775:Middlewares/lvgl/src/core/lv_obj.c ****             uint32_t t;
 776:Middlewares/lvgl/src/core/lv_obj.c ****             for(t = 0; t < tsi; t++) {
 777:Middlewares/lvgl/src/core/lv_obj.c ****                 lv_style_selector_t selector = ts[t].selector;
 778:Middlewares/lvgl/src/core/lv_obj.c ****                 lv_state_t state_ts = lv_obj_style_get_selector_state(selector);
 779:Middlewares/lvgl/src/core/lv_obj.c ****                 lv_part_t part_ts = lv_obj_style_get_selector_part(selector);
 780:Middlewares/lvgl/src/core/lv_obj.c ****                 if(ts[t].prop == tr->props[j] && part_ts == part_act && state_ts >= state_act) brea
 781:Middlewares/lvgl/src/core/lv_obj.c ****             }
 782:Middlewares/lvgl/src/core/lv_obj.c **** 
 783:Middlewares/lvgl/src/core/lv_obj.c ****             /*If not found  add it*/
 784:Middlewares/lvgl/src/core/lv_obj.c ****             if(t == tsi) {
 785:Middlewares/lvgl/src/core/lv_obj.c ****                 ts[tsi].time = tr->time;
 786:Middlewares/lvgl/src/core/lv_obj.c ****                 ts[tsi].delay = tr->delay;
 787:Middlewares/lvgl/src/core/lv_obj.c ****                 ts[tsi].path_cb = tr->path_xcb;
 788:Middlewares/lvgl/src/core/lv_obj.c ****                 ts[tsi].prop = tr->props[j];
 789:Middlewares/lvgl/src/core/lv_obj.c **** #if LV_USE_USER_DATA
 790:Middlewares/lvgl/src/core/lv_obj.c ****                 ts[tsi].user_data = tr->user_data;
 791:Middlewares/lvgl/src/core/lv_obj.c **** #endif
 792:Middlewares/lvgl/src/core/lv_obj.c ****                 ts[tsi].selector = obj_style->selector;
 793:Middlewares/lvgl/src/core/lv_obj.c ****                 tsi++;
 794:Middlewares/lvgl/src/core/lv_obj.c ****             }
 795:Middlewares/lvgl/src/core/lv_obj.c ****         }
 796:Middlewares/lvgl/src/core/lv_obj.c ****     }
 797:Middlewares/lvgl/src/core/lv_obj.c **** 
 798:Middlewares/lvgl/src/core/lv_obj.c ****     for(i = 0;i < tsi; i++) {
 799:Middlewares/lvgl/src/core/lv_obj.c ****         lv_part_t part_act = lv_obj_style_get_selector_part(ts[i].selector);
 800:Middlewares/lvgl/src/core/lv_obj.c ****         _lv_obj_style_create_transition(obj, part_act, prev_state, new_state, &ts[i]);
 801:Middlewares/lvgl/src/core/lv_obj.c ****     }
 802:Middlewares/lvgl/src/core/lv_obj.c **** 
 803:Middlewares/lvgl/src/core/lv_obj.c ****     lv_mem_buf_release(ts);
 804:Middlewares/lvgl/src/core/lv_obj.c **** 
 805:Middlewares/lvgl/src/core/lv_obj.c ****     if(cmp_res == _LV_STYLE_STATE_CMP_DIFF_REDRAW) {
 806:Middlewares/lvgl/src/core/lv_obj.c ****         lv_obj_invalidate(obj);
 807:Middlewares/lvgl/src/core/lv_obj.c ****     }
 808:Middlewares/lvgl/src/core/lv_obj.c ****     else if(cmp_res == _LV_STYLE_STATE_CMP_DIFF_LAYOUT) {
 809:Middlewares/lvgl/src/core/lv_obj.c ****         lv_obj_refresh_style(obj, LV_PART_ANY, LV_STYLE_PROP_ANY);
 810:Middlewares/lvgl/src/core/lv_obj.c ****     }
 811:Middlewares/lvgl/src/core/lv_obj.c ****     else if(cmp_res == _LV_STYLE_STATE_CMP_DIFF_DRAW_PAD) {
 812:Middlewares/lvgl/src/core/lv_obj.c ****         lv_obj_invalidate(obj);
 813:Middlewares/lvgl/src/core/lv_obj.c ****         lv_obj_refresh_ext_draw_size(obj);
 814:Middlewares/lvgl/src/core/lv_obj.c ****     }
 815:Middlewares/lvgl/src/core/lv_obj.c **** }
 816:Middlewares/lvgl/src/core/lv_obj.c **** 
 817:Middlewares/lvgl/src/core/lv_obj.c **** static bool obj_valid_child(const lv_obj_t * parent, const lv_obj_t * obj_to_find)
 818:Middlewares/lvgl/src/core/lv_obj.c **** {
  29              		.loc 1 818 1 view -0
  30              		.cfi_startproc
  31              		@ args = 0, pretend = 0, frame = 0
  32              		@ frame_needed = 0, uses_anonymous_args = 0
  33              		.loc 1 818 1 is_stmt 0 view .LVU1
  34 0000 F8B5     		push	{r3, r4, r5, r6, r7, lr}
  35              	.LCFI0:
  36              		.cfi_def_cfa_offset 24
  37              		.cfi_offset 3, -24
  38              		.cfi_offset 4, -20
ARM GAS  /tmp/ccyhZZXZ.s 			page 16


  39              		.cfi_offset 5, -16
  40              		.cfi_offset 6, -12
  41              		.cfi_offset 7, -8
  42              		.cfi_offset 14, -4
  43 0002 0646     		mov	r6, r0
  44 0004 0D46     		mov	r5, r1
 819:Middlewares/lvgl/src/core/lv_obj.c ****     /*Check all children of `parent`*/
 820:Middlewares/lvgl/src/core/lv_obj.c ****     uint32_t child_cnt = 0;
  45              		.loc 1 820 5 is_stmt 1 view .LVU2
  46              	.LVL1:
 821:Middlewares/lvgl/src/core/lv_obj.c ****     if(parent->spec_attr) child_cnt = parent->spec_attr->child_cnt;
  47              		.loc 1 821 5 view .LVU3
  48              		.loc 1 821 14 is_stmt 0 view .LVU4
  49 0006 8368     		ldr	r3, [r0, #8]
  50              		.loc 1 821 7 view .LVU5
  51 0008 13B1     		cbz	r3, .L6
  52              		.loc 1 821 27 is_stmt 1 discriminator 1 view .LVU6
  53              		.loc 1 821 37 is_stmt 0 discriminator 1 view .LVU7
  54 000a 5F68     		ldr	r7, [r3, #4]
  55              	.LVL2:
  56              	.L2:
 822:Middlewares/lvgl/src/core/lv_obj.c ****     uint32_t i;
  57              		.loc 1 822 5 is_stmt 1 view .LVU8
 823:Middlewares/lvgl/src/core/lv_obj.c ****     for(i = 0; i < child_cnt; i++) {
  58              		.loc 1 823 5 view .LVU9
  59              		.loc 1 823 11 is_stmt 0 view .LVU10
  60 000c 0024     		movs	r4, #0
  61              		.loc 1 823 5 view .LVU11
  62 000e 02E0     		b	.L3
  63              	.LVL3:
  64              	.L6:
 820:Middlewares/lvgl/src/core/lv_obj.c ****     if(parent->spec_attr) child_cnt = parent->spec_attr->child_cnt;
  65              		.loc 1 820 14 view .LVU12
  66 0010 0027     		movs	r7, #0
  67 0012 FBE7     		b	.L2
  68              	.LVL4:
  69              	.L10:
  70              		.loc 1 823 31 is_stmt 1 discriminator 2 view .LVU13
  71              		.loc 1 823 32 is_stmt 0 discriminator 2 view .LVU14
  72 0014 0134     		adds	r4, r4, #1
  73              	.LVL5:
  74              	.L3:
  75              		.loc 1 823 16 is_stmt 1 discriminator 1 view .LVU15
  76              		.loc 1 823 5 is_stmt 0 discriminator 1 view .LVU16
  77 0016 A742     		cmp	r7, r4
  78 0018 0CD9     		bls	.L9
  79              	.LBB94:
 824:Middlewares/lvgl/src/core/lv_obj.c ****         lv_obj_t * child = parent->spec_attr->children[i];
  80              		.loc 1 824 9 is_stmt 1 view .LVU17
  81              		.loc 1 824 34 is_stmt 0 view .LVU18
  82 001a B368     		ldr	r3, [r6, #8]
  83              		.loc 1 824 45 view .LVU19
  84 001c 1B68     		ldr	r3, [r3]
  85              		.loc 1 824 20 view .LVU20
  86 001e 53F82400 		ldr	r0, [r3, r4, lsl #2]
  87              	.LVL6:
 825:Middlewares/lvgl/src/core/lv_obj.c ****         if(child == obj_to_find) {
ARM GAS  /tmp/ccyhZZXZ.s 			page 17


  88              		.loc 1 825 9 is_stmt 1 view .LVU21
  89              		.loc 1 825 11 is_stmt 0 view .LVU22
  90 0022 A842     		cmp	r0, r5
  91 0024 09D0     		beq	.L7
 826:Middlewares/lvgl/src/core/lv_obj.c ****             return true;
 827:Middlewares/lvgl/src/core/lv_obj.c ****         }
 828:Middlewares/lvgl/src/core/lv_obj.c **** 
 829:Middlewares/lvgl/src/core/lv_obj.c ****         /*Check the children*/
 830:Middlewares/lvgl/src/core/lv_obj.c ****         bool found = obj_valid_child(child, obj_to_find);
  92              		.loc 1 830 9 is_stmt 1 view .LVU23
  93              		.loc 1 830 22 is_stmt 0 view .LVU24
  94 0026 2946     		mov	r1, r5
  95 0028 FFF7EAFF 		bl	obj_valid_child
  96              	.LVL7:
 831:Middlewares/lvgl/src/core/lv_obj.c ****         if(found) {
  97              		.loc 1 831 9 is_stmt 1 view .LVU25
  98              		.loc 1 831 11 is_stmt 0 view .LVU26
  99 002c 0346     		mov	r3, r0
 100 002e 0028     		cmp	r0, #0
 101 0030 F0D0     		beq	.L10
 102 0032 00E0     		b	.L4
 103              	.LVL8:
 104              	.L9:
 105              		.loc 1 831 11 view .LVU27
 106              	.LBE94:
 832:Middlewares/lvgl/src/core/lv_obj.c ****             return true;
 833:Middlewares/lvgl/src/core/lv_obj.c ****         }
 834:Middlewares/lvgl/src/core/lv_obj.c ****     }
 835:Middlewares/lvgl/src/core/lv_obj.c ****     return false;
 107              		.loc 1 835 12 view .LVU28
 108 0034 0023     		movs	r3, #0
 109              	.L4:
 836:Middlewares/lvgl/src/core/lv_obj.c **** }
 110              		.loc 1 836 1 view .LVU29
 111 0036 1846     		mov	r0, r3
 112 0038 F8BD     		pop	{r3, r4, r5, r6, r7, pc}
 113              	.LVL9:
 114              	.L7:
 115              	.LBB95:
 826:Middlewares/lvgl/src/core/lv_obj.c ****         }
 116              		.loc 1 826 20 view .LVU30
 117 003a 0123     		movs	r3, #1
 118 003c FBE7     		b	.L4
 119              	.LBE95:
 120              		.cfi_endproc
 121              	.LFE177:
 123              		.section	.text.scrollbar_init_draw_dsc,"ax",%progbits
 124              		.align	1
 125              		.syntax unified
 126              		.thumb
 127              		.thumb_func
 128              		.fpu fpv4-sp-d16
 130              	scrollbar_init_draw_dsc:
 131              	.LVL10:
 132              	.LFB174:
 581:Middlewares/lvgl/src/core/lv_obj.c ****     lv_draw_rect_dsc_init(dsc);
 133              		.loc 1 581 1 is_stmt 1 view -0
ARM GAS  /tmp/ccyhZZXZ.s 			page 18


 134              		.cfi_startproc
 135              		@ args = 0, pretend = 0, frame = 0
 136              		@ frame_needed = 0, uses_anonymous_args = 0
 581:Middlewares/lvgl/src/core/lv_obj.c ****     lv_draw_rect_dsc_init(dsc);
 137              		.loc 1 581 1 is_stmt 0 view .LVU32
 138 0000 38B5     		push	{r3, r4, r5, lr}
 139              	.LCFI1:
 140              		.cfi_def_cfa_offset 16
 141              		.cfi_offset 3, -16
 142              		.cfi_offset 4, -12
 143              		.cfi_offset 5, -8
 144              		.cfi_offset 14, -4
 145 0002 0546     		mov	r5, r0
 146 0004 0C46     		mov	r4, r1
 582:Middlewares/lvgl/src/core/lv_obj.c ****     dsc->bg_opa = lv_obj_get_style_bg_opa(obj, LV_PART_SCROLLBAR);
 147              		.loc 1 582 5 is_stmt 1 view .LVU33
 148 0006 0846     		mov	r0, r1
 149              	.LVL11:
 582:Middlewares/lvgl/src/core/lv_obj.c ****     dsc->bg_opa = lv_obj_get_style_bg_opa(obj, LV_PART_SCROLLBAR);
 150              		.loc 1 582 5 is_stmt 0 view .LVU34
 151 0008 FFF7FEFF 		bl	lv_draw_rect_dsc_init
 152              	.LVL12:
 583:Middlewares/lvgl/src/core/lv_obj.c ****     if(dsc->bg_opa > LV_OPA_MIN) {
 153              		.loc 1 583 5 is_stmt 1 view .LVU35
 154              	.LBB96:
 155              	.LBI96:
 156              		.file 2 "Middlewares/lvgl/src/core/lv_obj_style_gen.h"
   1:Middlewares/lvgl/src/core/lv_obj_style_gen.h **** static inline lv_coord_t lv_obj_get_style_width(const struct _lv_obj_t * obj, uint32_t part)
   2:Middlewares/lvgl/src/core/lv_obj_style_gen.h **** {
   3:Middlewares/lvgl/src/core/lv_obj_style_gen.h ****     lv_style_value_t v = lv_obj_get_style_prop(obj, part, LV_STYLE_WIDTH);
   4:Middlewares/lvgl/src/core/lv_obj_style_gen.h ****     return (lv_coord_t)v.num;
   5:Middlewares/lvgl/src/core/lv_obj_style_gen.h **** }
   6:Middlewares/lvgl/src/core/lv_obj_style_gen.h **** 
   7:Middlewares/lvgl/src/core/lv_obj_style_gen.h **** static inline lv_coord_t lv_obj_get_style_min_width(const struct _lv_obj_t * obj, uint32_t part)
   8:Middlewares/lvgl/src/core/lv_obj_style_gen.h **** {
   9:Middlewares/lvgl/src/core/lv_obj_style_gen.h ****     lv_style_value_t v = lv_obj_get_style_prop(obj, part, LV_STYLE_MIN_WIDTH);
  10:Middlewares/lvgl/src/core/lv_obj_style_gen.h ****     return (lv_coord_t)v.num;
  11:Middlewares/lvgl/src/core/lv_obj_style_gen.h **** }
  12:Middlewares/lvgl/src/core/lv_obj_style_gen.h **** 
  13:Middlewares/lvgl/src/core/lv_obj_style_gen.h **** static inline lv_coord_t lv_obj_get_style_max_width(const struct _lv_obj_t * obj, uint32_t part)
  14:Middlewares/lvgl/src/core/lv_obj_style_gen.h **** {
  15:Middlewares/lvgl/src/core/lv_obj_style_gen.h ****     lv_style_value_t v = lv_obj_get_style_prop(obj, part, LV_STYLE_MAX_WIDTH);
  16:Middlewares/lvgl/src/core/lv_obj_style_gen.h ****     return (lv_coord_t)v.num;
  17:Middlewares/lvgl/src/core/lv_obj_style_gen.h **** }
  18:Middlewares/lvgl/src/core/lv_obj_style_gen.h **** 
  19:Middlewares/lvgl/src/core/lv_obj_style_gen.h **** static inline lv_coord_t lv_obj_get_style_height(const struct _lv_obj_t * obj, uint32_t part)
  20:Middlewares/lvgl/src/core/lv_obj_style_gen.h **** {
  21:Middlewares/lvgl/src/core/lv_obj_style_gen.h ****     lv_style_value_t v = lv_obj_get_style_prop(obj, part, LV_STYLE_HEIGHT);
  22:Middlewares/lvgl/src/core/lv_obj_style_gen.h ****     return (lv_coord_t)v.num;
  23:Middlewares/lvgl/src/core/lv_obj_style_gen.h **** }
  24:Middlewares/lvgl/src/core/lv_obj_style_gen.h **** 
  25:Middlewares/lvgl/src/core/lv_obj_style_gen.h **** static inline lv_coord_t lv_obj_get_style_min_height(const struct _lv_obj_t * obj, uint32_t part)
  26:Middlewares/lvgl/src/core/lv_obj_style_gen.h **** {
  27:Middlewares/lvgl/src/core/lv_obj_style_gen.h ****     lv_style_value_t v = lv_obj_get_style_prop(obj, part, LV_STYLE_MIN_HEIGHT);
  28:Middlewares/lvgl/src/core/lv_obj_style_gen.h ****     return (lv_coord_t)v.num;
  29:Middlewares/lvgl/src/core/lv_obj_style_gen.h **** }
  30:Middlewares/lvgl/src/core/lv_obj_style_gen.h **** 
ARM GAS  /tmp/ccyhZZXZ.s 			page 19


  31:Middlewares/lvgl/src/core/lv_obj_style_gen.h **** static inline lv_coord_t lv_obj_get_style_max_height(const struct _lv_obj_t * obj, uint32_t part)
  32:Middlewares/lvgl/src/core/lv_obj_style_gen.h **** {
  33:Middlewares/lvgl/src/core/lv_obj_style_gen.h ****     lv_style_value_t v = lv_obj_get_style_prop(obj, part, LV_STYLE_MAX_HEIGHT);
  34:Middlewares/lvgl/src/core/lv_obj_style_gen.h ****     return (lv_coord_t)v.num;
  35:Middlewares/lvgl/src/core/lv_obj_style_gen.h **** }
  36:Middlewares/lvgl/src/core/lv_obj_style_gen.h **** 
  37:Middlewares/lvgl/src/core/lv_obj_style_gen.h **** static inline lv_coord_t lv_obj_get_style_x(const struct _lv_obj_t * obj, uint32_t part)
  38:Middlewares/lvgl/src/core/lv_obj_style_gen.h **** {
  39:Middlewares/lvgl/src/core/lv_obj_style_gen.h ****     lv_style_value_t v = lv_obj_get_style_prop(obj, part, LV_STYLE_X);
  40:Middlewares/lvgl/src/core/lv_obj_style_gen.h ****     return (lv_coord_t)v.num;
  41:Middlewares/lvgl/src/core/lv_obj_style_gen.h **** }
  42:Middlewares/lvgl/src/core/lv_obj_style_gen.h **** 
  43:Middlewares/lvgl/src/core/lv_obj_style_gen.h **** static inline lv_coord_t lv_obj_get_style_y(const struct _lv_obj_t * obj, uint32_t part)
  44:Middlewares/lvgl/src/core/lv_obj_style_gen.h **** {
  45:Middlewares/lvgl/src/core/lv_obj_style_gen.h ****     lv_style_value_t v = lv_obj_get_style_prop(obj, part, LV_STYLE_Y);
  46:Middlewares/lvgl/src/core/lv_obj_style_gen.h ****     return (lv_coord_t)v.num;
  47:Middlewares/lvgl/src/core/lv_obj_style_gen.h **** }
  48:Middlewares/lvgl/src/core/lv_obj_style_gen.h **** 
  49:Middlewares/lvgl/src/core/lv_obj_style_gen.h **** static inline lv_align_t lv_obj_get_style_align(const struct _lv_obj_t * obj, uint32_t part)
  50:Middlewares/lvgl/src/core/lv_obj_style_gen.h **** {
  51:Middlewares/lvgl/src/core/lv_obj_style_gen.h ****     lv_style_value_t v = lv_obj_get_style_prop(obj, part, LV_STYLE_ALIGN);
  52:Middlewares/lvgl/src/core/lv_obj_style_gen.h ****     return (lv_align_t)v.num;
  53:Middlewares/lvgl/src/core/lv_obj_style_gen.h **** }
  54:Middlewares/lvgl/src/core/lv_obj_style_gen.h **** 
  55:Middlewares/lvgl/src/core/lv_obj_style_gen.h **** static inline lv_coord_t lv_obj_get_style_transform_width(const struct _lv_obj_t * obj, uint32_t pa
  56:Middlewares/lvgl/src/core/lv_obj_style_gen.h **** {
  57:Middlewares/lvgl/src/core/lv_obj_style_gen.h ****     lv_style_value_t v = lv_obj_get_style_prop(obj, part, LV_STYLE_TRANSFORM_WIDTH);
  58:Middlewares/lvgl/src/core/lv_obj_style_gen.h ****     return (lv_coord_t)v.num;
  59:Middlewares/lvgl/src/core/lv_obj_style_gen.h **** }
  60:Middlewares/lvgl/src/core/lv_obj_style_gen.h **** 
  61:Middlewares/lvgl/src/core/lv_obj_style_gen.h **** static inline lv_coord_t lv_obj_get_style_transform_height(const struct _lv_obj_t * obj, uint32_t p
  62:Middlewares/lvgl/src/core/lv_obj_style_gen.h **** {
  63:Middlewares/lvgl/src/core/lv_obj_style_gen.h ****     lv_style_value_t v = lv_obj_get_style_prop(obj, part, LV_STYLE_TRANSFORM_HEIGHT);
  64:Middlewares/lvgl/src/core/lv_obj_style_gen.h ****     return (lv_coord_t)v.num;
  65:Middlewares/lvgl/src/core/lv_obj_style_gen.h **** }
  66:Middlewares/lvgl/src/core/lv_obj_style_gen.h **** 
  67:Middlewares/lvgl/src/core/lv_obj_style_gen.h **** static inline lv_coord_t lv_obj_get_style_translate_x(const struct _lv_obj_t * obj, uint32_t part)
  68:Middlewares/lvgl/src/core/lv_obj_style_gen.h **** {
  69:Middlewares/lvgl/src/core/lv_obj_style_gen.h ****     lv_style_value_t v = lv_obj_get_style_prop(obj, part, LV_STYLE_TRANSLATE_X);
  70:Middlewares/lvgl/src/core/lv_obj_style_gen.h ****     return (lv_coord_t)v.num;
  71:Middlewares/lvgl/src/core/lv_obj_style_gen.h **** }
  72:Middlewares/lvgl/src/core/lv_obj_style_gen.h **** 
  73:Middlewares/lvgl/src/core/lv_obj_style_gen.h **** static inline lv_coord_t lv_obj_get_style_translate_y(const struct _lv_obj_t * obj, uint32_t part)
  74:Middlewares/lvgl/src/core/lv_obj_style_gen.h **** {
  75:Middlewares/lvgl/src/core/lv_obj_style_gen.h ****     lv_style_value_t v = lv_obj_get_style_prop(obj, part, LV_STYLE_TRANSLATE_Y);
  76:Middlewares/lvgl/src/core/lv_obj_style_gen.h ****     return (lv_coord_t)v.num;
  77:Middlewares/lvgl/src/core/lv_obj_style_gen.h **** }
  78:Middlewares/lvgl/src/core/lv_obj_style_gen.h **** 
  79:Middlewares/lvgl/src/core/lv_obj_style_gen.h **** static inline lv_coord_t lv_obj_get_style_transform_zoom(const struct _lv_obj_t * obj, uint32_t par
  80:Middlewares/lvgl/src/core/lv_obj_style_gen.h **** {
  81:Middlewares/lvgl/src/core/lv_obj_style_gen.h ****     lv_style_value_t v = lv_obj_get_style_prop(obj, part, LV_STYLE_TRANSFORM_ZOOM);
  82:Middlewares/lvgl/src/core/lv_obj_style_gen.h ****     return (lv_coord_t)v.num;
  83:Middlewares/lvgl/src/core/lv_obj_style_gen.h **** }
  84:Middlewares/lvgl/src/core/lv_obj_style_gen.h **** 
  85:Middlewares/lvgl/src/core/lv_obj_style_gen.h **** static inline lv_coord_t lv_obj_get_style_transform_angle(const struct _lv_obj_t * obj, uint32_t pa
  86:Middlewares/lvgl/src/core/lv_obj_style_gen.h **** {
  87:Middlewares/lvgl/src/core/lv_obj_style_gen.h ****     lv_style_value_t v = lv_obj_get_style_prop(obj, part, LV_STYLE_TRANSFORM_ANGLE);
ARM GAS  /tmp/ccyhZZXZ.s 			page 20


  88:Middlewares/lvgl/src/core/lv_obj_style_gen.h ****     return (lv_coord_t)v.num;
  89:Middlewares/lvgl/src/core/lv_obj_style_gen.h **** }
  90:Middlewares/lvgl/src/core/lv_obj_style_gen.h **** 
  91:Middlewares/lvgl/src/core/lv_obj_style_gen.h **** static inline lv_coord_t lv_obj_get_style_pad_top(const struct _lv_obj_t * obj, uint32_t part)
  92:Middlewares/lvgl/src/core/lv_obj_style_gen.h **** {
  93:Middlewares/lvgl/src/core/lv_obj_style_gen.h ****     lv_style_value_t v = lv_obj_get_style_prop(obj, part, LV_STYLE_PAD_TOP);
  94:Middlewares/lvgl/src/core/lv_obj_style_gen.h ****     return (lv_coord_t)v.num;
  95:Middlewares/lvgl/src/core/lv_obj_style_gen.h **** }
  96:Middlewares/lvgl/src/core/lv_obj_style_gen.h **** 
  97:Middlewares/lvgl/src/core/lv_obj_style_gen.h **** static inline lv_coord_t lv_obj_get_style_pad_bottom(const struct _lv_obj_t * obj, uint32_t part)
  98:Middlewares/lvgl/src/core/lv_obj_style_gen.h **** {
  99:Middlewares/lvgl/src/core/lv_obj_style_gen.h ****     lv_style_value_t v = lv_obj_get_style_prop(obj, part, LV_STYLE_PAD_BOTTOM);
 100:Middlewares/lvgl/src/core/lv_obj_style_gen.h ****     return (lv_coord_t)v.num;
 101:Middlewares/lvgl/src/core/lv_obj_style_gen.h **** }
 102:Middlewares/lvgl/src/core/lv_obj_style_gen.h **** 
 103:Middlewares/lvgl/src/core/lv_obj_style_gen.h **** static inline lv_coord_t lv_obj_get_style_pad_left(const struct _lv_obj_t * obj, uint32_t part)
 104:Middlewares/lvgl/src/core/lv_obj_style_gen.h **** {
 105:Middlewares/lvgl/src/core/lv_obj_style_gen.h ****     lv_style_value_t v = lv_obj_get_style_prop(obj, part, LV_STYLE_PAD_LEFT);
 106:Middlewares/lvgl/src/core/lv_obj_style_gen.h ****     return (lv_coord_t)v.num;
 107:Middlewares/lvgl/src/core/lv_obj_style_gen.h **** }
 108:Middlewares/lvgl/src/core/lv_obj_style_gen.h **** 
 109:Middlewares/lvgl/src/core/lv_obj_style_gen.h **** static inline lv_coord_t lv_obj_get_style_pad_right(const struct _lv_obj_t * obj, uint32_t part)
 110:Middlewares/lvgl/src/core/lv_obj_style_gen.h **** {
 111:Middlewares/lvgl/src/core/lv_obj_style_gen.h ****     lv_style_value_t v = lv_obj_get_style_prop(obj, part, LV_STYLE_PAD_RIGHT);
 112:Middlewares/lvgl/src/core/lv_obj_style_gen.h ****     return (lv_coord_t)v.num;
 113:Middlewares/lvgl/src/core/lv_obj_style_gen.h **** }
 114:Middlewares/lvgl/src/core/lv_obj_style_gen.h **** 
 115:Middlewares/lvgl/src/core/lv_obj_style_gen.h **** static inline lv_coord_t lv_obj_get_style_pad_row(const struct _lv_obj_t * obj, uint32_t part)
 116:Middlewares/lvgl/src/core/lv_obj_style_gen.h **** {
 117:Middlewares/lvgl/src/core/lv_obj_style_gen.h ****     lv_style_value_t v = lv_obj_get_style_prop(obj, part, LV_STYLE_PAD_ROW);
 118:Middlewares/lvgl/src/core/lv_obj_style_gen.h ****     return (lv_coord_t)v.num;
 119:Middlewares/lvgl/src/core/lv_obj_style_gen.h **** }
 120:Middlewares/lvgl/src/core/lv_obj_style_gen.h **** 
 121:Middlewares/lvgl/src/core/lv_obj_style_gen.h **** static inline lv_coord_t lv_obj_get_style_pad_column(const struct _lv_obj_t * obj, uint32_t part)
 122:Middlewares/lvgl/src/core/lv_obj_style_gen.h **** {
 123:Middlewares/lvgl/src/core/lv_obj_style_gen.h ****     lv_style_value_t v = lv_obj_get_style_prop(obj, part, LV_STYLE_PAD_COLUMN);
 124:Middlewares/lvgl/src/core/lv_obj_style_gen.h ****     return (lv_coord_t)v.num;
 125:Middlewares/lvgl/src/core/lv_obj_style_gen.h **** }
 126:Middlewares/lvgl/src/core/lv_obj_style_gen.h **** 
 127:Middlewares/lvgl/src/core/lv_obj_style_gen.h **** static inline lv_coord_t lv_obj_get_style_radius(const struct _lv_obj_t * obj, uint32_t part)
 128:Middlewares/lvgl/src/core/lv_obj_style_gen.h **** {
 129:Middlewares/lvgl/src/core/lv_obj_style_gen.h ****     lv_style_value_t v = lv_obj_get_style_prop(obj, part, LV_STYLE_RADIUS);
 130:Middlewares/lvgl/src/core/lv_obj_style_gen.h ****     return (lv_coord_t)v.num;
 131:Middlewares/lvgl/src/core/lv_obj_style_gen.h **** }
 132:Middlewares/lvgl/src/core/lv_obj_style_gen.h **** 
 133:Middlewares/lvgl/src/core/lv_obj_style_gen.h **** static inline bool lv_obj_get_style_clip_corner(const struct _lv_obj_t * obj, uint32_t part)
 134:Middlewares/lvgl/src/core/lv_obj_style_gen.h **** {
 135:Middlewares/lvgl/src/core/lv_obj_style_gen.h ****     lv_style_value_t v = lv_obj_get_style_prop(obj, part, LV_STYLE_CLIP_CORNER);
 136:Middlewares/lvgl/src/core/lv_obj_style_gen.h ****     return (bool)v.num;
 137:Middlewares/lvgl/src/core/lv_obj_style_gen.h **** }
 138:Middlewares/lvgl/src/core/lv_obj_style_gen.h **** 
 139:Middlewares/lvgl/src/core/lv_obj_style_gen.h **** static inline lv_opa_t lv_obj_get_style_opa(const struct _lv_obj_t * obj, uint32_t part)
 140:Middlewares/lvgl/src/core/lv_obj_style_gen.h **** {
 141:Middlewares/lvgl/src/core/lv_obj_style_gen.h ****     lv_style_value_t v = lv_obj_get_style_prop(obj, part, LV_STYLE_OPA);
 142:Middlewares/lvgl/src/core/lv_obj_style_gen.h ****     return (lv_opa_t)v.num;
 143:Middlewares/lvgl/src/core/lv_obj_style_gen.h **** }
 144:Middlewares/lvgl/src/core/lv_obj_style_gen.h **** 
ARM GAS  /tmp/ccyhZZXZ.s 			page 21


 145:Middlewares/lvgl/src/core/lv_obj_style_gen.h **** static inline const lv_color_filter_dsc_t * lv_obj_get_style_color_filter_dsc(const struct _lv_obj_
 146:Middlewares/lvgl/src/core/lv_obj_style_gen.h **** {
 147:Middlewares/lvgl/src/core/lv_obj_style_gen.h ****     lv_style_value_t v = lv_obj_get_style_prop(obj, part, LV_STYLE_COLOR_FILTER_DSC);
 148:Middlewares/lvgl/src/core/lv_obj_style_gen.h ****     return (const lv_color_filter_dsc_t *)v.ptr;
 149:Middlewares/lvgl/src/core/lv_obj_style_gen.h **** }
 150:Middlewares/lvgl/src/core/lv_obj_style_gen.h **** 
 151:Middlewares/lvgl/src/core/lv_obj_style_gen.h **** static inline lv_opa_t lv_obj_get_style_color_filter_opa(const struct _lv_obj_t * obj, uint32_t par
 152:Middlewares/lvgl/src/core/lv_obj_style_gen.h **** {
 153:Middlewares/lvgl/src/core/lv_obj_style_gen.h ****     lv_style_value_t v = lv_obj_get_style_prop(obj, part, LV_STYLE_COLOR_FILTER_OPA);
 154:Middlewares/lvgl/src/core/lv_obj_style_gen.h ****     return (lv_opa_t)v.num;
 155:Middlewares/lvgl/src/core/lv_obj_style_gen.h **** }
 156:Middlewares/lvgl/src/core/lv_obj_style_gen.h **** 
 157:Middlewares/lvgl/src/core/lv_obj_style_gen.h **** static inline uint32_t lv_obj_get_style_anim_time(const struct _lv_obj_t * obj, uint32_t part)
 158:Middlewares/lvgl/src/core/lv_obj_style_gen.h **** {
 159:Middlewares/lvgl/src/core/lv_obj_style_gen.h ****     lv_style_value_t v = lv_obj_get_style_prop(obj, part, LV_STYLE_ANIM_TIME);
 160:Middlewares/lvgl/src/core/lv_obj_style_gen.h ****     return (uint32_t)v.num;
 161:Middlewares/lvgl/src/core/lv_obj_style_gen.h **** }
 162:Middlewares/lvgl/src/core/lv_obj_style_gen.h **** 
 163:Middlewares/lvgl/src/core/lv_obj_style_gen.h **** static inline uint32_t lv_obj_get_style_anim_speed(const struct _lv_obj_t * obj, uint32_t part)
 164:Middlewares/lvgl/src/core/lv_obj_style_gen.h **** {
 165:Middlewares/lvgl/src/core/lv_obj_style_gen.h ****     lv_style_value_t v = lv_obj_get_style_prop(obj, part, LV_STYLE_ANIM_SPEED);
 166:Middlewares/lvgl/src/core/lv_obj_style_gen.h ****     return (uint32_t)v.num;
 167:Middlewares/lvgl/src/core/lv_obj_style_gen.h **** }
 168:Middlewares/lvgl/src/core/lv_obj_style_gen.h **** 
 169:Middlewares/lvgl/src/core/lv_obj_style_gen.h **** static inline const lv_style_transition_dsc_t * lv_obj_get_style_transition(const struct _lv_obj_t 
 170:Middlewares/lvgl/src/core/lv_obj_style_gen.h **** {
 171:Middlewares/lvgl/src/core/lv_obj_style_gen.h ****     lv_style_value_t v = lv_obj_get_style_prop(obj, part, LV_STYLE_TRANSITION);
 172:Middlewares/lvgl/src/core/lv_obj_style_gen.h ****     return (const lv_style_transition_dsc_t *)v.ptr;
 173:Middlewares/lvgl/src/core/lv_obj_style_gen.h **** }
 174:Middlewares/lvgl/src/core/lv_obj_style_gen.h **** 
 175:Middlewares/lvgl/src/core/lv_obj_style_gen.h **** static inline lv_blend_mode_t lv_obj_get_style_blend_mode(const struct _lv_obj_t * obj, uint32_t pa
 176:Middlewares/lvgl/src/core/lv_obj_style_gen.h **** {
 177:Middlewares/lvgl/src/core/lv_obj_style_gen.h ****     lv_style_value_t v = lv_obj_get_style_prop(obj, part, LV_STYLE_BLEND_MODE);
 178:Middlewares/lvgl/src/core/lv_obj_style_gen.h ****     return (lv_blend_mode_t)v.num;
 179:Middlewares/lvgl/src/core/lv_obj_style_gen.h **** }
 180:Middlewares/lvgl/src/core/lv_obj_style_gen.h **** 
 181:Middlewares/lvgl/src/core/lv_obj_style_gen.h **** static inline uint16_t lv_obj_get_style_layout(const struct _lv_obj_t * obj, uint32_t part)
 182:Middlewares/lvgl/src/core/lv_obj_style_gen.h **** {
 183:Middlewares/lvgl/src/core/lv_obj_style_gen.h ****     lv_style_value_t v = lv_obj_get_style_prop(obj, part, LV_STYLE_LAYOUT);
 184:Middlewares/lvgl/src/core/lv_obj_style_gen.h ****     return (uint16_t)v.num;
 185:Middlewares/lvgl/src/core/lv_obj_style_gen.h **** }
 186:Middlewares/lvgl/src/core/lv_obj_style_gen.h **** 
 187:Middlewares/lvgl/src/core/lv_obj_style_gen.h **** static inline lv_base_dir_t lv_obj_get_style_base_dir(const struct _lv_obj_t * obj, uint32_t part)
 188:Middlewares/lvgl/src/core/lv_obj_style_gen.h **** {
 189:Middlewares/lvgl/src/core/lv_obj_style_gen.h ****     lv_style_value_t v = lv_obj_get_style_prop(obj, part, LV_STYLE_BASE_DIR);
 190:Middlewares/lvgl/src/core/lv_obj_style_gen.h ****     return (lv_base_dir_t)v.num;
 191:Middlewares/lvgl/src/core/lv_obj_style_gen.h **** }
 192:Middlewares/lvgl/src/core/lv_obj_style_gen.h **** 
 193:Middlewares/lvgl/src/core/lv_obj_style_gen.h **** static inline lv_color_t lv_obj_get_style_bg_color(const struct _lv_obj_t * obj, uint32_t part)
 194:Middlewares/lvgl/src/core/lv_obj_style_gen.h **** {
 195:Middlewares/lvgl/src/core/lv_obj_style_gen.h ****     lv_style_value_t v = lv_obj_get_style_prop(obj, part, LV_STYLE_BG_COLOR);
 196:Middlewares/lvgl/src/core/lv_obj_style_gen.h ****     return v.color;
 197:Middlewares/lvgl/src/core/lv_obj_style_gen.h **** }
 198:Middlewares/lvgl/src/core/lv_obj_style_gen.h **** 
 199:Middlewares/lvgl/src/core/lv_obj_style_gen.h **** static inline lv_color_t lv_obj_get_style_bg_color_filtered(const struct _lv_obj_t * obj, uint32_t 
 200:Middlewares/lvgl/src/core/lv_obj_style_gen.h **** {
 201:Middlewares/lvgl/src/core/lv_obj_style_gen.h ****     lv_style_value_t v = lv_obj_get_style_prop(obj, part, LV_STYLE_BG_COLOR_FILTERED);
ARM GAS  /tmp/ccyhZZXZ.s 			page 22


 202:Middlewares/lvgl/src/core/lv_obj_style_gen.h ****     return v.color;
 203:Middlewares/lvgl/src/core/lv_obj_style_gen.h **** }
 204:Middlewares/lvgl/src/core/lv_obj_style_gen.h **** 
 205:Middlewares/lvgl/src/core/lv_obj_style_gen.h **** static inline lv_opa_t lv_obj_get_style_bg_opa(const struct _lv_obj_t * obj, uint32_t part)
 157              		.loc 2 205 24 view .LVU36
 158              	.LBB97:
 206:Middlewares/lvgl/src/core/lv_obj_style_gen.h **** {
 207:Middlewares/lvgl/src/core/lv_obj_style_gen.h ****     lv_style_value_t v = lv_obj_get_style_prop(obj, part, LV_STYLE_BG_OPA);
 159              		.loc 2 207 5 view .LVU37
 160              		.loc 2 207 26 is_stmt 0 view .LVU38
 161 000c 2122     		movs	r2, #33
 162 000e 4FF48031 		mov	r1, #65536
 163 0012 2846     		mov	r0, r5
 164 0014 FFF7FEFF 		bl	lv_obj_get_style_prop
 165              	.LVL13:
 208:Middlewares/lvgl/src/core/lv_obj_style_gen.h ****     return (lv_opa_t)v.num;
 166              		.loc 2 208 5 is_stmt 1 view .LVU39
 167              		.loc 2 208 12 is_stmt 0 view .LVU40
 168 0018 C0B2     		uxtb	r0, r0
 169              	.LVL14:
 170              		.loc 2 208 12 view .LVU41
 171              	.LBE97:
 172              	.LBE96:
 583:Middlewares/lvgl/src/core/lv_obj.c ****     if(dsc->bg_opa > LV_OPA_MIN) {
 173              		.loc 1 583 17 view .LVU42
 174 001a A072     		strb	r0, [r4, #10]
 584:Middlewares/lvgl/src/core/lv_obj.c ****         dsc->bg_color = lv_obj_get_style_bg_color(obj, LV_PART_SCROLLBAR);
 175              		.loc 1 584 5 is_stmt 1 view .LVU43
 584:Middlewares/lvgl/src/core/lv_obj.c ****         dsc->bg_color = lv_obj_get_style_bg_color(obj, LV_PART_SCROLLBAR);
 176              		.loc 1 584 7 is_stmt 0 view .LVU44
 177 001c 0228     		cmp	r0, #2
 178 001e 3BD8     		bhi	.L21
 179              	.L12:
 588:Middlewares/lvgl/src/core/lv_obj.c ****     if(dsc->border_opa > LV_OPA_MIN) {
 180              		.loc 1 588 5 is_stmt 1 view .LVU45
 181              	.LVL15:
 182              	.LBB98:
 183              	.LBI98:
 209:Middlewares/lvgl/src/core/lv_obj_style_gen.h **** }
 210:Middlewares/lvgl/src/core/lv_obj_style_gen.h **** 
 211:Middlewares/lvgl/src/core/lv_obj_style_gen.h **** static inline lv_color_t lv_obj_get_style_bg_grad_color(const struct _lv_obj_t * obj, uint32_t part
 212:Middlewares/lvgl/src/core/lv_obj_style_gen.h **** {
 213:Middlewares/lvgl/src/core/lv_obj_style_gen.h ****     lv_style_value_t v = lv_obj_get_style_prop(obj, part, LV_STYLE_BG_GRAD_COLOR);
 214:Middlewares/lvgl/src/core/lv_obj_style_gen.h ****     return v.color;
 215:Middlewares/lvgl/src/core/lv_obj_style_gen.h **** }
 216:Middlewares/lvgl/src/core/lv_obj_style_gen.h **** 
 217:Middlewares/lvgl/src/core/lv_obj_style_gen.h **** static inline lv_color_t lv_obj_get_style_bg_grad_color_filtered(const struct _lv_obj_t * obj, uint
 218:Middlewares/lvgl/src/core/lv_obj_style_gen.h **** {
 219:Middlewares/lvgl/src/core/lv_obj_style_gen.h ****     lv_style_value_t v = lv_obj_get_style_prop(obj, part, LV_STYLE_BG_GRAD_COLOR_FILTERED);
 220:Middlewares/lvgl/src/core/lv_obj_style_gen.h ****     return v.color;
 221:Middlewares/lvgl/src/core/lv_obj_style_gen.h **** }
 222:Middlewares/lvgl/src/core/lv_obj_style_gen.h **** 
 223:Middlewares/lvgl/src/core/lv_obj_style_gen.h **** static inline lv_grad_dir_t lv_obj_get_style_bg_grad_dir(const struct _lv_obj_t * obj, uint32_t par
 224:Middlewares/lvgl/src/core/lv_obj_style_gen.h **** {
 225:Middlewares/lvgl/src/core/lv_obj_style_gen.h ****     lv_style_value_t v = lv_obj_get_style_prop(obj, part, LV_STYLE_BG_GRAD_DIR);
 226:Middlewares/lvgl/src/core/lv_obj_style_gen.h ****     return (lv_grad_dir_t)v.num;
 227:Middlewares/lvgl/src/core/lv_obj_style_gen.h **** }
ARM GAS  /tmp/ccyhZZXZ.s 			page 23


 228:Middlewares/lvgl/src/core/lv_obj_style_gen.h **** 
 229:Middlewares/lvgl/src/core/lv_obj_style_gen.h **** static inline lv_coord_t lv_obj_get_style_bg_main_stop(const struct _lv_obj_t * obj, uint32_t part)
 230:Middlewares/lvgl/src/core/lv_obj_style_gen.h **** {
 231:Middlewares/lvgl/src/core/lv_obj_style_gen.h ****     lv_style_value_t v = lv_obj_get_style_prop(obj, part, LV_STYLE_BG_MAIN_STOP);
 232:Middlewares/lvgl/src/core/lv_obj_style_gen.h ****     return (lv_coord_t)v.num;
 233:Middlewares/lvgl/src/core/lv_obj_style_gen.h **** }
 234:Middlewares/lvgl/src/core/lv_obj_style_gen.h **** 
 235:Middlewares/lvgl/src/core/lv_obj_style_gen.h **** static inline lv_coord_t lv_obj_get_style_bg_grad_stop(const struct _lv_obj_t * obj, uint32_t part)
 236:Middlewares/lvgl/src/core/lv_obj_style_gen.h **** {
 237:Middlewares/lvgl/src/core/lv_obj_style_gen.h ****     lv_style_value_t v = lv_obj_get_style_prop(obj, part, LV_STYLE_BG_GRAD_STOP);
 238:Middlewares/lvgl/src/core/lv_obj_style_gen.h ****     return (lv_coord_t)v.num;
 239:Middlewares/lvgl/src/core/lv_obj_style_gen.h **** }
 240:Middlewares/lvgl/src/core/lv_obj_style_gen.h **** 
 241:Middlewares/lvgl/src/core/lv_obj_style_gen.h **** static inline const void * lv_obj_get_style_bg_img_src(const struct _lv_obj_t * obj, uint32_t part)
 242:Middlewares/lvgl/src/core/lv_obj_style_gen.h **** {
 243:Middlewares/lvgl/src/core/lv_obj_style_gen.h ****     lv_style_value_t v = lv_obj_get_style_prop(obj, part, LV_STYLE_BG_IMG_SRC);
 244:Middlewares/lvgl/src/core/lv_obj_style_gen.h ****     return (const void *)v.ptr;
 245:Middlewares/lvgl/src/core/lv_obj_style_gen.h **** }
 246:Middlewares/lvgl/src/core/lv_obj_style_gen.h **** 
 247:Middlewares/lvgl/src/core/lv_obj_style_gen.h **** static inline lv_opa_t lv_obj_get_style_bg_img_opa(const struct _lv_obj_t * obj, uint32_t part)
 248:Middlewares/lvgl/src/core/lv_obj_style_gen.h **** {
 249:Middlewares/lvgl/src/core/lv_obj_style_gen.h ****     lv_style_value_t v = lv_obj_get_style_prop(obj, part, LV_STYLE_BG_IMG_OPA);
 250:Middlewares/lvgl/src/core/lv_obj_style_gen.h ****     return (lv_opa_t)v.num;
 251:Middlewares/lvgl/src/core/lv_obj_style_gen.h **** }
 252:Middlewares/lvgl/src/core/lv_obj_style_gen.h **** 
 253:Middlewares/lvgl/src/core/lv_obj_style_gen.h **** static inline lv_color_t lv_obj_get_style_bg_img_recolor(const struct _lv_obj_t * obj, uint32_t par
 254:Middlewares/lvgl/src/core/lv_obj_style_gen.h **** {
 255:Middlewares/lvgl/src/core/lv_obj_style_gen.h ****     lv_style_value_t v = lv_obj_get_style_prop(obj, part, LV_STYLE_BG_IMG_RECOLOR);
 256:Middlewares/lvgl/src/core/lv_obj_style_gen.h ****     return v.color;
 257:Middlewares/lvgl/src/core/lv_obj_style_gen.h **** }
 258:Middlewares/lvgl/src/core/lv_obj_style_gen.h **** 
 259:Middlewares/lvgl/src/core/lv_obj_style_gen.h **** static inline lv_color_t lv_obj_get_style_bg_img_recolor_filtered(const struct _lv_obj_t * obj, uin
 260:Middlewares/lvgl/src/core/lv_obj_style_gen.h **** {
 261:Middlewares/lvgl/src/core/lv_obj_style_gen.h ****     lv_style_value_t v = lv_obj_get_style_prop(obj, part, LV_STYLE_BG_IMG_RECOLOR_FILTERED);
 262:Middlewares/lvgl/src/core/lv_obj_style_gen.h ****     return v.color;
 263:Middlewares/lvgl/src/core/lv_obj_style_gen.h **** }
 264:Middlewares/lvgl/src/core/lv_obj_style_gen.h **** 
 265:Middlewares/lvgl/src/core/lv_obj_style_gen.h **** static inline lv_opa_t lv_obj_get_style_bg_img_recolor_opa(const struct _lv_obj_t * obj, uint32_t p
 266:Middlewares/lvgl/src/core/lv_obj_style_gen.h **** {
 267:Middlewares/lvgl/src/core/lv_obj_style_gen.h ****     lv_style_value_t v = lv_obj_get_style_prop(obj, part, LV_STYLE_BG_IMG_RECOLOR_OPA);
 268:Middlewares/lvgl/src/core/lv_obj_style_gen.h ****     return (lv_opa_t)v.num;
 269:Middlewares/lvgl/src/core/lv_obj_style_gen.h **** }
 270:Middlewares/lvgl/src/core/lv_obj_style_gen.h **** 
 271:Middlewares/lvgl/src/core/lv_obj_style_gen.h **** static inline bool lv_obj_get_style_bg_img_tiled(const struct _lv_obj_t * obj, uint32_t part)
 272:Middlewares/lvgl/src/core/lv_obj_style_gen.h **** {
 273:Middlewares/lvgl/src/core/lv_obj_style_gen.h ****     lv_style_value_t v = lv_obj_get_style_prop(obj, part, LV_STYLE_BG_IMG_TILED);
 274:Middlewares/lvgl/src/core/lv_obj_style_gen.h ****     return (bool)v.num;
 275:Middlewares/lvgl/src/core/lv_obj_style_gen.h **** }
 276:Middlewares/lvgl/src/core/lv_obj_style_gen.h **** 
 277:Middlewares/lvgl/src/core/lv_obj_style_gen.h **** static inline lv_color_t lv_obj_get_style_border_color(const struct _lv_obj_t * obj, uint32_t part)
 278:Middlewares/lvgl/src/core/lv_obj_style_gen.h **** {
 279:Middlewares/lvgl/src/core/lv_obj_style_gen.h ****     lv_style_value_t v = lv_obj_get_style_prop(obj, part, LV_STYLE_BORDER_COLOR);
 280:Middlewares/lvgl/src/core/lv_obj_style_gen.h ****     return v.color;
 281:Middlewares/lvgl/src/core/lv_obj_style_gen.h **** }
 282:Middlewares/lvgl/src/core/lv_obj_style_gen.h **** 
 283:Middlewares/lvgl/src/core/lv_obj_style_gen.h **** static inline lv_color_t lv_obj_get_style_border_color_filtered(const struct _lv_obj_t * obj, uint3
 284:Middlewares/lvgl/src/core/lv_obj_style_gen.h **** {
ARM GAS  /tmp/ccyhZZXZ.s 			page 24


 285:Middlewares/lvgl/src/core/lv_obj_style_gen.h ****     lv_style_value_t v = lv_obj_get_style_prop(obj, part, LV_STYLE_BORDER_COLOR_FILTERED);
 286:Middlewares/lvgl/src/core/lv_obj_style_gen.h ****     return v.color;
 287:Middlewares/lvgl/src/core/lv_obj_style_gen.h **** }
 288:Middlewares/lvgl/src/core/lv_obj_style_gen.h **** 
 289:Middlewares/lvgl/src/core/lv_obj_style_gen.h **** static inline lv_opa_t lv_obj_get_style_border_opa(const struct _lv_obj_t * obj, uint32_t part)
 184              		.loc 2 289 24 view .LVU46
 185              	.LBB99:
 290:Middlewares/lvgl/src/core/lv_obj_style_gen.h **** {
 291:Middlewares/lvgl/src/core/lv_obj_style_gen.h ****     lv_style_value_t v = lv_obj_get_style_prop(obj, part, LV_STYLE_BORDER_OPA);
 186              		.loc 2 291 5 view .LVU47
 187              		.loc 2 291 26 is_stmt 0 view .LVU48
 188 0020 3122     		movs	r2, #49
 189 0022 4FF48031 		mov	r1, #65536
 190 0026 2846     		mov	r0, r5
 191 0028 FFF7FEFF 		bl	lv_obj_get_style_prop
 192              	.LVL16:
 292:Middlewares/lvgl/src/core/lv_obj_style_gen.h ****     return (lv_opa_t)v.num;
 193              		.loc 2 292 5 is_stmt 1 view .LVU49
 194              		.loc 2 292 12 is_stmt 0 view .LVU50
 195 002c C0B2     		uxtb	r0, r0
 196              	.LVL17:
 197              		.loc 2 292 12 view .LVU51
 198              	.LBE99:
 199              	.LBE98:
 588:Middlewares/lvgl/src/core/lv_obj.c ****     if(dsc->border_opa > LV_OPA_MIN) {
 200              		.loc 1 588 21 view .LVU52
 201 002e A077     		strb	r0, [r4, #30]
 589:Middlewares/lvgl/src/core/lv_obj.c ****         dsc->border_width = lv_obj_get_style_border_width(obj, LV_PART_SCROLLBAR);
 202              		.loc 1 589 5 is_stmt 1 view .LVU53
 589:Middlewares/lvgl/src/core/lv_obj.c ****         dsc->border_width = lv_obj_get_style_border_width(obj, LV_PART_SCROLLBAR);
 203              		.loc 1 589 7 is_stmt 0 view .LVU54
 204 0030 0228     		cmp	r0, #2
 205 0032 39D8     		bhi	.L22
 206              	.L13:
 599:Middlewares/lvgl/src/core/lv_obj.c ****     if(dsc->shadow_opa > LV_OPA_MIN) {
 207              		.loc 1 599 5 is_stmt 1 view .LVU55
 208              	.LVL18:
 209              	.LBB100:
 210              	.LBI100:
 293:Middlewares/lvgl/src/core/lv_obj_style_gen.h **** }
 294:Middlewares/lvgl/src/core/lv_obj_style_gen.h **** 
 295:Middlewares/lvgl/src/core/lv_obj_style_gen.h **** static inline lv_coord_t lv_obj_get_style_border_width(const struct _lv_obj_t * obj, uint32_t part)
 296:Middlewares/lvgl/src/core/lv_obj_style_gen.h **** {
 297:Middlewares/lvgl/src/core/lv_obj_style_gen.h ****     lv_style_value_t v = lv_obj_get_style_prop(obj, part, LV_STYLE_BORDER_WIDTH);
 298:Middlewares/lvgl/src/core/lv_obj_style_gen.h ****     return (lv_coord_t)v.num;
 299:Middlewares/lvgl/src/core/lv_obj_style_gen.h **** }
 300:Middlewares/lvgl/src/core/lv_obj_style_gen.h **** 
 301:Middlewares/lvgl/src/core/lv_obj_style_gen.h **** static inline lv_border_side_t lv_obj_get_style_border_side(const struct _lv_obj_t * obj, uint32_t 
 302:Middlewares/lvgl/src/core/lv_obj_style_gen.h **** {
 303:Middlewares/lvgl/src/core/lv_obj_style_gen.h ****     lv_style_value_t v = lv_obj_get_style_prop(obj, part, LV_STYLE_BORDER_SIDE);
 304:Middlewares/lvgl/src/core/lv_obj_style_gen.h ****     return (lv_border_side_t)v.num;
 305:Middlewares/lvgl/src/core/lv_obj_style_gen.h **** }
 306:Middlewares/lvgl/src/core/lv_obj_style_gen.h **** 
 307:Middlewares/lvgl/src/core/lv_obj_style_gen.h **** static inline bool lv_obj_get_style_border_post(const struct _lv_obj_t * obj, uint32_t part)
 308:Middlewares/lvgl/src/core/lv_obj_style_gen.h **** {
 309:Middlewares/lvgl/src/core/lv_obj_style_gen.h ****     lv_style_value_t v = lv_obj_get_style_prop(obj, part, LV_STYLE_BORDER_POST);
 310:Middlewares/lvgl/src/core/lv_obj_style_gen.h ****     return (bool)v.num;
ARM GAS  /tmp/ccyhZZXZ.s 			page 25


 311:Middlewares/lvgl/src/core/lv_obj_style_gen.h **** }
 312:Middlewares/lvgl/src/core/lv_obj_style_gen.h **** 
 313:Middlewares/lvgl/src/core/lv_obj_style_gen.h **** static inline lv_color_t lv_obj_get_style_text_color(const struct _lv_obj_t * obj, uint32_t part)
 314:Middlewares/lvgl/src/core/lv_obj_style_gen.h **** {
 315:Middlewares/lvgl/src/core/lv_obj_style_gen.h ****     lv_style_value_t v = lv_obj_get_style_prop(obj, part, LV_STYLE_TEXT_COLOR);
 316:Middlewares/lvgl/src/core/lv_obj_style_gen.h ****     return v.color;
 317:Middlewares/lvgl/src/core/lv_obj_style_gen.h **** }
 318:Middlewares/lvgl/src/core/lv_obj_style_gen.h **** 
 319:Middlewares/lvgl/src/core/lv_obj_style_gen.h **** static inline lv_color_t lv_obj_get_style_text_color_filtered(const struct _lv_obj_t * obj, uint32_
 320:Middlewares/lvgl/src/core/lv_obj_style_gen.h **** {
 321:Middlewares/lvgl/src/core/lv_obj_style_gen.h ****     lv_style_value_t v = lv_obj_get_style_prop(obj, part, LV_STYLE_TEXT_COLOR_FILTERED);
 322:Middlewares/lvgl/src/core/lv_obj_style_gen.h ****     return v.color;
 323:Middlewares/lvgl/src/core/lv_obj_style_gen.h **** }
 324:Middlewares/lvgl/src/core/lv_obj_style_gen.h **** 
 325:Middlewares/lvgl/src/core/lv_obj_style_gen.h **** static inline lv_opa_t lv_obj_get_style_text_opa(const struct _lv_obj_t * obj, uint32_t part)
 326:Middlewares/lvgl/src/core/lv_obj_style_gen.h **** {
 327:Middlewares/lvgl/src/core/lv_obj_style_gen.h ****     lv_style_value_t v = lv_obj_get_style_prop(obj, part, LV_STYLE_TEXT_OPA);
 328:Middlewares/lvgl/src/core/lv_obj_style_gen.h ****     return (lv_opa_t)v.num;
 329:Middlewares/lvgl/src/core/lv_obj_style_gen.h **** }
 330:Middlewares/lvgl/src/core/lv_obj_style_gen.h **** 
 331:Middlewares/lvgl/src/core/lv_obj_style_gen.h **** static inline const lv_font_t * lv_obj_get_style_text_font(const struct _lv_obj_t * obj, uint32_t p
 332:Middlewares/lvgl/src/core/lv_obj_style_gen.h **** {
 333:Middlewares/lvgl/src/core/lv_obj_style_gen.h ****     lv_style_value_t v = lv_obj_get_style_prop(obj, part, LV_STYLE_TEXT_FONT);
 334:Middlewares/lvgl/src/core/lv_obj_style_gen.h ****     return (const lv_font_t *)v.ptr;
 335:Middlewares/lvgl/src/core/lv_obj_style_gen.h **** }
 336:Middlewares/lvgl/src/core/lv_obj_style_gen.h **** 
 337:Middlewares/lvgl/src/core/lv_obj_style_gen.h **** static inline lv_coord_t lv_obj_get_style_text_letter_space(const struct _lv_obj_t * obj, uint32_t 
 338:Middlewares/lvgl/src/core/lv_obj_style_gen.h **** {
 339:Middlewares/lvgl/src/core/lv_obj_style_gen.h ****     lv_style_value_t v = lv_obj_get_style_prop(obj, part, LV_STYLE_TEXT_LETTER_SPACE);
 340:Middlewares/lvgl/src/core/lv_obj_style_gen.h ****     return (lv_coord_t)v.num;
 341:Middlewares/lvgl/src/core/lv_obj_style_gen.h **** }
 342:Middlewares/lvgl/src/core/lv_obj_style_gen.h **** 
 343:Middlewares/lvgl/src/core/lv_obj_style_gen.h **** static inline lv_coord_t lv_obj_get_style_text_line_space(const struct _lv_obj_t * obj, uint32_t pa
 344:Middlewares/lvgl/src/core/lv_obj_style_gen.h **** {
 345:Middlewares/lvgl/src/core/lv_obj_style_gen.h ****     lv_style_value_t v = lv_obj_get_style_prop(obj, part, LV_STYLE_TEXT_LINE_SPACE);
 346:Middlewares/lvgl/src/core/lv_obj_style_gen.h ****     return (lv_coord_t)v.num;
 347:Middlewares/lvgl/src/core/lv_obj_style_gen.h **** }
 348:Middlewares/lvgl/src/core/lv_obj_style_gen.h **** 
 349:Middlewares/lvgl/src/core/lv_obj_style_gen.h **** static inline lv_text_decor_t lv_obj_get_style_text_decor(const struct _lv_obj_t * obj, uint32_t pa
 350:Middlewares/lvgl/src/core/lv_obj_style_gen.h **** {
 351:Middlewares/lvgl/src/core/lv_obj_style_gen.h ****     lv_style_value_t v = lv_obj_get_style_prop(obj, part, LV_STYLE_TEXT_DECOR);
 352:Middlewares/lvgl/src/core/lv_obj_style_gen.h ****     return (lv_text_decor_t)v.num;
 353:Middlewares/lvgl/src/core/lv_obj_style_gen.h **** }
 354:Middlewares/lvgl/src/core/lv_obj_style_gen.h **** 
 355:Middlewares/lvgl/src/core/lv_obj_style_gen.h **** static inline lv_text_align_t lv_obj_get_style_text_align(const struct _lv_obj_t * obj, uint32_t pa
 356:Middlewares/lvgl/src/core/lv_obj_style_gen.h **** {
 357:Middlewares/lvgl/src/core/lv_obj_style_gen.h ****     lv_style_value_t v = lv_obj_get_style_prop(obj, part, LV_STYLE_TEXT_ALIGN);
 358:Middlewares/lvgl/src/core/lv_obj_style_gen.h ****     return (lv_text_align_t)v.num;
 359:Middlewares/lvgl/src/core/lv_obj_style_gen.h **** }
 360:Middlewares/lvgl/src/core/lv_obj_style_gen.h **** 
 361:Middlewares/lvgl/src/core/lv_obj_style_gen.h **** static inline lv_opa_t lv_obj_get_style_img_opa(const struct _lv_obj_t * obj, uint32_t part)
 362:Middlewares/lvgl/src/core/lv_obj_style_gen.h **** {
 363:Middlewares/lvgl/src/core/lv_obj_style_gen.h ****     lv_style_value_t v = lv_obj_get_style_prop(obj, part, LV_STYLE_IMG_OPA);
 364:Middlewares/lvgl/src/core/lv_obj_style_gen.h ****     return (lv_opa_t)v.num;
 365:Middlewares/lvgl/src/core/lv_obj_style_gen.h **** }
 366:Middlewares/lvgl/src/core/lv_obj_style_gen.h **** 
 367:Middlewares/lvgl/src/core/lv_obj_style_gen.h **** static inline lv_color_t lv_obj_get_style_img_recolor(const struct _lv_obj_t * obj, uint32_t part)
ARM GAS  /tmp/ccyhZZXZ.s 			page 26


 368:Middlewares/lvgl/src/core/lv_obj_style_gen.h **** {
 369:Middlewares/lvgl/src/core/lv_obj_style_gen.h ****     lv_style_value_t v = lv_obj_get_style_prop(obj, part, LV_STYLE_IMG_RECOLOR);
 370:Middlewares/lvgl/src/core/lv_obj_style_gen.h ****     return v.color;
 371:Middlewares/lvgl/src/core/lv_obj_style_gen.h **** }
 372:Middlewares/lvgl/src/core/lv_obj_style_gen.h **** 
 373:Middlewares/lvgl/src/core/lv_obj_style_gen.h **** static inline lv_color_t lv_obj_get_style_img_recolor_filtered(const struct _lv_obj_t * obj, uint32
 374:Middlewares/lvgl/src/core/lv_obj_style_gen.h **** {
 375:Middlewares/lvgl/src/core/lv_obj_style_gen.h ****     lv_style_value_t v = lv_obj_get_style_prop(obj, part, LV_STYLE_IMG_RECOLOR_FILTERED);
 376:Middlewares/lvgl/src/core/lv_obj_style_gen.h ****     return v.color;
 377:Middlewares/lvgl/src/core/lv_obj_style_gen.h **** }
 378:Middlewares/lvgl/src/core/lv_obj_style_gen.h **** 
 379:Middlewares/lvgl/src/core/lv_obj_style_gen.h **** static inline lv_opa_t lv_obj_get_style_img_recolor_opa(const struct _lv_obj_t * obj, uint32_t part
 380:Middlewares/lvgl/src/core/lv_obj_style_gen.h **** {
 381:Middlewares/lvgl/src/core/lv_obj_style_gen.h ****     lv_style_value_t v = lv_obj_get_style_prop(obj, part, LV_STYLE_IMG_RECOLOR_OPA);
 382:Middlewares/lvgl/src/core/lv_obj_style_gen.h ****     return (lv_opa_t)v.num;
 383:Middlewares/lvgl/src/core/lv_obj_style_gen.h **** }
 384:Middlewares/lvgl/src/core/lv_obj_style_gen.h **** 
 385:Middlewares/lvgl/src/core/lv_obj_style_gen.h **** static inline lv_coord_t lv_obj_get_style_outline_width(const struct _lv_obj_t * obj, uint32_t part
 386:Middlewares/lvgl/src/core/lv_obj_style_gen.h **** {
 387:Middlewares/lvgl/src/core/lv_obj_style_gen.h ****     lv_style_value_t v = lv_obj_get_style_prop(obj, part, LV_STYLE_OUTLINE_WIDTH);
 388:Middlewares/lvgl/src/core/lv_obj_style_gen.h ****     return (lv_coord_t)v.num;
 389:Middlewares/lvgl/src/core/lv_obj_style_gen.h **** }
 390:Middlewares/lvgl/src/core/lv_obj_style_gen.h **** 
 391:Middlewares/lvgl/src/core/lv_obj_style_gen.h **** static inline lv_color_t lv_obj_get_style_outline_color(const struct _lv_obj_t * obj, uint32_t part
 392:Middlewares/lvgl/src/core/lv_obj_style_gen.h **** {
 393:Middlewares/lvgl/src/core/lv_obj_style_gen.h ****     lv_style_value_t v = lv_obj_get_style_prop(obj, part, LV_STYLE_OUTLINE_COLOR);
 394:Middlewares/lvgl/src/core/lv_obj_style_gen.h ****     return v.color;
 395:Middlewares/lvgl/src/core/lv_obj_style_gen.h **** }
 396:Middlewares/lvgl/src/core/lv_obj_style_gen.h **** 
 397:Middlewares/lvgl/src/core/lv_obj_style_gen.h **** static inline lv_color_t lv_obj_get_style_outline_color_filtered(const struct _lv_obj_t * obj, uint
 398:Middlewares/lvgl/src/core/lv_obj_style_gen.h **** {
 399:Middlewares/lvgl/src/core/lv_obj_style_gen.h ****     lv_style_value_t v = lv_obj_get_style_prop(obj, part, LV_STYLE_OUTLINE_COLOR_FILTERED);
 400:Middlewares/lvgl/src/core/lv_obj_style_gen.h ****     return v.color;
 401:Middlewares/lvgl/src/core/lv_obj_style_gen.h **** }
 402:Middlewares/lvgl/src/core/lv_obj_style_gen.h **** 
 403:Middlewares/lvgl/src/core/lv_obj_style_gen.h **** static inline lv_opa_t lv_obj_get_style_outline_opa(const struct _lv_obj_t * obj, uint32_t part)
 404:Middlewares/lvgl/src/core/lv_obj_style_gen.h **** {
 405:Middlewares/lvgl/src/core/lv_obj_style_gen.h ****     lv_style_value_t v = lv_obj_get_style_prop(obj, part, LV_STYLE_OUTLINE_OPA);
 406:Middlewares/lvgl/src/core/lv_obj_style_gen.h ****     return (lv_opa_t)v.num;
 407:Middlewares/lvgl/src/core/lv_obj_style_gen.h **** }
 408:Middlewares/lvgl/src/core/lv_obj_style_gen.h **** 
 409:Middlewares/lvgl/src/core/lv_obj_style_gen.h **** static inline lv_coord_t lv_obj_get_style_outline_pad(const struct _lv_obj_t * obj, uint32_t part)
 410:Middlewares/lvgl/src/core/lv_obj_style_gen.h **** {
 411:Middlewares/lvgl/src/core/lv_obj_style_gen.h ****     lv_style_value_t v = lv_obj_get_style_prop(obj, part, LV_STYLE_OUTLINE_PAD);
 412:Middlewares/lvgl/src/core/lv_obj_style_gen.h ****     return (lv_coord_t)v.num;
 413:Middlewares/lvgl/src/core/lv_obj_style_gen.h **** }
 414:Middlewares/lvgl/src/core/lv_obj_style_gen.h **** 
 415:Middlewares/lvgl/src/core/lv_obj_style_gen.h **** static inline lv_coord_t lv_obj_get_style_shadow_width(const struct _lv_obj_t * obj, uint32_t part)
 416:Middlewares/lvgl/src/core/lv_obj_style_gen.h **** {
 417:Middlewares/lvgl/src/core/lv_obj_style_gen.h ****     lv_style_value_t v = lv_obj_get_style_prop(obj, part, LV_STYLE_SHADOW_WIDTH);
 418:Middlewares/lvgl/src/core/lv_obj_style_gen.h ****     return (lv_coord_t)v.num;
 419:Middlewares/lvgl/src/core/lv_obj_style_gen.h **** }
 420:Middlewares/lvgl/src/core/lv_obj_style_gen.h **** 
 421:Middlewares/lvgl/src/core/lv_obj_style_gen.h **** static inline lv_coord_t lv_obj_get_style_shadow_ofs_x(const struct _lv_obj_t * obj, uint32_t part)
 422:Middlewares/lvgl/src/core/lv_obj_style_gen.h **** {
 423:Middlewares/lvgl/src/core/lv_obj_style_gen.h ****     lv_style_value_t v = lv_obj_get_style_prop(obj, part, LV_STYLE_SHADOW_OFS_X);
 424:Middlewares/lvgl/src/core/lv_obj_style_gen.h ****     return (lv_coord_t)v.num;
ARM GAS  /tmp/ccyhZZXZ.s 			page 27


 425:Middlewares/lvgl/src/core/lv_obj_style_gen.h **** }
 426:Middlewares/lvgl/src/core/lv_obj_style_gen.h **** 
 427:Middlewares/lvgl/src/core/lv_obj_style_gen.h **** static inline lv_coord_t lv_obj_get_style_shadow_ofs_y(const struct _lv_obj_t * obj, uint32_t part)
 428:Middlewares/lvgl/src/core/lv_obj_style_gen.h **** {
 429:Middlewares/lvgl/src/core/lv_obj_style_gen.h ****     lv_style_value_t v = lv_obj_get_style_prop(obj, part, LV_STYLE_SHADOW_OFS_Y);
 430:Middlewares/lvgl/src/core/lv_obj_style_gen.h ****     return (lv_coord_t)v.num;
 431:Middlewares/lvgl/src/core/lv_obj_style_gen.h **** }
 432:Middlewares/lvgl/src/core/lv_obj_style_gen.h **** 
 433:Middlewares/lvgl/src/core/lv_obj_style_gen.h **** static inline lv_coord_t lv_obj_get_style_shadow_spread(const struct _lv_obj_t * obj, uint32_t part
 434:Middlewares/lvgl/src/core/lv_obj_style_gen.h **** {
 435:Middlewares/lvgl/src/core/lv_obj_style_gen.h ****     lv_style_value_t v = lv_obj_get_style_prop(obj, part, LV_STYLE_SHADOW_SPREAD);
 436:Middlewares/lvgl/src/core/lv_obj_style_gen.h ****     return (lv_coord_t)v.num;
 437:Middlewares/lvgl/src/core/lv_obj_style_gen.h **** }
 438:Middlewares/lvgl/src/core/lv_obj_style_gen.h **** 
 439:Middlewares/lvgl/src/core/lv_obj_style_gen.h **** static inline lv_color_t lv_obj_get_style_shadow_color(const struct _lv_obj_t * obj, uint32_t part)
 440:Middlewares/lvgl/src/core/lv_obj_style_gen.h **** {
 441:Middlewares/lvgl/src/core/lv_obj_style_gen.h ****     lv_style_value_t v = lv_obj_get_style_prop(obj, part, LV_STYLE_SHADOW_COLOR);
 442:Middlewares/lvgl/src/core/lv_obj_style_gen.h ****     return v.color;
 443:Middlewares/lvgl/src/core/lv_obj_style_gen.h **** }
 444:Middlewares/lvgl/src/core/lv_obj_style_gen.h **** 
 445:Middlewares/lvgl/src/core/lv_obj_style_gen.h **** static inline lv_color_t lv_obj_get_style_shadow_color_filtered(const struct _lv_obj_t * obj, uint3
 446:Middlewares/lvgl/src/core/lv_obj_style_gen.h **** {
 447:Middlewares/lvgl/src/core/lv_obj_style_gen.h ****     lv_style_value_t v = lv_obj_get_style_prop(obj, part, LV_STYLE_SHADOW_COLOR_FILTERED);
 448:Middlewares/lvgl/src/core/lv_obj_style_gen.h ****     return v.color;
 449:Middlewares/lvgl/src/core/lv_obj_style_gen.h **** }
 450:Middlewares/lvgl/src/core/lv_obj_style_gen.h **** 
 451:Middlewares/lvgl/src/core/lv_obj_style_gen.h **** static inline lv_opa_t lv_obj_get_style_shadow_opa(const struct _lv_obj_t * obj, uint32_t part)
 211              		.loc 2 451 24 view .LVU56
 212              	.LBB101:
 452:Middlewares/lvgl/src/core/lv_obj_style_gen.h **** {
 453:Middlewares/lvgl/src/core/lv_obj_style_gen.h ****     lv_style_value_t v = lv_obj_get_style_prop(obj, part, LV_STYLE_SHADOW_OPA);
 213              		.loc 2 453 5 view .LVU57
 214              		.loc 2 453 26 is_stmt 0 view .LVU58
 215 0034 40F64502 		movw	r2, #2117
 216 0038 4FF48031 		mov	r1, #65536
 217 003c 2846     		mov	r0, r5
 218 003e FFF7FEFF 		bl	lv_obj_get_style_prop
 219              	.LVL19:
 454:Middlewares/lvgl/src/core/lv_obj_style_gen.h ****     return (lv_opa_t)v.num;
 220              		.loc 2 454 5 is_stmt 1 view .LVU59
 221              		.loc 2 454 12 is_stmt 0 view .LVU60
 222 0042 C0B2     		uxtb	r0, r0
 223              	.LVL20:
 224              		.loc 2 454 12 view .LVU61
 225              	.LBE101:
 226              	.LBE100:
 599:Middlewares/lvgl/src/core/lv_obj.c ****     if(dsc->shadow_opa > LV_OPA_MIN) {
 227              		.loc 1 599 21 view .LVU62
 228 0044 84F83200 		strb	r0, [r4, #50]
 600:Middlewares/lvgl/src/core/lv_obj.c ****         dsc->shadow_width = lv_obj_get_style_shadow_width(obj, LV_PART_SCROLLBAR);
 229              		.loc 1 600 5 is_stmt 1 view .LVU63
 600:Middlewares/lvgl/src/core/lv_obj.c ****         dsc->shadow_width = lv_obj_get_style_shadow_width(obj, LV_PART_SCROLLBAR);
 230              		.loc 1 600 7 is_stmt 0 view .LVU64
 231 0048 0228     		cmp	r0, #2
 232 004a 43D8     		bhi	.L23
 233              	.L15:
 610:Middlewares/lvgl/src/core/lv_obj.c ****     if(opa < LV_OPA_MAX) {
ARM GAS  /tmp/ccyhZZXZ.s 			page 28


 234              		.loc 1 610 5 is_stmt 1 view .LVU65
 235              	.LVL21:
 236              	.LBB102:
 237              	.LBI102:
 139:Middlewares/lvgl/src/core/lv_obj_style_gen.h **** {
 238              		.loc 2 139 24 view .LVU66
 239              	.LBB103:
 141:Middlewares/lvgl/src/core/lv_obj_style_gen.h ****     return (lv_opa_t)v.num;
 240              		.loc 2 141 5 view .LVU67
 141:Middlewares/lvgl/src/core/lv_obj_style_gen.h ****     return (lv_opa_t)v.num;
 241              		.loc 2 141 26 is_stmt 0 view .LVU68
 242 004c 40F26242 		movw	r2, #1122
 243 0050 4FF48031 		mov	r1, #65536
 244 0054 2846     		mov	r0, r5
 245 0056 FFF7FEFF 		bl	lv_obj_get_style_prop
 246              	.LVL22:
 142:Middlewares/lvgl/src/core/lv_obj_style_gen.h **** }
 247              		.loc 2 142 5 is_stmt 1 view .LVU69
 142:Middlewares/lvgl/src/core/lv_obj_style_gen.h **** }
 248              		.loc 2 142 12 is_stmt 0 view .LVU70
 249 005a C3B2     		uxtb	r3, r0
 250              	.LVL23:
 142:Middlewares/lvgl/src/core/lv_obj_style_gen.h **** }
 251              		.loc 2 142 12 view .LVU71
 252              	.LBE103:
 253              	.LBE102:
 611:Middlewares/lvgl/src/core/lv_obj.c ****         dsc->bg_opa = (dsc->bg_opa * opa) >> 8;
 254              		.loc 1 611 5 is_stmt 1 view .LVU72
 611:Middlewares/lvgl/src/core/lv_obj.c ****         dsc->bg_opa = (dsc->bg_opa * opa) >> 8;
 255              		.loc 1 611 7 is_stmt 0 view .LVU73
 256 005c FC2B     		cmp	r3, #252
 257 005e 0BD8     		bhi	.L17
 612:Middlewares/lvgl/src/core/lv_obj.c ****         dsc->border_opa = (dsc->bg_opa * opa) >> 8;
 258              		.loc 1 612 9 is_stmt 1 view .LVU74
 612:Middlewares/lvgl/src/core/lv_obj.c ****         dsc->border_opa = (dsc->bg_opa * opa) >> 8;
 259              		.loc 1 612 27 is_stmt 0 view .LVU75
 260 0060 A37A     		ldrb	r3, [r4, #10]	@ zero_extendqisi2
 261              	.LVL24:
 612:Middlewares/lvgl/src/core/lv_obj.c ****         dsc->border_opa = (dsc->bg_opa * opa) >> 8;
 262              		.loc 1 612 27 view .LVU76
 263 0062 C0B2     		uxtb	r0, r0
 612:Middlewares/lvgl/src/core/lv_obj.c ****         dsc->border_opa = (dsc->bg_opa * opa) >> 8;
 264              		.loc 1 612 36 view .LVU77
 265 0064 00FB03F3 		mul	r3, r0, r3
 612:Middlewares/lvgl/src/core/lv_obj.c ****         dsc->border_opa = (dsc->bg_opa * opa) >> 8;
 266              		.loc 1 612 21 view .LVU78
 267 0068 1B0A     		lsrs	r3, r3, #8
 268 006a A372     		strb	r3, [r4, #10]
 613:Middlewares/lvgl/src/core/lv_obj.c ****         dsc->shadow_opa = (dsc->bg_opa * opa) >> 8;
 269              		.loc 1 613 9 is_stmt 1 view .LVU79
 613:Middlewares/lvgl/src/core/lv_obj.c ****         dsc->shadow_opa = (dsc->bg_opa * opa) >> 8;
 270              		.loc 1 613 40 is_stmt 0 view .LVU80
 271 006c 00FB03F3 		mul	r3, r0, r3
 613:Middlewares/lvgl/src/core/lv_obj.c ****         dsc->shadow_opa = (dsc->bg_opa * opa) >> 8;
 272              		.loc 1 613 25 view .LVU81
 273 0070 1B0A     		lsrs	r3, r3, #8
 274 0072 A377     		strb	r3, [r4, #30]
ARM GAS  /tmp/ccyhZZXZ.s 			page 29


 614:Middlewares/lvgl/src/core/lv_obj.c ****     }
 275              		.loc 1 614 9 is_stmt 1 view .LVU82
 614:Middlewares/lvgl/src/core/lv_obj.c ****     }
 276              		.loc 1 614 25 is_stmt 0 view .LVU83
 277 0074 84F83230 		strb	r3, [r4, #50]
 278              	.LVL25:
 279              	.L17:
 617:Middlewares/lvgl/src/core/lv_obj.c ****         dsc->radius = lv_obj_get_style_radius(obj, LV_PART_SCROLLBAR);
 280              		.loc 1 617 5 is_stmt 1 view .LVU84
 617:Middlewares/lvgl/src/core/lv_obj.c ****         dsc->radius = lv_obj_get_style_radius(obj, LV_PART_SCROLLBAR);
 281              		.loc 1 617 11 is_stmt 0 view .LVU85
 282 0078 A37A     		ldrb	r3, [r4, #10]	@ zero_extendqisi2
 617:Middlewares/lvgl/src/core/lv_obj.c ****         dsc->radius = lv_obj_get_style_radius(obj, LV_PART_SCROLLBAR);
 283              		.loc 1 617 7 view .LVU86
 284 007a 23B9     		cbnz	r3, .L18
 617:Middlewares/lvgl/src/core/lv_obj.c ****         dsc->radius = lv_obj_get_style_radius(obj, LV_PART_SCROLLBAR);
 285              		.loc 1 617 43 discriminator 1 view .LVU87
 286 007c A37F     		ldrb	r3, [r4, #30]	@ zero_extendqisi2
 617:Middlewares/lvgl/src/core/lv_obj.c ****         dsc->radius = lv_obj_get_style_radius(obj, LV_PART_SCROLLBAR);
 287              		.loc 1 617 37 discriminator 1 view .LVU88
 288 007e 13B9     		cbnz	r3, .L18
 617:Middlewares/lvgl/src/core/lv_obj.c ****         dsc->radius = lv_obj_get_style_radius(obj, LV_PART_SCROLLBAR);
 289              		.loc 1 617 79 discriminator 2 view .LVU89
 290 0080 94F83200 		ldrb	r0, [r4, #50]	@ zero_extendqisi2
 617:Middlewares/lvgl/src/core/lv_obj.c ****         dsc->radius = lv_obj_get_style_radius(obj, LV_PART_SCROLLBAR);
 291              		.loc 1 617 73 discriminator 2 view .LVU90
 292 0084 38B1     		cbz	r0, .L19
 293              	.L18:
 618:Middlewares/lvgl/src/core/lv_obj.c ****         return LV_RES_OK;
 294              		.loc 1 618 9 is_stmt 1 view .LVU91
 295              	.LVL26:
 296              	.LBB104:
 297              	.LBI104:
 127:Middlewares/lvgl/src/core/lv_obj_style_gen.h **** {
 298              		.loc 2 127 26 view .LVU92
 299              	.LBB105:
 129:Middlewares/lvgl/src/core/lv_obj_style_gen.h ****     return (lv_coord_t)v.num;
 300              		.loc 2 129 5 view .LVU93
 129:Middlewares/lvgl/src/core/lv_obj_style_gen.h ****     return (lv_coord_t)v.num;
 301              		.loc 2 129 26 is_stmt 0 view .LVU94
 302 0086 6022     		movs	r2, #96
 303 0088 4FF48031 		mov	r1, #65536
 304 008c 2846     		mov	r0, r5
 305 008e FFF7FEFF 		bl	lv_obj_get_style_prop
 306              	.LVL27:
 130:Middlewares/lvgl/src/core/lv_obj_style_gen.h **** }
 307              		.loc 2 130 5 is_stmt 1 view .LVU95
 130:Middlewares/lvgl/src/core/lv_obj_style_gen.h **** }
 308              		.loc 2 130 5 is_stmt 0 view .LVU96
 309              	.LBE105:
 310              	.LBE104:
 618:Middlewares/lvgl/src/core/lv_obj.c ****         return LV_RES_OK;
 311              		.loc 1 618 21 view .LVU97
 312 0092 2080     		strh	r0, [r4]	@ movhi
 619:Middlewares/lvgl/src/core/lv_obj.c ****     } else {
 313              		.loc 1 619 9 is_stmt 1 view .LVU98
 619:Middlewares/lvgl/src/core/lv_obj.c ****     } else {
ARM GAS  /tmp/ccyhZZXZ.s 			page 30


 314              		.loc 1 619 16 is_stmt 0 view .LVU99
 315 0094 0120     		movs	r0, #1
 316              	.L19:
 627:Middlewares/lvgl/src/core/lv_obj.c **** 
 317              		.loc 1 627 1 view .LVU100
 318 0096 38BD     		pop	{r3, r4, r5, pc}
 319              	.LVL28:
 320              	.L21:
 585:Middlewares/lvgl/src/core/lv_obj.c ****     }
 321              		.loc 1 585 9 is_stmt 1 view .LVU101
 322              	.LBB106:
 323              	.LBI106:
 193:Middlewares/lvgl/src/core/lv_obj_style_gen.h **** {
 324              		.loc 2 193 26 view .LVU102
 325              	.LBB107:
 195:Middlewares/lvgl/src/core/lv_obj_style_gen.h ****     return v.color;
 326              		.loc 2 195 5 view .LVU103
 195:Middlewares/lvgl/src/core/lv_obj_style_gen.h ****     return v.color;
 327              		.loc 2 195 26 is_stmt 0 view .LVU104
 328 0098 2022     		movs	r2, #32
 329 009a 4FF48031 		mov	r1, #65536
 330 009e 2846     		mov	r0, r5
 331 00a0 FFF7FEFF 		bl	lv_obj_get_style_prop
 332              	.LVL29:
 196:Middlewares/lvgl/src/core/lv_obj_style_gen.h **** }
 333              		.loc 2 196 5 is_stmt 1 view .LVU105
 196:Middlewares/lvgl/src/core/lv_obj_style_gen.h **** }
 334              		.loc 2 196 5 is_stmt 0 view .LVU106
 335              	.LBE107:
 336              	.LBE106:
 585:Middlewares/lvgl/src/core/lv_obj.c ****     }
 337              		.loc 1 585 25 view .LVU107
 338 00a4 A080     		strh	r0, [r4, #4]	@ movhi
 339 00a6 BBE7     		b	.L12
 340              	.L22:
 590:Middlewares/lvgl/src/core/lv_obj.c ****         if(dsc->border_width > 0) {
 341              		.loc 1 590 9 is_stmt 1 view .LVU108
 342              	.LVL30:
 343              	.LBB108:
 344              	.LBI108:
 295:Middlewares/lvgl/src/core/lv_obj_style_gen.h **** {
 345              		.loc 2 295 26 view .LVU109
 346              	.LBB109:
 297:Middlewares/lvgl/src/core/lv_obj_style_gen.h ****     return (lv_coord_t)v.num;
 347              		.loc 2 297 5 view .LVU110
 297:Middlewares/lvgl/src/core/lv_obj_style_gen.h ****     return (lv_coord_t)v.num;
 348              		.loc 2 297 26 is_stmt 0 view .LVU111
 349 00a8 41F23202 		movw	r2, #4146
 350 00ac 4FF48031 		mov	r1, #65536
 351 00b0 2846     		mov	r0, r5
 352 00b2 FFF7FEFF 		bl	lv_obj_get_style_prop
 353              	.LVL31:
 298:Middlewares/lvgl/src/core/lv_obj_style_gen.h **** }
 354              		.loc 2 298 5 is_stmt 1 view .LVU112
 298:Middlewares/lvgl/src/core/lv_obj_style_gen.h **** }
 355              		.loc 2 298 12 is_stmt 0 view .LVU113
 356 00b6 00B2     		sxth	r0, r0
ARM GAS  /tmp/ccyhZZXZ.s 			page 31


 357              	.LVL32:
 298:Middlewares/lvgl/src/core/lv_obj_style_gen.h **** }
 358              		.loc 2 298 12 view .LVU114
 359              	.LBE109:
 360              	.LBE108:
 590:Middlewares/lvgl/src/core/lv_obj.c ****         if(dsc->border_width > 0) {
 361              		.loc 1 590 27 view .LVU115
 362 00b8 A083     		strh	r0, [r4, #28]	@ movhi
 591:Middlewares/lvgl/src/core/lv_obj.c ****             dsc->border_color = lv_obj_get_style_border_color(obj, LV_PART_SCROLLBAR);
 363              		.loc 1 591 9 is_stmt 1 view .LVU116
 591:Middlewares/lvgl/src/core/lv_obj.c ****             dsc->border_color = lv_obj_get_style_border_color(obj, LV_PART_SCROLLBAR);
 364              		.loc 1 591 11 is_stmt 0 view .LVU117
 365 00ba 0028     		cmp	r0, #0
 366 00bc 02DC     		bgt	.L24
 594:Middlewares/lvgl/src/core/lv_obj.c ****         }
 367              		.loc 1 594 13 is_stmt 1 view .LVU118
 594:Middlewares/lvgl/src/core/lv_obj.c ****         }
 368              		.loc 1 594 29 is_stmt 0 view .LVU119
 369 00be 0023     		movs	r3, #0
 370 00c0 A377     		strb	r3, [r4, #30]
 371 00c2 B7E7     		b	.L13
 372              	.L24:
 592:Middlewares/lvgl/src/core/lv_obj.c ****         } else {
 373              		.loc 1 592 13 is_stmt 1 view .LVU120
 374              	.LVL33:
 375              	.LBB110:
 376              	.LBI110:
 277:Middlewares/lvgl/src/core/lv_obj_style_gen.h **** {
 377              		.loc 2 277 26 view .LVU121
 378              	.LBB111:
 279:Middlewares/lvgl/src/core/lv_obj_style_gen.h ****     return v.color;
 379              		.loc 2 279 5 view .LVU122
 279:Middlewares/lvgl/src/core/lv_obj_style_gen.h ****     return v.color;
 380              		.loc 2 279 26 is_stmt 0 view .LVU123
 381 00c4 3022     		movs	r2, #48
 382 00c6 4FF48031 		mov	r1, #65536
 383 00ca 2846     		mov	r0, r5
 384 00cc FFF7FEFF 		bl	lv_obj_get_style_prop
 385              	.LVL34:
 280:Middlewares/lvgl/src/core/lv_obj_style_gen.h **** }
 386              		.loc 2 280 5 is_stmt 1 view .LVU124
 280:Middlewares/lvgl/src/core/lv_obj_style_gen.h **** }
 387              		.loc 2 280 5 is_stmt 0 view .LVU125
 388              	.LBE111:
 389              	.LBE110:
 592:Middlewares/lvgl/src/core/lv_obj.c ****         } else {
 390              		.loc 1 592 33 view .LVU126
 391 00d0 6083     		strh	r0, [r4, #26]	@ movhi
 392 00d2 AFE7     		b	.L13
 393              	.L23:
 601:Middlewares/lvgl/src/core/lv_obj.c ****         if(dsc->shadow_width > 0) {
 394              		.loc 1 601 9 is_stmt 1 view .LVU127
 395              	.LVL35:
 396              	.LBB112:
 397              	.LBI112:
 415:Middlewares/lvgl/src/core/lv_obj_style_gen.h **** {
 398              		.loc 2 415 26 view .LVU128
ARM GAS  /tmp/ccyhZZXZ.s 			page 32


 399              	.LBB113:
 417:Middlewares/lvgl/src/core/lv_obj_style_gen.h ****     return (lv_coord_t)v.num;
 400              		.loc 2 417 5 view .LVU129
 417:Middlewares/lvgl/src/core/lv_obj_style_gen.h ****     return (lv_coord_t)v.num;
 401              		.loc 2 417 26 is_stmt 0 view .LVU130
 402 00d4 4FF40462 		mov	r2, #2112
 403 00d8 4FF48031 		mov	r1, #65536
 404 00dc 2846     		mov	r0, r5
 405 00de FFF7FEFF 		bl	lv_obj_get_style_prop
 406              	.LVL36:
 418:Middlewares/lvgl/src/core/lv_obj_style_gen.h **** }
 407              		.loc 2 418 5 is_stmt 1 view .LVU131
 418:Middlewares/lvgl/src/core/lv_obj_style_gen.h **** }
 408              		.loc 2 418 12 is_stmt 0 view .LVU132
 409 00e2 00B2     		sxth	r0, r0
 410              	.LVL37:
 418:Middlewares/lvgl/src/core/lv_obj_style_gen.h **** }
 411              		.loc 2 418 12 view .LVU133
 412              	.LBE113:
 413              	.LBE112:
 601:Middlewares/lvgl/src/core/lv_obj.c ****         if(dsc->shadow_width > 0) {
 414              		.loc 1 601 27 view .LVU134
 415 00e4 6085     		strh	r0, [r4, #42]	@ movhi
 602:Middlewares/lvgl/src/core/lv_obj.c ****             dsc->shadow_spread = lv_obj_get_style_shadow_spread(obj, LV_PART_SCROLLBAR);
 416              		.loc 1 602 9 is_stmt 1 view .LVU135
 602:Middlewares/lvgl/src/core/lv_obj.c ****             dsc->shadow_spread = lv_obj_get_style_shadow_spread(obj, LV_PART_SCROLLBAR);
 417              		.loc 1 602 11 is_stmt 0 view .LVU136
 418 00e6 0028     		cmp	r0, #0
 419 00e8 03DC     		bgt	.L25
 606:Middlewares/lvgl/src/core/lv_obj.c ****         }
 420              		.loc 1 606 13 is_stmt 1 view .LVU137
 606:Middlewares/lvgl/src/core/lv_obj.c ****         }
 421              		.loc 1 606 29 is_stmt 0 view .LVU138
 422 00ea 0023     		movs	r3, #0
 423 00ec 84F83230 		strb	r3, [r4, #50]
 424 00f0 ACE7     		b	.L15
 425              	.L25:
 603:Middlewares/lvgl/src/core/lv_obj.c ****             dsc->shadow_color = lv_obj_get_style_shadow_color(obj, LV_PART_SCROLLBAR);
 426              		.loc 1 603 13 is_stmt 1 view .LVU139
 427              	.LVL38:
 428              	.LBB114:
 429              	.LBI114:
 433:Middlewares/lvgl/src/core/lv_obj_style_gen.h **** {
 430              		.loc 2 433 26 view .LVU140
 431              	.LBB115:
 435:Middlewares/lvgl/src/core/lv_obj_style_gen.h ****     return (lv_coord_t)v.num;
 432              		.loc 2 435 5 view .LVU141
 435:Middlewares/lvgl/src/core/lv_obj_style_gen.h ****     return (lv_coord_t)v.num;
 433              		.loc 2 435 26 is_stmt 0 view .LVU142
 434 00f2 40F64302 		movw	r2, #2115
 435 00f6 4FF48031 		mov	r1, #65536
 436 00fa 2846     		mov	r0, r5
 437 00fc FFF7FEFF 		bl	lv_obj_get_style_prop
 438              	.LVL39:
 436:Middlewares/lvgl/src/core/lv_obj_style_gen.h **** }
 439              		.loc 2 436 5 is_stmt 1 view .LVU143
 436:Middlewares/lvgl/src/core/lv_obj_style_gen.h **** }
ARM GAS  /tmp/ccyhZZXZ.s 			page 33


 440              		.loc 2 436 5 is_stmt 0 view .LVU144
 441              	.LBE115:
 442              	.LBE114:
 603:Middlewares/lvgl/src/core/lv_obj.c ****             dsc->shadow_color = lv_obj_get_style_shadow_color(obj, LV_PART_SCROLLBAR);
 443              		.loc 1 603 32 view .LVU145
 444 0100 2086     		strh	r0, [r4, #48]	@ movhi
 604:Middlewares/lvgl/src/core/lv_obj.c ****         } else {
 445              		.loc 1 604 13 is_stmt 1 view .LVU146
 446              	.LVL40:
 447              	.LBB116:
 448              	.LBI116:
 439:Middlewares/lvgl/src/core/lv_obj_style_gen.h **** {
 449              		.loc 2 439 26 view .LVU147
 450              	.LBB117:
 441:Middlewares/lvgl/src/core/lv_obj_style_gen.h ****     return v.color;
 451              		.loc 2 441 5 view .LVU148
 441:Middlewares/lvgl/src/core/lv_obj_style_gen.h ****     return v.color;
 452              		.loc 2 441 26 is_stmt 0 view .LVU149
 453 0102 4422     		movs	r2, #68
 454 0104 4FF48031 		mov	r1, #65536
 455 0108 2846     		mov	r0, r5
 456 010a FFF7FEFF 		bl	lv_obj_get_style_prop
 457              	.LVL41:
 442:Middlewares/lvgl/src/core/lv_obj_style_gen.h **** }
 458              		.loc 2 442 5 is_stmt 1 view .LVU150
 442:Middlewares/lvgl/src/core/lv_obj_style_gen.h **** }
 459              		.loc 2 442 5 is_stmt 0 view .LVU151
 460              	.LBE117:
 461              	.LBE116:
 604:Middlewares/lvgl/src/core/lv_obj.c ****         } else {
 462              		.loc 1 604 33 view .LVU152
 463 010e 2085     		strh	r0, [r4, #40]	@ movhi
 464 0110 9CE7     		b	.L15
 465              		.cfi_endproc
 466              	.LFE174:
 468              		.section	.text.draw_scrollbar,"ax",%progbits
 469              		.align	1
 470              		.syntax unified
 471              		.thumb
 472              		.thumb_func
 473              		.fpu fpv4-sp-d16
 475              	draw_scrollbar:
 476              	.LVL42:
 477              	.LFB173:
 543:Middlewares/lvgl/src/core/lv_obj.c **** 
 478              		.loc 1 543 1 is_stmt 1 view -0
 479              		.cfi_startproc
 480              		@ args = 0, pretend = 0, frame = 144
 481              		@ frame_needed = 0, uses_anonymous_args = 0
 543:Middlewares/lvgl/src/core/lv_obj.c **** 
 482              		.loc 1 543 1 is_stmt 0 view .LVU154
 483 0000 70B5     		push	{r4, r5, r6, lr}
 484              	.LCFI2:
 485              		.cfi_def_cfa_offset 16
 486              		.cfi_offset 4, -16
 487              		.cfi_offset 5, -12
 488              		.cfi_offset 6, -8
ARM GAS  /tmp/ccyhZZXZ.s 			page 34


 489              		.cfi_offset 14, -4
 490 0002 A4B0     		sub	sp, sp, #144
 491              	.LCFI3:
 492              		.cfi_def_cfa_offset 160
 493 0004 0446     		mov	r4, r0
 494 0006 0D46     		mov	r5, r1
 545:Middlewares/lvgl/src/core/lv_obj.c ****     lv_area_t ver_area;
 495              		.loc 1 545 5 is_stmt 1 view .LVU155
 546:Middlewares/lvgl/src/core/lv_obj.c ****     lv_obj_get_scrollbar_area(obj, &hor_area, &ver_area);
 496              		.loc 1 546 5 view .LVU156
 547:Middlewares/lvgl/src/core/lv_obj.c **** 
 497              		.loc 1 547 5 view .LVU157
 498 0008 20AA     		add	r2, sp, #128
 499 000a 22A9     		add	r1, sp, #136
 500              	.LVL43:
 547:Middlewares/lvgl/src/core/lv_obj.c **** 
 501              		.loc 1 547 5 is_stmt 0 view .LVU158
 502 000c FFF7FEFF 		bl	lv_obj_get_scrollbar_area
 503              	.LVL44:
 549:Middlewares/lvgl/src/core/lv_obj.c **** 
 504              		.loc 1 549 5 is_stmt 1 view .LVU159
 549:Middlewares/lvgl/src/core/lv_obj.c **** 
 505              		.loc 1 549 8 is_stmt 0 view .LVU160
 506 0010 22A8     		add	r0, sp, #136
 507 0012 FFF7FEFF 		bl	lv_area_get_size
 508              	.LVL45:
 549:Middlewares/lvgl/src/core/lv_obj.c **** 
 509              		.loc 1 549 7 view .LVU161
 510 0016 18B9     		cbnz	r0, .L27
 549:Middlewares/lvgl/src/core/lv_obj.c **** 
 511              		.loc 1 549 44 discriminator 1 view .LVU162
 512 0018 20A8     		add	r0, sp, #128
 513 001a FFF7FEFF 		bl	lv_area_get_size
 514              	.LVL46:
 549:Middlewares/lvgl/src/core/lv_obj.c **** 
 515              		.loc 1 549 41 discriminator 1 view .LVU163
 516 001e 28B1     		cbz	r0, .L26
 517              	.L27:
 551:Middlewares/lvgl/src/core/lv_obj.c ****     lv_res_t sb_res = scrollbar_init_draw_dsc(obj, &draw_dsc);
 518              		.loc 1 551 5 is_stmt 1 view .LVU164
 552:Middlewares/lvgl/src/core/lv_obj.c ****     if(sb_res != LV_RES_OK) return;
 519              		.loc 1 552 5 view .LVU165
 552:Middlewares/lvgl/src/core/lv_obj.c ****     if(sb_res != LV_RES_OK) return;
 520              		.loc 1 552 23 is_stmt 0 view .LVU166
 521 0020 13A9     		add	r1, sp, #76
 522 0022 2046     		mov	r0, r4
 523 0024 FFF7FEFF 		bl	scrollbar_init_draw_dsc
 524              	.LVL47:
 553:Middlewares/lvgl/src/core/lv_obj.c **** 
 525              		.loc 1 553 5 is_stmt 1 view .LVU167
 553:Middlewares/lvgl/src/core/lv_obj.c **** 
 526              		.loc 1 553 7 is_stmt 0 view .LVU168
 527 0028 0128     		cmp	r0, #1
 528 002a 01D0     		beq	.L33
 529              	.LVL48:
 530              	.L26:
 572:Middlewares/lvgl/src/core/lv_obj.c **** 
ARM GAS  /tmp/ccyhZZXZ.s 			page 35


 531              		.loc 1 572 1 view .LVU169
 532 002c 24B0     		add	sp, sp, #144
 533              	.LCFI4:
 534              		.cfi_remember_state
 535              		.cfi_def_cfa_offset 16
 536              		@ sp needed
 537 002e 70BD     		pop	{r4, r5, r6, pc}
 538              	.LVL49:
 539              	.L33:
 540              	.LCFI5:
 541              		.cfi_restore_state
 555:Middlewares/lvgl/src/core/lv_obj.c ****     lv_obj_draw_dsc_init(&part_dsc, clip_area);
 542              		.loc 1 555 5 is_stmt 1 view .LVU170
 556:Middlewares/lvgl/src/core/lv_obj.c ****     part_dsc.rect_dsc = &draw_dsc;
 543              		.loc 1 556 5 view .LVU171
 544 0030 2946     		mov	r1, r5
 545 0032 01A8     		add	r0, sp, #4
 546              	.LVL50:
 556:Middlewares/lvgl/src/core/lv_obj.c ****     part_dsc.rect_dsc = &draw_dsc;
 547              		.loc 1 556 5 is_stmt 0 view .LVU172
 548 0034 FFF7FEFF 		bl	lv_obj_draw_dsc_init
 549              	.LVL51:
 557:Middlewares/lvgl/src/core/lv_obj.c ****     part_dsc.part = LV_PART_SCROLLBAR;
 550              		.loc 1 557 5 is_stmt 1 view .LVU173
 557:Middlewares/lvgl/src/core/lv_obj.c ****     part_dsc.part = LV_PART_SCROLLBAR;
 551              		.loc 1 557 23 is_stmt 0 view .LVU174
 552 0038 13AB     		add	r3, sp, #76
 553 003a 0393     		str	r3, [sp, #12]
 558:Middlewares/lvgl/src/core/lv_obj.c **** 
 554              		.loc 1 558 5 is_stmt 1 view .LVU175
 558:Middlewares/lvgl/src/core/lv_obj.c **** 
 555              		.loc 1 558 19 is_stmt 0 view .LVU176
 556 003c 4FF48033 		mov	r3, #65536
 557 0040 0E93     		str	r3, [sp, #56]
 560:Middlewares/lvgl/src/core/lv_obj.c ****         part_dsc.draw_area = &hor_area;
 558              		.loc 1 560 5 is_stmt 1 view .LVU177
 560:Middlewares/lvgl/src/core/lv_obj.c ****         part_dsc.draw_area = &hor_area;
 559              		.loc 1 560 8 is_stmt 0 view .LVU178
 560 0042 22A8     		add	r0, sp, #136
 561 0044 FFF7FEFF 		bl	lv_area_get_size
 562              	.LVL52:
 560:Middlewares/lvgl/src/core/lv_obj.c ****         part_dsc.draw_area = &hor_area;
 563              		.loc 1 560 7 view .LVU179
 564 0048 B0B9     		cbnz	r0, .L34
 565              	.L29:
 566:Middlewares/lvgl/src/core/lv_obj.c ****         part_dsc.draw_area = &ver_area;
 566              		.loc 1 566 5 is_stmt 1 view .LVU180
 566:Middlewares/lvgl/src/core/lv_obj.c ****         part_dsc.draw_area = &ver_area;
 567              		.loc 1 566 8 is_stmt 0 view .LVU181
 568 004a 20A8     		add	r0, sp, #128
 569 004c FFF7FEFF 		bl	lv_area_get_size
 570              	.LVL53:
 566:Middlewares/lvgl/src/core/lv_obj.c ****         part_dsc.draw_area = &ver_area;
 571              		.loc 1 566 7 view .LVU182
 572 0050 0028     		cmp	r0, #0
 573 0052 EBD0     		beq	.L26
 567:Middlewares/lvgl/src/core/lv_obj.c ****         lv_event_send(obj, LV_EVENT_DRAW_PART_BEGIN, &part_dsc);
ARM GAS  /tmp/ccyhZZXZ.s 			page 36


 574              		.loc 1 567 9 is_stmt 1 view .LVU183
 567:Middlewares/lvgl/src/core/lv_obj.c ****         lv_event_send(obj, LV_EVENT_DRAW_PART_BEGIN, &part_dsc);
 575              		.loc 1 567 28 is_stmt 0 view .LVU184
 576 0054 20AE     		add	r6, sp, #128
 577 0056 0296     		str	r6, [sp, #8]
 568:Middlewares/lvgl/src/core/lv_obj.c ****         lv_draw_rect(&ver_area, clip_area, &draw_dsc);
 578              		.loc 1 568 9 is_stmt 1 view .LVU185
 579 0058 01AA     		add	r2, sp, #4
 580 005a 1A21     		movs	r1, #26
 581 005c 2046     		mov	r0, r4
 582 005e FFF7FEFF 		bl	lv_event_send
 583              	.LVL54:
 569:Middlewares/lvgl/src/core/lv_obj.c ****         lv_event_send(obj, LV_EVENT_DRAW_PART_END, &part_dsc);
 584              		.loc 1 569 9 view .LVU186
 585 0062 13AA     		add	r2, sp, #76
 586 0064 2946     		mov	r1, r5
 587 0066 3046     		mov	r0, r6
 588 0068 FFF7FEFF 		bl	lv_draw_rect
 589              	.LVL55:
 570:Middlewares/lvgl/src/core/lv_obj.c ****     }
 590              		.loc 1 570 9 view .LVU187
 591 006c 01AA     		add	r2, sp, #4
 592 006e 1B21     		movs	r1, #27
 593 0070 2046     		mov	r0, r4
 594 0072 FFF7FEFF 		bl	lv_event_send
 595              	.LVL56:
 596 0076 D9E7     		b	.L26
 597              	.L34:
 561:Middlewares/lvgl/src/core/lv_obj.c ****         lv_event_send(obj, LV_EVENT_DRAW_PART_BEGIN, &part_dsc);
 598              		.loc 1 561 9 view .LVU188
 561:Middlewares/lvgl/src/core/lv_obj.c ****         lv_event_send(obj, LV_EVENT_DRAW_PART_BEGIN, &part_dsc);
 599              		.loc 1 561 28 is_stmt 0 view .LVU189
 600 0078 22AE     		add	r6, sp, #136
 601 007a 0296     		str	r6, [sp, #8]
 562:Middlewares/lvgl/src/core/lv_obj.c ****         lv_draw_rect(&hor_area, clip_area, &draw_dsc);
 602              		.loc 1 562 9 is_stmt 1 view .LVU190
 603 007c 01AA     		add	r2, sp, #4
 604 007e 1A21     		movs	r1, #26
 605 0080 2046     		mov	r0, r4
 606 0082 FFF7FEFF 		bl	lv_event_send
 607              	.LVL57:
 563:Middlewares/lvgl/src/core/lv_obj.c ****         lv_event_send(obj, LV_EVENT_DRAW_PART_END, &part_dsc);
 608              		.loc 1 563 9 view .LVU191
 609 0086 13AA     		add	r2, sp, #76
 610 0088 2946     		mov	r1, r5
 611 008a 3046     		mov	r0, r6
 612 008c FFF7FEFF 		bl	lv_draw_rect
 613              	.LVL58:
 564:Middlewares/lvgl/src/core/lv_obj.c ****     }
 614              		.loc 1 564 9 view .LVU192
 615 0090 01AA     		add	r2, sp, #4
 616 0092 1B21     		movs	r1, #27
 617 0094 2046     		mov	r0, r4
 618 0096 FFF7FEFF 		bl	lv_event_send
 619              	.LVL59:
 620 009a D6E7     		b	.L29
 621              		.cfi_endproc
ARM GAS  /tmp/ccyhZZXZ.s 			page 37


 622              	.LFE173:
 624              		.section	.text.lv_obj_draw,"ax",%progbits
 625              		.align	1
 626              		.syntax unified
 627              		.thumb
 628              		.thumb_func
 629              		.fpu fpv4-sp-d16
 631              	lv_obj_draw:
 632              	.LVL60:
 633              	.LFB172:
 421:Middlewares/lvgl/src/core/lv_obj.c ****     lv_event_code_t code = lv_event_get_code(e);
 634              		.loc 1 421 1 view -0
 635              		.cfi_startproc
 636              		@ args = 0, pretend = 0, frame = 136
 637              		@ frame_needed = 0, uses_anonymous_args = 0
 421:Middlewares/lvgl/src/core/lv_obj.c ****     lv_event_code_t code = lv_event_get_code(e);
 638              		.loc 1 421 1 is_stmt 0 view .LVU194
 639 0000 2DE9F041 		push	{r4, r5, r6, r7, r8, lr}
 640              	.LCFI6:
 641              		.cfi_def_cfa_offset 24
 642              		.cfi_offset 4, -24
 643              		.cfi_offset 5, -20
 644              		.cfi_offset 6, -16
 645              		.cfi_offset 7, -12
 646              		.cfi_offset 8, -8
 647              		.cfi_offset 14, -4
 648 0004 A2B0     		sub	sp, sp, #136
 649              	.LCFI7:
 650              		.cfi_def_cfa_offset 160
 651 0006 0646     		mov	r6, r0
 422:Middlewares/lvgl/src/core/lv_obj.c ****     lv_obj_t * obj = lv_event_get_target(e);
 652              		.loc 1 422 5 is_stmt 1 view .LVU195
 422:Middlewares/lvgl/src/core/lv_obj.c ****     lv_obj_t * obj = lv_event_get_target(e);
 653              		.loc 1 422 28 is_stmt 0 view .LVU196
 654 0008 FFF7FEFF 		bl	lv_event_get_code
 655              	.LVL61:
 422:Middlewares/lvgl/src/core/lv_obj.c ****     lv_obj_t * obj = lv_event_get_target(e);
 656              		.loc 1 422 28 view .LVU197
 657 000c 0546     		mov	r5, r0
 658              	.LVL62:
 423:Middlewares/lvgl/src/core/lv_obj.c ****     if(code == LV_EVENT_COVER_CHECK) {
 659              		.loc 1 423 5 is_stmt 1 view .LVU198
 423:Middlewares/lvgl/src/core/lv_obj.c ****     if(code == LV_EVENT_COVER_CHECK) {
 660              		.loc 1 423 22 is_stmt 0 view .LVU199
 661 000e 3046     		mov	r0, r6
 662 0010 FFF7FEFF 		bl	lv_event_get_target
 663              	.LVL63:
 664 0014 0446     		mov	r4, r0
 665              	.LVL64:
 424:Middlewares/lvgl/src/core/lv_obj.c ****         lv_cover_check_info_t * info = lv_event_get_param(e);
 666              		.loc 1 424 5 is_stmt 1 view .LVU200
 424:Middlewares/lvgl/src/core/lv_obj.c ****         lv_cover_check_info_t * info = lv_event_get_param(e);
 667              		.loc 1 424 7 is_stmt 0 view .LVU201
 668 0016 122D     		cmp	r5, #18
 669 0018 07D0     		beq	.L49
 467:Middlewares/lvgl/src/core/lv_obj.c ****         const lv_area_t * clip_area = lv_event_get_param(e);
 670              		.loc 1 467 10 is_stmt 1 view .LVU202
ARM GAS  /tmp/ccyhZZXZ.s 			page 38


 467:Middlewares/lvgl/src/core/lv_obj.c ****         const lv_area_t * clip_area = lv_event_get_param(e);
 671              		.loc 1 467 12 is_stmt 0 view .LVU203
 672 001a 152D     		cmp	r5, #21
 673 001c 74D0     		beq	.L50
 509:Middlewares/lvgl/src/core/lv_obj.c ****         const lv_area_t * clip_area = lv_event_get_param(e);
 674              		.loc 1 509 10 is_stmt 1 view .LVU204
 509:Middlewares/lvgl/src/core/lv_obj.c ****         const lv_area_t * clip_area = lv_event_get_param(e);
 675              		.loc 1 509 12 is_stmt 0 view .LVU205
 676 001e 182D     		cmp	r5, #24
 677 0020 00F0EF80 		beq	.L51
 678              	.LVL65:
 679              	.L35:
 540:Middlewares/lvgl/src/core/lv_obj.c **** 
 680              		.loc 1 540 1 view .LVU206
 681 0024 22B0     		add	sp, sp, #136
 682              	.LCFI8:
 683              		.cfi_remember_state
 684              		.cfi_def_cfa_offset 24
 685              		@ sp needed
 686 0026 BDE8F081 		pop	{r4, r5, r6, r7, r8, pc}
 687              	.LVL66:
 688              	.L49:
 689              	.LCFI9:
 690              		.cfi_restore_state
 691              	.LBB118:
 425:Middlewares/lvgl/src/core/lv_obj.c ****         if(info->res == LV_COVER_RES_MASKED) return;
 692              		.loc 1 425 9 is_stmt 1 view .LVU207
 425:Middlewares/lvgl/src/core/lv_obj.c ****         if(info->res == LV_COVER_RES_MASKED) return;
 693              		.loc 1 425 40 is_stmt 0 view .LVU208
 694 002a 3046     		mov	r0, r6
 695              	.LVL67:
 425:Middlewares/lvgl/src/core/lv_obj.c ****         if(info->res == LV_COVER_RES_MASKED) return;
 696              		.loc 1 425 40 view .LVU209
 697 002c FFF7FEFF 		bl	lv_event_get_param
 698              	.LVL68:
 699 0030 0546     		mov	r5, r0
 700              	.LVL69:
 426:Middlewares/lvgl/src/core/lv_obj.c ****         if(lv_obj_get_style_clip_corner(obj, LV_PART_MAIN)) {
 701              		.loc 1 426 9 is_stmt 1 view .LVU210
 426:Middlewares/lvgl/src/core/lv_obj.c ****         if(lv_obj_get_style_clip_corner(obj, LV_PART_MAIN)) {
 702              		.loc 1 426 16 is_stmt 0 view .LVU211
 703 0032 0378     		ldrb	r3, [r0]	@ zero_extendqisi2
 426:Middlewares/lvgl/src/core/lv_obj.c ****         if(lv_obj_get_style_clip_corner(obj, LV_PART_MAIN)) {
 704              		.loc 1 426 11 view .LVU212
 705 0034 022B     		cmp	r3, #2
 706 0036 F5D0     		beq	.L35
 427:Middlewares/lvgl/src/core/lv_obj.c ****             info->res = LV_COVER_RES_MASKED;
 707              		.loc 1 427 9 is_stmt 1 view .LVU213
 708              	.LVL70:
 709              	.LBB119:
 710              	.LBI119:
 133:Middlewares/lvgl/src/core/lv_obj_style_gen.h **** {
 711              		.loc 2 133 20 view .LVU214
 712              	.LBB120:
 135:Middlewares/lvgl/src/core/lv_obj_style_gen.h ****     return (bool)v.num;
 713              		.loc 2 135 5 view .LVU215
 135:Middlewares/lvgl/src/core/lv_obj_style_gen.h ****     return (bool)v.num;
ARM GAS  /tmp/ccyhZZXZ.s 			page 39


 714              		.loc 2 135 26 is_stmt 0 view .LVU216
 715 0038 6122     		movs	r2, #97
 716 003a 0021     		movs	r1, #0
 717 003c 2046     		mov	r0, r4
 718              	.LVL71:
 135:Middlewares/lvgl/src/core/lv_obj_style_gen.h ****     return (bool)v.num;
 719              		.loc 2 135 26 view .LVU217
 720 003e FFF7FEFF 		bl	lv_obj_get_style_prop
 721              	.LVL72:
 136:Middlewares/lvgl/src/core/lv_obj_style_gen.h **** }
 722              		.loc 2 136 5 is_stmt 1 view .LVU218
 136:Middlewares/lvgl/src/core/lv_obj_style_gen.h **** }
 723              		.loc 2 136 5 is_stmt 0 view .LVU219
 724              	.LBE120:
 725              	.LBE119:
 427:Middlewares/lvgl/src/core/lv_obj.c ****             info->res = LV_COVER_RES_MASKED;
 726              		.loc 1 427 11 view .LVU220
 727 0042 10B1     		cbz	r0, .L38
 428:Middlewares/lvgl/src/core/lv_obj.c ****             return;
 728              		.loc 1 428 13 is_stmt 1 view .LVU221
 428:Middlewares/lvgl/src/core/lv_obj.c ****             return;
 729              		.loc 1 428 23 is_stmt 0 view .LVU222
 730 0044 0223     		movs	r3, #2
 731 0046 2B70     		strb	r3, [r5]
 429:Middlewares/lvgl/src/core/lv_obj.c ****         }
 732              		.loc 1 429 13 is_stmt 1 view .LVU223
 733 0048 ECE7     		b	.L35
 734              	.L38:
 433:Middlewares/lvgl/src/core/lv_obj.c ****         lv_coord_t w = lv_obj_get_style_transform_width(obj, LV_PART_MAIN);
 735              		.loc 1 433 9 view .LVU224
 736              	.LVL73:
 737              	.LBB121:
 738              	.LBI121:
 127:Middlewares/lvgl/src/core/lv_obj_style_gen.h **** {
 739              		.loc 2 127 26 view .LVU225
 740              	.LBB122:
 129:Middlewares/lvgl/src/core/lv_obj_style_gen.h ****     return (lv_coord_t)v.num;
 741              		.loc 2 129 5 view .LVU226
 129:Middlewares/lvgl/src/core/lv_obj_style_gen.h ****     return (lv_coord_t)v.num;
 742              		.loc 2 129 26 is_stmt 0 view .LVU227
 743 004a 6022     		movs	r2, #96
 744 004c 0021     		movs	r1, #0
 745 004e 2046     		mov	r0, r4
 746 0050 FFF7FEFF 		bl	lv_obj_get_style_prop
 747              	.LVL74:
 130:Middlewares/lvgl/src/core/lv_obj_style_gen.h **** }
 748              		.loc 2 130 5 is_stmt 1 view .LVU228
 130:Middlewares/lvgl/src/core/lv_obj_style_gen.h **** }
 749              		.loc 2 130 12 is_stmt 0 view .LVU229
 750 0054 07B2     		sxth	r7, r0
 751              	.LVL75:
 130:Middlewares/lvgl/src/core/lv_obj_style_gen.h **** }
 752              		.loc 2 130 12 view .LVU230
 753              	.LBE122:
 754              	.LBE121:
 434:Middlewares/lvgl/src/core/lv_obj.c ****         lv_coord_t h = lv_obj_get_style_transform_height(obj, LV_PART_MAIN);
 755              		.loc 1 434 9 is_stmt 1 view .LVU231
ARM GAS  /tmp/ccyhZZXZ.s 			page 40


 756              	.LBB123:
 757              	.LBI123:
  55:Middlewares/lvgl/src/core/lv_obj_style_gen.h **** {
 758              		.loc 2 55 26 view .LVU232
 759              	.LBB124:
  57:Middlewares/lvgl/src/core/lv_obj_style_gen.h ****     return (lv_coord_t)v.num;
 760              		.loc 2 57 5 view .LVU233
  57:Middlewares/lvgl/src/core/lv_obj_style_gen.h ****     return (lv_coord_t)v.num;
 761              		.loc 2 57 26 is_stmt 0 view .LVU234
 762 0056 40F60A02 		movw	r2, #2058
 763 005a 0021     		movs	r1, #0
 764 005c 2046     		mov	r0, r4
 765 005e FFF7FEFF 		bl	lv_obj_get_style_prop
 766              	.LVL76:
 767 0062 0646     		mov	r6, r0
 768              	.LVL77:
  58:Middlewares/lvgl/src/core/lv_obj_style_gen.h **** }
 769              		.loc 2 58 5 is_stmt 1 view .LVU235
  58:Middlewares/lvgl/src/core/lv_obj_style_gen.h **** }
 770              		.loc 2 58 5 is_stmt 0 view .LVU236
 771              	.LBE124:
 772              	.LBE123:
 435:Middlewares/lvgl/src/core/lv_obj.c ****         lv_area_t coords;
 773              		.loc 1 435 9 is_stmt 1 view .LVU237
 774              	.LBB125:
 775              	.LBI125:
  61:Middlewares/lvgl/src/core/lv_obj_style_gen.h **** {
 776              		.loc 2 61 26 view .LVU238
 777              	.LBB126:
  63:Middlewares/lvgl/src/core/lv_obj_style_gen.h ****     return (lv_coord_t)v.num;
 778              		.loc 2 63 5 view .LVU239
  63:Middlewares/lvgl/src/core/lv_obj_style_gen.h ****     return (lv_coord_t)v.num;
 779              		.loc 2 63 26 is_stmt 0 view .LVU240
 780 0064 40F60B02 		movw	r2, #2059
 781 0068 0021     		movs	r1, #0
 782 006a 2046     		mov	r0, r4
 783 006c FFF7FEFF 		bl	lv_obj_get_style_prop
 784              	.LVL78:
  64:Middlewares/lvgl/src/core/lv_obj_style_gen.h **** }
 785              		.loc 2 64 5 is_stmt 1 view .LVU241
  64:Middlewares/lvgl/src/core/lv_obj_style_gen.h **** }
 786              		.loc 2 64 5 is_stmt 0 view .LVU242
 787              	.LBE126:
 788              	.LBE125:
 436:Middlewares/lvgl/src/core/lv_obj.c ****         lv_area_copy(&coords, &obj->coords);
 789              		.loc 1 436 9 is_stmt 1 view .LVU243
 437:Middlewares/lvgl/src/core/lv_obj.c ****         coords.x1 -= w;
 790              		.loc 1 437 9 view .LVU244
 791              	.LBB127:
 792              	.LBI127:
 793              		.file 3 "Middlewares/lvgl/src/core/../misc/../font/../misc/lv_area.h"
   1:Middlewares/lvgl/src/core/../misc/../font/../misc/lv_area.h **** /**
   2:Middlewares/lvgl/src/core/../misc/../font/../misc/lv_area.h ****  * @file lv_area.h
   3:Middlewares/lvgl/src/core/../misc/../font/../misc/lv_area.h ****  *
   4:Middlewares/lvgl/src/core/../misc/../font/../misc/lv_area.h ****  */
   5:Middlewares/lvgl/src/core/../misc/../font/../misc/lv_area.h **** 
   6:Middlewares/lvgl/src/core/../misc/../font/../misc/lv_area.h **** #ifndef LV_AREA_H
ARM GAS  /tmp/ccyhZZXZ.s 			page 41


   7:Middlewares/lvgl/src/core/../misc/../font/../misc/lv_area.h **** #define LV_AREA_H
   8:Middlewares/lvgl/src/core/../misc/../font/../misc/lv_area.h **** 
   9:Middlewares/lvgl/src/core/../misc/../font/../misc/lv_area.h **** #ifdef __cplusplus
  10:Middlewares/lvgl/src/core/../misc/../font/../misc/lv_area.h **** extern "C" {
  11:Middlewares/lvgl/src/core/../misc/../font/../misc/lv_area.h **** #endif
  12:Middlewares/lvgl/src/core/../misc/../font/../misc/lv_area.h **** 
  13:Middlewares/lvgl/src/core/../misc/../font/../misc/lv_area.h **** /*********************
  14:Middlewares/lvgl/src/core/../misc/../font/../misc/lv_area.h ****  *      INCLUDES
  15:Middlewares/lvgl/src/core/../misc/../font/../misc/lv_area.h ****  *********************/
  16:Middlewares/lvgl/src/core/../misc/../font/../misc/lv_area.h **** #include "../lv_conf_internal.h"
  17:Middlewares/lvgl/src/core/../misc/../font/../misc/lv_area.h **** #include <string.h>
  18:Middlewares/lvgl/src/core/../misc/../font/../misc/lv_area.h **** #include <stdbool.h>
  19:Middlewares/lvgl/src/core/../misc/../font/../misc/lv_area.h **** #include <stdint.h>
  20:Middlewares/lvgl/src/core/../misc/../font/../misc/lv_area.h **** 
  21:Middlewares/lvgl/src/core/../misc/../font/../misc/lv_area.h **** /*********************
  22:Middlewares/lvgl/src/core/../misc/../font/../misc/lv_area.h ****  *      DEFINES
  23:Middlewares/lvgl/src/core/../misc/../font/../misc/lv_area.h ****  *********************/
  24:Middlewares/lvgl/src/core/../misc/../font/../misc/lv_area.h **** 
  25:Middlewares/lvgl/src/core/../misc/../font/../misc/lv_area.h **** #define _LV_COORD_MAX_REDUCE    8192
  26:Middlewares/lvgl/src/core/../misc/../font/../misc/lv_area.h **** 
  27:Middlewares/lvgl/src/core/../misc/../font/../misc/lv_area.h **** #if LV_USE_LARGE_COORD
  28:Middlewares/lvgl/src/core/../misc/../font/../misc/lv_area.h **** typedef int32_t lv_coord_t;
  29:Middlewares/lvgl/src/core/../misc/../font/../misc/lv_area.h **** #else
  30:Middlewares/lvgl/src/core/../misc/../font/../misc/lv_area.h **** typedef int16_t lv_coord_t;
  31:Middlewares/lvgl/src/core/../misc/../font/../misc/lv_area.h **** #endif
  32:Middlewares/lvgl/src/core/../misc/../font/../misc/lv_area.h **** 
  33:Middlewares/lvgl/src/core/../misc/../font/../misc/lv_area.h **** /*To allow some special values in the end reduce the max value*/
  34:Middlewares/lvgl/src/core/../misc/../font/../misc/lv_area.h **** #define LV_COORD_MAX ((lv_coord_t)((uint32_t)((uint32_t)1 << (8 * sizeof(lv_coord_t) - 1)) - _LV_CO
  35:Middlewares/lvgl/src/core/../misc/../font/../misc/lv_area.h **** #define LV_COORD_MIN (-LV_COORD_MAX)
  36:Middlewares/lvgl/src/core/../misc/../font/../misc/lv_area.h **** 
  37:Middlewares/lvgl/src/core/../misc/../font/../misc/lv_area.h **** LV_EXPORT_CONST_INT(LV_COORD_MAX);
  38:Middlewares/lvgl/src/core/../misc/../font/../misc/lv_area.h **** LV_EXPORT_CONST_INT(LV_COORD_MIN);
  39:Middlewares/lvgl/src/core/../misc/../font/../misc/lv_area.h **** 
  40:Middlewares/lvgl/src/core/../misc/../font/../misc/lv_area.h **** /**********************
  41:Middlewares/lvgl/src/core/../misc/../font/../misc/lv_area.h ****  *      TYPEDEFS
  42:Middlewares/lvgl/src/core/../misc/../font/../misc/lv_area.h ****  **********************/
  43:Middlewares/lvgl/src/core/../misc/../font/../misc/lv_area.h **** 
  44:Middlewares/lvgl/src/core/../misc/../font/../misc/lv_area.h **** /**
  45:Middlewares/lvgl/src/core/../misc/../font/../misc/lv_area.h ****  * Represents a point on the screen.
  46:Middlewares/lvgl/src/core/../misc/../font/../misc/lv_area.h ****  */
  47:Middlewares/lvgl/src/core/../misc/../font/../misc/lv_area.h **** typedef struct {
  48:Middlewares/lvgl/src/core/../misc/../font/../misc/lv_area.h ****     lv_coord_t x;
  49:Middlewares/lvgl/src/core/../misc/../font/../misc/lv_area.h ****     lv_coord_t y;
  50:Middlewares/lvgl/src/core/../misc/../font/../misc/lv_area.h **** } lv_point_t;
  51:Middlewares/lvgl/src/core/../misc/../font/../misc/lv_area.h **** 
  52:Middlewares/lvgl/src/core/../misc/../font/../misc/lv_area.h **** /** Represents an area of the screen.*/
  53:Middlewares/lvgl/src/core/../misc/../font/../misc/lv_area.h **** typedef struct {
  54:Middlewares/lvgl/src/core/../misc/../font/../misc/lv_area.h ****     lv_coord_t x1;
  55:Middlewares/lvgl/src/core/../misc/../font/../misc/lv_area.h ****     lv_coord_t y1;
  56:Middlewares/lvgl/src/core/../misc/../font/../misc/lv_area.h ****     lv_coord_t x2;
  57:Middlewares/lvgl/src/core/../misc/../font/../misc/lv_area.h ****     lv_coord_t y2;
  58:Middlewares/lvgl/src/core/../misc/../font/../misc/lv_area.h **** } lv_area_t;
  59:Middlewares/lvgl/src/core/../misc/../font/../misc/lv_area.h **** 
  60:Middlewares/lvgl/src/core/../misc/../font/../misc/lv_area.h **** /** Alignments*/
  61:Middlewares/lvgl/src/core/../misc/../font/../misc/lv_area.h **** enum {
  62:Middlewares/lvgl/src/core/../misc/../font/../misc/lv_area.h ****     LV_ALIGN_DEFAULT = 0,
  63:Middlewares/lvgl/src/core/../misc/../font/../misc/lv_area.h ****     LV_ALIGN_TOP_LEFT,
ARM GAS  /tmp/ccyhZZXZ.s 			page 42


  64:Middlewares/lvgl/src/core/../misc/../font/../misc/lv_area.h ****     LV_ALIGN_TOP_MID,
  65:Middlewares/lvgl/src/core/../misc/../font/../misc/lv_area.h ****     LV_ALIGN_TOP_RIGHT,
  66:Middlewares/lvgl/src/core/../misc/../font/../misc/lv_area.h ****     LV_ALIGN_BOTTOM_LEFT,
  67:Middlewares/lvgl/src/core/../misc/../font/../misc/lv_area.h ****     LV_ALIGN_BOTTOM_MID,
  68:Middlewares/lvgl/src/core/../misc/../font/../misc/lv_area.h ****     LV_ALIGN_BOTTOM_RIGHT,
  69:Middlewares/lvgl/src/core/../misc/../font/../misc/lv_area.h ****     LV_ALIGN_LEFT_MID,
  70:Middlewares/lvgl/src/core/../misc/../font/../misc/lv_area.h ****     LV_ALIGN_RIGHT_MID,
  71:Middlewares/lvgl/src/core/../misc/../font/../misc/lv_area.h ****     LV_ALIGN_CENTER,
  72:Middlewares/lvgl/src/core/../misc/../font/../misc/lv_area.h **** 
  73:Middlewares/lvgl/src/core/../misc/../font/../misc/lv_area.h ****     LV_ALIGN_OUT_TOP_LEFT,
  74:Middlewares/lvgl/src/core/../misc/../font/../misc/lv_area.h ****     LV_ALIGN_OUT_TOP_MID,
  75:Middlewares/lvgl/src/core/../misc/../font/../misc/lv_area.h ****     LV_ALIGN_OUT_TOP_RIGHT,
  76:Middlewares/lvgl/src/core/../misc/../font/../misc/lv_area.h ****     LV_ALIGN_OUT_BOTTOM_LEFT,
  77:Middlewares/lvgl/src/core/../misc/../font/../misc/lv_area.h ****     LV_ALIGN_OUT_BOTTOM_MID,
  78:Middlewares/lvgl/src/core/../misc/../font/../misc/lv_area.h ****     LV_ALIGN_OUT_BOTTOM_RIGHT,
  79:Middlewares/lvgl/src/core/../misc/../font/../misc/lv_area.h ****     LV_ALIGN_OUT_LEFT_TOP,
  80:Middlewares/lvgl/src/core/../misc/../font/../misc/lv_area.h ****     LV_ALIGN_OUT_LEFT_MID,
  81:Middlewares/lvgl/src/core/../misc/../font/../misc/lv_area.h ****     LV_ALIGN_OUT_LEFT_BOTTOM,
  82:Middlewares/lvgl/src/core/../misc/../font/../misc/lv_area.h ****     LV_ALIGN_OUT_RIGHT_TOP,
  83:Middlewares/lvgl/src/core/../misc/../font/../misc/lv_area.h ****     LV_ALIGN_OUT_RIGHT_MID,
  84:Middlewares/lvgl/src/core/../misc/../font/../misc/lv_area.h ****     LV_ALIGN_OUT_RIGHT_BOTTOM,
  85:Middlewares/lvgl/src/core/../misc/../font/../misc/lv_area.h **** };
  86:Middlewares/lvgl/src/core/../misc/../font/../misc/lv_area.h **** typedef uint8_t lv_align_t;
  87:Middlewares/lvgl/src/core/../misc/../font/../misc/lv_area.h **** 
  88:Middlewares/lvgl/src/core/../misc/../font/../misc/lv_area.h **** enum {
  89:Middlewares/lvgl/src/core/../misc/../font/../misc/lv_area.h ****     LV_DIR_NONE     = 0x00,
  90:Middlewares/lvgl/src/core/../misc/../font/../misc/lv_area.h ****     LV_DIR_LEFT     = (1 << 0),
  91:Middlewares/lvgl/src/core/../misc/../font/../misc/lv_area.h ****     LV_DIR_RIGHT    = (1 << 1),
  92:Middlewares/lvgl/src/core/../misc/../font/../misc/lv_area.h ****     LV_DIR_TOP      = (1 << 2),
  93:Middlewares/lvgl/src/core/../misc/../font/../misc/lv_area.h ****     LV_DIR_BOTTOM   = (1 << 3),
  94:Middlewares/lvgl/src/core/../misc/../font/../misc/lv_area.h ****     LV_DIR_HOR      = LV_DIR_LEFT | LV_DIR_RIGHT,
  95:Middlewares/lvgl/src/core/../misc/../font/../misc/lv_area.h ****     LV_DIR_VER      = LV_DIR_TOP | LV_DIR_BOTTOM,
  96:Middlewares/lvgl/src/core/../misc/../font/../misc/lv_area.h ****     LV_DIR_ALL      = LV_DIR_HOR | LV_DIR_VER,
  97:Middlewares/lvgl/src/core/../misc/../font/../misc/lv_area.h **** };
  98:Middlewares/lvgl/src/core/../misc/../font/../misc/lv_area.h **** 
  99:Middlewares/lvgl/src/core/../misc/../font/../misc/lv_area.h **** typedef uint8_t lv_dir_t;
 100:Middlewares/lvgl/src/core/../misc/../font/../misc/lv_area.h **** 
 101:Middlewares/lvgl/src/core/../misc/../font/../misc/lv_area.h **** /**********************
 102:Middlewares/lvgl/src/core/../misc/../font/../misc/lv_area.h ****  * GLOBAL PROTOTYPES
 103:Middlewares/lvgl/src/core/../misc/../font/../misc/lv_area.h ****  **********************/
 104:Middlewares/lvgl/src/core/../misc/../font/../misc/lv_area.h **** 
 105:Middlewares/lvgl/src/core/../misc/../font/../misc/lv_area.h **** /**
 106:Middlewares/lvgl/src/core/../misc/../font/../misc/lv_area.h ****  * Initialize an area
 107:Middlewares/lvgl/src/core/../misc/../font/../misc/lv_area.h ****  * @param area_p pointer to an area
 108:Middlewares/lvgl/src/core/../misc/../font/../misc/lv_area.h ****  * @param x1 left coordinate of the area
 109:Middlewares/lvgl/src/core/../misc/../font/../misc/lv_area.h ****  * @param y1 top coordinate of the area
 110:Middlewares/lvgl/src/core/../misc/../font/../misc/lv_area.h ****  * @param x2 right coordinate of the area
 111:Middlewares/lvgl/src/core/../misc/../font/../misc/lv_area.h ****  * @param y2 bottom coordinate of the area
 112:Middlewares/lvgl/src/core/../misc/../font/../misc/lv_area.h ****  */
 113:Middlewares/lvgl/src/core/../misc/../font/../misc/lv_area.h **** void lv_area_set(lv_area_t * area_p, lv_coord_t x1, lv_coord_t y1, lv_coord_t x2, lv_coord_t y2);
 114:Middlewares/lvgl/src/core/../misc/../font/../misc/lv_area.h **** 
 115:Middlewares/lvgl/src/core/../misc/../font/../misc/lv_area.h **** /**
 116:Middlewares/lvgl/src/core/../misc/../font/../misc/lv_area.h ****  * Copy an area
 117:Middlewares/lvgl/src/core/../misc/../font/../misc/lv_area.h ****  * @param dest pointer to the destination area
 118:Middlewares/lvgl/src/core/../misc/../font/../misc/lv_area.h ****  * @param src pointer to the source area
 119:Middlewares/lvgl/src/core/../misc/../font/../misc/lv_area.h ****  */
 120:Middlewares/lvgl/src/core/../misc/../font/../misc/lv_area.h **** inline static void lv_area_copy(lv_area_t * dest, const lv_area_t * src)
ARM GAS  /tmp/ccyhZZXZ.s 			page 43


 794              		.loc 3 120 20 view .LVU245
 795              	.LBB128:
 121:Middlewares/lvgl/src/core/../misc/../font/../misc/lv_area.h **** {
 122:Middlewares/lvgl/src/core/../misc/../font/../misc/lv_area.h ****     dest->x1 = src->x1;
 796              		.loc 3 122 5 view .LVU246
 797              		.loc 3 122 19 is_stmt 0 view .LVU247
 798 0070 B4F91410 		ldrsh	r1, [r4, #20]
 799              		.loc 3 122 14 view .LVU248
 800 0074 ADF84010 		strh	r1, [sp, #64]	@ movhi
 123:Middlewares/lvgl/src/core/../misc/../font/../misc/lv_area.h ****     dest->y1 = src->y1;
 801              		.loc 3 123 5 is_stmt 1 view .LVU249
 802              		.loc 3 123 19 is_stmt 0 view .LVU250
 803 0078 B4F91620 		ldrsh	r2, [r4, #22]
 804              		.loc 3 123 14 view .LVU251
 805 007c ADF84220 		strh	r2, [sp, #66]	@ movhi
 124:Middlewares/lvgl/src/core/../misc/../font/../misc/lv_area.h ****     dest->x2 = src->x2;
 806              		.loc 3 124 5 is_stmt 1 view .LVU252
 807              		.loc 3 124 19 is_stmt 0 view .LVU253
 808 0080 B4F918E0 		ldrsh	lr, [r4, #24]
 809              		.loc 3 124 14 view .LVU254
 810 0084 ADF844E0 		strh	lr, [sp, #68]	@ movhi
 125:Middlewares/lvgl/src/core/../misc/../font/../misc/lv_area.h ****     dest->y2 = src->y2;
 811              		.loc 3 125 5 is_stmt 1 view .LVU255
 812              		.loc 3 125 19 is_stmt 0 view .LVU256
 813 0088 B4F91AC0 		ldrsh	ip, [r4, #26]
 814              		.loc 3 125 14 view .LVU257
 815 008c ADF846C0 		strh	ip, [sp, #70]	@ movhi
 816              	.LVL79:
 817              		.loc 3 125 14 view .LVU258
 818              	.LBE128:
 819              	.LBE127:
 438:Middlewares/lvgl/src/core/lv_obj.c ****         coords.x2 += w;
 820              		.loc 1 438 9 is_stmt 1 view .LVU259
 438:Middlewares/lvgl/src/core/lv_obj.c ****         coords.x2 += w;
 821              		.loc 1 438 19 is_stmt 0 view .LVU260
 822 0090 B3B2     		uxth	r3, r6
 823 0092 C91A     		subs	r1, r1, r3
 824 0094 ADF84010 		strh	r1, [sp, #64]	@ movhi
 439:Middlewares/lvgl/src/core/lv_obj.c ****         coords.y1 -= h;
 825              		.loc 1 439 9 is_stmt 1 view .LVU261
 439:Middlewares/lvgl/src/core/lv_obj.c ****         coords.y1 -= h;
 826              		.loc 1 439 19 is_stmt 0 view .LVU262
 827 0098 7344     		add	r3, r3, lr
 828 009a ADF84430 		strh	r3, [sp, #68]	@ movhi
 440:Middlewares/lvgl/src/core/lv_obj.c ****         coords.y2 += h;
 829              		.loc 1 440 9 is_stmt 1 view .LVU263
 440:Middlewares/lvgl/src/core/lv_obj.c ****         coords.y2 += h;
 830              		.loc 1 440 19 is_stmt 0 view .LVU264
 831 009e 80B2     		uxth	r0, r0
 440:Middlewares/lvgl/src/core/lv_obj.c ****         coords.y2 += h;
 832              		.loc 1 440 19 view .LVU265
 833 00a0 121A     		subs	r2, r2, r0
 834 00a2 ADF84220 		strh	r2, [sp, #66]	@ movhi
 441:Middlewares/lvgl/src/core/lv_obj.c **** 
 835              		.loc 1 441 9 is_stmt 1 view .LVU266
 441:Middlewares/lvgl/src/core/lv_obj.c **** 
 836              		.loc 1 441 19 is_stmt 0 view .LVU267
ARM GAS  /tmp/ccyhZZXZ.s 			page 44


 837 00a6 6044     		add	r0, r0, ip
 838              	.LVL80:
 441:Middlewares/lvgl/src/core/lv_obj.c **** 
 839              		.loc 1 441 19 view .LVU268
 840 00a8 ADF84600 		strh	r0, [sp, #70]	@ movhi
 443:Middlewares/lvgl/src/core/lv_obj.c ****             info->res = LV_COVER_RES_NOT_COVER;
 841              		.loc 1 443 9 is_stmt 1 view .LVU269
 443:Middlewares/lvgl/src/core/lv_obj.c ****             info->res = LV_COVER_RES_NOT_COVER;
 842              		.loc 1 443 12 is_stmt 0 view .LVU270
 843 00ac 3A46     		mov	r2, r7
 844 00ae 10A9     		add	r1, sp, #64
 845 00b0 6868     		ldr	r0, [r5, #4]
 846 00b2 FFF7FEFF 		bl	_lv_area_is_in
 847              	.LVL81:
 443:Middlewares/lvgl/src/core/lv_obj.c ****             info->res = LV_COVER_RES_NOT_COVER;
 848              		.loc 1 443 11 view .LVU271
 849 00b6 10B9     		cbnz	r0, .L39
 444:Middlewares/lvgl/src/core/lv_obj.c ****            return;
 850              		.loc 1 444 13 is_stmt 1 view .LVU272
 444:Middlewares/lvgl/src/core/lv_obj.c ****            return;
 851              		.loc 1 444 23 is_stmt 0 view .LVU273
 852 00b8 0123     		movs	r3, #1
 853 00ba 2B70     		strb	r3, [r5]
 445:Middlewares/lvgl/src/core/lv_obj.c ****         }
 854              		.loc 1 445 12 is_stmt 1 view .LVU274
 855 00bc B2E7     		b	.L35
 856              	.L39:
 448:Middlewares/lvgl/src/core/lv_obj.c ****             info->res = LV_COVER_RES_NOT_COVER;
 857              		.loc 1 448 9 view .LVU275
 858              	.LVL82:
 859              	.LBB129:
 860              	.LBI129:
 205:Middlewares/lvgl/src/core/lv_obj_style_gen.h **** {
 861              		.loc 2 205 24 view .LVU276
 862              	.LBB130:
 207:Middlewares/lvgl/src/core/lv_obj_style_gen.h ****     return (lv_opa_t)v.num;
 863              		.loc 2 207 5 view .LVU277
 207:Middlewares/lvgl/src/core/lv_obj_style_gen.h ****     return (lv_opa_t)v.num;
 864              		.loc 2 207 26 is_stmt 0 view .LVU278
 865 00be 2122     		movs	r2, #33
 866 00c0 0021     		movs	r1, #0
 867 00c2 2046     		mov	r0, r4
 868 00c4 FFF7FEFF 		bl	lv_obj_get_style_prop
 869              	.LVL83:
 208:Middlewares/lvgl/src/core/lv_obj_style_gen.h **** }
 870              		.loc 2 208 5 is_stmt 1 view .LVU279
 208:Middlewares/lvgl/src/core/lv_obj_style_gen.h **** }
 871              		.loc 2 208 12 is_stmt 0 view .LVU280
 872 00c8 C0B2     		uxtb	r0, r0
 873              	.LVL84:
 208:Middlewares/lvgl/src/core/lv_obj_style_gen.h **** }
 874              		.loc 2 208 12 view .LVU281
 875              	.LBE130:
 876              	.LBE129:
 448:Middlewares/lvgl/src/core/lv_obj.c ****             info->res = LV_COVER_RES_NOT_COVER;
 877              		.loc 1 448 11 view .LVU282
 878 00ca FC28     		cmp	r0, #252
ARM GAS  /tmp/ccyhZZXZ.s 			page 45


 879 00cc 02D8     		bhi	.L40
 449:Middlewares/lvgl/src/core/lv_obj.c ****             return;
 880              		.loc 1 449 13 is_stmt 1 view .LVU283
 449:Middlewares/lvgl/src/core/lv_obj.c ****             return;
 881              		.loc 1 449 23 is_stmt 0 view .LVU284
 882 00ce 0123     		movs	r3, #1
 883 00d0 2B70     		strb	r3, [r5]
 450:Middlewares/lvgl/src/core/lv_obj.c ****         }
 884              		.loc 1 450 13 is_stmt 1 view .LVU285
 885 00d2 A7E7     		b	.L35
 886              	.L40:
 454:Middlewares/lvgl/src/core/lv_obj.c ****             info->res = LV_COVER_RES_NOT_COVER;
 887              		.loc 1 454 9 view .LVU286
 888              	.LVL85:
 889              	.LBB131:
 890              	.LBI131:
 175:Middlewares/lvgl/src/core/lv_obj_style_gen.h **** {
 891              		.loc 2 175 31 view .LVU287
 892              	.LBB132:
 177:Middlewares/lvgl/src/core/lv_obj_style_gen.h ****     return (lv_blend_mode_t)v.num;
 893              		.loc 2 177 5 view .LVU288
 177:Middlewares/lvgl/src/core/lv_obj_style_gen.h ****     return (lv_blend_mode_t)v.num;
 894              		.loc 2 177 26 is_stmt 0 view .LVU289
 895 00d4 6822     		movs	r2, #104
 896 00d6 0021     		movs	r1, #0
 897 00d8 2046     		mov	r0, r4
 898 00da FFF7FEFF 		bl	lv_obj_get_style_prop
 899              	.LVL86:
 178:Middlewares/lvgl/src/core/lv_obj_style_gen.h **** }
 900              		.loc 2 178 5 is_stmt 1 view .LVU290
 178:Middlewares/lvgl/src/core/lv_obj_style_gen.h **** }
 901              		.loc 2 178 5 is_stmt 0 view .LVU291
 902              	.LBE132:
 903              	.LBE131:
 454:Middlewares/lvgl/src/core/lv_obj.c ****             info->res = LV_COVER_RES_NOT_COVER;
 904              		.loc 1 454 11 view .LVU292
 905 00de 10F0FF0F 		tst	r0, #255
 906 00e2 02D0     		beq	.L41
 455:Middlewares/lvgl/src/core/lv_obj.c ****             return;
 907              		.loc 1 455 13 is_stmt 1 view .LVU293
 455:Middlewares/lvgl/src/core/lv_obj.c ****             return;
 908              		.loc 1 455 23 is_stmt 0 view .LVU294
 909 00e4 0123     		movs	r3, #1
 910 00e6 2B70     		strb	r3, [r5]
 456:Middlewares/lvgl/src/core/lv_obj.c ****         }
 911              		.loc 1 456 13 is_stmt 1 view .LVU295
 912 00e8 9CE7     		b	.L35
 913              	.L41:
 459:Middlewares/lvgl/src/core/lv_obj.c ****             info->res = LV_COVER_RES_NOT_COVER;
 914              		.loc 1 459 9 view .LVU296
 915              	.LVL87:
 916              	.LBB133:
 917              	.LBI133:
 139:Middlewares/lvgl/src/core/lv_obj_style_gen.h **** {
 918              		.loc 2 139 24 view .LVU297
 919              	.LBB134:
 141:Middlewares/lvgl/src/core/lv_obj_style_gen.h ****     return (lv_opa_t)v.num;
ARM GAS  /tmp/ccyhZZXZ.s 			page 46


 920              		.loc 2 141 5 view .LVU298
 141:Middlewares/lvgl/src/core/lv_obj_style_gen.h ****     return (lv_opa_t)v.num;
 921              		.loc 2 141 26 is_stmt 0 view .LVU299
 922 00ea 40F26242 		movw	r2, #1122
 923 00ee 0021     		movs	r1, #0
 924 00f0 2046     		mov	r0, r4
 925 00f2 FFF7FEFF 		bl	lv_obj_get_style_prop
 926              	.LVL88:
 142:Middlewares/lvgl/src/core/lv_obj_style_gen.h **** }
 927              		.loc 2 142 5 is_stmt 1 view .LVU300
 142:Middlewares/lvgl/src/core/lv_obj_style_gen.h **** }
 928              		.loc 2 142 12 is_stmt 0 view .LVU301
 929 00f6 C3B2     		uxtb	r3, r0
 930              	.LVL89:
 142:Middlewares/lvgl/src/core/lv_obj_style_gen.h **** }
 931              		.loc 2 142 12 view .LVU302
 932              	.LBE134:
 933              	.LBE133:
 459:Middlewares/lvgl/src/core/lv_obj.c ****             info->res = LV_COVER_RES_NOT_COVER;
 934              		.loc 1 459 11 view .LVU303
 935 00f8 FC2B     		cmp	r3, #252
 936 00fa 02D9     		bls	.L52
 464:Middlewares/lvgl/src/core/lv_obj.c **** 
 937              		.loc 1 464 9 is_stmt 1 view .LVU304
 464:Middlewares/lvgl/src/core/lv_obj.c **** 
 938              		.loc 1 464 19 is_stmt 0 view .LVU305
 939 00fc 0023     		movs	r3, #0
 940 00fe 2B70     		strb	r3, [r5]
 941              	.LBE118:
 942 0100 90E7     		b	.L35
 943              	.L52:
 944              	.LBB135:
 460:Middlewares/lvgl/src/core/lv_obj.c ****             return;
 945              		.loc 1 460 13 is_stmt 1 view .LVU306
 460:Middlewares/lvgl/src/core/lv_obj.c ****             return;
 946              		.loc 1 460 23 is_stmt 0 view .LVU307
 947 0102 0123     		movs	r3, #1
 948 0104 2B70     		strb	r3, [r5]
 461:Middlewares/lvgl/src/core/lv_obj.c ****         }
 949              		.loc 1 461 13 is_stmt 1 view .LVU308
 950 0106 8DE7     		b	.L35
 951              	.LVL90:
 952              	.L50:
 461:Middlewares/lvgl/src/core/lv_obj.c ****         }
 953              		.loc 1 461 13 is_stmt 0 view .LVU309
 954              	.LBE135:
 955              	.LBB136:
 468:Middlewares/lvgl/src/core/lv_obj.c ****         lv_draw_rect_dsc_t draw_dsc;
 956              		.loc 1 468 9 is_stmt 1 view .LVU310
 468:Middlewares/lvgl/src/core/lv_obj.c ****         lv_draw_rect_dsc_t draw_dsc;
 957              		.loc 1 468 39 is_stmt 0 view .LVU311
 958 0108 3046     		mov	r0, r6
 959              	.LVL91:
 468:Middlewares/lvgl/src/core/lv_obj.c ****         lv_draw_rect_dsc_t draw_dsc;
 960              		.loc 1 468 39 view .LVU312
 961 010a FFF7FEFF 		bl	lv_event_get_param
 962              	.LVL92:
ARM GAS  /tmp/ccyhZZXZ.s 			page 47


 963 010e 0646     		mov	r6, r0
 964              	.LVL93:
 469:Middlewares/lvgl/src/core/lv_obj.c ****         lv_draw_rect_dsc_init(&draw_dsc);
 965              		.loc 1 469 9 is_stmt 1 view .LVU313
 470:Middlewares/lvgl/src/core/lv_obj.c ****         /*If the border is drawn later disable loading its properties*/
 966              		.loc 1 470 9 view .LVU314
 967 0110 03A8     		add	r0, sp, #12
 968              	.LVL94:
 470:Middlewares/lvgl/src/core/lv_obj.c ****         /*If the border is drawn later disable loading its properties*/
 969              		.loc 1 470 9 is_stmt 0 view .LVU315
 970 0112 FFF7FEFF 		bl	lv_draw_rect_dsc_init
 971              	.LVL95:
 472:Middlewares/lvgl/src/core/lv_obj.c ****             draw_dsc.border_post = 1;
 972              		.loc 1 472 9 is_stmt 1 view .LVU316
 973              	.LBB137:
 974              	.LBI137:
 307:Middlewares/lvgl/src/core/lv_obj_style_gen.h **** {
 975              		.loc 2 307 20 view .LVU317
 976              	.LBB138:
 309:Middlewares/lvgl/src/core/lv_obj_style_gen.h ****     return (bool)v.num;
 977              		.loc 2 309 5 view .LVU318
 309:Middlewares/lvgl/src/core/lv_obj_style_gen.h ****     return (bool)v.num;
 978              		.loc 2 309 26 is_stmt 0 view .LVU319
 979 0116 3422     		movs	r2, #52
 980 0118 0021     		movs	r1, #0
 981 011a 2046     		mov	r0, r4
 982 011c FFF7FEFF 		bl	lv_obj_get_style_prop
 983              	.LVL96:
 310:Middlewares/lvgl/src/core/lv_obj_style_gen.h **** }
 984              		.loc 2 310 5 is_stmt 1 view .LVU320
 310:Middlewares/lvgl/src/core/lv_obj_style_gen.h **** }
 985              		.loc 2 310 5 is_stmt 0 view .LVU321
 986              	.LBE138:
 987              	.LBE137:
 472:Middlewares/lvgl/src/core/lv_obj.c ****             draw_dsc.border_post = 1;
 988              		.loc 1 472 11 view .LVU322
 989 0120 28B1     		cbz	r0, .L45
 473:Middlewares/lvgl/src/core/lv_obj.c ****         }
 990              		.loc 1 473 13 is_stmt 1 view .LVU323
 473:Middlewares/lvgl/src/core/lv_obj.c ****         }
 991              		.loc 1 473 34 is_stmt 0 view .LVU324
 992 0122 9DF82B30 		ldrb	r3, [sp, #43]	@ zero_extendqisi2
 993 0126 43F00103 		orr	r3, r3, #1
 994 012a 8DF82B30 		strb	r3, [sp, #43]
 995              	.L45:
 476:Middlewares/lvgl/src/core/lv_obj.c **** 
 996              		.loc 1 476 9 is_stmt 1 view .LVU325
 997 012e 03AF     		add	r7, sp, #12
 998 0130 3A46     		mov	r2, r7
 999 0132 0021     		movs	r1, #0
 1000 0134 2046     		mov	r0, r4
 1001 0136 FFF7FEFF 		bl	lv_obj_init_draw_rect_dsc
 1002              	.LVL97:
 478:Middlewares/lvgl/src/core/lv_obj.c ****         lv_coord_t h = lv_obj_get_style_transform_height(obj, LV_PART_MAIN);
 1003              		.loc 1 478 9 view .LVU326
 1004              	.LBB139:
 1005              	.LBI139:
ARM GAS  /tmp/ccyhZZXZ.s 			page 48


  55:Middlewares/lvgl/src/core/lv_obj_style_gen.h **** {
 1006              		.loc 2 55 26 view .LVU327
 1007              	.LBB140:
  57:Middlewares/lvgl/src/core/lv_obj_style_gen.h ****     return (lv_coord_t)v.num;
 1008              		.loc 2 57 5 view .LVU328
  57:Middlewares/lvgl/src/core/lv_obj_style_gen.h ****     return (lv_coord_t)v.num;
 1009              		.loc 2 57 26 is_stmt 0 view .LVU329
 1010 013a 40F60A02 		movw	r2, #2058
 1011 013e 0021     		movs	r1, #0
 1012 0140 2046     		mov	r0, r4
 1013 0142 FFF7FEFF 		bl	lv_obj_get_style_prop
 1014              	.LVL98:
 1015 0146 0546     		mov	r5, r0
 1016              	.LVL99:
  58:Middlewares/lvgl/src/core/lv_obj_style_gen.h **** }
 1017              		.loc 2 58 5 is_stmt 1 view .LVU330
  58:Middlewares/lvgl/src/core/lv_obj_style_gen.h **** }
 1018              		.loc 2 58 5 is_stmt 0 view .LVU331
 1019              	.LBE140:
 1020              	.LBE139:
 479:Middlewares/lvgl/src/core/lv_obj.c ****         lv_area_t coords;
 1021              		.loc 1 479 9 is_stmt 1 view .LVU332
 1022              	.LBB141:
 1023              	.LBI141:
  61:Middlewares/lvgl/src/core/lv_obj_style_gen.h **** {
 1024              		.loc 2 61 26 view .LVU333
 1025              	.LBB142:
  63:Middlewares/lvgl/src/core/lv_obj_style_gen.h ****     return (lv_coord_t)v.num;
 1026              		.loc 2 63 5 view .LVU334
  63:Middlewares/lvgl/src/core/lv_obj_style_gen.h ****     return (lv_coord_t)v.num;
 1027              		.loc 2 63 26 is_stmt 0 view .LVU335
 1028 0148 40F60B02 		movw	r2, #2059
 1029 014c 0021     		movs	r1, #0
 1030 014e 2046     		mov	r0, r4
 1031 0150 FFF7FEFF 		bl	lv_obj_get_style_prop
 1032              	.LVL100:
  64:Middlewares/lvgl/src/core/lv_obj_style_gen.h **** }
 1033              		.loc 2 64 5 is_stmt 1 view .LVU336
  64:Middlewares/lvgl/src/core/lv_obj_style_gen.h **** }
 1034              		.loc 2 64 5 is_stmt 0 view .LVU337
 1035              	.LBE142:
 1036              	.LBE141:
 480:Middlewares/lvgl/src/core/lv_obj.c ****         lv_area_copy(&coords, &obj->coords);
 1037              		.loc 1 480 9 is_stmt 1 view .LVU338
 481:Middlewares/lvgl/src/core/lv_obj.c ****         coords.x1 -= w;
 1038              		.loc 1 481 9 view .LVU339
 1039              	.LBB143:
 1040              	.LBI143:
 120:Middlewares/lvgl/src/core/../misc/../font/../misc/lv_area.h **** {
 1041              		.loc 3 120 20 view .LVU340
 1042              	.LBB144:
 122:Middlewares/lvgl/src/core/../misc/../font/../misc/lv_area.h ****     dest->y1 = src->y1;
 1043              		.loc 3 122 5 view .LVU341
 122:Middlewares/lvgl/src/core/../misc/../font/../misc/lv_area.h ****     dest->y1 = src->y1;
 1044              		.loc 3 122 19 is_stmt 0 view .LVU342
 1045 0154 B4F914C0 		ldrsh	ip, [r4, #20]
 122:Middlewares/lvgl/src/core/../misc/../font/../misc/lv_area.h ****     dest->y1 = src->y1;
ARM GAS  /tmp/ccyhZZXZ.s 			page 49


 1046              		.loc 3 122 14 view .LVU343
 1047 0158 ADF804C0 		strh	ip, [sp, #4]	@ movhi
 123:Middlewares/lvgl/src/core/../misc/../font/../misc/lv_area.h ****     dest->x2 = src->x2;
 1048              		.loc 3 123 5 is_stmt 1 view .LVU344
 123:Middlewares/lvgl/src/core/../misc/../font/../misc/lv_area.h ****     dest->x2 = src->x2;
 1049              		.loc 3 123 19 is_stmt 0 view .LVU345
 1050 015c B4F91610 		ldrsh	r1, [r4, #22]
 123:Middlewares/lvgl/src/core/../misc/../font/../misc/lv_area.h ****     dest->x2 = src->x2;
 1051              		.loc 3 123 14 view .LVU346
 1052 0160 ADF80610 		strh	r1, [sp, #6]	@ movhi
 124:Middlewares/lvgl/src/core/../misc/../font/../misc/lv_area.h ****     dest->y2 = src->y2;
 1053              		.loc 3 124 5 is_stmt 1 view .LVU347
 124:Middlewares/lvgl/src/core/../misc/../font/../misc/lv_area.h ****     dest->y2 = src->y2;
 1054              		.loc 3 124 19 is_stmt 0 view .LVU348
 1055 0164 B4F91830 		ldrsh	r3, [r4, #24]
 124:Middlewares/lvgl/src/core/../misc/../font/../misc/lv_area.h ****     dest->y2 = src->y2;
 1056              		.loc 3 124 14 view .LVU349
 1057 0168 ADF80830 		strh	r3, [sp, #8]	@ movhi
 1058              		.loc 3 125 5 is_stmt 1 view .LVU350
 1059              		.loc 3 125 19 is_stmt 0 view .LVU351
 1060 016c B4F91AE0 		ldrsh	lr, [r4, #26]
 1061              		.loc 3 125 14 view .LVU352
 1062 0170 ADF80AE0 		strh	lr, [sp, #10]	@ movhi
 1063              	.LVL101:
 1064              		.loc 3 125 14 view .LVU353
 1065              	.LBE144:
 1066              	.LBE143:
 482:Middlewares/lvgl/src/core/lv_obj.c ****         coords.x2 += w;
 1067              		.loc 1 482 9 is_stmt 1 view .LVU354
 482:Middlewares/lvgl/src/core/lv_obj.c ****         coords.x2 += w;
 1068              		.loc 1 482 19 is_stmt 0 view .LVU355
 1069 0174 AAB2     		uxth	r2, r5
 1070 0176 ACEB020C 		sub	ip, ip, r2
 1071 017a ADF804C0 		strh	ip, [sp, #4]	@ movhi
 483:Middlewares/lvgl/src/core/lv_obj.c ****         coords.y1 -= h;
 1072              		.loc 1 483 9 is_stmt 1 view .LVU356
 483:Middlewares/lvgl/src/core/lv_obj.c ****         coords.y1 -= h;
 1073              		.loc 1 483 19 is_stmt 0 view .LVU357
 1074 017e 1A44     		add	r2, r2, r3
 1075 0180 ADF80820 		strh	r2, [sp, #8]	@ movhi
 484:Middlewares/lvgl/src/core/lv_obj.c ****         coords.y2 += h;
 1076              		.loc 1 484 9 is_stmt 1 view .LVU358
 484:Middlewares/lvgl/src/core/lv_obj.c ****         coords.y2 += h;
 1077              		.loc 1 484 19 is_stmt 0 view .LVU359
 1078 0184 83B2     		uxth	r3, r0
 1079 0186 C91A     		subs	r1, r1, r3
 1080 0188 ADF80610 		strh	r1, [sp, #6]	@ movhi
 485:Middlewares/lvgl/src/core/lv_obj.c **** 
 1081              		.loc 1 485 9 is_stmt 1 view .LVU360
 485:Middlewares/lvgl/src/core/lv_obj.c **** 
 1082              		.loc 1 485 19 is_stmt 0 view .LVU361
 1083 018c 7344     		add	r3, r3, lr
 1084 018e ADF80A30 		strh	r3, [sp, #10]	@ movhi
 488:Middlewares/lvgl/src/core/lv_obj.c ****         lv_obj_draw_dsc_init(&part_dsc, clip_area);
 1085              		.loc 1 488 9 is_stmt 1 view .LVU362
 489:Middlewares/lvgl/src/core/lv_obj.c ****         part_dsc.rect_dsc = &draw_dsc;
 1086              		.loc 1 489 9 view .LVU363
ARM GAS  /tmp/ccyhZZXZ.s 			page 50


 1087 0192 3146     		mov	r1, r6
 1088 0194 10A8     		add	r0, sp, #64
 1089              	.LVL102:
 489:Middlewares/lvgl/src/core/lv_obj.c ****         part_dsc.rect_dsc = &draw_dsc;
 1090              		.loc 1 489 9 is_stmt 0 view .LVU364
 1091 0196 FFF7FEFF 		bl	lv_obj_draw_dsc_init
 1092              	.LVL103:
 490:Middlewares/lvgl/src/core/lv_obj.c ****         part_dsc.draw_area = &coords;
 1093              		.loc 1 490 9 is_stmt 1 view .LVU365
 490:Middlewares/lvgl/src/core/lv_obj.c ****         part_dsc.draw_area = &coords;
 1094              		.loc 1 490 27 is_stmt 0 view .LVU366
 1095 019a 1297     		str	r7, [sp, #72]
 491:Middlewares/lvgl/src/core/lv_obj.c ****         part_dsc.part = LV_PART_MAIN;
 1096              		.loc 1 491 9 is_stmt 1 view .LVU367
 491:Middlewares/lvgl/src/core/lv_obj.c ****         part_dsc.part = LV_PART_MAIN;
 1097              		.loc 1 491 28 is_stmt 0 view .LVU368
 1098 019c 0DF10408 		add	r8, sp, #4
 1099 01a0 CDF84480 		str	r8, [sp, #68]
 492:Middlewares/lvgl/src/core/lv_obj.c ****         lv_event_send(obj, LV_EVENT_DRAW_PART_BEGIN, &part_dsc);
 1100              		.loc 1 492 9 is_stmt 1 view .LVU369
 492:Middlewares/lvgl/src/core/lv_obj.c ****         lv_event_send(obj, LV_EVENT_DRAW_PART_BEGIN, &part_dsc);
 1101              		.loc 1 492 23 is_stmt 0 view .LVU370
 1102 01a4 0025     		movs	r5, #0
 1103              	.LVL104:
 492:Middlewares/lvgl/src/core/lv_obj.c ****         lv_event_send(obj, LV_EVENT_DRAW_PART_BEGIN, &part_dsc);
 1104              		.loc 1 492 23 view .LVU371
 1105 01a6 1D95     		str	r5, [sp, #116]
 493:Middlewares/lvgl/src/core/lv_obj.c **** 
 1106              		.loc 1 493 9 is_stmt 1 view .LVU372
 1107 01a8 10AA     		add	r2, sp, #64
 1108 01aa 1A21     		movs	r1, #26
 1109 01ac 2046     		mov	r0, r4
 1110 01ae FFF7FEFF 		bl	lv_event_send
 1111              	.LVL105:
 495:Middlewares/lvgl/src/core/lv_obj.c **** 
 1112              		.loc 1 495 9 view .LVU373
 1113 01b2 3A46     		mov	r2, r7
 1114 01b4 3146     		mov	r1, r6
 1115 01b6 4046     		mov	r0, r8
 1116 01b8 FFF7FEFF 		bl	lv_draw_rect
 1117              	.LVL106:
 497:Middlewares/lvgl/src/core/lv_obj.c **** 
 1118              		.loc 1 497 9 view .LVU374
 1119 01bc 10AA     		add	r2, sp, #64
 1120 01be 1B21     		movs	r1, #27
 1121 01c0 2046     		mov	r0, r4
 1122 01c2 FFF7FEFF 		bl	lv_event_send
 1123              	.LVL107:
 500:Middlewares/lvgl/src/core/lv_obj.c ****             lv_draw_mask_radius_param_t * mp = lv_mem_buf_get(sizeof(lv_draw_mask_radius_param_t));
 1124              		.loc 1 500 9 view .LVU375
 1125              	.LBB145:
 1126              	.LBI145:
 133:Middlewares/lvgl/src/core/lv_obj_style_gen.h **** {
 1127              		.loc 2 133 20 view .LVU376
 1128              	.LBB146:
 135:Middlewares/lvgl/src/core/lv_obj_style_gen.h ****     return (bool)v.num;
 1129              		.loc 2 135 5 view .LVU377
ARM GAS  /tmp/ccyhZZXZ.s 			page 51


 135:Middlewares/lvgl/src/core/lv_obj_style_gen.h ****     return (bool)v.num;
 1130              		.loc 2 135 26 is_stmt 0 view .LVU378
 1131 01c6 6122     		movs	r2, #97
 1132 01c8 2946     		mov	r1, r5
 1133 01ca 2046     		mov	r0, r4
 1134 01cc FFF7FEFF 		bl	lv_obj_get_style_prop
 1135              	.LVL108:
 136:Middlewares/lvgl/src/core/lv_obj_style_gen.h **** }
 1136              		.loc 2 136 5 is_stmt 1 view .LVU379
 136:Middlewares/lvgl/src/core/lv_obj_style_gen.h **** }
 1137              		.loc 2 136 5 is_stmt 0 view .LVU380
 1138              	.LBE146:
 1139              	.LBE145:
 500:Middlewares/lvgl/src/core/lv_obj.c ****             lv_draw_mask_radius_param_t * mp = lv_mem_buf_get(sizeof(lv_draw_mask_radius_param_t));
 1140              		.loc 1 500 11 view .LVU381
 1141 01d0 0028     		cmp	r0, #0
 1142 01d2 3FF427AF 		beq	.L35
 1143              	.LBB147:
 501:Middlewares/lvgl/src/core/lv_obj.c ****             lv_coord_t r = lv_obj_get_style_radius(obj, LV_PART_MAIN);
 1144              		.loc 1 501 13 is_stmt 1 view .LVU382
 501:Middlewares/lvgl/src/core/lv_obj.c ****             lv_coord_t r = lv_obj_get_style_radius(obj, LV_PART_MAIN);
 1145              		.loc 1 501 48 is_stmt 0 view .LVU383
 1146 01d6 1C20     		movs	r0, #28
 1147 01d8 FFF7FEFF 		bl	lv_mem_buf_get
 1148              	.LVL109:
 1149 01dc 0546     		mov	r5, r0
 1150              	.LVL110:
 502:Middlewares/lvgl/src/core/lv_obj.c ****             lv_draw_mask_radius_init(mp, &obj->coords, r, false);
 1151              		.loc 1 502 13 is_stmt 1 view .LVU384
 1152              	.LBB148:
 1153              	.LBI148:
 127:Middlewares/lvgl/src/core/lv_obj_style_gen.h **** {
 1154              		.loc 2 127 26 view .LVU385
 1155              	.LBB149:
 129:Middlewares/lvgl/src/core/lv_obj_style_gen.h ****     return (lv_coord_t)v.num;
 1156              		.loc 2 129 5 view .LVU386
 129:Middlewares/lvgl/src/core/lv_obj_style_gen.h ****     return (lv_coord_t)v.num;
 1157              		.loc 2 129 26 is_stmt 0 view .LVU387
 1158 01de 6022     		movs	r2, #96
 1159 01e0 0021     		movs	r1, #0
 1160 01e2 2046     		mov	r0, r4
 1161              	.LVL111:
 129:Middlewares/lvgl/src/core/lv_obj_style_gen.h ****     return (lv_coord_t)v.num;
 1162              		.loc 2 129 26 view .LVU388
 1163 01e4 FFF7FEFF 		bl	lv_obj_get_style_prop
 1164              	.LVL112:
 130:Middlewares/lvgl/src/core/lv_obj_style_gen.h **** }
 1165              		.loc 2 130 5 is_stmt 1 view .LVU389
 130:Middlewares/lvgl/src/core/lv_obj_style_gen.h **** }
 1166              		.loc 2 130 5 is_stmt 0 view .LVU390
 1167              	.LBE149:
 1168              	.LBE148:
 503:Middlewares/lvgl/src/core/lv_obj.c ****             /*Add the mask and use `obj+8` as custom id. Don't use `obj` directly because it might 
 1169              		.loc 1 503 13 is_stmt 1 view .LVU391
 1170 01e8 0023     		movs	r3, #0
 1171 01ea 02B2     		sxth	r2, r0
 1172 01ec 04F11401 		add	r1, r4, #20
ARM GAS  /tmp/ccyhZZXZ.s 			page 52


 1173 01f0 2846     		mov	r0, r5
 1174              	.LVL113:
 503:Middlewares/lvgl/src/core/lv_obj.c ****             /*Add the mask and use `obj+8` as custom id. Don't use `obj` directly because it might 
 1175              		.loc 1 503 13 is_stmt 0 view .LVU392
 1176 01f2 FFF7FEFF 		bl	lv_draw_mask_radius_init
 1177              	.LVL114:
 505:Middlewares/lvgl/src/core/lv_obj.c ****         }
 1178              		.loc 1 505 13 is_stmt 1 view .LVU393
 1179 01f6 04F59071 		add	r1, r4, #288
 1180 01fa 2846     		mov	r0, r5
 1181 01fc FFF7FEFF 		bl	lv_draw_mask_add
 1182              	.LVL115:
 1183 0200 10E7     		b	.L35
 1184              	.LVL116:
 1185              	.L51:
 505:Middlewares/lvgl/src/core/lv_obj.c ****         }
 1186              		.loc 1 505 13 is_stmt 0 view .LVU394
 1187              	.LBE147:
 1188              	.LBE136:
 1189              	.LBB150:
 510:Middlewares/lvgl/src/core/lv_obj.c ****         draw_scrollbar(obj, clip_area);
 1190              		.loc 1 510 9 is_stmt 1 view .LVU395
 510:Middlewares/lvgl/src/core/lv_obj.c ****         draw_scrollbar(obj, clip_area);
 1191              		.loc 1 510 39 is_stmt 0 view .LVU396
 1192 0202 3046     		mov	r0, r6
 1193              	.LVL117:
 510:Middlewares/lvgl/src/core/lv_obj.c ****         draw_scrollbar(obj, clip_area);
 1194              		.loc 1 510 39 view .LVU397
 1195 0204 FFF7FEFF 		bl	lv_event_get_param
 1196              	.LVL118:
 1197 0208 0546     		mov	r5, r0
 1198              	.LVL119:
 511:Middlewares/lvgl/src/core/lv_obj.c **** 
 1199              		.loc 1 511 9 is_stmt 1 view .LVU398
 1200 020a 0146     		mov	r1, r0
 1201 020c 2046     		mov	r0, r4
 1202              	.LVL120:
 511:Middlewares/lvgl/src/core/lv_obj.c **** 
 1203              		.loc 1 511 9 is_stmt 0 view .LVU399
 1204 020e FFF7FEFF 		bl	draw_scrollbar
 1205              	.LVL121:
 514:Middlewares/lvgl/src/core/lv_obj.c ****             lv_draw_mask_radius_param_t * param = lv_draw_mask_remove_custom(obj + 8);
 1206              		.loc 1 514 9 is_stmt 1 view .LVU400
 1207              	.LBB151:
 1208              	.LBI151:
 133:Middlewares/lvgl/src/core/lv_obj_style_gen.h **** {
 1209              		.loc 2 133 20 view .LVU401
 1210              	.LBB152:
 135:Middlewares/lvgl/src/core/lv_obj_style_gen.h ****     return (bool)v.num;
 1211              		.loc 2 135 5 view .LVU402
 135:Middlewares/lvgl/src/core/lv_obj_style_gen.h ****     return (bool)v.num;
 1212              		.loc 2 135 26 is_stmt 0 view .LVU403
 1213 0212 6122     		movs	r2, #97
 1214 0214 0021     		movs	r1, #0
 1215 0216 2046     		mov	r0, r4
 1216 0218 FFF7FEFF 		bl	lv_obj_get_style_prop
 1217              	.LVL122:
ARM GAS  /tmp/ccyhZZXZ.s 			page 53


 136:Middlewares/lvgl/src/core/lv_obj_style_gen.h **** }
 1218              		.loc 2 136 5 is_stmt 1 view .LVU404
 136:Middlewares/lvgl/src/core/lv_obj_style_gen.h **** }
 1219              		.loc 2 136 5 is_stmt 0 view .LVU405
 1220              	.LBE152:
 1221              	.LBE151:
 514:Middlewares/lvgl/src/core/lv_obj.c ****             lv_draw_mask_radius_param_t * param = lv_draw_mask_remove_custom(obj + 8);
 1222              		.loc 1 514 11 view .LVU406
 1223 021c 0028     		cmp	r0, #0
 1224 021e 47D1     		bne	.L53
 1225              	.L47:
 521:Middlewares/lvgl/src/core/lv_obj.c ****             lv_draw_rect_dsc_t draw_dsc;
 1226              		.loc 1 521 9 is_stmt 1 view .LVU407
 1227              	.LVL123:
 1228              	.LBB153:
 1229              	.LBI153:
 307:Middlewares/lvgl/src/core/lv_obj_style_gen.h **** {
 1230              		.loc 2 307 20 view .LVU408
 1231              	.LBB154:
 309:Middlewares/lvgl/src/core/lv_obj_style_gen.h ****     return (bool)v.num;
 1232              		.loc 2 309 5 view .LVU409
 309:Middlewares/lvgl/src/core/lv_obj_style_gen.h ****     return (bool)v.num;
 1233              		.loc 2 309 26 is_stmt 0 view .LVU410
 1234 0220 3422     		movs	r2, #52
 1235 0222 0021     		movs	r1, #0
 1236 0224 2046     		mov	r0, r4
 1237 0226 FFF7FEFF 		bl	lv_obj_get_style_prop
 1238              	.LVL124:
 310:Middlewares/lvgl/src/core/lv_obj_style_gen.h **** }
 1239              		.loc 2 310 5 is_stmt 1 view .LVU411
 310:Middlewares/lvgl/src/core/lv_obj_style_gen.h **** }
 1240              		.loc 2 310 5 is_stmt 0 view .LVU412
 1241              	.LBE154:
 1242              	.LBE153:
 521:Middlewares/lvgl/src/core/lv_obj.c ****             lv_draw_rect_dsc_t draw_dsc;
 1243              		.loc 1 521 11 view .LVU413
 1244 022a 0028     		cmp	r0, #0
 1245 022c 3FF4FAAE 		beq	.L35
 1246              	.LBB155:
 522:Middlewares/lvgl/src/core/lv_obj.c ****             lv_draw_rect_dsc_init(&draw_dsc);
 1247              		.loc 1 522 13 is_stmt 1 discriminator 3 view .LVU414
 523:Middlewares/lvgl/src/core/lv_obj.c ****             draw_dsc.bg_opa = LV_OPA_TRANSP;
 1248              		.loc 1 523 13 discriminator 3 view .LVU415
 1249 0230 10A8     		add	r0, sp, #64
 1250 0232 FFF7FEFF 		bl	lv_draw_rect_dsc_init
 1251              	.LVL125:
 524:Middlewares/lvgl/src/core/lv_obj.c ****             draw_dsc.outline_opa = LV_OPA_TRANSP;
 1252              		.loc 1 524 13 discriminator 3 view .LVU416
 524:Middlewares/lvgl/src/core/lv_obj.c ****             draw_dsc.outline_opa = LV_OPA_TRANSP;
 1253              		.loc 1 524 29 is_stmt 0 discriminator 3 view .LVU417
 1254 0236 0027     		movs	r7, #0
 1255 0238 8DF84A70 		strb	r7, [sp, #74]
 525:Middlewares/lvgl/src/core/lv_obj.c ****             draw_dsc.shadow_opa = LV_OPA_TRANSP;
 1256              		.loc 1 525 13 is_stmt 1 discriminator 3 view .LVU418
 525:Middlewares/lvgl/src/core/lv_obj.c ****             draw_dsc.shadow_opa = LV_OPA_TRANSP;
 1257              		.loc 1 525 34 is_stmt 0 discriminator 3 view .LVU419
 1258 023c 8DF86670 		strb	r7, [sp, #102]
ARM GAS  /tmp/ccyhZZXZ.s 			page 54


 526:Middlewares/lvgl/src/core/lv_obj.c ****             lv_obj_init_draw_rect_dsc(obj, LV_PART_MAIN, &draw_dsc);
 1259              		.loc 1 526 13 is_stmt 1 discriminator 3 view .LVU420
 526:Middlewares/lvgl/src/core/lv_obj.c ****             lv_obj_init_draw_rect_dsc(obj, LV_PART_MAIN, &draw_dsc);
 1260              		.loc 1 526 33 is_stmt 0 discriminator 3 view .LVU421
 1261 0240 8DF87270 		strb	r7, [sp, #114]
 527:Middlewares/lvgl/src/core/lv_obj.c **** 
 1262              		.loc 1 527 13 is_stmt 1 discriminator 3 view .LVU422
 1263 0244 10AA     		add	r2, sp, #64
 1264 0246 3946     		mov	r1, r7
 1265 0248 2046     		mov	r0, r4
 1266 024a FFF7FEFF 		bl	lv_obj_init_draw_rect_dsc
 1267              	.LVL126:
 529:Middlewares/lvgl/src/core/lv_obj.c ****             lv_coord_t h = lv_obj_get_style_transform_height(obj, LV_PART_MAIN);
 1268              		.loc 1 529 13 discriminator 3 view .LVU423
 1269              	.LBB156:
 1270              	.LBI156:
  55:Middlewares/lvgl/src/core/lv_obj_style_gen.h **** {
 1271              		.loc 2 55 26 discriminator 3 view .LVU424
 1272              	.LBB157:
  57:Middlewares/lvgl/src/core/lv_obj_style_gen.h ****     return (lv_coord_t)v.num;
 1273              		.loc 2 57 5 discriminator 3 view .LVU425
  57:Middlewares/lvgl/src/core/lv_obj_style_gen.h ****     return (lv_coord_t)v.num;
 1274              		.loc 2 57 26 is_stmt 0 discriminator 3 view .LVU426
 1275 024e 40F60A02 		movw	r2, #2058
 1276 0252 3946     		mov	r1, r7
 1277 0254 2046     		mov	r0, r4
 1278 0256 FFF7FEFF 		bl	lv_obj_get_style_prop
 1279              	.LVL127:
 1280 025a 0646     		mov	r6, r0
 1281              	.LVL128:
  58:Middlewares/lvgl/src/core/lv_obj_style_gen.h **** }
 1282              		.loc 2 58 5 is_stmt 1 discriminator 3 view .LVU427
  58:Middlewares/lvgl/src/core/lv_obj_style_gen.h **** }
 1283              		.loc 2 58 5 is_stmt 0 discriminator 3 view .LVU428
 1284              	.LBE157:
 1285              	.LBE156:
 530:Middlewares/lvgl/src/core/lv_obj.c ****             lv_area_t coords;
 1286              		.loc 1 530 13 is_stmt 1 discriminator 3 view .LVU429
 1287              	.LBB158:
 1288              	.LBI158:
  61:Middlewares/lvgl/src/core/lv_obj_style_gen.h **** {
 1289              		.loc 2 61 26 discriminator 3 view .LVU430
 1290              	.LBB159:
  63:Middlewares/lvgl/src/core/lv_obj_style_gen.h ****     return (lv_coord_t)v.num;
 1291              		.loc 2 63 5 discriminator 3 view .LVU431
  63:Middlewares/lvgl/src/core/lv_obj_style_gen.h ****     return (lv_coord_t)v.num;
 1292              		.loc 2 63 26 is_stmt 0 discriminator 3 view .LVU432
 1293 025c 40F60B02 		movw	r2, #2059
 1294 0260 3946     		mov	r1, r7
 1295 0262 2046     		mov	r0, r4
 1296 0264 FFF7FEFF 		bl	lv_obj_get_style_prop
 1297              	.LVL129:
  64:Middlewares/lvgl/src/core/lv_obj_style_gen.h **** }
 1298              		.loc 2 64 5 is_stmt 1 discriminator 3 view .LVU433
  64:Middlewares/lvgl/src/core/lv_obj_style_gen.h **** }
 1299              		.loc 2 64 5 is_stmt 0 discriminator 3 view .LVU434
 1300              	.LBE159:
ARM GAS  /tmp/ccyhZZXZ.s 			page 55


 1301              	.LBE158:
 531:Middlewares/lvgl/src/core/lv_obj.c ****             lv_area_copy(&coords, &obj->coords);
 1302              		.loc 1 531 13 is_stmt 1 discriminator 3 view .LVU435
 532:Middlewares/lvgl/src/core/lv_obj.c ****             coords.x1 -= w;
 1303              		.loc 1 532 13 discriminator 3 view .LVU436
 1304              	.LBB160:
 1305              	.LBI160:
 120:Middlewares/lvgl/src/core/../misc/../font/../misc/lv_area.h **** {
 1306              		.loc 3 120 20 discriminator 3 view .LVU437
 1307              	.LBB161:
 122:Middlewares/lvgl/src/core/../misc/../font/../misc/lv_area.h ****     dest->y1 = src->y1;
 1308              		.loc 3 122 5 discriminator 3 view .LVU438
 122:Middlewares/lvgl/src/core/../misc/../font/../misc/lv_area.h ****     dest->y1 = src->y1;
 1309              		.loc 3 122 19 is_stmt 0 discriminator 3 view .LVU439
 1310 0268 B4F91410 		ldrsh	r1, [r4, #20]
 122:Middlewares/lvgl/src/core/../misc/../font/../misc/lv_area.h ****     dest->y1 = src->y1;
 1311              		.loc 3 122 14 discriminator 3 view .LVU440
 1312 026c ADF80C10 		strh	r1, [sp, #12]	@ movhi
 123:Middlewares/lvgl/src/core/../misc/../font/../misc/lv_area.h ****     dest->x2 = src->x2;
 1313              		.loc 3 123 5 is_stmt 1 discriminator 3 view .LVU441
 123:Middlewares/lvgl/src/core/../misc/../font/../misc/lv_area.h ****     dest->x2 = src->x2;
 1314              		.loc 3 123 19 is_stmt 0 discriminator 3 view .LVU442
 1315 0270 B4F91620 		ldrsh	r2, [r4, #22]
 123:Middlewares/lvgl/src/core/../misc/../font/../misc/lv_area.h ****     dest->x2 = src->x2;
 1316              		.loc 3 123 14 discriminator 3 view .LVU443
 1317 0274 ADF80E20 		strh	r2, [sp, #14]	@ movhi
 124:Middlewares/lvgl/src/core/../misc/../font/../misc/lv_area.h ****     dest->y2 = src->y2;
 1318              		.loc 3 124 5 is_stmt 1 discriminator 3 view .LVU444
 124:Middlewares/lvgl/src/core/../misc/../font/../misc/lv_area.h ****     dest->y2 = src->y2;
 1319              		.loc 3 124 19 is_stmt 0 discriminator 3 view .LVU445
 1320 0278 B4F91870 		ldrsh	r7, [r4, #24]
 124:Middlewares/lvgl/src/core/../misc/../font/../misc/lv_area.h ****     dest->y2 = src->y2;
 1321              		.loc 3 124 14 discriminator 3 view .LVU446
 1322 027c ADF81070 		strh	r7, [sp, #16]	@ movhi
 1323              		.loc 3 125 5 is_stmt 1 discriminator 3 view .LVU447
 1324              		.loc 3 125 19 is_stmt 0 discriminator 3 view .LVU448
 1325 0280 B4F91A40 		ldrsh	r4, [r4, #26]
 1326              	.LVL130:
 1327              		.loc 3 125 14 discriminator 3 view .LVU449
 1328 0284 ADF81240 		strh	r4, [sp, #18]	@ movhi
 1329              	.LVL131:
 1330              		.loc 3 125 14 discriminator 3 view .LVU450
 1331              	.LBE161:
 1332              	.LBE160:
 533:Middlewares/lvgl/src/core/lv_obj.c ****             coords.x2 += w;
 1333              		.loc 1 533 13 is_stmt 1 discriminator 3 view .LVU451
 533:Middlewares/lvgl/src/core/lv_obj.c ****             coords.x2 += w;
 1334              		.loc 1 533 23 is_stmt 0 discriminator 3 view .LVU452
 1335 0288 B3B2     		uxth	r3, r6
 1336 028a C91A     		subs	r1, r1, r3
 1337 028c ADF80C10 		strh	r1, [sp, #12]	@ movhi
 534:Middlewares/lvgl/src/core/lv_obj.c ****             coords.y1 -= h;
 1338              		.loc 1 534 13 is_stmt 1 discriminator 3 view .LVU453
 534:Middlewares/lvgl/src/core/lv_obj.c ****             coords.y1 -= h;
 1339              		.loc 1 534 23 is_stmt 0 discriminator 3 view .LVU454
 1340 0290 3B44     		add	r3, r3, r7
 1341 0292 ADF81030 		strh	r3, [sp, #16]	@ movhi
ARM GAS  /tmp/ccyhZZXZ.s 			page 56


 535:Middlewares/lvgl/src/core/lv_obj.c ****             coords.y2 += h;
 1342              		.loc 1 535 13 is_stmt 1 discriminator 3 view .LVU455
 535:Middlewares/lvgl/src/core/lv_obj.c ****             coords.y2 += h;
 1343              		.loc 1 535 23 is_stmt 0 discriminator 3 view .LVU456
 1344 0296 80B2     		uxth	r0, r0
 535:Middlewares/lvgl/src/core/lv_obj.c ****             coords.y2 += h;
 1345              		.loc 1 535 23 discriminator 3 view .LVU457
 1346 0298 121A     		subs	r2, r2, r0
 1347 029a ADF80E20 		strh	r2, [sp, #14]	@ movhi
 536:Middlewares/lvgl/src/core/lv_obj.c ****             lv_draw_rect(&coords, clip_area, &draw_dsc);
 1348              		.loc 1 536 13 is_stmt 1 discriminator 3 view .LVU458
 536:Middlewares/lvgl/src/core/lv_obj.c ****             lv_draw_rect(&coords, clip_area, &draw_dsc);
 1349              		.loc 1 536 23 is_stmt 0 discriminator 3 view .LVU459
 1350 029e 2044     		add	r0, r0, r4
 1351              	.LVL132:
 536:Middlewares/lvgl/src/core/lv_obj.c ****             lv_draw_rect(&coords, clip_area, &draw_dsc);
 1352              		.loc 1 536 23 discriminator 3 view .LVU460
 1353 02a0 ADF81200 		strh	r0, [sp, #18]	@ movhi
 537:Middlewares/lvgl/src/core/lv_obj.c ****         }
 1354              		.loc 1 537 13 is_stmt 1 discriminator 3 view .LVU461
 1355 02a4 10AA     		add	r2, sp, #64
 1356 02a6 2946     		mov	r1, r5
 1357 02a8 03A8     		add	r0, sp, #12
 1358 02aa FFF7FEFF 		bl	lv_draw_rect
 1359              	.LVL133:
 1360 02ae B9E6     		b	.L35
 1361              	.LVL134:
 1362              	.L53:
 537:Middlewares/lvgl/src/core/lv_obj.c ****         }
 1363              		.loc 1 537 13 is_stmt 0 discriminator 3 view .LVU462
 1364              	.LBE155:
 1365              	.LBB162:
 515:Middlewares/lvgl/src/core/lv_obj.c ****             lv_mem_buf_release(param);
 1366              		.loc 1 515 13 is_stmt 1 view .LVU463
 515:Middlewares/lvgl/src/core/lv_obj.c ****             lv_mem_buf_release(param);
 1367              		.loc 1 515 51 is_stmt 0 view .LVU464
 1368 02b0 04F59070 		add	r0, r4, #288
 1369 02b4 FFF7FEFF 		bl	lv_draw_mask_remove_custom
 1370              	.LVL135:
 516:Middlewares/lvgl/src/core/lv_obj.c ****         }
 1371              		.loc 1 516 13 is_stmt 1 view .LVU465
 1372 02b8 FFF7FEFF 		bl	lv_mem_buf_release
 1373              	.LVL136:
 516:Middlewares/lvgl/src/core/lv_obj.c ****         }
 1374              		.loc 1 516 13 is_stmt 0 view .LVU466
 1375 02bc B0E7     		b	.L47
 1376              	.LBE162:
 1377              	.LBE150:
 1378              		.cfi_endproc
 1379              	.LFE172:
 1381              		.section	.text.lv_obj_destructor,"ax",%progbits
 1382              		.align	1
 1383              		.syntax unified
 1384              		.thumb
 1385              		.thumb_func
 1386              		.fpu fpv4-sp-d16
 1388              	lv_obj_destructor:
ARM GAS  /tmp/ccyhZZXZ.s 			page 57


 1389              	.LVL137:
 1390              	.LFB171:
 401:Middlewares/lvgl/src/core/lv_obj.c ****     LV_UNUSED(class_p);
 1391              		.loc 1 401 1 is_stmt 1 view -0
 1392              		.cfi_startproc
 1393              		@ args = 0, pretend = 0, frame = 0
 1394              		@ frame_needed = 0, uses_anonymous_args = 0
 402:Middlewares/lvgl/src/core/lv_obj.c **** 
 1395              		.loc 1 402 5 view .LVU468
 404:Middlewares/lvgl/src/core/lv_obj.c ****         if(obj->spec_attr->children) {
 1396              		.loc 1 404 5 view .LVU469
 404:Middlewares/lvgl/src/core/lv_obj.c ****         if(obj->spec_attr->children) {
 1397              		.loc 1 404 11 is_stmt 0 view .LVU470
 1398 0000 8B68     		ldr	r3, [r1, #8]
 404:Middlewares/lvgl/src/core/lv_obj.c ****         if(obj->spec_attr->children) {
 1399              		.loc 1 404 7 view .LVU471
 1400 0002 B3B1     		cbz	r3, .L59
 401:Middlewares/lvgl/src/core/lv_obj.c ****     LV_UNUSED(class_p);
 1401              		.loc 1 401 1 view .LVU472
 1402 0004 10B5     		push	{r4, lr}
 1403              	.LCFI10:
 1404              		.cfi_def_cfa_offset 8
 1405              		.cfi_offset 4, -8
 1406              		.cfi_offset 14, -4
 1407 0006 0C46     		mov	r4, r1
 405:Middlewares/lvgl/src/core/lv_obj.c ****             lv_mem_free(obj->spec_attr->children);
 1408              		.loc 1 405 9 is_stmt 1 view .LVU473
 405:Middlewares/lvgl/src/core/lv_obj.c ****             lv_mem_free(obj->spec_attr->children);
 1409              		.loc 1 405 26 is_stmt 0 view .LVU474
 1410 0008 1868     		ldr	r0, [r3]
 1411              	.LVL138:
 405:Middlewares/lvgl/src/core/lv_obj.c ****             lv_mem_free(obj->spec_attr->children);
 1412              		.loc 1 405 11 view .LVU475
 1413 000a 20B1     		cbz	r0, .L56
 406:Middlewares/lvgl/src/core/lv_obj.c ****             obj->spec_attr->children = NULL;
 1414              		.loc 1 406 13 is_stmt 1 view .LVU476
 1415 000c FFF7FEFF 		bl	lv_mem_free
 1416              	.LVL139:
 407:Middlewares/lvgl/src/core/lv_obj.c ****         }
 1417              		.loc 1 407 13 view .LVU477
 407:Middlewares/lvgl/src/core/lv_obj.c ****         }
 1418              		.loc 1 407 16 is_stmt 0 view .LVU478
 1419 0010 A368     		ldr	r3, [r4, #8]
 407:Middlewares/lvgl/src/core/lv_obj.c ****         }
 1420              		.loc 1 407 38 view .LVU479
 1421 0012 0022     		movs	r2, #0
 1422 0014 1A60     		str	r2, [r3]
 1423              	.L56:
 409:Middlewares/lvgl/src/core/lv_obj.c ****             lv_mem_free(obj->spec_attr->event_dsc);
 1424              		.loc 1 409 9 is_stmt 1 view .LVU480
 409:Middlewares/lvgl/src/core/lv_obj.c ****             lv_mem_free(obj->spec_attr->event_dsc);
 1425              		.loc 1 409 15 is_stmt 0 view .LVU481
 1426 0016 A368     		ldr	r3, [r4, #8]
 409:Middlewares/lvgl/src/core/lv_obj.c ****             lv_mem_free(obj->spec_attr->event_dsc);
 1427              		.loc 1 409 26 view .LVU482
 1428 0018 D868     		ldr	r0, [r3, #12]
 409:Middlewares/lvgl/src/core/lv_obj.c ****             lv_mem_free(obj->spec_attr->event_dsc);
ARM GAS  /tmp/ccyhZZXZ.s 			page 58


 1429              		.loc 1 409 11 view .LVU483
 1430 001a 20B1     		cbz	r0, .L57
 410:Middlewares/lvgl/src/core/lv_obj.c ****             obj->spec_attr->event_dsc = NULL;
 1431              		.loc 1 410 13 is_stmt 1 view .LVU484
 1432 001c FFF7FEFF 		bl	lv_mem_free
 1433              	.LVL140:
 411:Middlewares/lvgl/src/core/lv_obj.c ****         }
 1434              		.loc 1 411 13 view .LVU485
 411:Middlewares/lvgl/src/core/lv_obj.c ****         }
 1435              		.loc 1 411 16 is_stmt 0 view .LVU486
 1436 0020 A368     		ldr	r3, [r4, #8]
 411:Middlewares/lvgl/src/core/lv_obj.c ****         }
 1437              		.loc 1 411 39 view .LVU487
 1438 0022 0022     		movs	r2, #0
 1439 0024 DA60     		str	r2, [r3, #12]
 1440              	.L57:
 414:Middlewares/lvgl/src/core/lv_obj.c ****         obj->spec_attr = NULL;
 1441              		.loc 1 414 9 is_stmt 1 view .LVU488
 1442 0026 A068     		ldr	r0, [r4, #8]
 1443 0028 FFF7FEFF 		bl	lv_mem_free
 1444              	.LVL141:
 415:Middlewares/lvgl/src/core/lv_obj.c ****     }
 1445              		.loc 1 415 9 view .LVU489
 415:Middlewares/lvgl/src/core/lv_obj.c ****     }
 1446              		.loc 1 415 24 is_stmt 0 view .LVU490
 1447 002c 0023     		movs	r3, #0
 1448 002e A360     		str	r3, [r4, #8]
 418:Middlewares/lvgl/src/core/lv_obj.c **** 
 1449              		.loc 1 418 1 view .LVU491
 1450 0030 10BD     		pop	{r4, pc}
 1451              	.LVL142:
 1452              	.L59:
 1453              	.LCFI11:
 1454              		.cfi_def_cfa_offset 0
 1455              		.cfi_restore 4
 1456              		.cfi_restore 14
 418:Middlewares/lvgl/src/core/lv_obj.c **** 
 1457              		.loc 1 418 1 view .LVU492
 1458 0032 7047     		bx	lr
 1459              		.cfi_endproc
 1460              	.LFE171:
 1462              		.section	.text.lv_obj_constructor,"ax",%progbits
 1463              		.align	1
 1464              		.syntax unified
 1465              		.thumb
 1466              		.thumb_func
 1467              		.fpu fpv4-sp-d16
 1469              	lv_obj_constructor:
 1470              	.LVL143:
 1471              	.LFB170:
 371:Middlewares/lvgl/src/core/lv_obj.c ****     LV_UNUSED(class_p);
 1472              		.loc 1 371 1 is_stmt 1 view -0
 1473              		.cfi_startproc
 1474              		@ args = 0, pretend = 0, frame = 0
 1475              		@ frame_needed = 0, uses_anonymous_args = 0
 371:Middlewares/lvgl/src/core/lv_obj.c ****     LV_UNUSED(class_p);
 1476              		.loc 1 371 1 is_stmt 0 view .LVU494
ARM GAS  /tmp/ccyhZZXZ.s 			page 59


 1477 0000 2DE9F041 		push	{r4, r5, r6, r7, r8, lr}
 1478              	.LCFI12:
 1479              		.cfi_def_cfa_offset 24
 1480              		.cfi_offset 4, -24
 1481              		.cfi_offset 5, -20
 1482              		.cfi_offset 6, -16
 1483              		.cfi_offset 7, -12
 1484              		.cfi_offset 8, -8
 1485              		.cfi_offset 14, -4
 1486 0004 0C46     		mov	r4, r1
 372:Middlewares/lvgl/src/core/lv_obj.c ****     LV_TRACE_OBJ_CREATE("begin");
 1487              		.loc 1 372 5 is_stmt 1 view .LVU495
 373:Middlewares/lvgl/src/core/lv_obj.c **** 
 1488              		.loc 1 373 33 view .LVU496
 375:Middlewares/lvgl/src/core/lv_obj.c ****     if(parent) {
 1489              		.loc 1 375 5 view .LVU497
 375:Middlewares/lvgl/src/core/lv_obj.c ****     if(parent) {
 1490              		.loc 1 375 16 is_stmt 0 view .LVU498
 1491 0006 4D68     		ldr	r5, [r1, #4]
 1492              	.LVL144:
 376:Middlewares/lvgl/src/core/lv_obj.c ****         lv_coord_t sl = lv_obj_get_scroll_left(parent);
 1493              		.loc 1 376 5 is_stmt 1 view .LVU499
 376:Middlewares/lvgl/src/core/lv_obj.c ****         lv_coord_t sl = lv_obj_get_scroll_left(parent);
 1494              		.loc 1 376 7 is_stmt 0 view .LVU500
 1495 0008 35B3     		cbz	r5, .L63
 1496              	.LBB163:
 377:Middlewares/lvgl/src/core/lv_obj.c ****         lv_coord_t st = lv_obj_get_scroll_top(parent);
 1497              		.loc 1 377 9 is_stmt 1 view .LVU501
 377:Middlewares/lvgl/src/core/lv_obj.c ****         lv_coord_t st = lv_obj_get_scroll_top(parent);
 1498              		.loc 1 377 25 is_stmt 0 view .LVU502
 1499 000a 2846     		mov	r0, r5
 1500              	.LVL145:
 377:Middlewares/lvgl/src/core/lv_obj.c ****         lv_coord_t st = lv_obj_get_scroll_top(parent);
 1501              		.loc 1 377 25 view .LVU503
 1502 000c FFF7FEFF 		bl	lv_obj_get_scroll_left
 1503              	.LVL146:
 377:Middlewares/lvgl/src/core/lv_obj.c ****         lv_coord_t st = lv_obj_get_scroll_top(parent);
 1504              		.loc 1 377 25 view .LVU504
 1505 0010 0646     		mov	r6, r0
 1506              	.LVL147:
 378:Middlewares/lvgl/src/core/lv_obj.c **** 
 1507              		.loc 1 378 9 is_stmt 1 view .LVU505
 378:Middlewares/lvgl/src/core/lv_obj.c **** 
 1508              		.loc 1 378 25 is_stmt 0 view .LVU506
 1509 0012 2846     		mov	r0, r5
 1510 0014 FFF7FEFF 		bl	lv_obj_get_scroll_top
 1511              	.LVL148:
 1512 0018 0746     		mov	r7, r0
 1513              	.LVL149:
 380:Middlewares/lvgl/src/core/lv_obj.c ****         obj->coords.y2 = obj->coords.y1 - 1;
 1514              		.loc 1 380 9 is_stmt 1 view .LVU507
 380:Middlewares/lvgl/src/core/lv_obj.c ****         obj->coords.y2 = obj->coords.y1 - 1;
 1515              		.loc 1 380 40 is_stmt 0 view .LVU508
 1516 001a B5F81680 		ldrh	r8, [r5, #22]
 1517              	.LVL150:
 1518              	.LBB164:
 1519              	.LBI164:
ARM GAS  /tmp/ccyhZZXZ.s 			page 60


  91:Middlewares/lvgl/src/core/lv_obj_style_gen.h **** {
 1520              		.loc 2 91 26 is_stmt 1 view .LVU509
 1521              	.LBB165:
  93:Middlewares/lvgl/src/core/lv_obj_style_gen.h ****     return (lv_coord_t)v.num;
 1522              		.loc 2 93 5 view .LVU510
  93:Middlewares/lvgl/src/core/lv_obj_style_gen.h ****     return (lv_coord_t)v.num;
 1523              		.loc 2 93 26 is_stmt 0 view .LVU511
 1524 001e 41F21002 		movw	r2, #4112
 1525 0022 0021     		movs	r1, #0
 1526 0024 2846     		mov	r0, r5
 1527 0026 FFF7FEFF 		bl	lv_obj_get_style_prop
 1528              	.LVL151:
  94:Middlewares/lvgl/src/core/lv_obj_style_gen.h **** }
 1529              		.loc 2 94 5 is_stmt 1 view .LVU512
  94:Middlewares/lvgl/src/core/lv_obj_style_gen.h **** }
 1530              		.loc 2 94 5 is_stmt 0 view .LVU513
 1531              	.LBE165:
 1532              	.LBE164:
 380:Middlewares/lvgl/src/core/lv_obj.c ****         obj->coords.y2 = obj->coords.y1 - 1;
 1533              		.loc 1 380 44 view .LVU514
 1534 002a 18FA80F3 		uxtah	r3, r8, r0
 1535 002e 9BB2     		uxth	r3, r3
 380:Middlewares/lvgl/src/core/lv_obj.c ****         obj->coords.y2 = obj->coords.y1 - 1;
 1536              		.loc 1 380 93 view .LVU515
 1537 0030 DB1B     		subs	r3, r3, r7
 1538 0032 9AB2     		uxth	r2, r3
 380:Middlewares/lvgl/src/core/lv_obj.c ****         obj->coords.y2 = obj->coords.y1 - 1;
 1539              		.loc 1 380 24 view .LVU516
 1540 0034 E382     		strh	r3, [r4, #22]	@ movhi
 381:Middlewares/lvgl/src/core/lv_obj.c ****         obj->coords.x1  = parent->coords.x1 + lv_obj_get_style_pad_left(parent, LV_PART_MAIN) - sl;
 1541              		.loc 1 381 9 is_stmt 1 view .LVU517
 381:Middlewares/lvgl/src/core/lv_obj.c ****         obj->coords.x1  = parent->coords.x1 + lv_obj_get_style_pad_left(parent, LV_PART_MAIN) - sl;
 1542              		.loc 1 381 41 is_stmt 0 view .LVU518
 1543 0036 531E     		subs	r3, r2, #1
 381:Middlewares/lvgl/src/core/lv_obj.c ****         obj->coords.x1  = parent->coords.x1 + lv_obj_get_style_pad_left(parent, LV_PART_MAIN) - sl;
 1544              		.loc 1 381 24 view .LVU519
 1545 0038 6383     		strh	r3, [r4, #26]	@ movhi
 382:Middlewares/lvgl/src/core/lv_obj.c ****         obj->coords.x2  = obj->coords.x1 - 1;
 1546              		.loc 1 382 9 is_stmt 1 view .LVU520
 382:Middlewares/lvgl/src/core/lv_obj.c ****         obj->coords.x2  = obj->coords.x1 - 1;
 1547              		.loc 1 382 41 is_stmt 0 view .LVU521
 1548 003a AF8A     		ldrh	r7, [r5, #20]
 1549              	.LVL152:
 1550              	.LBB166:
 1551              	.LBI166:
 103:Middlewares/lvgl/src/core/lv_obj_style_gen.h **** {
 1552              		.loc 2 103 26 is_stmt 1 view .LVU522
 1553              	.LBB167:
 105:Middlewares/lvgl/src/core/lv_obj_style_gen.h ****     return (lv_coord_t)v.num;
 1554              		.loc 2 105 5 view .LVU523
 105:Middlewares/lvgl/src/core/lv_obj_style_gen.h ****     return (lv_coord_t)v.num;
 1555              		.loc 2 105 26 is_stmt 0 view .LVU524
 1556 003c 41F21202 		movw	r2, #4114
 1557 0040 0021     		movs	r1, #0
 1558 0042 2846     		mov	r0, r5
 1559 0044 FFF7FEFF 		bl	lv_obj_get_style_prop
 1560              	.LVL153:
ARM GAS  /tmp/ccyhZZXZ.s 			page 61


 106:Middlewares/lvgl/src/core/lv_obj_style_gen.h **** }
 1561              		.loc 2 106 5 is_stmt 1 view .LVU525
 106:Middlewares/lvgl/src/core/lv_obj_style_gen.h **** }
 1562              		.loc 2 106 5 is_stmt 0 view .LVU526
 1563              	.LBE167:
 1564              	.LBE166:
 382:Middlewares/lvgl/src/core/lv_obj.c ****         obj->coords.x2  = obj->coords.x1 - 1;
 1565              		.loc 1 382 45 view .LVU527
 1566 0048 17FA80F3 		uxtah	r3, r7, r0
 1567 004c 9BB2     		uxth	r3, r3
 382:Middlewares/lvgl/src/core/lv_obj.c ****         obj->coords.x2  = obj->coords.x1 - 1;
 1568              		.loc 1 382 95 view .LVU528
 1569 004e 981B     		subs	r0, r3, r6
 1570 0050 83B2     		uxth	r3, r0
 382:Middlewares/lvgl/src/core/lv_obj.c ****         obj->coords.x2  = obj->coords.x1 - 1;
 1571              		.loc 1 382 25 view .LVU529
 1572 0052 A082     		strh	r0, [r4, #20]	@ movhi
 383:Middlewares/lvgl/src/core/lv_obj.c ****     }
 1573              		.loc 1 383 9 is_stmt 1 view .LVU530
 383:Middlewares/lvgl/src/core/lv_obj.c ****     }
 1574              		.loc 1 383 42 is_stmt 0 view .LVU531
 1575 0054 013B     		subs	r3, r3, #1
 383:Middlewares/lvgl/src/core/lv_obj.c ****     }
 1576              		.loc 1 383 25 view .LVU532
 1577 0056 2383     		strh	r3, [r4, #24]	@ movhi
 1578              	.LVL154:
 1579              	.L63:
 383:Middlewares/lvgl/src/core/lv_obj.c ****     }
 1580              		.loc 1 383 25 view .LVU533
 1581              	.LBE163:
 387:Middlewares/lvgl/src/core/lv_obj.c ****     obj->flags |= LV_OBJ_FLAG_SNAPPABLE;
 1582              		.loc 1 387 5 is_stmt 1 view .LVU534
 387:Middlewares/lvgl/src/core/lv_obj.c ****     obj->flags |= LV_OBJ_FLAG_SNAPPABLE;
 1583              		.loc 1 387 16 is_stmt 0 view .LVU535
 1584 0058 0223     		movs	r3, #2
 1585 005a E361     		str	r3, [r4, #28]
 388:Middlewares/lvgl/src/core/lv_obj.c ****     if(parent) obj->flags |= LV_OBJ_FLAG_PRESS_LOCK;
 1586              		.loc 1 388 5 is_stmt 1 view .LVU536
 388:Middlewares/lvgl/src/core/lv_obj.c ****     if(parent) obj->flags |= LV_OBJ_FLAG_PRESS_LOCK;
 1587              		.loc 1 388 16 is_stmt 0 view .LVU537
 1588 005c 40F20243 		movw	r3, #1026
 1589 0060 E361     		str	r3, [r4, #28]
 389:Middlewares/lvgl/src/core/lv_obj.c ****     if(parent) obj->flags |= LV_OBJ_FLAG_SCROLL_CHAIN;
 1590              		.loc 1 389 5 is_stmt 1 view .LVU538
 389:Middlewares/lvgl/src/core/lv_obj.c ****     if(parent) obj->flags |= LV_OBJ_FLAG_SCROLL_CHAIN;
 1591              		.loc 1 389 7 is_stmt 0 view .LVU539
 1592 0062 15B1     		cbz	r5, .L64
 389:Middlewares/lvgl/src/core/lv_obj.c ****     if(parent) obj->flags |= LV_OBJ_FLAG_SCROLL_CHAIN;
 1593              		.loc 1 389 16 is_stmt 1 discriminator 1 view .LVU540
 389:Middlewares/lvgl/src/core/lv_obj.c ****     if(parent) obj->flags |= LV_OBJ_FLAG_SCROLL_CHAIN;
 1594              		.loc 1 389 27 is_stmt 0 discriminator 1 view .LVU541
 1595 0064 40F60243 		movw	r3, #3074
 1596 0068 E361     		str	r3, [r4, #28]
 1597              	.L64:
 390:Middlewares/lvgl/src/core/lv_obj.c ****     obj->flags |= LV_OBJ_FLAG_CLICK_FOCUSABLE;
 1598              		.loc 1 390 5 is_stmt 1 view .LVU542
 390:Middlewares/lvgl/src/core/lv_obj.c ****     obj->flags |= LV_OBJ_FLAG_CLICK_FOCUSABLE;
ARM GAS  /tmp/ccyhZZXZ.s 			page 62


 1599              		.loc 1 390 7 is_stmt 0 view .LVU543
 1600 006a 1DB1     		cbz	r5, .L65
 390:Middlewares/lvgl/src/core/lv_obj.c ****     obj->flags |= LV_OBJ_FLAG_CLICK_FOCUSABLE;
 1601              		.loc 1 390 16 is_stmt 1 discriminator 1 view .LVU544
 390:Middlewares/lvgl/src/core/lv_obj.c ****     obj->flags |= LV_OBJ_FLAG_CLICK_FOCUSABLE;
 1602              		.loc 1 390 27 is_stmt 0 discriminator 1 view .LVU545
 1603 006c E369     		ldr	r3, [r4, #28]
 1604 006e 43F48073 		orr	r3, r3, #256
 1605 0072 E361     		str	r3, [r4, #28]
 1606              	.L65:
 391:Middlewares/lvgl/src/core/lv_obj.c ****     obj->flags |= LV_OBJ_FLAG_SCROLLABLE;
 1607              		.loc 1 391 5 is_stmt 1 view .LVU546
 391:Middlewares/lvgl/src/core/lv_obj.c ****     obj->flags |= LV_OBJ_FLAG_SCROLLABLE;
 1608              		.loc 1 391 16 is_stmt 0 view .LVU547
 1609 0074 E369     		ldr	r3, [r4, #28]
 1610 0076 43F00402 		orr	r2, r3, #4
 1611 007a E261     		str	r2, [r4, #28]
 392:Middlewares/lvgl/src/core/lv_obj.c ****     obj->flags |= LV_OBJ_FLAG_SCROLL_ELASTIC;
 1612              		.loc 1 392 5 is_stmt 1 view .LVU548
 392:Middlewares/lvgl/src/core/lv_obj.c ****     obj->flags |= LV_OBJ_FLAG_SCROLL_ELASTIC;
 1613              		.loc 1 392 16 is_stmt 0 view .LVU549
 1614 007c 43F01402 		orr	r2, r3, #20
 1615 0080 E261     		str	r2, [r4, #28]
 393:Middlewares/lvgl/src/core/lv_obj.c ****     obj->flags |= LV_OBJ_FLAG_SCROLL_MOMENTUM;
 1616              		.loc 1 393 5 is_stmt 1 view .LVU550
 393:Middlewares/lvgl/src/core/lv_obj.c ****     obj->flags |= LV_OBJ_FLAG_SCROLL_MOMENTUM;
 1617              		.loc 1 393 16 is_stmt 0 view .LVU551
 1618 0082 43F03402 		orr	r2, r3, #52
 1619 0086 E261     		str	r2, [r4, #28]
 394:Middlewares/lvgl/src/core/lv_obj.c ****     if(parent) obj->flags |= LV_OBJ_FLAG_GESTURE_BUBBLE;
 1620              		.loc 1 394 5 is_stmt 1 view .LVU552
 394:Middlewares/lvgl/src/core/lv_obj.c ****     if(parent) obj->flags |= LV_OBJ_FLAG_GESTURE_BUBBLE;
 1621              		.loc 1 394 16 is_stmt 0 view .LVU553
 1622 0088 43F07403 		orr	r3, r3, #116
 1623 008c E361     		str	r3, [r4, #28]
 395:Middlewares/lvgl/src/core/lv_obj.c **** 
 1624              		.loc 1 395 5 is_stmt 1 view .LVU554
 395:Middlewares/lvgl/src/core/lv_obj.c **** 
 1625              		.loc 1 395 7 is_stmt 0 view .LVU555
 1626 008e 15B1     		cbz	r5, .L62
 395:Middlewares/lvgl/src/core/lv_obj.c **** 
 1627              		.loc 1 395 16 is_stmt 1 discriminator 1 view .LVU556
 395:Middlewares/lvgl/src/core/lv_obj.c **** 
 1628              		.loc 1 395 27 is_stmt 0 discriminator 1 view .LVU557
 1629 0090 43F40053 		orr	r3, r3, #8192
 1630 0094 E361     		str	r3, [r4, #28]
 397:Middlewares/lvgl/src/core/lv_obj.c **** }
 1631              		.loc 1 397 36 is_stmt 1 discriminator 1 view .LVU558
 1632              	.L62:
 398:Middlewares/lvgl/src/core/lv_obj.c **** 
 1633              		.loc 1 398 1 is_stmt 0 view .LVU559
 1634 0096 BDE8F081 		pop	{r4, r5, r6, r7, r8, pc}
 398:Middlewares/lvgl/src/core/lv_obj.c **** 
 1635              		.loc 1 398 1 view .LVU560
 1636              		.cfi_endproc
 1637              	.LFE170:
 1639              		.section	.text.lv_obj_set_state,"ax",%progbits
ARM GAS  /tmp/ccyhZZXZ.s 			page 63


 1640              		.align	1
 1641              		.syntax unified
 1642              		.thumb
 1643              		.thumb_func
 1644              		.fpu fpv4-sp-d16
 1646              	lv_obj_set_state:
 1647              	.LVL155:
 1648              	.LFB176:
 745:Middlewares/lvgl/src/core/lv_obj.c ****     if(obj->state == new_state) return;
 1649              		.loc 1 745 1 is_stmt 1 view -0
 1650              		.cfi_startproc
 1651              		@ args = 0, pretend = 0, frame = 40
 1652              		@ frame_needed = 0, uses_anonymous_args = 0
 745:Middlewares/lvgl/src/core/lv_obj.c ****     if(obj->state == new_state) return;
 1653              		.loc 1 745 1 is_stmt 0 view .LVU562
 1654 0000 2DE9F04F 		push	{r4, r5, r6, r7, r8, r9, r10, fp, lr}
 1655              	.LCFI13:
 1656              		.cfi_def_cfa_offset 36
 1657              		.cfi_offset 4, -36
 1658              		.cfi_offset 5, -32
 1659              		.cfi_offset 6, -28
 1660              		.cfi_offset 7, -24
 1661              		.cfi_offset 8, -20
 1662              		.cfi_offset 9, -16
 1663              		.cfi_offset 10, -12
 1664              		.cfi_offset 11, -8
 1665              		.cfi_offset 14, -4
 1666 0004 8DB0     		sub	sp, sp, #52
 1667              	.LCFI14:
 1668              		.cfi_def_cfa_offset 88
 1669 0006 0690     		str	r0, [sp, #24]
 1670 0008 0791     		str	r1, [sp, #28]
 746:Middlewares/lvgl/src/core/lv_obj.c **** 
 1671              		.loc 1 746 5 is_stmt 1 view .LVU563
 746:Middlewares/lvgl/src/core/lv_obj.c **** 
 1672              		.loc 1 746 11 is_stmt 0 view .LVU564
 1673 000a 038C     		ldrh	r3, [r0, #32]
 1674 000c 0993     		str	r3, [sp, #36]
 746:Middlewares/lvgl/src/core/lv_obj.c **** 
 1675              		.loc 1 746 7 view .LVU565
 1676 000e 8B42     		cmp	r3, r1
 1677 0010 06D0     		beq	.L68
 748:Middlewares/lvgl/src/core/lv_obj.c **** 
 1678              		.loc 1 748 5 is_stmt 1 view .LVU566
 748:Middlewares/lvgl/src/core/lv_obj.c **** 
 1679              		.loc 1 748 5 view .LVU567
 748:Middlewares/lvgl/src/core/lv_obj.c **** 
 1680              		.loc 1 748 5 view .LVU568
 750:Middlewares/lvgl/src/core/lv_obj.c ****     obj->state = new_state;
 1681              		.loc 1 750 5 view .LVU569
 1682              	.LVL156:
 751:Middlewares/lvgl/src/core/lv_obj.c **** 
 1683              		.loc 1 751 5 view .LVU570
 751:Middlewares/lvgl/src/core/lv_obj.c **** 
 1684              		.loc 1 751 16 is_stmt 0 view .LVU571
 1685 0012 0184     		strh	r1, [r0, #32]	@ movhi
 753:Middlewares/lvgl/src/core/lv_obj.c ****     /*If there is no difference in styles there is nothing else to do*/
ARM GAS  /tmp/ccyhZZXZ.s 			page 64


 1686              		.loc 1 753 5 is_stmt 1 view .LVU572
 753:Middlewares/lvgl/src/core/lv_obj.c ****     /*If there is no difference in styles there is nothing else to do*/
 1687              		.loc 1 753 37 is_stmt 0 view .LVU573
 1688 0014 0A46     		mov	r2, r1
 1689 0016 1946     		mov	r1, r3
 1690              	.LVL157:
 753:Middlewares/lvgl/src/core/lv_obj.c ****     /*If there is no difference in styles there is nothing else to do*/
 1691              		.loc 1 753 37 view .LVU574
 1692 0018 FFF7FEFF 		bl	_lv_obj_style_state_compare
 1693              	.LVL158:
 755:Middlewares/lvgl/src/core/lv_obj.c **** 
 1694              		.loc 1 755 5 is_stmt 1 view .LVU575
 755:Middlewares/lvgl/src/core/lv_obj.c **** 
 1695              		.loc 1 755 7 is_stmt 0 view .LVU576
 1696 001c 0A90     		str	r0, [sp, #40]
 1697 001e 10B9     		cbnz	r0, .L100
 1698              	.LVL159:
 1699              	.L68:
 815:Middlewares/lvgl/src/core/lv_obj.c **** 
 1700              		.loc 1 815 1 view .LVU577
 1701 0020 0DB0     		add	sp, sp, #52
 1702              	.LCFI15:
 1703              		.cfi_remember_state
 1704              		.cfi_def_cfa_offset 36
 1705              		@ sp needed
 1706 0022 BDE8F08F 		pop	{r4, r5, r6, r7, r8, r9, r10, fp, pc}
 1707              	.LVL160:
 1708              	.L100:
 1709              	.LCFI16:
 1710              		.cfi_restore_state
 757:Middlewares/lvgl/src/core/lv_obj.c ****     lv_memset_00(ts, sizeof(_lv_obj_style_transition_dsc_t) * STYLE_TRANSITION_MAX);
 1711              		.loc 1 757 5 is_stmt 1 view .LVU578
 757:Middlewares/lvgl/src/core/lv_obj.c ****     lv_memset_00(ts, sizeof(_lv_obj_style_transition_dsc_t) * STYLE_TRANSITION_MAX);
 1712              		.loc 1 757 43 is_stmt 0 view .LVU579
 1713 0026 4FF42070 		mov	r0, #640
 1714              	.LVL161:
 757:Middlewares/lvgl/src/core/lv_obj.c ****     lv_memset_00(ts, sizeof(_lv_obj_style_transition_dsc_t) * STYLE_TRANSITION_MAX);
 1715              		.loc 1 757 43 view .LVU580
 1716 002a FFF7FEFF 		bl	lv_mem_buf_get
 1717              	.LVL162:
 1718 002e 8246     		mov	r10, r0
 1719              	.LVL163:
 758:Middlewares/lvgl/src/core/lv_obj.c ****     uint32_t tsi = 0;
 1720              		.loc 1 758 5 is_stmt 1 view .LVU581
 1721 0030 4FF42071 		mov	r1, #640
 1722 0034 FFF7FEFF 		bl	lv_memset_00
 1723              	.LVL164:
 759:Middlewares/lvgl/src/core/lv_obj.c ****     uint32_t i;
 1724              		.loc 1 759 5 view .LVU582
 760:Middlewares/lvgl/src/core/lv_obj.c ****     for(i = 0; i < obj->style_cnt && tsi < STYLE_TRANSITION_MAX; i++) {
 1725              		.loc 1 760 5 view .LVU583
 761:Middlewares/lvgl/src/core/lv_obj.c ****         _lv_obj_style_t * obj_style = &obj->styles[i];
 1726              		.loc 1 761 5 view .LVU584
 761:Middlewares/lvgl/src/core/lv_obj.c ****         _lv_obj_style_t * obj_style = &obj->styles[i];
 1727              		.loc 1 761 11 is_stmt 0 view .LVU585
 1728 0038 0023     		movs	r3, #0
 1729 003a 0393     		str	r3, [sp, #12]
ARM GAS  /tmp/ccyhZZXZ.s 			page 65


 759:Middlewares/lvgl/src/core/lv_obj.c ****     uint32_t i;
 1730              		.loc 1 759 14 view .LVU586
 1731 003c 9B46     		mov	fp, r3
 761:Middlewares/lvgl/src/core/lv_obj.c ****         _lv_obj_style_t * obj_style = &obj->styles[i];
 1732              		.loc 1 761 5 view .LVU587
 1733 003e 1EE0     		b	.L70
 1734              	.LVL165:
 1735              	.L104:
 1736              	.LBB177:
 1737              	.LBB178:
 1738              	.LBB179:
 1739              	.LBB180:
 1740              		.file 4 "Middlewares/lvgl/src/core/../misc/lv_style.h"
   1:Middlewares/lvgl/src/core/../misc/lv_style.h **** /**
   2:Middlewares/lvgl/src/core/../misc/lv_style.h ****  * @file lv_style.h
   3:Middlewares/lvgl/src/core/../misc/lv_style.h ****  *
   4:Middlewares/lvgl/src/core/../misc/lv_style.h ****  */
   5:Middlewares/lvgl/src/core/../misc/lv_style.h **** 
   6:Middlewares/lvgl/src/core/../misc/lv_style.h **** #ifndef LV_STYLE_H
   7:Middlewares/lvgl/src/core/../misc/lv_style.h **** #define LV_STYLE_H
   8:Middlewares/lvgl/src/core/../misc/lv_style.h **** 
   9:Middlewares/lvgl/src/core/../misc/lv_style.h **** #ifdef __cplusplus
  10:Middlewares/lvgl/src/core/../misc/lv_style.h **** extern "C" {
  11:Middlewares/lvgl/src/core/../misc/lv_style.h **** #endif
  12:Middlewares/lvgl/src/core/../misc/lv_style.h **** 
  13:Middlewares/lvgl/src/core/../misc/lv_style.h **** /*********************
  14:Middlewares/lvgl/src/core/../misc/lv_style.h ****  *      INCLUDES
  15:Middlewares/lvgl/src/core/../misc/lv_style.h ****  *********************/
  16:Middlewares/lvgl/src/core/../misc/lv_style.h **** #include <stdbool.h>
  17:Middlewares/lvgl/src/core/../misc/lv_style.h **** #include "../font/lv_font.h"
  18:Middlewares/lvgl/src/core/../misc/lv_style.h **** #include "lv_color.h"
  19:Middlewares/lvgl/src/core/../misc/lv_style.h **** #include "lv_area.h"
  20:Middlewares/lvgl/src/core/../misc/lv_style.h **** #include "lv_anim.h"
  21:Middlewares/lvgl/src/core/../misc/lv_style.h **** #include "lv_txt.h"
  22:Middlewares/lvgl/src/core/../misc/lv_style.h **** #include "lv_types.h"
  23:Middlewares/lvgl/src/core/../misc/lv_style.h **** #include "lv_assert.h"
  24:Middlewares/lvgl/src/core/../misc/lv_style.h **** #include "lv_bidi.h"
  25:Middlewares/lvgl/src/core/../misc/lv_style.h **** 
  26:Middlewares/lvgl/src/core/../misc/lv_style.h **** /*********************
  27:Middlewares/lvgl/src/core/../misc/lv_style.h ****  *      DEFINES
  28:Middlewares/lvgl/src/core/../misc/lv_style.h ****  *********************/
  29:Middlewares/lvgl/src/core/../misc/lv_style.h **** 
  30:Middlewares/lvgl/src/core/../misc/lv_style.h **** #define LV_STYLE_SENTINEL_VALUE     0xAABBCCDD
  31:Middlewares/lvgl/src/core/../misc/lv_style.h **** 
  32:Middlewares/lvgl/src/core/../misc/lv_style.h **** /**
  33:Middlewares/lvgl/src/core/../misc/lv_style.h ****  * Flags for style properties
  34:Middlewares/lvgl/src/core/../misc/lv_style.h ****  */
  35:Middlewares/lvgl/src/core/../misc/lv_style.h **** #define LV_STYLE_PROP_INHERIT               (1 << 10)  /*Inherited*/
  36:Middlewares/lvgl/src/core/../misc/lv_style.h **** #define LV_STYLE_PROP_EXT_DRAW              (1 << 11)  /*Requires ext. draw size update when change
  37:Middlewares/lvgl/src/core/../misc/lv_style.h **** #define LV_STYLE_PROP_LAYOUT_REFR           (1 << 12)  /*Requires layout update when changed*/
  38:Middlewares/lvgl/src/core/../misc/lv_style.h **** #define LV_STYLE_PROP_PARENT_LAYOUT_REFR    (1 << 13)  /*Requires layout update on parent when chan
  39:Middlewares/lvgl/src/core/../misc/lv_style.h **** #define LV_STYLE_PROP_FILTER                (1 << 14)  /*Apply color filter*/
  40:Middlewares/lvgl/src/core/../misc/lv_style.h **** 
  41:Middlewares/lvgl/src/core/../misc/lv_style.h **** /**
  42:Middlewares/lvgl/src/core/../misc/lv_style.h ****  * Other constants
  43:Middlewares/lvgl/src/core/../misc/lv_style.h ****  */
  44:Middlewares/lvgl/src/core/../misc/lv_style.h **** #define LV_IMG_ZOOM_NONE            256        /*Value for not zooming the image*/
ARM GAS  /tmp/ccyhZZXZ.s 			page 66


  45:Middlewares/lvgl/src/core/../misc/lv_style.h **** LV_EXPORT_CONST_INT(LV_IMG_ZOOM_NONE);
  46:Middlewares/lvgl/src/core/../misc/lv_style.h **** 
  47:Middlewares/lvgl/src/core/../misc/lv_style.h **** #if LV_USE_ASSERT_STYLE
  48:Middlewares/lvgl/src/core/../misc/lv_style.h **** #define LV_STYLE_CONST_INIT(var_name, prop_array) const lv_style_t var_name = { .sentinel = LV_STYL
  49:Middlewares/lvgl/src/core/../misc/lv_style.h **** #else
  50:Middlewares/lvgl/src/core/../misc/lv_style.h **** #define LV_STYLE_CONST_INIT(var_name, prop_array) const lv_style_t var_name = { .v_p = { .const_pro
  51:Middlewares/lvgl/src/core/../misc/lv_style.h **** #endif
  52:Middlewares/lvgl/src/core/../misc/lv_style.h **** 
  53:Middlewares/lvgl/src/core/../misc/lv_style.h **** /**********************
  54:Middlewares/lvgl/src/core/../misc/lv_style.h ****  *      TYPEDEFS
  55:Middlewares/lvgl/src/core/../misc/lv_style.h ****  **********************/
  56:Middlewares/lvgl/src/core/../misc/lv_style.h **** 
  57:Middlewares/lvgl/src/core/../misc/lv_style.h **** /**
  58:Middlewares/lvgl/src/core/../misc/lv_style.h ****  * Possible options how to blend opaque drawings
  59:Middlewares/lvgl/src/core/../misc/lv_style.h ****  */
  60:Middlewares/lvgl/src/core/../misc/lv_style.h **** enum {
  61:Middlewares/lvgl/src/core/../misc/lv_style.h ****     LV_BLEND_MODE_NORMAL,     /**< Simply mix according to the opacity value*/
  62:Middlewares/lvgl/src/core/../misc/lv_style.h ****     LV_BLEND_MODE_ADDITIVE,   /**< Add the respective color channels*/
  63:Middlewares/lvgl/src/core/../misc/lv_style.h ****     LV_BLEND_MODE_SUBTRACTIVE,/**< Subtract the foreground from the background*/
  64:Middlewares/lvgl/src/core/../misc/lv_style.h **** };
  65:Middlewares/lvgl/src/core/../misc/lv_style.h **** 
  66:Middlewares/lvgl/src/core/../misc/lv_style.h **** typedef uint8_t lv_blend_mode_t;
  67:Middlewares/lvgl/src/core/../misc/lv_style.h **** 
  68:Middlewares/lvgl/src/core/../misc/lv_style.h **** /**
  69:Middlewares/lvgl/src/core/../misc/lv_style.h ****  * Some options to apply decorations on texts.
  70:Middlewares/lvgl/src/core/../misc/lv_style.h ****  * 'OR'ed values can be used.
  71:Middlewares/lvgl/src/core/../misc/lv_style.h ****  */
  72:Middlewares/lvgl/src/core/../misc/lv_style.h **** enum {
  73:Middlewares/lvgl/src/core/../misc/lv_style.h ****     LV_TEXT_DECOR_NONE          = 0x00,
  74:Middlewares/lvgl/src/core/../misc/lv_style.h ****     LV_TEXT_DECOR_UNDERLINE     = 0x01,
  75:Middlewares/lvgl/src/core/../misc/lv_style.h ****     LV_TEXT_DECOR_STRIKETHROUGH = 0x02,
  76:Middlewares/lvgl/src/core/../misc/lv_style.h **** };
  77:Middlewares/lvgl/src/core/../misc/lv_style.h **** 
  78:Middlewares/lvgl/src/core/../misc/lv_style.h **** typedef uint8_t lv_text_decor_t;
  79:Middlewares/lvgl/src/core/../misc/lv_style.h **** 
  80:Middlewares/lvgl/src/core/../misc/lv_style.h **** /**
  81:Middlewares/lvgl/src/core/../misc/lv_style.h ****  * Selects on which sides border should be drawn
  82:Middlewares/lvgl/src/core/../misc/lv_style.h ****  * 'OR'ed values can be used.
  83:Middlewares/lvgl/src/core/../misc/lv_style.h ****  */
  84:Middlewares/lvgl/src/core/../misc/lv_style.h **** enum {
  85:Middlewares/lvgl/src/core/../misc/lv_style.h ****     LV_BORDER_SIDE_NONE     = 0x00,
  86:Middlewares/lvgl/src/core/../misc/lv_style.h ****     LV_BORDER_SIDE_BOTTOM   = 0x01,
  87:Middlewares/lvgl/src/core/../misc/lv_style.h ****     LV_BORDER_SIDE_TOP      = 0x02,
  88:Middlewares/lvgl/src/core/../misc/lv_style.h ****     LV_BORDER_SIDE_LEFT     = 0x04,
  89:Middlewares/lvgl/src/core/../misc/lv_style.h ****     LV_BORDER_SIDE_RIGHT    = 0x08,
  90:Middlewares/lvgl/src/core/../misc/lv_style.h ****     LV_BORDER_SIDE_FULL     = 0x0F,
  91:Middlewares/lvgl/src/core/../misc/lv_style.h ****     LV_BORDER_SIDE_INTERNAL = 0x10, /**< FOR matrix-like objects (e.g. Button matrix)*/
  92:Middlewares/lvgl/src/core/../misc/lv_style.h **** };
  93:Middlewares/lvgl/src/core/../misc/lv_style.h **** typedef uint8_t lv_border_side_t;
  94:Middlewares/lvgl/src/core/../misc/lv_style.h **** 
  95:Middlewares/lvgl/src/core/../misc/lv_style.h **** /**
  96:Middlewares/lvgl/src/core/../misc/lv_style.h ****  * The direction of the gradient.
  97:Middlewares/lvgl/src/core/../misc/lv_style.h ****  */
  98:Middlewares/lvgl/src/core/../misc/lv_style.h **** enum {
  99:Middlewares/lvgl/src/core/../misc/lv_style.h ****     LV_GRAD_DIR_NONE, /**< No gradient (the `grad_color` property is ignored)*/
 100:Middlewares/lvgl/src/core/../misc/lv_style.h ****     LV_GRAD_DIR_VER,  /**< Vertical (top to bottom) gradient*/
 101:Middlewares/lvgl/src/core/../misc/lv_style.h ****     LV_GRAD_DIR_HOR,  /**< Horizontal (left to right) gradient*/
ARM GAS  /tmp/ccyhZZXZ.s 			page 67


 102:Middlewares/lvgl/src/core/../misc/lv_style.h **** };
 103:Middlewares/lvgl/src/core/../misc/lv_style.h **** 
 104:Middlewares/lvgl/src/core/../misc/lv_style.h **** typedef uint8_t lv_grad_dir_t;
 105:Middlewares/lvgl/src/core/../misc/lv_style.h **** 
 106:Middlewares/lvgl/src/core/../misc/lv_style.h **** /**
 107:Middlewares/lvgl/src/core/../misc/lv_style.h ****  * A common type to handle all the property types in the same way.
 108:Middlewares/lvgl/src/core/../misc/lv_style.h ****  */
 109:Middlewares/lvgl/src/core/../misc/lv_style.h **** typedef union {
 110:Middlewares/lvgl/src/core/../misc/lv_style.h ****     int32_t num;         /**< Number integer number (opacity, enums, booleans or "normal" numbers)*
 111:Middlewares/lvgl/src/core/../misc/lv_style.h ****     const void * ptr;    /**< Constant pointers  (font, cone text, etc)*/
 112:Middlewares/lvgl/src/core/../misc/lv_style.h ****     lv_color_t color;    /**< Colors*/
 113:Middlewares/lvgl/src/core/../misc/lv_style.h **** }lv_style_value_t;
 114:Middlewares/lvgl/src/core/../misc/lv_style.h **** 
 115:Middlewares/lvgl/src/core/../misc/lv_style.h **** /**
 116:Middlewares/lvgl/src/core/../misc/lv_style.h ****  * Enumeration of all built in style properties
 117:Middlewares/lvgl/src/core/../misc/lv_style.h ****  */
 118:Middlewares/lvgl/src/core/../misc/lv_style.h **** typedef enum {
 119:Middlewares/lvgl/src/core/../misc/lv_style.h ****     LV_STYLE_PROP_INV                = 0,
 120:Middlewares/lvgl/src/core/../misc/lv_style.h **** 
 121:Middlewares/lvgl/src/core/../misc/lv_style.h ****     /*Group 0*/
 122:Middlewares/lvgl/src/core/../misc/lv_style.h ****     LV_STYLE_WIDTH                   = 1 | LV_STYLE_PROP_LAYOUT_REFR,
 123:Middlewares/lvgl/src/core/../misc/lv_style.h ****     LV_STYLE_MIN_WIDTH               = 2 | LV_STYLE_PROP_LAYOUT_REFR,
 124:Middlewares/lvgl/src/core/../misc/lv_style.h ****     LV_STYLE_MAX_WIDTH               = 3 | LV_STYLE_PROP_LAYOUT_REFR,
 125:Middlewares/lvgl/src/core/../misc/lv_style.h ****     LV_STYLE_HEIGHT                  = 4 | LV_STYLE_PROP_LAYOUT_REFR,
 126:Middlewares/lvgl/src/core/../misc/lv_style.h ****     LV_STYLE_MIN_HEIGHT              = 5 | LV_STYLE_PROP_LAYOUT_REFR,
 127:Middlewares/lvgl/src/core/../misc/lv_style.h ****     LV_STYLE_MAX_HEIGHT              = 6 | LV_STYLE_PROP_LAYOUT_REFR,
 128:Middlewares/lvgl/src/core/../misc/lv_style.h ****     LV_STYLE_X                       = 7 | LV_STYLE_PROP_LAYOUT_REFR,
 129:Middlewares/lvgl/src/core/../misc/lv_style.h ****     LV_STYLE_Y                       = 8 | LV_STYLE_PROP_LAYOUT_REFR,
 130:Middlewares/lvgl/src/core/../misc/lv_style.h ****     LV_STYLE_ALIGN                   = 9 | LV_STYLE_PROP_LAYOUT_REFR,
 131:Middlewares/lvgl/src/core/../misc/lv_style.h ****     LV_STYLE_TRANSFORM_WIDTH         = 10 | LV_STYLE_PROP_EXT_DRAW,
 132:Middlewares/lvgl/src/core/../misc/lv_style.h ****     LV_STYLE_TRANSFORM_HEIGHT        = 11 | LV_STYLE_PROP_EXT_DRAW,
 133:Middlewares/lvgl/src/core/../misc/lv_style.h ****     LV_STYLE_TRANSLATE_X             = 12 | LV_STYLE_PROP_LAYOUT_REFR | LV_STYLE_PROP_PARENT_LAYOUT
 134:Middlewares/lvgl/src/core/../misc/lv_style.h ****     LV_STYLE_TRANSLATE_Y             = 13 | LV_STYLE_PROP_LAYOUT_REFR | LV_STYLE_PROP_PARENT_LAYOUT
 135:Middlewares/lvgl/src/core/../misc/lv_style.h ****     LV_STYLE_TRANSFORM_ZOOM          = 14 | LV_STYLE_PROP_EXT_DRAW,
 136:Middlewares/lvgl/src/core/../misc/lv_style.h ****     LV_STYLE_TRANSFORM_ANGLE         = 15 | LV_STYLE_PROP_EXT_DRAW,
 137:Middlewares/lvgl/src/core/../misc/lv_style.h **** 
 138:Middlewares/lvgl/src/core/../misc/lv_style.h ****     /*Group 1*/
 139:Middlewares/lvgl/src/core/../misc/lv_style.h ****     LV_STYLE_PAD_TOP                 = 16 | LV_STYLE_PROP_LAYOUT_REFR,
 140:Middlewares/lvgl/src/core/../misc/lv_style.h ****     LV_STYLE_PAD_BOTTOM              = 17 | LV_STYLE_PROP_LAYOUT_REFR,
 141:Middlewares/lvgl/src/core/../misc/lv_style.h ****     LV_STYLE_PAD_LEFT                = 18 | LV_STYLE_PROP_LAYOUT_REFR,
 142:Middlewares/lvgl/src/core/../misc/lv_style.h ****     LV_STYLE_PAD_RIGHT               = 19 | LV_STYLE_PROP_LAYOUT_REFR,
 143:Middlewares/lvgl/src/core/../misc/lv_style.h ****     LV_STYLE_PAD_ROW                 = 20 | LV_STYLE_PROP_LAYOUT_REFR,
 144:Middlewares/lvgl/src/core/../misc/lv_style.h ****     LV_STYLE_PAD_COLUMN              = 21 | LV_STYLE_PROP_LAYOUT_REFR,
 145:Middlewares/lvgl/src/core/../misc/lv_style.h **** 
 146:Middlewares/lvgl/src/core/../misc/lv_style.h ****     /*Group 2*/
 147:Middlewares/lvgl/src/core/../misc/lv_style.h ****     LV_STYLE_BG_COLOR                = 32,
 148:Middlewares/lvgl/src/core/../misc/lv_style.h ****     LV_STYLE_BG_COLOR_FILTERED       = 32 | LV_STYLE_PROP_FILTER,
 149:Middlewares/lvgl/src/core/../misc/lv_style.h ****     LV_STYLE_BG_OPA                  = 33,
 150:Middlewares/lvgl/src/core/../misc/lv_style.h ****     LV_STYLE_BG_GRAD_COLOR           = 34,
 151:Middlewares/lvgl/src/core/../misc/lv_style.h ****     LV_STYLE_BG_GRAD_COLOR_FILTERED  = 34 | LV_STYLE_PROP_FILTER,
 152:Middlewares/lvgl/src/core/../misc/lv_style.h ****     LV_STYLE_BG_GRAD_DIR             = 35,
 153:Middlewares/lvgl/src/core/../misc/lv_style.h ****     LV_STYLE_BG_MAIN_STOP            = 36,
 154:Middlewares/lvgl/src/core/../misc/lv_style.h ****     LV_STYLE_BG_GRAD_STOP            = 37,
 155:Middlewares/lvgl/src/core/../misc/lv_style.h **** 
 156:Middlewares/lvgl/src/core/../misc/lv_style.h ****     LV_STYLE_BG_IMG_SRC              = 38,
 157:Middlewares/lvgl/src/core/../misc/lv_style.h ****     LV_STYLE_BG_IMG_OPA              = 39,
 158:Middlewares/lvgl/src/core/../misc/lv_style.h ****     LV_STYLE_BG_IMG_RECOLOR          = 40,
ARM GAS  /tmp/ccyhZZXZ.s 			page 68


 159:Middlewares/lvgl/src/core/../misc/lv_style.h ****     LV_STYLE_BG_IMG_RECOLOR_FILTERED = 40 | LV_STYLE_PROP_FILTER,
 160:Middlewares/lvgl/src/core/../misc/lv_style.h ****     LV_STYLE_BG_IMG_RECOLOR_OPA      = 41,
 161:Middlewares/lvgl/src/core/../misc/lv_style.h ****     LV_STYLE_BG_IMG_TILED            = 42,
 162:Middlewares/lvgl/src/core/../misc/lv_style.h **** 
 163:Middlewares/lvgl/src/core/../misc/lv_style.h ****     /*Group 3*/
 164:Middlewares/lvgl/src/core/../misc/lv_style.h ****     LV_STYLE_BORDER_COLOR            = 48,
 165:Middlewares/lvgl/src/core/../misc/lv_style.h ****     LV_STYLE_BORDER_COLOR_FILTERED   = 48 | LV_STYLE_PROP_FILTER,
 166:Middlewares/lvgl/src/core/../misc/lv_style.h ****     LV_STYLE_BORDER_OPA              = 49,
 167:Middlewares/lvgl/src/core/../misc/lv_style.h ****     LV_STYLE_BORDER_WIDTH            = 50 | LV_STYLE_PROP_LAYOUT_REFR,
 168:Middlewares/lvgl/src/core/../misc/lv_style.h ****     LV_STYLE_BORDER_SIDE             = 51,
 169:Middlewares/lvgl/src/core/../misc/lv_style.h ****     LV_STYLE_BORDER_POST             = 52,
 170:Middlewares/lvgl/src/core/../misc/lv_style.h **** 
 171:Middlewares/lvgl/src/core/../misc/lv_style.h ****     LV_STYLE_OUTLINE_WIDTH           = 58 | LV_STYLE_PROP_EXT_DRAW,
 172:Middlewares/lvgl/src/core/../misc/lv_style.h ****     LV_STYLE_OUTLINE_COLOR           = 59,
 173:Middlewares/lvgl/src/core/../misc/lv_style.h ****     LV_STYLE_OUTLINE_COLOR_FILTERED  = 59 | LV_STYLE_PROP_FILTER,
 174:Middlewares/lvgl/src/core/../misc/lv_style.h ****     LV_STYLE_OUTLINE_OPA             = 60 | LV_STYLE_PROP_EXT_DRAW,
 175:Middlewares/lvgl/src/core/../misc/lv_style.h ****     LV_STYLE_OUTLINE_PAD             = 61 | LV_STYLE_PROP_EXT_DRAW,
 176:Middlewares/lvgl/src/core/../misc/lv_style.h **** 
 177:Middlewares/lvgl/src/core/../misc/lv_style.h ****     /*Group 4*/
 178:Middlewares/lvgl/src/core/../misc/lv_style.h ****     LV_STYLE_SHADOW_WIDTH            = 64 | LV_STYLE_PROP_EXT_DRAW,
 179:Middlewares/lvgl/src/core/../misc/lv_style.h ****     LV_STYLE_SHADOW_OFS_X            = 65 | LV_STYLE_PROP_EXT_DRAW,
 180:Middlewares/lvgl/src/core/../misc/lv_style.h ****     LV_STYLE_SHADOW_OFS_Y            = 66 | LV_STYLE_PROP_EXT_DRAW,
 181:Middlewares/lvgl/src/core/../misc/lv_style.h ****     LV_STYLE_SHADOW_SPREAD           = 67 | LV_STYLE_PROP_EXT_DRAW,
 182:Middlewares/lvgl/src/core/../misc/lv_style.h ****     LV_STYLE_SHADOW_COLOR            = 68,
 183:Middlewares/lvgl/src/core/../misc/lv_style.h ****     LV_STYLE_SHADOW_COLOR_FILTERED   = 68 | LV_STYLE_PROP_FILTER,
 184:Middlewares/lvgl/src/core/../misc/lv_style.h ****     LV_STYLE_SHADOW_OPA              = 69 | LV_STYLE_PROP_EXT_DRAW,
 185:Middlewares/lvgl/src/core/../misc/lv_style.h **** 
 186:Middlewares/lvgl/src/core/../misc/lv_style.h ****     LV_STYLE_IMG_OPA                 = 70,
 187:Middlewares/lvgl/src/core/../misc/lv_style.h ****     LV_STYLE_IMG_RECOLOR             = 71,
 188:Middlewares/lvgl/src/core/../misc/lv_style.h ****     LV_STYLE_IMG_RECOLOR_FILTERED    = 71 | LV_STYLE_PROP_FILTER,
 189:Middlewares/lvgl/src/core/../misc/lv_style.h ****     LV_STYLE_IMG_RECOLOR_OPA         = 72,
 190:Middlewares/lvgl/src/core/../misc/lv_style.h **** 
 191:Middlewares/lvgl/src/core/../misc/lv_style.h ****     LV_STYLE_LINE_WIDTH              = 73 | LV_STYLE_PROP_EXT_DRAW,
 192:Middlewares/lvgl/src/core/../misc/lv_style.h ****     LV_STYLE_LINE_DASH_WIDTH         = 74,
 193:Middlewares/lvgl/src/core/../misc/lv_style.h ****     LV_STYLE_LINE_DASH_GAP           = 75,
 194:Middlewares/lvgl/src/core/../misc/lv_style.h ****     LV_STYLE_LINE_ROUNDED            = 76,
 195:Middlewares/lvgl/src/core/../misc/lv_style.h ****     LV_STYLE_LINE_COLOR              = 77,
 196:Middlewares/lvgl/src/core/../misc/lv_style.h ****     LV_STYLE_LINE_COLOR_FILTERED     = 77 | LV_STYLE_PROP_FILTER,
 197:Middlewares/lvgl/src/core/../misc/lv_style.h ****     LV_STYLE_LINE_OPA                = 78,
 198:Middlewares/lvgl/src/core/../misc/lv_style.h **** 
 199:Middlewares/lvgl/src/core/../misc/lv_style.h ****     /*Group 5*/
 200:Middlewares/lvgl/src/core/../misc/lv_style.h ****     LV_STYLE_ARC_WIDTH               = 80 | LV_STYLE_PROP_EXT_DRAW,
 201:Middlewares/lvgl/src/core/../misc/lv_style.h ****     LV_STYLE_ARC_ROUNDED             = 81,
 202:Middlewares/lvgl/src/core/../misc/lv_style.h ****     LV_STYLE_ARC_COLOR               = 82,
 203:Middlewares/lvgl/src/core/../misc/lv_style.h ****     LV_STYLE_ARC_COLOR_FILTERED      = 82 | LV_STYLE_PROP_FILTER,
 204:Middlewares/lvgl/src/core/../misc/lv_style.h ****     LV_STYLE_ARC_OPA                 = 83,
 205:Middlewares/lvgl/src/core/../misc/lv_style.h ****     LV_STYLE_ARC_IMG_SRC             = 84,
