ARM GAS  /tmp/cc9MIr9f.s 			page 1


   1              		.cpu cortex-m4
   2              		.eabi_attribute 27, 1
   3              		.eabi_attribute 28, 1
   4              		.eabi_attribute 20, 1
   5              		.eabi_attribute 21, 1
   6              		.eabi_attribute 23, 3
   7              		.eabi_attribute 24, 1
   8              		.eabi_attribute 25, 1
   9              		.eabi_attribute 26, 1
  10              		.eabi_attribute 30, 1
  11              		.eabi_attribute 34, 1
  12              		.eabi_attribute 18, 4
  13              		.file	"lv_roller.c"
  14              		.text
  15              	.Ltext0:
  16              		.cfi_sections	.debug_frame
  17              		.section	.text.set_y_anim,"ax",%progbits
  18              		.align	1
  19              		.arch armv7e-m
  20              		.syntax unified
  21              		.thumb
  22              		.thumb_func
  23              		.fpu fpv4-sp-d16
  25              	set_y_anim:
  26              	.LVL0:
  27              	.LFB166:
  28              		.file 1 "Middlewares/lvgl/src/widgets/lv_roller.c"
   1:Middlewares/lvgl/src/widgets/lv_roller.c **** /**
   2:Middlewares/lvgl/src/widgets/lv_roller.c ****  * @file lv_roller.c
   3:Middlewares/lvgl/src/widgets/lv_roller.c ****  *
   4:Middlewares/lvgl/src/widgets/lv_roller.c ****  */
   5:Middlewares/lvgl/src/widgets/lv_roller.c **** 
   6:Middlewares/lvgl/src/widgets/lv_roller.c **** /*********************
   7:Middlewares/lvgl/src/widgets/lv_roller.c ****  *      INCLUDES
   8:Middlewares/lvgl/src/widgets/lv_roller.c ****  *********************/
   9:Middlewares/lvgl/src/widgets/lv_roller.c **** #include "lv_roller.h"
  10:Middlewares/lvgl/src/widgets/lv_roller.c **** #if LV_USE_ROLLER != 0
  11:Middlewares/lvgl/src/widgets/lv_roller.c **** 
  12:Middlewares/lvgl/src/widgets/lv_roller.c **** #include "../misc/lv_assert.h"
  13:Middlewares/lvgl/src/widgets/lv_roller.c **** #include "../draw/lv_draw.h"
  14:Middlewares/lvgl/src/widgets/lv_roller.c **** #include "../core/lv_group.h"
  15:Middlewares/lvgl/src/widgets/lv_roller.c **** #include "../core/lv_indev.h"
  16:Middlewares/lvgl/src/widgets/lv_roller.c **** #include "../core/lv_indev_scroll.h"
  17:Middlewares/lvgl/src/widgets/lv_roller.c **** 
  18:Middlewares/lvgl/src/widgets/lv_roller.c **** /*********************
  19:Middlewares/lvgl/src/widgets/lv_roller.c ****  *      DEFINES
  20:Middlewares/lvgl/src/widgets/lv_roller.c ****  *********************/
  21:Middlewares/lvgl/src/widgets/lv_roller.c **** #define MY_CLASS &lv_roller_class
  22:Middlewares/lvgl/src/widgets/lv_roller.c **** #define MY_CLASS_LABEL &lv_roller_label_class
  23:Middlewares/lvgl/src/widgets/lv_roller.c **** 
  24:Middlewares/lvgl/src/widgets/lv_roller.c **** /**********************
  25:Middlewares/lvgl/src/widgets/lv_roller.c ****  *      TYPEDEFS
  26:Middlewares/lvgl/src/widgets/lv_roller.c ****  **********************/
  27:Middlewares/lvgl/src/widgets/lv_roller.c **** 
  28:Middlewares/lvgl/src/widgets/lv_roller.c **** /**********************
  29:Middlewares/lvgl/src/widgets/lv_roller.c ****  *  STATIC PROTOTYPES
  30:Middlewares/lvgl/src/widgets/lv_roller.c ****  **********************/
ARM GAS  /tmp/cc9MIr9f.s 			page 2


  31:Middlewares/lvgl/src/widgets/lv_roller.c **** static void lv_roller_constructor(const lv_obj_class_t * class_p, lv_obj_t * obj);
  32:Middlewares/lvgl/src/widgets/lv_roller.c **** static void lv_roller_event(const lv_obj_class_t * class_p, lv_event_t * e);
  33:Middlewares/lvgl/src/widgets/lv_roller.c **** static void lv_roller_label_event(const lv_obj_class_t * class_p, lv_event_t * e);
  34:Middlewares/lvgl/src/widgets/lv_roller.c **** static void draw_main(lv_event_t * e);
  35:Middlewares/lvgl/src/widgets/lv_roller.c **** static void draw_label(lv_event_t * e);
  36:Middlewares/lvgl/src/widgets/lv_roller.c **** static void refr_position(lv_obj_t * obj, lv_anim_enable_t animen);
  37:Middlewares/lvgl/src/widgets/lv_roller.c **** static lv_res_t release_handler(lv_obj_t * obj);
  38:Middlewares/lvgl/src/widgets/lv_roller.c **** static void inf_normalize(lv_obj_t * obj_scrl);
  39:Middlewares/lvgl/src/widgets/lv_roller.c **** static lv_obj_t * get_label(const lv_obj_t * obj);
  40:Middlewares/lvgl/src/widgets/lv_roller.c **** static lv_coord_t get_selected_label_width(const lv_obj_t * obj);
  41:Middlewares/lvgl/src/widgets/lv_roller.c **** static void scroll_anim_ready_cb(lv_anim_t * a);
  42:Middlewares/lvgl/src/widgets/lv_roller.c **** static void set_y_anim(void * obj, int32_t v);
  43:Middlewares/lvgl/src/widgets/lv_roller.c **** 
  44:Middlewares/lvgl/src/widgets/lv_roller.c **** /**********************
  45:Middlewares/lvgl/src/widgets/lv_roller.c ****  *  STATIC VARIABLES
  46:Middlewares/lvgl/src/widgets/lv_roller.c ****  **********************/
  47:Middlewares/lvgl/src/widgets/lv_roller.c **** const lv_obj_class_t lv_roller_class = {
  48:Middlewares/lvgl/src/widgets/lv_roller.c ****         .constructor_cb = lv_roller_constructor,
  49:Middlewares/lvgl/src/widgets/lv_roller.c ****         .event_cb = lv_roller_event,
  50:Middlewares/lvgl/src/widgets/lv_roller.c ****         .width_def = LV_SIZE_CONTENT,
  51:Middlewares/lvgl/src/widgets/lv_roller.c ****         .height_def = LV_DPI_DEF,
  52:Middlewares/lvgl/src/widgets/lv_roller.c ****         .instance_size = sizeof(lv_roller_t),
  53:Middlewares/lvgl/src/widgets/lv_roller.c ****         .editable = LV_OBJ_CLASS_EDITABLE_TRUE,
  54:Middlewares/lvgl/src/widgets/lv_roller.c ****         .group_def = LV_OBJ_CLASS_GROUP_DEF_TRUE,
  55:Middlewares/lvgl/src/widgets/lv_roller.c ****         .base_class = &lv_obj_class
  56:Middlewares/lvgl/src/widgets/lv_roller.c **** };
  57:Middlewares/lvgl/src/widgets/lv_roller.c **** 
  58:Middlewares/lvgl/src/widgets/lv_roller.c **** const lv_obj_class_t lv_roller_label_class  = {
  59:Middlewares/lvgl/src/widgets/lv_roller.c ****         .event_cb = lv_roller_label_event,
  60:Middlewares/lvgl/src/widgets/lv_roller.c ****         .instance_size = sizeof(lv_label_t),
  61:Middlewares/lvgl/src/widgets/lv_roller.c ****         .base_class = &lv_label_class
  62:Middlewares/lvgl/src/widgets/lv_roller.c ****     };
  63:Middlewares/lvgl/src/widgets/lv_roller.c **** 
  64:Middlewares/lvgl/src/widgets/lv_roller.c **** /**********************
  65:Middlewares/lvgl/src/widgets/lv_roller.c ****  *      MACROS
  66:Middlewares/lvgl/src/widgets/lv_roller.c ****  **********************/
  67:Middlewares/lvgl/src/widgets/lv_roller.c **** 
  68:Middlewares/lvgl/src/widgets/lv_roller.c **** /**********************
  69:Middlewares/lvgl/src/widgets/lv_roller.c ****  *   GLOBAL FUNCTIONS
  70:Middlewares/lvgl/src/widgets/lv_roller.c ****  **********************/
  71:Middlewares/lvgl/src/widgets/lv_roller.c **** 
  72:Middlewares/lvgl/src/widgets/lv_roller.c **** /**
  73:Middlewares/lvgl/src/widgets/lv_roller.c ****  * Create a roller object
  74:Middlewares/lvgl/src/widgets/lv_roller.c ****  * @param par pointer to an object, it will be the parent of the new roller
  75:Middlewares/lvgl/src/widgets/lv_roller.c ****  * @return pointer to the created roller
  76:Middlewares/lvgl/src/widgets/lv_roller.c ****  */
  77:Middlewares/lvgl/src/widgets/lv_roller.c **** lv_obj_t * lv_roller_create(lv_obj_t * parent)
  78:Middlewares/lvgl/src/widgets/lv_roller.c **** {
  79:Middlewares/lvgl/src/widgets/lv_roller.c ****     LV_LOG_INFO("begin")
  80:Middlewares/lvgl/src/widgets/lv_roller.c ****     lv_obj_t * obj = lv_obj_class_create_obj(MY_CLASS, parent);
  81:Middlewares/lvgl/src/widgets/lv_roller.c ****     lv_obj_class_init_obj(obj);
  82:Middlewares/lvgl/src/widgets/lv_roller.c ****     return obj;
  83:Middlewares/lvgl/src/widgets/lv_roller.c **** }
  84:Middlewares/lvgl/src/widgets/lv_roller.c **** 
  85:Middlewares/lvgl/src/widgets/lv_roller.c **** /*=====================
  86:Middlewares/lvgl/src/widgets/lv_roller.c ****  * Setter functions
  87:Middlewares/lvgl/src/widgets/lv_roller.c ****  *====================*/
ARM GAS  /tmp/cc9MIr9f.s 			page 3


  88:Middlewares/lvgl/src/widgets/lv_roller.c **** 
  89:Middlewares/lvgl/src/widgets/lv_roller.c **** /**
  90:Middlewares/lvgl/src/widgets/lv_roller.c ****  * Set the options on a roller
  91:Middlewares/lvgl/src/widgets/lv_roller.c ****  * @param roller pointer to roller object
  92:Middlewares/lvgl/src/widgets/lv_roller.c ****  * @param options a string with '\n' separated options. E.g. "One\nTwo\nThree"
  93:Middlewares/lvgl/src/widgets/lv_roller.c ****  * @param mode `LV_ROLLER_MODE_NORMAL` or `LV_ROLLER_MODE_INFINITE`
  94:Middlewares/lvgl/src/widgets/lv_roller.c ****  */
  95:Middlewares/lvgl/src/widgets/lv_roller.c **** void lv_roller_set_options(lv_obj_t * obj, const char * options, lv_roller_mode_t mode)
  96:Middlewares/lvgl/src/widgets/lv_roller.c **** {
  97:Middlewares/lvgl/src/widgets/lv_roller.c ****     LV_ASSERT_OBJ(obj, MY_CLASS);
  98:Middlewares/lvgl/src/widgets/lv_roller.c ****     LV_ASSERT_NULL(options);
  99:Middlewares/lvgl/src/widgets/lv_roller.c **** 
 100:Middlewares/lvgl/src/widgets/lv_roller.c ****     lv_roller_t * roller = (lv_roller_t*)obj;
 101:Middlewares/lvgl/src/widgets/lv_roller.c ****     lv_obj_t * label = get_label(obj);
 102:Middlewares/lvgl/src/widgets/lv_roller.c **** 
 103:Middlewares/lvgl/src/widgets/lv_roller.c ****     roller->sel_opt_id     = 0;
 104:Middlewares/lvgl/src/widgets/lv_roller.c ****     roller->sel_opt_id_ori = 0;
 105:Middlewares/lvgl/src/widgets/lv_roller.c **** 
 106:Middlewares/lvgl/src/widgets/lv_roller.c ****     /*Count the '\n'-s to determine the number of options*/
 107:Middlewares/lvgl/src/widgets/lv_roller.c ****     roller->option_cnt = 0;
 108:Middlewares/lvgl/src/widgets/lv_roller.c ****     uint32_t cnt;
 109:Middlewares/lvgl/src/widgets/lv_roller.c ****     for(cnt = 0; options[cnt] != '\0'; cnt++) {
 110:Middlewares/lvgl/src/widgets/lv_roller.c ****         if(options[cnt] == '\n') roller->option_cnt++;
 111:Middlewares/lvgl/src/widgets/lv_roller.c ****     }
 112:Middlewares/lvgl/src/widgets/lv_roller.c ****     roller->option_cnt++; /*Last option has no `\n`*/
 113:Middlewares/lvgl/src/widgets/lv_roller.c **** 
 114:Middlewares/lvgl/src/widgets/lv_roller.c ****     if(mode == LV_ROLLER_MODE_NORMAL) {
 115:Middlewares/lvgl/src/widgets/lv_roller.c ****         roller->mode = LV_ROLLER_MODE_NORMAL;
 116:Middlewares/lvgl/src/widgets/lv_roller.c ****         lv_label_set_text(label, options);
 117:Middlewares/lvgl/src/widgets/lv_roller.c ****     }
 118:Middlewares/lvgl/src/widgets/lv_roller.c ****     else {
 119:Middlewares/lvgl/src/widgets/lv_roller.c ****         roller->mode = LV_ROLLER_MODE_INFINITE;
 120:Middlewares/lvgl/src/widgets/lv_roller.c **** 
 121:Middlewares/lvgl/src/widgets/lv_roller.c ****         size_t opt_len = strlen(options) + 1; /*+1 to add '\n' after option lists*/
 122:Middlewares/lvgl/src/widgets/lv_roller.c ****         char * opt_extra = lv_mem_buf_get(opt_len * LV_ROLLER_INF_PAGES);
 123:Middlewares/lvgl/src/widgets/lv_roller.c ****         uint8_t i;
 124:Middlewares/lvgl/src/widgets/lv_roller.c ****         for(i = 0; i < LV_ROLLER_INF_PAGES; i++) {
 125:Middlewares/lvgl/src/widgets/lv_roller.c ****             strcpy(&opt_extra[opt_len * i], options);
 126:Middlewares/lvgl/src/widgets/lv_roller.c ****             opt_extra[opt_len * (i + 1) - 1] = '\n';
 127:Middlewares/lvgl/src/widgets/lv_roller.c ****         }
 128:Middlewares/lvgl/src/widgets/lv_roller.c ****         opt_extra[opt_len * LV_ROLLER_INF_PAGES - 1] = '\0';
 129:Middlewares/lvgl/src/widgets/lv_roller.c ****         lv_label_set_text(label, opt_extra);
 130:Middlewares/lvgl/src/widgets/lv_roller.c ****         lv_mem_buf_release(opt_extra);
 131:Middlewares/lvgl/src/widgets/lv_roller.c **** 
 132:Middlewares/lvgl/src/widgets/lv_roller.c ****         roller->sel_opt_id     = ((LV_ROLLER_INF_PAGES / 2) + 0) * roller->option_cnt;
 133:Middlewares/lvgl/src/widgets/lv_roller.c **** 
 134:Middlewares/lvgl/src/widgets/lv_roller.c ****         roller->option_cnt = roller->option_cnt * LV_ROLLER_INF_PAGES;
 135:Middlewares/lvgl/src/widgets/lv_roller.c ****         inf_normalize(obj);
 136:Middlewares/lvgl/src/widgets/lv_roller.c ****     }
 137:Middlewares/lvgl/src/widgets/lv_roller.c **** 
 138:Middlewares/lvgl/src/widgets/lv_roller.c ****     roller->sel_opt_id_ori = roller->sel_opt_id;
 139:Middlewares/lvgl/src/widgets/lv_roller.c **** 
 140:Middlewares/lvgl/src/widgets/lv_roller.c ****     /*If the selected text has larger font the label needs some extra draw padding to draw it.*/
 141:Middlewares/lvgl/src/widgets/lv_roller.c ****     lv_obj_refresh_ext_draw_size(label);
 142:Middlewares/lvgl/src/widgets/lv_roller.c **** 
 143:Middlewares/lvgl/src/widgets/lv_roller.c **** }
 144:Middlewares/lvgl/src/widgets/lv_roller.c **** 
ARM GAS  /tmp/cc9MIr9f.s 			page 4


 145:Middlewares/lvgl/src/widgets/lv_roller.c **** /**
 146:Middlewares/lvgl/src/widgets/lv_roller.c ****  * Set the selected option
 147:Middlewares/lvgl/src/widgets/lv_roller.c ****  * @param roller pointer to a roller object
 148:Middlewares/lvgl/src/widgets/lv_roller.c ****  * @param sel_opt id of the selected option (0 ... number of option - 1);
 149:Middlewares/lvgl/src/widgets/lv_roller.c ****  * @param anim_en LV_ANIM_ON: set with animation; LV_ANOM_OFF set immediately
 150:Middlewares/lvgl/src/widgets/lv_roller.c ****  */
 151:Middlewares/lvgl/src/widgets/lv_roller.c **** void lv_roller_set_selected(lv_obj_t * obj, uint16_t sel_opt, lv_anim_enable_t anim)
 152:Middlewares/lvgl/src/widgets/lv_roller.c **** {
 153:Middlewares/lvgl/src/widgets/lv_roller.c ****     LV_ASSERT_OBJ(obj, MY_CLASS);
 154:Middlewares/lvgl/src/widgets/lv_roller.c **** 
 155:Middlewares/lvgl/src/widgets/lv_roller.c ****     /*Set the value even if it's the same as the current value because
 156:Middlewares/lvgl/src/widgets/lv_roller.c ****      *if moving to the next option with an animation which was just deleted in the PRESS Call the a
 157:Middlewares/lvgl/src/widgets/lv_roller.c ****      *nothing will continue the animation.*/
 158:Middlewares/lvgl/src/widgets/lv_roller.c **** 
 159:Middlewares/lvgl/src/widgets/lv_roller.c ****     lv_roller_t * roller = (lv_roller_t*)obj;
 160:Middlewares/lvgl/src/widgets/lv_roller.c **** 
 161:Middlewares/lvgl/src/widgets/lv_roller.c ****     /*In infinite mode interpret the new ID relative to the currently visible "page"*/
 162:Middlewares/lvgl/src/widgets/lv_roller.c ****     if(roller->mode == LV_ROLLER_MODE_INFINITE) {
 163:Middlewares/lvgl/src/widgets/lv_roller.c ****         int32_t sel_opt_signed = sel_opt;
 164:Middlewares/lvgl/src/widgets/lv_roller.c ****         uint16_t page = roller->sel_opt_id / LV_ROLLER_INF_PAGES;
 165:Middlewares/lvgl/src/widgets/lv_roller.c **** 
 166:Middlewares/lvgl/src/widgets/lv_roller.c ****         /*`sel_opt` should be less than the number of options set by the user.
 167:Middlewares/lvgl/src/widgets/lv_roller.c ****          *If it's more then probably it's a reference from not the first page
 168:Middlewares/lvgl/src/widgets/lv_roller.c ****          *so normalize `sel_opt`*/
 169:Middlewares/lvgl/src/widgets/lv_roller.c ****         if(page != 0) {
 170:Middlewares/lvgl/src/widgets/lv_roller.c ****             sel_opt_signed -= page * LV_ROLLER_INF_PAGES;
 171:Middlewares/lvgl/src/widgets/lv_roller.c ****         }
 172:Middlewares/lvgl/src/widgets/lv_roller.c **** 
 173:Middlewares/lvgl/src/widgets/lv_roller.c ****         sel_opt = page * LV_ROLLER_INF_PAGES + sel_opt_signed;
 174:Middlewares/lvgl/src/widgets/lv_roller.c ****     }
 175:Middlewares/lvgl/src/widgets/lv_roller.c **** 
 176:Middlewares/lvgl/src/widgets/lv_roller.c ****     roller->sel_opt_id     = sel_opt < roller->option_cnt ? sel_opt : roller->option_cnt - 1;
 177:Middlewares/lvgl/src/widgets/lv_roller.c ****     roller->sel_opt_id_ori = roller->sel_opt_id;
 178:Middlewares/lvgl/src/widgets/lv_roller.c **** 
 179:Middlewares/lvgl/src/widgets/lv_roller.c ****     refr_position(obj, anim);
 180:Middlewares/lvgl/src/widgets/lv_roller.c **** }
 181:Middlewares/lvgl/src/widgets/lv_roller.c **** 
 182:Middlewares/lvgl/src/widgets/lv_roller.c **** /**
 183:Middlewares/lvgl/src/widgets/lv_roller.c ****  * Set the height to show the given number of rows (options)
 184:Middlewares/lvgl/src/widgets/lv_roller.c ****  * @param roller pointer to a roller object
 185:Middlewares/lvgl/src/widgets/lv_roller.c ****  * @param row_cnt number of desired visible rows
 186:Middlewares/lvgl/src/widgets/lv_roller.c ****  */
 187:Middlewares/lvgl/src/widgets/lv_roller.c **** void lv_roller_set_visible_row_count(lv_obj_t * obj, uint8_t row_cnt)
 188:Middlewares/lvgl/src/widgets/lv_roller.c **** {
 189:Middlewares/lvgl/src/widgets/lv_roller.c ****     LV_ASSERT_OBJ(obj, MY_CLASS);
 190:Middlewares/lvgl/src/widgets/lv_roller.c **** 
 191:Middlewares/lvgl/src/widgets/lv_roller.c ****     const lv_font_t * font = lv_obj_get_style_text_font(obj, LV_PART_MAIN);
 192:Middlewares/lvgl/src/widgets/lv_roller.c ****     lv_coord_t line_space = lv_obj_get_style_text_line_space(obj, LV_PART_MAIN);
 193:Middlewares/lvgl/src/widgets/lv_roller.c ****     lv_coord_t border_width = lv_obj_get_style_border_width(obj, LV_PART_MAIN);
 194:Middlewares/lvgl/src/widgets/lv_roller.c ****     lv_obj_set_height(obj, (lv_font_get_line_height(font) + line_space) * row_cnt + 2 * border_widt
 195:Middlewares/lvgl/src/widgets/lv_roller.c **** }
 196:Middlewares/lvgl/src/widgets/lv_roller.c **** 
 197:Middlewares/lvgl/src/widgets/lv_roller.c **** /*=====================
 198:Middlewares/lvgl/src/widgets/lv_roller.c ****  * Getter functions
 199:Middlewares/lvgl/src/widgets/lv_roller.c ****  *====================*/
 200:Middlewares/lvgl/src/widgets/lv_roller.c **** 
 201:Middlewares/lvgl/src/widgets/lv_roller.c **** /**
ARM GAS  /tmp/cc9MIr9f.s 			page 5


 202:Middlewares/lvgl/src/widgets/lv_roller.c ****  * Get the id of the selected option
 203:Middlewares/lvgl/src/widgets/lv_roller.c ****  * @param roller pointer to a roller object
 204:Middlewares/lvgl/src/widgets/lv_roller.c ****  * @return id of the selected option (0 ... number of option - 1);
 205:Middlewares/lvgl/src/widgets/lv_roller.c ****  */
 206:Middlewares/lvgl/src/widgets/lv_roller.c **** uint16_t lv_roller_get_selected(const lv_obj_t * obj)
 207:Middlewares/lvgl/src/widgets/lv_roller.c **** {
 208:Middlewares/lvgl/src/widgets/lv_roller.c ****     LV_ASSERT_OBJ(obj, MY_CLASS);
 209:Middlewares/lvgl/src/widgets/lv_roller.c **** 
 210:Middlewares/lvgl/src/widgets/lv_roller.c ****     lv_roller_t * roller = (lv_roller_t*)obj;
 211:Middlewares/lvgl/src/widgets/lv_roller.c ****     if(roller->mode == LV_ROLLER_MODE_INFINITE) {
 212:Middlewares/lvgl/src/widgets/lv_roller.c ****         uint16_t real_id_cnt = roller->option_cnt / LV_ROLLER_INF_PAGES;
 213:Middlewares/lvgl/src/widgets/lv_roller.c ****         return roller->sel_opt_id % real_id_cnt;
 214:Middlewares/lvgl/src/widgets/lv_roller.c ****     }
 215:Middlewares/lvgl/src/widgets/lv_roller.c ****     else {
 216:Middlewares/lvgl/src/widgets/lv_roller.c ****         return roller->sel_opt_id;
 217:Middlewares/lvgl/src/widgets/lv_roller.c ****     }
 218:Middlewares/lvgl/src/widgets/lv_roller.c **** }
 219:Middlewares/lvgl/src/widgets/lv_roller.c **** 
 220:Middlewares/lvgl/src/widgets/lv_roller.c **** /**
 221:Middlewares/lvgl/src/widgets/lv_roller.c ****  * Get the current selected option as a string
 222:Middlewares/lvgl/src/widgets/lv_roller.c ****  * @param ddlist pointer to ddlist object
 223:Middlewares/lvgl/src/widgets/lv_roller.c ****  * @param buf pointer to an array to store the string
 224:Middlewares/lvgl/src/widgets/lv_roller.c ****  * @param buf_size size of `buf` in bytes. 0: to ignore it.
 225:Middlewares/lvgl/src/widgets/lv_roller.c ****  */
 226:Middlewares/lvgl/src/widgets/lv_roller.c **** void lv_roller_get_selected_str(const lv_obj_t * obj, char * buf, uint32_t buf_size)
 227:Middlewares/lvgl/src/widgets/lv_roller.c **** {
 228:Middlewares/lvgl/src/widgets/lv_roller.c ****     LV_ASSERT_OBJ(obj, MY_CLASS);
 229:Middlewares/lvgl/src/widgets/lv_roller.c **** 
 230:Middlewares/lvgl/src/widgets/lv_roller.c ****     lv_roller_t * roller = (lv_roller_t*)obj;
 231:Middlewares/lvgl/src/widgets/lv_roller.c ****     lv_obj_t * label = get_label(obj);
 232:Middlewares/lvgl/src/widgets/lv_roller.c ****     uint32_t i;
 233:Middlewares/lvgl/src/widgets/lv_roller.c ****     uint16_t line        = 0;
 234:Middlewares/lvgl/src/widgets/lv_roller.c ****     const char * opt_txt = lv_label_get_text(label);
 235:Middlewares/lvgl/src/widgets/lv_roller.c ****     size_t txt_len     = strlen(opt_txt);
 236:Middlewares/lvgl/src/widgets/lv_roller.c **** 
 237:Middlewares/lvgl/src/widgets/lv_roller.c ****     for(i = 0; i < txt_len && line != roller->sel_opt_id; i++) {
 238:Middlewares/lvgl/src/widgets/lv_roller.c ****         if(opt_txt[i] == '\n') line++;
 239:Middlewares/lvgl/src/widgets/lv_roller.c ****     }
 240:Middlewares/lvgl/src/widgets/lv_roller.c **** 
 241:Middlewares/lvgl/src/widgets/lv_roller.c ****     uint32_t c;
 242:Middlewares/lvgl/src/widgets/lv_roller.c ****     for(c = 0; i < txt_len && opt_txt[i] != '\n'; c++, i++) {
 243:Middlewares/lvgl/src/widgets/lv_roller.c ****         if(buf_size && c >= buf_size - 1) {
 244:Middlewares/lvgl/src/widgets/lv_roller.c ****             LV_LOG_WARN("lv_dropdown_get_selected_str: the buffer was too small")
 245:Middlewares/lvgl/src/widgets/lv_roller.c ****             break;
 246:Middlewares/lvgl/src/widgets/lv_roller.c ****         }
 247:Middlewares/lvgl/src/widgets/lv_roller.c ****         buf[c] = opt_txt[i];
 248:Middlewares/lvgl/src/widgets/lv_roller.c ****     }
 249:Middlewares/lvgl/src/widgets/lv_roller.c **** 
 250:Middlewares/lvgl/src/widgets/lv_roller.c ****     buf[c] = '\0';
 251:Middlewares/lvgl/src/widgets/lv_roller.c **** }
 252:Middlewares/lvgl/src/widgets/lv_roller.c **** 
 253:Middlewares/lvgl/src/widgets/lv_roller.c **** 
 254:Middlewares/lvgl/src/widgets/lv_roller.c **** /**
 255:Middlewares/lvgl/src/widgets/lv_roller.c ****  * Get the options of a roller
 256:Middlewares/lvgl/src/widgets/lv_roller.c ****  * @param roller pointer to roller object
 257:Middlewares/lvgl/src/widgets/lv_roller.c ****  * @return the options separated by '\n'-s (E.g. "Option1\nOption2\nOption3")
 258:Middlewares/lvgl/src/widgets/lv_roller.c ****  */
ARM GAS  /tmp/cc9MIr9f.s 			page 6


 259:Middlewares/lvgl/src/widgets/lv_roller.c **** const char * lv_roller_get_options(const lv_obj_t * obj)
 260:Middlewares/lvgl/src/widgets/lv_roller.c **** {
 261:Middlewares/lvgl/src/widgets/lv_roller.c ****     LV_ASSERT_OBJ(obj, MY_CLASS);
 262:Middlewares/lvgl/src/widgets/lv_roller.c **** 
 263:Middlewares/lvgl/src/widgets/lv_roller.c ****     return lv_label_get_text(get_label(obj));
 264:Middlewares/lvgl/src/widgets/lv_roller.c **** }
 265:Middlewares/lvgl/src/widgets/lv_roller.c **** 
 266:Middlewares/lvgl/src/widgets/lv_roller.c **** 
 267:Middlewares/lvgl/src/widgets/lv_roller.c **** /**
 268:Middlewares/lvgl/src/widgets/lv_roller.c ****  * Get the total number of options
 269:Middlewares/lvgl/src/widgets/lv_roller.c ****  * @param roller pointer to a roller object
 270:Middlewares/lvgl/src/widgets/lv_roller.c ****  * @return the total number of options
 271:Middlewares/lvgl/src/widgets/lv_roller.c ****  */
 272:Middlewares/lvgl/src/widgets/lv_roller.c **** uint16_t lv_roller_get_option_cnt(const lv_obj_t * obj)
 273:Middlewares/lvgl/src/widgets/lv_roller.c **** {
 274:Middlewares/lvgl/src/widgets/lv_roller.c ****     LV_ASSERT_OBJ(obj, MY_CLASS);
 275:Middlewares/lvgl/src/widgets/lv_roller.c **** 
 276:Middlewares/lvgl/src/widgets/lv_roller.c ****     lv_roller_t * roller = (lv_roller_t*)obj;
 277:Middlewares/lvgl/src/widgets/lv_roller.c ****     if(roller->mode == LV_ROLLER_MODE_INFINITE) {
 278:Middlewares/lvgl/src/widgets/lv_roller.c ****         return roller->option_cnt / LV_ROLLER_INF_PAGES;
 279:Middlewares/lvgl/src/widgets/lv_roller.c ****     }
 280:Middlewares/lvgl/src/widgets/lv_roller.c ****     else {
 281:Middlewares/lvgl/src/widgets/lv_roller.c ****         return roller->option_cnt;
 282:Middlewares/lvgl/src/widgets/lv_roller.c ****     }
 283:Middlewares/lvgl/src/widgets/lv_roller.c **** }
 284:Middlewares/lvgl/src/widgets/lv_roller.c **** 
 285:Middlewares/lvgl/src/widgets/lv_roller.c **** /**********************
 286:Middlewares/lvgl/src/widgets/lv_roller.c ****  *   STATIC FUNCTIONS
 287:Middlewares/lvgl/src/widgets/lv_roller.c ****  **********************/
 288:Middlewares/lvgl/src/widgets/lv_roller.c **** 
 289:Middlewares/lvgl/src/widgets/lv_roller.c **** 
 290:Middlewares/lvgl/src/widgets/lv_roller.c **** static void lv_roller_constructor(const lv_obj_class_t * class_p, lv_obj_t * obj)
 291:Middlewares/lvgl/src/widgets/lv_roller.c **** {
 292:Middlewares/lvgl/src/widgets/lv_roller.c ****     LV_UNUSED(class_p);
 293:Middlewares/lvgl/src/widgets/lv_roller.c ****     lv_roller_t * roller = (lv_roller_t*)obj;
 294:Middlewares/lvgl/src/widgets/lv_roller.c **** 
 295:Middlewares/lvgl/src/widgets/lv_roller.c ****     roller->mode = LV_ROLLER_MODE_NORMAL;
 296:Middlewares/lvgl/src/widgets/lv_roller.c ****     roller->option_cnt = 0;
 297:Middlewares/lvgl/src/widgets/lv_roller.c ****     roller->sel_opt_id = 0;
 298:Middlewares/lvgl/src/widgets/lv_roller.c ****     roller->sel_opt_id_ori = 0;
 299:Middlewares/lvgl/src/widgets/lv_roller.c **** 
 300:Middlewares/lvgl/src/widgets/lv_roller.c ****     lv_obj_clear_flag(obj, LV_OBJ_FLAG_SCROLLABLE);
 301:Middlewares/lvgl/src/widgets/lv_roller.c ****     lv_obj_clear_flag(obj, LV_OBJ_FLAG_SCROLL_CHAIN);
 302:Middlewares/lvgl/src/widgets/lv_roller.c **** 
 303:Middlewares/lvgl/src/widgets/lv_roller.c ****     LV_LOG_INFO("begin")
 304:Middlewares/lvgl/src/widgets/lv_roller.c ****     lv_obj_t * label = lv_obj_class_create_obj(&lv_roller_label_class, obj);
 305:Middlewares/lvgl/src/widgets/lv_roller.c ****     lv_obj_class_init_obj(label);
 306:Middlewares/lvgl/src/widgets/lv_roller.c ****     lv_roller_set_options(obj, "Option 1\nOption 2\nOption 3\nOption 4\nOption 5", LV_ROLLER_MODE_N
 307:Middlewares/lvgl/src/widgets/lv_roller.c **** 
 308:Middlewares/lvgl/src/widgets/lv_roller.c ****     LV_LOG_TRACE("finshed");
 309:Middlewares/lvgl/src/widgets/lv_roller.c **** }
 310:Middlewares/lvgl/src/widgets/lv_roller.c **** 
 311:Middlewares/lvgl/src/widgets/lv_roller.c **** static void lv_roller_event(const lv_obj_class_t * class_p, lv_event_t * e)
 312:Middlewares/lvgl/src/widgets/lv_roller.c **** {
 313:Middlewares/lvgl/src/widgets/lv_roller.c ****     LV_UNUSED(class_p);
 314:Middlewares/lvgl/src/widgets/lv_roller.c **** 
 315:Middlewares/lvgl/src/widgets/lv_roller.c ****     lv_res_t res;
ARM GAS  /tmp/cc9MIr9f.s 			page 7


 316:Middlewares/lvgl/src/widgets/lv_roller.c **** 
 317:Middlewares/lvgl/src/widgets/lv_roller.c ****     /*Call the ancestor's event handler*/
 318:Middlewares/lvgl/src/widgets/lv_roller.c ****     res = lv_obj_event_base(MY_CLASS, e);
 319:Middlewares/lvgl/src/widgets/lv_roller.c ****     if(res != LV_RES_OK) return;
 320:Middlewares/lvgl/src/widgets/lv_roller.c **** 
 321:Middlewares/lvgl/src/widgets/lv_roller.c ****     lv_event_code_t code = lv_event_get_code(e);
 322:Middlewares/lvgl/src/widgets/lv_roller.c ****     lv_obj_t * obj = lv_event_get_target(e);
 323:Middlewares/lvgl/src/widgets/lv_roller.c ****     lv_roller_t * roller = (lv_roller_t*)obj;
 324:Middlewares/lvgl/src/widgets/lv_roller.c **** 
 325:Middlewares/lvgl/src/widgets/lv_roller.c ****     if(code == LV_EVENT_GET_SELF_SIZE) {
 326:Middlewares/lvgl/src/widgets/lv_roller.c ****         lv_point_t * p = lv_event_get_param(e);
 327:Middlewares/lvgl/src/widgets/lv_roller.c ****         p->x =  get_selected_label_width(obj);
 328:Middlewares/lvgl/src/widgets/lv_roller.c ****     }
 329:Middlewares/lvgl/src/widgets/lv_roller.c ****     else if(code == LV_EVENT_STYLE_CHANGED) {
 330:Middlewares/lvgl/src/widgets/lv_roller.c ****         lv_obj_t * label = get_label(obj);
 331:Middlewares/lvgl/src/widgets/lv_roller.c ****         /*Be sure the label's style is updated before processing the roller*/
 332:Middlewares/lvgl/src/widgets/lv_roller.c ****         if(label) lv_event_send(label, LV_EVENT_STYLE_CHANGED, NULL);
 333:Middlewares/lvgl/src/widgets/lv_roller.c ****         lv_obj_refresh_self_size(obj);
 334:Middlewares/lvgl/src/widgets/lv_roller.c ****         refr_position(obj, false);
 335:Middlewares/lvgl/src/widgets/lv_roller.c ****     }
 336:Middlewares/lvgl/src/widgets/lv_roller.c ****     else if(code == LV_EVENT_SIZE_CHANGED) {
 337:Middlewares/lvgl/src/widgets/lv_roller.c ****         refr_position(obj, false);
 338:Middlewares/lvgl/src/widgets/lv_roller.c ****     }
 339:Middlewares/lvgl/src/widgets/lv_roller.c ****     else if(code == LV_EVENT_PRESSED) {
 340:Middlewares/lvgl/src/widgets/lv_roller.c ****         roller->moved = 0;
 341:Middlewares/lvgl/src/widgets/lv_roller.c ****         lv_anim_del(get_label(obj), set_y_anim);
 342:Middlewares/lvgl/src/widgets/lv_roller.c ****     }
 343:Middlewares/lvgl/src/widgets/lv_roller.c ****     else if(code == LV_EVENT_PRESSING) {
 344:Middlewares/lvgl/src/widgets/lv_roller.c ****         lv_indev_t * indev = lv_indev_get_act();
 345:Middlewares/lvgl/src/widgets/lv_roller.c ****         lv_point_t p;
 346:Middlewares/lvgl/src/widgets/lv_roller.c ****         lv_indev_get_vect(indev, &p);
 347:Middlewares/lvgl/src/widgets/lv_roller.c ****         if(p.y) {
 348:Middlewares/lvgl/src/widgets/lv_roller.c ****             lv_obj_t * label = get_label(obj);
 349:Middlewares/lvgl/src/widgets/lv_roller.c ****             lv_obj_set_y(label, lv_obj_get_y(label) + p.y);
 350:Middlewares/lvgl/src/widgets/lv_roller.c ****             roller->moved = 1;
 351:Middlewares/lvgl/src/widgets/lv_roller.c ****         }
 352:Middlewares/lvgl/src/widgets/lv_roller.c ****     }
 353:Middlewares/lvgl/src/widgets/lv_roller.c ****     else if(code == LV_EVENT_RELEASED) {
 354:Middlewares/lvgl/src/widgets/lv_roller.c ****         release_handler(obj);
 355:Middlewares/lvgl/src/widgets/lv_roller.c ****     }
 356:Middlewares/lvgl/src/widgets/lv_roller.c ****     else if(code == LV_EVENT_FOCUSED) {
 357:Middlewares/lvgl/src/widgets/lv_roller.c ****         lv_group_t * g             = lv_obj_get_group(obj);
 358:Middlewares/lvgl/src/widgets/lv_roller.c ****         bool editing               = lv_group_get_editing(g);
 359:Middlewares/lvgl/src/widgets/lv_roller.c ****         lv_indev_type_t indev_type = lv_indev_get_type(lv_indev_get_act());
 360:Middlewares/lvgl/src/widgets/lv_roller.c **** 
 361:Middlewares/lvgl/src/widgets/lv_roller.c ****         /*Encoders need special handling*/
 362:Middlewares/lvgl/src/widgets/lv_roller.c ****         if(indev_type == LV_INDEV_TYPE_ENCODER) {
 363:Middlewares/lvgl/src/widgets/lv_roller.c ****             /*In navigate mode revert the original value*/
 364:Middlewares/lvgl/src/widgets/lv_roller.c ****             if(!editing) {
 365:Middlewares/lvgl/src/widgets/lv_roller.c ****                 if(roller->sel_opt_id != roller->sel_opt_id_ori) {
 366:Middlewares/lvgl/src/widgets/lv_roller.c ****                     roller->sel_opt_id = roller->sel_opt_id_ori;
 367:Middlewares/lvgl/src/widgets/lv_roller.c ****                     refr_position(obj, true);
 368:Middlewares/lvgl/src/widgets/lv_roller.c ****                 }
 369:Middlewares/lvgl/src/widgets/lv_roller.c ****             }
 370:Middlewares/lvgl/src/widgets/lv_roller.c ****             /*Save the current state when entered to edit mode*/
 371:Middlewares/lvgl/src/widgets/lv_roller.c ****             else {
 372:Middlewares/lvgl/src/widgets/lv_roller.c ****                 roller->sel_opt_id_ori = roller->sel_opt_id;
ARM GAS  /tmp/cc9MIr9f.s 			page 8


 373:Middlewares/lvgl/src/widgets/lv_roller.c ****             }
 374:Middlewares/lvgl/src/widgets/lv_roller.c ****         }
 375:Middlewares/lvgl/src/widgets/lv_roller.c ****         else {
 376:Middlewares/lvgl/src/widgets/lv_roller.c ****             roller->sel_opt_id_ori = roller->sel_opt_id; /*Save the current value. Used to revert t
 377:Middlewares/lvgl/src/widgets/lv_roller.c ****                                                                     ENTER won't be pressed*/
 378:Middlewares/lvgl/src/widgets/lv_roller.c ****         }
 379:Middlewares/lvgl/src/widgets/lv_roller.c ****     }
 380:Middlewares/lvgl/src/widgets/lv_roller.c ****     else if(code == LV_EVENT_DEFOCUSED) {
 381:Middlewares/lvgl/src/widgets/lv_roller.c ****         /*Revert the original state*/
 382:Middlewares/lvgl/src/widgets/lv_roller.c ****         if(roller->sel_opt_id != roller->sel_opt_id_ori) {
 383:Middlewares/lvgl/src/widgets/lv_roller.c ****             roller->sel_opt_id = roller->sel_opt_id_ori;
 384:Middlewares/lvgl/src/widgets/lv_roller.c ****             refr_position(obj, true);
 385:Middlewares/lvgl/src/widgets/lv_roller.c ****         }
 386:Middlewares/lvgl/src/widgets/lv_roller.c ****     }
 387:Middlewares/lvgl/src/widgets/lv_roller.c ****     else if(code == LV_EVENT_KEY) {
 388:Middlewares/lvgl/src/widgets/lv_roller.c ****         char c = *((char *)lv_event_get_param(e));
 389:Middlewares/lvgl/src/widgets/lv_roller.c ****         if(c == LV_KEY_RIGHT || c == LV_KEY_DOWN) {
 390:Middlewares/lvgl/src/widgets/lv_roller.c ****             if(roller->sel_opt_id + 1 < roller->option_cnt) {
 391:Middlewares/lvgl/src/widgets/lv_roller.c ****                 uint16_t ori_id = roller->sel_opt_id_ori; /*lv_roller_set_selected will overwrite t
 392:Middlewares/lvgl/src/widgets/lv_roller.c ****                 lv_roller_set_selected(obj, roller->sel_opt_id + 1, true);
 393:Middlewares/lvgl/src/widgets/lv_roller.c ****                 roller->sel_opt_id_ori = ori_id;
 394:Middlewares/lvgl/src/widgets/lv_roller.c ****             }
 395:Middlewares/lvgl/src/widgets/lv_roller.c ****         }
 396:Middlewares/lvgl/src/widgets/lv_roller.c ****         else if(c == LV_KEY_LEFT || c == LV_KEY_UP) {
 397:Middlewares/lvgl/src/widgets/lv_roller.c ****             if(roller->sel_opt_id > 0) {
 398:Middlewares/lvgl/src/widgets/lv_roller.c ****                 uint16_t ori_id = roller->sel_opt_id_ori; /*lv_roller_set_selected will overwrite t
 399:Middlewares/lvgl/src/widgets/lv_roller.c **** 
 400:Middlewares/lvgl/src/widgets/lv_roller.c ****                 lv_roller_set_selected(obj, roller->sel_opt_id - 1, true);
 401:Middlewares/lvgl/src/widgets/lv_roller.c ****                 roller->sel_opt_id_ori = ori_id;
 402:Middlewares/lvgl/src/widgets/lv_roller.c ****             }
 403:Middlewares/lvgl/src/widgets/lv_roller.c ****         }
 404:Middlewares/lvgl/src/widgets/lv_roller.c ****     }
 405:Middlewares/lvgl/src/widgets/lv_roller.c ****     else if(code == LV_EVENT_DRAW_MAIN || code == LV_EVENT_DRAW_POST) {
 406:Middlewares/lvgl/src/widgets/lv_roller.c ****         draw_main(e);
 407:Middlewares/lvgl/src/widgets/lv_roller.c ****     }
 408:Middlewares/lvgl/src/widgets/lv_roller.c **** }
 409:Middlewares/lvgl/src/widgets/lv_roller.c **** 
 410:Middlewares/lvgl/src/widgets/lv_roller.c **** static void lv_roller_label_event(const lv_obj_class_t * class_p, lv_event_t * e)
 411:Middlewares/lvgl/src/widgets/lv_roller.c **** {
 412:Middlewares/lvgl/src/widgets/lv_roller.c ****     LV_UNUSED(class_p);
 413:Middlewares/lvgl/src/widgets/lv_roller.c **** 
 414:Middlewares/lvgl/src/widgets/lv_roller.c ****     lv_res_t res;
 415:Middlewares/lvgl/src/widgets/lv_roller.c **** 
 416:Middlewares/lvgl/src/widgets/lv_roller.c ****     lv_event_code_t code = lv_event_get_code(e);
 417:Middlewares/lvgl/src/widgets/lv_roller.c ****     /*LV_EVENT_DRAW_MAIN will be called in the draw function*/
 418:Middlewares/lvgl/src/widgets/lv_roller.c ****     if(code != LV_EVENT_DRAW_MAIN) {
 419:Middlewares/lvgl/src/widgets/lv_roller.c ****         /* Call the ancestor's event handler */
 420:Middlewares/lvgl/src/widgets/lv_roller.c ****         res = lv_obj_event_base(MY_CLASS_LABEL, e);
 421:Middlewares/lvgl/src/widgets/lv_roller.c ****         if(res != LV_RES_OK) return;
 422:Middlewares/lvgl/src/widgets/lv_roller.c ****     }
 423:Middlewares/lvgl/src/widgets/lv_roller.c **** 
 424:Middlewares/lvgl/src/widgets/lv_roller.c ****     lv_obj_t * label = lv_event_get_target(e);
 425:Middlewares/lvgl/src/widgets/lv_roller.c ****     if(code == LV_EVENT_REFR_EXT_DRAW_SIZE) {
 426:Middlewares/lvgl/src/widgets/lv_roller.c ****         /*If the selected text has a larger font it needs some extra space to draw it*/
 427:Middlewares/lvgl/src/widgets/lv_roller.c ****         lv_coord_t * s = lv_event_get_param(e);
 428:Middlewares/lvgl/src/widgets/lv_roller.c ****         lv_obj_t * obj = lv_obj_get_parent(label);
 429:Middlewares/lvgl/src/widgets/lv_roller.c ****         lv_coord_t sel_w = get_selected_label_width(obj);
ARM GAS  /tmp/cc9MIr9f.s 			page 9


 430:Middlewares/lvgl/src/widgets/lv_roller.c ****         lv_coord_t label_w = lv_obj_get_width(label);
 431:Middlewares/lvgl/src/widgets/lv_roller.c ****         *s = LV_MAX(*s, sel_w - label_w);
 432:Middlewares/lvgl/src/widgets/lv_roller.c ****     }
 433:Middlewares/lvgl/src/widgets/lv_roller.c ****     else if(code == LV_EVENT_SIZE_CHANGED) {
 434:Middlewares/lvgl/src/widgets/lv_roller.c ****         refr_position(lv_obj_get_parent(label), LV_ANIM_OFF);
 435:Middlewares/lvgl/src/widgets/lv_roller.c ****     }
 436:Middlewares/lvgl/src/widgets/lv_roller.c ****     else if(code == LV_EVENT_DRAW_MAIN) {
 437:Middlewares/lvgl/src/widgets/lv_roller.c ****         draw_label(e);
 438:Middlewares/lvgl/src/widgets/lv_roller.c ****     }
 439:Middlewares/lvgl/src/widgets/lv_roller.c **** }
 440:Middlewares/lvgl/src/widgets/lv_roller.c **** 
 441:Middlewares/lvgl/src/widgets/lv_roller.c **** 
 442:Middlewares/lvgl/src/widgets/lv_roller.c **** static void draw_main(lv_event_t * e)
 443:Middlewares/lvgl/src/widgets/lv_roller.c **** {
 444:Middlewares/lvgl/src/widgets/lv_roller.c ****     lv_event_code_t code = lv_event_get_code(e);
 445:Middlewares/lvgl/src/widgets/lv_roller.c ****     lv_obj_t * obj = lv_event_get_target(e);
 446:Middlewares/lvgl/src/widgets/lv_roller.c ****     if(code == LV_EVENT_DRAW_MAIN) {
 447:Middlewares/lvgl/src/widgets/lv_roller.c ****         /*Draw the selected rectangle*/
 448:Middlewares/lvgl/src/widgets/lv_roller.c ****         const lv_area_t * clip_area = lv_event_get_param(e);
 449:Middlewares/lvgl/src/widgets/lv_roller.c ****         const lv_font_t * font = lv_obj_get_style_text_font(obj, LV_PART_MAIN);
 450:Middlewares/lvgl/src/widgets/lv_roller.c ****         lv_coord_t line_space = lv_obj_get_style_text_line_space(obj, LV_PART_MAIN);
 451:Middlewares/lvgl/src/widgets/lv_roller.c ****         lv_coord_t font_h        = lv_font_get_line_height(font);
 452:Middlewares/lvgl/src/widgets/lv_roller.c ****         lv_area_t rect_area;
 453:Middlewares/lvgl/src/widgets/lv_roller.c ****         rect_area.y1 = obj->coords.y1 + (lv_obj_get_height(obj) - font_h - line_space) / 2;
 454:Middlewares/lvgl/src/widgets/lv_roller.c ****         rect_area.y2 = rect_area.y1 + font_h + line_space - 1;
 455:Middlewares/lvgl/src/widgets/lv_roller.c ****         lv_area_t roller_coords;
 456:Middlewares/lvgl/src/widgets/lv_roller.c ****         lv_obj_get_coords(obj, &roller_coords);
 457:Middlewares/lvgl/src/widgets/lv_roller.c **** 
 458:Middlewares/lvgl/src/widgets/lv_roller.c ****         rect_area.x1 = roller_coords.x1;
 459:Middlewares/lvgl/src/widgets/lv_roller.c ****         rect_area.x2 = roller_coords.x2;
 460:Middlewares/lvgl/src/widgets/lv_roller.c **** 
 461:Middlewares/lvgl/src/widgets/lv_roller.c ****         lv_draw_rect_dsc_t sel_dsc;
 462:Middlewares/lvgl/src/widgets/lv_roller.c ****         lv_draw_rect_dsc_init(&sel_dsc);
 463:Middlewares/lvgl/src/widgets/lv_roller.c ****         lv_obj_init_draw_rect_dsc(obj, LV_PART_SELECTED, &sel_dsc);
 464:Middlewares/lvgl/src/widgets/lv_roller.c ****         lv_draw_rect(&rect_area, clip_area, &sel_dsc);
 465:Middlewares/lvgl/src/widgets/lv_roller.c ****     }
 466:Middlewares/lvgl/src/widgets/lv_roller.c ****     /*Post draw when the children are drawn*/
 467:Middlewares/lvgl/src/widgets/lv_roller.c ****     else if(code == LV_EVENT_DRAW_POST) {
 468:Middlewares/lvgl/src/widgets/lv_roller.c ****         const lv_area_t * clip_area = lv_event_get_param(e);
 469:Middlewares/lvgl/src/widgets/lv_roller.c **** 
 470:Middlewares/lvgl/src/widgets/lv_roller.c ****         lv_draw_label_dsc_t label_dsc;
 471:Middlewares/lvgl/src/widgets/lv_roller.c ****         lv_draw_label_dsc_init(&label_dsc);
 472:Middlewares/lvgl/src/widgets/lv_roller.c ****         lv_obj_init_draw_label_dsc(obj, LV_PART_SELECTED, &label_dsc);
 473:Middlewares/lvgl/src/widgets/lv_roller.c **** 
 474:Middlewares/lvgl/src/widgets/lv_roller.c ****         lv_coord_t bg_font_h = lv_font_get_line_height(lv_obj_get_style_text_font(obj, LV_PART_MAIN
 475:Middlewares/lvgl/src/widgets/lv_roller.c **** 
 476:Middlewares/lvgl/src/widgets/lv_roller.c ****         /*Redraw the text on the selected area*/
 477:Middlewares/lvgl/src/widgets/lv_roller.c ****         lv_area_t rect_area;
 478:Middlewares/lvgl/src/widgets/lv_roller.c ****         rect_area.y1 = obj->coords.y1 + (lv_obj_get_height(obj) - bg_font_h - label_dsc.line_space)
 479:Middlewares/lvgl/src/widgets/lv_roller.c ****         rect_area.y2 = rect_area.y1 + bg_font_h + label_dsc.line_space - 1;
 480:Middlewares/lvgl/src/widgets/lv_roller.c ****         rect_area.x1 = obj->coords.x1;
 481:Middlewares/lvgl/src/widgets/lv_roller.c ****         rect_area.x2 = obj->coords.x2;
 482:Middlewares/lvgl/src/widgets/lv_roller.c ****         lv_area_t mask_sel;
 483:Middlewares/lvgl/src/widgets/lv_roller.c ****         bool area_ok;
 484:Middlewares/lvgl/src/widgets/lv_roller.c ****         area_ok = _lv_area_intersect(&mask_sel, clip_area, &rect_area);
 485:Middlewares/lvgl/src/widgets/lv_roller.c ****         if(area_ok) {
 486:Middlewares/lvgl/src/widgets/lv_roller.c ****             lv_obj_t * label = get_label(obj);
ARM GAS  /tmp/cc9MIr9f.s 			page 10


 487:Middlewares/lvgl/src/widgets/lv_roller.c **** 
 488:Middlewares/lvgl/src/widgets/lv_roller.c ****             /*Get the size of the "selected text"*/
 489:Middlewares/lvgl/src/widgets/lv_roller.c ****             lv_point_t res_p;
 490:Middlewares/lvgl/src/widgets/lv_roller.c ****             lv_txt_get_size(&res_p, lv_label_get_text(label), label_dsc.font, label_dsc.letter_spac
 491:Middlewares/lvgl/src/widgets/lv_roller.c ****                              lv_obj_get_width(obj), LV_TEXT_FLAG_EXPAND);
 492:Middlewares/lvgl/src/widgets/lv_roller.c **** 
 493:Middlewares/lvgl/src/widgets/lv_roller.c ****             /*Move the selected label proportionally with the background label*/
 494:Middlewares/lvgl/src/widgets/lv_roller.c ****             lv_coord_t roller_h = lv_obj_get_height(obj);
 495:Middlewares/lvgl/src/widgets/lv_roller.c ****             int32_t label_y_prop = label->coords.y1 - (roller_h / 2 +
 496:Middlewares/lvgl/src/widgets/lv_roller.c ****                     obj->coords.y1); /*label offset from the middle line of the roller*/
 497:Middlewares/lvgl/src/widgets/lv_roller.c ****             label_y_prop = (label_y_prop * 16384) / lv_obj_get_height(
 498:Middlewares/lvgl/src/widgets/lv_roller.c ****                                label); /*Proportional position from the middle line (upscaled by <<
 499:Middlewares/lvgl/src/widgets/lv_roller.c **** 
 500:Middlewares/lvgl/src/widgets/lv_roller.c ****             /*Apply a correction with different line heights*/
 501:Middlewares/lvgl/src/widgets/lv_roller.c ****             const lv_font_t * normal_label_font = lv_obj_get_style_text_font(obj, LV_PART_MAIN);
 502:Middlewares/lvgl/src/widgets/lv_roller.c ****             lv_coord_t corr = (label_dsc.font->line_height - normal_label_font->line_height) / 2;
 503:Middlewares/lvgl/src/widgets/lv_roller.c **** 
 504:Middlewares/lvgl/src/widgets/lv_roller.c ****             /*Apply the proportional position to the selected text*/
 505:Middlewares/lvgl/src/widgets/lv_roller.c ****             res_p.y -= corr;
 506:Middlewares/lvgl/src/widgets/lv_roller.c ****             int32_t label_sel_y = roller_h / 2 + obj->coords.y1;
 507:Middlewares/lvgl/src/widgets/lv_roller.c ****             label_sel_y += (label_y_prop * res_p.y) >> 14;
 508:Middlewares/lvgl/src/widgets/lv_roller.c ****             label_sel_y -= corr;
 509:Middlewares/lvgl/src/widgets/lv_roller.c **** 
 510:Middlewares/lvgl/src/widgets/lv_roller.c ****             /*Draw the selected text*/
 511:Middlewares/lvgl/src/widgets/lv_roller.c ****             lv_area_t label_sel_area;
 512:Middlewares/lvgl/src/widgets/lv_roller.c ****             label_sel_area.x1 = label->coords.x1;
 513:Middlewares/lvgl/src/widgets/lv_roller.c ****             label_sel_area.y1 = label_sel_y;
 514:Middlewares/lvgl/src/widgets/lv_roller.c ****             label_sel_area.x2 = label->coords.x2;
 515:Middlewares/lvgl/src/widgets/lv_roller.c ****             label_sel_area.y2 = label_sel_area.y1 + res_p.y;
 516:Middlewares/lvgl/src/widgets/lv_roller.c **** 
 517:Middlewares/lvgl/src/widgets/lv_roller.c ****             label_dsc.flag |= LV_TEXT_FLAG_EXPAND;
 518:Middlewares/lvgl/src/widgets/lv_roller.c ****             lv_draw_label(&label_sel_area, &mask_sel, &label_dsc, lv_label_get_text(label), NULL);
 519:Middlewares/lvgl/src/widgets/lv_roller.c ****         }
 520:Middlewares/lvgl/src/widgets/lv_roller.c ****     }
 521:Middlewares/lvgl/src/widgets/lv_roller.c **** }
 522:Middlewares/lvgl/src/widgets/lv_roller.c **** 
 523:Middlewares/lvgl/src/widgets/lv_roller.c **** static void draw_label(lv_event_t * e)
 524:Middlewares/lvgl/src/widgets/lv_roller.c **** {
 525:Middlewares/lvgl/src/widgets/lv_roller.c ****     /* Split the drawing of the label into  an upper (above the selected area)
 526:Middlewares/lvgl/src/widgets/lv_roller.c ****      * and a lower (below the selected area)*/
 527:Middlewares/lvgl/src/widgets/lv_roller.c ****     lv_obj_t * label_obj = lv_event_get_target(e);
 528:Middlewares/lvgl/src/widgets/lv_roller.c ****     lv_obj_t * roller = lv_obj_get_parent(label_obj);
 529:Middlewares/lvgl/src/widgets/lv_roller.c ****     lv_draw_label_dsc_t label_draw_dsc;
 530:Middlewares/lvgl/src/widgets/lv_roller.c ****     lv_draw_label_dsc_init(&label_draw_dsc);
 531:Middlewares/lvgl/src/widgets/lv_roller.c ****     lv_obj_init_draw_label_dsc(roller, LV_PART_MAIN, &label_draw_dsc);
 532:Middlewares/lvgl/src/widgets/lv_roller.c ****     const lv_font_t * font = label_draw_dsc.font;
 533:Middlewares/lvgl/src/widgets/lv_roller.c ****     lv_coord_t line_space = label_draw_dsc.line_space;
 534:Middlewares/lvgl/src/widgets/lv_roller.c ****     lv_coord_t font_h        = lv_font_get_line_height(font);
 535:Middlewares/lvgl/src/widgets/lv_roller.c ****     const lv_area_t * clip_area = lv_event_get_param(e);
 536:Middlewares/lvgl/src/widgets/lv_roller.c **** 
 537:Middlewares/lvgl/src/widgets/lv_roller.c ****     lv_area_t rect_area;
 538:Middlewares/lvgl/src/widgets/lv_roller.c ****     rect_area.y1 = roller->coords.y1 + (lv_obj_get_height(roller) - font_h - line_space) / 2;
 539:Middlewares/lvgl/src/widgets/lv_roller.c ****     if((font_h & 0x1) && (line_space & 0x1)) rect_area.y1--; /*Compensate the two rounding error*/
 540:Middlewares/lvgl/src/widgets/lv_roller.c ****     rect_area.y2 = rect_area.y1 + font_h + line_space - 1;
 541:Middlewares/lvgl/src/widgets/lv_roller.c ****     lv_area_t roller_coords;
 542:Middlewares/lvgl/src/widgets/lv_roller.c ****     lv_obj_get_coords(roller, &roller_coords);
 543:Middlewares/lvgl/src/widgets/lv_roller.c **** 
ARM GAS  /tmp/cc9MIr9f.s 			page 11


 544:Middlewares/lvgl/src/widgets/lv_roller.c ****     rect_area.x1 = roller_coords.x1;
 545:Middlewares/lvgl/src/widgets/lv_roller.c ****     rect_area.x2 = roller_coords.x2;
 546:Middlewares/lvgl/src/widgets/lv_roller.c **** 
 547:Middlewares/lvgl/src/widgets/lv_roller.c ****     lv_area_t clip2;
 548:Middlewares/lvgl/src/widgets/lv_roller.c ****     clip2.x1 = label_obj->coords.x1;
 549:Middlewares/lvgl/src/widgets/lv_roller.c ****     clip2.y1 = label_obj->coords.y1;
 550:Middlewares/lvgl/src/widgets/lv_roller.c ****     clip2.x2 = label_obj->coords.x2;
 551:Middlewares/lvgl/src/widgets/lv_roller.c ****     clip2.y2 = rect_area.y1;
 552:Middlewares/lvgl/src/widgets/lv_roller.c ****     if(_lv_area_intersect(&clip2, clip_area, &clip2)) {
 553:Middlewares/lvgl/src/widgets/lv_roller.c ****         lv_draw_label(&label_obj->coords, &clip2, &label_draw_dsc, lv_label_get_text(label_obj), NU
 554:Middlewares/lvgl/src/widgets/lv_roller.c ****     }
 555:Middlewares/lvgl/src/widgets/lv_roller.c **** 
 556:Middlewares/lvgl/src/widgets/lv_roller.c ****     clip2.x1 = label_obj->coords.x1;
 557:Middlewares/lvgl/src/widgets/lv_roller.c ****     clip2.y1 = rect_area.y2;
 558:Middlewares/lvgl/src/widgets/lv_roller.c ****     clip2.x2 = label_obj->coords.x2;
 559:Middlewares/lvgl/src/widgets/lv_roller.c ****     clip2.y2 = label_obj->coords.y2;
 560:Middlewares/lvgl/src/widgets/lv_roller.c ****     if(_lv_area_intersect(&clip2, clip_area, &clip2)) {
 561:Middlewares/lvgl/src/widgets/lv_roller.c ****         lv_draw_label(&label_obj->coords, &clip2, &label_draw_dsc, lv_label_get_text(label_obj), NU
 562:Middlewares/lvgl/src/widgets/lv_roller.c ****     }
 563:Middlewares/lvgl/src/widgets/lv_roller.c **** }
 564:Middlewares/lvgl/src/widgets/lv_roller.c **** 
 565:Middlewares/lvgl/src/widgets/lv_roller.c **** 
 566:Middlewares/lvgl/src/widgets/lv_roller.c **** /**
 567:Middlewares/lvgl/src/widgets/lv_roller.c ****  * Refresh the position of the roller. It uses the id stored in: roller->ddlist.selected_option_id
 568:Middlewares/lvgl/src/widgets/lv_roller.c ****  * @param roller pointer to a roller object
 569:Middlewares/lvgl/src/widgets/lv_roller.c ****  * @param anim_en LV_ANIM_ON: refresh with animation; LV_ANOM_OFF: without animation
 570:Middlewares/lvgl/src/widgets/lv_roller.c ****  */
 571:Middlewares/lvgl/src/widgets/lv_roller.c **** static void refr_position(lv_obj_t * obj, lv_anim_enable_t anim_en)
 572:Middlewares/lvgl/src/widgets/lv_roller.c **** {
 573:Middlewares/lvgl/src/widgets/lv_roller.c ****     lv_obj_t * label = get_label(obj);
 574:Middlewares/lvgl/src/widgets/lv_roller.c ****     if(label == NULL) return;
 575:Middlewares/lvgl/src/widgets/lv_roller.c **** 
 576:Middlewares/lvgl/src/widgets/lv_roller.c ****     lv_text_align_t align = lv_obj_get_style_text_align(label, LV_PART_MAIN);
 577:Middlewares/lvgl/src/widgets/lv_roller.c ****     if(align == LV_TEXT_ALIGN_AUTO) {
 578:Middlewares/lvgl/src/widgets/lv_roller.c ****         if(lv_obj_get_style_base_dir(obj, LV_PART_MAIN) == LV_BASE_DIR_RTL) align = LV_TEXT_ALIGN_R
 579:Middlewares/lvgl/src/widgets/lv_roller.c ****         else align = LV_TEXT_ALIGN_LEFT;
 580:Middlewares/lvgl/src/widgets/lv_roller.c ****     }
 581:Middlewares/lvgl/src/widgets/lv_roller.c **** 
 582:Middlewares/lvgl/src/widgets/lv_roller.c ****     switch(align) {
 583:Middlewares/lvgl/src/widgets/lv_roller.c ****     case LV_TEXT_ALIGN_CENTER:
 584:Middlewares/lvgl/src/widgets/lv_roller.c ****         lv_obj_set_x(label, (lv_obj_get_content_width(obj) - lv_obj_get_width(label)) / 2);
 585:Middlewares/lvgl/src/widgets/lv_roller.c ****         break;
 586:Middlewares/lvgl/src/widgets/lv_roller.c ****     case LV_TEXT_ALIGN_RIGHT:
 587:Middlewares/lvgl/src/widgets/lv_roller.c ****         lv_obj_set_x(label, lv_obj_get_content_width(obj) - lv_obj_get_width(label));
 588:Middlewares/lvgl/src/widgets/lv_roller.c ****         break;
 589:Middlewares/lvgl/src/widgets/lv_roller.c ****     case LV_TEXT_ALIGN_LEFT:
 590:Middlewares/lvgl/src/widgets/lv_roller.c ****         lv_obj_set_x(label, 0);
 591:Middlewares/lvgl/src/widgets/lv_roller.c ****         break;
 592:Middlewares/lvgl/src/widgets/lv_roller.c ****     }
 593:Middlewares/lvgl/src/widgets/lv_roller.c **** 
 594:Middlewares/lvgl/src/widgets/lv_roller.c ****     lv_roller_t * roller = (lv_roller_t*)obj;
 595:Middlewares/lvgl/src/widgets/lv_roller.c ****     const lv_font_t * font = lv_obj_get_style_text_font(obj, LV_PART_MAIN);
 596:Middlewares/lvgl/src/widgets/lv_roller.c ****     lv_coord_t line_space = lv_obj_get_style_text_line_space(obj, LV_PART_MAIN);
 597:Middlewares/lvgl/src/widgets/lv_roller.c ****     lv_coord_t font_h              = lv_font_get_line_height(font);
 598:Middlewares/lvgl/src/widgets/lv_roller.c ****     lv_coord_t h                   = lv_obj_get_content_height(obj);
 599:Middlewares/lvgl/src/widgets/lv_roller.c ****     uint16_t anim_time             = lv_obj_get_style_anim_time(obj, LV_PART_MAIN);
 600:Middlewares/lvgl/src/widgets/lv_roller.c **** 
ARM GAS  /tmp/cc9MIr9f.s 			page 12


 601:Middlewares/lvgl/src/widgets/lv_roller.c ****     /*Normally the animation's `end_cb` sets correct position of the roller if infinite.
 602:Middlewares/lvgl/src/widgets/lv_roller.c ****      *But without animations do it manually*/
 603:Middlewares/lvgl/src/widgets/lv_roller.c ****     if(anim_en == LV_ANIM_OFF || anim_time == 0) {
 604:Middlewares/lvgl/src/widgets/lv_roller.c ****         inf_normalize(obj);
 605:Middlewares/lvgl/src/widgets/lv_roller.c ****     }
 606:Middlewares/lvgl/src/widgets/lv_roller.c **** 
 607:Middlewares/lvgl/src/widgets/lv_roller.c ****     int32_t id = roller->sel_opt_id;
 608:Middlewares/lvgl/src/widgets/lv_roller.c ****     lv_coord_t sel_y1 = id * (font_h + line_space);
 609:Middlewares/lvgl/src/widgets/lv_roller.c ****     lv_coord_t mid_y1 = h / 2 - font_h / 2;
 610:Middlewares/lvgl/src/widgets/lv_roller.c **** 
 611:Middlewares/lvgl/src/widgets/lv_roller.c ****     lv_coord_t new_y = mid_y1 - sel_y1;
 612:Middlewares/lvgl/src/widgets/lv_roller.c **** 
 613:Middlewares/lvgl/src/widgets/lv_roller.c ****     if(anim_en == LV_ANIM_OFF || anim_time == 0) {
 614:Middlewares/lvgl/src/widgets/lv_roller.c ****         lv_anim_del(label, set_y_anim);
 615:Middlewares/lvgl/src/widgets/lv_roller.c ****         lv_obj_set_y(label, new_y);
 616:Middlewares/lvgl/src/widgets/lv_roller.c ****     }
 617:Middlewares/lvgl/src/widgets/lv_roller.c ****     else {
 618:Middlewares/lvgl/src/widgets/lv_roller.c ****         lv_anim_t a;
 619:Middlewares/lvgl/src/widgets/lv_roller.c ****         lv_anim_init(&a);
 620:Middlewares/lvgl/src/widgets/lv_roller.c ****         lv_anim_set_var(&a, label);
 621:Middlewares/lvgl/src/widgets/lv_roller.c ****         lv_anim_set_exec_cb(&a, set_y_anim);
 622:Middlewares/lvgl/src/widgets/lv_roller.c ****         lv_anim_set_values(&a, lv_obj_get_y(label), new_y);
 623:Middlewares/lvgl/src/widgets/lv_roller.c ****         lv_anim_set_time(&a, anim_time);
 624:Middlewares/lvgl/src/widgets/lv_roller.c ****         lv_anim_set_ready_cb(&a, scroll_anim_ready_cb);
 625:Middlewares/lvgl/src/widgets/lv_roller.c ****         lv_anim_set_path_cb(&a, lv_anim_path_ease_out);
 626:Middlewares/lvgl/src/widgets/lv_roller.c ****         lv_anim_start(&a);
 627:Middlewares/lvgl/src/widgets/lv_roller.c ****     }
 628:Middlewares/lvgl/src/widgets/lv_roller.c **** }
 629:Middlewares/lvgl/src/widgets/lv_roller.c **** 
 630:Middlewares/lvgl/src/widgets/lv_roller.c **** static lv_res_t release_handler(lv_obj_t * obj)
 631:Middlewares/lvgl/src/widgets/lv_roller.c **** {
 632:Middlewares/lvgl/src/widgets/lv_roller.c ****     lv_obj_t * label = get_label(obj);
 633:Middlewares/lvgl/src/widgets/lv_roller.c ****     if(label == NULL) return LV_RES_OK;
 634:Middlewares/lvgl/src/widgets/lv_roller.c **** 
 635:Middlewares/lvgl/src/widgets/lv_roller.c ****     lv_indev_t * indev = lv_indev_get_act();
 636:Middlewares/lvgl/src/widgets/lv_roller.c ****     lv_roller_t * roller = (lv_roller_t*)obj;
 637:Middlewares/lvgl/src/widgets/lv_roller.c **** 
 638:Middlewares/lvgl/src/widgets/lv_roller.c ****     /*Leave edit mode once a new option is selected*/
 639:Middlewares/lvgl/src/widgets/lv_roller.c ****     lv_indev_type_t indev_type = lv_indev_get_type(indev);
 640:Middlewares/lvgl/src/widgets/lv_roller.c ****     if(indev_type == LV_INDEV_TYPE_ENCODER || indev_type == LV_INDEV_TYPE_KEYPAD) {
 641:Middlewares/lvgl/src/widgets/lv_roller.c ****         roller->sel_opt_id_ori = roller->sel_opt_id;
 642:Middlewares/lvgl/src/widgets/lv_roller.c **** 
 643:Middlewares/lvgl/src/widgets/lv_roller.c ****         if(indev_type == LV_INDEV_TYPE_ENCODER) {
 644:Middlewares/lvgl/src/widgets/lv_roller.c ****             lv_group_t * g      = lv_obj_get_group(obj);
 645:Middlewares/lvgl/src/widgets/lv_roller.c ****             if(lv_group_get_editing(g)) {
 646:Middlewares/lvgl/src/widgets/lv_roller.c ****                 lv_group_set_editing(g, false);
 647:Middlewares/lvgl/src/widgets/lv_roller.c ****             }
 648:Middlewares/lvgl/src/widgets/lv_roller.c ****         }
 649:Middlewares/lvgl/src/widgets/lv_roller.c ****     }
 650:Middlewares/lvgl/src/widgets/lv_roller.c **** 
 651:Middlewares/lvgl/src/widgets/lv_roller.c ****     if(lv_indev_get_type(indev) == LV_INDEV_TYPE_POINTER || lv_indev_get_type(indev) == LV_INDEV_TY
 652:Middlewares/lvgl/src/widgets/lv_roller.c ****         /*Search the clicked option (For KEYPAD and ENCODER the new value should be already set)*/
 653:Middlewares/lvgl/src/widgets/lv_roller.c ****         int16_t new_opt  = -1;
 654:Middlewares/lvgl/src/widgets/lv_roller.c ****         if(roller->moved == 0) {
 655:Middlewares/lvgl/src/widgets/lv_roller.c ****             new_opt = 0;
 656:Middlewares/lvgl/src/widgets/lv_roller.c ****             lv_point_t p;
 657:Middlewares/lvgl/src/widgets/lv_roller.c ****             lv_indev_get_point(indev, &p);
ARM GAS  /tmp/cc9MIr9f.s 			page 13


 658:Middlewares/lvgl/src/widgets/lv_roller.c ****             p.y -= label->coords.y1;
 659:Middlewares/lvgl/src/widgets/lv_roller.c ****             p.x -= label->coords.x1;
 660:Middlewares/lvgl/src/widgets/lv_roller.c ****             uint32_t letter_i;
 661:Middlewares/lvgl/src/widgets/lv_roller.c ****             letter_i = lv_label_get_letter_on(label, &p);
 662:Middlewares/lvgl/src/widgets/lv_roller.c **** 
 663:Middlewares/lvgl/src/widgets/lv_roller.c ****             const char * txt  = lv_label_get_text(label);
 664:Middlewares/lvgl/src/widgets/lv_roller.c ****             uint32_t i        = 0;
 665:Middlewares/lvgl/src/widgets/lv_roller.c ****             uint32_t i_prev   = 0;
 666:Middlewares/lvgl/src/widgets/lv_roller.c **** 
 667:Middlewares/lvgl/src/widgets/lv_roller.c ****             uint32_t letter_cnt = 0;
 668:Middlewares/lvgl/src/widgets/lv_roller.c ****             for(letter_cnt = 0; letter_cnt < letter_i; letter_cnt++) {
 669:Middlewares/lvgl/src/widgets/lv_roller.c ****                 uint32_t letter = _lv_txt_encoded_next(txt, &i);
 670:Middlewares/lvgl/src/widgets/lv_roller.c ****                 /*Count he lines to reach the clicked letter. But ignore the last '\n' because it
 671:Middlewares/lvgl/src/widgets/lv_roller.c ****                  * still belongs to the clicked line*/
 672:Middlewares/lvgl/src/widgets/lv_roller.c ****                 if(letter == '\n' && i_prev != letter_i) new_opt++;
 673:Middlewares/lvgl/src/widgets/lv_roller.c ****                 i_prev = i;
 674:Middlewares/lvgl/src/widgets/lv_roller.c ****             }
 675:Middlewares/lvgl/src/widgets/lv_roller.c ****         } else {
 676:Middlewares/lvgl/src/widgets/lv_roller.c ****             /*If dragged then align the list to have an element in the middle*/
 677:Middlewares/lvgl/src/widgets/lv_roller.c ****             const lv_font_t * font = lv_obj_get_style_text_font(obj, LV_PART_MAIN);
 678:Middlewares/lvgl/src/widgets/lv_roller.c ****             lv_coord_t line_space = lv_obj_get_style_text_line_space(obj, LV_PART_MAIN);
 679:Middlewares/lvgl/src/widgets/lv_roller.c ****             lv_coord_t font_h              = lv_font_get_line_height(font);
 680:Middlewares/lvgl/src/widgets/lv_roller.c **** 
 681:Middlewares/lvgl/src/widgets/lv_roller.c ****             lv_coord_t label_unit = font_h + line_space;
 682:Middlewares/lvgl/src/widgets/lv_roller.c ****             lv_coord_t mid        = obj->coords.y1 + (obj->coords.y2 - obj->coords.y1) / 2;
 683:Middlewares/lvgl/src/widgets/lv_roller.c ****             lv_coord_t label_y1 = label->coords.y1 + lv_indev_scroll_throw_predict(indev, LV_DIR_VE
 684:Middlewares/lvgl/src/widgets/lv_roller.c ****             int32_t id = (mid - label_y1) / label_unit;
 685:Middlewares/lvgl/src/widgets/lv_roller.c **** 
 686:Middlewares/lvgl/src/widgets/lv_roller.c ****             if(id < 0) id = 0;
 687:Middlewares/lvgl/src/widgets/lv_roller.c ****             if(id >= roller->option_cnt) id = roller->option_cnt - 1;
 688:Middlewares/lvgl/src/widgets/lv_roller.c **** 
 689:Middlewares/lvgl/src/widgets/lv_roller.c ****             new_opt = id;
 690:Middlewares/lvgl/src/widgets/lv_roller.c ****         }
 691:Middlewares/lvgl/src/widgets/lv_roller.c **** 
 692:Middlewares/lvgl/src/widgets/lv_roller.c ****         if(new_opt >= 0) {
 693:Middlewares/lvgl/src/widgets/lv_roller.c ****             lv_roller_set_selected(obj, new_opt, LV_ANIM_ON);
 694:Middlewares/lvgl/src/widgets/lv_roller.c ****         }
 695:Middlewares/lvgl/src/widgets/lv_roller.c ****     }
 696:Middlewares/lvgl/src/widgets/lv_roller.c **** 
 697:Middlewares/lvgl/src/widgets/lv_roller.c ****     uint32_t id  = roller->sel_opt_id; /*Just to use uint32_t in event data*/
 698:Middlewares/lvgl/src/widgets/lv_roller.c ****     lv_res_t res = lv_event_send(obj, LV_EVENT_VALUE_CHANGED, &id);
 699:Middlewares/lvgl/src/widgets/lv_roller.c ****     return res;
 700:Middlewares/lvgl/src/widgets/lv_roller.c **** }
 701:Middlewares/lvgl/src/widgets/lv_roller.c **** 
 702:Middlewares/lvgl/src/widgets/lv_roller.c **** /**
 703:Middlewares/lvgl/src/widgets/lv_roller.c ****  * Set the middle page for the roller if infinite is enabled
 704:Middlewares/lvgl/src/widgets/lv_roller.c ****  * @param roller pointer to a roller object
 705:Middlewares/lvgl/src/widgets/lv_roller.c ****  */
 706:Middlewares/lvgl/src/widgets/lv_roller.c **** static void inf_normalize(lv_obj_t * obj)
 707:Middlewares/lvgl/src/widgets/lv_roller.c **** {
 708:Middlewares/lvgl/src/widgets/lv_roller.c ****     lv_roller_t * roller = (lv_roller_t*)obj;
 709:Middlewares/lvgl/src/widgets/lv_roller.c **** 
 710:Middlewares/lvgl/src/widgets/lv_roller.c ****     if(roller->mode == LV_ROLLER_MODE_INFINITE) {
 711:Middlewares/lvgl/src/widgets/lv_roller.c ****         uint16_t real_id_cnt = roller->option_cnt / LV_ROLLER_INF_PAGES;
 712:Middlewares/lvgl/src/widgets/lv_roller.c ****         roller->sel_opt_id = roller->sel_opt_id % real_id_cnt;
 713:Middlewares/lvgl/src/widgets/lv_roller.c ****         roller->sel_opt_id += (LV_ROLLER_INF_PAGES / 2) * real_id_cnt; /*Select the middle page*/
 714:Middlewares/lvgl/src/widgets/lv_roller.c **** 
ARM GAS  /tmp/cc9MIr9f.s 			page 14


 715:Middlewares/lvgl/src/widgets/lv_roller.c ****         roller->sel_opt_id_ori = roller->sel_opt_id % real_id_cnt;
 716:Middlewares/lvgl/src/widgets/lv_roller.c ****         roller->sel_opt_id_ori += (LV_ROLLER_INF_PAGES / 2) * real_id_cnt; /*Select the middle page
 717:Middlewares/lvgl/src/widgets/lv_roller.c **** 
 718:Middlewares/lvgl/src/widgets/lv_roller.c ****         /*Move to the new id*/
 719:Middlewares/lvgl/src/widgets/lv_roller.c ****         const lv_font_t * font = lv_obj_get_style_text_font(obj, LV_PART_MAIN);
 720:Middlewares/lvgl/src/widgets/lv_roller.c ****         lv_coord_t line_space = lv_obj_get_style_text_line_space(obj, LV_PART_MAIN);
 721:Middlewares/lvgl/src/widgets/lv_roller.c ****         lv_coord_t font_h              = lv_font_get_line_height(font);
 722:Middlewares/lvgl/src/widgets/lv_roller.c ****         lv_coord_t h                   = lv_obj_get_content_height(obj);
 723:Middlewares/lvgl/src/widgets/lv_roller.c **** 
 724:Middlewares/lvgl/src/widgets/lv_roller.c ****         lv_obj_t * label = get_label(obj);
 725:Middlewares/lvgl/src/widgets/lv_roller.c **** 
 726:Middlewares/lvgl/src/widgets/lv_roller.c **** 
 727:Middlewares/lvgl/src/widgets/lv_roller.c ****         lv_coord_t sel_y1 = roller->sel_opt_id * (font_h + line_space);
 728:Middlewares/lvgl/src/widgets/lv_roller.c ****         lv_coord_t mid_y1 = h / 2 - font_h / 2;
 729:Middlewares/lvgl/src/widgets/lv_roller.c ****         lv_coord_t new_y = mid_y1 - sel_y1;
 730:Middlewares/lvgl/src/widgets/lv_roller.c ****         lv_obj_set_y(label, new_y);
 731:Middlewares/lvgl/src/widgets/lv_roller.c ****     }
 732:Middlewares/lvgl/src/widgets/lv_roller.c **** }
 733:Middlewares/lvgl/src/widgets/lv_roller.c **** 
 734:Middlewares/lvgl/src/widgets/lv_roller.c **** static lv_obj_t * get_label(const lv_obj_t * obj)
 735:Middlewares/lvgl/src/widgets/lv_roller.c **** {
 736:Middlewares/lvgl/src/widgets/lv_roller.c ****     return lv_obj_get_child(obj, 0);
 737:Middlewares/lvgl/src/widgets/lv_roller.c **** }
 738:Middlewares/lvgl/src/widgets/lv_roller.c **** 
 739:Middlewares/lvgl/src/widgets/lv_roller.c **** 
 740:Middlewares/lvgl/src/widgets/lv_roller.c **** static lv_coord_t get_selected_label_width(const lv_obj_t * obj)
 741:Middlewares/lvgl/src/widgets/lv_roller.c **** {
 742:Middlewares/lvgl/src/widgets/lv_roller.c ****     lv_obj_t * label = get_label(obj);
 743:Middlewares/lvgl/src/widgets/lv_roller.c ****     if(label == NULL) return 0;
 744:Middlewares/lvgl/src/widgets/lv_roller.c **** 
 745:Middlewares/lvgl/src/widgets/lv_roller.c ****     const lv_font_t * font = lv_obj_get_style_text_font(obj, LV_PART_SELECTED);
 746:Middlewares/lvgl/src/widgets/lv_roller.c ****     lv_coord_t letter_space = lv_obj_get_style_text_letter_space(obj, LV_PART_SELECTED);
 747:Middlewares/lvgl/src/widgets/lv_roller.c ****     const char * txt = lv_label_get_text(label);
 748:Middlewares/lvgl/src/widgets/lv_roller.c ****     lv_point_t size;
 749:Middlewares/lvgl/src/widgets/lv_roller.c ****     lv_txt_get_size(&size, txt, font, letter_space, 0, LV_COORD_MAX,  LV_TEXT_FLAG_NONE);
 750:Middlewares/lvgl/src/widgets/lv_roller.c ****     return size.x;
 751:Middlewares/lvgl/src/widgets/lv_roller.c **** }
 752:Middlewares/lvgl/src/widgets/lv_roller.c **** 
 753:Middlewares/lvgl/src/widgets/lv_roller.c **** static void scroll_anim_ready_cb(lv_anim_t * a)
 754:Middlewares/lvgl/src/widgets/lv_roller.c **** {
 755:Middlewares/lvgl/src/widgets/lv_roller.c ****     lv_obj_t * obj = lv_obj_get_parent(a->var); /*The label is animated*/
 756:Middlewares/lvgl/src/widgets/lv_roller.c ****     inf_normalize(obj);
 757:Middlewares/lvgl/src/widgets/lv_roller.c **** }
 758:Middlewares/lvgl/src/widgets/lv_roller.c **** 
 759:Middlewares/lvgl/src/widgets/lv_roller.c **** 
 760:Middlewares/lvgl/src/widgets/lv_roller.c **** static void set_y_anim(void * obj, int32_t v)
 761:Middlewares/lvgl/src/widgets/lv_roller.c **** {
  29              		.loc 1 761 1 view -0
  30              		.cfi_startproc
  31              		@ args = 0, pretend = 0, frame = 0
  32              		@ frame_needed = 0, uses_anonymous_args = 0
  33              		.loc 1 761 1 is_stmt 0 view .LVU1
  34 0000 08B5     		push	{r3, lr}
  35              	.LCFI0:
  36              		.cfi_def_cfa_offset 8
  37              		.cfi_offset 3, -8
  38              		.cfi_offset 14, -4
ARM GAS  /tmp/cc9MIr9f.s 			page 15


 762:Middlewares/lvgl/src/widgets/lv_roller.c ****     lv_obj_set_y(obj, v);
  39              		.loc 1 762 5 is_stmt 1 view .LVU2
  40 0002 09B2     		sxth	r1, r1
  41              	.LVL1:
  42              		.loc 1 762 5 is_stmt 0 view .LVU3
  43 0004 FFF7FEFF 		bl	lv_obj_set_y
  44              	.LVL2:
 763:Middlewares/lvgl/src/widgets/lv_roller.c **** }
  45              		.loc 1 763 1 view .LVU4
  46 0008 08BD     		pop	{r3, pc}
  47              		.cfi_endproc
  48              	.LFE166:
  50              		.section	.text.get_label,"ax",%progbits
  51              		.align	1
  52              		.syntax unified
  53              		.thumb
  54              		.thumb_func
  55              		.fpu fpv4-sp-d16
  57              	get_label:
  58              	.LVL3:
  59              	.LFB163:
 735:Middlewares/lvgl/src/widgets/lv_roller.c ****     return lv_obj_get_child(obj, 0);
  60              		.loc 1 735 1 is_stmt 1 view -0
  61              		.cfi_startproc
  62              		@ args = 0, pretend = 0, frame = 0
  63              		@ frame_needed = 0, uses_anonymous_args = 0
 735:Middlewares/lvgl/src/widgets/lv_roller.c ****     return lv_obj_get_child(obj, 0);
  64              		.loc 1 735 1 is_stmt 0 view .LVU6
  65 0000 08B5     		push	{r3, lr}
  66              	.LCFI1:
  67              		.cfi_def_cfa_offset 8
  68              		.cfi_offset 3, -8
  69              		.cfi_offset 14, -4
 736:Middlewares/lvgl/src/widgets/lv_roller.c **** }
  70              		.loc 1 736 5 is_stmt 1 view .LVU7
 736:Middlewares/lvgl/src/widgets/lv_roller.c **** }
  71              		.loc 1 736 12 is_stmt 0 view .LVU8
  72 0002 0021     		movs	r1, #0
  73 0004 FFF7FEFF 		bl	lv_obj_get_child
  74              	.LVL4:
 737:Middlewares/lvgl/src/widgets/lv_roller.c **** 
  75              		.loc 1 737 1 view .LVU9
  76 0008 08BD     		pop	{r3, pc}
  77              		.cfi_endproc
  78              	.LFE163:
  80              		.section	.text.get_selected_label_width,"ax",%progbits
  81              		.align	1
  82              		.syntax unified
  83              		.thumb
  84              		.thumb_func
  85              		.fpu fpv4-sp-d16
  87              	get_selected_label_width:
  88              	.LVL5:
  89              	.LFB164:
 741:Middlewares/lvgl/src/widgets/lv_roller.c ****     lv_obj_t * label = get_label(obj);
  90              		.loc 1 741 1 is_stmt 1 view -0
  91              		.cfi_startproc
ARM GAS  /tmp/cc9MIr9f.s 			page 16


  92              		@ args = 0, pretend = 0, frame = 8
  93              		@ frame_needed = 0, uses_anonymous_args = 0
 741:Middlewares/lvgl/src/widgets/lv_roller.c ****     lv_obj_t * label = get_label(obj);
  94              		.loc 1 741 1 is_stmt 0 view .LVU11
  95 0000 70B5     		push	{r4, r5, r6, lr}
  96              	.LCFI2:
  97              		.cfi_def_cfa_offset 16
  98              		.cfi_offset 4, -16
  99              		.cfi_offset 5, -12
 100              		.cfi_offset 6, -8
 101              		.cfi_offset 14, -4
 102 0002 86B0     		sub	sp, sp, #24
 103              	.LCFI3:
 104              		.cfi_def_cfa_offset 40
 105 0004 0446     		mov	r4, r0
 742:Middlewares/lvgl/src/widgets/lv_roller.c ****     if(label == NULL) return 0;
 106              		.loc 1 742 5 is_stmt 1 view .LVU12
 742:Middlewares/lvgl/src/widgets/lv_roller.c ****     if(label == NULL) return 0;
 107              		.loc 1 742 24 is_stmt 0 view .LVU13
 108 0006 FFF7FEFF 		bl	get_label
 109              	.LVL6:
 743:Middlewares/lvgl/src/widgets/lv_roller.c **** 
 110              		.loc 1 743 5 is_stmt 1 view .LVU14
 743:Middlewares/lvgl/src/widgets/lv_roller.c **** 
 111              		.loc 1 743 7 is_stmt 0 view .LVU15
 112 000a 18B3     		cbz	r0, .L7
 113 000c 0646     		mov	r6, r0
 745:Middlewares/lvgl/src/widgets/lv_roller.c ****     lv_coord_t letter_space = lv_obj_get_style_text_letter_space(obj, LV_PART_SELECTED);
 114              		.loc 1 745 5 is_stmt 1 view .LVU16
 115              	.LVL7:
 116              	.LBB74:
 117              	.LBI74:
 118              		.file 2 "Middlewares/lvgl/src/widgets/../core/lv_obj_style_gen.h"
   1:Middlewares/lvgl/src/widgets/../core/lv_obj_style_gen.h **** static inline lv_coord_t lv_obj_get_style_width(const struct _lv_obj_t * obj, uint32_t part)
   2:Middlewares/lvgl/src/widgets/../core/lv_obj_style_gen.h **** {
   3:Middlewares/lvgl/src/widgets/../core/lv_obj_style_gen.h ****     lv_style_value_t v = lv_obj_get_style_prop(obj, part, LV_STYLE_WIDTH);
   4:Middlewares/lvgl/src/widgets/../core/lv_obj_style_gen.h ****     return (lv_coord_t)v.num;
   5:Middlewares/lvgl/src/widgets/../core/lv_obj_style_gen.h **** }
   6:Middlewares/lvgl/src/widgets/../core/lv_obj_style_gen.h **** 
   7:Middlewares/lvgl/src/widgets/../core/lv_obj_style_gen.h **** static inline lv_coord_t lv_obj_get_style_min_width(const struct _lv_obj_t * obj, uint32_t part)
   8:Middlewares/lvgl/src/widgets/../core/lv_obj_style_gen.h **** {
   9:Middlewares/lvgl/src/widgets/../core/lv_obj_style_gen.h ****     lv_style_value_t v = lv_obj_get_style_prop(obj, part, LV_STYLE_MIN_WIDTH);
  10:Middlewares/lvgl/src/widgets/../core/lv_obj_style_gen.h ****     return (lv_coord_t)v.num;
  11:Middlewares/lvgl/src/widgets/../core/lv_obj_style_gen.h **** }
  12:Middlewares/lvgl/src/widgets/../core/lv_obj_style_gen.h **** 
  13:Middlewares/lvgl/src/widgets/../core/lv_obj_style_gen.h **** static inline lv_coord_t lv_obj_get_style_max_width(const struct _lv_obj_t * obj, uint32_t part)
  14:Middlewares/lvgl/src/widgets/../core/lv_obj_style_gen.h **** {
  15:Middlewares/lvgl/src/widgets/../core/lv_obj_style_gen.h ****     lv_style_value_t v = lv_obj_get_style_prop(obj, part, LV_STYLE_MAX_WIDTH);
  16:Middlewares/lvgl/src/widgets/../core/lv_obj_style_gen.h ****     return (lv_coord_t)v.num;
  17:Middlewares/lvgl/src/widgets/../core/lv_obj_style_gen.h **** }
  18:Middlewares/lvgl/src/widgets/../core/lv_obj_style_gen.h **** 
  19:Middlewares/lvgl/src/widgets/../core/lv_obj_style_gen.h **** static inline lv_coord_t lv_obj_get_style_height(const struct _lv_obj_t * obj, uint32_t part)
  20:Middlewares/lvgl/src/widgets/../core/lv_obj_style_gen.h **** {
  21:Middlewares/lvgl/src/widgets/../core/lv_obj_style_gen.h ****     lv_style_value_t v = lv_obj_get_style_prop(obj, part, LV_STYLE_HEIGHT);
  22:Middlewares/lvgl/src/widgets/../core/lv_obj_style_gen.h ****     return (lv_coord_t)v.num;
  23:Middlewares/lvgl/src/widgets/../core/lv_obj_style_gen.h **** }
  24:Middlewares/lvgl/src/widgets/../core/lv_obj_style_gen.h **** 
ARM GAS  /tmp/cc9MIr9f.s 			page 17


  25:Middlewares/lvgl/src/widgets/../core/lv_obj_style_gen.h **** static inline lv_coord_t lv_obj_get_style_min_height(const struct _lv_obj_t * obj, uint32_t part)
  26:Middlewares/lvgl/src/widgets/../core/lv_obj_style_gen.h **** {
  27:Middlewares/lvgl/src/widgets/../core/lv_obj_style_gen.h ****     lv_style_value_t v = lv_obj_get_style_prop(obj, part, LV_STYLE_MIN_HEIGHT);
  28:Middlewares/lvgl/src/widgets/../core/lv_obj_style_gen.h ****     return (lv_coord_t)v.num;
  29:Middlewares/lvgl/src/widgets/../core/lv_obj_style_gen.h **** }
  30:Middlewares/lvgl/src/widgets/../core/lv_obj_style_gen.h **** 
  31:Middlewares/lvgl/src/widgets/../core/lv_obj_style_gen.h **** static inline lv_coord_t lv_obj_get_style_max_height(const struct _lv_obj_t * obj, uint32_t part)
  32:Middlewares/lvgl/src/widgets/../core/lv_obj_style_gen.h **** {
  33:Middlewares/lvgl/src/widgets/../core/lv_obj_style_gen.h ****     lv_style_value_t v = lv_obj_get_style_prop(obj, part, LV_STYLE_MAX_HEIGHT);
  34:Middlewares/lvgl/src/widgets/../core/lv_obj_style_gen.h ****     return (lv_coord_t)v.num;
  35:Middlewares/lvgl/src/widgets/../core/lv_obj_style_gen.h **** }
  36:Middlewares/lvgl/src/widgets/../core/lv_obj_style_gen.h **** 
  37:Middlewares/lvgl/src/widgets/../core/lv_obj_style_gen.h **** static inline lv_coord_t lv_obj_get_style_x(const struct _lv_obj_t * obj, uint32_t part)
  38:Middlewares/lvgl/src/widgets/../core/lv_obj_style_gen.h **** {
  39:Middlewares/lvgl/src/widgets/../core/lv_obj_style_gen.h ****     lv_style_value_t v = lv_obj_get_style_prop(obj, part, LV_STYLE_X);
  40:Middlewares/lvgl/src/widgets/../core/lv_obj_style_gen.h ****     return (lv_coord_t)v.num;
  41:Middlewares/lvgl/src/widgets/../core/lv_obj_style_gen.h **** }
  42:Middlewares/lvgl/src/widgets/../core/lv_obj_style_gen.h **** 
  43:Middlewares/lvgl/src/widgets/../core/lv_obj_style_gen.h **** static inline lv_coord_t lv_obj_get_style_y(const struct _lv_obj_t * obj, uint32_t part)
  44:Middlewares/lvgl/src/widgets/../core/lv_obj_style_gen.h **** {
  45:Middlewares/lvgl/src/widgets/../core/lv_obj_style_gen.h ****     lv_style_value_t v = lv_obj_get_style_prop(obj, part, LV_STYLE_Y);
  46:Middlewares/lvgl/src/widgets/../core/lv_obj_style_gen.h ****     return (lv_coord_t)v.num;
  47:Middlewares/lvgl/src/widgets/../core/lv_obj_style_gen.h **** }
  48:Middlewares/lvgl/src/widgets/../core/lv_obj_style_gen.h **** 
  49:Middlewares/lvgl/src/widgets/../core/lv_obj_style_gen.h **** static inline lv_align_t lv_obj_get_style_align(const struct _lv_obj_t * obj, uint32_t part)
  50:Middlewares/lvgl/src/widgets/../core/lv_obj_style_gen.h **** {
  51:Middlewares/lvgl/src/widgets/../core/lv_obj_style_gen.h ****     lv_style_value_t v = lv_obj_get_style_prop(obj, part, LV_STYLE_ALIGN);
  52:Middlewares/lvgl/src/widgets/../core/lv_obj_style_gen.h ****     return (lv_align_t)v.num;
  53:Middlewares/lvgl/src/widgets/../core/lv_obj_style_gen.h **** }
  54:Middlewares/lvgl/src/widgets/../core/lv_obj_style_gen.h **** 
  55:Middlewares/lvgl/src/widgets/../core/lv_obj_style_gen.h **** static inline lv_coord_t lv_obj_get_style_transform_width(const struct _lv_obj_t * obj, uint32_t pa
  56:Middlewares/lvgl/src/widgets/../core/lv_obj_style_gen.h **** {
  57:Middlewares/lvgl/src/widgets/../core/lv_obj_style_gen.h ****     lv_style_value_t v = lv_obj_get_style_prop(obj, part, LV_STYLE_TRANSFORM_WIDTH);
  58:Middlewares/lvgl/src/widgets/../core/lv_obj_style_gen.h ****     return (lv_coord_t)v.num;
  59:Middlewares/lvgl/src/widgets/../core/lv_obj_style_gen.h **** }
  60:Middlewares/lvgl/src/widgets/../core/lv_obj_style_gen.h **** 
  61:Middlewares/lvgl/src/widgets/../core/lv_obj_style_gen.h **** static inline lv_coord_t lv_obj_get_style_transform_height(const struct _lv_obj_t * obj, uint32_t p
  62:Middlewares/lvgl/src/widgets/../core/lv_obj_style_gen.h **** {
  63:Middlewares/lvgl/src/widgets/../core/lv_obj_style_gen.h ****     lv_style_value_t v = lv_obj_get_style_prop(obj, part, LV_STYLE_TRANSFORM_HEIGHT);
  64:Middlewares/lvgl/src/widgets/../core/lv_obj_style_gen.h ****     return (lv_coord_t)v.num;
  65:Middlewares/lvgl/src/widgets/../core/lv_obj_style_gen.h **** }
  66:Middlewares/lvgl/src/widgets/../core/lv_obj_style_gen.h **** 
  67:Middlewares/lvgl/src/widgets/../core/lv_obj_style_gen.h **** static inline lv_coord_t lv_obj_get_style_translate_x(const struct _lv_obj_t * obj, uint32_t part)
  68:Middlewares/lvgl/src/widgets/../core/lv_obj_style_gen.h **** {
  69:Middlewares/lvgl/src/widgets/../core/lv_obj_style_gen.h ****     lv_style_value_t v = lv_obj_get_style_prop(obj, part, LV_STYLE_TRANSLATE_X);
  70:Middlewares/lvgl/src/widgets/../core/lv_obj_style_gen.h ****     return (lv_coord_t)v.num;
  71:Middlewares/lvgl/src/widgets/../core/lv_obj_style_gen.h **** }
  72:Middlewares/lvgl/src/widgets/../core/lv_obj_style_gen.h **** 
  73:Middlewares/lvgl/src/widgets/../core/lv_obj_style_gen.h **** static inline lv_coord_t lv_obj_get_style_translate_y(const struct _lv_obj_t * obj, uint32_t part)
  74:Middlewares/lvgl/src/widgets/../core/lv_obj_style_gen.h **** {
  75:Middlewares/lvgl/src/widgets/../core/lv_obj_style_gen.h ****     lv_style_value_t v = lv_obj_get_style_prop(obj, part, LV_STYLE_TRANSLATE_Y);
  76:Middlewares/lvgl/src/widgets/../core/lv_obj_style_gen.h ****     return (lv_coord_t)v.num;
  77:Middlewares/lvgl/src/widgets/../core/lv_obj_style_gen.h **** }
  78:Middlewares/lvgl/src/widgets/../core/lv_obj_style_gen.h **** 
  79:Middlewares/lvgl/src/widgets/../core/lv_obj_style_gen.h **** static inline lv_coord_t lv_obj_get_style_transform_zoom(const struct _lv_obj_t * obj, uint32_t par
  80:Middlewares/lvgl/src/widgets/../core/lv_obj_style_gen.h **** {
  81:Middlewares/lvgl/src/widgets/../core/lv_obj_style_gen.h ****     lv_style_value_t v = lv_obj_get_style_prop(obj, part, LV_STYLE_TRANSFORM_ZOOM);
ARM GAS  /tmp/cc9MIr9f.s 			page 18


  82:Middlewares/lvgl/src/widgets/../core/lv_obj_style_gen.h ****     return (lv_coord_t)v.num;
  83:Middlewares/lvgl/src/widgets/../core/lv_obj_style_gen.h **** }
  84:Middlewares/lvgl/src/widgets/../core/lv_obj_style_gen.h **** 
  85:Middlewares/lvgl/src/widgets/../core/lv_obj_style_gen.h **** static inline lv_coord_t lv_obj_get_style_transform_angle(const struct _lv_obj_t * obj, uint32_t pa
  86:Middlewares/lvgl/src/widgets/../core/lv_obj_style_gen.h **** {
  87:Middlewares/lvgl/src/widgets/../core/lv_obj_style_gen.h ****     lv_style_value_t v = lv_obj_get_style_prop(obj, part, LV_STYLE_TRANSFORM_ANGLE);
  88:Middlewares/lvgl/src/widgets/../core/lv_obj_style_gen.h ****     return (lv_coord_t)v.num;
  89:Middlewares/lvgl/src/widgets/../core/lv_obj_style_gen.h **** }
  90:Middlewares/lvgl/src/widgets/../core/lv_obj_style_gen.h **** 
  91:Middlewares/lvgl/src/widgets/../core/lv_obj_style_gen.h **** static inline lv_coord_t lv_obj_get_style_pad_top(const struct _lv_obj_t * obj, uint32_t part)
  92:Middlewares/lvgl/src/widgets/../core/lv_obj_style_gen.h **** {
  93:Middlewares/lvgl/src/widgets/../core/lv_obj_style_gen.h ****     lv_style_value_t v = lv_obj_get_style_prop(obj, part, LV_STYLE_PAD_TOP);
  94:Middlewares/lvgl/src/widgets/../core/lv_obj_style_gen.h ****     return (lv_coord_t)v.num;
  95:Middlewares/lvgl/src/widgets/../core/lv_obj_style_gen.h **** }
  96:Middlewares/lvgl/src/widgets/../core/lv_obj_style_gen.h **** 
  97:Middlewares/lvgl/src/widgets/../core/lv_obj_style_gen.h **** static inline lv_coord_t lv_obj_get_style_pad_bottom(const struct _lv_obj_t * obj, uint32_t part)
  98:Middlewares/lvgl/src/widgets/../core/lv_obj_style_gen.h **** {
  99:Middlewares/lvgl/src/widgets/../core/lv_obj_style_gen.h ****     lv_style_value_t v = lv_obj_get_style_prop(obj, part, LV_STYLE_PAD_BOTTOM);
 100:Middlewares/lvgl/src/widgets/../core/lv_obj_style_gen.h ****     return (lv_coord_t)v.num;
 101:Middlewares/lvgl/src/widgets/../core/lv_obj_style_gen.h **** }
 102:Middlewares/lvgl/src/widgets/../core/lv_obj_style_gen.h **** 
 103:Middlewares/lvgl/src/widgets/../core/lv_obj_style_gen.h **** static inline lv_coord_t lv_obj_get_style_pad_left(const struct _lv_obj_t * obj, uint32_t part)
 104:Middlewares/lvgl/src/widgets/../core/lv_obj_style_gen.h **** {
 105:Middlewares/lvgl/src/widgets/../core/lv_obj_style_gen.h ****     lv_style_value_t v = lv_obj_get_style_prop(obj, part, LV_STYLE_PAD_LEFT);
 106:Middlewares/lvgl/src/widgets/../core/lv_obj_style_gen.h ****     return (lv_coord_t)v.num;
 107:Middlewares/lvgl/src/widgets/../core/lv_obj_style_gen.h **** }
 108:Middlewares/lvgl/src/widgets/../core/lv_obj_style_gen.h **** 
 109:Middlewares/lvgl/src/widgets/../core/lv_obj_style_gen.h **** static inline lv_coord_t lv_obj_get_style_pad_right(const struct _lv_obj_t * obj, uint32_t part)
 110:Middlewares/lvgl/src/widgets/../core/lv_obj_style_gen.h **** {
 111:Middlewares/lvgl/src/widgets/../core/lv_obj_style_gen.h ****     lv_style_value_t v = lv_obj_get_style_prop(obj, part, LV_STYLE_PAD_RIGHT);
 112:Middlewares/lvgl/src/widgets/../core/lv_obj_style_gen.h ****     return (lv_coord_t)v.num;
 113:Middlewares/lvgl/src/widgets/../core/lv_obj_style_gen.h **** }
 114:Middlewares/lvgl/src/widgets/../core/lv_obj_style_gen.h **** 
 115:Middlewares/lvgl/src/widgets/../core/lv_obj_style_gen.h **** static inline lv_coord_t lv_obj_get_style_pad_row(const struct _lv_obj_t * obj, uint32_t part)
 116:Middlewares/lvgl/src/widgets/../core/lv_obj_style_gen.h **** {
 117:Middlewares/lvgl/src/widgets/../core/lv_obj_style_gen.h ****     lv_style_value_t v = lv_obj_get_style_prop(obj, part, LV_STYLE_PAD_ROW);
 118:Middlewares/lvgl/src/widgets/../core/lv_obj_style_gen.h ****     return (lv_coord_t)v.num;
 119:Middlewares/lvgl/src/widgets/../core/lv_obj_style_gen.h **** }
 120:Middlewares/lvgl/src/widgets/../core/lv_obj_style_gen.h **** 
 121:Middlewares/lvgl/src/widgets/../core/lv_obj_style_gen.h **** static inline lv_coord_t lv_obj_get_style_pad_column(const struct _lv_obj_t * obj, uint32_t part)
 122:Middlewares/lvgl/src/widgets/../core/lv_obj_style_gen.h **** {
 123:Middlewares/lvgl/src/widgets/../core/lv_obj_style_gen.h ****     lv_style_value_t v = lv_obj_get_style_prop(obj, part, LV_STYLE_PAD_COLUMN);
 124:Middlewares/lvgl/src/widgets/../core/lv_obj_style_gen.h ****     return (lv_coord_t)v.num;
 125:Middlewares/lvgl/src/widgets/../core/lv_obj_style_gen.h **** }
 126:Middlewares/lvgl/src/widgets/../core/lv_obj_style_gen.h **** 
 127:Middlewares/lvgl/src/widgets/../core/lv_obj_style_gen.h **** static inline lv_coord_t lv_obj_get_style_radius(const struct _lv_obj_t * obj, uint32_t part)
 128:Middlewares/lvgl/src/widgets/../core/lv_obj_style_gen.h **** {
 129:Middlewares/lvgl/src/widgets/../core/lv_obj_style_gen.h ****     lv_style_value_t v = lv_obj_get_style_prop(obj, part, LV_STYLE_RADIUS);
 130:Middlewares/lvgl/src/widgets/../core/lv_obj_style_gen.h ****     return (lv_coord_t)v.num;
 131:Middlewares/lvgl/src/widgets/../core/lv_obj_style_gen.h **** }
 132:Middlewares/lvgl/src/widgets/../core/lv_obj_style_gen.h **** 
 133:Middlewares/lvgl/src/widgets/../core/lv_obj_style_gen.h **** static inline bool lv_obj_get_style_clip_corner(const struct _lv_obj_t * obj, uint32_t part)
 134:Middlewares/lvgl/src/widgets/../core/lv_obj_style_gen.h **** {
 135:Middlewares/lvgl/src/widgets/../core/lv_obj_style_gen.h ****     lv_style_value_t v = lv_obj_get_style_prop(obj, part, LV_STYLE_CLIP_CORNER);
 136:Middlewares/lvgl/src/widgets/../core/lv_obj_style_gen.h ****     return (bool)v.num;
 137:Middlewares/lvgl/src/widgets/../core/lv_obj_style_gen.h **** }
 138:Middlewares/lvgl/src/widgets/../core/lv_obj_style_gen.h **** 
ARM GAS  /tmp/cc9MIr9f.s 			page 19


 139:Middlewares/lvgl/src/widgets/../core/lv_obj_style_gen.h **** static inline lv_opa_t lv_obj_get_style_opa(const struct _lv_obj_t * obj, uint32_t part)
 140:Middlewares/lvgl/src/widgets/../core/lv_obj_style_gen.h **** {
 141:Middlewares/lvgl/src/widgets/../core/lv_obj_style_gen.h ****     lv_style_value_t v = lv_obj_get_style_prop(obj, part, LV_STYLE_OPA);
 142:Middlewares/lvgl/src/widgets/../core/lv_obj_style_gen.h ****     return (lv_opa_t)v.num;
 143:Middlewares/lvgl/src/widgets/../core/lv_obj_style_gen.h **** }
 144:Middlewares/lvgl/src/widgets/../core/lv_obj_style_gen.h **** 
 145:Middlewares/lvgl/src/widgets/../core/lv_obj_style_gen.h **** static inline const lv_color_filter_dsc_t * lv_obj_get_style_color_filter_dsc(const struct _lv_obj_
 146:Middlewares/lvgl/src/widgets/../core/lv_obj_style_gen.h **** {
 147:Middlewares/lvgl/src/widgets/../core/lv_obj_style_gen.h ****     lv_style_value_t v = lv_obj_get_style_prop(obj, part, LV_STYLE_COLOR_FILTER_DSC);
 148:Middlewares/lvgl/src/widgets/../core/lv_obj_style_gen.h ****     return (const lv_color_filter_dsc_t *)v.ptr;
 149:Middlewares/lvgl/src/widgets/../core/lv_obj_style_gen.h **** }
 150:Middlewares/lvgl/src/widgets/../core/lv_obj_style_gen.h **** 
 151:Middlewares/lvgl/src/widgets/../core/lv_obj_style_gen.h **** static inline lv_opa_t lv_obj_get_style_color_filter_opa(const struct _lv_obj_t * obj, uint32_t par
 152:Middlewares/lvgl/src/widgets/../core/lv_obj_style_gen.h **** {
 153:Middlewares/lvgl/src/widgets/../core/lv_obj_style_gen.h ****     lv_style_value_t v = lv_obj_get_style_prop(obj, part, LV_STYLE_COLOR_FILTER_OPA);
 154:Middlewares/lvgl/src/widgets/../core/lv_obj_style_gen.h ****     return (lv_opa_t)v.num;
 155:Middlewares/lvgl/src/widgets/../core/lv_obj_style_gen.h **** }
 156:Middlewares/lvgl/src/widgets/../core/lv_obj_style_gen.h **** 
 157:Middlewares/lvgl/src/widgets/../core/lv_obj_style_gen.h **** static inline uint32_t lv_obj_get_style_anim_time(const struct _lv_obj_t * obj, uint32_t part)
 158:Middlewares/lvgl/src/widgets/../core/lv_obj_style_gen.h **** {
 159:Middlewares/lvgl/src/widgets/../core/lv_obj_style_gen.h ****     lv_style_value_t v = lv_obj_get_style_prop(obj, part, LV_STYLE_ANIM_TIME);
 160:Middlewares/lvgl/src/widgets/../core/lv_obj_style_gen.h ****     return (uint32_t)v.num;
 161:Middlewares/lvgl/src/widgets/../core/lv_obj_style_gen.h **** }
 162:Middlewares/lvgl/src/widgets/../core/lv_obj_style_gen.h **** 
 163:Middlewares/lvgl/src/widgets/../core/lv_obj_style_gen.h **** static inline uint32_t lv_obj_get_style_anim_speed(const struct _lv_obj_t * obj, uint32_t part)
 164:Middlewares/lvgl/src/widgets/../core/lv_obj_style_gen.h **** {
 165:Middlewares/lvgl/src/widgets/../core/lv_obj_style_gen.h ****     lv_style_value_t v = lv_obj_get_style_prop(obj, part, LV_STYLE_ANIM_SPEED);
 166:Middlewares/lvgl/src/widgets/../core/lv_obj_style_gen.h ****     return (uint32_t)v.num;
 167:Middlewares/lvgl/src/widgets/../core/lv_obj_style_gen.h **** }
 168:Middlewares/lvgl/src/widgets/../core/lv_obj_style_gen.h **** 
 169:Middlewares/lvgl/src/widgets/../core/lv_obj_style_gen.h **** static inline const lv_style_transition_dsc_t * lv_obj_get_style_transition(const struct _lv_obj_t 
 170:Middlewares/lvgl/src/widgets/../core/lv_obj_style_gen.h **** {
 171:Middlewares/lvgl/src/widgets/../core/lv_obj_style_gen.h ****     lv_style_value_t v = lv_obj_get_style_prop(obj, part, LV_STYLE_TRANSITION);
 172:Middlewares/lvgl/src/widgets/../core/lv_obj_style_gen.h ****     return (const lv_style_transition_dsc_t *)v.ptr;
 173:Middlewares/lvgl/src/widgets/../core/lv_obj_style_gen.h **** }
 174:Middlewares/lvgl/src/widgets/../core/lv_obj_style_gen.h **** 
 175:Middlewares/lvgl/src/widgets/../core/lv_obj_style_gen.h **** static inline lv_blend_mode_t lv_obj_get_style_blend_mode(const struct _lv_obj_t * obj, uint32_t pa
 176:Middlewares/lvgl/src/widgets/../core/lv_obj_style_gen.h **** {
 177:Middlewares/lvgl/src/widgets/../core/lv_obj_style_gen.h ****     lv_style_value_t v = lv_obj_get_style_prop(obj, part, LV_STYLE_BLEND_MODE);
 178:Middlewares/lvgl/src/widgets/../core/lv_obj_style_gen.h ****     return (lv_blend_mode_t)v.num;
 179:Middlewares/lvgl/src/widgets/../core/lv_obj_style_gen.h **** }
 180:Middlewares/lvgl/src/widgets/../core/lv_obj_style_gen.h **** 
 181:Middlewares/lvgl/src/widgets/../core/lv_obj_style_gen.h **** static inline uint16_t lv_obj_get_style_layout(const struct _lv_obj_t * obj, uint32_t part)
 182:Middlewares/lvgl/src/widgets/../core/lv_obj_style_gen.h **** {
 183:Middlewares/lvgl/src/widgets/../core/lv_obj_style_gen.h ****     lv_style_value_t v = lv_obj_get_style_prop(obj, part, LV_STYLE_LAYOUT);
 184:Middlewares/lvgl/src/widgets/../core/lv_obj_style_gen.h ****     return (uint16_t)v.num;
 185:Middlewares/lvgl/src/widgets/../core/lv_obj_style_gen.h **** }
 186:Middlewares/lvgl/src/widgets/../core/lv_obj_style_gen.h **** 
 187:Middlewares/lvgl/src/widgets/../core/lv_obj_style_gen.h **** static inline lv_base_dir_t lv_obj_get_style_base_dir(const struct _lv_obj_t * obj, uint32_t part)
 188:Middlewares/lvgl/src/widgets/../core/lv_obj_style_gen.h **** {
 189:Middlewares/lvgl/src/widgets/../core/lv_obj_style_gen.h ****     lv_style_value_t v = lv_obj_get_style_prop(obj, part, LV_STYLE_BASE_DIR);
 190:Middlewares/lvgl/src/widgets/../core/lv_obj_style_gen.h ****     return (lv_base_dir_t)v.num;
 191:Middlewares/lvgl/src/widgets/../core/lv_obj_style_gen.h **** }
 192:Middlewares/lvgl/src/widgets/../core/lv_obj_style_gen.h **** 
 193:Middlewares/lvgl/src/widgets/../core/lv_obj_style_gen.h **** static inline lv_color_t lv_obj_get_style_bg_color(const struct _lv_obj_t * obj, uint32_t part)
 194:Middlewares/lvgl/src/widgets/../core/lv_obj_style_gen.h **** {
 195:Middlewares/lvgl/src/widgets/../core/lv_obj_style_gen.h ****     lv_style_value_t v = lv_obj_get_style_prop(obj, part, LV_STYLE_BG_COLOR);
ARM GAS  /tmp/cc9MIr9f.s 			page 20


 196:Middlewares/lvgl/src/widgets/../core/lv_obj_style_gen.h ****     return v.color;
 197:Middlewares/lvgl/src/widgets/../core/lv_obj_style_gen.h **** }
 198:Middlewares/lvgl/src/widgets/../core/lv_obj_style_gen.h **** 
 199:Middlewares/lvgl/src/widgets/../core/lv_obj_style_gen.h **** static inline lv_color_t lv_obj_get_style_bg_color_filtered(const struct _lv_obj_t * obj, uint32_t 
 200:Middlewares/lvgl/src/widgets/../core/lv_obj_style_gen.h **** {
 201:Middlewares/lvgl/src/widgets/../core/lv_obj_style_gen.h ****     lv_style_value_t v = lv_obj_get_style_prop(obj, part, LV_STYLE_BG_COLOR_FILTERED);
 202:Middlewares/lvgl/src/widgets/../core/lv_obj_style_gen.h ****     return v.color;
 203:Middlewares/lvgl/src/widgets/../core/lv_obj_style_gen.h **** }
 204:Middlewares/lvgl/src/widgets/../core/lv_obj_style_gen.h **** 
 205:Middlewares/lvgl/src/widgets/../core/lv_obj_style_gen.h **** static inline lv_opa_t lv_obj_get_style_bg_opa(const struct _lv_obj_t * obj, uint32_t part)
 206:Middlewares/lvgl/src/widgets/../core/lv_obj_style_gen.h **** {
 207:Middlewares/lvgl/src/widgets/../core/lv_obj_style_gen.h ****     lv_style_value_t v = lv_obj_get_style_prop(obj, part, LV_STYLE_BG_OPA);
 208:Middlewares/lvgl/src/widgets/../core/lv_obj_style_gen.h ****     return (lv_opa_t)v.num;
 209:Middlewares/lvgl/src/widgets/../core/lv_obj_style_gen.h **** }
 210:Middlewares/lvgl/src/widgets/../core/lv_obj_style_gen.h **** 
 211:Middlewares/lvgl/src/widgets/../core/lv_obj_style_gen.h **** static inline lv_color_t lv_obj_get_style_bg_grad_color(const struct _lv_obj_t * obj, uint32_t part
 212:Middlewares/lvgl/src/widgets/../core/lv_obj_style_gen.h **** {
 213:Middlewares/lvgl/src/widgets/../core/lv_obj_style_gen.h ****     lv_style_value_t v = lv_obj_get_style_prop(obj, part, LV_STYLE_BG_GRAD_COLOR);
 214:Middlewares/lvgl/src/widgets/../core/lv_obj_style_gen.h ****     return v.color;
 215:Middlewares/lvgl/src/widgets/../core/lv_obj_style_gen.h **** }
 216:Middlewares/lvgl/src/widgets/../core/lv_obj_style_gen.h **** 
 217:Middlewares/lvgl/src/widgets/../core/lv_obj_style_gen.h **** static inline lv_color_t lv_obj_get_style_bg_grad_color_filtered(const struct _lv_obj_t * obj, uint
 218:Middlewares/lvgl/src/widgets/../core/lv_obj_style_gen.h **** {
 219:Middlewares/lvgl/src/widgets/../core/lv_obj_style_gen.h ****     lv_style_value_t v = lv_obj_get_style_prop(obj, part, LV_STYLE_BG_GRAD_COLOR_FILTERED);
 220:Middlewares/lvgl/src/widgets/../core/lv_obj_style_gen.h ****     return v.color;
 221:Middlewares/lvgl/src/widgets/../core/lv_obj_style_gen.h **** }
 222:Middlewares/lvgl/src/widgets/../core/lv_obj_style_gen.h **** 
 223:Middlewares/lvgl/src/widgets/../core/lv_obj_style_gen.h **** static inline lv_grad_dir_t lv_obj_get_style_bg_grad_dir(const struct _lv_obj_t * obj, uint32_t par
 224:Middlewares/lvgl/src/widgets/../core/lv_obj_style_gen.h **** {
 225:Middlewares/lvgl/src/widgets/../core/lv_obj_style_gen.h ****     lv_style_value_t v = lv_obj_get_style_prop(obj, part, LV_STYLE_BG_GRAD_DIR);
 226:Middlewares/lvgl/src/widgets/../core/lv_obj_style_gen.h ****     return (lv_grad_dir_t)v.num;
 227:Middlewares/lvgl/src/widgets/../core/lv_obj_style_gen.h **** }
 228:Middlewares/lvgl/src/widgets/../core/lv_obj_style_gen.h **** 
 229:Middlewares/lvgl/src/widgets/../core/lv_obj_style_gen.h **** static inline lv_coord_t lv_obj_get_style_bg_main_stop(const struct _lv_obj_t * obj, uint32_t part)
 230:Middlewares/lvgl/src/widgets/../core/lv_obj_style_gen.h **** {
 231:Middlewares/lvgl/src/widgets/../core/lv_obj_style_gen.h ****     lv_style_value_t v = lv_obj_get_style_prop(obj, part, LV_STYLE_BG_MAIN_STOP);
 232:Middlewares/lvgl/src/widgets/../core/lv_obj_style_gen.h ****     return (lv_coord_t)v.num;
 233:Middlewares/lvgl/src/widgets/../core/lv_obj_style_gen.h **** }
 234:Middlewares/lvgl/src/widgets/../core/lv_obj_style_gen.h **** 
 235:Middlewares/lvgl/src/widgets/../core/lv_obj_style_gen.h **** static inline lv_coord_t lv_obj_get_style_bg_grad_stop(const struct _lv_obj_t * obj, uint32_t part)
 236:Middlewares/lvgl/src/widgets/../core/lv_obj_style_gen.h **** {
 237:Middlewares/lvgl/src/widgets/../core/lv_obj_style_gen.h ****     lv_style_value_t v = lv_obj_get_style_prop(obj, part, LV_STYLE_BG_GRAD_STOP);
 238:Middlewares/lvgl/src/widgets/../core/lv_obj_style_gen.h ****     return (lv_coord_t)v.num;
 239:Middlewares/lvgl/src/widgets/../core/lv_obj_style_gen.h **** }
 240:Middlewares/lvgl/src/widgets/../core/lv_obj_style_gen.h **** 
 241:Middlewares/lvgl/src/widgets/../core/lv_obj_style_gen.h **** static inline const void * lv_obj_get_style_bg_img_src(const struct _lv_obj_t * obj, uint32_t part)
 242:Middlewares/lvgl/src/widgets/../core/lv_obj_style_gen.h **** {
 243:Middlewares/lvgl/src/widgets/../core/lv_obj_style_gen.h ****     lv_style_value_t v = lv_obj_get_style_prop(obj, part, LV_STYLE_BG_IMG_SRC);
 244:Middlewares/lvgl/src/widgets/../core/lv_obj_style_gen.h ****     return (const void *)v.ptr;
 245:Middlewares/lvgl/src/widgets/../core/lv_obj_style_gen.h **** }
 246:Middlewares/lvgl/src/widgets/../core/lv_obj_style_gen.h **** 
 247:Middlewares/lvgl/src/widgets/../core/lv_obj_style_gen.h **** static inline lv_opa_t lv_obj_get_style_bg_img_opa(const struct _lv_obj_t * obj, uint32_t part)
 248:Middlewares/lvgl/src/widgets/../core/lv_obj_style_gen.h **** {
 249:Middlewares/lvgl/src/widgets/../core/lv_obj_style_gen.h ****     lv_style_value_t v = lv_obj_get_style_prop(obj, part, LV_STYLE_BG_IMG_OPA);
 250:Middlewares/lvgl/src/widgets/../core/lv_obj_style_gen.h ****     return (lv_opa_t)v.num;
 251:Middlewares/lvgl/src/widgets/../core/lv_obj_style_gen.h **** }
 252:Middlewares/lvgl/src/widgets/../core/lv_obj_style_gen.h **** 
ARM GAS  /tmp/cc9MIr9f.s 			page 21


 253:Middlewares/lvgl/src/widgets/../core/lv_obj_style_gen.h **** static inline lv_color_t lv_obj_get_style_bg_img_recolor(const struct _lv_obj_t * obj, uint32_t par
 254:Middlewares/lvgl/src/widgets/../core/lv_obj_style_gen.h **** {
 255:Middlewares/lvgl/src/widgets/../core/lv_obj_style_gen.h ****     lv_style_value_t v = lv_obj_get_style_prop(obj, part, LV_STYLE_BG_IMG_RECOLOR);
 256:Middlewares/lvgl/src/widgets/../core/lv_obj_style_gen.h ****     return v.color;
 257:Middlewares/lvgl/src/widgets/../core/lv_obj_style_gen.h **** }
 258:Middlewares/lvgl/src/widgets/../core/lv_obj_style_gen.h **** 
 259:Middlewares/lvgl/src/widgets/../core/lv_obj_style_gen.h **** static inline lv_color_t lv_obj_get_style_bg_img_recolor_filtered(const struct _lv_obj_t * obj, uin
 260:Middlewares/lvgl/src/widgets/../core/lv_obj_style_gen.h **** {
 261:Middlewares/lvgl/src/widgets/../core/lv_obj_style_gen.h ****     lv_style_value_t v = lv_obj_get_style_prop(obj, part, LV_STYLE_BG_IMG_RECOLOR_FILTERED);
 262:Middlewares/lvgl/src/widgets/../core/lv_obj_style_gen.h ****     return v.color;
 263:Middlewares/lvgl/src/widgets/../core/lv_obj_style_gen.h **** }
 264:Middlewares/lvgl/src/widgets/../core/lv_obj_style_gen.h **** 
 265:Middlewares/lvgl/src/widgets/../core/lv_obj_style_gen.h **** static inline lv_opa_t lv_obj_get_style_bg_img_recolor_opa(const struct _lv_obj_t * obj, uint32_t p
 266:Middlewares/lvgl/src/widgets/../core/lv_obj_style_gen.h **** {
 267:Middlewares/lvgl/src/widgets/../core/lv_obj_style_gen.h ****     lv_style_value_t v = lv_obj_get_style_prop(obj, part, LV_STYLE_BG_IMG_RECOLOR_OPA);
 268:Middlewares/lvgl/src/widgets/../core/lv_obj_style_gen.h ****     return (lv_opa_t)v.num;
 269:Middlewares/lvgl/src/widgets/../core/lv_obj_style_gen.h **** }
 270:Middlewares/lvgl/src/widgets/../core/lv_obj_style_gen.h **** 
 271:Middlewares/lvgl/src/widgets/../core/lv_obj_style_gen.h **** static inline bool lv_obj_get_style_bg_img_tiled(const struct _lv_obj_t * obj, uint32_t part)
 272:Middlewares/lvgl/src/widgets/../core/lv_obj_style_gen.h **** {
 273:Middlewares/lvgl/src/widgets/../core/lv_obj_style_gen.h ****     lv_style_value_t v = lv_obj_get_style_prop(obj, part, LV_STYLE_BG_IMG_TILED);
 274:Middlewares/lvgl/src/widgets/../core/lv_obj_style_gen.h ****     return (bool)v.num;
 275:Middlewares/lvgl/src/widgets/../core/lv_obj_style_gen.h **** }
 276:Middlewares/lvgl/src/widgets/../core/lv_obj_style_gen.h **** 
 277:Middlewares/lvgl/src/widgets/../core/lv_obj_style_gen.h **** static inline lv_color_t lv_obj_get_style_border_color(const struct _lv_obj_t * obj, uint32_t part)
 278:Middlewares/lvgl/src/widgets/../core/lv_obj_style_gen.h **** {
 279:Middlewares/lvgl/src/widgets/../core/lv_obj_style_gen.h ****     lv_style_value_t v = lv_obj_get_style_prop(obj, part, LV_STYLE_BORDER_COLOR);
 280:Middlewares/lvgl/src/widgets/../core/lv_obj_style_gen.h ****     return v.color;
 281:Middlewares/lvgl/src/widgets/../core/lv_obj_style_gen.h **** }
 282:Middlewares/lvgl/src/widgets/../core/lv_obj_style_gen.h **** 
 283:Middlewares/lvgl/src/widgets/../core/lv_obj_style_gen.h **** static inline lv_color_t lv_obj_get_style_border_color_filtered(const struct _lv_obj_t * obj, uint3
 284:Middlewares/lvgl/src/widgets/../core/lv_obj_style_gen.h **** {
 285:Middlewares/lvgl/src/widgets/../core/lv_obj_style_gen.h ****     lv_style_value_t v = lv_obj_get_style_prop(obj, part, LV_STYLE_BORDER_COLOR_FILTERED);
 286:Middlewares/lvgl/src/widgets/../core/lv_obj_style_gen.h ****     return v.color;
 287:Middlewares/lvgl/src/widgets/../core/lv_obj_style_gen.h **** }
 288:Middlewares/lvgl/src/widgets/../core/lv_obj_style_gen.h **** 
 289:Middlewares/lvgl/src/widgets/../core/lv_obj_style_gen.h **** static inline lv_opa_t lv_obj_get_style_border_opa(const struct _lv_obj_t * obj, uint32_t part)
 290:Middlewares/lvgl/src/widgets/../core/lv_obj_style_gen.h **** {
 291:Middlewares/lvgl/src/widgets/../core/lv_obj_style_gen.h ****     lv_style_value_t v = lv_obj_get_style_prop(obj, part, LV_STYLE_BORDER_OPA);
 292:Middlewares/lvgl/src/widgets/../core/lv_obj_style_gen.h ****     return (lv_opa_t)v.num;
 293:Middlewares/lvgl/src/widgets/../core/lv_obj_style_gen.h **** }
 294:Middlewares/lvgl/src/widgets/../core/lv_obj_style_gen.h **** 
 295:Middlewares/lvgl/src/widgets/../core/lv_obj_style_gen.h **** static inline lv_coord_t lv_obj_get_style_border_width(const struct _lv_obj_t * obj, uint32_t part)
 296:Middlewares/lvgl/src/widgets/../core/lv_obj_style_gen.h **** {
 297:Middlewares/lvgl/src/widgets/../core/lv_obj_style_gen.h ****     lv_style_value_t v = lv_obj_get_style_prop(obj, part, LV_STYLE_BORDER_WIDTH);
 298:Middlewares/lvgl/src/widgets/../core/lv_obj_style_gen.h ****     return (lv_coord_t)v.num;
 299:Middlewares/lvgl/src/widgets/../core/lv_obj_style_gen.h **** }
 300:Middlewares/lvgl/src/widgets/../core/lv_obj_style_gen.h **** 
 301:Middlewares/lvgl/src/widgets/../core/lv_obj_style_gen.h **** static inline lv_border_side_t lv_obj_get_style_border_side(const struct _lv_obj_t * obj, uint32_t 
 302:Middlewares/lvgl/src/widgets/../core/lv_obj_style_gen.h **** {
 303:Middlewares/lvgl/src/widgets/../core/lv_obj_style_gen.h ****     lv_style_value_t v = lv_obj_get_style_prop(obj, part, LV_STYLE_BORDER_SIDE);
 304:Middlewares/lvgl/src/widgets/../core/lv_obj_style_gen.h ****     return (lv_border_side_t)v.num;
 305:Middlewares/lvgl/src/widgets/../core/lv_obj_style_gen.h **** }
 306:Middlewares/lvgl/src/widgets/../core/lv_obj_style_gen.h **** 
 307:Middlewares/lvgl/src/widgets/../core/lv_obj_style_gen.h **** static inline bool lv_obj_get_style_border_post(const struct _lv_obj_t * obj, uint32_t part)
 308:Middlewares/lvgl/src/widgets/../core/lv_obj_style_gen.h **** {
 309:Middlewares/lvgl/src/widgets/../core/lv_obj_style_gen.h ****     lv_style_value_t v = lv_obj_get_style_prop(obj, part, LV_STYLE_BORDER_POST);
ARM GAS  /tmp/cc9MIr9f.s 			page 22


 310:Middlewares/lvgl/src/widgets/../core/lv_obj_style_gen.h ****     return (bool)v.num;
 311:Middlewares/lvgl/src/widgets/../core/lv_obj_style_gen.h **** }
 312:Middlewares/lvgl/src/widgets/../core/lv_obj_style_gen.h **** 
 313:Middlewares/lvgl/src/widgets/../core/lv_obj_style_gen.h **** static inline lv_color_t lv_obj_get_style_text_color(const struct _lv_obj_t * obj, uint32_t part)
 314:Middlewares/lvgl/src/widgets/../core/lv_obj_style_gen.h **** {
 315:Middlewares/lvgl/src/widgets/../core/lv_obj_style_gen.h ****     lv_style_value_t v = lv_obj_get_style_prop(obj, part, LV_STYLE_TEXT_COLOR);
 316:Middlewares/lvgl/src/widgets/../core/lv_obj_style_gen.h ****     return v.color;
 317:Middlewares/lvgl/src/widgets/../core/lv_obj_style_gen.h **** }
 318:Middlewares/lvgl/src/widgets/../core/lv_obj_style_gen.h **** 
 319:Middlewares/lvgl/src/widgets/../core/lv_obj_style_gen.h **** static inline lv_color_t lv_obj_get_style_text_color_filtered(const struct _lv_obj_t * obj, uint32_
 320:Middlewares/lvgl/src/widgets/../core/lv_obj_style_gen.h **** {
 321:Middlewares/lvgl/src/widgets/../core/lv_obj_style_gen.h ****     lv_style_value_t v = lv_obj_get_style_prop(obj, part, LV_STYLE_TEXT_COLOR_FILTERED);
 322:Middlewares/lvgl/src/widgets/../core/lv_obj_style_gen.h ****     return v.color;
 323:Middlewares/lvgl/src/widgets/../core/lv_obj_style_gen.h **** }
 324:Middlewares/lvgl/src/widgets/../core/lv_obj_style_gen.h **** 
 325:Middlewares/lvgl/src/widgets/../core/lv_obj_style_gen.h **** static inline lv_opa_t lv_obj_get_style_text_opa(const struct _lv_obj_t * obj, uint32_t part)
 326:Middlewares/lvgl/src/widgets/../core/lv_obj_style_gen.h **** {
 327:Middlewares/lvgl/src/widgets/../core/lv_obj_style_gen.h ****     lv_style_value_t v = lv_obj_get_style_prop(obj, part, LV_STYLE_TEXT_OPA);
 328:Middlewares/lvgl/src/widgets/../core/lv_obj_style_gen.h ****     return (lv_opa_t)v.num;
 329:Middlewares/lvgl/src/widgets/../core/lv_obj_style_gen.h **** }
 330:Middlewares/lvgl/src/widgets/../core/lv_obj_style_gen.h **** 
 331:Middlewares/lvgl/src/widgets/../core/lv_obj_style_gen.h **** static inline const lv_font_t * lv_obj_get_style_text_font(const struct _lv_obj_t * obj, uint32_t p
 119              		.loc 2 331 33 view .LVU17
 120              	.LBB75:
 332:Middlewares/lvgl/src/widgets/../core/lv_obj_style_gen.h **** {
 333:Middlewares/lvgl/src/widgets/../core/lv_obj_style_gen.h ****     lv_style_value_t v = lv_obj_get_style_prop(obj, part, LV_STYLE_TEXT_FONT);
 121              		.loc 2 333 5 view .LVU18
 122              		.loc 2 333 26 is_stmt 0 view .LVU19
 123 000e 41F25942 		movw	r2, #5209
 124 0012 4FF48021 		mov	r1, #262144
 125 0016 2046     		mov	r0, r4
 126              	.LVL8:
 127              		.loc 2 333 26 view .LVU20
 128 0018 FFF7FEFF 		bl	lv_obj_get_style_prop
 129              	.LVL9:
 130 001c 0546     		mov	r5, r0
 131              	.LVL10:
 334:Middlewares/lvgl/src/widgets/../core/lv_obj_style_gen.h ****     return (const lv_font_t *)v.ptr;
 132              		.loc 2 334 5 is_stmt 1 view .LVU21
 133              		.loc 2 334 5 is_stmt 0 view .LVU22
 134              	.LBE75:
 135              	.LBE74:
 746:Middlewares/lvgl/src/widgets/lv_roller.c ****     const char * txt = lv_label_get_text(label);
 136              		.loc 1 746 5 is_stmt 1 view .LVU23
 137              	.LBB76:
 138              	.LBI76:
 335:Middlewares/lvgl/src/widgets/../core/lv_obj_style_gen.h **** }
 336:Middlewares/lvgl/src/widgets/../core/lv_obj_style_gen.h **** 
 337:Middlewares/lvgl/src/widgets/../core/lv_obj_style_gen.h **** static inline lv_coord_t lv_obj_get_style_text_letter_space(const struct _lv_obj_t * obj, uint32_t 
 139              		.loc 2 337 26 view .LVU24
 140              	.LBB77:
 338:Middlewares/lvgl/src/widgets/../core/lv_obj_style_gen.h **** {
 339:Middlewares/lvgl/src/widgets/../core/lv_obj_style_gen.h ****     lv_style_value_t v = lv_obj_get_style_prop(obj, part, LV_STYLE_TEXT_LETTER_SPACE);
 141              		.loc 2 339 5 view .LVU25
 142              		.loc 2 339 26 is_stmt 0 view .LVU26
 143 001e 41F25A42 		movw	r2, #5210
 144 0022 4FF48021 		mov	r1, #262144
ARM GAS  /tmp/cc9MIr9f.s 			page 23


 145 0026 2046     		mov	r0, r4
 146              	.LVL11:
 147              		.loc 2 339 26 view .LVU27
 148 0028 FFF7FEFF 		bl	lv_obj_get_style_prop
 149              	.LVL12:
 340:Middlewares/lvgl/src/widgets/../core/lv_obj_style_gen.h ****     return (lv_coord_t)v.num;
 150              		.loc 2 340 5 is_stmt 1 view .LVU28
 151              		.loc 2 340 12 is_stmt 0 view .LVU29
 152 002c 04B2     		sxth	r4, r0
 153              	.LVL13:
 154              		.loc 2 340 12 view .LVU30
 155              	.LBE77:
 156              	.LBE76:
 747:Middlewares/lvgl/src/widgets/lv_roller.c ****     lv_point_t size;
 157              		.loc 1 747 5 is_stmt 1 view .LVU31
 747:Middlewares/lvgl/src/widgets/lv_roller.c ****     lv_point_t size;
 158              		.loc 1 747 24 is_stmt 0 view .LVU32
 159 002e 3046     		mov	r0, r6
 160 0030 FFF7FEFF 		bl	lv_label_get_text
 161              	.LVL14:
 162 0034 0146     		mov	r1, r0
 163              	.LVL15:
 748:Middlewares/lvgl/src/widgets/lv_roller.c ****     lv_txt_get_size(&size, txt, font, letter_space, 0, LV_COORD_MAX,  LV_TEXT_FLAG_NONE);
 164              		.loc 1 748 5 is_stmt 1 view .LVU33
 749:Middlewares/lvgl/src/widgets/lv_roller.c ****     return size.x;
 165              		.loc 1 749 5 view .LVU34
 166 0036 0023     		movs	r3, #0
 167 0038 0293     		str	r3, [sp, #8]
 168 003a 4FF4C042 		mov	r2, #24576
 169 003e 0192     		str	r2, [sp, #4]
 170 0040 0093     		str	r3, [sp]
 171 0042 2346     		mov	r3, r4
 172 0044 2A46     		mov	r2, r5
 173 0046 05A8     		add	r0, sp, #20
 174              	.LVL16:
 749:Middlewares/lvgl/src/widgets/lv_roller.c ****     return size.x;
 175              		.loc 1 749 5 is_stmt 0 view .LVU35
 176 0048 FFF7FEFF 		bl	lv_txt_get_size
 177              	.LVL17:
 750:Middlewares/lvgl/src/widgets/lv_roller.c **** }
 178              		.loc 1 750 5 is_stmt 1 view .LVU36
 750:Middlewares/lvgl/src/widgets/lv_roller.c **** }
 179              		.loc 1 750 16 is_stmt 0 view .LVU37
 180 004c BDF91400 		ldrsh	r0, [sp, #20]
 181              	.LVL18:
 182              	.L6:
 751:Middlewares/lvgl/src/widgets/lv_roller.c **** 
 183              		.loc 1 751 1 view .LVU38
 184 0050 06B0     		add	sp, sp, #24
 185              	.LCFI4:
 186              		.cfi_remember_state
 187              		.cfi_def_cfa_offset 16
 188              		@ sp needed
 189 0052 70BD     		pop	{r4, r5, r6, pc}
 190              	.LVL19:
 191              	.L7:
 192              	.LCFI5:
ARM GAS  /tmp/cc9MIr9f.s 			page 24


 193              		.cfi_restore_state
 743:Middlewares/lvgl/src/widgets/lv_roller.c **** 
 194              		.loc 1 743 30 view .LVU39
 195 0054 0020     		movs	r0, #0
 196              	.LVL20:
 743:Middlewares/lvgl/src/widgets/lv_roller.c **** 
 197              		.loc 1 743 30 view .LVU40
 198 0056 FBE7     		b	.L6
 199              		.cfi_endproc
 200              	.LFE164:
 202              		.section	.text.inf_normalize,"ax",%progbits
 203              		.align	1
 204              		.syntax unified
 205              		.thumb
 206              		.thumb_func
 207              		.fpu fpv4-sp-d16
 209              	inf_normalize:
 210              	.LVL21:
 211              	.LFB162:
 707:Middlewares/lvgl/src/widgets/lv_roller.c ****     lv_roller_t * roller = (lv_roller_t*)obj;
 212              		.loc 1 707 1 is_stmt 1 view -0
 213              		.cfi_startproc
 214              		@ args = 0, pretend = 0, frame = 0
 215              		@ frame_needed = 0, uses_anonymous_args = 0
 707:Middlewares/lvgl/src/widgets/lv_roller.c ****     lv_roller_t * roller = (lv_roller_t*)obj;
 216              		.loc 1 707 1 is_stmt 0 view .LVU42
 217 0000 F8B5     		push	{r3, r4, r5, r6, r7, lr}
 218              	.LCFI6:
 219              		.cfi_def_cfa_offset 24
 220              		.cfi_offset 3, -24
 221              		.cfi_offset 4, -20
 222              		.cfi_offset 5, -16
 223              		.cfi_offset 6, -12
 224              		.cfi_offset 7, -8
 225              		.cfi_offset 14, -4
 708:Middlewares/lvgl/src/widgets/lv_roller.c **** 
 226              		.loc 1 708 5 is_stmt 1 view .LVU43
 227              	.LVL22:
 710:Middlewares/lvgl/src/widgets/lv_roller.c ****         uint16_t real_id_cnt = roller->option_cnt / LV_ROLLER_INF_PAGES;
 228              		.loc 1 710 5 view .LVU44
 710:Middlewares/lvgl/src/widgets/lv_roller.c ****         uint16_t real_id_cnt = roller->option_cnt / LV_ROLLER_INF_PAGES;
 229              		.loc 1 710 21 is_stmt 0 view .LVU45
 230 0002 90F82A30 		ldrb	r3, [r0, #42]	@ zero_extendqisi2
 710:Middlewares/lvgl/src/widgets/lv_roller.c ****         uint16_t real_id_cnt = roller->option_cnt / LV_ROLLER_INF_PAGES;
 231              		.loc 1 710 7 view .LVU46
 232 0006 13F0010F 		tst	r3, #1
 233 000a 00D1     		bne	.L12
 234              	.LVL23:
 235              	.L9:
 732:Middlewares/lvgl/src/widgets/lv_roller.c **** 
 236              		.loc 1 732 1 view .LVU47
 237 000c F8BD     		pop	{r3, r4, r5, r6, r7, pc}
 238              	.LVL24:
 239              	.L12:
 732:Middlewares/lvgl/src/widgets/lv_roller.c **** 
 240              		.loc 1 732 1 view .LVU48
 241 000e 0446     		mov	r4, r0
ARM GAS  /tmp/cc9MIr9f.s 			page 25


 242              	.LBB78:
 711:Middlewares/lvgl/src/widgets/lv_roller.c ****         roller->sel_opt_id = roller->sel_opt_id % real_id_cnt;
 243              		.loc 1 711 9 is_stmt 1 view .LVU49
 711:Middlewares/lvgl/src/widgets/lv_roller.c ****         roller->sel_opt_id = roller->sel_opt_id % real_id_cnt;
 244              		.loc 1 711 38 is_stmt 0 view .LVU50
 245 0010 828C     		ldrh	r2, [r0, #36]
 711:Middlewares/lvgl/src/widgets/lv_roller.c ****         roller->sel_opt_id = roller->sel_opt_id % real_id_cnt;
 246              		.loc 1 711 18 view .LVU51
 247 0012 234B     		ldr	r3, .L13
 248 0014 A3FB0213 		umull	r1, r3, r3, r2
 249 0018 D21A     		subs	r2, r2, r3
 250 001a 03EB5203 		add	r3, r3, r2, lsr #1
 251 001e C3F38F02 		ubfx	r2, r3, #2, #16
 252              	.LVL25:
 712:Middlewares/lvgl/src/widgets/lv_roller.c ****         roller->sel_opt_id += (LV_ROLLER_INF_PAGES / 2) * real_id_cnt; /*Select the middle page*/
 253              		.loc 1 712 9 is_stmt 1 view .LVU52
 712:Middlewares/lvgl/src/widgets/lv_roller.c ****         roller->sel_opt_id += (LV_ROLLER_INF_PAGES / 2) * real_id_cnt; /*Select the middle page*/
 254              		.loc 1 712 36 is_stmt 0 view .LVU53
 255 0022 C38C     		ldrh	r3, [r0, #38]
 712:Middlewares/lvgl/src/widgets/lv_roller.c ****         roller->sel_opt_id += (LV_ROLLER_INF_PAGES / 2) * real_id_cnt; /*Select the middle page*/
 256              		.loc 1 712 28 view .LVU54
 257 0024 B3FBF2F1 		udiv	r1, r3, r2
 258 0028 02FB1133 		mls	r3, r2, r1, r3
 259 002c 9BB2     		uxth	r3, r3
 260 002e C384     		strh	r3, [r0, #38]	@ movhi
 713:Middlewares/lvgl/src/widgets/lv_roller.c **** 
 261              		.loc 1 713 9 is_stmt 1 view .LVU55
 713:Middlewares/lvgl/src/widgets/lv_roller.c **** 
 262              		.loc 1 713 28 is_stmt 0 view .LVU56
 263 0030 02EB4201 		add	r1, r2, r2, lsl #1
 264 0034 89B2     		uxth	r1, r1
 265 0036 0B44     		add	r3, r3, r1
 266 0038 9BB2     		uxth	r3, r3
 267 003a C384     		strh	r3, [r0, #38]	@ movhi
 715:Middlewares/lvgl/src/widgets/lv_roller.c ****         roller->sel_opt_id_ori += (LV_ROLLER_INF_PAGES / 2) * real_id_cnt; /*Select the middle page
 268              		.loc 1 715 9 is_stmt 1 view .LVU57
 715:Middlewares/lvgl/src/widgets/lv_roller.c ****         roller->sel_opt_id_ori += (LV_ROLLER_INF_PAGES / 2) * real_id_cnt; /*Select the middle page
 269              		.loc 1 715 32 is_stmt 0 view .LVU58
 270 003c B3FBF2F0 		udiv	r0, r3, r2
 271              	.LVL26:
 715:Middlewares/lvgl/src/widgets/lv_roller.c ****         roller->sel_opt_id_ori += (LV_ROLLER_INF_PAGES / 2) * real_id_cnt; /*Select the middle page
 272              		.loc 1 715 32 view .LVU59
 273 0040 02FB1033 		mls	r3, r2, r0, r3
 274 0044 9BB2     		uxth	r3, r3
 275 0046 2385     		strh	r3, [r4, #40]	@ movhi
 716:Middlewares/lvgl/src/widgets/lv_roller.c **** 
 276              		.loc 1 716 9 is_stmt 1 view .LVU60
 716:Middlewares/lvgl/src/widgets/lv_roller.c **** 
 277              		.loc 1 716 32 is_stmt 0 view .LVU61
 278 0048 0B44     		add	r3, r3, r1
 279 004a 2385     		strh	r3, [r4, #40]	@ movhi
 719:Middlewares/lvgl/src/widgets/lv_roller.c ****         lv_coord_t line_space = lv_obj_get_style_text_line_space(obj, LV_PART_MAIN);
 280              		.loc 1 719 9 is_stmt 1 view .LVU62
 281              	.LVL27:
 282              	.LBB79:
 283              	.LBI79:
 331:Middlewares/lvgl/src/widgets/../core/lv_obj_style_gen.h **** {
ARM GAS  /tmp/cc9MIr9f.s 			page 26


 284              		.loc 2 331 33 view .LVU63
 285              	.LBB80:
 333:Middlewares/lvgl/src/widgets/../core/lv_obj_style_gen.h ****     return (const lv_font_t *)v.ptr;
 286              		.loc 2 333 5 view .LVU64
 333:Middlewares/lvgl/src/widgets/../core/lv_obj_style_gen.h ****     return (const lv_font_t *)v.ptr;
 287              		.loc 2 333 26 is_stmt 0 view .LVU65
 288 004c 41F25942 		movw	r2, #5209
 289              	.LVL28:
 333:Middlewares/lvgl/src/widgets/../core/lv_obj_style_gen.h ****     return (const lv_font_t *)v.ptr;
 290              		.loc 2 333 26 view .LVU66
 291 0050 0021     		movs	r1, #0
 292 0052 2046     		mov	r0, r4
 293 0054 FFF7FEFF 		bl	lv_obj_get_style_prop
 294              	.LVL29:
 333:Middlewares/lvgl/src/widgets/../core/lv_obj_style_gen.h ****     return (const lv_font_t *)v.ptr;
 295              		.loc 2 333 26 view .LVU67
 296 0058 0546     		mov	r5, r0
 297              	.LVL30:
 334:Middlewares/lvgl/src/widgets/../core/lv_obj_style_gen.h **** }
 298              		.loc 2 334 5 is_stmt 1 view .LVU68
 334:Middlewares/lvgl/src/widgets/../core/lv_obj_style_gen.h **** }
 299              		.loc 2 334 5 is_stmt 0 view .LVU69
 300              	.LBE80:
 301              	.LBE79:
 720:Middlewares/lvgl/src/widgets/lv_roller.c ****         lv_coord_t font_h              = lv_font_get_line_height(font);
 302              		.loc 1 720 9 is_stmt 1 view .LVU70
 303              	.LBB81:
 304              	.LBI81:
 341:Middlewares/lvgl/src/widgets/../core/lv_obj_style_gen.h **** }
 342:Middlewares/lvgl/src/widgets/../core/lv_obj_style_gen.h **** 
 343:Middlewares/lvgl/src/widgets/../core/lv_obj_style_gen.h **** static inline lv_coord_t lv_obj_get_style_text_line_space(const struct _lv_obj_t * obj, uint32_t pa
 305              		.loc 2 343 26 view .LVU71
 306              	.LBB82:
 344:Middlewares/lvgl/src/widgets/../core/lv_obj_style_gen.h **** {
 345:Middlewares/lvgl/src/widgets/../core/lv_obj_style_gen.h ****     lv_style_value_t v = lv_obj_get_style_prop(obj, part, LV_STYLE_TEXT_LINE_SPACE);
 307              		.loc 2 345 5 view .LVU72
 308              		.loc 2 345 26 is_stmt 0 view .LVU73
 309 005a 41F25B42 		movw	r2, #5211
 310 005e 0021     		movs	r1, #0
 311 0060 2046     		mov	r0, r4
 312              	.LVL31:
 313              		.loc 2 345 26 view .LVU74
 314 0062 FFF7FEFF 		bl	lv_obj_get_style_prop
 315              	.LVL32:
 346:Middlewares/lvgl/src/widgets/../core/lv_obj_style_gen.h ****     return (lv_coord_t)v.num;
 316              		.loc 2 346 5 is_stmt 1 view .LVU75
 317              		.loc 2 346 12 is_stmt 0 view .LVU76
 318 0066 06B2     		sxth	r6, r0
 319              	.LVL33:
 320              		.loc 2 346 12 view .LVU77
 321              	.LBE82:
 322              	.LBE81:
 721:Middlewares/lvgl/src/widgets/lv_roller.c ****         lv_coord_t h                   = lv_obj_get_content_height(obj);
 323              		.loc 1 721 9 is_stmt 1 view .LVU78
 324              	.LBB83:
 325              	.LBI83:
 326              		.file 3 "Middlewares/lvgl/src/widgets/../core/../misc/../font/lv_font.h"
ARM GAS  /tmp/cc9MIr9f.s 			page 27


   1:Middlewares/lvgl/src/widgets/../core/../misc/../font/lv_font.h **** /**
   2:Middlewares/lvgl/src/widgets/../core/../misc/../font/lv_font.h ****  * @file lv_font.h
   3:Middlewares/lvgl/src/widgets/../core/../misc/../font/lv_font.h ****  *
   4:Middlewares/lvgl/src/widgets/../core/../misc/../font/lv_font.h ****  */
   5:Middlewares/lvgl/src/widgets/../core/../misc/../font/lv_font.h **** 
   6:Middlewares/lvgl/src/widgets/../core/../misc/../font/lv_font.h **** #ifndef LV_FONT_H
   7:Middlewares/lvgl/src/widgets/../core/../misc/../font/lv_font.h **** #define LV_FONT_H
   8:Middlewares/lvgl/src/widgets/../core/../misc/../font/lv_font.h **** 
   9:Middlewares/lvgl/src/widgets/../core/../misc/../font/lv_font.h **** #ifdef __cplusplus
  10:Middlewares/lvgl/src/widgets/../core/../misc/../font/lv_font.h **** extern "C" {
  11:Middlewares/lvgl/src/widgets/../core/../misc/../font/lv_font.h **** #endif
  12:Middlewares/lvgl/src/widgets/../core/../misc/../font/lv_font.h **** 
  13:Middlewares/lvgl/src/widgets/../core/../misc/../font/lv_font.h **** /*********************
  14:Middlewares/lvgl/src/widgets/../core/../misc/../font/lv_font.h ****  *      INCLUDES
  15:Middlewares/lvgl/src/widgets/../core/../misc/../font/lv_font.h ****  *********************/
  16:Middlewares/lvgl/src/widgets/../core/../misc/../font/lv_font.h **** #include "../lv_conf_internal.h"
  17:Middlewares/lvgl/src/widgets/../core/../misc/../font/lv_font.h **** #include <stdint.h>
  18:Middlewares/lvgl/src/widgets/../core/../misc/../font/lv_font.h **** #include <stddef.h>
  19:Middlewares/lvgl/src/widgets/../core/../misc/../font/lv_font.h **** #include <stdbool.h>
  20:Middlewares/lvgl/src/widgets/../core/../misc/../font/lv_font.h **** 
  21:Middlewares/lvgl/src/widgets/../core/../misc/../font/lv_font.h **** #include "lv_symbol_def.h"
  22:Middlewares/lvgl/src/widgets/../core/../misc/../font/lv_font.h **** #include "../misc/lv_area.h"
  23:Middlewares/lvgl/src/widgets/../core/../misc/../font/lv_font.h **** 
  24:Middlewares/lvgl/src/widgets/../core/../misc/../font/lv_font.h **** /*********************
  25:Middlewares/lvgl/src/widgets/../core/../misc/../font/lv_font.h ****  *      DEFINES
  26:Middlewares/lvgl/src/widgets/../core/../misc/../font/lv_font.h ****  *********************/
  27:Middlewares/lvgl/src/widgets/../core/../misc/../font/lv_font.h **** 
  28:Middlewares/lvgl/src/widgets/../core/../misc/../font/lv_font.h **** /**********************
  29:Middlewares/lvgl/src/widgets/../core/../misc/../font/lv_font.h ****  *      TYPEDEFS
  30:Middlewares/lvgl/src/widgets/../core/../misc/../font/lv_font.h ****  **********************/
  31:Middlewares/lvgl/src/widgets/../core/../misc/../font/lv_font.h **** 
  32:Middlewares/lvgl/src/widgets/../core/../misc/../font/lv_font.h **** /*------------------
  33:Middlewares/lvgl/src/widgets/../core/../misc/../font/lv_font.h ****  * General types
  34:Middlewares/lvgl/src/widgets/../core/../misc/../font/lv_font.h ****  *-----------------*/
  35:Middlewares/lvgl/src/widgets/../core/../misc/../font/lv_font.h **** 
  36:Middlewares/lvgl/src/widgets/../core/../misc/../font/lv_font.h **** /** Describes the properties of a glyph.*/
  37:Middlewares/lvgl/src/widgets/../core/../misc/../font/lv_font.h **** typedef struct {
  38:Middlewares/lvgl/src/widgets/../core/../misc/../font/lv_font.h ****     uint16_t adv_w; /**< The glyph needs this space. Draw the next glyph after this width.*/
  39:Middlewares/lvgl/src/widgets/../core/../misc/../font/lv_font.h ****     uint16_t box_w;  /**< Width of the glyph's bounding box*/
  40:Middlewares/lvgl/src/widgets/../core/../misc/../font/lv_font.h ****     uint16_t box_h;  /**< Height of the glyph's bounding box*/
  41:Middlewares/lvgl/src/widgets/../core/../misc/../font/lv_font.h ****     int16_t ofs_x;   /**< x offset of the bounding box*/
  42:Middlewares/lvgl/src/widgets/../core/../misc/../font/lv_font.h ****     int16_t ofs_y;  /**< y offset of the bounding box*/
  43:Middlewares/lvgl/src/widgets/../core/../misc/../font/lv_font.h ****     uint8_t bpp;   /**< Bit-per-pixel: 1, 2, 4, 8*/
  44:Middlewares/lvgl/src/widgets/../core/../misc/../font/lv_font.h **** } lv_font_glyph_dsc_t;
  45:Middlewares/lvgl/src/widgets/../core/../misc/../font/lv_font.h **** 
  46:Middlewares/lvgl/src/widgets/../core/../misc/../font/lv_font.h **** /** The bitmaps might be upscaled by 3 to achieve subpixel rendering.*/
  47:Middlewares/lvgl/src/widgets/../core/../misc/../font/lv_font.h **** enum {
  48:Middlewares/lvgl/src/widgets/../core/../misc/../font/lv_font.h ****     LV_FONT_SUBPX_NONE,
  49:Middlewares/lvgl/src/widgets/../core/../misc/../font/lv_font.h ****     LV_FONT_SUBPX_HOR,
  50:Middlewares/lvgl/src/widgets/../core/../misc/../font/lv_font.h ****     LV_FONT_SUBPX_VER,
  51:Middlewares/lvgl/src/widgets/../core/../misc/../font/lv_font.h ****     LV_FONT_SUBPX_BOTH,
  52:Middlewares/lvgl/src/widgets/../core/../misc/../font/lv_font.h **** };
  53:Middlewares/lvgl/src/widgets/../core/../misc/../font/lv_font.h **** 
  54:Middlewares/lvgl/src/widgets/../core/../misc/../font/lv_font.h **** typedef uint8_t lv_font_subpx_t;
  55:Middlewares/lvgl/src/widgets/../core/../misc/../font/lv_font.h **** 
  56:Middlewares/lvgl/src/widgets/../core/../misc/../font/lv_font.h **** struct _lv_font_t;
  57:Middlewares/lvgl/src/widgets/../core/../misc/../font/lv_font.h **** 
ARM GAS  /tmp/cc9MIr9f.s 			page 28


  58:Middlewares/lvgl/src/widgets/../core/../misc/../font/lv_font.h **** /** Describe the properties of a font*/
  59:Middlewares/lvgl/src/widgets/../core/../misc/../font/lv_font.h **** typedef struct _lv_font_t {
  60:Middlewares/lvgl/src/widgets/../core/../misc/../font/lv_font.h ****     /** Get a glyph's descriptor from a font*/
  61:Middlewares/lvgl/src/widgets/../core/../misc/../font/lv_font.h ****     bool (*get_glyph_dsc)(const struct _lv_font_t *, lv_font_glyph_dsc_t *, uint32_t letter, uint32
  62:Middlewares/lvgl/src/widgets/../core/../misc/../font/lv_font.h **** 
  63:Middlewares/lvgl/src/widgets/../core/../misc/../font/lv_font.h ****     /** Get a glyph's bitmap from a font*/
  64:Middlewares/lvgl/src/widgets/../core/../misc/../font/lv_font.h ****     const uint8_t * (*get_glyph_bitmap)(const struct _lv_font_t *, uint32_t);
  65:Middlewares/lvgl/src/widgets/../core/../misc/../font/lv_font.h **** 
  66:Middlewares/lvgl/src/widgets/../core/../misc/../font/lv_font.h ****     /*Pointer to the font in a font pack (must have the same line height)*/
  67:Middlewares/lvgl/src/widgets/../core/../misc/../font/lv_font.h ****     lv_coord_t line_height;         /**< The real line height where any text fits*/
  68:Middlewares/lvgl/src/widgets/../core/../misc/../font/lv_font.h ****     lv_coord_t base_line;           /**< Base line measured from the top of the line_height*/
  69:Middlewares/lvgl/src/widgets/../core/../misc/../font/lv_font.h ****     uint8_t subpx  : 2;             /**< An element of `lv_font_subpx_t`*/
  70:Middlewares/lvgl/src/widgets/../core/../misc/../font/lv_font.h **** 
  71:Middlewares/lvgl/src/widgets/../core/../misc/../font/lv_font.h ****     int8_t underline_position;      /**< Distance between the top of the underline and base line (<
  72:Middlewares/lvgl/src/widgets/../core/../misc/../font/lv_font.h ****     int8_t underline_thickness;     /**< Thickness of the underline*/
  73:Middlewares/lvgl/src/widgets/../core/../misc/../font/lv_font.h **** 
  74:Middlewares/lvgl/src/widgets/../core/../misc/../font/lv_font.h ****     const void * dsc;                     /**< Store implementation specific or run_time data or ca
  75:Middlewares/lvgl/src/widgets/../core/../misc/../font/lv_font.h **** #if LV_USE_USER_DATA
  76:Middlewares/lvgl/src/widgets/../core/../misc/../font/lv_font.h ****     void * user_data;               /**< Custom user data for font.*/
  77:Middlewares/lvgl/src/widgets/../core/../misc/../font/lv_font.h **** #endif
  78:Middlewares/lvgl/src/widgets/../core/../misc/../font/lv_font.h **** 
  79:Middlewares/lvgl/src/widgets/../core/../misc/../font/lv_font.h **** } lv_font_t;
  80:Middlewares/lvgl/src/widgets/../core/../misc/../font/lv_font.h **** 
  81:Middlewares/lvgl/src/widgets/../core/../misc/../font/lv_font.h **** /**********************
  82:Middlewares/lvgl/src/widgets/../core/../misc/../font/lv_font.h ****  * GLOBAL PROTOTYPES
  83:Middlewares/lvgl/src/widgets/../core/../misc/../font/lv_font.h ****  **********************/
  84:Middlewares/lvgl/src/widgets/../core/../misc/../font/lv_font.h **** 
  85:Middlewares/lvgl/src/widgets/../core/../misc/../font/lv_font.h **** /**
  86:Middlewares/lvgl/src/widgets/../core/../misc/../font/lv_font.h ****  * Return with the bitmap of a font.
  87:Middlewares/lvgl/src/widgets/../core/../misc/../font/lv_font.h ****  * @param font_p pointer to a font
  88:Middlewares/lvgl/src/widgets/../core/../misc/../font/lv_font.h ****  * @param letter an UNICODE character code
  89:Middlewares/lvgl/src/widgets/../core/../misc/../font/lv_font.h ****  * @return pointer to the bitmap of the letter
  90:Middlewares/lvgl/src/widgets/../core/../misc/../font/lv_font.h ****  */
  91:Middlewares/lvgl/src/widgets/../core/../misc/../font/lv_font.h **** const uint8_t * lv_font_get_glyph_bitmap(const lv_font_t * font_p, uint32_t letter);
  92:Middlewares/lvgl/src/widgets/../core/../misc/../font/lv_font.h **** 
  93:Middlewares/lvgl/src/widgets/../core/../misc/../font/lv_font.h **** /**
  94:Middlewares/lvgl/src/widgets/../core/../misc/../font/lv_font.h ****  * Get the descriptor of a glyph
  95:Middlewares/lvgl/src/widgets/../core/../misc/../font/lv_font.h ****  * @param font_p pointer to font
  96:Middlewares/lvgl/src/widgets/../core/../misc/../font/lv_font.h ****  * @param dsc_out store the result descriptor here
  97:Middlewares/lvgl/src/widgets/../core/../misc/../font/lv_font.h ****  * @param letter an UNICODE letter code
  98:Middlewares/lvgl/src/widgets/../core/../misc/../font/lv_font.h ****  * @return true: descriptor is successfully loaded into `dsc_out`.
  99:Middlewares/lvgl/src/widgets/../core/../misc/../font/lv_font.h ****  *         false: the letter was not found, no data is loaded to `dsc_out`
 100:Middlewares/lvgl/src/widgets/../core/../misc/../font/lv_font.h ****  */
 101:Middlewares/lvgl/src/widgets/../core/../misc/../font/lv_font.h **** bool lv_font_get_glyph_dsc(const lv_font_t * font_p, lv_font_glyph_dsc_t * dsc_out, uint32_t letter
 102:Middlewares/lvgl/src/widgets/../core/../misc/../font/lv_font.h ****                            uint32_t letter_next);
 103:Middlewares/lvgl/src/widgets/../core/../misc/../font/lv_font.h **** 
 104:Middlewares/lvgl/src/widgets/../core/../misc/../font/lv_font.h **** /**
 105:Middlewares/lvgl/src/widgets/../core/../misc/../font/lv_font.h ****  * Get the width of a glyph with kerning
 106:Middlewares/lvgl/src/widgets/../core/../misc/../font/lv_font.h ****  * @param font pointer to a font
 107:Middlewares/lvgl/src/widgets/../core/../misc/../font/lv_font.h ****  * @param letter an UNICODE letter
 108:Middlewares/lvgl/src/widgets/../core/../misc/../font/lv_font.h ****  * @param letter_next the next letter after `letter`. Used for kerning
 109:Middlewares/lvgl/src/widgets/../core/../misc/../font/lv_font.h ****  * @return the width of the glyph
 110:Middlewares/lvgl/src/widgets/../core/../misc/../font/lv_font.h ****  */
 111:Middlewares/lvgl/src/widgets/../core/../misc/../font/lv_font.h **** uint16_t lv_font_get_glyph_width(const lv_font_t * font, uint32_t letter, uint32_t letter_next);
 112:Middlewares/lvgl/src/widgets/../core/../misc/../font/lv_font.h **** 
 113:Middlewares/lvgl/src/widgets/../core/../misc/../font/lv_font.h **** /**
 114:Middlewares/lvgl/src/widgets/../core/../misc/../font/lv_font.h ****  * Get the line height of a font. All characters fit into this height
ARM GAS  /tmp/cc9MIr9f.s 			page 29


 115:Middlewares/lvgl/src/widgets/../core/../misc/../font/lv_font.h ****  * @param font_p pointer to a font
 116:Middlewares/lvgl/src/widgets/../core/../misc/../font/lv_font.h ****  * @return the height of a font
 117:Middlewares/lvgl/src/widgets/../core/../misc/../font/lv_font.h ****  */
 118:Middlewares/lvgl/src/widgets/../core/../misc/../font/lv_font.h **** static inline lv_coord_t lv_font_get_line_height(const lv_font_t * font_p)
 327              		.loc 3 118 26 view .LVU79
 328              	.LBB84:
 119:Middlewares/lvgl/src/widgets/../core/../misc/../font/lv_font.h **** {
 120:Middlewares/lvgl/src/widgets/../core/../misc/../font/lv_font.h ****     return font_p->line_height;
 329              		.loc 3 120 5 view .LVU80
 330              		.loc 3 120 18 is_stmt 0 view .LVU81
 331 0068 B5F90850 		ldrsh	r5, [r5, #8]
 332              	.LVL34:
 333              		.loc 3 120 18 view .LVU82
 334              	.LBE84:
 335              	.LBE83:
 722:Middlewares/lvgl/src/widgets/lv_roller.c **** 
 336              		.loc 1 722 9 is_stmt 1 view .LVU83
 722:Middlewares/lvgl/src/widgets/lv_roller.c **** 
 337              		.loc 1 722 42 is_stmt 0 view .LVU84
 338 006c 2046     		mov	r0, r4
 339 006e FFF7FEFF 		bl	lv_obj_get_content_height
 340              	.LVL35:
 341 0072 0746     		mov	r7, r0
 342              	.LVL36:
 724:Middlewares/lvgl/src/widgets/lv_roller.c **** 
 343              		.loc 1 724 9 is_stmt 1 view .LVU85
 724:Middlewares/lvgl/src/widgets/lv_roller.c **** 
 344              		.loc 1 724 28 is_stmt 0 view .LVU86
 345 0074 2046     		mov	r0, r4
 346 0076 FFF7FEFF 		bl	get_label
 347              	.LVL37:
 727:Middlewares/lvgl/src/widgets/lv_roller.c ****         lv_coord_t mid_y1 = h / 2 - font_h / 2;
 348              		.loc 1 727 9 is_stmt 1 view .LVU87
 727:Middlewares/lvgl/src/widgets/lv_roller.c ****         lv_coord_t mid_y1 = h / 2 - font_h / 2;
 349              		.loc 1 727 35 is_stmt 0 view .LVU88
 350 007a E18C     		ldrh	r1, [r4, #38]
 727:Middlewares/lvgl/src/widgets/lv_roller.c ****         lv_coord_t mid_y1 = h / 2 - font_h / 2;
 351              		.loc 1 727 58 view .LVU89
 352 007c 2E44     		add	r6, r6, r5
 353              	.LVL38:
 727:Middlewares/lvgl/src/widgets/lv_roller.c ****         lv_coord_t mid_y1 = h / 2 - font_h / 2;
 354              		.loc 1 727 20 view .LVU90
 355 007e 16FB01F1 		smulbb	r1, r6, r1
 356 0082 8EB2     		uxth	r6, r1
 357              	.LVL39:
 728:Middlewares/lvgl/src/widgets/lv_roller.c ****         lv_coord_t new_y = mid_y1 - sel_y1;
 358              		.loc 1 728 9 is_stmt 1 view .LVU91
 728:Middlewares/lvgl/src/widgets/lv_roller.c ****         lv_coord_t new_y = mid_y1 - sel_y1;
 359              		.loc 1 728 35 is_stmt 0 view .LVU92
 360 0084 07EBD777 		add	r7, r7, r7, lsr #31
 361              	.LVL40:
 728:Middlewares/lvgl/src/widgets/lv_roller.c ****         lv_coord_t new_y = mid_y1 - sel_y1;
 362              		.loc 1 728 35 view .LVU93
 363 0088 05EBD575 		add	r5, r5, r5, lsr #31
 364              	.LVL41:
 728:Middlewares/lvgl/src/widgets/lv_roller.c ****         lv_coord_t new_y = mid_y1 - sel_y1;
 365              		.loc 1 728 35 view .LVU94
ARM GAS  /tmp/cc9MIr9f.s 			page 30


 366 008c 6910     		asrs	r1, r5, #1
 367 008e C1EB6701 		rsb	r1, r1, r7, asr #1
 368 0092 89B2     		uxth	r1, r1
 369              	.LVL42:
 729:Middlewares/lvgl/src/widgets/lv_roller.c ****         lv_obj_set_y(label, new_y);
 370              		.loc 1 729 9 is_stmt 1 view .LVU95
 729:Middlewares/lvgl/src/widgets/lv_roller.c ****         lv_obj_set_y(label, new_y);
 371              		.loc 1 729 35 is_stmt 0 view .LVU96
 372 0094 891B     		subs	r1, r1, r6
 373              	.LVL43:
 730:Middlewares/lvgl/src/widgets/lv_roller.c ****     }
 374              		.loc 1 730 9 is_stmt 1 view .LVU97
 375 0096 09B2     		sxth	r1, r1
 730:Middlewares/lvgl/src/widgets/lv_roller.c ****     }
 376              		.loc 1 730 9 is_stmt 0 view .LVU98
 377 0098 FFF7FEFF 		bl	lv_obj_set_y
 378              	.LVL44:
 730:Middlewares/lvgl/src/widgets/lv_roller.c ****     }
 379              		.loc 1 730 9 view .LVU99
 380              	.LBE78:
 732:Middlewares/lvgl/src/widgets/lv_roller.c **** 
 381              		.loc 1 732 1 view .LVU100
 382 009c B6E7     		b	.L9
 383              	.L14:
 384 009e 00BF     		.align	2
 385              	.L13:
 386 00a0 25499224 		.word	613566757
 387              		.cfi_endproc
 388              	.LFE162:
 390              		.section	.text.refr_position,"ax",%progbits
 391              		.align	1
 392              		.syntax unified
 393              		.thumb
 394              		.thumb_func
 395              		.fpu fpv4-sp-d16
 397              	refr_position:
 398              	.LVL45:
 399              	.LFB160:
 572:Middlewares/lvgl/src/widgets/lv_roller.c ****     lv_obj_t * label = get_label(obj);
 400              		.loc 1 572 1 is_stmt 1 view -0
 401              		.cfi_startproc
 402              		@ args = 0, pretend = 0, frame = 72
 403              		@ frame_needed = 0, uses_anonymous_args = 0
 572:Middlewares/lvgl/src/widgets/lv_roller.c ****     lv_obj_t * label = get_label(obj);
 404              		.loc 1 572 1 is_stmt 0 view .LVU102
 405 0000 2DE9F04F 		push	{r4, r5, r6, r7, r8, r9, r10, fp, lr}
 406              	.LCFI7:
 407              		.cfi_def_cfa_offset 36
 408              		.cfi_offset 4, -36
 409              		.cfi_offset 5, -32
 410              		.cfi_offset 6, -28
 411              		.cfi_offset 7, -24
 412              		.cfi_offset 8, -20
 413              		.cfi_offset 9, -16
 414              		.cfi_offset 10, -12
 415              		.cfi_offset 11, -8
 416              		.cfi_offset 14, -4
ARM GAS  /tmp/cc9MIr9f.s 			page 31


 417 0004 93B0     		sub	sp, sp, #76
 418              	.LCFI8:
 419              		.cfi_def_cfa_offset 112
 420 0006 8146     		mov	r9, r0
 421 0008 0D46     		mov	r5, r1
 573:Middlewares/lvgl/src/widgets/lv_roller.c ****     if(label == NULL) return;
 422              		.loc 1 573 5 is_stmt 1 view .LVU103
 573:Middlewares/lvgl/src/widgets/lv_roller.c ****     if(label == NULL) return;
 423              		.loc 1 573 24 is_stmt 0 view .LVU104
 424 000a FFF7FEFF 		bl	get_label
 425              	.LVL46:
 574:Middlewares/lvgl/src/widgets/lv_roller.c **** 
 426              		.loc 1 574 5 is_stmt 1 view .LVU105
 574:Middlewares/lvgl/src/widgets/lv_roller.c **** 
 427              		.loc 1 574 7 is_stmt 0 view .LVU106
 428 000e 0028     		cmp	r0, #0
 429 0010 4BD0     		beq	.L15
 430 0012 0646     		mov	r6, r0
 576:Middlewares/lvgl/src/widgets/lv_roller.c ****     if(align == LV_TEXT_ALIGN_AUTO) {
 431              		.loc 1 576 5 is_stmt 1 view .LVU107
 432              	.LVL47:
 433              	.LBB85:
 434              	.LBI85:
 347:Middlewares/lvgl/src/widgets/../core/lv_obj_style_gen.h **** }
 348:Middlewares/lvgl/src/widgets/../core/lv_obj_style_gen.h **** 
 349:Middlewares/lvgl/src/widgets/../core/lv_obj_style_gen.h **** static inline lv_text_decor_t lv_obj_get_style_text_decor(const struct _lv_obj_t * obj, uint32_t pa
 350:Middlewares/lvgl/src/widgets/../core/lv_obj_style_gen.h **** {
 351:Middlewares/lvgl/src/widgets/../core/lv_obj_style_gen.h ****     lv_style_value_t v = lv_obj_get_style_prop(obj, part, LV_STYLE_TEXT_DECOR);
 352:Middlewares/lvgl/src/widgets/../core/lv_obj_style_gen.h ****     return (lv_text_decor_t)v.num;
 353:Middlewares/lvgl/src/widgets/../core/lv_obj_style_gen.h **** }
 354:Middlewares/lvgl/src/widgets/../core/lv_obj_style_gen.h **** 
 355:Middlewares/lvgl/src/widgets/../core/lv_obj_style_gen.h **** static inline lv_text_align_t lv_obj_get_style_text_align(const struct _lv_obj_t * obj, uint32_t pa
 435              		.loc 2 355 31 view .LVU108
 436              	.LBB86:
 356:Middlewares/lvgl/src/widgets/../core/lv_obj_style_gen.h **** {
 357:Middlewares/lvgl/src/widgets/../core/lv_obj_style_gen.h ****     lv_style_value_t v = lv_obj_get_style_prop(obj, part, LV_STYLE_TEXT_ALIGN);
 437              		.loc 2 357 5 view .LVU109
 438              		.loc 2 357 26 is_stmt 0 view .LVU110
 439 0014 41F25D42 		movw	r2, #5213
 440 0018 0021     		movs	r1, #0
 441 001a FFF7FEFF 		bl	lv_obj_get_style_prop
 442              	.LVL48:
 358:Middlewares/lvgl/src/widgets/../core/lv_obj_style_gen.h ****     return (lv_text_align_t)v.num;
 443              		.loc 2 358 5 is_stmt 1 view .LVU111
 444              		.loc 2 358 5 is_stmt 0 view .LVU112
 445              	.LBE86:
 446              	.LBE85:
 577:Middlewares/lvgl/src/widgets/lv_roller.c ****         if(lv_obj_get_style_base_dir(obj, LV_PART_MAIN) == LV_BASE_DIR_RTL) align = LV_TEXT_ALIGN_R
 447              		.loc 1 577 5 is_stmt 1 view .LVU113
 577:Middlewares/lvgl/src/widgets/lv_roller.c ****         if(lv_obj_get_style_base_dir(obj, LV_PART_MAIN) == LV_BASE_DIR_RTL) align = LV_TEXT_ALIGN_R
 448              		.loc 1 577 7 is_stmt 0 view .LVU114
 449 001e 10F0FF00 		ands	r0, r0, #255
 450              	.LVL49:
 577:Middlewares/lvgl/src/widgets/lv_roller.c ****         if(lv_obj_get_style_base_dir(obj, LV_PART_MAIN) == LV_BASE_DIR_RTL) align = LV_TEXT_ALIGN_R
 451              		.loc 1 577 7 view .LVU115
 452 0022 45D0     		beq	.L27
 453              	.LVL50:
ARM GAS  /tmp/cc9MIr9f.s 			page 32


 582:Middlewares/lvgl/src/widgets/lv_roller.c ****     case LV_TEXT_ALIGN_CENTER:
 454              		.loc 1 582 5 is_stmt 1 view .LVU116
 455 0024 0228     		cmp	r0, #2
 456 0026 51D0     		beq	.L20
 457 0028 0328     		cmp	r0, #3
 458 002a 5FD0     		beq	.L18
 459 002c 0128     		cmp	r0, #1
 460 002e 48D0     		beq	.L19
 461              	.LVL51:
 462              	.L21:
 594:Middlewares/lvgl/src/widgets/lv_roller.c ****     const lv_font_t * font = lv_obj_get_style_text_font(obj, LV_PART_MAIN);
 463              		.loc 1 594 5 view .LVU117
 595:Middlewares/lvgl/src/widgets/lv_roller.c ****     lv_coord_t line_space = lv_obj_get_style_text_line_space(obj, LV_PART_MAIN);
 464              		.loc 1 595 5 view .LVU118
 465              	.LBB87:
 466              	.LBI87:
 331:Middlewares/lvgl/src/widgets/../core/lv_obj_style_gen.h **** {
 467              		.loc 2 331 33 view .LVU119
 468              	.LBB88:
 333:Middlewares/lvgl/src/widgets/../core/lv_obj_style_gen.h ****     return (const lv_font_t *)v.ptr;
 469              		.loc 2 333 5 view .LVU120
 333:Middlewares/lvgl/src/widgets/../core/lv_obj_style_gen.h ****     return (const lv_font_t *)v.ptr;
 470              		.loc 2 333 26 is_stmt 0 view .LVU121
 471 0030 41F25942 		movw	r2, #5209
 472 0034 0021     		movs	r1, #0
 473 0036 4846     		mov	r0, r9
 474 0038 FFF7FEFF 		bl	lv_obj_get_style_prop
 475              	.LVL52:
 476 003c 0446     		mov	r4, r0
 477              	.LVL53:
 334:Middlewares/lvgl/src/widgets/../core/lv_obj_style_gen.h **** }
 478              		.loc 2 334 5 is_stmt 1 view .LVU122
 334:Middlewares/lvgl/src/widgets/../core/lv_obj_style_gen.h **** }
 479              		.loc 2 334 5 is_stmt 0 view .LVU123
 480              	.LBE88:
 481              	.LBE87:
 596:Middlewares/lvgl/src/widgets/lv_roller.c ****     lv_coord_t font_h              = lv_font_get_line_height(font);
 482              		.loc 1 596 5 is_stmt 1 view .LVU124
 483              	.LBB89:
 484              	.LBI89:
 343:Middlewares/lvgl/src/widgets/../core/lv_obj_style_gen.h **** {
 485              		.loc 2 343 26 view .LVU125
 486              	.LBB90:
 345:Middlewares/lvgl/src/widgets/../core/lv_obj_style_gen.h ****     return (lv_coord_t)v.num;
 487              		.loc 2 345 5 view .LVU126
 345:Middlewares/lvgl/src/widgets/../core/lv_obj_style_gen.h ****     return (lv_coord_t)v.num;
 488              		.loc 2 345 26 is_stmt 0 view .LVU127
 489 003e 41F25B42 		movw	r2, #5211
 490 0042 0021     		movs	r1, #0
 491 0044 4846     		mov	r0, r9
 492              	.LVL54:
 345:Middlewares/lvgl/src/widgets/../core/lv_obj_style_gen.h ****     return (lv_coord_t)v.num;
 493              		.loc 2 345 26 view .LVU128
 494 0046 FFF7FEFF 		bl	lv_obj_get_style_prop
 495              	.LVL55:
 346:Middlewares/lvgl/src/widgets/../core/lv_obj_style_gen.h **** }
 496              		.loc 2 346 5 is_stmt 1 view .LVU129
ARM GAS  /tmp/cc9MIr9f.s 			page 33


 346:Middlewares/lvgl/src/widgets/../core/lv_obj_style_gen.h **** }
 497              		.loc 2 346 12 is_stmt 0 view .LVU130
 498 004a 0FFA80FA 		sxth	r10, r0
 499              	.LVL56:
 346:Middlewares/lvgl/src/widgets/../core/lv_obj_style_gen.h **** }
 500              		.loc 2 346 12 view .LVU131
 501              	.LBE90:
 502              	.LBE89:
 597:Middlewares/lvgl/src/widgets/lv_roller.c ****     lv_coord_t h                   = lv_obj_get_content_height(obj);
 503              		.loc 1 597 5 is_stmt 1 view .LVU132
 504              	.LBB91:
 505              	.LBI91:
 118:Middlewares/lvgl/src/widgets/../core/../misc/../font/lv_font.h **** {
 506              		.loc 3 118 26 view .LVU133
 507              	.LBB92:
 508              		.loc 3 120 5 view .LVU134
 509              		.loc 3 120 18 is_stmt 0 view .LVU135
 510 004e B4F90840 		ldrsh	r4, [r4, #8]
 511              	.LVL57:
 512              		.loc 3 120 18 view .LVU136
 513              	.LBE92:
 514              	.LBE91:
 598:Middlewares/lvgl/src/widgets/lv_roller.c ****     uint16_t anim_time             = lv_obj_get_style_anim_time(obj, LV_PART_MAIN);
 515              		.loc 1 598 5 is_stmt 1 view .LVU137
 598:Middlewares/lvgl/src/widgets/lv_roller.c ****     uint16_t anim_time             = lv_obj_get_style_anim_time(obj, LV_PART_MAIN);
 516              		.loc 1 598 38 is_stmt 0 view .LVU138
 517 0052 4846     		mov	r0, r9
 518 0054 FFF7FEFF 		bl	lv_obj_get_content_height
 519              	.LVL58:
 520 0058 8346     		mov	fp, r0
 521              	.LVL59:
 599:Middlewares/lvgl/src/widgets/lv_roller.c **** 
 522              		.loc 1 599 5 is_stmt 1 view .LVU139
 523              	.LBB93:
 524              	.LBI93:
 157:Middlewares/lvgl/src/widgets/../core/lv_obj_style_gen.h **** {
 525              		.loc 2 157 24 view .LVU140
 526              	.LBB94:
 159:Middlewares/lvgl/src/widgets/../core/lv_obj_style_gen.h ****     return (uint32_t)v.num;
 527              		.loc 2 159 5 view .LVU141
 159:Middlewares/lvgl/src/widgets/../core/lv_obj_style_gen.h ****     return (uint32_t)v.num;
 528              		.loc 2 159 26 is_stmt 0 view .LVU142
 529 005a 6522     		movs	r2, #101
 530 005c 0021     		movs	r1, #0
 531 005e 4846     		mov	r0, r9
 532 0060 FFF7FEFF 		bl	lv_obj_get_style_prop
 533              	.LVL60:
 534 0064 8046     		mov	r8, r0
 160:Middlewares/lvgl/src/widgets/../core/lv_obj_style_gen.h **** }
 535              		.loc 2 160 5 is_stmt 1 view .LVU143
 536              	.LVL61:
 160:Middlewares/lvgl/src/widgets/../core/lv_obj_style_gen.h **** }
 537              		.loc 2 160 5 is_stmt 0 view .LVU144
 538              	.LBE94:
 539              	.LBE93:
 599:Middlewares/lvgl/src/widgets/lv_roller.c **** 
 540              		.loc 1 599 14 view .LVU145
ARM GAS  /tmp/cc9MIr9f.s 			page 34


 541 0066 87B2     		uxth	r7, r0
 542              	.LVL62:
 603:Middlewares/lvgl/src/widgets/lv_roller.c ****         inf_normalize(obj);
 543              		.loc 1 603 5 is_stmt 1 view .LVU146
 603:Middlewares/lvgl/src/widgets/lv_roller.c ****         inf_normalize(obj);
 544              		.loc 1 603 7 is_stmt 0 view .LVU147
 545 0068 05B1     		cbz	r5, .L22
 603:Middlewares/lvgl/src/widgets/lv_roller.c ****         inf_normalize(obj);
 546              		.loc 1 603 31 discriminator 1 view .LVU148
 547 006a 17B9     		cbnz	r7, .L23
 548              	.L22:
 604:Middlewares/lvgl/src/widgets/lv_roller.c ****     }
 549              		.loc 1 604 9 is_stmt 1 view .LVU149
 550 006c 4846     		mov	r0, r9
 551 006e FFF7FEFF 		bl	inf_normalize
 552              	.LVL63:
 553              	.L23:
 607:Middlewares/lvgl/src/widgets/lv_roller.c ****     lv_coord_t sel_y1 = id * (font_h + line_space);
 554              		.loc 1 607 5 view .LVU150
 607:Middlewares/lvgl/src/widgets/lv_roller.c ****     lv_coord_t sel_y1 = id * (font_h + line_space);
 555              		.loc 1 607 24 is_stmt 0 view .LVU151
 556 0072 B9F82630 		ldrh	r3, [r9, #38]
 557              	.LVL64:
 608:Middlewares/lvgl/src/widgets/lv_roller.c ****     lv_coord_t mid_y1 = h / 2 - font_h / 2;
 558              		.loc 1 608 5 is_stmt 1 view .LVU152
 608:Middlewares/lvgl/src/widgets/lv_roller.c ****     lv_coord_t mid_y1 = h / 2 - font_h / 2;
 559              		.loc 1 608 38 is_stmt 0 view .LVU153
 560 0076 A244     		add	r10, r10, r4
 561              	.LVL65:
 608:Middlewares/lvgl/src/widgets/lv_roller.c ****     lv_coord_t mid_y1 = h / 2 - font_h / 2;
 562              		.loc 1 608 16 view .LVU154
 563 0078 1AFB03FA 		smulbb	r10, r10, r3
 564 007c 1FFA8AFA 		uxth	r10, r10
 565              	.LVL66:
 609:Middlewares/lvgl/src/widgets/lv_roller.c **** 
 566              		.loc 1 609 5 is_stmt 1 view .LVU155
 609:Middlewares/lvgl/src/widgets/lv_roller.c **** 
 567              		.loc 1 609 31 is_stmt 0 view .LVU156
 568 0080 0BEBDB7B 		add	fp, fp, fp, lsr #31
 569              	.LVL67:
 609:Middlewares/lvgl/src/widgets/lv_roller.c **** 
 570              		.loc 1 609 31 view .LVU157
 571 0084 04EBD474 		add	r4, r4, r4, lsr #31
 572              	.LVL68:
 609:Middlewares/lvgl/src/widgets/lv_roller.c **** 
 573              		.loc 1 609 31 view .LVU158
 574 0088 6310     		asrs	r3, r4, #1
 575              	.LVL69:
 609:Middlewares/lvgl/src/widgets/lv_roller.c **** 
 576              		.loc 1 609 31 view .LVU159
 577 008a C3EB6B03 		rsb	r3, r3, fp, asr #1
 578 008e 9BB2     		uxth	r3, r3
 579              	.LVL70:
 611:Middlewares/lvgl/src/widgets/lv_roller.c **** 
 580              		.loc 1 611 5 is_stmt 1 view .LVU160
 611:Middlewares/lvgl/src/widgets/lv_roller.c **** 
 581              		.loc 1 611 31 is_stmt 0 view .LVU161
ARM GAS  /tmp/cc9MIr9f.s 			page 35


 582 0090 A3EB0A03 		sub	r3, r3, r10
 583              	.LVL71:
 611:Middlewares/lvgl/src/widgets/lv_roller.c **** 
 584              		.loc 1 611 16 view .LVU162
 585 0094 1CB2     		sxth	r4, r3
 586              	.LVL72:
 613:Middlewares/lvgl/src/widgets/lv_roller.c ****         lv_anim_del(label, set_y_anim);
 587              		.loc 1 613 5 is_stmt 1 view .LVU163
 613:Middlewares/lvgl/src/widgets/lv_roller.c ****         lv_anim_del(label, set_y_anim);
 588              		.loc 1 613 7 is_stmt 0 view .LVU164
 589 0096 05B1     		cbz	r5, .L24
 613:Middlewares/lvgl/src/widgets/lv_roller.c ****         lv_anim_del(label, set_y_anim);
 590              		.loc 1 613 31 discriminator 1 view .LVU165
 591 0098 B7BB     		cbnz	r7, .L25
 592              	.L24:
 614:Middlewares/lvgl/src/widgets/lv_roller.c ****         lv_obj_set_y(label, new_y);
 593              		.loc 1 614 9 is_stmt 1 view .LVU166
 594 009a 2749     		ldr	r1, .L28
 595 009c 3046     		mov	r0, r6
 596 009e FFF7FEFF 		bl	lv_anim_del
 597              	.LVL73:
 615:Middlewares/lvgl/src/widgets/lv_roller.c ****     }
 598              		.loc 1 615 9 view .LVU167
 599 00a2 2146     		mov	r1, r4
 600 00a4 3046     		mov	r0, r6
 601 00a6 FFF7FEFF 		bl	lv_obj_set_y
 602              	.LVL74:
 603              	.L15:
 628:Middlewares/lvgl/src/widgets/lv_roller.c **** 
 604              		.loc 1 628 1 is_stmt 0 view .LVU168
 605 00aa 13B0     		add	sp, sp, #76
 606              	.LCFI9:
 607              		.cfi_remember_state
 608              		.cfi_def_cfa_offset 36
 609              		@ sp needed
 610 00ac BDE8F08F 		pop	{r4, r5, r6, r7, r8, r9, r10, fp, pc}
 611              	.LVL75:
 612              	.L27:
 613              	.LCFI10:
 614              		.cfi_restore_state
 578:Middlewares/lvgl/src/widgets/lv_roller.c ****         else align = LV_TEXT_ALIGN_LEFT;
 615              		.loc 1 578 9 is_stmt 1 view .LVU169
 616              	.LBB95:
 617              	.LBI95:
 187:Middlewares/lvgl/src/widgets/../core/lv_obj_style_gen.h **** {
 618              		.loc 2 187 29 view .LVU170
 619              	.LBB96:
 189:Middlewares/lvgl/src/widgets/../core/lv_obj_style_gen.h ****     return (lv_base_dir_t)v.num;
 620              		.loc 2 189 5 view .LVU171
 189:Middlewares/lvgl/src/widgets/../core/lv_obj_style_gen.h ****     return (lv_base_dir_t)v.num;
 621              		.loc 2 189 26 is_stmt 0 view .LVU172
 622 00b0 41F26A42 		movw	r2, #5226
 623 00b4 0021     		movs	r1, #0
 624 00b6 4846     		mov	r0, r9
 625 00b8 FFF7FEFF 		bl	lv_obj_get_style_prop
 626              	.LVL76:
 190:Middlewares/lvgl/src/widgets/../core/lv_obj_style_gen.h **** }
ARM GAS  /tmp/cc9MIr9f.s 			page 36


 627              		.loc 2 190 5 is_stmt 1 view .LVU173
 190:Middlewares/lvgl/src/widgets/../core/lv_obj_style_gen.h **** }
 628              		.loc 2 190 12 is_stmt 0 view .LVU174
 629 00bc C0B2     		uxtb	r0, r0
 630              	.LVL77:
 190:Middlewares/lvgl/src/widgets/../core/lv_obj_style_gen.h **** }
 631              		.loc 2 190 12 view .LVU175
 632              	.LBE96:
 633              	.LBE95:
 578:Middlewares/lvgl/src/widgets/lv_roller.c ****         else align = LV_TEXT_ALIGN_LEFT;
 634              		.loc 1 578 11 view .LVU176
 635 00be 0128     		cmp	r0, #1
 636 00c0 14D0     		beq	.L18
 637              	.L19:
 590:Middlewares/lvgl/src/widgets/lv_roller.c ****         break;
 638              		.loc 1 590 9 is_stmt 1 view .LVU177
 639 00c2 0021     		movs	r1, #0
 640 00c4 3046     		mov	r0, r6
 641 00c6 FFF7FEFF 		bl	lv_obj_set_x
 642              	.LVL78:
 591:Middlewares/lvgl/src/widgets/lv_roller.c ****     }
 643              		.loc 1 591 9 view .LVU178
 644 00ca B1E7     		b	.L21
 645              	.LVL79:
 646              	.L20:
 584:Middlewares/lvgl/src/widgets/lv_roller.c ****         break;
 647              		.loc 1 584 9 view .LVU179
 584:Middlewares/lvgl/src/widgets/lv_roller.c ****         break;
 648              		.loc 1 584 30 is_stmt 0 view .LVU180
 649 00cc 4846     		mov	r0, r9
 650              	.LVL80:
 584:Middlewares/lvgl/src/widgets/lv_roller.c ****         break;
 651              		.loc 1 584 30 view .LVU181
 652 00ce FFF7FEFF 		bl	lv_obj_get_content_width
 653              	.LVL81:
 654 00d2 0446     		mov	r4, r0
 584:Middlewares/lvgl/src/widgets/lv_roller.c ****         break;
 655              		.loc 1 584 62 view .LVU182
 656 00d4 3046     		mov	r0, r6
 657 00d6 FFF7FEFF 		bl	lv_obj_get_width
 658              	.LVL82:
 584:Middlewares/lvgl/src/widgets/lv_roller.c ****         break;
 659              		.loc 1 584 60 view .LVU183
 660 00da 201A     		subs	r0, r4, r0
 584:Middlewares/lvgl/src/widgets/lv_roller.c ****         break;
 661              		.loc 1 584 87 view .LVU184
 662 00dc 00EBD070 		add	r0, r0, r0, lsr #31
 584:Middlewares/lvgl/src/widgets/lv_roller.c ****         break;
 663              		.loc 1 584 9 view .LVU185
 664 00e0 40F34F01 		sbfx	r1, r0, #1, #16
 665 00e4 3046     		mov	r0, r6
 666 00e6 FFF7FEFF 		bl	lv_obj_set_x
 667              	.LVL83:
 585:Middlewares/lvgl/src/widgets/lv_roller.c ****     case LV_TEXT_ALIGN_RIGHT:
 668              		.loc 1 585 9 is_stmt 1 view .LVU186
 669 00ea A1E7     		b	.L21
 670              	.L18:
ARM GAS  /tmp/cc9MIr9f.s 			page 37


 587:Middlewares/lvgl/src/widgets/lv_roller.c ****         break;
 671              		.loc 1 587 9 view .LVU187
 587:Middlewares/lvgl/src/widgets/lv_roller.c ****         break;
 672              		.loc 1 587 29 is_stmt 0 view .LVU188
 673 00ec 4846     		mov	r0, r9
 674 00ee FFF7FEFF 		bl	lv_obj_get_content_width
 675              	.LVL84:
 676 00f2 84B2     		uxth	r4, r0
 587:Middlewares/lvgl/src/widgets/lv_roller.c ****         break;
 677              		.loc 1 587 61 view .LVU189
 678 00f4 3046     		mov	r0, r6
 679 00f6 FFF7FEFF 		bl	lv_obj_get_width
 680              	.LVL85:
 681 00fa 81B2     		uxth	r1, r0
 587:Middlewares/lvgl/src/widgets/lv_roller.c ****         break;
 682              		.loc 1 587 59 view .LVU190
 683 00fc 611A     		subs	r1, r4, r1
 587:Middlewares/lvgl/src/widgets/lv_roller.c ****         break;
 684              		.loc 1 587 9 view .LVU191
 685 00fe 09B2     		sxth	r1, r1
 686 0100 3046     		mov	r0, r6
 687 0102 FFF7FEFF 		bl	lv_obj_set_x
 688              	.LVL86:
 588:Middlewares/lvgl/src/widgets/lv_roller.c ****     case LV_TEXT_ALIGN_LEFT:
 689              		.loc 1 588 9 is_stmt 1 view .LVU192
 690 0106 93E7     		b	.L21
 691              	.LVL87:
 692              	.L25:
 693              	.LBB97:
 618:Middlewares/lvgl/src/widgets/lv_roller.c ****         lv_anim_init(&a);
 694              		.loc 1 618 9 view .LVU193
 619:Middlewares/lvgl/src/widgets/lv_roller.c ****         lv_anim_set_var(&a, label);
 695              		.loc 1 619 9 view .LVU194
 696 0108 01A8     		add	r0, sp, #4
 697 010a FFF7FEFF 		bl	lv_anim_init
 698              	.LVL88:
 620:Middlewares/lvgl/src/widgets/lv_roller.c ****         lv_anim_set_exec_cb(&a, set_y_anim);
 699              		.loc 1 620 9 view .LVU195
 700              	.LBB98:
 701              	.LBI98:
 702              		.file 4 "Middlewares/lvgl/src/widgets/../core/../misc/lv_anim.h"
   1:Middlewares/lvgl/src/widgets/../core/../misc/lv_anim.h **** /**
   2:Middlewares/lvgl/src/widgets/../core/../misc/lv_anim.h ****  * @file lv_anim.h
   3:Middlewares/lvgl/src/widgets/../core/../misc/lv_anim.h ****  *
   4:Middlewares/lvgl/src/widgets/../core/../misc/lv_anim.h ****  */
   5:Middlewares/lvgl/src/widgets/../core/../misc/lv_anim.h **** 
   6:Middlewares/lvgl/src/widgets/../core/../misc/lv_anim.h **** #ifndef LV_ANIM_H
   7:Middlewares/lvgl/src/widgets/../core/../misc/lv_anim.h **** #define LV_ANIM_H
   8:Middlewares/lvgl/src/widgets/../core/../misc/lv_anim.h **** 
   9:Middlewares/lvgl/src/widgets/../core/../misc/lv_anim.h **** #ifdef __cplusplus
  10:Middlewares/lvgl/src/widgets/../core/../misc/lv_anim.h **** extern "C" {
  11:Middlewares/lvgl/src/widgets/../core/../misc/lv_anim.h **** #endif
  12:Middlewares/lvgl/src/widgets/../core/../misc/lv_anim.h **** 
  13:Middlewares/lvgl/src/widgets/../core/../misc/lv_anim.h **** /*********************
  14:Middlewares/lvgl/src/widgets/../core/../misc/lv_anim.h ****  *      INCLUDES
  15:Middlewares/lvgl/src/widgets/../core/../misc/lv_anim.h ****  *********************/
  16:Middlewares/lvgl/src/widgets/../core/../misc/lv_anim.h **** #include "../lv_conf_internal.h"
ARM GAS  /tmp/cc9MIr9f.s 			page 38


  17:Middlewares/lvgl/src/widgets/../core/../misc/lv_anim.h **** 
  18:Middlewares/lvgl/src/widgets/../core/../misc/lv_anim.h **** #include <stdint.h>
  19:Middlewares/lvgl/src/widgets/../core/../misc/lv_anim.h **** #include <stdbool.h>
  20:Middlewares/lvgl/src/widgets/../core/../misc/lv_anim.h **** #include <string.h>
  21:Middlewares/lvgl/src/widgets/../core/../misc/lv_anim.h **** 
  22:Middlewares/lvgl/src/widgets/../core/../misc/lv_anim.h **** /*********************
  23:Middlewares/lvgl/src/widgets/../core/../misc/lv_anim.h ****  *      DEFINES
  24:Middlewares/lvgl/src/widgets/../core/../misc/lv_anim.h ****  *********************/
  25:Middlewares/lvgl/src/widgets/../core/../misc/lv_anim.h **** 
  26:Middlewares/lvgl/src/widgets/../core/../misc/lv_anim.h **** /**********************
  27:Middlewares/lvgl/src/widgets/../core/../misc/lv_anim.h ****  *      TYPEDEFS
  28:Middlewares/lvgl/src/widgets/../core/../misc/lv_anim.h ****  **********************/
  29:Middlewares/lvgl/src/widgets/../core/../misc/lv_anim.h **** 
  30:Middlewares/lvgl/src/widgets/../core/../misc/lv_anim.h **** /** Can be used to indicate if animations are enabled or disabled in a case*/
  31:Middlewares/lvgl/src/widgets/../core/../misc/lv_anim.h **** typedef enum {
  32:Middlewares/lvgl/src/widgets/../core/../misc/lv_anim.h ****     LV_ANIM_OFF,
  33:Middlewares/lvgl/src/widgets/../core/../misc/lv_anim.h ****     LV_ANIM_ON,
  34:Middlewares/lvgl/src/widgets/../core/../misc/lv_anim.h **** }lv_anim_enable_t;
  35:Middlewares/lvgl/src/widgets/../core/../misc/lv_anim.h **** 
  36:Middlewares/lvgl/src/widgets/../core/../misc/lv_anim.h **** #define LV_ANIM_REPEAT_INFINITE      0xFFFF
  37:Middlewares/lvgl/src/widgets/../core/../misc/lv_anim.h **** LV_EXPORT_CONST_INT(LV_ANIM_REPEAT_INFINITE);
  38:Middlewares/lvgl/src/widgets/../core/../misc/lv_anim.h **** 
  39:Middlewares/lvgl/src/widgets/../core/../misc/lv_anim.h **** struct _lv_anim_t;
  40:Middlewares/lvgl/src/widgets/../core/../misc/lv_anim.h **** 
  41:Middlewares/lvgl/src/widgets/../core/../misc/lv_anim.h **** /** Get the current value during an animation*/
  42:Middlewares/lvgl/src/widgets/../core/../misc/lv_anim.h **** typedef int32_t (*lv_anim_path_cb_t)(const struct _lv_anim_t *);
  43:Middlewares/lvgl/src/widgets/../core/../misc/lv_anim.h **** 
  44:Middlewares/lvgl/src/widgets/../core/../misc/lv_anim.h **** /** Generic prototype of "animator" functions.
  45:Middlewares/lvgl/src/widgets/../core/../misc/lv_anim.h ****  * First parameter is the variable to animate.
  46:Middlewares/lvgl/src/widgets/../core/../misc/lv_anim.h ****  * Second parameter is the value to set.
  47:Middlewares/lvgl/src/widgets/../core/../misc/lv_anim.h ****  * Compatible with `lv_xxx_set_yyy(obj, value)` functions
  48:Middlewares/lvgl/src/widgets/../core/../misc/lv_anim.h ****  * The `x` in `_xcb_t` means its not a fully generic prototype because
  49:Middlewares/lvgl/src/widgets/../core/../misc/lv_anim.h ****  * it doesn't receive `lv_anim_t *` as its first argument*/
  50:Middlewares/lvgl/src/widgets/../core/../misc/lv_anim.h **** typedef void (*lv_anim_exec_xcb_t)(void *, int32_t);
  51:Middlewares/lvgl/src/widgets/../core/../misc/lv_anim.h **** 
  52:Middlewares/lvgl/src/widgets/../core/../misc/lv_anim.h **** /** Same as `lv_anim_exec_xcb_t` but receives `lv_anim_t *` as the first parameter.
  53:Middlewares/lvgl/src/widgets/../core/../misc/lv_anim.h ****  * It's more consistent but less convenient. Might be used by binding generator functions.*/
  54:Middlewares/lvgl/src/widgets/../core/../misc/lv_anim.h **** typedef void (*lv_anim_custom_exec_cb_t)(struct _lv_anim_t *, int32_t);
  55:Middlewares/lvgl/src/widgets/../core/../misc/lv_anim.h **** 
  56:Middlewares/lvgl/src/widgets/../core/../misc/lv_anim.h **** /** Callback to call when the animation is ready*/
  57:Middlewares/lvgl/src/widgets/../core/../misc/lv_anim.h **** typedef void (*lv_anim_ready_cb_t)(struct _lv_anim_t *);
  58:Middlewares/lvgl/src/widgets/../core/../misc/lv_anim.h **** 
  59:Middlewares/lvgl/src/widgets/../core/../misc/lv_anim.h **** /** Callback to call when the animation really stars (considering `delay`)*/
  60:Middlewares/lvgl/src/widgets/../core/../misc/lv_anim.h **** typedef void (*lv_anim_start_cb_t)(struct _lv_anim_t *);
  61:Middlewares/lvgl/src/widgets/../core/../misc/lv_anim.h **** 
  62:Middlewares/lvgl/src/widgets/../core/../misc/lv_anim.h **** /** Callback used when the animation values are relative to get the current value*/
  63:Middlewares/lvgl/src/widgets/../core/../misc/lv_anim.h **** typedef int32_t (*lv_anim_get_value_cb_t)(struct _lv_anim_t *);
  64:Middlewares/lvgl/src/widgets/../core/../misc/lv_anim.h **** 
  65:Middlewares/lvgl/src/widgets/../core/../misc/lv_anim.h **** /** Describes an animation*/
  66:Middlewares/lvgl/src/widgets/../core/../misc/lv_anim.h **** typedef struct _lv_anim_t {
  67:Middlewares/lvgl/src/widgets/../core/../misc/lv_anim.h ****     void * var;                          /**<Variable to animate*/
  68:Middlewares/lvgl/src/widgets/../core/../misc/lv_anim.h ****     lv_anim_exec_xcb_t exec_cb;          /**< Function to execute to animate*/
  69:Middlewares/lvgl/src/widgets/../core/../misc/lv_anim.h ****     lv_anim_start_cb_t start_cb;         /**< Call it when the animation is starts (considering `de
  70:Middlewares/lvgl/src/widgets/../core/../misc/lv_anim.h ****     lv_anim_ready_cb_t ready_cb;         /**< Call it when the animation is ready*/
  71:Middlewares/lvgl/src/widgets/../core/../misc/lv_anim.h ****     lv_anim_get_value_cb_t get_value_cb; /**< Get the current value in relative mode*/
  72:Middlewares/lvgl/src/widgets/../core/../misc/lv_anim.h **** #if LV_USE_USER_DATA
  73:Middlewares/lvgl/src/widgets/../core/../misc/lv_anim.h ****     void * user_data; /**< Custom user data*/
ARM GAS  /tmp/cc9MIr9f.s 			page 39


  74:Middlewares/lvgl/src/widgets/../core/../misc/lv_anim.h **** #endif
  75:Middlewares/lvgl/src/widgets/../core/../misc/lv_anim.h ****     lv_anim_path_cb_t path_cb;         /**< Describe the path (curve) of animations*/
  76:Middlewares/lvgl/src/widgets/../core/../misc/lv_anim.h ****     int32_t start_value;               /**< Start value*/
  77:Middlewares/lvgl/src/widgets/../core/../misc/lv_anim.h ****     int32_t current_value;             /**< Current value*/
  78:Middlewares/lvgl/src/widgets/../core/../misc/lv_anim.h ****     int32_t end_value;                 /**< End value*/
  79:Middlewares/lvgl/src/widgets/../core/../misc/lv_anim.h ****     int32_t time;                /**< Animation time in ms*/
  80:Middlewares/lvgl/src/widgets/../core/../misc/lv_anim.h ****     int32_t act_time;            /**< Current time in animation. Set to negative to make delay.*/
  81:Middlewares/lvgl/src/widgets/../core/../misc/lv_anim.h ****     uint32_t playback_delay;     /**< Wait before play back*/
  82:Middlewares/lvgl/src/widgets/../core/../misc/lv_anim.h ****     uint32_t playback_time;      /**< Duration of playback animation*/
  83:Middlewares/lvgl/src/widgets/../core/../misc/lv_anim.h ****     uint32_t repeat_delay;       /**< Wait before repeat*/
  84:Middlewares/lvgl/src/widgets/../core/../misc/lv_anim.h ****     uint16_t repeat_cnt;         /**< Repeat count for the animation*/
  85:Middlewares/lvgl/src/widgets/../core/../misc/lv_anim.h ****     uint8_t early_apply  : 1;    /**< 1: Apply start value immediately even is there is `delay`*/
  86:Middlewares/lvgl/src/widgets/../core/../misc/lv_anim.h **** 
  87:Middlewares/lvgl/src/widgets/../core/../misc/lv_anim.h ****     /*Animation system use these - user shouldn't set*/
  88:Middlewares/lvgl/src/widgets/../core/../misc/lv_anim.h ****     uint8_t playback_now : 1; /**< Play back is in progress*/
  89:Middlewares/lvgl/src/widgets/../core/../misc/lv_anim.h ****     uint8_t run_round : 1;    /**< Indicates the animation has run in this round*/
  90:Middlewares/lvgl/src/widgets/../core/../misc/lv_anim.h ****     uint8_t start_cb_called : 1;    /**< Indicates that the `start_cb` was already called*/
  91:Middlewares/lvgl/src/widgets/../core/../misc/lv_anim.h ****     uint32_t time_orig;
  92:Middlewares/lvgl/src/widgets/../core/../misc/lv_anim.h **** } lv_anim_t;
  93:Middlewares/lvgl/src/widgets/../core/../misc/lv_anim.h **** 
  94:Middlewares/lvgl/src/widgets/../core/../misc/lv_anim.h **** /**********************
  95:Middlewares/lvgl/src/widgets/../core/../misc/lv_anim.h ****  * GLOBAL PROTOTYPES
  96:Middlewares/lvgl/src/widgets/../core/../misc/lv_anim.h ****  **********************/
  97:Middlewares/lvgl/src/widgets/../core/../misc/lv_anim.h **** 
  98:Middlewares/lvgl/src/widgets/../core/../misc/lv_anim.h **** /**
  99:Middlewares/lvgl/src/widgets/../core/../misc/lv_anim.h ****  * Init. the animation module
 100:Middlewares/lvgl/src/widgets/../core/../misc/lv_anim.h ****  */
 101:Middlewares/lvgl/src/widgets/../core/../misc/lv_anim.h **** void _lv_anim_core_init(void);
 102:Middlewares/lvgl/src/widgets/../core/../misc/lv_anim.h **** 
 103:Middlewares/lvgl/src/widgets/../core/../misc/lv_anim.h **** /**
 104:Middlewares/lvgl/src/widgets/../core/../misc/lv_anim.h ****  * Initialize an animation variable.
 105:Middlewares/lvgl/src/widgets/../core/../misc/lv_anim.h ****  * E.g.:
 106:Middlewares/lvgl/src/widgets/../core/../misc/lv_anim.h ****  * lv_anim_t a;
 107:Middlewares/lvgl/src/widgets/../core/../misc/lv_anim.h ****  * lv_anim_init(&a);
 108:Middlewares/lvgl/src/widgets/../core/../misc/lv_anim.h ****  * lv_anim_set_...(&a);
 109:Middlewares/lvgl/src/widgets/../core/../misc/lv_anim.h ****  * lv_anim_start(&a);
 110:Middlewares/lvgl/src/widgets/../core/../misc/lv_anim.h ****  * @param a     pointer to an `lv_anim_t` variable to initialize
 111:Middlewares/lvgl/src/widgets/../core/../misc/lv_anim.h ****  */
 112:Middlewares/lvgl/src/widgets/../core/../misc/lv_anim.h **** void lv_anim_init(lv_anim_t * a);
 113:Middlewares/lvgl/src/widgets/../core/../misc/lv_anim.h **** 
 114:Middlewares/lvgl/src/widgets/../core/../misc/lv_anim.h **** /**
 115:Middlewares/lvgl/src/widgets/../core/../misc/lv_anim.h ****  * Set a variable to animate
 116:Middlewares/lvgl/src/widgets/../core/../misc/lv_anim.h ****  * @param a     pointer to an initialized `lv_anim_t` variable
 117:Middlewares/lvgl/src/widgets/../core/../misc/lv_anim.h ****  * @param var   pointer to a variable to animate
 118:Middlewares/lvgl/src/widgets/../core/../misc/lv_anim.h ****  */
 119:Middlewares/lvgl/src/widgets/../core/../misc/lv_anim.h **** static inline void lv_anim_set_var(lv_anim_t * a, void * var)
 703              		.loc 4 119 20 view .LVU196
 704              	.LBB99:
 120:Middlewares/lvgl/src/widgets/../core/../misc/lv_anim.h **** {
 121:Middlewares/lvgl/src/widgets/../core/../misc/lv_anim.h ****     a->var = var;
 705              		.loc 4 121 5 view .LVU197
 706              		.loc 4 121 12 is_stmt 0 view .LVU198
 707 010e 0196     		str	r6, [sp, #4]
 708              	.LVL89:
 709              		.loc 4 121 12 view .LVU199
 710              	.LBE99:
 711              	.LBE98:
ARM GAS  /tmp/cc9MIr9f.s 			page 40


 621:Middlewares/lvgl/src/widgets/lv_roller.c ****         lv_anim_set_values(&a, lv_obj_get_y(label), new_y);
 712              		.loc 1 621 9 is_stmt 1 view .LVU200
 713              	.LBB100:
 714              	.LBI100:
 122:Middlewares/lvgl/src/widgets/../core/../misc/lv_anim.h **** }
 123:Middlewares/lvgl/src/widgets/../core/../misc/lv_anim.h **** 
 124:Middlewares/lvgl/src/widgets/../core/../misc/lv_anim.h **** /**
 125:Middlewares/lvgl/src/widgets/../core/../misc/lv_anim.h ****  * Set a function to animate `var`
 126:Middlewares/lvgl/src/widgets/../core/../misc/lv_anim.h ****  * @param a         pointer to an initialized `lv_anim_t` variable
 127:Middlewares/lvgl/src/widgets/../core/../misc/lv_anim.h ****  * @param exec_cb   a function to execute during animation
 128:Middlewares/lvgl/src/widgets/../core/../misc/lv_anim.h ****  *                  LVGL's built-in functions can be used.
 129:Middlewares/lvgl/src/widgets/../core/../misc/lv_anim.h ****  *                  E.g. lv_obj_set_x
 130:Middlewares/lvgl/src/widgets/../core/../misc/lv_anim.h ****  */
 131:Middlewares/lvgl/src/widgets/../core/../misc/lv_anim.h **** static inline void lv_anim_set_exec_cb(lv_anim_t * a, lv_anim_exec_xcb_t exec_cb)
 715              		.loc 4 131 20 view .LVU201
 716              	.LBB101:
 132:Middlewares/lvgl/src/widgets/../core/../misc/lv_anim.h **** {
 133:Middlewares/lvgl/src/widgets/../core/../misc/lv_anim.h ****     a->exec_cb = exec_cb;
 717              		.loc 4 133 5 view .LVU202
 718              		.loc 4 133 16 is_stmt 0 view .LVU203
 719 0110 094B     		ldr	r3, .L28
 720 0112 0293     		str	r3, [sp, #8]
 721              	.LVL90:
 722              		.loc 4 133 16 view .LVU204
 723              	.LBE101:
 724              	.LBE100:
 622:Middlewares/lvgl/src/widgets/lv_roller.c ****         lv_anim_set_time(&a, anim_time);
 725              		.loc 1 622 9 is_stmt 1 view .LVU205
 622:Middlewares/lvgl/src/widgets/lv_roller.c ****         lv_anim_set_time(&a, anim_time);
 726              		.loc 1 622 32 is_stmt 0 view .LVU206
 727 0114 3046     		mov	r0, r6
 728 0116 FFF7FEFF 		bl	lv_obj_get_y
 729              	.LVL91:
 730              	.LBB102:
 731              	.LBI102:
 134:Middlewares/lvgl/src/widgets/../core/../misc/lv_anim.h **** }
 135:Middlewares/lvgl/src/widgets/../core/../misc/lv_anim.h **** 
 136:Middlewares/lvgl/src/widgets/../core/../misc/lv_anim.h **** /**
 137:Middlewares/lvgl/src/widgets/../core/../misc/lv_anim.h ****  * Set the duration of an animation
 138:Middlewares/lvgl/src/widgets/../core/../misc/lv_anim.h ****  * @param a         pointer to an initialized `lv_anim_t` variable
 139:Middlewares/lvgl/src/widgets/../core/../misc/lv_anim.h ****  * @param duration  duration of the animation in milliseconds
 140:Middlewares/lvgl/src/widgets/../core/../misc/lv_anim.h ****  */
 141:Middlewares/lvgl/src/widgets/../core/../misc/lv_anim.h **** static inline void lv_anim_set_time(lv_anim_t * a, uint32_t duration)
 142:Middlewares/lvgl/src/widgets/../core/../misc/lv_anim.h **** {
 143:Middlewares/lvgl/src/widgets/../core/../misc/lv_anim.h ****     a->time = duration;
 144:Middlewares/lvgl/src/widgets/../core/../misc/lv_anim.h **** }
 145:Middlewares/lvgl/src/widgets/../core/../misc/lv_anim.h **** 
 146:Middlewares/lvgl/src/widgets/../core/../misc/lv_anim.h **** /**
 147:Middlewares/lvgl/src/widgets/../core/../misc/lv_anim.h ****  * Set a delay before starting the animation
 148:Middlewares/lvgl/src/widgets/../core/../misc/lv_anim.h ****  * @param a         pointer to an initialized `lv_anim_t` variable
 149:Middlewares/lvgl/src/widgets/../core/../misc/lv_anim.h ****  * @param delay     delay before the animation in milliseconds
 150:Middlewares/lvgl/src/widgets/../core/../misc/lv_anim.h ****  */
 151:Middlewares/lvgl/src/widgets/../core/../misc/lv_anim.h **** static inline void lv_anim_set_delay(lv_anim_t * a, uint32_t delay)
 152:Middlewares/lvgl/src/widgets/../core/../misc/lv_anim.h **** {
 153:Middlewares/lvgl/src/widgets/../core/../misc/lv_anim.h ****     a->act_time = -(int32_t)(delay);
 154:Middlewares/lvgl/src/widgets/../core/../misc/lv_anim.h **** }
 155:Middlewares/lvgl/src/widgets/../core/../misc/lv_anim.h **** 
ARM GAS  /tmp/cc9MIr9f.s 			page 41


 156:Middlewares/lvgl/src/widgets/../core/../misc/lv_anim.h **** /**
 157:Middlewares/lvgl/src/widgets/../core/../misc/lv_anim.h ****  * Set the start and end values of an animation
 158:Middlewares/lvgl/src/widgets/../core/../misc/lv_anim.h ****  * @param a         pointer to an initialized `lv_anim_t` variable
 159:Middlewares/lvgl/src/widgets/../core/../misc/lv_anim.h ****  * @param start     the start value
 160:Middlewares/lvgl/src/widgets/../core/../misc/lv_anim.h ****  * @param end       the end value
 161:Middlewares/lvgl/src/widgets/../core/../misc/lv_anim.h ****  */
 162:Middlewares/lvgl/src/widgets/../core/../misc/lv_anim.h **** static inline void lv_anim_set_values(lv_anim_t * a, int32_t start, int32_t end)
 732              		.loc 4 162 20 is_stmt 1 view .LVU207
 733              	.LBB103:
 163:Middlewares/lvgl/src/widgets/../core/../misc/lv_anim.h **** {
 164:Middlewares/lvgl/src/widgets/../core/../misc/lv_anim.h ****     a->start_value = start;
 734              		.loc 4 164 5 view .LVU208
 735              		.loc 4 164 20 is_stmt 0 view .LVU209
 736 011a 0890     		str	r0, [sp, #32]
 165:Middlewares/lvgl/src/widgets/../core/../misc/lv_anim.h ****     a->current_value = start;
 737              		.loc 4 165 5 is_stmt 1 view .LVU210
 738              		.loc 4 165 22 is_stmt 0 view .LVU211
 739 011c 0990     		str	r0, [sp, #36]
 166:Middlewares/lvgl/src/widgets/../core/../misc/lv_anim.h ****     a->end_value = end;
 740              		.loc 4 166 5 is_stmt 1 view .LVU212
 741              		.loc 4 166 18 is_stmt 0 view .LVU213
 742 011e 0A94     		str	r4, [sp, #40]
 743              	.LVL92:
 744              		.loc 4 166 18 view .LVU214
 745              	.LBE103:
 746              	.LBE102:
 623:Middlewares/lvgl/src/widgets/lv_roller.c ****         lv_anim_set_ready_cb(&a, scroll_anim_ready_cb);
 747              		.loc 1 623 9 is_stmt 1 view .LVU215
 748              	.LBB104:
 749              	.LBI104:
 141:Middlewares/lvgl/src/widgets/../core/../misc/lv_anim.h **** {
 750              		.loc 4 141 20 view .LVU216
 751              	.LBB105:
 143:Middlewares/lvgl/src/widgets/../core/../misc/lv_anim.h **** }
 752              		.loc 4 143 5 view .LVU217
 143:Middlewares/lvgl/src/widgets/../core/../misc/lv_anim.h **** }
 753              		.loc 4 143 13 is_stmt 0 view .LVU218
 754 0120 1FFA88F7 		uxth	r7, r8
 755              	.LVL93:
 143:Middlewares/lvgl/src/widgets/../core/../misc/lv_anim.h **** }
 756              		.loc 4 143 13 view .LVU219
 757 0124 0B97     		str	r7, [sp, #44]
 758              	.LVL94:
 143:Middlewares/lvgl/src/widgets/../core/../misc/lv_anim.h **** }
 759              		.loc 4 143 13 view .LVU220
 760              	.LBE105:
 761              	.LBE104:
 624:Middlewares/lvgl/src/widgets/lv_roller.c ****         lv_anim_set_path_cb(&a, lv_anim_path_ease_out);
 762              		.loc 1 624 9 is_stmt 1 view .LVU221
 763              	.LBB106:
 764              	.LBI106:
 167:Middlewares/lvgl/src/widgets/../core/../misc/lv_anim.h **** }
 168:Middlewares/lvgl/src/widgets/../core/../misc/lv_anim.h **** 
 169:Middlewares/lvgl/src/widgets/../core/../misc/lv_anim.h **** /**
 170:Middlewares/lvgl/src/widgets/../core/../misc/lv_anim.h ****  * Similar to `lv_anim_set_exec_cb` but `lv_anim_custom_exec_cb_t` receives
 171:Middlewares/lvgl/src/widgets/../core/../misc/lv_anim.h ****  * `lv_anim_t * ` as its first parameter instead of `void *`.
 172:Middlewares/lvgl/src/widgets/../core/../misc/lv_anim.h ****  * This function might be used when LVGL is binded to other languages because
ARM GAS  /tmp/cc9MIr9f.s 			page 42


 173:Middlewares/lvgl/src/widgets/../core/../misc/lv_anim.h ****  * it's more consistent to have `lv_anim_t *` as first parameter.
 174:Middlewares/lvgl/src/widgets/../core/../misc/lv_anim.h ****  * The variable to animate can be stored in the animation's `user_sata`
 175:Middlewares/lvgl/src/widgets/../core/../misc/lv_anim.h ****  * @param a         pointer to an initialized `lv_anim_t` variable
 176:Middlewares/lvgl/src/widgets/../core/../misc/lv_anim.h ****  * @param exec_cb   a function to execute.
 177:Middlewares/lvgl/src/widgets/../core/../misc/lv_anim.h ****  */
 178:Middlewares/lvgl/src/widgets/../core/../misc/lv_anim.h **** static inline void lv_anim_set_custom_exec_cb(lv_anim_t * a, lv_anim_custom_exec_cb_t exec_cb)
 179:Middlewares/lvgl/src/widgets/../core/../misc/lv_anim.h **** {
 180:Middlewares/lvgl/src/widgets/../core/../misc/lv_anim.h ****     a->var     = a;
 181:Middlewares/lvgl/src/widgets/../core/../misc/lv_anim.h ****     a->exec_cb = (lv_anim_exec_xcb_t)exec_cb;
 182:Middlewares/lvgl/src/widgets/../core/../misc/lv_anim.h **** }
 183:Middlewares/lvgl/src/widgets/../core/../misc/lv_anim.h **** 
 184:Middlewares/lvgl/src/widgets/../core/../misc/lv_anim.h **** /**
 185:Middlewares/lvgl/src/widgets/../core/../misc/lv_anim.h ****  * Set the path (curve) of the animation.
 186:Middlewares/lvgl/src/widgets/../core/../misc/lv_anim.h ****  * @param a         pointer to an initialized `lv_anim_t` variable
 187:Middlewares/lvgl/src/widgets/../core/../misc/lv_anim.h ****  * @param path_cb a function the get the current value of the animation.
 188:Middlewares/lvgl/src/widgets/../core/../misc/lv_anim.h ****  */
 189:Middlewares/lvgl/src/widgets/../core/../misc/lv_anim.h **** static inline void lv_anim_set_path_cb(lv_anim_t * a, lv_anim_path_cb_t path_cb)
 190:Middlewares/lvgl/src/widgets/../core/../misc/lv_anim.h **** {
 191:Middlewares/lvgl/src/widgets/../core/../misc/lv_anim.h ****     a->path_cb = path_cb;
 192:Middlewares/lvgl/src/widgets/../core/../misc/lv_anim.h **** }
 193:Middlewares/lvgl/src/widgets/../core/../misc/lv_anim.h **** 
 194:Middlewares/lvgl/src/widgets/../core/../misc/lv_anim.h **** /**
 195:Middlewares/lvgl/src/widgets/../core/../misc/lv_anim.h ****  * Set a function call when the animation really starts (considering `delay`)
 196:Middlewares/lvgl/src/widgets/../core/../misc/lv_anim.h ****  * @param a         pointer to an initialized `lv_anim_t` variable
 197:Middlewares/lvgl/src/widgets/../core/../misc/lv_anim.h ****  * @param start_cb  a function call when the animation starts
 198:Middlewares/lvgl/src/widgets/../core/../misc/lv_anim.h ****  */
 199:Middlewares/lvgl/src/widgets/../core/../misc/lv_anim.h **** static inline void lv_anim_set_start_cb(lv_anim_t * a, lv_anim_ready_cb_t start_cb)
 200:Middlewares/lvgl/src/widgets/../core/../misc/lv_anim.h **** {
 201:Middlewares/lvgl/src/widgets/../core/../misc/lv_anim.h ****     a->start_cb = start_cb;
 202:Middlewares/lvgl/src/widgets/../core/../misc/lv_anim.h **** }
 203:Middlewares/lvgl/src/widgets/../core/../misc/lv_anim.h **** 
 204:Middlewares/lvgl/src/widgets/../core/../misc/lv_anim.h **** /**
 205:Middlewares/lvgl/src/widgets/../core/../misc/lv_anim.h ****  * Set a function to use the current value of the variable and make start and end value
 206:Middlewares/lvgl/src/widgets/../core/../misc/lv_anim.h ****  * relative the the returned current value.
 207:Middlewares/lvgl/src/widgets/../core/../misc/lv_anim.h ****  * @param a             pointer to an initialized `lv_anim_t` variable
 208:Middlewares/lvgl/src/widgets/../core/../misc/lv_anim.h ****  * @param get_value_cb  a function call when the animation starts
 209:Middlewares/lvgl/src/widgets/../core/../misc/lv_anim.h ****  */
 210:Middlewares/lvgl/src/widgets/../core/../misc/lv_anim.h **** static inline void lv_anim_set_get_value_cb(lv_anim_t * a, lv_anim_get_value_cb_t get_value_cb)
 211:Middlewares/lvgl/src/widgets/../core/../misc/lv_anim.h **** {
 212:Middlewares/lvgl/src/widgets/../core/../misc/lv_anim.h ****     a->get_value_cb = get_value_cb;
 213:Middlewares/lvgl/src/widgets/../core/../misc/lv_anim.h **** }
 214:Middlewares/lvgl/src/widgets/../core/../misc/lv_anim.h **** 
 215:Middlewares/lvgl/src/widgets/../core/../misc/lv_anim.h **** /**
 216:Middlewares/lvgl/src/widgets/../core/../misc/lv_anim.h ****  * Set a function call when the animation is ready
 217:Middlewares/lvgl/src/widgets/../core/../misc/lv_anim.h ****  * @param a         pointer to an initialized `lv_anim_t` variable
 218:Middlewares/lvgl/src/widgets/../core/../misc/lv_anim.h ****  * @param ready_cb  a function call when the animation is ready
 219:Middlewares/lvgl/src/widgets/../core/../misc/lv_anim.h ****  */
 220:Middlewares/lvgl/src/widgets/../core/../misc/lv_anim.h **** static inline void lv_anim_set_ready_cb(lv_anim_t * a, lv_anim_ready_cb_t ready_cb)
 765              		.loc 4 220 20 view .LVU222
 766              	.LBB107:
 221:Middlewares/lvgl/src/widgets/../core/../misc/lv_anim.h **** {
 222:Middlewares/lvgl/src/widgets/../core/../misc/lv_anim.h ****     a->ready_cb = ready_cb;
 767              		.loc 4 222 5 view .LVU223
 768              		.loc 4 222 17 is_stmt 0 view .LVU224
 769 0126 054B     		ldr	r3, .L28+4
 770 0128 0493     		str	r3, [sp, #16]
 771              	.LVL95:
ARM GAS  /tmp/cc9MIr9f.s 			page 43


 772              		.loc 4 222 17 view .LVU225
 773              	.LBE107:
 774              	.LBE106:
 625:Middlewares/lvgl/src/widgets/lv_roller.c ****         lv_anim_start(&a);
 775              		.loc 1 625 9 is_stmt 1 view .LVU226
 776              	.LBB108:
 777              	.LBI108:
 189:Middlewares/lvgl/src/widgets/../core/../misc/lv_anim.h **** {
 778              		.loc 4 189 20 view .LVU227
 779              	.LBB109:
 191:Middlewares/lvgl/src/widgets/../core/../misc/lv_anim.h **** }
 780              		.loc 4 191 5 view .LVU228
 191:Middlewares/lvgl/src/widgets/../core/../misc/lv_anim.h **** }
 781              		.loc 4 191 16 is_stmt 0 view .LVU229
 782 012a 054B     		ldr	r3, .L28+8
 783 012c 0793     		str	r3, [sp, #28]
 784              	.LVL96:
 191:Middlewares/lvgl/src/widgets/../core/../misc/lv_anim.h **** }
 785              		.loc 4 191 16 view .LVU230
 786              	.LBE109:
 787              	.LBE108:
 626:Middlewares/lvgl/src/widgets/lv_roller.c ****     }
 788              		.loc 1 626 9 is_stmt 1 view .LVU231
 789 012e 01A8     		add	r0, sp, #4
 790 0130 FFF7FEFF 		bl	lv_anim_start
 791              	.LVL97:
 792 0134 B9E7     		b	.L15
 793              	.L29:
 794 0136 00BF     		.align	2
 795              	.L28:
 796 0138 00000000 		.word	set_y_anim
 797 013c 00000000 		.word	scroll_anim_ready_cb
 798 0140 00000000 		.word	lv_anim_path_ease_out
 799              	.LBE97:
 800              		.cfi_endproc
 801              	.LFE160:
 803              		.section	.text.scroll_anim_ready_cb,"ax",%progbits
 804              		.align	1
 805              		.syntax unified
 806              		.thumb
 807              		.thumb_func
 808              		.fpu fpv4-sp-d16
 810              	scroll_anim_ready_cb:
 811              	.LVL98:
 812              	.LFB165:
 754:Middlewares/lvgl/src/widgets/lv_roller.c ****     lv_obj_t * obj = lv_obj_get_parent(a->var); /*The label is animated*/
 813              		.loc 1 754 1 view -0
 814              		.cfi_startproc
 815              		@ args = 0, pretend = 0, frame = 0
 816              		@ frame_needed = 0, uses_anonymous_args = 0
 754:Middlewares/lvgl/src/widgets/lv_roller.c ****     lv_obj_t * obj = lv_obj_get_parent(a->var); /*The label is animated*/
 817              		.loc 1 754 1 is_stmt 0 view .LVU233
 818 0000 08B5     		push	{r3, lr}
 819              	.LCFI11:
 820              		.cfi_def_cfa_offset 8
 821              		.cfi_offset 3, -8
 822              		.cfi_offset 14, -4
ARM GAS  /tmp/cc9MIr9f.s 			page 44


 755:Middlewares/lvgl/src/widgets/lv_roller.c ****     inf_normalize(obj);
 823              		.loc 1 755 5 is_stmt 1 view .LVU234
 755:Middlewares/lvgl/src/widgets/lv_roller.c ****     inf_normalize(obj);
 824              		.loc 1 755 22 is_stmt 0 view .LVU235
 825 0002 0068     		ldr	r0, [r0]
 826              	.LVL99:
 755:Middlewares/lvgl/src/widgets/lv_roller.c ****     inf_normalize(obj);
 827              		.loc 1 755 22 view .LVU236
 828 0004 FFF7FEFF 		bl	lv_obj_get_parent
 829              	.LVL100:
 756:Middlewares/lvgl/src/widgets/lv_roller.c **** }
 830              		.loc 1 756 5 is_stmt 1 view .LVU237
 831 0008 FFF7FEFF 		bl	inf_normalize
 832              	.LVL101:
 757:Middlewares/lvgl/src/widgets/lv_roller.c **** 
 833              		.loc 1 757 1 is_stmt 0 view .LVU238
 834 000c 08BD     		pop	{r3, pc}
 835              		.cfi_endproc
 836              	.LFE165:
 838              		.section	.text.draw_main,"ax",%progbits
 839              		.align	1
 840              		.syntax unified
 841              		.thumb
 842              		.thumb_func
 843              		.fpu fpv4-sp-d16
 845              	draw_main:
 846              	.LVL102:
 847              	.LFB158:
 443:Middlewares/lvgl/src/widgets/lv_roller.c ****     lv_event_code_t code = lv_event_get_code(e);
 848              		.loc 1 443 1 is_stmt 1 view -0
 849              		.cfi_startproc
 850              		@ args = 0, pretend = 0, frame = 80
 851              		@ frame_needed = 0, uses_anonymous_args = 0
 443:Middlewares/lvgl/src/widgets/lv_roller.c ****     lv_event_code_t code = lv_event_get_code(e);
 852              		.loc 1 443 1 is_stmt 0 view .LVU240
 853 0000 2DE9F043 		push	{r4, r5, r6, r7, r8, r9, lr}
 854              	.LCFI12:
 855              		.cfi_def_cfa_offset 28
 856              		.cfi_offset 4, -28
 857              		.cfi_offset 5, -24
 858              		.cfi_offset 6, -20
 859              		.cfi_offset 7, -16
 860              		.cfi_offset 8, -12
 861              		.cfi_offset 9, -8
 862              		.cfi_offset 14, -4
 863 0004 99B0     		sub	sp, sp, #100
 864              	.LCFI13:
 865              		.cfi_def_cfa_offset 128
 866 0006 0646     		mov	r6, r0
 444:Middlewares/lvgl/src/widgets/lv_roller.c ****     lv_obj_t * obj = lv_event_get_target(e);
 867              		.loc 1 444 5 is_stmt 1 view .LVU241
 444:Middlewares/lvgl/src/widgets/lv_roller.c ****     lv_obj_t * obj = lv_event_get_target(e);
 868              		.loc 1 444 28 is_stmt 0 view .LVU242
 869 0008 FFF7FEFF 		bl	lv_event_get_code
 870              	.LVL103:
 444:Middlewares/lvgl/src/widgets/lv_roller.c ****     lv_obj_t * obj = lv_event_get_target(e);
 871              		.loc 1 444 28 view .LVU243
ARM GAS  /tmp/cc9MIr9f.s 			page 45


 872 000c 0546     		mov	r5, r0
 873              	.LVL104:
 445:Middlewares/lvgl/src/widgets/lv_roller.c ****     if(code == LV_EVENT_DRAW_MAIN) {
 874              		.loc 1 445 5 is_stmt 1 view .LVU244
 445:Middlewares/lvgl/src/widgets/lv_roller.c ****     if(code == LV_EVENT_DRAW_MAIN) {
 875              		.loc 1 445 22 is_stmt 0 view .LVU245
 876 000e 3046     		mov	r0, r6
 877 0010 FFF7FEFF 		bl	lv_event_get_target
 878              	.LVL105:
 879 0014 0446     		mov	r4, r0
 880              	.LVL106:
 446:Middlewares/lvgl/src/widgets/lv_roller.c ****         /*Draw the selected rectangle*/
 881              		.loc 1 446 5 is_stmt 1 view .LVU246
 446:Middlewares/lvgl/src/widgets/lv_roller.c ****         /*Draw the selected rectangle*/
 882              		.loc 1 446 7 is_stmt 0 view .LVU247
 883 0016 152D     		cmp	r5, #21
 884 0018 04D0     		beq	.L37
 467:Middlewares/lvgl/src/widgets/lv_roller.c ****         const lv_area_t * clip_area = lv_event_get_param(e);
 885              		.loc 1 467 10 is_stmt 1 view .LVU248
 467:Middlewares/lvgl/src/widgets/lv_roller.c ****         const lv_area_t * clip_area = lv_event_get_param(e);
 886              		.loc 1 467 12 is_stmt 0 view .LVU249
 887 001a 182D     		cmp	r5, #24
 888 001c 49D0     		beq	.L38
 889              	.LVL107:
 890              	.L32:
 521:Middlewares/lvgl/src/widgets/lv_roller.c **** 
 891              		.loc 1 521 1 view .LVU250
 892 001e 19B0     		add	sp, sp, #100
 893              	.LCFI14:
 894              		.cfi_remember_state
 895              		.cfi_def_cfa_offset 28
 896              		@ sp needed
 897 0020 BDE8F083 		pop	{r4, r5, r6, r7, r8, r9, pc}
 898              	.LVL108:
 899              	.L37:
 900              	.LCFI15:
 901              		.cfi_restore_state
 902              	.LBB110:
 448:Middlewares/lvgl/src/widgets/lv_roller.c ****         const lv_font_t * font = lv_obj_get_style_text_font(obj, LV_PART_MAIN);
 903              		.loc 1 448 9 is_stmt 1 view .LVU251
 448:Middlewares/lvgl/src/widgets/lv_roller.c ****         const lv_font_t * font = lv_obj_get_style_text_font(obj, LV_PART_MAIN);
 904              		.loc 1 448 39 is_stmt 0 view .LVU252
 905 0024 3046     		mov	r0, r6
 906              	.LVL109:
 448:Middlewares/lvgl/src/widgets/lv_roller.c ****         const lv_font_t * font = lv_obj_get_style_text_font(obj, LV_PART_MAIN);
 907              		.loc 1 448 39 view .LVU253
 908 0026 FFF7FEFF 		bl	lv_event_get_param
 909              	.LVL110:
 910 002a 0646     		mov	r6, r0
 911              	.LVL111:
 449:Middlewares/lvgl/src/widgets/lv_roller.c ****         lv_coord_t line_space = lv_obj_get_style_text_line_space(obj, LV_PART_MAIN);
 912              		.loc 1 449 9 is_stmt 1 view .LVU254
 913              	.LBB111:
 914              	.LBI111:
 331:Middlewares/lvgl/src/widgets/../core/lv_obj_style_gen.h **** {
 915              		.loc 2 331 33 view .LVU255
 916              	.LBB112:
ARM GAS  /tmp/cc9MIr9f.s 			page 46


 333:Middlewares/lvgl/src/widgets/../core/lv_obj_style_gen.h ****     return (const lv_font_t *)v.ptr;
 917              		.loc 2 333 5 view .LVU256
 333:Middlewares/lvgl/src/widgets/../core/lv_obj_style_gen.h ****     return (const lv_font_t *)v.ptr;
 918              		.loc 2 333 26 is_stmt 0 view .LVU257
 919 002c 41F25942 		movw	r2, #5209
 920 0030 0021     		movs	r1, #0
 921 0032 2046     		mov	r0, r4
 922              	.LVL112:
 333:Middlewares/lvgl/src/widgets/../core/lv_obj_style_gen.h ****     return (const lv_font_t *)v.ptr;
 923              		.loc 2 333 26 view .LVU258
 924 0034 FFF7FEFF 		bl	lv_obj_get_style_prop
 925              	.LVL113:
 926 0038 0546     		mov	r5, r0
 927              	.LVL114:
 334:Middlewares/lvgl/src/widgets/../core/lv_obj_style_gen.h **** }
 928              		.loc 2 334 5 is_stmt 1 view .LVU259
 334:Middlewares/lvgl/src/widgets/../core/lv_obj_style_gen.h **** }
 929              		.loc 2 334 5 is_stmt 0 view .LVU260
 930              	.LBE112:
 931              	.LBE111:
 450:Middlewares/lvgl/src/widgets/lv_roller.c ****         lv_coord_t font_h        = lv_font_get_line_height(font);
 932              		.loc 1 450 9 is_stmt 1 view .LVU261
 933              	.LBB113:
 934              	.LBI113:
 343:Middlewares/lvgl/src/widgets/../core/lv_obj_style_gen.h **** {
 935              		.loc 2 343 26 view .LVU262
 936              	.LBB114:
 345:Middlewares/lvgl/src/widgets/../core/lv_obj_style_gen.h ****     return (lv_coord_t)v.num;
 937              		.loc 2 345 5 view .LVU263
 345:Middlewares/lvgl/src/widgets/../core/lv_obj_style_gen.h ****     return (lv_coord_t)v.num;
 938              		.loc 2 345 26 is_stmt 0 view .LVU264
 939 003a 41F25B42 		movw	r2, #5211
 940 003e 0021     		movs	r1, #0
 941 0040 2046     		mov	r0, r4
 942              	.LVL115:
 345:Middlewares/lvgl/src/widgets/../core/lv_obj_style_gen.h ****     return (lv_coord_t)v.num;
 943              		.loc 2 345 26 view .LVU265
 944 0042 FFF7FEFF 		bl	lv_obj_get_style_prop
 945              	.LVL116:
 946 0046 0746     		mov	r7, r0
 346:Middlewares/lvgl/src/widgets/../core/lv_obj_style_gen.h **** }
 947              		.loc 2 346 5 is_stmt 1 view .LVU266
 346:Middlewares/lvgl/src/widgets/../core/lv_obj_style_gen.h **** }
 948              		.loc 2 346 12 is_stmt 0 view .LVU267
 949 0048 0FFA80F9 		sxth	r9, r0
 950              	.LVL117:
 346:Middlewares/lvgl/src/widgets/../core/lv_obj_style_gen.h **** }
 951              		.loc 2 346 12 view .LVU268
 952              	.LBE114:
 953              	.LBE113:
 451:Middlewares/lvgl/src/widgets/lv_roller.c ****         lv_area_t rect_area;
 954              		.loc 1 451 9 is_stmt 1 view .LVU269
 955              	.LBB115:
 956              	.LBI115:
 118:Middlewares/lvgl/src/widgets/../core/../misc/../font/lv_font.h **** {
 957              		.loc 3 118 26 view .LVU270
 958              	.LBB116:
ARM GAS  /tmp/cc9MIr9f.s 			page 47


 959              		.loc 3 120 5 view .LVU271
 960              		.loc 3 120 18 is_stmt 0 view .LVU272
 961 004c B5F90880 		ldrsh	r8, [r5, #8]
 962              	.LVL118:
 963              		.loc 3 120 18 view .LVU273
 964              	.LBE116:
 965              	.LBE115:
 452:Middlewares/lvgl/src/widgets/lv_roller.c ****         rect_area.y1 = obj->coords.y1 + (lv_obj_get_height(obj) - font_h - line_space) / 2;
 966              		.loc 1 452 9 is_stmt 1 view .LVU274
 453:Middlewares/lvgl/src/widgets/lv_roller.c ****         rect_area.y2 = rect_area.y1 + font_h + line_space - 1;
 967              		.loc 1 453 9 view .LVU275
 453:Middlewares/lvgl/src/widgets/lv_roller.c ****         rect_area.y2 = rect_area.y1 + font_h + line_space - 1;
 968              		.loc 1 453 35 is_stmt 0 view .LVU276
 969 0050 E58A     		ldrh	r5, [r4, #22]
 970              	.LVL119:
 453:Middlewares/lvgl/src/widgets/lv_roller.c ****         rect_area.y2 = rect_area.y1 + font_h + line_space - 1;
 971              		.loc 1 453 42 view .LVU277
 972 0052 2046     		mov	r0, r4
 453:Middlewares/lvgl/src/widgets/lv_roller.c ****         rect_area.y2 = rect_area.y1 + font_h + line_space - 1;
 973              		.loc 1 453 42 view .LVU278
 974 0054 FFF7FEFF 		bl	lv_obj_get_height
 975              	.LVL120:
 453:Middlewares/lvgl/src/widgets/lv_roller.c ****         rect_area.y2 = rect_area.y1 + font_h + line_space - 1;
 976              		.loc 1 453 65 view .LVU279
 977 0058 A0EB0802 		sub	r2, r0, r8
 453:Middlewares/lvgl/src/widgets/lv_roller.c ****         rect_area.y2 = rect_area.y1 + font_h + line_space - 1;
 978              		.loc 1 453 74 view .LVU280
 979 005c A2EB0902 		sub	r2, r2, r9
 453:Middlewares/lvgl/src/widgets/lv_roller.c ****         rect_area.y2 = rect_area.y1 + font_h + line_space - 1;
 980              		.loc 1 453 88 view .LVU281
 981 0060 02EBD272 		add	r2, r2, r2, lsr #31
 453:Middlewares/lvgl/src/widgets/lv_roller.c ****         rect_area.y2 = rect_area.y1 + font_h + line_space - 1;
 982              		.loc 1 453 39 view .LVU282
 983 0064 05EB6203 		add	r3, r5, r2, asr #1
 453:Middlewares/lvgl/src/widgets/lv_roller.c ****         rect_area.y2 = rect_area.y1 + font_h + line_space - 1;
 984              		.loc 1 453 22 view .LVU283
 985 0068 ADF81E30 		strh	r3, [sp, #30]	@ movhi
 454:Middlewares/lvgl/src/widgets/lv_roller.c ****         lv_area_t roller_coords;
 986              		.loc 1 454 9 is_stmt 1 view .LVU284
 454:Middlewares/lvgl/src/widgets/lv_roller.c ****         lv_area_t roller_coords;
 987              		.loc 1 454 37 is_stmt 0 view .LVU285
 988 006c 18FA83F3 		uxtah	r3, r8, r3
 989              	.LVL121:
 454:Middlewares/lvgl/src/widgets/lv_roller.c ****         lv_area_t roller_coords;
 990              		.loc 1 454 46 view .LVU286
 991 0070 17FA83F3 		uxtah	r3, r7, r3
 992 0074 9BB2     		uxth	r3, r3
 454:Middlewares/lvgl/src/widgets/lv_roller.c ****         lv_area_t roller_coords;
 993              		.loc 1 454 59 view .LVU287
 994 0076 013B     		subs	r3, r3, #1
 454:Middlewares/lvgl/src/widgets/lv_roller.c ****         lv_area_t roller_coords;
 995              		.loc 1 454 22 view .LVU288
 996 0078 ADF82230 		strh	r3, [sp, #34]	@ movhi
 455:Middlewares/lvgl/src/widgets/lv_roller.c ****         lv_obj_get_coords(obj, &roller_coords);
 997              		.loc 1 455 9 is_stmt 1 view .LVU289
 456:Middlewares/lvgl/src/widgets/lv_roller.c **** 
 998              		.loc 1 456 9 view .LVU290
ARM GAS  /tmp/cc9MIr9f.s 			page 48


 999 007c 09A9     		add	r1, sp, #36
 1000 007e 2046     		mov	r0, r4
 1001 0080 FFF7FEFF 		bl	lv_obj_get_coords
 1002              	.LVL122:
 458:Middlewares/lvgl/src/widgets/lv_roller.c ****         rect_area.x2 = roller_coords.x2;
 1003              		.loc 1 458 9 view .LVU291
 458:Middlewares/lvgl/src/widgets/lv_roller.c ****         rect_area.x2 = roller_coords.x2;
 1004              		.loc 1 458 37 is_stmt 0 view .LVU292
 1005 0084 BDF92430 		ldrsh	r3, [sp, #36]
 458:Middlewares/lvgl/src/widgets/lv_roller.c ****         rect_area.x2 = roller_coords.x2;
 1006              		.loc 1 458 22 view .LVU293
 1007 0088 ADF81C30 		strh	r3, [sp, #28]	@ movhi
 459:Middlewares/lvgl/src/widgets/lv_roller.c **** 
 1008              		.loc 1 459 9 is_stmt 1 view .LVU294
 459:Middlewares/lvgl/src/widgets/lv_roller.c **** 
 1009              		.loc 1 459 37 is_stmt 0 view .LVU295
 1010 008c BDF92830 		ldrsh	r3, [sp, #40]
 459:Middlewares/lvgl/src/widgets/lv_roller.c **** 
 1011              		.loc 1 459 22 view .LVU296
 1012 0090 ADF82030 		strh	r3, [sp, #32]	@ movhi
 461:Middlewares/lvgl/src/widgets/lv_roller.c ****         lv_draw_rect_dsc_init(&sel_dsc);
 1013              		.loc 1 461 9 is_stmt 1 view .LVU297
 462:Middlewares/lvgl/src/widgets/lv_roller.c ****         lv_obj_init_draw_rect_dsc(obj, LV_PART_SELECTED, &sel_dsc);
 1014              		.loc 1 462 9 view .LVU298
 1015 0094 0BA8     		add	r0, sp, #44
 1016 0096 FFF7FEFF 		bl	lv_draw_rect_dsc_init
 1017              	.LVL123:
 463:Middlewares/lvgl/src/widgets/lv_roller.c ****         lv_draw_rect(&rect_area, clip_area, &sel_dsc);
 1018              		.loc 1 463 9 view .LVU299
 1019 009a 0BAA     		add	r2, sp, #44
 1020 009c 4FF48021 		mov	r1, #262144
 1021 00a0 2046     		mov	r0, r4
 1022 00a2 FFF7FEFF 		bl	lv_obj_init_draw_rect_dsc
 1023              	.LVL124:
 464:Middlewares/lvgl/src/widgets/lv_roller.c ****     }
 1024              		.loc 1 464 9 view .LVU300
 1025 00a6 0BAA     		add	r2, sp, #44
 1026 00a8 3146     		mov	r1, r6
 1027 00aa 07A8     		add	r0, sp, #28
 1028 00ac FFF7FEFF 		bl	lv_draw_rect
 1029              	.LVL125:
 1030              	.LBE110:
 1031 00b0 B5E7     		b	.L32
 1032              	.LVL126:
 1033              	.L38:
 1034              	.LBB117:
 468:Middlewares/lvgl/src/widgets/lv_roller.c **** 
 1035              		.loc 1 468 9 view .LVU301
 468:Middlewares/lvgl/src/widgets/lv_roller.c **** 
 1036              		.loc 1 468 39 is_stmt 0 view .LVU302
 1037 00b2 3046     		mov	r0, r6
 1038              	.LVL127:
 468:Middlewares/lvgl/src/widgets/lv_roller.c **** 
 1039              		.loc 1 468 39 view .LVU303
 1040 00b4 FFF7FEFF 		bl	lv_event_get_param
 1041              	.LVL128:
 1042 00b8 0646     		mov	r6, r0
ARM GAS  /tmp/cc9MIr9f.s 			page 49


 1043              	.LVL129:
 470:Middlewares/lvgl/src/widgets/lv_roller.c ****         lv_draw_label_dsc_init(&label_dsc);
 1044              		.loc 1 470 9 is_stmt 1 view .LVU304
 471:Middlewares/lvgl/src/widgets/lv_roller.c ****         lv_obj_init_draw_label_dsc(obj, LV_PART_SELECTED, &label_dsc);
 1045              		.loc 1 471 9 view .LVU305
 1046 00ba 0BA8     		add	r0, sp, #44
 1047              	.LVL130:
 471:Middlewares/lvgl/src/widgets/lv_roller.c ****         lv_obj_init_draw_label_dsc(obj, LV_PART_SELECTED, &label_dsc);
 1048              		.loc 1 471 9 is_stmt 0 view .LVU306
 1049 00bc FFF7FEFF 		bl	lv_draw_label_dsc_init
 1050              	.LVL131:
 472:Middlewares/lvgl/src/widgets/lv_roller.c **** 
 1051              		.loc 1 472 9 is_stmt 1 view .LVU307
 1052 00c0 0BAA     		add	r2, sp, #44
 1053 00c2 4FF48021 		mov	r1, #262144
 1054 00c6 2046     		mov	r0, r4
 1055 00c8 FFF7FEFF 		bl	lv_obj_init_draw_label_dsc
 1056              	.LVL132:
 474:Middlewares/lvgl/src/widgets/lv_roller.c **** 
 1057              		.loc 1 474 9 view .LVU308
 1058              	.LBB118:
 1059              	.LBI118:
 331:Middlewares/lvgl/src/widgets/../core/lv_obj_style_gen.h **** {
 1060              		.loc 2 331 33 view .LVU309
 1061              	.LBB119:
 333:Middlewares/lvgl/src/widgets/../core/lv_obj_style_gen.h ****     return (const lv_font_t *)v.ptr;
 1062              		.loc 2 333 5 view .LVU310
 333:Middlewares/lvgl/src/widgets/../core/lv_obj_style_gen.h ****     return (const lv_font_t *)v.ptr;
 1063              		.loc 2 333 26 is_stmt 0 view .LVU311
 1064 00cc 41F25942 		movw	r2, #5209
 1065 00d0 0021     		movs	r1, #0
 1066 00d2 2046     		mov	r0, r4
 1067 00d4 FFF7FEFF 		bl	lv_obj_get_style_prop
 1068              	.LVL133:
 334:Middlewares/lvgl/src/widgets/../core/lv_obj_style_gen.h **** }
 1069              		.loc 2 334 5 is_stmt 1 view .LVU312
 334:Middlewares/lvgl/src/widgets/../core/lv_obj_style_gen.h **** }
 1070              		.loc 2 334 5 is_stmt 0 view .LVU313
 1071              	.LBE119:
 1072              	.LBE118:
 1073              	.LBB120:
 1074              	.LBI120:
 118:Middlewares/lvgl/src/widgets/../core/../misc/../font/lv_font.h **** {
 1075              		.loc 3 118 26 is_stmt 1 view .LVU314
 1076              	.LBB121:
 1077              		.loc 3 120 5 view .LVU315
 1078              		.loc 3 120 18 is_stmt 0 view .LVU316
 1079 00d8 B0F90870 		ldrsh	r7, [r0, #8]
 1080              	.LVL134:
 1081              		.loc 3 120 18 view .LVU317
 1082              	.LBE121:
 1083              	.LBE120:
 477:Middlewares/lvgl/src/widgets/lv_roller.c ****         rect_area.y1 = obj->coords.y1 + (lv_obj_get_height(obj) - bg_font_h - label_dsc.line_space)
 1084              		.loc 1 477 9 is_stmt 1 view .LVU318
 478:Middlewares/lvgl/src/widgets/lv_roller.c ****         rect_area.y2 = rect_area.y1 + bg_font_h + label_dsc.line_space - 1;
 1085              		.loc 1 478 9 view .LVU319
 478:Middlewares/lvgl/src/widgets/lv_roller.c ****         rect_area.y2 = rect_area.y1 + bg_font_h + label_dsc.line_space - 1;
ARM GAS  /tmp/cc9MIr9f.s 			page 50


 1086              		.loc 1 478 35 is_stmt 0 view .LVU320
 1087 00dc E58A     		ldrh	r5, [r4, #22]
 1088              	.LVL135:
 478:Middlewares/lvgl/src/widgets/lv_roller.c ****         rect_area.y2 = rect_area.y1 + bg_font_h + label_dsc.line_space - 1;
 1089              		.loc 1 478 42 view .LVU321
 1090 00de 2046     		mov	r0, r4
 1091 00e0 FFF7FEFF 		bl	lv_obj_get_height
 1092              	.LVL136:
 478:Middlewares/lvgl/src/widgets/lv_roller.c ****         rect_area.y2 = rect_area.y1 + bg_font_h + label_dsc.line_space - 1;
 1093              		.loc 1 478 65 view .LVU322
 1094 00e4 C01B     		subs	r0, r0, r7
 478:Middlewares/lvgl/src/widgets/lv_roller.c ****         rect_area.y2 = rect_area.y1 + bg_font_h + label_dsc.line_space - 1;
 1095              		.loc 1 478 88 view .LVU323
 1096 00e6 BDF93E20 		ldrsh	r2, [sp, #62]
 478:Middlewares/lvgl/src/widgets/lv_roller.c ****         rect_area.y2 = rect_area.y1 + bg_font_h + label_dsc.line_space - 1;
 1097              		.loc 1 478 77 view .LVU324
 1098 00ea 801A     		subs	r0, r0, r2
 478:Middlewares/lvgl/src/widgets/lv_roller.c ****         rect_area.y2 = rect_area.y1 + bg_font_h + label_dsc.line_space - 1;
 1099              		.loc 1 478 101 view .LVU325
 1100 00ec 00EBD070 		add	r0, r0, r0, lsr #31
 478:Middlewares/lvgl/src/widgets/lv_roller.c ****         rect_area.y2 = rect_area.y1 + bg_font_h + label_dsc.line_space - 1;
 1101              		.loc 1 478 39 view .LVU326
 1102 00f0 05EB6003 		add	r3, r5, r0, asr #1
 478:Middlewares/lvgl/src/widgets/lv_roller.c ****         rect_area.y2 = rect_area.y1 + bg_font_h + label_dsc.line_space - 1;
 1103              		.loc 1 478 22 view .LVU327
 1104 00f4 ADF81630 		strh	r3, [sp, #22]	@ movhi
 479:Middlewares/lvgl/src/widgets/lv_roller.c ****         rect_area.x1 = obj->coords.x1;
 1105              		.loc 1 479 9 is_stmt 1 view .LVU328
 479:Middlewares/lvgl/src/widgets/lv_roller.c ****         rect_area.x1 = obj->coords.x1;
 1106              		.loc 1 479 37 is_stmt 0 view .LVU329
 1107 00f8 17FA83F3 		uxtah	r3, r7, r3
 479:Middlewares/lvgl/src/widgets/lv_roller.c ****         rect_area.x1 = obj->coords.x1;
 1108              		.loc 1 479 60 view .LVU330
 1109 00fc 92B2     		uxth	r2, r2
 479:Middlewares/lvgl/src/widgets/lv_roller.c ****         rect_area.x1 = obj->coords.x1;
 1110              		.loc 1 479 49 view .LVU331
 1111 00fe 12FA83F3 		uxtah	r3, r2, r3
 1112 0102 9BB2     		uxth	r3, r3
 479:Middlewares/lvgl/src/widgets/lv_roller.c ****         rect_area.x1 = obj->coords.x1;
 1113              		.loc 1 479 72 view .LVU332
 1114 0104 013B     		subs	r3, r3, #1
 479:Middlewares/lvgl/src/widgets/lv_roller.c ****         rect_area.x1 = obj->coords.x1;
 1115              		.loc 1 479 22 view .LVU333
 1116 0106 ADF81A30 		strh	r3, [sp, #26]	@ movhi
 480:Middlewares/lvgl/src/widgets/lv_roller.c ****         rect_area.x2 = obj->coords.x2;
 1117              		.loc 1 480 9 is_stmt 1 view .LVU334
 480:Middlewares/lvgl/src/widgets/lv_roller.c ****         rect_area.x2 = obj->coords.x2;
 1118              		.loc 1 480 35 is_stmt 0 view .LVU335
 1119 010a B4F91430 		ldrsh	r3, [r4, #20]
 480:Middlewares/lvgl/src/widgets/lv_roller.c ****         rect_area.x2 = obj->coords.x2;
 1120              		.loc 1 480 22 view .LVU336
 1121 010e ADF81430 		strh	r3, [sp, #20]	@ movhi
 481:Middlewares/lvgl/src/widgets/lv_roller.c ****         lv_area_t mask_sel;
 1122              		.loc 1 481 9 is_stmt 1 view .LVU337
 481:Middlewares/lvgl/src/widgets/lv_roller.c ****         lv_area_t mask_sel;
 1123              		.loc 1 481 35 is_stmt 0 view .LVU338
 1124 0112 B4F91830 		ldrsh	r3, [r4, #24]
ARM GAS  /tmp/cc9MIr9f.s 			page 51


 481:Middlewares/lvgl/src/widgets/lv_roller.c ****         lv_area_t mask_sel;
 1125              		.loc 1 481 22 view .LVU339
 1126 0116 ADF81830 		strh	r3, [sp, #24]	@ movhi
 482:Middlewares/lvgl/src/widgets/lv_roller.c ****         bool area_ok;
 1127              		.loc 1 482 9 is_stmt 1 view .LVU340
 483:Middlewares/lvgl/src/widgets/lv_roller.c ****         area_ok = _lv_area_intersect(&mask_sel, clip_area, &rect_area);
 1128              		.loc 1 483 9 view .LVU341
 484:Middlewares/lvgl/src/widgets/lv_roller.c ****         if(area_ok) {
 1129              		.loc 1 484 9 view .LVU342
 484:Middlewares/lvgl/src/widgets/lv_roller.c ****         if(area_ok) {
 1130              		.loc 1 484 19 is_stmt 0 view .LVU343
 1131 011a 05AA     		add	r2, sp, #20
 1132 011c 3146     		mov	r1, r6
 1133 011e 07A8     		add	r0, sp, #28
 1134 0120 FFF7FEFF 		bl	_lv_area_intersect
 1135              	.LVL137:
 485:Middlewares/lvgl/src/widgets/lv_roller.c ****             lv_obj_t * label = get_label(obj);
 1136              		.loc 1 485 9 is_stmt 1 view .LVU344
 485:Middlewares/lvgl/src/widgets/lv_roller.c ****             lv_obj_t * label = get_label(obj);
 1137              		.loc 1 485 11 is_stmt 0 view .LVU345
 1138 0124 0028     		cmp	r0, #0
 1139 0126 3FF47AAF 		beq	.L32
 1140              	.LBB122:
 486:Middlewares/lvgl/src/widgets/lv_roller.c **** 
 1141              		.loc 1 486 13 is_stmt 1 view .LVU346
 486:Middlewares/lvgl/src/widgets/lv_roller.c **** 
 1142              		.loc 1 486 32 is_stmt 0 view .LVU347
 1143 012a 2046     		mov	r0, r4
 1144              	.LVL138:
 486:Middlewares/lvgl/src/widgets/lv_roller.c **** 
 1145              		.loc 1 486 32 view .LVU348
 1146 012c FFF7FEFF 		bl	get_label
 1147              	.LVL139:
 1148 0130 0646     		mov	r6, r0
 1149              	.LVL140:
 489:Middlewares/lvgl/src/widgets/lv_roller.c ****             lv_txt_get_size(&res_p, lv_label_get_text(label), label_dsc.font, label_dsc.letter_spac
 1150              		.loc 1 489 13 is_stmt 1 view .LVU349
 490:Middlewares/lvgl/src/widgets/lv_roller.c ****                              lv_obj_get_width(obj), LV_TEXT_FLAG_EXPAND);
 1151              		.loc 1 490 13 view .LVU350
 490:Middlewares/lvgl/src/widgets/lv_roller.c ****                              lv_obj_get_width(obj), LV_TEXT_FLAG_EXPAND);
 1152              		.loc 1 490 37 is_stmt 0 view .LVU351
 1153 0132 FFF7FEFF 		bl	lv_label_get_text
 1154              	.LVL141:
 490:Middlewares/lvgl/src/widgets/lv_roller.c ****                              lv_obj_get_width(obj), LV_TEXT_FLAG_EXPAND);
 1155              		.loc 1 490 37 view .LVU352
 1156 0136 0546     		mov	r5, r0
 490:Middlewares/lvgl/src/widgets/lv_roller.c ****                              lv_obj_get_width(obj), LV_TEXT_FLAG_EXPAND);
 1157              		.loc 1 490 13 view .LVU353
 1158 0138 0B9F     		ldr	r7, [sp, #44]
 1159              	.LVL142:
 490:Middlewares/lvgl/src/widgets/lv_roller.c ****                              lv_obj_get_width(obj), LV_TEXT_FLAG_EXPAND);
 1160              		.loc 1 490 13 view .LVU354
 1161 013a BDF94080 		ldrsh	r8, [sp, #64]
 1162 013e BDF93E90 		ldrsh	r9, [sp, #62]
 1163 0142 2046     		mov	r0, r4
 1164 0144 FFF7FEFF 		bl	lv_obj_get_width
 1165              	.LVL143:
ARM GAS  /tmp/cc9MIr9f.s 			page 52


 1166 0148 0223     		movs	r3, #2
 1167 014a 0293     		str	r3, [sp, #8]
 1168 014c 0190     		str	r0, [sp, #4]
 1169 014e CDF80090 		str	r9, [sp]
 1170 0152 4346     		mov	r3, r8
 1171 0154 3A46     		mov	r2, r7
 1172 0156 2946     		mov	r1, r5
 1173 0158 04A8     		add	r0, sp, #16
 1174 015a FFF7FEFF 		bl	lv_txt_get_size
 1175              	.LVL144:
 494:Middlewares/lvgl/src/widgets/lv_roller.c ****             int32_t label_y_prop = label->coords.y1 - (roller_h / 2 +
 1176              		.loc 1 494 13 is_stmt 1 view .LVU355
 494:Middlewares/lvgl/src/widgets/lv_roller.c ****             int32_t label_y_prop = label->coords.y1 - (roller_h / 2 +
 1177              		.loc 1 494 35 is_stmt 0 view .LVU356
 1178 015e 2046     		mov	r0, r4
 1179 0160 FFF7FEFF 		bl	lv_obj_get_height
 1180              	.LVL145:
 495:Middlewares/lvgl/src/widgets/lv_roller.c ****                     obj->coords.y1); /*label offset from the middle line of the roller*/
 1181              		.loc 1 495 13 is_stmt 1 view .LVU357
 495:Middlewares/lvgl/src/widgets/lv_roller.c ****                     obj->coords.y1); /*label offset from the middle line of the roller*/
 1182              		.loc 1 495 49 is_stmt 0 view .LVU358
 1183 0164 B6F91670 		ldrsh	r7, [r6, #22]
 495:Middlewares/lvgl/src/widgets/lv_roller.c ****                     obj->coords.y1); /*label offset from the middle line of the roller*/
 1184              		.loc 1 495 65 view .LVU359
 1185 0168 00EBD070 		add	r0, r0, r0, lsr #31
 1186              	.LVL146:
 495:Middlewares/lvgl/src/widgets/lv_roller.c ****                     obj->coords.y1); /*label offset from the middle line of the roller*/
 1187              		.loc 1 495 65 view .LVU360
 1188 016c 40F34F05 		sbfx	r5, r0, #1, #16
 496:Middlewares/lvgl/src/widgets/lv_roller.c ****             label_y_prop = (label_y_prop * 16384) / lv_obj_get_height(
 1189              		.loc 1 496 32 view .LVU361
 1190 0170 B4F91630 		ldrsh	r3, [r4, #22]
 495:Middlewares/lvgl/src/widgets/lv_roller.c ****                     obj->coords.y1); /*label offset from the middle line of the roller*/
 1191              		.loc 1 495 69 view .LVU362
 1192 0174 2B44     		add	r3, r3, r5
 495:Middlewares/lvgl/src/widgets/lv_roller.c ****                     obj->coords.y1); /*label offset from the middle line of the roller*/
 1193              		.loc 1 495 21 view .LVU363
 1194 0176 FF1A     		subs	r7, r7, r3
 1195              	.LVL147:
 497:Middlewares/lvgl/src/widgets/lv_roller.c ****                                label); /*Proportional position from the middle line (upscaled by <<
 1196              		.loc 1 497 13 is_stmt 1 view .LVU364
 497:Middlewares/lvgl/src/widgets/lv_roller.c ****                                label); /*Proportional position from the middle line (upscaled by <<
 1197              		.loc 1 497 42 is_stmt 0 view .LVU365
 1198 0178 BF03     		lsls	r7, r7, #14
 1199              	.LVL148:
 497:Middlewares/lvgl/src/widgets/lv_roller.c ****                                label); /*Proportional position from the middle line (upscaled by <<
 1200              		.loc 1 497 53 view .LVU366
 1201 017a 3046     		mov	r0, r6
 1202 017c FFF7FEFF 		bl	lv_obj_get_height
 1203              	.LVL149:
 497:Middlewares/lvgl/src/widgets/lv_roller.c ****                                label); /*Proportional position from the middle line (upscaled by <<
 1204              		.loc 1 497 26 view .LVU367
 1205 0180 97FBF0F7 		sdiv	r7, r7, r0
 1206              	.LVL150:
 501:Middlewares/lvgl/src/widgets/lv_roller.c ****             lv_coord_t corr = (label_dsc.font->line_height - normal_label_font->line_height) / 2;
 1207              		.loc 1 501 13 is_stmt 1 view .LVU368
 1208              	.LBB123:
ARM GAS  /tmp/cc9MIr9f.s 			page 53


 1209              	.LBI123:
 331:Middlewares/lvgl/src/widgets/../core/lv_obj_style_gen.h **** {
 1210              		.loc 2 331 33 view .LVU369
 1211              	.LBB124:
 333:Middlewares/lvgl/src/widgets/../core/lv_obj_style_gen.h ****     return (const lv_font_t *)v.ptr;
 1212              		.loc 2 333 5 view .LVU370
 333:Middlewares/lvgl/src/widgets/../core/lv_obj_style_gen.h ****     return (const lv_font_t *)v.ptr;
 1213              		.loc 2 333 26 is_stmt 0 view .LVU371
 1214 0184 41F25942 		movw	r2, #5209
 1215 0188 0021     		movs	r1, #0
 1216 018a 2046     		mov	r0, r4
 1217 018c FFF7FEFF 		bl	lv_obj_get_style_prop
 1218              	.LVL151:
 334:Middlewares/lvgl/src/widgets/../core/lv_obj_style_gen.h **** }
 1219              		.loc 2 334 5 is_stmt 1 view .LVU372
 334:Middlewares/lvgl/src/widgets/../core/lv_obj_style_gen.h **** }
 1220              		.loc 2 334 5 is_stmt 0 view .LVU373
 1221              	.LBE124:
 1222              	.LBE123:
 502:Middlewares/lvgl/src/widgets/lv_roller.c **** 
 1223              		.loc 1 502 13 is_stmt 1 view .LVU374
 502:Middlewares/lvgl/src/widgets/lv_roller.c **** 
 1224              		.loc 1 502 41 is_stmt 0 view .LVU375
 1225 0190 0B9B     		ldr	r3, [sp, #44]
 502:Middlewares/lvgl/src/widgets/lv_roller.c **** 
 1226              		.loc 1 502 46 view .LVU376
 1227 0192 B3F90820 		ldrsh	r2, [r3, #8]
 502:Middlewares/lvgl/src/widgets/lv_roller.c **** 
 1228              		.loc 1 502 79 view .LVU377
 1229 0196 B0F90830 		ldrsh	r3, [r0, #8]
 502:Middlewares/lvgl/src/widgets/lv_roller.c **** 
 1230              		.loc 1 502 60 view .LVU378
 1231 019a D21A     		subs	r2, r2, r3
 502:Middlewares/lvgl/src/widgets/lv_roller.c **** 
 1232              		.loc 1 502 94 view .LVU379
 1233 019c 02EBD272 		add	r2, r2, r2, lsr #31
 502:Middlewares/lvgl/src/widgets/lv_roller.c **** 
 1234              		.loc 1 502 24 view .LVU380
 1235 01a0 42F34F00 		sbfx	r0, r2, #1, #16
 1236              	.LVL152:
 505:Middlewares/lvgl/src/widgets/lv_roller.c ****             int32_t label_sel_y = roller_h / 2 + obj->coords.y1;
 1237              		.loc 1 505 13 is_stmt 1 view .LVU381
 505:Middlewares/lvgl/src/widgets/lv_roller.c ****             int32_t label_sel_y = roller_h / 2 + obj->coords.y1;
 1238              		.loc 1 505 21 is_stmt 0 view .LVU382
 1239 01a4 BDF81230 		ldrh	r3, [sp, #18]
 1240 01a8 A3EB6202 		sub	r2, r3, r2, asr #1
 1241 01ac 11B2     		sxth	r1, r2
 1242 01ae ADF81210 		strh	r1, [sp, #18]	@ movhi
 506:Middlewares/lvgl/src/widgets/lv_roller.c ****             label_sel_y += (label_y_prop * res_p.y) >> 14;
 1243              		.loc 1 506 13 is_stmt 1 view .LVU383
 506:Middlewares/lvgl/src/widgets/lv_roller.c ****             label_sel_y += (label_y_prop * res_p.y) >> 14;
 1244              		.loc 1 506 61 is_stmt 0 view .LVU384
 1245 01b2 B4F91630 		ldrsh	r3, [r4, #22]
 506:Middlewares/lvgl/src/widgets/lv_roller.c ****             label_sel_y += (label_y_prop * res_p.y) >> 14;
 1246              		.loc 1 506 21 view .LVU385
 1247 01b6 2B44     		add	r3, r3, r5
 1248              	.LVL153:
ARM GAS  /tmp/cc9MIr9f.s 			page 54


 507:Middlewares/lvgl/src/widgets/lv_roller.c ****             label_sel_y -= corr;
 1249              		.loc 1 507 13 is_stmt 1 view .LVU386
 507:Middlewares/lvgl/src/widgets/lv_roller.c ****             label_sel_y -= corr;
 1250              		.loc 1 507 42 is_stmt 0 view .LVU387
 1251 01b8 07FB01F1 		mul	r1, r7, r1
 507:Middlewares/lvgl/src/widgets/lv_roller.c ****             label_sel_y -= corr;
 1252              		.loc 1 507 25 view .LVU388
 1253 01bc 03EBA133 		add	r3, r3, r1, asr #14
 1254              	.LVL154:
 508:Middlewares/lvgl/src/widgets/lv_roller.c **** 
 1255              		.loc 1 508 13 is_stmt 1 view .LVU389
 508:Middlewares/lvgl/src/widgets/lv_roller.c **** 
 1256              		.loc 1 508 25 is_stmt 0 view .LVU390
 1257 01c0 1B1A     		subs	r3, r3, r0
 1258              	.LVL155:
 511:Middlewares/lvgl/src/widgets/lv_roller.c ****             label_sel_area.x1 = label->coords.x1;
 1259              		.loc 1 511 13 is_stmt 1 view .LVU391
 512:Middlewares/lvgl/src/widgets/lv_roller.c ****             label_sel_area.y1 = label_sel_y;
 1260              		.loc 1 512 13 view .LVU392
 512:Middlewares/lvgl/src/widgets/lv_roller.c ****             label_sel_area.y1 = label_sel_y;
 1261              		.loc 1 512 46 is_stmt 0 view .LVU393
 1262 01c2 B6F91410 		ldrsh	r1, [r6, #20]
 512:Middlewares/lvgl/src/widgets/lv_roller.c ****             label_sel_area.y1 = label_sel_y;
 1263              		.loc 1 512 31 view .LVU394
 1264 01c6 ADF82410 		strh	r1, [sp, #36]	@ movhi
 513:Middlewares/lvgl/src/widgets/lv_roller.c ****             label_sel_area.x2 = label->coords.x2;
 1265              		.loc 1 513 13 is_stmt 1 view .LVU395
 513:Middlewares/lvgl/src/widgets/lv_roller.c ****             label_sel_area.x2 = label->coords.x2;
 1266              		.loc 1 513 31 is_stmt 0 view .LVU396
 1267 01ca 1BB2     		sxth	r3, r3
 1268              	.LVL156:
 513:Middlewares/lvgl/src/widgets/lv_roller.c ****             label_sel_area.x2 = label->coords.x2;
 1269              		.loc 1 513 31 view .LVU397
 1270 01cc ADF82630 		strh	r3, [sp, #38]	@ movhi
 514:Middlewares/lvgl/src/widgets/lv_roller.c ****             label_sel_area.y2 = label_sel_area.y1 + res_p.y;
 1271              		.loc 1 514 13 is_stmt 1 view .LVU398
 514:Middlewares/lvgl/src/widgets/lv_roller.c ****             label_sel_area.y2 = label_sel_area.y1 + res_p.y;
 1272              		.loc 1 514 46 is_stmt 0 view .LVU399
 1273 01d0 B6F91810 		ldrsh	r1, [r6, #24]
 514:Middlewares/lvgl/src/widgets/lv_roller.c ****             label_sel_area.y2 = label_sel_area.y1 + res_p.y;
 1274              		.loc 1 514 31 view .LVU400
 1275 01d4 ADF82810 		strh	r1, [sp, #40]	@ movhi
 515:Middlewares/lvgl/src/widgets/lv_roller.c **** 
 1276              		.loc 1 515 13 is_stmt 1 view .LVU401
 515:Middlewares/lvgl/src/widgets/lv_roller.c **** 
 1277              		.loc 1 515 47 is_stmt 0 view .LVU402
 1278 01d8 9BB2     		uxth	r3, r3
 515:Middlewares/lvgl/src/widgets/lv_roller.c **** 
 1279              		.loc 1 515 51 view .LVU403
 1280 01da 13FA82F3 		uxtah	r3, r3, r2
 515:Middlewares/lvgl/src/widgets/lv_roller.c **** 
 1281              		.loc 1 515 31 view .LVU404
 1282 01de ADF82A30 		strh	r3, [sp, #42]	@ movhi
 517:Middlewares/lvgl/src/widgets/lv_roller.c ****             lv_draw_label(&label_sel_area, &mask_sel, &label_dsc, lv_label_get_text(label), NULL);
 1283              		.loc 1 517 13 is_stmt 1 view .LVU405
 517:Middlewares/lvgl/src/widgets/lv_roller.c ****             lv_draw_label(&label_sel_area, &mask_sel, &label_dsc, lv_label_get_text(label), NULL);
 1284              		.loc 1 517 28 is_stmt 0 view .LVU406
ARM GAS  /tmp/cc9MIr9f.s 			page 55


 1285 01e2 9DF84830 		ldrb	r3, [sp, #72]	@ zero_extendqisi2
 1286 01e6 43F00203 		orr	r3, r3, #2
 1287 01ea 8DF84830 		strb	r3, [sp, #72]
 518:Middlewares/lvgl/src/widgets/lv_roller.c ****         }
 1288              		.loc 1 518 13 is_stmt 1 view .LVU407
 518:Middlewares/lvgl/src/widgets/lv_roller.c ****         }
 1289              		.loc 1 518 67 is_stmt 0 view .LVU408
 1290 01ee 3046     		mov	r0, r6
 1291              	.LVL157:
 518:Middlewares/lvgl/src/widgets/lv_roller.c ****         }
 1292              		.loc 1 518 67 view .LVU409
 1293 01f0 FFF7FEFF 		bl	lv_label_get_text
 1294              	.LVL158:
 518:Middlewares/lvgl/src/widgets/lv_roller.c ****         }
 1295              		.loc 1 518 67 view .LVU410
 1296 01f4 0346     		mov	r3, r0
 518:Middlewares/lvgl/src/widgets/lv_roller.c ****         }
 1297              		.loc 1 518 13 view .LVU411
 1298 01f6 0022     		movs	r2, #0
 1299 01f8 0092     		str	r2, [sp]
 1300 01fa 0BAA     		add	r2, sp, #44
 1301 01fc 07A9     		add	r1, sp, #28
 1302 01fe 09A8     		add	r0, sp, #36
 1303 0200 FFF7FEFF 		bl	lv_draw_label
 1304              	.LVL159:
 1305              	.LBE122:
 1306              	.LBE117:
 521:Middlewares/lvgl/src/widgets/lv_roller.c **** 
 1307              		.loc 1 521 1 view .LVU412
 1308 0204 0BE7     		b	.L32
 1309              		.cfi_endproc
 1310              	.LFE158:
 1312              		.section	.text.draw_label,"ax",%progbits
 1313              		.align	1
 1314              		.syntax unified
 1315              		.thumb
 1316              		.thumb_func
 1317              		.fpu fpv4-sp-d16
 1319              	draw_label:
 1320              	.LVL160:
 1321              	.LFB159:
 524:Middlewares/lvgl/src/widgets/lv_roller.c ****     /* Split the drawing of the label into  an upper (above the selected area)
 1322              		.loc 1 524 1 is_stmt 1 view -0
 1323              		.cfi_startproc
 1324              		@ args = 0, pretend = 0, frame = 56
 1325              		@ frame_needed = 0, uses_anonymous_args = 0
 524:Middlewares/lvgl/src/widgets/lv_roller.c ****     /* Split the drawing of the label into  an upper (above the selected area)
 1326              		.loc 1 524 1 is_stmt 0 view .LVU414
 1327 0000 2DE9F043 		push	{r4, r5, r6, r7, r8, r9, lr}
 1328              	.LCFI16:
 1329              		.cfi_def_cfa_offset 28
 1330              		.cfi_offset 4, -28
 1331              		.cfi_offset 5, -24
 1332              		.cfi_offset 6, -20
 1333              		.cfi_offset 7, -16
 1334              		.cfi_offset 8, -12
 1335              		.cfi_offset 9, -8
ARM GAS  /tmp/cc9MIr9f.s 			page 56


 1336              		.cfi_offset 14, -4
 1337 0004 91B0     		sub	sp, sp, #68
 1338              	.LCFI17:
 1339              		.cfi_def_cfa_offset 96
 1340 0006 0446     		mov	r4, r0
 527:Middlewares/lvgl/src/widgets/lv_roller.c ****     lv_obj_t * roller = lv_obj_get_parent(label_obj);
 1341              		.loc 1 527 5 is_stmt 1 view .LVU415
 527:Middlewares/lvgl/src/widgets/lv_roller.c ****     lv_obj_t * roller = lv_obj_get_parent(label_obj);
 1342              		.loc 1 527 28 is_stmt 0 view .LVU416
 1343 0008 FFF7FEFF 		bl	lv_event_get_target
 1344              	.LVL161:
 527:Middlewares/lvgl/src/widgets/lv_roller.c ****     lv_obj_t * roller = lv_obj_get_parent(label_obj);
 1345              		.loc 1 527 28 view .LVU417
 1346 000c 0546     		mov	r5, r0
 1347              	.LVL162:
 528:Middlewares/lvgl/src/widgets/lv_roller.c ****     lv_draw_label_dsc_t label_draw_dsc;
 1348              		.loc 1 528 5 is_stmt 1 view .LVU418
 528:Middlewares/lvgl/src/widgets/lv_roller.c ****     lv_draw_label_dsc_t label_draw_dsc;
 1349              		.loc 1 528 25 is_stmt 0 view .LVU419
 1350 000e FFF7FEFF 		bl	lv_obj_get_parent
 1351              	.LVL163:
 528:Middlewares/lvgl/src/widgets/lv_roller.c ****     lv_draw_label_dsc_t label_draw_dsc;
 1352              		.loc 1 528 25 view .LVU420
 1353 0012 0646     		mov	r6, r0
 1354              	.LVL164:
 529:Middlewares/lvgl/src/widgets/lv_roller.c ****     lv_draw_label_dsc_init(&label_draw_dsc);
 1355              		.loc 1 529 5 is_stmt 1 view .LVU421
 530:Middlewares/lvgl/src/widgets/lv_roller.c ****     lv_obj_init_draw_label_dsc(roller, LV_PART_MAIN, &label_draw_dsc);
 1356              		.loc 1 530 5 view .LVU422
 1357 0014 08A8     		add	r0, sp, #32
 1358              	.LVL165:
 530:Middlewares/lvgl/src/widgets/lv_roller.c ****     lv_obj_init_draw_label_dsc(roller, LV_PART_MAIN, &label_draw_dsc);
 1359              		.loc 1 530 5 is_stmt 0 view .LVU423
 1360 0016 FFF7FEFF 		bl	lv_draw_label_dsc_init
 1361              	.LVL166:
 531:Middlewares/lvgl/src/widgets/lv_roller.c ****     const lv_font_t * font = label_draw_dsc.font;
 1362              		.loc 1 531 5 is_stmt 1 view .LVU424
 1363 001a 08AA     		add	r2, sp, #32
 1364 001c 0021     		movs	r1, #0
 1365 001e 3046     		mov	r0, r6
 1366 0020 FFF7FEFF 		bl	lv_obj_init_draw_label_dsc
 1367              	.LVL167:
 532:Middlewares/lvgl/src/widgets/lv_roller.c ****     lv_coord_t line_space = label_draw_dsc.line_space;
 1368              		.loc 1 532 5 view .LVU425
 533:Middlewares/lvgl/src/widgets/lv_roller.c ****     lv_coord_t font_h        = lv_font_get_line_height(font);
 1369              		.loc 1 533 5 view .LVU426
 533:Middlewares/lvgl/src/widgets/lv_roller.c ****     lv_coord_t font_h        = lv_font_get_line_height(font);
 1370              		.loc 1 533 16 is_stmt 0 view .LVU427
 1371 0024 BDF93290 		ldrsh	r9, [sp, #50]
 1372              	.LVL168:
 534:Middlewares/lvgl/src/widgets/lv_roller.c ****     const lv_area_t * clip_area = lv_event_get_param(e);
 1373              		.loc 1 534 5 is_stmt 1 view .LVU428
 1374              	.LBB125:
 1375              	.LBI125:
 118:Middlewares/lvgl/src/widgets/../core/../misc/../font/lv_font.h **** {
 1376              		.loc 3 118 26 view .LVU429
 1377              	.LBB126:
ARM GAS  /tmp/cc9MIr9f.s 			page 57


 1378              		.loc 3 120 5 view .LVU430
 1379              		.loc 3 120 18 is_stmt 0 view .LVU431
 1380 0028 089B     		ldr	r3, [sp, #32]
 1381 002a B3F90880 		ldrsh	r8, [r3, #8]
 1382              	.LVL169:
 1383              		.loc 3 120 18 view .LVU432
 1384              	.LBE126:
 1385              	.LBE125:
 535:Middlewares/lvgl/src/widgets/lv_roller.c **** 
 1386              		.loc 1 535 5 is_stmt 1 view .LVU433
 535:Middlewares/lvgl/src/widgets/lv_roller.c **** 
 1387              		.loc 1 535 35 is_stmt 0 view .LVU434
 1388 002e 2046     		mov	r0, r4
 1389 0030 FFF7FEFF 		bl	lv_event_get_param
 1390              	.LVL170:
 535:Middlewares/lvgl/src/widgets/lv_roller.c **** 
 1391              		.loc 1 535 35 view .LVU435
 1392 0034 0746     		mov	r7, r0
 1393              	.LVL171:
 537:Middlewares/lvgl/src/widgets/lv_roller.c ****     rect_area.y1 = roller->coords.y1 + (lv_obj_get_height(roller) - font_h - line_space) / 2;
 1394              		.loc 1 537 5 is_stmt 1 view .LVU436
 538:Middlewares/lvgl/src/widgets/lv_roller.c ****     if((font_h & 0x1) && (line_space & 0x1)) rect_area.y1--; /*Compensate the two rounding error*/
 1395              		.loc 1 538 5 view .LVU437
 538:Middlewares/lvgl/src/widgets/lv_roller.c ****     if((font_h & 0x1) && (line_space & 0x1)) rect_area.y1--; /*Compensate the two rounding error*/
 1396              		.loc 1 538 34 is_stmt 0 view .LVU438
 1397 0036 F48A     		ldrh	r4, [r6, #22]
 1398              	.LVL172:
 538:Middlewares/lvgl/src/widgets/lv_roller.c ****     if((font_h & 0x1) && (line_space & 0x1)) rect_area.y1--; /*Compensate the two rounding error*/
 1399              		.loc 1 538 41 view .LVU439
 1400 0038 3046     		mov	r0, r6
 1401              	.LVL173:
 538:Middlewares/lvgl/src/widgets/lv_roller.c ****     if((font_h & 0x1) && (line_space & 0x1)) rect_area.y1--; /*Compensate the two rounding error*/
 1402              		.loc 1 538 41 view .LVU440
 1403 003a FFF7FEFF 		bl	lv_obj_get_height
 1404              	.LVL174:
 538:Middlewares/lvgl/src/widgets/lv_roller.c ****     if((font_h & 0x1) && (line_space & 0x1)) rect_area.y1--; /*Compensate the two rounding error*/
 1405              		.loc 1 538 67 view .LVU441
 1406 003e A0EB0800 		sub	r0, r0, r8
 538:Middlewares/lvgl/src/widgets/lv_roller.c ****     if((font_h & 0x1) && (line_space & 0x1)) rect_area.y1--; /*Compensate the two rounding error*/
 1407              		.loc 1 538 76 view .LVU442
 1408 0042 A0EB0900 		sub	r0, r0, r9
 538:Middlewares/lvgl/src/widgets/lv_roller.c ****     if((font_h & 0x1) && (line_space & 0x1)) rect_area.y1--; /*Compensate the two rounding error*/
 1409              		.loc 1 538 90 view .LVU443
 1410 0046 00EBD070 		add	r0, r0, r0, lsr #31
 538:Middlewares/lvgl/src/widgets/lv_roller.c ****     if((font_h & 0x1) && (line_space & 0x1)) rect_area.y1--; /*Compensate the two rounding error*/
 1411              		.loc 1 538 38 view .LVU444
 1412 004a 04EB6000 		add	r0, r4, r0, asr #1
 538:Middlewares/lvgl/src/widgets/lv_roller.c ****     if((font_h & 0x1) && (line_space & 0x1)) rect_area.y1--; /*Compensate the two rounding error*/
 1413              		.loc 1 538 18 view .LVU445
 1414 004e ADF81A00 		strh	r0, [sp, #26]	@ movhi
 539:Middlewares/lvgl/src/widgets/lv_roller.c ****     rect_area.y2 = rect_area.y1 + font_h + line_space - 1;
 1415              		.loc 1 539 5 is_stmt 1 view .LVU446
 539:Middlewares/lvgl/src/widgets/lv_roller.c ****     rect_area.y2 = rect_area.y1 + font_h + line_space - 1;
 1416              		.loc 1 539 16 is_stmt 0 view .LVU447
 1417 0052 1FFA88F4 		uxth	r4, r8
 539:Middlewares/lvgl/src/widgets/lv_roller.c ****     rect_area.y2 = rect_area.y1 + font_h + line_space - 1;
 1418              		.loc 1 539 7 view .LVU448
ARM GAS  /tmp/cc9MIr9f.s 			page 58


 1419 0056 18F0010F 		tst	r8, #1
 1420 005a 06D0     		beq	.L40
 1421 005c 83B2     		uxth	r3, r0
 539:Middlewares/lvgl/src/widgets/lv_roller.c ****     rect_area.y2 = rect_area.y1 + font_h + line_space - 1;
 1422              		.loc 1 539 23 discriminator 1 view .LVU449
 1423 005e 19F0010F 		tst	r9, #1
 1424 0062 02D0     		beq	.L40
 539:Middlewares/lvgl/src/widgets/lv_roller.c ****     rect_area.y2 = rect_area.y1 + font_h + line_space - 1;
 1425              		.loc 1 539 46 is_stmt 1 discriminator 2 view .LVU450
 539:Middlewares/lvgl/src/widgets/lv_roller.c ****     rect_area.y2 = rect_area.y1 + font_h + line_space - 1;
 1426              		.loc 1 539 58 is_stmt 0 discriminator 2 view .LVU451
 1427 0064 013B     		subs	r3, r3, #1
 1428 0066 ADF81A30 		strh	r3, [sp, #26]	@ movhi
 1429              	.L40:
 540:Middlewares/lvgl/src/widgets/lv_roller.c ****     lv_area_t roller_coords;
 1430              		.loc 1 540 5 is_stmt 1 view .LVU452
 540:Middlewares/lvgl/src/widgets/lv_roller.c ****     lv_area_t roller_coords;
 1431              		.loc 1 540 29 is_stmt 0 view .LVU453
 1432 006a BDF91A80 		ldrsh	r8, [sp, #26]
 1433              	.LVL175:
 540:Middlewares/lvgl/src/widgets/lv_roller.c ****     lv_area_t roller_coords;
 1434              		.loc 1 540 33 view .LVU454
 1435 006e 14FA88F4 		uxtah	r4, r4, r8
 1436              	.LVL176:
 540:Middlewares/lvgl/src/widgets/lv_roller.c ****     lv_area_t roller_coords;
 1437              		.loc 1 540 42 view .LVU455
 1438 0072 19FA84F4 		uxtah	r4, r9, r4
 1439 0076 A4B2     		uxth	r4, r4
 540:Middlewares/lvgl/src/widgets/lv_roller.c ****     lv_area_t roller_coords;
 1440              		.loc 1 540 55 view .LVU456
 1441 0078 013C     		subs	r4, r4, #1
 1442 007a 24B2     		sxth	r4, r4
 540:Middlewares/lvgl/src/widgets/lv_roller.c ****     lv_area_t roller_coords;
 1443              		.loc 1 540 18 view .LVU457
 1444 007c ADF81E40 		strh	r4, [sp, #30]	@ movhi
 541:Middlewares/lvgl/src/widgets/lv_roller.c ****     lv_obj_get_coords(roller, &roller_coords);
 1445              		.loc 1 541 5 is_stmt 1 view .LVU458
 542:Middlewares/lvgl/src/widgets/lv_roller.c **** 
 1446              		.loc 1 542 5 view .LVU459
 1447 0080 04A9     		add	r1, sp, #16
 1448 0082 3046     		mov	r0, r6
 1449 0084 FFF7FEFF 		bl	lv_obj_get_coords
 1450              	.LVL177:
 544:Middlewares/lvgl/src/widgets/lv_roller.c ****     rect_area.x2 = roller_coords.x2;
 1451              		.loc 1 544 5 view .LVU460
 544:Middlewares/lvgl/src/widgets/lv_roller.c ****     rect_area.x2 = roller_coords.x2;
 1452              		.loc 1 544 33 is_stmt 0 view .LVU461
 1453 0088 BDF91030 		ldrsh	r3, [sp, #16]
 544:Middlewares/lvgl/src/widgets/lv_roller.c ****     rect_area.x2 = roller_coords.x2;
 1454              		.loc 1 544 18 view .LVU462
 1455 008c ADF81830 		strh	r3, [sp, #24]	@ movhi
 545:Middlewares/lvgl/src/widgets/lv_roller.c **** 
 1456              		.loc 1 545 5 is_stmt 1 view .LVU463
 545:Middlewares/lvgl/src/widgets/lv_roller.c **** 
 1457              		.loc 1 545 33 is_stmt 0 view .LVU464
 1458 0090 BDF91430 		ldrsh	r3, [sp, #20]
 545:Middlewares/lvgl/src/widgets/lv_roller.c **** 
ARM GAS  /tmp/cc9MIr9f.s 			page 59


 1459              		.loc 1 545 18 view .LVU465
 1460 0094 ADF81C30 		strh	r3, [sp, #28]	@ movhi
 547:Middlewares/lvgl/src/widgets/lv_roller.c ****     clip2.x1 = label_obj->coords.x1;
 1461              		.loc 1 547 5 is_stmt 1 view .LVU466
 548:Middlewares/lvgl/src/widgets/lv_roller.c ****     clip2.y1 = label_obj->coords.y1;
 1462              		.loc 1 548 5 view .LVU467
 548:Middlewares/lvgl/src/widgets/lv_roller.c ****     clip2.y1 = label_obj->coords.y1;
 1463              		.loc 1 548 33 is_stmt 0 view .LVU468
 1464 0098 B5F91430 		ldrsh	r3, [r5, #20]
 548:Middlewares/lvgl/src/widgets/lv_roller.c ****     clip2.y1 = label_obj->coords.y1;
 1465              		.loc 1 548 14 view .LVU469
 1466 009c ADF80830 		strh	r3, [sp, #8]	@ movhi
 549:Middlewares/lvgl/src/widgets/lv_roller.c ****     clip2.x2 = label_obj->coords.x2;
 1467              		.loc 1 549 5 is_stmt 1 view .LVU470
 549:Middlewares/lvgl/src/widgets/lv_roller.c ****     clip2.x2 = label_obj->coords.x2;
 1468              		.loc 1 549 33 is_stmt 0 view .LVU471
 1469 00a0 B5F91630 		ldrsh	r3, [r5, #22]
 549:Middlewares/lvgl/src/widgets/lv_roller.c ****     clip2.x2 = label_obj->coords.x2;
 1470              		.loc 1 549 14 view .LVU472
 1471 00a4 ADF80A30 		strh	r3, [sp, #10]	@ movhi
 550:Middlewares/lvgl/src/widgets/lv_roller.c ****     clip2.y2 = rect_area.y1;
 1472              		.loc 1 550 5 is_stmt 1 view .LVU473
 550:Middlewares/lvgl/src/widgets/lv_roller.c ****     clip2.y2 = rect_area.y1;
 1473              		.loc 1 550 33 is_stmt 0 view .LVU474
 1474 00a8 B5F91830 		ldrsh	r3, [r5, #24]
 550:Middlewares/lvgl/src/widgets/lv_roller.c ****     clip2.y2 = rect_area.y1;
 1475              		.loc 1 550 14 view .LVU475
 1476 00ac ADF80C30 		strh	r3, [sp, #12]	@ movhi
 551:Middlewares/lvgl/src/widgets/lv_roller.c ****     if(_lv_area_intersect(&clip2, clip_area, &clip2)) {
 1477              		.loc 1 551 5 is_stmt 1 view .LVU476
 551:Middlewares/lvgl/src/widgets/lv_roller.c ****     if(_lv_area_intersect(&clip2, clip_area, &clip2)) {
 1478              		.loc 1 551 14 is_stmt 0 view .LVU477
 1479 00b0 ADF80E80 		strh	r8, [sp, #14]	@ movhi
 552:Middlewares/lvgl/src/widgets/lv_roller.c ****         lv_draw_label(&label_obj->coords, &clip2, &label_draw_dsc, lv_label_get_text(label_obj), NU
 1480              		.loc 1 552 5 is_stmt 1 view .LVU478
 552:Middlewares/lvgl/src/widgets/lv_roller.c ****         lv_draw_label(&label_obj->coords, &clip2, &label_draw_dsc, lv_label_get_text(label_obj), NU
 1481              		.loc 1 552 8 is_stmt 0 view .LVU479
 1482 00b4 02AA     		add	r2, sp, #8
 1483 00b6 3946     		mov	r1, r7
 1484 00b8 1046     		mov	r0, r2
 1485 00ba FFF7FEFF 		bl	_lv_area_intersect
 1486              	.LVL178:
 552:Middlewares/lvgl/src/widgets/lv_roller.c ****         lv_draw_label(&label_obj->coords, &clip2, &label_draw_dsc, lv_label_get_text(label_obj), NU
 1487              		.loc 1 552 7 view .LVU480
 1488 00be B0B9     		cbnz	r0, .L44
 1489              	.LVL179:
 1490              	.L41:
 556:Middlewares/lvgl/src/widgets/lv_roller.c ****     clip2.y1 = rect_area.y2;
 1491              		.loc 1 556 5 is_stmt 1 view .LVU481
 556:Middlewares/lvgl/src/widgets/lv_roller.c ****     clip2.y1 = rect_area.y2;
 1492              		.loc 1 556 33 is_stmt 0 view .LVU482
 1493 00c0 B5F91430 		ldrsh	r3, [r5, #20]
 556:Middlewares/lvgl/src/widgets/lv_roller.c ****     clip2.y1 = rect_area.y2;
 1494              		.loc 1 556 14 view .LVU483
 1495 00c4 ADF80830 		strh	r3, [sp, #8]	@ movhi
 557:Middlewares/lvgl/src/widgets/lv_roller.c ****     clip2.x2 = label_obj->coords.x2;
 1496              		.loc 1 557 5 is_stmt 1 view .LVU484
ARM GAS  /tmp/cc9MIr9f.s 			page 60


 557:Middlewares/lvgl/src/widgets/lv_roller.c ****     clip2.x2 = label_obj->coords.x2;
 1497              		.loc 1 557 14 is_stmt 0 view .LVU485
 1498 00c8 ADF80A40 		strh	r4, [sp, #10]	@ movhi
 558:Middlewares/lvgl/src/widgets/lv_roller.c ****     clip2.y2 = label_obj->coords.y2;
 1499              		.loc 1 558 5 is_stmt 1 view .LVU486
 558:Middlewares/lvgl/src/widgets/lv_roller.c ****     clip2.y2 = label_obj->coords.y2;
 1500              		.loc 1 558 33 is_stmt 0 view .LVU487
 1501 00cc B5F91830 		ldrsh	r3, [r5, #24]
 558:Middlewares/lvgl/src/widgets/lv_roller.c ****     clip2.y2 = label_obj->coords.y2;
 1502              		.loc 1 558 14 view .LVU488
 1503 00d0 ADF80C30 		strh	r3, [sp, #12]	@ movhi
 559:Middlewares/lvgl/src/widgets/lv_roller.c ****     if(_lv_area_intersect(&clip2, clip_area, &clip2)) {
 1504              		.loc 1 559 5 is_stmt 1 view .LVU489
 559:Middlewares/lvgl/src/widgets/lv_roller.c ****     if(_lv_area_intersect(&clip2, clip_area, &clip2)) {
 1505              		.loc 1 559 33 is_stmt 0 view .LVU490
 1506 00d4 B5F91A30 		ldrsh	r3, [r5, #26]
 559:Middlewares/lvgl/src/widgets/lv_roller.c ****     if(_lv_area_intersect(&clip2, clip_area, &clip2)) {
 1507              		.loc 1 559 14 view .LVU491
 1508 00d8 ADF80E30 		strh	r3, [sp, #14]	@ movhi
 560:Middlewares/lvgl/src/widgets/lv_roller.c ****         lv_draw_label(&label_obj->coords, &clip2, &label_draw_dsc, lv_label_get_text(label_obj), NU
 1509              		.loc 1 560 5 is_stmt 1 view .LVU492
 560:Middlewares/lvgl/src/widgets/lv_roller.c ****         lv_draw_label(&label_obj->coords, &clip2, &label_draw_dsc, lv_label_get_text(label_obj), NU
 1510              		.loc 1 560 8 is_stmt 0 view .LVU493
 1511 00dc 02AA     		add	r2, sp, #8
 1512 00de 3946     		mov	r1, r7
 1513 00e0 1046     		mov	r0, r2
 1514 00e2 FFF7FEFF 		bl	_lv_area_intersect
 1515              	.LVL180:
 560:Middlewares/lvgl/src/widgets/lv_roller.c ****         lv_draw_label(&label_obj->coords, &clip2, &label_draw_dsc, lv_label_get_text(label_obj), NU
 1516              		.loc 1 560 7 view .LVU494
 1517 00e6 80B9     		cbnz	r0, .L45
 1518              	.L39:
 563:Middlewares/lvgl/src/widgets/lv_roller.c **** 
 1519              		.loc 1 563 1 view .LVU495
 1520 00e8 11B0     		add	sp, sp, #68
 1521              	.LCFI18:
 1522              		.cfi_remember_state
 1523              		.cfi_def_cfa_offset 28
 1524              		@ sp needed
 1525 00ea BDE8F083 		pop	{r4, r5, r6, r7, r8, r9, pc}
 1526              	.LVL181:
 1527              	.L44:
 1528              	.LCFI19:
 1529              		.cfi_restore_state
 553:Middlewares/lvgl/src/widgets/lv_roller.c ****     }
 1530              		.loc 1 553 9 is_stmt 1 view .LVU496
 553:Middlewares/lvgl/src/widgets/lv_roller.c ****     }
 1531              		.loc 1 553 23 is_stmt 0 view .LVU497
 1532 00ee 05F11406 		add	r6, r5, #20
 1533              	.LVL182:
 553:Middlewares/lvgl/src/widgets/lv_roller.c ****     }
 1534              		.loc 1 553 68 view .LVU498
 1535 00f2 2846     		mov	r0, r5
 1536 00f4 FFF7FEFF 		bl	lv_label_get_text
 1537              	.LVL183:
 1538 00f8 0346     		mov	r3, r0
 553:Middlewares/lvgl/src/widgets/lv_roller.c ****     }
ARM GAS  /tmp/cc9MIr9f.s 			page 61


 1539              		.loc 1 553 9 view .LVU499
 1540 00fa 0022     		movs	r2, #0
 1541 00fc 0092     		str	r2, [sp]
 1542 00fe 08AA     		add	r2, sp, #32
 1543 0100 02A9     		add	r1, sp, #8
 1544 0102 3046     		mov	r0, r6
 1545 0104 FFF7FEFF 		bl	lv_draw_label
 1546              	.LVL184:
 1547 0108 DAE7     		b	.L41
 1548              	.L45:
 561:Middlewares/lvgl/src/widgets/lv_roller.c ****     }
 1549              		.loc 1 561 9 is_stmt 1 view .LVU500
 561:Middlewares/lvgl/src/widgets/lv_roller.c ****     }
 1550              		.loc 1 561 23 is_stmt 0 view .LVU501
 1551 010a 05F11404 		add	r4, r5, #20
 561:Middlewares/lvgl/src/widgets/lv_roller.c ****     }
 1552              		.loc 1 561 68 view .LVU502
 1553 010e 2846     		mov	r0, r5
 1554 0110 FFF7FEFF 		bl	lv_label_get_text
 1555              	.LVL185:
 1556 0114 0346     		mov	r3, r0
 561:Middlewares/lvgl/src/widgets/lv_roller.c ****     }
 1557              		.loc 1 561 9 view .LVU503
 1558 0116 0022     		movs	r2, #0
 1559 0118 0092     		str	r2, [sp]
 1560 011a 08AA     		add	r2, sp, #32
 1561 011c 02A9     		add	r1, sp, #8
 1562 011e 2046     		mov	r0, r4
 1563 0120 FFF7FEFF 		bl	lv_draw_label
 1564              	.LVL186:
 563:Middlewares/lvgl/src/widgets/lv_roller.c **** 
 1565              		.loc 1 563 1 view .LVU504
 1566 0124 E0E7     		b	.L39
 1567              		.cfi_endproc
 1568              	.LFE159:
 1570              		.section	.text.lv_roller_label_event,"ax",%progbits
 1571              		.align	1
 1572              		.syntax unified
 1573              		.thumb
 1574              		.thumb_func
 1575              		.fpu fpv4-sp-d16
 1577              	lv_roller_label_event:
 1578              	.LVL187:
 1579              	.LFB157:
 411:Middlewares/lvgl/src/widgets/lv_roller.c ****     LV_UNUSED(class_p);
 1580              		.loc 1 411 1 is_stmt 1 view -0
 1581              		.cfi_startproc
 1582              		@ args = 0, pretend = 0, frame = 0
 1583              		@ frame_needed = 0, uses_anonymous_args = 0
 411:Middlewares/lvgl/src/widgets/lv_roller.c ****     LV_UNUSED(class_p);
 1584              		.loc 1 411 1 is_stmt 0 view .LVU506
 1585 0000 70B5     		push	{r4, r5, r6, lr}
 1586              	.LCFI20:
 1587              		.cfi_def_cfa_offset 16
 1588              		.cfi_offset 4, -16
 1589              		.cfi_offset 5, -12
 1590              		.cfi_offset 6, -8
ARM GAS  /tmp/cc9MIr9f.s 			page 62


 1591              		.cfi_offset 14, -4
 1592 0002 0D46     		mov	r5, r1
 412:Middlewares/lvgl/src/widgets/lv_roller.c **** 
 1593              		.loc 1 412 5 is_stmt 1 view .LVU507
 414:Middlewares/lvgl/src/widgets/lv_roller.c **** 
 1594              		.loc 1 414 5 view .LVU508
 416:Middlewares/lvgl/src/widgets/lv_roller.c ****     /*LV_EVENT_DRAW_MAIN will be called in the draw function*/
 1595              		.loc 1 416 5 view .LVU509
 416:Middlewares/lvgl/src/widgets/lv_roller.c ****     /*LV_EVENT_DRAW_MAIN will be called in the draw function*/
 1596              		.loc 1 416 28 is_stmt 0 view .LVU510
 1597 0004 0846     		mov	r0, r1
 1598              	.LVL188:
 416:Middlewares/lvgl/src/widgets/lv_roller.c ****     /*LV_EVENT_DRAW_MAIN will be called in the draw function*/
 1599              		.loc 1 416 28 view .LVU511
 1600 0006 FFF7FEFF 		bl	lv_event_get_code
 1601              	.LVL189:
 416:Middlewares/lvgl/src/widgets/lv_roller.c ****     /*LV_EVENT_DRAW_MAIN will be called in the draw function*/
 1602              		.loc 1 416 28 view .LVU512
 1603 000a 0446     		mov	r4, r0
 1604              	.LVL190:
 418:Middlewares/lvgl/src/widgets/lv_roller.c ****         /* Call the ancestor's event handler */
 1605              		.loc 1 418 5 is_stmt 1 view .LVU513
 418:Middlewares/lvgl/src/widgets/lv_roller.c ****         /* Call the ancestor's event handler */
 1606              		.loc 1 418 7 is_stmt 0 view .LVU514
 1607 000c 1528     		cmp	r0, #21
 1608 000e 05D0     		beq	.L47
 420:Middlewares/lvgl/src/widgets/lv_roller.c ****         if(res != LV_RES_OK) return;
 1609              		.loc 1 420 9 is_stmt 1 view .LVU515
 420:Middlewares/lvgl/src/widgets/lv_roller.c ****         if(res != LV_RES_OK) return;
 1610              		.loc 1 420 15 is_stmt 0 view .LVU516
 1611 0010 2946     		mov	r1, r5
 1612 0012 1748     		ldr	r0, .L55
 1613              	.LVL191:
 420:Middlewares/lvgl/src/widgets/lv_roller.c ****         if(res != LV_RES_OK) return;
 1614              		.loc 1 420 15 view .LVU517
 1615 0014 FFF7FEFF 		bl	lv_obj_event_base
 1616              	.LVL192:
 421:Middlewares/lvgl/src/widgets/lv_roller.c ****     }
 1617              		.loc 1 421 9 is_stmt 1 view .LVU518
 421:Middlewares/lvgl/src/widgets/lv_roller.c ****     }
 1618              		.loc 1 421 11 is_stmt 0 view .LVU519
 1619 0018 0128     		cmp	r0, #1
 1620 001a 09D1     		bne	.L46
 1621              	.LVL193:
 1622              	.L47:
 424:Middlewares/lvgl/src/widgets/lv_roller.c ****     if(code == LV_EVENT_REFR_EXT_DRAW_SIZE) {
 1623              		.loc 1 424 5 is_stmt 1 view .LVU520
 424:Middlewares/lvgl/src/widgets/lv_roller.c ****     if(code == LV_EVENT_REFR_EXT_DRAW_SIZE) {
 1624              		.loc 1 424 24 is_stmt 0 view .LVU521
 1625 001c 2846     		mov	r0, r5
 1626 001e FFF7FEFF 		bl	lv_event_get_target
 1627              	.LVL194:
 1628 0022 0646     		mov	r6, r0
 1629              	.LVL195:
 425:Middlewares/lvgl/src/widgets/lv_roller.c ****         /*If the selected text has a larger font it needs some extra space to draw it*/
 1630              		.loc 1 425 5 is_stmt 1 view .LVU522
 425:Middlewares/lvgl/src/widgets/lv_roller.c ****         /*If the selected text has a larger font it needs some extra space to draw it*/
ARM GAS  /tmp/cc9MIr9f.s 			page 63


 1631              		.loc 1 425 7 is_stmt 0 view .LVU523
 1632 0024 132C     		cmp	r4, #19
 1633 0026 04D0     		beq	.L52
 433:Middlewares/lvgl/src/widgets/lv_roller.c ****         refr_position(lv_obj_get_parent(label), LV_ANIM_OFF);
 1634              		.loc 1 433 10 is_stmt 1 view .LVU524
 433:Middlewares/lvgl/src/widgets/lv_roller.c ****         refr_position(lv_obj_get_parent(label), LV_ANIM_OFF);
 1635              		.loc 1 433 12 is_stmt 0 view .LVU525
 1636 0028 232C     		cmp	r4, #35
 1637 002a 17D0     		beq	.L53
 436:Middlewares/lvgl/src/widgets/lv_roller.c ****         draw_label(e);
 1638              		.loc 1 436 10 is_stmt 1 view .LVU526
 436:Middlewares/lvgl/src/widgets/lv_roller.c ****         draw_label(e);
 1639              		.loc 1 436 12 is_stmt 0 view .LVU527
 1640 002c 152C     		cmp	r4, #21
 1641 002e 1BD0     		beq	.L54
 1642              	.LVL196:
 1643              	.L46:
 439:Middlewares/lvgl/src/widgets/lv_roller.c **** 
 1644              		.loc 1 439 1 view .LVU528
 1645 0030 70BD     		pop	{r4, r5, r6, pc}
 1646              	.LVL197:
 1647              	.L52:
 1648              	.LBB127:
 427:Middlewares/lvgl/src/widgets/lv_roller.c ****         lv_obj_t * obj = lv_obj_get_parent(label);
 1649              		.loc 1 427 9 is_stmt 1 view .LVU529
 427:Middlewares/lvgl/src/widgets/lv_roller.c ****         lv_obj_t * obj = lv_obj_get_parent(label);
 1650              		.loc 1 427 26 is_stmt 0 view .LVU530
 1651 0032 2846     		mov	r0, r5
 1652              	.LVL198:
 427:Middlewares/lvgl/src/widgets/lv_roller.c ****         lv_obj_t * obj = lv_obj_get_parent(label);
 1653              		.loc 1 427 26 view .LVU531
 1654 0034 FFF7FEFF 		bl	lv_event_get_param
 1655              	.LVL199:
 1656 0038 0546     		mov	r5, r0
 1657              	.LVL200:
 428:Middlewares/lvgl/src/widgets/lv_roller.c ****         lv_coord_t sel_w = get_selected_label_width(obj);
 1658              		.loc 1 428 9 is_stmt 1 view .LVU532
 428:Middlewares/lvgl/src/widgets/lv_roller.c ****         lv_coord_t sel_w = get_selected_label_width(obj);
 1659              		.loc 1 428 26 is_stmt 0 view .LVU533
 1660 003a 3046     		mov	r0, r6
 1661              	.LVL201:
 428:Middlewares/lvgl/src/widgets/lv_roller.c ****         lv_coord_t sel_w = get_selected_label_width(obj);
 1662              		.loc 1 428 26 view .LVU534
 1663 003c FFF7FEFF 		bl	lv_obj_get_parent
 1664              	.LVL202:
 429:Middlewares/lvgl/src/widgets/lv_roller.c ****         lv_coord_t label_w = lv_obj_get_width(label);
 1665              		.loc 1 429 9 is_stmt 1 view .LVU535
 429:Middlewares/lvgl/src/widgets/lv_roller.c ****         lv_coord_t label_w = lv_obj_get_width(label);
 1666              		.loc 1 429 28 is_stmt 0 view .LVU536
 1667 0040 FFF7FEFF 		bl	get_selected_label_width
 1668              	.LVL203:
 429:Middlewares/lvgl/src/widgets/lv_roller.c ****         lv_coord_t label_w = lv_obj_get_width(label);
 1669              		.loc 1 429 28 view .LVU537
 1670 0044 0446     		mov	r4, r0
 1671              	.LVL204:
 430:Middlewares/lvgl/src/widgets/lv_roller.c ****         *s = LV_MAX(*s, sel_w - label_w);
 1672              		.loc 1 430 9 is_stmt 1 view .LVU538
ARM GAS  /tmp/cc9MIr9f.s 			page 64


 430:Middlewares/lvgl/src/widgets/lv_roller.c ****         *s = LV_MAX(*s, sel_w - label_w);
 1673              		.loc 1 430 30 is_stmt 0 view .LVU539
 1674 0046 3046     		mov	r0, r6
 1675 0048 FFF7FEFF 		bl	lv_obj_get_width
 1676              	.LVL205:
 431:Middlewares/lvgl/src/widgets/lv_roller.c ****     }
 1677              		.loc 1 431 9 is_stmt 1 view .LVU540
 431:Middlewares/lvgl/src/widgets/lv_roller.c ****     }
 1678              		.loc 1 431 14 is_stmt 0 view .LVU541
 1679 004c 241A     		subs	r4, r4, r0
 1680              	.LVL206:
 431:Middlewares/lvgl/src/widgets/lv_roller.c ****     }
 1681              		.loc 1 431 14 view .LVU542
 1682 004e B5F90000 		ldrsh	r0, [r5]
 1683              	.LVL207:
 431:Middlewares/lvgl/src/widgets/lv_roller.c ****     }
 1684              		.loc 1 431 14 view .LVU543
 1685 0052 8442     		cmp	r4, r0
 1686 0054 B8BF     		it	lt
 1687 0056 0446     		movlt	r4, r0
 431:Middlewares/lvgl/src/widgets/lv_roller.c ****     }
 1688              		.loc 1 431 12 view .LVU544
 1689 0058 2C80     		strh	r4, [r5]	@ movhi
 1690              	.LBE127:
 1691 005a E9E7     		b	.L46
 1692              	.LVL208:
 1693              	.L53:
 434:Middlewares/lvgl/src/widgets/lv_roller.c ****     }
 1694              		.loc 1 434 9 is_stmt 1 view .LVU545
 434:Middlewares/lvgl/src/widgets/lv_roller.c ****     }
 1695              		.loc 1 434 23 is_stmt 0 view .LVU546
 1696 005c FFF7FEFF 		bl	lv_obj_get_parent
 1697              	.LVL209:
 434:Middlewares/lvgl/src/widgets/lv_roller.c ****     }
 1698              		.loc 1 434 9 view .LVU547
 1699 0060 0021     		movs	r1, #0
 1700 0062 FFF7FEFF 		bl	refr_position
 1701              	.LVL210:
 1702 0066 E3E7     		b	.L46
 1703              	.LVL211:
 1704              	.L54:
 437:Middlewares/lvgl/src/widgets/lv_roller.c ****     }
 1705              		.loc 1 437 9 is_stmt 1 view .LVU548
 1706 0068 2846     		mov	r0, r5
 1707              	.LVL212:
 437:Middlewares/lvgl/src/widgets/lv_roller.c ****     }
 1708              		.loc 1 437 9 is_stmt 0 view .LVU549
 1709 006a FFF7FEFF 		bl	draw_label
 1710              	.LVL213:
 1711 006e DFE7     		b	.L46
 1712              	.L56:
 1713              		.align	2
 1714              	.L55:
 1715 0070 00000000 		.word	.LANCHOR0
 1716              		.cfi_endproc
 1717              	.LFE157:
 1719              		.section	.text.lv_roller_create,"ax",%progbits
ARM GAS  /tmp/cc9MIr9f.s 			page 65


 1720              		.align	1
 1721              		.global	lv_roller_create
 1722              		.syntax unified
 1723              		.thumb
 1724              		.thumb_func
 1725              		.fpu fpv4-sp-d16
 1727              	lv_roller_create:
 1728              	.LVL214:
 1729              	.LFB147:
  78:Middlewares/lvgl/src/widgets/lv_roller.c ****     LV_LOG_INFO("begin")
 1730              		.loc 1 78 1 is_stmt 1 view -0
 1731              		.cfi_startproc
 1732              		@ args = 0, pretend = 0, frame = 0
 1733              		@ frame_needed = 0, uses_anonymous_args = 0
  78:Middlewares/lvgl/src/widgets/lv_roller.c ****     LV_LOG_INFO("begin")
 1734              		.loc 1 78 1 is_stmt 0 view .LVU551
 1735 0000 10B5     		push	{r4, lr}
 1736              	.LCFI21:
 1737              		.cfi_def_cfa_offset 8
 1738              		.cfi_offset 4, -8
 1739              		.cfi_offset 14, -4
 1740 0002 0146     		mov	r1, r0
  80:Middlewares/lvgl/src/widgets/lv_roller.c ****     lv_obj_class_init_obj(obj);
 1741              		.loc 1 80 5 is_stmt 1 view .LVU552
  80:Middlewares/lvgl/src/widgets/lv_roller.c ****     lv_obj_class_init_obj(obj);
 1742              		.loc 1 80 22 is_stmt 0 view .LVU553
 1743 0004 0348     		ldr	r0, .L59
 1744              	.LVL215:
  80:Middlewares/lvgl/src/widgets/lv_roller.c ****     lv_obj_class_init_obj(obj);
 1745              		.loc 1 80 22 view .LVU554
 1746 0006 FFF7FEFF 		bl	lv_obj_class_create_obj
 1747              	.LVL216:
  80:Middlewares/lvgl/src/widgets/lv_roller.c ****     lv_obj_class_init_obj(obj);
 1748              		.loc 1 80 22 view .LVU555
 1749 000a 0446     		mov	r4, r0
 1750              	.LVL217:
  81:Middlewares/lvgl/src/widgets/lv_roller.c ****     return obj;
 1751              		.loc 1 81 5 is_stmt 1 view .LVU556
 1752 000c FFF7FEFF 		bl	lv_obj_class_init_obj
 1753              	.LVL218:
  82:Middlewares/lvgl/src/widgets/lv_roller.c **** }
 1754              		.loc 1 82 5 view .LVU557
  83:Middlewares/lvgl/src/widgets/lv_roller.c **** 
 1755              		.loc 1 83 1 is_stmt 0 view .LVU558
 1756 0010 2046     		mov	r0, r4
 1757 0012 10BD     		pop	{r4, pc}
 1758              	.LVL219:
 1759              	.L60:
  83:Middlewares/lvgl/src/widgets/lv_roller.c **** 
 1760              		.loc 1 83 1 view .LVU559
 1761              		.align	2
 1762              	.L59:
 1763 0014 00000000 		.word	.LANCHOR1
 1764              		.cfi_endproc
 1765              	.LFE147:
 1767              		.section	.text.lv_roller_set_options,"ax",%progbits
 1768              		.align	1
ARM GAS  /tmp/cc9MIr9f.s 			page 66


 1769              		.global	lv_roller_set_options
 1770              		.syntax unified
 1771              		.thumb
 1772              		.thumb_func
 1773              		.fpu fpv4-sp-d16
 1775              	lv_roller_set_options:
 1776              	.LVL220:
 1777              	.LFB148:
  96:Middlewares/lvgl/src/widgets/lv_roller.c ****     LV_ASSERT_OBJ(obj, MY_CLASS);
 1778              		.loc 1 96 1 is_stmt 1 view -0
 1779              		.cfi_startproc
 1780              		@ args = 0, pretend = 0, frame = 0
 1781              		@ frame_needed = 0, uses_anonymous_args = 0
  97:Middlewares/lvgl/src/widgets/lv_roller.c ****     LV_ASSERT_NULL(options);
 1782              		.loc 1 97 5 view .LVU561
  97:Middlewares/lvgl/src/widgets/lv_roller.c ****     LV_ASSERT_NULL(options);
 1783              		.loc 1 97 5 view .LVU562
  97:Middlewares/lvgl/src/widgets/lv_roller.c ****     LV_ASSERT_NULL(options);
 1784              		.loc 1 97 5 view .LVU563
  98:Middlewares/lvgl/src/widgets/lv_roller.c **** 
 1785              		.loc 1 98 5 view .LVU564
  98:Middlewares/lvgl/src/widgets/lv_roller.c **** 
 1786              		.loc 1 98 5 view .LVU565
 1787 0000 61B1     		cbz	r1, .L63
  96:Middlewares/lvgl/src/widgets/lv_roller.c ****     LV_ASSERT_OBJ(obj, MY_CLASS);
 1788              		.loc 1 96 1 is_stmt 0 discriminator 2 view .LVU566
 1789 0002 2DE9F047 		push	{r4, r5, r6, r7, r8, r9, r10, lr}
 1790              	.LCFI22:
 1791              		.cfi_def_cfa_offset 32
 1792              		.cfi_offset 4, -32
 1793              		.cfi_offset 5, -28
 1794              		.cfi_offset 6, -24
 1795              		.cfi_offset 7, -20
 1796              		.cfi_offset 8, -16
 1797              		.cfi_offset 9, -12
 1798              		.cfi_offset 10, -8
 1799              		.cfi_offset 14, -4
 1800 0006 0546     		mov	r5, r0
 1801 0008 1746     		mov	r7, r2
 1802 000a 0E46     		mov	r6, r1
  98:Middlewares/lvgl/src/widgets/lv_roller.c **** 
 1803              		.loc 1 98 5 is_stmt 1 discriminator 2 view .LVU567
  98:Middlewares/lvgl/src/widgets/lv_roller.c **** 
 1804              		.loc 1 98 28 discriminator 2 view .LVU568
 100:Middlewares/lvgl/src/widgets/lv_roller.c ****     lv_obj_t * label = get_label(obj);
 1805              		.loc 1 100 5 discriminator 2 view .LVU569
 1806              	.LVL221:
 101:Middlewares/lvgl/src/widgets/lv_roller.c **** 
 1807              		.loc 1 101 5 discriminator 2 view .LVU570
 101:Middlewares/lvgl/src/widgets/lv_roller.c **** 
 1808              		.loc 1 101 24 is_stmt 0 discriminator 2 view .LVU571
 1809 000c FFF7FEFF 		bl	get_label
 1810              	.LVL222:
 101:Middlewares/lvgl/src/widgets/lv_roller.c **** 
 1811              		.loc 1 101 24 discriminator 2 view .LVU572
 1812 0010 8046     		mov	r8, r0
 1813              	.LVL223:
ARM GAS  /tmp/cc9MIr9f.s 			page 67


 103:Middlewares/lvgl/src/widgets/lv_roller.c ****     roller->sel_opt_id_ori = 0;
 1814              		.loc 1 103 5 is_stmt 1 discriminator 2 view .LVU573
 103:Middlewares/lvgl/src/widgets/lv_roller.c ****     roller->sel_opt_id_ori = 0;
 1815              		.loc 1 103 28 is_stmt 0 discriminator 2 view .LVU574
 1816 0012 0023     		movs	r3, #0
 1817 0014 EB84     		strh	r3, [r5, #38]	@ movhi
 104:Middlewares/lvgl/src/widgets/lv_roller.c **** 
 1818              		.loc 1 104 5 is_stmt 1 discriminator 2 view .LVU575
 104:Middlewares/lvgl/src/widgets/lv_roller.c **** 
 1819              		.loc 1 104 28 is_stmt 0 discriminator 2 view .LVU576
 1820 0016 2B85     		strh	r3, [r5, #40]	@ movhi
 107:Middlewares/lvgl/src/widgets/lv_roller.c ****     uint32_t cnt;
 1821              		.loc 1 107 5 is_stmt 1 discriminator 2 view .LVU577
 107:Middlewares/lvgl/src/widgets/lv_roller.c ****     uint32_t cnt;
 1822              		.loc 1 107 24 is_stmt 0 discriminator 2 view .LVU578
 1823 0018 AB84     		strh	r3, [r5, #36]	@ movhi
 108:Middlewares/lvgl/src/widgets/lv_roller.c ****     for(cnt = 0; options[cnt] != '\0'; cnt++) {
 1824              		.loc 1 108 5 is_stmt 1 discriminator 2 view .LVU579
 109:Middlewares/lvgl/src/widgets/lv_roller.c ****         if(options[cnt] == '\n') roller->option_cnt++;
 1825              		.loc 1 109 5 discriminator 2 view .LVU580
 1826              	.LVL224:
 109:Middlewares/lvgl/src/widgets/lv_roller.c ****         if(options[cnt] == '\n') roller->option_cnt++;
 1827              		.loc 1 109 5 is_stmt 0 discriminator 2 view .LVU581
 1828 001a 01E0     		b	.L64
 1829              	.LVL225:
 1830              	.L63:
 1831              	.LCFI23:
 1832              		.cfi_def_cfa_offset 0
 1833              		.cfi_restore 4
 1834              		.cfi_restore 5
 1835              		.cfi_restore 6
 1836              		.cfi_restore 7
 1837              		.cfi_restore 8
 1838              		.cfi_restore 9
 1839              		.cfi_restore 10
 1840              		.cfi_restore 14
  98:Middlewares/lvgl/src/widgets/lv_roller.c **** 
 1841              		.loc 1 98 5 is_stmt 1 discriminator 1 view .LVU582
  98:Middlewares/lvgl/src/widgets/lv_roller.c **** 
 1842              		.loc 1 98 5 discriminator 1 view .LVU583
  98:Middlewares/lvgl/src/widgets/lv_roller.c **** 
 1843              		.loc 1 98 5 discriminator 1 view .LVU584
  98:Middlewares/lvgl/src/widgets/lv_roller.c **** 
 1844              		.loc 1 98 5 discriminator 1 view .LVU585
 1845 001c FEE7     		b	.L63
 1846              	.LVL226:
 1847              	.L65:
 1848              	.LCFI24:
 1849              		.cfi_def_cfa_offset 32
 1850              		.cfi_offset 4, -32
 1851              		.cfi_offset 5, -28
 1852              		.cfi_offset 6, -24
 1853              		.cfi_offset 7, -20
 1854              		.cfi_offset 8, -16
 1855              		.cfi_offset 9, -12
 1856              		.cfi_offset 10, -8
 1857              		.cfi_offset 14, -4
ARM GAS  /tmp/cc9MIr9f.s 			page 68


 109:Middlewares/lvgl/src/widgets/lv_roller.c ****         if(options[cnt] == '\n') roller->option_cnt++;
 1858              		.loc 1 109 40 discriminator 2 view .LVU586
 109:Middlewares/lvgl/src/widgets/lv_roller.c ****         if(options[cnt] == '\n') roller->option_cnt++;
 1859              		.loc 1 109 43 is_stmt 0 discriminator 2 view .LVU587
 1860 001e 0133     		adds	r3, r3, #1
 1861              	.LVL227:
 1862              	.L64:
 109:Middlewares/lvgl/src/widgets/lv_roller.c ****         if(options[cnt] == '\n') roller->option_cnt++;
 1863              		.loc 1 109 18 is_stmt 1 discriminator 1 view .LVU588
 109:Middlewares/lvgl/src/widgets/lv_roller.c ****         if(options[cnt] == '\n') roller->option_cnt++;
 1864              		.loc 1 109 25 is_stmt 0 discriminator 1 view .LVU589
 1865 0020 F45C     		ldrb	r4, [r6, r3]	@ zero_extendqisi2
 109:Middlewares/lvgl/src/widgets/lv_roller.c ****         if(options[cnt] == '\n') roller->option_cnt++;
 1866              		.loc 1 109 5 discriminator 1 view .LVU590
 1867 0022 2CB1     		cbz	r4, .L73
 110:Middlewares/lvgl/src/widgets/lv_roller.c ****     }
 1868              		.loc 1 110 9 is_stmt 1 view .LVU591
 110:Middlewares/lvgl/src/widgets/lv_roller.c ****     }
 1869              		.loc 1 110 11 is_stmt 0 view .LVU592
 1870 0024 0A2C     		cmp	r4, #10
 1871 0026 FAD1     		bne	.L65
 110:Middlewares/lvgl/src/widgets/lv_roller.c ****     }
 1872              		.loc 1 110 34 is_stmt 1 discriminator 1 view .LVU593
 110:Middlewares/lvgl/src/widgets/lv_roller.c ****     }
 1873              		.loc 1 110 40 is_stmt 0 discriminator 1 view .LVU594
 1874 0028 A98C     		ldrh	r1, [r5, #36]
 110:Middlewares/lvgl/src/widgets/lv_roller.c ****     }
 1875              		.loc 1 110 52 discriminator 1 view .LVU595
 1876 002a 0131     		adds	r1, r1, #1
 1877 002c A984     		strh	r1, [r5, #36]	@ movhi
 1878 002e F6E7     		b	.L65
 1879              	.L73:
 112:Middlewares/lvgl/src/widgets/lv_roller.c **** 
 1880              		.loc 1 112 5 is_stmt 1 view .LVU596
 112:Middlewares/lvgl/src/widgets/lv_roller.c **** 
 1881              		.loc 1 112 11 is_stmt 0 view .LVU597
 1882 0030 AB8C     		ldrh	r3, [r5, #36]
 1883              	.LVL228:
 112:Middlewares/lvgl/src/widgets/lv_roller.c **** 
 1884              		.loc 1 112 23 view .LVU598
 1885 0032 0133     		adds	r3, r3, #1
 1886 0034 AB84     		strh	r3, [r5, #36]	@ movhi
 114:Middlewares/lvgl/src/widgets/lv_roller.c ****         roller->mode = LV_ROLLER_MODE_NORMAL;
 1887              		.loc 1 114 5 is_stmt 1 view .LVU599
 114:Middlewares/lvgl/src/widgets/lv_roller.c ****         roller->mode = LV_ROLLER_MODE_NORMAL;
 1888              		.loc 1 114 7 is_stmt 0 view .LVU600
 1889 0036 87B9     		cbnz	r7, .L67
 115:Middlewares/lvgl/src/widgets/lv_roller.c ****         lv_label_set_text(label, options);
 1890              		.loc 1 115 9 is_stmt 1 view .LVU601
 115:Middlewares/lvgl/src/widgets/lv_roller.c ****         lv_label_set_text(label, options);
 1891              		.loc 1 115 22 is_stmt 0 view .LVU602
 1892 0038 95F82A30 		ldrb	r3, [r5, #42]	@ zero_extendqisi2
 1893 003c 6FF30003 		bfc	r3, #0, #1
 1894 0040 85F82A30 		strb	r3, [r5, #42]
 116:Middlewares/lvgl/src/widgets/lv_roller.c ****     }
 1895              		.loc 1 116 9 is_stmt 1 view .LVU603
 1896 0044 3146     		mov	r1, r6
ARM GAS  /tmp/cc9MIr9f.s 			page 69


 1897 0046 4046     		mov	r0, r8
 1898              	.LVL229:
 116:Middlewares/lvgl/src/widgets/lv_roller.c ****     }
 1899              		.loc 1 116 9 is_stmt 0 view .LVU604
 1900 0048 FFF7FEFF 		bl	lv_label_set_text
 1901              	.LVL230:
 1902              	.L68:
 138:Middlewares/lvgl/src/widgets/lv_roller.c **** 
 1903              		.loc 1 138 5 is_stmt 1 view .LVU605
 138:Middlewares/lvgl/src/widgets/lv_roller.c **** 
 1904              		.loc 1 138 36 is_stmt 0 view .LVU606
 1905 004c EB8C     		ldrh	r3, [r5, #38]
 138:Middlewares/lvgl/src/widgets/lv_roller.c **** 
 1906              		.loc 1 138 28 view .LVU607
 1907 004e 2B85     		strh	r3, [r5, #40]	@ movhi
 141:Middlewares/lvgl/src/widgets/lv_roller.c **** 
 1908              		.loc 1 141 5 is_stmt 1 view .LVU608
 1909 0050 4046     		mov	r0, r8
 1910 0052 FFF7FEFF 		bl	lv_obj_refresh_ext_draw_size
 1911              	.LVL231:
 143:Middlewares/lvgl/src/widgets/lv_roller.c **** 
 1912              		.loc 1 143 1 is_stmt 0 view .LVU609
 1913 0056 BDE8F087 		pop	{r4, r5, r6, r7, r8, r9, r10, pc}
 1914              	.LVL232:
 1915              	.L67:
 1916              	.LBB128:
 119:Middlewares/lvgl/src/widgets/lv_roller.c **** 
 1917              		.loc 1 119 9 is_stmt 1 view .LVU610
 119:Middlewares/lvgl/src/widgets/lv_roller.c **** 
 1918              		.loc 1 119 22 is_stmt 0 view .LVU611
 1919 005a 95F82A30 		ldrb	r3, [r5, #42]	@ zero_extendqisi2
 1920 005e 43F00103 		orr	r3, r3, #1
 1921 0062 85F82A30 		strb	r3, [r5, #42]
 121:Middlewares/lvgl/src/widgets/lv_roller.c ****         char * opt_extra = lv_mem_buf_get(opt_len * LV_ROLLER_INF_PAGES);
 1922              		.loc 1 121 9 is_stmt 1 view .LVU612
 121:Middlewares/lvgl/src/widgets/lv_roller.c ****         char * opt_extra = lv_mem_buf_get(opt_len * LV_ROLLER_INF_PAGES);
 1923              		.loc 1 121 26 is_stmt 0 view .LVU613
 1924 0066 3046     		mov	r0, r6
 1925              	.LVL233:
 121:Middlewares/lvgl/src/widgets/lv_roller.c ****         char * opt_extra = lv_mem_buf_get(opt_len * LV_ROLLER_INF_PAGES);
 1926              		.loc 1 121 26 view .LVU614
 1927 0068 FFF7FEFF 		bl	strlen
 1928              	.LVL234:
 121:Middlewares/lvgl/src/widgets/lv_roller.c ****         char * opt_extra = lv_mem_buf_get(opt_len * LV_ROLLER_INF_PAGES);
 1929              		.loc 1 121 16 view .LVU615
 1930 006c 471C     		adds	r7, r0, #1
 1931              	.LVL235:
 122:Middlewares/lvgl/src/widgets/lv_roller.c ****         uint8_t i;
 1932              		.loc 1 122 9 is_stmt 1 view .LVU616
 122:Middlewares/lvgl/src/widgets/lv_roller.c ****         uint8_t i;
 1933              		.loc 1 122 51 is_stmt 0 view .LVU617
 1934 006e C7EBC70A 		rsb	r10, r7, r7, lsl #3
 122:Middlewares/lvgl/src/widgets/lv_roller.c ****         uint8_t i;
 1935              		.loc 1 122 28 view .LVU618
 1936 0072 5046     		mov	r0, r10
 1937 0074 FFF7FEFF 		bl	lv_mem_buf_get
 1938              	.LVL236:
ARM GAS  /tmp/cc9MIr9f.s 			page 70


 1939 0078 8146     		mov	r9, r0
 1940              	.LVL237:
 123:Middlewares/lvgl/src/widgets/lv_roller.c ****         for(i = 0; i < LV_ROLLER_INF_PAGES; i++) {
 1941              		.loc 1 123 9 is_stmt 1 view .LVU619
 124:Middlewares/lvgl/src/widgets/lv_roller.c ****             strcpy(&opt_extra[opt_len * i], options);
 1942              		.loc 1 124 9 view .LVU620
 124:Middlewares/lvgl/src/widgets/lv_roller.c ****             strcpy(&opt_extra[opt_len * i], options);
 1943              		.loc 1 124 9 is_stmt 0 view .LVU621
 1944 007a 0CE0     		b	.L69
 1945              	.LVL238:
 1946              	.L70:
 125:Middlewares/lvgl/src/widgets/lv_roller.c ****             opt_extra[opt_len * (i + 1) - 1] = '\n';
 1947              		.loc 1 125 13 is_stmt 1 discriminator 3 view .LVU622
 1948 007c 3146     		mov	r1, r6
 1949 007e 07FB0490 		mla	r0, r7, r4, r9
 1950 0082 FFF7FEFF 		bl	strcpy
 1951              	.LVL239:
 126:Middlewares/lvgl/src/widgets/lv_roller.c ****         }
 1952              		.loc 1 126 13 discriminator 3 view .LVU623
 126:Middlewares/lvgl/src/widgets/lv_roller.c ****         }
 1953              		.loc 1 126 36 is_stmt 0 discriminator 3 view .LVU624
 1954 0086 631C     		adds	r3, r4, #1
 126:Middlewares/lvgl/src/widgets/lv_roller.c ****         }
 1955              		.loc 1 126 31 discriminator 3 view .LVU625
 1956 0088 04FB0774 		mla	r4, r4, r7, r7
 1957              	.LVL240:
 126:Middlewares/lvgl/src/widgets/lv_roller.c ****         }
 1958              		.loc 1 126 22 discriminator 3 view .LVU626
 1959 008c 013C     		subs	r4, r4, #1
 126:Middlewares/lvgl/src/widgets/lv_roller.c ****         }
 1960              		.loc 1 126 46 discriminator 3 view .LVU627
 1961 008e 0A22     		movs	r2, #10
 1962 0090 09F80420 		strb	r2, [r9, r4]
 124:Middlewares/lvgl/src/widgets/lv_roller.c ****             strcpy(&opt_extra[opt_len * i], options);
 1963              		.loc 1 124 45 is_stmt 1 discriminator 3 view .LVU628
 124:Middlewares/lvgl/src/widgets/lv_roller.c ****             strcpy(&opt_extra[opt_len * i], options);
 1964              		.loc 1 124 46 is_stmt 0 discriminator 3 view .LVU629
 1965 0094 DCB2     		uxtb	r4, r3
 1966              	.LVL241:
 1967              	.L69:
 124:Middlewares/lvgl/src/widgets/lv_roller.c ****             strcpy(&opt_extra[opt_len * i], options);
 1968              		.loc 1 124 20 is_stmt 1 discriminator 1 view .LVU630
 124:Middlewares/lvgl/src/widgets/lv_roller.c ****             strcpy(&opt_extra[opt_len * i], options);
 1969              		.loc 1 124 9 is_stmt 0 discriminator 1 view .LVU631
 1970 0096 062C     		cmp	r4, #6
 1971 0098 F0D9     		bls	.L70
 128:Middlewares/lvgl/src/widgets/lv_roller.c ****         lv_label_set_text(label, opt_extra);
 1972              		.loc 1 128 9 is_stmt 1 view .LVU632
 128:Middlewares/lvgl/src/widgets/lv_roller.c ****         lv_label_set_text(label, opt_extra);
 1973              		.loc 1 128 18 is_stmt 0 view .LVU633
 1974 009a 0AF1FF3A 		add	r10, r10, #-1
 128:Middlewares/lvgl/src/widgets/lv_roller.c ****         lv_label_set_text(label, opt_extra);
 1975              		.loc 1 128 54 view .LVU634
 1976 009e 0023     		movs	r3, #0
 1977 00a0 09F80A30 		strb	r3, [r9, r10]
 129:Middlewares/lvgl/src/widgets/lv_roller.c ****         lv_mem_buf_release(opt_extra);
 1978              		.loc 1 129 9 is_stmt 1 view .LVU635
ARM GAS  /tmp/cc9MIr9f.s 			page 71


 1979 00a4 4946     		mov	r1, r9
 1980 00a6 4046     		mov	r0, r8
 1981 00a8 FFF7FEFF 		bl	lv_label_set_text
 1982              	.LVL242:
 130:Middlewares/lvgl/src/widgets/lv_roller.c **** 
 1983              		.loc 1 130 9 view .LVU636
 1984 00ac 4846     		mov	r0, r9
 1985 00ae FFF7FEFF 		bl	lv_mem_buf_release
 1986              	.LVL243:
 132:Middlewares/lvgl/src/widgets/lv_roller.c **** 
 1987              		.loc 1 132 9 view .LVU637
 132:Middlewares/lvgl/src/widgets/lv_roller.c **** 
 1988              		.loc 1 132 74 is_stmt 0 view .LVU638
 1989 00b2 AB8C     		ldrh	r3, [r5, #36]
 132:Middlewares/lvgl/src/widgets/lv_roller.c **** 
 1990              		.loc 1 132 32 view .LVU639
 1991 00b4 03EB4302 		add	r2, r3, r3, lsl #1
 1992 00b8 EA84     		strh	r2, [r5, #38]	@ movhi
 134:Middlewares/lvgl/src/widgets/lv_roller.c ****         inf_normalize(obj);
 1993              		.loc 1 134 9 is_stmt 1 view .LVU640
 134:Middlewares/lvgl/src/widgets/lv_roller.c ****         inf_normalize(obj);
 1994              		.loc 1 134 28 is_stmt 0 view .LVU641
 1995 00ba C3EBC303 		rsb	r3, r3, r3, lsl #3
 1996 00be AB84     		strh	r3, [r5, #36]	@ movhi
 135:Middlewares/lvgl/src/widgets/lv_roller.c ****     }
 1997              		.loc 1 135 9 is_stmt 1 view .LVU642
 1998 00c0 2846     		mov	r0, r5
 1999 00c2 FFF7FEFF 		bl	inf_normalize
 2000              	.LVL244:
 2001 00c6 C1E7     		b	.L68
 2002              	.LBE128:
 2003              		.cfi_endproc
 2004              	.LFE148:
 2006              		.section	.rodata.lv_roller_constructor.str1.4,"aMS",%progbits,1
 2007              		.align	2
 2008              	.LC0:
 2009 0000 4F707469 		.ascii	"Option 1\012Option 2\012Option 3\012Option 4\012Opt"
 2009      6F6E2031 
 2009      0A4F7074 
 2009      696F6E20 
 2009      320A4F70 
 2010 0027 696F6E20 		.ascii	"ion 5\000"
 2010      3500
 2011              		.section	.text.lv_roller_constructor,"ax",%progbits
 2012              		.align	1
 2013              		.syntax unified
 2014              		.thumb
 2015              		.thumb_func
 2016              		.fpu fpv4-sp-d16
 2018              	lv_roller_constructor:
 2019              	.LVL245:
 2020              	.LFB155:
 291:Middlewares/lvgl/src/widgets/lv_roller.c ****     LV_UNUSED(class_p);
 2021              		.loc 1 291 1 view -0
 2022              		.cfi_startproc
 2023              		@ args = 0, pretend = 0, frame = 0
 2024              		@ frame_needed = 0, uses_anonymous_args = 0
ARM GAS  /tmp/cc9MIr9f.s 			page 72


 291:Middlewares/lvgl/src/widgets/lv_roller.c ****     LV_UNUSED(class_p);
 2025              		.loc 1 291 1 is_stmt 0 view .LVU644
 2026 0000 38B5     		push	{r3, r4, r5, lr}
 2027              	.LCFI25:
 2028              		.cfi_def_cfa_offset 16
 2029              		.cfi_offset 3, -16
 2030              		.cfi_offset 4, -12
 2031              		.cfi_offset 5, -8
 2032              		.cfi_offset 14, -4
 2033 0002 0C46     		mov	r4, r1
 292:Middlewares/lvgl/src/widgets/lv_roller.c ****     lv_roller_t * roller = (lv_roller_t*)obj;
 2034              		.loc 1 292 5 is_stmt 1 view .LVU645
 293:Middlewares/lvgl/src/widgets/lv_roller.c **** 
 2035              		.loc 1 293 5 view .LVU646
 2036              	.LVL246:
 295:Middlewares/lvgl/src/widgets/lv_roller.c ****     roller->option_cnt = 0;
 2037              		.loc 1 295 5 view .LVU647
 295:Middlewares/lvgl/src/widgets/lv_roller.c ****     roller->option_cnt = 0;
 2038              		.loc 1 295 18 is_stmt 0 view .LVU648
 2039 0004 91F82A30 		ldrb	r3, [r1, #42]	@ zero_extendqisi2
 2040 0008 6FF30003 		bfc	r3, #0, #1
 2041 000c 81F82A30 		strb	r3, [r1, #42]
 296:Middlewares/lvgl/src/widgets/lv_roller.c ****     roller->sel_opt_id = 0;
 2042              		.loc 1 296 5 is_stmt 1 view .LVU649
 296:Middlewares/lvgl/src/widgets/lv_roller.c ****     roller->sel_opt_id = 0;
 2043              		.loc 1 296 24 is_stmt 0 view .LVU650
 2044 0010 0025     		movs	r5, #0
 2045 0012 8D84     		strh	r5, [r1, #36]	@ movhi
 297:Middlewares/lvgl/src/widgets/lv_roller.c ****     roller->sel_opt_id_ori = 0;
 2046              		.loc 1 297 5 is_stmt 1 view .LVU651
 297:Middlewares/lvgl/src/widgets/lv_roller.c ****     roller->sel_opt_id_ori = 0;
 2047              		.loc 1 297 24 is_stmt 0 view .LVU652
 2048 0014 CD84     		strh	r5, [r1, #38]	@ movhi
 298:Middlewares/lvgl/src/widgets/lv_roller.c **** 
 2049              		.loc 1 298 5 is_stmt 1 view .LVU653
 298:Middlewares/lvgl/src/widgets/lv_roller.c **** 
 2050              		.loc 1 298 28 is_stmt 0 view .LVU654
 2051 0016 0D85     		strh	r5, [r1, #40]	@ movhi
 300:Middlewares/lvgl/src/widgets/lv_roller.c ****     lv_obj_clear_flag(obj, LV_OBJ_FLAG_SCROLL_CHAIN);
 2052              		.loc 1 300 5 is_stmt 1 view .LVU655
 2053 0018 1021     		movs	r1, #16
 2054              	.LVL247:
 300:Middlewares/lvgl/src/widgets/lv_roller.c ****     lv_obj_clear_flag(obj, LV_OBJ_FLAG_SCROLL_CHAIN);
 2055              		.loc 1 300 5 is_stmt 0 view .LVU656
 2056 001a 2046     		mov	r0, r4
 2057              	.LVL248:
 300:Middlewares/lvgl/src/widgets/lv_roller.c ****     lv_obj_clear_flag(obj, LV_OBJ_FLAG_SCROLL_CHAIN);
 2058              		.loc 1 300 5 view .LVU657
 2059 001c FFF7FEFF 		bl	lv_obj_clear_flag
 2060              	.LVL249:
 301:Middlewares/lvgl/src/widgets/lv_roller.c **** 
 2061              		.loc 1 301 5 is_stmt 1 view .LVU658
 2062 0020 4FF48071 		mov	r1, #256
 2063 0024 2046     		mov	r0, r4
 2064 0026 FFF7FEFF 		bl	lv_obj_clear_flag
 2065              	.LVL250:
 304:Middlewares/lvgl/src/widgets/lv_roller.c ****     lv_obj_class_init_obj(label);
ARM GAS  /tmp/cc9MIr9f.s 			page 73


 2066              		.loc 1 304 5 view .LVU659
 304:Middlewares/lvgl/src/widgets/lv_roller.c ****     lv_obj_class_init_obj(label);
 2067              		.loc 1 304 24 is_stmt 0 view .LVU660
 2068 002a 2146     		mov	r1, r4
 2069 002c 0548     		ldr	r0, .L76
 2070 002e FFF7FEFF 		bl	lv_obj_class_create_obj
 2071              	.LVL251:
 305:Middlewares/lvgl/src/widgets/lv_roller.c ****     lv_roller_set_options(obj, "Option 1\nOption 2\nOption 3\nOption 4\nOption 5", LV_ROLLER_MODE_N
 2072              		.loc 1 305 5 is_stmt 1 view .LVU661
 2073 0032 FFF7FEFF 		bl	lv_obj_class_init_obj
 2074              	.LVL252:
 306:Middlewares/lvgl/src/widgets/lv_roller.c **** 
 2075              		.loc 1 306 5 view .LVU662
 2076 0036 2A46     		mov	r2, r5
 2077 0038 0349     		ldr	r1, .L76+4
 2078 003a 2046     		mov	r0, r4
 2079 003c FFF7FEFF 		bl	lv_roller_set_options
 2080              	.LVL253:
 308:Middlewares/lvgl/src/widgets/lv_roller.c **** }
 2081              		.loc 1 308 28 view .LVU663
 309:Middlewares/lvgl/src/widgets/lv_roller.c **** 
 2082              		.loc 1 309 1 is_stmt 0 view .LVU664
 2083 0040 38BD     		pop	{r3, r4, r5, pc}
 2084              	.LVL254:
 2085              	.L77:
 309:Middlewares/lvgl/src/widgets/lv_roller.c **** 
 2086              		.loc 1 309 1 view .LVU665
 2087 0042 00BF     		.align	2
 2088              	.L76:
 2089 0044 00000000 		.word	.LANCHOR0
 2090 0048 00000000 		.word	.LC0
 2091              		.cfi_endproc
 2092              	.LFE155:
 2094              		.section	.text.lv_roller_set_selected,"ax",%progbits
 2095              		.align	1
 2096              		.global	lv_roller_set_selected
 2097              		.syntax unified
 2098              		.thumb
 2099              		.thumb_func
 2100              		.fpu fpv4-sp-d16
 2102              	lv_roller_set_selected:
 2103              	.LVL255:
 2104              	.LFB149:
 152:Middlewares/lvgl/src/widgets/lv_roller.c ****     LV_ASSERT_OBJ(obj, MY_CLASS);
 2105              		.loc 1 152 1 is_stmt 1 view -0
 2106              		.cfi_startproc
 2107              		@ args = 0, pretend = 0, frame = 0
 2108              		@ frame_needed = 0, uses_anonymous_args = 0
 152:Middlewares/lvgl/src/widgets/lv_roller.c ****     LV_ASSERT_OBJ(obj, MY_CLASS);
 2109              		.loc 1 152 1 is_stmt 0 view .LVU667
 2110 0000 10B5     		push	{r4, lr}
 2111              	.LCFI26:
 2112              		.cfi_def_cfa_offset 8
 2113              		.cfi_offset 4, -8
 2114              		.cfi_offset 14, -4
 2115 0002 0B46     		mov	r3, r1
 2116 0004 1146     		mov	r1, r2
ARM GAS  /tmp/cc9MIr9f.s 			page 74


 2117              	.LVL256:
 153:Middlewares/lvgl/src/widgets/lv_roller.c **** 
 2118              		.loc 1 153 5 is_stmt 1 view .LVU668
 153:Middlewares/lvgl/src/widgets/lv_roller.c **** 
 2119              		.loc 1 153 5 view .LVU669
 153:Middlewares/lvgl/src/widgets/lv_roller.c **** 
 2120              		.loc 1 153 5 view .LVU670
 159:Middlewares/lvgl/src/widgets/lv_roller.c **** 
 2121              		.loc 1 159 5 view .LVU671
 162:Middlewares/lvgl/src/widgets/lv_roller.c ****         int32_t sel_opt_signed = sel_opt;
 2122              		.loc 1 162 5 view .LVU672
 162:Middlewares/lvgl/src/widgets/lv_roller.c ****         int32_t sel_opt_signed = sel_opt;
 2123              		.loc 1 162 21 is_stmt 0 view .LVU673
 2124 0006 90F82A20 		ldrb	r2, [r0, #42]	@ zero_extendqisi2
 2125              	.LVL257:
 162:Middlewares/lvgl/src/widgets/lv_roller.c ****         int32_t sel_opt_signed = sel_opt;
 2126              		.loc 1 162 7 view .LVU674
 2127 000a 12F0010F 		tst	r2, #1
 2128 000e 17D0     		beq	.L79
 2129              	.LBB129:
 163:Middlewares/lvgl/src/widgets/lv_roller.c ****         uint16_t page = roller->sel_opt_id / LV_ROLLER_INF_PAGES;
 2130              		.loc 1 163 9 is_stmt 1 view .LVU675
 163:Middlewares/lvgl/src/widgets/lv_roller.c ****         uint16_t page = roller->sel_opt_id / LV_ROLLER_INF_PAGES;
 2131              		.loc 1 163 17 is_stmt 0 view .LVU676
 2132 0010 1A46     		mov	r2, r3
 2133              	.LVL258:
 164:Middlewares/lvgl/src/widgets/lv_roller.c **** 
 2134              		.loc 1 164 9 is_stmt 1 view .LVU677
 164:Middlewares/lvgl/src/widgets/lv_roller.c **** 
 2135              		.loc 1 164 31 is_stmt 0 view .LVU678
 2136 0012 B0F826E0 		ldrh	lr, [r0, #38]
 164:Middlewares/lvgl/src/widgets/lv_roller.c **** 
 2137              		.loc 1 164 18 view .LVU679
 2138 0016 0F4C     		ldr	r4, .L83
 2139 0018 A4FB0E4C 		umull	r4, ip, r4, lr
 2140 001c AEEB0C04 		sub	r4, lr, ip
 2141 0020 0CEB540C 		add	ip, ip, r4, lsr #1
 2142 0024 CCF38F0C 		ubfx	ip, ip, #2, #16
 2143              	.LVL259:
 169:Middlewares/lvgl/src/widgets/lv_roller.c ****             sel_opt_signed -= page * LV_ROLLER_INF_PAGES;
 2144              		.loc 1 169 9 is_stmt 1 view .LVU680
 169:Middlewares/lvgl/src/widgets/lv_roller.c ****             sel_opt_signed -= page * LV_ROLLER_INF_PAGES;
 2145              		.loc 1 169 11 is_stmt 0 view .LVU681
 2146 0028 BEF1060F 		cmp	lr, #6
 2147 002c 02D9     		bls	.L80
 170:Middlewares/lvgl/src/widgets/lv_roller.c ****         }
 2148              		.loc 1 170 13 is_stmt 1 view .LVU682
 170:Middlewares/lvgl/src/widgets/lv_roller.c ****         }
 2149              		.loc 1 170 36 is_stmt 0 view .LVU683
 2150 002e ACEBCC02 		sub	r2, ip, ip, lsl #3
 2151              	.LVL260:
 170:Middlewares/lvgl/src/widgets/lv_roller.c ****         }
 2152              		.loc 1 170 28 view .LVU684
 2153 0032 1A44     		add	r2, r2, r3
 2154              	.LVL261:
 2155              	.L80:
 173:Middlewares/lvgl/src/widgets/lv_roller.c ****     }
ARM GAS  /tmp/cc9MIr9f.s 			page 75


 2156              		.loc 1 173 9 is_stmt 1 view .LVU685
 173:Middlewares/lvgl/src/widgets/lv_roller.c ****     }
 2157              		.loc 1 173 46 is_stmt 0 view .LVU686
 2158 0034 CCEBCC0C 		rsb	ip, ip, ip, lsl #3
 2159              	.LVL262:
 173:Middlewares/lvgl/src/widgets/lv_roller.c ****     }
 2160              		.loc 1 173 46 view .LVU687
 2161 0038 93B2     		uxth	r3, r2
 173:Middlewares/lvgl/src/widgets/lv_roller.c ****     }
 2162              		.loc 1 173 17 view .LVU688
 2163 003a 13FA8CF3 		uxtah	r3, r3, ip
 2164 003e 9BB2     		uxth	r3, r3
 2165              	.LVL263:
 2166              	.L79:
 173:Middlewares/lvgl/src/widgets/lv_roller.c ****     }
 2167              		.loc 1 173 17 view .LVU689
 2168              	.LBE129:
 176:Middlewares/lvgl/src/widgets/lv_roller.c ****     roller->sel_opt_id_ori = roller->sel_opt_id;
 2169              		.loc 1 176 5 is_stmt 1 view .LVU690
 176:Middlewares/lvgl/src/widgets/lv_roller.c ****     roller->sel_opt_id_ori = roller->sel_opt_id;
 2170              		.loc 1 176 46 is_stmt 0 view .LVU691
 2171 0040 828C     		ldrh	r2, [r0, #36]
 176:Middlewares/lvgl/src/widgets/lv_roller.c ****     roller->sel_opt_id_ori = roller->sel_opt_id;
 2172              		.loc 1 176 28 view .LVU692
 2173 0042 9A42     		cmp	r2, r3
 2174 0044 01D8     		bhi	.L81
 176:Middlewares/lvgl/src/widgets/lv_roller.c ****     roller->sel_opt_id_ori = roller->sel_opt_id;
 2175              		.loc 1 176 28 discriminator 1 view .LVU693
 2176 0046 531E     		subs	r3, r2, #1
 2177              	.LVL264:
 176:Middlewares/lvgl/src/widgets/lv_roller.c ****     roller->sel_opt_id_ori = roller->sel_opt_id;
 2178              		.loc 1 176 28 discriminator 1 view .LVU694
 2179 0048 9BB2     		uxth	r3, r3
 2180              	.L81:
 176:Middlewares/lvgl/src/widgets/lv_roller.c ****     roller->sel_opt_id_ori = roller->sel_opt_id;
 2181              		.loc 1 176 28 discriminator 4 view .LVU695
 2182 004a C384     		strh	r3, [r0, #38]	@ movhi
 177:Middlewares/lvgl/src/widgets/lv_roller.c **** 
 2183              		.loc 1 177 5 is_stmt 1 discriminator 4 view .LVU696
 177:Middlewares/lvgl/src/widgets/lv_roller.c **** 
 2184              		.loc 1 177 28 is_stmt 0 discriminator 4 view .LVU697
 2185 004c 0385     		strh	r3, [r0, #40]	@ movhi
 179:Middlewares/lvgl/src/widgets/lv_roller.c **** }
 2186              		.loc 1 179 5 is_stmt 1 discriminator 4 view .LVU698
 2187 004e FFF7FEFF 		bl	refr_position
 2188              	.LVL265:
 180:Middlewares/lvgl/src/widgets/lv_roller.c **** 
 2189              		.loc 1 180 1 is_stmt 0 discriminator 4 view .LVU699
 2190 0052 10BD     		pop	{r4, pc}
 2191              	.L84:
 2192              		.align	2
 2193              	.L83:
 2194 0054 25499224 		.word	613566757
 2195              		.cfi_endproc
 2196              	.LFE149:
 2198              		.section	.text.release_handler,"ax",%progbits
 2199              		.align	1
ARM GAS  /tmp/cc9MIr9f.s 			page 76


 2200              		.syntax unified
 2201              		.thumb
 2202              		.thumb_func
 2203              		.fpu fpv4-sp-d16
 2205              	release_handler:
 2206              	.LVL266:
 2207              	.LFB161:
 631:Middlewares/lvgl/src/widgets/lv_roller.c ****     lv_obj_t * label = get_label(obj);
 2208              		.loc 1 631 1 is_stmt 1 view -0
 2209              		.cfi_startproc
 2210              		@ args = 0, pretend = 0, frame = 16
 2211              		@ frame_needed = 0, uses_anonymous_args = 0
 631:Middlewares/lvgl/src/widgets/lv_roller.c ****     lv_obj_t * label = get_label(obj);
 2212              		.loc 1 631 1 is_stmt 0 view .LVU701
 2213 0000 2DE9F043 		push	{r4, r5, r6, r7, r8, r9, lr}
 2214              	.LCFI27:
 2215              		.cfi_def_cfa_offset 28
 2216              		.cfi_offset 4, -28
 2217              		.cfi_offset 5, -24
 2218              		.cfi_offset 6, -20
 2219              		.cfi_offset 7, -16
 2220              		.cfi_offset 8, -12
 2221              		.cfi_offset 9, -8
 2222              		.cfi_offset 14, -4
 2223 0004 85B0     		sub	sp, sp, #20
 2224              	.LCFI28:
 2225              		.cfi_def_cfa_offset 48
 2226 0006 0546     		mov	r5, r0
 632:Middlewares/lvgl/src/widgets/lv_roller.c ****     if(label == NULL) return LV_RES_OK;
 2227              		.loc 1 632 5 is_stmt 1 view .LVU702
 632:Middlewares/lvgl/src/widgets/lv_roller.c ****     if(label == NULL) return LV_RES_OK;
 2228              		.loc 1 632 24 is_stmt 0 view .LVU703
 2229 0008 FFF7FEFF 		bl	get_label
 2230              	.LVL267:
 633:Middlewares/lvgl/src/widgets/lv_roller.c **** 
 2231              		.loc 1 633 5 is_stmt 1 view .LVU704
 633:Middlewares/lvgl/src/widgets/lv_roller.c **** 
 2232              		.loc 1 633 7 is_stmt 0 view .LVU705
 2233 000c 0028     		cmp	r0, #0
 2234 000e 00F09F80 		beq	.L98
 2235 0012 8046     		mov	r8, r0
 635:Middlewares/lvgl/src/widgets/lv_roller.c ****     lv_roller_t * roller = (lv_roller_t*)obj;
 2236              		.loc 1 635 5 is_stmt 1 view .LVU706
 635:Middlewares/lvgl/src/widgets/lv_roller.c ****     lv_roller_t * roller = (lv_roller_t*)obj;
 2237              		.loc 1 635 26 is_stmt 0 view .LVU707
 2238 0014 FFF7FEFF 		bl	lv_indev_get_act
 2239              	.LVL268:
 635:Middlewares/lvgl/src/widgets/lv_roller.c ****     lv_roller_t * roller = (lv_roller_t*)obj;
 2240              		.loc 1 635 26 view .LVU708
 2241 0018 0646     		mov	r6, r0
 2242              	.LVL269:
 636:Middlewares/lvgl/src/widgets/lv_roller.c **** 
 2243              		.loc 1 636 5 is_stmt 1 view .LVU709
 639:Middlewares/lvgl/src/widgets/lv_roller.c ****     if(indev_type == LV_INDEV_TYPE_ENCODER || indev_type == LV_INDEV_TYPE_KEYPAD) {
 2244              		.loc 1 639 5 view .LVU710
 639:Middlewares/lvgl/src/widgets/lv_roller.c ****     if(indev_type == LV_INDEV_TYPE_ENCODER || indev_type == LV_INDEV_TYPE_KEYPAD) {
 2245              		.loc 1 639 34 is_stmt 0 view .LVU711
ARM GAS  /tmp/cc9MIr9f.s 			page 77


 2246 001a FFF7FEFF 		bl	lv_indev_get_type
 2247              	.LVL270:
 640:Middlewares/lvgl/src/widgets/lv_roller.c ****         roller->sel_opt_id_ori = roller->sel_opt_id;
 2248              		.loc 1 640 5 is_stmt 1 view .LVU712
 640:Middlewares/lvgl/src/widgets/lv_roller.c ****         roller->sel_opt_id_ori = roller->sel_opt_id;
 2249              		.loc 1 640 7 is_stmt 0 view .LVU713
 2250 001e 0428     		cmp	r0, #4
 2251 0020 01D0     		beq	.L87
 640:Middlewares/lvgl/src/widgets/lv_roller.c ****         roller->sel_opt_id_ori = roller->sel_opt_id;
 2252              		.loc 1 640 44 discriminator 1 view .LVU714
 2253 0022 0228     		cmp	r0, #2
 2254 0024 03D1     		bne	.L88
 2255              	.L87:
 641:Middlewares/lvgl/src/widgets/lv_roller.c **** 
 2256              		.loc 1 641 9 is_stmt 1 view .LVU715
 641:Middlewares/lvgl/src/widgets/lv_roller.c **** 
 2257              		.loc 1 641 40 is_stmt 0 view .LVU716
 2258 0026 EB8C     		ldrh	r3, [r5, #38]
 641:Middlewares/lvgl/src/widgets/lv_roller.c **** 
 2259              		.loc 1 641 32 view .LVU717
 2260 0028 2B85     		strh	r3, [r5, #40]	@ movhi
 643:Middlewares/lvgl/src/widgets/lv_roller.c ****             lv_group_t * g      = lv_obj_get_group(obj);
 2261              		.loc 1 643 9 is_stmt 1 view .LVU718
 643:Middlewares/lvgl/src/widgets/lv_roller.c ****             lv_group_t * g      = lv_obj_get_group(obj);
 2262              		.loc 1 643 11 is_stmt 0 view .LVU719
 2263 002a 0428     		cmp	r0, #4
 2264 002c 29D0     		beq	.L101
 2265              	.LVL271:
 2266              	.L88:
 651:Middlewares/lvgl/src/widgets/lv_roller.c ****         /*Search the clicked option (For KEYPAD and ENCODER the new value should be already set)*/
 2267              		.loc 1 651 5 is_stmt 1 view .LVU720
 651:Middlewares/lvgl/src/widgets/lv_roller.c ****         /*Search the clicked option (For KEYPAD and ENCODER the new value should be already set)*/
 2268              		.loc 1 651 8 is_stmt 0 view .LVU721
 2269 002e 3046     		mov	r0, r6
 2270 0030 FFF7FEFF 		bl	lv_indev_get_type
 2271              	.LVL272:
 651:Middlewares/lvgl/src/widgets/lv_roller.c ****         /*Search the clicked option (For KEYPAD and ENCODER the new value should be already set)*/
 2272              		.loc 1 651 7 view .LVU722
 2273 0034 0128     		cmp	r0, #1
 2274 0036 31D1     		bne	.L102
 2275              	.L89:
 2276              	.LBB130:
 653:Middlewares/lvgl/src/widgets/lv_roller.c ****         if(roller->moved == 0) {
 2277              		.loc 1 653 9 is_stmt 1 view .LVU723
 2278              	.LVL273:
 654:Middlewares/lvgl/src/widgets/lv_roller.c ****             new_opt = 0;
 2279              		.loc 1 654 9 view .LVU724
 654:Middlewares/lvgl/src/widgets/lv_roller.c ****             new_opt = 0;
 2280              		.loc 1 654 26 is_stmt 0 view .LVU725
 2281 0038 95F82A30 		ldrb	r3, [r5, #42]	@ zero_extendqisi2
 654:Middlewares/lvgl/src/widgets/lv_roller.c ****             new_opt = 0;
 2282              		.loc 1 654 11 view .LVU726
 2283 003c 13F0020F 		tst	r3, #2
 2284 0040 43D1     		bne	.L91
 2285              	.LBB131:
 655:Middlewares/lvgl/src/widgets/lv_roller.c ****             lv_point_t p;
 2286              		.loc 1 655 13 is_stmt 1 view .LVU727
ARM GAS  /tmp/cc9MIr9f.s 			page 78


 2287              	.LVL274:
 656:Middlewares/lvgl/src/widgets/lv_roller.c ****             lv_indev_get_point(indev, &p);
 2288              		.loc 1 656 13 view .LVU728
 657:Middlewares/lvgl/src/widgets/lv_roller.c ****             p.y -= label->coords.y1;
 2289              		.loc 1 657 13 view .LVU729
 2290 0042 01A9     		add	r1, sp, #4
 2291 0044 3046     		mov	r0, r6
 2292 0046 FFF7FEFF 		bl	lv_indev_get_point
 2293              	.LVL275:
 658:Middlewares/lvgl/src/widgets/lv_roller.c ****             p.x -= label->coords.x1;
 2294              		.loc 1 658 13 view .LVU730
 658:Middlewares/lvgl/src/widgets/lv_roller.c ****             p.x -= label->coords.x1;
 2295              		.loc 1 658 33 is_stmt 0 view .LVU731
 2296 004a B8F81620 		ldrh	r2, [r8, #22]
 658:Middlewares/lvgl/src/widgets/lv_roller.c ****             p.x -= label->coords.x1;
 2297              		.loc 1 658 17 view .LVU732
 2298 004e BDF80630 		ldrh	r3, [sp, #6]
 2299 0052 9B1A     		subs	r3, r3, r2
 2300 0054 ADF80630 		strh	r3, [sp, #6]	@ movhi
 659:Middlewares/lvgl/src/widgets/lv_roller.c ****             uint32_t letter_i;
 2301              		.loc 1 659 13 is_stmt 1 view .LVU733
 659:Middlewares/lvgl/src/widgets/lv_roller.c ****             uint32_t letter_i;
 2302              		.loc 1 659 33 is_stmt 0 view .LVU734
 2303 0058 B8F81420 		ldrh	r2, [r8, #20]
 659:Middlewares/lvgl/src/widgets/lv_roller.c ****             uint32_t letter_i;
 2304              		.loc 1 659 17 view .LVU735
 2305 005c BDF80430 		ldrh	r3, [sp, #4]
 2306 0060 9B1A     		subs	r3, r3, r2
 2307 0062 ADF80430 		strh	r3, [sp, #4]	@ movhi
 660:Middlewares/lvgl/src/widgets/lv_roller.c ****             letter_i = lv_label_get_letter_on(label, &p);
 2308              		.loc 1 660 13 is_stmt 1 view .LVU736
 661:Middlewares/lvgl/src/widgets/lv_roller.c **** 
 2309              		.loc 1 661 13 view .LVU737
 661:Middlewares/lvgl/src/widgets/lv_roller.c **** 
 2310              		.loc 1 661 24 is_stmt 0 view .LVU738
 2311 0066 01A9     		add	r1, sp, #4
 2312 0068 4046     		mov	r0, r8
 2313 006a FFF7FEFF 		bl	lv_label_get_letter_on
 2314              	.LVL276:
 2315 006e 0746     		mov	r7, r0
 2316              	.LVL277:
 663:Middlewares/lvgl/src/widgets/lv_roller.c ****             uint32_t i        = 0;
 2317              		.loc 1 663 13 is_stmt 1 view .LVU739
 663:Middlewares/lvgl/src/widgets/lv_roller.c ****             uint32_t i        = 0;
 2318              		.loc 1 663 33 is_stmt 0 view .LVU740
 2319 0070 4046     		mov	r0, r8
 2320              	.LVL278:
 663:Middlewares/lvgl/src/widgets/lv_roller.c ****             uint32_t i        = 0;
 2321              		.loc 1 663 33 view .LVU741
 2322 0072 FFF7FEFF 		bl	lv_label_get_text
 2323              	.LVL279:
 2324 0076 8146     		mov	r9, r0
 2325              	.LVL280:
 664:Middlewares/lvgl/src/widgets/lv_roller.c ****             uint32_t i_prev   = 0;
 2326              		.loc 1 664 13 is_stmt 1 view .LVU742
 664:Middlewares/lvgl/src/widgets/lv_roller.c ****             uint32_t i_prev   = 0;
 2327              		.loc 1 664 22 is_stmt 0 view .LVU743
ARM GAS  /tmp/cc9MIr9f.s 			page 79


 2328 0078 0024     		movs	r4, #0
 2329 007a 0294     		str	r4, [sp, #8]
 665:Middlewares/lvgl/src/widgets/lv_roller.c **** 
 2330              		.loc 1 665 13 is_stmt 1 view .LVU744
 2331              	.LVL281:
 667:Middlewares/lvgl/src/widgets/lv_roller.c ****             for(letter_cnt = 0; letter_cnt < letter_i; letter_cnt++) {
 2332              		.loc 1 667 13 view .LVU745
 668:Middlewares/lvgl/src/widgets/lv_roller.c ****                 uint32_t letter = _lv_txt_encoded_next(txt, &i);
 2333              		.loc 1 668 13 view .LVU746
 668:Middlewares/lvgl/src/widgets/lv_roller.c ****                 uint32_t letter = _lv_txt_encoded_next(txt, &i);
 2334              		.loc 1 668 28 is_stmt 0 view .LVU747
 2335 007c 2646     		mov	r6, r4
 2336              	.LVL282:
 665:Middlewares/lvgl/src/widgets/lv_roller.c **** 
 2337              		.loc 1 665 22 view .LVU748
 2338 007e A046     		mov	r8, r4
 2339              	.LVL283:
 668:Middlewares/lvgl/src/widgets/lv_roller.c ****                 uint32_t letter = _lv_txt_encoded_next(txt, &i);
 2340              		.loc 1 668 13 view .LVU749
 2341 0080 15E0     		b	.L92
 2342              	.LVL284:
 2343              	.L101:
 668:Middlewares/lvgl/src/widgets/lv_roller.c ****                 uint32_t letter = _lv_txt_encoded_next(txt, &i);
 2344              		.loc 1 668 13 view .LVU750
 2345              	.LBE131:
 2346              	.LBE130:
 2347              	.LBB143:
 644:Middlewares/lvgl/src/widgets/lv_roller.c ****             if(lv_group_get_editing(g)) {
 2348              		.loc 1 644 13 is_stmt 1 view .LVU751
 644:Middlewares/lvgl/src/widgets/lv_roller.c ****             if(lv_group_get_editing(g)) {
 2349              		.loc 1 644 35 is_stmt 0 view .LVU752
 2350 0082 2846     		mov	r0, r5
 2351              	.LVL285:
 644:Middlewares/lvgl/src/widgets/lv_roller.c ****             if(lv_group_get_editing(g)) {
 2352              		.loc 1 644 35 view .LVU753
 2353 0084 FFF7FEFF 		bl	lv_obj_get_group
 2354              	.LVL286:
 2355 0088 0446     		mov	r4, r0
 2356              	.LVL287:
 645:Middlewares/lvgl/src/widgets/lv_roller.c ****                 lv_group_set_editing(g, false);
 2357              		.loc 1 645 13 is_stmt 1 view .LVU754
 645:Middlewares/lvgl/src/widgets/lv_roller.c ****                 lv_group_set_editing(g, false);
 2358              		.loc 1 645 16 is_stmt 0 view .LVU755
 2359 008a FFF7FEFF 		bl	lv_group_get_editing
 2360              	.LVL288:
 645:Middlewares/lvgl/src/widgets/lv_roller.c ****                 lv_group_set_editing(g, false);
 2361              		.loc 1 645 15 view .LVU756
 2362 008e 0028     		cmp	r0, #0
 2363 0090 CDD0     		beq	.L88
 646:Middlewares/lvgl/src/widgets/lv_roller.c ****             }
 2364              		.loc 1 646 17 is_stmt 1 view .LVU757
 2365 0092 0021     		movs	r1, #0
 2366 0094 2046     		mov	r0, r4
 2367 0096 FFF7FEFF 		bl	lv_group_set_editing
 2368              	.LVL289:
 2369 009a C8E7     		b	.L88
 2370              	.LVL290:
ARM GAS  /tmp/cc9MIr9f.s 			page 80


 2371              	.L102:
 646:Middlewares/lvgl/src/widgets/lv_roller.c ****             }
 2372              		.loc 1 646 17 is_stmt 0 view .LVU758
 2373              	.LBE143:
 651:Middlewares/lvgl/src/widgets/lv_roller.c ****         /*Search the clicked option (For KEYPAD and ENCODER the new value should be already set)*/
 2374              		.loc 1 651 61 discriminator 1 view .LVU759
 2375 009c 3046     		mov	r0, r6
 2376 009e FFF7FEFF 		bl	lv_indev_get_type
 2377              	.LVL291:
 651:Middlewares/lvgl/src/widgets/lv_roller.c ****         /*Search the clicked option (For KEYPAD and ENCODER the new value should be already set)*/
 2378              		.loc 1 651 58 discriminator 1 view .LVU760
 2379 00a2 0328     		cmp	r0, #3
 2380 00a4 42D1     		bne	.L90
 2381 00a6 C7E7     		b	.L89
 2382              	.LVL292:
 2383              	.L93:
 2384              	.LBB144:
 2385              	.LBB134:
 2386              	.LBB132:
 673:Middlewares/lvgl/src/widgets/lv_roller.c ****             }
 2387              		.loc 1 673 17 is_stmt 1 discriminator 2 view .LVU761
 673:Middlewares/lvgl/src/widgets/lv_roller.c ****             }
 2388              		.loc 1 673 24 is_stmt 0 discriminator 2 view .LVU762
 2389 00a8 DDF80880 		ldr	r8, [sp, #8]
 2390              	.LVL293:
 673:Middlewares/lvgl/src/widgets/lv_roller.c ****             }
 2391              		.loc 1 673 24 discriminator 2 view .LVU763
 2392              	.LBE132:
 668:Middlewares/lvgl/src/widgets/lv_roller.c ****                 uint32_t letter = _lv_txt_encoded_next(txt, &i);
 2393              		.loc 1 668 56 is_stmt 1 discriminator 2 view .LVU764
 668:Middlewares/lvgl/src/widgets/lv_roller.c ****                 uint32_t letter = _lv_txt_encoded_next(txt, &i);
 2394              		.loc 1 668 66 is_stmt 0 discriminator 2 view .LVU765
 2395 00ac 0136     		adds	r6, r6, #1
 2396              	.LVL294:
 2397              	.L92:
 668:Middlewares/lvgl/src/widgets/lv_roller.c ****                 uint32_t letter = _lv_txt_encoded_next(txt, &i);
 2398              		.loc 1 668 33 is_stmt 1 discriminator 1 view .LVU766
 668:Middlewares/lvgl/src/widgets/lv_roller.c ****                 uint32_t letter = _lv_txt_encoded_next(txt, &i);
 2399              		.loc 1 668 13 is_stmt 0 discriminator 1 view .LVU767
 2400 00ae BE42     		cmp	r6, r7
 2401 00b0 3AD2     		bcs	.L95
 2402              	.LBB133:
 669:Middlewares/lvgl/src/widgets/lv_roller.c ****                 /*Count he lines to reach the clicked letter. But ignore the last '\n' because it
 2403              		.loc 1 669 17 is_stmt 1 view .LVU768
 669:Middlewares/lvgl/src/widgets/lv_roller.c ****                 /*Count he lines to reach the clicked letter. But ignore the last '\n' because it
 2404              		.loc 1 669 35 is_stmt 0 view .LVU769
 2405 00b2 284B     		ldr	r3, .L105
 2406 00b4 1B68     		ldr	r3, [r3]
 2407 00b6 02A9     		add	r1, sp, #8
 2408 00b8 4846     		mov	r0, r9
 2409 00ba 9847     		blx	r3
 2410              	.LVL295:
 672:Middlewares/lvgl/src/widgets/lv_roller.c ****                 i_prev = i;
 2411              		.loc 1 672 17 is_stmt 1 view .LVU770
 672:Middlewares/lvgl/src/widgets/lv_roller.c ****                 i_prev = i;
 2412              		.loc 1 672 19 is_stmt 0 view .LVU771
 2413 00bc 0A28     		cmp	r0, #10
ARM GAS  /tmp/cc9MIr9f.s 			page 81


 2414 00be F3D1     		bne	.L93
 672:Middlewares/lvgl/src/widgets/lv_roller.c ****                 i_prev = i;
 2415              		.loc 1 672 35 discriminator 1 view .LVU772
 2416 00c0 B845     		cmp	r8, r7
 2417 00c2 F1D0     		beq	.L93
 672:Middlewares/lvgl/src/widgets/lv_roller.c ****                 i_prev = i;
 2418              		.loc 1 672 58 is_stmt 1 discriminator 2 view .LVU773
 672:Middlewares/lvgl/src/widgets/lv_roller.c ****                 i_prev = i;
 2419              		.loc 1 672 65 is_stmt 0 discriminator 2 view .LVU774
 2420 00c4 0134     		adds	r4, r4, #1
 2421              	.LVL296:
 672:Middlewares/lvgl/src/widgets/lv_roller.c ****                 i_prev = i;
 2422              		.loc 1 672 65 discriminator 2 view .LVU775
 2423 00c6 24B2     		sxth	r4, r4
 2424              	.LVL297:
 672:Middlewares/lvgl/src/widgets/lv_roller.c ****                 i_prev = i;
 2425              		.loc 1 672 65 discriminator 2 view .LVU776
 2426 00c8 EEE7     		b	.L93
 2427              	.LVL298:
 2428              	.L91:
 672:Middlewares/lvgl/src/widgets/lv_roller.c ****                 i_prev = i;
 2429              		.loc 1 672 65 discriminator 2 view .LVU777
 2430              	.LBE133:
 2431              	.LBE134:
 2432              	.LBB135:
 677:Middlewares/lvgl/src/widgets/lv_roller.c ****             lv_coord_t line_space = lv_obj_get_style_text_line_space(obj, LV_PART_MAIN);
 2433              		.loc 1 677 13 is_stmt 1 view .LVU778
 2434              	.LBB136:
 2435              	.LBI136:
 331:Middlewares/lvgl/src/widgets/../core/lv_obj_style_gen.h **** {
 2436              		.loc 2 331 33 view .LVU779
 2437              	.LBB137:
 333:Middlewares/lvgl/src/widgets/../core/lv_obj_style_gen.h ****     return (const lv_font_t *)v.ptr;
 2438              		.loc 2 333 5 view .LVU780
 333:Middlewares/lvgl/src/widgets/../core/lv_obj_style_gen.h ****     return (const lv_font_t *)v.ptr;
 2439              		.loc 2 333 26 is_stmt 0 view .LVU781
 2440 00ca 41F25942 		movw	r2, #5209
 2441 00ce 0021     		movs	r1, #0
 2442 00d0 2846     		mov	r0, r5
 2443 00d2 FFF7FEFF 		bl	lv_obj_get_style_prop
 2444              	.LVL299:
 2445 00d6 8146     		mov	r9, r0
 2446              	.LVL300:
 334:Middlewares/lvgl/src/widgets/../core/lv_obj_style_gen.h **** }
 2447              		.loc 2 334 5 is_stmt 1 view .LVU782
 334:Middlewares/lvgl/src/widgets/../core/lv_obj_style_gen.h **** }
 2448              		.loc 2 334 5 is_stmt 0 view .LVU783
 2449              	.LBE137:
 2450              	.LBE136:
 678:Middlewares/lvgl/src/widgets/lv_roller.c ****             lv_coord_t font_h              = lv_font_get_line_height(font);
 2451              		.loc 1 678 13 is_stmt 1 view .LVU784
 2452              	.LBB138:
 2453              	.LBI138:
 343:Middlewares/lvgl/src/widgets/../core/lv_obj_style_gen.h **** {
 2454              		.loc 2 343 26 view .LVU785
 2455              	.LBB139:
 345:Middlewares/lvgl/src/widgets/../core/lv_obj_style_gen.h ****     return (lv_coord_t)v.num;
ARM GAS  /tmp/cc9MIr9f.s 			page 82


 2456              		.loc 2 345 5 view .LVU786
 345:Middlewares/lvgl/src/widgets/../core/lv_obj_style_gen.h ****     return (lv_coord_t)v.num;
 2457              		.loc 2 345 26 is_stmt 0 view .LVU787
 2458 00d8 41F25B42 		movw	r2, #5211
 2459 00dc 0021     		movs	r1, #0
 2460 00de 2846     		mov	r0, r5
 2461              	.LVL301:
 345:Middlewares/lvgl/src/widgets/../core/lv_obj_style_gen.h ****     return (lv_coord_t)v.num;
 2462              		.loc 2 345 26 view .LVU788
 2463 00e0 FFF7FEFF 		bl	lv_obj_get_style_prop
 2464              	.LVL302:
 346:Middlewares/lvgl/src/widgets/../core/lv_obj_style_gen.h **** }
 2465              		.loc 2 346 5 is_stmt 1 view .LVU789
 346:Middlewares/lvgl/src/widgets/../core/lv_obj_style_gen.h **** }
 2466              		.loc 2 346 5 is_stmt 0 view .LVU790
 2467              	.LBE139:
 2468              	.LBE138:
 679:Middlewares/lvgl/src/widgets/lv_roller.c **** 
 2469              		.loc 1 679 13 is_stmt 1 view .LVU791
 2470              	.LBB140:
 2471              	.LBI140:
 118:Middlewares/lvgl/src/widgets/../core/../misc/../font/lv_font.h **** {
 2472              		.loc 3 118 26 view .LVU792
 2473              	.LBB141:
 2474              		.loc 3 120 5 view .LVU793
 2475              		.loc 3 120 18 is_stmt 0 view .LVU794
 2476 00e4 B9F90840 		ldrsh	r4, [r9, #8]
 2477              	.LVL303:
 2478              		.loc 3 120 18 view .LVU795
 2479              	.LBE141:
 2480              	.LBE140:
 681:Middlewares/lvgl/src/widgets/lv_roller.c ****             lv_coord_t mid        = obj->coords.y1 + (obj->coords.y2 - obj->coords.y1) / 2;
 2481              		.loc 1 681 13 is_stmt 1 view .LVU796
 681:Middlewares/lvgl/src/widgets/lv_roller.c ****             lv_coord_t mid        = obj->coords.y1 + (obj->coords.y2 - obj->coords.y1) / 2;
 2482              		.loc 1 681 44 is_stmt 0 view .LVU797
 2483 00e8 0444     		add	r4, r4, r0
 2484              	.LVL304:
 681:Middlewares/lvgl/src/widgets/lv_roller.c ****             lv_coord_t mid        = obj->coords.y1 + (obj->coords.y2 - obj->coords.y1) / 2;
 2485              		.loc 1 681 24 view .LVU798
 2486 00ea 27B2     		sxth	r7, r4
 2487              	.LVL305:
 682:Middlewares/lvgl/src/widgets/lv_roller.c ****             lv_coord_t label_y1 = label->coords.y1 + lv_indev_scroll_throw_predict(indev, LV_DIR_VE
 2488              		.loc 1 682 13 is_stmt 1 view .LVU799
 682:Middlewares/lvgl/src/widgets/lv_roller.c ****             lv_coord_t label_y1 = label->coords.y1 + lv_indev_scroll_throw_predict(indev, LV_DIR_VE
 2489              		.loc 1 682 48 is_stmt 0 view .LVU800
 2490 00ec B5F91640 		ldrsh	r4, [r5, #22]
 682:Middlewares/lvgl/src/widgets/lv_roller.c ****             lv_coord_t label_y1 = label->coords.y1 + lv_indev_scroll_throw_predict(indev, LV_DIR_VE
 2491              		.loc 1 682 66 view .LVU801
 2492 00f0 B5F91A30 		ldrsh	r3, [r5, #26]
 682:Middlewares/lvgl/src/widgets/lv_roller.c ****             lv_coord_t label_y1 = label->coords.y1 + lv_indev_scroll_throw_predict(indev, LV_DIR_VE
 2493              		.loc 1 682 70 view .LVU802
 2494 00f4 1B1B     		subs	r3, r3, r4
 682:Middlewares/lvgl/src/widgets/lv_roller.c ****             lv_coord_t label_y1 = label->coords.y1 + lv_indev_scroll_throw_predict(indev, LV_DIR_VE
 2495              		.loc 1 682 88 view .LVU803
 2496 00f6 03EBD373 		add	r3, r3, r3, lsr #31
 2497 00fa 5B10     		asrs	r3, r3, #1
 682:Middlewares/lvgl/src/widgets/lv_roller.c ****             lv_coord_t label_y1 = label->coords.y1 + lv_indev_scroll_throw_predict(indev, LV_DIR_VE
ARM GAS  /tmp/cc9MIr9f.s 			page 83


 2498              		.loc 1 682 52 view .LVU804
 2499 00fc 13FA84F4 		uxtah	r4, r3, r4
 682:Middlewares/lvgl/src/widgets/lv_roller.c ****             lv_coord_t label_y1 = label->coords.y1 + lv_indev_scroll_throw_predict(indev, LV_DIR_VE
 2500              		.loc 1 682 24 view .LVU805
 2501 0100 24B2     		sxth	r4, r4
 2502              	.LVL306:
 683:Middlewares/lvgl/src/widgets/lv_roller.c ****             int32_t id = (mid - label_y1) / label_unit;
 2503              		.loc 1 683 13 is_stmt 1 view .LVU806
 683:Middlewares/lvgl/src/widgets/lv_roller.c ****             int32_t id = (mid - label_y1) / label_unit;
 2504              		.loc 1 683 48 is_stmt 0 view .LVU807
 2505 0102 B8F81680 		ldrh	r8, [r8, #22]
 2506              	.LVL307:
 683:Middlewares/lvgl/src/widgets/lv_roller.c ****             int32_t id = (mid - label_y1) / label_unit;
 2507              		.loc 1 683 54 view .LVU808
 2508 0106 0C21     		movs	r1, #12
 2509 0108 3046     		mov	r0, r6
 2510              	.LVL308:
 683:Middlewares/lvgl/src/widgets/lv_roller.c ****             int32_t id = (mid - label_y1) / label_unit;
 2511              		.loc 1 683 54 view .LVU809
 2512 010a FFF7FEFF 		bl	lv_indev_scroll_throw_predict
 2513              	.LVL309:
 683:Middlewares/lvgl/src/widgets/lv_roller.c ****             int32_t id = (mid - label_y1) / label_unit;
 2514              		.loc 1 683 52 view .LVU810
 2515 010e 18FA80F3 		uxtah	r3, r8, r0
 683:Middlewares/lvgl/src/widgets/lv_roller.c ****             int32_t id = (mid - label_y1) / label_unit;
 2516              		.loc 1 683 24 view .LVU811
 2517 0112 1BB2     		sxth	r3, r3
 2518              	.LVL310:
 684:Middlewares/lvgl/src/widgets/lv_roller.c **** 
 2519              		.loc 1 684 13 is_stmt 1 view .LVU812
 684:Middlewares/lvgl/src/widgets/lv_roller.c **** 
 2520              		.loc 1 684 31 is_stmt 0 view .LVU813
 2521 0114 E41A     		subs	r4, r4, r3
 2522              	.LVL311:
 684:Middlewares/lvgl/src/widgets/lv_roller.c **** 
 2523              		.loc 1 684 21 view .LVU814
 2524 0116 94FBF7F4 		sdiv	r4, r4, r7
 2525              	.LVL312:
 686:Middlewares/lvgl/src/widgets/lv_roller.c ****             if(id >= roller->option_cnt) id = roller->option_cnt - 1;
 2526              		.loc 1 686 13 is_stmt 1 view .LVU815
 686:Middlewares/lvgl/src/widgets/lv_roller.c ****             if(id >= roller->option_cnt) id = roller->option_cnt - 1;
 2527              		.loc 1 686 15 is_stmt 0 view .LVU816
 2528 011a 002C     		cmp	r4, #0
 2529 011c 10DB     		blt	.L103
 2530              	.LVL313:
 2531              	.L96:
 687:Middlewares/lvgl/src/widgets/lv_roller.c **** 
 2532              		.loc 1 687 13 is_stmt 1 view .LVU817
 687:Middlewares/lvgl/src/widgets/lv_roller.c **** 
 2533              		.loc 1 687 28 is_stmt 0 view .LVU818
 2534 011e AB8C     		ldrh	r3, [r5, #36]
 2535              	.LVL314:
 687:Middlewares/lvgl/src/widgets/lv_roller.c **** 
 2536              		.loc 1 687 15 view .LVU819
 2537 0120 A342     		cmp	r3, r4
 2538 0122 00DC     		bgt	.L97
 687:Middlewares/lvgl/src/widgets/lv_roller.c **** 
ARM GAS  /tmp/cc9MIr9f.s 			page 84


 2539              		.loc 1 687 42 is_stmt 1 discriminator 1 view .LVU820
 687:Middlewares/lvgl/src/widgets/lv_roller.c **** 
 2540              		.loc 1 687 45 is_stmt 0 discriminator 1 view .LVU821
 2541 0124 5C1E     		subs	r4, r3, #1
 2542              	.LVL315:
 2543              	.L97:
 689:Middlewares/lvgl/src/widgets/lv_roller.c ****         }
 2544              		.loc 1 689 13 is_stmt 1 view .LVU822
 689:Middlewares/lvgl/src/widgets/lv_roller.c ****         }
 2545              		.loc 1 689 21 is_stmt 0 view .LVU823
 2546 0126 24B2     		sxth	r4, r4
 2547              	.LVL316:
 2548              	.L95:
 689:Middlewares/lvgl/src/widgets/lv_roller.c ****         }
 2549              		.loc 1 689 21 view .LVU824
 2550              	.LBE135:
 692:Middlewares/lvgl/src/widgets/lv_roller.c ****             lv_roller_set_selected(obj, new_opt, LV_ANIM_ON);
 2551              		.loc 1 692 9 is_stmt 1 view .LVU825
 692:Middlewares/lvgl/src/widgets/lv_roller.c ****             lv_roller_set_selected(obj, new_opt, LV_ANIM_ON);
 2552              		.loc 1 692 11 is_stmt 0 view .LVU826
 2553 0128 002C     		cmp	r4, #0
 2554 012a 0BDA     		bge	.L104
 2555              	.LVL317:
 2556              	.L90:
 692:Middlewares/lvgl/src/widgets/lv_roller.c ****             lv_roller_set_selected(obj, new_opt, LV_ANIM_ON);
 2557              		.loc 1 692 11 view .LVU827
 2558              	.LBE144:
 697:Middlewares/lvgl/src/widgets/lv_roller.c ****     lv_res_t res = lv_event_send(obj, LV_EVENT_VALUE_CHANGED, &id);
 2559              		.loc 1 697 5 is_stmt 1 view .LVU828
 697:Middlewares/lvgl/src/widgets/lv_roller.c ****     lv_res_t res = lv_event_send(obj, LV_EVENT_VALUE_CHANGED, &id);
 2560              		.loc 1 697 26 is_stmt 0 view .LVU829
 2561 012c EB8C     		ldrh	r3, [r5, #38]
 697:Middlewares/lvgl/src/widgets/lv_roller.c ****     lv_res_t res = lv_event_send(obj, LV_EVENT_VALUE_CHANGED, &id);
 2562              		.loc 1 697 14 view .LVU830
 2563 012e 0393     		str	r3, [sp, #12]
 698:Middlewares/lvgl/src/widgets/lv_roller.c ****     return res;
 2564              		.loc 1 698 5 is_stmt 1 view .LVU831
 698:Middlewares/lvgl/src/widgets/lv_roller.c ****     return res;
 2565              		.loc 1 698 20 is_stmt 0 view .LVU832
 2566 0130 03AA     		add	r2, sp, #12
 2567 0132 1C21     		movs	r1, #28
 2568 0134 2846     		mov	r0, r5
 2569 0136 FFF7FEFF 		bl	lv_event_send
 2570              	.LVL318:
 699:Middlewares/lvgl/src/widgets/lv_roller.c **** }
 2571              		.loc 1 699 5 is_stmt 1 view .LVU833
 2572              	.L86:
 700:Middlewares/lvgl/src/widgets/lv_roller.c **** 
 2573              		.loc 1 700 1 is_stmt 0 view .LVU834
 2574 013a 05B0     		add	sp, sp, #20
 2575              	.LCFI29:
 2576              		.cfi_remember_state
 2577              		.cfi_def_cfa_offset 28
 2578              		@ sp needed
 2579 013c BDE8F083 		pop	{r4, r5, r6, r7, r8, r9, pc}
 2580              	.LVL319:
 2581              	.L103:
ARM GAS  /tmp/cc9MIr9f.s 			page 85


 2582              	.LCFI30:
 2583              		.cfi_restore_state
 2584              	.LBB145:
 2585              	.LBB142:
 686:Middlewares/lvgl/src/widgets/lv_roller.c ****             if(id >= roller->option_cnt) id = roller->option_cnt - 1;
 2586              		.loc 1 686 27 view .LVU835
 2587 0140 0024     		movs	r4, #0
 2588              	.LVL320:
 686:Middlewares/lvgl/src/widgets/lv_roller.c ****             if(id >= roller->option_cnt) id = roller->option_cnt - 1;
 2589              		.loc 1 686 27 view .LVU836
 2590 0142 ECE7     		b	.L96
 2591              	.LVL321:
 2592              	.L104:
 686:Middlewares/lvgl/src/widgets/lv_roller.c ****             if(id >= roller->option_cnt) id = roller->option_cnt - 1;
 2593              		.loc 1 686 27 view .LVU837
 2594              	.LBE142:
 693:Middlewares/lvgl/src/widgets/lv_roller.c ****         }
 2595              		.loc 1 693 13 is_stmt 1 view .LVU838
 2596 0144 0122     		movs	r2, #1
 2597 0146 A1B2     		uxth	r1, r4
 2598 0148 2846     		mov	r0, r5
 2599 014a FFF7FEFF 		bl	lv_roller_set_selected
 2600              	.LVL322:
 2601 014e EDE7     		b	.L90
 2602              	.LVL323:
 2603              	.L98:
 693:Middlewares/lvgl/src/widgets/lv_roller.c ****         }
 2604              		.loc 1 693 13 is_stmt 0 view .LVU839
 2605              	.LBE145:
 633:Middlewares/lvgl/src/widgets/lv_roller.c **** 
 2606              		.loc 1 633 30 view .LVU840
 2607 0150 0120     		movs	r0, #1
 2608              	.LVL324:
 633:Middlewares/lvgl/src/widgets/lv_roller.c **** 
 2609              		.loc 1 633 30 view .LVU841
 2610 0152 F2E7     		b	.L86
 2611              	.L106:
 2612              		.align	2
 2613              	.L105:
 2614 0154 00000000 		.word	_lv_txt_encoded_next
 2615              		.cfi_endproc
 2616              	.LFE161:
 2618              		.section	.text.lv_roller_event,"ax",%progbits
 2619              		.align	1
 2620              		.syntax unified
 2621              		.thumb
 2622              		.thumb_func
 2623              		.fpu fpv4-sp-d16
 2625              	lv_roller_event:
 2626              	.LVL325:
 2627              	.LFB156:
 312:Middlewares/lvgl/src/widgets/lv_roller.c ****     LV_UNUSED(class_p);
 2628              		.loc 1 312 1 is_stmt 1 view -0
 2629              		.cfi_startproc
 2630              		@ args = 0, pretend = 0, frame = 8
 2631              		@ frame_needed = 0, uses_anonymous_args = 0
 312:Middlewares/lvgl/src/widgets/lv_roller.c ****     LV_UNUSED(class_p);
ARM GAS  /tmp/cc9MIr9f.s 			page 86


 2632              		.loc 1 312 1 is_stmt 0 view .LVU843
 2633 0000 70B5     		push	{r4, r5, r6, lr}
 2634              	.LCFI31:
 2635              		.cfi_def_cfa_offset 16
 2636              		.cfi_offset 4, -16
 2637              		.cfi_offset 5, -12
 2638              		.cfi_offset 6, -8
 2639              		.cfi_offset 14, -4
 2640 0002 82B0     		sub	sp, sp, #8
 2641              	.LCFI32:
 2642              		.cfi_def_cfa_offset 24
 2643 0004 0C46     		mov	r4, r1
 313:Middlewares/lvgl/src/widgets/lv_roller.c **** 
 2644              		.loc 1 313 5 is_stmt 1 view .LVU844
 315:Middlewares/lvgl/src/widgets/lv_roller.c **** 
 2645              		.loc 1 315 5 view .LVU845
 318:Middlewares/lvgl/src/widgets/lv_roller.c ****     if(res != LV_RES_OK) return;
 2646              		.loc 1 318 5 view .LVU846
 318:Middlewares/lvgl/src/widgets/lv_roller.c ****     if(res != LV_RES_OK) return;
 2647              		.loc 1 318 11 is_stmt 0 view .LVU847
 2648 0006 6148     		ldr	r0, .L138
 2649              	.LVL326:
 318:Middlewares/lvgl/src/widgets/lv_roller.c ****     if(res != LV_RES_OK) return;
 2650              		.loc 1 318 11 view .LVU848
 2651 0008 FFF7FEFF 		bl	lv_obj_event_base
 2652              	.LVL327:
 319:Middlewares/lvgl/src/widgets/lv_roller.c **** 
 2653              		.loc 1 319 5 is_stmt 1 view .LVU849
 319:Middlewares/lvgl/src/widgets/lv_roller.c **** 
 2654              		.loc 1 319 7 is_stmt 0 view .LVU850
 2655 000c 0128     		cmp	r0, #1
 2656 000e 01D0     		beq	.L126
 2657              	.LVL328:
 2658              	.L107:
 408:Middlewares/lvgl/src/widgets/lv_roller.c **** 
 2659              		.loc 1 408 1 view .LVU851
 2660 0010 02B0     		add	sp, sp, #8
 2661              	.LCFI33:
 2662              		.cfi_remember_state
 2663              		.cfi_def_cfa_offset 16
 2664              		@ sp needed
 2665 0012 70BD     		pop	{r4, r5, r6, pc}
 2666              	.LVL329:
 2667              	.L126:
 2668              	.LCFI34:
 2669              		.cfi_restore_state
 321:Middlewares/lvgl/src/widgets/lv_roller.c ****     lv_obj_t * obj = lv_event_get_target(e);
 2670              		.loc 1 321 5 is_stmt 1 view .LVU852
 321:Middlewares/lvgl/src/widgets/lv_roller.c ****     lv_obj_t * obj = lv_event_get_target(e);
 2671              		.loc 1 321 28 is_stmt 0 view .LVU853
 2672 0014 2046     		mov	r0, r4
 2673              	.LVL330:
 321:Middlewares/lvgl/src/widgets/lv_roller.c ****     lv_obj_t * obj = lv_event_get_target(e);
 2674              		.loc 1 321 28 view .LVU854
 2675 0016 FFF7FEFF 		bl	lv_event_get_code
 2676              	.LVL331:
 2677 001a 0546     		mov	r5, r0
ARM GAS  /tmp/cc9MIr9f.s 			page 87


 2678              	.LVL332:
 322:Middlewares/lvgl/src/widgets/lv_roller.c ****     lv_roller_t * roller = (lv_roller_t*)obj;
 2679              		.loc 1 322 5 is_stmt 1 view .LVU855
 322:Middlewares/lvgl/src/widgets/lv_roller.c ****     lv_roller_t * roller = (lv_roller_t*)obj;
 2680              		.loc 1 322 22 is_stmt 0 view .LVU856
 2681 001c 2046     		mov	r0, r4
 2682 001e FFF7FEFF 		bl	lv_event_get_target
 2683              	.LVL333:
 2684 0022 0646     		mov	r6, r0
 2685              	.LVL334:
 323:Middlewares/lvgl/src/widgets/lv_roller.c **** 
 2686              		.loc 1 323 5 is_stmt 1 view .LVU857
 325:Middlewares/lvgl/src/widgets/lv_roller.c ****         lv_point_t * p = lv_event_get_param(e);
 2687              		.loc 1 325 5 view .LVU858
 325:Middlewares/lvgl/src/widgets/lv_roller.c ****         lv_point_t * p = lv_event_get_param(e);
 2688              		.loc 1 325 7 is_stmt 0 view .LVU859
 2689 0024 262D     		cmp	r5, #38
 2690 0026 17D0     		beq	.L127
 329:Middlewares/lvgl/src/widgets/lv_roller.c ****         lv_obj_t * label = get_label(obj);
 2691              		.loc 1 329 10 is_stmt 1 view .LVU860
 329:Middlewares/lvgl/src/widgets/lv_roller.c ****         lv_obj_t * label = get_label(obj);
 2692              		.loc 1 329 12 is_stmt 0 view .LVU861
 2693 0028 242D     		cmp	r5, #36
 2694 002a 1ED0     		beq	.L128
 336:Middlewares/lvgl/src/widgets/lv_roller.c ****         refr_position(obj, false);
 2695              		.loc 1 336 10 is_stmt 1 view .LVU862
 336:Middlewares/lvgl/src/widgets/lv_roller.c ****         refr_position(obj, false);
 2696              		.loc 1 336 12 is_stmt 0 view .LVU863
 2697 002c 232D     		cmp	r5, #35
 2698 002e 2BD0     		beq	.L129
 339:Middlewares/lvgl/src/widgets/lv_roller.c ****         roller->moved = 0;
 2699              		.loc 1 339 10 is_stmt 1 view .LVU864
 339:Middlewares/lvgl/src/widgets/lv_roller.c ****         roller->moved = 0;
 2700              		.loc 1 339 12 is_stmt 0 view .LVU865
 2701 0030 012D     		cmp	r5, #1
 2702 0032 2DD0     		beq	.L130
 343:Middlewares/lvgl/src/widgets/lv_roller.c ****         lv_indev_t * indev = lv_indev_get_act();
 2703              		.loc 1 343 10 is_stmt 1 view .LVU866
 343:Middlewares/lvgl/src/widgets/lv_roller.c ****         lv_indev_t * indev = lv_indev_get_act();
 2704              		.loc 1 343 12 is_stmt 0 view .LVU867
 2705 0034 022D     		cmp	r5, #2
 2706 0036 37D0     		beq	.L131
 353:Middlewares/lvgl/src/widgets/lv_roller.c ****         release_handler(obj);
 2707              		.loc 1 353 10 is_stmt 1 view .LVU868
 353:Middlewares/lvgl/src/widgets/lv_roller.c ****         release_handler(obj);
 2708              		.loc 1 353 12 is_stmt 0 view .LVU869
 2709 0038 082D     		cmp	r5, #8
 2710 003a 53D0     		beq	.L132
 356:Middlewares/lvgl/src/widgets/lv_roller.c ****         lv_group_t * g             = lv_obj_get_group(obj);
 2711              		.loc 1 356 10 is_stmt 1 view .LVU870
 356:Middlewares/lvgl/src/widgets/lv_roller.c ****         lv_group_t * g             = lv_obj_get_group(obj);
 2712              		.loc 1 356 12 is_stmt 0 view .LVU871
 2713 003c 0E2D     		cmp	r5, #14
 2714 003e 54D0     		beq	.L133
 380:Middlewares/lvgl/src/widgets/lv_roller.c ****         /*Revert the original state*/
 2715              		.loc 1 380 10 is_stmt 1 view .LVU872
 380:Middlewares/lvgl/src/widgets/lv_roller.c ****         /*Revert the original state*/
ARM GAS  /tmp/cc9MIr9f.s 			page 88


 2716              		.loc 1 380 12 is_stmt 0 view .LVU873
 2717 0040 0F2D     		cmp	r5, #15
 2718 0042 6FD0     		beq	.L134
 387:Middlewares/lvgl/src/widgets/lv_roller.c ****         char c = *((char *)lv_event_get_param(e));
 2719              		.loc 1 387 10 is_stmt 1 view .LVU874
 387:Middlewares/lvgl/src/widgets/lv_roller.c ****         char c = *((char *)lv_event_get_param(e));
 2720              		.loc 1 387 12 is_stmt 0 view .LVU875
 2721 0044 0D2D     		cmp	r5, #13
 2722 0046 77D0     		beq	.L135
 405:Middlewares/lvgl/src/widgets/lv_roller.c ****         draw_main(e);
 2723              		.loc 1 405 10 is_stmt 1 view .LVU876
 405:Middlewares/lvgl/src/widgets/lv_roller.c ****         draw_main(e);
 2724              		.loc 1 405 12 is_stmt 0 view .LVU877
 2725 0048 152D     		cmp	r5, #21
 2726 004a 01D0     		beq	.L124
 405:Middlewares/lvgl/src/widgets/lv_roller.c ****         draw_main(e);
 2727              		.loc 1 405 40 discriminator 1 view .LVU878
 2728 004c 182D     		cmp	r5, #24
 2729 004e DFD1     		bne	.L107
 2730              	.L124:
 406:Middlewares/lvgl/src/widgets/lv_roller.c ****     }
 2731              		.loc 1 406 9 is_stmt 1 view .LVU879
 2732 0050 2046     		mov	r0, r4
 2733              	.LVL335:
 406:Middlewares/lvgl/src/widgets/lv_roller.c ****     }
 2734              		.loc 1 406 9 is_stmt 0 view .LVU880
 2735 0052 FFF7FEFF 		bl	draw_main
 2736              	.LVL336:
 2737 0056 DBE7     		b	.L107
 2738              	.LVL337:
 2739              	.L127:
 2740              	.LBB146:
 326:Middlewares/lvgl/src/widgets/lv_roller.c ****         p->x =  get_selected_label_width(obj);
 2741              		.loc 1 326 9 is_stmt 1 view .LVU881
 326:Middlewares/lvgl/src/widgets/lv_roller.c ****         p->x =  get_selected_label_width(obj);
 2742              		.loc 1 326 26 is_stmt 0 view .LVU882
 2743 0058 2046     		mov	r0, r4
 2744              	.LVL338:
 326:Middlewares/lvgl/src/widgets/lv_roller.c ****         p->x =  get_selected_label_width(obj);
 2745              		.loc 1 326 26 view .LVU883
 2746 005a FFF7FEFF 		bl	lv_event_get_param
 2747              	.LVL339:
 2748 005e 0446     		mov	r4, r0
 2749              	.LVL340:
 327:Middlewares/lvgl/src/widgets/lv_roller.c ****     }
 2750              		.loc 1 327 9 is_stmt 1 view .LVU884
 327:Middlewares/lvgl/src/widgets/lv_roller.c ****     }
 2751              		.loc 1 327 17 is_stmt 0 view .LVU885
 2752 0060 3046     		mov	r0, r6
 2753              	.LVL341:
 327:Middlewares/lvgl/src/widgets/lv_roller.c ****     }
 2754              		.loc 1 327 17 view .LVU886
 2755 0062 FFF7FEFF 		bl	get_selected_label_width
 2756              	.LVL342:
 327:Middlewares/lvgl/src/widgets/lv_roller.c ****     }
 2757              		.loc 1 327 14 view .LVU887
 2758 0066 2080     		strh	r0, [r4]	@ movhi
ARM GAS  /tmp/cc9MIr9f.s 			page 89


 2759              	.LBE146:
 2760 0068 D2E7     		b	.L107
 2761              	.LVL343:
 2762              	.L128:
 2763              	.LBB147:
 330:Middlewares/lvgl/src/widgets/lv_roller.c ****         /*Be sure the label's style is updated before processing the roller*/
 2764              		.loc 1 330 9 is_stmt 1 view .LVU888
 330:Middlewares/lvgl/src/widgets/lv_roller.c ****         /*Be sure the label's style is updated before processing the roller*/
 2765              		.loc 1 330 28 is_stmt 0 view .LVU889
 2766 006a FFF7FEFF 		bl	get_label
 2767              	.LVL344:
 332:Middlewares/lvgl/src/widgets/lv_roller.c ****         lv_obj_refresh_self_size(obj);
 2768              		.loc 1 332 9 is_stmt 1 view .LVU890
 332:Middlewares/lvgl/src/widgets/lv_roller.c ****         lv_obj_refresh_self_size(obj);
 2769              		.loc 1 332 11 is_stmt 0 view .LVU891
 2770 006e 18B1     		cbz	r0, .L111
 332:Middlewares/lvgl/src/widgets/lv_roller.c ****         lv_obj_refresh_self_size(obj);
 2771              		.loc 1 332 19 is_stmt 1 discriminator 1 view .LVU892
 2772 0070 0022     		movs	r2, #0
 2773 0072 2421     		movs	r1, #36
 2774 0074 FFF7FEFF 		bl	lv_event_send
 2775              	.LVL345:
 2776              	.L111:
 333:Middlewares/lvgl/src/widgets/lv_roller.c ****         refr_position(obj, false);
 2777              		.loc 1 333 9 view .LVU893
 2778 0078 3046     		mov	r0, r6
 2779 007a FFF7FEFF 		bl	lv_obj_refresh_self_size
 2780              	.LVL346:
 334:Middlewares/lvgl/src/widgets/lv_roller.c ****     }
 2781              		.loc 1 334 9 view .LVU894
 2782 007e 0021     		movs	r1, #0
 2783 0080 3046     		mov	r0, r6
 2784 0082 FFF7FEFF 		bl	refr_position
 2785              	.LVL347:
 2786              	.LBE147:
 2787 0086 C3E7     		b	.L107
 2788              	.LVL348:
 2789              	.L129:
 337:Middlewares/lvgl/src/widgets/lv_roller.c ****     }
 2790              		.loc 1 337 9 view .LVU895
 2791 0088 0021     		movs	r1, #0
 2792 008a FFF7FEFF 		bl	refr_position
 2793              	.LVL349:
 337:Middlewares/lvgl/src/widgets/lv_roller.c ****     }
 2794              		.loc 1 337 9 is_stmt 0 view .LVU896
 2795 008e BFE7     		b	.L107
 2796              	.LVL350:
 2797              	.L130:
 340:Middlewares/lvgl/src/widgets/lv_roller.c ****         lv_anim_del(get_label(obj), set_y_anim);
 2798              		.loc 1 340 9 is_stmt 1 view .LVU897
 340:Middlewares/lvgl/src/widgets/lv_roller.c ****         lv_anim_del(get_label(obj), set_y_anim);
 2799              		.loc 1 340 23 is_stmt 0 view .LVU898
 2800 0090 90F82A30 		ldrb	r3, [r0, #42]	@ zero_extendqisi2
 2801 0094 6FF34103 		bfc	r3, #1, #1
 2802 0098 80F82A30 		strb	r3, [r0, #42]
 341:Middlewares/lvgl/src/widgets/lv_roller.c ****     }
 2803              		.loc 1 341 9 is_stmt 1 view .LVU899
ARM GAS  /tmp/cc9MIr9f.s 			page 90


 341:Middlewares/lvgl/src/widgets/lv_roller.c ****     }
 2804              		.loc 1 341 21 is_stmt 0 view .LVU900
 2805 009c FFF7FEFF 		bl	get_label
 2806              	.LVL351:
 341:Middlewares/lvgl/src/widgets/lv_roller.c ****     }
 2807              		.loc 1 341 9 view .LVU901
 2808 00a0 3B49     		ldr	r1, .L138+4
 2809 00a2 FFF7FEFF 		bl	lv_anim_del
 2810              	.LVL352:
 2811 00a6 B3E7     		b	.L107
 2812              	.LVL353:
 2813              	.L131:
 2814              	.LBB148:
 344:Middlewares/lvgl/src/widgets/lv_roller.c ****         lv_point_t p;
 2815              		.loc 1 344 9 is_stmt 1 view .LVU902
 344:Middlewares/lvgl/src/widgets/lv_roller.c ****         lv_point_t p;
 2816              		.loc 1 344 30 is_stmt 0 view .LVU903
 2817 00a8 FFF7FEFF 		bl	lv_indev_get_act
 2818              	.LVL354:
 345:Middlewares/lvgl/src/widgets/lv_roller.c ****         lv_indev_get_vect(indev, &p);
 2819              		.loc 1 345 9 is_stmt 1 view .LVU904
 346:Middlewares/lvgl/src/widgets/lv_roller.c ****         if(p.y) {
 2820              		.loc 1 346 9 view .LVU905
 2821 00ac 01A9     		add	r1, sp, #4
 2822 00ae FFF7FEFF 		bl	lv_indev_get_vect
 2823              	.LVL355:
 347:Middlewares/lvgl/src/widgets/lv_roller.c ****             lv_obj_t * label = get_label(obj);
 2824              		.loc 1 347 9 view .LVU906
 347:Middlewares/lvgl/src/widgets/lv_roller.c ****             lv_obj_t * label = get_label(obj);
 2825              		.loc 1 347 13 is_stmt 0 view .LVU907
 2826 00b2 BDF90630 		ldrsh	r3, [sp, #6]
 347:Middlewares/lvgl/src/widgets/lv_roller.c ****             lv_obj_t * label = get_label(obj);
 2827              		.loc 1 347 11 view .LVU908
 2828 00b6 002B     		cmp	r3, #0
 2829 00b8 AAD0     		beq	.L107
 2830              	.LBB149:
 348:Middlewares/lvgl/src/widgets/lv_roller.c ****             lv_obj_set_y(label, lv_obj_get_y(label) + p.y);
 2831              		.loc 1 348 13 is_stmt 1 view .LVU909
 348:Middlewares/lvgl/src/widgets/lv_roller.c ****             lv_obj_set_y(label, lv_obj_get_y(label) + p.y);
 2832              		.loc 1 348 32 is_stmt 0 view .LVU910
 2833 00ba 3046     		mov	r0, r6
 2834 00bc FFF7FEFF 		bl	get_label
 2835              	.LVL356:
 2836 00c0 0446     		mov	r4, r0
 2837              	.LVL357:
 349:Middlewares/lvgl/src/widgets/lv_roller.c ****             roller->moved = 1;
 2838              		.loc 1 349 13 is_stmt 1 view .LVU911
 349:Middlewares/lvgl/src/widgets/lv_roller.c ****             roller->moved = 1;
 2839              		.loc 1 349 33 is_stmt 0 view .LVU912
 2840 00c2 FFF7FEFF 		bl	lv_obj_get_y
 2841              	.LVL358:
 349:Middlewares/lvgl/src/widgets/lv_roller.c ****             roller->moved = 1;
 2842              		.loc 1 349 56 view .LVU913
 2843 00c6 BDF80610 		ldrh	r1, [sp, #6]
 349:Middlewares/lvgl/src/widgets/lv_roller.c ****             roller->moved = 1;
 2844              		.loc 1 349 53 view .LVU914
 2845 00ca 11FA80F1 		uxtah	r1, r1, r0
ARM GAS  /tmp/cc9MIr9f.s 			page 91


 349:Middlewares/lvgl/src/widgets/lv_roller.c ****             roller->moved = 1;
 2846              		.loc 1 349 13 view .LVU915
 2847 00ce 09B2     		sxth	r1, r1
 2848 00d0 2046     		mov	r0, r4
 2849 00d2 FFF7FEFF 		bl	lv_obj_set_y
 2850              	.LVL359:
 350:Middlewares/lvgl/src/widgets/lv_roller.c ****         }
 2851              		.loc 1 350 13 is_stmt 1 view .LVU916
 350:Middlewares/lvgl/src/widgets/lv_roller.c ****         }
 2852              		.loc 1 350 27 is_stmt 0 view .LVU917
 2853 00d6 96F82A30 		ldrb	r3, [r6, #42]	@ zero_extendqisi2
 2854 00da 43F00203 		orr	r3, r3, #2
 2855 00de 86F82A30 		strb	r3, [r6, #42]
 2856 00e2 95E7     		b	.L107
 2857              	.LVL360:
 2858              	.L132:
 350:Middlewares/lvgl/src/widgets/lv_roller.c ****         }
 2859              		.loc 1 350 27 view .LVU918
 2860              	.LBE149:
 2861              	.LBE148:
 354:Middlewares/lvgl/src/widgets/lv_roller.c ****     }
 2862              		.loc 1 354 9 is_stmt 1 view .LVU919
 2863 00e4 FFF7FEFF 		bl	release_handler
 2864              	.LVL361:
 354:Middlewares/lvgl/src/widgets/lv_roller.c ****     }
 2865              		.loc 1 354 9 is_stmt 0 view .LVU920
 2866 00e8 92E7     		b	.L107
 2867              	.LVL362:
 2868              	.L133:
 2869              	.LBB150:
 357:Middlewares/lvgl/src/widgets/lv_roller.c ****         bool editing               = lv_group_get_editing(g);
 2870              		.loc 1 357 9 is_stmt 1 view .LVU921
 357:Middlewares/lvgl/src/widgets/lv_roller.c ****         bool editing               = lv_group_get_editing(g);
 2871              		.loc 1 357 38 is_stmt 0 view .LVU922
 2872 00ea FFF7FEFF 		bl	lv_obj_get_group
 2873              	.LVL363:
 358:Middlewares/lvgl/src/widgets/lv_roller.c ****         lv_indev_type_t indev_type = lv_indev_get_type(lv_indev_get_act());
 2874              		.loc 1 358 9 is_stmt 1 view .LVU923
 358:Middlewares/lvgl/src/widgets/lv_roller.c ****         lv_indev_type_t indev_type = lv_indev_get_type(lv_indev_get_act());
 2875              		.loc 1 358 38 is_stmt 0 view .LVU924
 2876 00ee FFF7FEFF 		bl	lv_group_get_editing
 2877              	.LVL364:
 358:Middlewares/lvgl/src/widgets/lv_roller.c ****         lv_indev_type_t indev_type = lv_indev_get_type(lv_indev_get_act());
 2878              		.loc 1 358 38 view .LVU925
 2879 00f2 0446     		mov	r4, r0
 2880              	.LVL365:
 359:Middlewares/lvgl/src/widgets/lv_roller.c **** 
 2881              		.loc 1 359 9 is_stmt 1 view .LVU926
 359:Middlewares/lvgl/src/widgets/lv_roller.c **** 
 2882              		.loc 1 359 56 is_stmt 0 view .LVU927
 2883 00f4 FFF7FEFF 		bl	lv_indev_get_act
 2884              	.LVL366:
 359:Middlewares/lvgl/src/widgets/lv_roller.c **** 
 2885              		.loc 1 359 38 view .LVU928
 2886 00f8 FFF7FEFF 		bl	lv_indev_get_type
 2887              	.LVL367:
 362:Middlewares/lvgl/src/widgets/lv_roller.c ****             /*In navigate mode revert the original value*/
ARM GAS  /tmp/cc9MIr9f.s 			page 92


 2888              		.loc 1 362 9 is_stmt 1 view .LVU929
 362:Middlewares/lvgl/src/widgets/lv_roller.c ****             /*In navigate mode revert the original value*/
 2889              		.loc 1 362 11 is_stmt 0 view .LVU930
 2890 00fc 0428     		cmp	r0, #4
 2891 00fe 02D0     		beq	.L136
 376:Middlewares/lvgl/src/widgets/lv_roller.c ****                                                                     ENTER won't be pressed*/
 2892              		.loc 1 376 13 is_stmt 1 view .LVU931
 376:Middlewares/lvgl/src/widgets/lv_roller.c ****                                                                     ENTER won't be pressed*/
 2893              		.loc 1 376 44 is_stmt 0 view .LVU932
 2894 0100 F38C     		ldrh	r3, [r6, #38]
 376:Middlewares/lvgl/src/widgets/lv_roller.c ****                                                                     ENTER won't be pressed*/
 2895              		.loc 1 376 36 view .LVU933
 2896 0102 3385     		strh	r3, [r6, #40]	@ movhi
 2897 0104 84E7     		b	.L107
 2898              	.L136:
 364:Middlewares/lvgl/src/widgets/lv_roller.c ****                 if(roller->sel_opt_id != roller->sel_opt_id_ori) {
 2899              		.loc 1 364 13 is_stmt 1 view .LVU934
 364:Middlewares/lvgl/src/widgets/lv_roller.c ****                 if(roller->sel_opt_id != roller->sel_opt_id_ori) {
 2900              		.loc 1 364 15 is_stmt 0 view .LVU935
 2901 0106 54B9     		cbnz	r4, .L119
 365:Middlewares/lvgl/src/widgets/lv_roller.c ****                     roller->sel_opt_id = roller->sel_opt_id_ori;
 2902              		.loc 1 365 17 is_stmt 1 view .LVU936
 365:Middlewares/lvgl/src/widgets/lv_roller.c ****                     roller->sel_opt_id = roller->sel_opt_id_ori;
 2903              		.loc 1 365 26 is_stmt 0 view .LVU937
 2904 0108 F28C     		ldrh	r2, [r6, #38]
 365:Middlewares/lvgl/src/widgets/lv_roller.c ****                     roller->sel_opt_id = roller->sel_opt_id_ori;
 2905              		.loc 1 365 48 view .LVU938
 2906 010a 338D     		ldrh	r3, [r6, #40]
 365:Middlewares/lvgl/src/widgets/lv_roller.c ****                     roller->sel_opt_id = roller->sel_opt_id_ori;
 2907              		.loc 1 365 19 view .LVU939
 2908 010c 9A42     		cmp	r2, r3
 2909 010e 3FF47FAF 		beq	.L107
 366:Middlewares/lvgl/src/widgets/lv_roller.c ****                     refr_position(obj, true);
 2910              		.loc 1 366 21 is_stmt 1 view .LVU940
 366:Middlewares/lvgl/src/widgets/lv_roller.c ****                     refr_position(obj, true);
 2911              		.loc 1 366 40 is_stmt 0 view .LVU941
 2912 0112 F384     		strh	r3, [r6, #38]	@ movhi
 367:Middlewares/lvgl/src/widgets/lv_roller.c ****                 }
 2913              		.loc 1 367 21 is_stmt 1 view .LVU942
 2914 0114 0121     		movs	r1, #1
 2915 0116 3046     		mov	r0, r6
 2916              	.LVL368:
 367:Middlewares/lvgl/src/widgets/lv_roller.c ****                 }
 2917              		.loc 1 367 21 is_stmt 0 view .LVU943
 2918 0118 FFF7FEFF 		bl	refr_position
 2919              	.LVL369:
 2920 011c 78E7     		b	.L107
 2921              	.LVL370:
 2922              	.L119:
 372:Middlewares/lvgl/src/widgets/lv_roller.c ****             }
 2923              		.loc 1 372 17 is_stmt 1 view .LVU944
 372:Middlewares/lvgl/src/widgets/lv_roller.c ****             }
 2924              		.loc 1 372 48 is_stmt 0 view .LVU945
 2925 011e F38C     		ldrh	r3, [r6, #38]
 372:Middlewares/lvgl/src/widgets/lv_roller.c ****             }
 2926              		.loc 1 372 40 view .LVU946
 2927 0120 3385     		strh	r3, [r6, #40]	@ movhi
ARM GAS  /tmp/cc9MIr9f.s 			page 93


 2928 0122 75E7     		b	.L107
 2929              	.LVL371:
 2930              	.L134:
 372:Middlewares/lvgl/src/widgets/lv_roller.c ****             }
 2931              		.loc 1 372 40 view .LVU947
 2932              	.LBE150:
 382:Middlewares/lvgl/src/widgets/lv_roller.c ****             roller->sel_opt_id = roller->sel_opt_id_ori;
 2933              		.loc 1 382 9 is_stmt 1 view .LVU948
 382:Middlewares/lvgl/src/widgets/lv_roller.c ****             roller->sel_opt_id = roller->sel_opt_id_ori;
 2934              		.loc 1 382 18 is_stmt 0 view .LVU949
 2935 0124 C28C     		ldrh	r2, [r0, #38]
 382:Middlewares/lvgl/src/widgets/lv_roller.c ****             roller->sel_opt_id = roller->sel_opt_id_ori;
 2936              		.loc 1 382 40 view .LVU950
 2937 0126 038D     		ldrh	r3, [r0, #40]
 382:Middlewares/lvgl/src/widgets/lv_roller.c ****             roller->sel_opt_id = roller->sel_opt_id_ori;
 2938              		.loc 1 382 11 view .LVU951
 2939 0128 9A42     		cmp	r2, r3
 2940 012a 3FF471AF 		beq	.L107
 383:Middlewares/lvgl/src/widgets/lv_roller.c ****             refr_position(obj, true);
 2941              		.loc 1 383 13 is_stmt 1 view .LVU952
 383:Middlewares/lvgl/src/widgets/lv_roller.c ****             refr_position(obj, true);
 2942              		.loc 1 383 32 is_stmt 0 view .LVU953
 2943 012e C384     		strh	r3, [r0, #38]	@ movhi
 384:Middlewares/lvgl/src/widgets/lv_roller.c ****         }
 2944              		.loc 1 384 13 is_stmt 1 view .LVU954
 2945 0130 0121     		movs	r1, #1
 2946 0132 FFF7FEFF 		bl	refr_position
 2947              	.LVL372:
 384:Middlewares/lvgl/src/widgets/lv_roller.c ****         }
 2948              		.loc 1 384 13 is_stmt 0 view .LVU955
 2949 0136 6BE7     		b	.L107
 2950              	.LVL373:
 2951              	.L135:
 2952              	.LBB151:
 388:Middlewares/lvgl/src/widgets/lv_roller.c ****         if(c == LV_KEY_RIGHT || c == LV_KEY_DOWN) {
 2953              		.loc 1 388 9 is_stmt 1 view .LVU956
 388:Middlewares/lvgl/src/widgets/lv_roller.c ****         if(c == LV_KEY_RIGHT || c == LV_KEY_DOWN) {
 2954              		.loc 1 388 28 is_stmt 0 view .LVU957
 2955 0138 2046     		mov	r0, r4
 2956              	.LVL374:
 388:Middlewares/lvgl/src/widgets/lv_roller.c ****         if(c == LV_KEY_RIGHT || c == LV_KEY_DOWN) {
 2957              		.loc 1 388 28 view .LVU958
 2958 013a FFF7FEFF 		bl	lv_event_get_param
 2959              	.LVL375:
 388:Middlewares/lvgl/src/widgets/lv_roller.c ****         if(c == LV_KEY_RIGHT || c == LV_KEY_DOWN) {
 2960              		.loc 1 388 14 view .LVU959
 2961 013e 0278     		ldrb	r2, [r0]	@ zero_extendqisi2
 2962              	.LVL376:
 389:Middlewares/lvgl/src/widgets/lv_roller.c ****             if(roller->sel_opt_id + 1 < roller->option_cnt) {
 2963              		.loc 1 389 9 is_stmt 1 view .LVU960
 389:Middlewares/lvgl/src/widgets/lv_roller.c ****             if(roller->sel_opt_id + 1 < roller->option_cnt) {
 2964              		.loc 1 389 30 is_stmt 0 view .LVU961
 2965 0140 A2F11203 		sub	r3, r2, #18
 2966 0144 DBB2     		uxtb	r3, r3
 389:Middlewares/lvgl/src/widgets/lv_roller.c ****             if(roller->sel_opt_id + 1 < roller->option_cnt) {
 2967              		.loc 1 389 11 view .LVU962
 2968 0146 012B     		cmp	r3, #1
ARM GAS  /tmp/cc9MIr9f.s 			page 94


 2969 0148 11D9     		bls	.L137
 396:Middlewares/lvgl/src/widgets/lv_roller.c ****             if(roller->sel_opt_id > 0) {
 2970              		.loc 1 396 14 is_stmt 1 view .LVU963
 396:Middlewares/lvgl/src/widgets/lv_roller.c ****             if(roller->sel_opt_id > 0) {
 2971              		.loc 1 396 16 is_stmt 0 view .LVU964
 2972 014a 142A     		cmp	r2, #20
 2973 014c 02D0     		beq	.L123
 396:Middlewares/lvgl/src/widgets/lv_roller.c ****             if(roller->sel_opt_id > 0) {
 2974              		.loc 1 396 34 discriminator 1 view .LVU965
 2975 014e 112A     		cmp	r2, #17
 2976 0150 7FF45EAF 		bne	.L107
 2977              	.L123:
 397:Middlewares/lvgl/src/widgets/lv_roller.c ****                 uint16_t ori_id = roller->sel_opt_id_ori; /*lv_roller_set_selected will overwrite t
 2978              		.loc 1 397 13 is_stmt 1 view .LVU966
 397:Middlewares/lvgl/src/widgets/lv_roller.c ****                 uint16_t ori_id = roller->sel_opt_id_ori; /*lv_roller_set_selected will overwrite t
 2979              		.loc 1 397 22 is_stmt 0 view .LVU967
 2980 0154 F38C     		ldrh	r3, [r6, #38]
 397:Middlewares/lvgl/src/widgets/lv_roller.c ****                 uint16_t ori_id = roller->sel_opt_id_ori; /*lv_roller_set_selected will overwrite t
 2981              		.loc 1 397 15 view .LVU968
 2982 0156 002B     		cmp	r3, #0
 2983 0158 3FF45AAF 		beq	.L107
 2984              	.LBB152:
 398:Middlewares/lvgl/src/widgets/lv_roller.c **** 
 2985              		.loc 1 398 17 is_stmt 1 view .LVU969
 398:Middlewares/lvgl/src/widgets/lv_roller.c **** 
 2986              		.loc 1 398 26 is_stmt 0 view .LVU970
 2987 015c 348D     		ldrh	r4, [r6, #40]
 2988              	.LVL377:
 400:Middlewares/lvgl/src/widgets/lv_roller.c ****                 roller->sel_opt_id_ori = ori_id;
 2989              		.loc 1 400 17 is_stmt 1 view .LVU971
 2990 015e 013B     		subs	r3, r3, #1
 2991 0160 0122     		movs	r2, #1
 2992              	.LVL378:
 400:Middlewares/lvgl/src/widgets/lv_roller.c ****                 roller->sel_opt_id_ori = ori_id;
 2993              		.loc 1 400 17 is_stmt 0 view .LVU972
 2994 0162 99B2     		uxth	r1, r3
 2995 0164 3046     		mov	r0, r6
 2996              	.LVL379:
 400:Middlewares/lvgl/src/widgets/lv_roller.c ****                 roller->sel_opt_id_ori = ori_id;
 2997              		.loc 1 400 17 view .LVU973
 2998 0166 FFF7FEFF 		bl	lv_roller_set_selected
 2999              	.LVL380:
 401:Middlewares/lvgl/src/widgets/lv_roller.c ****             }
 3000              		.loc 1 401 17 is_stmt 1 view .LVU974
 401:Middlewares/lvgl/src/widgets/lv_roller.c ****             }
 3001              		.loc 1 401 40 is_stmt 0 view .LVU975
 3002 016a 3485     		strh	r4, [r6, #40]	@ movhi
 3003 016c 50E7     		b	.L107
 3004              	.LVL381:
 3005              	.L137:
 401:Middlewares/lvgl/src/widgets/lv_roller.c ****             }
 3006              		.loc 1 401 40 view .LVU976
 3007              	.LBE152:
 390:Middlewares/lvgl/src/widgets/lv_roller.c ****                 uint16_t ori_id = roller->sel_opt_id_ori; /*lv_roller_set_selected will overwrite t
 3008              		.loc 1 390 13 is_stmt 1 view .LVU977
 390:Middlewares/lvgl/src/widgets/lv_roller.c ****                 uint16_t ori_id = roller->sel_opt_id_ori; /*lv_roller_set_selected will overwrite t
 3009              		.loc 1 390 22 is_stmt 0 view .LVU978
ARM GAS  /tmp/cc9MIr9f.s 			page 95


 3010 016e F38C     		ldrh	r3, [r6, #38]
 390:Middlewares/lvgl/src/widgets/lv_roller.c ****                 uint16_t ori_id = roller->sel_opt_id_ori; /*lv_roller_set_selected will overwrite t
 3011              		.loc 1 390 35 view .LVU979
 3012 0170 591C     		adds	r1, r3, #1
 390:Middlewares/lvgl/src/widgets/lv_roller.c ****                 uint16_t ori_id = roller->sel_opt_id_ori; /*lv_roller_set_selected will overwrite t
 3013              		.loc 1 390 47 view .LVU980
 3014 0172 B28C     		ldrh	r2, [r6, #36]
 3015              	.LVL382:
 390:Middlewares/lvgl/src/widgets/lv_roller.c ****                 uint16_t ori_id = roller->sel_opt_id_ori; /*lv_roller_set_selected will overwrite t
 3016              		.loc 1 390 15 view .LVU981
 3017 0174 9142     		cmp	r1, r2
 3018 0176 BFF64BAF 		bge	.L107
 3019              	.LBB153:
 391:Middlewares/lvgl/src/widgets/lv_roller.c ****                 lv_roller_set_selected(obj, roller->sel_opt_id + 1, true);
 3020              		.loc 1 391 17 is_stmt 1 view .LVU982
 391:Middlewares/lvgl/src/widgets/lv_roller.c ****                 lv_roller_set_selected(obj, roller->sel_opt_id + 1, true);
 3021              		.loc 1 391 26 is_stmt 0 view .LVU983
 3022 017a 348D     		ldrh	r4, [r6, #40]
 3023              	.LVL383:
 392:Middlewares/lvgl/src/widgets/lv_roller.c ****                 roller->sel_opt_id_ori = ori_id;
 3024              		.loc 1 392 17 is_stmt 1 view .LVU984
 3025 017c 0122     		movs	r2, #1
 3026 017e 89B2     		uxth	r1, r1
 3027 0180 3046     		mov	r0, r6
 3028              	.LVL384:
 392:Middlewares/lvgl/src/widgets/lv_roller.c ****                 roller->sel_opt_id_ori = ori_id;
 3029              		.loc 1 392 17 is_stmt 0 view .LVU985
 3030 0182 FFF7FEFF 		bl	lv_roller_set_selected
 3031              	.LVL385:
 393:Middlewares/lvgl/src/widgets/lv_roller.c ****             }
 3032              		.loc 1 393 17 is_stmt 1 view .LVU986
 393:Middlewares/lvgl/src/widgets/lv_roller.c ****             }
 3033              		.loc 1 393 40 is_stmt 0 view .LVU987
 3034 0186 3485     		strh	r4, [r6, #40]	@ movhi
 3035 0188 42E7     		b	.L107
 3036              	.L139:
 3037 018a 00BF     		.align	2
 3038              	.L138:
 3039 018c 00000000 		.word	.LANCHOR1
 3040 0190 00000000 		.word	set_y_anim
 3041              	.LBE153:
 3042              	.LBE151:
 3043              		.cfi_endproc
 3044              	.LFE156:
 3046              		.section	.text.lv_roller_set_visible_row_count,"ax",%progbits
 3047              		.align	1
 3048              		.global	lv_roller_set_visible_row_count
 3049              		.syntax unified
 3050              		.thumb
 3051              		.thumb_func
 3052              		.fpu fpv4-sp-d16
 3054              	lv_roller_set_visible_row_count:
 3055              	.LVL386:
 3056              	.LFB150:
 188:Middlewares/lvgl/src/widgets/lv_roller.c ****     LV_ASSERT_OBJ(obj, MY_CLASS);
 3057              		.loc 1 188 1 is_stmt 1 view -0
 3058              		.cfi_startproc
ARM GAS  /tmp/cc9MIr9f.s 			page 96


 3059              		@ args = 0, pretend = 0, frame = 0
 3060              		@ frame_needed = 0, uses_anonymous_args = 0
 188:Middlewares/lvgl/src/widgets/lv_roller.c ****     LV_ASSERT_OBJ(obj, MY_CLASS);
 3061              		.loc 1 188 1 is_stmt 0 view .LVU989
 3062 0000 F8B5     		push	{r3, r4, r5, r6, r7, lr}
 3063              	.LCFI35:
 3064              		.cfi_def_cfa_offset 24
 3065              		.cfi_offset 3, -24
 3066              		.cfi_offset 4, -20
 3067              		.cfi_offset 5, -16
 3068              		.cfi_offset 6, -12
 3069              		.cfi_offset 7, -8
 3070              		.cfi_offset 14, -4
 3071 0002 0546     		mov	r5, r0
 3072 0004 0E46     		mov	r6, r1
 189:Middlewares/lvgl/src/widgets/lv_roller.c **** 
 3073              		.loc 1 189 5 is_stmt 1 view .LVU990
 189:Middlewares/lvgl/src/widgets/lv_roller.c **** 
 3074              		.loc 1 189 5 view .LVU991
 189:Middlewares/lvgl/src/widgets/lv_roller.c **** 
 3075              		.loc 1 189 5 view .LVU992
 191:Middlewares/lvgl/src/widgets/lv_roller.c ****     lv_coord_t line_space = lv_obj_get_style_text_line_space(obj, LV_PART_MAIN);
 3076              		.loc 1 191 5 view .LVU993
 3077              	.LVL387:
 3078              	.LBB154:
 3079              	.LBI154:
 331:Middlewares/lvgl/src/widgets/../core/lv_obj_style_gen.h **** {
 3080              		.loc 2 331 33 view .LVU994
 3081              	.LBB155:
 333:Middlewares/lvgl/src/widgets/../core/lv_obj_style_gen.h ****     return (const lv_font_t *)v.ptr;
 3082              		.loc 2 333 5 view .LVU995
 333:Middlewares/lvgl/src/widgets/../core/lv_obj_style_gen.h ****     return (const lv_font_t *)v.ptr;
 3083              		.loc 2 333 26 is_stmt 0 view .LVU996
 3084 0006 41F25942 		movw	r2, #5209
 3085 000a 0021     		movs	r1, #0
 3086              	.LVL388:
 333:Middlewares/lvgl/src/widgets/../core/lv_obj_style_gen.h ****     return (const lv_font_t *)v.ptr;
 3087              		.loc 2 333 26 view .LVU997
 3088 000c FFF7FEFF 		bl	lv_obj_get_style_prop
 3089              	.LVL389:
 333:Middlewares/lvgl/src/widgets/../core/lv_obj_style_gen.h ****     return (const lv_font_t *)v.ptr;
 3090              		.loc 2 333 26 view .LVU998
 3091 0010 0746     		mov	r7, r0
 3092              	.LVL390:
 334:Middlewares/lvgl/src/widgets/../core/lv_obj_style_gen.h **** }
 3093              		.loc 2 334 5 is_stmt 1 view .LVU999
 334:Middlewares/lvgl/src/widgets/../core/lv_obj_style_gen.h **** }
 3094              		.loc 2 334 5 is_stmt 0 view .LVU1000
 3095              	.LBE155:
 3096              	.LBE154:
 192:Middlewares/lvgl/src/widgets/lv_roller.c ****     lv_coord_t border_width = lv_obj_get_style_border_width(obj, LV_PART_MAIN);
 3097              		.loc 1 192 5 is_stmt 1 view .LVU1001
 3098              	.LBB156:
 3099              	.LBI156:
 343:Middlewares/lvgl/src/widgets/../core/lv_obj_style_gen.h **** {
 3100              		.loc 2 343 26 view .LVU1002
 3101              	.LBB157:
ARM GAS  /tmp/cc9MIr9f.s 			page 97


 345:Middlewares/lvgl/src/widgets/../core/lv_obj_style_gen.h ****     return (lv_coord_t)v.num;
 3102              		.loc 2 345 5 view .LVU1003
 345:Middlewares/lvgl/src/widgets/../core/lv_obj_style_gen.h ****     return (lv_coord_t)v.num;
 3103              		.loc 2 345 26 is_stmt 0 view .LVU1004
 3104 0012 41F25B42 		movw	r2, #5211
 3105 0016 0021     		movs	r1, #0
 3106 0018 2846     		mov	r0, r5
 3107              	.LVL391:
 345:Middlewares/lvgl/src/widgets/../core/lv_obj_style_gen.h ****     return (lv_coord_t)v.num;
 3108              		.loc 2 345 26 view .LVU1005
 3109 001a FFF7FEFF 		bl	lv_obj_get_style_prop
 3110              	.LVL392:
 346:Middlewares/lvgl/src/widgets/../core/lv_obj_style_gen.h **** }
 3111              		.loc 2 346 5 is_stmt 1 view .LVU1006
 346:Middlewares/lvgl/src/widgets/../core/lv_obj_style_gen.h **** }
 3112              		.loc 2 346 12 is_stmt 0 view .LVU1007
 3113 001e 04B2     		sxth	r4, r0
 3114              	.LVL393:
 346:Middlewares/lvgl/src/widgets/../core/lv_obj_style_gen.h **** }
 3115              		.loc 2 346 12 view .LVU1008
 3116              	.LBE157:
 3117              	.LBE156:
 193:Middlewares/lvgl/src/widgets/lv_roller.c ****     lv_obj_set_height(obj, (lv_font_get_line_height(font) + line_space) * row_cnt + 2 * border_widt
 3118              		.loc 1 193 5 is_stmt 1 view .LVU1009
 3119              	.LBB158:
 3120              	.LBI158:
 295:Middlewares/lvgl/src/widgets/../core/lv_obj_style_gen.h **** {
 3121              		.loc 2 295 26 view .LVU1010
 3122              	.LBB159:
 297:Middlewares/lvgl/src/widgets/../core/lv_obj_style_gen.h ****     return (lv_coord_t)v.num;
 3123              		.loc 2 297 5 view .LVU1011
 297:Middlewares/lvgl/src/widgets/../core/lv_obj_style_gen.h ****     return (lv_coord_t)v.num;
 3124              		.loc 2 297 26 is_stmt 0 view .LVU1012
 3125 0020 41F23202 		movw	r2, #4146
 3126 0024 0021     		movs	r1, #0
 3127 0026 2846     		mov	r0, r5
 3128 0028 FFF7FEFF 		bl	lv_obj_get_style_prop
 3129              	.LVL394:
 298:Middlewares/lvgl/src/widgets/../core/lv_obj_style_gen.h **** }
 3130              		.loc 2 298 5 is_stmt 1 view .LVU1013
 298:Middlewares/lvgl/src/widgets/../core/lv_obj_style_gen.h **** }
 3131              		.loc 2 298 5 is_stmt 0 view .LVU1014
 3132              	.LBE159:
 3133              	.LBE158:
 194:Middlewares/lvgl/src/widgets/lv_roller.c **** }
 3134              		.loc 1 194 5 is_stmt 1 view .LVU1015
 3135              	.LBB160:
 3136              	.LBI160:
 118:Middlewares/lvgl/src/widgets/../core/../misc/../font/lv_font.h **** {
 3137              		.loc 3 118 26 view .LVU1016
 3138              	.LBB161:
 3139              		.loc 3 120 5 view .LVU1017
 3140              		.loc 3 120 18 is_stmt 0 view .LVU1018
 3141 002c B7F90810 		ldrsh	r1, [r7, #8]
 3142              	.LVL395:
 3143              		.loc 3 120 18 view .LVU1019
 3144              	.LBE161:
ARM GAS  /tmp/cc9MIr9f.s 			page 98


 3145              	.LBE160:
 194:Middlewares/lvgl/src/widgets/lv_roller.c **** }
 3146              		.loc 1 194 59 view .LVU1020
 3147 0030 0C44     		add	r4, r4, r1
 3148              	.LVL396:
 194:Middlewares/lvgl/src/widgets/lv_roller.c **** }
 3149              		.loc 1 194 87 view .LVU1021
 3150 0032 4300     		lsls	r3, r0, #1
 3151 0034 9BB2     		uxth	r3, r3
 194:Middlewares/lvgl/src/widgets/lv_roller.c **** }
 3152              		.loc 1 194 83 view .LVU1022
 3153 0036 14FB06F4 		smulbb	r4, r4, r6
 3154 003a 1919     		adds	r1, r3, r4
 194:Middlewares/lvgl/src/widgets/lv_roller.c **** }
 3155              		.loc 1 194 5 view .LVU1023
 3156 003c 09B2     		sxth	r1, r1
 3157 003e 2846     		mov	r0, r5
 3158              	.LVL397:
 194:Middlewares/lvgl/src/widgets/lv_roller.c **** }
 3159              		.loc 1 194 5 view .LVU1024
 3160 0040 FFF7FEFF 		bl	lv_obj_set_height
 3161              	.LVL398:
 195:Middlewares/lvgl/src/widgets/lv_roller.c **** 
 3162              		.loc 1 195 1 view .LVU1025
 3163 0044 F8BD     		pop	{r3, r4, r5, r6, r7, pc}
 195:Middlewares/lvgl/src/widgets/lv_roller.c **** 
 3164              		.loc 1 195 1 view .LVU1026
 3165              		.cfi_endproc
 3166              	.LFE150:
 3168              		.section	.text.lv_roller_get_selected,"ax",%progbits
 3169              		.align	1
 3170              		.global	lv_roller_get_selected
 3171              		.syntax unified
 3172              		.thumb
 3173              		.thumb_func
 3174              		.fpu fpv4-sp-d16
 3176              	lv_roller_get_selected:
 3177              	.LVL399:
 3178              	.LFB151:
 207:Middlewares/lvgl/src/widgets/lv_roller.c ****     LV_ASSERT_OBJ(obj, MY_CLASS);
 3179              		.loc 1 207 1 is_stmt 1 view -0
 3180              		.cfi_startproc
 3181              		@ args = 0, pretend = 0, frame = 0
 3182              		@ frame_needed = 0, uses_anonymous_args = 0
 3183              		@ link register save eliminated.
 208:Middlewares/lvgl/src/widgets/lv_roller.c **** 
 3184              		.loc 1 208 5 view .LVU1028
 208:Middlewares/lvgl/src/widgets/lv_roller.c **** 
 3185              		.loc 1 208 5 view .LVU1029
 208:Middlewares/lvgl/src/widgets/lv_roller.c **** 
 3186              		.loc 1 208 5 view .LVU1030
 210:Middlewares/lvgl/src/widgets/lv_roller.c ****     if(roller->mode == LV_ROLLER_MODE_INFINITE) {
 3187              		.loc 1 210 5 view .LVU1031
 211:Middlewares/lvgl/src/widgets/lv_roller.c ****         uint16_t real_id_cnt = roller->option_cnt / LV_ROLLER_INF_PAGES;
 3188              		.loc 1 211 5 view .LVU1032
 211:Middlewares/lvgl/src/widgets/lv_roller.c ****         uint16_t real_id_cnt = roller->option_cnt / LV_ROLLER_INF_PAGES;
 3189              		.loc 1 211 21 is_stmt 0 view .LVU1033
ARM GAS  /tmp/cc9MIr9f.s 			page 99


 3190 0000 90F82A30 		ldrb	r3, [r0, #42]	@ zero_extendqisi2
 211:Middlewares/lvgl/src/widgets/lv_roller.c ****         uint16_t real_id_cnt = roller->option_cnt / LV_ROLLER_INF_PAGES;
 3191              		.loc 1 211 7 view .LVU1034
 3192 0004 13F0010F 		tst	r3, #1
 3193 0008 0FD0     		beq	.L143
 3194              	.LBB162:
 212:Middlewares/lvgl/src/widgets/lv_roller.c ****         return roller->sel_opt_id % real_id_cnt;
 3195              		.loc 1 212 9 is_stmt 1 view .LVU1035
 212:Middlewares/lvgl/src/widgets/lv_roller.c ****         return roller->sel_opt_id % real_id_cnt;
 3196              		.loc 1 212 38 is_stmt 0 view .LVU1036
 3197 000a 828C     		ldrh	r2, [r0, #36]
 212:Middlewares/lvgl/src/widgets/lv_roller.c ****         return roller->sel_opt_id % real_id_cnt;
 3198              		.loc 1 212 18 view .LVU1037
 3199 000c 084B     		ldr	r3, .L145
 3200 000e A3FB0213 		umull	r1, r3, r3, r2
 3201 0012 D21A     		subs	r2, r2, r3
 3202 0014 03EB5203 		add	r3, r3, r2, lsr #1
 3203 0018 C3F38F03 		ubfx	r3, r3, #2, #16
 3204              	.LVL400:
 213:Middlewares/lvgl/src/widgets/lv_roller.c ****     }
 3205              		.loc 1 213 9 is_stmt 1 view .LVU1038
 213:Middlewares/lvgl/src/widgets/lv_roller.c ****     }
 3206              		.loc 1 213 22 is_stmt 0 view .LVU1039
 3207 001c C08C     		ldrh	r0, [r0, #38]
 3208              	.LVL401:
 213:Middlewares/lvgl/src/widgets/lv_roller.c ****     }
 3209              		.loc 1 213 35 view .LVU1040
 3210 001e B0FBF3F2 		udiv	r2, r0, r3
 3211 0022 03FB1200 		mls	r0, r3, r2, r0
 3212 0026 80B2     		uxth	r0, r0
 3213 0028 7047     		bx	lr
 3214              	.LVL402:
 3215              	.L143:
 213:Middlewares/lvgl/src/widgets/lv_roller.c ****     }
 3216              		.loc 1 213 35 view .LVU1041
 3217              	.LBE162:
 216:Middlewares/lvgl/src/widgets/lv_roller.c ****     }
 3218              		.loc 1 216 9 is_stmt 1 view .LVU1042
 216:Middlewares/lvgl/src/widgets/lv_roller.c ****     }
 3219              		.loc 1 216 22 is_stmt 0 view .LVU1043
 3220 002a C08C     		ldrh	r0, [r0, #38]
 3221              	.LVL403:
 218:Middlewares/lvgl/src/widgets/lv_roller.c **** 
 3222              		.loc 1 218 1 view .LVU1044
 3223 002c 7047     		bx	lr
 3224              	.L146:
 3225 002e 00BF     		.align	2
 3226              	.L145:
 3227 0030 25499224 		.word	613566757
 3228              		.cfi_endproc
 3229              	.LFE151:
 3231              		.section	.text.lv_roller_get_selected_str,"ax",%progbits
 3232              		.align	1
 3233              		.global	lv_roller_get_selected_str
 3234              		.syntax unified
 3235              		.thumb
 3236              		.thumb_func
ARM GAS  /tmp/cc9MIr9f.s 			page 100


 3237              		.fpu fpv4-sp-d16
 3239              	lv_roller_get_selected_str:
 3240              	.LVL404:
 3241              	.LFB152:
 227:Middlewares/lvgl/src/widgets/lv_roller.c ****     LV_ASSERT_OBJ(obj, MY_CLASS);
 3242              		.loc 1 227 1 is_stmt 1 view -0
 3243              		.cfi_startproc
 3244              		@ args = 0, pretend = 0, frame = 0
 3245              		@ frame_needed = 0, uses_anonymous_args = 0
 227:Middlewares/lvgl/src/widgets/lv_roller.c ****     LV_ASSERT_OBJ(obj, MY_CLASS);
 3246              		.loc 1 227 1 is_stmt 0 view .LVU1046
 3247 0000 F8B5     		push	{r3, r4, r5, r6, r7, lr}
 3248              	.LCFI36:
 3249              		.cfi_def_cfa_offset 24
 3250              		.cfi_offset 3, -24
 3251              		.cfi_offset 4, -20
 3252              		.cfi_offset 5, -16
 3253              		.cfi_offset 6, -12
 3254              		.cfi_offset 7, -8
 3255              		.cfi_offset 14, -4
 3256 0002 0746     		mov	r7, r0
 3257 0004 0E46     		mov	r6, r1
 3258 0006 1546     		mov	r5, r2
 228:Middlewares/lvgl/src/widgets/lv_roller.c **** 
 3259              		.loc 1 228 5 is_stmt 1 view .LVU1047
 228:Middlewares/lvgl/src/widgets/lv_roller.c **** 
 3260              		.loc 1 228 5 view .LVU1048
 228:Middlewares/lvgl/src/widgets/lv_roller.c **** 
 3261              		.loc 1 228 5 view .LVU1049
 230:Middlewares/lvgl/src/widgets/lv_roller.c ****     lv_obj_t * label = get_label(obj);
 3262              		.loc 1 230 5 view .LVU1050
 3263              	.LVL405:
 231:Middlewares/lvgl/src/widgets/lv_roller.c ****     uint32_t i;
 3264              		.loc 1 231 5 view .LVU1051
 231:Middlewares/lvgl/src/widgets/lv_roller.c ****     uint32_t i;
 3265              		.loc 1 231 24 is_stmt 0 view .LVU1052
 3266 0008 FFF7FEFF 		bl	get_label
 3267              	.LVL406:
 232:Middlewares/lvgl/src/widgets/lv_roller.c ****     uint16_t line        = 0;
 3268              		.loc 1 232 5 is_stmt 1 view .LVU1053
 233:Middlewares/lvgl/src/widgets/lv_roller.c ****     const char * opt_txt = lv_label_get_text(label);
 3269              		.loc 1 233 5 view .LVU1054
 234:Middlewares/lvgl/src/widgets/lv_roller.c ****     size_t txt_len     = strlen(opt_txt);
 3270              		.loc 1 234 5 view .LVU1055
 234:Middlewares/lvgl/src/widgets/lv_roller.c ****     size_t txt_len     = strlen(opt_txt);
 3271              		.loc 1 234 28 is_stmt 0 view .LVU1056
 3272 000c FFF7FEFF 		bl	lv_label_get_text
 3273              	.LVL407:
 234:Middlewares/lvgl/src/widgets/lv_roller.c ****     size_t txt_len     = strlen(opt_txt);
 3274              		.loc 1 234 28 view .LVU1057
 3275 0010 0446     		mov	r4, r0
 3276              	.LVL408:
 235:Middlewares/lvgl/src/widgets/lv_roller.c **** 
 3277              		.loc 1 235 5 is_stmt 1 view .LVU1058
 235:Middlewares/lvgl/src/widgets/lv_roller.c **** 
 3278              		.loc 1 235 26 is_stmt 0 view .LVU1059
 3279 0012 FFF7FEFF 		bl	strlen
ARM GAS  /tmp/cc9MIr9f.s 			page 101


 3280              	.LVL409:
 237:Middlewares/lvgl/src/widgets/lv_roller.c ****         if(opt_txt[i] == '\n') line++;
 3281              		.loc 1 237 5 is_stmt 1 view .LVU1060
 233:Middlewares/lvgl/src/widgets/lv_roller.c ****     const char * opt_txt = lv_label_get_text(label);
 3282              		.loc 1 233 14 is_stmt 0 view .LVU1061
 3283 0016 0022     		movs	r2, #0
 237:Middlewares/lvgl/src/widgets/lv_roller.c ****         if(opt_txt[i] == '\n') line++;
 3284              		.loc 1 237 11 view .LVU1062
 3285 0018 1346     		mov	r3, r2
 237:Middlewares/lvgl/src/widgets/lv_roller.c ****         if(opt_txt[i] == '\n') line++;
 3286              		.loc 1 237 5 view .LVU1063
 3287 001a 00E0     		b	.L148
 3288              	.LVL410:
 3289              	.L149:
 237:Middlewares/lvgl/src/widgets/lv_roller.c ****         if(opt_txt[i] == '\n') line++;
 3290              		.loc 1 237 59 is_stmt 1 discriminator 2 view .LVU1064
 237:Middlewares/lvgl/src/widgets/lv_roller.c ****         if(opt_txt[i] == '\n') line++;
 3291              		.loc 1 237 60 is_stmt 0 discriminator 2 view .LVU1065
 3292 001c 0133     		adds	r3, r3, #1
 3293              	.LVL411:
 3294              	.L148:
 237:Middlewares/lvgl/src/widgets/lv_roller.c ****         if(opt_txt[i] == '\n') line++;
 3295              		.loc 1 237 16 is_stmt 1 discriminator 1 view .LVU1066
 237:Middlewares/lvgl/src/widgets/lv_roller.c ****         if(opt_txt[i] == '\n') line++;
 3296              		.loc 1 237 5 is_stmt 0 discriminator 1 view .LVU1067
 3297 001e 8342     		cmp	r3, r0
 3298 0020 20D2     		bcs	.L156
 237:Middlewares/lvgl/src/widgets/lv_roller.c ****         if(opt_txt[i] == '\n') line++;
 3299              		.loc 1 237 45 discriminator 3 view .LVU1068
 3300 0022 F98C     		ldrh	r1, [r7, #38]
 237:Middlewares/lvgl/src/widgets/lv_roller.c ****         if(opt_txt[i] == '\n') line++;
 3301              		.loc 1 237 28 discriminator 3 view .LVU1069
 3302 0024 9142     		cmp	r1, r2
 3303 0026 05D0     		beq	.L158
 238:Middlewares/lvgl/src/widgets/lv_roller.c ****     }
 3304              		.loc 1 238 9 is_stmt 1 view .LVU1070
 238:Middlewares/lvgl/src/widgets/lv_roller.c ****     }
 3305              		.loc 1 238 19 is_stmt 0 view .LVU1071
 3306 0028 E15C     		ldrb	r1, [r4, r3]	@ zero_extendqisi2
 238:Middlewares/lvgl/src/widgets/lv_roller.c ****     }
 3307              		.loc 1 238 11 view .LVU1072
 3308 002a 0A29     		cmp	r1, #10
 3309 002c F6D1     		bne	.L149
 238:Middlewares/lvgl/src/widgets/lv_roller.c ****     }
 3310              		.loc 1 238 32 is_stmt 1 discriminator 1 view .LVU1073
 238:Middlewares/lvgl/src/widgets/lv_roller.c ****     }
 3311              		.loc 1 238 36 is_stmt 0 discriminator 1 view .LVU1074
 3312 002e 0132     		adds	r2, r2, #1
 3313              	.LVL412:
 238:Middlewares/lvgl/src/widgets/lv_roller.c ****     }
 3314              		.loc 1 238 36 discriminator 1 view .LVU1075
 3315 0030 92B2     		uxth	r2, r2
 3316              	.LVL413:
 238:Middlewares/lvgl/src/widgets/lv_roller.c ****     }
 3317              		.loc 1 238 36 discriminator 1 view .LVU1076
 3318 0032 F3E7     		b	.L149
 3319              	.L158:
ARM GAS  /tmp/cc9MIr9f.s 			page 102


 238:Middlewares/lvgl/src/widgets/lv_roller.c ****     }
 3320              		.loc 1 238 36 discriminator 1 view .LVU1077
 3321 0034 4FF0000C 		mov	ip, #0
 3322 0038 04E0     		b	.L154
 3323              	.LVL414:
 3324              	.L152:
 247:Middlewares/lvgl/src/widgets/lv_roller.c ****     }
 3325              		.loc 1 247 9 is_stmt 1 discriminator 2 view .LVU1078
 247:Middlewares/lvgl/src/widgets/lv_roller.c ****     }
 3326              		.loc 1 247 16 is_stmt 0 discriminator 2 view .LVU1079
 3327 003a 06F80CE0 		strb	lr, [r6, ip]
 242:Middlewares/lvgl/src/widgets/lv_roller.c ****         if(buf_size && c >= buf_size - 1) {
 3328              		.loc 1 242 51 is_stmt 1 discriminator 2 view .LVU1080
 242:Middlewares/lvgl/src/widgets/lv_roller.c ****         if(buf_size && c >= buf_size - 1) {
 3329              		.loc 1 242 52 is_stmt 0 discriminator 2 view .LVU1081
 3330 003e 0CF1010C 		add	ip, ip, #1
 3331              	.LVL415:
 242:Middlewares/lvgl/src/widgets/lv_roller.c ****         if(buf_size && c >= buf_size - 1) {
 3332              		.loc 1 242 57 discriminator 2 view .LVU1082
 3333 0042 0133     		adds	r3, r3, #1
 3334              	.LVL416:
 3335              	.L154:
 242:Middlewares/lvgl/src/widgets/lv_roller.c ****         if(buf_size && c >= buf_size - 1) {
 3336              		.loc 1 242 16 is_stmt 1 discriminator 1 view .LVU1083
 242:Middlewares/lvgl/src/widgets/lv_roller.c ****         if(buf_size && c >= buf_size - 1) {
 3337              		.loc 1 242 5 is_stmt 0 discriminator 1 view .LVU1084
 3338 0044 8342     		cmp	r3, r0
 3339 0046 09D2     		bcs	.L153
 242:Middlewares/lvgl/src/widgets/lv_roller.c ****         if(buf_size && c >= buf_size - 1) {
 3340              		.loc 1 242 38 discriminator 3 view .LVU1085
 3341 0048 14F803E0 		ldrb	lr, [r4, r3]	@ zero_extendqisi2
 242:Middlewares/lvgl/src/widgets/lv_roller.c ****         if(buf_size && c >= buf_size - 1) {
 3342              		.loc 1 242 28 discriminator 3 view .LVU1086
 3343 004c BEF10A0F 		cmp	lr, #10
 3344 0050 04D0     		beq	.L153
 243:Middlewares/lvgl/src/widgets/lv_roller.c ****             LV_LOG_WARN("lv_dropdown_get_selected_str: the buffer was too small")
 3345              		.loc 1 243 9 is_stmt 1 view .LVU1087
 243:Middlewares/lvgl/src/widgets/lv_roller.c ****             LV_LOG_WARN("lv_dropdown_get_selected_str: the buffer was too small")
 3346              		.loc 1 243 11 is_stmt 0 view .LVU1088
 3347 0052 002D     		cmp	r5, #0
 3348 0054 F1D0     		beq	.L152
 243:Middlewares/lvgl/src/widgets/lv_roller.c ****             LV_LOG_WARN("lv_dropdown_get_selected_str: the buffer was too small")
 3349              		.loc 1 243 38 discriminator 1 view .LVU1089
 3350 0056 6A1E     		subs	r2, r5, #1
 243:Middlewares/lvgl/src/widgets/lv_roller.c ****             LV_LOG_WARN("lv_dropdown_get_selected_str: the buffer was too small")
 3351              		.loc 1 243 21 discriminator 1 view .LVU1090
 3352 0058 6245     		cmp	r2, ip
 3353 005a EED8     		bhi	.L152
 3354              	.L153:
 250:Middlewares/lvgl/src/widgets/lv_roller.c **** }
 3355              		.loc 1 250 5 is_stmt 1 view .LVU1091
 250:Middlewares/lvgl/src/widgets/lv_roller.c **** }
 3356              		.loc 1 250 12 is_stmt 0 view .LVU1092
 3357 005c 0023     		movs	r3, #0
 3358              	.LVL417:
 250:Middlewares/lvgl/src/widgets/lv_roller.c **** }
 3359              		.loc 1 250 12 view .LVU1093
ARM GAS  /tmp/cc9MIr9f.s 			page 103


 3360 005e 06F80C30 		strb	r3, [r6, ip]
 251:Middlewares/lvgl/src/widgets/lv_roller.c **** 
 3361              		.loc 1 251 1 view .LVU1094
 3362 0062 F8BD     		pop	{r3, r4, r5, r6, r7, pc}
 3363              	.LVL418:
 3364              	.L156:
 251:Middlewares/lvgl/src/widgets/lv_roller.c **** 
 3365              		.loc 1 251 1 view .LVU1095
 3366 0064 4FF0000C 		mov	ip, #0
 3367 0068 ECE7     		b	.L154
 3368              		.cfi_endproc
 3369              	.LFE152:
 3371              		.section	.text.lv_roller_get_options,"ax",%progbits
 3372              		.align	1
 3373              		.global	lv_roller_get_options
 3374              		.syntax unified
 3375              		.thumb
 3376              		.thumb_func
 3377              		.fpu fpv4-sp-d16
 3379              	lv_roller_get_options:
 3380              	.LVL419:
 3381              	.LFB153:
 260:Middlewares/lvgl/src/widgets/lv_roller.c ****     LV_ASSERT_OBJ(obj, MY_CLASS);
 3382              		.loc 1 260 1 is_stmt 1 view -0
 3383              		.cfi_startproc
 3384              		@ args = 0, pretend = 0, frame = 0
 3385              		@ frame_needed = 0, uses_anonymous_args = 0
 260:Middlewares/lvgl/src/widgets/lv_roller.c ****     LV_ASSERT_OBJ(obj, MY_CLASS);
 3386              		.loc 1 260 1 is_stmt 0 view .LVU1097
 3387 0000 08B5     		push	{r3, lr}
 3388              	.LCFI37:
 3389              		.cfi_def_cfa_offset 8
 3390              		.cfi_offset 3, -8
 3391              		.cfi_offset 14, -4
 261:Middlewares/lvgl/src/widgets/lv_roller.c **** 
 3392              		.loc 1 261 5 is_stmt 1 view .LVU1098
 261:Middlewares/lvgl/src/widgets/lv_roller.c **** 
 3393              		.loc 1 261 5 view .LVU1099
 261:Middlewares/lvgl/src/widgets/lv_roller.c **** 
 3394              		.loc 1 261 5 view .LVU1100
 263:Middlewares/lvgl/src/widgets/lv_roller.c **** }
 3395              		.loc 1 263 5 view .LVU1101
 263:Middlewares/lvgl/src/widgets/lv_roller.c **** }
 3396              		.loc 1 263 30 is_stmt 0 view .LVU1102
 3397 0002 FFF7FEFF 		bl	get_label
 3398              	.LVL420:
 263:Middlewares/lvgl/src/widgets/lv_roller.c **** }
 3399              		.loc 1 263 12 view .LVU1103
 3400 0006 FFF7FEFF 		bl	lv_label_get_text
 3401              	.LVL421:
 264:Middlewares/lvgl/src/widgets/lv_roller.c **** 
 3402              		.loc 1 264 1 view .LVU1104
 3403 000a 08BD     		pop	{r3, pc}
 3404              		.cfi_endproc
 3405              	.LFE153:
 3407              		.section	.text.lv_roller_get_option_cnt,"ax",%progbits
 3408              		.align	1
ARM GAS  /tmp/cc9MIr9f.s 			page 104


 3409              		.global	lv_roller_get_option_cnt
 3410              		.syntax unified
 3411              		.thumb
 3412              		.thumb_func
 3413              		.fpu fpv4-sp-d16
 3415              	lv_roller_get_option_cnt:
 3416              	.LVL422:
 3417              	.LFB154:
 273:Middlewares/lvgl/src/widgets/lv_roller.c ****     LV_ASSERT_OBJ(obj, MY_CLASS);
 3418              		.loc 1 273 1 is_stmt 1 view -0
 3419              		.cfi_startproc
 3420              		@ args = 0, pretend = 0, frame = 0
 3421              		@ frame_needed = 0, uses_anonymous_args = 0
 3422              		@ link register save eliminated.
 274:Middlewares/lvgl/src/widgets/lv_roller.c **** 
 3423              		.loc 1 274 5 view .LVU1106
 274:Middlewares/lvgl/src/widgets/lv_roller.c **** 
 3424              		.loc 1 274 5 view .LVU1107
 274:Middlewares/lvgl/src/widgets/lv_roller.c **** 
 3425              		.loc 1 274 5 view .LVU1108
 276:Middlewares/lvgl/src/widgets/lv_roller.c ****     if(roller->mode == LV_ROLLER_MODE_INFINITE) {
 3426              		.loc 1 276 5 view .LVU1109
 277:Middlewares/lvgl/src/widgets/lv_roller.c ****         return roller->option_cnt / LV_ROLLER_INF_PAGES;
 3427              		.loc 1 277 5 view .LVU1110
 277:Middlewares/lvgl/src/widgets/lv_roller.c ****         return roller->option_cnt / LV_ROLLER_INF_PAGES;
 3428              		.loc 1 277 21 is_stmt 0 view .LVU1111
 3429 0000 90F82A30 		ldrb	r3, [r0, #42]	@ zero_extendqisi2
 277:Middlewares/lvgl/src/widgets/lv_roller.c ****         return roller->option_cnt / LV_ROLLER_INF_PAGES;
 3430              		.loc 1 277 7 view .LVU1112
 3431 0004 13F0010F 		tst	r3, #1
 3432 0008 09D0     		beq	.L162
 278:Middlewares/lvgl/src/widgets/lv_roller.c ****     }
 3433              		.loc 1 278 9 is_stmt 1 view .LVU1113
 278:Middlewares/lvgl/src/widgets/lv_roller.c ****     }
 3434              		.loc 1 278 22 is_stmt 0 view .LVU1114
 3435 000a 838C     		ldrh	r3, [r0, #36]
 278:Middlewares/lvgl/src/widgets/lv_roller.c ****     }
 3436              		.loc 1 278 35 view .LVU1115
 3437 000c 0548     		ldr	r0, .L164
 3438              	.LVL423:
 278:Middlewares/lvgl/src/widgets/lv_roller.c ****     }
 3439              		.loc 1 278 35 view .LVU1116
 3440 000e A0FB0320 		umull	r2, r0, r0, r3
 3441 0012 1B1A     		subs	r3, r3, r0
 3442 0014 00EB5300 		add	r0, r0, r3, lsr #1
 3443 0018 C0F38F00 		ubfx	r0, r0, #2, #16
 3444 001c 7047     		bx	lr
 3445              	.LVL424:
 3446              	.L162:
 281:Middlewares/lvgl/src/widgets/lv_roller.c ****     }
 3447              		.loc 1 281 9 is_stmt 1 view .LVU1117
 281:Middlewares/lvgl/src/widgets/lv_roller.c ****     }
 3448              		.loc 1 281 22 is_stmt 0 view .LVU1118
 3449 001e 808C     		ldrh	r0, [r0, #36]
 3450              	.LVL425:
 283:Middlewares/lvgl/src/widgets/lv_roller.c **** 
 3451              		.loc 1 283 1 view .LVU1119
ARM GAS  /tmp/cc9MIr9f.s 			page 105


 3452 0020 7047     		bx	lr
 3453              	.L165:
 3454 0022 00BF     		.align	2
 3455              	.L164:
 3456 0024 25499224 		.word	613566757
 3457              		.cfi_endproc
 3458              	.LFE154:
 3460              		.global	lv_roller_label_class
 3461              		.global	lv_roller_class
 3462              		.section	.rodata.lv_roller_class,"a"
 3463              		.align	2
 3464              		.set	.LANCHOR1,. + 0
 3467              	lv_roller_class:
 3468 0000 00000000 		.word	lv_obj_class
 3469 0004 00000000 		.word	lv_roller_constructor
 3470 0008 00000000 		.space	8
 3470      00000000 
 3471 0010 00000000 		.word	lv_roller_event
 3472 0014 D127     		.short	10193
 3473 0016 8200     		.short	130
 3474 0018 C5       		.byte	197
 3475 0019 02       		.byte	2
 3476 001a 00       		.byte	0
 3477 001b 00       		.space	1
 3478              		.section	.rodata.lv_roller_label_class,"a"
 3479              		.align	2
 3480              		.set	.LANCHOR0,. + 0
 3483              	lv_roller_label_class:
 3484 0000 00000000 		.word	lv_label_class
 3485 0004 00000000 		.space	12
 3485      00000000 
 3485      00000000 
 3486 0010 00000000 		.word	lv_roller_label_event
 3487 0014 00000000 		.space	4
 3488 0018 C0       		.byte	192
 3489 0019 04       		.byte	4
 3490 001a 00       		.byte	0
 3491 001b 00       		.space	1
 3492              		.text
 3493              	.Letext0:
 3494              		.file 5 "/home/akinya/gcc-arm-none-eabi/arm-none-eabi/include/machine/_default_types.h"
 3495              		.file 6 "/home/akinya/gcc-arm-none-eabi/arm-none-eabi/include/sys/_stdint.h"
 3496              		.file 7 "/home/akinya/gcc-arm-none-eabi/lib/gcc/arm-none-eabi/10.2.1/include/stddef.h"
 3497              		.file 8 "Middlewares/lvgl/src/widgets/../core/../misc/../font/../misc/lv_area.h"
 3498              		.file 9 "Middlewares/lvgl/src/widgets/../core/../misc/lv_types.h"
 3499              		.file 10 "Middlewares/lvgl/src/widgets/../core/../misc/lv_color.h"
 3500              		.file 11 "Middlewares/lvgl/src/widgets/../core/../misc/lv_txt.h"
 3501              		.file 12 "Middlewares/lvgl/src/widgets/../core/../misc/lv_bidi.h"
 3502              		.file 13 "Middlewares/lvgl/src/widgets/../core/../misc/lv_style.h"
 3503              		.file 14 "Middlewares/lvgl/src/widgets/../core/../hal/../misc/lv_ll.h"
 3504              		.file 15 "Middlewares/lvgl/src/widgets/../core/../hal/../misc/lv_timer.h"
 3505              		.file 16 "Middlewares/lvgl/src/widgets/../core/../hal/lv_hal_disp.h"
 3506              		.file 17 "Middlewares/lvgl/src/widgets/../core/lv_obj.h"
 3507              		.file 18 "Middlewares/lvgl/src/widgets/../core/../hal/lv_hal_indev.h"
 3508              		.file 19 "Middlewares/lvgl/src/widgets/../core/lv_group.h"
 3509              		.file 20 "Middlewares/lvgl/src/widgets/../core/lv_obj_scroll.h"
 3510              		.file 21 "Middlewares/lvgl/src/widgets/../core/lv_obj_style.h"
ARM GAS  /tmp/cc9MIr9f.s 			page 106


 3511              		.file 22 "Middlewares/lvgl/src/widgets/../core/../draw/lv_draw_rect.h"
 3512              		.file 23 "Middlewares/lvgl/src/widgets/../core/../draw/lv_draw_label.h"
 3513              		.file 24 "Middlewares/lvgl/src/widgets/../core/lv_obj_class.h"
 3514              		.file 25 "Middlewares/lvgl/src/widgets/../core/lv_event.h"
 3515              		.file 26 "Middlewares/lvgl/src/widgets/lv_label.h"
 3516              		.file 27 "Middlewares/lvgl/src/widgets/lv_roller.h"
 3517              		.file 28 "Middlewares/lvgl/src/widgets/../core/lv_obj_pos.h"
 3518              		.file 29 "Middlewares/lvgl/src/widgets/../core/lv_obj_tree.h"
 3519              		.file 30 "Middlewares/lvgl/src/widgets/../core/lv_indev.h"
 3520              		.file 31 "Middlewares/lvgl/src/widgets/../core/lv_indev_scroll.h"
 3521              		.file 32 "Middlewares/lvgl/src/widgets/../core/lv_obj_draw.h"
 3522              		.file 33 "/home/akinya/gcc-arm-none-eabi/arm-none-eabi/include/string.h"
 3523              		.file 34 "Middlewares/lvgl/src/widgets/../core/../hal/../misc/lv_mem.h"
ARM GAS  /tmp/cc9MIr9f.s 			page 107


DEFINED SYMBOLS
                            *ABS*:0000000000000000 lv_roller.c
     /tmp/cc9MIr9f.s:18     .text.set_y_anim:0000000000000000 $t
     /tmp/cc9MIr9f.s:25     .text.set_y_anim:0000000000000000 set_y_anim
     /tmp/cc9MIr9f.s:51     .text.get_label:0000000000000000 $t
     /tmp/cc9MIr9f.s:57     .text.get_label:0000000000000000 get_label
     /tmp/cc9MIr9f.s:81     .text.get_selected_label_width:0000000000000000 $t
     /tmp/cc9MIr9f.s:87     .text.get_selected_label_width:0000000000000000 get_selected_label_width
     /tmp/cc9MIr9f.s:203    .text.inf_normalize:0000000000000000 $t
     /tmp/cc9MIr9f.s:209    .text.inf_normalize:0000000000000000 inf_normalize
     /tmp/cc9MIr9f.s:386    .text.inf_normalize:00000000000000a0 $d
     /tmp/cc9MIr9f.s:391    .text.refr_position:0000000000000000 $t
     /tmp/cc9MIr9f.s:397    .text.refr_position:0000000000000000 refr_position
     /tmp/cc9MIr9f.s:796    .text.refr_position:0000000000000138 $d
     /tmp/cc9MIr9f.s:810    .text.scroll_anim_ready_cb:0000000000000000 scroll_anim_ready_cb
     /tmp/cc9MIr9f.s:804    .text.scroll_anim_ready_cb:0000000000000000 $t
     /tmp/cc9MIr9f.s:839    .text.draw_main:0000000000000000 $t
     /tmp/cc9MIr9f.s:845    .text.draw_main:0000000000000000 draw_main
     /tmp/cc9MIr9f.s:1313   .text.draw_label:0000000000000000 $t
     /tmp/cc9MIr9f.s:1319   .text.draw_label:0000000000000000 draw_label
     /tmp/cc9MIr9f.s:1571   .text.lv_roller_label_event:0000000000000000 $t
     /tmp/cc9MIr9f.s:1577   .text.lv_roller_label_event:0000000000000000 lv_roller_label_event
     /tmp/cc9MIr9f.s:1715   .text.lv_roller_label_event:0000000000000070 $d
     /tmp/cc9MIr9f.s:1720   .text.lv_roller_create:0000000000000000 $t
     /tmp/cc9MIr9f.s:1727   .text.lv_roller_create:0000000000000000 lv_roller_create
     /tmp/cc9MIr9f.s:1763   .text.lv_roller_create:0000000000000014 $d
     /tmp/cc9MIr9f.s:1768   .text.lv_roller_set_options:0000000000000000 $t
     /tmp/cc9MIr9f.s:1775   .text.lv_roller_set_options:0000000000000000 lv_roller_set_options
     /tmp/cc9MIr9f.s:2007   .rodata.lv_roller_constructor.str1.4:0000000000000000 $d
     /tmp/cc9MIr9f.s:2012   .text.lv_roller_constructor:0000000000000000 $t
     /tmp/cc9MIr9f.s:2018   .text.lv_roller_constructor:0000000000000000 lv_roller_constructor
     /tmp/cc9MIr9f.s:2089   .text.lv_roller_constructor:0000000000000044 $d
     /tmp/cc9MIr9f.s:2095   .text.lv_roller_set_selected:0000000000000000 $t
     /tmp/cc9MIr9f.s:2102   .text.lv_roller_set_selected:0000000000000000 lv_roller_set_selected
     /tmp/cc9MIr9f.s:2194   .text.lv_roller_set_selected:0000000000000054 $d
     /tmp/cc9MIr9f.s:2199   .text.release_handler:0000000000000000 $t
     /tmp/cc9MIr9f.s:2205   .text.release_handler:0000000000000000 release_handler
     /tmp/cc9MIr9f.s:2614   .text.release_handler:0000000000000154 $d
     /tmp/cc9MIr9f.s:2619   .text.lv_roller_event:0000000000000000 $t
     /tmp/cc9MIr9f.s:2625   .text.lv_roller_event:0000000000000000 lv_roller_event
     /tmp/cc9MIr9f.s:3039   .text.lv_roller_event:000000000000018c $d
     /tmp/cc9MIr9f.s:3047   .text.lv_roller_set_visible_row_count:0000000000000000 $t
     /tmp/cc9MIr9f.s:3054   .text.lv_roller_set_visible_row_count:0000000000000000 lv_roller_set_visible_row_count
     /tmp/cc9MIr9f.s:3169   .text.lv_roller_get_selected:0000000000000000 $t
     /tmp/cc9MIr9f.s:3176   .text.lv_roller_get_selected:0000000000000000 lv_roller_get_selected
     /tmp/cc9MIr9f.s:3227   .text.lv_roller_get_selected:0000000000000030 $d
     /tmp/cc9MIr9f.s:3232   .text.lv_roller_get_selected_str:0000000000000000 $t
     /tmp/cc9MIr9f.s:3239   .text.lv_roller_get_selected_str:0000000000000000 lv_roller_get_selected_str
     /tmp/cc9MIr9f.s:3372   .text.lv_roller_get_options:0000000000000000 $t
     /tmp/cc9MIr9f.s:3379   .text.lv_roller_get_options:0000000000000000 lv_roller_get_options
     /tmp/cc9MIr9f.s:3408   .text.lv_roller_get_option_cnt:0000000000000000 $t
     /tmp/cc9MIr9f.s:3415   .text.lv_roller_get_option_cnt:0000000000000000 lv_roller_get_option_cnt
     /tmp/cc9MIr9f.s:3456   .text.lv_roller_get_option_cnt:0000000000000024 $d
     /tmp/cc9MIr9f.s:3483   .rodata.lv_roller_label_class:0000000000000000 lv_roller_label_class
     /tmp/cc9MIr9f.s:3467   .rodata.lv_roller_class:0000000000000000 lv_roller_class
     /tmp/cc9MIr9f.s:3463   .rodata.lv_roller_class:0000000000000000 $d
     /tmp/cc9MIr9f.s:3479   .rodata.lv_roller_label_class:0000000000000000 $d
ARM GAS  /tmp/cc9MIr9f.s 			page 108



UNDEFINED SYMBOLS
lv_obj_set_y
lv_obj_get_child
lv_obj_get_style_prop
lv_label_get_text
lv_txt_get_size
lv_obj_get_content_height
lv_anim_del
lv_obj_set_x
lv_obj_get_content_width
lv_obj_get_width
lv_anim_init
lv_obj_get_y
lv_anim_start
lv_anim_path_ease_out
lv_obj_get_parent
lv_event_get_code
lv_event_get_target
lv_event_get_param
lv_obj_get_height
lv_obj_get_coords
lv_draw_rect_dsc_init
lv_obj_init_draw_rect_dsc
lv_draw_rect
lv_draw_label_dsc_init
lv_obj_init_draw_label_dsc
_lv_area_intersect
lv_draw_label
lv_obj_event_base
lv_obj_class_create_obj
lv_obj_class_init_obj
lv_label_set_text
lv_obj_refresh_ext_draw_size
strlen
lv_mem_buf_get
strcpy
lv_mem_buf_release
lv_obj_clear_flag
lv_indev_get_act
lv_indev_get_type
lv_indev_get_point
lv_label_get_letter_on
lv_obj_get_group
lv_group_get_editing
lv_group_set_editing
lv_indev_scroll_throw_predict
lv_event_send
_lv_txt_encoded_next
lv_obj_refresh_self_size
lv_indev_get_vect
lv_obj_set_height
lv_obj_class
lv_label_class
