ARM GAS  /tmp/cc9MIr9f.s 			page 1


   1              		.cpu cortex-m4
   2              		.eabi_attribute 27, 1
   3              		.eabi_attribute 28, 1
   4              		.eabi_attribute 20, 1
   5              		.eabi_attribute 21, 1
   6              		.eabi_attribute 23, 3
   7              		.eabi_attribute 24, 1
   8              		.eabi_attribute 25, 1
   9              		.eabi_attribute 26, 1
  10              		.eabi_attribute 30, 1
  11              		.eabi_attribute 34, 1
  12              		.eabi_attribute 18, 4
  13              		.file	"lv_roller.c"
  14              		.text
  15              	.Ltext0:
  16              		.cfi_sections	.debug_frame
  17              		.section	.text.set_y_anim,"ax",%progbits
  18              		.align	1
  19              		.arch armv7e-m
  20              		.syntax unified
  21              		.thumb
  22              		.thumb_func
  23              		.fpu fpv4-sp-d16
  25              	set_y_anim:
  26              	.LVL0:
  27              	.LFB166:
  28              		.file 1 "Middlewares/lvgl/src/widgets/lv_roller.c"
   1:Middlewares/lvgl/src/widgets/lv_roller.c **** /**
   2:Middlewares/lvgl/src/widgets/lv_roller.c ****  * @file lv_roller.c
   3:Middlewares/lvgl/src/widgets/lv_roller.c ****  *
   4:Middlewares/lvgl/src/widgets/lv_roller.c ****  */
   5:Middlewares/lvgl/src/widgets/lv_roller.c **** 
   6:Middlewares/lvgl/src/widgets/lv_roller.c **** /*********************
   7:Middlewares/lvgl/src/widgets/lv_roller.c ****  *      INCLUDES
   8:Middlewares/lvgl/src/widgets/lv_roller.c ****  *********************/
   9:Middlewares/lvgl/src/widgets/lv_roller.c **** #include "lv_roller.h"
  10:Middlewares/lvgl/src/widgets/lv_roller.c **** #if LV_USE_ROLLER != 0
  11:Middlewares/lvgl/src/widgets/lv_roller.c **** 
  12:Middlewares/lvgl/src/widgets/lv_roller.c **** #include "../misc/lv_assert.h"
  13:Middlewares/lvgl/src/widgets/lv_roller.c **** #include "../draw/lv_draw.h"
  14:Middlewares/lvgl/src/widgets/lv_roller.c **** #include "../core/lv_group.h"
  15:Middlewares/lvgl/src/widgets/lv_roller.c **** #include "../core/lv_indev.h"
  16:Middlewares/lvgl/src/widgets/lv_roller.c **** #include "../core/lv_indev_scroll.h"
  17:Middlewares/lvgl/src/widgets/lv_roller.c **** 
  18:Middlewares/lvgl/src/widgets/lv_roller.c **** /*********************
  19:Middlewares/lvgl/src/widgets/lv_roller.c ****  *      DEFINES
  20:Middlewares/lvgl/src/widgets/lv_roller.c ****  *********************/
  21:Middlewares/lvgl/src/widgets/lv_roller.c **** #define MY_CLASS &lv_roller_class
  22:Middlewares/lvgl/src/widgets/lv_roller.c **** #define MY_CLASS_LABEL &lv_roller_label_class
  23:Middlewares/lvgl/src/widgets/lv_roller.c **** 
  24:Middlewares/lvgl/src/widgets/lv_roller.c **** /**********************
  25:Middlewares/lvgl/src/widgets/lv_roller.c ****  *      TYPEDEFS
  26:Middlewares/lvgl/src/widgets/lv_roller.c ****  **********************/
  27:Middlewares/lvgl/src/widgets/lv_roller.c **** 
  28:Middlewares/lvgl/src/widgets/lv_roller.c **** /**********************
  29:Middlewares/lvgl/src/widgets/lv_roller.c ****  *  STATIC PROTOTYPES
  30:Middlewares/lvgl/src/widgets/lv_roller.c ****  **********************/
ARM GAS  /tmp/cc9MIr9f.s 			page 2


  31:Middlewares/lvgl/src/widgets/lv_roller.c **** static void lv_roller_constructor(const lv_obj_class_t * class_p, lv_obj_t * obj);
  32:Middlewares/lvgl/src/widgets/lv_roller.c **** static void lv_roller_event(const lv_obj_class_t * class_p, lv_event_t * e);
  33:Middlewares/lvgl/src/widgets/lv_roller.c **** static void lv_roller_label_event(const lv_obj_class_t * class_p, lv_event_t * e);
  34:Middlewares/lvgl/src/widgets/lv_roller.c **** static void draw_main(lv_event_t * e);
  35:Middlewares/lvgl/src/widgets/lv_roller.c **** static void draw_label(lv_event_t * e);
  36:Middlewares/lvgl/src/widgets/lv_roller.c **** static void refr_position(lv_obj_t * obj, lv_anim_enable_t animen);
  37:Middlewares/lvgl/src/widgets/lv_roller.c **** static lv_res_t release_handler(lv_obj_t * obj);
  38:Middlewares/lvgl/src/widgets/lv_roller.c **** static void inf_normalize(lv_obj_t * obj_scrl);
  39:Middlewares/lvgl/src/widgets/lv_roller.c **** static lv_obj_t * get_label(const lv_obj_t * obj);
  40:Middlewares/lvgl/src/widgets/lv_roller.c **** static lv_coord_t get_selected_label_width(const lv_obj_t * obj);
  41:Middlewares/lvgl/src/widgets/lv_roller.c **** static void scroll_anim_ready_cb(lv_anim_t * a);
  42:Middlewares/lvgl/src/widgets/lv_roller.c **** static void set_y_anim(void * obj, int32_t v);
  43:Middlewares/lvgl/src/widgets/lv_roller.c **** 
  44:Middlewares/lvgl/src/widgets/lv_roller.c **** /**********************
  45:Middlewares/lvgl/src/widgets/lv_roller.c ****  *  STATIC VARIABLES
  46:Middlewares/lvgl/src/widgets/lv_roller.c ****  **********************/
  47:Middlewares/lvgl/src/widgets/lv_roller.c **** const lv_obj_class_t lv_roller_class = {
  48:Middlewares/lvgl/src/widgets/lv_roller.c ****         .constructor_cb = lv_roller_constructor,
  49:Middlewares/lvgl/src/widgets/lv_roller.c ****         .event_cb = lv_roller_event,
  50:Middlewares/lvgl/src/widgets/lv_roller.c ****         .width_def = LV_SIZE_CONTENT,
  51:Middlewares/lvgl/src/widgets/lv_roller.c ****         .height_def = LV_DPI_DEF,
  52:Middlewares/lvgl/src/widgets/lv_roller.c ****         .instance_size = sizeof(lv_roller_t),
  53:Middlewares/lvgl/src/widgets/lv_roller.c ****         .editable = LV_OBJ_CLASS_EDITABLE_TRUE,
  54:Middlewares/lvgl/src/widgets/lv_roller.c ****         .group_def = LV_OBJ_CLASS_GROUP_DEF_TRUE,
  55:Middlewares/lvgl/src/widgets/lv_roller.c ****         .base_class = &lv_obj_class
  56:Middlewares/lvgl/src/widgets/lv_roller.c **** };
  57:Middlewares/lvgl/src/widgets/lv_roller.c **** 
  58:Middlewares/lvgl/src/widgets/lv_roller.c **** const lv_obj_class_t lv_roller_label_class  = {
  59:Middlewares/lvgl/src/widgets/lv_roller.c ****         .event_cb = lv_roller_label_event,
  60:Middlewares/lvgl/src/widgets/lv_roller.c ****         .instance_size = sizeof(lv_label_t),
  61:Middlewares/lvgl/src/widgets/lv_roller.c ****         .base_class = &lv_label_class
  62:Middlewares/lvgl/src/widgets/lv_roller.c ****     };
  63:Middlewares/lvgl/src/widgets/lv_roller.c **** 
  64:Middlewares/lvgl/src/widgets/lv_roller.c **** /**********************
  65:Middlewares/lvgl/src/widgets/lv_roller.c ****  *      MACROS
  66:Middlewares/lvgl/src/widgets/lv_roller.c ****  **********************/
  67:Middlewares/lvgl/src/widgets/lv_roller.c **** 
  68:Middlewares/lvgl/src/widgets/lv_roller.c **** /**********************
  69:Middlewares/lvgl/src/widgets/lv_roller.c ****  *   GLOBAL FUNCTIONS
  70:Middlewares/lvgl/src/widgets/lv_roller.c ****  **********************/
  71:Middlewares/lvgl/src/widgets/lv_roller.c **** 
  72:Middlewares/lvgl/src/widgets/lv_roller.c **** /**
  73:Middlewares/lvgl/src/widgets/lv_roller.c ****  * Create a roller object
  74:Middlewares/lvgl/src/widgets/lv_roller.c ****  * @param par pointer to an object, it will be the parent of the new roller
  75:Middlewares/lvgl/src/widgets/lv_roller.c ****  * @return pointer to the created roller
  76:Middlewares/lvgl/src/widgets/lv_roller.c ****  */
  77:Middlewares/lvgl/src/widgets/lv_roller.c **** lv_obj_t * lv_roller_create(lv_obj_t * parent)
  78:Middlewares/lvgl/src/widgets/lv_roller.c **** {
  79:Middlewares/lvgl/src/widgets/lv_roller.c ****     LV_LOG_INFO("begin")
  80:Middlewares/lvgl/src/widgets/lv_roller.c ****     lv_obj_t * obj = lv_obj_class_create_obj(MY_CLASS, parent);
  81:Middlewares/lvgl/src/widgets/lv_roller.c ****     lv_obj_class_init_obj(obj);
  82:Middlewares/lvgl/src/widgets/lv_roller.c ****     return obj;
  83:Middlewares/lvgl/src/widgets/lv_roller.c **** }
  84:Middlewares/lvgl/src/widgets/lv_roller.c **** 
  85:Middlewares/lvgl/src/widgets/lv_roller.c **** /*=====================
  86:Middlewares/lvgl/src/widgets/lv_roller.c ****  * Setter functions
  87:Middlewares/lvgl/src/widgets/lv_roller.c ****  *====================*/
ARM GAS  /tmp/cc9MIr9f.s 			page 3


  88:Middlewares/lvgl/src/widgets/lv_roller.c **** 
  89:Middlewares/lvgl/src/widgets/lv_roller.c **** /**
  90:Middlewares/lvgl/src/widgets/lv_roller.c ****  * Set the options on a roller
  91:Middlewares/lvgl/src/widgets/lv_roller.c ****  * @param roller pointer to roller object
  92:Middlewares/lvgl/src/widgets/lv_roller.c ****  * @param options a string with '\n' separated options. E.g. "One\nTwo\nThree"
  93:Middlewares/lvgl/src/widgets/lv_roller.c ****  * @param mode `LV_ROLLER_MODE_NORMAL` or `LV_ROLLER_MODE_INFINITE`
  94:Middlewares/lvgl/src/widgets/lv_roller.c ****  */
  95:Middlewares/lvgl/src/widgets/lv_roller.c **** void lv_roller_set_options(lv_obj_t * obj, const char * options, lv_roller_mode_t mode)
  96:Middlewares/lvgl/src/widgets/lv_roller.c **** {
  97:Middlewares/lvgl/src/widgets/lv_roller.c ****     LV_ASSERT_OBJ(obj, MY_CLASS);
  98:Middlewares/lvgl/src/widgets/lv_roller.c ****     LV_ASSERT_NULL(options);
  99:Middlewares/lvgl/src/widgets/lv_roller.c **** 
 100:Middlewares/lvgl/src/widgets/lv_roller.c ****     lv_roller_t * roller = (lv_roller_t*)obj;
 101:Middlewares/lvgl/src/widgets/lv_roller.c ****     lv_obj_t * label = get_label(obj);
 102:Middlewares/lvgl/src/widgets/lv_roller.c **** 
 103:Middlewares/lvgl/src/widgets/lv_roller.c ****     roller->sel_opt_id     = 0;
 104:Middlewares/lvgl/src/widgets/lv_roller.c ****     roller->sel_opt_id_ori = 0;
 105:Middlewares/lvgl/src/widgets/lv_roller.c **** 
 106:Middlewares/lvgl/src/widgets/lv_roller.c ****     /*Count the '\n'-s to determine the number of options*/
 107:Middlewares/lvgl/src/widgets/lv_roller.c ****     roller->option_cnt = 0;
 108:Middlewares/lvgl/src/widgets/lv_roller.c ****     uint32_t cnt;
 109:Middlewares/lvgl/src/widgets/lv_roller.c ****     for(cnt = 0; options[cnt] != '\0'; cnt++) {
 110:Middlewares/lvgl/src/widgets/lv_roller.c ****         if(options[cnt] == '\n') roller->option_cnt++;
 111:Middlewares/lvgl/src/widgets/lv_roller.c ****     }
 112:Middlewares/lvgl/src/widgets/lv_roller.c ****     roller->option_cnt++; /*Last option has no `\n`*/
 113:Middlewares/lvgl/src/widgets/lv_roller.c **** 
 114:Middlewares/lvgl/src/widgets/lv_roller.c ****     if(mode == LV_ROLLER_MODE_NORMAL) {
 115:Middlewares/lvgl/src/widgets/lv_roller.c ****         roller->mode = LV_ROLLER_MODE_NORMAL;
 116:Middlewares/lvgl/src/widgets/lv_roller.c ****         lv_label_set_text(label, options);
 117:Middlewares/lvgl/src/widgets/lv_roller.c ****     }
 118:Middlewares/lvgl/src/widgets/lv_roller.c ****     else {
 119:Middlewares/lvgl/src/widgets/lv_roller.c ****         roller->mode = LV_ROLLER_MODE_INFINITE;
 120:Middlewares/lvgl/src/widgets/lv_roller.c **** 
 121:Middlewares/lvgl/src/widgets/lv_roller.c ****         size_t opt_len = strlen(options) + 1; /*+1 to add '\n' after option lists*/
 122:Middlewares/lvgl/src/widgets/lv_roller.c ****         char * opt_extra = lv_mem_buf_get(opt_len * LV_ROLLER_INF_PAGES);
 123:Middlewares/lvgl/src/widgets/lv_roller.c ****         uint8_t i;
 124:Middlewares/lvgl/src/widgets/lv_roller.c ****         for(i = 0; i < LV_ROLLER_INF_PAGES; i++) {
 125:Middlewares/lvgl/src/widgets/lv_roller.c ****             strcpy(&opt_extra[opt_len * i], options);
 126:Middlewares/lvgl/src/widgets/lv_roller.c ****             opt_extra[opt_len * (i + 1) - 1] = '\n';
 127:Middlewares/lvgl/src/widgets/lv_roller.c ****         }
 128:Middlewares/lvgl/src/widgets/lv_roller.c ****         opt_extra[opt_len * LV_ROLLER_INF_PAGES - 1] = '\0';
 129:Middlewares/lvgl/src/widgets/lv_roller.c ****         lv_label_set_text(label, opt_extra);
 130:Middlewares/lvgl/src/widgets/lv_roller.c ****         lv_mem_buf_release(opt_extra);
 131:Middlewares/lvgl/src/widgets/lv_roller.c **** 
 132:Middlewares/lvgl/src/widgets/lv_roller.c ****         roller->sel_opt_id     = ((LV_ROLLER_INF_PAGES / 2) + 0) * roller->option_cnt;
 133:Middlewares/lvgl/src/widgets/lv_roller.c **** 
 134:Middlewares/lvgl/src/widgets/lv_roller.c ****         roller->option_cnt = roller->option_cnt * LV_ROLLER_INF_PAGES;
 135:Middlewares/lvgl/src/widgets/lv_roller.c ****         inf_normalize(obj);
 136:Middlewares/lvgl/src/widgets/lv_roller.c ****     }
 137:Middlewares/lvgl/src/widgets/lv_roller.c **** 
 138:Middlewares/lvgl/src/widgets/lv_roller.c ****     roller->sel_opt_id_ori = roller->sel_opt_id;
 139:Middlewares/lvgl/src/widgets/lv_roller.c **** 
 140:Middlewares/lvgl/src/widgets/lv_roller.c ****     /*If the selected text has larger font the label needs some extra draw padding to draw it.*/
 141:Middlewares/lvgl/src/widgets/lv_roller.c ****     lv_obj_refresh_ext_draw_size(label);
 142:Middlewares/lvgl/src/widgets/lv_roller.c **** 
 143:Middlewares/lvgl/src/widgets/lv_roller.c **** }
 144:Middlewares/lvgl/src/widgets/lv_roller.c **** 
ARM GAS  /tmp/cc9MIr9f.s 			page 4


 145:Middlewares/lvgl/src/widgets/lv_roller.c **** /**
 146:Middlewares/lvgl/src/widgets/lv_roller.c ****  * Set the selected option
 147:Middlewares/lvgl/src/widgets/lv_roller.c ****  * @param roller pointer to a roller object
 148:Middlewares/lvgl/src/widgets/lv_roller.c ****  * @param sel_opt id of the selected option (0 ... number of option - 1);
 149:Middlewares/lvgl/src/widgets/lv_roller.c ****  * @param anim_en LV_ANIM_ON: set with animation; LV_ANOM_OFF set immediately
 150:Middlewares/lvgl/src/widgets/lv_roller.c ****  */
 151:Middlewares/lvgl/src/widgets/lv_roller.c **** void lv_roller_set_selected(lv_obj_t * obj, uint16_t sel_opt, lv_anim_enable_t anim)
 152:Middlewares/lvgl/src/widgets/lv_roller.c **** {
 153:Middlewares/lvgl/src/widgets/lv_roller.c ****     LV_ASSERT_OBJ(obj, MY_CLASS);
 154:Middlewares/lvgl/src/widgets/lv_roller.c **** 
 155:Middlewares/lvgl/src/widgets/lv_roller.c ****     /*Set the value even if it's the same as the current value because
 156:Middlewares/lvgl/src/widgets/lv_roller.c ****      *if moving to the next option with an animation which was just deleted in the PRESS Call the a
 157:Middlewares/lvgl/src/widgets/lv_roller.c ****      *nothing will continue the animation.*/
 158:Middlewares/lvgl/src/widgets/lv_roller.c **** 
 159:Middlewares/lvgl/src/widgets/lv_roller.c ****     lv_roller_t * roller = (lv_roller_t*)obj;
 160:Middlewares/lvgl/src/widgets/lv_roller.c **** 
 161:Middlewares/lvgl/src/widgets/lv_roller.c ****     /*In infinite mode interpret the new ID relative to the currently visible "page"*/
 162:Middlewares/lvgl/src/widgets/lv_roller.c ****     if(roller->mode == LV_ROLLER_MODE_INFINITE) {
 163:Middlewares/lvgl/src/widgets/lv_roller.c ****         int32_t sel_opt_signed = sel_opt;
 164:Middlewares/lvgl/src/widgets/lv_roller.c ****         uint16_t page = roller->sel_opt_id / LV_ROLLER_INF_PAGES;
 165:Middlewares/lvgl/src/widgets/lv_roller.c **** 
 166:Middlewares/lvgl/src/widgets/lv_roller.c ****         /*`sel_opt` should be less than the number of options set by the user.
 167:Middlewares/lvgl/src/widgets/lv_roller.c ****          *If it's more then probably it's a reference from not the first page
 168:Middlewares/lvgl/src/widgets/lv_roller.c ****          *so normalize `sel_opt`*/
 169:Middlewares/lvgl/src/widgets/lv_roller.c ****         if(page != 0) {
 170:Middlewares/lvgl/src/widgets/lv_roller.c ****             sel_opt_signed -= page * LV_ROLLER_INF_PAGES;
 171:Middlewares/lvgl/src/widgets/lv_roller.c ****         }
 172:Middlewares/lvgl/src/widgets/lv_roller.c **** 
 173:Middlewares/lvgl/src/widgets/lv_roller.c ****         sel_opt = page * LV_ROLLER_INF_PAGES + sel_opt_signed;
 174:Middlewares/lvgl/src/widgets/lv_roller.c ****     }
 175:Middlewares/lvgl/src/widgets/lv_roller.c **** 
 176:Middlewares/lvgl/src/widgets/lv_roller.c ****     roller->sel_opt_id     = sel_opt < roller->option_cnt ? sel_opt : roller->option_cnt - 1;
 177:Middlewares/lvgl/src/widgets/lv_roller.c ****     roller->sel_opt_id_ori = roller->sel_opt_id;
 178:Middlewares/lvgl/src/widgets/lv_roller.c **** 
 179:Middlewares/lvgl/src/widgets/lv_roller.c ****     refr_position(obj, anim);
 180:Middlewares/lvgl/src/widgets/lv_roller.c **** }
 181:Middlewares/lvgl/src/widgets/lv_roller.c **** 
 182:Middlewares/lvgl/src/widgets/lv_roller.c **** /**
 183:Middlewares/lvgl/src/widgets/lv_roller.c ****  * Set the height to show the given number of rows (options)
 184:Middlewares/lvgl/src/widgets/lv_roller.c ****  * @param roller pointer to a roller object
 185:Middlewares/lvgl/src/widgets/lv_roller.c ****  * @param row_cnt number of desired visible rows
 186:Middlewares/lvgl/src/widgets/lv_roller.c ****  */
 187:Middlewares/lvgl/src/widgets/lv_roller.c **** void lv_roller_set_visible_row_count(lv_obj_t * obj, uint8_t row_cnt)
 188:Middlewares/lvgl/src/widgets/lv_roller.c **** {
 189:Middlewares/lvgl/src/widgets/lv_roller.c ****     LV_ASSERT_OBJ(obj, MY_CLASS);
 190:Middlewares/lvgl/src/widgets/lv_roller.c **** 
 191:Middlewares/lvgl/src/widgets/lv_roller.c ****     const lv_font_t * font = lv_obj_get_style_text_font(obj, LV_PART_MAIN);
 192:Middlewares/lvgl/src/widgets/lv_roller.c ****     lv_coord_t line_space = lv_obj_get_style_text_line_space(obj, LV_PART_MAIN);
 193:Middlewares/lvgl/src/widgets/lv_roller.c ****     lv_coord_t border_width = lv_obj_get_style_border_width(obj, LV_PART_MAIN);
 194:Middlewares/lvgl/src/widgets/lv_roller.c ****     lv_obj_set_height(obj, (lv_font_get_line_height(font) + line_space) * row_cnt + 2 * border_widt
 195:Middlewares/lvgl/src/widgets/lv_roller.c **** }
 196:Middlewares/lvgl/src/widgets/lv_roller.c **** 
 197:Middlewares/lvgl/src/widgets/lv_roller.c **** /*=====================
 198:Middlewares/lvgl/src/widgets/lv_roller.c ****  * Getter functions
 199:Middlewares/lvgl/src/widgets/lv_roller.c ****  *====================*/
 200:Middlewares/lvgl/src/widgets/lv_roller.c **** 
 201:Middlewares/lvgl/src/widgets/lv_roller.c **** /**
ARM GAS  /tmp/cc9MIr9f.s 			page 5


 202:Middlewares/lvgl/src/widgets/lv_roller.c ****  * Get the id of the selected option
 203:Middlewares/lvgl/src/widgets/lv_roller.c ****  * @param roller pointer to a roller object
 204:Middlewares/lvgl/src/widgets/lv_roller.c ****  * @return id of the selected option (0 ... number of option - 1);
 205:Middlewares/lvgl/src/widgets/lv_roller.c ****  */
 206:Middlewares/lvgl/src/widgets/lv_roller.c **** uint16_t lv_roller_get_selected(const lv_obj_t * obj)
 207:Middlewares/lvgl/src/widgets/lv_roller.c **** {
 208:Middlewares/lvgl/src/widgets/lv_roller.c ****     LV_ASSERT_OBJ(obj, MY_CLASS);
 209:Middlewares/lvgl/src/widgets/lv_roller.c **** 
 210:Middlewares/lvgl/src/widgets/lv_roller.c ****     lv_roller_t * roller = (lv_roller_t*)obj;
 211:Middlewares/lvgl/src/widgets/lv_roller.c ****     if(roller->mode == LV_ROLLER_MODE_INFINITE) {
 212:Middlewares/lvgl/src/widgets/lv_roller.c ****         uint16_t real_id_cnt = roller->option_cnt / LV_ROLLER_INF_PAGES;
 213:Middlewares/lvgl/src/widgets/lv_roller.c ****         return roller->sel_opt_id % real_id_cnt;
 214:Middlewares/lvgl/src/widgets/lv_roller.c ****     }
 215:Middlewares/lvgl/src/widgets/lv_roller.c ****     else {
 216:Middlewares/lvgl/src/widgets/lv_roller.c ****         return roller->sel_opt_id;
 217:Middlewares/lvgl/src/widgets/lv_roller.c ****     }
 218:Middlewares/lvgl/src/widgets/lv_roller.c **** }
 219:Middlewares/lvgl/src/widgets/lv_roller.c **** 
 220:Middlewares/lvgl/src/widgets/lv_roller.c **** /**
 221:Middlewares/lvgl/src/widgets/lv_roller.c ****  * Get the current selected option as a string
 222:Middlewares/lvgl/src/widgets/lv_roller.c ****  * @param ddlist pointer to ddlist object
 223:Middlewares/lvgl/src/widgets/lv_roller.c ****  * @param buf pointer to an array to store the string
 224:Middlewares/lvgl/src/widgets/lv_roller.c ****  * @param buf_size size of `buf` in bytes. 0: to ignore it.
 225:Middlewares/lvgl/src/widgets/lv_roller.c ****  */
 226:Middlewares/lvgl/src/widgets/lv_roller.c **** void lv_roller_get_selected_str(const lv_obj_t * obj, char * buf, uint32_t buf_size)
 227:Middlewares/lvgl/src/widgets/lv_roller.c **** {
 228:Middlewares/lvgl/src/widgets/lv_roller.c ****     LV_ASSERT_OBJ(obj, MY_CLASS);
 229:Middlewares/lvgl/src/widgets/lv_roller.c **** 
 230:Middlewares/lvgl/src/widgets/lv_roller.c ****     lv_roller_t * roller = (lv_roller_t*)obj;
 231:Middlewares/lvgl/src/widgets/lv_roller.c ****     lv_obj_t * label = get_label(obj);
 232:Middlewares/lvgl/src/widgets/lv_roller.c ****     uint32_t i;
 233:Middlewares/lvgl/src/widgets/lv_roller.c ****     uint16_t line        = 0;
 234:Middlewares/lvgl/src/widgets/lv_roller.c ****     const char * opt_txt = lv_label_get_text(label);
 235:Middlewares/lvgl/src/widgets/lv_roller.c ****     size_t txt_len     = strlen(opt_txt);
 236:Middlewares/lvgl/src/widgets/lv_roller.c **** 
 237:Middlewares/lvgl/src/widgets/lv_roller.c ****     for(i = 0; i < txt_len && line != roller->sel_opt_id; i++) {
 238:Middlewares/lvgl/src/widgets/lv_roller.c ****         if(opt_txt[i] == '\n') line++;
 239:Middlewares/lvgl/src/widgets/lv_roller.c ****     }
 240:Middlewares/lvgl/src/widgets/lv_roller.c **** 
 241:Middlewares/lvgl/src/widgets/lv_roller.c ****     uint32_t c;
 242:Middlewares/lvgl/src/widgets/lv_roller.c ****     for(c = 0; i < txt_len && opt_txt[i] != '\n'; c++, i++) {
 243:Middlewares/lvgl/src/widgets/lv_roller.c ****         if(buf_size && c >= buf_size - 1) {
 244:Middlewares/lvgl/src/widgets/lv_roller.c ****             LV_LOG_WARN("lv_dropdown_get_selected_str: the buffer was too small")
 245:Middlewares/lvgl/src/widgets/lv_roller.c ****             break;
 246:Middlewares/lvgl/src/widgets/lv_roller.c ****         }
 247:Middlewares/lvgl/src/widgets/lv_roller.c ****         buf[c] = opt_txt[i];
 248:Middlewares/lvgl/src/widgets/lv_roller.c ****     }
 249:Middlewares/lvgl/src/widgets/lv_roller.c **** 
 250:Middlewares/lvgl/src/widgets/lv_roller.c ****     buf[c] = '\0';
 251:Middlewares/lvgl/src/widgets/lv_roller.c **** }
 252:Middlewares/lvgl/src/widgets/lv_roller.c **** 
 253:Middlewares/lvgl/src/widgets/lv_roller.c **** 
 254:Middlewares/lvgl/src/widgets/lv_roller.c **** /**
 255:Middlewares/lvgl/src/widgets/lv_roller.c ****  * Get the options of a roller
 256:Middlewares/lvgl/src/widgets/lv_roller.c ****  * @param roller pointer to roller object
 257:Middlewares/lvgl/src/widgets/lv_roller.c ****  * @return the options separated by '\n'-s (E.g. "Option1\nOption2\nOption3")
 258:Middlewares/lvgl/src/widgets/lv_roller.c ****  */
ARM GAS  /tmp/cc9MIr9f.s 			page 6


 259:Middlewares/lvgl/src/widgets/lv_roller.c **** const char * lv_roller_get_options(const lv_obj_t * obj)
 260:Middlewares/lvgl/src/widgets/lv_roller.c **** {
 261:Middlewares/lvgl/src/widgets/lv_roller.c ****     LV_ASSERT_OBJ(obj, MY_CLASS);
 262:Middlewares/lvgl/src/widgets/lv_roller.c **** 
 263:Middlewares/lvgl/src/widgets/lv_roller.c ****     return lv_label_get_text(get_label(obj));
 264:Middlewares/lvgl/src/widgets/lv_roller.c **** }
 265:Middlewares/lvgl/src/widgets/lv_roller.c **** 
 266:Middlewares/lvgl/src/widgets/lv_roller.c **** 
 267:Middlewares/lvgl/src/widgets/lv_roller.c **** /**
 268:Middlewares/lvgl/src/widgets/lv_roller.c ****  * Get the total number of options
 269:Middlewares/lvgl/src/widgets/lv_roller.c ****  * @param roller pointer to a roller object
 270:Middlewares/lvgl/src/widgets/lv_roller.c ****  * @return the total number of options
 271:Middlewares/lvgl/src/widgets/lv_roller.c ****  */
 272:Middlewares/lvgl/src/widgets/lv_roller.c **** uint16_t lv_roller_get_option_cnt(const lv_obj_t * obj)
 273:Middlewares/lvgl/src/widgets/lv_roller.c **** {
 274:Middlewares/lvgl/src/widgets/lv_roller.c ****     LV_ASSERT_OBJ(obj, MY_CLASS);
 275:Middlewares/lvgl/src/widgets/lv_roller.c **** 
 276:Middlewares/lvgl/src/widgets/lv_roller.c ****     lv_roller_t * roller = (lv_roller_t*)obj;
 277:Middlewares/lvgl/src/widgets/lv_roller.c ****     if(roller->mode == LV_ROLLER_MODE_INFINITE) {
 278:Middlewares/lvgl/src/widgets/lv_roller.c ****         return roller->option_cnt / LV_ROLLER_INF_PAGES;
 279:Middlewares/lvgl/src/widgets/lv_roller.c ****     }
 280:Middlewares/lvgl/src/widgets/lv_roller.c ****     else {
 281:Middlewares/lvgl/src/widgets/lv_roller.c ****         return roller->option_cnt;
 282:Middlewares/lvgl/src/widgets/lv_roller.c ****     }
 283:Middlewares/lvgl/src/widgets/lv_roller.c **** }
 284:Middlewares/lvgl/src/widgets/lv_roller.c **** 
 285:Middlewares/lvgl/src/widgets/lv_roller.c **** /**********************
 286:Middlewares/lvgl/src/widgets/lv_roller.c ****  *   STATIC FUNCTIONS
 287:Middlewares/lvgl/src/widgets/lv_roller.c ****  **********************/
 288:Middlewares/lvgl/src/widgets/lv_roller.c **** 
 289:Middlewares/lvgl/src/widgets/lv_roller.c **** 
 290:Middlewares/lvgl/src/widgets/lv_roller.c **** static void lv_roller_constructor(const lv_obj_class_t * class_p, lv_obj_t * obj)
 291:Middlewares/lvgl/src/widgets/lv_roller.c **** {
 292:Middlewares/lvgl/src/widgets/lv_roller.c ****     LV_UNUSED(class_p);
 293:Middlewares/lvgl/src/widgets/lv_roller.c ****     lv_roller_t * roller = (lv_roller_t*)obj;
 294:Middlewares/lvgl/src/widgets/lv_roller.c **** 
 295:Middlewares/lvgl/src/widgets/lv_roller.c ****     roller->mode = LV_ROLLER_MODE_NORMAL;
 296:Middlewares/lvgl/src/widgets/lv_roller.c ****     roller->option_cnt = 0;
 297:Middlewares/lvgl/src/widgets/lv_roller.c ****     roller->sel_opt_id = 0;
 298:Middlewares/lvgl/src/widgets/lv_roller.c ****     roller->sel_opt_id_ori = 0;
 299:Middlewares/lvgl/src/widgets/lv_roller.c **** 
 300:Middlewares/lvgl/src/widgets/lv_roller.c ****     lv_obj_clear_flag(obj, LV_OBJ_FLAG_SCROLLABLE);
 301:Middlewares/lvgl/src/widgets/lv_roller.c ****     lv_obj_clear_flag(obj, LV_OBJ_FLAG_SCROLL_CHAIN);
 302:Middlewares/lvgl/src/widgets/lv_roller.c **** 
 303:Middlewares/lvgl/src/widgets/lv_roller.c ****     LV_LOG_INFO("begin")
 304:Middlewares/lvgl/src/widgets/lv_roller.c ****     lv_obj_t * label = lv_obj_class_create_obj(&lv_roller_label_class, obj);
 305:Middlewares/lvgl/src/widgets/lv_roller.c ****     lv_obj_class_init_obj(label);
 306:Middlewares/lvgl/src/widgets/lv_roller.c ****     lv_roller_set_options(obj, "Option 1\nOption 2\nOption 3\nOption 4\nOption 5", LV_ROLLER_MODE_N
 307:Middlewares/lvgl/src/widgets/lv_roller.c **** 
 308:Middlewares/lvgl/src/widgets/lv_roller.c ****     LV_LOG_TRACE("finshed");
 309:Middlewares/lvgl/src/widgets/lv_roller.c **** }
 310:Middlewares/lvgl/src/widgets/lv_roller.c **** 
 311:Middlewares/lvgl/src/widgets/lv_roller.c **** static void lv_roller_event(const lv_obj_class_t * class_p, lv_event_t * e)
 312:Middlewares/lvgl/src/widgets/lv_roller.c **** {
 313:Middlewares/lvgl/src/widgets/lv_roller.c ****     LV_UNUSED(class_p);
 314:Middlewares/lvgl/src/widgets/lv_roller.c **** 
 315:Middlewares/lvgl/src/widgets/lv_roller.c ****     lv_res_t res;
ARM GAS  /tmp/cc9MIr9f.s 			page 7


 316:Middlewares/lvgl/src/widgets/lv_roller.c **** 
 317:Middlewares/lvgl/src/widgets/lv_roller.c ****     /*Call the ancestor's event handler*/
 318:Middlewares/lvgl/src/widgets/lv_roller.c ****     res = lv_obj_event_base(MY_CLASS, e);
 319:Middlewares/lvgl/src/widgets/lv_roller.c ****     if(res != LV_RES_OK) return;
 320:Middlewares/lvgl/src/widgets/lv_roller.c **** 
 321:Middlewares/lvgl/src/widgets/lv_roller.c ****     lv_event_code_t code = lv_event_get_code(e);
 322:Middlewares/lvgl/src/widgets/lv_roller.c ****     lv_obj_t * obj = lv_event_get_target(e);
 323:Middlewares/lvgl/src/widgets/lv_roller.c ****     lv_roller_t * roller = (lv_roller_t*)obj;
 324:Middlewares/lvgl/src/widgets/lv_roller.c **** 
 325:Middlewares/lvgl/src/widgets/lv_roller.c ****     if(code == LV_EVENT_GET_SELF_SIZE) {
 326:Middlewares/lvgl/src/widgets/lv_roller.c ****         lv_point_t * p = lv_event_get_param(e);
 327:Middlewares/lvgl/src/widgets/lv_roller.c ****         p->x =  get_selected_label_width(obj);
 328:Middlewares/lvgl/src/widgets/lv_roller.c ****     }
 329:Middlewares/lvgl/src/widgets/lv_roller.c ****     else if(code == LV_EVENT_STYLE_CHANGED) {
 330:Middlewares/lvgl/src/widgets/lv_roller.c ****         lv_obj_t * label = get_label(obj);
 331:Middlewares/lvgl/src/widgets/lv_roller.c ****         /*Be sure the label's style is updated before processing the roller*/
 332:Middlewares/lvgl/src/widgets/lv_roller.c ****         if(label) lv_event_send(label, LV_EVENT_STYLE_CHANGED, NULL);
 333:Middlewares/lvgl/src/widgets/lv_roller.c ****         lv_obj_refresh_self_size(obj);
 334:Middlewares/lvgl/src/widgets/lv_roller.c ****         refr_position(obj, false);
 335:Middlewares/lvgl/src/widgets/lv_roller.c ****     }
 336:Middlewares/lvgl/src/widgets/lv_roller.c ****     else if(code == LV_EVENT_SIZE_CHANGED) {
 337:Middlewares/lvgl/src/widgets/lv_roller.c ****         refr_position(obj, false);
 338:Middlewares/lvgl/src/widgets/lv_roller.c ****     }
 339:Middlewares/lvgl/src/widgets/lv_roller.c ****     else if(code == LV_EVENT_PRESSED) {
 340:Middlewares/lvgl/src/widgets/lv_roller.c ****         roller->moved = 0;
 341:Middlewares/lvgl/src/widgets/lv_roller.c ****         lv_anim_del(get_label(obj), set_y_anim);
 342:Middlewares/lvgl/src/widgets/lv_roller.c ****     }
 343:Middlewares/lvgl/src/widgets/lv_roller.c ****     else if(code == LV_EVENT_PRESSING) {
 344:Middlewares/lvgl/src/widgets/lv_roller.c ****         lv_indev_t * indev = lv_indev_get_act();
 345:Middlewares/lvgl/src/widgets/lv_roller.c ****         lv_point_t p;
 346:Middlewares/lvgl/src/widgets/lv_roller.c ****         lv_indev_get_vect(indev, &p);
 347:Middlewares/lvgl/src/widgets/lv_roller.c ****         if(p.y) {
 348:Middlewares/lvgl/src/widgets/lv_roller.c ****             lv_obj_t * label = get_label(obj);
 349:Middlewares/lvgl/src/widgets/lv_roller.c ****             lv_obj_set_y(label, lv_obj_get_y(label) + p.y);
 350:Middlewares/lvgl/src/widgets/lv_roller.c ****             roller->moved = 1;
 351:Middlewares/lvgl/src/widgets/lv_roller.c ****         }
 352:Middlewares/lvgl/src/widgets/lv_roller.c ****     }
 353:Middlewares/lvgl/src/widgets/lv_roller.c ****     else if(code == LV_EVENT_RELEASED) {
 354:Middlewares/lvgl/src/widgets/lv_roller.c ****         release_handler(obj);
 355:Middlewares/lvgl/src/widgets/lv_roller.c ****     }
 356:Middlewares/lvgl/src/widgets/lv_roller.c ****     else if(code == LV_EVENT_FOCUSED) {
 357:Middlewares/lvgl/src/widgets/lv_roller.c ****         lv_group_t * g             = lv_obj_get_group(obj);
 358:Middlewares/lvgl/src/widgets/lv_roller.c ****         bool editing               = lv_group_get_editing(g);
 359:Middlewares/lvgl/src/widgets/lv_roller.c ****         lv_indev_type_t indev_type = lv_indev_get_type(lv_indev_get_act());
 360:Middlewares/lvgl/src/widgets/lv_roller.c **** 
 361:Middlewares/lvgl/src/widgets/lv_roller.c ****         /*Encoders need special handling*/
 362:Middlewares/lvgl/src/widgets/lv_roller.c ****         if(indev_type == LV_INDEV_TYPE_ENCODER) {
 363:Middlewares/lvgl/src/widgets/lv_roller.c ****             /*In navigate mode revert the original value*/
 364:Middlewares/lvgl/src/widgets/lv_roller.c ****             if(!editing) {
 365:Middlewares/lvgl/src/widgets/lv_roller.c ****                 if(roller->sel_opt_id != roller->sel_opt_id_ori) {
 366:Middlewares/lvgl/src/widgets/lv_roller.c ****                     roller->sel_opt_id = roller->sel_opt_id_ori;
 367:Middlewares/lvgl/src/widgets/lv_roller.c ****                     refr_position(obj, true);
 368:Middlewares/lvgl/src/widgets/lv_roller.c ****                 }
 369:Middlewares/lvgl/src/widgets/lv_roller.c ****             }
 370:Middlewares/lvgl/src/widgets/lv_roller.c ****             /*Save the current state when entered to edit mode*/
 371:Middlewares/lvgl/src/widgets/lv_roller.c ****             else {
 372:Middlewares/lvgl/src/widgets/lv_roller.c ****                 roller->sel_opt_id_ori = roller->sel_opt_id;
ARM GAS  /tmp/cc9MIr9f.s 			page 8


 373:Middlewares/lvgl/src/widgets/lv_roller.c ****             }
 374:Middlewares/lvgl/src/widgets/lv_roller.c ****         }
 375:Middlewares/lvgl/src/widgets/lv_roller.c ****         else {
 376:Middlewares/lvgl/src/widgets/lv_roller.c ****             roller->sel_opt_id_ori = roller->sel_opt_id; /*Save the current value. Used to revert t
 377:Middlewares/lvgl/src/widgets/lv_roller.c ****                                                                     ENTER won't be pressed*/
 378:Middlewares/lvgl/src/widgets/lv_roller.c ****         }
 379:Middlewares/lvgl/src/widgets/lv_roller.c ****     }
 380:Middlewares/lvgl/src/widgets/lv_roller.c ****     else if(code == LV_EVENT_DEFOCUSED) {
 381:Middlewares/lvgl/src/widgets/lv_roller.c ****         /*Revert the original state*/
 382:Middlewares/lvgl/src/widgets/lv_roller.c ****         if(roller->sel_opt_id != roller->sel_opt_id_ori) {
 383:Middlewares/lvgl/src/widgets/lv_roller.c ****             roller->sel_opt_id = roller->sel_opt_id_ori;
 384:Middlewares/lvgl/src/widgets/lv_roller.c ****             refr_position(obj, true);
 385:Middlewares/lvgl/src/widgets/lv_roller.c ****         }
 386:Middlewares/lvgl/src/widgets/lv_roller.c ****     }
 387:Middlewares/lvgl/src/widgets/lv_roller.c ****     else if(code == LV_EVENT_KEY) {
 388:Middlewares/lvgl/src/widgets/lv_roller.c ****         char c = *((char *)lv_event_get_param(e));
 389:Middlewares/lvgl/src/widgets/lv_roller.c ****         if(c == LV_KEY_RIGHT || c == LV_KEY_DOWN) {
 390:Middlewares/lvgl/src/widgets/lv_roller.c ****             if(roller->sel_opt_id + 1 < roller->option_cnt) {
 391:Middlewares/lvgl/src/widgets/lv_roller.c ****                 uint16_t ori_id = roller->sel_opt_id_ori; /*lv_roller_set_selected will overwrite t
 392:Middlewares/lvgl/src/widgets/lv_roller.c ****                 lv_roller_set_selected(obj, roller->sel_opt_id + 1, true);
 393:Middlewares/lvgl/src/widgets/lv_roller.c ****                 roller->sel_opt_id_ori = ori_id;
 394:Middlewares/lvgl/src/widgets/lv_roller.c ****             }
 395:Middlewares/lvgl/src/widgets/lv_roller.c ****         }
 396:Middlewares/lvgl/src/widgets/lv_roller.c ****         else if(c == LV_KEY_LEFT || c == LV_KEY_UP) {
 397:Middlewares/lvgl/src/widgets/lv_roller.c ****             if(roller->sel_opt_id > 0) {
 398:Middlewares/lvgl/src/widgets/lv_roller.c ****                 uint16_t ori_id = roller->sel_opt_id_ori; /*lv_roller_set_selected will overwrite t
 399:Middlewares/lvgl/src/widgets/lv_roller.c **** 
 400:Middlewares/lvgl/src/widgets/lv_roller.c ****                 lv_roller_set_selected(obj, roller->sel_opt_id - 1, true);
 401:Middlewares/lvgl/src/widgets/lv_roller.c ****                 roller->sel_opt_id_ori = ori_id;
 402:Middlewares/lvgl/src/widgets/lv_roller.c ****             }
 403:Middlewares/lvgl/src/widgets/lv_roller.c ****         }
 404:Middlewares/lvgl/src/widgets/lv_roller.c ****     }
 405:Middlewares/lvgl/src/widgets/lv_roller.c ****     else if(code == LV_EVENT_DRAW_MAIN || code == LV_EVENT_DRAW_POST) {
 406:Middlewares/lvgl/src/widgets/lv_roller.c ****         draw_main(e);
 407:Middlewares/lvgl/src/widgets/lv_roller.c ****     }
 408:Middlewares/lvgl/src/widgets/lv_roller.c **** }
 409:Middlewares/lvgl/src/widgets/lv_roller.c **** 
 410:Middlewares/lvgl/src/widgets/lv_roller.c **** static void lv_roller_label_event(const lv_obj_class_t * class_p, lv_event_t * e)
 411:Middlewares/lvgl/src/widgets/lv_roller.c **** {
 412:Middlewares/lvgl/src/widgets/lv_roller.c ****     LV_UNUSED(class_p);
 413:Middlewares/lvgl/src/widgets/lv_roller.c **** 
 414:Middlewares/lvgl/src/widgets/lv_roller.c ****     lv_res_t res;
 415:Middlewares/lvgl/src/widgets/lv_roller.c **** 
 416:Middlewares/lvgl/src/widgets/lv_roller.c ****     lv_event_code_t code = lv_event_get_code(e);
 417:Middlewares/lvgl/src/widgets/lv_roller.c ****     /*LV_EVENT_DRAW_MAIN will be called in the draw function*/
 418:Middlewares/lvgl/src/widgets/lv_roller.c ****     if(code != LV_EVENT_DRAW_MAIN) {
 419:Middlewares/lvgl/src/widgets/lv_roller.c ****         /* Call the ancestor's event handler */
 420:Middlewares/lvgl/src/widgets/lv_roller.c ****         res = lv_obj_event_base(MY_CLASS_LABEL, e);
 421:Middlewares/lvgl/src/widgets/lv_roller.c ****         if(res != LV_RES_OK) return;
 422:Middlewares/lvgl/src/widgets/lv_roller.c ****     }
 423:Middlewares/lvgl/src/widgets/lv_roller.c **** 
 424:Middlewares/lvgl/src/widgets/lv_roller.c ****     lv_obj_t * label = lv_event_get_target(e);
 425:Middlewares/lvgl/src/widgets/lv_roller.c ****     if(code == LV_EVENT_REFR_EXT_DRAW_SIZE) {
 426:Middlewares/lvgl/src/widgets/lv_roller.c ****         /*If the selected text has a larger font it needs some extra space to draw it*/
 427:Middlewares/lvgl/src/widgets/lv_roller.c ****         lv_coord_t * s = lv_event_get_param(e);
 428:Middlewares/lvgl/src/widgets/lv_roller.c ****         lv_obj_t * obj = lv_obj_get_parent(label);
 429:Middlewares/lvgl/src/widgets/lv_roller.c ****         lv_coord_t sel_w = get_selected_label_width(obj);
ARM GAS  /tmp/cc9MIr9f.s 			page 9


 430:Middlewares/lvgl/src/widgets/lv_roller.c ****         lv_coord_t label_w = lv_obj_get_width(label);
 431:Middlewares/lvgl/src/widgets/lv_roller.c ****         *s = LV_MAX(*s, sel_w - label_w);
 432:Middlewares/lvgl/src/widgets/lv_roller.c ****     }
 433:Middlewares/lvgl/src/widgets/lv_roller.c ****     else if(code == LV_EVENT_SIZE_CHANGED) {
 434:Middlewares/lvgl/src/widgets/lv_roller.c ****         refr_position(lv_obj_get_parent(label), LV_ANIM_OFF);
 435:Middlewares/lvgl/src/widgets/lv_roller.c ****     }
 436:Middlewares/lvgl/src/widgets/lv_roller.c ****     else if(code == LV_EVENT_DRAW_MAIN) {
 437:Middlewares/lvgl/src/widgets/lv_roller.c ****         draw_label(e);
 438:Middlewares/lvgl/src/widgets/lv_roller.c ****     }
 439:Middlewares/lvgl/src/widgets/lv_roller.c **** }
 440:Middlewares/lvgl/src/widgets/lv_roller.c **** 
 441:Middlewares/lvgl/src/widgets/lv_roller.c **** 
 442:Middlewares/lvgl/src/widgets/lv_roller.c **** static void draw_main(lv_event_t * e)
 443:Middlewares/lvgl/src/widgets/lv_roller.c **** {
 444:Middlewares/lvgl/src/widgets/lv_roller.c ****     lv_event_code_t code = lv_event_get_code(e);
 445:Middlewares/lvgl/src/widgets/lv_roller.c ****     lv_obj_t * obj = lv_event_get_target(e);
 446:Middlewares/lvgl/src/widgets/lv_roller.c ****     if(code == LV_EVENT_DRAW_MAIN) {
 447:Middlewares/lvgl/src/widgets/lv_roller.c ****         /*Draw the selected rectangle*/
 448:Middlewares/lvgl/src/widgets/lv_roller.c ****         const lv_area_t * clip_area = lv_event_get_param(e);
 449:Middlewares/lvgl/src/widgets/lv_roller.c ****         const lv_font_t * font = lv_obj_get_style_text_font(obj, LV_PART_MAIN);
 450:Middlewares/lvgl/src/widgets/lv_roller.c ****         lv_coord_t line_space = lv_obj_get_style_text_line_space(obj, LV_PART_MAIN);
 451:Middlewares/lvgl/src/widgets/lv_roller.c ****         lv_coord_t font_h        = lv_font_get_line_height(font);
 452:Middlewares/lvgl/src/widgets/lv_roller.c ****         lv_area_t rect_area;
 453:Middlewares/lvgl/src/widgets/lv_roller.c ****         rect_area.y1 = obj->coords.y1 + (lv_obj_get_height(obj) - font_h - line_space) / 2;
 454:Middlewares/lvgl/src/widgets/lv_roller.c ****         rect_area.y2 = rect_area.y1 + font_h + line_space - 1;
 455:Middlewares/lvgl/src/widgets/lv_roller.c ****         lv_area_t roller_coords;
 456:Middlewares/lvgl/src/widgets/lv_roller.c ****         lv_obj_get_coords(obj, &roller_coords);
 457:Middlewares/lvgl/src/widgets/lv_roller.c **** 
 458:Middlewares/lvgl/src/widgets/lv_roller.c ****         rect_area.x1 = roller_coords.x1;
 459:Middlewares/lvgl/src/widgets/lv_roller.c ****         rect_area.x2 = roller_coords.x2;
 460:Middlewares/lvgl/src/widgets/lv_roller.c **** 
 461:Middlewares/lvgl/src/widgets/lv_roller.c ****         lv_draw_rect_dsc_t sel_dsc;
 462:Middlewares/lvgl/src/widgets/lv_roller.c ****         lv_draw_rect_dsc_init(&sel_dsc);
 463:Middlewares/lvgl/src/widgets/lv_roller.c ****         lv_obj_init_draw_rect_dsc(obj, LV_PART_SELECTED, &sel_dsc);
 464:Middlewares/lvgl/src/widgets/lv_roller.c ****         lv_draw_rect(&rect_area, clip_area, &sel_dsc);
 465:Middlewares/lvgl/src/widgets/lv_roller.c ****     }
 466:Middlewares/lvgl/src/widgets/lv_roller.c ****     /*Post draw when the children are drawn*/
 467:Middlewares/lvgl/src/widgets/lv_roller.c ****     else if(code == LV_EVENT_DRAW_POST) {
 468:Middlewares/lvgl/src/widgets/lv_roller.c ****         const lv_area_t * clip_area = lv_event_get_param(e);
 469:Middlewares/lvgl/src/widgets/lv_roller.c **** 
 470:Middlewares/lvgl/src/widgets/lv_roller.c ****         lv_draw_label_dsc_t label_dsc;
 471:Middlewares/lvgl/src/widgets/lv_roller.c ****         lv_draw_label_dsc_init(&label_dsc);
 472:Middlewares/lvgl/src/widgets/lv_roller.c ****         lv_obj_init_draw_label_dsc(obj, LV_PART_SELECTED, &label_dsc);
 473:Middlewares/lvgl/src/widgets/lv_roller.c **** 
 474:Middlewares/lvgl/src/widgets/lv_roller.c ****         lv_coord_t bg_font_h = lv_font_get_line_height(lv_obj_get_style_text_font(obj, LV_PART_MAIN
 475:Middlewares/lvgl/src/widgets/lv_roller.c **** 
 476:Middlewares/lvgl/src/widgets/lv_roller.c ****         /*Redraw the text on the selected area*/
 477:Middlewares/lvgl/src/widgets/lv_roller.c ****         lv_area_t rect_area;
 478:Middlewares/lvgl/src/widgets/lv_roller.c ****         rect_area.y1 = obj->coords.y1 + (lv_obj_get_height(obj) - bg_font_h - label_dsc.line_space)
 479:Middlewares/lvgl/src/widgets/lv_roller.c ****         rect_area.y2 = rect_area.y1 + bg_font_h + label_dsc.line_space - 1;
 480:Middlewares/lvgl/src/widgets/lv_roller.c ****         rect_area.x1 = obj->coords.x1;
 481:Middlewares/lvgl/src/widgets/lv_roller.c ****         rect_area.x2 = obj->coords.x2;
 482:Middlewares/lvgl/src/widgets/lv_roller.c ****         lv_area_t mask_sel;
 483:Middlewares/lvgl/src/widgets/lv_roller.c ****         bool area_ok;
 484:Middlewares/lvgl/src/widgets/lv_roller.c ****         area_ok = _lv_area_intersect(&mask_sel, clip_area, &rect_area);
 485:Middlewares/lvgl/src/widgets/lv_roller.c ****         if(area_ok) {
 486:Middlewares/lvgl/src/widgets/lv_roller.c ****             lv_obj_t * label = get_label(obj);
ARM GAS  /tmp/cc9MIr9f.s 			page 10


 487:Middlewares/lvgl/src/widgets/lv_roller.c **** 
 488:Middlewares/lvgl/src/widgets/lv_roller.c ****             /*Get the size of the "selected text"*/
 489:Middlewares/lvgl/src/widgets/lv_roller.c ****             lv_point_t res_p;
 490:Middlewares/lvgl/src/widgets/lv_roller.c ****             lv_txt_get_size(&res_p, lv_label_get_text(label), label_dsc.font, label_dsc.letter_spac
 491:Middlewares/lvgl/src/widgets/lv_roller.c ****                              lv_obj_get_width(obj), LV_TEXT_FLAG_EXPAND);
 492:Middlewares/lvgl/src/widgets/lv_roller.c **** 
 493:Middlewares/lvgl/src/widgets/lv_roller.c ****             /*Move the selected label proportionally with the background label*/
 494:Middlewares/lvgl/src/widgets/lv_roller.c ****             lv_coord_t roller_h = lv_obj_get_height(obj);
 495:Middlewares/lvgl/src/widgets/lv_roller.c ****             int32_t label_y_prop = label->coords.y1 - (roller_h / 2 +
 496:Middlewares/lvgl/src/widgets/lv_roller.c ****                     obj->coords.y1); /*label offset from the middle line of the roller*/
 497:Middlewares/lvgl/src/widgets/lv_roller.c ****             label_y_prop = (label_y_prop * 16384) / lv_obj_get_height(
 498:Middlewares/lvgl/src/widgets/lv_roller.c ****                                label); /*Proportional position from the middle line (upscaled by <<
 499:Middlewares/lvgl/src/widgets/lv_roller.c **** 
 500:Middlewares/lvgl/src/widgets/lv_roller.c ****             /*Apply a correction with different line heights*/
 501:Middlewares/lvgl/src/widgets/lv_roller.c ****             const lv_font_t * normal_label_font = lv_obj_get_style_text_font(obj, LV_PART_MAIN);
 502:Middlewares/lvgl/src/widgets/lv_roller.c ****             lv_coord_t corr = (label_dsc.font->line_height - normal_label_font->line_height) / 2;
 503:Middlewares/lvgl/src/widgets/lv_roller.c **** 
 504:Middlewares/lvgl/src/widgets/lv_roller.c ****             /*Apply the proportional position to the selected text*/
 505:Middlewares/lvgl/src/widgets/lv_roller.c ****             res_p.y -= corr;
 506:Middlewares/lvgl/src/widgets/lv_roller.c ****             int32_t label_sel_y = roller_h / 2 + obj->coords.y1;
 507:Middlewares/lvgl/src/widgets/lv_roller.c ****             label_sel_y += (label_y_prop * res_p.y) >> 14;
 508:Middlewares/lvgl/src/widgets/lv_roller.c ****             label_sel_y -= corr;
 509:Middlewares/lvgl/src/widgets/lv_roller.c **** 
 510:Middlewares/lvgl/src/widgets/lv_roller.c ****             /*Draw the selected text*/
 511:Middlewares/lvgl/src/widgets/lv_roller.c ****             lv_area_t label_sel_area;
 512:Middlewares/lvgl/src/widgets/lv_roller.c ****             label_sel_area.x1 = label->coords.x1;
 513:Middlewares/lvgl/src/widgets/lv_roller.c ****             label_sel_area.y1 = label_sel_y;
 514:Middlewares/lvgl/src/widgets/lv_roller.c ****             label_sel_area.x2 = label->coords.x2;
 515:Middlewares/lvgl/src/widgets/lv_roller.c ****             label_sel_area.y2 = label_sel_area.y1 + res_p.y;
 516:Middlewares/lvgl/src/widgets/lv_roller.c **** 
 517:Middlewares/lvgl/src/widgets/lv_roller.c ****             label_dsc.flag |= LV_TEXT_FLAG_EXPAND;
 518:Middlewares/lvgl/src/widgets/lv_roller.c ****             lv_draw_label(&label_sel_area, &mask_sel, &label_dsc, lv_label_get_text(label), NULL);
 519:Middlewares/lvgl/src/widgets/lv_roller.c ****         }
 520:Middlewares/lvgl/src/widgets/lv_roller.c ****     }
 521:Middlewares/lvgl/src/widgets/lv_roller.c **** }
 522:Middlewares/lvgl/src/widgets/lv_roller.c **** 
 523:Middlewares/lvgl/src/widgets/lv_roller.c **** static void draw_label(lv_event_t * e)
 524:Middlewares/lvgl/src/widgets/lv_roller.c **** {
 525:Middlewares/lvgl/src/widgets/lv_roller.c ****     /* Split the drawing of the label into  an upper (above the selected area)
 526:Middlewares/lvgl/src/widgets/lv_roller.c ****      * and a lower (below the selected area)*/
 527:Middlewares/lvgl/src/widgets/lv_roller.c ****     lv_obj_t * label_obj = lv_event_get_target(e);
 528:Middlewares/lvgl/src/widgets/lv_roller.c ****     lv_obj_t * roller = lv_obj_get_parent(label_obj);
 529:Middlewares/lvgl/src/widgets/lv_roller.c ****     lv_draw_label_dsc_t label_draw_dsc;
 530:Middlewares/lvgl/src/widgets/lv_roller.c ****     lv_draw_label_dsc_init(&label_draw_dsc);
 531:Middlewares/lvgl/src/widgets/lv_roller.c ****     lv_obj_init_draw_label_dsc(roller, LV_PART_MAIN, &label_draw_dsc);
 532:Middlewares/lvgl/src/widgets/lv_roller.c ****     const lv_font_t * font = label_draw_dsc.font;
 533:Middlewares/lvgl/src/widgets/lv_roller.c ****     lv_coord_t line_space = label_draw_dsc.line_space;
 534:Middlewares/lvgl/src/widgets/lv_roller.c ****     lv_coord_t font_h        = lv_font_get_line_height(font);
 535:Middlewares/lvgl/src/widgets/lv_roller.c ****     const lv_area_t * clip_area = lv_event_get_param(e);
 536:Middlewares/lvgl/src/widgets/lv_roller.c **** 
 537:Middlewares/lvgl/src/widgets/lv_roller.c ****     lv_area_t rect_area;
 538:Middlewares/lvgl/src/widgets/lv_roller.c ****     rect_area.y1 = roller->coords.y1 + (lv_obj_get_height(roller) - font_h - line_space) / 2;
 539:Middlewares/lvgl/src/widgets/lv_roller.c ****     if((font_h & 0x1) && (line_space & 0x1)) rect_area.y1--; /*Compensate the two rounding error*/
 540:Middlewares/lvgl/src/widgets/lv_roller.c ****     rect_area.y2 = rect_area.y1 + font_h + line_space - 1;
 541:Middlewares/lvgl/src/widgets/lv_roller.c ****     lv_area_t roller_coords;
 542:Middlewares/lvgl/src/widgets/lv_roller.c ****     lv_obj_get_coords(roller, &roller_coords);
 543:Middlewares/lvgl/src/widgets/lv_roller.c **** 
ARM GAS  /tmp/cc9MIr9f.s 			page 11


 544:Middlewares/lvgl/src/widgets/lv_roller.c ****     rect_area.x1 = roller_coords.x1;
 545:Middlewares/lvgl/src/widgets/lv_roller.c ****     rect_area.x2 = roller_coords.x2;
 546:Middlewares/lvgl/src/widgets/lv_roller.c **** 
 547:Middlewares/lvgl/src/widgets/lv_roller.c ****     lv_area_t clip2;
 548:Middlewares/lvgl/src/widgets/lv_roller.c ****     clip2.x1 = label_obj->coords.x1;
 549:Middlewares/lvgl/src/widgets/lv_roller.c ****     clip2.y1 = label_obj->coords.y1;
 550:Middlewares/lvgl/src/widgets/lv_roller.c ****     clip2.x2 = label_obj->coords.x2;
 551:Middlewares/lvgl/src/widgets/lv_roller.c ****     clip2.y2 = rect_area.y1;
 552:Middlewares/lvgl/src/widgets/lv_roller.c ****     if(_lv_area_intersect(&clip2, clip_area, &clip2)) {
 553:Middlewares/lvgl/src/widgets/lv_roller.c ****         lv_draw_label(&label_obj->coords, &clip2, &label_draw_dsc, lv_label_get_text(label_obj), NU
 554:Middlewares/lvgl/src/widgets/lv_roller.c ****     }
 555:Middlewares/lvgl/src/widgets/lv_roller.c **** 
 556:Middlewares/lvgl/src/widgets/lv_roller.c ****     clip2.x1 = label_obj->coords.x1;
 557:Middlewares/lvgl/src/widgets/lv_roller.c ****     clip2.y1 = rect_area.y2;
 558:Middlewares/lvgl/src/widgets/lv_roller.c ****     clip2.x2 = label_obj->coords.x2;
 559:Middlewares/lvgl/src/widgets/lv_roller.c ****     clip2.y2 = label_obj->coords.y2;
 560:Middlewares/lvgl/src/widgets/lv_roller.c ****     if(_lv_area_intersect(&clip2, clip_area, &clip2)) {
 561:Middlewares/lvgl/src/widgets/lv_roller.c ****         lv_draw_label(&label_obj->coords, &clip2, &label_draw_dsc, lv_label_get_text(label_obj), NU
 562:Middlewares/lvgl/src/widgets/lv_roller.c ****     }
 563:Middlewares/lvgl/src/widgets/lv_roller.c **** }
 564:Middlewares/lvgl/src/widgets/lv_roller.c **** 
 565:Middlewares/lvgl/src/widgets/lv_roller.c **** 
 566:Middlewares/lvgl/src/widgets/lv_roller.c **** /**
 567:Middlewares/lvgl/src/widgets/lv_roller.c ****  * Refresh the position of the roller. It uses the id stored in: roller->ddlist.selected_option_id
 568:Middlewares/lvgl/src/widgets/lv_roller.c ****  * @param roller pointer to a roller object
 569:Middlewares/lvgl/src/widgets/lv_roller.c ****  * @param anim_en LV_ANIM_ON: refresh with animation; LV_ANOM_OFF: without animation
 570:Middlewares/lvgl/src/widgets/lv_roller.c ****  */
 571:Middlewares/lvgl/src/widgets/lv_roller.c **** static void refr_position(lv_obj_t * obj, lv_anim_enable_t anim_en)
 572:Middlewares/lvgl/src/widgets/lv_roller.c **** {
 573:Middlewares/lvgl/src/widgets/lv_roller.c ****     lv_obj_t * label = get_label(obj);
 574:Middlewares/lvgl/src/widgets/lv_roller.c ****     if(label == NULL) return;
 575:Middlewares/lvgl/src/widgets/lv_roller.c **** 
 576:Middlewares/lvgl/src/widgets/lv_roller.c ****     lv_text_align_t align = lv_obj_get_style_text_align(label, LV_PART_MAIN);
 577:Middlewares/lvgl/src/widgets/lv_roller.c ****     if(align == LV_TEXT_ALIGN_AUTO) {
 578:Middlewares/lvgl/src/widgets/lv_roller.c ****         if(lv_obj_get_style_base_dir(obj, LV_PART_MAIN) == LV_BASE_DIR_RTL) align = LV_TEXT_ALIGN_R
 579:Middlewares/lvgl/src/widgets/lv_roller.c ****         else align = LV_TEXT_ALIGN_LEFT;
 580:Middlewares/lvgl/src/widgets/lv_roller.c ****     }
 581:Middlewares/lvgl/src/widgets/lv_roller.c **** 
 582:Middlewares/lvgl/src/widgets/lv_roller.c ****     switch(align) {
 583:Middlewares/lvgl/src/widgets/lv_roller.c ****     case LV_TEXT_ALIGN_CENTER:
 584:Middlewares/lvgl/src/widgets/lv_roller.c ****         lv_obj_set_x(label, (lv_obj_get_content_width(obj) - lv_obj_get_width(label)) / 2);
 585:Middlewares/lvgl/src/widgets/lv_roller.c ****         break;
 586:Middlewares/lvgl/src/widgets/lv_roller.c ****     case LV_TEXT_ALIGN_RIGHT:
 587:Middlewares/lvgl/src/widgets/lv_roller.c ****         lv_obj_set_x(label, lv_obj_get_content_width(obj) - lv_obj_get_width(label));
 588:Middlewares/lvgl/src/widgets/lv_roller.c ****         break;
 589:Middlewares/lvgl/src/widgets/lv_roller.c ****     case LV_TEXT_ALIGN_LEFT:
 590:Middlewares/lvgl/src/widgets/lv_roller.c ****         lv_obj_set_x(label, 0);
 591:Middlewares/lvgl/src/widgets/lv_roller.c ****         break;
 592:Middlewares/lvgl/src/widgets/lv_roller.c ****     }
 593:Middlewares/lvgl/src/widgets/lv_roller.c **** 
 594:Middlewares/lvgl/src/widgets/lv_roller.c ****     lv_roller_t * roller = (lv_roller_t*)obj;
 595:Middlewares/lvgl/src/widgets/lv_roller.c ****     const lv_font_t * font = lv_obj_get_style_text_font(obj, LV_PART_MAIN);
 596:Middlewares/lvgl/src/widgets/lv_roller.c ****     lv_coord_t line_space = lv_obj_get_style_text_line_space(obj, LV_PART_MAIN);
 597:Middlewares/lvgl/src/widgets/lv_roller.c ****     lv_coord_t font_h              = lv_font_get_line_height(font);
 598:Middlewares/lvgl/src/widgets/lv_roller.c ****     lv_coord_t h                   = lv_obj_get_content_height(obj);
 599:Middlewares/lvgl/src/widgets/lv_roller.c ****     uint16_t anim_time             = lv_obj_get_style_anim_time(obj, LV_PART_MAIN);
 600:Middlewares/lvgl/src/widgets/lv_roller.c **** 
ARM GAS  /tmp/cc9MIr9f.s 			page 12


 601:Middlewares/lvgl/src/widgets/lv_roller.c ****     /*Normally the animation's `end_cb` sets correct position of the roller if infinite.
 602:Middlewares/lvgl/src/widgets/lv_roller.c ****      *But without animations do it manually*/
 603:Middlewares/lvgl/src/widgets/lv_roller.c ****     if(anim_en == LV_ANIM_OFF || anim_time == 0) {
 604:Middlewares/lvgl/src/widgets/lv_roller.c ****         inf_normalize(obj);
 605:Middlewares/lvgl/src/widgets/lv_roller.c ****     }
 606:Middlewares/lvgl/src/widgets/lv_roller.c **** 
 607:Middlewares/lvgl/src/widgets/lv_roller.c ****     int32_t id = roller->sel_opt_id;
 608:Middlewares/lvgl/src/widgets/lv_roller.c ****     lv_coord_t sel_y1 = id * (font_h + line_space);
 609:Middlewares/lvgl/src/widgets/lv_roller.c ****     lv_coord_t mid_y1 = h / 2 - font_h / 2;
 610:Middlewares/lvgl/src/widgets/lv_roller.c **** 
 611:Middlewares/lvgl/src/widgets/lv_roller.c ****     lv_coord_t new_y = mid_y1 - sel_y1;
 612:Middlewares/lvgl/src/widgets/lv_roller.c **** 
 613:Middlewares/lvgl/src/widgets/lv_roller.c ****     if(anim_en == LV_ANIM_OFF || anim_time == 0) {
 614:Middlewares/lvgl/src/widgets/lv_roller.c ****         lv_anim_del(label, set_y_anim);
 615:Middlewares/lvgl/src/widgets/lv_roller.c ****         lv_obj_set_y(label, new_y);
 616:Middlewares/lvgl/src/widgets/lv_roller.c ****     }
 617:Middlewares/lvgl/src/widgets/lv_roller.c ****     else {
 618:Middlewares/lvgl/src/widgets/lv_roller.c ****         lv_anim_t a;
 619:Middlewares/lvgl/src/widgets/lv_roller.c ****         lv_anim_init(&a);
 620:Middlewares/lvgl/src/widgets/lv_roller.c ****         lv_anim_set_var(&a, label);
 621:Middlewares/lvgl/src/widgets/lv_roller.c ****         lv_anim_set_exec_cb(&a, set_y_anim);
 622:Middlewares/lvgl/src/widgets/lv_roller.c ****         lv_anim_set_values(&a, lv_obj_get_y(label), new_y);
 623:Middlewares/lvgl/src/widgets/lv_roller.c ****         lv_anim_set_time(&a, anim_time);
 624:Middlewares/lvgl/src/widgets/lv_roller.c ****         lv_anim_set_ready_cb(&a, scroll_anim_ready_cb);
 625:Middlewares/lvgl/src/widgets/lv_roller.c ****         lv_anim_set_path_cb(&a, lv_anim_path_ease_out);
 626:Middlewares/lvgl/src/widgets/lv_roller.c ****         lv_anim_start(&a);
 627:Middlewares/lvgl/src/widgets/lv_roller.c ****     }
 628:Middlewares/lvgl/src/widgets/lv_roller.c **** }
 629:Middlewares/lvgl/src/widgets/lv_roller.c **** 
 630:Middlewares/lvgl/src/widgets/lv_roller.c **** static lv_res_t release_handler(lv_obj_t * obj)
 631:Middlewares/lvgl/src/widgets/lv_roller.c **** {
 632:Middlewares/lvgl/src/widgets/lv_roller.c ****     lv_obj_t * label = get_label(obj);
 633:Middlewares/lvgl/src/widgets/lv_roller.c ****     if(label == NULL) return LV_RES_OK;
 634:Middlewares/lvgl/src/widgets/lv_roller.c **** 
 635:Middlewares/lvgl/src/widgets/lv_roller.c ****     lv_indev_t * indev = lv_indev_get_act();
 636:Middlewares/lvgl/src/widgets/lv_roller.c ****     lv_roller_t * roller = (lv_roller_t*)obj;
 637:Middlewares/lvgl/src/widgets/lv_roller.c **** 
 638:Middlewares/lvgl/src/widgets/lv_roller.c ****     /*Leave edit mode once a new option is selected*/
 639:Middlewares/lvgl/src/widgets/lv_roller.c ****     lv_indev_type_t indev_type = lv_indev_get_type(indev);
 640:Middlewares/lvgl/src/widgets/lv_roller.c ****     if(indev_type == LV_INDEV_TYPE_ENCODER || indev_type == LV_INDEV_TYPE_KEYPAD) {
 641:Middlewares/lvgl/src/widgets/lv_roller.c ****         roller->sel_opt_id_ori = roller->sel_opt_id;
 642:Middlewares/lvgl/src/widgets/lv_roller.c **** 
 643:Middlewares/lvgl/src/widgets/lv_roller.c ****         if(indev_type == LV_INDEV_TYPE_ENCODER) {
 644:Middlewares/lvgl/src/widgets/lv_roller.c ****             lv_group_t * g      = lv_obj_get_group(obj);
 645:Middlewares/lvgl/src/widgets/lv_roller.c ****             if(lv_group_get_editing(g)) {
 646:Middlewares/lvgl/src/widgets/lv_roller.c ****                 lv_group_set_editing(g, false);
 647:Middlewares/lvgl/src/widgets/lv_roller.c ****             }
 648:Middlewares/lvgl/src/widgets/lv_roller.c ****         }
 649:Middlewares/lvgl/src/widgets/lv_roller.c ****     }
 650:Middlewares/lvgl/src/widgets/lv_roller.c **** 
 651:Middlewares/lvgl/src/widgets/lv_roller.c ****     if(lv_indev_get_type(indev) == LV_INDEV_TYPE_POINTER || lv_indev_get_type(indev) == LV_INDEV_TY
 652:Middlewares/lvgl/src/widgets/lv_roller.c ****         /*Search the clicked option (For KEYPAD and ENCODER the new value should be already set)*/
 653:Middlewares/lvgl/src/widgets/lv_roller.c ****         int16_t new_opt  = -1;
 654:Middlewares/lvgl/src/widgets/lv_roller.c ****         if(roller->moved == 0) {
 655:Middlewares/lvgl/src/widgets/lv_roller.c ****             new_opt = 0;
 656:Middlewares/lvgl/src/widgets/lv_roller.c ****             lv_point_t p;
 657:Middlewares/lvgl/src/widgets/lv_roller.c ****             lv_indev_get_point(indev, &p);
ARM GAS  /tmp/cc9MIr9f.s 			page 13


 658:Middlewares/lvgl/src/widgets/lv_roller.c ****             p.y -= label->coords.y1;
 659:Middlewares/lvgl/src/widgets/lv_roller.c ****             p.x -= label->coords.x1;
 660:Middlewares/lvgl/src/widgets/lv_roller.c ****             uint32_t letter_i;
 661:Middlewares/lvgl/src/widgets/lv_roller.c ****             letter_i = lv_label_get_letter_on(label, &p);
 662:Middlewares/lvgl/src/widgets/lv_roller.c **** 
 663:Middlewares/lvgl/src/widgets/lv_roller.c ****             const char * txt  = lv_label_get_text(label);
 664:Middlewares/lvgl/src/widgets/lv_roller.c ****             uint32_t i        = 0;
 665:Middlewares/lvgl/src/widgets/lv_roller.c ****             uint32_t i_prev   = 0;
 666:Middlewares/lvgl/src/widgets/lv_roller.c **** 
 667:Middlewares/lvgl/src/widgets/lv_roller.c ****             uint32_t letter_cnt = 0;
 668:Middlewares/lvgl/src/widgets/lv_roller.c ****             for(letter_cnt = 0; letter_cnt < letter_i; letter_cnt++) {
 669:Middlewares/lvgl/src/widgets/lv_roller.c ****                 uint32_t letter = _lv_txt_encoded_next(txt, &i);
 670:Middlewares/lvgl/src/widgets/lv_roller.c ****                 /*Count he lines to reach the clicked letter. But ignore the last '\n' because it
 671:Middlewares/lvgl/src/widgets/lv_roller.c ****                  * still belongs to the clicked line*/
 672:Middlewares/lvgl/src/widgets/lv_roller.c ****                 if(letter == '\n' && i_prev != letter_i) new_opt++;
 673:Middlewares/lvgl/src/widgets/lv_roller.c ****                 i_prev = i;
 674:Middlewares/lvgl/src/widgets/lv_roller.c ****             }
 675:Middlewares/lvgl/src/widgets/lv_roller.c ****         } else {
 676:Middlewares/lvgl/src/widgets/lv_roller.c ****             /*If dragged then align the list to have an element in the middle*/
 677:Middlewares/lvgl/src/widgets/lv_roller.c ****             const lv_font_t * font = lv_obj_get_style_text_font(obj, LV_PART_MAIN);
 678:Middlewares/lvgl/src/widgets/lv_roller.c ****             lv_coord_t line_space = lv_obj_get_style_text_line_space(obj, LV_PART_MAIN);
 679:Middlewares/lvgl/src/widgets/lv_roller.c ****             lv_coord_t font_h              = lv_font_get_line_height(font);
 680:Middlewares/lvgl/src/widgets/lv_roller.c **** 
 681:Middlewares/lvgl/src/widgets/lv_roller.c ****             lv_coord_t label_unit = font_h + line_space;
 682:Middlewares/lvgl/src/widgets/lv_roller.c ****             lv_coord_t mid        = obj->coords.y1 + (obj->coords.y2 - obj->coords.y1) / 2;
 683:Middlewares/lvgl/src/widgets/lv_roller.c ****             lv_coord_t label_y1 = label->coords.y1 + lv_indev_scroll_throw_predict(indev, LV_DIR_VE
 684:Middlewares/lvgl/src/widgets/lv_roller.c ****             int32_t id = (mid - label_y1) / label_unit;
 685:Middlewares/lvgl/src/widgets/lv_roller.c **** 
 686:Middlewares/lvgl/src/widgets/lv_roller.c ****             if(id < 0) id = 0;
 687:Middlewares/lvgl/src/widgets/lv_roller.c ****             if(id >= roller->option_cnt) id = roller->option_cnt - 1;
 688:Middlewares/lvgl/src/widgets/lv_roller.c **** 
 689:Middlewares/lvgl/src/widgets/lv_roller.c ****             new_opt = id;
 690:Middlewares/lvgl/src/widgets/lv_roller.c ****         }
 691:Middlewares/lvgl/src/widgets/lv_roller.c **** 
 692:Middlewares/lvgl/src/widgets/lv_roller.c ****         if(new_opt >= 0) {
 693:Middlewares/lvgl/src/widgets/lv_roller.c ****             lv_roller_set_selected(obj, new_opt, LV_ANIM_ON);
 694:Middlewares/lvgl/src/widgets/lv_roller.c ****         }
 695:Middlewares/lvgl/src/widgets/lv_roller.c ****     }
 696:Middlewares/lvgl/src/widgets/lv_roller.c **** 
 697:Middlewares/lvgl/src/widgets/lv_roller.c ****     uint32_t id  = roller->sel_opt_id; /*Just to use uint32_t in event data*/
 698:Middlewares/lvgl/src/widgets/lv_roller.c ****     lv_res_t res = lv_event_send(obj, LV_EVENT_VALUE_CHANGED, &id);
 699:Middlewares/lvgl/src/widgets/lv_roller.c ****     return res;
 700:Middlewares/lvgl/src/widgets/lv_roller.c **** }
 701:Middlewares/lvgl/src/widgets/lv_roller.c **** 
 702:Middlewares/lvgl/src/widgets/lv_roller.c **** /**
 703:Middlewares/lvgl/src/widgets/lv_roller.c ****  * Set the middle page for the roller if infinite is enabled
 704:Middlewares/lvgl/src/widgets/lv_roller.c ****  * @param roller pointer to a roller object
 705:Middlewares/lvgl/src/widgets/lv_roller.c ****  */
 706:Middlewares/lvgl/src/widgets/lv_roller.c **** static void inf_normalize(lv_obj_t * obj)
 707:Middlewares/lvgl/src/widgets/lv_roller.c **** {
 708:Middlewares/lvgl/src/widgets/lv_roller.c ****     lv_roller_t * roller = (lv_roller_t*)obj;
 709:Middlewares/lvgl/src/widgets/lv_roller.c **** 
 710:Middlewares/lvgl/src/widgets/lv_roller.c ****     if(roller->mode == LV_ROLLER_MODE_INFINITE) {
 711:Middlewares/lvgl/src/widgets/lv_roller.c ****         uint16_t real_id_cnt = roller->option_cnt / LV_ROLLER_INF_PAGES;
 712:Middlewares/lvgl/src/widgets/lv_roller.c ****         roller->sel_opt_id = roller->sel_opt_id % real_id_cnt;
 713:Middlewares/lvgl/src/widgets/lv_roller.c ****         roller->sel_opt_id += (LV_ROLLER_INF_PAGES / 2) * real_id_cnt; /*Select the middle page*/
 714:Middlewares/lvgl/src/widgets/lv_roller.c **** 
ARM GAS  /tmp/cc9MIr9f.s 			page 14


 715:Middlewares/lvgl/src/widgets/lv_roller.c ****         roller->sel_opt_id_ori = roller->sel_opt_id % real_id_cnt;
 716:Middlewares/lvgl/src/widgets/lv_roller.c ****         roller->sel_opt_id_ori += (LV_ROLLER_INF_PAGES / 2) * real_id_cnt; /*Select the middle page
 717:Middlewares/lvgl/src/widgets/lv_roller.c **** 
 718:Middlewares/lvgl/src/widgets/lv_roller.c ****         /*Move to the new id*/
 719:Middlewares/lvgl/src/widgets/lv_roller.c ****         const lv_font_t * font = lv_obj_get_style_text_font(obj, LV_PART_MAIN);
 720:Middlewares/lvgl/src/widgets/lv_roller.c ****         lv_coord_t line_space = lv_obj_get_style_text_line_space(obj, LV_PART_MAIN);
 721:Middlewares/lvgl/src/widgets/lv_roller.c ****         lv_coord_t font_h              = lv_font_get_line_height(font);
 722:Middlewares/lvgl/src/widgets/lv_roller.c ****         lv_coord_t h                   = lv_obj_get_content_height(obj);
 723:Middlewares/lvgl/src/widgets/lv_roller.c **** 
 724:Middlewares/lvgl/src/widgets/lv_roller.c ****         lv_obj_t * label = get_label(obj);
 725:Middlewares/lvgl/src/widgets/lv_roller.c **** 
 726:Middlewares/lvgl/src/widgets/lv_roller.c **** 
 727:Middlewares/lvgl/src/widgets/lv_roller.c ****         lv_coord_t sel_y1 = roller->sel_opt_id * (font_h + line_space);
 728:Middlewares/lvgl/src/widgets/lv_roller.c ****         lv_coord_t mid_y1 = h / 2 - font_h / 2;
 729:Middlewares/lvgl/src/widgets/lv_roller.c ****         lv_coord_t new_y = mid_y1 - sel_y1;
 730:Middlewares/lvgl/src/widgets/lv_roller.c ****         lv_obj_set_y(label, new_y);
 731:Middlewares/lvgl/src/widgets/lv_roller.c ****     }
 732:Middlewares/lvgl/src/widgets/lv_roller.c **** }
 733:Middlewares/lvgl/src/widgets/lv_roller.c **** 
 734:Middlewares/lvgl/src/widgets/lv_roller.c **** static lv_obj_t * get_label(const lv_obj_t * obj)
 735:Middlewares/lvgl/src/widgets/lv_roller.c **** {
 736:Middlewares/lvgl/src/widgets/lv_roller.c ****     return lv_obj_get_child(obj, 0);
 737:Middlewares/lvgl/src/widgets/lv_roller.c **** }
 738:Middlewares/lvgl/src/widgets/lv_roller.c **** 
 739:Middlewares/lvgl/src/widgets/lv_roller.c **** 
 740:Middlewares/lvgl/src/widgets/lv_roller.c **** static lv_coord_t get_selected_label_width(const lv_obj_t * obj)
 741:Middlewares/lvgl/src/widgets/lv_roller.c **** {
 742:Middlewares/lvgl/src/widgets/lv_roller.c ****     lv_obj_t * label = get_label(obj);
 743:Middlewares/lvgl/src/widgets/lv_roller.c ****     if(label == NULL) return 0;
 744:Middlewares/lvgl/src/widgets/lv_roller.c **** 
 745:Middlewares/lvgl/src/widgets/lv_roller.c ****     const lv_font_t * font = lv_obj_get_style_text_font(obj, LV_PART_SELECTED);
 746:Middlewares/lvgl/src/widgets/lv_roller.c ****     lv_coord_t letter_space = lv_obj_get_style_text_letter_space(obj, LV_PART_SELECTED);
 747:Middlewares/lvgl/src/widgets/lv_roller.c ****     const char * txt = lv_label_get_text(label);
 748:Middlewares/lvgl/src/widgets/lv_roller.c ****     lv_point_t size;
 749:Middlewares/lvgl/src/widgets/lv_roller.c ****     lv_txt_get_size(&size, txt, font, letter_space, 0, LV_COORD_MAX,  LV_TEXT_FLAG_NONE);
 750:Middlewares/lvgl/src/widgets/lv_roller.c ****     return size.x;
 751:Middlewares/lvgl/src/widgets/lv_roller.c **** }
 752:Middlewares/lvgl/src/widgets/lv_roller.c **** 
 753:Middlewares/lvgl/src/widgets/lv_roller.c **** static void scroll_anim_ready_cb(lv_anim_t * a)
 754:Middlewares/lvgl/src/widgets/lv_roller.c **** {
 755:Middlewares/lvgl/src/widgets/lv_roller.c ****     lv_obj_t * obj = lv_obj_get_parent(a->var); /*The label is animated*/
 756:Middlewares/lvgl/src/widgets/lv_roller.c ****     inf_normalize(obj);
 757:Middlewares/lvgl/src/widgets/lv_roller.c **** }
 758:Middlewares/lvgl/src/widgets/lv_roller.c **** 
 759:Middlewares/lvgl/src/widgets/lv_roller.c **** 
 760:Middlewares/lvgl/src/widgets/lv_roller.c **** static void set_y_anim(void * obj, int32_t v)
 761:Middlewares/lvgl/src/widgets/lv_roller.c **** {
  29              		.loc 1 761 1 view -0
  30              		.cfi_startproc
  31              		@ args = 0, pretend = 0, frame = 0
  32              		@ frame_needed = 0, uses_anonymous_args = 0
  33              		.loc 1 761 1 is_stmt 0 view .LVU1
  34 0000 08B5     		push	{r3, lr}
  35              	.LCFI0:
  36              		.cfi_def_cfa_offset 8
  37              		.cfi_offset 3, -8
  38              		.cfi_offset 14, -4
ARM GAS  /tmp/cc9MIr9f.s 			page 15


 762:Middlewares/lvgl/src/widgets/lv_roller.c ****     lv_obj_set_y(obj, v);
  39              		.loc 1 762 5 is_stmt 1 view .LVU2
  40 0002 09B2     		sxth	r1, r1
  41              	.LVL1:
  42              		.loc 1 762 5 is_stmt 0 view .LVU3
  43 0004 FFF7FEFF 		bl	lv_obj_set_y
  44              	.LVL2:
 763:Middlewares/lvgl/src/widgets/lv_roller.c **** }
  45              		.loc 1 763 1 view .LVU4
  46 0008 08BD     		pop	{r3, pc}
  47              		.cfi_endproc
  48              	.LFE166:
  50              		.section	.text.get_label,"ax",%progbits
  51              		.align	1
  52              		.syntax unified
  53              		.thumb
  54              		.thumb_func
  55              		.fpu fpv4-sp-d16
  57              	get_label:
  58              	.LVL3:
  59              	.LFB163:
 735:Middlewares/lvgl/src/widgets/lv_roller.c ****     return lv_obj_get_child(obj, 0);
  60              		.loc 1 735 1 is_stmt 1 view -0
  61              		.cfi_startproc
  62              		@ args = 0, pretend = 0, frame = 0
  63              		@ frame_needed = 0, uses_anonymous_args = 0
 735:Middlewares/lvgl/src/widgets/lv_roller.c ****     return lv_obj_get_child(obj, 0);
  64              		.loc 1 735 1 is_stmt 0 view .LVU6
  65 0000 08B5     		push	{r3, lr}
  66              	.LCFI1:
  67              		.cfi_def_cfa_offset 8
  68              		.cfi_offset 3, -8
  69              		.cfi_offset 14, -4
 736:Middlewares/lvgl/src/widgets/lv_roller.c **** }
  70              		.loc 1 736 5 is_stmt 1 view .LVU7
 736:Middlewares/lvgl/src/widgets/lv_roller.c **** }
  71              		.loc 1 736 12 is_stmt 0 view .LVU8
  72 0002 0021     		movs	r1, #0
  73 0004 FFF7FEFF 		bl	lv_obj_get_child
  74              	.LVL4:
 737:Middlewares/lvgl/src/widgets/lv_roller.c **** 
  75              		.loc 1 737 1 view .LVU9
  76 0008 08BD     		pop	{r3, pc}
  77              		.cfi_endproc
  78              	.LFE163:
  80              		.section	.text.get_selected_label_width,"ax",%progbits
  81              		.align	1
  82              		.syntax unified
  83              		.thumb
  84              		.thumb_func
  85              		.fpu fpv4-sp-d16
  87              	get_selected_label_width:
  88              	.LVL5:
  89              	.LFB164:
 741:Middlewares/lvgl/src/widgets/lv_roller.c ****     lv_obj_t * label = get_label(obj);
  90              		.loc 1 741 1 is_stmt 1 view -0
  91              		.cfi_startproc
ARM GAS  /tmp/cc9MIr9f.s 			page 16


  92              		@ args = 0, pretend = 0, frame = 8
  93              		@ frame_needed = 0, uses_anonymous_args = 0
 741:Middlewares/lvgl/src/widgets/lv_roller.c ****     lv_obj_t * label = get_label(obj);
  94              		.loc 1 741 1 is_stmt 0 view .LVU11
  95 0000 70B5     		push	{r4, r5, r6, lr}
  96              	.LCFI2:
  97              		.cfi_def_cfa_offset 16
  98              		.cfi_offset 4, -16
  99              		.cfi_offset 5, -12
 100              		.cfi_offset 6, -8
 101              		.cfi_offset 14, -4
 102 0002 86B0     		sub	sp, sp, #24
 103              	.LCFI3:
 104              		.cfi_def_cfa_offset 40
 105 0004 0446     		mov	r4, r0
 742:Middlewares/lvgl/src/widgets/lv_roller.c ****     if(label == NULL) return 0;
 106              		.loc 1 742 5 is_stmt 1 view .LVU12
 742:Middlewares/lvgl/src/widgets/lv_roller.c ****     if(label == NULL) return 0;
 107              		.loc 1 742 24 is_stmt 0 view .LVU13
 108 0006 FFF7FEFF 		bl	get_label
 109              	.LVL6:
 743:Middlewares/lvgl/src/widgets/lv_roller.c **** 
 110              		.loc 1 743 5 is_stmt 1 view .LVU14
 743:Middlewares/lvgl/src/widgets/lv_roller.c **** 
 111              		.loc 1 743 7 is_stmt 0 view .LVU15
 112 000a 18B3     		cbz	r0, .L7
 113 000c 0646     		mov	r6, r0
 745:Middlewares/lvgl/src/widgets/lv_roller.c ****     lv_coord_t letter_space = lv_obj_get_style_text_letter_space(obj, LV_PART_SELECTED);
 114              		.loc 1 745 5 is_stmt 1 view .LVU16
 115              	.LVL7:
 116              	.LBB74:
 117              	.LBI74:
 118              		.file 2 "Middlewares/lvgl/src/widgets/../core/lv_obj_style_gen.h"
   1:Middlewares/lvgl/src/widgets/../core/lv_obj_style_gen.h **** static inline lv_coord_t lv_obj_get_style_width(const struct _lv_obj_t * obj, uint32_t part)
   2:Middlewares/lvgl/src/widgets/../core/lv_obj_style_gen.h **** {
   3:Middlewares/lvgl/src/widgets/../core/lv_obj_style_gen.h ****     lv_style_value_t v = lv_obj_get_style_prop(obj, part, LV_STYLE_WIDTH);
   4:Middlewares/lvgl/src/widgets/../core/lv_obj_style_gen.h ****     return (lv_coord_t)v.num;
   5:Middlewares/lvgl/src/widgets/../core/lv_obj_style_gen.h **** }
   6:Middlewares/lvgl/src/widgets/../core/lv_obj_style_gen.h **** 
   7:Middlewares/lvgl/src/widgets/../core/lv_obj_style_gen.h **** static inline lv_coord_t lv_obj_get_style_min_width(const struct _lv_obj_t * obj, uint32_t part)
   8:Middlewares/lvgl/src/widgets/../core/lv_obj_style_gen.h **** {
   9:Middlewares/lvgl/src/widgets/../core/lv_obj_style_gen.h ****     lv_style_value_t v = lv_obj_get_style_prop(obj, part, LV_STYLE_MIN_WIDTH);
  10:Middlewares/lvgl/src/widgets/../core/lv_obj_style_gen.h ****     return (lv_coord_t)v.num;
  11:Middlewares/lvgl/src/widgets/../core/lv_obj_style_gen.h **** }
  12:Middlewares/lvgl/src/widgets/../core/lv_obj_style_gen.h **** 
  13:Middlewares/lvgl/src/widgets/../core/lv_obj_style_gen.h **** static inline lv_coord_t lv_obj_get_style_max_width(const struct _lv_obj_t * obj, uint32_t part)
  14:Middlewares/lvgl/src/widgets/../core/lv_obj_style_gen.h **** {
  15:Middlewares/lvgl/src/widgets/../core/lv_obj_style_gen.h ****     lv_style_value_t v = lv_obj_get_style_prop(obj, part, LV_STYLE_MAX_WIDTH);
  16:Middlewares/lvgl/src/widgets/../core/lv_obj_style_gen.h ****     return (lv_coord_t)v.num;
  17:Middlewares/lvgl/src/widgets/../core/lv_obj_style_gen.h **** }
  18:Middlewares/lvgl/src/widgets/../core/lv_obj_style_gen.h **** 
  19:Middlewares/lvgl/src/widgets/../core/lv_obj_style_gen.h **** static inline lv_coord_t lv_obj_get_style_height(const struct _lv_obj_t * obj, uint32_t part)
  20:Middlewares/lvgl/src/widgets/../core/lv_obj_style_gen.h **** {
  21:Middlewares/lvgl/src/widgets/../core/lv_obj_style_gen.h ****     lv_style_value_t v = lv_obj_get_style_prop(obj, part, LV_STYLE_HEIGHT);
  22:Middlewares/lvgl/src/widgets/../core/lv_obj_style_gen.h ****     return (lv_coord_t)v.num;
  23:Middlewares/lvgl/src/widgets/../core/lv_obj_style_gen.h **** }
  24:Middlewares/lvgl/src/widgets/../core/lv_obj_style_gen.h **** 
ARM GAS  /tmp/cc9MIr9f.s 			page 17


  25:Middlewares/lvgl/src/widgets/../core/lv_obj_style_gen.h **** static inline lv_coord_t lv_obj_get_style_min_height(const struct _lv_obj_t * obj, uint32_t part)
  26:Middlewares/lvgl/src/widgets/../core/lv_obj_style_gen.h **** {
  27:Middlewares/lvgl/src/widgets/../core/lv_obj_style_gen.h ****     lv_style_value_t v = lv_obj_get_style_prop(obj, part, LV_STYLE_MIN_HEIGHT);
  28:Middlewares/lvgl/src/widgets/../core/lv_obj_style_gen.h ****     return (lv_coord_t)v.num;
  29:Middlewares/lvgl/src/widgets/../core/lv_obj_style_gen.h **** }
  30:Middlewares/lvgl/src/widgets/../core/lv_obj_style_gen.h **** 
  31:Middlewares/lvgl/src/widgets/../core/lv_obj_style_gen.h **** static inline lv_coord_t lv_obj_get_style_max_height(const struct _lv_obj_t * obj, uint32_t part)
  32:Middlewares/lvgl/src/widgets/../core/lv_obj_style_gen.h **** {
  33:Middlewares/lvgl/src/widgets/../core/lv_obj_style_gen.h ****     lv_style_value_t v = lv_obj_get_style_prop(obj, part, LV_STYLE_MAX_HEIGHT);
  34:Middlewares/lvgl/src/widgets/../core/lv_obj_style_gen.h ****     return (lv_coord_t)v.num;
  35:Middlewares/lvgl/src/widgets/../core/lv_obj_style_gen.h **** }
  36:Middlewares/lvgl/src/widgets/../core/lv_obj_style_gen.h **** 
  37:Middlewares/lvgl/src/widgets/../core/lv_obj_style_gen.h **** static inline lv_coord_t lv_obj_get_style_x(const struct _lv_obj_t * obj, uint32_t part)
  38:Middlewares/lvgl/src/widgets/../core/lv_obj_style_gen.h **** {
  39:Middlewares/lvgl/src/widgets/../core/lv_obj_style_gen.h ****     lv_style_value_t v = lv_obj_get_style_prop(obj, part, LV_STYLE_X);
  40:Middlewares/lvgl/src/widgets/../core/lv_obj_style_gen.h ****     return (lv_coord_t)v.num;
  41:Middlewares/lvgl/src/widgets/../core/lv_obj_style_gen.h **** }
  42:Middlewares/lvgl/src/widgets/../core/lv_obj_style_gen.h **** 
  43:Middlewares/lvgl/src/widgets/../core/lv_obj_style_gen.h **** static inline lv_coord_t lv_obj_get_style_y(const struct _lv_obj_t * obj, uint32_t part)
  44:Middlewares/lvgl/src/widgets/../core/lv_obj_style_gen.h **** {
  45:Middlewares/lvgl/src/widgets/../core/lv_obj_style_gen.h ****     lv_style_value_t v = lv_obj_get_style_prop(obj, part, LV_STYLE_Y);
  46:Middlewares/lvgl/src/widgets/../core/lv_obj_style_gen.h ****     return (lv_coord_t)v.num;
  47:Middlewares/lvgl/src/widgets/../core/lv_obj_style_gen.h **** }
  48:Middlewares/lvgl/src/widgets/../core/lv_obj_style_gen.h **** 
  49:Middlewares/lvgl/src/widgets/../core/lv_obj_style_gen.h **** static inline lv_align_t lv_obj_get_style_align(const struct _lv_obj_t * obj, uint32_t part)
  50:Middlewares/lvgl/src/widgets/../core/lv_obj_style_gen.h **** {
  51:Middlewares/lvgl/src/widgets/../core/lv_obj_style_gen.h ****     lv_style_value_t v = lv_obj_get_style_prop(obj, part, LV_STYLE_ALIGN);
  52:Middlewares/lvgl/src/widgets/../core/lv_obj_style_gen.h ****     return (lv_align_t)v.num;
  53:Middlewares/lvgl/src/widgets/../core/lv_obj_style_gen.h **** }
  54:Middlewares/lvgl/src/widgets/../core/lv_obj_style_gen.h **** 
  55:Middlewares/lvgl/src/widgets/../core/lv_obj_style_gen.h **** static inline lv_coord_t lv_obj_get_style_transform_width(const struct _lv_obj_t * obj, uint32_t pa
  56:Middlewares/lvgl/src/widgets/../core/lv_obj_style_gen.h **** {
  57:Middlewares/lvgl/src/widgets/../core/lv_obj_style_gen.h ****     lv_style_value_t v = lv_obj_get_style_prop(obj, part, LV_STYLE_TRANSFORM_WIDTH);
  58:Middlewares/lvgl/src/widgets/../core/lv_obj_style_gen.h ****     return (lv_coord_t)v.num;
  59:Middlewares/lvgl/src/widgets/../core/lv_obj_style_gen.h **** }
  60:Middlewares/lvgl/src/widgets/../core/lv_obj_style_gen.h **** 
  61:Middlewares/lvgl/src/widgets/../core/lv_obj_style_gen.h **** static inline lv_coord_t lv_obj_get_style_transform_height(const struct _lv_obj_t * obj, uint32_t p
  62:Middlewares/lvgl/src/widgets/../core/lv_obj_style_gen.h **** {
  63:Middlewares/lvgl/src/widgets/../core/lv_obj_style_gen.h ****     lv_style_value_t v = lv_obj_get_style_prop(obj, part, LV_STYLE_TRANSFORM_HEIGHT);
  64:Middlewares/lvgl/src/widgets/../core/lv_obj_style_gen.h ****     return (lv_coord_t)v.num;
  65:Middlewares/lvgl/src/widgets/../core/lv_obj_style_gen.h **** }
  66:Middlewares/lvgl/src/widgets/../core/lv_obj_style_gen.h **** 
  67:Middlewares/lvgl/src/widgets/../core/lv_obj_style_gen.h **** static inline lv_coord_t lv_obj_get_style_translate_x(const struct _lv_obj_t * obj, uint32_t part)
  68:Middlewares/lvgl/src/widgets/../core/lv_obj_style_gen.h **** {
  69:Middlewares/lvgl/src/widgets/../core/lv_obj_style_gen.h ****     lv_style_value_t v = lv_obj_get_style_prop(obj, part, LV_STYLE_TRANSLATE_X);
  70:Middlewares/lvgl/src/widgets/../core/lv_obj_style_gen.h ****     return (lv_coord_t)v.num;
  71:Middlewares/lvgl/src/widgets/../core/lv_obj_style_gen.h **** }
  72:Middlewares/lvgl/src/widgets/../core/lv_obj_style_gen.h **** 
  73:Middlewares/lvgl/src/widgets/../core/lv_obj_style_gen.h **** static inline lv_coord_t lv_obj_get_style_translate_y(const struct _lv_obj_t * obj, uint32_t part)
  74:Middlewares/lvgl/src/widgets/../core/lv_obj_style_gen.h **** {
  75:Middlewares/lvgl/src/widgets/../core/lv_obj_style_gen.h ****     lv_style_value_t v = lv_obj_get_style_prop(obj, part, LV_STYLE_TRANSLATE_Y);
  76:Middlewares/lvgl/src/widgets/../core/lv_obj_style_gen.h ****     return (lv_coord_t)v.num;
  77:Middlewares/lvgl/src/widgets/../core/lv_obj_style_gen.h **** }
  78:Middlewares/lvgl/src/widgets/../core/lv_obj_style_gen.h **** 
  79:Middlewares/lvgl/src/widgets/../core/lv_obj_style_gen.h **** static inline lv_coord_t lv_obj_get_style_transform_zoom(const struct _lv_obj_t * obj, uint32_t par
  80:Middlewares/lvgl/src/widgets/../core/lv_obj_style_gen.h **** {
  81:Middlewares/lvgl/src/widgets/../core/lv_obj_style_gen.h ****     lv_style_value_t v = lv_obj_get_style_prop(obj, part, LV_STYLE_TRANSFORM_ZOOM);
ARM GAS  /tmp/cc9MIr9f.s 			page 18


  82:Middlewares/lvgl/src/widgets/../core/lv_obj_style_gen.h ****     return (lv_coord_t)v.num;
  83:Middlewares/lvgl/src/widgets/../core/lv_obj_style_gen.h **** }
  84:Middlewares/lvgl/src/widgets/../core/lv_obj_style_gen.h **** 
  85:Middlewares/lvgl/src/widgets/../core/lv_obj_style_gen.h **** static inline lv_coord_t lv_obj_get_style_transform_angle(const struct _lv_obj_t * obj, uint32_t pa
  86:Middlewares/lvgl/src/widgets/../core/lv_obj_style_gen.h **** {
  87:Middlewares/lvgl/src/widgets/../core/lv_obj_style_gen.h ****     lv_style_value_t v = lv_obj_get_style_prop(obj, part, LV_STYLE_TRANSFORM_ANGLE);
  88:Middlewares/lvgl/src/widgets/../core/lv_obj_style_gen.h ****     return (lv_coord_t)v.num;
  89:Middlewares/lvgl/src/widgets/../core/lv_obj_style_gen.h **** }
  90:Middlewares/lvgl/src/widgets/../core/lv_obj_style_gen.h **** 
  91:Middlewares/lvgl/src/widgets/../core/lv_obj_style_gen.h **** static inline lv_coord_t lv_obj_get_style_pad_top(const struct _lv_obj_t * obj, uint32_t part)
  92:Middlewares/lvgl/src/widgets/../core/lv_obj_style_gen.h **** {
  93:Middlewares/lvgl/src/widgets/../core/lv_obj_style_gen.h ****     lv_style_value_t v = lv_obj_get_style_prop(obj, part, LV_STYLE_PAD_TOP);
  94:Middlewares/lvgl/src/widgets/../core/lv_obj_style_gen.h ****     return (lv_coord_t)v.num;
  95:Middlewares/lvgl/src/widgets/../core/lv_obj_style_gen.h **** }
  96:Middlewares/lvgl/src/widgets/../core/lv_obj_style_gen.h **** 
  97:Middlewares/lvgl/src/widgets/../core/lv_obj_style_gen.h **** static inline lv_coord_t lv_obj_get_style_pad_bottom(const struct _lv_obj_t * obj, uint32_t part)
  98:Middlewares/lvgl/src/widgets/../core/lv_obj_style_gen.h **** {
  99:Middlewares/lvgl/src/widgets/../core/lv_obj_style_gen.h ****     lv_style_value_t v = lv_obj_get_style_prop(obj, part, LV_STYLE_PAD_BOTTOM);
 100:Middlewares/lvgl/src/widgets/../core/lv_obj_style_gen.h ****     return (lv_coord_t)v.num;
 101:Middlewares/lvgl/src/widgets/../core/lv_obj_style_gen.h **** }
 102:Middlewares/lvgl/src/widgets/../core/lv_obj_style_gen.h **** 
 103:Middlewares/lvgl/src/widgets/../core/lv_obj_style_gen.h **** static inline lv_coord_t lv_obj_get_style_pad_left(const struct _lv_obj_t * obj, uint32_t part)
 104:Middlewares/lvgl/src/widgets/../core/lv_obj_style_gen.h **** {
 105:Middlewares/lvgl/src/widgets/../core/lv_obj_style_gen.h ****     lv_style_value_t v = lv_obj_get_style_prop(obj, part, LV_STYLE_PAD_LEFT);
 106:Middlewares/lvgl/src/widgets/../core/lv_obj_style_gen.h ****     return (lv_coord_t)v.num;
 107:Middlewares/lvgl/src/widgets/../core/lv_obj_style_gen.h **** }
 108:Middlewares/lvgl/src/widgets/../core/lv_obj_style_gen.h **** 
 109:Middlewares/lvgl/src/widgets/../core/lv_obj_style_gen.h **** static inline lv_coord_t lv_obj_get_style_pad_right(const struct _lv_obj_t * obj, uint32_t part)
 110:Middlewares/lvgl/src/widgets/../core/lv_obj_style_gen.h **** {
 111:Middlewares/lvgl/src/widgets/../core/lv_obj_style_gen.h ****     lv_style_value_t v = lv_obj_get_style_prop(obj, part, LV_STYLE_PAD_RIGHT);
 112:Middlewares/lvgl/src/widgets/../core/lv_obj_style_gen.h ****     return (lv_coord_t)v.num;
 113:Middlewares/lvgl/src/widgets/../core/lv_obj_style_gen.h **** }
 114:Middlewares/lvgl/src/widgets/../core/lv_obj_style_gen.h **** 
 115:Middlewares/lvgl/src/widgets/../core/lv_obj_style_gen.h **** static inline lv_coord_t lv_obj_get_style_pad_row(const struct _lv_obj_t * obj, uint32_t part)
 116:Middlewares/lvgl/src/widgets/../core/lv_obj_style_gen.h **** {
 117:Middlewares/lvgl/src/widgets/../core/lv_obj_style_gen.h ****     lv_style_value_t v = lv_obj_get_style_prop(obj, part, LV_STYLE_PAD_ROW);
 118:Middlewares/lvgl/src/widgets/../core/lv_obj_style_gen.h ****     return (lv_coord_t)v.num;
 119:Middlewares/lvgl/src/widgets/../core/lv_obj_style_gen.h **** }
 120:Middlewares/lvgl/src/widgets/../core/lv_obj_style_gen.h **** 
 121:Middlewares/lvgl/src/widgets/../core/lv_obj_style_gen.h **** static inline lv_coord_t lv_obj_get_style_pad_column(const struct _lv_obj_t * obj, uint32_t part)
 122:Middlewares/lvgl/src/widgets/../core/lv_obj_style_gen.h **** {
 123:Middlewares/lvgl/src/widgets/../core/lv_obj_style_gen.h ****     lv_style_value_t v = lv_obj_get_style_prop(obj, part, LV_STYLE_PAD_COLUMN);
 124:Middlewares/lvgl/src/widgets/../core/lv_obj_style_gen.h ****     return (lv_coord_t)v.num;
 125:Middlewares/lvgl/src/widgets/../core/lv_obj_style_gen.h **** }
 126:Middlewares/lvgl/src/widgets/../core/lv_obj_style_gen.h **** 
 127:Middlewares/lvgl/src/widgets/../core/lv_obj_style_gen.h **** static inline lv_coord_t lv_obj_get_style_radius(const struct _lv_obj_t * obj, uint32_t part)
 128:Middlewares/lvgl/src/widgets/../core/lv_obj_style_gen.h **** {
 129:Middlewares/lvgl/src/widgets/../core/lv_obj_style_gen.h ****     lv_style_value_t v = lv_obj_get_style_prop(obj, part, LV_STYLE_RADIUS);
 130:Middlewares/lvgl/src/widgets/../core/lv_obj_style_gen.h ****     return (lv_coord_t)v.num;
 131:Middlewares/lvgl/src/widgets/../core/lv_obj_style_gen.h **** }
 132:Middlewares/lvgl/src/widgets/../core/lv_obj_style_gen.h **** 
 133:Middlewares/lvgl/src/widgets/../core/lv_obj_style_gen.h **** static inline bool lv_obj_get_style_clip_corner(const struct _lv_obj_t * obj, uint32_t part)
 134:Middlewares/lvgl/src/widgets/../core/lv_obj_style_gen.h **** {
 135:Middlewares/lvgl/src/widgets/../core/lv_obj_style_gen.h ****     lv_style_value_t v = lv_obj_get_style_prop(obj, part, LV_STYLE_CLIP_CORNER);
 136:Middlewares/lvgl/src/widgets/../core/lv_obj_style_gen.h ****     return (bool)v.num;
 137:Middlewares/lvgl/src/widgets/../core/lv_obj_style_gen.h **** }
 138:Middlewares/lvgl/src/widgets/../core/lv_obj_style_gen.h **** 
ARM GAS  /tmp/cc9MIr9f.s 			page 19


 139:Middlewares/lvgl/src/widgets/../core/lv_obj_style_gen.h **** static inline lv_opa_t lv_obj_get_style_opa(const struct _lv_obj_t * obj, uint32_t part)
 140:Middlewares/lvgl/src/widgets/../core/lv_obj_style_gen.h **** {
 141:Middlewares/lvgl/src/widgets/../core/lv_obj_style_gen.h ****     lv_style_value_t v = lv_obj_get_style_prop(obj, part, LV_STYLE_OPA);
 142:Middlewares/lvgl/src/widgets/../core/lv_obj_style_gen.h ****     return (lv_opa_t)v.num;
 143:Middlewares/lvgl/src/widgets/../core/lv_obj_style_gen.h **** }
 144:Middlewares/lvgl/src/widgets/../core/lv_obj_style_gen.h **** 
 145:Middlewares/lvgl/src/widgets/../core/lv_obj_style_gen.h **** static inline const lv_color_filter_dsc_t * lv_obj_get_style_color_filter_dsc(const struct _lv_obj_
 146:Middlewares/lvgl/src/widgets/../core/lv_obj_style_gen.h **** {
 147:Middlewares/lvgl/src/widgets/../core/lv_obj_style_gen.h ****     lv_style_value_t v = lv_obj_get_style_prop(obj, part, LV_STYLE_COLOR_FILTER_DSC);
 148:Middlewares/lvgl/src/widgets/../core/lv_obj_style_gen.h ****     return (const lv_color_filter_dsc_t *)v.ptr;
 149:Middlewares/lvgl/src/widgets/../core/lv_obj_style_gen.h **** }
 150:Middlewares/lvgl/src/widgets/../core/lv_obj_style_gen.h **** 
 151:Middlewares/lvgl/src/widgets/../core/lv_obj_style_gen.h **** static inline lv_opa_t lv_obj_get_style_color_filter_opa(const struct _lv_obj_t * obj, uint32_t par
 152:Middlewares/lvgl/src/widgets/../core/lv_obj_style_gen.h **** {
 153:Middlewares/lvgl/src/widgets/../core/lv_obj_style_gen.h ****     lv_style_value_t v = lv_obj_get_style_prop(obj, part, LV_STYLE_COLOR_FILTER_OPA);
 154:Middlewares/lvgl/src/widgets/../core/lv_obj_style_gen.h ****     return (lv_opa_t)v.num;
 155:Middlewares/lvgl/src/widgets/../core/lv_obj_style_gen.h **** }
 156:Middlewares/lvgl/src/widgets/../core/lv_obj_style_gen.h **** 
 157:Middlewares/lvgl/src/widgets/../core/lv_obj_style_gen.h **** static inline uint32_t lv_obj_get_style_anim_time(const struct _lv_obj_t * obj, uint32_t part)
 158:Middlewares/lvgl/src/widgets/../core/lv_obj_style_gen.h **** {
 159:Middlewares/lvgl/src/widgets/../core/lv_obj_style_gen.h ****     lv_style_value_t v = lv_obj_get_style_prop(obj, part, LV_STYLE_ANIM_TIME);
 160:Middlewares/lvgl/src/widgets/../core/lv_obj_style_gen.h ****     return (uint32_t)v.num;
 161:Middlewares/lvgl/src/widgets/../core/lv_obj_style_gen.h **** }
 162:Middlewares/lvgl/src/widgets/../core/lv_obj_style_gen.h **** 
 163:Middlewares/lvgl/src/widgets/../core/lv_obj_style_gen.h **** static inline uint32_t lv_obj_get_style_anim_speed(const struct _lv_obj_t * obj, uint32_t part)
 164:Middlewares/lvgl/src/widgets/../core/lv_obj_style_gen.h **** {
 165:Middlewares/lvgl/src/widgets/../core/lv_obj_style_gen.h ****     lv_style_value_t v = lv_obj_get_style_prop(obj, part, LV_STYLE_ANIM_SPEED);
 166:Middlewares/lvgl/src/widgets/../core/lv_obj_style_gen.h ****     return (uint32_t)v.num;
 167:Middlewares/lvgl/src/widgets/../core/lv_obj_style_gen.h **** }
 168:Middlewares/lvgl/src/widgets/../core/lv_obj_style_gen.h **** 
 169:Middlewares/lvgl/src/widgets/../core/lv_obj_style_gen.h **** static inline const lv_style_transition_dsc_t * lv_obj_get_style_transition(const struct _lv_obj_t 
 170:Middlewares/lvgl/src/widgets/../core/lv_obj_style_gen.h **** {
 171:Middlewares/lvgl/src/widgets/../core/lv_obj_style_gen.h ****     lv_style_value_t v = lv_obj_get_style_prop(obj, part, LV_STYLE_TRANSITION);
 172:Middlewares/lvgl/src/widgets/../core/lv_obj_style_gen.h ****     return (const lv_style_transition_dsc_t *)v.ptr;
 173:Middlewares/lvgl/src/widgets/../core/lv_obj_style_gen.h **** }
 174:Middlewares/lvgl/src/widgets/../core/lv_obj_style_gen.h **** 
 175:Middlewares/lvgl/src/widgets/../core/lv_obj_style_gen.h **** static inline lv_blend_mode_t lv_obj_get_style_blend_mode(const struct _lv_obj_t * obj, uint32_t pa
 176:Middlewares/lvgl/src/widgets/../core/lv_obj_style_gen.h **** {
 177:Middlewares/lvgl/src/widgets/../core/lv_obj_style_gen.h ****     lv_style_value_t v = lv_obj_get_style_prop(obj, part, LV_STYLE_BLEND_MODE);
 178:Middlewares/lvgl/src/widgets/../core/lv_obj_style_gen.h ****     return (lv_blend_mode_t)v.num;
 179:Middlewares/lvgl/src/widgets/../core/lv_obj_style_gen.h **** }
 180:Middlewares/lvgl/src/widgets/../core/lv_obj_style_gen.h **** 
 181:Middlewares/lvgl/src/widgets/../core/lv_obj_style_gen.h **** static inline uint16_t lv_obj_get_style_layout(const struct _lv_obj_t * obj, uint32_t part)
 182:Middlewares/lvgl/src/widgets/../core/lv_obj_style_gen.h **** {
 183:Middlewares/lvgl/src/widgets/../core/lv_obj_style_gen.h ****     lv_style_value_t v = lv_obj_get_style_prop(obj, part, LV_STYLE_LAYOUT);
 184:Middlewares/lvgl/src/widgets/../core/lv_obj_style_gen.h ****     return (uint16_t)v.num;
 185:Middlewares/lvgl/src/widgets/../core/lv_obj_style_gen.h **** }
 186:Middlewares/lvgl/src/widgets/../core/lv_obj_style_gen.h **** 
 187:Middlewares/lvgl/src/widgets/../core/lv_obj_style_gen.h **** static inline lv_base_dir_t lv_obj_get_style_base_dir(const struct _lv_obj_t * obj, uint32_t part)
 188:Middlewares/lvgl/src/widgets/../core/lv_obj_style_gen.h **** {
 189:Middlewares/lvgl/src/widgets/../core/lv_obj_style_gen.h ****     lv_style_value_t v = lv_obj_get_style_prop(obj, part, LV_STYLE_BASE_DIR);
 190:Middlewares/lvgl/src/widgets/../core/lv_obj_style_gen.h ****     return (lv_base_dir_t)v.num;
 191:Middlewares/lvgl/src/widgets/../core/lv_obj_style_gen.h **** }
 192:Middlewares/lvgl/src/widgets/../core/lv_obj_style_gen.h **** 
 193:Middlewares/lvgl/src/widgets/../core/lv_obj_style_gen.h **** static inline lv_color_t lv_obj_get_style_bg_color(const struct _lv_obj_t * obj, uint32_t part)
 194:Middlewares/lvgl/src/widgets/../core/lv_obj_style_gen.h **** {
 195:Middlewares/lvgl/src/widgets/../core/lv_obj_style_gen.h ****     lv_style_value_t v = lv_obj_get_style_prop(obj, part, LV_STYLE_BG_COLOR);
ARM GAS  /tmp/cc9MIr9f.s 			page 20


 196:Middlewares/lvgl/src/widgets/../core/lv_obj_style_gen.h ****     return v.color;
 197:Middlewares/lvgl/src/widgets/../core/lv_obj_style_gen.h **** }
 198:Middlewares/lvgl/src/widgets/../core/lv_obj_style_gen.h **** 
 199:Middlewares/lvgl/src/widgets/../core/lv_obj_style_gen.h **** static inline lv_color_t lv_obj_get_style_bg_color_filtered(const struct _lv_obj_t * obj, uint32_t 
 200:Middlewares/lvgl/src/widgets/../core/lv_obj_style_gen.h **** {
 201:Middlewares/lvgl/src/widgets/../core/lv_obj_style_gen.h ****     lv_style_value_t v = lv_obj_get_style_prop(obj, part, LV_STYLE_BG_COLOR_FILTERED);
 202:Middlewares/lvgl/src/widgets/../core/lv_obj_style_gen.h ****     return v.color;
 203:Middlewares/lvgl/src/widgets/../core/lv_obj_style_gen.h **** }
 204:Middlewares/lvgl/src/widgets/../core/lv_obj_style_gen.h **** 
 205:Middlewares/lvgl/src/widgets/../core/lv_obj_style_gen.h **** static inline lv_opa_t lv_obj_get_style_bg_opa(const struct _lv_obj_t * obj, uint32_t part)
 206:Middlewares/lvgl/src/widgets/../core/lv_obj_style_gen.h **** {
 207:Middlewares/lvgl/src/widgets/../core/lv_obj_style_gen.h ****     lv_style_value_t v = lv_obj_get_style_prop(obj, part, LV_STYLE_BG_OPA);
 208:Middlewares/lvgl/src/widgets/../core/lv_obj_style_gen.h ****     return (lv_opa_t)v.num;
 209:Middlewares/lvgl/src/widgets/../core/lv_obj_style_gen.h **** }
 210:Middlewares/lvgl/src/widgets/../core/lv_obj_style_gen.h **** 
 211:Middlewares/lvgl/src/widgets/../core/lv_obj_style_gen.h **** static inline lv_color_t lv_obj_get_style_bg_grad_color(const struct _lv_obj_t * obj, uint32_t part
 212:Middlewares/lvgl/src/widgets/../core/lv_obj_style_gen.h **** {
 213:Middlewares/lvgl/src/widgets/../core/lv_obj_style_gen.h ****     lv_style_value_t v = lv_obj_get_style_prop(obj, part, LV_STYLE_BG_GRAD_COLOR);
 214:Middlewares/lvgl/src/widgets/../core/lv_obj_style_gen.h ****     return v.color;
 215:Middlewares/lvgl/src/widgets/../core/lv_obj_style_gen.h **** }
 216:Middlewares/lvgl/src/widgets/../core/lv_obj_style_gen.h **** 
 217:Middlewares/lvgl/src/widgets/../core/lv_obj_style_gen.h **** static inline lv_color_t lv_obj_get_style_bg_grad_color_filtered(const struct _lv_obj_t * obj, uint
 218:Middlewares/lvgl/src/widgets/../core/lv_obj_style_gen.h **** {
 219:Middlewares/lvgl/src/widgets/../core/lv_obj_style_gen.h ****     lv_style_value_t v = lv_obj_get_style_prop(obj, part, LV_STYLE_BG_GRAD_COLOR_FILTERED);
 220:Middlewares/lvgl/src/widgets/../core/lv_obj_style_gen.h ****     return v.color;
 221:Middlewares/lvgl/src/widgets/../core/lv_obj_style_gen.h **** }
 222:Middlewares/lvgl/src/widgets/../core/lv_obj_style_gen.h **** 
 223:Middlewares/lvgl/src/widgets/../core/lv_obj_style_gen.h **** static inline lv_grad_dir_t lv_obj_get_style_bg_grad_dir(const struct _lv_obj_t * obj, uint32_t par
 224:Middlewares/lvgl/src/widgets/../core/lv_obj_style_gen.h **** {
 225:Middlewares/lvgl/src/widgets/../core/lv_obj_style_gen.h ****     lv_style_value_t v = lv_obj_get_style_prop(obj, part, LV_STYLE_BG_GRAD_DIR);
 226:Middlewares/lvgl/src/widgets/../core/lv_obj_style_gen.h ****     return (lv_grad_dir_t)v.num;
 227:Middlewares/lvgl/src/widgets/../core/lv_obj_style_gen.h **** }
 228:Middlewares/lvgl/src/widgets/../core/lv_obj_style_gen.h **** 
 229:Middlewares/lvgl/src/widgets/../core/lv_obj_style_gen.h **** static inline lv_coord_t lv_obj_get_style_bg_main_stop(const struct _lv_obj_t * obj, uint32_t part)
 230:Middlewares/lvgl/src/widgets/../core/lv_obj_style_gen.h **** {
 231:Middlewares/lvgl/src/widgets/../core/lv_obj_style_gen.h ****     lv_style_value_t v = lv_obj_get_style_prop(obj, part, LV_STYLE_BG_MAIN_STOP);
 232:Middlewares/lvgl/src/widgets/../core/lv_obj_style_gen.h ****     return (lv_coord_t)v.num;
 233:Middlewares/lvgl/src/widgets/../core/lv_obj_style_gen.h **** }
 234:Middlewares/lvgl/src/widgets/../core/lv_obj_style_gen.h **** 
 235:Middlewares/lvgl/src/widgets/../core/lv_obj_style_gen.h **** static inline lv_coord_t lv_obj_get_style_bg_grad_stop(const struct _lv_obj_t * obj, uint32_t part)
 236:Middlewares/lvgl/src/widgets/../core/lv_obj_style_gen.h **** {
 237:Middlewares/lvgl/src/widgets/../core/lv_obj_style_gen.h ****     lv_style_value_t v = lv_obj_get_style_prop(obj, part, LV_STYLE_BG_GRAD_STOP);
 238:Middlewares/lvgl/src/widgets/../core/lv_obj_style_gen.h ****     return (lv_coord_t)v.num;
 239:Middlewares/lvgl/src/widgets/../core/lv_obj_style_gen.h **** }
 240:Middlewares/lvgl/src/widgets/../core/lv_obj_style_gen.h **** 
 241:Middlewares/lvgl/src/widgets/../core/lv_obj_style_gen.h **** static inline const void * lv_obj_get_style_bg_img_src(const struct _lv_obj_t * obj, uint32_t part)
 242:Middlewares/lvgl/src/widgets/../core/lv_obj_style_gen.h **** {
 243:Middlewares/lvgl/src/widgets/../core/lv_obj_style_gen.h ****     lv_style_value_t v = lv_obj_get_style_prop(obj, part, LV_STYLE_BG_IMG_SRC);
 244:Middlewares/lvgl/src/widgets/../core/lv_obj_style_gen.h ****     return (const void *)v.ptr;
 245:Middlewares/lvgl/src/widgets/../core/lv_obj_style_gen.h **** }
 246:Middlewares/lvgl/src/widgets/../core/lv_obj_style_gen.h **** 
 247:Middlewares/lvgl/src/widgets/../core/lv_obj_style_gen.h **** static inline lv_opa_t lv_obj_get_style_bg_img_opa(const struct _lv_obj_t * obj, uint32_t part)
 248:Middlewares/lvgl/src/widgets/../core/lv_obj_style_gen.h **** {
 249:Middlewares/lvgl/src/widgets/../core/lv_obj_style_gen.h ****     lv_style_value_t v = lv_obj_get_style_prop(obj, part, LV_STYLE_BG_IMG_OPA);
 250:Middlewares/lvgl/src/widgets/../core/lv_obj_style_gen.h ****     return (lv_opa_t)v.num;
 251:Middlewares/lvgl/src/widgets/../core/lv_obj_style_gen.h **** }
 252:Middlewares/lvgl/src/widgets/../core/lv_obj_style_gen.h **** 
ARM GAS  /tmp/cc9MIr9f.s 			page 21


 253:Middlewares/lvgl/src/widgets/../core/lv_obj_style_gen.h **** static inline lv_color_t lv_obj_get_style_bg_img_recolor(const struct _lv_obj_t * obj, uint32_t par
 254:Middlewares/lvgl/src/widgets/../core/lv_obj_style_gen.h **** {
 255:Middlewares/lvgl/src/widgets/../core/lv_obj_style_gen.h ****     lv_style_value_t v = lv_obj_get_style_prop(obj, part, LV_STYLE_BG_IMG_RECOLOR);
 256:Middlewares/lvgl/src/widgets/../core/lv_obj_style_gen.h ****     return v.color;
 257:Middlewares/lvgl/src/widgets/../core/lv_obj_style_gen.h **** }
 258:Middlewares/lvgl/src/widgets/../core/lv_obj_style_gen.h **** 
 259:Middlewares/lvgl/src/widgets/../core/lv_obj_style_gen.h **** static inline lv_color_t lv_obj_get_style_bg_img_recolor_filtered(const struct _lv_obj_t * obj, uin
 260:Middlewares/lvgl/src/widgets/../core/lv_obj_style_gen.h **** {
 261:Middlewares/lvgl/src/widgets/../core/lv_obj_style_gen.h ****     lv_style_value_t v = lv_obj_get_style_prop(obj, part, LV_STYLE_BG_IMG_RECOLOR_FILTERED);
 262:Middlewares/lvgl/src/widgets/../core/lv_obj_style_gen.h ****     return v.color;
 263:Middlewares/lvgl/src/widgets/../core/lv_obj_style_gen.h **** }
 264:Middlewares/lvgl/src/widgets/../core/lv_obj_style_gen.h **** 
 265:Middlewares/lvgl/src/widgets/../core/lv_obj_style_gen.h **** static inline lv_opa_t lv_obj_get_style_bg_img_recolor_opa(const struct _lv_obj_t * obj, uint32_t p
 266:Middlewares/lvgl/src/widgets/../core/lv_obj_style_gen.h **** {
 267:Middlewares/lvgl/src/widgets/../core/lv_obj_style_gen.h ****     lv_style_value_t v = lv_obj_get_style_prop(obj, part, LV_STYLE_BG_IMG_RECOLOR_OPA);
 268:Middlewares/lvgl/src/widgets/../core/lv_obj_style_gen.h ****     return (lv_opa_t)v.num;
 269:Middlewares/lvgl/src/widgets/../core/lv_obj_style_gen.h **** }
 270:Middlewares/lvgl/src/widgets/../core/lv_obj_style_gen.h **** 
 271:Middlewares/lvgl/src/widgets/../core/lv_obj_style_gen.h **** static inline bool lv_obj_get_style_bg_img_tiled(const struct _lv_obj_t * obj, uint32_t part)
 272:Middlewares/lvgl/src/widgets/../core/lv_obj_style_gen.h **** {
 273:Middlewares/lvgl/src/widgets/../core/lv_obj_style_gen.h ****     lv_style_value_t v = lv_obj_get_style_prop(obj, part, LV_STYLE_BG_IMG_TILED);
 274:Middlewares/lvgl/src/widgets/../core/lv_obj_style_gen.h ****     return (bool)v.num;
 275:Middlewares/lvgl/src/widgets/../core/lv_obj_style_gen.h **** }
 276:Middlewares/lvgl/src/widgets/../core/lv_obj_style_gen.h **** 
 277:Middlewares/lvgl/src/widgets/../core/lv_obj_style_gen.h **** static inline lv_color_t lv_obj_get_style_border_color(const struct _lv_obj_t * obj, uint32_t part)
 278:Middlewares/lvgl/src/widgets/../core/lv_obj_style_gen.h **** {
 279:Middlewares/lvgl/src/widgets/../core/lv_obj_style_gen.h ****     lv_style_value_t v = lv_obj_get_style_prop(obj, part, LV_STYLE_BORDER_COLOR);
 280:Middlewares/lvgl/src/widgets/../core/lv_obj_style_gen.h ****     return v.color;
 281:Middlewares/lvgl/src/widgets/../core/lv_obj_style_gen.h **** }
 282:Middlewares/lvgl/src/widgets/../core/lv_obj_style_gen.h **** 
 283:Middlewares/lvgl/src/widgets/../core/lv_obj_style_gen.h **** static inline lv_color_t lv_obj_get_style_border_color_filtered(const struct _lv_obj_t * obj, uint3
 284:Middlewares/lvgl/src/widgets/../core/lv_obj_style_gen.h **** {
 285:Middlewares/lvgl/src/widgets/../core/lv_obj_style_gen.h ****     lv_style_value_t v = lv_obj_get_style_prop(obj, part, LV_STYLE_BORDER_COLOR_FILTERED);
 286:Middlewares/lvgl/src/widgets/../core/lv_obj_style_gen.h ****     return v.color;
 287:Middlewares/lvgl/src/widgets/../core/lv_obj_style_gen.h **** }
 288:Middlewares/lvgl/src/widgets/../core/lv_obj_style_gen.h **** 
 289:Middlewares/lvgl/src/widgets/../core/lv_obj_style_gen.h **** static inline lv_opa_t lv_obj_get_style_border_opa(const struct _lv_obj_t * obj, uint32_t part)
 290:Middlewares/lvgl/src/widgets/../core/lv_obj_style_gen.h **** {
 291:Middlewares/lvgl/src/widgets/../core/lv_obj_style_gen.h ****     lv_style_value_t v = lv_obj_get_style_prop(obj, part, LV_STYLE_BORDER_OPA);
 292:Middlewares/lvgl/src/widgets/../core/lv_obj_style_gen.h ****     return (lv_opa_t)v.num;
 293:Middlewares/lvgl/src/widgets/../core/lv_obj_style_gen.h **** }
 294:Middlewares/lvgl/src/widgets/../core/lv_obj_style_gen.h **** 
 295:Middlewares/lvgl/src/widgets/../core/lv_obj_style_gen.h **** static inline lv_coord_t lv_obj_get_style_border_width(const struct _lv_obj_t * obj, uint32_t part)
 296:Middlewares/lvgl/src/widgets/../core/lv_obj_style_gen.h **** {
 297:Middlewares/lvgl/src/widgets/../core/lv_obj_style_gen.h ****     lv_style_value_t v = lv_obj_get_style_prop(obj, part, LV_STYLE_BORDER_WIDTH);
 298:Middlewares/lvgl/src/widgets/../core/lv_obj_style_gen.h ****     return (lv_coord_t)v.num;
 299:Middlewares/lvgl/src/widgets/../core/lv_obj_style_gen.h **** }
 300:Middlewares/lvgl/src/widgets/../core/lv_obj_style_gen.h **** 
 301:Middlewares/lvgl/src/widgets/../core/lv_obj_style_gen.h **** static inline lv_border_side_t lv_obj_get_style_border_side(const struct _lv_obj_t * obj, uint32_t 
 302:Middlewares/lvgl/src/widgets/../core/lv_obj_style_gen.h **** {
 303:Middlewares/lvgl/src/widgets/../core/lv_obj_style_gen.h ****     lv_style_value_t v = lv_obj_get_style_prop(obj, part, LV_STYLE_BORDER_SIDE);
 304:Middlewares/lvgl/src/widgets/../core/lv_obj_style_gen.h ****     return (lv_border_side_t)v.num;
 305:Middlewares/lvgl/src/widgets/../core/lv_obj_style_gen.h **** }
 306:Middlewares/lvgl/src/widgets/../core/lv_obj_style_gen.h **** 
 307:Middlewares/lvgl/src/widgets/../core/lv_obj_style_gen.h **** static inline bool lv_obj_get_style_border_post(const struct _lv_obj_t * obj, uint32_t part)
 308:Middlewares/lvgl/src/widgets/../core/lv_obj_style_gen.h **** {
 309:Middlewares/lvgl/src/widgets/../core/lv_obj_style_gen.h ****     lv_style_value_t v = lv_obj_get_style_prop(obj, part, LV_STYLE_BORDER_POST);
ARM GAS  /tmp/cc9MIr9f.s 			page 22


 310:Middlewares/lvgl/src/widgets/../core/lv_obj_style_gen.h ****     return (bool)v.num;
 311:Middlewares/lvgl/src/widgets/../core/lv_obj_style_gen.h **** }
 312:Middlewares/lvgl/src/widgets/../core/lv_obj_style_gen.h **** 
 313:Middlewares/lvgl/src/widgets/../core/lv_obj_style_gen.h **** static inline lv_color_t lv_obj_get_style_text_color(const struct _lv_obj_t * obj, uint32_t part)
 314:Middlewares/lvgl/src/widgets/../core/lv_obj_style_gen.h **** {
 315:Middlewares/lvgl/src/widgets/../core/lv_obj_style_gen.h ****     lv_style_value_t v = lv_obj_get_style_prop(obj, part, LV_STYLE_TEXT_COLOR);
 316:Middlewares/lvgl/src/widgets/../core/lv_obj_style_gen.h ****     return v.color;
 317:Middlewares/lvgl/src/widgets/../core/lv_obj_style_gen.h **** }
 318:Middlewares/lvgl/src/widgets/../core/lv_obj_style_gen.h **** 
 319:Middlewares/lvgl/src/widgets/../core/lv_obj_style_gen.h **** static inline lv_color_t lv_obj_get_style_text_color_filtered(const struct _lv_obj_t * obj, uint32_
 320:Middlewares/lvgl/src/widgets/../core/lv_obj_style_gen.h **** {
 321:Middlewares/lvgl/src/widgets/../core/lv_obj_style_gen.h ****     lv_style_value_t v = lv_obj_get_style_prop(obj, part, LV_STYLE_TEXT_COLOR_FILTERED);
 322:Middlewares/lvgl/src/widgets/../core/lv_obj_style_gen.h ****     return v.color;
 323:Middlewares/lvgl/src/widgets/../core/lv_obj_style_gen.h **** }
 324:Middlewares/lvgl/src/widgets/../core/lv_obj_style_gen.h **** 
 325:Middlewares/lvgl/src/widgets/../core/lv_obj_style_gen.h **** static inline lv_opa_t lv_obj_get_style_text_opa(const struct _lv_obj_t * obj, uint32_t part)
 326:Middlewares/lvgl/src/widgets/../core/lv_obj_style_gen.h **** {
 327:Middlewares/lvgl/src/widgets/../core/lv_obj_style_gen.h ****     lv_style_value_t v = lv_obj_get_style_prop(obj, part, LV_STYLE_TEXT_OPA);
 328:Middlewares/lvgl/src/widgets/../core/lv_obj_style_gen.h ****     return (lv_opa_t)v.num;
 329:Middlewares/lvgl/src/widgets/../core/lv_obj_style_gen.h **** }
 330:Middlewares/lvgl/src/widgets/../core/lv_obj_style_gen.h **** 
 331:Middlewares/lvgl/src/widgets/../core/lv_obj_style_gen.h **** static inline const lv_font_t * lv_obj_get_style_text_font(const struct _lv_obj_t * obj, uint32_t p
 119              		.loc 2 331 33 view .LVU17
 120              	.LBB75:
 332:Middlewares/lvgl/src/widgets/../core/lv_obj_style_gen.h **** {
 333:Middlewares/lvgl/src/widgets/../core/lv_obj_style_gen.h ****     lv_style_value_t v = lv_obj_get_style_prop(obj, part, LV_STYLE_TEXT_FONT);
 121              		.loc 2 333 5 view .LVU18
 122              		.loc 2 333 26 is_stmt 0 view .LVU19
 123 000e 41F25942 		movw	r2, #5209
 124 0012 4FF48021 		mov	r1, #262144
 125 0016 2046     		mov	r0, r4
 126              	.LVL8:
 127              		.loc 2 333 26 view .LVU20
 128 0018 FFF7FEFF 		bl	lv_obj_get_style_prop
 129              	.LVL9:
 130 001c 0546     		mov	r5, r0
 131              	.LVL10:
 334:Middlewares/lvgl/src/widgets/../core/lv_obj_style_gen.h ****     return (const lv_font_t *)v.ptr;
 132              		.loc 2 334 5 is_stmt 1 view .LVU21
 133              		.loc 2 334 5 is_stmt 0 view .LVU22
 134              	.LBE75:
 135              	.LBE74:
 746:Middlewares/lvgl/src/widgets/lv_roller.c ****     const char * txt = lv_label_get_text(label);
 136              		.loc 1 746 5 is_stmt 1 view .LVU23
 137              	.LBB76:
 138              	.LBI76:
 335:Middlewares/lvgl/src/widgets/../core/lv_obj_style_gen.h **** }
 336:Middlewares/lvgl/src/widgets/../core/lv_obj_style_gen.h **** 
 337:Middlewares/lvgl/src/widgets/../core/lv_obj_style_gen.h **** static inline lv_coord_t lv_obj_get_style_text_letter_space(const struct _lv_obj_t * obj, uint32_t 
 139              		.loc 2 337 26 view .LVU24
 140              	.LBB77:
 338:Middlewares/lvgl/src/widgets/../core/lv_obj_style_gen.h **** {
 339:Middlewares/lvgl/src/widgets/../core/lv_obj_style_gen.h ****     lv_style_value_t v = lv_obj_get_style_prop(obj, part, LV_STYLE_TEXT_LETTER_SPACE);
 141              		.loc 2 339 5 view .LVU25
 142              		.loc 2 339 26 is_stmt 0 view .LVU26
 143 001e 41F25A42 		movw	r2, #5210
 144 0022 4FF48021 		mov	r1, #262144
ARM GAS  /tmp/cc9MIr9f.s 			page 23


 145 0026 2046     		mov	r0, r4
 146              	.LVL11:
 147              		.loc 2 339 26 view .LVU27
 148 0028 FFF7FEFF 		bl	lv_obj_get_style_prop
 149              	.LVL12:
 340:Middlewares/lvgl/src/widgets/../core/lv_obj_style_gen.h ****     return (lv_coord_t)v.num;
 150              		.loc 2 340 5 is_stmt 1 view .LVU28
 151              		.loc 2 340 12 is_stmt 0 view .LVU29
 152 002c 04B2     		sxth	r4, r0
 153              	.LVL13:
 154              		.loc 2 340 12 view .LVU30
 155              	.LBE77:
 156              	.LBE76:
 747:Middlewares/lvgl/src/widgets/lv_roller.c ****     lv_point_t size;
 157              		.loc 1 747 5 is_stmt 1 view .LVU31
 747:Middlewares/lvgl/src/widgets/lv_roller.c ****     lv_point_t size;
 158              		.loc 1 747 24 is_stmt 0 view .LVU32
 159 002e 3046     		mov	r0, r6
 160 0030 FFF7FEFF 		bl	lv_label_get_text
 161              	.LVL14:
 162 0034 0146     		mov	r1, r0
 163              	.LVL15:
 748:Middlewares/lvgl/src/widgets/lv_roller.c ****     lv_txt_get_size(&size, txt, font, letter_space, 0, LV_COORD_MAX,  LV_TEXT_FLAG_NONE);
 164              		.loc 1 748 5 is_stmt 1 view .LVU33
 749:Middlewares/lvgl/src/widgets/lv_roller.c ****     return size.x;
 165              		.loc 1 749 5 view .LVU34
 166 0036 0023     		movs	r3, #0
 167 0038 0293     		str	r3, [sp, #8]
 168 003a 4FF4C042 		mov	r2, #24576
 169 003e 0192     		str	r2, [sp, #4]
 170 0040 0093     		str	r3, [sp]
 171 0042 2346     		mov	r3, r4
 172 0044 2A46     		mov	r2, r5
 173 0046 05A8     		add	r0, sp, #20
 174              	.LVL16:
 749:Middlewares/lvgl/src/widgets/lv_roller.c ****     return size.x;
 175              		.loc 1 749 5 is_stmt 0 view .LVU35
 176 0048 FFF7FEFF 		bl	lv_txt_get_size
 177              	.LVL17:
 750:Middlewares/lvgl/src/widgets/lv_roller.c **** }
 178              		.loc 1 750 5 is_stmt 1 view .LVU36
 750:Middlewares/lvgl/src/widgets/lv_roller.c **** }
 179              		.loc 1 750 16 is_stmt 0 view .LVU37
 180 004c BDF91400 		ldrsh	r0, [sp, #20]
 181              	.LVL18:
 182              	.L6:
 751:Middlewares/lvgl/src/widgets/lv_roller.c **** 
 183              		.loc 1 751 1 view .LVU38
 184 0050 06B0     		add	sp, sp, #24
 185              	.LCFI4:
 186              		.cfi_remember_state
 187              		.cfi_def_cfa_offset 16
 188              		@ sp needed
 189 0052 70BD     		pop	{r4, r5, r6, pc}
 190              	.LVL19:
 191              	.L7:
 192              	.LCFI5:
ARM GAS  /tmp/cc9MIr9f.s 			page 24


 193              		.cfi_restore_state
 743:Middlewares/lvgl/src/widgets/lv_roller.c **** 
 194              		.loc 1 743 30 view .LVU39
 195 0054 0020     		movs	r0, #0
 196              	.LVL20:
 743:Middlewares/lvgl/src/widgets/lv_roller.c **** 
 197              		.loc 1 743 30 view .LVU40
 198 0056 FBE7     		b	.L6
 199              		.cfi_endproc
 200              	.LFE164:
 202              		.section	.text.inf_normalize,"ax",%progbits
 203              		.align	1
 204              		.syntax unified
 205              		.thumb
 206              		.thumb_func
 207              		.fpu fpv4-sp-d16
 209              	inf_normalize:
 210              	.LVL21:
 211              	.LFB162:
 707:Middlewares/lvgl/src/widgets/lv_roller.c ****     lv_roller_t * roller = (lv_roller_t*)obj;
 212              		.loc 1 707 1 is_stmt 1 view -0
 213              		.cfi_startproc
 214              		@ args = 0, pretend = 0, frame = 0
 215              		@ frame_needed = 0, uses_anonymous_args = 0
 707:Middlewares/lvgl/src/widgets/lv_roller.c ****     lv_roller_t * roller = (lv_roller_t*)obj;
 216              		.loc 1 707 1 is_stmt 0 view .LVU42
 217 0000 F8B5     		push	{r3, r4, r5, r6, r7, lr}
 218              	.LCFI6:
 219              		.cfi_def_cfa_offset 24
 220              		.cfi_offset 3, -24
 221              		.cfi_offset 4, -20
 222              		.cfi_offset 5, -16
 223              		.cfi_offset 6, -12
 224              		.cfi_offset 7, -8
 225              		.cfi_offset 14, -4
 708:Middlewares/lvgl/src/widgets/lv_roller.c **** 
 226              		.loc 1 708 5 is_stmt 1 view .LVU43
 227              	.LVL22:
 710:Middlewares/lvgl/src/widgets/lv_roller.c ****         uint16_t real_id_cnt = roller->option_cnt / LV_ROLLER_INF_PAGES;
 228              		.loc 1 710 5 view .LVU44
 710:Middlewares/lvgl/src/widgets/lv_roller.c ****         uint16_t real_id_cnt = roller->option_cnt / LV_ROLLER_INF_PAGES;
 229              		.loc 1 710 21 is_stmt 0 view .LVU45
 230 0002 90F82A30 		ldrb	r3, [r0, #42]	@ zero_extendqisi2
 710:Middlewares/lvgl/src/widgets/lv_roller.c ****         uint16_t real_id_cnt = roller->option_cnt / LV_ROLLER_INF_PAGES;
 231              		.loc 1 710 7 view .LVU46
 232 0006 13F0010F 		tst	r3, #1
 233 000a 00D1     		bne	.L12
 234              	.LVL23:
 235              	.L9:
 732:Middlewares/lvgl/src/widgets/lv_roller.c **** 
 236              		.loc 1 732 1 view .LVU47
 237 000c F8BD     		pop	{r3, r4, r5, r6, r7, pc}
 238              	.LVL24:
 239              	.L12:
 732:Middlewares/lvgl/src/widgets/lv_roller.c **** 
 240              		.loc 1 732 1 view .LVU48
 241 000e 0446     		mov	r4, r0
ARM GAS  /tmp/cc9MIr9f.s 			page 25


 242              	.LBB78:
 711:Middlewares/lvgl/src/widgets/lv_roller.c ****         roller->sel_opt_id = roller->sel_opt_id % real_id_cnt;
 243              		.loc 1 711 9 is_stmt 1 view .LVU49
 711:Middlewares/lvgl/src/widgets/lv_roller.c ****         roller->sel_opt_id = roller->sel_opt_id % real_id_cnt;
 244              		.loc 1 711 38 is_stmt 0 view .LVU50
 245 0010 828C     		ldrh	r2, [r0, #36]
 711:Middlewares/lvgl/src/widgets/lv_roller.c ****         roller->sel_opt_id = roller->sel_opt_id % real_id_cnt;
 246              		.loc 1 711 18 view .LVU51
 247 0012 234B     		ldr	r3, .L13
 248 0014 A3FB0213 		umull	r1, r3, r3, r2
 249 0018 D21A     		subs	r2, r2, r3
 250 001a 03EB5203 		add	r3, r3, r2, lsr #1
 251 001e C3F38F02 		ubfx	r2, r3, #2, #16
 252              	.LVL25:
 712:Middlewares/lvgl/src/widgets/lv_roller.c ****         roller->sel_opt_id += (LV_ROLLER_INF_PAGES / 2) * real_id_cnt; /*Select the middle page*/
 253              		.loc 1 712 9 is_stmt 1 view .LVU52
 712:Middlewares/lvgl/src/widgets/lv_roller.c ****         roller->sel_opt_id += (LV_ROLLER_INF_PAGES / 2) * real_id_cnt; /*Select the middle page*/
 254              		.loc 1 712 36 is_stmt 0 view .LVU53
 255 0022 C38C     		ldrh	r3, [r0, #38]
 712:Middlewares/lvgl/src/widgets/lv_roller.c ****         roller->sel_opt_id += (LV_ROLLER_INF_PAGES / 2) * real_id_cnt; /*Select the middle page*/
 256              		.loc 1 712 28 view .LVU54
 257 0024 B3FBF2F1 		udiv	r1, r3, r2
 258 0028 02FB1133 		mls	r3, r2, r1, r3
 259 002c 9BB2     		uxth	r3, r3
 260 002e C384     		strh	r3, [r0, #38]	@ movhi
 713:Middlewares/lvgl/src/widgets/lv_roller.c **** 
 261              		.loc 1 713 9 is_stmt 1 view .LVU55
 713:Middlewares/lvgl/src/widgets/lv_roller.c **** 
 262              		.loc 1 713 28 is_stmt 0 view .LVU56
 263 0030 02EB4201 		add	r1, r2, r2, lsl #1
 264 0034 89B2     		uxth	r1, r1
 265 0036 0B44     		add	r3, r3, r1
 266 0038 9BB2     		uxth	r3, r3
 267 003a C384     		strh	r3, [r0, #38]	@ movhi
 715:Middlewares/lvgl/src/widgets/lv_roller.c ****         roller->sel_opt_id_ori += (LV_ROLLER_INF_PAGES / 2) * real_id_cnt; /*Select the middle page
 268              		.loc 1 715 9 is_stmt 1 view .LVU57
 715:Middlewares/lvgl/src/widgets/lv_roller.c ****         roller->sel_opt_id_ori += (LV_ROLLER_INF_PAGES / 2) * real_id_cnt; /*Select the middle page
 269              		.loc 1 715 32 is_stmt 0 view .LVU58
 270 003c B3FBF2F0 		udiv	r0, r3, r2
 271              	.LVL26:
 715:Middlewares/lvgl/src/widgets/lv_roller.c ****         roller->sel_opt_id_ori += (LV_ROLLER_INF_PAGES / 2) * real_id_cnt; /*Select the middle page
 272              		.loc 1 715 32 view .LVU59
 273 0040 02FB1033 		mls	r3, r2, r0, r3
 274 0044 9BB2     		uxth	r3, r3
 275 0046 2385     		strh	r3, [r4, #40]	@ movhi
 716:Middlewares/lvgl/src/widgets/lv_roller.c **** 
 276              		.loc 1 716 9 is_stmt 1 view .LVU60
 716:Middlewares/lvgl/src/widgets/lv_roller.c **** 
 277              		.loc 1 716 32 is_stmt 0 view .LVU61
 278 0048 0B44     		add	r3, r3, r1
 279 004a 2385     		strh	r3, [r4, #40]	@ movhi
 719:Middlewares/lvgl/src/widgets/lv_roller.c ****         lv_coord_t line_space = lv_obj_get_style_text_line_space(obj, LV_PART_MAIN);
 280              		.loc 1 719 9 is_stmt 1 view .LVU62
 281              	.LVL27:
 282              	.LBB79:
 283              	.LBI79:
 331:Middlewares/lvgl/src/widgets/../core/lv_obj_style_gen.h **** {
ARM GAS  /tmp/cc9MIr9f.s 			page 26


 284              		.loc 2 331 33 view .LVU63
 285              	.LBB80:
 333:Middlewares/lvgl/src/widgets/../core/lv_obj_style_gen.h ****     return (const lv_font_t *)v.ptr;
 286              		.loc 2 333 5 view .LVU64
 333:Middlewares/lvgl/src/widgets/../core/lv_obj_style_gen.h ****     return (const lv_font_t *)v.ptr;
 287              		.loc 2 333 26 is_stmt 0 view .LVU65
 288 004c 41F25942 		movw	r2, #5209
 289              	.LVL28:
 333:Middlewares/lvgl/src/widgets/../core/lv_obj_style_gen.h ****     return (const lv_font_t *)v.ptr;
 290              		.loc 2 333 26 view .LVU66
 291 0050 0021     		movs	r1, #0
 292 0052 2046     		mov	r0, r4
 293 0054 FFF7FEFF 		bl	lv_obj_get_style_prop
 294              	.LVL29:
 333:Middlewares/lvgl/src/widgets/../core/lv_obj_style_gen.h ****     return (const lv_font_t *)v.ptr;
 295              		.loc 2 333 26 view .LVU67
 296 0058 0546     		mov	r5, r0
 297              	.LVL30:
 334:Middlewares/lvgl/src/widgets/../core/lv_obj_style_gen.h **** }
 298              		.loc 2 334 5 is_stmt 1 view .LVU68
 334:Middlewares/lvgl/src/widgets/../core/lv_obj_style_gen.h **** }
 299              		.loc 2 334 5 is_stmt 0 view .LVU69
 300              	.LBE80:
 301              	.LBE79:
 720:Middlewares/lvgl/src/widgets/lv_roller.c ****         lv_coord_t font_h              = lv_font_get_line_height(font);
 302              		.loc 1 720 9 is_stmt 1 view .LVU70
 303              	.LBB81:
 304              	.LBI81:
 341:Middlewares/lvgl/src/widgets/../core/lv_obj_style_gen.h **** }
 342:Middlewares/lvgl/src/widgets/../core/lv_obj_style_gen.h **** 
 343:Middlewares/lvgl/src/widgets/../core/lv_obj_style_gen.h **** static inline lv_coord_t lv_obj_get_style_text_line_space(const struct _lv_obj_t * obj, uint32_t pa
 305              		.loc 2 343 26 view .LVU71
 306              	.LBB82:
 344:Middlewares/lvgl/src/widgets/../core/lv_obj_style_gen.h **** {
 345:Middlewares/lvgl/src/widgets/../core/lv_obj_style_gen.h ****     lv_style_value_t v = lv_obj_get_style_prop(obj, part, LV_STYLE_TEXT_LINE_SPACE);
 307              		.loc 2 345 5 view .LVU72
 308              		.loc 2 345 26 is_stmt 0 view .LVU73
 309 005a 41F25B42 		movw	r2, #5211
 310 005e 0021     		movs	r1, #0
 311 0060 2046     		mov	r0, r4
 312              	.LVL31:
 313              		.loc 2 345 26 view .LVU74
 314 0062 FFF7FEFF 		bl	lv_obj_get_style_prop
 315              	.LVL32:
 346:Middlewares/lvgl/src/widgets/../core/lv_obj_style_gen.h ****     return (lv_coord_t)v.num;
 316              		.loc 2 346 5 is_stmt 1 view .LVU75
 317              		.loc 2 346 12 is_stmt 0 view .LVU76
 318 0066 06B2     		sxth	r6, r0
 319              	.LVL33:
 320              		.loc 2 346 12 view .LVU77
 321              	.LBE82:
 322              	.LBE81:
 721:Middlewares/lvgl/src/widgets/lv_roller.c ****         lv_coord_t h                   = lv_obj_get_content_height(obj);
 323              		.loc 1 721 9 is_stmt 1 view .LVU78
 324              	.LBB83:
 325              	.LBI83:
 326              		.file 3 "Middlewares/lvgl/src/widgets/../core/../misc/../font/lv_font.h"
ARM GAS  /tmp/cc9MIr9f.s 			page 27


   1:Middlewares/lvgl/src/widgets/../core/../misc/../font/lv_font.h **** /**
   2:Middlewares/lvgl/src/widgets/../core/../misc/../font/lv_font.h ****  * @file lv_font.h
   3:Middlewares/lvgl/src/widgets/../core/../misc/../font/lv_font.h ****  *
   4:Middlewares/lvgl/src/widgets/../core/../misc/../font/lv_font.h ****  */
   5:Middlewares/lvgl/src/widgets/../core/../misc/../font/lv_font.h **** 
   6:Middlewares/lvgl/src/widgets/../core/../misc/../font/lv_font.h **** #ifndef LV_FONT_H
   7:Middlewares/lvgl/src/widgets/../core/../misc/../font/lv_font.h **** #define LV_FONT_H
   8:Middlewares/lvgl/src/widgets/../core/../misc/../font/lv_font.h **** 
   9:Middlewares/lvgl/src/widgets/../core/../misc/../font/lv_font.h **** #ifdef __cplusplus
  10:Middlewares/lvgl/src/widgets/../core/../misc/../font/lv_font.h **** extern "C" {
  11:Middlewares/lvgl/src/widgets/../core/../misc/../font/lv_font.h **** #endif
  12:Middlewares/lvgl/src/widgets/../core/../misc/../font/lv_font.h **** 
  13:Middlewares/lvgl/src/widgets/../core/../misc/../font/lv_font.h **** /*********************
  14:Middlewares/lvgl/src/widgets/../core/../misc/../font/lv_font.h ****  *      INCLUDES
  15:Middlewares/lvgl/src/widgets/../core/../misc/../font/lv_font.h ****  *********************/
  16:Middlewares/lvgl/src/widgets/../core/../misc/../font/lv_font.h **** #include "../lv_conf_internal.h"
  17:Middlewares/lvgl/src/widgets/../core/../misc/../font/lv_font.h **** #include <stdint.h>
  18:Middlewares/lvgl/src/widgets/../core/../misc/../font/lv_font.h **** #include <stddef.h>
  19:Middlewares/lvgl/src/widgets/../core/../misc/../font/lv_font.h **** #include <stdbool.h>
  20:Middlewares/lvgl/src/widgets/../core/../misc/../font/lv_font.h **** 
  21:Middlewares/lvgl/src/widgets/../core/../misc/../font/lv_font.h **** #include "lv_symbol_def.h"
  22:Middlewares/lvgl/src/widgets/../core/../misc/../font/lv_font.h **** #include "../misc/lv_area.h"
  23:Middlewares/lvgl/src/widgets/../core/../misc/../font/lv_font.h **** 
  24:Middlewares/lvgl/src/widgets/../core/../misc/../font/lv_font.h **** /*********************
  25:Middlewares/lvgl/src/widgets/../core/../misc/../font/lv_font.h ****  *      DEFINES
  26:Middlewares/lvgl/src/widgets/../core/../misc/../font/lv_font.h ****  *********************/
  27:Middlewares/lvgl/src/widgets/../core/../misc/../font/lv_font.h **** 
  28:Middlewares/lvgl/src/widgets/../core/../misc/../font/lv_font.h **** /**********************
  29:Middlewares/lvgl/src/widgets/../core/../misc/../font/lv_font.h ****  *      TYPEDEFS
  30:Middlewares/lvgl/src/widgets/../core/../misc/../font/lv_font.h ****  **********************/
  31:Middlewares/lvgl/src/widgets/../core/../misc/../font/lv_font.h **** 
  32:Middlewares/lvgl/src/widgets/../core/../misc/../font/lv_font.h **** /*------------------
  33:Middlewares/lvgl/src/widgets/../core/../misc/../font/lv_font.h ****  * General types
  34:Middlewares/lvgl/src/widgets/../core/../misc/../font/lv_font.h ****  *-----------------*/
  35:Middlewares/lvgl/src/widgets/../core/../misc/../font/lv_font.h **** 
  36:Middlewares/lvgl/src/widgets/../core/../misc/../font/lv_font.h **** /** Describes the properties of a glyph.*/
  37:Middlewares/lvgl/src/widgets/../core/../misc/../font/lv_font.h **** typedef struct {
  38:Middlewares/lvgl/src/widgets/../core/../misc/../font/lv_font.h ****     uint16_t adv_w; /**< The glyph needs this space. Draw the next glyph after this width.*/
  39:Middlewares/lvgl/src/widgets/../core/../misc/../font/lv_font.h ****     uint16_t box_w;  /**< Width of the glyph's bounding box*/
  40:Middlewares/lvgl/src/widgets/../core/../misc/../font/lv_font.h ****     uint16_t box_h;  /**< Height of the glyph's bounding box*/
  41:Middlewares/lvgl/src/widgets/../core/../misc/../font/lv_font.h ****     int16_t ofs_x;   /**< x offset of the bounding box*/
  42:Middlewares/lvgl/src/widgets/../core/../misc/../font/lv_font.h ****     int16_t ofs_y;  /**< y offset of the bounding box*/
  43:Middlewares/lvgl/src/widgets/../core/../misc/../font/lv_font.h ****     uint8_t bpp;   /**< Bit-per-pixel: 1, 2, 4, 8*/
  44:Middlewares/lvgl/src/widgets/../core/../misc/../font/lv_font.h **** } lv_font_glyph_dsc_t;
  45:Middlewares/lvgl/src/widgets/../core/../misc/../font/lv_font.h **** 
  46:Middlewares/lvgl/src/widgets/../core/../misc/../font/lv_font.h **** /** The bitmaps might be upscaled by 3 to achieve subpixel rendering.*/
  47:Middlewares/lvgl/src/widgets/../core/../misc/../font/lv_font.h **** enum {
  48:Middlewares/lvgl/src/widgets/../core/../misc/../font/lv_font.h ****     LV_FONT_SUBPX_NONE,
  49:Middlewares/lvgl/src/widgets/../core/../misc/../font/lv_font.h ****     LV_FONT_SUBPX_HOR,
  50:Middlewares/lvgl/src/widgets/../core/../misc/../font/lv_font.h ****     LV_FONT_SUBPX_VER,
  51:Middlewares/lvgl/src/widgets/../core/../misc/../font/lv_font.h ****     LV_FONT_SUBPX_BOTH,
  52:Middlewares/lvgl/src/widgets/../core/../misc/../font/lv_font.h **** };
  53:Middlewares/lvgl/src/widgets/../core/../misc/../font/lv_font.h **** 
  54:Middlewares/lvgl/src/widgets/../core/../misc/../font/lv_font.h **** typedef uint8_t lv_font_subpx_t;
  55:Middlewares/lvgl/src/widgets/../core/../misc/../font/lv_font.h **** 
  56:Middlewares/lvgl/src/widgets/../core/../misc/../font/lv_font.h **** struct _lv_font_t;
  57:Middlewares/lvgl/src/widgets/../core/../misc/../font/lv_font.h **** 
ARM GAS  /tmp/cc9MIr9f.s 			page 28


  58:Middlewares/lvgl/src/widgets/../core/../misc/../font/lv_font.h **** /** Describe the properties of a font*/
  59:Middlewares/lvgl/src/widgets/../core/../misc/../font/lv_font.h **** typedef struct _lv_font_t {
  60:Middlewares/lvgl/src/widgets/../core/../misc/../font/lv_font.h ****     /** Get a glyph's descriptor from a font*/
  61:Middlewares/lvgl/src/widgets/../core/../misc/../font/lv_font.h ****     bool (*get_glyph_dsc)(const struct _lv_font_t *, lv_font_glyph_dsc_t *, uint32_t letter, uint32
  62:Middlewares/lvgl/src/widgets/../core/../misc/../font/lv_font.h **** 
  63:Middlewares/lvgl/src/widgets/../core/../misc/../font/lv_font.h ****     /** Get a glyph's bitmap from a font*/
  64:Middlewares/lvgl/src/widgets/../core/../misc/../font/lv_font.h ****     const uint8_t * (*get_glyph_bitmap)(const struct _lv_font_t *, uint32_t);
  65:Middlewares/lvgl/src/widgets/../core/../misc/../font/lv_font.h **** 
  66:Middlewares/lvgl/src/widgets/../core/../misc/../font/lv_font.h ****     /*Pointer to the font in a font pack (must have the same line height)*/
  67:Middlewares/lvgl/src/widgets/../core/../misc/../font/lv_font.h ****     lv_coord_t line_height;         /**< The real line height where any text fits*/
  68:Middlewares/lvgl/src/widgets/../core/../misc/../font/lv_font.h ****     lv_coord_t base_line;           /**< Base line measured from the top of the line_height*/
  69:Middlewares/lvgl/src/widgets/../core/../misc/../font/lv_font.h ****     uint8_t subpx  : 2;             /**< An element of `lv_font_subpx_t`*/
  70:Middlewares/lvgl/src/widgets/../core/../misc/../font/lv_font.h **** 
  71:Middlewares/lvgl/src/widgets/../core/../misc/../font/lv_font.h ****     int8_t underline_position;      /**< Distance between the top of the underline and base line (<
  72:Middlewares/lvgl/src/widgets/../core/../misc/../font/lv_font.h ****     int8_t underline_thickness;     /**< Thickness of the underline*/
  73:Middlewares/lvgl/src/widgets/../core/../misc/../font/lv_font.h **** 
  74:Middlewares/lvgl/src/widgets/../core/../misc/../font/lv_font.h ****     const void * dsc;                     /**< Store implementation specific or run_time data or ca
  75:Middlewares/lvgl/src/widgets/../core/../misc/../font/lv_font.h **** #if LV_USE_USER_DATA
  76:Middlewares/lvgl/src/widgets/../core/../misc/../font/lv_font.h ****     void * user_data;               /**< Custom user data for font.*/
  77:Middlewares/lvgl/src/widgets/../core/../misc/../font/lv_font.h **** #endif
  78:Middlewares/lvgl/src/widgets/../core/../misc/../font/lv_font.h **** 
  79:Middlewares/lvgl/src/widgets/../core/../misc/../font/lv_font.h **** } lv_font_t;
  80:Middlewares/lvgl/src/widgets/../core/../misc/../font/lv_font.h **** 
  81:Middlewares/lvgl/src/widgets/../core/../misc/../font/lv_font.h **** /**********************
  82:Middlewares/lvgl/src/widgets/../core/../misc/../font/lv_font.h ****  * GLOBAL PROTOTYPES
  83:Middlewares/lvgl/src/widgets/../core/../misc/../font/lv_font.h ****  **********************/
  84:Middlewares/lvgl/src/widgets/../core/../misc/../font/lv_font.h **** 
  85:Middlewares/lvgl/src/widgets/../core/../misc/../font/lv_font.h **** /**
  86:Middlewares/lvgl/src/widgets/../core/../misc/../font/lv_font.h ****  * Return with the bitmap of a font.
  87:Middlewares/lvgl/src/widgets/../core/../misc/../font/lv_font.h ****  * @param font_p pointer to a font
  88:Middlewares/lvgl/src/widgets/../core/../misc/../font/lv_font.h ****  * @param letter an UNICODE character code
  89:Middlewares/lvgl/src/widgets/../core/../misc/../font/lv_font.h ****  * @return pointer to the bitmap of the letter
  90:Middlewares/lvgl/src/widgets/../core/../misc/../font/lv_font.h ****  */
  91:Middlewares/lvgl/src/widgets/../core/../misc/../font/lv_font.h **** const uint8_t * lv_font_get_glyph_bitmap(const lv_font_t * font_p, uint32_t letter);
  92:Middlewares/lvgl/src/widgets/../core/../misc/../font/lv_font.h **** 
  93:Middlewares/lvgl/src/widgets/../core/../misc/../font/lv_font.h **** /**
  94:Middlewares/lvgl/src/widgets/../core/../misc/../font/lv_font.h ****  * Get the descriptor of a glyph
  95:Middlewares/lvgl/src/widgets/../core/../misc/../font/lv_font.h ****  * @param font_p pointer to font
  96:Middlewares/lvgl/src/widgets/../core/../misc/../font/lv_font.h ****  * @param dsc_out store the result descriptor here
  97:Middlewares/lvgl/src/widgets/../core/../misc/../font/lv_font.h ****  * @param letter an UNICODE letter code
  98:Middlewares/lvgl/src/widgets/../core/../misc/../font/lv_font.h ****  * @return true: descriptor is successfully loaded into `dsc_out`.
  99:Middlewares/lvgl/src/widgets/../core/../misc/../font/lv_font.h ****  *         false: the letter was not found, no data is loaded to `dsc_out`
 100:Middlewares/lvgl/src/widgets/../core/../misc/../font/lv_font.h ****  */
 101:Middlewares/lvgl/src/widgets/../core/../misc/../font/lv_font.h **** bool lv_font_get_glyph_dsc(const lv_font_t * font_p, lv_font_glyph_dsc_t * dsc_out, uint32_t letter
 102:Middlewares/lvgl/src/widgets/../core/../misc/../font/lv_font.h ****                            uint32_t letter_next);
 103:Middlewares/lvgl/src/widgets/../core/../misc/../font/lv_font.h **** 
 104:Middlewares/lvgl/src/widgets/../core/../misc/../font/lv_font.h **** /**
 105:Middlewares/lvgl/src/widgets/../core/../misc/../font/lv_font.h ****  * Get the width of a glyph with kerning
 106:Middlewares/lvgl/src/widgets/../core/../misc/../font/lv_font.h ****  * @param font pointer to a font
 107:Middlewares/lvgl/src/widgets/../core/../misc/../font/lv_font.h ****  * @param letter an UNICODE letter
 108:Middlewares/lvgl/src/widgets/../core/../misc/../font/lv_font.h ****  * @param letter_next the next letter after `letter`. Used for kerning
 109:Middlewares/lvgl/src/widgets/../core/../misc/../font/lv_font.h ****  * @return the width of the glyph
 110:Middlewares/lvgl/src/widgets/../core/../misc/../font/lv_font.h ****  */
 111:Middlewares/lvgl/src/widgets/../core/../misc/../font/lv_font.h **** uint16_t lv_font_get_glyph_width(const lv_font_t * font, uint32_t letter, uint32_t letter_next);
 112:Middlewares/lvgl/src/widgets/../core/../misc/../font/lv_font.h **** 
 113:Middlewares/lvgl/src/widgets/../core/../misc/../font/lv_font.h **** /**
 114:Middlewares/lvgl/src/widgets/../core/../misc/../font/lv_font.h ****  * Get the line height of a font. All characters fit into this height
ARM GAS  /tmp/cc9MIr9f.s 			page 29


 115:Middlewares/lvgl/src/widgets/../core/../misc/../font/lv_font.h ****  * @param font_p pointer to a font
 116:Middlewares/lvgl/src/widgets/../core/../misc/../font/lv_font.h ****  * @return the height of a font
 117:Middlewares/lvgl/src/widgets/../core/../misc/../font/lv_font.h ****  */
 118:Middlewares/lvgl/src/widgets/../core/../misc/../font/lv_font.h **** static inline lv_coord_t lv_font_get_line_height(const lv_font_t * font_p)
 327              		.loc 3 118 26 view .LVU79
 328              	.LBB84:
 119:Middlewares/lvgl/src/widgets/../core/../misc/../font/lv_font.h **** {
 120:Middlewares/lvgl/src/widgets/../core/../misc/../font/lv_font.h ****     return font_p->line_height;
 329              		.loc 3 120 5 view .LVU80
 330              		.loc 3 120 18 is_stmt 0 view .LVU81
 331 0068 B5F90850 		ldrsh	r5, [r5, #8]
 332              	.LVL34:
 333              		.loc 3 120 18 view .LVU82
 334              	.LBE84:
 335              	.LBE83:
 722:Middlewares/lvgl/src/widgets/lv_roller.c **** 
 336              		.loc 1 722 9 is_stmt 1 view .LVU83
 722:Middlewares/lvgl/src/widgets/lv_roller.c **** 
 337              		.loc 1 722 42 is_stmt 0 view .LVU84
 338 006c 2046     		mov	r0, r4
 339 006e FFF7FEFF 		bl	lv_obj_get_content_height
 340              	.LVL35:
 341 0072 0746     		mov	r7, r0
 342              	.LVL36:
 724:Middlewares/lvgl/src/widgets/lv_roller.c **** 
 343              		.loc 1 724 9 is_stmt 1 view .LVU85
 724:Middlewares/lvgl/src/widgets/lv_roller.c **** 
 344              		.loc 1 724 28 is_stmt 0 view .LVU86
 345 0074 2046     		mov	r0, r4
 346 0076 FFF7FEFF 		bl	get_label
 347              	.LVL37:
 727:Middlewares/lvgl/src/widgets/lv_roller.c ****         lv_coord_t mid_y1 = h / 2 - font_h / 2;
 348              		.loc 1 727 9 is_stmt 1 view .LVU87
 727:Middlewares/lvgl/src/widgets/lv_roller.c ****         lv_coord_t mid_y1 = h / 2 - font_h / 2;
 349              		.loc 1 727 35 is_stmt 0 view .LVU88
 350 007a E18C     		ldrh	r1, [r4, #38]
 727:Middlewares/lvgl/src/widgets/lv_roller.c ****         lv_coord_t mid_y1 = h / 2 - font_h / 2;
 351              		.loc 1 727 58 view .LVU89
 352 007c 2E44     		add	r6, r6, r5
 353              	.LVL38:
 727:Middlewares/lvgl/src/widgets/lv_roller.c ****         lv_coord_t mid_y1 = h / 2 - font_h / 2;
 354              		.loc 1 727 20 view .LVU90
 355 007e 16FB01F1 		smulbb	r1, r6, r1
 356 0082 8EB2     		uxth	r6, r1
 357              	.LVL39:
 728:Middlewares/lvgl/src/widgets/lv_roller.c ****         lv_coord_t new_y = mid_y1 - sel_y1;
 358              		.loc 1 728 9 is_stmt 1 view .LVU91
 728:Middlewares/lvgl/src/widgets/lv_roller.c ****         lv_coord_t new_y = mid_y1 - sel_y1;
 359              		.loc 1 728 35 is_stmt 0 view .LVU92
 360 0084 07EBD777 		add	r7, r7, r7, lsr #31
 361              	.LVL40:
 728:Middlewares/lvgl/src/widgets/lv_roller.c ****         lv_coord_t new_y = mid_y1 - sel_y1;
 362              		.loc 1 728 35 view .LVU93
 363 0088 05EBD575 		add	r5, r5, r5, lsr #31
 364              	.LVL41:
 728:Middlewares/lvgl/src/widgets/lv_roller.c ****         lv_coord_t new_y = mid_y1 - sel_y1;
 365              		.loc 1 728 35 view .LVU94
ARM GAS  /tmp/cc9MIr9f.s 			page 30


 366 008c 6910     		asrs	r1, r5, #1
 367 008e C1EB6701 		rsb	r1, r1, r7, asr #1
 368 0092 89B2     		uxth	r1, r1
 369              	.LVL42:
 729:Middlewares/lvgl/src/widgets/lv_roller.c ****         lv_obj_set_y(label, new_y);
 370              		.loc 1 729 9 is_stmt 1 view .LVU95
 729:Middlewares/lvgl/src/widgets/lv_roller.c ****         lv_obj_set_y(label, new_y);
 371              		.loc 1 729 35 is_stmt 0 view .LVU96
 372 0094 891B     		subs	r1, r1, r6
 373              	.LVL43:
 730:Middlewares/lvgl/src/widgets/lv_roller.c ****     }
 374              		.loc 1 730 9 is_stmt 1 view .LVU97
 375 0096 09B2     		sxth	r1, r1
 730:Middlewares/lvgl/src/widgets/lv_roller.c ****     }
 376              		.loc 1 730 9 is_stmt 0 view .LVU98
 377 0098 FFF7FEFF 		bl	lv_obj_set_y
 378              	.LVL44:
 730:Middlewares/lvgl/src/widgets/lv_roller.c ****     }
 379              		.loc 1 730 9 view .LVU99
 380              	.LBE78:
 732:Middlewares/lvgl/src/widgets/lv_roller.c **** 
 381              		.loc 1 732 1 view .LVU100
 382 009c B6E7     		b	.L9
 383              	.L14:
 384 009e 00BF     		.align	2
 385              	.L13:
 386 00a0 25499224 		.word	613566757
 387              		.cfi_endproc
 388              	.LFE162:
 390              		.section	.text.refr_position,"ax",%progbits
 391              		.align	1
 392              		.syntax unified
 393              		.thumb
 394              		.thumb_func
 395              		.fpu fpv4-sp-d16
 397              	refr_position:
 398              	.LVL45:
 399              	.LFB160:
 572:Middlewares/lvgl/src/widgets/lv_roller.c ****     lv_obj_t * label = get_label(obj);
 400              		.loc 1 572 1 is_stmt 1 view -0
 401              		.cfi_startproc
 402              		@ args = 0, pretend = 0, frame = 72
 403              		@ frame_needed = 0, uses_anonymous_args = 0
 572:Middlewares/lvgl/src/widgets/lv_roller.c ****     lv_obj_t * label = get_label(obj);
 404              		.loc 1 572 1 is_stmt 0 view .LVU102
 405 0000 2DE9F04F 		push	{r4, r5, r6, r7, r8, r9, r10, fp, lr}
 406              	.LCFI7:
 407              		.cfi_def_cfa_offset 36
 408              		.cfi_offset 4, -36
 409              		.cfi_offset 5, -32
 410              		.cfi_offset 6, -28
 411              		.cfi_offset 7, -24
 412              		.cfi_offset 8, -20
 413              		.cfi_offset 9, -16
 414              		.cfi_offset 10, -12
 415              		.cfi_offset 11, -8
 416              		.cfi_offset 14, -4
ARM GAS  /tmp/cc9MIr9f.s 			page 31


 417 0004 93B0     		sub	sp, sp, #76
 418              	.LCFI8:
 419              		.cfi_def_cfa_offset 112
 420 0006 8146     		mov	r9, r0
 421 0008 0D46     		mov	r5, r1
 573:Middlewares/lvgl/src/widgets/lv_roller.c ****     if(label == NULL) return;
 422              		.loc 1 573 5 is_stmt 1 view .LVU103
 573:Middlewares/lvgl/src/widgets/lv_roller.c ****     if(label == NULL) return;
 423              		.loc 1 573 24 is_stmt 0 view .LVU104
 424 000a FFF7FEFF 		bl	get_label
 425              	.LVL46:
 574:Middlewares/lvgl/src/widgets/lv_roller.c **** 
 426              		.loc 1 574 5 is_stmt 1 view .LVU105
 574:Middlewares/lvgl/src/widgets/lv_roller.c **** 
 427              		.loc 1 574 7 is_stmt 0 view .LVU106
 428 000e 0028     		cmp	r0, #0
 429 0010 4BD0     		beq	.L15
 430 0012 0646     		mov	r6, r0
 576:Middlewares/lvgl/src/widgets/lv_roller.c ****     if(align == LV_TEXT_ALIGN_AUTO) {
 431              		.loc 1 576 5 is_stmt 1 view .LVU107
 432              	.LVL47:
 433              	.LBB85:
 434              	.LBI85:
 347:Middlewares/lvgl/src/widgets/../core/lv_obj_style_gen.h **** }
 348:Middlewares/lvgl/src/widgets/../core/lv_obj_style_gen.h **** 
 349:Middlewares/lvgl/src/widgets/../core/lv_obj_style_gen.h **** static inline lv_text_decor_t lv_obj_get_style_text_decor(const struct _lv_obj_t * obj, uint32_t pa
 350:Middlewares/lvgl/src/widgets/../core/lv_obj_style_gen.h **** {
 351:Middlewares/lvgl/src/widgets/../core/lv_obj_style_gen.h ****     lv_style_value_t v = lv_obj_get_style_prop(obj, part, LV_STYLE_TEXT_DECOR);
 352:Middlewares/lvgl/src/widgets/../core/lv_obj_style_gen.h ****     return (lv_text_decor_t)v.num;
 353:Middlewares/lvgl/src/widgets/../core/lv_obj_style_gen.h **** }
 354:Middlewares/lvgl/src/widgets/../core/lv_obj_style_gen.h **** 
 355:Middlewares/lvgl/src/widgets/../core/lv_obj_style_gen.h **** static inline lv_text_align_t lv_obj_get_style_text_align(const struct _lv_obj_t * obj, uint32_t pa
 435              		.loc 2 355 31 view .LVU108
 436              	.LBB86:
 356:Middlewares/lvgl/src/widgets/../core/lv_obj_style_gen.h **** {
 357:Middlewares/lvgl/src/widgets/../core/lv_obj_style_gen.h ****     lv_style_value_t v = lv_obj_get_style_prop(obj, part, LV_STYLE_TEXT_ALIGN);
 437              		.loc 2 357 5 view .LVU109
 438              		.loc 2 357 26 is_stmt 0 view .LVU110
 439 0014 41F25D42 		movw	r2, #5213
 440 0018 0021     		movs	r1, #0
 441 001a FFF7FEFF 		bl	lv_obj_get_style_prop
 442              	.LVL48:
 358:Middlewares/lvgl/src/widgets/../core/lv_obj_style_gen.h ****     return (lv_text_align_t)v.num;
 443              		.loc 2 358 5 is_stmt 1 view .LVU111
 444              		.loc 2 358 5 is_stmt 0 view .LVU112
 445              	.LBE86:
 446              	.LBE85:
 577:Middlewares/lvgl/src/widgets/lv_roller.c ****         if(lv_obj_get_style_base_dir(obj, LV_PART_MAIN) == LV_BASE_DIR_RTL) align = LV_TEXT_ALIGN_R
 447              		.loc 1 577 5 is_stmt 1 view .LVU113
 577:Middlewares/lvgl/src/widgets/lv_roller.c ****         if(lv_obj_get_style_base_dir(obj, LV_PART_MAIN) == LV_BASE_DIR_RTL) align = LV_TEXT_ALIGN_R
 448              		.loc 1 577 7 is_stmt 0 view .LVU114
 449 001e 10F0FF00 		ands	r0, r0, #255
 450              	.LVL49:
 577:Middlewares/lvgl/src/widgets/lv_roller.c ****         if(lv_obj_get_style_base_dir(obj, LV_PART_MAIN) == LV_BASE_DIR_RTL) align = LV_TEXT_ALIGN_R
 451              		.loc 1 577 7 view .LVU115
 452 0022 45D0     		beq	.L27
 453              	.LVL50:
ARM GAS  /tmp/cc9MIr9f.s 			page 32


 582:Middlewares/lvgl/src/widgets/lv_roller.c ****     case LV_TEXT_ALIGN_CENTER:
 454              		.loc 1 582 5 is_stmt 1 view .LVU116
 455 0024 0228     		cmp	r0, #2
 456 0026 51D0     		beq	.L20
 457 0028 0328     		cmp	r0, #3
 458 002a 5FD0     		beq	.L18
 459 002c 0128     		cmp	r0, #1
 460 002e 48D0     		beq	.L19
 461              	.LVL51:
 462              	.L21:
 594:Middlewares/lvgl/src/widgets/lv_roller.c ****     const lv_font_t * font = lv_obj_get_style_text_font(obj, LV_PART_MAIN);
 463              		.loc 1 594 5 view .LVU117
 595:Middlewares/lvgl/src/widgets/lv_roller.c ****     lv_coord_t line_space = lv_obj_get_style_text_line_space(obj, LV_PART_MAIN);
 464              		.loc 1 595 5 view .LVU118
 465              	.LBB87:
 466              	.LBI87:
 331:Middlewares/lvgl/src/widgets/../core/lv_obj_style_gen.h **** {
 467              		.loc 2 331 33 view .LVU119
 468              	.LBB88:
 333:Middlewares/lvgl/src/widgets/../core/lv_obj_style_gen.h ****     return (const lv_font_t *)v.ptr;
 469              		.loc 2 333 5 view .LVU120
 333:Middlewares/lvgl/src/widgets/../core/lv_obj_style_gen.h ****     return (const lv_font_t *)v.ptr;
 470              		.loc 2 333 26 is_stmt 0 view .LVU121
 471 0030 41F25942 		movw	r2, #5209
 472 0034 0021     		movs	r1, #0
 473 0036 4846     		mov	r0, r9
 474 0038 FFF7FEFF 		bl	lv_obj_get_style_prop
 475              	.LVL52:
 476 003c 0446     		mov	r4, r0
 477              	.LVL53:
 334:Middlewares/lvgl/src/widgets/../core/lv_obj_style_gen.h **** }
 478              		.loc 2 334 5 is_stmt 1 view .LVU122
 334:Middlewares/lvgl/src/widgets/../core/lv_obj_style_gen.h **** }
 479              		.loc 2 334 5 is_stmt 0 view .LVU123
 480              	.LBE88:
 481              	.LBE87:
 596:Middlewares/lvgl/src/widgets/lv_roller.c ****     lv_coord_t font_h              = lv_font_get_line_height(font);
 482              		.loc 1 596 5 is_stmt 1 view .LVU124
 483              	.LBB89:
 484              	.LBI89:
 343:Middlewares/lvgl/src/widgets/../core/lv_obj_style_gen.h **** {
 485              		.loc 2 343 26 view .LVU125
 486              	.LBB90:
 345:Middlewares/lvgl/src/widgets/../core/lv_obj_style_gen.h ****     return (lv_coord_t)v.num;
 487              		.loc 2 345 5 view .LVU126
 345:Middlewares/lvgl/src/widgets/../core/lv_obj_style_gen.h ****     return (lv_coord_t)v.num;
 488              		.loc 2 345 26 is_stmt 0 view .LVU127
 489 003e 41F25B42 		movw	r2, #5211
 490 0042 0021     		movs	r1, #0
 491 0044 4846     		mov	r0, r9
 492              	.LVL54:
 345:Middlewares/lvgl/src/widgets/../core/lv_obj_style_gen.h ****     return (lv_coord_t)v.num;
 493              		.loc 2 345 26 view .LVU128
 494 0046 FFF7FEFF 		bl	lv_obj_get_style_prop
 495              	.LVL55:
 346:Middlewares/lvgl/src/widgets/../core/lv_obj_style_gen.h **** }
 496              		.loc 2 346 5 is_stmt 1 view .LVU129
ARM GAS  /tmp/cc9MIr9f.s 			page 33


 346:Middlewares/lvgl/src/widgets/../core/lv_obj_style_gen.h **** }
 497              		.loc 2 346 12 is_stmt 0 view .LVU130
 498 004a 0FFA80FA 		sxth	r10, r0
 499              	.LVL56:
 346:Middlewares/lvgl/src/widgets/../core/lv_obj_style_gen.h **** }
 500              		.loc 2 346 12 view .LVU131
 501              	.LBE90:
 502              	.LBE89:
 597:Middlewares/lvgl/src/widgets/lv_roller.c ****     lv_coord_t h                   = lv_obj_get_content_height(obj);
 503              		.loc 1 597 5 is_stmt 1 view .LVU132
 504              	.LBB91:
 505              	.LBI91:
 118:Middlewares/lvgl/src/widgets/../core/../misc/../font/lv_font.h **** {
 506              		.loc 3 118 26 view .LVU133
 507              	.LBB92:
 508              		.loc 3 120 5 view .LVU134
 509              		.loc 3 120 18 is_stmt 0 view .LVU135
 510 004e B4F90840 		ldrsh	r4, [r4, #8]
 511              	.LVL57:
 512              		.loc 3 120 18 view .LVU136
 513              	.LBE92:
 514              	.LBE91:
 598:Middlewares/lvgl/src/widgets/lv_roller.c ****     uint16_t anim_time             = lv_obj_get_style_anim_time(obj, LV_PART_MAIN);
 515              		.loc 1 598 5 is_stmt 1 view .LVU137
 598:Middlewares/lvgl/src/widgets/lv_roller.c ****     uint16_t anim_time             = lv_obj_get_style_anim_time(obj, LV_PART_MAIN);
 516              		.loc 1 598 38 is_stmt 0 view .LVU138
 517 0052 4846     		mov	r0, r9
 518 0054 FFF7FEFF 		bl	lv_obj_get_content_height
 519              	.LVL58:
 520 0058 8346     		mov	fp, r0
 521              	.LVL59:
 599:Middlewares/lvgl/src/widgets/lv_roller.c **** 
 522              		.loc 1 599 5 is_stmt 1 view .LVU139
 523              	.LBB93:
 524              	.LBI93:
 157:Middlewares/lvgl/src/widgets/../core/lv_obj_style_gen.h **** {
 525              		.loc 2 157 24 view .LVU140
 526              	.LBB94:
 159:Middlewares/lvgl/src/widgets/../core/lv_obj_style_gen.h ****     return (uint32_t)v.num;
 527              		.loc 2 159 5 view .LVU141
 159:Middlewares/lvgl/src/widgets/../core/lv_obj_style_gen.h ****     return (uint32_t)v.num;
 528              		.loc 2 159 26 is_stmt 0 view .LVU142
 529 005a 6522     		movs	r2, #101
 530 005c 0021     		movs	r1, #0
 531 005e 4846     		mov	r0, r9
 532 0060 FFF7FEFF 		bl	lv_obj_get_style_prop
 533              	.LVL60:
 534 0064 8046     		mov	r8, r0
 160:Middlewares/lvgl/src/widgets/../core/lv_obj_style_gen.h **** }
 535              		.loc 2 160 5 is_stmt 1 view .LVU143
 536              	.LVL61:
 160:Middlewares/lvgl/src/widgets/../core/lv_obj_style_gen.h **** }
 537              		.loc 2 160 5 is_stmt 0 view .LVU144
 538              	.LBE94:
 539              	.LBE93:
 599:Middlewares/lvgl/src/widgets/lv_roller.c **** 
 540              		.loc 1 599 14 view .LVU145
ARM GAS  /tmp/cc9MIr9f.s 			page 34


 541 0066 87B2     		uxth	r7, r0
 542              	.LVL62:
 603:Middlewares/lvgl/src/widgets/lv_roller.c ****         inf_normalize(obj);
 543              		.loc 1 603 5 is_stmt 1 view .LVU146
 603:Middlewares/lvgl/src/widgets/lv_roller.c ****         inf_normalize(obj);
 544              		.loc 1 603 7 is_stmt 0 view .LVU147
 545 0068 05B1     		cbz	r5, .L22
 603:Middlewares/lvgl/src/widgets/lv_roller.c ****         inf_normalize(obj);
 546              		.loc 1 603 31 discriminator 1 view .LVU148
 547 006a 17B9     		cbnz	r7, .L23
 548              	.L22:
 604:Middlewares/lvgl/src/widgets/lv_roller.c ****     }
 549              		.loc 1 604 9 is_stmt 1 view .LVU149
 550 006c 4846     		mov	r0, r9
 551 006e FFF7FEFF 		bl	inf_normalize
 552              	.LVL63:
 553              	.L23:
 607:Middlewares/lvgl/src/widgets/lv_roller.c ****     lv_coord_t sel_y1 = id * (font_h + line_space);
 554              		.loc 1 607 5 view .LVU150
 607:Middlewares/lvgl/src/widgets/lv_roller.c ****     lv_coord_t sel_y1 = id * (font_h + line_space);
 555              		.loc 1 607 24 is_stmt 0 view .LVU151
 556 0072 B9F82630 		ldrh	r3, [r9, #38]
 557              	.LVL64:
 608:Middlewares/lvgl/src/widgets/lv_roller.c ****     lv_coord_t mid_y1 = h / 2 - font_h / 2;
 558              		.loc 1 608 5 is_stmt 1 view .LVU152
 608:Middlewares/lvgl/src/widgets/lv_roller.c ****     lv_coord_t mid_y1 = h / 2 - font_h / 2;
 559              		.loc 1 608 38 is_stmt 0 view .LVU153
 560 0076 A244     		add	r10, r10, r4
 561              	.LVL65:
 608:Middlewares/lvgl/src/widgets/lv_roller.c ****     lv_coord_t mid_y1 = h / 2 - font_h / 2;
 562              		.loc 1 608 16 view .LVU154
 563 0078 1AFB03FA 		smulbb	r10, r10, r3
 564 007c 1FFA8AFA 		uxth	r10, r10
 565              	.LVL66:
 609:Middlewares/lvgl/src/widgets/lv_roller.c **** 
 566              		.loc 1 609 5 is_stmt 1 view .LVU155
 609:Middlewares/lvgl/src/widgets/lv_roller.c **** 
 567              		.loc 1 609 31 is_stmt 0 view .LVU156
 568 0080 0BEBDB7B 		add	fp, fp, fp, lsr #31
 569              	.LVL67:
 609:Middlewares/lvgl/src/widgets/lv_roller.c **** 
 570              		.loc 1 609 31 view .LVU157
 571 0084 04EBD474 		add	r4, r4, r4, lsr #31
 572              	.LVL68:
 609:Middlewares/lvgl/src/widgets/lv_roller.c **** 
 573              		.loc 1 609 31 view .LVU158
 574 0088 6310     		asrs	r3, r4, #1
 575              	.LVL69:
 609:Middlewares/lvgl/src/widgets/lv_roller.c **** 
 576              		.loc 1 609 31 view .LVU159
 577 008a C3EB6B03 		rsb	r3, r3, fp, asr #1
 578 008e 9BB2     		uxth	r3, r3
 579              	.LVL70:
 611:Middlewares/lvgl/src/widgets/lv_roller.c **** 
 580              		.loc 1 611 5 is_stmt 1 view .LVU160
 611:Middlewares/lvgl/src/widgets/lv_roller.c **** 
 581              		.loc 1 611 31 is_stmt 0 view .LVU161
ARM GAS  /tmp/cc9MIr9f.s 			page 35


 582 0090 A3EB0A03 		sub	r3, r3, r10
 583              	.LVL71:
 611:Middlewares/lvgl/src/widgets/lv_roller.c **** 
 584              		.loc 1 611 16 view .LVU162
 585 0094 1CB2     		sxth	r4, r3
 586              	.LVL72:
 613:Middlewares/lvgl/src/widgets/lv_roller.c ****         lv_anim_del(label, set_y_anim);
 587              		.loc 1 613 5 is_stmt 1 view .LVU163
 613:Middlewares/lvgl/src/widgets/lv_roller.c ****         lv_anim_del(label, set_y_anim);
 588              		.loc 1 613 7 is_stmt 0 view .LVU164
 589 0096 05B1     		cbz	r5, .L24
 613:Middlewares/lvgl/src/widgets/lv_roller.c ****         lv_anim_del(label, set_y_anim);
 590              		.loc 1 613 31 discriminator 1 view .LVU165
 591 0098 B7BB     		cbnz	r7, .L25
 592              	.L24:
 614:Middlewares/lvgl/src/widgets/lv_roller.c ****         lv_obj_set_y(label, new_y);
 593              		.loc 1 614 9 is_stmt 1 view .LVU166
 594 009a 2749     		ldr	r1, .L28
 595 009c 3046     		mov	r0, r6
 596 009e FFF7FEFF 		bl	lv_anim_del
 597              	.LVL73:
 615:Middlewares/lvgl/src/widgets/lv_roller.c ****     }
 598              		.loc 1 615 9 view .LVU167
 599 00a2 2146     		mov	r1, r4
 600 00a4 3046     		mov	r0, r6
 601 00a6 FFF7FEFF 		bl	lv_obj_set_y
 602              	.LVL74:
 603              	.L15:
 628:Middlewares/lvgl/src/widgets/lv_roller.c **** 
 604              		.loc 1 628 1 is_stmt 0 view .LVU168
 605 00aa 13B0     		add	sp, sp, #76
 606              	.LCFI9:
 607              		.cfi_remember_state
 608              		.cfi_def_cfa_offset 36
 609              		@ sp needed
 610 00ac BDE8F08F 		pop	{r4, r5, r6, r7, r8, r9, r10, fp, pc}
 611              	.LVL75:
 612              	.L27:
 613              	.LCFI10:
 614              		.cfi_restore_state
 578:Middlewares/lvgl/src/widgets/lv_roller.c ****         else align = LV_TEXT_ALIGN_LEFT;
 615              		.loc 1 578 9 is_stmt 1 view .LVU169
 616              	.LBB95:
 617              	.LBI95:
 187:Middlewares/lvgl/src/widgets/../core/lv_obj_style_gen.h **** {
 618              		.loc 2 187 29 view .LVU170
 619              	.LBB96:
 189:Middlewares/lvgl/src/widgets/../core/lv_obj_style_gen.h ****     return (lv_base_dir_t)v.num;
 620              		.loc 2 189 5 view .LVU171
 189:Middlewares/lvgl/src/widgets/../core/lv_obj_style_gen.h ****     return (lv_base_dir_t)v.num;
 621              		.loc 2 189 26 is_stmt 0 view .LVU172
 622 00b0 41F26A42 		movw	r2, #5226
 623 00b4 0021     		movs	r1, #0
 624 00b6 4846     		mov	r0, r9
 625 00b8 FFF7FEFF 		bl	lv_obj_get_style_prop
 626              	.LVL76:
 190:Middlewares/lvgl/src/widgets/../core/lv_obj_style_gen.h **** }
ARM GAS  /tmp/cc9MIr9f.s 			page 36


 627              		.loc 2 190 5 is_stmt 1 view .LVU173
 190:Middlewares/lvgl/src/widgets/../core/lv_obj_style_gen.h **** }
 628              		.loc 2 190 12 is_stmt 0 view .LVU174
 629 00bc C0B2     		uxtb	r0, r0
 630              	.LVL77:
 190:Middlewares/lvgl/src/widgets/../core/lv_obj_style_gen.h **** }
 631              		.loc 2 190 12 view .LVU175
 632              	.LBE96:
 633              	.LBE95:
 578:Middlewares/lvgl/src/widgets/lv_roller.c ****         else align = LV_TEXT_ALIGN_LEFT;
 634              		.loc 1 578 11 view .LVU176
 635 00be 0128     		cmp	r0, #1
 636 00c0 14D0     		beq	.L18
 637              	.L19:
 590:Middlewares/lvgl/src/widgets/lv_roller.c ****         break;
 638              		.loc 1 590 9 is_stmt 1 view .LVU177
 639 00c2 0021     		movs	r1, #0
 640 00c4 3046     		mov	r0, r6
 641 00c6 FFF7FEFF 		bl	lv_obj_set_x
 642              	.LVL78:
 591:Middlewares/lvgl/src/widgets/lv_roller.c ****     }
 643              		.loc 1 591 9 view .LVU178
 644 00ca B1E7     		b	.L21
 645              	.LVL79:
 646              	.L20:
 584:Middlewares/lvgl/src/widgets/lv_roller.c ****         break;
 647              		.loc 1 584 9 view .LVU179
 584:Middlewares/lvgl/src/widgets/lv_roller.c ****         break;
 648              		.loc 1 584 30 is_stmt 0 view .LVU180
 649 00cc 4846     		mov	r0, r9
 650              	.LVL80:
 584:Middlewares/lvgl/src/widgets/lv_roller.c ****         break;
 651              		.loc 1 584 30 view .LVU181
 652 00ce FFF7FEFF 		bl	lv_obj_get_content_width
 653              	.LVL81:
 654 00d2 0446     		mov	r4, r0
 584:Middlewares/lvgl/src/widgets/lv_roller.c ****         break;
 655              		.loc 1 584 62 view .LVU182
 656 00d4 3046     		mov	r0, r6
 657 00d6 FFF7FEFF 		bl	lv_obj_get_width
 658              	.LVL82:
 584:Middlewares/lvgl/src/widgets/lv_roller.c ****         break;
 659              		.loc 1 584 60 view .LVU183
 660 00da 201A     		subs	r0, r4, r0
 584:Middlewares/lvgl/src/widgets/lv_roller.c ****         break;
 661              		.loc 1 584 87 view .LVU184
 662 00dc 00EBD070 		add	r0, r0, r0, lsr #31
 584:Middlewares/lvgl/src/widgets/lv_roller.c ****         break;
 663              		.loc 1 584 9 view .LVU185
 664 00e0 40F34F01 		sbfx	r1, r0, #1, #16
 665 00e4 3046     		mov	r0, r6
 666 00e6 FFF7FEFF 		bl	lv_obj_set_x
 667              	.LVL83:
 585:Middlewares/lvgl/src/widgets/lv_roller.c ****     case LV_TEXT_ALIGN_RIGHT:
 668              		.loc 1 585 9 is_stmt 1 view .LVU186
 669 00ea A1E7     		b	.L21
 670              	.L18:
ARM GAS  /tmp/cc9MIr9f.s 			page 37


 587:Middlewares/lvgl/src/widgets/lv_roller.c ****         break;
 671              		.loc 1 587 9 view .LVU187
 587:Middlewares/lvgl/src/widgets/lv_roller.c ****         break;
 672              		.loc 1 587 29 is_stmt 0 view .LVU188
 673 00ec 4846     		mov	r0, r9
 674 00ee FFF7FEFF 		bl	lv_obj_get_content_width
 675              	.LVL84:
 676 00f2 84B2     		uxth	r4, r0
 587:Middlewares/lvgl/src/widgets/lv_roller.c ****         break;
 677              		.loc 1 587 61 view .LVU189
 678 00f4 3046     		mov	r0, r6
 679 00f6 FFF7FEFF 		bl	lv_obj_get_width
 680              	.LVL85:
 681 00fa 81B2     		uxth	r1, r0
 587:Middlewares/lvgl/src/widgets/lv_roller.c ****         break;
 682              		.loc 1 587 59 view .LVU190
 683 00fc 611A     		subs	r1, r4, r1
 587:Middlewares/lvgl/src/widgets/lv_roller.c ****         break;
 684              		.loc 1 587 9 view .LVU191
 685 00fe 09B2     		sxth	r1, r1
 686 0100 3046     		mov	r0, r6
 687 0102 FFF7FEFF 		bl	lv_obj_set_x
 688              	.LVL86:
 588:Middlewares/lvgl/src/widgets/lv_roller.c ****     case LV_TEXT_ALIGN_LEFT:
 689              		.loc 1 588 9 is_stmt 1 view .LVU192
 690 0106 93E7     		b	.L21
 691              	.LVL87:
 692              	.L25:
 693              	.LBB97:
 618:Middlewares/lvgl/src/widgets/lv_roller.c ****         lv_anim_init(&a);
 694              		.loc 1 618 9 view .LVU193
 619:Middlewares/lvgl/src/widgets/lv_roller.c ****         lv_anim_set_var(&a, label);
 695              		.loc 1 619 9 view .LVU194
 696 0108 01A8     		add	r0, sp, #4
 697 010a FFF7FEFF 		bl	lv_anim_init
 698              	.LVL88:
 620:Middlewares/lvgl/src/widgets/lv_roller.c ****         lv_anim_set_exec_cb(&a, set_y_anim);
 699              		.loc 1 620 9 view .LVU195
 700              	.LBB98:
 701              	.LBI98:
 702              		.file 4 "Middlewares/lvgl/src/widgets/../core/../misc/lv_anim.h"
   1:Middlewares/lvgl/src/widgets/../core/../misc/lv_anim.h **** /**
   2:Middlewares/lvgl/src/widgets/../core/../misc/lv_anim.h ****  * @file lv_anim.h
   3:Middlewares/lvgl/src/widgets/../core/../misc/lv_anim.h ****  *
   4:Middlewares/lvgl/src/widgets/../core/../misc/lv_anim.h ****  */
   5:Middlewares/lvgl/src/widgets/../core/../misc/lv_anim.h **** 
   6:Middlewares/lvgl/src/widgets/../core/../misc/lv_anim.h **** #ifndef LV_ANIM_H
   7:Middlewares/lvgl/src/widgets/../core/../misc/lv_anim.h **** #define LV_ANIM_H
   8:Middlewares/lvgl/src/widgets/../core/../misc/lv_anim.h **** 
   9:Middlewares/lvgl/src/widgets/../core/../misc/lv_anim.h **** #ifdef __cplusplus
  10:Middlewares/lvgl/src/widgets/../core/../misc/lv_anim.h **** extern "C" {
  11:Middlewares/lvgl/src/widgets/../core/../misc/lv_anim.h **** #endif
  12:Middlewares/lvgl/src/widgets/../core/../misc/lv_anim.h **** 
  13:Middlewares/lvgl/src/widgets/../core/../misc/lv_anim.h **** /*********************
  14:Middlewares/lvgl/src/widgets/../core/../misc/lv_anim.h ****  *      INCLUDES
  15:Middlewares/lvgl/src/widgets/../core/../misc/lv_anim.h ****  *********************/
  16:Middlewares/lvgl/src/widgets/../core/../misc/lv_anim.h **** #include "../lv_conf_internal.h"
ARM GAS  /tmp/cc9MIr9f.s 			page 38


  17:Middlewares/lvgl/src/widgets/../core/../misc/lv_anim.h **** 
  18:Middlewares/lvgl/src/widgets/../core/../misc/lv_anim.h **** #include <stdint.h>
  19:Middlewares/lvgl/src/widgets/../core/../misc/lv_anim.h **** #include <stdbool.h>
  20:Middlewares/lvgl/src/widgets/../core/../misc/lv_anim.h **** #include <string.h>
  21:Middlewares/lvgl/src/widgets/../core/../misc/lv_anim.h **** 
  22:Middlewares/lvgl/src/widgets/../core/../misc/lv_anim.h **** /*********************
  23:Middlewares/lvgl/src/widgets/../core/../misc/lv_anim.h ****  *      DEFINES
  24:Middlewares/lvgl/src/widgets/../core/../misc/lv_anim.h ****  *********************/
  25:Middlewares/lvgl/src/widgets/../core/../misc/lv_anim.h **** 
  26:Middlewares/lvgl/src/widgets/../core/../misc/lv_anim.h **** /**********************
  27:Middlewares/lvgl/src/widgets/../core/../misc/lv_anim.h ****  *      TYPEDEFS
  28:Middlewares/lvgl/src/widgets/../core/../misc/lv_anim.h ****  **********************/
  29:Middlewares/lvgl/src/widgets/../core/../misc/lv_anim.h **** 
  30:Middlewares/lvgl/src/widgets/../core/../misc/lv_anim.h **** /** Can be used to indicate if animations are enabled or disabled in a case*/
  31:Middlewares/lvgl/src/widgets/../core/../misc/lv_anim.h **** typedef enum {
  32:Middlewares/lvgl/src/widgets/../core/../misc/lv_anim.h ****     LV_ANIM_OFF,
  33:Middlewares/lvgl/src/widgets/../core/../misc/lv_anim.h ****     LV_ANIM_ON,
  34:Middlewares/lvgl/src/widgets/../core/../misc/lv_anim.h **** }lv_anim_enable_t;
  35:Middlewares/lvgl/src/widgets/../core/../misc/lv_anim.h **** 
  36:Middlewares/lvgl/src/widgets/../core/../misc/lv_anim.h **** #define LV_ANIM_REPEAT_INFINITE      0xFFFF
  37:Middlewares/lvgl/src/widgets/../core/../misc/lv_anim.h **** LV_EXPORT_CONST_INT(LV_ANIM_REPEAT_INFINITE);
  38:Middlewares/lvgl/src/widgets/../core/../misc/lv_anim.h **** 
  39:Middlewares/lvgl/src/widgets/../core/../misc/lv_anim.h **** struct _lv_anim_t;
  40:Middlewares/lvgl/src/widgets/../core/../misc/lv_anim.h **** 
  41:Middlewares/lvgl/src/widgets/../core/../misc/lv_anim.h **** /** Get the current value during an animation*/
  42:Middlewares/lvgl/src/widgets/../core/../misc/lv_anim.h **** typedef int32_t (*lv_anim_path_cb_t)(const struct _lv_anim_t *);
  43:Middlewares/lvgl/src/widgets/../core/../misc/lv_anim.h **** 
  44:Middlewares/lvgl/src/widgets/../core/../misc/lv_anim.h **** /** Generic prototype of "animator" functions.
  45:Middlewares/lvgl/src/widgets/../core/../misc/lv_anim.h ****  * First parameter is the variable to animate.
  46:Middlewares/lvgl/src/widgets/../core/../misc/lv_anim.h ****  * Second parameter is the value to set.
  47:Middlewares/lvgl/src/widgets/../core/../misc/lv_anim.h ****  * Compatible with `lv_xxx_set_yyy(obj, value)` functions
  48:Middlewares/lvgl/src/widgets/../core/../misc/lv_anim.h ****  * The `x` in `_xcb_t` means its not a fully generic prototype because
  49:Middlewares/lvgl/src/widgets/../core/../misc/lv_anim.h ****  * it doesn't receive `lv_anim_t *` as its first argument*/
  50:Middlewares/lvgl/src/widgets/../core/../misc/lv_anim.h **** typedef void (*lv_anim_exec_xcb_t)(void *, int32_t);
  51:Middlewares/lvgl/src/widgets/../core/../misc/lv_anim.h **** 
  52:Middlewares/lvgl/src/widgets/../core/../misc/lv_anim.h **** /** Same as `lv_anim_exec_xcb_t` but receives `lv_anim_t *` as the first parameter.
  53:Middlewares/lvgl/src/widgets/../core/../misc/lv_anim.h ****  * It's more consistent but less convenient. Might be used by binding generator functions.*/
  54:Middlewares/lvgl/src/widgets/../core/../misc/lv_anim.h **** typedef void (*lv_anim_custom_exec_cb_t)(struct _lv_anim_t *, int32_t);
  55:Middlewares/lvgl/src/widgets/../core/../misc/lv_anim.h **** 
  56:Middlewares/lvgl/src/widgets/../core/../misc/lv_anim.h **** /** Callback to call when the animation is ready*/
  57:Middlewares/lvgl/src/widgets/../core/../misc/lv_anim.h **** typedef void (*lv_anim_ready_cb_t)(struct _lv_anim_t *);
  58:Middlewares/lvgl/src/widgets/../core/../misc/lv_anim.h **** 
  59:Middlewares/lvgl/src/widgets/../core/../misc/lv_anim.h **** /** Callback to call when the animation really stars (considering `delay`)*/
  60:Middlewares/lvgl/src/widgets/../core/../misc/lv_anim.h **** typedef void (*lv_anim_start_cb_t)(struct _lv_anim_t *);
  61:Middlewares/lvgl/src/widgets/../core/../misc/lv_anim.h **** 
  62:Middlewares/lvgl/src/widgets/../core/../misc/lv_anim.h **** /** Callback used when the animation values are relative to get the current value*/
  63:Middlewares/lvgl/src/widgets/../core/../misc/lv_anim.h **** typedef int32_t (*lv_anim_get_value_cb_t)(struct _lv_anim_t *);
  64:Middlewares/lvgl/src/widgets/../core/../misc/lv_anim.h **** 
  65:Middlewares/lvgl/src/widgets/../core/../misc/lv_anim.h **** /** Describes an animation*/
  66:Middlewares/lvgl/src/widgets/../core/../misc/lv_anim.h **** typedef struct _lv_anim_t {
  67:Middlewares/lvgl/src/widgets/../core/../misc/lv_anim.h ****     void * var;                          /**<Variable to animate*/
  68:Middlewares/lvgl/src/widgets/../core/../misc/lv_anim.h ****     lv_anim_exec_xcb_t exec_cb;          /**< Function to execute to animate*/
  69:Middlewares/lvgl/src/widgets/../core/../misc/lv_anim.h ****     lv_anim_start_cb_t start_cb;         /**< Call it when the animation is starts (considering `de
  70:Middlewares/lvgl/src/widgets/../core/../misc/lv_anim.h ****     lv_anim_ready_cb_t ready_cb;         /**< Call it when the animation is ready*/
  71:Middlewares/lvgl/src/widgets/../core/../misc/lv_anim.h ****     lv_anim_get_value_cb_t get_value_cb; /**< Get the current value in relative mode*/
  72:Middlewares/lvgl/src/widgets/../core/../misc/lv_anim.h **** #if LV_USE_USER_DATA
  73:Middlewares/lvgl/src/widgets/../core/../misc/lv_anim.h ****     void * user_data; /**< Custom user data*/
ARM GAS  /tmp/cc9MIr9f.s 			page 39


  74:Middlewares/lvgl/src/widgets/../core/../misc/lv_anim.h **** #endif
  75:Middlewares/lvgl/src/widgets/../core/../misc/lv_anim.h ****     lv_anim_path_cb_t path_cb;         /**< Describe the path (curve) of animations*/
  76:Middlewares/lvgl/src/widgets/../core/../misc/lv_anim.h ****     int32_t start_value;               /**< Start value*/
  77:Middlewares/lvgl/src/widgets/../core/../misc/lv_anim.h ****     int32_t current_value;             /**< Current value*/
  78:Middlewares/lvgl/src/widgets/../core/../misc/lv_anim.h ****     int32_t end_value;                 /**< End value*/
  79:Middlewares/lvgl/src/widgets/../core/../misc/lv_anim.h ****     int32_t time;                /**< Animation time in ms*/
  80:Middlewares/lvgl/src/widgets/../core/../misc/lv_anim.h ****     int32_t act_time;            /**< Current time in animation. Set to negative to make delay.*/
  81:Middlewares/lvgl/src/widgets/../core/../misc/lv_anim.h ****     uint32_t playback_delay;     /**< Wait before play back*/
  82:Middlewares/lvgl/src/widgets/../core/../misc/lv_anim.h ****     uint32_t playback_time;      /**< Duration of playback animation*/
  83:Middlewares/lvgl/src/widgets/../core/../misc/lv_anim.h ****     uint32_t repeat_delay;       /**< Wait before repeat*/
  84:Middlewares/lvgl/src/widgets/../core/../misc/lv_anim.h ****     uint16_t repeat_cnt;         /**< Repeat count for the animation*/
  85:Middlewares/lvgl/src/widgets/../core/../misc/lv_anim.h ****     uint8_t early_apply  : 1;    /**< 1: Apply start value immediately even is there is `delay`*/
  86:Middlewares/lvgl/src/widgets/../core/../misc/lv_anim.h **** 
  87:Middlewares/lvgl/src/widgets/../core/../misc/lv_anim.h ****     /*Animation system use these - user shouldn't set*/
  88:Middlewares/lvgl/src/widgets/../core/../misc/lv_anim.h ****     uint8_t playback_now : 1; /**< Play back is in progress*/
  89:Middlewares/lvgl/src/widgets/../core/../misc/lv_anim.h ****     uint8_t run_round : 1;    /**< Indicates the animation has run in this round*/
  90:Middlewares/lvgl/src/widgets/../core/../misc/lv_anim.h ****     uint8_t start_cb_called : 1;    /**< Indicates that the `start_cb` was already called*/
  91:Middlewares/lvgl/src/widgets/../core/../misc/lv_anim.h ****     uint32_t time_orig;
  92:Middlewares/lvgl/src/widgets/../core/../misc/lv_anim.h **** } lv_anim_t;
  93:Middlewares/lvgl/src/widgets/../core/../misc/lv_anim.h **** 
  94:Middlewares/lvgl/src/widgets/../core/../misc/lv_anim.h **** /**********************
  95:Middlewares/lvgl/src/widgets/../core/../misc/lv_anim.h ****  * GLOBAL PROTOTYPES
  96:Middlewares/lvgl/src/widgets/../core/../misc/lv_anim.h ****  **********************/
  97:Middlewares/lvgl/src/widgets/../core/../misc/lv_anim.h **** 
  98:Middlewares/lvgl/src/widgets/../core/../misc/lv_anim.h **** /**
  99:Middlewares/lvgl/src/widgets/../core/../misc/lv_anim.h ****  * Init. the animation module
 100:Middlewares/lvgl/src/widgets/../core/../misc/lv_anim.h ****  */
 101:Middlewares/lvgl/src/widgets/../core/../misc/lv_anim.h **** void _lv_anim_core_init(void);
 102:Middlewares/lvgl/src/widgets/../core/../misc/lv_anim.h **** 
 103:Middlewares/lvgl/src/widgets/../core/../misc/lv_anim.h **** /**
 104:Middlewares/lvgl/src/widgets/../core/../misc/lv_anim.h ****  * Initialize an animation variable.
 105:Middlewares/lvgl/src/widgets/../core/../misc/lv_anim.h ****  * E.g.:
 106:Middlewares/lvgl/src/widgets/../core/../misc/lv_anim.h ****  * lv_anim_t a;
 107:Middlewares/lvgl/src/widgets/../core/../misc/lv_anim.h ****  * lv_anim_init(&a);
 108:Middlewares/lvgl/src/widgets/../core/../misc/lv_anim.h ****  * lv_anim_set_...(&a);
 109:Middlewares/lvgl/src/widgets/../core/../misc/lv_anim.h ****  * lv_anim_start(&a);
 110:Middlewares/lvgl/src/widgets/../core/../misc/lv_anim.h ****  * @param a     pointer to an `lv_anim_t` variable to initialize
 111:Middlewares/lvgl/src/widgets/../core/../misc/lv_anim.h ****  */
 112:Middlewares/lvgl/src/widgets/../core/../misc/lv_anim.h **** void lv_anim_init(lv_anim_t * a);
 113:Middlewares/lvgl/src/widgets/../core/../misc/lv_anim.h **** 
 114:Middlewares/lvgl/src/widgets/../core/../misc/lv_anim.h **** /**
 115:Middlewares/lvgl/src/widgets/../core/../misc/lv_anim.h ****  * Set a variable to animate
 116:Middlewares/lvgl/src/widgets/../core/../misc/lv_anim.h ****  * @param a     pointer to an initialized `lv_anim_t` variable
 117:Middlewares/lvgl/src/widgets/../core/../misc/lv_anim.h ****  * @param var   pointer to a variable to animate
 118:Middlewares/lvgl/src/widgets/../core/../misc/lv_anim.h ****  */
 119:Middlewares/lvgl/src/widgets/../core/../misc/lv_anim.h **** static inline void lv_anim_set_var(lv_anim_t * a, void * var)
 703              		.loc 4 119 20 view .LVU196
 704              	.LBB99:
 120:Middlewares/lvgl/src/widgets/../core/../misc/lv_anim.h **** {
 121:Middlewares/lvgl/src/widgets/../core/../misc/lv_anim.h ****     a->var = var;
 705              		.loc 4 121 5 view .LVU197
 706              		.loc 4 121 12 is_stmt 0 view .LVU198
 707 010e 0196     		str	r6, [sp, #4]
 708              	.LVL89:
 709              		.loc 4 121 12 view .LVU199
 710              	.LBE99:
 711              	.LBE98:
ARM GAS  /tmp/cc9MIr9f.s 			page 40


 621:Middlewares/lvgl/src/widgets/lv_roller.c ****         lv_anim_set_values(&a, lv_obj_get_y(label), new_y);
 712              		.loc 1 621 9 is_stmt 1 view .LVU200
 713              	.LBB100:
 714              	.LBI100:
 122:Middlewares/lvgl/src/widgets/../core/../misc/lv_anim.h **** }
 123:Middlewares/lvgl/src/widgets/../core/../misc/lv_anim.h **** 
 124:Middlewares/lvgl/src/widgets/../core/../misc/lv_anim.h **** /**
 125:Middlewares/lvgl/src/widgets/../core/../misc/lv_anim.h ****  * Set a function to animate `var`
 126:Middlewares/lvgl/src/widgets/../core/../misc/lv_anim.h ****  * @param a         pointer to an initialized `lv_anim_t` variable
 127:Middlewares/lvgl/src/widgets/../core/../misc/lv_anim.h ****  * @param exec_cb   a function to execute during animation
 128:Middlewares/lvgl/src/widgets/../core/../misc/lv_anim.h ****  *                  LVGL's built-in functions can be used.
 129:Middlewares/lvgl/src/widgets/../core/../misc/lv_anim.h ****  *                  E.g. lv_obj_set_x
 130:Middlewares/lvgl/src/widgets/../core/../misc/lv_anim.h ****  */
 131:Middlewares/lvgl/src/widgets/../core/../misc/lv_anim.h **** static inline void lv_anim_set_exec_cb(lv_anim_t * a, lv_anim_exec_xcb_t exec_cb)
 715              		.loc 4 131 20 view .LVU201
 716              	.LBB101:
 132:Middlewares/lvgl/src/widgets/../core/../misc/lv_anim.h **** {
 133:Middlewares/lvgl/src/widgets/../core/../misc/lv_anim.h ****     a->exec_cb = exec_cb;
 717              		.loc 4 133 5 view .LVU202
 718              		.loc 4 133 16 is_stmt 0 view .LVU203
 719 0110 094B     		ldr	r3, .L28
 720 0112 0293     		str	r3, [sp, #8]
 721              	.LVL90:
 722              		.loc 4 133 16 view .LVU204
 723              	.LBE101:
 724              	.LBE100:
 622:Middlewares/lvgl/src/widgets/lv_roller.c ****         lv_anim_set_time(&a, anim_time);
 725              		.loc 1 622 9 is_stmt 1 view .LVU205
 622:Middlewares/lvgl/src/widgets/lv_roller.c ****         lv_anim_set_time(&a, anim_time);
 726              		.loc 1 622 32 is_stmt 0 view .LVU206
 727 0114 3046     		mov	r0, r6
 728 0116 FFF7FEFF 		bl	lv_obj_get_y
 729              	.LVL91:
 730              	.LBB102:
 731              	.LBI102:
 134:Middlewares/lvgl/src/widgets/../core/../misc/lv_anim.h **** }
 135:Middlewares/lvgl/src/widgets/../core/../misc/lv_anim.h **** 
 136:Middlewares/lvgl/src/widgets/../core/../misc/lv_anim.h **** /**
 137:Middlewares/lvgl/src/widgets/../core/../misc/lv_anim.h ****  * Set the duration of an animation
 138:Middlewares/lvgl/src/widgets/../core/../misc/lv_anim.h ****  * @param a         pointer to an initialized `lv_anim_t` variable
 139:Middlewares/lvgl/src/widgets/../core/../misc/lv_anim.h ****  * @param duration  duration of the animation in milliseconds
 140:Middlewares/lvgl/src/widgets/../core/../misc/lv_anim.h ****  */
 141:Middlewares/lvgl/src/widgets/../core/../misc/lv_anim.h **** static inline void lv_anim_set_time(lv_anim_t * a, uint32_t duration)
 142:Middlewares/lvgl/src/widgets/../core/../misc/lv_anim.h **** {
 143:Middlewares/lvgl/src/widgets/../core/../misc/lv_anim.h ****     a->time = duration;
 144:Middlewares/lvgl/src/widgets/../core/../misc/lv_anim.h **** }
 145:Middlewares/lvgl/src/widgets/../core/../misc/lv_anim.h **** 
 146:Middlewares/lvgl/src/widgets/../core/../misc/lv_anim.h **** /**
 147:Middlewares/lvgl/src/widgets/../core/../misc/lv_anim.h ****  * Set a delay before starting the animation
 148:Middlewares/lvgl/src/widgets/../core/../misc/lv_anim.h ****  * @param a         pointer to an initialized `lv_anim_t` variable
 149:Middlewares/lvgl/src/widgets/../core/../misc/lv_anim.h ****  * @param delay     delay before the animation in milliseconds
 150:Middlewares/lvgl/src/widgets/../core/../misc/lv_anim.h ****  */
 151:Middlewares/lvgl/src/widgets/../core/../misc/lv_anim.h **** static inline void lv_anim_set_delay(lv_anim_t * a, uint32_t delay)
 152:Middlewares/lvgl/src/widgets/../core/../misc/lv_anim.h **** {
 153:Middlewares/lvgl/src/widgets/../core/../misc/lv_anim.h ****     a->act_time = -(int32_t)(delay);
 154:Middlewares/lvgl/src/widgets/../core/../misc/lv_anim.h **** }
 155:Middlewares/lvgl/src/widgets/../core/../misc/lv_anim.h **** 
ARM GAS  /tmp/cc9MIr9f.s 			page 41


 156:Middlewares/lvgl/src/widgets/../core/../misc/lv_anim.h **** /**
 157:Middlewares/lvgl/src/widgets/../core/../misc/lv_anim.h ****  * Set the start and end values of an animation
 158:Middlewares/lvgl/src/widgets/../core/../misc/lv_anim.h ****  * @param a         pointer to an initialized `lv_anim_t` variable
 159:Middlewares/lvgl/src/widgets/../core/../misc/lv_anim.h ****  * @param start     the start value
 160:Middlewares/lvgl/src/widgets/../core/../misc/lv_anim.h ****  * @param end       the end value
 161:Middlewares/lvgl/src/widgets/../core/../misc/lv_anim.h ****  */
 162:Middlewares/lvgl/src/widgets/../core/../misc/lv_anim.h **** static inline void lv_anim_set_values(lv_anim_t * a, int32_t start, int32_t end)
 732              		.loc 4 162 20 is_stmt 1 view .LVU207
 733              	.LBB103:
 163:Middlewares/lvgl/src/widgets/../core/../misc/lv_anim.h **** {
 164:Middlewares/lvgl/src/widgets/../core/../misc/lv_anim.h ****     a->start_value = start;
 734              		.loc 4 164 5 view .LVU208
 735              		.loc 4 164 20 is_stmt 0 view .LVU209
 736 011a 0890     		str	r0, [sp, #32]
 165:Middlewares/lvgl/src/widgets/../core/../misc/lv_anim.h ****     a->current_value = start;
 737              		.loc 4 165 5 is_stmt 1 view .LVU210
 738              		.loc 4 165 22 is_stmt 0 view .LVU211
 739 011c 0990     		str	r0, [sp, #36]
 166:Middlewares/lvgl/src/widgets/../core/../misc/lv_anim.h ****     a->end_value = end;
 740              		.loc 4 166 5 is_stmt 1 view .LVU212
 741              		.loc 4 166 18 is_stmt 0 view .LVU213
 742 011e 0A94     		str	r4, [sp, #40]
 743              	.LVL92:
 744              		.loc 4 166 18 view .LVU214
 745              	.LBE103:
 746              	.LBE102:
 623:Middlewares/lvgl/src/widgets/lv_roller.c ****         lv_anim_set_ready_cb(&a, scroll_anim_ready_cb);
 747              		.loc 1 623 9 is_stmt 1 view .LVU215
 748              	.LBB104:
 749              	.LBI104:
 141:Middlewares/lvgl/src/widgets/../core/../misc/lv_anim.h **** {
 750              		.loc 4 141 20 view .LVU216
 751              	.LBB105:
 143:Middlewares/lvgl/src/widgets/../core/../misc/lv_anim.h **** }
 752              		.loc 4 143 5 view .LVU217
 143:Middlewares/lvgl/src/widgets/../core/../misc/lv_anim.h **** }
 753              		.loc 4 143 13 is_stmt 0 view .LVU218
 754 0120 1FFA88F7 		uxth	r7, r8
 755              	.LVL93:
 143:Middlewares/lvgl/src/widgets/../core/../misc/lv_anim.h **** }
 756              		.loc 4 143 13 view .LVU219
 757 0124 0B97     		str	r7, [sp, #44]
 758              	.LVL94:
 143:Middlewares/lvgl/src/widgets/../core/../misc/lv_anim.h **** }
 759              		.loc 4 143 13 view .LVU220
 760              	.LBE105:
 761              	.LBE104:
 624:Middlewares/lvgl/src/widgets/lv_roller.c ****         lv_anim_set_path_cb(&a, lv_anim_path_ease_out);
 762              		.loc 1 624 9 is_stmt 1 view .LVU221
 763              	.LBB106:
 764              	.LBI106:
 167:Middlewares/lvgl/src/widgets/../core/../misc/lv_anim.h **** }
 168:Middlewares/lvgl/src/widgets/../core/../misc/lv_anim.h **** 
 169:Middlewares/lvgl/src/widgets/../core/../misc/lv_anim.h **** /**
 170:Middlewares/lvgl/src/widgets/../core/../misc/lv_anim.h ****  * Similar to `lv_anim_set_exec_cb` but `lv_anim_custom_exec_cb_t` receives
 171:Middlewares/lvgl/src/widgets/../core/../misc/lv_anim.h ****  * `lv_anim_t * ` as its first parameter instead of `void *`.
 172:Middlewares/lvgl/src/widgets/../core/../misc/lv_anim.h ****  * This function might be used when LVGL is binded to other languages because
ARM GAS  /tmp/cc9MIr9f.s 			page 42


 173:Middlewares/lvgl/src/widgets/../core/../misc/lv_anim.h ****  * it's more consistent to have `lv_anim_t *` as first parameter.
 174:Middlewares/lvgl/src/widgets/../core/../misc/lv_anim.h ****  * The variable to animate can be stored in the animation's `user_sata`
 175:Middlewares/lvgl/src/widgets/../core/../misc/lv_anim.h ****  * @param a         pointer to an initialized `lv_anim_t` variable
 176:Middlewares/lvgl/src/widgets/../core/../misc/lv_anim.h ****  * @param exec_cb   a function to execute.
 177:Middlewares/lvgl/src/widgets/../core/../misc/lv_anim.h ****  */
 178:Middlewares/lvgl/src/widgets/../core/../misc/lv_anim.h **** static inline void lv_anim_set_custom_exec_cb(lv_anim_t * a, lv_anim_custom_exec_cb_t exec_cb)
 179:Middlewares/lvgl/src/widgets/../core/../misc/lv_anim.h **** {
 180:Middlewares/lvgl/src/widgets/../core/../misc/lv_anim.h ****     a->var     = a;
 181:Middlewares/lvgl/src/widgets/../core/../misc/lv_anim.h ****     a->exec_cb = (lv_anim_exec_xcb_t)exec_cb;
 182:Middlewares/lvgl/src/widgets/../core/../misc/lv_anim.h **** }
 183:Middlewares/lvgl/src/widgets/../core/../misc/lv_anim.h **** 
 184:Middlewares/lvgl/src/widgets/../core/../misc/lv_anim.h **** /**
 185:Middlewares/lvgl/src/widgets/../core/../misc/lv_anim.h ****  * Set the path (curve) of the animation.
 186:Middlewares/lvgl/src/widgets/../core/../misc/lv_anim.h ****  * @param a         pointer to an initialized `lv_anim_t` variable
 187:Middlewares/lvgl/src/widgets/../core/../misc/lv_anim.h ****  * @param path_cb a function the get the current value of the animation.
 188:Middlewares/lvgl/src/widgets/../core/../misc/lv_anim.h ****  */
 189:Middlewares/lvgl/src/widgets/../core/../misc/lv_anim.h **** static inline void lv_anim_set_path_cb(lv_anim_t * a, lv_anim_path_cb_t path_cb)
 190:Middlewares/lvgl/src/widgets/../core/../misc/lv_anim.h **** {
 191:Middlewares/lvgl/src/widgets/../core/../misc/lv_anim.h ****     a->path_cb = path_cb;
 192:Middlewares/lvgl/src/widgets/../core/../misc/lv_anim.h **** }
 193:Middlewares/lvgl/src/widgets/../core/../misc/lv_anim.h **** 
 194:Middlewares/lvgl/src/widgets/../core/../misc/lv_anim.h **** /**
 195:Middlewares/lvgl/src/widgets/../core/../misc/lv_anim.h ****  * Set a function call when the animation really starts (considering `delay`)
 196:Middlewares/lvgl/src/widgets/../core/../misc/lv_anim.h ****  * @param a         pointer to an initialized `lv_anim_t` variable
 197:Middlewares/lvgl/src/widgets/../core/../misc/lv_anim.h ****  * @param start_cb  a function call when the animation starts
 198:Middlewares/lvgl/src/widgets/../core/../misc/lv_anim.h ****  */
 199:Middlewares/lvgl/src/widgets/../core/../misc/lv_anim.h **** static inline void lv_anim_set_start_cb(lv_anim_t * a, lv_anim_ready_cb_t start_cb)
 200:Middlewares/lvgl/src/widgets/../core/../misc/lv_anim.h **** {
 201:Middlewares/lvgl/src/widgets/../core/../misc/lv_anim.h ****     a->start_cb = start_cb;
 202:Middlewares/lvgl/src/widgets/../core/../misc/lv_anim.h **** }
 203:Middlewares/lvgl/src/widgets/../core/../misc/lv_anim.h **** 
 204:Middlewares/lvgl/src/widgets/../core/../misc/lv_anim.h **** /**
 205:Middlewares/lvgl/src/widgets/../core/../misc/lv_anim.h ****  * Set a function to use the current value of the variable and make start and end value
 206:Middlewares/lvgl/src/widgets/../core/../misc/lv_anim.h ****  * relative the the returned current value.
 207:Middlewares/lvgl/src/widgets/../core/../misc/lv_anim.h ****  * @param a             pointer to an initialized `lv_anim_t` variable
 208:Middlewares/lvgl/src/widgets/../core/../misc/lv_anim.h ****  * @param get_value_cb  a function call when the animation starts
 209:Middlewares/lvgl/src/widgets/../core/../misc/lv_anim.h ****  */
 210:Middlewares/lvgl/src/widgets/../core/../misc/lv_anim.h **** static inline void lv_anim_set_get_value_cb(lv_anim_t * a, lv_anim_get_value_cb_t get_value_cb)
 211:Middlewares/lvgl/src/widgets/../core/../misc/lv_anim.h **** {
 212:Middlewares/lvgl/src/widgets/../core/../misc/lv_anim.h ****     a->get_value_cb = get_value_cb;
 213:Middlewares/lvgl/src/widgets/../core/../misc/lv_anim.h **** }
 214:Middlewares/lvgl/src/widgets/../core/../misc/lv_anim.h **** 
 215:Middlewares/lvgl/src/widgets/../core/../misc/lv_anim.h **** /**
 216:Middlewares/lvgl/src/widgets/../core/../misc/lv_anim.h ****  * Set a function call when the animation is ready
 217:Middlewares/lvgl/src/widgets/../core/../misc/lv_anim.h ****  * @param a         pointer to an initialized `lv_anim_t` variable
 218:Middlewares/lvgl/src/widgets/../core/../misc/lv_anim.h ****  * @param ready_cb  a function call when the animation is ready
 219:Middlewares/lvgl/src/widgets/../core/../misc/lv_anim.h ****  */
 220:Middlewares/lvgl/src/widgets/../core/../misc/lv_anim.h **** static inline void lv_anim_set_ready_cb(lv_anim_t * a, lv_anim_ready_cb_t ready_cb)
 765              		.loc 4 220 20 view .LVU222
 766              	.LBB107:
 221:Middlewares/lvgl/src/widgets/../core/../misc/lv_anim.h **** {
 222:Middlewares/lvgl/src/widgets/../core/../misc/lv_anim.h ****     a->ready_cb = ready_cb;
 767              		.loc 4 222 5 view .LVU223
 768              		.loc 4 222 17 is_stmt 0 view .LVU224
 769 0126 054B     		ldr	r3, .L28+4
 770 0128 0493     		str	r3, [sp, #16]
 771              	.LVL95:
ARM GAS  /tmp/cc9MIr9f.s 			page 43


 772              		.loc 4 222 17 view .LVU225
 773              	.LBE107:
 774              	.LBE106:
 625:Middlewares/lvgl/src/widgets/lv_roller.c ****         lv_anim_start(&a);
 775              		.loc 1 625 9 is_stmt 1 view .LVU226
 776              	.LBB108:
 777              	.LBI108:
 189:Middlewares/lvgl/src/widgets/../core/../misc/lv_anim.h **** {
 778              		.loc 4 189 20 view .LVU227
 779              	.LBB109:
 191:Middlewares/lvgl/src/widgets/../core/../misc/lv_anim.h **** }
 780              		.loc 4 191 5 view .LVU228
 191:Middlewares/lvgl/src/widgets/../core/../misc/lv_anim.h **** }
 781              		.loc 4 191 16 is_stmt 0 view .LVU229
 782 012a 054B     		ldr	r3, .L28+8
 783 012c 0793     		str	r3, [sp, #28]
 784              	.LVL96:
 191:Middlewares/lvgl/src/widgets/../core/../misc/lv_anim.h **** }
 785              		.loc 4 191 16 view .LVU230
 786              	.LBE109:
 787              	.LBE108:
 626:Middlewares/lvgl/src/widgets/lv_roller.c ****     }
 788              		.loc 1 626 9 is_stmt 1 view .LVU231
 789 012e 01A8     		add	r0, sp, #4
 790 0130 FFF7FEFF 		bl	lv_anim_start
 791              	.LVL97:
 792 0134 B9E7     		b	.L15
 793              	.L29:
 794 0136 00BF     		.align	2
 795              	.L28:
 796 0138 00000000 		.word	set_y_anim
 797 013c 00000000 		.word	scroll_anim_ready_cb
 798 0140 00000000 		.word	lv_anim_path_ease_out
 799              	.LBE97:
 800              		.cfi_endproc
 801              	.LFE160:
 803              		.section	.text.scroll_anim_ready_cb,"ax",%progbits
 804              		.align	1
 805              		.syntax unified
 806              		.thumb
 807              		.thumb_func
 808              		.fpu fpv4-sp-d16
 810              	scroll_anim_ready_cb:
 811              	.LVL98:
 812              	.LFB165:
 754:Middlewares/lvgl/src/widgets/lv_roller.c ****     lv_obj_t * obj = lv_obj_get_parent(a->var); /*The label is animated*/
 813              		.loc 1 754 1 view -0
 814              		.cfi_startproc
 815              		@ args = 0, pretend = 0, frame = 0
 816              		@ frame_needed = 0, uses_anonymous_args = 0
 754:Middlewares/lvgl/src/widgets/lv_roller.c ****     lv_obj_t * obj = lv_obj_get_parent(a->var); /*The label is animated*/
 817              		.loc 1 754 1 is_stmt 0 view .LVU233
 818 0000 08B5     		push	{r3, lr}
 819              	.LCFI11:
 820              		.cfi_def_cfa_offset 8
 821              		.cfi_offset 3, -8
 822              		.cfi_offset 14, -4
ARM GAS  /tmp/cc9MIr9f.s 			page 44


 755:Middlewares/lvgl/src/widgets/lv_roller.c ****     inf_normalize(obj);
 823              		.loc 1 755 5 is_stmt 1 view .LVU234
 755:Middlewares/lvgl/src/widgets/lv_roller.c ****     inf_normalize(obj);
 824              		.loc 1 755 22 is_stmt 0 view .LVU235
 825 0002 0068     		ldr	r0, [r0]
 826              	.LVL99:
 755:Middlewares/lvgl/src/widgets/lv_roller.c ****     inf_normalize(obj);
 827              		.loc 1 755 22 view .LVU236
 828 0004 FFF7FEFF 		bl	lv_obj_get_parent
 829              	.LVL100:
 756:Middlewares/lvgl/src/widgets/lv_roller.c **** }
 830              		.loc 1 756 5 is_stmt 1 view .LVU237
 831 0008 FFF7FEFF 		bl	inf_normalize
 832              	.LVL101:
 757:Middlewares/lvgl/src/widgets/lv_roller.c **** 
 833              		.loc 1 757 1 is_stmt 0 view .LVU238
 834 000c 08BD     		pop	{r3, pc}
 835              		.cfi_endproc
 836              	.LFE165:
 838              		.section	.text.draw_main,"ax",%progbits
 839              		.align	1
 840              		.syntax unified
 841              		.thumb
 842              		.thumb_func
 843              		.fpu fpv4-sp-d16
 845              	draw_main:
 846              	.LVL102:
 847              	.LFB158:
 443:Middlewares/lvgl/src/widgets/lv_roller.c ****     lv_event_code_t code = lv_event_get_code(e);
 848              		.loc 1 443 1 is_stmt 1 view -0
 849              		.cfi_startproc
 850              		@ args = 0, pretend = 0, frame = 80
 851              		@ frame_needed = 0, uses_anonymous_args = 0
 443:Middlewares/lvgl/src/widgets/lv_roller.c ****     lv_event_code_t code = lv_event_get_code(e);
 852              		.loc 1 443 1 is_stmt 0 view .LVU240
 853 0000 2DE9F043 		push	{r4, r5, r6, r7, r8, r9, lr}
 854              	.LCFI12:
 855              		.cfi_def_cfa_offset 28
 856              		.cfi_offset 4, -28
 857              		.cfi_offset 5, -24
 858              		.cfi_offset 6, -20
 859              		.cfi_offset 7, -16
 860              		.cfi_offset 8, -12
 861              		.cfi_offset 9, -8
 862              		.cfi_offset 14, -4
 863 0004 99B0     		sub	sp, sp, #100
 864              	.LCFI13:
 865              		.cfi_def_cfa_offset 128
 866 0006 0646     		mov	r6, r0
 444:Middlewares/lvgl/src/widgets/lv_roller.c ****     lv_obj_t * obj = lv_event_get_target(e);
 867              		.loc 1 444 5 is_stmt 1 view .LVU241
 444:Middlewares/lvgl/src/widgets/lv_roller.c ****     lv_obj_t * obj = lv_event_get_target(e);
 868              		.loc 1 444 28 is_stmt 0 view .LVU242
 869 0008 FFF7FEFF 		bl	lv_event_get_code
 870              	.LVL103:
 444:Middlewares/lvgl/src/widgets/lv_roller.c ****     lv_obj_t * obj = lv_event_get_target(e);
 871              		.loc 1 444 28 view .LVU243
ARM GAS  /tmp/cc9MIr9f.s 			page 45


 872 000c 0546     		mov	r5, r0
 873              	.LVL104:
 445:Middlewares/lvgl/src/widgets/lv_roller.c ****     if(code == LV_EVENT_DRAW_MAIN) {
 874              		.loc 1 445 5 is_stmt 1 view .LVU244
 445:Middlewares/lvgl/src/widgets/lv_roller.c ****     if(code == LV_EVENT_DRAW_MAIN) {
 875              		.loc 1 445 22 is_stmt 0 view .LVU245
 876 000e 3046     		mov	r0, r6
 877 0010 FFF7FEFF 		bl	lv_event_get_target
 878              	.LVL105:
 879 0014 0446     		mov	r4, r0
 880              	.LVL106:
 446:Middlewares/lvgl/src/widgets/lv_roller.c ****         /*Draw the selected rectangle*/
 881              		.loc 1 446 5 is_stmt 1 view .LVU246
 446:Middlewares/lvgl/src/widgets/lv_roller.c ****         /*Draw the selected rectangle*/
 882              		.loc 1 446 7 is_stmt 0 view .LVU247
 883 0016 152D     		cmp	r5, #21
 884 0018 04D0     		beq	.L37
 467:Middlewares/lvgl/src/widgets/lv_roller.c ****         const lv_area_t * clip_area = lv_event_get_param(e);
 885              		.loc 1 467 10 is_stmt 1 view .LVU248
 467:Middlewares/lvgl/src/widgets/lv_roller.c ****         const lv_area_t * clip_area = lv_event_get_param(e);
 886              		.loc 1 467 12 is_stmt 0 view .LVU249
 887 001a 182D     		cmp	r5, #24
 888 001c 49D0     		beq	.L38
 889              	.LVL107:
 890              	.L32:
 521:Middlewares/lvgl/src/widgets/lv_roller.c **** 
 891              		.loc 1 521 1 view .LVU250
 892 001e 19B0     		add	sp, sp, #100
 893              	.LCFI14:
 894              		.cfi_remember_state
 895              		.cfi_def_cfa_offset 28
 896              		@ sp needed
 897 0020 BDE8F083 		pop	{r4, r5, r6, r7, r8, r9, pc}
 898              	.LVL108:
 899              	.L37:
 900              	.LCFI15:
 901              		.cfi_restore_state
 902              	.LBB110:
 448:Middlewares/lvgl/src/widgets/lv_roller.c ****         const lv_font_t * font = lv_obj_get_style_text_font(obj, LV_PART_MAIN);
 903              		.loc 1 448 9 is_stmt 1 view .LVU251
 448:Middlewares/lvgl/src/widgets/lv_roller.c ****         const lv_font_t * font = lv_obj_get_style_text_font(obj, LV_PART_MAIN);
 904              		.loc 1 448 39 is_stmt 0 view .LVU252
 905 0024 3046     		mov	r0, r6
 906              	.LVL109:
 448:Middlewares/lvgl/src/widgets/lv_roller.c ****         const lv_font_t * font = lv_obj_get_style_text_font(obj, LV_PART_MAIN);
 907              		.loc 1 448 39 view .LVU253
 908 0026 FFF7FEFF 		bl	lv_event_get_param
 909              	.LVL110:
 910 002a 0646     		mov	r6, r0
 911              	.LVL111:
 449:Middlewares/lvgl/src/widgets/lv_roller.c ****         lv_coord_t line_space = lv_obj_get_style_text_line_space(obj, LV_PART_MAIN);
 912              		.loc 1 449 9 is_stmt 1 view .LVU254
 913              	.LBB111:
 914              	.LBI111:
 331:Middlewares/lvgl/src/widgets/../core/lv_obj_style_gen.h **** {
 915              		.loc 2 331 33 view .LVU255
 916              	.LBB112:
ARM GAS  /tmp/cc9MIr9f.s 			page 46


 333:Middlewares/lvgl/src/widgets/../core/lv_obj_style_gen.h ****     return (const lv_font_t *)v.ptr;
 917              		.loc 2 333 5 view .LVU256
 333:Middlewares/lvgl/src/widgets/../core/lv_obj_style_gen.h ****     return (const lv_font_t *)v.ptr;
 918              		.loc 2 333 26 is_stmt 0 view .LVU257
 919 002c 41F25942 		movw	r2, #5209
 920 0030 0021     		movs	r1, #0
 921 0032 2046     		mov	r0, r4
 922              	.LVL112:
 333:Middlewares/lvgl/src/widgets/../core/lv_obj_style_gen.h ****     return (const lv_font_t *)v.ptr;
 923              		.loc 2 333 26 view .LVU258
 924 0034 FFF7FEFF 		bl	lv_obj_get_style_prop
 925              	.LVL113:
 926 0038 0546     		mov	r5, r0
 927              	.LVL114:
 334:Middlewares/lvgl/src/widgets/../core/lv_obj_style_gen.h **** }
 928              		.loc 2 334 5 is_stmt 1 view .LVU259
 334:Middlewares/lvgl/src/widgets/../core/lv_obj_style_gen.h **** }
 929              		.loc 2 334 5 is_stmt 0 view .LVU260
 930              	.LBE112:
 931              	.LBE111:
 450:Middlewares/lvgl/src/widgets/lv_roller.c ****         lv_coord_t font_h        = lv_font_get_line_height(font);
 932              		.loc 1 450 9 is_stmt 1 view .LVU261
 933              	.LBB113:
 934              	.LBI113:
 343:Middlewares/lvgl/src/widgets/../core/lv_obj_style_gen.h **** {
 935              		.loc 2 343 26 view .LVU262
 936              	.LBB114:
 345:Middlewares/lvgl/src/widgets/../core/lv_obj_style_gen.h ****     return (lv_coord_t)v.num;
 937              		.loc 2 345 5 view .LVU263
 345:Middlewares/lvgl/src/widgets/../core/lv_obj_style_gen.h ****     return (lv_coord_t)v.num;
 938              		.loc 2 345 26 is_stmt 0 view .LVU264
 939 003a 41F25B42 		movw	r2, #5211
 940 003e 0021     		movs	r1, #0
 941 0040 2046     		mov	r0, r4
 942              	.LVL115:
 345:Middlewares/lvgl/src/widgets/../core/lv_obj_style_gen.h ****     return (lv_coord_t)v.num;
 943              		.loc 2 345 26 view .LVU265
 944 0042 FFF7FEFF 		bl	lv_obj_get_style_prop
 945              	.LVL116:
 946 0046 0746     		mov	r7, r0
 346:Middlewares/lvgl/src/widgets/../core/lv_obj_style_gen.h **** }
 947              		.loc 2 346 5 is_stmt 1 view .LVU266
 346:Middlewares/lvgl/src/widgets/../core/lv_obj_style_gen.h **** }
 948              		.loc 2 346 12 is_stmt 0 view .LVU267
 949 0048 0FFA80F9 		sxth	r9, r0
 950              	.LVL117:
 346:Middlewares/lvgl/src/widgets/../core/lv_obj_style_gen.h **** }
 951              		.loc 2 346 12 view .LVU268
 952              	.LBE114:
 953              	.LBE113:
 451:Middlewares/lvgl/src/widgets/lv_roller.c ****         lv_area_t rect_area;
 954              		.loc 1 451 9 is_stmt 1 view .LVU269
 955              	.LBB115:
 956              	.LBI115:
 118:Middlewares/lvgl/src/widgets/../core/../misc/../font/lv_font.h **** {
 957              		.loc 3 118 26 view .LVU270
 958              	.LBB116:
ARM GAS  /tmp/cc9MIr9f.s 			page 47


 959              		.loc 3 120 5 view .LVU271
 960              		.loc 3 120 18 is_stmt 0 view .LVU272
 961 004c B5F90880 		ldrsh	r8, [r5, #8]
 962              	.LVL118:
 963              		.loc 3 120 18 view .LVU273
 964              	.LBE116:
 965              	.LBE115:
 452:Middlewares/lvgl/src/widgets/lv_roller.c ****         rect_area.y1 = obj->coords.y1 + (lv_obj_get_height(obj) - font_h - line_space) / 2;
 966              		.loc 1 452 9 is_stmt 1 view .LVU274
 453:Middlewares/lvgl/src/widgets/lv_roller.c ****         rect_area.y2 = rect_area.y1 + font_h + line_space - 1;
 967              		.loc 1 453 9 view .LVU275
 453:Middlewares/lvgl/src/widgets/lv_roller.c ****         rect_area.y2 = rect_area.y1 + font_h + line_space - 1;
 968              		.loc 1 453 35 is_stmt 0 view .LVU276
 969 0050 E58A     		ldrh	r5, [r4, #22]
 970              	.LVL119:
 453:Middlewares/lvgl/src/widgets/lv_roller.c ****         rect_area.y2 = rect_area.y1 + font_h + line_space - 1;
 971              		.loc 1 453 42 view .LVU277
 972 0052 2046     		mov	r0, r4
 453:Middlewares/lvgl/src/widgets/lv_roller.c ****         rect_area.y2 = rect_area.y1 + font_h + line_space - 1;
 973              		.loc 1 453 42 view .LVU278
 974 0054 FFF7FEFF 		bl	lv_obj_get_height
 975              	.LVL120:
 453:Middlewares/lvgl/src/widgets/lv_roller.c ****         rect_area.y2 = rect_area.y1 + font_h + line_space - 1;
 976              		.loc 1 453 65 view .LVU279
 977 0058 A0EB0802 		sub	r2, r0, r8
 453:Middlewares/lvgl/src/widgets/lv_roller.c ****         rect_area.y2 = rect_area.y1 + font_h + line_space - 1;
 978              		.loc 1 453 74 view .LVU280
 979 005c A2EB0902 		sub	r2, r2, r9
 453:Middlewares/lvgl/src/widgets/lv_roller.c ****         rect_area.y2 = rect_area.y1 + font_h + line_space - 1;
 980              		.loc 1 453 88 view .LVU281
 981 0060 02EBD272 		add	r2, r2, r2, lsr #31
 453:Middlewares/lvgl/src/widgets/lv_roller.c ****         rect_area.y2 = rect_area.y1 + font_h + line_space - 1;
 982              		.loc 1 453 39 view .LVU282
 983 0064 05EB6203 		add	r3, r5, r2, asr #1
 453:Middlewares/lvgl/src/widgets/lv_roller.c ****         rect_area.y2 = rect_area.y1 + font_h + line_space - 1;
 984              		.loc 1 453 22 view .LVU283
 985 0068 ADF81E30 		strh	r3, [sp, #30]	@ movhi
 454:Middlewares/lvgl/src/widgets/lv_roller.c ****         lv_area_t roller_coords;
 986              		.loc 1 454 9 is_stmt 1 view .LVU284
 454:Middlewares/lvgl/src/widgets/lv_roller.c ****         lv_area_t roller_coords;
 987              		.loc 1 454 37 is_stmt 0 view .LVU285
 988 006c 18FA83F3 		uxtah	r3, r8, r3
 989              	.LVL121:
 454:Middlewares/lvgl/src/widgets/lv_roller.c ****         lv_area_t roller_coords;
 990              		.loc 1 454 46 view .LVU286
 991 0070 17FA83F3 		uxtah	r3, r7, r3
 992 0074 9BB2     		uxth	r3, r3
 454:Middlewares/lvgl/src/widgets/lv_roller.c ****         lv_area_t roller_coords;
 993              		.loc 1 454 59 view .LVU287
 994 0076 013B     		subs	r3, r3, #1
 454:Middlewares/lvgl/src/widgets/lv_roller.c ****         lv_area_t roller_coords;
 995              		.loc 1 454 22 view .LVU288
 996 0078 ADF82230 		strh	r3, [sp, #34]	@ movhi
 455:Middlewares/lvgl/src/widgets/lv_roller.c ****         lv_obj_get_coords(obj, &roller_coords);
 997              		.loc 1 455 9 is_stmt 1 view .LVU289
 456:Middlewares/lvgl/src/widgets/lv_roller.c **** 
 998              		.loc 1 456 9 view .LVU290
ARM GAS  /tmp/cc9MIr9f.s 			page 48


 999 007c 09A9     		add	r1, sp, #36
 1000 007e 2046     		mov	r0, r4
 1001 0080 FFF7FEFF 		bl	lv_obj_get_coords
 1002              	.LVL122:
 458:Middlewares/lvgl/src/widgets/lv_roller.c ****         rect_area.x2 = roller_coords.x2;
 1003              		.loc 1 458 9 view .LVU291
 458:Middlewares/lvgl/src/widgets/lv_roller.c ****         rect_area.x2 = roller_coords.x2;
 1004              		.loc 1 458 37 is_stmt 0 view .LVU292
 1005 0084 BDF92430 		ldrsh	r3, [sp, #36]
 458:Middlewares/lvgl/src/widgets/lv_roller.c ****         rect_area.x2 = roller_coords.x2;
 1006              		.loc 1 458 22 view .LVU293
 1007 0088 ADF81C30 		strh	r3, [sp, #28]	@ movhi
 459:Middlewares/lvgl/src/widgets/lv_roller.c **** 
 1008              		.loc 1 459 9 is_stmt 1 view .LVU294
 459:Middlewares/lvgl/src/widgets/lv_roller.c **** 
 1009              		.loc 1 459 37 is_stmt 0 view .LVU295
 1010 008c BDF92830 		ldrsh	r3, [sp, #40]
 459:Middlewares/lvgl/src/widgets/lv_roller.c **** 
 1011              		.loc 1 459 22 view .LVU296
 1012 0090 ADF82030 		strh	r3, [sp, #32]	@ movhi
 461:Middlewares/lvgl/src/widgets/lv_roller.c ****         lv_draw_rect_dsc_init(&sel_dsc);
 1013              		.loc 1 461 9 is_stmt 1 view .LVU297
 462:Middlewares/lvgl/src/widgets/lv_roller.c ****         lv_obj_init_draw_rect_dsc(obj, LV_PART_SELECTED, &sel_dsc);
 1014              		.loc 1 462 9 view .LVU298
 1015 0094 0BA8     		add	r0, sp, #44
 1016 0096 FFF7FEFF 		bl	lv_draw_rect_dsc_init
 1017              	.LVL123:
 463:Middlewares/lvgl/src/widgets/lv_roller.c ****         lv_draw_rect(&rect_area, clip_area, &sel_dsc);
 1018              		.loc 1 463 9 view .LVU299
 1019 009a 0BAA     		add	r2, sp, #44
 1020 009c 4FF48021 		mov	r1, #262144
 1021 00a0 2046     		mov	r0, r4
 1022 00a2 FFF7FEFF 		bl	lv_obj_init_draw_rect_dsc
 1023              	.LVL124:
 464:Middlewares/lvgl/src/widgets/lv_roller.c ****     }
 1024              		.loc 1 464 9 view .LVU300
 1025 00a6 0BAA     		add	r2, sp, #44
 1026 00a8 3146     		mov	r1, r6
 1027 00aa 07A8     		add	r0, sp, #28
 1028 00ac FFF7FEFF 		bl	lv_draw_rect
 1029              	.LVL125:
 1030              	.LBE110:
 1031 00b0 B5E7     		b	.L32
 1032              	.LVL126:
 1033              	.L38:
 1034              	.LBB117:
 468:Middlewares/lvgl/src/widgets/lv_roller.c **** 
 1035              		.loc 1 468 9 view .LVU301
 468:Middlewares/lvgl/src/widgets/lv_roller.c **** 
 1036              		.loc 1 468 39 is_stmt 0 view .LVU302
 1037 00b2 3046     		mov	r0, r6
 1038              	.LVL127:
 468:Middlewares/lvgl/src/widgets/lv_roller.c **** 
 1039              		.loc 1 468 39 view .LVU303
 1040 00b4 FFF7FEFF 		bl	lv_event_get_param
 1041              	.LVL128:
 1042 00b8 0646     		mov	r6, r0
ARM GAS  /tmp/cc9MIr9f.s 			page 49


 1043              	.LVL129:
 470:Middlewares/lvgl/src/widgets/lv_roller.c ****         lv_draw_label_dsc_init(&label_dsc);
 1044              		.loc 1 470 9 is_stmt 1 view .LVU304
 471:Middlewares/lvgl/src/widgets/lv_roller.c ****         lv_obj_init_draw_label_dsc(obj, LV_PART_SELECTED, &label_dsc);
 1045              		.loc 1 471 9 view .LVU305
 1046 00ba 0BA8     		add	r0, sp, #44
 1047              	.LVL130:
 471:Middlewares/lvgl/src/widgets/lv_roller.c ****         lv_obj_init_draw_label_dsc(obj, LV_PART_SELECTED, &label_dsc);
 1048              		.loc 1 471 9 is_stmt 0 view .LVU306
 1049 00bc FFF7FEFF 		bl	lv_draw_label_dsc_init
 1050              	.LVL131:
 472:Middlewares/lvgl/src/widgets/lv_roller.c **** 
 1051              		.loc 1 472 9 is_stmt 1 view .LVU307
 1052 00c0 0BAA     		add	r2, sp, #44
 1053 00c2 4FF48021 		mov	r1, #262144
 1054 00c6 2046     		mov	r0, r4
 1055 00c8 FFF7FEFF 		bl	lv_obj_init_draw_label_dsc
 1056              	.LVL132:
 474:Middlewares/lvgl/src/widgets/lv_roller.c **** 
 1057              		.loc 1 474 9 view .LVU308
 1058              	.LBB118:
 1059              	.LBI118:
 331:Middlewares/lvgl/src/widgets/../core/lv_obj_style_gen.h **** {
 1060              		.loc 2 331 33 view .LVU309
 1061              	.LBB119:
 333:Middlewares/lvgl/src/widgets/../core/lv_obj_style_gen.h ****     return (const lv_font_t *)v.ptr;
 1062              		.loc 2 333 5 view .LVU310
 333:Middlewares/lvgl/src/widgets/../core/lv_obj_style_gen.h ****     return (const lv_font_t *)v.ptr;
 1063              		.loc 2 333 26 is_stmt 0 view .LVU311
 1064 00cc 41F25942 		movw	r2, #5209
 1065 00d0 0021     		movs	r1, #0
 1066 00d2 2046     		mov	r0, r4
 1067 00d4 FFF7FEFF 		bl	lv_obj_get_style_prop
 1068              	.LVL133:
 334:Middlewares/lvgl/src/widgets/../core/lv_obj_style_gen.h **** }
 1069              		.loc 2 334 5 is_stmt 1 view .LVU312
 334:Middlewares/lvgl/src/widgets/../core/lv_obj_style_gen.h **** }
 1070              		.loc 2 334 5 is_stmt 0 view .LVU313
 1071              	.LBE119:
 1072              	.LBE118:
 1073              	.LBB120:
 1074              	.LBI120:
 118:Middlewares/lvgl/src/widgets/../core/../misc/../font/lv_font.h **** {
 1075              		.loc 3 118 26 is_stmt 1 view .LVU314
 1076              	.LBB121:
 1077              		.loc 3 120 5 view .LVU315
 1078              		.loc 3 120 18 is_stmt 0 view .LVU316
 1079 00d8 B0F90870 		ldrsh	r7, [r0, #8]
 1080              	.LVL134:
 1081              		.loc 3 120 18 view .LVU317
 1082              	.LBE121:
 1083              	.LBE120:
 477:Middlewares/lvgl/src/widgets/lv_roller.c ****         rect_area.y1 = obj->coords.y1 + (lv_obj_get_height(obj) - bg_font_h - label_dsc.line_space)
 1084              		.loc 1 477 9 is_stmt 1 view .LVU318
 478:Middlewares/lvgl/src/widgets/lv_roller.c ****         rect_area.y2 = rect_area.y1 + bg_font_h + label_dsc.line_space - 1;
 1085              		.loc 1 478 9 view .LVU319
 478:Middlewares/lvgl/src/widgets/lv_roller.c ****         rect_area.y2 = rect_area.y1 + bg_font_h + label_dsc.line_space - 1;
ARM GAS  /tmp/cc9MIr9f.s 			page 50


 1086              		.loc 1 478 35 is_stmt 0 view .LVU320
 1087 00dc E58A     		ldrh	r5, [r4, #22]
 1088              	.LVL135:
 478:Middlewares/lvgl/src/widgets/lv_roller.c ****         rect_area.y2 = rect_area.y1 + bg_font_h + label_dsc.line_space - 1;
 1089              		.loc 1 478 42 view .LVU321
 1090 00de 2046     		mov	r0, r4
 1091 00e0 FFF7FEFF 		bl	lv_obj_get_height
 1092              	.LVL136:
 478:Middlewares/lvgl/src/widgets/lv_roller.c ****         rect_area.y2 = rect_area.y1 + bg_font_h + label_dsc.line_space - 1;
 1093              		.loc 1 478 65 view .LVU322
 1094 00e4 C01B     		subs	r0, r0, r7
 478:Middlewares/lvgl/src/widgets/lv_roller.c ****         rect_area.y2 = rect_area.y1 + bg_font_h + label_dsc.line_space - 1;
 1095              		.loc 1 478 88 view .LVU323
 1096 00e6 BDF93E20 		ldrsh	r2, [sp, #62]
 478:Middlewares/lvgl/src/widgets/lv_roller.c ****         rect_area.y2 = rect_area.y1 + bg_font_h + label_dsc.line_space - 1;
 1097              		.loc 1 478 77 view .LVU324
 1098 00ea 801A     		subs	r0, r0, r2
 478:Middlewares/lvgl/src/widgets/lv_roller.c ****         rect_area.y2 = rect_area.y1 + bg_font_h + label_dsc.line_space - 1;
 1099              		.loc 1 478 101 view .LVU325
 1100 00ec 00EBD070 		add	r0, r0, r0, lsr #31
 478:Middlewares/lvgl/src/widgets/lv_roller.c ****         rect_area.y2 = rect_area.y1 + bg_font_h + label_dsc.line_space - 1;
 1101              		.loc 1 478 39 view .LVU326
 1102 00f0 05EB6003 		add	r3, r5, r0, asr #1
 478:Middlewares/lvgl/src/widgets/lv_roller.c ****         rect_area.y2 = rect_area.y1 + bg_font_h + label_dsc.line_space - 1;
 1103              		.loc 1 478 22 view .LVU327
 1104 00f4 ADF81630 		strh	r3, [sp, #22]	@ movhi
 479:Middlewares/lvgl/src/widgets/lv_roller.c ****         rect_area.x1 = obj->coords.x1;
 1105              		.loc 1 479 9 is_stmt 1 view .LVU328
 479:Middlewares/lvgl/src/widgets/lv_roller.c ****         rect_area.x1 = obj->coords.x1;
 1106              		.loc 1 479 37 is_stmt 0 view .LVU329
 1107 00f8 17FA83F3 		uxtah	r3, r7, r3
 479:Middlewares/lvgl/src/widgets/lv_roller.c ****         rect_area.x1 = obj->coords.x1;
 1108              		.loc 1 479 60 view .LVU330
 1109 00fc 92B2     		uxth	r2, r2
 479:Middlewares/lvgl/src/widgets/lv_roller.c ****         rect_area.x1 = obj->coords.x1;
 1110              		.loc 1 479 49 view .LVU331
 1111 00fe 12FA83F3 		uxtah	r3, r2, r3
 1112 0102 9BB2     		uxth	r3, r3
 479:Middlewares/lvgl/src/widgets/lv_roller.c ****         rect_area.x1 = obj->coords.x1;
 1113              		.loc 1 479 72 view .LVU332
 1114 0104 013B     		subs	r3, r3, #1
 479:Middlewares/lvgl/src/widgets/lv_roller.c ****         rect_area.x1 = obj->coords.x1;
 1115              		.loc 1 479 22 view .LVU333
 1116 0106 ADF81A30 		strh	r3, [sp, #26]	@ movhi
 480:Middlewares/lvgl/src/widgets/lv_roller.c ****         rect_area.x2 = obj->coords.x2;
 1117              		.loc 1 480 9 is_stmt 1 view .LVU334
 480:Middlewares/lvgl/src/widgets/lv_roller.c ****         rect_area.x2 = obj->coords.x2;
 1118              		.loc 1 480 35 is_stmt 0 view .LVU335
 1119 010a B4F91430 		ldrsh	r3, [r4, #20]
 480:Middlewares/lvgl/src/widgets/lv_roller.c ****         rect_area.x2 = obj->coords.x2;
 1120              		.loc 1 480 22 view .LVU336
 1121 010e ADF81430 		strh	r3, [sp, #20]	@ movhi
 481:Middlewares/lvgl/src/widgets/lv_roller.c ****         lv_area_t mask_sel;
 1122              		.loc 1 481 9 is_stmt 1 view .LVU337
 481:Middlewares/lvgl/src/widgets/lv_roller.c ****         lv_area_t mask_sel;
 1123              		.loc 1 481 35 is_stmt 0 view .LVU338
 1124 0112 B4F91830 		ldrsh	r3, [r4, #24]
ARM GAS  /tmp/cc9MIr9f.s 			page 51


 481:Middlewares/lvgl/src/widgets/lv_roller.c ****         lv_area_t mask_sel;
 1125              		.loc 1 481 22 view .LVU339
 1126 0116 ADF81830 		strh	r3, [sp, #24]	@ movhi
 482:Middlewares/lvgl/src/widgets/lv_roller.c ****         bool area_ok;
 1127              		.loc 1 482 9 is_stmt 1 view .LVU340
 483:Middlewares/lvgl/src/widgets/lv_roller.c ****         area_ok = _lv_area_intersect(&mask_sel, clip_area, &rect_area);
 1128              		.loc 1 483 9 view .LVU341
 484:Middlewares/lvgl/src/widgets/lv_roller.c ****         if(area_ok) {
 1129              		.loc 1 484 9 view .LVU342
 484:Middlewares/lvgl/src/widgets/lv_roller.c ****         if(area_ok) {
 1130              		.loc 1 484 19 is_stmt 0 view .LVU343
 1131 011a 05AA     		add	r2, sp, #20
 1132 011c 3146     		mov	r1, r6
 1133 011e 07A8     		add	r0, sp, #28
 1134 0120 FFF7FEFF 		bl	_lv_area_intersect
 1135              	.LVL137:
 485:Middlewares/lvgl/src/widgets/lv_roller.c ****             lv_obj_t * label = get_label(obj);
 1136              		.loc 1 485 9 is_stmt 1 view .LVU344
 485:Middlewares/lvgl/src/widgets/lv_roller.c ****             lv_obj_t * label = get_label(obj);
 1137              		.loc 1 485 11 is_stmt 0 view .LVU345
 1138 0124 0028     		cmp	r0, #0
 1139 0126 3FF47AAF 		beq	.L32
 1140              	.LBB122:
 486:Middlewares/lvgl/src/widgets/lv_roller.c **** 
 1141              		.loc 1 486 13 is_stmt 1 view .LVU346
 486:Middlewares/lvgl/src/widgets/lv_roller.c **** 
 1142              		.loc 1 486 32 is_stmt 0 view .LVU347
 1143 012a 2046     		mov	r0, r4
 1144              	.LVL138:
 486:Middlewares/lvgl/src/widgets/lv_roller.c **** 
 1145              		.loc 1 486 32 view .LVU348
 1146 012c FFF7FEFF 		bl	get_label
 1147              	.LVL139:
 1148 0130 0646     		mov	r6, r0
 1149              	.LVL140:
 489:Middlewares/lvgl/src/widgets/lv_roller.c ****             lv_txt_get_size(&res_p, lv_label_get_text(label), label_dsc.font, label_dsc.letter_spac
 1150              		.loc 1 489 13 is_stmt 1 view .LVU349
 490:Middlewares/lvgl/src/widgets/lv_roller.c ****                              lv_obj_get_width(obj), LV_TEXT_FLAG_EXPAND);
 1151              		.loc 1 490 13 view .LVU350
 490:Middlewares/lvgl/src/widgets/lv_roller.c ****                              lv_obj_get_width(obj), LV_TEXT_FLAG_EXPAND);
 1152              		.loc 1 490 37 is_stmt 0 view .LVU351
 1153 0132 FFF7FEFF 		bl	lv_label_get_text
 1154              	.LVL141:
 490:Middlewares/lvgl/src/widgets/lv_roller.c ****                              lv_obj_get_width(obj), LV_TEXT_FLAG_EXPAND);
 1155              		.loc 1 490 37 view .LVU352
 1156 0136 0546     		mov	r5, r0
 490:Middlewares/lvgl/src/widgets/lv_roller.c ****                              lv_obj_get_width(obj), LV_TEXT_FLAG_EXPAND);
 1157              		.loc 1 490 13 view .LVU353
 1158 0138 0B9F     		ldr	r7, [sp, #44]
 1159              	.LVL142:
 490:Middlewares/lvgl/src/widgets/lv_roller.c ****                              lv_obj_get_width(obj), LV_TEXT_FLAG_EXPAND);
 1160              		.loc 1 490 13 view .LVU354
 1161 013a BDF94080 		ldrsh	r8, [sp, #64]
 1162 013e BDF93E90 		ldrsh	r9, [sp, #62]
 1163 0142 2046     		mov	r0, r4
 1164 0144 FFF7FEFF 		bl	lv_obj_get_width
 1165              	.LVL143:
ARM GAS  /tmp/cc9MIr9f.s 			page 52


 1166 0148 0223     		movs	r3, #2
 1167 014a 0293     		str	r3, [sp, #8]
 1168 014c 0190     		str	r0, [sp, #4]
 1169 014e CDF80090 		str	r9, [sp]
 1170 0152 4346     		mov	r3, r8
 1171 0154 3A46     		mov	r2, r7
 1172 0156 2946     		mov	r1, r5
 1173 0158 04A8     		add	r0, sp, #16
 1174 015a FFF7FEFF 		bl	lv_txt_get_size
 1175              	.LVL144:
 494:Middlewares/lvgl/src/widgets/lv_roller.c ****             int32_t label_y_prop = label->coords.y1 - (roller_h / 2 +
 1176              		.loc 1 494 13 is_stmt 1 view .LVU355
 494:Middlewares/lvgl/src/widgets/lv_roller.c ****             int32_t label_y_prop = label->coords.y1 - (roller_h / 2 +
 1177              		.loc 1 494 35 is_stmt 0 view .LVU356
 1178 015e 2046     		mov	r0, r4
 1179 0160 FFF7FEFF 		bl	lv_obj_get_height
 1180              	.LVL145:
 495:Middlewares/lvgl/src/widgets/lv_roller.c ****                     obj->coords.y1); /*label offset from the middle line of the roller*/
 1181              		.loc 1 495 13 is_stmt 1 view .LVU357
 495:Middlewares/lvgl/src/widgets/lv_roller.c ****                     obj->coords.y1); /*label offset from the middle line of the roller*/
 1182              		.loc 1 495 49 is_stmt 0 view .LVU358
 1183 0164 B6F91670 		ldrsh	r7, [r6, #22]
 495:Middlewares/lvgl/src/widgets/lv_roller.c ****                     obj->coords.y1); /*label offset from the middle line of the roller*/
 1184              		.loc 1 495 65 view .LVU359
 1185 0168 00EBD070 		add	r0, r0, r0, lsr #31
 1186              	.LVL146:
 495:Middlewares/lvgl/src/widgets/lv_roller.c ****                     obj->coords.y1); /*label offset from the middle line of the roller*/
 1187              		.loc 1 495 65 view .LVU360
 1188 016c 40F34F05 		sbfx	r5, r0, #1, #16
 496:Middlewares/lvgl/src/widgets/lv_roller.c ****             label_y_prop = (label_y_prop * 16384) / lv_obj_get_height(
 1189              		.loc 1 496 32 view .LVU361
 1190 0170 B4F91630 		ldrsh	r3, [r4, #22]
 495:Middlewares/lvgl/src/widgets/lv_roller.c ****                     obj->coords.y1); /*label offset from the middle line of the roller*/
 1191              		.loc 1 495 69 view .LVU362
 1192 0174 2B44     		add	r3, r3, r5
 495:Middlewares/lvgl/src/widgets/lv_roller.c ****                     obj->coords.y1); /*label offset from the middle line of the roller*/
 1193              		.loc 1 495 21 view .LVU363
 1194 0176 FF1A     		subs	r7, r7, r3
 1195              	.LVL147:
 497:Middlewares/lvgl/src/widgets/lv_roller.c ****                                label); /*Proportional position from the middle line (upscaled by <<
 1196              		.loc 1 497 13 is_stmt 1 view .LVU364
 497:Middlewares/lvgl/src/widgets/lv_roller.c ****                                label); /*Proportional position from the middle line (upscaled by <<
 1197              		.loc 1 497 42 is_stmt 0 view .LVU365
 1198 0178 BF03     		lsls	r7, r7, #14
 1199              	.LVL148:
 497:Middlewares/lvgl/src/widgets/lv_roller.c ****                                label); /*Proportional position from the middle line (upscaled by <<
 1200              		.loc 1 497 53 view .LVU366
 1201 017a 3046     		mov	r0, r6
 1202 017c FFF7FEFF 		bl	lv_obj_get_height
 1203              	.LVL149:
 497:Middlewares/lvgl/src/widgets/lv_roller.c ****                                label); /*Proportional position from the middle line (upscaled by <<
 1204              		.loc 1 497 26 view .LVU367
 1205 0180 97FBF0F7 		sdiv	r7, r7, r0
 1206              	.LVL150:
 501:Middlewares/lvgl/src/widgets/lv_roller.c ****             lv_coord_t corr = (label_dsc.font->line_height - normal_label_font->line_height) / 2;
 1207              		.loc 1 501 13 is_stmt 1 view .LVU368
 1208              	.LBB123:
ARM GAS  /tmp/cc9MIr9f.s 			page 53


 1209              	.LBI123:
 331:Middlewares/lvgl/src/widgets/../core/lv_obj_style_gen.h **** {
 1210              		.loc 2 331 33 view .LVU369
 1211              	.LBB124:
 333:Middlewares/lvgl/src/widgets/../core/lv_obj_style_gen.h ****     return (const lv_font_t *)v.ptr;
 1212              		.loc 2 333 5 view .LVU370
 333:Middlewares/lvgl/src/widgets/../core/lv_obj_style_gen.h ****     return (const lv_font_t *)v.ptr;
 1213              		.loc 2 333 26 is_stmt 0 view .LVU371
 1214 0184 41F25942 		movw	r2, #5209
 1215 0188 0021     		movs	r1, #0
 1216 018a 2046     		mov	r0, r4
 1217 018c FFF7FEFF 		bl	lv_obj_get_style_prop
 1218              	.LVL151:
 334:Middlewares/lvgl/src/widgets/../core/lv_obj_style_gen.h **** }
 1219              		.loc 2 334 5 is_stmt 1 view .LVU372
 334:Middlewares/lvgl/src/widgets/../core/lv_obj_style_gen.h **** }
 1220              		.loc 2 334 5 is_stmt 0 view .LVU373
 1221              	.LBE124:
 1222              	.LBE123:
 502:Middlewares/lvgl/src/widgets/lv_roller.c **** 
 1223              		.loc 1 502 13 is_stmt 1 view .LVU374
 502:Middlewares/lvgl/src/widgets/lv_roller.c **** 
 1224              		.loc 1 502 41 is_stmt 0 view .LVU375
 1225 0190 0B9B     		ldr	r3, [sp, #44]
 502:Middlewares/lvgl/src/widgets/lv_roller.c **** 
 1226              		.loc 1 502 46 view .LVU376
 1227 0192 B3F90820 		ldrsh	r2, [r3, #8]
 502:Middlewares/lvgl/src/widgets/lv_roller.c **** 
 1228              		.loc 1 502 79 view .LVU377
 1229 0196 B0F90830 		ldrsh	r3, [r0, #8]
 502:Middlewares/lvgl/src/widgets/lv_roller.c **** 
 1230              		.loc 1 502 60 view .LVU378
 1231 019a D21A     		subs	r2, r2, r3
 502:Middlewares/lvgl/src/widgets/lv_roller.c **** 
 1232              		.loc 1 502 94 view .LVU379
 1233 019c 02EBD272 		add	r2, r2, r2, lsr #31
 502:Middlewares/lvgl/src/widgets/lv_roller.c **** 
 1234              		.loc 1 502 24 view .LVU380
 1235 01a0 42F34F00 		sbfx	r0, r2, #1, #16
 1236              	.LVL152:
 505:Middlewares/lvgl/src/widgets/lv_roller.c ****             int32_t label_sel_y = roller_h / 2 + obj->coords.y1;
 1237              		.loc 1 505 13 is_stmt 1 view .LVU381
 505:Middlewares/lvgl/src/widgets/lv_roller.c ****             int32_t label_sel_y = roller_h / 2 + obj->coords.y1;
 1238              		.loc 1 505 21 is_stmt 0 view .LVU382
 1239 01a4 BDF81230 		ldrh	r3, [sp, #18]
 1240 01a8 A3EB6202 		sub	r2, r3, r2, asr #1
 1241 01ac 11B2     		sxth	r1, r2
 1242 01ae ADF81210 		strh	r1, [sp, #18]	@ movhi
 506:Middlewares/lvgl/src/widgets/lv_roller.c ****             label_sel_y += (label_y_prop * res_p.y) >> 14;
 1243              		.loc 1 506 13 is_stmt 1 view .LVU383
 506:Middlewares/lvgl/src/widgets/lv_roller.c ****             label_sel_y += (label_y_prop * res_p.y) >> 14;
 1244              		.loc 1 506 61 is_stmt 0 view .LVU384
 1245 01b2 B4F91630 		ldrsh	r3, [r4, #22]
 506:Middlewares/lvgl/src/widgets/lv_roller.c ****             label_sel_y += (label_y_prop * res_p.y) >> 14;
 1246              		.loc 1 506 21 view .LVU385
 1247 01b6 2B44     		add	r3, r3, r5
 1248              	.LVL153:
ARM GAS  /tmp/cc9MIr9f.s 			page 54


 507:Middlewares/lvgl/src/widgets/lv_roller.c ****             label_sel_y -= corr;
 1249              		.loc 1 507 13 is_stmt 1 view .LVU386
 507:Middlewares/lvgl/src/widgets/lv_roller.c ****             label_sel_y -= corr;
 1250              		.loc 1 507 42 is_stmt 0 view .LVU387
 1251 01b8 07FB01F1 		mul	r1, r7, r1
 507:Middlewares/lvgl/src/widgets/lv_roller.c ****             label_sel_y -= corr;
 1252              		.loc 1 507 25 view .LVU388
 1253 01bc 03EBA133 		add	r3, r3, r1, asr #14
 1254              	.LVL154:
 508:Middlewares/lvgl/src/widgets/lv_roller.c **** 
 1255              		.loc 1 508 13 is_stmt 1 view .LVU389
 508:Middlewares/lvgl/src/widgets/lv_roller.c **** 
 1256              		.loc 1 508 25 is_stmt 0 view .LVU390
 1257 01c0 1B1A     		subs	r3, r3, r0
 1258              	.LVL155:
 511:Middlewares/lvgl/src/widgets/lv_roller.c ****             label_sel_area.x1 = label->coords.x1;
 1259              		.loc 1 511 13 is_stmt 1 view .LVU391
 512:Middlewares/lvgl/src/widgets/lv_roller.c ****             label_sel_area.y1 = label_sel_y;
 1260              		.loc 1 512 13 view .LVU392
 512:Middlewares/lvgl/src/widgets/lv_roller.c ****             label_sel_area.y1 = label_sel_y;
 1261              		.loc 1 512 46 is_stmt 0 view .LVU393
 1262 01c2 B6F91410 		ldrsh	r1, [r6, #20]
 512:Middlewares/lvgl/src/widgets/lv_roller.c ****             label_sel_area.y1 = label_sel_y;
 1263              		.loc 1 512 31 view .LVU394
 1264 01c6 ADF82410 		strh	r1, [sp, #36]	@ movhi
 513:Middlewares/lvgl/src/widgets/lv_roller.c ****             label_sel_area.x2 = label->coords.x2;
 1265              		.loc 1 513 13 is_stmt 1 view .LVU395
 513:Middlewares/lvgl/src/widgets/lv_roller.c ****             label_sel_area.x2 = label->coords.x2;
 1266              		.loc 1 513 31 is_stmt 0 view .LVU396
 1267 01ca 1BB2     		sxth	r3, r3
 1268              	.LVL156:
 513:Middlewares/lvgl/src/widgets/lv_roller.c ****             label_sel_area.x2 = label->coords.x2;
 1269              		.loc 1 513 31 view .LVU397
 1270 01cc ADF82630 		strh	r3, [sp, #38]	@ movhi
 514:Middlewares/lvgl/src/widgets/lv_roller.c ****             label_sel_area.y2 = label_sel_area.y1 + res_p.y;
 1271              		.loc 1 514 13 is_stmt 1 view .LVU398
 514:Middlewares/lvgl/src/widgets/lv_roller.c ****             label_sel_area.y2 = label_sel_area.y1 + res_p.y;
 1272              		.loc 1 514 46 is_stmt 0 view .LVU399
 1273 01d0 B6F91810 		ldrsh	r1, [r6, #24]
 514:Middlewares/lvgl/src/widgets/lv_roller.c ****             label_sel_area.y2 = label_sel_area.y1 + res_p.y;
 1274              		.loc 1 514 31 view .LVU400
 1275 01d4 ADF82810 		strh	r1, [sp, #40]	@ movhi
 515:Middlewares/lvgl/src/widgets/lv_roller.c **** 
 1276              		.loc 1 515 13 is_stmt 1 view .LVU401
 515:Middlewares/lvgl/src/widgets/lv_roller.c **** 
 1277              		.loc 1 515 47 is_stmt 0 view .LVU402
 1278 01d8 9BB2     		uxth	r3, r3
 515:Middlewares/lvgl/src/widgets/lv_roller.c **** 
 1279              		.loc 1 515 51 view .LVU403
 1280 01da 13FA82F3 		uxtah	r3, r3, r2
 515:Middlewares/lvgl/src/widgets/lv_roller.c **** 
 1281              		.loc 1 515 31 view .LVU404
 1282 01de ADF82A30 		strh	r3, [sp, #42]	@ movhi
 517:Middlewares/lvgl/src/widgets/lv_roller.c ****             lv_draw_label(&label_sel_area, &mask_sel, &label_dsc, lv_label_get_text(label), NULL);
 1283              		.loc 1 517 13 is_stmt 1 view .LVU405
 517:Middlewares/lvgl/src/widgets/lv_roller.c ****             lv_draw_label(&label_sel_area, &mask_sel, &label_dsc, lv_label_get_text(label), NULL);
 1284              		.loc 1 517 28 is_stmt 0 view .LVU406
ARM GAS  /tmp/cc9MIr9f.s 			page 55


 1285 01e2 9DF84830 		ldrb	r3, [sp, #72]	@ zero_extendqisi2
 1286 01e6 43F00203 		orr	r3, r3, #2
 1287 01ea 8DF84830 		strb	r3, [sp, #72]
 518:Middlewares/lvgl/src/widgets/lv_roller.c ****         }
 1288              		.loc 1 518 13 is_stmt 1 view .LVU407
 518:Middlewares/lvgl/src/widgets/lv_roller.c ****         }
 1289              		.loc 1 518 67 is_stmt 0 view .LVU408
 1290 01ee 3046     		mov	r0, r6
 1291              	.LVL157:
 518:Middlewares/lvgl/src/widgets/lv_roller.c ****         }
 1292              		.loc 1 518 67 view .LVU409
 1293 01f0 FFF7FEFF 		bl	lv_label_get_text
 1294              	.LVL158:
 518:Middlewares/lvgl/src/widgets/lv_roller.c ****         }
 1295              		.loc 1 518 67 view .LVU410
 1296 01f4 0346     		mov	r3, r0
 518:Middlewares/lvgl/src/widgets/lv_roller.c ****         }
 1297              		.loc 1 518 13 view .LVU411
 1298 01f6 0022     		movs	r2, #0
 1299 01f8 0092     		str	r2, [sp]
 1300 01fa 0BAA     		add	r2, sp, #44
 1301 01fc 07A9     		add	r1, sp, #28
 1302 01fe 09A8     		add	r0, sp, #36
 1303 0200 FFF7FEFF 		bl	lv_draw_label
 1304              	.LVL159:
 1305              	.LBE122:
 1306              	.LBE117:
 521:Middlewares/lvgl/src/widgets/lv_roller.c **** 
 1307              		.loc 1 521 1 view .LVU412
 1308 0204 0BE7     		b	.L32
 1309              		.cfi_endproc
 1310              	.LFE158:
 1312              		.section	.text.draw_label,"ax",%progbits
 1313              		.align	1
 1314              		.syntax unified
 1315              		.thumb
 1316              		.thumb_func
 1317              		.fpu fpv4-sp-d16
 1319              	draw_label:
 1320              	.LVL160:
 1321              	.LFB159:
 524:Middlewares/lvgl/src/widgets/lv_roller.c ****     /* Split the drawing of the label into  an upper (above the selected area)
 1322              		.loc 1 524 1 is_stmt 1 view -0
 1323              		.cfi_startproc
 1324              		@ args = 0, pretend = 0, frame = 56
 1325              		@ frame_needed = 0, uses_anonymous_args = 0
 524:Middlewares/lvgl/src/widgets/lv_roller.c ****     /* Split the drawing of the label into  an upper (above the selected area)
 1326              		.loc 1 524 1 is_stmt 0 view .LVU414
 1327 0000 2DE9F043 		push	{r4, r5, r6, r7, r8, r9, lr}
 1328              	.LCFI16:
 1329              		.cfi_def_cfa_offset 28
 1330              		.cfi_offset 4, -28
 1331              		.cfi_offset 5, -24
 1332              		.cfi_offset 6, -20
 1333              		.cfi_offset 7, -16
 1334              		.cfi_offset 8, -12
 1335              		.cfi_offset 9, -8
ARM GAS  /tmp/cc9MIr9f.s 			page 56


 1336              		.cfi_offset 14, -4
 1337 0004 91B0     		sub	sp, sp, #68
 1338              	.LCFI17:
 1339              		.cfi_def_cfa_offset 96
 1340 0006 0446     		mov	r4, r0
 527:Middlewares/lvgl/src/widgets/lv_roller.c ****     lv_obj_t * roller = lv_obj_get_parent(label_obj);
 1341              		.loc 1 527 5 is_stmt 1 view .LVU415
 527:Middlewares/lvgl/src/widgets/lv_roller.c ****     lv_obj_t * roller = lv_obj_get_parent(label_obj);
 1342              		.loc 1 527 28 is_stmt 0 view .LVU416
 1343 0008 FFF7FEFF 		bl	lv_event_get_target
 1344              	.LVL161:
 527:Middlewares/lvgl/src/widgets/lv_roller.c ****     lv_obj_t * roller = lv_obj_get_parent(label_obj);
 1345              		.loc 1 527 28 view .LVU417
 1346 000c 0546     		mov	r5, r0
 1347              	.LVL162:
 528:Middlewares/lvgl/src/widgets/lv_roller.c ****     lv_draw_label_dsc_t label_draw_dsc;
 1348              		.loc 1 528 5 is_stmt 1 view .LVU418
 528:Middlewares/lvgl/src/widgets/lv_roller.c ****     lv_draw_label_dsc_t label_draw_dsc;
 1349              		.loc 1 528 25 is_stmt 0 view .LVU419
 1350 000e FFF7FEFF 		bl	lv_obj_get_parent
 1351              	.LVL163:
 528:Middlewares/lvgl/src/widgets/lv_roller.c ****     lv_draw_label_dsc_t label_draw_dsc;
 1352              		.loc 1 528 25 view .LVU420
 1353 0012 0646     		mov	r6, r0
 1354              	.LVL164:
 529:Middlewares/lvgl/src/widgets/lv_roller.c ****     lv_draw_label_dsc_init(&label_draw_dsc);
 1355              		.loc 1 529 5 is_stmt 1 view .LVU421
 530:Middlewares/lvgl/src/widgets/lv_roller.c ****     lv_obj_init_draw_label_dsc(roller, LV_PART_MAIN, &label_draw_dsc);
 1356              		.loc 1 530 5 view .LVU422
 1357 0014 08A8     		add	r0, sp, #32
 1358              	.LVL165:
 530:Middlewares/lvgl/src/widgets/lv_roller.c ****     lv_obj_init_draw_label_dsc(roller, LV_PART_MAIN, &label_draw_dsc);
 1359              		.loc 1 530 5 is_stmt 0 view .LVU423
 1360 0016 FFF7FEFF 		bl	lv_draw_label_dsc_init
 1361              	.LVL166:
 531:Middlewares/lvgl/src/widgets/lv_roller.c ****     const lv_font_t * font = label_draw_dsc.font;
 1362              		.loc 1 531 5 is_stmt 1 view .LVU424
 1363 001a 08AA     		add	r2, sp, #32
 1364 001c 0021     		movs	r1, #0
 1365 001e 3046     		mov	r0, r6
 1366 0020 FFF7FEFF 		bl	lv_obj_init_draw_label_dsc
 1367              	.LVL167:
 532:Middlewares/lvgl/src/widgets/lv_roller.c ****     lv_coord_t line_space = label_draw_dsc.line_space;
 1368              		.loc 1 532 5 view .LVU425
 533:Middlewares/lvgl/src/widgets/lv_roller.c ****     lv_coord_t font_h        = lv_font_get_line_height(font);
 1369              		.loc 1 533 5 view .LVU426
 533:Middlewares/lvgl/src/widgets/lv_roller.c ****     lv_coord_t font_h        = lv_font_get_line_height(font);
 1370              		.loc 1 533 16 is_stmt 0 view .LVU427
 1371 0024 BDF93290 		ldrsh	r9, [sp, #50]
 1372              	.LVL168:
 534:Middlewares/lvgl/src/widgets/lv_roller.c ****     const lv_area_t * clip_area = lv_event_get_param(e);
 1373              		.loc 1 534 5 is_stmt 1 view .LVU428
 1374              	.LBB125:
 1375              	.LBI125:
 118:Middlewares/lvgl/src/widgets/../core/../misc/../font/lv_font.h **** {
 1376              		.loc 3 118 26 view .LVU429
 1377              	.LBB126:
ARM GAS  /tmp/cc9MIr9f.s 			page 57


 1378              		.loc 3 120 5 view .LVU430
 1379              		.loc 3 120 18 is_stmt 0 view .LVU431
 1380 0028 089B     		ldr	r3, [sp, #32]
 1381 002a B3F90880 		ldrsh	r8, [r3, #8]
 1382              	.LVL169:
 1383              		.loc 3 120 18 view .LVU432
 1384              	.LBE126:
 1385              	.LBE125:
 535:Middlewares/lvgl/src/widgets/lv_roller.c **** 
 1386              		.loc 1 535 5 is_stmt 1 view .LVU433
 535:Middlewares/lvgl/src/widgets/lv_roller.c **** 
 1387              		.loc 1 535 35 is_stmt 0 view .LVU434
 1388 002e 2046     		mov	r0, r4
 1389 0030 FFF7FEFF 		bl	lv_event_get_param
 1390              	.LVL170:
 535:Middlewares/lvgl/src/widgets/lv_roller.c **** 
 1391              		.loc 1 535 35 view .LVU435
 1392 0034 0746     		mov	r7, r0
 1393              	.LVL171:
 537:Middlewares/lvgl/src/widgets/lv_roller.c ****     rect_area.y1 = roller->coords.y1 + (lv_obj_get_height(roller) - font_h - line_space) / 2;
 1394              		.loc 1 537 5 is_stmt 1 view .LVU436
 538:Middlewares/lvgl/src/widgets/lv_roller.c ****     if((font_h & 0x1) && (line_space & 0x1)) rect_area.y1--; /*Compensate the two rounding error*/
 1395              		.loc 1 538 5 view .LVU437
 538:Middlewares/lvgl/src/widgets/lv_roller.c ****     if((font_h & 0x1) && (line_space & 0x1)) rect_area.y1--; /*Compensate the two rounding error*/
 1396              		.loc 1 538 34 is_stmt 0 view .LVU438
 1397 0036 F48A     		ldrh	r4, [r6, #22]
 1398              	.LVL172:
 538:Middlewares/lvgl/src/widgets/lv_roller.c ****     if((font_h & 0x1) && (line_space & 0x1)) rect_area.y1--; /*Compensate the two rounding error*/
 1399              		.loc 1 538 41 view .LVU439
 1400 0038 3046     		mov	r0, r6
 1401              	.LVL173:
 538:Middlewares/lvgl/src/widgets/lv_roller.c ****     if((font_h & 0x1) && (line_space & 0x1)) rect_area.y1--; /*Compensate the two rounding error*/
 1402              		.loc 1 538 41 view .LVU440
 1403 003a FFF7FEFF 		bl	lv_obj_get_height
 1404              	.LVL174:
 538:Middlewares/lvgl/src/widgets/lv_roller.c ****     if((font_h & 0x1) && (line_space & 0x1)) rect_area.y1--; /*Compensate the two rounding error*/
 1405              		.loc 1 538 67 view .LVU441
 1406 003e A0EB0800 		sub	r0, r0, r8
 538:Middlewares/lvgl/src/widgets/lv_roller.c ****     if((font_h & 0x1) && (line_space & 0x1)) rect_area.y1--; /*Compensate the two rounding error*/
 1407              		.loc 1 538 76 view .LVU442
 1408 0042 A0EB0900 		sub	r0, r0, r9
 538:Middlewares/lvgl/src/widgets/lv_roller.c ****     if((font_h & 0x1) && (line_space & 0x1)) rect_area.y1--; /*Compensate the two rounding error*/
 1409              		.loc 1 538 90 view .LVU443
 1410 0046 00EBD070 		add	r0, r0, r0, lsr #31
 538:Middlewares/lvgl/src/widgets/lv_roller.c ****     if((font_h & 0x1) && (line_space & 0x1)) rect_area.y1--; /*Compensate the two rounding error*/
 1411              		.loc 1 538 38 view .LVU444
 1412 004a 04EB6000 		add	r0, r4, r0, asr #1
 538:Middlewares/lvgl/src/widgets/lv_roller.c ****     if((font_h & 0x1) && (line_space & 0x1)) rect_area.y1--; /*Compensate the two rounding error*/
 1413              		.loc 1 538 18 view .LVU445
 1414 004e ADF81A00 		strh	r0, [sp, #26]	@ movhi
 539:Middlewares/lvgl/src/widgets/lv_roller.c ****     rect_area.y2 = rect_area.y1 + font_h + line_space - 1;
 1415              		.loc 1 539 5 is_stmt 1 view .LVU446
 539:Middlewares/lvgl/src/widgets/lv_roller.c ****     rect_area.y2 = rect_area.y1 + font_h + line_space - 1;
 1416              		.loc 1 539 16 is_stmt 0 view .LVU447
 1417 0052 1FFA88F4 		uxth	r4, r8
 539:Middlewares/lvgl/src/widgets/lv_roller.c ****     rect_area.y2 = rect_area.y1 + font_h + line_space - 1;
 1418              		.loc 1 539 7 view .LVU448
ARM GAS  /tmp/cc9MIr9f.s 			page 58


 1419 0056 18F0010F 		tst	r8, #1
 1420 005a 06D0     		beq	.L40
 1421 005c 83B2     		uxth	r3, r0
 539:Middlewares/lvgl/src/widgets/lv_roller.c ****     rect_area.y2 = rect_area.y1 + font_h + line_space - 1;
 1422              		.loc 1 539 23 discriminator 1 view .LVU449
 1423 005e 19F0010F 		tst	r9, #1
 1424 0062 02D0     		beq	.L40
 539:Middlewares/lvgl/src/widgets/lv_roller.c ****     rect_area.y2 = rect_area.y1 + font_h + line_space - 1;
 1425              		.loc 1 539 46 is_stmt 1 discriminator 2 view .LVU450
 539:Middlewares/lvgl/src/widgets/lv_roller.c ****     rect_area.y2 = rect_area.y1 + font_h + line_space - 1;
 1426              		.loc 1 539 58 is_stmt 0 discriminator 2 view .LVU451
 1427 0064 013B     		subs	r3, r3, #1
 1428 0066 ADF81A30 		strh	r3, [sp, #26]	@ movhi
 1429              	.L40:
 540:Middlewares/lvgl/src/widgets/lv_roller.c ****     lv_area_t roller_coords;
 1430              		.loc 1 540 5 is_stmt 1 view .LVU452
 540:Middlewares/lvgl/src/widgets/lv_roller.c ****     lv_area_t roller_coords;
 1431              		.loc 1 540 29 is_stmt 0 view .LVU453
 1432 006a BDF91A80 		ldrsh	r8, [sp, #26]
 1433              	.LVL175:
 540:Middlewares/lvgl/src/widgets/lv_roller.c ****     lv_area_t roller_coords;
 1434              		.loc 1 540 33 view .LVU454
 1435 006e 14FA88F4 		uxtah	r4, r4, r8
 1436              	.LVL176:
 540:Middlewares/lvgl/src/widgets/lv_roller.c ****     lv_area_t roller_coords;
 1437              		.loc 1 540 42 view .LVU455
 1438 0072 19FA84F4 		uxtah	r4, r9, r4
 1439 0076 A4B2     		uxth	r4, r4
 540:Middlewares/lvgl/src/widgets/lv_roller.c ****     lv_area_t roller_coords;
 1440              		.loc 1 540 55 view .LVU456
 1441 0078 013C     		subs	r4, r4, #1
 1442 007a 24B2     		sxth	r4, r4
 540:Middlewares/lvgl/src/widgets/lv_roller.c ****     lv_area_t roller_coords;
 1443              		.loc 1 540 18 view .LVU457
 1444 007c ADF81E40 		strh	r4, [sp, #30]	@ movhi
 541:Middlewares/lvgl/src/widgets/lv_roller.c ****     lv_obj_get_coords(roller, &roller_coords);
 1445              		.loc 1 541 5 is_stmt 1 view .LVU458
 542:Middlewares/lvgl/src/widgets/lv_roller.c **** 
 1446              		.loc 1 542 5 view .LVU459
 1447 0080 04A9     		add	r1, sp, #16
 1448 0082 3046     		mov	r0, r6
 1449 0084 FFF7FEFF 		bl	lv_obj_get_coords
 1450              	.LVL177:
 544:Middlewares/lvgl/src/widgets/lv_roller.c ****     rect_area.x2 = roller_coords.x2;
 1451              		.loc 1 544 5 view .LVU460
 544:Middlewares/lvgl/src/widgets/lv_roller.c ****     rect_area.x2 = roller_coords.x2;
 1452              		.loc 1 544 33 is_stmt 0 view .LVU461
 1453 0088 BDF91030 		ldrsh	r3, [sp, #16]
 544:Middlewares/lvgl/src/widgets/lv_roller.c ****     rect_area.x2 = roller_coords.x2;
 1454              		.loc 1 544 18 view .LVU462
 1455 008c ADF81830 		strh	r3, [sp, #24]	@ movhi
 545:Middlewares/lvgl/src/widgets/lv_roller.c **** 
 1456              		.loc 1 545 5 is_stmt 1 view .LVU463
 545:Middlewares/lvgl/src/widgets/lv_roller.c **** 
 1457              		.loc 1 545 33 is_stmt 0 view .LVU464
 1458 0090 BDF91430 		ldrsh	r3, [sp, #20]
 545:Middlewares/lvgl/src/widgets/lv_roller.c **** 
ARM GAS  /tmp/cc9MIr9f.s 			page 59


 1459              		.loc 1 545 18 view .LVU465
 1460 0094 ADF81C30 		strh	r3, [sp, #28]	@ movhi
 547:Middlewares/lvgl/src/widgets/lv_roller.c ****     clip2.x1 = label_obj->coords.x1;
 1461              		.loc 1 547 5 is_stmt 1 view .LVU466
 548:Middlewares/lvgl/src/widgets/lv_roller.c ****     clip2.y1 = label_obj->coords.y1;
 1462              		.loc 1 548 5 view .LVU467
 548:Middlewares/lvgl/src/widgets/lv_roller.c ****     clip2.y1 = label_obj->coords.y1;
 1463              		.loc 1 548 33 is_stmt 0 view .LVU468
 1464 0098 B5F91430 		ldrsh	r3, [r5, #20]
 548:Middlewares/lvgl/src/widgets/lv_roller.c ****     clip2.y1 = label_obj->coords.y1;
 1465              		.loc 1 548 14 view .LVU469
 1466 009c ADF80830 		strh	r3, [sp, #8]	@ movhi
 549:Middlewares/lvgl/src/widgets/lv_roller.c ****     clip2.x2 = label_obj->coords.x2;
 1467              		.loc 1 549 5 is_stmt 1 view .LVU470
 549:Middlewares/lvgl/src/widgets/lv_roller.c ****     clip2.x2 = label_obj->coords.x2;
 1468              		.loc 1 549 33 is_stmt 0 view .LVU471
 1469 00a0 B5F91630 		ldrsh	r3, [r5, #22]
 549:Middlewares/lvgl/src/widgets/lv_roller.c ****     clip2.x2 = label_obj->coords.x2;
 1470              		.loc 1 549 14 view .LVU472
 1471 00a4 ADF80A30 		strh	r3, [sp, #10]	@ movhi
 550:Middlewares/lvgl/src/widgets/lv_roller.c ****     clip2.y2 = rect_area.y1;
 1472              		.loc 1 550 5 is_stmt 1 view .LVU473
 550:Middlewares/lvgl/src/widgets/lv_roller.c ****     clip2.y2 = rect_area.y1;
 1473              		.loc 1 550 33 is_stmt 0 view .LVU474
 1474 00a8 B5F91830 		ldrsh	r3, [r5, #24]
 550:Middlewares/lvgl/src/widgets/lv_roller.c ****     clip2.y2 = rect_area.y1;
 1475              		.loc 1 550 14 view .LVU475
 1476 00ac ADF80C30 		strh	r3, [sp, #12]	@ movhi
 551:Middlewares/lvgl/src/widgets/lv_roller.c ****     if(_lv_area_intersect(&clip2, clip_area, &clip2)) {
 1477              		.loc 1 551 5 is_stmt 1 view .LVU476
 551:Middlewares/lvgl/src/widgets/lv_roller.c ****     if(_lv_area_intersect(&clip2, clip_area, &clip2)) {
 1478              		.loc 1 551 14 is_stmt 0 view .LVU477
 1479 00b0 ADF80E80 		strh	r8, [sp, #14]	@ movhi
 552:Middlewares/lvgl/src/widgets/lv_roller.c ****         lv_draw_label(&label_obj->coords, &clip2, &label_draw_dsc, lv_label_get_text(label_obj), NU
 1480              		.loc 1 552 5 is_stmt 1 view .LVU478
 552:Middlewares/lvgl/src/widgets/lv_roller.c ****         lv_draw_label(&label_obj->coords, &clip2, &label_draw_dsc, lv_label_get_text(label_obj), NU
 1481              		.loc 1 552 8 is_stmt 0 view .LVU479
 1482 00b4 02AA     		add	r2, sp, #8
 1483 00b6 3946     		mov	r1, r7
 1484 00b8 1046     		mov	r0, r2
 1485 00ba FFF7FEFF 		bl	_lv_area_intersect
 1486              	.LVL178:
 552:Middlewares/lvgl/src/widgets/lv_roller.c ****         lv_draw_label(&label_obj->coords, &clip2, &label_draw_dsc, lv_label_get_text(label_obj), NU
 1487              		.loc 1 552 7 view .LVU480
 1488 00be B0B9     		cbnz	r0, .L44
 1489              	.LVL179:
 1490              	.L41:
 556:Middlewares/lvgl/src/widgets/lv_roller.c ****     clip2.y1 = rect_area.y2;
 1491              		.loc 1 556 5 is_stmt 1 view .LVU481
 556:Middlewares/lvgl/src/widgets/lv_roller.c ****     clip2.y1 = rect_area.y2;
 1492              		.loc 1 556 33 is_stmt 0 view .LVU482
 1493 00c0 B5F91430 		ldrsh	r3, [r5, #20]
 556:Middlewares/lvgl/src/widgets/lv_roller.c ****     clip2.y1 = rect_area.y2;
 1494              		.loc 1 556 14 view .LVU483
 1495 00c4 ADF80830 		strh	r3, [sp, #8]	@ movhi
 557:Middlewares/lvgl/src/widgets/lv_roller.c ****     clip2.x2 = label_obj->coords.x2;
 1496              		.loc 1 557 5 is_stmt 1 view .LVU484
ARM GAS  /tmp/cc9MIr9f.s 			page 60


 557:Middlewares/lvgl/src/widgets/lv_roller.c ****     clip2.x2 = label_obj->coords.x2;
 1497              		.loc 1 557 14 is_stmt 0 view .LVU485
 1498 00c8 ADF80A40 		strh	r4, [sp, #10]	@ movhi
 558:Middlewares/lvgl/src/widgets/lv_roller.c ****     clip2.y2 = label_obj->coords.y2;
 1499              		.loc 1 558 5 is_stmt 1 view .LVU486
 558:Middlewares/lvgl/src/widgets/lv_roller.c ****     clip2.y2 = label_obj->coords.y2;
 1500              		.loc 1 558 33 is_stmt 0 view .LVU487
 1501 00cc B5F91830 		ldrsh	r3, [r5, #24]
 558:Middlewares/lvgl/src/widgets/lv_roller.c ****     clip2.y2 = label_obj->coords.y2;
 1502              		.loc 1 558 14 view .LVU488
 1503 00d0 ADF80C30 		strh	r3, [sp, #12]	@ movhi
 559:Middlewares/lvgl/src/widgets/lv_roller.c ****     if(_lv_area_intersect(&clip2, clip_area, &clip2)) {
 1504              		.loc 1 559 5 is_stmt 1 view .LVU489
 559:Middlewares/lvgl/src/widgets/lv_roller.c ****     if(_lv_area_intersect(&clip2, clip_area, &clip2)) {
 1505              		.loc 1 559 33 is_stmt 0 view .LVU490
 1506 00d4 B5F91A30 		ldrsh	r3, [r5, #26]
 559:Middlewares/lvgl/src/widgets/lv_roller.c ****     if(_lv_area_intersect(&clip2, clip_area, &clip2)) {
 1507              		.loc 1 559 14 view .LVU491
 1508 00d8 ADF80E30 		strh	r3, [sp, #14]	@ movhi
 560:Middlewares/lvgl/src/widgets/lv_roller.c ****         lv_draw_label(&label_obj->coords, &clip2, &label_draw_dsc, lv_label_get_text(label_obj), NU
 1509              		.loc 1 560 5 is_stmt 1 view .LVU492
 560:Middlewares/lvgl/src/widgets/lv_roller.c ****         lv_draw_label(&label_obj->coords, &clip2, &label_draw_dsc, lv_label_get_text(label_obj), NU
 1510              		.loc 1 560 8 is_stmt 0 view .LVU493
 1511 00dc 02AA     		add	r2, sp, #8
 1512 00de 3946     		mov	r1, r7
 1513 00e0 1046     		mov	r0, r2
 1514 00e2 FFF7FEFF 		bl	_lv_area_intersect
 1515              	.LVL180:
 560:Middlewares/lvgl/src/widgets/lv_roller.c ****         lv_draw_label(&label_obj->coords, &clip2, &label_draw_dsc, lv_label_get_text(label_obj), NU
 1516              		.loc 1 560 7 view .LVU494
 1517 00e6 80B9     		cbnz	r0, .L45
 1518              	.L39:
 563:Middlewares/lvgl/src/widgets/lv_roller.c **** 
 1519              		.loc 1 563 1 view .LVU495
 1520 00e8 11B0     		add	sp, sp, #68
 1521              	.LCFI18:
 1522              		.cfi_remember_state
 1523              		.cfi_def_cfa_offset 28
 1524              		@ sp needed
 1525 00ea BDE8F083 		pop	{r4, r5, r6, r7, r8, r9, pc}
 1526              	.LVL181:
 1527              	.L44:
 1528              	.LCFI19:
 1529              		.cfi_restore_state
 553:Middlewares/lvgl/src/widgets/lv_roller.c ****     }
 1530              		.loc 1 553 9 is_stmt 1 view .LVU496
 553:Middlewares/lvgl/src/widgets/lv_roller.c ****     }
 1531              		.loc 1 553 23 is_stmt 0 view .LVU497
 1532 00ee 05F11406 		add	r6, r5, #20
 1533              	.LVL182:
 553:Middlewares/lvgl/src/widgets/lv_roller.c ****     }
 1534              		.loc 1 553 68 view .LVU498
 1535 00f2 2846     		mov	r0, r5
 1536 00f4 FFF7FEFF 		bl	lv_label_get_text
 1537              	.LVL183:
 1538 00f8 0346     		mov	r3, r0
 553:Middlewares/lvgl/src/widgets/lv_roller.c ****     }
ARM GAS  /tmp/cc9MIr9f.s 			page 61


 1539              		.loc 1 553 9 view .LVU499
 1540 00fa 0022     		movs	r2, #0
 1541 00fc 0092     		str	r2, [sp]
 1542 00fe 08AA     		add	r2, sp, #32
 1543 0100 02A9     		add	r1, sp, #8
 1544 0102 3046     		mov	r0, r6
 1545 0104 FFF7FEFF 		bl	lv_draw_label
 1546              	.LVL184:
 1547 0108 DAE7     		b	.L41
 1548              	.L45:
 561:Middlewares/lvgl/src/widgets/lv_roller.c ****     }
 1549              		.loc 1 561 9 is_stmt 1 view .LVU500
 561:Middlewares/lvgl/src/widgets/lv_roller.c ****     }
 1550              		.loc 1 561 23 is_stmt 0 view .LVU501
 1551 010a 05F11404 		add	r4, r5, #20
 561:Middlewares/lvgl/src/widgets/lv_roller.c ****     }
 1552              		.loc 1 561 68 view .LVU502
 1553 010e 2846     		mov	r0, r5
 1554 0110 FFF7FEFF 		bl	lv_label_get_text
 1555              	.LVL185:
 1556 0114 0346     		mov	r3, r0
 561:Middlewares/lvgl/src/widgets/lv_roller.c ****     }
 1557              		.loc 1 561 9 view .LVU503
 1558 0116 0022     		movs	r2, #0
 1559 0118 0092     		str	r2, [sp]
 1560 011a 08AA     		add	r2, sp, #32
 1561 011c 02A9     		add	r1, sp, #8
 1562 011e 2046     		mov	r0, r4
 1563 0120 FFF7FEFF 		bl	lv_draw_label
 1564              	.LVL186:
 563:Middlewares/lvgl/src/widgets/lv_roller.c **** 
 1565              		.loc 1 563 1 view .LVU504
 1566 0124 E0E7     		b	.L39
 1567              		.cfi_endproc
 1568              	.LFE159:
 1570              		.section	.text.lv_roller_label_event,"ax",%progbits
 1571              		.align	1
 1572              		.syntax unified
 1573              		.thumb
 1574              		.thumb_func
 1575              		.fpu fpv4-sp-d16
 1577              	lv_roller_label_event:
 1578              	.LVL187:
 1579              	.LFB157:
 411:Middlewares/lvgl/src/widgets/lv_roller.c ****     LV_UNUSED(class_p);
 1580              		.loc 1 411 1 is_stmt 1 view -0
 1581              		.cfi_startproc
 1582              		@ args = 0, pretend = 0, frame = 0
 1583              		@ frame_needed = 0, uses_anonymous_args = 0
 411:Middlewares/lvgl/src/widgets/lv_roller.c ****     LV_UNUSED(class_p);
 1584              		.loc 1 411 1 is_stmt 0 view .LVU506
 1585 0000 70B5     		push	{r4, r5, r6, lr}
 1586              	.LCFI20:
 1587              		.cfi_def_cfa_offset 16
 1588              		.cfi_offset 4, -16
 1589              		.cfi_offset 5, -12
 1590              		.cfi_offset 6, -8
ARM GAS  /tmp/cc9MIr9f.s 			page 62


 1591              		.cfi_offset 14, -4
 1592 0002 0D46     		mov	r5, r1
 412:Middlewares/lvgl/src/widgets/lv_roller.c **** 
 1593              		.loc 1 412 5 is_stmt 1 view .LVU507
 414:Middlewares/lvgl/src/widgets/lv_roller.c **** 
 1594              		.loc 1 414 5 view .LVU508
 416:Middlewares/lvgl/src/widgets/lv_roller.c ****     /*LV_EVENT_DRAW_MAIN will be called in the draw function*/
 1595              		.loc 1 416 5 view .LVU509
 416:Middlewares/lvgl/src/widgets/lv_roller.c ****     /*LV_EVENT_DRAW_MAIN will be called in the draw function*/
 1596              		.loc 1 416 28 is_stmt 0 view .LVU510
 1597 0004 0846     		mov	r0, r1
 1598              	.LVL188:
 416:Middlewares/lvgl/src/widgets/lv_roller.c ****     /*LV_EVENT_DRAW_MAIN will be called in the draw function*/
 1599              		.loc 1 416 28 view .LVU511
 1600 0006 FFF7FEFF 		bl	lv_event_get_code
 1601              	.LVL189:
 416:Middlewares/lvgl/src/widgets/lv_roller.c ****     /*LV_EVENT_DRAW_MAIN will be called in the draw function*/
 1602              		.loc 1 416 28 view .LVU512
 1603 000a 0446     		mov	r4, r0
 1604              	.LVL190:
 418:Middlewares/lvgl/src/widgets/lv_roller.c ****         /* Call the ancestor's event handler */
 1605              		.loc 1 418 5 is_stmt 1 view .LVU513
 418:Middlewares/lvgl/src/widgets/lv_roller.c ****         /* Call the ancestor's event handler */
 1606              		.loc 1 418 7 is_stmt 0 view .LVU514
 1607 000c 1528     		cmp	r0, #21
 1608 000e 05D0     		beq	.L47
 420:Middlewares/lvgl/src/widgets/lv_roller.c ****         if(res != LV_RES_OK) return;
 1609              		.loc 1 420 9 is_stmt 1 view .LVU515
 420:Middlewares/lvgl/src/widgets/lv_roller.c ****         if(res != LV_RES_OK) return;
 1610              		.loc 1 420 15 is_stmt 0 view .LVU516
 1611 0010 2946     		mov	r1, r5
 1612 0012 1748     		ldr	r0, .L55
 1613              	.LVL191:
 420:Middlewares/lvgl/src/widgets/lv_roller.c ****         if(res != LV_RES_OK) return;
 1614              		.loc 1 420 15 view .LVU517
 1615 0014 FFF7FEFF 		bl	lv_obj_event_base
 1616              	.LVL192:
 421:Middlewares/lvgl/src/widgets/lv_roller.c ****     }
 1617              		.loc 1 421 9 is_stmt 1 view .LVU518
 421:Middlewares/lvgl/src/widgets/lv_roller.c ****     }
 1618              		.loc 1 421 11 is_stmt 0 view .LVU519
 1619 0018 0128     		cmp	r0, #1
 1620 001a 09D1     		bne	.L46
 1621              	.LVL193:
 1622              	.L47:
 424:Middlewares/lvgl/src/widgets/lv_roller.c ****     if(code == LV_EVENT_REFR_EXT_DRAW_SIZE) {
 1623              		.loc 1 424 5 is_stmt 1 view .LVU520
 424:Middlewares/lvgl/src/widgets/lv_roller.c ****     if(code == LV_EVENT_REFR_EXT_DRAW_SIZE) {
 1624              		.loc 1 424 24 is_stmt 0 view .LVU521
 1625 001c 2846     		mov	r0, r5
 1626 001e FFF7FEFF 		bl	lv_event_get_target
 1627              	.LVL194:
 1628 0022 0646     		mov	r6, r0
 1629              	.LVL195:
 425:Middlewares/lvgl/src/widgets/lv_roller.c ****         /*If the selected text has a larger font it needs some extra space to draw it*/
 1630              		.loc 1 425 5 is_stmt 1 view .LVU522
 425:Middlewares/lvgl/src/widgets/lv_roller.c ****         /*If the selected text has a larger font it needs some extra space to draw it*/
ARM GAS  /tmp/cc9MIr9f.s 			page 63


 1631              		.loc 1 425 7 is_stmt 0 view .LVU523
 1632 0024 132C     		cmp	r4, #19
 1633 0026 04D0     		beq	.L52
 433:Middlewares/lvgl/src/widgets/lv_roller.c ****         refr_position(lv_obj_get_parent(label), LV_ANIM_OFF);
 1634              		.loc 1 433 10 is_stmt 1 view .LVU524
 433:Middlewares/lvgl/src/widgets/lv_roller.c ****         refr_position(lv_obj_get_parent(label), LV_ANIM_OFF);
 1635              		.loc 1 433 12 is_stmt 0 view .LVU525
 1636 0028 232C     		cmp	r4, #35
 1637 002a 17D0     		beq	.L53
 436:Middlewares/lvgl/src/widgets/lv_roller.c ****         draw_label(e);
 1638              		.loc 1 436 10 is_stmt 1 view .LVU526
 436:Middlewares/lvgl/src/widgets/lv_roller.c ****         draw_label(e);
 1639              		.loc 1 436 12 is_stmt 0 view .LVU527
 1640 002c 152C     		cmp	r4, #21
 1641 002e 1BD0     		beq	.L54
 1642              	.LVL196:
 1643              	.L46:
 439:Middlewares/lvgl/src/widgets/lv_roller.c **** 
 1644              		.loc 1 439 1 view .LVU528
 1645 0030 70BD     		pop	{r4, r5, r6, pc}
 1646              	.LVL197:
 1647              	.L52:
 1648              	.LBB127:
 427:Middlewares/lvgl/src/widgets/lv_roller.c ****         lv_obj_t * obj = lv_obj_get_parent(label);
 1649              		.loc 1 427 9 is_stmt 1 view .LVU529
 427:Middlewares/lvgl/src/widgets/lv_roller.c ****         lv_obj_t * obj = lv_obj_get_parent(label);
 1650              		.loc 1 427 26 is_stmt 0 view .LVU530
 1651 0032 2846     		mov	r0, r5
 1652              	.LVL198:
 427:Middlewares/lvgl/src/widgets/lv_roller.c ****         lv_obj_t * obj = lv_obj_get_parent(label);
 1653              		.loc 1 427 26 view .LVU531
 1654 0034 FFF7FEFF 		bl	lv_event_get_param
 1655              	.LVL199:
 1656 0038 0546     		mov	r5, r0
 1657              	.LVL200:
 428:Middlewares/lvgl/src/widgets/lv_roller.c ****         lv_coord_t sel_w = get_selected_label_width(obj);
 1658              		.loc 1 428 9 is_stmt 1 view .LVU532
 428:Middlewares/lvgl/src/widgets/lv_roller.c ****         lv_coord_t sel_w = get_selected_label_width(obj);
 1659              		.loc 1 428 26 is_stmt 0 view .LVU533
 1660 003a 3046     		mov	r0, r6
 1661              	.LVL201:
 428:Middlewares/lvgl/src/widgets/lv_roller.c ****         lv_coord_t sel_w = get_selected_label_width(obj);
 1662              		.loc 1 428 26 view .LVU534
 1663 003c FFF7FEFF 		bl	lv_obj_get_parent
 1664              	.LVL202:
 429:Middlewares/lvgl/src/widgets/lv_roller.c ****         lv_coord_t label_w = lv_obj_get_width(label);
 1665              		.loc 1 429 9 is_stmt 1 view .LVU535
 429:Middlewares/lvgl/src/widgets/lv_roller.c ****         lv_coord_t label_w = lv_obj_get_width(label);
 1666              		.loc 1 429 28 is_stmt 0 view .LVU536
 1667 0040 FFF7FEFF 		bl	get_selected_label_width
 1668              	.LVL203:
 429:Middlewares/lvgl/src/widgets/lv_roller.c ****         lv_coord_t label_w = lv_obj_get_width(label);
 1669              		.loc 1 429 28 view .LVU537
 1670 0044 0446     		mov	r4, r0
 1671              	.LVL204:
 430:Middlewares/lvgl/src/widgets/lv_roller.c ****         *s = LV_MAX(*s, sel_w - label_w);
 1672              		.loc 1 430 9 is_stmt 1 view .LVU538
ARM GAS  /tmp/cc9MIr9f.s 			page 64


 430:Middlewares/lvgl/src/widgets/lv_roller.c ****         *s = LV_MAX(*s, sel_w - label_w);
 1673              		.loc 1 430 30 is_stmt 0 view .LVU539
 1674 0046 3046     		mov	r0, r6
 1675 0048 FFF7FEFF 		bl	lv_obj_get_width
 1676              	.LVL205:
 431:Middlewares/lvgl/src/widgets/lv_roller.c ****     }
 1677              		.loc 1 431 9 is_stmt 1 view .LVU540
 431:Middlewares/lvgl/src/widgets/lv_roller.c ****     }
 1678              		.loc 1 431 14 is_stmt 0 view .LVU541
 1679 004c 241A     		subs	r4, r4, r0
 1680              	.LVL206:
 431:Middlewares/lvgl/src/widgets/lv_roller.c ****     }
 1681              		.loc 1 431 14 view .LVU542
 1682 004e B5F90000 		ldrsh	r0, [r5]
 1683              	.LVL207:
 431:Middlewares/lvgl/src/widgets/lv_roller.c ****     }
 1684              		.loc 1 431 14 view .LVU543
 1685 0052 8442     		cmp	r4, r0
 1686 0054 B8BF     		it	lt
 1687 0056 0446     		movlt	r4, r0
 431:Middlewares/lvgl/src/widgets/lv_roller.c ****     }
 1688              		.loc 1 431 12 view .LVU544
 1689 0058 2C80     		strh	r4, [r5]	@ movhi
 1690              	.LBE127:
 1691 005a E9E7     		b	.L46
 1692              	.LVL208:
 1693              	.L53:
