ARM GAS  /tmp/ccRiXNVK.s 			page 1


   1              		.cpu cortex-m4
   2              		.eabi_attribute 27, 1
   3              		.eabi_attribute 28, 1
   4              		.eabi_attribute 20, 1
   5              		.eabi_attribute 21, 1
   6              		.eabi_attribute 23, 3
   7              		.eabi_attribute 24, 1
   8              		.eabi_attribute 25, 1
   9              		.eabi_attribute 26, 1
  10              		.eabi_attribute 30, 1
  11              		.eabi_attribute 34, 1
  12              		.eabi_attribute 18, 4
  13              		.file	"lv_utils.c"
  14              		.text
  15              	.Ltext0:
  16              		.cfi_sections	.debug_frame
  17              		.section	.text._lv_utils_bsearch,"ax",%progbits
  18              		.align	1
  19              		.global	_lv_utils_bsearch
  20              		.arch armv7e-m
  21              		.syntax unified
  22              		.thumb
  23              		.thumb_func
  24              		.fpu fpv4-sp-d16
  26              	_lv_utils_bsearch:
  27              	.LVL0:
  28              	.LFB8:
  29              		.file 1 "Middlewares/lvgl/src/misc/lv_utils.c"
   1:Middlewares/lvgl/src/misc/lv_utils.c **** /**
   2:Middlewares/lvgl/src/misc/lv_utils.c ****  * @file lv_utils.c
   3:Middlewares/lvgl/src/misc/lv_utils.c ****  *
   4:Middlewares/lvgl/src/misc/lv_utils.c ****  */
   5:Middlewares/lvgl/src/misc/lv_utils.c **** 
   6:Middlewares/lvgl/src/misc/lv_utils.c **** /*********************
   7:Middlewares/lvgl/src/misc/lv_utils.c ****  *      INCLUDES
   8:Middlewares/lvgl/src/misc/lv_utils.c ****  *********************/
   9:Middlewares/lvgl/src/misc/lv_utils.c **** #include <stdbool.h>
  10:Middlewares/lvgl/src/misc/lv_utils.c **** 
  11:Middlewares/lvgl/src/misc/lv_utils.c **** #include "lv_utils.h"
  12:Middlewares/lvgl/src/misc/lv_utils.c **** #include "lv_math.h"
  13:Middlewares/lvgl/src/misc/lv_utils.c **** #include "lv_printf.h"
  14:Middlewares/lvgl/src/misc/lv_utils.c **** #include "lv_txt.h"
  15:Middlewares/lvgl/src/misc/lv_utils.c **** 
  16:Middlewares/lvgl/src/misc/lv_utils.c **** /*********************
  17:Middlewares/lvgl/src/misc/lv_utils.c ****  *      DEFINES
  18:Middlewares/lvgl/src/misc/lv_utils.c ****  *********************/
  19:Middlewares/lvgl/src/misc/lv_utils.c **** 
  20:Middlewares/lvgl/src/misc/lv_utils.c **** /**********************
  21:Middlewares/lvgl/src/misc/lv_utils.c ****  *      TYPEDEFS
  22:Middlewares/lvgl/src/misc/lv_utils.c ****  **********************/
  23:Middlewares/lvgl/src/misc/lv_utils.c **** 
  24:Middlewares/lvgl/src/misc/lv_utils.c **** /**********************
  25:Middlewares/lvgl/src/misc/lv_utils.c ****  *  STATIC PROTOTYPES
  26:Middlewares/lvgl/src/misc/lv_utils.c ****  **********************/
  27:Middlewares/lvgl/src/misc/lv_utils.c **** 
  28:Middlewares/lvgl/src/misc/lv_utils.c **** /**********************
  29:Middlewares/lvgl/src/misc/lv_utils.c ****  *  STATIC VARIABLES
ARM GAS  /tmp/ccRiXNVK.s 			page 2


  30:Middlewares/lvgl/src/misc/lv_utils.c ****  **********************/
  31:Middlewares/lvgl/src/misc/lv_utils.c **** 
  32:Middlewares/lvgl/src/misc/lv_utils.c **** /**********************
  33:Middlewares/lvgl/src/misc/lv_utils.c ****  *      MACROS
  34:Middlewares/lvgl/src/misc/lv_utils.c ****  **********************/
  35:Middlewares/lvgl/src/misc/lv_utils.c **** 
  36:Middlewares/lvgl/src/misc/lv_utils.c **** /**********************
  37:Middlewares/lvgl/src/misc/lv_utils.c ****  *   GLOBAL FUNCTIONS
  38:Middlewares/lvgl/src/misc/lv_utils.c ****  **********************/
  39:Middlewares/lvgl/src/misc/lv_utils.c **** 
  40:Middlewares/lvgl/src/misc/lv_utils.c **** /** Searches base[0] to base[n - 1] for an item that matches *key.
  41:Middlewares/lvgl/src/misc/lv_utils.c ****  *
  42:Middlewares/lvgl/src/misc/lv_utils.c ****  * @note The function cmp must return negative if its first
  43:Middlewares/lvgl/src/misc/lv_utils.c ****  *  argument (the search key) is less that its second (a table entry),
  44:Middlewares/lvgl/src/misc/lv_utils.c ****  *  zero if equal, and positive if greater.
  45:Middlewares/lvgl/src/misc/lv_utils.c ****  *
  46:Middlewares/lvgl/src/misc/lv_utils.c ****  *  @note Items in the array must be in ascending order.
  47:Middlewares/lvgl/src/misc/lv_utils.c ****  *
  48:Middlewares/lvgl/src/misc/lv_utils.c ****  * @param key    Pointer to item being searched for
  49:Middlewares/lvgl/src/misc/lv_utils.c ****  * @param base   Pointer to first element to search
  50:Middlewares/lvgl/src/misc/lv_utils.c ****  * @param n      Number of elements
  51:Middlewares/lvgl/src/misc/lv_utils.c ****  * @param size   Size of each element
  52:Middlewares/lvgl/src/misc/lv_utils.c ****  * @param cmp    Pointer to comparison function (see #lv_font_codeCompare as a comparison function
  53:Middlewares/lvgl/src/misc/lv_utils.c ****  * example)
  54:Middlewares/lvgl/src/misc/lv_utils.c ****  *
  55:Middlewares/lvgl/src/misc/lv_utils.c ****  * @return a pointer to a matching item, or NULL if none exists.
  56:Middlewares/lvgl/src/misc/lv_utils.c ****  */
  57:Middlewares/lvgl/src/misc/lv_utils.c **** void * _lv_utils_bsearch(const void * key, const void * base, uint32_t n, uint32_t size,
  58:Middlewares/lvgl/src/misc/lv_utils.c ****                          int32_t (*cmp)(const void * pRef, const void * pElement))
  59:Middlewares/lvgl/src/misc/lv_utils.c **** {
  30              		.loc 1 59 1 view -0
  31              		.cfi_startproc
  32              		@ args = 4, pretend = 0, frame = 0
  33              		@ frame_needed = 0, uses_anonymous_args = 0
  34              		.loc 1 59 1 is_stmt 0 view .LVU1
  35 0000 2DE9F047 		push	{r4, r5, r6, r7, r8, r9, r10, lr}
  36              	.LCFI0:
  37              		.cfi_def_cfa_offset 32
  38              		.cfi_offset 4, -32
  39              		.cfi_offset 5, -28
  40              		.cfi_offset 6, -24
  41              		.cfi_offset 7, -20
  42              		.cfi_offset 8, -16
  43              		.cfi_offset 9, -12
  44              		.cfi_offset 10, -8
  45              		.cfi_offset 14, -4
  46 0004 8146     		mov	r9, r0
  47 0006 8846     		mov	r8, r1
  48 0008 1446     		mov	r4, r2
  49 000a 1F46     		mov	r7, r3
  50 000c DDF820A0 		ldr	r10, [sp, #32]
  60:Middlewares/lvgl/src/misc/lv_utils.c ****     const char * middle;
  51              		.loc 1 60 5 is_stmt 1 view .LVU2
  61:Middlewares/lvgl/src/misc/lv_utils.c ****     int32_t c;
  52              		.loc 1 61 5 view .LVU3
  62:Middlewares/lvgl/src/misc/lv_utils.c **** 
  63:Middlewares/lvgl/src/misc/lv_utils.c ****     for(middle = base; n != 0;) {
ARM GAS  /tmp/ccRiXNVK.s 			page 3


  53              		.loc 1 63 5 view .LVU4
  54              	.LVL1:
  55              		.loc 1 63 5 is_stmt 0 view .LVU5
  56 0010 07E0     		b	.L2
  57              	.LVL2:
  58              	.L9:
  64:Middlewares/lvgl/src/misc/lv_utils.c ****         middle += (n / 2) * size;
  65:Middlewares/lvgl/src/misc/lv_utils.c ****         if((c = (*cmp)(key, middle)) > 0) {
  66:Middlewares/lvgl/src/misc/lv_utils.c ****             n    = (n / 2) - ((n & 1) == 0);
  59              		.loc 1 66 13 is_stmt 1 view .LVU6
  60              		.loc 1 66 39 is_stmt 0 view .LVU7
  61 0012 14F0010F 		tst	r4, #1
  62 0016 0CBF     		ite	eq
  63 0018 0124     		moveq	r4, #1
  64              	.LVL3:
  65              		.loc 1 66 39 view .LVU8
  66 001a 0024     		movne	r4, #0
  67              		.loc 1 66 18 view .LVU9
  68 001c 2C1B     		subs	r4, r5, r4
  69              	.LVL4:
  67:Middlewares/lvgl/src/misc/lv_utils.c ****             base = (middle += size);
  70              		.loc 1 67 13 is_stmt 1 view .LVU10
  71              		.loc 1 67 28 is_stmt 0 view .LVU11
  72 001e 06EB0708 		add	r8, r6, r7
  73              	.LVL5:
  74              	.L2:
  63:Middlewares/lvgl/src/misc/lv_utils.c ****         middle += (n / 2) * size;
  75              		.loc 1 63 24 is_stmt 1 discriminator 1 view .LVU12
  63:Middlewares/lvgl/src/misc/lv_utils.c ****         middle += (n / 2) * size;
  76              		.loc 1 63 5 is_stmt 0 discriminator 1 view .LVU13
  77 0022 5CB1     		cbz	r4, .L8
  64:Middlewares/lvgl/src/misc/lv_utils.c ****         middle += (n / 2) * size;
  78              		.loc 1 64 9 is_stmt 1 view .LVU14
  64:Middlewares/lvgl/src/misc/lv_utils.c ****         middle += (n / 2) * size;
  79              		.loc 1 64 22 is_stmt 0 view .LVU15
  80 0024 6508     		lsrs	r5, r4, #1
  64:Middlewares/lvgl/src/misc/lv_utils.c ****         middle += (n / 2) * size;
  81              		.loc 1 64 16 view .LVU16
  82 0026 07FB0586 		mla	r6, r7, r5, r8
  83              	.LVL6:
  65:Middlewares/lvgl/src/misc/lv_utils.c ****             n    = (n / 2) - ((n & 1) == 0);
  84              		.loc 1 65 9 is_stmt 1 view .LVU17
  65:Middlewares/lvgl/src/misc/lv_utils.c ****             n    = (n / 2) - ((n & 1) == 0);
  85              		.loc 1 65 18 is_stmt 0 view .LVU18
  86 002a 3146     		mov	r1, r6
  87 002c 4846     		mov	r0, r9
  88 002e D047     		blx	r10
  89              	.LVL7:
  65:Middlewares/lvgl/src/misc/lv_utils.c ****             n    = (n / 2) - ((n & 1) == 0);
  90              		.loc 1 65 11 view .LVU19
  91 0030 0028     		cmp	r0, #0
  65:Middlewares/lvgl/src/misc/lv_utils.c ****             n    = (n / 2) - ((n & 1) == 0);
  92              		.loc 1 65 11 view .LVU20
  93 0032 EEDC     		bgt	.L9
  68:Middlewares/lvgl/src/misc/lv_utils.c ****         }
  69:Middlewares/lvgl/src/misc/lv_utils.c ****         else if(c < 0) {
  94              		.loc 1 69 14 is_stmt 1 view .LVU21
ARM GAS  /tmp/ccRiXNVK.s 			page 4


  95              		.loc 1 69 16 is_stmt 0 view .LVU22
  96 0034 0028     		cmp	r0, #0
  97 0036 02DA     		bge	.L1
  70:Middlewares/lvgl/src/misc/lv_utils.c ****             n /= 2;
  98              		.loc 1 70 15 view .LVU23
  99 0038 2C46     		mov	r4, r5
 100              	.LVL8:
 101              		.loc 1 70 15 view .LVU24
 102 003a F2E7     		b	.L2
 103              	.LVL9:
 104              	.L8:
  71:Middlewares/lvgl/src/misc/lv_utils.c ****             middle = base;
  72:Middlewares/lvgl/src/misc/lv_utils.c ****         }
  73:Middlewares/lvgl/src/misc/lv_utils.c ****         else {
  74:Middlewares/lvgl/src/misc/lv_utils.c ****             return (char *)middle;
  75:Middlewares/lvgl/src/misc/lv_utils.c ****         }
  76:Middlewares/lvgl/src/misc/lv_utils.c ****     }
  77:Middlewares/lvgl/src/misc/lv_utils.c ****     return NULL;
 105              		.loc 1 77 12 view .LVU25
 106 003c 0026     		movs	r6, #0
 107              	.LVL10:
 108              	.L1:
  78:Middlewares/lvgl/src/misc/lv_utils.c **** }
 109              		.loc 1 78 1 view .LVU26
 110 003e 3046     		mov	r0, r6
 111 0040 BDE8F087 		pop	{r4, r5, r6, r7, r8, r9, r10, pc}
 112              		.loc 1 78 1 view .LVU27
 113              		.cfi_endproc
 114              	.LFE8:
 116              		.text
 117              	.Letext0:
 118              		.file 2 "/home/akinya/gcc-arm-none-eabi/arm-none-eabi/include/machine/_default_types.h"
 119              		.file 3 "/home/akinya/gcc-arm-none-eabi/arm-none-eabi/include/sys/_stdint.h"
ARM GAS  /tmp/ccRiXNVK.s 			page 5

