ARM GAS  /tmp/ccfIqi70.s 			page 1


   1              		.cpu cortex-m7
   2              		.eabi_attribute 28, 1
   3              		.eabi_attribute 20, 1
   4              		.eabi_attribute 21, 1
   5              		.eabi_attribute 23, 3
   6              		.eabi_attribute 24, 1
   7              		.eabi_attribute 25, 1
   8              		.eabi_attribute 26, 1
   9              		.eabi_attribute 30, 1
  10              		.eabi_attribute 34, 1
  11              		.eabi_attribute 18, 4
  12              		.file	"freertos.c"
  13              		.section	.rodata.str1.4,"aMS",%progbits,1
  14              		.align	2
  15              	.LC0:
  16 0000 64656661 		.ascii	"defaultTask\000"
  16      756C7454 
  16      61736B00 
  17              		.align	2
  18              	.LC2:
  19 000c 6C76676C 		.ascii	"lvgl\000"
  19      00
  20 0011 000000   		.align	2
  21              	.LC4:
  22 0014 426C696E 		.ascii	"Blink\000"
  22      6B00
  23              		.text
  24              	.Ltext0:
  25              		.cfi_sections	.debug_frame
  26              		.section	.text.StartDefaultTask,"ax",%progbits
  27              		.align	1
  28              		.global	StartDefaultTask
  29              		.arch armv7e-m
  30              		.syntax unified
  31              		.thumb
  32              		.thumb_func
  33              		.fpu fpv5-d16
  35              	StartDefaultTask:
  36              	.LFB338:
  37              		.file 1 "Core/Src/freertos.c"
   1:Core/Src/freertos.c **** /* USER CODE BEGIN Header */
   2:Core/Src/freertos.c **** /**
   3:Core/Src/freertos.c ****   ******************************************************************************
   4:Core/Src/freertos.c ****   * File Name          : freertos.c
   5:Core/Src/freertos.c ****   * Description        : Code for freertos applications
   6:Core/Src/freertos.c ****   ******************************************************************************
   7:Core/Src/freertos.c ****   * @attention
   8:Core/Src/freertos.c ****   *
   9:Core/Src/freertos.c ****   * <h2><center>&copy; Copyright (c) 2021 STMicroelectronics.
  10:Core/Src/freertos.c ****   * All rights reserved.</center></h2>
  11:Core/Src/freertos.c ****   *
  12:Core/Src/freertos.c ****   * This software component is licensed by ST under Ultimate Liberty license
  13:Core/Src/freertos.c ****   * SLA0044, the "License"; You may not use this file except in compliance with
  14:Core/Src/freertos.c ****   * the License. You may obtain a copy of the License at:
  15:Core/Src/freertos.c ****   *                             www.st.com/SLA0044
  16:Core/Src/freertos.c ****   *
  17:Core/Src/freertos.c ****   ******************************************************************************
ARM GAS  /tmp/ccfIqi70.s 			page 2


  18:Core/Src/freertos.c ****   */
  19:Core/Src/freertos.c **** /* USER CODE END Header */
  20:Core/Src/freertos.c **** 
  21:Core/Src/freertos.c **** /* Includes ------------------------------------------------------------------*/
  22:Core/Src/freertos.c **** #include "FreeRTOS.h"
  23:Core/Src/freertos.c **** #include "task.h"
  24:Core/Src/freertos.c **** #include "main.h"
  25:Core/Src/freertos.c **** #include "cmsis_os.h"
  26:Core/Src/freertos.c **** 
  27:Core/Src/freertos.c **** /* Private includes ----------------------------------------------------------*/
  28:Core/Src/freertos.c **** /* USER CODE BEGIN Includes */
  29:Core/Src/freertos.c **** #include "LCD.h"
  30:Core/Src/freertos.c **** #include "Mytouch.h"
  31:Core/Src/freertos.c **** #include "lvgl.h"
  32:Core/Src/freertos.c **** /* USER CODE END Includes */
  33:Core/Src/freertos.c **** 
  34:Core/Src/freertos.c **** /* Private typedef -----------------------------------------------------------*/
  35:Core/Src/freertos.c **** /* USER CODE BEGIN PTD */
  36:Core/Src/freertos.c **** 
  37:Core/Src/freertos.c **** /* USER CODE END PTD */
  38:Core/Src/freertos.c **** 
  39:Core/Src/freertos.c **** /* Private define ------------------------------------------------------------*/
  40:Core/Src/freertos.c **** /* USER CODE BEGIN PD */
  41:Core/Src/freertos.c **** #define LVGL_TICK 5
  42:Core/Src/freertos.c **** /* USER CODE END PD */
  43:Core/Src/freertos.c **** 
  44:Core/Src/freertos.c **** /* Private macro -------------------------------------------------------------*/
  45:Core/Src/freertos.c **** /* USER CODE BEGIN PM */
  46:Core/Src/freertos.c **** 
  47:Core/Src/freertos.c **** /* USER CODE END PM */
  48:Core/Src/freertos.c **** 
  49:Core/Src/freertos.c **** /* Private variables ---------------------------------------------------------*/
  50:Core/Src/freertos.c **** /* USER CODE BEGIN Variables */
  51:Core/Src/freertos.c **** osThreadId BlinkTaskHandle;
  52:Core/Src/freertos.c **** osThreadId lvglTaskHandle;
  53:Core/Src/freertos.c **** /* USER CODE END Variables */
  54:Core/Src/freertos.c **** osThreadId defaultTaskHandle;
  55:Core/Src/freertos.c **** 
  56:Core/Src/freertos.c **** /* Private function prototypes -----------------------------------------------*/
  57:Core/Src/freertos.c **** /* USER CODE BEGIN FunctionPrototypes */
  58:Core/Src/freertos.c **** void lvgl_init(void){
  59:Core/Src/freertos.c ****   /* lvgl init */
  60:Core/Src/freertos.c ****   lv_init();
  61:Core/Src/freertos.c ****   lv_port_disp_init();        // 显示器初始化
  62:Core/Src/freertos.c ****   lv_port_indev_init();       // 输入设备初始化（如果没有实现就注释掉）
  63:Core/Src/freertos.c ****   // lv_port_fs_init();          // 文件系统设备初始化（如果没有实现就注释掉）
  64:Core/Src/freertos.c ****   lv_example_keyboard_1();
  65:Core/Src/freertos.c ****   // wave_chart_init();
  66:Core/Src/freertos.c ****   // wave_btn();
  67:Core/Src/freertos.c ****   // distortion_list();
  68:Core/Src/freertos.c ****   // THD_label();
  69:Core/Src/freertos.c ****   for (;;)
  70:Core/Src/freertos.c ****   {
  71:Core/Src/freertos.c ****     osDelay(LVGL_TICK);
  72:Core/Src/freertos.c ****     lv_task_handler();
  73:Core/Src/freertos.c ****   }
  74:Core/Src/freertos.c **** }
ARM GAS  /tmp/ccfIqi70.s 			page 3


  75:Core/Src/freertos.c **** 
  76:Core/Src/freertos.c **** void LED_Blinks(void){
  77:Core/Src/freertos.c ****   for(;;)
  78:Core/Src/freertos.c ****   {
  79:Core/Src/freertos.c ****     HAL_GPIO_TogglePin(LED0_GPIO_Port,LED0_Pin);
  80:Core/Src/freertos.c ****     //printf("hello world\r\n");
  81:Core/Src/freertos.c ****     osDelay(250);
  82:Core/Src/freertos.c ****   }
  83:Core/Src/freertos.c **** }
  84:Core/Src/freertos.c **** /* USER CODE END FunctionPrototypes */
  85:Core/Src/freertos.c **** 
  86:Core/Src/freertos.c **** void StartDefaultTask(void const * argument);
  87:Core/Src/freertos.c **** 
  88:Core/Src/freertos.c **** void MX_FREERTOS_Init(void); /* (MISRA C 2004 rule 8.1) */
  89:Core/Src/freertos.c **** 
  90:Core/Src/freertos.c **** /* GetIdleTaskMemory prototype (linked to static allocation support) */
  91:Core/Src/freertos.c **** void vApplicationGetIdleTaskMemory( StaticTask_t **ppxIdleTaskTCBBuffer, StackType_t **ppxIdleTaskS
  92:Core/Src/freertos.c **** 
  93:Core/Src/freertos.c **** /* Hook prototypes */
  94:Core/Src/freertos.c **** void vApplicationTickHook(void);
  95:Core/Src/freertos.c **** 
  96:Core/Src/freertos.c **** /* USER CODE BEGIN 3 */
  97:Core/Src/freertos.c **** __weak void vApplicationTickHook( void )
  98:Core/Src/freertos.c **** {
  99:Core/Src/freertos.c ****    /* This function will be called by each tick interrupt if
 100:Core/Src/freertos.c ****    configUSE_TICK_HOOK is set to 1 in FreeRTOSConfig.h. User code can be
 101:Core/Src/freertos.c ****    added here, but the tick hook is called from an interrupt context, so
 102:Core/Src/freertos.c ****    code must not attempt to block, and only the interrupt safe FreeRTOS API
 103:Core/Src/freertos.c ****    functions can be used (those that end in FromISR()). */
 104:Core/Src/freertos.c ****    lv_tick_inc(1);
 105:Core/Src/freertos.c **** }
 106:Core/Src/freertos.c **** /* USER CODE END 3 */
 107:Core/Src/freertos.c **** 
 108:Core/Src/freertos.c **** /* USER CODE BEGIN GET_IDLE_TASK_MEMORY */
 109:Core/Src/freertos.c **** static StaticTask_t xIdleTaskTCBBuffer;
 110:Core/Src/freertos.c **** static StackType_t xIdleStack[configMINIMAL_STACK_SIZE];
 111:Core/Src/freertos.c **** 
 112:Core/Src/freertos.c **** void vApplicationGetIdleTaskMemory( StaticTask_t **ppxIdleTaskTCBBuffer, StackType_t **ppxIdleTaskS
 113:Core/Src/freertos.c **** {
 114:Core/Src/freertos.c ****   *ppxIdleTaskTCBBuffer = &xIdleTaskTCBBuffer;
 115:Core/Src/freertos.c ****   *ppxIdleTaskStackBuffer = &xIdleStack[0];
 116:Core/Src/freertos.c ****   *pulIdleTaskStackSize = configMINIMAL_STACK_SIZE;
 117:Core/Src/freertos.c ****   /* place for user code */
 118:Core/Src/freertos.c **** }
 119:Core/Src/freertos.c **** /* USER CODE END GET_IDLE_TASK_MEMORY */
 120:Core/Src/freertos.c **** 
 121:Core/Src/freertos.c **** /**
 122:Core/Src/freertos.c ****   * @brief  FreeRTOS initialization
 123:Core/Src/freertos.c ****   * @param  None
 124:Core/Src/freertos.c ****   * @retval None
 125:Core/Src/freertos.c ****   */
 126:Core/Src/freertos.c **** void MX_FREERTOS_Init(void) {
 127:Core/Src/freertos.c ****   /* USER CODE BEGIN Init */
 128:Core/Src/freertos.c ****   /* USER CODE END Init */
 129:Core/Src/freertos.c **** 
 130:Core/Src/freertos.c ****   /* USER CODE BEGIN RTOS_MUTEX */
 131:Core/Src/freertos.c ****   /* add mutexes, ... */
ARM GAS  /tmp/ccfIqi70.s 			page 4


 132:Core/Src/freertos.c ****   /* USER CODE END RTOS_MUTEX */
 133:Core/Src/freertos.c **** 
 134:Core/Src/freertos.c ****   /* USER CODE BEGIN RTOS_SEMAPHORES */
 135:Core/Src/freertos.c ****   /* add semaphores, ... */
 136:Core/Src/freertos.c ****   /* USER CODE END RTOS_SEMAPHORES */
 137:Core/Src/freertos.c **** 
 138:Core/Src/freertos.c ****   /* USER CODE BEGIN RTOS_TIMERS */
 139:Core/Src/freertos.c ****   /* start timers, add new ones, ... */
 140:Core/Src/freertos.c ****   /* USER CODE END RTOS_TIMERS */
 141:Core/Src/freertos.c **** 
 142:Core/Src/freertos.c ****   /* USER CODE BEGIN RTOS_QUEUES */
 143:Core/Src/freertos.c ****   /* add queues, ... */
 144:Core/Src/freertos.c ****   /* USER CODE END RTOS_QUEUES */
 145:Core/Src/freertos.c **** 
 146:Core/Src/freertos.c ****   /* Create the thread(s) */
 147:Core/Src/freertos.c ****   /* definition and creation of defaultTask */
 148:Core/Src/freertos.c ****   osThreadDef(defaultTask, StartDefaultTask, osPriorityNormal, 0, 128);
 149:Core/Src/freertos.c ****   defaultTaskHandle = osThreadCreate(osThread(defaultTask), NULL);
 150:Core/Src/freertos.c **** 
 151:Core/Src/freertos.c ****   /* USER CODE BEGIN RTOS_THREADS */
 152:Core/Src/freertos.c ****   osThreadDef(lvgl, lvgl_init, osPriorityRealtime , 0, 1024);
 153:Core/Src/freertos.c ****   lvglTaskHandle = osThreadCreate(osThread(lvgl), NULL);
 154:Core/Src/freertos.c ****   osThreadDef(Blink, LED_Blinks, osPriorityNormal, 0, 256);
 155:Core/Src/freertos.c ****   BlinkTaskHandle = osThreadCreate(osThread(Blink), NULL);
 156:Core/Src/freertos.c ****   /* USER CODE END RTOS_THREADS */
 157:Core/Src/freertos.c **** 
 158:Core/Src/freertos.c **** }
 159:Core/Src/freertos.c **** 
 160:Core/Src/freertos.c **** /* USER CODE BEGIN Header_StartDefaultTask */
 161:Core/Src/freertos.c **** /**
 162:Core/Src/freertos.c ****   * @brief  Function implementing the defaultTask thread.
 163:Core/Src/freertos.c ****   * @param  argument: Not used
 164:Core/Src/freertos.c ****   * @retval None
 165:Core/Src/freertos.c ****   */
 166:Core/Src/freertos.c **** /* USER CODE END Header_StartDefaultTask */
 167:Core/Src/freertos.c **** void StartDefaultTask(void const * argument)
 168:Core/Src/freertos.c **** {
  38              		.loc 1 168 1 view -0
  39              		.cfi_startproc
  40              		@ Volatile: function does not return.
  41              		@ args = 0, pretend = 0, frame = 0
  42              		@ frame_needed = 0, uses_anonymous_args = 0
  43              	.LVL0:
  44              		.loc 1 168 1 is_stmt 0 view .LVU1
  45 0000 08B5     		push	{r3, lr}
  46              	.LCFI0:
  47              		.cfi_def_cfa_offset 8
  48              		.cfi_offset 3, -8
  49              		.cfi_offset 14, -4
  50              	.LVL1:
  51              	.L2:
 169:Core/Src/freertos.c ****   /* USER CODE BEGIN StartDefaultTask */
 170:Core/Src/freertos.c ****   /* Infinite loop */
 171:Core/Src/freertos.c ****   for(;;)
  52              		.loc 1 171 3 is_stmt 1 discriminator 1 view .LVU2
 172:Core/Src/freertos.c ****   {
 173:Core/Src/freertos.c ****     osDelay(100);
ARM GAS  /tmp/ccfIqi70.s 			page 5


  53              		.loc 1 173 5 discriminator 1 view .LVU3
  54 0002 6420     		movs	r0, #100
  55 0004 FFF7FEFF 		bl	osDelay
  56              	.LVL2:
 171:Core/Src/freertos.c ****   {
  57              		.loc 1 171 8 discriminator 1 view .LVU4
  58 0008 FBE7     		b	.L2
  59              		.cfi_endproc
  60              	.LFE338:
  62              		.section	.text.lvgl_init,"ax",%progbits
  63              		.align	1
  64              		.global	lvgl_init
  65              		.syntax unified
  66              		.thumb
  67              		.thumb_func
  68              		.fpu fpv5-d16
  70              	lvgl_init:
  71              	.LFB333:
  58:Core/Src/freertos.c ****   /* lvgl init */
  72              		.loc 1 58 21 view -0
  73              		.cfi_startproc
  74              		@ Volatile: function does not return.
  75              		@ args = 0, pretend = 0, frame = 0
  76              		@ frame_needed = 0, uses_anonymous_args = 0
  77 0000 08B5     		push	{r3, lr}
  78              	.LCFI1:
  79              		.cfi_def_cfa_offset 8
  80              		.cfi_offset 3, -8
  81              		.cfi_offset 14, -4
  60:Core/Src/freertos.c ****   lv_port_disp_init();        // 显示器初始化
  82              		.loc 1 60 3 view .LVU6
  83 0002 FFF7FEFF 		bl	lv_init
  84              	.LVL3:
  61:Core/Src/freertos.c ****   lv_port_indev_init();       // 输入设备初始化（如果没有实现就注释掉）
  85              		.loc 1 61 3 view .LVU7
  86 0006 FFF7FEFF 		bl	lv_port_disp_init
  87              	.LVL4:
  62:Core/Src/freertos.c ****   // lv_port_fs_init();          // 文件系统设备初始化（如果没有实现就注释掉）
  88              		.loc 1 62 3 view .LVU8
  89 000a FFF7FEFF 		bl	lv_port_indev_init
  90              	.LVL5:
  64:Core/Src/freertos.c ****   // wave_chart_init();
  91              		.loc 1 64 3 view .LVU9
  92 000e FFF7FEFF 		bl	lv_example_keyboard_1
  93              	.LVL6:
  94              	.L5:
  69:Core/Src/freertos.c ****   {
  95              		.loc 1 69 3 discriminator 1 view .LVU10
  71:Core/Src/freertos.c ****     lv_task_handler();
  96              		.loc 1 71 5 discriminator 1 view .LVU11
  97 0012 0520     		movs	r0, #5
  98 0014 FFF7FEFF 		bl	osDelay
  99              	.LVL7:
  72:Core/Src/freertos.c ****   }
 100              		.loc 1 72 5 discriminator 1 view .LVU12
 101              	.LBB4:
 102              	.LBI4:
ARM GAS  /tmp/ccfIqi70.s 			page 6


 103              		.file 2 "Middlewares/lvgl/src/lv_api_map.h"
   1:Middlewares/lvgl/src/lv_api_map.h **** /**
   2:Middlewares/lvgl/src/lv_api_map.h ****  * @file lv_api_map.h
   3:Middlewares/lvgl/src/lv_api_map.h ****  *
   4:Middlewares/lvgl/src/lv_api_map.h ****  */
   5:Middlewares/lvgl/src/lv_api_map.h **** 
   6:Middlewares/lvgl/src/lv_api_map.h **** #ifndef LV_API_MAP_H
   7:Middlewares/lvgl/src/lv_api_map.h **** #define LV_API_MAP_H
   8:Middlewares/lvgl/src/lv_api_map.h **** 
   9:Middlewares/lvgl/src/lv_api_map.h **** #ifdef __cplusplus
  10:Middlewares/lvgl/src/lv_api_map.h **** extern "C" {
  11:Middlewares/lvgl/src/lv_api_map.h **** #endif
  12:Middlewares/lvgl/src/lv_api_map.h **** 
  13:Middlewares/lvgl/src/lv_api_map.h **** /*********************
  14:Middlewares/lvgl/src/lv_api_map.h ****  *      INCLUDES
  15:Middlewares/lvgl/src/lv_api_map.h ****  *********************/
  16:Middlewares/lvgl/src/lv_api_map.h **** #include "../lvgl.h"
  17:Middlewares/lvgl/src/lv_api_map.h **** 
  18:Middlewares/lvgl/src/lv_api_map.h **** /*********************
  19:Middlewares/lvgl/src/lv_api_map.h ****  *      DEFINES
  20:Middlewares/lvgl/src/lv_api_map.h ****  *********************/
  21:Middlewares/lvgl/src/lv_api_map.h **** 
  22:Middlewares/lvgl/src/lv_api_map.h **** #define LV_NO_TASK_READY        LV_NO_TIMER_READY
  23:Middlewares/lvgl/src/lv_api_map.h **** #define LV_INDEV_STATE_REL      LV_INDEV_STATE_RELEASED
  24:Middlewares/lvgl/src/lv_api_map.h **** #define LV_INDEV_STATE_PR       LV_INDEV_STATE_PRESSED
  25:Middlewares/lvgl/src/lv_api_map.h **** #define LV_OBJ_FLAG_SNAPABLE    LV_OBJ_FLAG_SNAPPABLE   /*Fixed typo*/
  26:Middlewares/lvgl/src/lv_api_map.h **** 
  27:Middlewares/lvgl/src/lv_api_map.h **** /**********************
  28:Middlewares/lvgl/src/lv_api_map.h ****  *      TYPEDEFS
  29:Middlewares/lvgl/src/lv_api_map.h ****  **********************/
  30:Middlewares/lvgl/src/lv_api_map.h **** 
  31:Middlewares/lvgl/src/lv_api_map.h **** /**********************
  32:Middlewares/lvgl/src/lv_api_map.h ****  * GLOBAL PROTOTYPES
  33:Middlewares/lvgl/src/lv_api_map.h ****  **********************/
  34:Middlewares/lvgl/src/lv_api_map.h **** 
  35:Middlewares/lvgl/src/lv_api_map.h **** static inline LV_ATTRIBUTE_TIMER_HANDLER uint32_t lv_task_handler(void)
 104              		.loc 2 35 51 discriminator 1 view .LVU13
 105              	.LBB5:
  36:Middlewares/lvgl/src/lv_api_map.h **** {
  37:Middlewares/lvgl/src/lv_api_map.h ****     return lv_timer_handler();
 106              		.loc 2 37 5 discriminator 1 view .LVU14
 107              		.loc 2 37 12 is_stmt 0 discriminator 1 view .LVU15
 108 0018 FFF7FEFF 		bl	lv_timer_handler
 109              	.LVL8:
 110 001c F9E7     		b	.L5
 111              	.LBE5:
 112              	.LBE4:
 113              		.cfi_endproc
 114              	.LFE333:
 116              		.section	.text.LED_Blinks,"ax",%progbits
 117              		.align	1
 118              		.global	LED_Blinks
 119              		.syntax unified
 120              		.thumb
 121              		.thumb_func
 122              		.fpu fpv5-d16
 124              	LED_Blinks:
ARM GAS  /tmp/ccfIqi70.s 			page 7


 125              	.LFB334:
  76:Core/Src/freertos.c ****   for(;;)
 126              		.loc 1 76 22 is_stmt 1 view -0
 127              		.cfi_startproc
 128              		@ Volatile: function does not return.
 129              		@ args = 0, pretend = 0, frame = 0
 130              		@ frame_needed = 0, uses_anonymous_args = 0
 131 0000 08B5     		push	{r3, lr}
 132              	.LCFI2:
 133              		.cfi_def_cfa_offset 8
 134              		.cfi_offset 3, -8
 135              		.cfi_offset 14, -4
 136              	.L8:
  77:Core/Src/freertos.c ****   {
 137              		.loc 1 77 3 discriminator 1 view .LVU17
  79:Core/Src/freertos.c ****     //printf("hello world\r\n");
 138              		.loc 1 79 5 discriminator 1 view .LVU18
 139 0002 0121     		movs	r1, #1
 140 0004 0348     		ldr	r0, .L10
 141 0006 FFF7FEFF 		bl	HAL_GPIO_TogglePin
 142              	.LVL9:
  81:Core/Src/freertos.c ****   }
 143              		.loc 1 81 5 discriminator 1 view .LVU19
 144 000a FA20     		movs	r0, #250
 145 000c FFF7FEFF 		bl	osDelay
 146              	.LVL10:
  77:Core/Src/freertos.c ****   {
 147              		.loc 1 77 8 discriminator 1 view .LVU20
 148 0010 F7E7     		b	.L8
 149              	.L11:
 150 0012 00BF     		.align	2
 151              	.L10:
 152 0014 00040258 		.word	1476527104
 153              		.cfi_endproc
 154              	.LFE334:
 156              		.section	.text.vApplicationTickHook,"ax",%progbits
 157              		.align	1
 158              		.weak	vApplicationTickHook
 159              		.syntax unified
 160              		.thumb
 161              		.thumb_func
 162              		.fpu fpv5-d16
 164              	vApplicationTickHook:
 165              	.LFB335:
  98:Core/Src/freertos.c ****    /* This function will be called by each tick interrupt if
 166              		.loc 1 98 1 view -0
 167              		.cfi_startproc
 168              		@ args = 0, pretend = 0, frame = 0
 169              		@ frame_needed = 0, uses_anonymous_args = 0
 170 0000 08B5     		push	{r3, lr}
 171              	.LCFI3:
 172              		.cfi_def_cfa_offset 8
 173              		.cfi_offset 3, -8
 174              		.cfi_offset 14, -4
 104:Core/Src/freertos.c **** }
 175              		.loc 1 104 4 view .LVU22
 176 0002 0120     		movs	r0, #1
ARM GAS  /tmp/ccfIqi70.s 			page 8


 177 0004 FFF7FEFF 		bl	lv_tick_inc
 178              	.LVL11:
 105:Core/Src/freertos.c **** /* USER CODE END 3 */
 179              		.loc 1 105 1 is_stmt 0 view .LVU23
 180 0008 08BD     		pop	{r3, pc}
 181              		.cfi_endproc
 182              	.LFE335:
 184              		.section	.text.vApplicationGetIdleTaskMemory,"ax",%progbits
 185              		.align	1
 186              		.global	vApplicationGetIdleTaskMemory
 187              		.syntax unified
 188              		.thumb
 189              		.thumb_func
 190              		.fpu fpv5-d16
 192              	vApplicationGetIdleTaskMemory:
 193              	.LVL12:
 194              	.LFB336:
 113:Core/Src/freertos.c ****   *ppxIdleTaskTCBBuffer = &xIdleTaskTCBBuffer;
 195              		.loc 1 113 1 is_stmt 1 view -0
 196              		.cfi_startproc
 197              		@ args = 0, pretend = 0, frame = 0
 198              		@ frame_needed = 0, uses_anonymous_args = 0
 199              		@ link register save eliminated.
 114:Core/Src/freertos.c ****   *ppxIdleTaskStackBuffer = &xIdleStack[0];
 200              		.loc 1 114 3 view .LVU25
 114:Core/Src/freertos.c ****   *ppxIdleTaskStackBuffer = &xIdleStack[0];
 201              		.loc 1 114 25 is_stmt 0 view .LVU26
 202 0000 034B     		ldr	r3, .L15
 203 0002 0360     		str	r3, [r0]
 115:Core/Src/freertos.c ****   *pulIdleTaskStackSize = configMINIMAL_STACK_SIZE;
 204              		.loc 1 115 3 is_stmt 1 view .LVU27
 115:Core/Src/freertos.c ****   *pulIdleTaskStackSize = configMINIMAL_STACK_SIZE;
 205              		.loc 1 115 27 is_stmt 0 view .LVU28
 206 0004 034B     		ldr	r3, .L15+4
 207 0006 0B60     		str	r3, [r1]
 116:Core/Src/freertos.c ****   /* place for user code */
 208              		.loc 1 116 3 is_stmt 1 view .LVU29
 116:Core/Src/freertos.c ****   /* place for user code */
 209              		.loc 1 116 25 is_stmt 0 view .LVU30
 210 0008 8023     		movs	r3, #128
 211 000a 1360     		str	r3, [r2]
 118:Core/Src/freertos.c **** /* USER CODE END GET_IDLE_TASK_MEMORY */
 212              		.loc 1 118 1 view .LVU31
 213 000c 7047     		bx	lr
 214              	.L16:
 215 000e 00BF     		.align	2
 216              	.L15:
 217 0010 00000000 		.word	.LANCHOR0
 218 0014 00000000 		.word	.LANCHOR1
 219              		.cfi_endproc
 220              	.LFE336:
 222              		.section	.text.MX_FREERTOS_Init,"ax",%progbits
 223              		.align	1
 224              		.global	MX_FREERTOS_Init
 225              		.syntax unified
 226              		.thumb
 227              		.thumb_func
ARM GAS  /tmp/ccfIqi70.s 			page 9


 228              		.fpu fpv5-d16
 230              	MX_FREERTOS_Init:
 231              	.LFB337:
 126:Core/Src/freertos.c ****   /* USER CODE BEGIN Init */
 232              		.loc 1 126 29 is_stmt 1 view -0
 233              		.cfi_startproc
 234              		@ args = 0, pretend = 0, frame = 88
 235              		@ frame_needed = 0, uses_anonymous_args = 0
 236 0000 10B5     		push	{r4, lr}
 237              	.LCFI4:
 238              		.cfi_def_cfa_offset 8
 239              		.cfi_offset 4, -8
 240              		.cfi_offset 14, -4
 241 0002 96B0     		sub	sp, sp, #88
 242              	.LCFI5:
 243              		.cfi_def_cfa_offset 96
 148:Core/Src/freertos.c ****   defaultTaskHandle = osThreadCreate(osThread(defaultTask), NULL);
 244              		.loc 1 148 3 view .LVU33
 245 0004 1B4C     		ldr	r4, .L19
 246 0006 0DF13C0C 		add	ip, sp, #60
 247 000a A646     		mov	lr, r4
 248 000c BEE80F00 		ldmia	lr!, {r0, r1, r2, r3}
 249 0010 ACE80F00 		stmia	ip!, {r0, r1, r2, r3}
 250 0014 9EE80700 		ldm	lr, {r0, r1, r2}
 251 0018 8CE80700 		stm	ip, {r0, r1, r2}
 149:Core/Src/freertos.c **** 
 252              		.loc 1 149 3 view .LVU34
 149:Core/Src/freertos.c **** 
 253              		.loc 1 149 23 is_stmt 0 view .LVU35
 254 001c 0021     		movs	r1, #0
 255 001e 0FA8     		add	r0, sp, #60
 256 0020 FFF7FEFF 		bl	osThreadCreate
 257              	.LVL13:
 149:Core/Src/freertos.c **** 
 258              		.loc 1 149 21 view .LVU36
 259 0024 144B     		ldr	r3, .L19+4
 260 0026 1860     		str	r0, [r3]
 152:Core/Src/freertos.c ****   lvglTaskHandle = osThreadCreate(osThread(lvgl), NULL);
 261              		.loc 1 152 3 is_stmt 1 view .LVU37
 262 0028 0DF1200C 		add	ip, sp, #32
 263 002c 04F11C0E 		add	lr, r4, #28
 264 0030 BEE80F00 		ldmia	lr!, {r0, r1, r2, r3}
 265 0034 ACE80F00 		stmia	ip!, {r0, r1, r2, r3}
 266 0038 9EE80700 		ldm	lr, {r0, r1, r2}
 267 003c 8CE80700 		stm	ip, {r0, r1, r2}
 153:Core/Src/freertos.c ****   osThreadDef(Blink, LED_Blinks, osPriorityNormal, 0, 256);
 268              		.loc 1 153 3 view .LVU38
 153:Core/Src/freertos.c ****   osThreadDef(Blink, LED_Blinks, osPriorityNormal, 0, 256);
 269              		.loc 1 153 20 is_stmt 0 view .LVU39
 270 0040 0021     		movs	r1, #0
 271 0042 08A8     		add	r0, sp, #32
 272 0044 FFF7FEFF 		bl	osThreadCreate
 273              	.LVL14:
 153:Core/Src/freertos.c ****   osThreadDef(Blink, LED_Blinks, osPriorityNormal, 0, 256);
 274              		.loc 1 153 18 view .LVU40
 275 0048 0C4B     		ldr	r3, .L19+8
 276 004a 1860     		str	r0, [r3]
ARM GAS  /tmp/ccfIqi70.s 			page 10


 154:Core/Src/freertos.c ****   BlinkTaskHandle = osThreadCreate(osThread(Blink), NULL);
 277              		.loc 1 154 3 is_stmt 1 view .LVU41
 278 004c 0DF1040E 		add	lr, sp, #4
 279 0050 04F1380C 		add	ip, r4, #56
 280 0054 BCE80F00 		ldmia	ip!, {r0, r1, r2, r3}
 281 0058 AEE80F00 		stmia	lr!, {r0, r1, r2, r3}
 282 005c 9CE80700 		ldm	ip, {r0, r1, r2}
 283 0060 8EE80700 		stm	lr, {r0, r1, r2}
 155:Core/Src/freertos.c ****   /* USER CODE END RTOS_THREADS */
 284              		.loc 1 155 3 view .LVU42
 155:Core/Src/freertos.c ****   /* USER CODE END RTOS_THREADS */
 285              		.loc 1 155 21 is_stmt 0 view .LVU43
 286 0064 0021     		movs	r1, #0
 287 0066 01A8     		add	r0, sp, #4
 288 0068 FFF7FEFF 		bl	osThreadCreate
 289              	.LVL15:
 155:Core/Src/freertos.c ****   /* USER CODE END RTOS_THREADS */
 290              		.loc 1 155 19 view .LVU44
 291 006c 044B     		ldr	r3, .L19+12
 292 006e 1860     		str	r0, [r3]
 158:Core/Src/freertos.c **** 
 293              		.loc 1 158 1 view .LVU45
 294 0070 16B0     		add	sp, sp, #88
 295              	.LCFI6:
 296              		.cfi_def_cfa_offset 8
 297              		@ sp needed
 298 0072 10BD     		pop	{r4, pc}
 299              	.L20:
 300              		.align	2
 301              	.L19:
 302 0074 00000000 		.word	.LANCHOR2
 303 0078 00000000 		.word	.LANCHOR3
 304 007c 00000000 		.word	.LANCHOR4
 305 0080 00000000 		.word	.LANCHOR5
 306              		.cfi_endproc
 307              	.LFE337:
 309              		.global	defaultTaskHandle
 310              		.global	lvglTaskHandle
 311              		.global	BlinkTaskHandle
 312              		.section	.rodata
 313              		.align	2
 314              		.set	.LANCHOR2,. + 0
 315              	.LC6:
 316 0000 00000000 		.word	.LC0
 317 0004 00000000 		.word	StartDefaultTask
 318 0008 0000     		.short	0
 319 000a 0000     		.space	2
 320 000c 00000000 		.word	0
 321 0010 80000000 		.word	128
 322 0014 00000000 		.word	0
 323 0018 00000000 		.word	0
 324              	.LC7:
 325 001c 0C000000 		.word	.LC2
 326 0020 00000000 		.word	lvgl_init
 327 0024 0300     		.short	3
 328 0026 0000     		.space	2
 329 0028 00000000 		.word	0
ARM GAS  /tmp/ccfIqi70.s 			page 11


 330 002c 00040000 		.word	1024
 331 0030 00000000 		.word	0
 332 0034 00000000 		.word	0
 333              	.LC8:
 334 0038 14000000 		.word	.LC4
 335 003c 00000000 		.word	LED_Blinks
 336 0040 0000     		.short	0
 337 0042 0000     		.space	2
 338 0044 00000000 		.word	0
 339 0048 00010000 		.word	256
 340 004c 00000000 		.word	0
 341 0050 00000000 		.word	0
 342              		.section	.bss.BlinkTaskHandle,"aw",%nobits
 343              		.align	2
 344              		.set	.LANCHOR5,. + 0
 347              	BlinkTaskHandle:
 348 0000 00000000 		.space	4
 349              		.section	.bss.defaultTaskHandle,"aw",%nobits
 350              		.align	2
 351              		.set	.LANCHOR3,. + 0
 354              	defaultTaskHandle:
 355 0000 00000000 		.space	4
 356              		.section	.bss.lvglTaskHandle,"aw",%nobits
 357              		.align	2
 358              		.set	.LANCHOR4,. + 0
 361              	lvglTaskHandle:
 362 0000 00000000 		.space	4
 363              		.section	.bss.xIdleStack,"aw",%nobits
 364              		.align	2
 365              		.set	.LANCHOR1,. + 0
 368              	xIdleStack:
 369 0000 00000000 		.space	512
 369      00000000 
 369      00000000 
 369      00000000 
 369      00000000 
 370              		.section	.bss.xIdleTaskTCBBuffer,"aw",%nobits
 371              		.align	2
 372              		.set	.LANCHOR0,. + 0
 375              	xIdleTaskTCBBuffer:
 376 0000 00000000 		.space	84
 376      00000000 
 376      00000000 
 376      00000000 
 376      00000000 
 377              		.text
 378              	.Letext0:
 379              		.file 3 "/home/akinya/gcc-arm-none-eabi/arm-none-eabi/include/machine/_default_types.h"
 380              		.file 4 "/home/akinya/gcc-arm-none-eabi/arm-none-eabi/include/sys/_stdint.h"
 381              		.file 5 "Middlewares/Third_Party/FreeRTOS/Source/portable/GCC/ARM_CM4F/portmacro.h"
 382              		.file 6 "Middlewares/Third_Party/FreeRTOS/Source/include/FreeRTOS.h"
 383              		.file 7 "Middlewares/Third_Party/FreeRTOS/Source/include/task.h"
 384              		.file 8 "Drivers/CMSIS/Device/ST/STM32H7xx/Include/stm32h743xx.h"
 385              		.file 9 "Middlewares/Third_Party/FreeRTOS/Source/CMSIS_RTOS/cmsis_os.h"
 386              		.file 10 "Middlewares/lvgl/src/core/lv_obj.h"
 387              		.file 11 "Middlewares/lvgl/src/widgets/lv_bar.h"
 388              		.file 12 "Middlewares/lvgl/src/extra/widgets/imgbtn/lv_imgbtn.h"
ARM GAS  /tmp/ccfIqi70.s 			page 12


 389              		.file 13 "Middlewares/lvgl/src/hal/lv_hal_tick.h"
 390              		.file 14 "Drivers/STM32H7xx_HAL_Driver/Inc/stm32h7xx_hal_gpio.h"
 391              		.file 15 "Middlewares/lvgl/src/misc/lv_timer.h"
ARM GAS  /tmp/ccfIqi70.s 			page 13

