ARM GAS  /tmp/ccqOegKq.s 			page 1


   1              		.cpu cortex-m7
   2              		.eabi_attribute 28, 1
   3              		.eabi_attribute 20, 1
   4              		.eabi_attribute 21, 1
   5              		.eabi_attribute 23, 3
   6              		.eabi_attribute 24, 1
   7              		.eabi_attribute 25, 1
   8              		.eabi_attribute 26, 1
   9              		.eabi_attribute 30, 1
  10              		.eabi_attribute 34, 1
  11              		.eabi_attribute 18, 4
  12              		.file	"lv_arc.c"
  13              		.text
  14              	.Ltext0:
  15              		.cfi_sections	.debug_frame
  16              		.section	.text.get_center,"ax",%progbits
  17              		.align	1
  18              		.arch armv7e-m
  19              		.syntax unified
  20              		.thumb
  21              		.thumb_func
  22              		.fpu fpv5-d16
  24              	get_center:
  25              	.LVL0:
  26              	.LFB171:
  27              		.file 1 "Middlewares/lvgl/src/widgets/lv_arc.c"
   1:Middlewares/lvgl/src/widgets/lv_arc.c **** /**
   2:Middlewares/lvgl/src/widgets/lv_arc.c ****  * @file lv_arc.c
   3:Middlewares/lvgl/src/widgets/lv_arc.c ****  *
   4:Middlewares/lvgl/src/widgets/lv_arc.c ****  */
   5:Middlewares/lvgl/src/widgets/lv_arc.c **** 
   6:Middlewares/lvgl/src/widgets/lv_arc.c **** /*********************
   7:Middlewares/lvgl/src/widgets/lv_arc.c ****  *      INCLUDES
   8:Middlewares/lvgl/src/widgets/lv_arc.c ****  *********************/
   9:Middlewares/lvgl/src/widgets/lv_arc.c **** #include "lv_arc.h"
  10:Middlewares/lvgl/src/widgets/lv_arc.c **** #if LV_USE_ARC != 0
  11:Middlewares/lvgl/src/widgets/lv_arc.c **** 
  12:Middlewares/lvgl/src/widgets/lv_arc.c **** #include "../core/lv_group.h"
  13:Middlewares/lvgl/src/widgets/lv_arc.c **** #include "../core/lv_indev.h"
  14:Middlewares/lvgl/src/widgets/lv_arc.c **** #include "../misc/lv_assert.h"
  15:Middlewares/lvgl/src/widgets/lv_arc.c **** #include "../misc/lv_math.h"
  16:Middlewares/lvgl/src/widgets/lv_arc.c **** #include "../draw/lv_draw_arc.h"
  17:Middlewares/lvgl/src/widgets/lv_arc.c **** 
  18:Middlewares/lvgl/src/widgets/lv_arc.c **** /*********************
  19:Middlewares/lvgl/src/widgets/lv_arc.c ****  *      DEFINES
  20:Middlewares/lvgl/src/widgets/lv_arc.c ****  *********************/
  21:Middlewares/lvgl/src/widgets/lv_arc.c **** #define MY_CLASS &lv_arc_class
  22:Middlewares/lvgl/src/widgets/lv_arc.c **** 
  23:Middlewares/lvgl/src/widgets/lv_arc.c **** #define VALUE_UNSET INT16_MIN
  24:Middlewares/lvgl/src/widgets/lv_arc.c **** 
  25:Middlewares/lvgl/src/widgets/lv_arc.c **** /**********************
  26:Middlewares/lvgl/src/widgets/lv_arc.c ****  *      TYPEDEFS
  27:Middlewares/lvgl/src/widgets/lv_arc.c ****  **********************/
  28:Middlewares/lvgl/src/widgets/lv_arc.c **** 
  29:Middlewares/lvgl/src/widgets/lv_arc.c **** /**********************
  30:Middlewares/lvgl/src/widgets/lv_arc.c ****  *  STATIC PROTOTYPES
  31:Middlewares/lvgl/src/widgets/lv_arc.c ****  **********************/
ARM GAS  /tmp/ccqOegKq.s 			page 2


  32:Middlewares/lvgl/src/widgets/lv_arc.c **** 
  33:Middlewares/lvgl/src/widgets/lv_arc.c **** static void lv_arc_constructor(const lv_obj_class_t * class_p, lv_obj_t * obj);
  34:Middlewares/lvgl/src/widgets/lv_arc.c **** static void lv_arc_draw(lv_event_t * e);
  35:Middlewares/lvgl/src/widgets/lv_arc.c **** static void lv_arc_event(const lv_obj_class_t * class_p, lv_event_t * e);
  36:Middlewares/lvgl/src/widgets/lv_arc.c **** static void inv_arc_area(lv_obj_t * arc, uint16_t start_angle, uint16_t end_angle, lv_part_t part);
  37:Middlewares/lvgl/src/widgets/lv_arc.c **** static void get_center(lv_obj_t * obj, lv_point_t * center, lv_coord_t * arc_r);
  38:Middlewares/lvgl/src/widgets/lv_arc.c **** static void get_knob_area(lv_obj_t * arc, const lv_point_t * center, lv_coord_t r, lv_area_t * knob
  39:Middlewares/lvgl/src/widgets/lv_arc.c **** static void value_update(lv_obj_t * arc);
  40:Middlewares/lvgl/src/widgets/lv_arc.c **** 
  41:Middlewares/lvgl/src/widgets/lv_arc.c **** /**********************
  42:Middlewares/lvgl/src/widgets/lv_arc.c ****  *  STATIC VARIABLES
  43:Middlewares/lvgl/src/widgets/lv_arc.c ****  **********************/
  44:Middlewares/lvgl/src/widgets/lv_arc.c **** const lv_obj_class_t lv_arc_class  = {
  45:Middlewares/lvgl/src/widgets/lv_arc.c ****     .constructor_cb = lv_arc_constructor,
  46:Middlewares/lvgl/src/widgets/lv_arc.c ****     .event_cb = lv_arc_event,
  47:Middlewares/lvgl/src/widgets/lv_arc.c ****     .instance_size = sizeof(lv_arc_t),
  48:Middlewares/lvgl/src/widgets/lv_arc.c ****     .editable = LV_OBJ_CLASS_EDITABLE_TRUE,
  49:Middlewares/lvgl/src/widgets/lv_arc.c ****     .base_class = &lv_obj_class
  50:Middlewares/lvgl/src/widgets/lv_arc.c **** };
  51:Middlewares/lvgl/src/widgets/lv_arc.c **** 
  52:Middlewares/lvgl/src/widgets/lv_arc.c **** /**********************
  53:Middlewares/lvgl/src/widgets/lv_arc.c ****  *      MACROS
  54:Middlewares/lvgl/src/widgets/lv_arc.c ****  **********************/
  55:Middlewares/lvgl/src/widgets/lv_arc.c **** 
  56:Middlewares/lvgl/src/widgets/lv_arc.c **** /**********************
  57:Middlewares/lvgl/src/widgets/lv_arc.c ****  *   GLOBAL FUNCTIONS
  58:Middlewares/lvgl/src/widgets/lv_arc.c ****  **********************/
  59:Middlewares/lvgl/src/widgets/lv_arc.c **** 
  60:Middlewares/lvgl/src/widgets/lv_arc.c **** /**
  61:Middlewares/lvgl/src/widgets/lv_arc.c ****  * Create a arc object
  62:Middlewares/lvgl/src/widgets/lv_arc.c ****  * @param par pointer to an object, it will be the parent of the new arc
  63:Middlewares/lvgl/src/widgets/lv_arc.c ****  * @return pointer to the created arc
  64:Middlewares/lvgl/src/widgets/lv_arc.c ****  */
  65:Middlewares/lvgl/src/widgets/lv_arc.c **** lv_obj_t * lv_arc_create(lv_obj_t * parent)
  66:Middlewares/lvgl/src/widgets/lv_arc.c **** {
  67:Middlewares/lvgl/src/widgets/lv_arc.c ****     LV_LOG_INFO("begin")
  68:Middlewares/lvgl/src/widgets/lv_arc.c ****     lv_obj_t * obj = lv_obj_class_create_obj(MY_CLASS, parent);
  69:Middlewares/lvgl/src/widgets/lv_arc.c ****     lv_obj_class_init_obj(obj);
  70:Middlewares/lvgl/src/widgets/lv_arc.c ****     return obj;
  71:Middlewares/lvgl/src/widgets/lv_arc.c **** }
  72:Middlewares/lvgl/src/widgets/lv_arc.c **** 
  73:Middlewares/lvgl/src/widgets/lv_arc.c **** /*======================
  74:Middlewares/lvgl/src/widgets/lv_arc.c ****  * Add/remove functions
  75:Middlewares/lvgl/src/widgets/lv_arc.c ****  *=====================*/
  76:Middlewares/lvgl/src/widgets/lv_arc.c **** 
  77:Middlewares/lvgl/src/widgets/lv_arc.c **** /*
  78:Middlewares/lvgl/src/widgets/lv_arc.c ****  * New object specific "add" or "remove" functions come here
  79:Middlewares/lvgl/src/widgets/lv_arc.c ****  */
  80:Middlewares/lvgl/src/widgets/lv_arc.c **** 
  81:Middlewares/lvgl/src/widgets/lv_arc.c **** /*=====================
  82:Middlewares/lvgl/src/widgets/lv_arc.c ****  * Setter functions
  83:Middlewares/lvgl/src/widgets/lv_arc.c ****  *====================*/
  84:Middlewares/lvgl/src/widgets/lv_arc.c **** 
  85:Middlewares/lvgl/src/widgets/lv_arc.c **** /**
  86:Middlewares/lvgl/src/widgets/lv_arc.c ****  * Set the start angle of an arc. 0 deg: right, 90 bottom, etc.
  87:Middlewares/lvgl/src/widgets/lv_arc.c ****  * @param arc pointer to an arc object
  88:Middlewares/lvgl/src/widgets/lv_arc.c ****  * @param start the start angle [0..360]
ARM GAS  /tmp/ccqOegKq.s 			page 3


  89:Middlewares/lvgl/src/widgets/lv_arc.c ****  */
  90:Middlewares/lvgl/src/widgets/lv_arc.c **** void lv_arc_set_start_angle(lv_obj_t * obj, uint16_t start)
  91:Middlewares/lvgl/src/widgets/lv_arc.c **** {
  92:Middlewares/lvgl/src/widgets/lv_arc.c ****     LV_ASSERT_OBJ(obj, MY_CLASS);
  93:Middlewares/lvgl/src/widgets/lv_arc.c ****     lv_arc_t * arc = (lv_arc_t *)obj;
  94:Middlewares/lvgl/src/widgets/lv_arc.c **** 
  95:Middlewares/lvgl/src/widgets/lv_arc.c ****     if(start > 360) start -= 360;
  96:Middlewares/lvgl/src/widgets/lv_arc.c **** 
  97:Middlewares/lvgl/src/widgets/lv_arc.c ****     /*Too large move, the whole arc need to be invalidated anyway*/
  98:Middlewares/lvgl/src/widgets/lv_arc.c ****     if(LV_ABS(start -arc->indic_angle_start) >= 180) {
  99:Middlewares/lvgl/src/widgets/lv_arc.c ****         lv_obj_invalidate(obj);
 100:Middlewares/lvgl/src/widgets/lv_arc.c ****     }
 101:Middlewares/lvgl/src/widgets/lv_arc.c ****     /*Only a smaller incremental move*/
 102:Middlewares/lvgl/src/widgets/lv_arc.c ****     else if(arc->indic_angle_start >arc->indic_angle_end && start >arc->indic_angle_end) {
 103:Middlewares/lvgl/src/widgets/lv_arc.c ****         inv_arc_area(obj, LV_MIN(arc->indic_angle_start, start), LV_MAX(arc->indic_angle_start, sta
 104:Middlewares/lvgl/src/widgets/lv_arc.c ****                      LV_PART_INDICATOR);
 105:Middlewares/lvgl/src/widgets/lv_arc.c ****     }
 106:Middlewares/lvgl/src/widgets/lv_arc.c ****     /*Only a smaller incremental move*/
 107:Middlewares/lvgl/src/widgets/lv_arc.c ****     else  if(arc->indic_angle_start <arc->indic_angle_end && start <arc->indic_angle_end) {
 108:Middlewares/lvgl/src/widgets/lv_arc.c ****         inv_arc_area(obj, LV_MIN(arc->indic_angle_start, start), LV_MAX(arc->indic_angle_start, sta
 109:Middlewares/lvgl/src/widgets/lv_arc.c ****                      LV_PART_INDICATOR);
 110:Middlewares/lvgl/src/widgets/lv_arc.c ****     }
 111:Middlewares/lvgl/src/widgets/lv_arc.c ****     /*Crossing the start angle makes the whole arc change*/
 112:Middlewares/lvgl/src/widgets/lv_arc.c ****     else {
 113:Middlewares/lvgl/src/widgets/lv_arc.c ****         lv_obj_invalidate(obj);
 114:Middlewares/lvgl/src/widgets/lv_arc.c ****     }
 115:Middlewares/lvgl/src/widgets/lv_arc.c **** 
 116:Middlewares/lvgl/src/widgets/lv_arc.c ****    arc->indic_angle_start = start;
 117:Middlewares/lvgl/src/widgets/lv_arc.c **** }
 118:Middlewares/lvgl/src/widgets/lv_arc.c **** 
 119:Middlewares/lvgl/src/widgets/lv_arc.c **** /**
 120:Middlewares/lvgl/src/widgets/lv_arc.c ****  * Set the start angle of an arc. 0 deg: right, 90 bottom, etc.
 121:Middlewares/lvgl/src/widgets/lv_arc.c ****  * @param arc pointer to an arc object
 122:Middlewares/lvgl/src/widgets/lv_arc.c ****  * @param start the start angle [0..360]
 123:Middlewares/lvgl/src/widgets/lv_arc.c ****  */
 124:Middlewares/lvgl/src/widgets/lv_arc.c **** void lv_arc_set_end_angle(lv_obj_t * obj, uint16_t end)
 125:Middlewares/lvgl/src/widgets/lv_arc.c **** {
 126:Middlewares/lvgl/src/widgets/lv_arc.c ****     LV_ASSERT_OBJ(obj, MY_CLASS);
 127:Middlewares/lvgl/src/widgets/lv_arc.c ****     lv_arc_t * arc = (lv_arc_t *)obj;
 128:Middlewares/lvgl/src/widgets/lv_arc.c **** 
 129:Middlewares/lvgl/src/widgets/lv_arc.c ****     if(end > (arc->indic_angle_start + 360)) end =arc->indic_angle_start + 360;
 130:Middlewares/lvgl/src/widgets/lv_arc.c **** 
 131:Middlewares/lvgl/src/widgets/lv_arc.c ****     /*Too large move, the whole arc need to be invalidated anyway*/
 132:Middlewares/lvgl/src/widgets/lv_arc.c ****     if(LV_ABS(end -arc->indic_angle_end) >= 180) {
 133:Middlewares/lvgl/src/widgets/lv_arc.c ****         lv_obj_invalidate(obj);
 134:Middlewares/lvgl/src/widgets/lv_arc.c ****     }
 135:Middlewares/lvgl/src/widgets/lv_arc.c ****     /*Only a smaller incremental move*/
 136:Middlewares/lvgl/src/widgets/lv_arc.c ****     else if(arc->indic_angle_end >arc->indic_angle_start && end >arc->indic_angle_start) {
 137:Middlewares/lvgl/src/widgets/lv_arc.c ****         inv_arc_area(obj, LV_MIN(arc->indic_angle_end, end), LV_MAX(arc->indic_angle_end, end), LV_
 138:Middlewares/lvgl/src/widgets/lv_arc.c ****     }
 139:Middlewares/lvgl/src/widgets/lv_arc.c ****     /*Only a smaller incremental move*/
 140:Middlewares/lvgl/src/widgets/lv_arc.c ****     else  if(arc->indic_angle_end <arc->indic_angle_start && end <arc->indic_angle_start) {
 141:Middlewares/lvgl/src/widgets/lv_arc.c ****         inv_arc_area(obj, LV_MIN(arc->indic_angle_end, end), LV_MAX(arc->indic_angle_end, end), LV_
 142:Middlewares/lvgl/src/widgets/lv_arc.c ****     }
 143:Middlewares/lvgl/src/widgets/lv_arc.c ****     /*Crossing the end angle makes the whole arc change*/
 144:Middlewares/lvgl/src/widgets/lv_arc.c ****     else {
 145:Middlewares/lvgl/src/widgets/lv_arc.c ****         lv_obj_invalidate(obj);
ARM GAS  /tmp/ccqOegKq.s 			page 4


 146:Middlewares/lvgl/src/widgets/lv_arc.c ****     }
 147:Middlewares/lvgl/src/widgets/lv_arc.c **** 
 148:Middlewares/lvgl/src/widgets/lv_arc.c ****    arc->indic_angle_end = end;
 149:Middlewares/lvgl/src/widgets/lv_arc.c **** }
 150:Middlewares/lvgl/src/widgets/lv_arc.c **** 
 151:Middlewares/lvgl/src/widgets/lv_arc.c **** /**
 152:Middlewares/lvgl/src/widgets/lv_arc.c ****  * Set the start and end angles
 153:Middlewares/lvgl/src/widgets/lv_arc.c ****  * @param arc pointer to an arc object
 154:Middlewares/lvgl/src/widgets/lv_arc.c ****  * @param start the start angle
 155:Middlewares/lvgl/src/widgets/lv_arc.c ****  * @param end the end angle
 156:Middlewares/lvgl/src/widgets/lv_arc.c ****  */
 157:Middlewares/lvgl/src/widgets/lv_arc.c **** void lv_arc_set_angles(lv_obj_t * obj, uint16_t start, uint16_t end)
 158:Middlewares/lvgl/src/widgets/lv_arc.c **** {
 159:Middlewares/lvgl/src/widgets/lv_arc.c ****     LV_ASSERT_OBJ(obj, MY_CLASS);
 160:Middlewares/lvgl/src/widgets/lv_arc.c ****     lv_arc_t * arc = (lv_arc_t *)obj;
 161:Middlewares/lvgl/src/widgets/lv_arc.c **** 
 162:Middlewares/lvgl/src/widgets/lv_arc.c ****     if(start > 360) start -= 360;
 163:Middlewares/lvgl/src/widgets/lv_arc.c ****     if(end > (start + 360)) end = start + 360;
 164:Middlewares/lvgl/src/widgets/lv_arc.c **** 
 165:Middlewares/lvgl/src/widgets/lv_arc.c ****     inv_arc_area(obj,arc->indic_angle_start,arc->indic_angle_end, LV_PART_INDICATOR);
 166:Middlewares/lvgl/src/widgets/lv_arc.c **** 
 167:Middlewares/lvgl/src/widgets/lv_arc.c ****     arc->indic_angle_start = start;
 168:Middlewares/lvgl/src/widgets/lv_arc.c ****     arc->indic_angle_end = end;
 169:Middlewares/lvgl/src/widgets/lv_arc.c **** 
 170:Middlewares/lvgl/src/widgets/lv_arc.c ****     inv_arc_area(obj,arc->indic_angle_start,arc->indic_angle_end, LV_PART_INDICATOR);
 171:Middlewares/lvgl/src/widgets/lv_arc.c **** }
 172:Middlewares/lvgl/src/widgets/lv_arc.c **** 
 173:Middlewares/lvgl/src/widgets/lv_arc.c **** /**
 174:Middlewares/lvgl/src/widgets/lv_arc.c ****  * Set the start angle of an arc background. 0 deg: right, 90 bottom, etc.
 175:Middlewares/lvgl/src/widgets/lv_arc.c ****  * @param arc pointer to an arc object
 176:Middlewares/lvgl/src/widgets/lv_arc.c ****  * @param start the start angle
 177:Middlewares/lvgl/src/widgets/lv_arc.c ****  */
 178:Middlewares/lvgl/src/widgets/lv_arc.c **** void lv_arc_set_bg_start_angle(lv_obj_t * obj, uint16_t start)
 179:Middlewares/lvgl/src/widgets/lv_arc.c **** {
 180:Middlewares/lvgl/src/widgets/lv_arc.c ****     LV_ASSERT_OBJ(obj, MY_CLASS);
 181:Middlewares/lvgl/src/widgets/lv_arc.c ****     lv_arc_t * arc = (lv_arc_t *)obj;
 182:Middlewares/lvgl/src/widgets/lv_arc.c **** 
 183:Middlewares/lvgl/src/widgets/lv_arc.c ****     if(start > 360) start -= 360;
 184:Middlewares/lvgl/src/widgets/lv_arc.c **** 
 185:Middlewares/lvgl/src/widgets/lv_arc.c ****     /*Too large move, the whole arc need to be invalidated anyway*/
 186:Middlewares/lvgl/src/widgets/lv_arc.c ****     if(LV_ABS(start -arc->bg_angle_start) >= 180) {
 187:Middlewares/lvgl/src/widgets/lv_arc.c ****         lv_obj_invalidate(obj);
 188:Middlewares/lvgl/src/widgets/lv_arc.c ****     }
 189:Middlewares/lvgl/src/widgets/lv_arc.c ****     /*Only a smaller incremental move*/
 190:Middlewares/lvgl/src/widgets/lv_arc.c ****     else if(arc->bg_angle_start >arc->bg_angle_end && start >arc->bg_angle_end) {
 191:Middlewares/lvgl/src/widgets/lv_arc.c ****         inv_arc_area(obj, LV_MIN(arc->bg_angle_start, start), LV_MAX(arc->bg_angle_start, start), L
 192:Middlewares/lvgl/src/widgets/lv_arc.c ****     }
 193:Middlewares/lvgl/src/widgets/lv_arc.c ****     /*Only a smaller incremental move*/
 194:Middlewares/lvgl/src/widgets/lv_arc.c ****     else  if(arc->bg_angle_start <arc->bg_angle_end && start <arc->bg_angle_end) {
 195:Middlewares/lvgl/src/widgets/lv_arc.c ****         inv_arc_area(obj, LV_MIN(arc->bg_angle_start, start), LV_MAX(arc->bg_angle_start, start), L
 196:Middlewares/lvgl/src/widgets/lv_arc.c ****     }
 197:Middlewares/lvgl/src/widgets/lv_arc.c ****     /*Crossing the start angle makes the whole arc change*/
 198:Middlewares/lvgl/src/widgets/lv_arc.c ****     else {
 199:Middlewares/lvgl/src/widgets/lv_arc.c ****         lv_obj_invalidate(obj);
 200:Middlewares/lvgl/src/widgets/lv_arc.c ****     }
 201:Middlewares/lvgl/src/widgets/lv_arc.c **** 
 202:Middlewares/lvgl/src/widgets/lv_arc.c ****    arc->bg_angle_start = start;
ARM GAS  /tmp/ccqOegKq.s 			page 5


 203:Middlewares/lvgl/src/widgets/lv_arc.c **** 
 204:Middlewares/lvgl/src/widgets/lv_arc.c ****     value_update(obj);
 205:Middlewares/lvgl/src/widgets/lv_arc.c **** }
 206:Middlewares/lvgl/src/widgets/lv_arc.c **** 
 207:Middlewares/lvgl/src/widgets/lv_arc.c **** /**
 208:Middlewares/lvgl/src/widgets/lv_arc.c ****  * Set the start angle of an arc background. 0 deg: right, 90 bottom etc.
 209:Middlewares/lvgl/src/widgets/lv_arc.c ****  * @param arc pointer to an arc object
 210:Middlewares/lvgl/src/widgets/lv_arc.c ****  * @param end the end angle
 211:Middlewares/lvgl/src/widgets/lv_arc.c ****  */
 212:Middlewares/lvgl/src/widgets/lv_arc.c **** void lv_arc_set_bg_end_angle(lv_obj_t * obj, uint16_t end)
 213:Middlewares/lvgl/src/widgets/lv_arc.c **** {
 214:Middlewares/lvgl/src/widgets/lv_arc.c ****     LV_ASSERT_OBJ(obj, MY_CLASS);
 215:Middlewares/lvgl/src/widgets/lv_arc.c ****     lv_arc_t * arc = (lv_arc_t *)obj;
 216:Middlewares/lvgl/src/widgets/lv_arc.c **** 
 217:Middlewares/lvgl/src/widgets/lv_arc.c **** 
 218:Middlewares/lvgl/src/widgets/lv_arc.c ****     if(end > (arc->bg_angle_start + 360)) end =arc->bg_angle_start + 360;
 219:Middlewares/lvgl/src/widgets/lv_arc.c **** 
 220:Middlewares/lvgl/src/widgets/lv_arc.c ****     /*Too large move, the whole arc need to be invalidated anyway*/
 221:Middlewares/lvgl/src/widgets/lv_arc.c ****     if(LV_ABS(end -arc->bg_angle_end) >= 180) {
 222:Middlewares/lvgl/src/widgets/lv_arc.c ****         lv_obj_invalidate(obj);
 223:Middlewares/lvgl/src/widgets/lv_arc.c ****     }
 224:Middlewares/lvgl/src/widgets/lv_arc.c ****     /*Only a smaller incremental move*/
 225:Middlewares/lvgl/src/widgets/lv_arc.c ****     else if(arc->bg_angle_end >arc->bg_angle_start && end >arc->bg_angle_start) {
 226:Middlewares/lvgl/src/widgets/lv_arc.c ****         inv_arc_area(obj, LV_MIN(arc->bg_angle_end, end), LV_MAX(arc->bg_angle_end, end), LV_PART_M
 227:Middlewares/lvgl/src/widgets/lv_arc.c ****     }
 228:Middlewares/lvgl/src/widgets/lv_arc.c ****     /*Only a smaller incremental move*/
 229:Middlewares/lvgl/src/widgets/lv_arc.c ****     else  if(arc->bg_angle_end <arc->bg_angle_start && end <arc->bg_angle_start) {
 230:Middlewares/lvgl/src/widgets/lv_arc.c ****         inv_arc_area(obj, LV_MIN(arc->bg_angle_end, end), LV_MAX(arc->bg_angle_end, end), LV_PART_M
 231:Middlewares/lvgl/src/widgets/lv_arc.c ****     }
 232:Middlewares/lvgl/src/widgets/lv_arc.c ****     /*Crossing the end angle makes the whole arc change*/
 233:Middlewares/lvgl/src/widgets/lv_arc.c ****     else {
 234:Middlewares/lvgl/src/widgets/lv_arc.c ****         lv_obj_invalidate(obj);
 235:Middlewares/lvgl/src/widgets/lv_arc.c ****     }
 236:Middlewares/lvgl/src/widgets/lv_arc.c **** 
 237:Middlewares/lvgl/src/widgets/lv_arc.c ****     value_update(obj);
 238:Middlewares/lvgl/src/widgets/lv_arc.c **** 
 239:Middlewares/lvgl/src/widgets/lv_arc.c ****    arc->bg_angle_end = end;
 240:Middlewares/lvgl/src/widgets/lv_arc.c **** }
 241:Middlewares/lvgl/src/widgets/lv_arc.c **** 
 242:Middlewares/lvgl/src/widgets/lv_arc.c **** /**
 243:Middlewares/lvgl/src/widgets/lv_arc.c ****  * Set the start and end angles of the arc background
 244:Middlewares/lvgl/src/widgets/lv_arc.c ****  * @param arc pointer to an arc object
 245:Middlewares/lvgl/src/widgets/lv_arc.c ****  * @param start the start angle
 246:Middlewares/lvgl/src/widgets/lv_arc.c ****  * @param end the end angle
 247:Middlewares/lvgl/src/widgets/lv_arc.c ****  */
 248:Middlewares/lvgl/src/widgets/lv_arc.c **** void lv_arc_set_bg_angles(lv_obj_t * obj, uint16_t start, uint16_t end)
 249:Middlewares/lvgl/src/widgets/lv_arc.c **** {
 250:Middlewares/lvgl/src/widgets/lv_arc.c **** 
 251:Middlewares/lvgl/src/widgets/lv_arc.c ****     LV_ASSERT_OBJ(obj, MY_CLASS);
 252:Middlewares/lvgl/src/widgets/lv_arc.c ****     lv_arc_t * arc = (lv_arc_t *)obj;
 253:Middlewares/lvgl/src/widgets/lv_arc.c **** 
 254:Middlewares/lvgl/src/widgets/lv_arc.c ****     if(start > 360) start -= 360;
 255:Middlewares/lvgl/src/widgets/lv_arc.c ****     if(end > (start + 360)) end = start + 360;
 256:Middlewares/lvgl/src/widgets/lv_arc.c **** 
 257:Middlewares/lvgl/src/widgets/lv_arc.c ****     inv_arc_area(obj,arc->bg_angle_start,arc->bg_angle_end, LV_PART_MAIN);
 258:Middlewares/lvgl/src/widgets/lv_arc.c **** 
 259:Middlewares/lvgl/src/widgets/lv_arc.c ****    arc->bg_angle_start = start;
ARM GAS  /tmp/ccqOegKq.s 			page 6


 260:Middlewares/lvgl/src/widgets/lv_arc.c ****    arc->bg_angle_end = end;
 261:Middlewares/lvgl/src/widgets/lv_arc.c **** 
 262:Middlewares/lvgl/src/widgets/lv_arc.c ****     inv_arc_area(obj,arc->bg_angle_start,arc->bg_angle_end, LV_PART_MAIN);
 263:Middlewares/lvgl/src/widgets/lv_arc.c **** 
 264:Middlewares/lvgl/src/widgets/lv_arc.c ****     value_update(obj);
 265:Middlewares/lvgl/src/widgets/lv_arc.c **** }
 266:Middlewares/lvgl/src/widgets/lv_arc.c **** 
 267:Middlewares/lvgl/src/widgets/lv_arc.c **** /**
 268:Middlewares/lvgl/src/widgets/lv_arc.c ****  * Set the rotation for the whole arc
 269:Middlewares/lvgl/src/widgets/lv_arc.c ****  * @param arc pointer to an arc object
 270:Middlewares/lvgl/src/widgets/lv_arc.c ****  * @param rotation rotation angle
 271:Middlewares/lvgl/src/widgets/lv_arc.c ****  */
 272:Middlewares/lvgl/src/widgets/lv_arc.c **** void lv_arc_set_rotation(lv_obj_t * obj, uint16_t rotation)
 273:Middlewares/lvgl/src/widgets/lv_arc.c **** {
 274:Middlewares/lvgl/src/widgets/lv_arc.c **** 
 275:Middlewares/lvgl/src/widgets/lv_arc.c ****     LV_ASSERT_OBJ(obj, MY_CLASS);
 276:Middlewares/lvgl/src/widgets/lv_arc.c ****     lv_arc_t * arc = (lv_arc_t *)obj;
 277:Middlewares/lvgl/src/widgets/lv_arc.c **** 
 278:Middlewares/lvgl/src/widgets/lv_arc.c ****    arc->rotation = rotation;
 279:Middlewares/lvgl/src/widgets/lv_arc.c **** 
 280:Middlewares/lvgl/src/widgets/lv_arc.c ****     lv_obj_invalidate(obj);
 281:Middlewares/lvgl/src/widgets/lv_arc.c **** }
 282:Middlewares/lvgl/src/widgets/lv_arc.c **** 
 283:Middlewares/lvgl/src/widgets/lv_arc.c **** /**
 284:Middlewares/lvgl/src/widgets/lv_arc.c ****  * Set the type of arc.
 285:Middlewares/lvgl/src/widgets/lv_arc.c ****  * @param arc pointer to arc object
 286:Middlewares/lvgl/src/widgets/lv_arc.c ****  * @param type arc type
 287:Middlewares/lvgl/src/widgets/lv_arc.c ****  */
 288:Middlewares/lvgl/src/widgets/lv_arc.c **** void lv_arc_set_mode(lv_obj_t * obj, lv_arc_mode_t type)
 289:Middlewares/lvgl/src/widgets/lv_arc.c **** {
 290:Middlewares/lvgl/src/widgets/lv_arc.c ****     LV_ASSERT_OBJ(obj, MY_CLASS);
 291:Middlewares/lvgl/src/widgets/lv_arc.c ****     lv_arc_t * arc = (lv_arc_t *)obj;
 292:Middlewares/lvgl/src/widgets/lv_arc.c **** 
 293:Middlewares/lvgl/src/widgets/lv_arc.c ****     int16_t val =arc->value;
 294:Middlewares/lvgl/src/widgets/lv_arc.c **** 
 295:Middlewares/lvgl/src/widgets/lv_arc.c ****    arc->type = type;
 296:Middlewares/lvgl/src/widgets/lv_arc.c ****    arc->value = -1; /** Force set_value handling*/
 297:Middlewares/lvgl/src/widgets/lv_arc.c **** 
 298:Middlewares/lvgl/src/widgets/lv_arc.c ****     int16_t bg_midpoint, bg_end =arc->bg_angle_end;
 299:Middlewares/lvgl/src/widgets/lv_arc.c ****     if(arc->bg_angle_end <arc->bg_angle_start) bg_end =arc->bg_angle_end + 360;
 300:Middlewares/lvgl/src/widgets/lv_arc.c **** 
 301:Middlewares/lvgl/src/widgets/lv_arc.c ****     switch(arc->type) {
 302:Middlewares/lvgl/src/widgets/lv_arc.c ****         case LV_ARC_MODE_SYMMETRICAL:
 303:Middlewares/lvgl/src/widgets/lv_arc.c ****             bg_midpoint = (arc->bg_angle_start + bg_end) / 2;
 304:Middlewares/lvgl/src/widgets/lv_arc.c ****             lv_arc_set_start_angle(obj, bg_midpoint);
 305:Middlewares/lvgl/src/widgets/lv_arc.c ****             lv_arc_set_end_angle(obj, bg_midpoint);
 306:Middlewares/lvgl/src/widgets/lv_arc.c ****             break;
 307:Middlewares/lvgl/src/widgets/lv_arc.c ****         case LV_ARC_MODE_REVERSE:
 308:Middlewares/lvgl/src/widgets/lv_arc.c ****             lv_arc_set_end_angle(obj,arc->bg_angle_end);
 309:Middlewares/lvgl/src/widgets/lv_arc.c ****             break;
 310:Middlewares/lvgl/src/widgets/lv_arc.c ****         default: /** LV_ARC_TYPE_NORMAL*/
 311:Middlewares/lvgl/src/widgets/lv_arc.c ****             lv_arc_set_start_angle(obj,arc->bg_angle_start);
 312:Middlewares/lvgl/src/widgets/lv_arc.c ****     }
 313:Middlewares/lvgl/src/widgets/lv_arc.c **** 
 314:Middlewares/lvgl/src/widgets/lv_arc.c ****     lv_arc_set_value(obj, val);
 315:Middlewares/lvgl/src/widgets/lv_arc.c **** }
 316:Middlewares/lvgl/src/widgets/lv_arc.c **** 
ARM GAS  /tmp/ccqOegKq.s 			page 7


 317:Middlewares/lvgl/src/widgets/lv_arc.c **** /**
 318:Middlewares/lvgl/src/widgets/lv_arc.c ****  * Set a new value on the arc
 319:Middlewares/lvgl/src/widgets/lv_arc.c ****  * @param arc pointer to a arc object
 320:Middlewares/lvgl/src/widgets/lv_arc.c ****  * @param value new value
 321:Middlewares/lvgl/src/widgets/lv_arc.c ****  */
 322:Middlewares/lvgl/src/widgets/lv_arc.c **** void lv_arc_set_value(lv_obj_t * obj, int16_t value)
 323:Middlewares/lvgl/src/widgets/lv_arc.c **** {
 324:Middlewares/lvgl/src/widgets/lv_arc.c ****     LV_ASSERT_OBJ(obj, MY_CLASS);
 325:Middlewares/lvgl/src/widgets/lv_arc.c ****     lv_arc_t * arc = (lv_arc_t *)obj;
 326:Middlewares/lvgl/src/widgets/lv_arc.c **** 
 327:Middlewares/lvgl/src/widgets/lv_arc.c ****     if(arc->value == value) return;
 328:Middlewares/lvgl/src/widgets/lv_arc.c **** 
 329:Middlewares/lvgl/src/widgets/lv_arc.c ****     int16_t new_value;
 330:Middlewares/lvgl/src/widgets/lv_arc.c ****     new_value = value >arc->max_value ?arc->max_value : value;
 331:Middlewares/lvgl/src/widgets/lv_arc.c ****     new_value = new_value <arc->min_value ?arc->min_value : new_value;
 332:Middlewares/lvgl/src/widgets/lv_arc.c **** 
 333:Middlewares/lvgl/src/widgets/lv_arc.c ****     if(arc->value == new_value) return;
 334:Middlewares/lvgl/src/widgets/lv_arc.c ****    arc->value = new_value;
 335:Middlewares/lvgl/src/widgets/lv_arc.c **** 
 336:Middlewares/lvgl/src/widgets/lv_arc.c ****     value_update(obj);
 337:Middlewares/lvgl/src/widgets/lv_arc.c **** }
 338:Middlewares/lvgl/src/widgets/lv_arc.c **** 
 339:Middlewares/lvgl/src/widgets/lv_arc.c **** /**
 340:Middlewares/lvgl/src/widgets/lv_arc.c ****  * Set minimum and the maximum values of a arc
 341:Middlewares/lvgl/src/widgets/lv_arc.c ****  * @param arc pointer to the arc object
 342:Middlewares/lvgl/src/widgets/lv_arc.c ****  * @param min minimum value
 343:Middlewares/lvgl/src/widgets/lv_arc.c ****  * @param max maximum value
 344:Middlewares/lvgl/src/widgets/lv_arc.c ****  */
 345:Middlewares/lvgl/src/widgets/lv_arc.c **** void lv_arc_set_range(lv_obj_t * obj, int16_t min, int16_t max)
 346:Middlewares/lvgl/src/widgets/lv_arc.c **** {
 347:Middlewares/lvgl/src/widgets/lv_arc.c ****     LV_ASSERT_OBJ(obj, MY_CLASS);
 348:Middlewares/lvgl/src/widgets/lv_arc.c ****     lv_arc_t * arc = (lv_arc_t *)obj;
 349:Middlewares/lvgl/src/widgets/lv_arc.c **** 
 350:Middlewares/lvgl/src/widgets/lv_arc.c ****     if(arc->min_value == min &&arc->max_value == max) return;
 351:Middlewares/lvgl/src/widgets/lv_arc.c **** 
 352:Middlewares/lvgl/src/widgets/lv_arc.c ****    arc->min_value = min;
 353:Middlewares/lvgl/src/widgets/lv_arc.c ****    arc->max_value = max;
 354:Middlewares/lvgl/src/widgets/lv_arc.c **** 
 355:Middlewares/lvgl/src/widgets/lv_arc.c ****     if(arc->value < min) {
 356:Middlewares/lvgl/src/widgets/lv_arc.c ****        arc->value = min;
 357:Middlewares/lvgl/src/widgets/lv_arc.c ****     }
 358:Middlewares/lvgl/src/widgets/lv_arc.c ****     if(arc->value > max) {
 359:Middlewares/lvgl/src/widgets/lv_arc.c ****        arc->value = max;
 360:Middlewares/lvgl/src/widgets/lv_arc.c ****     }
 361:Middlewares/lvgl/src/widgets/lv_arc.c **** 
 362:Middlewares/lvgl/src/widgets/lv_arc.c ****     value_update(obj); /*value has changed relative to the new range*/
 363:Middlewares/lvgl/src/widgets/lv_arc.c **** }
 364:Middlewares/lvgl/src/widgets/lv_arc.c **** 
 365:Middlewares/lvgl/src/widgets/lv_arc.c **** /**
 366:Middlewares/lvgl/src/widgets/lv_arc.c ****  * Set the threshold of arc knob increments
 367:Middlewares/lvgl/src/widgets/lv_arc.c ****  * position.
 368:Middlewares/lvgl/src/widgets/lv_arc.c ****  * @param arc pointer to a arc object
 369:Middlewares/lvgl/src/widgets/lv_arc.c ****  * @param threshold increment threshold
 370:Middlewares/lvgl/src/widgets/lv_arc.c ****  */
 371:Middlewares/lvgl/src/widgets/lv_arc.c **** void lv_arc_set_change_rate(lv_obj_t * obj, uint16_t rate)
 372:Middlewares/lvgl/src/widgets/lv_arc.c **** {
 373:Middlewares/lvgl/src/widgets/lv_arc.c ****     LV_ASSERT_OBJ(obj, MY_CLASS);
ARM GAS  /tmp/ccqOegKq.s 			page 8


 374:Middlewares/lvgl/src/widgets/lv_arc.c ****     lv_arc_t * arc = (lv_arc_t *)obj;
 375:Middlewares/lvgl/src/widgets/lv_arc.c **** 
 376:Middlewares/lvgl/src/widgets/lv_arc.c ****    arc->chg_rate = rate;
 377:Middlewares/lvgl/src/widgets/lv_arc.c **** }
 378:Middlewares/lvgl/src/widgets/lv_arc.c **** 
 379:Middlewares/lvgl/src/widgets/lv_arc.c **** /*=====================
 380:Middlewares/lvgl/src/widgets/lv_arc.c ****  * Getter functions
 381:Middlewares/lvgl/src/widgets/lv_arc.c ****  *====================*/
 382:Middlewares/lvgl/src/widgets/lv_arc.c **** 
 383:Middlewares/lvgl/src/widgets/lv_arc.c **** /**
 384:Middlewares/lvgl/src/widgets/lv_arc.c ****  * Get the start angle of an arc.
 385:Middlewares/lvgl/src/widgets/lv_arc.c ****  * @param arc pointer to an arc object
 386:Middlewares/lvgl/src/widgets/lv_arc.c ****  * @return the start angle [0..360]
 387:Middlewares/lvgl/src/widgets/lv_arc.c ****  */
 388:Middlewares/lvgl/src/widgets/lv_arc.c **** uint16_t lv_arc_get_angle_start(lv_obj_t * obj)
 389:Middlewares/lvgl/src/widgets/lv_arc.c **** {
 390:Middlewares/lvgl/src/widgets/lv_arc.c ****     LV_ASSERT_OBJ(obj, MY_CLASS);
 391:Middlewares/lvgl/src/widgets/lv_arc.c ****     return ((lv_arc_t*) obj)->indic_angle_start;
 392:Middlewares/lvgl/src/widgets/lv_arc.c **** }
 393:Middlewares/lvgl/src/widgets/lv_arc.c **** 
 394:Middlewares/lvgl/src/widgets/lv_arc.c **** /**
 395:Middlewares/lvgl/src/widgets/lv_arc.c ****  * Get the end angle of an arc.
 396:Middlewares/lvgl/src/widgets/lv_arc.c ****  * @param arc pointer to an arc object
 397:Middlewares/lvgl/src/widgets/lv_arc.c ****  * @return the end angle [0..360]
 398:Middlewares/lvgl/src/widgets/lv_arc.c ****  */
 399:Middlewares/lvgl/src/widgets/lv_arc.c ****  uint16_t lv_arc_get_angle_end(lv_obj_t * obj)
 400:Middlewares/lvgl/src/widgets/lv_arc.c **** {
 401:Middlewares/lvgl/src/widgets/lv_arc.c ****     LV_ASSERT_OBJ(obj, MY_CLASS);
 402:Middlewares/lvgl/src/widgets/lv_arc.c ****     return ((lv_arc_t*) obj)->indic_angle_end;
 403:Middlewares/lvgl/src/widgets/lv_arc.c **** }
 404:Middlewares/lvgl/src/widgets/lv_arc.c **** 
 405:Middlewares/lvgl/src/widgets/lv_arc.c **** /**
 406:Middlewares/lvgl/src/widgets/lv_arc.c ****  * Get the start angle of an arc background.
 407:Middlewares/lvgl/src/widgets/lv_arc.c ****  * @param arc pointer to an arc object
 408:Middlewares/lvgl/src/widgets/lv_arc.c ****  * @return the start angle [0..360]
 409:Middlewares/lvgl/src/widgets/lv_arc.c ****  */
 410:Middlewares/lvgl/src/widgets/lv_arc.c **** uint16_t lv_arc_get_bg_angle_start(lv_obj_t * obj)
 411:Middlewares/lvgl/src/widgets/lv_arc.c **** {
 412:Middlewares/lvgl/src/widgets/lv_arc.c ****     LV_ASSERT_OBJ(obj, MY_CLASS);
 413:Middlewares/lvgl/src/widgets/lv_arc.c ****     return ((lv_arc_t*) obj)->bg_angle_start;
 414:Middlewares/lvgl/src/widgets/lv_arc.c **** }
 415:Middlewares/lvgl/src/widgets/lv_arc.c **** 
 416:Middlewares/lvgl/src/widgets/lv_arc.c **** /**
 417:Middlewares/lvgl/src/widgets/lv_arc.c ****  * Get the end angle of an arc background.
 418:Middlewares/lvgl/src/widgets/lv_arc.c ****  * @param arc pointer to an arc object
 419:Middlewares/lvgl/src/widgets/lv_arc.c ****  * @return the end angle [0..360]
 420:Middlewares/lvgl/src/widgets/lv_arc.c ****  */
 421:Middlewares/lvgl/src/widgets/lv_arc.c **** uint16_t lv_arc_get_bg_angle_end(lv_obj_t * obj)
 422:Middlewares/lvgl/src/widgets/lv_arc.c **** {
 423:Middlewares/lvgl/src/widgets/lv_arc.c ****     LV_ASSERT_OBJ(obj, MY_CLASS);
 424:Middlewares/lvgl/src/widgets/lv_arc.c ****     return ((lv_arc_t*) obj)->bg_angle_end;
 425:Middlewares/lvgl/src/widgets/lv_arc.c **** }
 426:Middlewares/lvgl/src/widgets/lv_arc.c **** 
 427:Middlewares/lvgl/src/widgets/lv_arc.c **** 
 428:Middlewares/lvgl/src/widgets/lv_arc.c **** /**
 429:Middlewares/lvgl/src/widgets/lv_arc.c ****  * Get the value of a arc
 430:Middlewares/lvgl/src/widgets/lv_arc.c ****  * @param arc pointer to a arc object
ARM GAS  /tmp/ccqOegKq.s 			page 9


 431:Middlewares/lvgl/src/widgets/lv_arc.c ****  * @return the value of the arc
 432:Middlewares/lvgl/src/widgets/lv_arc.c ****  */
 433:Middlewares/lvgl/src/widgets/lv_arc.c **** int16_t lv_arc_get_value(const lv_obj_t * obj)
 434:Middlewares/lvgl/src/widgets/lv_arc.c **** {
 435:Middlewares/lvgl/src/widgets/lv_arc.c ****     LV_ASSERT_OBJ(obj, MY_CLASS);
 436:Middlewares/lvgl/src/widgets/lv_arc.c ****     return ((lv_arc_t*) obj)->value;
 437:Middlewares/lvgl/src/widgets/lv_arc.c **** }
 438:Middlewares/lvgl/src/widgets/lv_arc.c **** 
 439:Middlewares/lvgl/src/widgets/lv_arc.c **** /**
 440:Middlewares/lvgl/src/widgets/lv_arc.c ****  * Get the minimum value of a arc
 441:Middlewares/lvgl/src/widgets/lv_arc.c ****  * @param arc pointer to a arc object
 442:Middlewares/lvgl/src/widgets/lv_arc.c ****  * @return the minimum value of the arc
 443:Middlewares/lvgl/src/widgets/lv_arc.c ****  */
 444:Middlewares/lvgl/src/widgets/lv_arc.c **** int16_t lv_arc_get_min_value(const lv_obj_t * obj)
 445:Middlewares/lvgl/src/widgets/lv_arc.c **** {
 446:Middlewares/lvgl/src/widgets/lv_arc.c ****     LV_ASSERT_OBJ(obj, MY_CLASS);
 447:Middlewares/lvgl/src/widgets/lv_arc.c ****     return ((lv_arc_t*) obj)->min_value;
 448:Middlewares/lvgl/src/widgets/lv_arc.c **** }
 449:Middlewares/lvgl/src/widgets/lv_arc.c **** 
 450:Middlewares/lvgl/src/widgets/lv_arc.c **** /**
 451:Middlewares/lvgl/src/widgets/lv_arc.c ****  * Get the maximum value of a arc
 452:Middlewares/lvgl/src/widgets/lv_arc.c ****  * @param arc pointer to a arc object
 453:Middlewares/lvgl/src/widgets/lv_arc.c ****  * @return the maximum value of the arc
 454:Middlewares/lvgl/src/widgets/lv_arc.c ****  */
 455:Middlewares/lvgl/src/widgets/lv_arc.c **** int16_t lv_arc_get_max_value(const lv_obj_t * obj)
 456:Middlewares/lvgl/src/widgets/lv_arc.c **** {
 457:Middlewares/lvgl/src/widgets/lv_arc.c ****     LV_ASSERT_OBJ(obj, MY_CLASS);
 458:Middlewares/lvgl/src/widgets/lv_arc.c ****     return ((lv_arc_t*) obj)->max_value;
 459:Middlewares/lvgl/src/widgets/lv_arc.c **** }
 460:Middlewares/lvgl/src/widgets/lv_arc.c **** 
 461:Middlewares/lvgl/src/widgets/lv_arc.c **** /**
 462:Middlewares/lvgl/src/widgets/lv_arc.c ****  * Get whether the arc is type or not.
 463:Middlewares/lvgl/src/widgets/lv_arc.c ****  * @param arc pointer to a arc object
 464:Middlewares/lvgl/src/widgets/lv_arc.c ****  * @return arc type
 465:Middlewares/lvgl/src/widgets/lv_arc.c ****  */
 466:Middlewares/lvgl/src/widgets/lv_arc.c **** lv_arc_mode_t lv_arc_get_mode(const lv_obj_t * obj)
 467:Middlewares/lvgl/src/widgets/lv_arc.c **** {
 468:Middlewares/lvgl/src/widgets/lv_arc.c ****     LV_ASSERT_OBJ(obj, MY_CLASS);
 469:Middlewares/lvgl/src/widgets/lv_arc.c ****     return ((lv_arc_t*) obj)->type;
 470:Middlewares/lvgl/src/widgets/lv_arc.c **** }
 471:Middlewares/lvgl/src/widgets/lv_arc.c **** 
 472:Middlewares/lvgl/src/widgets/lv_arc.c **** /*=====================
 473:Middlewares/lvgl/src/widgets/lv_arc.c ****  * Other functions
 474:Middlewares/lvgl/src/widgets/lv_arc.c ****  *====================*/
 475:Middlewares/lvgl/src/widgets/lv_arc.c **** 
 476:Middlewares/lvgl/src/widgets/lv_arc.c **** /*
 477:Middlewares/lvgl/src/widgets/lv_arc.c ****  * New object specific "other" functions come here
 478:Middlewares/lvgl/src/widgets/lv_arc.c ****  */
 479:Middlewares/lvgl/src/widgets/lv_arc.c **** 
 480:Middlewares/lvgl/src/widgets/lv_arc.c **** /**********************
 481:Middlewares/lvgl/src/widgets/lv_arc.c ****  *   STATIC FUNCTIONS
 482:Middlewares/lvgl/src/widgets/lv_arc.c ****  **********************/
 483:Middlewares/lvgl/src/widgets/lv_arc.c **** 
 484:Middlewares/lvgl/src/widgets/lv_arc.c **** static void lv_arc_constructor(const lv_obj_class_t * class_p, lv_obj_t * obj)
 485:Middlewares/lvgl/src/widgets/lv_arc.c **** {
 486:Middlewares/lvgl/src/widgets/lv_arc.c ****     LV_UNUSED(class_p);
 487:Middlewares/lvgl/src/widgets/lv_arc.c ****     LV_TRACE_OBJ_CREATE("begin");
ARM GAS  /tmp/ccqOegKq.s 			page 10


 488:Middlewares/lvgl/src/widgets/lv_arc.c **** 
 489:Middlewares/lvgl/src/widgets/lv_arc.c ****     lv_arc_t * arc = (lv_arc_t *)obj;
 490:Middlewares/lvgl/src/widgets/lv_arc.c **** 
 491:Middlewares/lvgl/src/widgets/lv_arc.c ****    /*Initialize the allocated 'ext'*/
 492:Middlewares/lvgl/src/widgets/lv_arc.c ****    arc->rotation = 0;
 493:Middlewares/lvgl/src/widgets/lv_arc.c ****    arc->bg_angle_start = 135;
 494:Middlewares/lvgl/src/widgets/lv_arc.c ****    arc->bg_angle_end   = 45;
 495:Middlewares/lvgl/src/widgets/lv_arc.c ****    arc->indic_angle_start = 135;
 496:Middlewares/lvgl/src/widgets/lv_arc.c ****    arc->indic_angle_end   = 270;
 497:Middlewares/lvgl/src/widgets/lv_arc.c ****    arc->type = LV_ARC_MODE_NORMAL;
 498:Middlewares/lvgl/src/widgets/lv_arc.c ****    arc->value = VALUE_UNSET;
 499:Middlewares/lvgl/src/widgets/lv_arc.c ****    arc->min_close = 1;
 500:Middlewares/lvgl/src/widgets/lv_arc.c ****    arc->min_value = 0;
 501:Middlewares/lvgl/src/widgets/lv_arc.c ****    arc->max_value = 100;
 502:Middlewares/lvgl/src/widgets/lv_arc.c ****    arc->dragging = false;
 503:Middlewares/lvgl/src/widgets/lv_arc.c ****    arc->chg_rate = 720;
 504:Middlewares/lvgl/src/widgets/lv_arc.c ****    arc->last_tick = lv_tick_get();
 505:Middlewares/lvgl/src/widgets/lv_arc.c ****    arc->last_angle =arc->indic_angle_end;
 506:Middlewares/lvgl/src/widgets/lv_arc.c **** 
 507:Middlewares/lvgl/src/widgets/lv_arc.c ****    lv_obj_add_flag(obj, LV_OBJ_FLAG_CLICKABLE);
 508:Middlewares/lvgl/src/widgets/lv_arc.c ****    lv_obj_set_ext_click_area(obj, LV_DPI_DEF / 10);
 509:Middlewares/lvgl/src/widgets/lv_arc.c **** 
 510:Middlewares/lvgl/src/widgets/lv_arc.c **** 
 511:Middlewares/lvgl/src/widgets/lv_arc.c ****     LV_TRACE_OBJ_CREATE("finished");
 512:Middlewares/lvgl/src/widgets/lv_arc.c **** }
 513:Middlewares/lvgl/src/widgets/lv_arc.c **** 
 514:Middlewares/lvgl/src/widgets/lv_arc.c **** static void lv_arc_event(const lv_obj_class_t * class_p, lv_event_t * e)
 515:Middlewares/lvgl/src/widgets/lv_arc.c **** {
 516:Middlewares/lvgl/src/widgets/lv_arc.c ****     LV_UNUSED(class_p);
 517:Middlewares/lvgl/src/widgets/lv_arc.c **** 
 518:Middlewares/lvgl/src/widgets/lv_arc.c ****     lv_res_t res;
 519:Middlewares/lvgl/src/widgets/lv_arc.c **** 
 520:Middlewares/lvgl/src/widgets/lv_arc.c ****     /*Call the ancestor's event handler*/
 521:Middlewares/lvgl/src/widgets/lv_arc.c ****     res = lv_obj_event_base(MY_CLASS, e);
 522:Middlewares/lvgl/src/widgets/lv_arc.c ****     if(res != LV_RES_OK) return;
 523:Middlewares/lvgl/src/widgets/lv_arc.c **** 
 524:Middlewares/lvgl/src/widgets/lv_arc.c ****     lv_event_code_t code = lv_event_get_code(e);
 525:Middlewares/lvgl/src/widgets/lv_arc.c ****     lv_obj_t * obj = lv_event_get_target(e);
 526:Middlewares/lvgl/src/widgets/lv_arc.c ****     lv_arc_t * arc = (lv_arc_t *)lv_event_get_target(e);
 527:Middlewares/lvgl/src/widgets/lv_arc.c ****     if(code == LV_EVENT_PRESSING) {
 528:Middlewares/lvgl/src/widgets/lv_arc.c ****         lv_indev_t * indev = lv_indev_get_act();
 529:Middlewares/lvgl/src/widgets/lv_arc.c ****         if(indev == NULL) return;
 530:Middlewares/lvgl/src/widgets/lv_arc.c **** 
 531:Middlewares/lvgl/src/widgets/lv_arc.c ****         /*Handle only pointers here*/
 532:Middlewares/lvgl/src/widgets/lv_arc.c ****         lv_indev_type_t indev_type = lv_indev_get_type(indev);
 533:Middlewares/lvgl/src/widgets/lv_arc.c ****         if(indev_type != LV_INDEV_TYPE_POINTER) return;
 534:Middlewares/lvgl/src/widgets/lv_arc.c **** 
 535:Middlewares/lvgl/src/widgets/lv_arc.c ****         lv_point_t p;
 536:Middlewares/lvgl/src/widgets/lv_arc.c ****         lv_indev_get_point(indev, &p);
 537:Middlewares/lvgl/src/widgets/lv_arc.c **** 
 538:Middlewares/lvgl/src/widgets/lv_arc.c ****         /*Make point relative to the arc's center*/
 539:Middlewares/lvgl/src/widgets/lv_arc.c ****         lv_point_t center;
 540:Middlewares/lvgl/src/widgets/lv_arc.c ****         lv_coord_t r;
 541:Middlewares/lvgl/src/widgets/lv_arc.c ****         get_center(obj, &center, &r);
 542:Middlewares/lvgl/src/widgets/lv_arc.c **** 
 543:Middlewares/lvgl/src/widgets/lv_arc.c ****         p.x -=  center.x;
 544:Middlewares/lvgl/src/widgets/lv_arc.c ****         p.y -=  center.y;
ARM GAS  /tmp/ccqOegKq.s 			page 11


 545:Middlewares/lvgl/src/widgets/lv_arc.c **** 
 546:Middlewares/lvgl/src/widgets/lv_arc.c ****         /*Enter dragging mode if pressed out of the knob*/
 547:Middlewares/lvgl/src/widgets/lv_arc.c ****         if(arc->dragging == false) {
 548:Middlewares/lvgl/src/widgets/lv_arc.c ****             lv_coord_t indic_width = lv_obj_get_style_arc_width(obj, LV_PART_INDICATOR);
 549:Middlewares/lvgl/src/widgets/lv_arc.c ****             r -=  indic_width;
 550:Middlewares/lvgl/src/widgets/lv_arc.c ****             r -= r / 2; /*Add some more sensitive area*/
 551:Middlewares/lvgl/src/widgets/lv_arc.c ****             if(p.x * p.x + p.y * p.y > r * r) {
 552:Middlewares/lvgl/src/widgets/lv_arc.c ****                arc->dragging = true;
 553:Middlewares/lvgl/src/widgets/lv_arc.c ****                arc->last_tick = lv_tick_get(); /*Capture timestamp at dragging start*/
 554:Middlewares/lvgl/src/widgets/lv_arc.c ****             }
 555:Middlewares/lvgl/src/widgets/lv_arc.c ****         }
 556:Middlewares/lvgl/src/widgets/lv_arc.c **** 
 557:Middlewares/lvgl/src/widgets/lv_arc.c ****         /*It must be in "dragging" mode to turn the arc*/
 558:Middlewares/lvgl/src/widgets/lv_arc.c ****         if(arc->dragging == false) return;
 559:Middlewares/lvgl/src/widgets/lv_arc.c **** 
 560:Middlewares/lvgl/src/widgets/lv_arc.c ****         /*No angle can be determined if exactly the middle of the arc is being pressed*/
 561:Middlewares/lvgl/src/widgets/lv_arc.c ****         if(p.x == 0 && p.y == 0) return;
 562:Middlewares/lvgl/src/widgets/lv_arc.c **** 
 563:Middlewares/lvgl/src/widgets/lv_arc.c ****         /*Calculate the angle of the pressed point*/
 564:Middlewares/lvgl/src/widgets/lv_arc.c ****         int16_t angle;
 565:Middlewares/lvgl/src/widgets/lv_arc.c ****         int16_t bg_end =arc->bg_angle_end;
 566:Middlewares/lvgl/src/widgets/lv_arc.c ****         if(arc->bg_angle_end <arc->bg_angle_start) {
 567:Middlewares/lvgl/src/widgets/lv_arc.c ****             bg_end =arc->bg_angle_end + 360;
 568:Middlewares/lvgl/src/widgets/lv_arc.c ****         }
 569:Middlewares/lvgl/src/widgets/lv_arc.c **** 
 570:Middlewares/lvgl/src/widgets/lv_arc.c ****         angle = lv_atan2(p.y, p.x);
 571:Middlewares/lvgl/src/widgets/lv_arc.c ****         angle -=arc->rotation;
 572:Middlewares/lvgl/src/widgets/lv_arc.c ****         angle -=arc->bg_angle_start;   /*Make the angle relative to the start angle*/
 573:Middlewares/lvgl/src/widgets/lv_arc.c **** 
 574:Middlewares/lvgl/src/widgets/lv_arc.c ****         if(angle < 0) angle += 360;
 575:Middlewares/lvgl/src/widgets/lv_arc.c **** 
 576:Middlewares/lvgl/src/widgets/lv_arc.c ****         int16_t deg_range = bg_end -arc->bg_angle_start;
 577:Middlewares/lvgl/src/widgets/lv_arc.c **** 
 578:Middlewares/lvgl/src/widgets/lv_arc.c ****         int16_t last_angle_rel =arc->last_angle -arc->bg_angle_start;
 579:Middlewares/lvgl/src/widgets/lv_arc.c ****         int16_t delta_angle = angle - last_angle_rel;
 580:Middlewares/lvgl/src/widgets/lv_arc.c **** 
 581:Middlewares/lvgl/src/widgets/lv_arc.c ****         /*Do not allow big jumps.
 582:Middlewares/lvgl/src/widgets/lv_arc.c ****          *It's mainly to avoid jumping to the opposite end if the "dead" range between min. an max.
 583:Middlewares/lvgl/src/widgets/lv_arc.c ****          *Check which was closer on the last valid press (arc->min_close) and prefer that end*/
 584:Middlewares/lvgl/src/widgets/lv_arc.c ****         if(LV_ABS(delta_angle) > 280) {
 585:Middlewares/lvgl/src/widgets/lv_arc.c ****             if(arc->min_close) angle = 0;
 586:Middlewares/lvgl/src/widgets/lv_arc.c ****             else angle = deg_range;
 587:Middlewares/lvgl/src/widgets/lv_arc.c ****         }
 588:Middlewares/lvgl/src/widgets/lv_arc.c ****         else {
 589:Middlewares/lvgl/src/widgets/lv_arc.c ****             if(angle < deg_range / 2)arc->min_close = 1;
 590:Middlewares/lvgl/src/widgets/lv_arc.c ****             else arc->min_close = 0;
 591:Middlewares/lvgl/src/widgets/lv_arc.c ****         }
 592:Middlewares/lvgl/src/widgets/lv_arc.c **** 
 593:Middlewares/lvgl/src/widgets/lv_arc.c ****         /*Calculate the slew rate limited angle based on change rate (degrees/sec)*/
 594:Middlewares/lvgl/src/widgets/lv_arc.c ****         delta_angle = angle - last_angle_rel;
 595:Middlewares/lvgl/src/widgets/lv_arc.c ****         uint32_t delta_tick = lv_tick_elaps(arc->last_tick);
 596:Middlewares/lvgl/src/widgets/lv_arc.c ****         int16_t delta_angle_max = (arc->chg_rate * delta_tick) / 1000;
 597:Middlewares/lvgl/src/widgets/lv_arc.c **** 
 598:Middlewares/lvgl/src/widgets/lv_arc.c ****         if(delta_angle > delta_angle_max) {
 599:Middlewares/lvgl/src/widgets/lv_arc.c ****             delta_angle = delta_angle_max;
 600:Middlewares/lvgl/src/widgets/lv_arc.c ****         }
 601:Middlewares/lvgl/src/widgets/lv_arc.c ****         else if(delta_angle < -delta_angle_max) {
ARM GAS  /tmp/ccqOegKq.s 			page 12


 602:Middlewares/lvgl/src/widgets/lv_arc.c ****             delta_angle = -delta_angle_max;
 603:Middlewares/lvgl/src/widgets/lv_arc.c ****         }
 604:Middlewares/lvgl/src/widgets/lv_arc.c **** 
 605:Middlewares/lvgl/src/widgets/lv_arc.c ****         angle = last_angle_rel + delta_angle; /*Apply the limited angle change*/
 606:Middlewares/lvgl/src/widgets/lv_arc.c **** 
 607:Middlewares/lvgl/src/widgets/lv_arc.c ****         /*Rounding for symmetry*/
 608:Middlewares/lvgl/src/widgets/lv_arc.c ****         int32_t round = ((bg_end -arc->bg_angle_start) * 8) / (arc->max_value -arc->min_value);
 609:Middlewares/lvgl/src/widgets/lv_arc.c ****         round = (round + 4) >> 4;
 610:Middlewares/lvgl/src/widgets/lv_arc.c ****         angle += round;
 611:Middlewares/lvgl/src/widgets/lv_arc.c **** 
 612:Middlewares/lvgl/src/widgets/lv_arc.c ****         angle +=arc->bg_angle_start;   /*Make the angle absolute again*/
 613:Middlewares/lvgl/src/widgets/lv_arc.c **** 
 614:Middlewares/lvgl/src/widgets/lv_arc.c ****         /*Set the new value*/
 615:Middlewares/lvgl/src/widgets/lv_arc.c ****         int16_t old_value =arc->value;
 616:Middlewares/lvgl/src/widgets/lv_arc.c ****         int16_t new_value = lv_map(angle,arc->bg_angle_start, bg_end,arc->min_value,arc->max_value)
 617:Middlewares/lvgl/src/widgets/lv_arc.c ****         if(new_value != lv_arc_get_value(obj)) {
 618:Middlewares/lvgl/src/widgets/lv_arc.c ****            arc->last_tick = lv_tick_get(); /*Cache timestamp for the next iteration*/
 619:Middlewares/lvgl/src/widgets/lv_arc.c ****             lv_arc_set_value(obj, new_value); /*set_value caches the last_angle for the next iterat
 620:Middlewares/lvgl/src/widgets/lv_arc.c ****             if(new_value != old_value) {
 621:Middlewares/lvgl/src/widgets/lv_arc.c ****                 res = lv_event_send(obj, LV_EVENT_VALUE_CHANGED, NULL);
 622:Middlewares/lvgl/src/widgets/lv_arc.c ****                 if(res != LV_RES_OK) return;
 623:Middlewares/lvgl/src/widgets/lv_arc.c ****             }
 624:Middlewares/lvgl/src/widgets/lv_arc.c ****         }
 625:Middlewares/lvgl/src/widgets/lv_arc.c **** 
 626:Middlewares/lvgl/src/widgets/lv_arc.c ****         /*Don1't let the elapsed time to big while sitting on an end point*/
 627:Middlewares/lvgl/src/widgets/lv_arc.c ****         if(new_value ==arc->min_value || new_value ==arc->max_value) {
 628:Middlewares/lvgl/src/widgets/lv_arc.c ****            arc->last_tick = lv_tick_get(); /*Cache timestamp for the next iteration*/
 629:Middlewares/lvgl/src/widgets/lv_arc.c ****         }
 630:Middlewares/lvgl/src/widgets/lv_arc.c ****     }
 631:Middlewares/lvgl/src/widgets/lv_arc.c ****     else if(code == LV_EVENT_RELEASED || code == LV_EVENT_PRESS_LOST) {
 632:Middlewares/lvgl/src/widgets/lv_arc.c ****        arc->dragging = false;
 633:Middlewares/lvgl/src/widgets/lv_arc.c **** 
 634:Middlewares/lvgl/src/widgets/lv_arc.c ****         /*Leave edit mode if released. (No need to wait for LONG_PRESS)*/
 635:Middlewares/lvgl/src/widgets/lv_arc.c ****         lv_group_t * g             = lv_obj_get_group(obj);
 636:Middlewares/lvgl/src/widgets/lv_arc.c ****         bool editing               = lv_group_get_editing(g);
 637:Middlewares/lvgl/src/widgets/lv_arc.c ****         lv_indev_type_t indev_type = lv_indev_get_type(lv_indev_get_act());
 638:Middlewares/lvgl/src/widgets/lv_arc.c ****         if(indev_type == LV_INDEV_TYPE_ENCODER) {
 639:Middlewares/lvgl/src/widgets/lv_arc.c ****             if(editing) lv_group_set_editing(g, false);
 640:Middlewares/lvgl/src/widgets/lv_arc.c ****         }
 641:Middlewares/lvgl/src/widgets/lv_arc.c **** 
 642:Middlewares/lvgl/src/widgets/lv_arc.c ****     }
 643:Middlewares/lvgl/src/widgets/lv_arc.c ****     else if(code == LV_EVENT_KEY) {
 644:Middlewares/lvgl/src/widgets/lv_arc.c ****         char c = *((char *)lv_event_get_param(e));
 645:Middlewares/lvgl/src/widgets/lv_arc.c **** 
 646:Middlewares/lvgl/src/widgets/lv_arc.c ****         int16_t old_value =arc->value;
 647:Middlewares/lvgl/src/widgets/lv_arc.c ****         if(c == LV_KEY_RIGHT || c == LV_KEY_UP) {
 648:Middlewares/lvgl/src/widgets/lv_arc.c ****             lv_arc_set_value(obj, lv_arc_get_value(obj) + 1);
 649:Middlewares/lvgl/src/widgets/lv_arc.c ****         }
 650:Middlewares/lvgl/src/widgets/lv_arc.c ****         else if(c == LV_KEY_LEFT || c == LV_KEY_DOWN) {
 651:Middlewares/lvgl/src/widgets/lv_arc.c ****             lv_arc_set_value(obj, lv_arc_get_value(obj) - 1);
 652:Middlewares/lvgl/src/widgets/lv_arc.c ****         }
 653:Middlewares/lvgl/src/widgets/lv_arc.c **** 
 654:Middlewares/lvgl/src/widgets/lv_arc.c ****         if(old_value !=arc->value) {
 655:Middlewares/lvgl/src/widgets/lv_arc.c ****             res = lv_event_send(obj, LV_EVENT_VALUE_CHANGED, NULL);
 656:Middlewares/lvgl/src/widgets/lv_arc.c ****             if(res != LV_RES_OK) return;
 657:Middlewares/lvgl/src/widgets/lv_arc.c ****         }
 658:Middlewares/lvgl/src/widgets/lv_arc.c ****     }
ARM GAS  /tmp/ccqOegKq.s 			page 13


 659:Middlewares/lvgl/src/widgets/lv_arc.c ****     else if(code == LV_EVENT_REFR_EXT_DRAW_SIZE) {
 660:Middlewares/lvgl/src/widgets/lv_arc.c ****         lv_coord_t bg_left = lv_obj_get_style_pad_left(obj, LV_PART_MAIN);
 661:Middlewares/lvgl/src/widgets/lv_arc.c ****         lv_coord_t bg_right = lv_obj_get_style_pad_right(obj, LV_PART_MAIN);
 662:Middlewares/lvgl/src/widgets/lv_arc.c ****         lv_coord_t bg_top = lv_obj_get_style_pad_top(obj, LV_PART_MAIN);
 663:Middlewares/lvgl/src/widgets/lv_arc.c ****         lv_coord_t bg_bottom = lv_obj_get_style_pad_bottom(obj, LV_PART_MAIN);
 664:Middlewares/lvgl/src/widgets/lv_arc.c ****         lv_coord_t bg_pad = LV_MAX4(bg_left, bg_right, bg_top, bg_bottom);
 665:Middlewares/lvgl/src/widgets/lv_arc.c **** 
 666:Middlewares/lvgl/src/widgets/lv_arc.c ****         lv_coord_t knob_left = lv_obj_get_style_pad_left(obj, LV_PART_KNOB);
 667:Middlewares/lvgl/src/widgets/lv_arc.c ****         lv_coord_t knob_right = lv_obj_get_style_pad_right(obj, LV_PART_KNOB);
 668:Middlewares/lvgl/src/widgets/lv_arc.c ****         lv_coord_t knob_top = lv_obj_get_style_pad_top(obj, LV_PART_KNOB);
 669:Middlewares/lvgl/src/widgets/lv_arc.c ****         lv_coord_t knob_bottom = lv_obj_get_style_pad_bottom(obj, LV_PART_KNOB);
 670:Middlewares/lvgl/src/widgets/lv_arc.c ****         lv_coord_t knob_pad = LV_MAX4(knob_left, knob_right, knob_top, knob_bottom) + 2;
 671:Middlewares/lvgl/src/widgets/lv_arc.c **** 
 672:Middlewares/lvgl/src/widgets/lv_arc.c ****         lv_coord_t * s = lv_event_get_param(e);
 673:Middlewares/lvgl/src/widgets/lv_arc.c ****         *s = LV_MAX(*s, knob_pad - bg_pad);
 674:Middlewares/lvgl/src/widgets/lv_arc.c ****     } else if(code == LV_EVENT_DRAW_MAIN) {
 675:Middlewares/lvgl/src/widgets/lv_arc.c ****         lv_arc_draw(e);
 676:Middlewares/lvgl/src/widgets/lv_arc.c ****     }
 677:Middlewares/lvgl/src/widgets/lv_arc.c **** }
 678:Middlewares/lvgl/src/widgets/lv_arc.c **** 
 679:Middlewares/lvgl/src/widgets/lv_arc.c **** static void lv_arc_draw(lv_event_t * e)
 680:Middlewares/lvgl/src/widgets/lv_arc.c **** {
 681:Middlewares/lvgl/src/widgets/lv_arc.c ****     lv_obj_t * obj = lv_event_get_target(e);
 682:Middlewares/lvgl/src/widgets/lv_arc.c ****     lv_arc_t * arc = (lv_arc_t *)obj;
 683:Middlewares/lvgl/src/widgets/lv_arc.c **** 
 684:Middlewares/lvgl/src/widgets/lv_arc.c ****     const lv_area_t * clip_area = lv_event_get_param(e);
 685:Middlewares/lvgl/src/widgets/lv_arc.c **** 
 686:Middlewares/lvgl/src/widgets/lv_arc.c ****     lv_point_t center;
 687:Middlewares/lvgl/src/widgets/lv_arc.c ****     lv_coord_t arc_r;
 688:Middlewares/lvgl/src/widgets/lv_arc.c ****     get_center(obj, &center, &arc_r);
 689:Middlewares/lvgl/src/widgets/lv_arc.c **** 
 690:Middlewares/lvgl/src/widgets/lv_arc.c ****     lv_obj_draw_part_dsc_t obj_draw_dsc;
 691:Middlewares/lvgl/src/widgets/lv_arc.c ****     lv_obj_draw_dsc_init(&obj_draw_dsc, clip_area);
 692:Middlewares/lvgl/src/widgets/lv_arc.c **** 
 693:Middlewares/lvgl/src/widgets/lv_arc.c ****     /*Draw the background arc*/
 694:Middlewares/lvgl/src/widgets/lv_arc.c ****     lv_draw_arc_dsc_t arc_dsc;
 695:Middlewares/lvgl/src/widgets/lv_arc.c ****     if(arc_r > 0) {
 696:Middlewares/lvgl/src/widgets/lv_arc.c ****         lv_draw_arc_dsc_init(&arc_dsc);
 697:Middlewares/lvgl/src/widgets/lv_arc.c ****         lv_obj_init_draw_arc_dsc(obj, LV_PART_MAIN, &arc_dsc);
 698:Middlewares/lvgl/src/widgets/lv_arc.c **** 
 699:Middlewares/lvgl/src/widgets/lv_arc.c ****         obj_draw_dsc.part = LV_PART_MAIN;
 700:Middlewares/lvgl/src/widgets/lv_arc.c ****         obj_draw_dsc.p1 = &center;
 701:Middlewares/lvgl/src/widgets/lv_arc.c ****         obj_draw_dsc.radius = arc_r;
 702:Middlewares/lvgl/src/widgets/lv_arc.c ****         obj_draw_dsc.arc_dsc = &arc_dsc;
 703:Middlewares/lvgl/src/widgets/lv_arc.c ****         lv_event_send(obj, LV_EVENT_DRAW_PART_BEGIN, &obj_draw_dsc);
 704:Middlewares/lvgl/src/widgets/lv_arc.c **** 
 705:Middlewares/lvgl/src/widgets/lv_arc.c ****         lv_draw_arc(center.x, center.y, arc_r, arc->bg_angle_start + arc->rotation,
 706:Middlewares/lvgl/src/widgets/lv_arc.c ****                    arc->bg_angle_end + arc->rotation, clip_area,
 707:Middlewares/lvgl/src/widgets/lv_arc.c ****                     &arc_dsc);
 708:Middlewares/lvgl/src/widgets/lv_arc.c **** 
 709:Middlewares/lvgl/src/widgets/lv_arc.c ****         lv_event_send(obj, LV_EVENT_DRAW_PART_END, &obj_draw_dsc);
 710:Middlewares/lvgl/src/widgets/lv_arc.c ****     }
 711:Middlewares/lvgl/src/widgets/lv_arc.c **** 
 712:Middlewares/lvgl/src/widgets/lv_arc.c ****     /*make the indicator arc smaller or larger according to its greatest padding value*/
 713:Middlewares/lvgl/src/widgets/lv_arc.c ****     lv_coord_t left_indic = lv_obj_get_style_pad_left(obj, LV_PART_INDICATOR);
 714:Middlewares/lvgl/src/widgets/lv_arc.c ****     lv_coord_t right_indic = lv_obj_get_style_pad_right(obj, LV_PART_INDICATOR);
 715:Middlewares/lvgl/src/widgets/lv_arc.c ****     lv_coord_t top_indic = lv_obj_get_style_pad_top(obj, LV_PART_INDICATOR);
ARM GAS  /tmp/ccqOegKq.s 			page 14


 716:Middlewares/lvgl/src/widgets/lv_arc.c ****     lv_coord_t bottom_indic = lv_obj_get_style_pad_bottom(obj, LV_PART_INDICATOR);
 717:Middlewares/lvgl/src/widgets/lv_arc.c ****     lv_coord_t indic_r = arc_r - LV_MAX4(left_indic, right_indic, top_indic, bottom_indic);
 718:Middlewares/lvgl/src/widgets/lv_arc.c **** 
 719:Middlewares/lvgl/src/widgets/lv_arc.c ****     if(indic_r > 0) {
 720:Middlewares/lvgl/src/widgets/lv_arc.c ****         lv_draw_arc_dsc_init(&arc_dsc);
 721:Middlewares/lvgl/src/widgets/lv_arc.c ****         lv_obj_init_draw_arc_dsc(obj, LV_PART_INDICATOR, &arc_dsc);
 722:Middlewares/lvgl/src/widgets/lv_arc.c **** 
 723:Middlewares/lvgl/src/widgets/lv_arc.c ****         obj_draw_dsc.part = LV_PART_INDICATOR;
 724:Middlewares/lvgl/src/widgets/lv_arc.c ****         obj_draw_dsc.p1 = &center;
 725:Middlewares/lvgl/src/widgets/lv_arc.c ****         obj_draw_dsc.radius = indic_r;
 726:Middlewares/lvgl/src/widgets/lv_arc.c ****         obj_draw_dsc.arc_dsc = &arc_dsc;
 727:Middlewares/lvgl/src/widgets/lv_arc.c ****         lv_event_send(obj, LV_EVENT_DRAW_PART_BEGIN, &obj_draw_dsc);
 728:Middlewares/lvgl/src/widgets/lv_arc.c **** 
 729:Middlewares/lvgl/src/widgets/lv_arc.c ****         lv_draw_arc(center.x, center.y, indic_r, arc->indic_angle_start +arc->rotation,
 730:Middlewares/lvgl/src/widgets/lv_arc.c ****                    arc->indic_angle_end + arc->rotation, clip_area,
 731:Middlewares/lvgl/src/widgets/lv_arc.c ****                     &arc_dsc);
 732:Middlewares/lvgl/src/widgets/lv_arc.c **** 
 733:Middlewares/lvgl/src/widgets/lv_arc.c ****         lv_event_send(obj, LV_EVENT_DRAW_PART_END, &obj_draw_dsc);
 734:Middlewares/lvgl/src/widgets/lv_arc.c ****     }
 735:Middlewares/lvgl/src/widgets/lv_arc.c **** 
 736:Middlewares/lvgl/src/widgets/lv_arc.c ****     lv_area_t knob_area;
 737:Middlewares/lvgl/src/widgets/lv_arc.c ****     get_knob_area(obj, &center, arc_r, &knob_area);
 738:Middlewares/lvgl/src/widgets/lv_arc.c **** 
 739:Middlewares/lvgl/src/widgets/lv_arc.c ****     lv_draw_rect_dsc_t knob_rect_dsc;
 740:Middlewares/lvgl/src/widgets/lv_arc.c ****     lv_draw_rect_dsc_init(&knob_rect_dsc);
 741:Middlewares/lvgl/src/widgets/lv_arc.c ****     lv_obj_init_draw_rect_dsc(obj, LV_PART_KNOB, &knob_rect_dsc);
 742:Middlewares/lvgl/src/widgets/lv_arc.c **** 
 743:Middlewares/lvgl/src/widgets/lv_arc.c ****     obj_draw_dsc.part = LV_PART_KNOB;
 744:Middlewares/lvgl/src/widgets/lv_arc.c ****     obj_draw_dsc.draw_area = &knob_area;
 745:Middlewares/lvgl/src/widgets/lv_arc.c ****     obj_draw_dsc.rect_dsc = &knob_rect_dsc;
 746:Middlewares/lvgl/src/widgets/lv_arc.c ****     lv_event_send(obj, LV_EVENT_DRAW_PART_BEGIN, &obj_draw_dsc);
 747:Middlewares/lvgl/src/widgets/lv_arc.c **** 
 748:Middlewares/lvgl/src/widgets/lv_arc.c ****     lv_draw_rect(&knob_area, clip_area, &knob_rect_dsc);
 749:Middlewares/lvgl/src/widgets/lv_arc.c **** 
 750:Middlewares/lvgl/src/widgets/lv_arc.c ****     lv_event_send(obj, LV_EVENT_DRAW_PART_END, &obj_draw_dsc);
 751:Middlewares/lvgl/src/widgets/lv_arc.c **** }
 752:Middlewares/lvgl/src/widgets/lv_arc.c **** 
 753:Middlewares/lvgl/src/widgets/lv_arc.c **** static void inv_arc_area(lv_obj_t * obj, uint16_t start_angle, uint16_t end_angle, lv_part_t part)
 754:Middlewares/lvgl/src/widgets/lv_arc.c **** {
 755:Middlewares/lvgl/src/widgets/lv_arc.c ****     LV_ASSERT_OBJ(obj, MY_CLASS);
 756:Middlewares/lvgl/src/widgets/lv_arc.c ****     lv_arc_t * arc = (lv_arc_t *)obj;
 757:Middlewares/lvgl/src/widgets/lv_arc.c **** 
 758:Middlewares/lvgl/src/widgets/lv_arc.c ****     /*Skip this complicated invalidation if the arc is not visible*/
 759:Middlewares/lvgl/src/widgets/lv_arc.c ****     if(lv_obj_is_visible(obj) == false) return;
 760:Middlewares/lvgl/src/widgets/lv_arc.c **** 
 761:Middlewares/lvgl/src/widgets/lv_arc.c ****     start_angle +=arc->rotation;
 762:Middlewares/lvgl/src/widgets/lv_arc.c ****     end_angle +=arc->rotation;
 763:Middlewares/lvgl/src/widgets/lv_arc.c **** 
 764:Middlewares/lvgl/src/widgets/lv_arc.c ****     if(start_angle >= 360) start_angle -= 360;
 765:Middlewares/lvgl/src/widgets/lv_arc.c ****     if(end_angle >= 360) end_angle -= 360;
 766:Middlewares/lvgl/src/widgets/lv_arc.c **** 
 767:Middlewares/lvgl/src/widgets/lv_arc.c ****     uint8_t start_quarter = start_angle / 90;
 768:Middlewares/lvgl/src/widgets/lv_arc.c ****     uint8_t end_quarter = end_angle / 90;
 769:Middlewares/lvgl/src/widgets/lv_arc.c **** 
 770:Middlewares/lvgl/src/widgets/lv_arc.c ****     lv_coord_t left = lv_obj_get_style_pad_left(obj, LV_PART_MAIN);
 771:Middlewares/lvgl/src/widgets/lv_arc.c ****     lv_coord_t right = lv_obj_get_style_pad_right(obj, LV_PART_MAIN);
 772:Middlewares/lvgl/src/widgets/lv_arc.c ****     lv_coord_t top = lv_obj_get_style_pad_top(obj, LV_PART_MAIN);
ARM GAS  /tmp/ccqOegKq.s 			page 15


 773:Middlewares/lvgl/src/widgets/lv_arc.c ****     lv_coord_t bottom = lv_obj_get_style_pad_bottom(obj, LV_PART_MAIN);
 774:Middlewares/lvgl/src/widgets/lv_arc.c ****     lv_coord_t rout       = (LV_MIN(lv_obj_get_width(obj) - left - right, lv_obj_get_height(obj) - 
 775:Middlewares/lvgl/src/widgets/lv_arc.c ****     lv_coord_t x       = obj->coords.x1 + rout + left;
 776:Middlewares/lvgl/src/widgets/lv_arc.c ****     lv_coord_t y       = obj->coords.y1 + rout + top;
 777:Middlewares/lvgl/src/widgets/lv_arc.c ****     lv_coord_t w = lv_obj_get_style_arc_width(obj, part);
 778:Middlewares/lvgl/src/widgets/lv_arc.c ****     lv_coord_t rounded = lv_obj_get_style_arc_rounded(obj, part);
 779:Middlewares/lvgl/src/widgets/lv_arc.c ****     lv_coord_t rin       = rout - w;
 780:Middlewares/lvgl/src/widgets/lv_arc.c ****     lv_coord_t extra_area = 0;
 781:Middlewares/lvgl/src/widgets/lv_arc.c **** 
 782:Middlewares/lvgl/src/widgets/lv_arc.c ****     extra_area = rounded ? w / 2 + 2 : 0;
 783:Middlewares/lvgl/src/widgets/lv_arc.c **** 
 784:Middlewares/lvgl/src/widgets/lv_arc.c ****     if(part == LV_PART_INDICATOR) {
 785:Middlewares/lvgl/src/widgets/lv_arc.c ****         lv_coord_t knob_extra_size = lv_obj_calculate_ext_draw_size(obj, LV_PART_KNOB);
 786:Middlewares/lvgl/src/widgets/lv_arc.c **** 
 787:Middlewares/lvgl/src/widgets/lv_arc.c ****         lv_coord_t knob_left = lv_obj_get_style_pad_left(obj, LV_PART_KNOB);
 788:Middlewares/lvgl/src/widgets/lv_arc.c ****         lv_coord_t knob_right = lv_obj_get_style_pad_right(obj, LV_PART_KNOB);
 789:Middlewares/lvgl/src/widgets/lv_arc.c ****         lv_coord_t knob_top = lv_obj_get_style_pad_top(obj, LV_PART_KNOB);
 790:Middlewares/lvgl/src/widgets/lv_arc.c ****         lv_coord_t knob_bottom = lv_obj_get_style_pad_bottom(obj, LV_PART_KNOB);
 791:Middlewares/lvgl/src/widgets/lv_arc.c **** 
 792:Middlewares/lvgl/src/widgets/lv_arc.c ****         knob_extra_size += LV_MAX4(knob_left, knob_right, knob_top, knob_bottom);
 793:Middlewares/lvgl/src/widgets/lv_arc.c **** 
 794:Middlewares/lvgl/src/widgets/lv_arc.c ****         extra_area = LV_MAX(extra_area, w / 2 + 2 + knob_extra_size);
 795:Middlewares/lvgl/src/widgets/lv_arc.c ****     }
 796:Middlewares/lvgl/src/widgets/lv_arc.c **** 
 797:Middlewares/lvgl/src/widgets/lv_arc.c ****     lv_area_t inv_area;
 798:Middlewares/lvgl/src/widgets/lv_arc.c **** 
 799:Middlewares/lvgl/src/widgets/lv_arc.c ****     if(start_quarter == end_quarter && start_angle <= end_angle) {
 800:Middlewares/lvgl/src/widgets/lv_arc.c ****         if(start_quarter == 0) {
 801:Middlewares/lvgl/src/widgets/lv_arc.c ****             inv_area.y1 = y + ((lv_trigo_sin(start_angle) * rin) >> LV_TRIGO_SHIFT) - extra_area;
 802:Middlewares/lvgl/src/widgets/lv_arc.c ****             inv_area.x2 = x + ((lv_trigo_sin(start_angle + 90) * rout) >> LV_TRIGO_SHIFT) + extra_a
 803:Middlewares/lvgl/src/widgets/lv_arc.c **** 
 804:Middlewares/lvgl/src/widgets/lv_arc.c ****             inv_area.y2 = y + ((lv_trigo_sin(end_angle) * rout) >> LV_TRIGO_SHIFT) + extra_area;
 805:Middlewares/lvgl/src/widgets/lv_arc.c ****             inv_area.x1 = x + ((lv_trigo_sin(end_angle + 90) * rin) >> LV_TRIGO_SHIFT) - extra_area
 806:Middlewares/lvgl/src/widgets/lv_arc.c **** 
 807:Middlewares/lvgl/src/widgets/lv_arc.c ****             lv_obj_invalidate_area(obj, &inv_area);
 808:Middlewares/lvgl/src/widgets/lv_arc.c ****         }
 809:Middlewares/lvgl/src/widgets/lv_arc.c ****         else if(start_quarter == 1) {
 810:Middlewares/lvgl/src/widgets/lv_arc.c ****             inv_area.y2 = y + ((lv_trigo_sin(start_angle) * rout) >> LV_TRIGO_SHIFT) + extra_area;
 811:Middlewares/lvgl/src/widgets/lv_arc.c ****             inv_area.x2 = x + ((lv_trigo_sin(start_angle + 90) * rin) >> LV_TRIGO_SHIFT) + extra_ar
 812:Middlewares/lvgl/src/widgets/lv_arc.c **** 
 813:Middlewares/lvgl/src/widgets/lv_arc.c ****             inv_area.y1 = y + ((lv_trigo_sin(end_angle) * rin) >> LV_TRIGO_SHIFT) - extra_area;
 814:Middlewares/lvgl/src/widgets/lv_arc.c ****             inv_area.x1 = x + ((lv_trigo_sin(end_angle + 90) * rout) >> LV_TRIGO_SHIFT) - extra_are
 815:Middlewares/lvgl/src/widgets/lv_arc.c **** 
 816:Middlewares/lvgl/src/widgets/lv_arc.c ****             lv_obj_invalidate_area(obj, &inv_area);
 817:Middlewares/lvgl/src/widgets/lv_arc.c ****         }
 818:Middlewares/lvgl/src/widgets/lv_arc.c ****         else if(start_quarter == 2) {
 819:Middlewares/lvgl/src/widgets/lv_arc.c ****             inv_area.x1 = x + ((lv_trigo_sin(start_angle + 90) * rout) >> LV_TRIGO_SHIFT) - extra_a
 820:Middlewares/lvgl/src/widgets/lv_arc.c ****             inv_area.y2 = y + ((lv_trigo_sin(start_angle) * rin) >> LV_TRIGO_SHIFT) + extra_area;
 821:Middlewares/lvgl/src/widgets/lv_arc.c **** 
 822:Middlewares/lvgl/src/widgets/lv_arc.c ****             inv_area.y1 = y + ((lv_trigo_sin(end_angle) * rout) >> LV_TRIGO_SHIFT) - extra_area;
 823:Middlewares/lvgl/src/widgets/lv_arc.c ****             inv_area.x2 = x + ((lv_trigo_sin(end_angle + 90) * rin) >> LV_TRIGO_SHIFT) + extra_area
 824:Middlewares/lvgl/src/widgets/lv_arc.c **** 
 825:Middlewares/lvgl/src/widgets/lv_arc.c ****             lv_obj_invalidate_area(obj, &inv_area);
 826:Middlewares/lvgl/src/widgets/lv_arc.c ****         }
 827:Middlewares/lvgl/src/widgets/lv_arc.c ****         else if(start_quarter == 3) {
 828:Middlewares/lvgl/src/widgets/lv_arc.c ****             /*Small arc here*/
 829:Middlewares/lvgl/src/widgets/lv_arc.c ****             inv_area.x1 = x + ((lv_trigo_sin(start_angle + 90) * rin) >> LV_TRIGO_SHIFT) - extra_ar
ARM GAS  /tmp/ccqOegKq.s 			page 16


 830:Middlewares/lvgl/src/widgets/lv_arc.c ****             inv_area.y1 = y + ((lv_trigo_sin(start_angle) * rout) >> LV_TRIGO_SHIFT) - extra_area;
 831:Middlewares/lvgl/src/widgets/lv_arc.c **** 
 832:Middlewares/lvgl/src/widgets/lv_arc.c ****             inv_area.x2 = x + ((lv_trigo_sin(end_angle + 90) * rout) >> LV_TRIGO_SHIFT) + extra_are
 833:Middlewares/lvgl/src/widgets/lv_arc.c ****             inv_area.y2 = y + ((lv_trigo_sin(end_angle) * rin) >> LV_TRIGO_SHIFT) + extra_area;
 834:Middlewares/lvgl/src/widgets/lv_arc.c **** 
 835:Middlewares/lvgl/src/widgets/lv_arc.c ****             lv_obj_invalidate_area(obj, &inv_area);
 836:Middlewares/lvgl/src/widgets/lv_arc.c ****         }
 837:Middlewares/lvgl/src/widgets/lv_arc.c ****     }
 838:Middlewares/lvgl/src/widgets/lv_arc.c ****     else if(start_quarter == 0 && end_quarter == 1) {
 839:Middlewares/lvgl/src/widgets/lv_arc.c ****         inv_area.x1 = x + ((lv_trigo_sin(end_angle + 90) * rout) >> LV_TRIGO_SHIFT) - extra_area;
 840:Middlewares/lvgl/src/widgets/lv_arc.c ****         inv_area.y1 = y + ((LV_MIN(lv_trigo_sin(end_angle),
 841:Middlewares/lvgl/src/widgets/lv_arc.c ****                                         lv_trigo_sin(start_angle))  * rin) >> LV_TRIGO_SHIFT) - ext
 842:Middlewares/lvgl/src/widgets/lv_arc.c ****         inv_area.x2 = x + ((lv_trigo_sin(start_angle + 90) * rout) >> LV_TRIGO_SHIFT) + extra_area;
 843:Middlewares/lvgl/src/widgets/lv_arc.c ****         inv_area.y2 = y + rout + extra_area;
 844:Middlewares/lvgl/src/widgets/lv_arc.c ****         lv_obj_invalidate_area(obj, &inv_area);
 845:Middlewares/lvgl/src/widgets/lv_arc.c ****     }
 846:Middlewares/lvgl/src/widgets/lv_arc.c ****     else if(start_quarter == 1 && end_quarter == 2) {
 847:Middlewares/lvgl/src/widgets/lv_arc.c ****         inv_area.x1 = x - rout - extra_area;
 848:Middlewares/lvgl/src/widgets/lv_arc.c ****         inv_area.y1 = y + ((lv_trigo_sin(end_angle) * rout) >> LV_TRIGO_SHIFT) - extra_area;
 849:Middlewares/lvgl/src/widgets/lv_arc.c ****         inv_area.x2 = x + ((LV_MAX(lv_trigo_sin(start_angle + 90),
 850:Middlewares/lvgl/src/widgets/lv_arc.c ****                                         lv_trigo_sin(end_angle + 90)) * rin) >> LV_TRIGO_SHIFT) + e
 851:Middlewares/lvgl/src/widgets/lv_arc.c ****         inv_area.y2 = y + ((lv_trigo_sin(start_angle) * rout) >> LV_TRIGO_SHIFT) + extra_area;
 852:Middlewares/lvgl/src/widgets/lv_arc.c ****         lv_obj_invalidate_area(obj, &inv_area);
 853:Middlewares/lvgl/src/widgets/lv_arc.c ****     }
 854:Middlewares/lvgl/src/widgets/lv_arc.c ****     else if(start_quarter == 2 && end_quarter == 3) {
 855:Middlewares/lvgl/src/widgets/lv_arc.c ****         inv_area.x1 = x + ((lv_trigo_sin(start_angle + 90) * rout) >> LV_TRIGO_SHIFT) - extra_area;
 856:Middlewares/lvgl/src/widgets/lv_arc.c ****         inv_area.y1 = y - rout - extra_area;
 857:Middlewares/lvgl/src/widgets/lv_arc.c ****         inv_area.x2 = x + ((lv_trigo_sin(end_angle + 90) * rout) >> LV_TRIGO_SHIFT) + extra_area;
 858:Middlewares/lvgl/src/widgets/lv_arc.c ****         inv_area.y2 = y + (LV_MAX(lv_trigo_sin(end_angle) * rin,
 859:Middlewares/lvgl/src/widgets/lv_arc.c ****                                        lv_trigo_sin(start_angle) * rin) >> LV_TRIGO_SHIFT) + extra_
 860:Middlewares/lvgl/src/widgets/lv_arc.c ****         lv_obj_invalidate_area(obj, &inv_area);
 861:Middlewares/lvgl/src/widgets/lv_arc.c ****     }
 862:Middlewares/lvgl/src/widgets/lv_arc.c ****     else if(start_quarter == 3 && end_quarter == 0) {
 863:Middlewares/lvgl/src/widgets/lv_arc.c ****         inv_area.x1 = x + ((LV_MIN(lv_trigo_sin(end_angle + 90),
 864:Middlewares/lvgl/src/widgets/lv_arc.c ****                                         lv_trigo_sin(start_angle + 90)) * rin) >> LV_TRIGO_SHIFT) -
 865:Middlewares/lvgl/src/widgets/lv_arc.c ****         inv_area.y1 = y + ((lv_trigo_sin(start_angle) * rout) >> LV_TRIGO_SHIFT) - extra_area;
 866:Middlewares/lvgl/src/widgets/lv_arc.c ****         inv_area.x2 = x + rout + extra_area;
 867:Middlewares/lvgl/src/widgets/lv_arc.c ****         inv_area.y2 = y + ((lv_trigo_sin(end_angle) * rout) >> LV_TRIGO_SHIFT) + extra_area;
 868:Middlewares/lvgl/src/widgets/lv_arc.c **** 
 869:Middlewares/lvgl/src/widgets/lv_arc.c ****         lv_obj_invalidate_area(obj, &inv_area);
 870:Middlewares/lvgl/src/widgets/lv_arc.c ****     }
 871:Middlewares/lvgl/src/widgets/lv_arc.c ****     else {
 872:Middlewares/lvgl/src/widgets/lv_arc.c ****         lv_obj_invalidate(obj);
 873:Middlewares/lvgl/src/widgets/lv_arc.c ****     }
 874:Middlewares/lvgl/src/widgets/lv_arc.c **** }
 875:Middlewares/lvgl/src/widgets/lv_arc.c **** 
 876:Middlewares/lvgl/src/widgets/lv_arc.c **** static void get_center(lv_obj_t * obj, lv_point_t * center, lv_coord_t * arc_r)
 877:Middlewares/lvgl/src/widgets/lv_arc.c **** {
  28              		.loc 1 877 1 view -0
  29              		.cfi_startproc
  30              		@ args = 0, pretend = 0, frame = 8
  31              		@ frame_needed = 0, uses_anonymous_args = 0
  32              		.loc 1 877 1 is_stmt 0 view .LVU1
  33 0000 2DE9F04F 		push	{r4, r5, r6, r7, r8, r9, r10, fp, lr}
  34              	.LCFI0:
  35              		.cfi_def_cfa_offset 36
  36              		.cfi_offset 4, -36
ARM GAS  /tmp/ccqOegKq.s 			page 17


  37              		.cfi_offset 5, -32
  38              		.cfi_offset 6, -28
  39              		.cfi_offset 7, -24
  40              		.cfi_offset 8, -20
  41              		.cfi_offset 9, -16
  42              		.cfi_offset 10, -12
  43              		.cfi_offset 11, -8
  44              		.cfi_offset 14, -4
  45 0004 83B0     		sub	sp, sp, #12
  46              	.LCFI1:
  47              		.cfi_def_cfa_offset 48
  48 0006 0446     		mov	r4, r0
  49 0008 0E46     		mov	r6, r1
  50 000a 0192     		str	r2, [sp, #4]
 878:Middlewares/lvgl/src/widgets/lv_arc.c ****     lv_coord_t left_bg = lv_obj_get_style_pad_left(obj, LV_PART_MAIN);
  51              		.loc 1 878 5 is_stmt 1 view .LVU2
  52              	.LVL1:
  53              	.LBB75:
  54              	.LBI75:
  55              		.file 2 "Middlewares/lvgl/src/widgets/../core/lv_obj_style_gen.h"
   1:Middlewares/lvgl/src/widgets/../core/lv_obj_style_gen.h **** static inline lv_coord_t lv_obj_get_style_width(const struct _lv_obj_t * obj, uint32_t part)
   2:Middlewares/lvgl/src/widgets/../core/lv_obj_style_gen.h **** {
   3:Middlewares/lvgl/src/widgets/../core/lv_obj_style_gen.h ****     lv_style_value_t v = lv_obj_get_style_prop(obj, part, LV_STYLE_WIDTH);
   4:Middlewares/lvgl/src/widgets/../core/lv_obj_style_gen.h ****     return (lv_coord_t)v.num;
   5:Middlewares/lvgl/src/widgets/../core/lv_obj_style_gen.h **** }
   6:Middlewares/lvgl/src/widgets/../core/lv_obj_style_gen.h **** 
   7:Middlewares/lvgl/src/widgets/../core/lv_obj_style_gen.h **** static inline lv_coord_t lv_obj_get_style_min_width(const struct _lv_obj_t * obj, uint32_t part)
   8:Middlewares/lvgl/src/widgets/../core/lv_obj_style_gen.h **** {
   9:Middlewares/lvgl/src/widgets/../core/lv_obj_style_gen.h ****     lv_style_value_t v = lv_obj_get_style_prop(obj, part, LV_STYLE_MIN_WIDTH);
  10:Middlewares/lvgl/src/widgets/../core/lv_obj_style_gen.h ****     return (lv_coord_t)v.num;
  11:Middlewares/lvgl/src/widgets/../core/lv_obj_style_gen.h **** }
  12:Middlewares/lvgl/src/widgets/../core/lv_obj_style_gen.h **** 
  13:Middlewares/lvgl/src/widgets/../core/lv_obj_style_gen.h **** static inline lv_coord_t lv_obj_get_style_max_width(const struct _lv_obj_t * obj, uint32_t part)
  14:Middlewares/lvgl/src/widgets/../core/lv_obj_style_gen.h **** {
  15:Middlewares/lvgl/src/widgets/../core/lv_obj_style_gen.h ****     lv_style_value_t v = lv_obj_get_style_prop(obj, part, LV_STYLE_MAX_WIDTH);
  16:Middlewares/lvgl/src/widgets/../core/lv_obj_style_gen.h ****     return (lv_coord_t)v.num;
  17:Middlewares/lvgl/src/widgets/../core/lv_obj_style_gen.h **** }
  18:Middlewares/lvgl/src/widgets/../core/lv_obj_style_gen.h **** 
  19:Middlewares/lvgl/src/widgets/../core/lv_obj_style_gen.h **** static inline lv_coord_t lv_obj_get_style_height(const struct _lv_obj_t * obj, uint32_t part)
  20:Middlewares/lvgl/src/widgets/../core/lv_obj_style_gen.h **** {
  21:Middlewares/lvgl/src/widgets/../core/lv_obj_style_gen.h ****     lv_style_value_t v = lv_obj_get_style_prop(obj, part, LV_STYLE_HEIGHT);
  22:Middlewares/lvgl/src/widgets/../core/lv_obj_style_gen.h ****     return (lv_coord_t)v.num;
  23:Middlewares/lvgl/src/widgets/../core/lv_obj_style_gen.h **** }
  24:Middlewares/lvgl/src/widgets/../core/lv_obj_style_gen.h **** 
  25:Middlewares/lvgl/src/widgets/../core/lv_obj_style_gen.h **** static inline lv_coord_t lv_obj_get_style_min_height(const struct _lv_obj_t * obj, uint32_t part)
  26:Middlewares/lvgl/src/widgets/../core/lv_obj_style_gen.h **** {
  27:Middlewares/lvgl/src/widgets/../core/lv_obj_style_gen.h ****     lv_style_value_t v = lv_obj_get_style_prop(obj, part, LV_STYLE_MIN_HEIGHT);
  28:Middlewares/lvgl/src/widgets/../core/lv_obj_style_gen.h ****     return (lv_coord_t)v.num;
  29:Middlewares/lvgl/src/widgets/../core/lv_obj_style_gen.h **** }
  30:Middlewares/lvgl/src/widgets/../core/lv_obj_style_gen.h **** 
  31:Middlewares/lvgl/src/widgets/../core/lv_obj_style_gen.h **** static inline lv_coord_t lv_obj_get_style_max_height(const struct _lv_obj_t * obj, uint32_t part)
  32:Middlewares/lvgl/src/widgets/../core/lv_obj_style_gen.h **** {
  33:Middlewares/lvgl/src/widgets/../core/lv_obj_style_gen.h ****     lv_style_value_t v = lv_obj_get_style_prop(obj, part, LV_STYLE_MAX_HEIGHT);
  34:Middlewares/lvgl/src/widgets/../core/lv_obj_style_gen.h ****     return (lv_coord_t)v.num;
  35:Middlewares/lvgl/src/widgets/../core/lv_obj_style_gen.h **** }
  36:Middlewares/lvgl/src/widgets/../core/lv_obj_style_gen.h **** 
  37:Middlewares/lvgl/src/widgets/../core/lv_obj_style_gen.h **** static inline lv_coord_t lv_obj_get_style_x(const struct _lv_obj_t * obj, uint32_t part)
ARM GAS  /tmp/ccqOegKq.s 			page 18


  38:Middlewares/lvgl/src/widgets/../core/lv_obj_style_gen.h **** {
  39:Middlewares/lvgl/src/widgets/../core/lv_obj_style_gen.h ****     lv_style_value_t v = lv_obj_get_style_prop(obj, part, LV_STYLE_X);
  40:Middlewares/lvgl/src/widgets/../core/lv_obj_style_gen.h ****     return (lv_coord_t)v.num;
  41:Middlewares/lvgl/src/widgets/../core/lv_obj_style_gen.h **** }
  42:Middlewares/lvgl/src/widgets/../core/lv_obj_style_gen.h **** 
  43:Middlewares/lvgl/src/widgets/../core/lv_obj_style_gen.h **** static inline lv_coord_t lv_obj_get_style_y(const struct _lv_obj_t * obj, uint32_t part)
  44:Middlewares/lvgl/src/widgets/../core/lv_obj_style_gen.h **** {
  45:Middlewares/lvgl/src/widgets/../core/lv_obj_style_gen.h ****     lv_style_value_t v = lv_obj_get_style_prop(obj, part, LV_STYLE_Y);
  46:Middlewares/lvgl/src/widgets/../core/lv_obj_style_gen.h ****     return (lv_coord_t)v.num;
  47:Middlewares/lvgl/src/widgets/../core/lv_obj_style_gen.h **** }
  48:Middlewares/lvgl/src/widgets/../core/lv_obj_style_gen.h **** 
  49:Middlewares/lvgl/src/widgets/../core/lv_obj_style_gen.h **** static inline lv_align_t lv_obj_get_style_align(const struct _lv_obj_t * obj, uint32_t part)
  50:Middlewares/lvgl/src/widgets/../core/lv_obj_style_gen.h **** {
  51:Middlewares/lvgl/src/widgets/../core/lv_obj_style_gen.h ****     lv_style_value_t v = lv_obj_get_style_prop(obj, part, LV_STYLE_ALIGN);
  52:Middlewares/lvgl/src/widgets/../core/lv_obj_style_gen.h ****     return (lv_align_t)v.num;
  53:Middlewares/lvgl/src/widgets/../core/lv_obj_style_gen.h **** }
  54:Middlewares/lvgl/src/widgets/../core/lv_obj_style_gen.h **** 
  55:Middlewares/lvgl/src/widgets/../core/lv_obj_style_gen.h **** static inline lv_coord_t lv_obj_get_style_transform_width(const struct _lv_obj_t * obj, uint32_t pa
  56:Middlewares/lvgl/src/widgets/../core/lv_obj_style_gen.h **** {
  57:Middlewares/lvgl/src/widgets/../core/lv_obj_style_gen.h ****     lv_style_value_t v = lv_obj_get_style_prop(obj, part, LV_STYLE_TRANSFORM_WIDTH);
  58:Middlewares/lvgl/src/widgets/../core/lv_obj_style_gen.h ****     return (lv_coord_t)v.num;
  59:Middlewares/lvgl/src/widgets/../core/lv_obj_style_gen.h **** }
  60:Middlewares/lvgl/src/widgets/../core/lv_obj_style_gen.h **** 
  61:Middlewares/lvgl/src/widgets/../core/lv_obj_style_gen.h **** static inline lv_coord_t lv_obj_get_style_transform_height(const struct _lv_obj_t * obj, uint32_t p
  62:Middlewares/lvgl/src/widgets/../core/lv_obj_style_gen.h **** {
  63:Middlewares/lvgl/src/widgets/../core/lv_obj_style_gen.h ****     lv_style_value_t v = lv_obj_get_style_prop(obj, part, LV_STYLE_TRANSFORM_HEIGHT);
  64:Middlewares/lvgl/src/widgets/../core/lv_obj_style_gen.h ****     return (lv_coord_t)v.num;
  65:Middlewares/lvgl/src/widgets/../core/lv_obj_style_gen.h **** }
  66:Middlewares/lvgl/src/widgets/../core/lv_obj_style_gen.h **** 
  67:Middlewares/lvgl/src/widgets/../core/lv_obj_style_gen.h **** static inline lv_coord_t lv_obj_get_style_translate_x(const struct _lv_obj_t * obj, uint32_t part)
  68:Middlewares/lvgl/src/widgets/../core/lv_obj_style_gen.h **** {
  69:Middlewares/lvgl/src/widgets/../core/lv_obj_style_gen.h ****     lv_style_value_t v = lv_obj_get_style_prop(obj, part, LV_STYLE_TRANSLATE_X);
  70:Middlewares/lvgl/src/widgets/../core/lv_obj_style_gen.h ****     return (lv_coord_t)v.num;
  71:Middlewares/lvgl/src/widgets/../core/lv_obj_style_gen.h **** }
  72:Middlewares/lvgl/src/widgets/../core/lv_obj_style_gen.h **** 
  73:Middlewares/lvgl/src/widgets/../core/lv_obj_style_gen.h **** static inline lv_coord_t lv_obj_get_style_translate_y(const struct _lv_obj_t * obj, uint32_t part)
  74:Middlewares/lvgl/src/widgets/../core/lv_obj_style_gen.h **** {
  75:Middlewares/lvgl/src/widgets/../core/lv_obj_style_gen.h ****     lv_style_value_t v = lv_obj_get_style_prop(obj, part, LV_STYLE_TRANSLATE_Y);
  76:Middlewares/lvgl/src/widgets/../core/lv_obj_style_gen.h ****     return (lv_coord_t)v.num;
  77:Middlewares/lvgl/src/widgets/../core/lv_obj_style_gen.h **** }
  78:Middlewares/lvgl/src/widgets/../core/lv_obj_style_gen.h **** 
  79:Middlewares/lvgl/src/widgets/../core/lv_obj_style_gen.h **** static inline lv_coord_t lv_obj_get_style_transform_zoom(const struct _lv_obj_t * obj, uint32_t par
  80:Middlewares/lvgl/src/widgets/../core/lv_obj_style_gen.h **** {
  81:Middlewares/lvgl/src/widgets/../core/lv_obj_style_gen.h ****     lv_style_value_t v = lv_obj_get_style_prop(obj, part, LV_STYLE_TRANSFORM_ZOOM);
  82:Middlewares/lvgl/src/widgets/../core/lv_obj_style_gen.h ****     return (lv_coord_t)v.num;
  83:Middlewares/lvgl/src/widgets/../core/lv_obj_style_gen.h **** }
  84:Middlewares/lvgl/src/widgets/../core/lv_obj_style_gen.h **** 
  85:Middlewares/lvgl/src/widgets/../core/lv_obj_style_gen.h **** static inline lv_coord_t lv_obj_get_style_transform_angle(const struct _lv_obj_t * obj, uint32_t pa
  86:Middlewares/lvgl/src/widgets/../core/lv_obj_style_gen.h **** {
  87:Middlewares/lvgl/src/widgets/../core/lv_obj_style_gen.h ****     lv_style_value_t v = lv_obj_get_style_prop(obj, part, LV_STYLE_TRANSFORM_ANGLE);
  88:Middlewares/lvgl/src/widgets/../core/lv_obj_style_gen.h ****     return (lv_coord_t)v.num;
  89:Middlewares/lvgl/src/widgets/../core/lv_obj_style_gen.h **** }
  90:Middlewares/lvgl/src/widgets/../core/lv_obj_style_gen.h **** 
  91:Middlewares/lvgl/src/widgets/../core/lv_obj_style_gen.h **** static inline lv_coord_t lv_obj_get_style_pad_top(const struct _lv_obj_t * obj, uint32_t part)
  92:Middlewares/lvgl/src/widgets/../core/lv_obj_style_gen.h **** {
  93:Middlewares/lvgl/src/widgets/../core/lv_obj_style_gen.h ****     lv_style_value_t v = lv_obj_get_style_prop(obj, part, LV_STYLE_PAD_TOP);
  94:Middlewares/lvgl/src/widgets/../core/lv_obj_style_gen.h ****     return (lv_coord_t)v.num;
ARM GAS  /tmp/ccqOegKq.s 			page 19


  95:Middlewares/lvgl/src/widgets/../core/lv_obj_style_gen.h **** }
  96:Middlewares/lvgl/src/widgets/../core/lv_obj_style_gen.h **** 
  97:Middlewares/lvgl/src/widgets/../core/lv_obj_style_gen.h **** static inline lv_coord_t lv_obj_get_style_pad_bottom(const struct _lv_obj_t * obj, uint32_t part)
  98:Middlewares/lvgl/src/widgets/../core/lv_obj_style_gen.h **** {
  99:Middlewares/lvgl/src/widgets/../core/lv_obj_style_gen.h ****     lv_style_value_t v = lv_obj_get_style_prop(obj, part, LV_STYLE_PAD_BOTTOM);
 100:Middlewares/lvgl/src/widgets/../core/lv_obj_style_gen.h ****     return (lv_coord_t)v.num;
 101:Middlewares/lvgl/src/widgets/../core/lv_obj_style_gen.h **** }
 102:Middlewares/lvgl/src/widgets/../core/lv_obj_style_gen.h **** 
 103:Middlewares/lvgl/src/widgets/../core/lv_obj_style_gen.h **** static inline lv_coord_t lv_obj_get_style_pad_left(const struct _lv_obj_t * obj, uint32_t part)
  56              		.loc 2 103 26 view .LVU3
  57              	.LBB76:
 104:Middlewares/lvgl/src/widgets/../core/lv_obj_style_gen.h **** {
 105:Middlewares/lvgl/src/widgets/../core/lv_obj_style_gen.h ****     lv_style_value_t v = lv_obj_get_style_prop(obj, part, LV_STYLE_PAD_LEFT);
  58              		.loc 2 105 5 view .LVU4
  59              		.loc 2 105 26 is_stmt 0 view .LVU5
  60 000c 41F21202 		movw	r2, #4114
  61              	.LVL2:
  62              		.loc 2 105 26 view .LVU6
  63 0010 0021     		movs	r1, #0
  64              	.LVL3:
  65              		.loc 2 105 26 view .LVU7
  66 0012 FFF7FEFF 		bl	lv_obj_get_style_prop
  67              	.LVL4:
  68              		.loc 2 105 26 view .LVU8
  69 0016 0746     		mov	r7, r0
 106:Middlewares/lvgl/src/widgets/../core/lv_obj_style_gen.h ****     return (lv_coord_t)v.num;
  70              		.loc 2 106 5 is_stmt 1 view .LVU9
  71              		.loc 2 106 12 is_stmt 0 view .LVU10
  72 0018 0FFA80FB 		sxth	fp, r0
  73              	.LVL5:
  74              		.loc 2 106 12 view .LVU11
  75              	.LBE76:
  76              	.LBE75:
 879:Middlewares/lvgl/src/widgets/lv_arc.c ****     lv_coord_t right_bg = lv_obj_get_style_pad_right(obj, LV_PART_MAIN);
  77              		.loc 1 879 5 is_stmt 1 view .LVU12
  78              	.LBB77:
  79              	.LBI77:
 107:Middlewares/lvgl/src/widgets/../core/lv_obj_style_gen.h **** }
 108:Middlewares/lvgl/src/widgets/../core/lv_obj_style_gen.h **** 
 109:Middlewares/lvgl/src/widgets/../core/lv_obj_style_gen.h **** static inline lv_coord_t lv_obj_get_style_pad_right(const struct _lv_obj_t * obj, uint32_t part)
  80              		.loc 2 109 26 view .LVU13
  81              	.LBB78:
 110:Middlewares/lvgl/src/widgets/../core/lv_obj_style_gen.h **** {
 111:Middlewares/lvgl/src/widgets/../core/lv_obj_style_gen.h ****     lv_style_value_t v = lv_obj_get_style_prop(obj, part, LV_STYLE_PAD_RIGHT);
  82              		.loc 2 111 5 view .LVU14
  83              		.loc 2 111 26 is_stmt 0 view .LVU15
  84 001c 41F21302 		movw	r2, #4115
  85 0020 0021     		movs	r1, #0
  86 0022 2046     		mov	r0, r4
  87 0024 FFF7FEFF 		bl	lv_obj_get_style_prop
  88              	.LVL6:
 112:Middlewares/lvgl/src/widgets/../core/lv_obj_style_gen.h ****     return (lv_coord_t)v.num;
  89              		.loc 2 112 5 is_stmt 1 view .LVU16
  90              		.loc 2 112 12 is_stmt 0 view .LVU17
  91 0028 0FFA80F9 		sxth	r9, r0
  92              	.LVL7:
  93              		.loc 2 112 12 view .LVU18
ARM GAS  /tmp/ccqOegKq.s 			page 20


  94              	.LBE78:
  95              	.LBE77:
 880:Middlewares/lvgl/src/widgets/lv_arc.c ****     lv_coord_t top_bg = lv_obj_get_style_pad_top(obj, LV_PART_MAIN);
  96              		.loc 1 880 5 is_stmt 1 view .LVU19
  97              	.LBB79:
  98              	.LBI79:
  91:Middlewares/lvgl/src/widgets/../core/lv_obj_style_gen.h **** {
  99              		.loc 2 91 26 view .LVU20
 100              	.LBB80:
  93:Middlewares/lvgl/src/widgets/../core/lv_obj_style_gen.h ****     return (lv_coord_t)v.num;
 101              		.loc 2 93 5 view .LVU21
  93:Middlewares/lvgl/src/widgets/../core/lv_obj_style_gen.h ****     return (lv_coord_t)v.num;
 102              		.loc 2 93 26 is_stmt 0 view .LVU22
 103 002c 41F21002 		movw	r2, #4112
 104 0030 0021     		movs	r1, #0
 105 0032 2046     		mov	r0, r4
 106 0034 FFF7FEFF 		bl	lv_obj_get_style_prop
 107              	.LVL8:
 108 0038 0090     		str	r0, [sp]
  94:Middlewares/lvgl/src/widgets/../core/lv_obj_style_gen.h **** }
 109              		.loc 2 94 5 is_stmt 1 view .LVU23
  94:Middlewares/lvgl/src/widgets/../core/lv_obj_style_gen.h **** }
 110              		.loc 2 94 12 is_stmt 0 view .LVU24
 111 003a 0FFA80FA 		sxth	r10, r0
 112              	.LVL9:
  94:Middlewares/lvgl/src/widgets/../core/lv_obj_style_gen.h **** }
 113              		.loc 2 94 12 view .LVU25
 114              	.LBE80:
 115              	.LBE79:
 881:Middlewares/lvgl/src/widgets/lv_arc.c ****     lv_coord_t bottom_bg = lv_obj_get_style_pad_bottom(obj, LV_PART_MAIN);
 116              		.loc 1 881 5 is_stmt 1 view .LVU26
 117              	.LBB81:
 118              	.LBI81:
  97:Middlewares/lvgl/src/widgets/../core/lv_obj_style_gen.h **** {
 119              		.loc 2 97 26 view .LVU27
 120              	.LBB82:
  99:Middlewares/lvgl/src/widgets/../core/lv_obj_style_gen.h ****     return (lv_coord_t)v.num;
 121              		.loc 2 99 5 view .LVU28
  99:Middlewares/lvgl/src/widgets/../core/lv_obj_style_gen.h ****     return (lv_coord_t)v.num;
 122              		.loc 2 99 26 is_stmt 0 view .LVU29
 123 003e 41F21102 		movw	r2, #4113
 124 0042 0021     		movs	r1, #0
 125 0044 2046     		mov	r0, r4
 126 0046 FFF7FEFF 		bl	lv_obj_get_style_prop
 127              	.LVL10:
 100:Middlewares/lvgl/src/widgets/../core/lv_obj_style_gen.h **** }
 128              		.loc 2 100 5 is_stmt 1 view .LVU30
 100:Middlewares/lvgl/src/widgets/../core/lv_obj_style_gen.h **** }
 129              		.loc 2 100 12 is_stmt 0 view .LVU31
 130 004a 0FFA80F8 		sxth	r8, r0
 131              	.LVL11:
 100:Middlewares/lvgl/src/widgets/../core/lv_obj_style_gen.h **** }
 132              		.loc 2 100 12 view .LVU32
 133              	.LBE82:
 134              	.LBE81:
 882:Middlewares/lvgl/src/widgets/lv_arc.c **** 
 883:Middlewares/lvgl/src/widgets/lv_arc.c ****     lv_coord_t r = (LV_MIN(lv_obj_get_width(obj) - left_bg - right_bg,
ARM GAS  /tmp/ccqOegKq.s 			page 21


 135              		.loc 1 883 5 is_stmt 1 view .LVU33
 136              		.loc 1 883 21 is_stmt 0 view .LVU34
 137 004e 2046     		mov	r0, r4
 138 0050 FFF7FEFF 		bl	lv_obj_get_width
 139              	.LVL12:
 140 0054 A0EB0B05 		sub	r5, r0, fp
 141 0058 A5EB0905 		sub	r5, r5, r9
 142 005c 2046     		mov	r0, r4
 143 005e FFF7FEFF 		bl	lv_obj_get_height
 144              	.LVL13:
 145 0062 A0EB0A00 		sub	r0, r0, r10
 146 0066 A0EB0800 		sub	r0, r0, r8
 147              		.loc 1 883 16 view .LVU35
 148 006a 8542     		cmp	r5, r0
 149 006c 26DA     		bge	.L2
 150              		.loc 1 883 21 discriminator 1 view .LVU36
 151 006e 2046     		mov	r0, r4
 152 0070 FFF7FEFF 		bl	lv_obj_get_width
 153              	.LVL14:
 154 0074 A0EB0B0B 		sub	fp, r0, fp
 155              	.LVL15:
 884:Middlewares/lvgl/src/widgets/lv_arc.c ****                                 lv_obj_get_height(obj) - top_bg - bottom_bg)) / 2;
 156              		.loc 1 884 79 discriminator 1 view .LVU37
 157 0078 BBEB0908 		subs	r8, fp, r9
 158              	.LVL16:
 159              		.loc 1 884 79 discriminator 1 view .LVU38
 160 007c 1BD4     		bmi	.L7
 161              	.L3:
 883:Middlewares/lvgl/src/widgets/lv_arc.c ****                                 lv_obj_get_height(obj) - top_bg - bottom_bg)) / 2;
 162              		.loc 1 883 16 discriminator 1 view .LVU39
 163 007e 48F34F08 		sbfx	r8, r8, #1, #16
 164              	.LVL17:
 165              	.L4:
 885:Middlewares/lvgl/src/widgets/lv_arc.c **** 
 886:Middlewares/lvgl/src/widgets/lv_arc.c ****     *arc_r = r;
 166              		.loc 1 886 5 is_stmt 1 discriminator 4 view .LVU40
 167              		.loc 1 886 12 is_stmt 0 discriminator 4 view .LVU41
 168 0082 019B     		ldr	r3, [sp, #4]
 169 0084 A3F80080 		strh	r8, [r3]	@ movhi
 887:Middlewares/lvgl/src/widgets/lv_arc.c ****     center->x = obj->coords.x1 + r + left_bg;
 170              		.loc 1 887 5 is_stmt 1 discriminator 4 view .LVU42
 171              		.loc 1 887 28 is_stmt 0 discriminator 4 view .LVU43
 172 0088 A08A     		ldrh	r0, [r4, #20]
 173              		.loc 1 887 32 discriminator 4 view .LVU44
 174 008a 1FFA88F8 		uxth	r8, r8
 175              	.LVL18:
 176              		.loc 1 887 32 discriminator 4 view .LVU45
 177 008e 4044     		add	r0, r0, r8
 178              		.loc 1 887 36 discriminator 4 view .LVU46
 179 0090 17FA80F7 		uxtah	r7, r7, r0
 180              		.loc 1 887 15 discriminator 4 view .LVU47
 181 0094 3780     		strh	r7, [r6]	@ movhi
 182              	.LVL19:
 888:Middlewares/lvgl/src/widgets/lv_arc.c ****     center->y = obj->coords.y1 + r + top_bg;
 183              		.loc 1 888 5 is_stmt 1 discriminator 4 view .LVU48
 184              		.loc 1 888 28 is_stmt 0 discriminator 4 view .LVU49
 185 0096 E08A     		ldrh	r0, [r4, #22]
ARM GAS  /tmp/ccqOegKq.s 			page 22


 186              		.loc 1 888 32 discriminator 4 view .LVU50
 187 0098 8044     		add	r8, r8, r0
 188              	.LVL20:
 189              		.loc 1 888 36 discriminator 4 view .LVU51
 190 009a 009B     		ldr	r3, [sp]
 191 009c 13FA88F0 		uxtah	r0, r3, r8
 192              		.loc 1 888 15 discriminator 4 view .LVU52
 193 00a0 7080     		strh	r0, [r6, #2]	@ movhi
 889:Middlewares/lvgl/src/widgets/lv_arc.c **** 
 890:Middlewares/lvgl/src/widgets/lv_arc.c ****     lv_coord_t indic_width = lv_obj_get_style_arc_width(obj, LV_PART_INDICATOR);
 194              		.loc 1 890 5 is_stmt 1 discriminator 4 view .LVU53
 195              	.LVL21:
 196              	.LBB83:
 197              	.LBI83:
 113:Middlewares/lvgl/src/widgets/../core/lv_obj_style_gen.h **** }
 114:Middlewares/lvgl/src/widgets/../core/lv_obj_style_gen.h **** 
 115:Middlewares/lvgl/src/widgets/../core/lv_obj_style_gen.h **** static inline lv_coord_t lv_obj_get_style_pad_row(const struct _lv_obj_t * obj, uint32_t part)
 116:Middlewares/lvgl/src/widgets/../core/lv_obj_style_gen.h **** {
 117:Middlewares/lvgl/src/widgets/../core/lv_obj_style_gen.h ****     lv_style_value_t v = lv_obj_get_style_prop(obj, part, LV_STYLE_PAD_ROW);
 118:Middlewares/lvgl/src/widgets/../core/lv_obj_style_gen.h ****     return (lv_coord_t)v.num;
 119:Middlewares/lvgl/src/widgets/../core/lv_obj_style_gen.h **** }
 120:Middlewares/lvgl/src/widgets/../core/lv_obj_style_gen.h **** 
 121:Middlewares/lvgl/src/widgets/../core/lv_obj_style_gen.h **** static inline lv_coord_t lv_obj_get_style_pad_column(const struct _lv_obj_t * obj, uint32_t part)
 122:Middlewares/lvgl/src/widgets/../core/lv_obj_style_gen.h **** {
 123:Middlewares/lvgl/src/widgets/../core/lv_obj_style_gen.h ****     lv_style_value_t v = lv_obj_get_style_prop(obj, part, LV_STYLE_PAD_COLUMN);
 124:Middlewares/lvgl/src/widgets/../core/lv_obj_style_gen.h ****     return (lv_coord_t)v.num;
 125:Middlewares/lvgl/src/widgets/../core/lv_obj_style_gen.h **** }
 126:Middlewares/lvgl/src/widgets/../core/lv_obj_style_gen.h **** 
 127:Middlewares/lvgl/src/widgets/../core/lv_obj_style_gen.h **** static inline lv_coord_t lv_obj_get_style_radius(const struct _lv_obj_t * obj, uint32_t part)
 128:Middlewares/lvgl/src/widgets/../core/lv_obj_style_gen.h **** {
 129:Middlewares/lvgl/src/widgets/../core/lv_obj_style_gen.h ****     lv_style_value_t v = lv_obj_get_style_prop(obj, part, LV_STYLE_RADIUS);
 130:Middlewares/lvgl/src/widgets/../core/lv_obj_style_gen.h ****     return (lv_coord_t)v.num;
 131:Middlewares/lvgl/src/widgets/../core/lv_obj_style_gen.h **** }
 132:Middlewares/lvgl/src/widgets/../core/lv_obj_style_gen.h **** 
 133:Middlewares/lvgl/src/widgets/../core/lv_obj_style_gen.h **** static inline bool lv_obj_get_style_clip_corner(const struct _lv_obj_t * obj, uint32_t part)
 134:Middlewares/lvgl/src/widgets/../core/lv_obj_style_gen.h **** {
 135:Middlewares/lvgl/src/widgets/../core/lv_obj_style_gen.h ****     lv_style_value_t v = lv_obj_get_style_prop(obj, part, LV_STYLE_CLIP_CORNER);
 136:Middlewares/lvgl/src/widgets/../core/lv_obj_style_gen.h ****     return (bool)v.num;
 137:Middlewares/lvgl/src/widgets/../core/lv_obj_style_gen.h **** }
 138:Middlewares/lvgl/src/widgets/../core/lv_obj_style_gen.h **** 
 139:Middlewares/lvgl/src/widgets/../core/lv_obj_style_gen.h **** static inline lv_opa_t lv_obj_get_style_opa(const struct _lv_obj_t * obj, uint32_t part)
 140:Middlewares/lvgl/src/widgets/../core/lv_obj_style_gen.h **** {
 141:Middlewares/lvgl/src/widgets/../core/lv_obj_style_gen.h ****     lv_style_value_t v = lv_obj_get_style_prop(obj, part, LV_STYLE_OPA);
 142:Middlewares/lvgl/src/widgets/../core/lv_obj_style_gen.h ****     return (lv_opa_t)v.num;
 143:Middlewares/lvgl/src/widgets/../core/lv_obj_style_gen.h **** }
 144:Middlewares/lvgl/src/widgets/../core/lv_obj_style_gen.h **** 
 145:Middlewares/lvgl/src/widgets/../core/lv_obj_style_gen.h **** static inline const lv_color_filter_dsc_t * lv_obj_get_style_color_filter_dsc(const struct _lv_obj_
 146:Middlewares/lvgl/src/widgets/../core/lv_obj_style_gen.h **** {
 147:Middlewares/lvgl/src/widgets/../core/lv_obj_style_gen.h ****     lv_style_value_t v = lv_obj_get_style_prop(obj, part, LV_STYLE_COLOR_FILTER_DSC);
 148:Middlewares/lvgl/src/widgets/../core/lv_obj_style_gen.h ****     return (const lv_color_filter_dsc_t *)v.ptr;
 149:Middlewares/lvgl/src/widgets/../core/lv_obj_style_gen.h **** }
 150:Middlewares/lvgl/src/widgets/../core/lv_obj_style_gen.h **** 
 151:Middlewares/lvgl/src/widgets/../core/lv_obj_style_gen.h **** static inline lv_opa_t lv_obj_get_style_color_filter_opa(const struct _lv_obj_t * obj, uint32_t par
 152:Middlewares/lvgl/src/widgets/../core/lv_obj_style_gen.h **** {
 153:Middlewares/lvgl/src/widgets/../core/lv_obj_style_gen.h ****     lv_style_value_t v = lv_obj_get_style_prop(obj, part, LV_STYLE_COLOR_FILTER_OPA);
 154:Middlewares/lvgl/src/widgets/../core/lv_obj_style_gen.h ****     return (lv_opa_t)v.num;
 155:Middlewares/lvgl/src/widgets/../core/lv_obj_style_gen.h **** }
ARM GAS  /tmp/ccqOegKq.s 			page 23


 156:Middlewares/lvgl/src/widgets/../core/lv_obj_style_gen.h **** 
 157:Middlewares/lvgl/src/widgets/../core/lv_obj_style_gen.h **** static inline uint32_t lv_obj_get_style_anim_time(const struct _lv_obj_t * obj, uint32_t part)
 158:Middlewares/lvgl/src/widgets/../core/lv_obj_style_gen.h **** {
 159:Middlewares/lvgl/src/widgets/../core/lv_obj_style_gen.h ****     lv_style_value_t v = lv_obj_get_style_prop(obj, part, LV_STYLE_ANIM_TIME);
 160:Middlewares/lvgl/src/widgets/../core/lv_obj_style_gen.h ****     return (uint32_t)v.num;
 161:Middlewares/lvgl/src/widgets/../core/lv_obj_style_gen.h **** }
 162:Middlewares/lvgl/src/widgets/../core/lv_obj_style_gen.h **** 
 163:Middlewares/lvgl/src/widgets/../core/lv_obj_style_gen.h **** static inline uint32_t lv_obj_get_style_anim_speed(const struct _lv_obj_t * obj, uint32_t part)
 164:Middlewares/lvgl/src/widgets/../core/lv_obj_style_gen.h **** {
 165:Middlewares/lvgl/src/widgets/../core/lv_obj_style_gen.h ****     lv_style_value_t v = lv_obj_get_style_prop(obj, part, LV_STYLE_ANIM_SPEED);
 166:Middlewares/lvgl/src/widgets/../core/lv_obj_style_gen.h ****     return (uint32_t)v.num;
 167:Middlewares/lvgl/src/widgets/../core/lv_obj_style_gen.h **** }
 168:Middlewares/lvgl/src/widgets/../core/lv_obj_style_gen.h **** 
 169:Middlewares/lvgl/src/widgets/../core/lv_obj_style_gen.h **** static inline const lv_style_transition_dsc_t * lv_obj_get_style_transition(const struct _lv_obj_t 
 170:Middlewares/lvgl/src/widgets/../core/lv_obj_style_gen.h **** {
 171:Middlewares/lvgl/src/widgets/../core/lv_obj_style_gen.h ****     lv_style_value_t v = lv_obj_get_style_prop(obj, part, LV_STYLE_TRANSITION);
 172:Middlewares/lvgl/src/widgets/../core/lv_obj_style_gen.h ****     return (const lv_style_transition_dsc_t *)v.ptr;
 173:Middlewares/lvgl/src/widgets/../core/lv_obj_style_gen.h **** }
 174:Middlewares/lvgl/src/widgets/../core/lv_obj_style_gen.h **** 
 175:Middlewares/lvgl/src/widgets/../core/lv_obj_style_gen.h **** static inline lv_blend_mode_t lv_obj_get_style_blend_mode(const struct _lv_obj_t * obj, uint32_t pa
 176:Middlewares/lvgl/src/widgets/../core/lv_obj_style_gen.h **** {
 177:Middlewares/lvgl/src/widgets/../core/lv_obj_style_gen.h ****     lv_style_value_t v = lv_obj_get_style_prop(obj, part, LV_STYLE_BLEND_MODE);
 178:Middlewares/lvgl/src/widgets/../core/lv_obj_style_gen.h ****     return (lv_blend_mode_t)v.num;
 179:Middlewares/lvgl/src/widgets/../core/lv_obj_style_gen.h **** }
 180:Middlewares/lvgl/src/widgets/../core/lv_obj_style_gen.h **** 
 181:Middlewares/lvgl/src/widgets/../core/lv_obj_style_gen.h **** static inline uint16_t lv_obj_get_style_layout(const struct _lv_obj_t * obj, uint32_t part)
 182:Middlewares/lvgl/src/widgets/../core/lv_obj_style_gen.h **** {
 183:Middlewares/lvgl/src/widgets/../core/lv_obj_style_gen.h ****     lv_style_value_t v = lv_obj_get_style_prop(obj, part, LV_STYLE_LAYOUT);
 184:Middlewares/lvgl/src/widgets/../core/lv_obj_style_gen.h ****     return (uint16_t)v.num;
 185:Middlewares/lvgl/src/widgets/../core/lv_obj_style_gen.h **** }
 186:Middlewares/lvgl/src/widgets/../core/lv_obj_style_gen.h **** 
 187:Middlewares/lvgl/src/widgets/../core/lv_obj_style_gen.h **** static inline lv_base_dir_t lv_obj_get_style_base_dir(const struct _lv_obj_t * obj, uint32_t part)
 188:Middlewares/lvgl/src/widgets/../core/lv_obj_style_gen.h **** {
 189:Middlewares/lvgl/src/widgets/../core/lv_obj_style_gen.h ****     lv_style_value_t v = lv_obj_get_style_prop(obj, part, LV_STYLE_BASE_DIR);
 190:Middlewares/lvgl/src/widgets/../core/lv_obj_style_gen.h ****     return (lv_base_dir_t)v.num;
 191:Middlewares/lvgl/src/widgets/../core/lv_obj_style_gen.h **** }
 192:Middlewares/lvgl/src/widgets/../core/lv_obj_style_gen.h **** 
 193:Middlewares/lvgl/src/widgets/../core/lv_obj_style_gen.h **** static inline lv_color_t lv_obj_get_style_bg_color(const struct _lv_obj_t * obj, uint32_t part)
 194:Middlewares/lvgl/src/widgets/../core/lv_obj_style_gen.h **** {
 195:Middlewares/lvgl/src/widgets/../core/lv_obj_style_gen.h ****     lv_style_value_t v = lv_obj_get_style_prop(obj, part, LV_STYLE_BG_COLOR);
 196:Middlewares/lvgl/src/widgets/../core/lv_obj_style_gen.h ****     return v.color;
 197:Middlewares/lvgl/src/widgets/../core/lv_obj_style_gen.h **** }
 198:Middlewares/lvgl/src/widgets/../core/lv_obj_style_gen.h **** 
 199:Middlewares/lvgl/src/widgets/../core/lv_obj_style_gen.h **** static inline lv_color_t lv_obj_get_style_bg_color_filtered(const struct _lv_obj_t * obj, uint32_t 
 200:Middlewares/lvgl/src/widgets/../core/lv_obj_style_gen.h **** {
 201:Middlewares/lvgl/src/widgets/../core/lv_obj_style_gen.h ****     lv_style_value_t v = lv_obj_get_style_prop(obj, part, LV_STYLE_BG_COLOR_FILTERED);
 202:Middlewares/lvgl/src/widgets/../core/lv_obj_style_gen.h ****     return v.color;
 203:Middlewares/lvgl/src/widgets/../core/lv_obj_style_gen.h **** }
 204:Middlewares/lvgl/src/widgets/../core/lv_obj_style_gen.h **** 
 205:Middlewares/lvgl/src/widgets/../core/lv_obj_style_gen.h **** static inline lv_opa_t lv_obj_get_style_bg_opa(const struct _lv_obj_t * obj, uint32_t part)
 206:Middlewares/lvgl/src/widgets/../core/lv_obj_style_gen.h **** {
 207:Middlewares/lvgl/src/widgets/../core/lv_obj_style_gen.h ****     lv_style_value_t v = lv_obj_get_style_prop(obj, part, LV_STYLE_BG_OPA);
 208:Middlewares/lvgl/src/widgets/../core/lv_obj_style_gen.h ****     return (lv_opa_t)v.num;
 209:Middlewares/lvgl/src/widgets/../core/lv_obj_style_gen.h **** }
 210:Middlewares/lvgl/src/widgets/../core/lv_obj_style_gen.h **** 
 211:Middlewares/lvgl/src/widgets/../core/lv_obj_style_gen.h **** static inline lv_color_t lv_obj_get_style_bg_grad_color(const struct _lv_obj_t * obj, uint32_t part
 212:Middlewares/lvgl/src/widgets/../core/lv_obj_style_gen.h **** {
ARM GAS  /tmp/ccqOegKq.s 			page 24


 213:Middlewares/lvgl/src/widgets/../core/lv_obj_style_gen.h ****     lv_style_value_t v = lv_obj_get_style_prop(obj, part, LV_STYLE_BG_GRAD_COLOR);
 214:Middlewares/lvgl/src/widgets/../core/lv_obj_style_gen.h ****     return v.color;
 215:Middlewares/lvgl/src/widgets/../core/lv_obj_style_gen.h **** }
 216:Middlewares/lvgl/src/widgets/../core/lv_obj_style_gen.h **** 
 217:Middlewares/lvgl/src/widgets/../core/lv_obj_style_gen.h **** static inline lv_color_t lv_obj_get_style_bg_grad_color_filtered(const struct _lv_obj_t * obj, uint
 218:Middlewares/lvgl/src/widgets/../core/lv_obj_style_gen.h **** {
 219:Middlewares/lvgl/src/widgets/../core/lv_obj_style_gen.h ****     lv_style_value_t v = lv_obj_get_style_prop(obj, part, LV_STYLE_BG_GRAD_COLOR_FILTERED);
 220:Middlewares/lvgl/src/widgets/../core/lv_obj_style_gen.h ****     return v.color;
 221:Middlewares/lvgl/src/widgets/../core/lv_obj_style_gen.h **** }
 222:Middlewares/lvgl/src/widgets/../core/lv_obj_style_gen.h **** 
 223:Middlewares/lvgl/src/widgets/../core/lv_obj_style_gen.h **** static inline lv_grad_dir_t lv_obj_get_style_bg_grad_dir(const struct _lv_obj_t * obj, uint32_t par
 224:Middlewares/lvgl/src/widgets/../core/lv_obj_style_gen.h **** {
 225:Middlewares/lvgl/src/widgets/../core/lv_obj_style_gen.h ****     lv_style_value_t v = lv_obj_get_style_prop(obj, part, LV_STYLE_BG_GRAD_DIR);
 226:Middlewares/lvgl/src/widgets/../core/lv_obj_style_gen.h ****     return (lv_grad_dir_t)v.num;
 227:Middlewares/lvgl/src/widgets/../core/lv_obj_style_gen.h **** }
 228:Middlewares/lvgl/src/widgets/../core/lv_obj_style_gen.h **** 
 229:Middlewares/lvgl/src/widgets/../core/lv_obj_style_gen.h **** static inline lv_coord_t lv_obj_get_style_bg_main_stop(const struct _lv_obj_t * obj, uint32_t part)
 230:Middlewares/lvgl/src/widgets/../core/lv_obj_style_gen.h **** {
 231:Middlewares/lvgl/src/widgets/../core/lv_obj_style_gen.h ****     lv_style_value_t v = lv_obj_get_style_prop(obj, part, LV_STYLE_BG_MAIN_STOP);
 232:Middlewares/lvgl/src/widgets/../core/lv_obj_style_gen.h ****     return (lv_coord_t)v.num;
 233:Middlewares/lvgl/src/widgets/../core/lv_obj_style_gen.h **** }
 234:Middlewares/lvgl/src/widgets/../core/lv_obj_style_gen.h **** 
 235:Middlewares/lvgl/src/widgets/../core/lv_obj_style_gen.h **** static inline lv_coord_t lv_obj_get_style_bg_grad_stop(const struct _lv_obj_t * obj, uint32_t part)
 236:Middlewares/lvgl/src/widgets/../core/lv_obj_style_gen.h **** {
 237:Middlewares/lvgl/src/widgets/../core/lv_obj_style_gen.h ****     lv_style_value_t v = lv_obj_get_style_prop(obj, part, LV_STYLE_BG_GRAD_STOP);
 238:Middlewares/lvgl/src/widgets/../core/lv_obj_style_gen.h ****     return (lv_coord_t)v.num;
 239:Middlewares/lvgl/src/widgets/../core/lv_obj_style_gen.h **** }
 240:Middlewares/lvgl/src/widgets/../core/lv_obj_style_gen.h **** 
 241:Middlewares/lvgl/src/widgets/../core/lv_obj_style_gen.h **** static inline const void * lv_obj_get_style_bg_img_src(const struct _lv_obj_t * obj, uint32_t part)
 242:Middlewares/lvgl/src/widgets/../core/lv_obj_style_gen.h **** {
 243:Middlewares/lvgl/src/widgets/../core/lv_obj_style_gen.h ****     lv_style_value_t v = lv_obj_get_style_prop(obj, part, LV_STYLE_BG_IMG_SRC);
 244:Middlewares/lvgl/src/widgets/../core/lv_obj_style_gen.h ****     return (const void *)v.ptr;
 245:Middlewares/lvgl/src/widgets/../core/lv_obj_style_gen.h **** }
 246:Middlewares/lvgl/src/widgets/../core/lv_obj_style_gen.h **** 
 247:Middlewares/lvgl/src/widgets/../core/lv_obj_style_gen.h **** static inline lv_opa_t lv_obj_get_style_bg_img_opa(const struct _lv_obj_t * obj, uint32_t part)
 248:Middlewares/lvgl/src/widgets/../core/lv_obj_style_gen.h **** {
 249:Middlewares/lvgl/src/widgets/../core/lv_obj_style_gen.h ****     lv_style_value_t v = lv_obj_get_style_prop(obj, part, LV_STYLE_BG_IMG_OPA);
 250:Middlewares/lvgl/src/widgets/../core/lv_obj_style_gen.h ****     return (lv_opa_t)v.num;
 251:Middlewares/lvgl/src/widgets/../core/lv_obj_style_gen.h **** }
 252:Middlewares/lvgl/src/widgets/../core/lv_obj_style_gen.h **** 
 253:Middlewares/lvgl/src/widgets/../core/lv_obj_style_gen.h **** static inline lv_color_t lv_obj_get_style_bg_img_recolor(const struct _lv_obj_t * obj, uint32_t par
 254:Middlewares/lvgl/src/widgets/../core/lv_obj_style_gen.h **** {
 255:Middlewares/lvgl/src/widgets/../core/lv_obj_style_gen.h ****     lv_style_value_t v = lv_obj_get_style_prop(obj, part, LV_STYLE_BG_IMG_RECOLOR);
 256:Middlewares/lvgl/src/widgets/../core/lv_obj_style_gen.h ****     return v.color;
 257:Middlewares/lvgl/src/widgets/../core/lv_obj_style_gen.h **** }
 258:Middlewares/lvgl/src/widgets/../core/lv_obj_style_gen.h **** 
 259:Middlewares/lvgl/src/widgets/../core/lv_obj_style_gen.h **** static inline lv_color_t lv_obj_get_style_bg_img_recolor_filtered(const struct _lv_obj_t * obj, uin
 260:Middlewares/lvgl/src/widgets/../core/lv_obj_style_gen.h **** {
 261:Middlewares/lvgl/src/widgets/../core/lv_obj_style_gen.h ****     lv_style_value_t v = lv_obj_get_style_prop(obj, part, LV_STYLE_BG_IMG_RECOLOR_FILTERED);
 262:Middlewares/lvgl/src/widgets/../core/lv_obj_style_gen.h ****     return v.color;
 263:Middlewares/lvgl/src/widgets/../core/lv_obj_style_gen.h **** }
 264:Middlewares/lvgl/src/widgets/../core/lv_obj_style_gen.h **** 
 265:Middlewares/lvgl/src/widgets/../core/lv_obj_style_gen.h **** static inline lv_opa_t lv_obj_get_style_bg_img_recolor_opa(const struct _lv_obj_t * obj, uint32_t p
 266:Middlewares/lvgl/src/widgets/../core/lv_obj_style_gen.h **** {
 267:Middlewares/lvgl/src/widgets/../core/lv_obj_style_gen.h ****     lv_style_value_t v = lv_obj_get_style_prop(obj, part, LV_STYLE_BG_IMG_RECOLOR_OPA);
 268:Middlewares/lvgl/src/widgets/../core/lv_obj_style_gen.h ****     return (lv_opa_t)v.num;
 269:Middlewares/lvgl/src/widgets/../core/lv_obj_style_gen.h **** }
ARM GAS  /tmp/ccqOegKq.s 			page 25


 270:Middlewares/lvgl/src/widgets/../core/lv_obj_style_gen.h **** 
 271:Middlewares/lvgl/src/widgets/../core/lv_obj_style_gen.h **** static inline bool lv_obj_get_style_bg_img_tiled(const struct _lv_obj_t * obj, uint32_t part)
 272:Middlewares/lvgl/src/widgets/../core/lv_obj_style_gen.h **** {
 273:Middlewares/lvgl/src/widgets/../core/lv_obj_style_gen.h ****     lv_style_value_t v = lv_obj_get_style_prop(obj, part, LV_STYLE_BG_IMG_TILED);
 274:Middlewares/lvgl/src/widgets/../core/lv_obj_style_gen.h ****     return (bool)v.num;
 275:Middlewares/lvgl/src/widgets/../core/lv_obj_style_gen.h **** }
 276:Middlewares/lvgl/src/widgets/../core/lv_obj_style_gen.h **** 
 277:Middlewares/lvgl/src/widgets/../core/lv_obj_style_gen.h **** static inline lv_color_t lv_obj_get_style_border_color(const struct _lv_obj_t * obj, uint32_t part)
 278:Middlewares/lvgl/src/widgets/../core/lv_obj_style_gen.h **** {
 279:Middlewares/lvgl/src/widgets/../core/lv_obj_style_gen.h ****     lv_style_value_t v = lv_obj_get_style_prop(obj, part, LV_STYLE_BORDER_COLOR);
 280:Middlewares/lvgl/src/widgets/../core/lv_obj_style_gen.h ****     return v.color;
 281:Middlewares/lvgl/src/widgets/../core/lv_obj_style_gen.h **** }
 282:Middlewares/lvgl/src/widgets/../core/lv_obj_style_gen.h **** 
 283:Middlewares/lvgl/src/widgets/../core/lv_obj_style_gen.h **** static inline lv_color_t lv_obj_get_style_border_color_filtered(const struct _lv_obj_t * obj, uint3
 284:Middlewares/lvgl/src/widgets/../core/lv_obj_style_gen.h **** {
 285:Middlewares/lvgl/src/widgets/../core/lv_obj_style_gen.h ****     lv_style_value_t v = lv_obj_get_style_prop(obj, part, LV_STYLE_BORDER_COLOR_FILTERED);
 286:Middlewares/lvgl/src/widgets/../core/lv_obj_style_gen.h ****     return v.color;
 287:Middlewares/lvgl/src/widgets/../core/lv_obj_style_gen.h **** }
 288:Middlewares/lvgl/src/widgets/../core/lv_obj_style_gen.h **** 
 289:Middlewares/lvgl/src/widgets/../core/lv_obj_style_gen.h **** static inline lv_opa_t lv_obj_get_style_border_opa(const struct _lv_obj_t * obj, uint32_t part)
 290:Middlewares/lvgl/src/widgets/../core/lv_obj_style_gen.h **** {
 291:Middlewares/lvgl/src/widgets/../core/lv_obj_style_gen.h ****     lv_style_value_t v = lv_obj_get_style_prop(obj, part, LV_STYLE_BORDER_OPA);
 292:Middlewares/lvgl/src/widgets/../core/lv_obj_style_gen.h ****     return (lv_opa_t)v.num;
 293:Middlewares/lvgl/src/widgets/../core/lv_obj_style_gen.h **** }
 294:Middlewares/lvgl/src/widgets/../core/lv_obj_style_gen.h **** 
 295:Middlewares/lvgl/src/widgets/../core/lv_obj_style_gen.h **** static inline lv_coord_t lv_obj_get_style_border_width(const struct _lv_obj_t * obj, uint32_t part)
 296:Middlewares/lvgl/src/widgets/../core/lv_obj_style_gen.h **** {
 297:Middlewares/lvgl/src/widgets/../core/lv_obj_style_gen.h ****     lv_style_value_t v = lv_obj_get_style_prop(obj, part, LV_STYLE_BORDER_WIDTH);
 298:Middlewares/lvgl/src/widgets/../core/lv_obj_style_gen.h ****     return (lv_coord_t)v.num;
 299:Middlewares/lvgl/src/widgets/../core/lv_obj_style_gen.h **** }
 300:Middlewares/lvgl/src/widgets/../core/lv_obj_style_gen.h **** 
 301:Middlewares/lvgl/src/widgets/../core/lv_obj_style_gen.h **** static inline lv_border_side_t lv_obj_get_style_border_side(const struct _lv_obj_t * obj, uint32_t 
 302:Middlewares/lvgl/src/widgets/../core/lv_obj_style_gen.h **** {
 303:Middlewares/lvgl/src/widgets/../core/lv_obj_style_gen.h ****     lv_style_value_t v = lv_obj_get_style_prop(obj, part, LV_STYLE_BORDER_SIDE);
 304:Middlewares/lvgl/src/widgets/../core/lv_obj_style_gen.h ****     return (lv_border_side_t)v.num;
 305:Middlewares/lvgl/src/widgets/../core/lv_obj_style_gen.h **** }
 306:Middlewares/lvgl/src/widgets/../core/lv_obj_style_gen.h **** 
 307:Middlewares/lvgl/src/widgets/../core/lv_obj_style_gen.h **** static inline bool lv_obj_get_style_border_post(const struct _lv_obj_t * obj, uint32_t part)
 308:Middlewares/lvgl/src/widgets/../core/lv_obj_style_gen.h **** {
 309:Middlewares/lvgl/src/widgets/../core/lv_obj_style_gen.h ****     lv_style_value_t v = lv_obj_get_style_prop(obj, part, LV_STYLE_BORDER_POST);
 310:Middlewares/lvgl/src/widgets/../core/lv_obj_style_gen.h ****     return (bool)v.num;
 311:Middlewares/lvgl/src/widgets/../core/lv_obj_style_gen.h **** }
 312:Middlewares/lvgl/src/widgets/../core/lv_obj_style_gen.h **** 
 313:Middlewares/lvgl/src/widgets/../core/lv_obj_style_gen.h **** static inline lv_color_t lv_obj_get_style_text_color(const struct _lv_obj_t * obj, uint32_t part)
 314:Middlewares/lvgl/src/widgets/../core/lv_obj_style_gen.h **** {
 315:Middlewares/lvgl/src/widgets/../core/lv_obj_style_gen.h ****     lv_style_value_t v = lv_obj_get_style_prop(obj, part, LV_STYLE_TEXT_COLOR);
 316:Middlewares/lvgl/src/widgets/../core/lv_obj_style_gen.h ****     return v.color;
 317:Middlewares/lvgl/src/widgets/../core/lv_obj_style_gen.h **** }
 318:Middlewares/lvgl/src/widgets/../core/lv_obj_style_gen.h **** 
 319:Middlewares/lvgl/src/widgets/../core/lv_obj_style_gen.h **** static inline lv_color_t lv_obj_get_style_text_color_filtered(const struct _lv_obj_t * obj, uint32_
 320:Middlewares/lvgl/src/widgets/../core/lv_obj_style_gen.h **** {
 321:Middlewares/lvgl/src/widgets/../core/lv_obj_style_gen.h ****     lv_style_value_t v = lv_obj_get_style_prop(obj, part, LV_STYLE_TEXT_COLOR_FILTERED);
 322:Middlewares/lvgl/src/widgets/../core/lv_obj_style_gen.h ****     return v.color;
 323:Middlewares/lvgl/src/widgets/../core/lv_obj_style_gen.h **** }
 324:Middlewares/lvgl/src/widgets/../core/lv_obj_style_gen.h **** 
 325:Middlewares/lvgl/src/widgets/../core/lv_obj_style_gen.h **** static inline lv_opa_t lv_obj_get_style_text_opa(const struct _lv_obj_t * obj, uint32_t part)
 326:Middlewares/lvgl/src/widgets/../core/lv_obj_style_gen.h **** {
ARM GAS  /tmp/ccqOegKq.s 			page 26


 327:Middlewares/lvgl/src/widgets/../core/lv_obj_style_gen.h ****     lv_style_value_t v = lv_obj_get_style_prop(obj, part, LV_STYLE_TEXT_OPA);
 328:Middlewares/lvgl/src/widgets/../core/lv_obj_style_gen.h ****     return (lv_opa_t)v.num;
 329:Middlewares/lvgl/src/widgets/../core/lv_obj_style_gen.h **** }
 330:Middlewares/lvgl/src/widgets/../core/lv_obj_style_gen.h **** 
 331:Middlewares/lvgl/src/widgets/../core/lv_obj_style_gen.h **** static inline const lv_font_t * lv_obj_get_style_text_font(const struct _lv_obj_t * obj, uint32_t p
 332:Middlewares/lvgl/src/widgets/../core/lv_obj_style_gen.h **** {
 333:Middlewares/lvgl/src/widgets/../core/lv_obj_style_gen.h ****     lv_style_value_t v = lv_obj_get_style_prop(obj, part, LV_STYLE_TEXT_FONT);
 334:Middlewares/lvgl/src/widgets/../core/lv_obj_style_gen.h ****     return (const lv_font_t *)v.ptr;
 335:Middlewares/lvgl/src/widgets/../core/lv_obj_style_gen.h **** }
 336:Middlewares/lvgl/src/widgets/../core/lv_obj_style_gen.h **** 
 337:Middlewares/lvgl/src/widgets/../core/lv_obj_style_gen.h **** static inline lv_coord_t lv_obj_get_style_text_letter_space(const struct _lv_obj_t * obj, uint32_t 
 338:Middlewares/lvgl/src/widgets/../core/lv_obj_style_gen.h **** {
 339:Middlewares/lvgl/src/widgets/../core/lv_obj_style_gen.h ****     lv_style_value_t v = lv_obj_get_style_prop(obj, part, LV_STYLE_TEXT_LETTER_SPACE);
 340:Middlewares/lvgl/src/widgets/../core/lv_obj_style_gen.h ****     return (lv_coord_t)v.num;
 341:Middlewares/lvgl/src/widgets/../core/lv_obj_style_gen.h **** }
 342:Middlewares/lvgl/src/widgets/../core/lv_obj_style_gen.h **** 
 343:Middlewares/lvgl/src/widgets/../core/lv_obj_style_gen.h **** static inline lv_coord_t lv_obj_get_style_text_line_space(const struct _lv_obj_t * obj, uint32_t pa
 344:Middlewares/lvgl/src/widgets/../core/lv_obj_style_gen.h **** {
 345:Middlewares/lvgl/src/widgets/../core/lv_obj_style_gen.h ****     lv_style_value_t v = lv_obj_get_style_prop(obj, part, LV_STYLE_TEXT_LINE_SPACE);
 346:Middlewares/lvgl/src/widgets/../core/lv_obj_style_gen.h ****     return (lv_coord_t)v.num;
 347:Middlewares/lvgl/src/widgets/../core/lv_obj_style_gen.h **** }
 348:Middlewares/lvgl/src/widgets/../core/lv_obj_style_gen.h **** 
 349:Middlewares/lvgl/src/widgets/../core/lv_obj_style_gen.h **** static inline lv_text_decor_t lv_obj_get_style_text_decor(const struct _lv_obj_t * obj, uint32_t pa
 350:Middlewares/lvgl/src/widgets/../core/lv_obj_style_gen.h **** {
 351:Middlewares/lvgl/src/widgets/../core/lv_obj_style_gen.h ****     lv_style_value_t v = lv_obj_get_style_prop(obj, part, LV_STYLE_TEXT_DECOR);
 352:Middlewares/lvgl/src/widgets/../core/lv_obj_style_gen.h ****     return (lv_text_decor_t)v.num;
 353:Middlewares/lvgl/src/widgets/../core/lv_obj_style_gen.h **** }
 354:Middlewares/lvgl/src/widgets/../core/lv_obj_style_gen.h **** 
 355:Middlewares/lvgl/src/widgets/../core/lv_obj_style_gen.h **** static inline lv_text_align_t lv_obj_get_style_text_align(const struct _lv_obj_t * obj, uint32_t pa
 356:Middlewares/lvgl/src/widgets/../core/lv_obj_style_gen.h **** {
 357:Middlewares/lvgl/src/widgets/../core/lv_obj_style_gen.h ****     lv_style_value_t v = lv_obj_get_style_prop(obj, part, LV_STYLE_TEXT_ALIGN);
 358:Middlewares/lvgl/src/widgets/../core/lv_obj_style_gen.h ****     return (lv_text_align_t)v.num;
 359:Middlewares/lvgl/src/widgets/../core/lv_obj_style_gen.h **** }
 360:Middlewares/lvgl/src/widgets/../core/lv_obj_style_gen.h **** 
 361:Middlewares/lvgl/src/widgets/../core/lv_obj_style_gen.h **** static inline lv_opa_t lv_obj_get_style_img_opa(const struct _lv_obj_t * obj, uint32_t part)
 362:Middlewares/lvgl/src/widgets/../core/lv_obj_style_gen.h **** {
 363:Middlewares/lvgl/src/widgets/../core/lv_obj_style_gen.h ****     lv_style_value_t v = lv_obj_get_style_prop(obj, part, LV_STYLE_IMG_OPA);
 364:Middlewares/lvgl/src/widgets/../core/lv_obj_style_gen.h ****     return (lv_opa_t)v.num;
 365:Middlewares/lvgl/src/widgets/../core/lv_obj_style_gen.h **** }
 366:Middlewares/lvgl/src/widgets/../core/lv_obj_style_gen.h **** 
 367:Middlewares/lvgl/src/widgets/../core/lv_obj_style_gen.h **** static inline lv_color_t lv_obj_get_style_img_recolor(const struct _lv_obj_t * obj, uint32_t part)
 368:Middlewares/lvgl/src/widgets/../core/lv_obj_style_gen.h **** {
 369:Middlewares/lvgl/src/widgets/../core/lv_obj_style_gen.h ****     lv_style_value_t v = lv_obj_get_style_prop(obj, part, LV_STYLE_IMG_RECOLOR);
 370:Middlewares/lvgl/src/widgets/../core/lv_obj_style_gen.h ****     return v.color;
 371:Middlewares/lvgl/src/widgets/../core/lv_obj_style_gen.h **** }
 372:Middlewares/lvgl/src/widgets/../core/lv_obj_style_gen.h **** 
 373:Middlewares/lvgl/src/widgets/../core/lv_obj_style_gen.h **** static inline lv_color_t lv_obj_get_style_img_recolor_filtered(const struct _lv_obj_t * obj, uint32
 374:Middlewares/lvgl/src/widgets/../core/lv_obj_style_gen.h **** {
 375:Middlewares/lvgl/src/widgets/../core/lv_obj_style_gen.h ****     lv_style_value_t v = lv_obj_get_style_prop(obj, part, LV_STYLE_IMG_RECOLOR_FILTERED);
 376:Middlewares/lvgl/src/widgets/../core/lv_obj_style_gen.h ****     return v.color;
 377:Middlewares/lvgl/src/widgets/../core/lv_obj_style_gen.h **** }
 378:Middlewares/lvgl/src/widgets/../core/lv_obj_style_gen.h **** 
 379:Middlewares/lvgl/src/widgets/../core/lv_obj_style_gen.h **** static inline lv_opa_t lv_obj_get_style_img_recolor_opa(const struct _lv_obj_t * obj, uint32_t part
 380:Middlewares/lvgl/src/widgets/../core/lv_obj_style_gen.h **** {
 381:Middlewares/lvgl/src/widgets/../core/lv_obj_style_gen.h ****     lv_style_value_t v = lv_obj_get_style_prop(obj, part, LV_STYLE_IMG_RECOLOR_OPA);
 382:Middlewares/lvgl/src/widgets/../core/lv_obj_style_gen.h ****     return (lv_opa_t)v.num;
 383:Middlewares/lvgl/src/widgets/../core/lv_obj_style_gen.h **** }
ARM GAS  /tmp/ccqOegKq.s 			page 27


 384:Middlewares/lvgl/src/widgets/../core/lv_obj_style_gen.h **** 
 385:Middlewares/lvgl/src/widgets/../core/lv_obj_style_gen.h **** static inline lv_coord_t lv_obj_get_style_outline_width(const struct _lv_obj_t * obj, uint32_t part
 386:Middlewares/lvgl/src/widgets/../core/lv_obj_style_gen.h **** {
 387:Middlewares/lvgl/src/widgets/../core/lv_obj_style_gen.h ****     lv_style_value_t v = lv_obj_get_style_prop(obj, part, LV_STYLE_OUTLINE_WIDTH);
 388:Middlewares/lvgl/src/widgets/../core/lv_obj_style_gen.h ****     return (lv_coord_t)v.num;
 389:Middlewares/lvgl/src/widgets/../core/lv_obj_style_gen.h **** }
 390:Middlewares/lvgl/src/widgets/../core/lv_obj_style_gen.h **** 
 391:Middlewares/lvgl/src/widgets/../core/lv_obj_style_gen.h **** static inline lv_color_t lv_obj_get_style_outline_color(const struct _lv_obj_t * obj, uint32_t part
 392:Middlewares/lvgl/src/widgets/../core/lv_obj_style_gen.h **** {
 393:Middlewares/lvgl/src/widgets/../core/lv_obj_style_gen.h ****     lv_style_value_t v = lv_obj_get_style_prop(obj, part, LV_STYLE_OUTLINE_COLOR);
 394:Middlewares/lvgl/src/widgets/../core/lv_obj_style_gen.h ****     return v.color;
 395:Middlewares/lvgl/src/widgets/../core/lv_obj_style_gen.h **** }
 396:Middlewares/lvgl/src/widgets/../core/lv_obj_style_gen.h **** 
 397:Middlewares/lvgl/src/widgets/../core/lv_obj_style_gen.h **** static inline lv_color_t lv_obj_get_style_outline_color_filtered(const struct _lv_obj_t * obj, uint
 398:Middlewares/lvgl/src/widgets/../core/lv_obj_style_gen.h **** {
 399:Middlewares/lvgl/src/widgets/../core/lv_obj_style_gen.h ****     lv_style_value_t v = lv_obj_get_style_prop(obj, part, LV_STYLE_OUTLINE_COLOR_FILTERED);
 400:Middlewares/lvgl/src/widgets/../core/lv_obj_style_gen.h ****     return v.color;
 401:Middlewares/lvgl/src/widgets/../core/lv_obj_style_gen.h **** }
 402:Middlewares/lvgl/src/widgets/../core/lv_obj_style_gen.h **** 
 403:Middlewares/lvgl/src/widgets/../core/lv_obj_style_gen.h **** static inline lv_opa_t lv_obj_get_style_outline_opa(const struct _lv_obj_t * obj, uint32_t part)
 404:Middlewares/lvgl/src/widgets/../core/lv_obj_style_gen.h **** {
 405:Middlewares/lvgl/src/widgets/../core/lv_obj_style_gen.h ****     lv_style_value_t v = lv_obj_get_style_prop(obj, part, LV_STYLE_OUTLINE_OPA);
 406:Middlewares/lvgl/src/widgets/../core/lv_obj_style_gen.h ****     return (lv_opa_t)v.num;
 407:Middlewares/lvgl/src/widgets/../core/lv_obj_style_gen.h **** }
 408:Middlewares/lvgl/src/widgets/../core/lv_obj_style_gen.h **** 
 409:Middlewares/lvgl/src/widgets/../core/lv_obj_style_gen.h **** static inline lv_coord_t lv_obj_get_style_outline_pad(const struct _lv_obj_t * obj, uint32_t part)
 410:Middlewares/lvgl/src/widgets/../core/lv_obj_style_gen.h **** {
 411:Middlewares/lvgl/src/widgets/../core/lv_obj_style_gen.h ****     lv_style_value_t v = lv_obj_get_style_prop(obj, part, LV_STYLE_OUTLINE_PAD);
 412:Middlewares/lvgl/src/widgets/../core/lv_obj_style_gen.h ****     return (lv_coord_t)v.num;
 413:Middlewares/lvgl/src/widgets/../core/lv_obj_style_gen.h **** }
 414:Middlewares/lvgl/src/widgets/../core/lv_obj_style_gen.h **** 
 415:Middlewares/lvgl/src/widgets/../core/lv_obj_style_gen.h **** static inline lv_coord_t lv_obj_get_style_shadow_width(const struct _lv_obj_t * obj, uint32_t part)
 416:Middlewares/lvgl/src/widgets/../core/lv_obj_style_gen.h **** {
 417:Middlewares/lvgl/src/widgets/../core/lv_obj_style_gen.h ****     lv_style_value_t v = lv_obj_get_style_prop(obj, part, LV_STYLE_SHADOW_WIDTH);
 418:Middlewares/lvgl/src/widgets/../core/lv_obj_style_gen.h ****     return (lv_coord_t)v.num;
 419:Middlewares/lvgl/src/widgets/../core/lv_obj_style_gen.h **** }
 420:Middlewares/lvgl/src/widgets/../core/lv_obj_style_gen.h **** 
 421:Middlewares/lvgl/src/widgets/../core/lv_obj_style_gen.h **** static inline lv_coord_t lv_obj_get_style_shadow_ofs_x(const struct _lv_obj_t * obj, uint32_t part)
 422:Middlewares/lvgl/src/widgets/../core/lv_obj_style_gen.h **** {
 423:Middlewares/lvgl/src/widgets/../core/lv_obj_style_gen.h ****     lv_style_value_t v = lv_obj_get_style_prop(obj, part, LV_STYLE_SHADOW_OFS_X);
 424:Middlewares/lvgl/src/widgets/../core/lv_obj_style_gen.h ****     return (lv_coord_t)v.num;
 425:Middlewares/lvgl/src/widgets/../core/lv_obj_style_gen.h **** }
 426:Middlewares/lvgl/src/widgets/../core/lv_obj_style_gen.h **** 
 427:Middlewares/lvgl/src/widgets/../core/lv_obj_style_gen.h **** static inline lv_coord_t lv_obj_get_style_shadow_ofs_y(const struct _lv_obj_t * obj, uint32_t part)
 428:Middlewares/lvgl/src/widgets/../core/lv_obj_style_gen.h **** {
 429:Middlewares/lvgl/src/widgets/../core/lv_obj_style_gen.h ****     lv_style_value_t v = lv_obj_get_style_prop(obj, part, LV_STYLE_SHADOW_OFS_Y);
 430:Middlewares/lvgl/src/widgets/../core/lv_obj_style_gen.h ****     return (lv_coord_t)v.num;
 431:Middlewares/lvgl/src/widgets/../core/lv_obj_style_gen.h **** }
 432:Middlewares/lvgl/src/widgets/../core/lv_obj_style_gen.h **** 
 433:Middlewares/lvgl/src/widgets/../core/lv_obj_style_gen.h **** static inline lv_coord_t lv_obj_get_style_shadow_spread(const struct _lv_obj_t * obj, uint32_t part
 434:Middlewares/lvgl/src/widgets/../core/lv_obj_style_gen.h **** {
 435:Middlewares/lvgl/src/widgets/../core/lv_obj_style_gen.h ****     lv_style_value_t v = lv_obj_get_style_prop(obj, part, LV_STYLE_SHADOW_SPREAD);
 436:Middlewares/lvgl/src/widgets/../core/lv_obj_style_gen.h ****     return (lv_coord_t)v.num;
 437:Middlewares/lvgl/src/widgets/../core/lv_obj_style_gen.h **** }
 438:Middlewares/lvgl/src/widgets/../core/lv_obj_style_gen.h **** 
 439:Middlewares/lvgl/src/widgets/../core/lv_obj_style_gen.h **** static inline lv_color_t lv_obj_get_style_shadow_color(const struct _lv_obj_t * obj, uint32_t part)
 440:Middlewares/lvgl/src/widgets/../core/lv_obj_style_gen.h **** {
ARM GAS  /tmp/ccqOegKq.s 			page 28


 441:Middlewares/lvgl/src/widgets/../core/lv_obj_style_gen.h ****     lv_style_value_t v = lv_obj_get_style_prop(obj, part, LV_STYLE_SHADOW_COLOR);
 442:Middlewares/lvgl/src/widgets/../core/lv_obj_style_gen.h ****     return v.color;
 443:Middlewares/lvgl/src/widgets/../core/lv_obj_style_gen.h **** }
 444:Middlewares/lvgl/src/widgets/../core/lv_obj_style_gen.h **** 
 445:Middlewares/lvgl/src/widgets/../core/lv_obj_style_gen.h **** static inline lv_color_t lv_obj_get_style_shadow_color_filtered(const struct _lv_obj_t * obj, uint3
 446:Middlewares/lvgl/src/widgets/../core/lv_obj_style_gen.h **** {
 447:Middlewares/lvgl/src/widgets/../core/lv_obj_style_gen.h ****     lv_style_value_t v = lv_obj_get_style_prop(obj, part, LV_STYLE_SHADOW_COLOR_FILTERED);
 448:Middlewares/lvgl/src/widgets/../core/lv_obj_style_gen.h ****     return v.color;
 449:Middlewares/lvgl/src/widgets/../core/lv_obj_style_gen.h **** }
 450:Middlewares/lvgl/src/widgets/../core/lv_obj_style_gen.h **** 
 451:Middlewares/lvgl/src/widgets/../core/lv_obj_style_gen.h **** static inline lv_opa_t lv_obj_get_style_shadow_opa(const struct _lv_obj_t * obj, uint32_t part)
 452:Middlewares/lvgl/src/widgets/../core/lv_obj_style_gen.h **** {
 453:Middlewares/lvgl/src/widgets/../core/lv_obj_style_gen.h ****     lv_style_value_t v = lv_obj_get_style_prop(obj, part, LV_STYLE_SHADOW_OPA);
 454:Middlewares/lvgl/src/widgets/../core/lv_obj_style_gen.h ****     return (lv_opa_t)v.num;
 455:Middlewares/lvgl/src/widgets/../core/lv_obj_style_gen.h **** }
 456:Middlewares/lvgl/src/widgets/../core/lv_obj_style_gen.h **** 
 457:Middlewares/lvgl/src/widgets/../core/lv_obj_style_gen.h **** static inline lv_coord_t lv_obj_get_style_line_width(const struct _lv_obj_t * obj, uint32_t part)
 458:Middlewares/lvgl/src/widgets/../core/lv_obj_style_gen.h **** {
 459:Middlewares/lvgl/src/widgets/../core/lv_obj_style_gen.h ****     lv_style_value_t v = lv_obj_get_style_prop(obj, part, LV_STYLE_LINE_WIDTH);
 460:Middlewares/lvgl/src/widgets/../core/lv_obj_style_gen.h ****     return (lv_coord_t)v.num;
 461:Middlewares/lvgl/src/widgets/../core/lv_obj_style_gen.h **** }
 462:Middlewares/lvgl/src/widgets/../core/lv_obj_style_gen.h **** 
 463:Middlewares/lvgl/src/widgets/../core/lv_obj_style_gen.h **** static inline lv_coord_t lv_obj_get_style_line_dash_width(const struct _lv_obj_t * obj, uint32_t pa
 464:Middlewares/lvgl/src/widgets/../core/lv_obj_style_gen.h **** {
 465:Middlewares/lvgl/src/widgets/../core/lv_obj_style_gen.h ****     lv_style_value_t v = lv_obj_get_style_prop(obj, part, LV_STYLE_LINE_DASH_WIDTH);
 466:Middlewares/lvgl/src/widgets/../core/lv_obj_style_gen.h ****     return (lv_coord_t)v.num;
 467:Middlewares/lvgl/src/widgets/../core/lv_obj_style_gen.h **** }
 468:Middlewares/lvgl/src/widgets/../core/lv_obj_style_gen.h **** 
 469:Middlewares/lvgl/src/widgets/../core/lv_obj_style_gen.h **** static inline lv_coord_t lv_obj_get_style_line_dash_gap(const struct _lv_obj_t * obj, uint32_t part
 470:Middlewares/lvgl/src/widgets/../core/lv_obj_style_gen.h **** {
 471:Middlewares/lvgl/src/widgets/../core/lv_obj_style_gen.h ****     lv_style_value_t v = lv_obj_get_style_prop(obj, part, LV_STYLE_LINE_DASH_GAP);
 472:Middlewares/lvgl/src/widgets/../core/lv_obj_style_gen.h ****     return (lv_coord_t)v.num;
 473:Middlewares/lvgl/src/widgets/../core/lv_obj_style_gen.h **** }
 474:Middlewares/lvgl/src/widgets/../core/lv_obj_style_gen.h **** 
 475:Middlewares/lvgl/src/widgets/../core/lv_obj_style_gen.h **** static inline lv_coord_t lv_obj_get_style_line_rounded(const struct _lv_obj_t * obj, uint32_t part)
 476:Middlewares/lvgl/src/widgets/../core/lv_obj_style_gen.h **** {
 477:Middlewares/lvgl/src/widgets/../core/lv_obj_style_gen.h ****     lv_style_value_t v = lv_obj_get_style_prop(obj, part, LV_STYLE_LINE_ROUNDED);
 478:Middlewares/lvgl/src/widgets/../core/lv_obj_style_gen.h ****     return (lv_coord_t)v.num;
 479:Middlewares/lvgl/src/widgets/../core/lv_obj_style_gen.h **** }
 480:Middlewares/lvgl/src/widgets/../core/lv_obj_style_gen.h **** 
 481:Middlewares/lvgl/src/widgets/../core/lv_obj_style_gen.h **** static inline lv_color_t lv_obj_get_style_line_color(const struct _lv_obj_t * obj, uint32_t part)
 482:Middlewares/lvgl/src/widgets/../core/lv_obj_style_gen.h **** {
 483:Middlewares/lvgl/src/widgets/../core/lv_obj_style_gen.h ****     lv_style_value_t v = lv_obj_get_style_prop(obj, part, LV_STYLE_LINE_COLOR);
 484:Middlewares/lvgl/src/widgets/../core/lv_obj_style_gen.h ****     return v.color;
 485:Middlewares/lvgl/src/widgets/../core/lv_obj_style_gen.h **** }
 486:Middlewares/lvgl/src/widgets/../core/lv_obj_style_gen.h **** 
 487:Middlewares/lvgl/src/widgets/../core/lv_obj_style_gen.h **** static inline lv_color_t lv_obj_get_style_line_color_filtered(const struct _lv_obj_t * obj, uint32_
 488:Middlewares/lvgl/src/widgets/../core/lv_obj_style_gen.h **** {
 489:Middlewares/lvgl/src/widgets/../core/lv_obj_style_gen.h ****     lv_style_value_t v = lv_obj_get_style_prop(obj, part, LV_STYLE_LINE_COLOR_FILTERED);
 490:Middlewares/lvgl/src/widgets/../core/lv_obj_style_gen.h ****     return v.color;
 491:Middlewares/lvgl/src/widgets/../core/lv_obj_style_gen.h **** }
 492:Middlewares/lvgl/src/widgets/../core/lv_obj_style_gen.h **** 
 493:Middlewares/lvgl/src/widgets/../core/lv_obj_style_gen.h **** static inline lv_opa_t lv_obj_get_style_line_opa(const struct _lv_obj_t * obj, uint32_t part)
 494:Middlewares/lvgl/src/widgets/../core/lv_obj_style_gen.h **** {
 495:Middlewares/lvgl/src/widgets/../core/lv_obj_style_gen.h ****     lv_style_value_t v = lv_obj_get_style_prop(obj, part, LV_STYLE_LINE_OPA);
 496:Middlewares/lvgl/src/widgets/../core/lv_obj_style_gen.h ****     return (lv_opa_t)v.num;
 497:Middlewares/lvgl/src/widgets/../core/lv_obj_style_gen.h **** }
ARM GAS  /tmp/ccqOegKq.s 			page 29


 498:Middlewares/lvgl/src/widgets/../core/lv_obj_style_gen.h **** 
 499:Middlewares/lvgl/src/widgets/../core/lv_obj_style_gen.h **** static inline lv_coord_t lv_obj_get_style_arc_width(const struct _lv_obj_t * obj, uint32_t part)
 198              		.loc 2 499 26 discriminator 4 view .LVU54
 199              	.LBB84:
 500:Middlewares/lvgl/src/widgets/../core/lv_obj_style_gen.h **** {
 501:Middlewares/lvgl/src/widgets/../core/lv_obj_style_gen.h ****     lv_style_value_t v = lv_obj_get_style_prop(obj, part, LV_STYLE_ARC_WIDTH);
 200              		.loc 2 501 5 discriminator 4 view .LVU55
 201              		.loc 2 501 26 is_stmt 0 discriminator 4 view .LVU56
 202 00a2 4FF40562 		mov	r2, #2128
 203 00a6 4FF40031 		mov	r1, #131072
 204 00aa 2046     		mov	r0, r4
 205 00ac FFF7FEFF 		bl	lv_obj_get_style_prop
 206              	.LVL22:
 502:Middlewares/lvgl/src/widgets/../core/lv_obj_style_gen.h ****     return (lv_coord_t)v.num;
 207              		.loc 2 502 5 is_stmt 1 discriminator 4 view .LVU57
 208              		.loc 2 502 5 is_stmt 0 discriminator 4 view .LVU58
 209              	.LBE84:
 210              	.LBE83:
 891:Middlewares/lvgl/src/widgets/lv_arc.c ****     r -= indic_width;
 211              		.loc 1 891 5 is_stmt 1 discriminator 4 view .LVU59
 892:Middlewares/lvgl/src/widgets/lv_arc.c **** }
 212              		.loc 1 892 1 is_stmt 0 discriminator 4 view .LVU60
 213 00b0 03B0     		add	sp, sp, #12
 214              	.LCFI2:
 215              		.cfi_remember_state
 216              		.cfi_def_cfa_offset 36
 217              	.LVL23:
 218              		.loc 1 892 1 discriminator 4 view .LVU61
 219              		@ sp needed
 220 00b2 BDE8F08F 		pop	{r4, r5, r6, r7, r8, r9, r10, fp, pc}
 221              	.LVL24:
 222              	.L7:
 223              	.LCFI3:
 224              		.cfi_restore_state
 884:Middlewares/lvgl/src/widgets/lv_arc.c **** 
 225              		.loc 1 884 79 discriminator 1 view .LVU62
 226 00b6 08F10108 		add	r8, r8, #1
 227 00ba E0E7     		b	.L3
 228              	.LVL25:
 229              	.L2:
 883:Middlewares/lvgl/src/widgets/lv_arc.c ****                                 lv_obj_get_height(obj) - top_bg - bottom_bg)) / 2;
 230              		.loc 1 883 21 discriminator 2 view .LVU63
 231 00bc 2046     		mov	r0, r4
 232 00be FFF7FEFF 		bl	lv_obj_get_height
 233              	.LVL26:
 234 00c2 A0EB0A0A 		sub	r10, r0, r10
 235              	.LVL27:
 884:Middlewares/lvgl/src/widgets/lv_arc.c **** 
 236              		.loc 1 884 79 discriminator 2 view .LVU64
 237 00c6 BAEB0808 		subs	r8, r10, r8
 238              	.LVL28:
 884:Middlewares/lvgl/src/widgets/lv_arc.c **** 
 239              		.loc 1 884 79 discriminator 2 view .LVU65
 240 00ca 02D4     		bmi	.L8
 241              	.L5:
 883:Middlewares/lvgl/src/widgets/lv_arc.c ****                                 lv_obj_get_height(obj) - top_bg - bottom_bg)) / 2;
 242              		.loc 1 883 16 discriminator 2 view .LVU66
ARM GAS  /tmp/ccqOegKq.s 			page 30


 243 00cc 48F34F08 		sbfx	r8, r8, #1, #16
 244 00d0 D7E7     		b	.L4
 245              	.L8:
 884:Middlewares/lvgl/src/widgets/lv_arc.c **** 
 246              		.loc 1 884 79 discriminator 2 view .LVU67
 247 00d2 08F10108 		add	r8, r8, #1
 248 00d6 F9E7     		b	.L5
 249              		.cfi_endproc
 250              	.LFE171:
 252              		.section	.text.get_knob_area,"ax",%progbits
 253              		.align	1
 254              		.syntax unified
 255              		.thumb
 256              		.thumb_func
 257              		.fpu fpv5-d16
 259              	get_knob_area:
 260              	.LVL29:
 261              	.LFB172:
 893:Middlewares/lvgl/src/widgets/lv_arc.c **** 
 894:Middlewares/lvgl/src/widgets/lv_arc.c **** static void get_knob_area(lv_obj_t * obj, const lv_point_t * center, lv_coord_t r, lv_area_t * knob
 895:Middlewares/lvgl/src/widgets/lv_arc.c **** {
 262              		.loc 1 895 1 is_stmt 1 view -0
 263              		.cfi_startproc
 264              		@ args = 0, pretend = 0, frame = 8
 265              		@ frame_needed = 0, uses_anonymous_args = 0
 266              		.loc 1 895 1 is_stmt 0 view .LVU69
 267 0000 2DE9F04F 		push	{r4, r5, r6, r7, r8, r9, r10, fp, lr}
 268              	.LCFI4:
 269              		.cfi_def_cfa_offset 36
 270              		.cfi_offset 4, -36
 271              		.cfi_offset 5, -32
 272              		.cfi_offset 6, -28
 273              		.cfi_offset 7, -24
 274              		.cfi_offset 8, -20
 275              		.cfi_offset 9, -16
 276              		.cfi_offset 10, -12
 277              		.cfi_offset 11, -8
 278              		.cfi_offset 14, -4
 279 0004 83B0     		sub	sp, sp, #12
 280              	.LCFI5:
 281              		.cfi_def_cfa_offset 48
 282 0006 0746     		mov	r7, r0
 283 0008 8946     		mov	r9, r1
 284 000a 1446     		mov	r4, r2
 285 000c 9846     		mov	r8, r3
 896:Middlewares/lvgl/src/widgets/lv_arc.c ****     LV_ASSERT_OBJ(obj, MY_CLASS);
 286              		.loc 1 896 5 is_stmt 1 view .LVU70
 287              		.loc 1 896 5 view .LVU71
 288              		.loc 1 896 5 view .LVU72
 897:Middlewares/lvgl/src/widgets/lv_arc.c ****     lv_arc_t * arc = (lv_arc_t *)obj;
 289              		.loc 1 897 5 view .LVU73
 290              	.LVL30:
 898:Middlewares/lvgl/src/widgets/lv_arc.c **** 
 899:Middlewares/lvgl/src/widgets/lv_arc.c ****     lv_coord_t indic_width = lv_obj_get_style_arc_width(obj, LV_PART_INDICATOR);
 291              		.loc 1 899 5 view .LVU74
 292              	.LBB85:
 293              	.LBI85:
ARM GAS  /tmp/ccqOegKq.s 			page 31


 499:Middlewares/lvgl/src/widgets/../core/lv_obj_style_gen.h **** {
 294              		.loc 2 499 26 view .LVU75
 295              	.LBB86:
 501:Middlewares/lvgl/src/widgets/../core/lv_obj_style_gen.h ****     return (lv_coord_t)v.num;
 296              		.loc 2 501 5 view .LVU76
 501:Middlewares/lvgl/src/widgets/../core/lv_obj_style_gen.h ****     return (lv_coord_t)v.num;
 297              		.loc 2 501 26 is_stmt 0 view .LVU77
 298 000e 4FF40562 		mov	r2, #2128
 299              	.LVL31:
 501:Middlewares/lvgl/src/widgets/../core/lv_obj_style_gen.h ****     return (lv_coord_t)v.num;
 300              		.loc 2 501 26 view .LVU78
 301 0012 4FF40031 		mov	r1, #131072
 302              	.LVL32:
 501:Middlewares/lvgl/src/widgets/../core/lv_obj_style_gen.h ****     return (lv_coord_t)v.num;
 303              		.loc 2 501 26 view .LVU79
 304 0016 FFF7FEFF 		bl	lv_obj_get_style_prop
 305              	.LVL33:
 306              		.loc 2 502 5 is_stmt 1 view .LVU80
 307              		.loc 2 502 12 is_stmt 0 view .LVU81
 308 001a 06B2     		sxth	r6, r0
 309              	.LVL34:
 310              		.loc 2 502 12 view .LVU82
 311              	.LBE86:
 312              	.LBE85:
 900:Middlewares/lvgl/src/widgets/lv_arc.c ****     lv_coord_t indic_width_half = indic_width / 2;
 313              		.loc 1 900 5 is_stmt 1 view .LVU83
 314              		.loc 1 900 16 is_stmt 0 view .LVU84
 315 001c 002E     		cmp	r6, #0
 316 001e 69DB     		blt	.L17
 317              	.L10:
 318              	.LVL35:
 901:Middlewares/lvgl/src/widgets/lv_arc.c ****     r -= indic_width_half;
 319              		.loc 1 901 5 is_stmt 1 view .LVU85
 320              		.loc 1 901 7 is_stmt 0 view .LVU86
 321 0020 C6F34F06 		ubfx	r6, r6, #1, #16
 322              	.LVL36:
 323              		.loc 1 901 7 view .LVU87
 324 0024 A41B     		subs	r4, r4, r6
 325 0026 24B2     		sxth	r4, r4
 326              	.LVL37:
 902:Middlewares/lvgl/src/widgets/lv_arc.c **** 
 903:Middlewares/lvgl/src/widgets/lv_arc.c ****     uint16_t angle =arc->rotation;
 327              		.loc 1 903 5 is_stmt 1 view .LVU88
 328              		.loc 1 903 14 is_stmt 0 view .LVU89
 329 0028 B7F824A0 		ldrh	r10, [r7, #36]
 330              	.LVL38:
 904:Middlewares/lvgl/src/widgets/lv_arc.c ****     if(arc->type == LV_ARC_MODE_NORMAL) {
 331              		.loc 1 904 5 is_stmt 1 view .LVU90
 332              		.loc 1 904 18 is_stmt 0 view .LVU91
 333 002c 97F83430 		ldrb	r3, [r7, #52]	@ zero_extendqisi2
 334              		.loc 1 904 7 view .LVU92
 335 0030 13F00603 		ands	r3, r3, #6
 336 0034 60D1     		bne	.L11
 905:Middlewares/lvgl/src/widgets/lv_arc.c ****         angle +=arc->indic_angle_end;
 337              		.loc 1 905 9 is_stmt 1 view .LVU93
 338              		.loc 1 905 20 is_stmt 0 view .LVU94
 339 0036 3B8D     		ldrh	r3, [r7, #40]
ARM GAS  /tmp/ccqOegKq.s 			page 32


 340              		.loc 1 905 15 view .LVU95
 341 0038 9A44     		add	r10, r10, r3
 342              	.LVL39:
 343              		.loc 1 905 15 view .LVU96
 344 003a 1FFA8AFA 		uxth	r10, r10
 345              	.LVL40:
 346              	.L12:
 906:Middlewares/lvgl/src/widgets/lv_arc.c ****     }
 907:Middlewares/lvgl/src/widgets/lv_arc.c ****     else if(arc->type == LV_ARC_MODE_REVERSE) {
 908:Middlewares/lvgl/src/widgets/lv_arc.c ****         angle +=arc->indic_angle_start;
 909:Middlewares/lvgl/src/widgets/lv_arc.c ****     }
 910:Middlewares/lvgl/src/widgets/lv_arc.c ****     else if(arc->type == LV_ARC_MODE_SYMMETRICAL) {
 911:Middlewares/lvgl/src/widgets/lv_arc.c ****         int32_t range_midpoint = (int32_t)(arc->min_value +arc->max_value) / 2;
 912:Middlewares/lvgl/src/widgets/lv_arc.c ****         if(arc->value < range_midpoint) angle +=arc->indic_angle_start;
 913:Middlewares/lvgl/src/widgets/lv_arc.c ****         else angle +=arc->indic_angle_end;
 914:Middlewares/lvgl/src/widgets/lv_arc.c ****     }
 915:Middlewares/lvgl/src/widgets/lv_arc.c ****     lv_coord_t knob_x = (r * lv_trigo_sin(angle + 90)) >> LV_TRIGO_SHIFT;
 347              		.loc 1 915 5 is_stmt 1 view .LVU97
 348              		.loc 1 915 49 is_stmt 0 view .LVU98
 349 003e 0AF15A00 		add	r0, r10, #90
 350              		.loc 1 915 30 view .LVU99
 351 0042 00B2     		sxth	r0, r0
 352 0044 FFF7FEFF 		bl	lv_trigo_sin
 353              	.LVL41:
 354              		.loc 1 915 28 view .LVU100
 355 0048 00FB04F5 		mul	r5, r0, r4
 356              		.loc 1 915 56 view .LVU101
 357 004c ED13     		asrs	r5, r5, #15
 358              	.LVL42:
 916:Middlewares/lvgl/src/widgets/lv_arc.c ****     lv_coord_t knob_y = (r * lv_trigo_sin(angle)) >> LV_TRIGO_SHIFT;
 359              		.loc 1 916 5 is_stmt 1 view .LVU102
 360              		.loc 1 916 30 is_stmt 0 view .LVU103
 361 004e 0FFA8AF0 		sxth	r0, r10
 362 0052 FFF7FEFF 		bl	lv_trigo_sin
 363              	.LVL43:
 364              		.loc 1 916 28 view .LVU104
 365 0056 00FB04F4 		mul	r4, r0, r4
 366              	.LVL44:
 367              		.loc 1 916 51 view .LVU105
 368 005a E413     		asrs	r4, r4, #15
 369              	.LVL45:
 917:Middlewares/lvgl/src/widgets/lv_arc.c **** 
 918:Middlewares/lvgl/src/widgets/lv_arc.c ****     lv_coord_t left_knob = lv_obj_get_style_pad_left(obj, LV_PART_KNOB);
 370              		.loc 1 918 5 is_stmt 1 view .LVU106
 371              	.LBB87:
 372              	.LBI87:
 103:Middlewares/lvgl/src/widgets/../core/lv_obj_style_gen.h **** {
 373              		.loc 2 103 26 view .LVU107
 374              	.LBB88:
 105:Middlewares/lvgl/src/widgets/../core/lv_obj_style_gen.h ****     return (lv_coord_t)v.num;
 375              		.loc 2 105 5 view .LVU108
 105:Middlewares/lvgl/src/widgets/../core/lv_obj_style_gen.h ****     return (lv_coord_t)v.num;
 376              		.loc 2 105 26 is_stmt 0 view .LVU109
 377 005c 41F21202 		movw	r2, #4114
 378 0060 4FF44031 		mov	r1, #196608
 379 0064 3846     		mov	r0, r7
 380 0066 FFF7FEFF 		bl	lv_obj_get_style_prop
ARM GAS  /tmp/ccqOegKq.s 			page 33


 381              	.LVL46:
 382 006a 8346     		mov	fp, r0
 383              	.LVL47:
 106:Middlewares/lvgl/src/widgets/../core/lv_obj_style_gen.h **** }
 384              		.loc 2 106 5 is_stmt 1 view .LVU110
 106:Middlewares/lvgl/src/widgets/../core/lv_obj_style_gen.h **** }
 385              		.loc 2 106 5 is_stmt 0 view .LVU111
 386              	.LBE88:
 387              	.LBE87:
 919:Middlewares/lvgl/src/widgets/lv_arc.c ****     lv_coord_t right_knob = lv_obj_get_style_pad_right(obj, LV_PART_KNOB);
 388              		.loc 1 919 5 is_stmt 1 view .LVU112
 389              	.LBB89:
 390              	.LBI89:
 109:Middlewares/lvgl/src/widgets/../core/lv_obj_style_gen.h **** {
 391              		.loc 2 109 26 view .LVU113
 392              	.LBB90:
 111:Middlewares/lvgl/src/widgets/../core/lv_obj_style_gen.h ****     return (lv_coord_t)v.num;
 393              		.loc 2 111 5 view .LVU114
 111:Middlewares/lvgl/src/widgets/../core/lv_obj_style_gen.h ****     return (lv_coord_t)v.num;
 394              		.loc 2 111 26 is_stmt 0 view .LVU115
 395 006c 41F21302 		movw	r2, #4115
 396 0070 4FF44031 		mov	r1, #196608
 397 0074 3846     		mov	r0, r7
 398 0076 FFF7FEFF 		bl	lv_obj_get_style_prop
 399              	.LVL48:
 400 007a 8246     		mov	r10, r0
 401              	.LVL49:
 112:Middlewares/lvgl/src/widgets/../core/lv_obj_style_gen.h **** }
 402              		.loc 2 112 5 is_stmt 1 view .LVU116
 112:Middlewares/lvgl/src/widgets/../core/lv_obj_style_gen.h **** }
 403              		.loc 2 112 5 is_stmt 0 view .LVU117
 404              	.LBE90:
 405              	.LBE89:
 920:Middlewares/lvgl/src/widgets/lv_arc.c ****     lv_coord_t top_knob = lv_obj_get_style_pad_top(obj, LV_PART_KNOB);
 406              		.loc 1 920 5 is_stmt 1 view .LVU118
 407              	.LBB91:
 408              	.LBI91:
  91:Middlewares/lvgl/src/widgets/../core/lv_obj_style_gen.h **** {
 409              		.loc 2 91 26 view .LVU119
 410              	.LBB92:
  93:Middlewares/lvgl/src/widgets/../core/lv_obj_style_gen.h ****     return (lv_coord_t)v.num;
 411              		.loc 2 93 5 view .LVU120
  93:Middlewares/lvgl/src/widgets/../core/lv_obj_style_gen.h ****     return (lv_coord_t)v.num;
 412              		.loc 2 93 26 is_stmt 0 view .LVU121
 413 007c 41F21002 		movw	r2, #4112
 414 0080 4FF44031 		mov	r1, #196608
 415 0084 3846     		mov	r0, r7
 416 0086 FFF7FEFF 		bl	lv_obj_get_style_prop
 417              	.LVL50:
 418 008a 0190     		str	r0, [sp, #4]
  94:Middlewares/lvgl/src/widgets/../core/lv_obj_style_gen.h **** }
 419              		.loc 2 94 5 is_stmt 1 view .LVU122
 420              	.LVL51:
  94:Middlewares/lvgl/src/widgets/../core/lv_obj_style_gen.h **** }
 421              		.loc 2 94 5 is_stmt 0 view .LVU123
 422              	.LBE92:
 423              	.LBE91:
ARM GAS  /tmp/ccqOegKq.s 			page 34


 921:Middlewares/lvgl/src/widgets/lv_arc.c ****     lv_coord_t bottom_knob = lv_obj_get_style_pad_bottom(obj, LV_PART_KNOB);
 424              		.loc 1 921 5 is_stmt 1 view .LVU124
 425              	.LBB93:
 426              	.LBI93:
  97:Middlewares/lvgl/src/widgets/../core/lv_obj_style_gen.h **** {
 427              		.loc 2 97 26 view .LVU125
 428              	.LBB94:
  99:Middlewares/lvgl/src/widgets/../core/lv_obj_style_gen.h ****     return (lv_coord_t)v.num;
 429              		.loc 2 99 5 view .LVU126
  99:Middlewares/lvgl/src/widgets/../core/lv_obj_style_gen.h ****     return (lv_coord_t)v.num;
 430              		.loc 2 99 26 is_stmt 0 view .LVU127
 431 008c 41F21102 		movw	r2, #4113
 432 0090 4FF44031 		mov	r1, #196608
 433 0094 3846     		mov	r0, r7
 434 0096 FFF7FEFF 		bl	lv_obj_get_style_prop
 435              	.LVL52:
 100:Middlewares/lvgl/src/widgets/../core/lv_obj_style_gen.h **** }
 436              		.loc 2 100 5 is_stmt 1 view .LVU128
 100:Middlewares/lvgl/src/widgets/../core/lv_obj_style_gen.h **** }
 437              		.loc 2 100 5 is_stmt 0 view .LVU129
 438              	.LBE94:
 439              	.LBE93:
 922:Middlewares/lvgl/src/widgets/lv_arc.c **** 
 923:Middlewares/lvgl/src/widgets/lv_arc.c ****     knob_area->x1 = center->x + knob_x - left_knob - indic_width_half;
 440              		.loc 1 923 5 is_stmt 1 view .LVU130
 441              		.loc 1 923 27 is_stmt 0 view .LVU131
 442 009a B9F80030 		ldrh	r3, [r9]
 443              		.loc 1 923 31 view .LVU132
 444 009e ADB2     		uxth	r5, r5
 445              		.loc 1 923 31 view .LVU133
 446 00a0 2B44     		add	r3, r3, r5
 447 00a2 9BB2     		uxth	r3, r3
 448              		.loc 1 923 40 view .LVU134
 449 00a4 A3EB0B0B 		sub	fp, r3, fp
 450              	.LVL53:
 451              		.loc 1 923 40 view .LVU135
 452 00a8 1FFA8BFB 		uxth	fp, fp
 453              		.loc 1 923 52 view .LVU136
 454 00ac ABEB060B 		sub	fp, fp, r6
 455              		.loc 1 923 19 view .LVU137
 456 00b0 A8F800B0 		strh	fp, [r8]	@ movhi
 924:Middlewares/lvgl/src/widgets/lv_arc.c ****     knob_area->x2 = center->x + knob_x + right_knob + indic_width_half;
 457              		.loc 1 924 5 is_stmt 1 view .LVU138
 458              		.loc 1 924 27 is_stmt 0 view .LVU139
 459 00b4 B9F80030 		ldrh	r3, [r9]
 460              		.loc 1 924 31 view .LVU140
 461 00b8 1D44     		add	r5, r5, r3
 462              	.LVL54:
 463              		.loc 1 924 40 view .LVU141
 464 00ba 1AFA85FA 		uxtah	r10, r10, r5
 465              	.LVL55:
 466              		.loc 1 924 53 view .LVU142
 467 00be 16FA8AFA 		uxtah	r10, r6, r10
 468              		.loc 1 924 19 view .LVU143
 469 00c2 A8F804A0 		strh	r10, [r8, #4]	@ movhi
 925:Middlewares/lvgl/src/widgets/lv_arc.c ****     knob_area->y1 = center->y + knob_y - top_knob - indic_width_half;
 470              		.loc 1 925 5 is_stmt 1 view .LVU144
ARM GAS  /tmp/ccqOegKq.s 			page 35


 471              		.loc 1 925 27 is_stmt 0 view .LVU145
 472 00c6 B9F80230 		ldrh	r3, [r9, #2]
 473              		.loc 1 925 31 view .LVU146
 474 00ca A4B2     		uxth	r4, r4
 475              		.loc 1 925 31 view .LVU147
 476 00cc 2344     		add	r3, r3, r4
 477 00ce 9BB2     		uxth	r3, r3
 478              		.loc 1 925 40 view .LVU148
 479 00d0 019A     		ldr	r2, [sp, #4]
 480              	.LVL56:
 481              		.loc 1 925 40 view .LVU149
 482 00d2 9B1A     		subs	r3, r3, r2
 483 00d4 9BB2     		uxth	r3, r3
 484              		.loc 1 925 51 view .LVU150
 485 00d6 9B1B     		subs	r3, r3, r6
 486              		.loc 1 925 19 view .LVU151
 487 00d8 A8F80230 		strh	r3, [r8, #2]	@ movhi
 926:Middlewares/lvgl/src/widgets/lv_arc.c ****     knob_area->y2 = center->y + knob_y + bottom_knob + indic_width_half;
 488              		.loc 1 926 5 is_stmt 1 view .LVU152
 489              		.loc 1 926 27 is_stmt 0 view .LVU153
 490 00dc B9F80230 		ldrh	r3, [r9, #2]
 491              		.loc 1 926 31 view .LVU154
 492 00e0 1C44     		add	r4, r4, r3
 493              	.LVL57:
 494              		.loc 1 926 40 view .LVU155
 495 00e2 10FA84F4 		uxtah	r4, r0, r4
 496              		.loc 1 926 54 view .LVU156
 497 00e6 16FA84F6 		uxtah	r6, r6, r4
 498              		.loc 1 926 19 view .LVU157
 499 00ea A8F80660 		strh	r6, [r8, #6]	@ movhi
 927:Middlewares/lvgl/src/widgets/lv_arc.c **** }
 500              		.loc 1 927 1 view .LVU158
 501 00ee 03B0     		add	sp, sp, #12
 502              	.LCFI6:
 503              		.cfi_remember_state
 504              		.cfi_def_cfa_offset 36
 505              		@ sp needed
 506 00f0 BDE8F08F 		pop	{r4, r5, r6, r7, r8, r9, r10, fp, pc}
 507              	.LVL58:
 508              	.L17:
 509              	.LCFI7:
 510              		.cfi_restore_state
 900:Middlewares/lvgl/src/widgets/lv_arc.c ****     r -= indic_width_half;
 511              		.loc 1 900 16 view .LVU159
 512 00f4 0136     		adds	r6, r6, #1
 513 00f6 93E7     		b	.L10
 514              	.LVL59:
 515              	.L11:
 907:Middlewares/lvgl/src/widgets/lv_arc.c ****         angle +=arc->indic_angle_start;
 516              		.loc 1 907 10 is_stmt 1 view .LVU160
 907:Middlewares/lvgl/src/widgets/lv_arc.c ****         angle +=arc->indic_angle_start;
 517              		.loc 1 907 12 is_stmt 0 view .LVU161
 518 00f8 042B     		cmp	r3, #4
 519 00fa 11D0     		beq	.L18
 910:Middlewares/lvgl/src/widgets/lv_arc.c ****         int32_t range_midpoint = (int32_t)(arc->min_value +arc->max_value) / 2;
 520              		.loc 1 910 10 is_stmt 1 view .LVU162
 910:Middlewares/lvgl/src/widgets/lv_arc.c ****         int32_t range_midpoint = (int32_t)(arc->min_value +arc->max_value) / 2;
ARM GAS  /tmp/ccqOegKq.s 			page 36


 521              		.loc 1 910 12 is_stmt 0 view .LVU163
 522 00fc 022B     		cmp	r3, #2
 523 00fe 9ED1     		bne	.L12
 524              	.LBB95:
 911:Middlewares/lvgl/src/widgets/lv_arc.c ****         if(arc->value < range_midpoint) angle +=arc->indic_angle_start;
 525              		.loc 1 911 9 is_stmt 1 view .LVU164
 911:Middlewares/lvgl/src/widgets/lv_arc.c ****         if(arc->value < range_midpoint) angle +=arc->indic_angle_start;
 526              		.loc 1 911 47 is_stmt 0 view .LVU165
 527 0100 B7F93030 		ldrsh	r3, [r7, #48]
 911:Middlewares/lvgl/src/widgets/lv_arc.c ****         if(arc->value < range_midpoint) angle +=arc->indic_angle_start;
 528              		.loc 1 911 63 view .LVU166
 529 0104 B7F93220 		ldrsh	r2, [r7, #50]
 911:Middlewares/lvgl/src/widgets/lv_arc.c ****         if(arc->value < range_midpoint) angle +=arc->indic_angle_start;
 530              		.loc 1 911 17 view .LVU167
 531 0108 9B18     		adds	r3, r3, r2
 532 010a 0ED4     		bmi	.L19
 533              	.L14:
 534              	.LVL60:
 912:Middlewares/lvgl/src/widgets/lv_arc.c ****         else angle +=arc->indic_angle_end;
 535              		.loc 1 912 9 is_stmt 1 view .LVU168
 912:Middlewares/lvgl/src/widgets/lv_arc.c ****         else angle +=arc->indic_angle_end;
 536              		.loc 1 912 15 is_stmt 0 view .LVU169
 537 010c B7F92E20 		ldrsh	r2, [r7, #46]
 912:Middlewares/lvgl/src/widgets/lv_arc.c ****         else angle +=arc->indic_angle_end;
 538              		.loc 1 912 11 view .LVU170
 539 0110 B2EB630F 		cmp	r2, r3, asr #1
 540 0114 0BDA     		bge	.L15
 912:Middlewares/lvgl/src/widgets/lv_arc.c ****         else angle +=arc->indic_angle_end;
 541              		.loc 1 912 41 is_stmt 1 discriminator 1 view .LVU171
 912:Middlewares/lvgl/src/widgets/lv_arc.c ****         else angle +=arc->indic_angle_end;
 542              		.loc 1 912 52 is_stmt 0 discriminator 1 view .LVU172
 543 0116 FB8C     		ldrh	r3, [r7, #38]
 544              	.LVL61:
 912:Middlewares/lvgl/src/widgets/lv_arc.c ****         else angle +=arc->indic_angle_end;
 545              		.loc 1 912 47 discriminator 1 view .LVU173
 546 0118 9A44     		add	r10, r10, r3
 547              	.LVL62:
 912:Middlewares/lvgl/src/widgets/lv_arc.c ****         else angle +=arc->indic_angle_end;
 548              		.loc 1 912 47 discriminator 1 view .LVU174
 549 011a 1FFA8AFA 		uxth	r10, r10
 550              	.LVL63:
 912:Middlewares/lvgl/src/widgets/lv_arc.c ****         else angle +=arc->indic_angle_end;
 551              		.loc 1 912 47 discriminator 1 view .LVU175
 552 011e 8EE7     		b	.L12
 553              	.L18:
 912:Middlewares/lvgl/src/widgets/lv_arc.c ****         else angle +=arc->indic_angle_end;
 554              		.loc 1 912 47 discriminator 1 view .LVU176
 555              	.LBE95:
 908:Middlewares/lvgl/src/widgets/lv_arc.c ****     }
 556              		.loc 1 908 9 is_stmt 1 view .LVU177
 908:Middlewares/lvgl/src/widgets/lv_arc.c ****     }
 557              		.loc 1 908 20 is_stmt 0 view .LVU178
 558 0120 FB8C     		ldrh	r3, [r7, #38]
 908:Middlewares/lvgl/src/widgets/lv_arc.c ****     }
 559              		.loc 1 908 15 view .LVU179
 560 0122 9A44     		add	r10, r10, r3
 561              	.LVL64:
ARM GAS  /tmp/ccqOegKq.s 			page 37


 908:Middlewares/lvgl/src/widgets/lv_arc.c ****     }
 562              		.loc 1 908 15 view .LVU180
 563 0124 1FFA8AFA 		uxth	r10, r10
 564              	.LVL65:
 908:Middlewares/lvgl/src/widgets/lv_arc.c ****     }
 565              		.loc 1 908 15 view .LVU181
 566 0128 89E7     		b	.L12
 567              	.L19:
 568              	.LBB96:
 911:Middlewares/lvgl/src/widgets/lv_arc.c ****         if(arc->value < range_midpoint) angle +=arc->indic_angle_start;
 569              		.loc 1 911 17 view .LVU182
 570 012a 0133     		adds	r3, r3, #1
 571 012c EEE7     		b	.L14
 572              	.LVL66:
 573              	.L15:
 913:Middlewares/lvgl/src/widgets/lv_arc.c ****     }
 574              		.loc 1 913 14 is_stmt 1 view .LVU183
 913:Middlewares/lvgl/src/widgets/lv_arc.c ****     }
 575              		.loc 1 913 25 is_stmt 0 view .LVU184
 576 012e 3B8D     		ldrh	r3, [r7, #40]
 577              	.LVL67:
 913:Middlewares/lvgl/src/widgets/lv_arc.c ****     }
 578              		.loc 1 913 20 view .LVU185
 579 0130 9A44     		add	r10, r10, r3
 580              	.LVL68:
 913:Middlewares/lvgl/src/widgets/lv_arc.c ****     }
 581              		.loc 1 913 20 view .LVU186
 582 0132 1FFA8AFA 		uxth	r10, r10
 583              	.LVL69:
 913:Middlewares/lvgl/src/widgets/lv_arc.c ****     }
 584              		.loc 1 913 20 view .LVU187
 585 0136 82E7     		b	.L12
 586              	.LBE96:
 587              		.cfi_endproc
 588              	.LFE172:
 590              		.section	.text.lv_arc_draw,"ax",%progbits
 591              		.align	1
 592              		.syntax unified
 593              		.thumb
 594              		.thumb_func
 595              		.fpu fpv5-d16
 597              	lv_arc_draw:
 598              	.LVL70:
 599              	.LFB169:
 680:Middlewares/lvgl/src/widgets/lv_arc.c ****     lv_obj_t * obj = lv_event_get_target(e);
 600              		.loc 1 680 1 is_stmt 1 view -0
 601              		.cfi_startproc
 602              		@ args = 0, pretend = 0, frame = 152
 603              		@ frame_needed = 0, uses_anonymous_args = 0
 680:Middlewares/lvgl/src/widgets/lv_arc.c ****     lv_obj_t * obj = lv_event_get_target(e);
 604              		.loc 1 680 1 is_stmt 0 view .LVU189
 605 0000 2DE9F041 		push	{r4, r5, r6, r7, r8, lr}
 606              	.LCFI8:
 607              		.cfi_def_cfa_offset 24
 608              		.cfi_offset 4, -24
 609              		.cfi_offset 5, -20
 610              		.cfi_offset 6, -16
ARM GAS  /tmp/ccqOegKq.s 			page 38


 611              		.cfi_offset 7, -12
 612              		.cfi_offset 8, -8
 613              		.cfi_offset 14, -4
 614 0004 AAB0     		sub	sp, sp, #168
 615              	.LCFI9:
 616              		.cfi_def_cfa_offset 192
 617 0006 0546     		mov	r5, r0
 681:Middlewares/lvgl/src/widgets/lv_arc.c ****     lv_arc_t * arc = (lv_arc_t *)obj;
 618              		.loc 1 681 5 is_stmt 1 view .LVU190
 681:Middlewares/lvgl/src/widgets/lv_arc.c ****     lv_arc_t * arc = (lv_arc_t *)obj;
 619              		.loc 1 681 22 is_stmt 0 view .LVU191
 620 0008 FFF7FEFF 		bl	lv_event_get_target
 621              	.LVL71:
 681:Middlewares/lvgl/src/widgets/lv_arc.c ****     lv_arc_t * arc = (lv_arc_t *)obj;
 622              		.loc 1 681 22 view .LVU192
 623 000c 0446     		mov	r4, r0
 624              	.LVL72:
 682:Middlewares/lvgl/src/widgets/lv_arc.c **** 
 625              		.loc 1 682 5 is_stmt 1 view .LVU193
 684:Middlewares/lvgl/src/widgets/lv_arc.c **** 
 626              		.loc 1 684 5 view .LVU194
 684:Middlewares/lvgl/src/widgets/lv_arc.c **** 
 627              		.loc 1 684 35 is_stmt 0 view .LVU195
 628 000e 2846     		mov	r0, r5
 629              	.LVL73:
 684:Middlewares/lvgl/src/widgets/lv_arc.c **** 
 630              		.loc 1 684 35 view .LVU196
 631 0010 FFF7FEFF 		bl	lv_event_get_param
 632              	.LVL74:
 633 0014 0546     		mov	r5, r0
 634              	.LVL75:
 686:Middlewares/lvgl/src/widgets/lv_arc.c ****     lv_coord_t arc_r;
 635              		.loc 1 686 5 is_stmt 1 view .LVU197
 687:Middlewares/lvgl/src/widgets/lv_arc.c ****     get_center(obj, &center, &arc_r);
 636              		.loc 1 687 5 view .LVU198
 688:Middlewares/lvgl/src/widgets/lv_arc.c **** 
 637              		.loc 1 688 5 view .LVU199
 638 0016 0DF1A202 		add	r2, sp, #162
 639 001a 29A9     		add	r1, sp, #164
 640 001c 2046     		mov	r0, r4
 641              	.LVL76:
 688:Middlewares/lvgl/src/widgets/lv_arc.c **** 
 642              		.loc 1 688 5 is_stmt 0 view .LVU200
 643 001e FFF7FEFF 		bl	get_center
 644              	.LVL77:
 690:Middlewares/lvgl/src/widgets/lv_arc.c ****     lv_obj_draw_dsc_init(&obj_draw_dsc, clip_area);
 645              		.loc 1 690 5 is_stmt 1 view .LVU201
 691:Middlewares/lvgl/src/widgets/lv_arc.c **** 
 646              		.loc 1 691 5 view .LVU202
 647 0022 2946     		mov	r1, r5
 648 0024 16A8     		add	r0, sp, #88
 649 0026 FFF7FEFF 		bl	lv_obj_draw_dsc_init
 650              	.LVL78:
 694:Middlewares/lvgl/src/widgets/lv_arc.c ****     if(arc_r > 0) {
 651              		.loc 1 694 5 view .LVU203
 695:Middlewares/lvgl/src/widgets/lv_arc.c ****         lv_draw_arc_dsc_init(&arc_dsc);
 652              		.loc 1 695 5 view .LVU204
ARM GAS  /tmp/ccqOegKq.s 			page 39


 695:Middlewares/lvgl/src/widgets/lv_arc.c ****         lv_draw_arc_dsc_init(&arc_dsc);
 653              		.loc 1 695 14 is_stmt 0 view .LVU205
 654 002a BDF9A230 		ldrsh	r3, [sp, #162]
 695:Middlewares/lvgl/src/widgets/lv_arc.c ****         lv_draw_arc_dsc_init(&arc_dsc);
 655              		.loc 1 695 7 view .LVU206
 656 002e 002B     		cmp	r3, #0
 657 0030 5ADC     		bgt	.L24
 658              	.L21:
 713:Middlewares/lvgl/src/widgets/lv_arc.c ****     lv_coord_t right_indic = lv_obj_get_style_pad_right(obj, LV_PART_INDICATOR);
 659              		.loc 1 713 5 is_stmt 1 view .LVU207
 660              	.LVL79:
 661              	.LBB97:
 662              	.LBI97:
 103:Middlewares/lvgl/src/widgets/../core/lv_obj_style_gen.h **** {
 663              		.loc 2 103 26 view .LVU208
 664              	.LBB98:
 105:Middlewares/lvgl/src/widgets/../core/lv_obj_style_gen.h ****     return (lv_coord_t)v.num;
 665              		.loc 2 105 5 view .LVU209
 105:Middlewares/lvgl/src/widgets/../core/lv_obj_style_gen.h ****     return (lv_coord_t)v.num;
 666              		.loc 2 105 26 is_stmt 0 view .LVU210
 667 0032 41F21202 		movw	r2, #4114
 668 0036 4FF40031 		mov	r1, #131072
 669 003a 2046     		mov	r0, r4
 670 003c FFF7FEFF 		bl	lv_obj_get_style_prop
 671              	.LVL80:
 106:Middlewares/lvgl/src/widgets/../core/lv_obj_style_gen.h **** }
 672              		.loc 2 106 5 is_stmt 1 view .LVU211
 106:Middlewares/lvgl/src/widgets/../core/lv_obj_style_gen.h **** }
 673              		.loc 2 106 12 is_stmt 0 view .LVU212
 674 0040 07B2     		sxth	r7, r0
 675              	.LVL81:
 106:Middlewares/lvgl/src/widgets/../core/lv_obj_style_gen.h **** }
 676              		.loc 2 106 12 view .LVU213
 677              	.LBE98:
 678              	.LBE97:
 714:Middlewares/lvgl/src/widgets/lv_arc.c ****     lv_coord_t top_indic = lv_obj_get_style_pad_top(obj, LV_PART_INDICATOR);
 679              		.loc 1 714 5 is_stmt 1 view .LVU214
 680              	.LBB99:
 681              	.LBI99:
 109:Middlewares/lvgl/src/widgets/../core/lv_obj_style_gen.h **** {
 682              		.loc 2 109 26 view .LVU215
 683              	.LBB100:
 111:Middlewares/lvgl/src/widgets/../core/lv_obj_style_gen.h ****     return (lv_coord_t)v.num;
 684              		.loc 2 111 5 view .LVU216
 111:Middlewares/lvgl/src/widgets/../core/lv_obj_style_gen.h ****     return (lv_coord_t)v.num;
 685              		.loc 2 111 26 is_stmt 0 view .LVU217
 686 0042 41F21302 		movw	r2, #4115
 687 0046 4FF40031 		mov	r1, #131072
 688 004a 2046     		mov	r0, r4
 689 004c FFF7FEFF 		bl	lv_obj_get_style_prop
 690              	.LVL82:
 112:Middlewares/lvgl/src/widgets/../core/lv_obj_style_gen.h **** }
 691              		.loc 2 112 5 is_stmt 1 view .LVU218
 112:Middlewares/lvgl/src/widgets/../core/lv_obj_style_gen.h **** }
 692              		.loc 2 112 12 is_stmt 0 view .LVU219
 693 0050 06B2     		sxth	r6, r0
 694              	.LVL83:
ARM GAS  /tmp/ccqOegKq.s 			page 40


 112:Middlewares/lvgl/src/widgets/../core/lv_obj_style_gen.h **** }
 695              		.loc 2 112 12 view .LVU220
 696              	.LBE100:
 697              	.LBE99:
 715:Middlewares/lvgl/src/widgets/lv_arc.c ****     lv_coord_t bottom_indic = lv_obj_get_style_pad_bottom(obj, LV_PART_INDICATOR);
 698              		.loc 1 715 5 is_stmt 1 view .LVU221
 699              	.LBB101:
 700              	.LBI101:
  91:Middlewares/lvgl/src/widgets/../core/lv_obj_style_gen.h **** {
 701              		.loc 2 91 26 view .LVU222
 702              	.LBB102:
  93:Middlewares/lvgl/src/widgets/../core/lv_obj_style_gen.h ****     return (lv_coord_t)v.num;
 703              		.loc 2 93 5 view .LVU223
  93:Middlewares/lvgl/src/widgets/../core/lv_obj_style_gen.h ****     return (lv_coord_t)v.num;
 704              		.loc 2 93 26 is_stmt 0 view .LVU224
 705 0052 41F21002 		movw	r2, #4112
 706 0056 4FF40031 		mov	r1, #131072
 707 005a 2046     		mov	r0, r4
 708 005c FFF7FEFF 		bl	lv_obj_get_style_prop
 709              	.LVL84:
  94:Middlewares/lvgl/src/widgets/../core/lv_obj_style_gen.h **** }
 710              		.loc 2 94 5 is_stmt 1 view .LVU225
  94:Middlewares/lvgl/src/widgets/../core/lv_obj_style_gen.h **** }
 711              		.loc 2 94 12 is_stmt 0 view .LVU226
 712 0060 0FFA80F8 		sxth	r8, r0
 713              	.LVL85:
  94:Middlewares/lvgl/src/widgets/../core/lv_obj_style_gen.h **** }
 714              		.loc 2 94 12 view .LVU227
 715              	.LBE102:
 716              	.LBE101:
 716:Middlewares/lvgl/src/widgets/lv_arc.c ****     lv_coord_t indic_r = arc_r - LV_MAX4(left_indic, right_indic, top_indic, bottom_indic);
 717              		.loc 1 716 5 is_stmt 1 view .LVU228
 718              	.LBB103:
 719              	.LBI103:
  97:Middlewares/lvgl/src/widgets/../core/lv_obj_style_gen.h **** {
 720              		.loc 2 97 26 view .LVU229
 721              	.LBB104:
  99:Middlewares/lvgl/src/widgets/../core/lv_obj_style_gen.h ****     return (lv_coord_t)v.num;
 722              		.loc 2 99 5 view .LVU230
  99:Middlewares/lvgl/src/widgets/../core/lv_obj_style_gen.h ****     return (lv_coord_t)v.num;
 723              		.loc 2 99 26 is_stmt 0 view .LVU231
 724 0064 41F21102 		movw	r2, #4113
 725 0068 4FF40031 		mov	r1, #131072
 726 006c 2046     		mov	r0, r4
 727 006e FFF7FEFF 		bl	lv_obj_get_style_prop
 728              	.LVL86:
 100:Middlewares/lvgl/src/widgets/../core/lv_obj_style_gen.h **** }
 729              		.loc 2 100 5 is_stmt 1 view .LVU232
 100:Middlewares/lvgl/src/widgets/../core/lv_obj_style_gen.h **** }
 730              		.loc 2 100 12 is_stmt 0 view .LVU233
 731 0072 03B2     		sxth	r3, r0
 732              	.LVL87:
 100:Middlewares/lvgl/src/widgets/../core/lv_obj_style_gen.h **** }
 733              		.loc 2 100 12 view .LVU234
 734              	.LBE104:
 735              	.LBE103:
 717:Middlewares/lvgl/src/widgets/lv_arc.c **** 
ARM GAS  /tmp/ccqOegKq.s 			page 41


 736              		.loc 1 717 5 is_stmt 1 view .LVU235
 717:Middlewares/lvgl/src/widgets/lv_arc.c **** 
 737              		.loc 1 717 34 is_stmt 0 view .LVU236
 738 0074 4345     		cmp	r3, r8
 739 0076 B8BF     		it	lt
 740 0078 4346     		movlt	r3, r8
 741              	.LVL88:
 717:Middlewares/lvgl/src/widgets/lv_arc.c **** 
 742              		.loc 1 717 34 view .LVU237
 743 007a BE42     		cmp	r6, r7
 744 007c B8BF     		it	lt
 745 007e 3E46     		movlt	r6, r7
 746              	.LVL89:
 717:Middlewares/lvgl/src/widgets/lv_arc.c **** 
 747              		.loc 1 717 34 view .LVU238
 748 0080 B342     		cmp	r3, r6
 749 0082 B8BF     		it	lt
 750 0084 3346     		movlt	r3, r6
 751 0086 9BB2     		uxth	r3, r3
 717:Middlewares/lvgl/src/widgets/lv_arc.c **** 
 752              		.loc 1 717 32 view .LVU239
 753 0088 BDF8A220 		ldrh	r2, [sp, #162]
 754 008c D31A     		subs	r3, r2, r3
 755 008e 9FB2     		uxth	r7, r3
 756              	.LVL90:
 717:Middlewares/lvgl/src/widgets/lv_arc.c **** 
 757              		.loc 1 717 16 view .LVU240
 758 0090 1EB2     		sxth	r6, r3
 759              	.LVL91:
 719:Middlewares/lvgl/src/widgets/lv_arc.c ****         lv_draw_arc_dsc_init(&arc_dsc);
 760              		.loc 1 719 5 is_stmt 1 view .LVU241
 719:Middlewares/lvgl/src/widgets/lv_arc.c ****         lv_draw_arc_dsc_init(&arc_dsc);
 761              		.loc 1 719 7 is_stmt 0 view .LVU242
 762 0092 002E     		cmp	r6, #0
 763 0094 58DC     		bgt	.L25
 764              	.LVL92:
 765              	.L22:
 736:Middlewares/lvgl/src/widgets/lv_arc.c ****     get_knob_area(obj, &center, arc_r, &knob_area);
 766              		.loc 1 736 5 is_stmt 1 view .LVU243
 737:Middlewares/lvgl/src/widgets/lv_arc.c **** 
 767              		.loc 1 737 5 view .LVU244
 768 0096 11AF     		add	r7, sp, #68
 769 0098 3B46     		mov	r3, r7
 770 009a BDF9A220 		ldrsh	r2, [sp, #162]
 771 009e 29A9     		add	r1, sp, #164
 772 00a0 2046     		mov	r0, r4
 773 00a2 FFF7FEFF 		bl	get_knob_area
 774              	.LVL93:
 739:Middlewares/lvgl/src/widgets/lv_arc.c ****     lv_draw_rect_dsc_init(&knob_rect_dsc);
 775              		.loc 1 739 5 view .LVU245
 740:Middlewares/lvgl/src/widgets/lv_arc.c ****     lv_obj_init_draw_rect_dsc(obj, LV_PART_KNOB, &knob_rect_dsc);
 776              		.loc 1 740 5 view .LVU246
 777 00a6 04AE     		add	r6, sp, #16
 778              	.LVL94:
 740:Middlewares/lvgl/src/widgets/lv_arc.c ****     lv_obj_init_draw_rect_dsc(obj, LV_PART_KNOB, &knob_rect_dsc);
 779              		.loc 1 740 5 is_stmt 0 view .LVU247
 780 00a8 3046     		mov	r0, r6
ARM GAS  /tmp/ccqOegKq.s 			page 42


 781 00aa FFF7FEFF 		bl	lv_draw_rect_dsc_init
 782              	.LVL95:
 741:Middlewares/lvgl/src/widgets/lv_arc.c **** 
 783              		.loc 1 741 5 is_stmt 1 view .LVU248
 784 00ae 3246     		mov	r2, r6
 785 00b0 4FF44031 		mov	r1, #196608
 786 00b4 2046     		mov	r0, r4
 787 00b6 FFF7FEFF 		bl	lv_obj_init_draw_rect_dsc
 788              	.LVL96:
 743:Middlewares/lvgl/src/widgets/lv_arc.c ****     obj_draw_dsc.draw_area = &knob_area;
 789              		.loc 1 743 5 view .LVU249
 743:Middlewares/lvgl/src/widgets/lv_arc.c ****     obj_draw_dsc.draw_area = &knob_area;
 790              		.loc 1 743 23 is_stmt 0 view .LVU250
 791 00ba 4FF44033 		mov	r3, #196608
 792 00be 2393     		str	r3, [sp, #140]
 744:Middlewares/lvgl/src/widgets/lv_arc.c ****     obj_draw_dsc.rect_dsc = &knob_rect_dsc;
 793              		.loc 1 744 5 is_stmt 1 view .LVU251
 744:Middlewares/lvgl/src/widgets/lv_arc.c ****     obj_draw_dsc.rect_dsc = &knob_rect_dsc;
 794              		.loc 1 744 28 is_stmt 0 view .LVU252
 795 00c0 1797     		str	r7, [sp, #92]
 745:Middlewares/lvgl/src/widgets/lv_arc.c ****     lv_event_send(obj, LV_EVENT_DRAW_PART_BEGIN, &obj_draw_dsc);
 796              		.loc 1 745 5 is_stmt 1 view .LVU253
 745:Middlewares/lvgl/src/widgets/lv_arc.c ****     lv_event_send(obj, LV_EVENT_DRAW_PART_BEGIN, &obj_draw_dsc);
 797              		.loc 1 745 27 is_stmt 0 view .LVU254
 798 00c2 1896     		str	r6, [sp, #96]
 746:Middlewares/lvgl/src/widgets/lv_arc.c **** 
 799              		.loc 1 746 5 is_stmt 1 view .LVU255
 800 00c4 16AA     		add	r2, sp, #88
 801 00c6 1A21     		movs	r1, #26
 802 00c8 2046     		mov	r0, r4
 803 00ca FFF7FEFF 		bl	lv_event_send
 804              	.LVL97:
 748:Middlewares/lvgl/src/widgets/lv_arc.c **** 
 805              		.loc 1 748 5 view .LVU256
 806 00ce 3246     		mov	r2, r6
 807 00d0 2946     		mov	r1, r5
 808 00d2 3846     		mov	r0, r7
 809 00d4 FFF7FEFF 		bl	lv_draw_rect
 810              	.LVL98:
 750:Middlewares/lvgl/src/widgets/lv_arc.c **** }
 811              		.loc 1 750 5 view .LVU257
 812 00d8 16AA     		add	r2, sp, #88
 813 00da 1B21     		movs	r1, #27
 814 00dc 2046     		mov	r0, r4
 815 00de FFF7FEFF 		bl	lv_event_send
 816              	.LVL99:
 751:Middlewares/lvgl/src/widgets/lv_arc.c **** 
 817              		.loc 1 751 1 is_stmt 0 view .LVU258
 818 00e2 2AB0     		add	sp, sp, #168
 819              	.LCFI10:
 820              		.cfi_remember_state
 821              		.cfi_def_cfa_offset 24
 822              		@ sp needed
 823 00e4 BDE8F081 		pop	{r4, r5, r6, r7, r8, pc}
 824              	.LVL100:
 825              	.L24:
 826              	.LCFI11:
ARM GAS  /tmp/ccqOegKq.s 			page 43


 827              		.cfi_restore_state
 696:Middlewares/lvgl/src/widgets/lv_arc.c ****         lv_obj_init_draw_arc_dsc(obj, LV_PART_MAIN, &arc_dsc);
 828              		.loc 1 696 9 is_stmt 1 view .LVU259
 829 00e8 13A8     		add	r0, sp, #76
 830 00ea FFF7FEFF 		bl	lv_draw_arc_dsc_init
 831              	.LVL101:
 697:Middlewares/lvgl/src/widgets/lv_arc.c **** 
 832              		.loc 1 697 9 view .LVU260
 833 00ee 13AA     		add	r2, sp, #76
 834 00f0 0021     		movs	r1, #0
 835 00f2 2046     		mov	r0, r4
 836 00f4 FFF7FEFF 		bl	lv_obj_init_draw_arc_dsc
 837              	.LVL102:
 699:Middlewares/lvgl/src/widgets/lv_arc.c ****         obj_draw_dsc.p1 = &center;
 838              		.loc 1 699 9 view .LVU261
 699:Middlewares/lvgl/src/widgets/lv_arc.c ****         obj_draw_dsc.p1 = &center;
 839              		.loc 1 699 27 is_stmt 0 view .LVU262
 840 00f8 0023     		movs	r3, #0
 841 00fa 2393     		str	r3, [sp, #140]
 700:Middlewares/lvgl/src/widgets/lv_arc.c ****         obj_draw_dsc.radius = arc_r;
 842              		.loc 1 700 9 is_stmt 1 view .LVU263
 700:Middlewares/lvgl/src/widgets/lv_arc.c ****         obj_draw_dsc.radius = arc_r;
 843              		.loc 1 700 25 is_stmt 0 view .LVU264
 844 00fc 29AB     		add	r3, sp, #164
 845 00fe 1D93     		str	r3, [sp, #116]
 701:Middlewares/lvgl/src/widgets/lv_arc.c ****         obj_draw_dsc.arc_dsc = &arc_dsc;
 846              		.loc 1 701 9 is_stmt 1 view .LVU265
 701:Middlewares/lvgl/src/widgets/lv_arc.c ****         obj_draw_dsc.arc_dsc = &arc_dsc;
 847              		.loc 1 701 29 is_stmt 0 view .LVU266
 848 0100 BDF8A230 		ldrh	r3, [sp, #162]
 849 0104 ADF89430 		strh	r3, [sp, #148]	@ movhi
 702:Middlewares/lvgl/src/widgets/lv_arc.c ****         lv_event_send(obj, LV_EVENT_DRAW_PART_BEGIN, &obj_draw_dsc);
 850              		.loc 1 702 9 is_stmt 1 view .LVU267
 702:Middlewares/lvgl/src/widgets/lv_arc.c ****         lv_event_send(obj, LV_EVENT_DRAW_PART_BEGIN, &obj_draw_dsc);
 851              		.loc 1 702 30 is_stmt 0 view .LVU268
 852 0108 13AB     		add	r3, sp, #76
 853 010a 1C93     		str	r3, [sp, #112]
 703:Middlewares/lvgl/src/widgets/lv_arc.c **** 
 854              		.loc 1 703 9 is_stmt 1 view .LVU269
 855 010c 16AA     		add	r2, sp, #88
 856 010e 1A21     		movs	r1, #26
 857 0110 2046     		mov	r0, r4
 858 0112 FFF7FEFF 		bl	lv_event_send
 859              	.LVL103:
 705:Middlewares/lvgl/src/widgets/lv_arc.c ****                    arc->bg_angle_end + arc->rotation, clip_area,
 860              		.loc 1 705 9 view .LVU270
 705:Middlewares/lvgl/src/widgets/lv_arc.c ****                    arc->bg_angle_end + arc->rotation, clip_area,
 861              		.loc 1 705 51 is_stmt 0 view .LVU271
 862 0116 638D     		ldrh	r3, [r4, #42]
 705:Middlewares/lvgl/src/widgets/lv_arc.c ****                    arc->bg_angle_end + arc->rotation, clip_area,
 863              		.loc 1 705 73 view .LVU272
 864 0118 A28C     		ldrh	r2, [r4, #36]
 706:Middlewares/lvgl/src/widgets/lv_arc.c ****                     &arc_dsc);
 865              		.loc 1 706 23 view .LVU273
 866 011a A18D     		ldrh	r1, [r4, #44]
 705:Middlewares/lvgl/src/widgets/lv_arc.c ****                    arc->bg_angle_end + arc->rotation, clip_area,
 867              		.loc 1 705 9 view .LVU274
ARM GAS  /tmp/ccqOegKq.s 			page 44


 868 011c 1344     		add	r3, r3, r2
 869 011e 13A8     		add	r0, sp, #76
 870 0120 0290     		str	r0, [sp, #8]
 871 0122 0195     		str	r5, [sp, #4]
 872 0124 0A44     		add	r2, r2, r1
 873 0126 92B2     		uxth	r2, r2
 874 0128 0092     		str	r2, [sp]
 875 012a 9BB2     		uxth	r3, r3
 876 012c BDF8A220 		ldrh	r2, [sp, #162]
 877 0130 BDF9A610 		ldrsh	r1, [sp, #166]
 878 0134 BDF9A400 		ldrsh	r0, [sp, #164]
 879 0138 FFF7FEFF 		bl	lv_draw_arc
 880              	.LVL104:
 709:Middlewares/lvgl/src/widgets/lv_arc.c ****     }
 881              		.loc 1 709 9 is_stmt 1 view .LVU275
 882 013c 16AA     		add	r2, sp, #88
 883 013e 1B21     		movs	r1, #27
 884 0140 2046     		mov	r0, r4
 885 0142 FFF7FEFF 		bl	lv_event_send
 886              	.LVL105:
 887 0146 74E7     		b	.L21
 888              	.LVL106:
 889              	.L25:
 720:Middlewares/lvgl/src/widgets/lv_arc.c ****         lv_obj_init_draw_arc_dsc(obj, LV_PART_INDICATOR, &arc_dsc);
 890              		.loc 1 720 9 view .LVU276
 891 0148 13A8     		add	r0, sp, #76
 892              	.LVL107:
 720:Middlewares/lvgl/src/widgets/lv_arc.c ****         lv_obj_init_draw_arc_dsc(obj, LV_PART_INDICATOR, &arc_dsc);
 893              		.loc 1 720 9 is_stmt 0 view .LVU277
 894 014a FFF7FEFF 		bl	lv_draw_arc_dsc_init
 895              	.LVL108:
 721:Middlewares/lvgl/src/widgets/lv_arc.c **** 
 896              		.loc 1 721 9 is_stmt 1 view .LVU278
 897 014e 13AA     		add	r2, sp, #76
 898 0150 4FF40031 		mov	r1, #131072
 899 0154 2046     		mov	r0, r4
 900 0156 FFF7FEFF 		bl	lv_obj_init_draw_arc_dsc
 901              	.LVL109:
 723:Middlewares/lvgl/src/widgets/lv_arc.c ****         obj_draw_dsc.p1 = &center;
 902              		.loc 1 723 9 view .LVU279
 723:Middlewares/lvgl/src/widgets/lv_arc.c ****         obj_draw_dsc.p1 = &center;
 903              		.loc 1 723 27 is_stmt 0 view .LVU280
 904 015a 4FF40033 		mov	r3, #131072
 905 015e 2393     		str	r3, [sp, #140]
 724:Middlewares/lvgl/src/widgets/lv_arc.c ****         obj_draw_dsc.radius = indic_r;
 906              		.loc 1 724 9 is_stmt 1 view .LVU281
 724:Middlewares/lvgl/src/widgets/lv_arc.c ****         obj_draw_dsc.radius = indic_r;
 907              		.loc 1 724 25 is_stmt 0 view .LVU282
 908 0160 29AB     		add	r3, sp, #164
 909 0162 1D93     		str	r3, [sp, #116]
 725:Middlewares/lvgl/src/widgets/lv_arc.c ****         obj_draw_dsc.arc_dsc = &arc_dsc;
 910              		.loc 1 725 9 is_stmt 1 view .LVU283
 725:Middlewares/lvgl/src/widgets/lv_arc.c ****         obj_draw_dsc.arc_dsc = &arc_dsc;
 911              		.loc 1 725 29 is_stmt 0 view .LVU284
 912 0164 ADF89460 		strh	r6, [sp, #148]	@ movhi
 726:Middlewares/lvgl/src/widgets/lv_arc.c ****         lv_event_send(obj, LV_EVENT_DRAW_PART_BEGIN, &obj_draw_dsc);
 913              		.loc 1 726 9 is_stmt 1 view .LVU285
ARM GAS  /tmp/ccqOegKq.s 			page 45


 726:Middlewares/lvgl/src/widgets/lv_arc.c ****         lv_event_send(obj, LV_EVENT_DRAW_PART_BEGIN, &obj_draw_dsc);
 914              		.loc 1 726 30 is_stmt 0 view .LVU286
 915 0168 13AB     		add	r3, sp, #76
 916 016a 1C93     		str	r3, [sp, #112]
 727:Middlewares/lvgl/src/widgets/lv_arc.c **** 
 917              		.loc 1 727 9 is_stmt 1 view .LVU287
 918 016c 16AA     		add	r2, sp, #88
 919 016e 1A21     		movs	r1, #26
 920 0170 2046     		mov	r0, r4
 921 0172 FFF7FEFF 		bl	lv_event_send
 922              	.LVL110:
 729:Middlewares/lvgl/src/widgets/lv_arc.c ****                    arc->indic_angle_end + arc->rotation, clip_area,
 923              		.loc 1 729 9 view .LVU288
 729:Middlewares/lvgl/src/widgets/lv_arc.c ****                    arc->indic_angle_end + arc->rotation, clip_area,
 924              		.loc 1 729 53 is_stmt 0 view .LVU289
 925 0176 E38C     		ldrh	r3, [r4, #38]
 729:Middlewares/lvgl/src/widgets/lv_arc.c ****                    arc->indic_angle_end + arc->rotation, clip_area,
 926              		.loc 1 729 77 view .LVU290
 927 0178 A28C     		ldrh	r2, [r4, #36]
 730:Middlewares/lvgl/src/widgets/lv_arc.c ****                     &arc_dsc);
 928              		.loc 1 730 23 view .LVU291
 929 017a 218D     		ldrh	r1, [r4, #40]
 729:Middlewares/lvgl/src/widgets/lv_arc.c ****                    arc->indic_angle_end + arc->rotation, clip_area,
 930              		.loc 1 729 9 view .LVU292
 931 017c 1344     		add	r3, r3, r2
 932 017e 13A8     		add	r0, sp, #76
 933 0180 0290     		str	r0, [sp, #8]
 934 0182 0195     		str	r5, [sp, #4]
 935 0184 0A44     		add	r2, r2, r1
 936 0186 92B2     		uxth	r2, r2
 937 0188 0092     		str	r2, [sp]
 938 018a 9BB2     		uxth	r3, r3
 939 018c 3A46     		mov	r2, r7
 940 018e BDF9A610 		ldrsh	r1, [sp, #166]
 941 0192 BDF9A400 		ldrsh	r0, [sp, #164]
 942 0196 FFF7FEFF 		bl	lv_draw_arc
 943              	.LVL111:
 733:Middlewares/lvgl/src/widgets/lv_arc.c ****     }
 944              		.loc 1 733 9 is_stmt 1 view .LVU293
 945 019a 16AA     		add	r2, sp, #88
 946 019c 1B21     		movs	r1, #27
 947 019e 2046     		mov	r0, r4
 948 01a0 FFF7FEFF 		bl	lv_event_send
 949              	.LVL112:
 950 01a4 77E7     		b	.L22
 951              		.cfi_endproc
 952              	.LFE169:
 954              		.section	.text.lv_arc_constructor,"ax",%progbits
 955              		.align	1
 956              		.syntax unified
 957              		.thumb
 958              		.thumb_func
 959              		.fpu fpv5-d16
 961              	lv_arc_constructor:
 962              	.LVL113:
 963              	.LFB167:
 485:Middlewares/lvgl/src/widgets/lv_arc.c ****     LV_UNUSED(class_p);
ARM GAS  /tmp/ccqOegKq.s 			page 46


 964              		.loc 1 485 1 view -0
 965              		.cfi_startproc
 966              		@ args = 0, pretend = 0, frame = 0
 967              		@ frame_needed = 0, uses_anonymous_args = 0
 485:Middlewares/lvgl/src/widgets/lv_arc.c ****     LV_UNUSED(class_p);
 968              		.loc 1 485 1 is_stmt 0 view .LVU295
 969 0000 10B5     		push	{r4, lr}
 970              	.LCFI12:
 971              		.cfi_def_cfa_offset 8
 972              		.cfi_offset 4, -8
 973              		.cfi_offset 14, -4
 974 0002 0C46     		mov	r4, r1
 486:Middlewares/lvgl/src/widgets/lv_arc.c ****     LV_TRACE_OBJ_CREATE("begin");
 975              		.loc 1 486 5 is_stmt 1 view .LVU296
 487:Middlewares/lvgl/src/widgets/lv_arc.c **** 
 976              		.loc 1 487 33 view .LVU297
 489:Middlewares/lvgl/src/widgets/lv_arc.c **** 
 977              		.loc 1 489 5 view .LVU298
 978              	.LVL114:
 492:Middlewares/lvgl/src/widgets/lv_arc.c ****    arc->bg_angle_start = 135;
 979              		.loc 1 492 4 view .LVU299
 492:Middlewares/lvgl/src/widgets/lv_arc.c ****    arc->bg_angle_start = 135;
 980              		.loc 1 492 18 is_stmt 0 view .LVU300
 981 0004 0023     		movs	r3, #0
 982 0006 8B84     		strh	r3, [r1, #36]	@ movhi
 493:Middlewares/lvgl/src/widgets/lv_arc.c ****    arc->bg_angle_end   = 45;
 983              		.loc 1 493 4 is_stmt 1 view .LVU301
 493:Middlewares/lvgl/src/widgets/lv_arc.c ****    arc->bg_angle_end   = 45;
 984              		.loc 1 493 24 is_stmt 0 view .LVU302
 985 0008 8722     		movs	r2, #135
 986 000a 4A85     		strh	r2, [r1, #42]	@ movhi
 494:Middlewares/lvgl/src/widgets/lv_arc.c ****    arc->indic_angle_start = 135;
 987              		.loc 1 494 4 is_stmt 1 view .LVU303
 494:Middlewares/lvgl/src/widgets/lv_arc.c ****    arc->indic_angle_start = 135;
 988              		.loc 1 494 24 is_stmt 0 view .LVU304
 989 000c 2D21     		movs	r1, #45
 990              	.LVL115:
 494:Middlewares/lvgl/src/widgets/lv_arc.c ****    arc->indic_angle_start = 135;
 991              		.loc 1 494 24 view .LVU305
 992 000e A185     		strh	r1, [r4, #44]	@ movhi
 495:Middlewares/lvgl/src/widgets/lv_arc.c ****    arc->indic_angle_end   = 270;
 993              		.loc 1 495 4 is_stmt 1 view .LVU306
 495:Middlewares/lvgl/src/widgets/lv_arc.c ****    arc->indic_angle_end   = 270;
 994              		.loc 1 495 27 is_stmt 0 view .LVU307
 995 0010 E284     		strh	r2, [r4, #38]	@ movhi
 496:Middlewares/lvgl/src/widgets/lv_arc.c ****    arc->type = LV_ARC_MODE_NORMAL;
 996              		.loc 1 496 4 is_stmt 1 view .LVU308
 496:Middlewares/lvgl/src/widgets/lv_arc.c ****    arc->type = LV_ARC_MODE_NORMAL;
 997              		.loc 1 496 27 is_stmt 0 view .LVU309
 998 0012 4FF48772 		mov	r2, #270
 999 0016 2285     		strh	r2, [r4, #40]	@ movhi
 497:Middlewares/lvgl/src/widgets/lv_arc.c ****    arc->value = VALUE_UNSET;
 1000              		.loc 1 497 4 is_stmt 1 view .LVU310
 497:Middlewares/lvgl/src/widgets/lv_arc.c ****    arc->value = VALUE_UNSET;
 1001              		.loc 1 497 14 is_stmt 0 view .LVU311
 1002 0018 94F83420 		ldrb	r2, [r4, #52]	@ zero_extendqisi2
 1003 001c 63F34202 		bfi	r2, r3, #1, #2
ARM GAS  /tmp/ccqOegKq.s 			page 47


 1004 0020 84F83420 		strb	r2, [r4, #52]
 498:Middlewares/lvgl/src/widgets/lv_arc.c ****    arc->min_close = 1;
 1005              		.loc 1 498 4 is_stmt 1 view .LVU312
 498:Middlewares/lvgl/src/widgets/lv_arc.c ****    arc->min_close = 1;
 1006              		.loc 1 498 15 is_stmt 0 view .LVU313
 1007 0024 4FF40042 		mov	r2, #32768
 1008 0028 E285     		strh	r2, [r4, #46]	@ movhi
 499:Middlewares/lvgl/src/widgets/lv_arc.c ****    arc->min_value = 0;
 1009              		.loc 1 499 4 is_stmt 1 view .LVU314
 499:Middlewares/lvgl/src/widgets/lv_arc.c ****    arc->min_value = 0;
 1010              		.loc 1 499 19 is_stmt 0 view .LVU315
 1011 002a 94F83420 		ldrb	r2, [r4, #52]	@ zero_extendqisi2
 1012 002e 42F00802 		orr	r2, r2, #8
 1013 0032 84F83420 		strb	r2, [r4, #52]
 500:Middlewares/lvgl/src/widgets/lv_arc.c ****    arc->max_value = 100;
 1014              		.loc 1 500 4 is_stmt 1 view .LVU316
 500:Middlewares/lvgl/src/widgets/lv_arc.c ****    arc->max_value = 100;
 1015              		.loc 1 500 19 is_stmt 0 view .LVU317
 1016 0036 2386     		strh	r3, [r4, #48]	@ movhi
 501:Middlewares/lvgl/src/widgets/lv_arc.c ****    arc->dragging = false;
 1017              		.loc 1 501 4 is_stmt 1 view .LVU318
 501:Middlewares/lvgl/src/widgets/lv_arc.c ****    arc->dragging = false;
 1018              		.loc 1 501 19 is_stmt 0 view .LVU319
 1019 0038 6422     		movs	r2, #100
 1020 003a 6286     		strh	r2, [r4, #50]	@ movhi
 502:Middlewares/lvgl/src/widgets/lv_arc.c ****    arc->chg_rate = 720;
 1021              		.loc 1 502 4 is_stmt 1 view .LVU320
 502:Middlewares/lvgl/src/widgets/lv_arc.c ****    arc->chg_rate = 720;
 1022              		.loc 1 502 18 is_stmt 0 view .LVU321
 1023 003c 94F83420 		ldrb	r2, [r4, #52]	@ zero_extendqisi2
 1024 0040 63F30002 		bfi	r2, r3, #0, #1
 1025 0044 84F83420 		strb	r2, [r4, #52]
 503:Middlewares/lvgl/src/widgets/lv_arc.c ****    arc->last_tick = lv_tick_get();
 1026              		.loc 1 503 4 is_stmt 1 view .LVU322
 503:Middlewares/lvgl/src/widgets/lv_arc.c ****    arc->last_tick = lv_tick_get();
 1027              		.loc 1 503 18 is_stmt 0 view .LVU323
 1028 0048 4FF43473 		mov	r3, #720
 1029 004c E386     		strh	r3, [r4, #54]	@ movhi
 504:Middlewares/lvgl/src/widgets/lv_arc.c ****    arc->last_angle =arc->indic_angle_end;
 1030              		.loc 1 504 4 is_stmt 1 view .LVU324
 504:Middlewares/lvgl/src/widgets/lv_arc.c ****    arc->last_angle =arc->indic_angle_end;
 1031              		.loc 1 504 21 is_stmt 0 view .LVU325
 1032 004e FFF7FEFF 		bl	lv_tick_get
 1033              	.LVL116:
 504:Middlewares/lvgl/src/widgets/lv_arc.c ****    arc->last_angle =arc->indic_angle_end;
 1034              		.loc 1 504 19 view .LVU326
 1035 0052 A063     		str	r0, [r4, #56]
 505:Middlewares/lvgl/src/widgets/lv_arc.c **** 
 1036              		.loc 1 505 4 is_stmt 1 view .LVU327
 505:Middlewares/lvgl/src/widgets/lv_arc.c **** 
 1037              		.loc 1 505 24 is_stmt 0 view .LVU328
 1038 0054 B4F92830 		ldrsh	r3, [r4, #40]
 505:Middlewares/lvgl/src/widgets/lv_arc.c **** 
 1039              		.loc 1 505 20 view .LVU329
 1040 0058 A387     		strh	r3, [r4, #60]	@ movhi
 507:Middlewares/lvgl/src/widgets/lv_arc.c ****    lv_obj_set_ext_click_area(obj, LV_DPI_DEF / 10);
 1041              		.loc 1 507 4 is_stmt 1 view .LVU330
ARM GAS  /tmp/ccqOegKq.s 			page 48


 1042 005a 0221     		movs	r1, #2
 1043 005c 2046     		mov	r0, r4
 1044 005e FFF7FEFF 		bl	lv_obj_add_flag
 1045              	.LVL117:
 508:Middlewares/lvgl/src/widgets/lv_arc.c **** 
 1046              		.loc 1 508 4 view .LVU331
 1047 0062 0D21     		movs	r1, #13
 1048 0064 2046     		mov	r0, r4
 1049 0066 FFF7FEFF 		bl	lv_obj_set_ext_click_area
 1050              	.LVL118:
 511:Middlewares/lvgl/src/widgets/lv_arc.c **** }
 1051              		.loc 1 511 36 view .LVU332
 512:Middlewares/lvgl/src/widgets/lv_arc.c **** 
 1052              		.loc 1 512 1 is_stmt 0 view .LVU333
 1053 006a 10BD     		pop	{r4, pc}
 512:Middlewares/lvgl/src/widgets/lv_arc.c **** 
 1054              		.loc 1 512 1 view .LVU334
 1055              		.cfi_endproc
 1056              	.LFE167:
 1058              		.section	.text.inv_arc_area,"ax",%progbits
 1059              		.align	1
 1060              		.syntax unified
 1061              		.thumb
 1062              		.thumb_func
 1063              		.fpu fpv5-d16
 1065              	inv_arc_area:
 1066              	.LVL119:
 1067              	.LFB170:
 754:Middlewares/lvgl/src/widgets/lv_arc.c ****     LV_ASSERT_OBJ(obj, MY_CLASS);
 1068              		.loc 1 754 1 is_stmt 1 view -0
 1069              		.cfi_startproc
 1070              		@ args = 0, pretend = 0, frame = 40
 1071              		@ frame_needed = 0, uses_anonymous_args = 0
 754:Middlewares/lvgl/src/widgets/lv_arc.c ****     LV_ASSERT_OBJ(obj, MY_CLASS);
 1072              		.loc 1 754 1 is_stmt 0 view .LVU336
 1073 0000 2DE9F04F 		push	{r4, r5, r6, r7, r8, r9, r10, fp, lr}
 1074              	.LCFI13:
 1075              		.cfi_def_cfa_offset 36
 1076              		.cfi_offset 4, -36
 1077              		.cfi_offset 5, -32
 1078              		.cfi_offset 6, -28
 1079              		.cfi_offset 7, -24
 1080              		.cfi_offset 8, -20
 1081              		.cfi_offset 9, -16
 1082              		.cfi_offset 10, -12
 1083              		.cfi_offset 11, -8
 1084              		.cfi_offset 14, -4
 1085 0004 8BB0     		sub	sp, sp, #44
 1086              	.LCFI14:
 1087              		.cfi_def_cfa_offset 80
 1088 0006 0446     		mov	r4, r0
 1089 0008 0E46     		mov	r6, r1
 1090 000a 1746     		mov	r7, r2
 1091 000c 0293     		str	r3, [sp, #8]
 755:Middlewares/lvgl/src/widgets/lv_arc.c ****     lv_arc_t * arc = (lv_arc_t *)obj;
 1092              		.loc 1 755 5 is_stmt 1 view .LVU337
 755:Middlewares/lvgl/src/widgets/lv_arc.c ****     lv_arc_t * arc = (lv_arc_t *)obj;
ARM GAS  /tmp/ccqOegKq.s 			page 49


 1093              		.loc 1 755 5 view .LVU338
 755:Middlewares/lvgl/src/widgets/lv_arc.c ****     lv_arc_t * arc = (lv_arc_t *)obj;
 1094              		.loc 1 755 5 view .LVU339
 756:Middlewares/lvgl/src/widgets/lv_arc.c **** 
 1095              		.loc 1 756 5 view .LVU340
 1096              	.LVL120:
 759:Middlewares/lvgl/src/widgets/lv_arc.c **** 
 1097              		.loc 1 759 5 view .LVU341
 759:Middlewares/lvgl/src/widgets/lv_arc.c **** 
 1098              		.loc 1 759 8 is_stmt 0 view .LVU342
 1099 000e FFF7FEFF 		bl	lv_obj_is_visible
 1100              	.LVL121:
 759:Middlewares/lvgl/src/widgets/lv_arc.c **** 
 1101              		.loc 1 759 7 view .LVU343
 1102 0012 0028     		cmp	r0, #0
 1103 0014 00F0A380 		beq	.L28
 761:Middlewares/lvgl/src/widgets/lv_arc.c ****     end_angle +=arc->rotation;
 1104              		.loc 1 761 5 is_stmt 1 view .LVU344
 761:Middlewares/lvgl/src/widgets/lv_arc.c ****     end_angle +=arc->rotation;
 1105              		.loc 1 761 22 is_stmt 0 view .LVU345
 1106 0018 A08C     		ldrh	r0, [r4, #36]
 761:Middlewares/lvgl/src/widgets/lv_arc.c ****     end_angle +=arc->rotation;
 1107              		.loc 1 761 17 view .LVU346
 1108 001a 8119     		adds	r1, r0, r6
 1109 001c 8BB2     		uxth	r3, r1
 1110 001e 0093     		str	r3, [sp]
 1111              	.LVL122:
 762:Middlewares/lvgl/src/widgets/lv_arc.c **** 
 1112              		.loc 1 762 5 is_stmt 1 view .LVU347
 762:Middlewares/lvgl/src/widgets/lv_arc.c **** 
 1113              		.loc 1 762 15 is_stmt 0 view .LVU348
 1114 0020 3844     		add	r0, r0, r7
 1115 0022 85B2     		uxth	r5, r0
 1116              	.LVL123:
 764:Middlewares/lvgl/src/widgets/lv_arc.c ****     if(end_angle >= 360) end_angle -= 360;
 1117              		.loc 1 764 5 is_stmt 1 view .LVU349
 764:Middlewares/lvgl/src/widgets/lv_arc.c ****     if(end_angle >= 360) end_angle -= 360;
 1118              		.loc 1 764 7 is_stmt 0 view .LVU350
 1119 0024 B3F5B47F 		cmp	r3, #360
 1120 0028 03D3     		bcc	.L31
 764:Middlewares/lvgl/src/widgets/lv_arc.c ****     if(end_angle >= 360) end_angle -= 360;
 1121              		.loc 1 764 28 is_stmt 1 discriminator 1 view .LVU351
 764:Middlewares/lvgl/src/widgets/lv_arc.c ****     if(end_angle >= 360) end_angle -= 360;
 1122              		.loc 1 764 40 is_stmt 0 discriminator 1 view .LVU352
 1123 002a A3F5B470 		sub	r0, r3, #360
 1124 002e 83B2     		uxth	r3, r0
 1125              	.LVL124:
 764:Middlewares/lvgl/src/widgets/lv_arc.c ****     if(end_angle >= 360) end_angle -= 360;
 1126              		.loc 1 764 40 discriminator 1 view .LVU353
 1127 0030 0093     		str	r3, [sp]
 1128              	.LVL125:
 1129              	.L31:
 765:Middlewares/lvgl/src/widgets/lv_arc.c **** 
 1130              		.loc 1 765 5 is_stmt 1 view .LVU354
 765:Middlewares/lvgl/src/widgets/lv_arc.c **** 
 1131              		.loc 1 765 7 is_stmt 0 view .LVU355
 1132 0032 B5F5B47F 		cmp	r5, #360
ARM GAS  /tmp/ccqOegKq.s 			page 50


 1133 0036 02D3     		bcc	.L32
 765:Middlewares/lvgl/src/widgets/lv_arc.c **** 
 1134              		.loc 1 765 26 is_stmt 1 discriminator 1 view .LVU356
 765:Middlewares/lvgl/src/widgets/lv_arc.c **** 
 1135              		.loc 1 765 36 is_stmt 0 discriminator 1 view .LVU357
 1136 0038 A5F5B470 		sub	r0, r5, #360
 1137 003c 85B2     		uxth	r5, r0
 1138              	.LVL126:
 1139              	.L32:
 767:Middlewares/lvgl/src/widgets/lv_arc.c ****     uint8_t end_quarter = end_angle / 90;
 1140              		.loc 1 767 5 is_stmt 1 view .LVU358
 767:Middlewares/lvgl/src/widgets/lv_arc.c ****     uint8_t end_quarter = end_angle / 90;
 1141              		.loc 1 767 13 is_stmt 0 view .LVU359
 1142 003e 009B     		ldr	r3, [sp]
 1143 0040 5A08     		lsrs	r2, r3, #1
 1144 0042 CD49     		ldr	r1, .L71
 1145 0044 A1FB0232 		umull	r3, r2, r1, r2
 1146 0048 C2F34713 		ubfx	r3, r2, #5, #8
 1147 004c 0193     		str	r3, [sp, #4]
 1148              	.LVL127:
 768:Middlewares/lvgl/src/widgets/lv_arc.c **** 
 1149              		.loc 1 768 5 is_stmt 1 view .LVU360
 768:Middlewares/lvgl/src/widgets/lv_arc.c **** 
 1150              		.loc 1 768 13 is_stmt 0 view .LVU361
 1151 004e 6B08     		lsrs	r3, r5, #1
 1152 0050 A1FB0323 		umull	r2, r3, r1, r3
 1153 0054 C3F34713 		ubfx	r3, r3, #5, #8
 1154 0058 0393     		str	r3, [sp, #12]
 1155              	.LVL128:
 770:Middlewares/lvgl/src/widgets/lv_arc.c ****     lv_coord_t right = lv_obj_get_style_pad_right(obj, LV_PART_MAIN);
 1156              		.loc 1 770 5 is_stmt 1 view .LVU362
 1157              	.LBB105:
 1158              	.LBI105:
 103:Middlewares/lvgl/src/widgets/../core/lv_obj_style_gen.h **** {
 1159              		.loc 2 103 26 view .LVU363
 1160              	.LBB106:
 105:Middlewares/lvgl/src/widgets/../core/lv_obj_style_gen.h ****     return (lv_coord_t)v.num;
 1161              		.loc 2 105 5 view .LVU364
 105:Middlewares/lvgl/src/widgets/../core/lv_obj_style_gen.h ****     return (lv_coord_t)v.num;
 1162              		.loc 2 105 26 is_stmt 0 view .LVU365
 1163 005a 41F21202 		movw	r2, #4114
 1164 005e 0021     		movs	r1, #0
 1165 0060 2046     		mov	r0, r4
 1166 0062 FFF7FEFF 		bl	lv_obj_get_style_prop
 1167              	.LVL129:
 1168 0066 0746     		mov	r7, r0
 106:Middlewares/lvgl/src/widgets/../core/lv_obj_style_gen.h **** }
 1169              		.loc 2 106 5 is_stmt 1 view .LVU366
 106:Middlewares/lvgl/src/widgets/../core/lv_obj_style_gen.h **** }
 1170              		.loc 2 106 12 is_stmt 0 view .LVU367
 1171 0068 0FFA80FB 		sxth	fp, r0
 1172              	.LVL130:
 106:Middlewares/lvgl/src/widgets/../core/lv_obj_style_gen.h **** }
 1173              		.loc 2 106 12 view .LVU368
 1174              	.LBE106:
 1175              	.LBE105:
 771:Middlewares/lvgl/src/widgets/lv_arc.c ****     lv_coord_t top = lv_obj_get_style_pad_top(obj, LV_PART_MAIN);
ARM GAS  /tmp/ccqOegKq.s 			page 51


 1176              		.loc 1 771 5 is_stmt 1 view .LVU369
 1177              	.LBB107:
 1178              	.LBI107:
 109:Middlewares/lvgl/src/widgets/../core/lv_obj_style_gen.h **** {
 1179              		.loc 2 109 26 view .LVU370
 1180              	.LBB108:
 111:Middlewares/lvgl/src/widgets/../core/lv_obj_style_gen.h ****     return (lv_coord_t)v.num;
 1181              		.loc 2 111 5 view .LVU371
 111:Middlewares/lvgl/src/widgets/../core/lv_obj_style_gen.h ****     return (lv_coord_t)v.num;
 1182              		.loc 2 111 26 is_stmt 0 view .LVU372
 1183 006c 41F21302 		movw	r2, #4115
 1184 0070 0021     		movs	r1, #0
 1185 0072 2046     		mov	r0, r4
 1186 0074 FFF7FEFF 		bl	lv_obj_get_style_prop
 1187              	.LVL131:
 112:Middlewares/lvgl/src/widgets/../core/lv_obj_style_gen.h **** }
 1188              		.loc 2 112 5 is_stmt 1 view .LVU373
 112:Middlewares/lvgl/src/widgets/../core/lv_obj_style_gen.h **** }
 1189              		.loc 2 112 12 is_stmt 0 view .LVU374
 1190 0078 0FFA80F9 		sxth	r9, r0
 1191              	.LVL132:
 112:Middlewares/lvgl/src/widgets/../core/lv_obj_style_gen.h **** }
 1192              		.loc 2 112 12 view .LVU375
 1193              	.LBE108:
 1194              	.LBE107:
 772:Middlewares/lvgl/src/widgets/lv_arc.c ****     lv_coord_t bottom = lv_obj_get_style_pad_bottom(obj, LV_PART_MAIN);
 1195              		.loc 1 772 5 is_stmt 1 view .LVU376
 1196              	.LBB109:
 1197              	.LBI109:
  91:Middlewares/lvgl/src/widgets/../core/lv_obj_style_gen.h **** {
 1198              		.loc 2 91 26 view .LVU377
 1199              	.LBB110:
  93:Middlewares/lvgl/src/widgets/../core/lv_obj_style_gen.h ****     return (lv_coord_t)v.num;
 1200              		.loc 2 93 5 view .LVU378
  93:Middlewares/lvgl/src/widgets/../core/lv_obj_style_gen.h ****     return (lv_coord_t)v.num;
 1201              		.loc 2 93 26 is_stmt 0 view .LVU379
 1202 007c 41F21002 		movw	r2, #4112
 1203 0080 0021     		movs	r1, #0
 1204 0082 2046     		mov	r0, r4
 1205 0084 FFF7FEFF 		bl	lv_obj_get_style_prop
 1206              	.LVL133:
 1207 0088 0490     		str	r0, [sp, #16]
  94:Middlewares/lvgl/src/widgets/../core/lv_obj_style_gen.h **** }
 1208              		.loc 2 94 5 is_stmt 1 view .LVU380
  94:Middlewares/lvgl/src/widgets/../core/lv_obj_style_gen.h **** }
 1209              		.loc 2 94 12 is_stmt 0 view .LVU381
 1210 008a 0FFA80FA 		sxth	r10, r0
 1211              	.LVL134:
  94:Middlewares/lvgl/src/widgets/../core/lv_obj_style_gen.h **** }
 1212              		.loc 2 94 12 view .LVU382
 1213              	.LBE110:
 1214              	.LBE109:
 773:Middlewares/lvgl/src/widgets/lv_arc.c ****     lv_coord_t rout       = (LV_MIN(lv_obj_get_width(obj) - left - right, lv_obj_get_height(obj) - 
 1215              		.loc 1 773 5 is_stmt 1 view .LVU383
 1216              	.LBB111:
 1217              	.LBI111:
  97:Middlewares/lvgl/src/widgets/../core/lv_obj_style_gen.h **** {
ARM GAS  /tmp/ccqOegKq.s 			page 52


 1218              		.loc 2 97 26 view .LVU384
 1219              	.LBB112:
  99:Middlewares/lvgl/src/widgets/../core/lv_obj_style_gen.h ****     return (lv_coord_t)v.num;
 1220              		.loc 2 99 5 view .LVU385
  99:Middlewares/lvgl/src/widgets/../core/lv_obj_style_gen.h ****     return (lv_coord_t)v.num;
 1221              		.loc 2 99 26 is_stmt 0 view .LVU386
 1222 008e 41F21102 		movw	r2, #4113
 1223 0092 0021     		movs	r1, #0
 1224 0094 2046     		mov	r0, r4
 1225 0096 FFF7FEFF 		bl	lv_obj_get_style_prop
 1226              	.LVL135:
 100:Middlewares/lvgl/src/widgets/../core/lv_obj_style_gen.h **** }
 1227              		.loc 2 100 5 is_stmt 1 view .LVU387
 100:Middlewares/lvgl/src/widgets/../core/lv_obj_style_gen.h **** }
 1228              		.loc 2 100 12 is_stmt 0 view .LVU388
 1229 009a 0FFA80F8 		sxth	r8, r0
 1230              	.LVL136:
 100:Middlewares/lvgl/src/widgets/../core/lv_obj_style_gen.h **** }
 1231              		.loc 2 100 12 view .LVU389
 1232              	.LBE112:
 1233              	.LBE111:
 774:Middlewares/lvgl/src/widgets/lv_arc.c ****     lv_coord_t x       = obj->coords.x1 + rout + left;
 1234              		.loc 1 774 5 is_stmt 1 view .LVU390
 774:Middlewares/lvgl/src/widgets/lv_arc.c ****     lv_coord_t x       = obj->coords.x1 + rout + left;
 1235              		.loc 1 774 30 is_stmt 0 view .LVU391
 1236 009e 2046     		mov	r0, r4
 1237 00a0 FFF7FEFF 		bl	lv_obj_get_width
 1238              	.LVL137:
 1239 00a4 A0EB0B06 		sub	r6, r0, fp
 1240 00a8 A6EB0906 		sub	r6, r6, r9
 1241 00ac 2046     		mov	r0, r4
 1242 00ae FFF7FEFF 		bl	lv_obj_get_height
 1243              	.LVL138:
 1244 00b2 A0EB0A00 		sub	r0, r0, r10
 1245 00b6 A0EB0800 		sub	r0, r0, r8
 774:Middlewares/lvgl/src/widgets/lv_arc.c ****     lv_coord_t x       = obj->coords.x1 + rout + left;
 1246              		.loc 1 774 16 view .LVU392
 1247 00ba 8642     		cmp	r6, r0
 1248 00bc 55DA     		bge	.L33
 774:Middlewares/lvgl/src/widgets/lv_arc.c ****     lv_coord_t x       = obj->coords.x1 + rout + left;
 1249              		.loc 1 774 30 discriminator 1 view .LVU393
 1250 00be 2046     		mov	r0, r4
 1251 00c0 FFF7FEFF 		bl	lv_obj_get_width
 1252              	.LVL139:
 1253 00c4 A0EB0B0B 		sub	fp, r0, fp
 1254              	.LVL140:
 774:Middlewares/lvgl/src/widgets/lv_arc.c ****     lv_coord_t x       = obj->coords.x1 + rout + left;
 1255              		.loc 1 774 115 discriminator 1 view .LVU394
 1256 00c8 BBEB0909 		subs	r9, fp, r9
 1257              	.LVL141:
 774:Middlewares/lvgl/src/widgets/lv_arc.c ****     lv_coord_t x       = obj->coords.x1 + rout + left;
 1258              		.loc 1 774 115 discriminator 1 view .LVU395
 1259 00cc 4AD4     		bmi	.L59
 1260              	.L34:
 774:Middlewares/lvgl/src/widgets/lv_arc.c ****     lv_coord_t x       = obj->coords.x1 + rout + left;
 1261              		.loc 1 774 16 discriminator 1 view .LVU396
 1262 00ce 49F34F09 		sbfx	r9, r9, #1, #16
ARM GAS  /tmp/ccqOegKq.s 			page 53


 1263              	.LVL142:
 1264              	.L35:
 775:Middlewares/lvgl/src/widgets/lv_arc.c ****     lv_coord_t y       = obj->coords.y1 + rout + top;
 1265              		.loc 1 775 5 is_stmt 1 discriminator 4 view .LVU397
 775:Middlewares/lvgl/src/widgets/lv_arc.c ****     lv_coord_t y       = obj->coords.y1 + rout + top;
 1266              		.loc 1 775 37 is_stmt 0 discriminator 4 view .LVU398
 1267 00d2 B4F814B0 		ldrh	fp, [r4, #20]
 775:Middlewares/lvgl/src/widgets/lv_arc.c ****     lv_coord_t y       = obj->coords.y1 + rout + top;
 1268              		.loc 1 775 41 discriminator 4 view .LVU399
 1269 00d6 1FFA89F6 		uxth	r6, r9
 1270 00da B344     		add	fp, fp, r6
 775:Middlewares/lvgl/src/widgets/lv_arc.c ****     lv_coord_t y       = obj->coords.y1 + rout + top;
 1271              		.loc 1 775 48 discriminator 4 view .LVU400
 1272 00dc 17FA8BF7 		uxtah	r7, r7, fp
 1273 00e0 1FFA87FB 		uxth	fp, r7
 1274              	.LVL143:
 776:Middlewares/lvgl/src/widgets/lv_arc.c ****     lv_coord_t w = lv_obj_get_style_arc_width(obj, part);
 1275              		.loc 1 776 5 is_stmt 1 discriminator 4 view .LVU401
 776:Middlewares/lvgl/src/widgets/lv_arc.c ****     lv_coord_t w = lv_obj_get_style_arc_width(obj, part);
 1276              		.loc 1 776 37 is_stmt 0 discriminator 4 view .LVU402
 1277 00e4 E08A     		ldrh	r0, [r4, #22]
 776:Middlewares/lvgl/src/widgets/lv_arc.c ****     lv_coord_t w = lv_obj_get_style_arc_width(obj, part);
 1278              		.loc 1 776 41 discriminator 4 view .LVU403
 1279 00e6 3044     		add	r0, r0, r6
 776:Middlewares/lvgl/src/widgets/lv_arc.c ****     lv_coord_t w = lv_obj_get_style_arc_width(obj, part);
 1280              		.loc 1 776 48 discriminator 4 view .LVU404
 1281 00e8 049B     		ldr	r3, [sp, #16]
 1282 00ea 13FA80F0 		uxtah	r0, r3, r0
 1283 00ee 83B2     		uxth	r3, r0
 1284 00f0 0493     		str	r3, [sp, #16]
 1285              	.LVL144:
 777:Middlewares/lvgl/src/widgets/lv_arc.c ****     lv_coord_t rounded = lv_obj_get_style_arc_rounded(obj, part);
 1286              		.loc 1 777 5 is_stmt 1 discriminator 4 view .LVU405
 1287              	.LBB113:
 1288              	.LBI113:
 499:Middlewares/lvgl/src/widgets/../core/lv_obj_style_gen.h **** {
 1289              		.loc 2 499 26 discriminator 4 view .LVU406
 1290              	.LBB114:
 501:Middlewares/lvgl/src/widgets/../core/lv_obj_style_gen.h ****     return (lv_coord_t)v.num;
 1291              		.loc 2 501 5 discriminator 4 view .LVU407
 501:Middlewares/lvgl/src/widgets/../core/lv_obj_style_gen.h ****     return (lv_coord_t)v.num;
 1292              		.loc 2 501 26 is_stmt 0 discriminator 4 view .LVU408
 1293 00f2 4FF40562 		mov	r2, #2128
 1294 00f6 029F     		ldr	r7, [sp, #8]
 1295 00f8 3946     		mov	r1, r7
 1296 00fa 2046     		mov	r0, r4
 1297 00fc FFF7FEFF 		bl	lv_obj_get_style_prop
 1298              	.LVL145:
 1299 0100 8046     		mov	r8, r0
 1300              	.LVL146:
 1301              		.loc 2 502 5 is_stmt 1 discriminator 4 view .LVU409
 1302              		.loc 2 502 12 is_stmt 0 discriminator 4 view .LVU410
 1303 0102 0FFA80FA 		sxth	r10, r0
 1304              	.LVL147:
 1305              		.loc 2 502 12 discriminator 4 view .LVU411
 1306              	.LBE114:
 1307              	.LBE113:
ARM GAS  /tmp/ccqOegKq.s 			page 54


 778:Middlewares/lvgl/src/widgets/lv_arc.c ****     lv_coord_t rin       = rout - w;
 1308              		.loc 1 778 5 is_stmt 1 discriminator 4 view .LVU412
 1309              	.LBB115:
 1310              	.LBI115:
 503:Middlewares/lvgl/src/widgets/../core/lv_obj_style_gen.h **** }
 504:Middlewares/lvgl/src/widgets/../core/lv_obj_style_gen.h **** 
 505:Middlewares/lvgl/src/widgets/../core/lv_obj_style_gen.h **** static inline lv_coord_t lv_obj_get_style_arc_rounded(const struct _lv_obj_t * obj, uint32_t part)
 1311              		.loc 2 505 26 discriminator 4 view .LVU413
 1312              	.LBB116:
 506:Middlewares/lvgl/src/widgets/../core/lv_obj_style_gen.h **** {
 507:Middlewares/lvgl/src/widgets/../core/lv_obj_style_gen.h ****     lv_style_value_t v = lv_obj_get_style_prop(obj, part, LV_STYLE_ARC_ROUNDED);
 1313              		.loc 2 507 5 discriminator 4 view .LVU414
 1314              		.loc 2 507 26 is_stmt 0 discriminator 4 view .LVU415
 1315 0106 5122     		movs	r2, #81
 1316 0108 3946     		mov	r1, r7
 1317 010a 2046     		mov	r0, r4
 1318              		.loc 2 507 26 discriminator 4 view .LVU416
 1319 010c FFF7FEFF 		bl	lv_obj_get_style_prop
 1320              	.LVL148:
 508:Middlewares/lvgl/src/widgets/../core/lv_obj_style_gen.h ****     return (lv_coord_t)v.num;
 1321              		.loc 2 508 5 is_stmt 1 discriminator 4 view .LVU417
 1322              		.loc 2 508 12 is_stmt 0 discriminator 4 view .LVU418
 1323 0110 07B2     		sxth	r7, r0
 1324              	.LVL149:
 1325              		.loc 2 508 12 discriminator 4 view .LVU419
 1326              	.LBE116:
 1327              	.LBE115:
 779:Middlewares/lvgl/src/widgets/lv_arc.c ****     lv_coord_t extra_area = 0;
 1328              		.loc 1 779 5 is_stmt 1 discriminator 4 view .LVU420
 779:Middlewares/lvgl/src/widgets/lv_arc.c ****     lv_coord_t extra_area = 0;
 1329              		.loc 1 779 33 is_stmt 0 discriminator 4 view .LVU421
 1330 0112 A6EB0808 		sub	r8, r6, r8
 1331              	.LVL150:
 779:Middlewares/lvgl/src/widgets/lv_arc.c ****     lv_coord_t extra_area = 0;
 1332              		.loc 1 779 16 discriminator 4 view .LVU422
 1333 0116 0FFA88F8 		sxth	r8, r8
 1334              	.LVL151:
 780:Middlewares/lvgl/src/widgets/lv_arc.c **** 
 1335              		.loc 1 780 5 is_stmt 1 discriminator 4 view .LVU423
 782:Middlewares/lvgl/src/widgets/lv_arc.c **** 
 1336              		.loc 1 782 5 discriminator 4 view .LVU424
 782:Middlewares/lvgl/src/widgets/lv_arc.c **** 
 1337              		.loc 1 782 16 is_stmt 0 discriminator 4 view .LVU425
 1338 011a 37B1     		cbz	r7, .L37
 782:Middlewares/lvgl/src/widgets/lv_arc.c **** 
 1339              		.loc 1 782 34 discriminator 1 view .LVU426
 1340 011c 5746     		mov	r7, r10
 1341              	.LVL152:
 782:Middlewares/lvgl/src/widgets/lv_arc.c **** 
 1342              		.loc 1 782 34 discriminator 1 view .LVU427
 1343 011e BAF1000F 		cmp	r10, #0
 1344 0122 30DB     		blt	.L60
 1345              	.L38:
 1346 0124 7F10     		asrs	r7, r7, #1
 1347 0126 0237     		adds	r7, r7, #2
 782:Middlewares/lvgl/src/widgets/lv_arc.c **** 
 1348              		.loc 1 782 16 discriminator 1 view .LVU428
ARM GAS  /tmp/ccqOegKq.s 			page 55


 1349 0128 3FB2     		sxth	r7, r7
 1350              	.L37:
 1351              	.LVL153:
 784:Middlewares/lvgl/src/widgets/lv_arc.c ****         lv_coord_t knob_extra_size = lv_obj_calculate_ext_draw_size(obj, LV_PART_KNOB);
 1352              		.loc 1 784 5 is_stmt 1 discriminator 4 view .LVU429
 784:Middlewares/lvgl/src/widgets/lv_arc.c ****         lv_coord_t knob_extra_size = lv_obj_calculate_ext_draw_size(obj, LV_PART_KNOB);
 1353              		.loc 1 784 7 is_stmt 0 discriminator 4 view .LVU430
 1354 012a 029B     		ldr	r3, [sp, #8]
 1355 012c B3F5003F 		cmp	r3, #131072
 1356 0130 2CD0     		beq	.L61
 1357              	.LVL154:
 1358              	.L39:
 797:Middlewares/lvgl/src/widgets/lv_arc.c **** 
 1359              		.loc 1 797 5 is_stmt 1 view .LVU431
 799:Middlewares/lvgl/src/widgets/lv_arc.c ****         if(start_quarter == 0) {
 1360              		.loc 1 799 5 view .LVU432
 799:Middlewares/lvgl/src/widgets/lv_arc.c ****         if(start_quarter == 0) {
 1361              		.loc 1 799 7 is_stmt 0 view .LVU433
 1362 0132 019B     		ldr	r3, [sp, #4]
 1363 0134 039A     		ldr	r2, [sp, #12]
 1364 0136 0099     		ldr	r1, [sp]
 1365 0138 A942     		cmp	r1, r5
 1366 013a 98BF     		it	ls
 1367 013c 9342     		cmpls	r3, r2
 1368 013e 40F05581 		bne	.L41
 800:Middlewares/lvgl/src/widgets/lv_arc.c ****             inv_area.y1 = y + ((lv_trigo_sin(start_angle) * rin) >> LV_TRIGO_SHIFT) - extra_area;
 1369              		.loc 1 800 9 is_stmt 1 view .LVU434
 800:Middlewares/lvgl/src/widgets/lv_arc.c ****             inv_area.y1 = y + ((lv_trigo_sin(start_angle) * rin) >> LV_TRIGO_SHIFT) - extra_area;
 1370              		.loc 1 800 11 is_stmt 0 view .LVU435
 1371 0142 002B     		cmp	r3, #0
 1372 0144 6AD0     		beq	.L62
 809:Middlewares/lvgl/src/widgets/lv_arc.c ****             inv_area.y2 = y + ((lv_trigo_sin(start_angle) * rout) >> LV_TRIGO_SHIFT) + extra_area;
 1373              		.loc 1 809 14 is_stmt 1 view .LVU436
 809:Middlewares/lvgl/src/widgets/lv_arc.c ****             inv_area.y2 = y + ((lv_trigo_sin(start_angle) * rout) >> LV_TRIGO_SHIFT) + extra_area;
 1374              		.loc 1 809 16 is_stmt 0 view .LVU437
 1375 0146 019B     		ldr	r3, [sp, #4]
 1376 0148 012B     		cmp	r3, #1
 1377 014a 00F0A180 		beq	.L63
 818:Middlewares/lvgl/src/widgets/lv_arc.c ****             inv_area.x1 = x + ((lv_trigo_sin(start_angle + 90) * rout) >> LV_TRIGO_SHIFT) - extra_a
 1378              		.loc 1 818 14 is_stmt 1 view .LVU438
 818:Middlewares/lvgl/src/widgets/lv_arc.c ****             inv_area.x1 = x + ((lv_trigo_sin(start_angle + 90) * rout) >> LV_TRIGO_SHIFT) - extra_a
 1379              		.loc 1 818 16 is_stmt 0 view .LVU439
 1380 014e 019B     		ldr	r3, [sp, #4]
 1381 0150 022B     		cmp	r3, #2
 1382 0152 00F0D980 		beq	.L64
 827:Middlewares/lvgl/src/widgets/lv_arc.c ****             /*Small arc here*/
 1383              		.loc 1 827 14 is_stmt 1 view .LVU440
 827:Middlewares/lvgl/src/widgets/lv_arc.c ****             /*Small arc here*/
 1384              		.loc 1 827 16 is_stmt 0 view .LVU441
 1385 0156 019B     		ldr	r3, [sp, #4]
 1386 0158 032B     		cmp	r3, #3
 1387 015a 00F00F81 		beq	.L65
 1388              	.LVL155:
 1389              	.L28:
 874:Middlewares/lvgl/src/widgets/lv_arc.c **** 
 1390              		.loc 1 874 1 view .LVU442
 1391 015e 0BB0     		add	sp, sp, #44
ARM GAS  /tmp/ccqOegKq.s 			page 56


 1392              	.LCFI15:
 1393              		.cfi_remember_state
 1394              		.cfi_def_cfa_offset 36
 1395              		@ sp needed
 1396 0160 BDE8F08F 		pop	{r4, r5, r6, r7, r8, r9, r10, fp, pc}
 1397              	.LVL156:
 1398              	.L59:
 1399              	.LCFI16:
 1400              		.cfi_restore_state
 774:Middlewares/lvgl/src/widgets/lv_arc.c ****     lv_coord_t x       = obj->coords.x1 + rout + left;
 1401              		.loc 1 774 115 discriminator 1 view .LVU443
 1402 0164 09F10109 		add	r9, r9, #1
 1403 0168 B1E7     		b	.L34
 1404              	.LVL157:
 1405              	.L33:
 774:Middlewares/lvgl/src/widgets/lv_arc.c ****     lv_coord_t x       = obj->coords.x1 + rout + left;
 1406              		.loc 1 774 30 discriminator 2 view .LVU444
 1407 016a 2046     		mov	r0, r4
 1408 016c FFF7FEFF 		bl	lv_obj_get_height
 1409              	.LVL158:
 1410 0170 A0EB0A0A 		sub	r10, r0, r10
 1411              	.LVL159:
 774:Middlewares/lvgl/src/widgets/lv_arc.c ****     lv_coord_t x       = obj->coords.x1 + rout + left;
 1412              		.loc 1 774 115 discriminator 2 view .LVU445
 1413 0174 BAEB080A 		subs	r10, r10, r8
 1414 0178 02D4     		bmi	.L66
 1415              	.L36:
 774:Middlewares/lvgl/src/widgets/lv_arc.c ****     lv_coord_t x       = obj->coords.x1 + rout + left;
 1416              		.loc 1 774 16 discriminator 2 view .LVU446
 1417 017a 4AF34F09 		sbfx	r9, r10, #1, #16
 1418              	.LVL160:
 774:Middlewares/lvgl/src/widgets/lv_arc.c ****     lv_coord_t x       = obj->coords.x1 + rout + left;
 1419              		.loc 1 774 16 discriminator 2 view .LVU447
 1420 017e A8E7     		b	.L35
 1421              	.LVL161:
 1422              	.L66:
 774:Middlewares/lvgl/src/widgets/lv_arc.c ****     lv_coord_t x       = obj->coords.x1 + rout + left;
 1423              		.loc 1 774 115 discriminator 2 view .LVU448
 1424 0180 0AF1010A 		add	r10, r10, #1
 1425 0184 F9E7     		b	.L36
 1426              	.LVL162:
 1427              	.L60:
 782:Middlewares/lvgl/src/widgets/lv_arc.c **** 
 1428              		.loc 1 782 34 discriminator 1 view .LVU449
 1429 0186 0AF10107 		add	r7, r10, #1
 1430 018a CBE7     		b	.L38
 1431              	.LVL163:
 1432              	.L61:
 1433              	.LBB117:
 785:Middlewares/lvgl/src/widgets/lv_arc.c **** 
 1434              		.loc 1 785 9 is_stmt 1 view .LVU450
 785:Middlewares/lvgl/src/widgets/lv_arc.c **** 
 1435              		.loc 1 785 38 is_stmt 0 view .LVU451
 1436 018c 4FF44031 		mov	r1, #196608
 1437 0190 2046     		mov	r0, r4
 1438              	.LVL164:
 785:Middlewares/lvgl/src/widgets/lv_arc.c **** 
ARM GAS  /tmp/ccqOegKq.s 			page 57


 1439              		.loc 1 785 38 view .LVU452
 1440 0192 FFF7FEFF 		bl	lv_obj_calculate_ext_draw_size
 1441              	.LVL165:
 1442 0196 0790     		str	r0, [sp, #28]
 1443              	.LVL166:
 787:Middlewares/lvgl/src/widgets/lv_arc.c ****         lv_coord_t knob_right = lv_obj_get_style_pad_right(obj, LV_PART_KNOB);
 1444              		.loc 1 787 9 is_stmt 1 view .LVU453
 1445              	.LBB118:
 1446              	.LBI118:
 103:Middlewares/lvgl/src/widgets/../core/lv_obj_style_gen.h **** {
 1447              		.loc 2 103 26 view .LVU454
 1448              	.LBB119:
 105:Middlewares/lvgl/src/widgets/../core/lv_obj_style_gen.h ****     return (lv_coord_t)v.num;
 1449              		.loc 2 105 5 view .LVU455
 105:Middlewares/lvgl/src/widgets/../core/lv_obj_style_gen.h ****     return (lv_coord_t)v.num;
 1450              		.loc 2 105 26 is_stmt 0 view .LVU456
 1451 0198 41F21202 		movw	r2, #4114
 1452 019c 4FF44031 		mov	r1, #196608
 1453 01a0 2046     		mov	r0, r4
 1454 01a2 FFF7FEFF 		bl	lv_obj_get_style_prop
 1455              	.LVL167:
 106:Middlewares/lvgl/src/widgets/../core/lv_obj_style_gen.h **** }
 1456              		.loc 2 106 5 is_stmt 1 view .LVU457
 106:Middlewares/lvgl/src/widgets/../core/lv_obj_style_gen.h **** }
 1457              		.loc 2 106 12 is_stmt 0 view .LVU458
 1458 01a6 03B2     		sxth	r3, r0
 1459 01a8 0693     		str	r3, [sp, #24]
 1460              	.LVL168:
 106:Middlewares/lvgl/src/widgets/../core/lv_obj_style_gen.h **** }
 1461              		.loc 2 106 12 view .LVU459
 1462              	.LBE119:
 1463              	.LBE118:
 788:Middlewares/lvgl/src/widgets/lv_arc.c ****         lv_coord_t knob_top = lv_obj_get_style_pad_top(obj, LV_PART_KNOB);
 1464              		.loc 1 788 9 is_stmt 1 view .LVU460
 1465              	.LBB120:
 1466              	.LBI120:
 109:Middlewares/lvgl/src/widgets/../core/lv_obj_style_gen.h **** {
 1467              		.loc 2 109 26 view .LVU461
 1468              	.LBB121:
 111:Middlewares/lvgl/src/widgets/../core/lv_obj_style_gen.h ****     return (lv_coord_t)v.num;
 1469              		.loc 2 111 5 view .LVU462
 111:Middlewares/lvgl/src/widgets/../core/lv_obj_style_gen.h ****     return (lv_coord_t)v.num;
 1470              		.loc 2 111 26 is_stmt 0 view .LVU463
 1471 01aa 41F21302 		movw	r2, #4115
 1472 01ae 4FF44031 		mov	r1, #196608
 1473 01b2 2046     		mov	r0, r4
 1474 01b4 FFF7FEFF 		bl	lv_obj_get_style_prop
 1475              	.LVL169:
 112:Middlewares/lvgl/src/widgets/../core/lv_obj_style_gen.h **** }
 1476              		.loc 2 112 5 is_stmt 1 view .LVU464
 112:Middlewares/lvgl/src/widgets/../core/lv_obj_style_gen.h **** }
 1477              		.loc 2 112 12 is_stmt 0 view .LVU465
 1478 01b8 02B2     		sxth	r2, r0
 1479 01ba 0592     		str	r2, [sp, #20]
 1480              	.LVL170:
 112:Middlewares/lvgl/src/widgets/../core/lv_obj_style_gen.h **** }
 1481              		.loc 2 112 12 view .LVU466
ARM GAS  /tmp/ccqOegKq.s 			page 58


 1482              	.LBE121:
 1483              	.LBE120:
 789:Middlewares/lvgl/src/widgets/lv_arc.c ****         lv_coord_t knob_bottom = lv_obj_get_style_pad_bottom(obj, LV_PART_KNOB);
 1484              		.loc 1 789 9 is_stmt 1 view .LVU467
 1485              	.LBB122:
 1486              	.LBI122:
  91:Middlewares/lvgl/src/widgets/../core/lv_obj_style_gen.h **** {
 1487              		.loc 2 91 26 view .LVU468
 1488              	.LBB123:
  93:Middlewares/lvgl/src/widgets/../core/lv_obj_style_gen.h ****     return (lv_coord_t)v.num;
 1489              		.loc 2 93 5 view .LVU469
  93:Middlewares/lvgl/src/widgets/../core/lv_obj_style_gen.h ****     return (lv_coord_t)v.num;
 1490              		.loc 2 93 26 is_stmt 0 view .LVU470
 1491 01bc 41F21002 		movw	r2, #4112
 1492 01c0 4FF44031 		mov	r1, #196608
 1493 01c4 2046     		mov	r0, r4
 1494 01c6 FFF7FEFF 		bl	lv_obj_get_style_prop
 1495              	.LVL171:
  94:Middlewares/lvgl/src/widgets/../core/lv_obj_style_gen.h **** }
 1496              		.loc 2 94 5 is_stmt 1 view .LVU471
  94:Middlewares/lvgl/src/widgets/../core/lv_obj_style_gen.h **** }
 1497              		.loc 2 94 12 is_stmt 0 view .LVU472
 1498 01ca 01B2     		sxth	r1, r0
 1499 01cc 0291     		str	r1, [sp, #8]
 1500              	.LVL172:
  94:Middlewares/lvgl/src/widgets/../core/lv_obj_style_gen.h **** }
 1501              		.loc 2 94 12 view .LVU473
 1502              	.LBE123:
 1503              	.LBE122:
 790:Middlewares/lvgl/src/widgets/lv_arc.c **** 
 1504              		.loc 1 790 9 is_stmt 1 view .LVU474
 1505              	.LBB124:
 1506              	.LBI124:
  97:Middlewares/lvgl/src/widgets/../core/lv_obj_style_gen.h **** {
 1507              		.loc 2 97 26 view .LVU475
 1508              	.LBB125:
  99:Middlewares/lvgl/src/widgets/../core/lv_obj_style_gen.h ****     return (lv_coord_t)v.num;
 1509              		.loc 2 99 5 view .LVU476
  99:Middlewares/lvgl/src/widgets/../core/lv_obj_style_gen.h ****     return (lv_coord_t)v.num;
 1510              		.loc 2 99 26 is_stmt 0 view .LVU477
 1511 01ce 41F21102 		movw	r2, #4113
 1512 01d2 4FF44031 		mov	r1, #196608
 1513 01d6 2046     		mov	r0, r4
 1514 01d8 FFF7FEFF 		bl	lv_obj_get_style_prop
 1515              	.LVL173:
 100:Middlewares/lvgl/src/widgets/../core/lv_obj_style_gen.h **** }
 1516              		.loc 2 100 5 is_stmt 1 view .LVU478
 100:Middlewares/lvgl/src/widgets/../core/lv_obj_style_gen.h **** }
 1517              		.loc 2 100 12 is_stmt 0 view .LVU479
 1518 01dc 00B2     		sxth	r0, r0
 1519              	.LVL174:
 100:Middlewares/lvgl/src/widgets/../core/lv_obj_style_gen.h **** }
 1520              		.loc 2 100 12 view .LVU480
 1521              	.LBE125:
 1522              	.LBE124:
 792:Middlewares/lvgl/src/widgets/lv_arc.c **** 
 1523              		.loc 1 792 9 is_stmt 1 view .LVU481
ARM GAS  /tmp/ccqOegKq.s 			page 59


 792:Middlewares/lvgl/src/widgets/lv_arc.c **** 
 1524              		.loc 1 792 28 is_stmt 0 view .LVU482
 1525 01de 0299     		ldr	r1, [sp, #8]
 1526 01e0 8842     		cmp	r0, r1
 1527 01e2 B8BF     		it	lt
 1528 01e4 0846     		movlt	r0, r1
 1529              	.LVL175:
 792:Middlewares/lvgl/src/widgets/lv_arc.c **** 
 1530              		.loc 1 792 28 view .LVU483
 1531 01e6 069B     		ldr	r3, [sp, #24]
 1532 01e8 059A     		ldr	r2, [sp, #20]
 1533 01ea 9342     		cmp	r3, r2
 1534 01ec B8BF     		it	lt
 1535 01ee 1346     		movlt	r3, r2
 1536 01f0 9842     		cmp	r0, r3
 1537 01f2 B8BF     		it	lt
 1538 01f4 1846     		movlt	r0, r3
 792:Middlewares/lvgl/src/widgets/lv_arc.c **** 
 1539              		.loc 1 792 25 view .LVU484
 1540 01f6 079B     		ldr	r3, [sp, #28]
 1541 01f8 13FA80F0 		uxtah	r0, r3, r0
 1542 01fc 00B2     		sxth	r0, r0
 1543              	.LVL176:
 794:Middlewares/lvgl/src/widgets/lv_arc.c ****     }
 1544              		.loc 1 794 9 is_stmt 1 view .LVU485
 794:Middlewares/lvgl/src/widgets/lv_arc.c ****     }
 1545              		.loc 1 794 22 is_stmt 0 view .LVU486
 1546 01fe 5346     		mov	r3, r10
 1547 0200 BAF1000F 		cmp	r10, #0
 1548 0204 07DB     		blt	.L67
 1549              	.L40:
 1550 0206 5B10     		asrs	r3, r3, #1
 1551 0208 0233     		adds	r3, r3, #2
 1552 020a 1844     		add	r0, r0, r3
 1553              	.LVL177:
 794:Middlewares/lvgl/src/widgets/lv_arc.c ****     }
 1554              		.loc 1 794 22 view .LVU487
 1555 020c 8742     		cmp	r7, r0
 1556 020e B8BF     		it	lt
 1557 0210 0746     		movlt	r7, r0
 1558              	.LVL178:
 794:Middlewares/lvgl/src/widgets/lv_arc.c ****     }
 1559              		.loc 1 794 20 view .LVU488
 1560 0212 3FB2     		sxth	r7, r7
 1561              	.LVL179:
 794:Middlewares/lvgl/src/widgets/lv_arc.c ****     }
 1562              		.loc 1 794 20 view .LVU489
 1563 0214 8DE7     		b	.L39
 1564              	.LVL180:
 1565              	.L67:
 794:Middlewares/lvgl/src/widgets/lv_arc.c ****     }
 1566              		.loc 1 794 22 view .LVU490
 1567 0216 0AF10103 		add	r3, r10, #1
 1568 021a F4E7     		b	.L40
 1569              	.LVL181:
 1570              	.L62:
 794:Middlewares/lvgl/src/widgets/lv_arc.c ****     }
ARM GAS  /tmp/ccqOegKq.s 			page 60


 1571              		.loc 1 794 22 view .LVU491
 1572              	.LBE117:
 801:Middlewares/lvgl/src/widgets/lv_arc.c ****             inv_area.x2 = x + ((lv_trigo_sin(start_angle + 90) * rout) >> LV_TRIGO_SHIFT) + extra_a
 1573              		.loc 1 801 13 is_stmt 1 view .LVU492
 801:Middlewares/lvgl/src/widgets/lv_arc.c ****             inv_area.x2 = x + ((lv_trigo_sin(start_angle + 90) * rout) >> LV_TRIGO_SHIFT) + extra_a
 1574              		.loc 1 801 33 is_stmt 0 view .LVU493
 1575 021c 8A46     		mov	r10, r1
 1576              	.LVL182:
 801:Middlewares/lvgl/src/widgets/lv_arc.c ****             inv_area.x2 = x + ((lv_trigo_sin(start_angle + 90) * rout) >> LV_TRIGO_SHIFT) + extra_a
 1577              		.loc 1 801 33 view .LVU494
 1578 021e 08B2     		sxth	r0, r1
 1579 0220 FFF7FEFF 		bl	lv_trigo_sin
 1580              	.LVL183:
 801:Middlewares/lvgl/src/widgets/lv_arc.c ****             inv_area.x2 = x + ((lv_trigo_sin(start_angle + 90) * rout) >> LV_TRIGO_SHIFT) + extra_a
 1581              		.loc 1 801 59 view .LVU495
 1582 0224 08FB00F3 		mul	r3, r8, r0
 801:Middlewares/lvgl/src/widgets/lv_arc.c ****             inv_area.x2 = x + ((lv_trigo_sin(start_angle + 90) * rout) >> LV_TRIGO_SHIFT) + extra_a
 1583              		.loc 1 801 29 view .LVU496
 1584 0228 049E     		ldr	r6, [sp, #16]
 1585 022a 06EBE333 		add	r3, r6, r3, asr #15
 1586 022e 9BB2     		uxth	r3, r3
 801:Middlewares/lvgl/src/widgets/lv_arc.c ****             inv_area.x2 = x + ((lv_trigo_sin(start_angle + 90) * rout) >> LV_TRIGO_SHIFT) + extra_a
 1587              		.loc 1 801 85 view .LVU497
 1588 0230 BFB2     		uxth	r7, r7
 801:Middlewares/lvgl/src/widgets/lv_arc.c ****             inv_area.x2 = x + ((lv_trigo_sin(start_angle + 90) * rout) >> LV_TRIGO_SHIFT) + extra_a
 1589              		.loc 1 801 85 view .LVU498
 1590 0232 DB1B     		subs	r3, r3, r7
 801:Middlewares/lvgl/src/widgets/lv_arc.c ****             inv_area.x2 = x + ((lv_trigo_sin(start_angle + 90) * rout) >> LV_TRIGO_SHIFT) + extra_a
 1591              		.loc 1 801 25 view .LVU499
 1592 0234 ADF82230 		strh	r3, [sp, #34]	@ movhi
 802:Middlewares/lvgl/src/widgets/lv_arc.c **** 
 1593              		.loc 1 802 13 is_stmt 1 view .LVU500
 802:Middlewares/lvgl/src/widgets/lv_arc.c **** 
 1594              		.loc 1 802 58 is_stmt 0 view .LVU501
 1595 0238 5046     		mov	r0, r10
 1596 023a 5A30     		adds	r0, r0, #90
 802:Middlewares/lvgl/src/widgets/lv_arc.c **** 
 1597              		.loc 1 802 33 view .LVU502
 1598 023c 00B2     		sxth	r0, r0
 1599 023e FFF7FEFF 		bl	lv_trigo_sin
 1600              	.LVL184:
 802:Middlewares/lvgl/src/widgets/lv_arc.c **** 
 1601              		.loc 1 802 64 view .LVU503
 1602 0242 09FB00F3 		mul	r3, r9, r0
 802:Middlewares/lvgl/src/widgets/lv_arc.c **** 
 1603              		.loc 1 802 29 view .LVU504
 1604 0246 0BEBE333 		add	r3, fp, r3, asr #15
 802:Middlewares/lvgl/src/widgets/lv_arc.c **** 
 1605              		.loc 1 802 91 view .LVU505
 1606 024a 17FA83F3 		uxtah	r3, r7, r3
 802:Middlewares/lvgl/src/widgets/lv_arc.c **** 
 1607              		.loc 1 802 25 view .LVU506
 1608 024e ADF82430 		strh	r3, [sp, #36]	@ movhi
 804:Middlewares/lvgl/src/widgets/lv_arc.c ****             inv_area.x1 = x + ((lv_trigo_sin(end_angle + 90) * rin) >> LV_TRIGO_SHIFT) - extra_area
 1609              		.loc 1 804 13 is_stmt 1 view .LVU507
 804:Middlewares/lvgl/src/widgets/lv_arc.c ****             inv_area.x1 = x + ((lv_trigo_sin(end_angle + 90) * rin) >> LV_TRIGO_SHIFT) - extra_area
 1610              		.loc 1 804 33 is_stmt 0 view .LVU508
ARM GAS  /tmp/ccqOegKq.s 			page 61


 1611 0252 28B2     		sxth	r0, r5
 1612 0254 FFF7FEFF 		bl	lv_trigo_sin
 1613              	.LVL185:
 804:Middlewares/lvgl/src/widgets/lv_arc.c ****             inv_area.x1 = x + ((lv_trigo_sin(end_angle + 90) * rin) >> LV_TRIGO_SHIFT) - extra_area
 1614              		.loc 1 804 57 view .LVU509
 1615 0258 00FB09F9 		mul	r9, r0, r9
 1616              	.LVL186:
 804:Middlewares/lvgl/src/widgets/lv_arc.c ****             inv_area.x1 = x + ((lv_trigo_sin(end_angle + 90) * rin) >> LV_TRIGO_SHIFT) - extra_area
 1617              		.loc 1 804 29 view .LVU510
 1618 025c 06EBE939 		add	r9, r6, r9, asr #15
 804:Middlewares/lvgl/src/widgets/lv_arc.c ****             inv_area.x1 = x + ((lv_trigo_sin(end_angle + 90) * rin) >> LV_TRIGO_SHIFT) - extra_area
 1619              		.loc 1 804 84 view .LVU511
 1620 0260 17FA89F9 		uxtah	r9, r7, r9
 804:Middlewares/lvgl/src/widgets/lv_arc.c ****             inv_area.x1 = x + ((lv_trigo_sin(end_angle + 90) * rin) >> LV_TRIGO_SHIFT) - extra_area
 1621              		.loc 1 804 25 view .LVU512
 1622 0264 ADF82690 		strh	r9, [sp, #38]	@ movhi
 805:Middlewares/lvgl/src/widgets/lv_arc.c **** 
 1623              		.loc 1 805 13 is_stmt 1 view .LVU513
 805:Middlewares/lvgl/src/widgets/lv_arc.c **** 
 1624              		.loc 1 805 56 is_stmt 0 view .LVU514
 1625 0268 05F15A00 		add	r0, r5, #90
 805:Middlewares/lvgl/src/widgets/lv_arc.c **** 
 1626              		.loc 1 805 33 view .LVU515
 1627 026c 00B2     		sxth	r0, r0
 1628 026e FFF7FEFF 		bl	lv_trigo_sin
 1629              	.LVL187:
 805:Middlewares/lvgl/src/widgets/lv_arc.c **** 
 1630              		.loc 1 805 62 view .LVU516
 1631 0272 00FB08F0 		mul	r0, r0, r8
 805:Middlewares/lvgl/src/widgets/lv_arc.c **** 
 1632              		.loc 1 805 29 view .LVU517
 1633 0276 0BEBE03B 		add	fp, fp, r0, asr #15
 1634              	.LVL188:
 805:Middlewares/lvgl/src/widgets/lv_arc.c **** 
 1635              		.loc 1 805 29 view .LVU518
 1636 027a 1FFA8BFB 		uxth	fp, fp
 805:Middlewares/lvgl/src/widgets/lv_arc.c **** 
 1637              		.loc 1 805 88 view .LVU519
 1638 027e ABEB0707 		sub	r7, fp, r7
 1639              	.LVL189:
 805:Middlewares/lvgl/src/widgets/lv_arc.c **** 
 1640              		.loc 1 805 25 view .LVU520
 1641 0282 ADF82070 		strh	r7, [sp, #32]	@ movhi
 807:Middlewares/lvgl/src/widgets/lv_arc.c ****         }
 1642              		.loc 1 807 13 is_stmt 1 view .LVU521
 1643 0286 08A9     		add	r1, sp, #32
 1644 0288 2046     		mov	r0, r4
 1645 028a FFF7FEFF 		bl	lv_obj_invalidate_area
 1646              	.LVL190:
 1647 028e 66E7     		b	.L28
 1648              	.LVL191:
 1649              	.L63:
 810:Middlewares/lvgl/src/widgets/lv_arc.c ****             inv_area.x2 = x + ((lv_trigo_sin(start_angle + 90) * rin) >> LV_TRIGO_SHIFT) + extra_ar
 1650              		.loc 1 810 13 view .LVU522
 810:Middlewares/lvgl/src/widgets/lv_arc.c ****             inv_area.x2 = x + ((lv_trigo_sin(start_angle + 90) * rin) >> LV_TRIGO_SHIFT) + extra_ar
 1651              		.loc 1 810 33 is_stmt 0 view .LVU523
 1652 0290 DDF800A0 		ldr	r10, [sp]
ARM GAS  /tmp/ccqOegKq.s 			page 62


 1653              	.LVL192:
 810:Middlewares/lvgl/src/widgets/lv_arc.c ****             inv_area.x2 = x + ((lv_trigo_sin(start_angle + 90) * rin) >> LV_TRIGO_SHIFT) + extra_ar
 1654              		.loc 1 810 33 view .LVU524
 1655 0294 0FFA8AF0 		sxth	r0, r10
 1656 0298 FFF7FEFF 		bl	lv_trigo_sin
 1657              	.LVL193:
 810:Middlewares/lvgl/src/widgets/lv_arc.c ****             inv_area.x2 = x + ((lv_trigo_sin(start_angle + 90) * rin) >> LV_TRIGO_SHIFT) + extra_ar
 1658              		.loc 1 810 59 view .LVU525
 1659 029c 09FB00F3 		mul	r3, r9, r0
 810:Middlewares/lvgl/src/widgets/lv_arc.c ****             inv_area.x2 = x + ((lv_trigo_sin(start_angle + 90) * rin) >> LV_TRIGO_SHIFT) + extra_ar
 1660              		.loc 1 810 29 view .LVU526
 1661 02a0 049E     		ldr	r6, [sp, #16]
 1662 02a2 06EBE333 		add	r3, r6, r3, asr #15
 810:Middlewares/lvgl/src/widgets/lv_arc.c ****             inv_area.x2 = x + ((lv_trigo_sin(start_angle + 90) * rin) >> LV_TRIGO_SHIFT) + extra_ar
 1663              		.loc 1 810 86 view .LVU527
 1664 02a6 BFB2     		uxth	r7, r7
 810:Middlewares/lvgl/src/widgets/lv_arc.c ****             inv_area.x2 = x + ((lv_trigo_sin(start_angle + 90) * rin) >> LV_TRIGO_SHIFT) + extra_ar
 1665              		.loc 1 810 86 view .LVU528
 1666 02a8 17FA83F3 		uxtah	r3, r7, r3
 810:Middlewares/lvgl/src/widgets/lv_arc.c ****             inv_area.x2 = x + ((lv_trigo_sin(start_angle + 90) * rin) >> LV_TRIGO_SHIFT) + extra_ar
 1667              		.loc 1 810 25 view .LVU529
 1668 02ac ADF82630 		strh	r3, [sp, #38]	@ movhi
 811:Middlewares/lvgl/src/widgets/lv_arc.c **** 
 1669              		.loc 1 811 13 is_stmt 1 view .LVU530
 811:Middlewares/lvgl/src/widgets/lv_arc.c **** 
 1670              		.loc 1 811 58 is_stmt 0 view .LVU531
 1671 02b0 5046     		mov	r0, r10
 1672 02b2 5A30     		adds	r0, r0, #90
 811:Middlewares/lvgl/src/widgets/lv_arc.c **** 
 1673              		.loc 1 811 33 view .LVU532
 1674 02b4 00B2     		sxth	r0, r0
 1675 02b6 FFF7FEFF 		bl	lv_trigo_sin
 1676              	.LVL194:
 811:Middlewares/lvgl/src/widgets/lv_arc.c **** 
 1677              		.loc 1 811 64 view .LVU533
 1678 02ba 08FB00F3 		mul	r3, r8, r0
 811:Middlewares/lvgl/src/widgets/lv_arc.c **** 
 1679              		.loc 1 811 29 view .LVU534
 1680 02be 0BEBE333 		add	r3, fp, r3, asr #15
 811:Middlewares/lvgl/src/widgets/lv_arc.c **** 
 1681              		.loc 1 811 90 view .LVU535
 1682 02c2 17FA83F3 		uxtah	r3, r7, r3
 811:Middlewares/lvgl/src/widgets/lv_arc.c **** 
 1683              		.loc 1 811 25 view .LVU536
 1684 02c6 ADF82430 		strh	r3, [sp, #36]	@ movhi
 813:Middlewares/lvgl/src/widgets/lv_arc.c ****             inv_area.x1 = x + ((lv_trigo_sin(end_angle + 90) * rout) >> LV_TRIGO_SHIFT) - extra_are
 1685              		.loc 1 813 13 is_stmt 1 view .LVU537
 813:Middlewares/lvgl/src/widgets/lv_arc.c ****             inv_area.x1 = x + ((lv_trigo_sin(end_angle + 90) * rout) >> LV_TRIGO_SHIFT) - extra_are
 1686              		.loc 1 813 33 is_stmt 0 view .LVU538
 1687 02ca 28B2     		sxth	r0, r5
 1688 02cc FFF7FEFF 		bl	lv_trigo_sin
 1689              	.LVL195:
 813:Middlewares/lvgl/src/widgets/lv_arc.c ****             inv_area.x1 = x + ((lv_trigo_sin(end_angle + 90) * rout) >> LV_TRIGO_SHIFT) - extra_are
 1690              		.loc 1 813 57 view .LVU539
 1691 02d0 00FB08F3 		mul	r3, r0, r8
 813:Middlewares/lvgl/src/widgets/lv_arc.c ****             inv_area.x1 = x + ((lv_trigo_sin(end_angle + 90) * rout) >> LV_TRIGO_SHIFT) - extra_are
 1692              		.loc 1 813 29 view .LVU540
ARM GAS  /tmp/ccqOegKq.s 			page 63


 1693 02d4 06EBE333 		add	r3, r6, r3, asr #15
 1694 02d8 9BB2     		uxth	r3, r3
 813:Middlewares/lvgl/src/widgets/lv_arc.c ****             inv_area.x1 = x + ((lv_trigo_sin(end_angle + 90) * rout) >> LV_TRIGO_SHIFT) - extra_are
 1695              		.loc 1 813 83 view .LVU541
 1696 02da DB1B     		subs	r3, r3, r7
 813:Middlewares/lvgl/src/widgets/lv_arc.c ****             inv_area.x1 = x + ((lv_trigo_sin(end_angle + 90) * rout) >> LV_TRIGO_SHIFT) - extra_are
 1697              		.loc 1 813 25 view .LVU542
 1698 02dc ADF82230 		strh	r3, [sp, #34]	@ movhi
 814:Middlewares/lvgl/src/widgets/lv_arc.c **** 
 1699              		.loc 1 814 13 is_stmt 1 view .LVU543
 814:Middlewares/lvgl/src/widgets/lv_arc.c **** 
 1700              		.loc 1 814 56 is_stmt 0 view .LVU544
 1701 02e0 05F15A00 		add	r0, r5, #90
 814:Middlewares/lvgl/src/widgets/lv_arc.c **** 
 1702              		.loc 1 814 33 view .LVU545
 1703 02e4 00B2     		sxth	r0, r0
 1704 02e6 FFF7FEFF 		bl	lv_trigo_sin
 1705              	.LVL196:
 814:Middlewares/lvgl/src/widgets/lv_arc.c **** 
 1706              		.loc 1 814 62 view .LVU546
 1707 02ea 00FB09F9 		mul	r9, r0, r9
 1708              	.LVL197:
 814:Middlewares/lvgl/src/widgets/lv_arc.c **** 
 1709              		.loc 1 814 29 view .LVU547
 1710 02ee 0BEBE93B 		add	fp, fp, r9, asr #15
 1711              	.LVL198:
 814:Middlewares/lvgl/src/widgets/lv_arc.c **** 
 1712              		.loc 1 814 29 view .LVU548
 1713 02f2 1FFA8BFB 		uxth	fp, fp
 814:Middlewares/lvgl/src/widgets/lv_arc.c **** 
 1714              		.loc 1 814 89 view .LVU549
 1715 02f6 ABEB0707 		sub	r7, fp, r7
 1716              	.LVL199:
 814:Middlewares/lvgl/src/widgets/lv_arc.c **** 
 1717              		.loc 1 814 25 view .LVU550
 1718 02fa ADF82070 		strh	r7, [sp, #32]	@ movhi
 816:Middlewares/lvgl/src/widgets/lv_arc.c ****         }
 1719              		.loc 1 816 13 is_stmt 1 view .LVU551
 1720 02fe 08A9     		add	r1, sp, #32
 1721 0300 2046     		mov	r0, r4
 1722 0302 FFF7FEFF 		bl	lv_obj_invalidate_area
 1723              	.LVL200:
 1724 0306 2AE7     		b	.L28
 1725              	.LVL201:
 1726              	.L64:
 819:Middlewares/lvgl/src/widgets/lv_arc.c ****             inv_area.y2 = y + ((lv_trigo_sin(start_angle) * rin) >> LV_TRIGO_SHIFT) + extra_area;
 1727              		.loc 1 819 13 view .LVU552
 819:Middlewares/lvgl/src/widgets/lv_arc.c ****             inv_area.y2 = y + ((lv_trigo_sin(start_angle) * rin) >> LV_TRIGO_SHIFT) + extra_area;
 1728              		.loc 1 819 58 is_stmt 0 view .LVU553
 1729 0308 009E     		ldr	r6, [sp]
 1730 030a 06F15A00 		add	r0, r6, #90
 819:Middlewares/lvgl/src/widgets/lv_arc.c ****             inv_area.y2 = y + ((lv_trigo_sin(start_angle) * rin) >> LV_TRIGO_SHIFT) + extra_area;
 1731              		.loc 1 819 33 view .LVU554
 1732 030e 00B2     		sxth	r0, r0
 1733 0310 FFF7FEFF 		bl	lv_trigo_sin
 1734              	.LVL202:
 819:Middlewares/lvgl/src/widgets/lv_arc.c ****             inv_area.y2 = y + ((lv_trigo_sin(start_angle) * rin) >> LV_TRIGO_SHIFT) + extra_area;
ARM GAS  /tmp/ccqOegKq.s 			page 64


 1735              		.loc 1 819 64 view .LVU555
 1736 0314 09FB00F3 		mul	r3, r9, r0
 819:Middlewares/lvgl/src/widgets/lv_arc.c ****             inv_area.y2 = y + ((lv_trigo_sin(start_angle) * rin) >> LV_TRIGO_SHIFT) + extra_area;
 1737              		.loc 1 819 29 view .LVU556
 1738 0318 0BEBE333 		add	r3, fp, r3, asr #15
 1739 031c 9BB2     		uxth	r3, r3
 819:Middlewares/lvgl/src/widgets/lv_arc.c ****             inv_area.y2 = y + ((lv_trigo_sin(start_angle) * rin) >> LV_TRIGO_SHIFT) + extra_area;
 1740              		.loc 1 819 91 view .LVU557
 1741 031e BFB2     		uxth	r7, r7
 819:Middlewares/lvgl/src/widgets/lv_arc.c ****             inv_area.y2 = y + ((lv_trigo_sin(start_angle) * rin) >> LV_TRIGO_SHIFT) + extra_area;
 1742              		.loc 1 819 91 view .LVU558
 1743 0320 DB1B     		subs	r3, r3, r7
 819:Middlewares/lvgl/src/widgets/lv_arc.c ****             inv_area.y2 = y + ((lv_trigo_sin(start_angle) * rin) >> LV_TRIGO_SHIFT) + extra_area;
 1744              		.loc 1 819 25 view .LVU559
 1745 0322 ADF82030 		strh	r3, [sp, #32]	@ movhi
 820:Middlewares/lvgl/src/widgets/lv_arc.c **** 
 1746              		.loc 1 820 13 is_stmt 1 view .LVU560
 820:Middlewares/lvgl/src/widgets/lv_arc.c **** 
 1747              		.loc 1 820 33 is_stmt 0 view .LVU561
 1748 0326 30B2     		sxth	r0, r6
 1749 0328 FFF7FEFF 		bl	lv_trigo_sin
 1750              	.LVL203:
 820:Middlewares/lvgl/src/widgets/lv_arc.c **** 
 1751              		.loc 1 820 59 view .LVU562
 1752 032c 08FB00F3 		mul	r3, r8, r0
 820:Middlewares/lvgl/src/widgets/lv_arc.c **** 
 1753              		.loc 1 820 29 view .LVU563
 1754 0330 049E     		ldr	r6, [sp, #16]
 1755 0332 06EBE333 		add	r3, r6, r3, asr #15
 820:Middlewares/lvgl/src/widgets/lv_arc.c **** 
 1756              		.loc 1 820 85 view .LVU564
 1757 0336 17FA83F3 		uxtah	r3, r7, r3
 820:Middlewares/lvgl/src/widgets/lv_arc.c **** 
 1758              		.loc 1 820 25 view .LVU565
 1759 033a ADF82630 		strh	r3, [sp, #38]	@ movhi
 822:Middlewares/lvgl/src/widgets/lv_arc.c ****             inv_area.x2 = x + ((lv_trigo_sin(end_angle + 90) * rin) >> LV_TRIGO_SHIFT) + extra_area
 1760              		.loc 1 822 13 is_stmt 1 view .LVU566
 822:Middlewares/lvgl/src/widgets/lv_arc.c ****             inv_area.x2 = x + ((lv_trigo_sin(end_angle + 90) * rin) >> LV_TRIGO_SHIFT) + extra_area
 1761              		.loc 1 822 33 is_stmt 0 view .LVU567
 1762 033e 28B2     		sxth	r0, r5
 1763 0340 FFF7FEFF 		bl	lv_trigo_sin
 1764              	.LVL204:
 822:Middlewares/lvgl/src/widgets/lv_arc.c ****             inv_area.x2 = x + ((lv_trigo_sin(end_angle + 90) * rin) >> LV_TRIGO_SHIFT) + extra_area
 1765              		.loc 1 822 57 view .LVU568
 1766 0344 00FB09F3 		mul	r3, r0, r9
 822:Middlewares/lvgl/src/widgets/lv_arc.c ****             inv_area.x2 = x + ((lv_trigo_sin(end_angle + 90) * rin) >> LV_TRIGO_SHIFT) + extra_area
 1767              		.loc 1 822 29 view .LVU569
 1768 0348 06EBE333 		add	r3, r6, r3, asr #15
 1769 034c 9BB2     		uxth	r3, r3
 822:Middlewares/lvgl/src/widgets/lv_arc.c ****             inv_area.x2 = x + ((lv_trigo_sin(end_angle + 90) * rin) >> LV_TRIGO_SHIFT) + extra_area
 1770              		.loc 1 822 84 view .LVU570
 1771 034e DB1B     		subs	r3, r3, r7
 822:Middlewares/lvgl/src/widgets/lv_arc.c ****             inv_area.x2 = x + ((lv_trigo_sin(end_angle + 90) * rin) >> LV_TRIGO_SHIFT) + extra_area
 1772              		.loc 1 822 25 view .LVU571
 1773 0350 ADF82230 		strh	r3, [sp, #34]	@ movhi
 823:Middlewares/lvgl/src/widgets/lv_arc.c **** 
 1774              		.loc 1 823 13 is_stmt 1 view .LVU572
ARM GAS  /tmp/ccqOegKq.s 			page 65


 823:Middlewares/lvgl/src/widgets/lv_arc.c **** 
 1775              		.loc 1 823 56 is_stmt 0 view .LVU573
 1776 0354 05F15A00 		add	r0, r5, #90
 823:Middlewares/lvgl/src/widgets/lv_arc.c **** 
 1777              		.loc 1 823 33 view .LVU574
 1778 0358 00B2     		sxth	r0, r0
 1779 035a FFF7FEFF 		bl	lv_trigo_sin
 1780              	.LVL205:
 823:Middlewares/lvgl/src/widgets/lv_arc.c **** 
 1781              		.loc 1 823 62 view .LVU575
 1782 035e 00FB08F0 		mul	r0, r0, r8
 823:Middlewares/lvgl/src/widgets/lv_arc.c **** 
 1783              		.loc 1 823 29 view .LVU576
 1784 0362 0BEBE03B 		add	fp, fp, r0, asr #15
 1785              	.LVL206:
 823:Middlewares/lvgl/src/widgets/lv_arc.c **** 
 1786              		.loc 1 823 88 view .LVU577
 1787 0366 17FA8BF7 		uxtah	r7, r7, fp
 1788              	.LVL207:
 823:Middlewares/lvgl/src/widgets/lv_arc.c **** 
 1789              		.loc 1 823 25 view .LVU578
 1790 036a ADF82470 		strh	r7, [sp, #36]	@ movhi
 825:Middlewares/lvgl/src/widgets/lv_arc.c ****         }
 1791              		.loc 1 825 13 is_stmt 1 view .LVU579
 1792 036e 08A9     		add	r1, sp, #32
 1793 0370 2046     		mov	r0, r4
 1794 0372 FFF7FEFF 		bl	lv_obj_invalidate_area
 1795              	.LVL208:
 1796 0376 F2E6     		b	.L28
 1797              	.L72:
 1798              		.align	2
 1799              	.L71:
 1800 0378 B7600BB6 		.word	-1240768329
 1801              	.LVL209:
 1802              	.L65:
 829:Middlewares/lvgl/src/widgets/lv_arc.c ****             inv_area.y1 = y + ((lv_trigo_sin(start_angle) * rout) >> LV_TRIGO_SHIFT) - extra_area;
 1803              		.loc 1 829 13 view .LVU580
 829:Middlewares/lvgl/src/widgets/lv_arc.c ****             inv_area.y1 = y + ((lv_trigo_sin(start_angle) * rout) >> LV_TRIGO_SHIFT) - extra_area;
 1804              		.loc 1 829 58 is_stmt 0 view .LVU581
 1805 037c 009E     		ldr	r6, [sp]
 1806 037e 06F15A00 		add	r0, r6, #90
 829:Middlewares/lvgl/src/widgets/lv_arc.c ****             inv_area.y1 = y + ((lv_trigo_sin(start_angle) * rout) >> LV_TRIGO_SHIFT) - extra_area;
 1807              		.loc 1 829 33 view .LVU582
 1808 0382 00B2     		sxth	r0, r0
 1809 0384 FFF7FEFF 		bl	lv_trigo_sin
 1810              	.LVL210:
 829:Middlewares/lvgl/src/widgets/lv_arc.c ****             inv_area.y1 = y + ((lv_trigo_sin(start_angle) * rout) >> LV_TRIGO_SHIFT) - extra_area;
 1811              		.loc 1 829 64 view .LVU583
 1812 0388 08FB00F3 		mul	r3, r8, r0
 829:Middlewares/lvgl/src/widgets/lv_arc.c ****             inv_area.y1 = y + ((lv_trigo_sin(start_angle) * rout) >> LV_TRIGO_SHIFT) - extra_area;
 1813              		.loc 1 829 29 view .LVU584
 1814 038c 0BEBE333 		add	r3, fp, r3, asr #15
 1815 0390 9BB2     		uxth	r3, r3
 829:Middlewares/lvgl/src/widgets/lv_arc.c ****             inv_area.y1 = y + ((lv_trigo_sin(start_angle) * rout) >> LV_TRIGO_SHIFT) - extra_area;
 1816              		.loc 1 829 90 view .LVU585
 1817 0392 BFB2     		uxth	r7, r7
 829:Middlewares/lvgl/src/widgets/lv_arc.c ****             inv_area.y1 = y + ((lv_trigo_sin(start_angle) * rout) >> LV_TRIGO_SHIFT) - extra_area;
ARM GAS  /tmp/ccqOegKq.s 			page 66


 1818              		.loc 1 829 90 view .LVU586
 1819 0394 DB1B     		subs	r3, r3, r7
 829:Middlewares/lvgl/src/widgets/lv_arc.c ****             inv_area.y1 = y + ((lv_trigo_sin(start_angle) * rout) >> LV_TRIGO_SHIFT) - extra_area;
 1820              		.loc 1 829 25 view .LVU587
 1821 0396 ADF82030 		strh	r3, [sp, #32]	@ movhi
 830:Middlewares/lvgl/src/widgets/lv_arc.c **** 
 1822              		.loc 1 830 13 is_stmt 1 view .LVU588
 830:Middlewares/lvgl/src/widgets/lv_arc.c **** 
 1823              		.loc 1 830 33 is_stmt 0 view .LVU589
 1824 039a 30B2     		sxth	r0, r6
 1825 039c FFF7FEFF 		bl	lv_trigo_sin
 1826              	.LVL211:
 830:Middlewares/lvgl/src/widgets/lv_arc.c **** 
 1827              		.loc 1 830 59 view .LVU590
 1828 03a0 09FB00F3 		mul	r3, r9, r0
 830:Middlewares/lvgl/src/widgets/lv_arc.c **** 
 1829              		.loc 1 830 29 view .LVU591
 1830 03a4 049E     		ldr	r6, [sp, #16]
 1831 03a6 06EBE333 		add	r3, r6, r3, asr #15
 1832 03aa 9BB2     		uxth	r3, r3
 830:Middlewares/lvgl/src/widgets/lv_arc.c **** 
 1833              		.loc 1 830 86 view .LVU592
 1834 03ac DB1B     		subs	r3, r3, r7
 830:Middlewares/lvgl/src/widgets/lv_arc.c **** 
 1835              		.loc 1 830 25 view .LVU593
 1836 03ae ADF82230 		strh	r3, [sp, #34]	@ movhi
 832:Middlewares/lvgl/src/widgets/lv_arc.c ****             inv_area.y2 = y + ((lv_trigo_sin(end_angle) * rin) >> LV_TRIGO_SHIFT) + extra_area;
 1837              		.loc 1 832 13 is_stmt 1 view .LVU594
 832:Middlewares/lvgl/src/widgets/lv_arc.c ****             inv_area.y2 = y + ((lv_trigo_sin(end_angle) * rin) >> LV_TRIGO_SHIFT) + extra_area;
 1838              		.loc 1 832 56 is_stmt 0 view .LVU595
 1839 03b2 05F15A00 		add	r0, r5, #90
 832:Middlewares/lvgl/src/widgets/lv_arc.c ****             inv_area.y2 = y + ((lv_trigo_sin(end_angle) * rin) >> LV_TRIGO_SHIFT) + extra_area;
 1840              		.loc 1 832 33 view .LVU596
 1841 03b6 00B2     		sxth	r0, r0
 1842 03b8 FFF7FEFF 		bl	lv_trigo_sin
 1843              	.LVL212:
 832:Middlewares/lvgl/src/widgets/lv_arc.c ****             inv_area.y2 = y + ((lv_trigo_sin(end_angle) * rin) >> LV_TRIGO_SHIFT) + extra_area;
 1844              		.loc 1 832 62 view .LVU597
 1845 03bc 00FB09F9 		mul	r9, r0, r9
 1846              	.LVL213:
 832:Middlewares/lvgl/src/widgets/lv_arc.c ****             inv_area.y2 = y + ((lv_trigo_sin(end_angle) * rin) >> LV_TRIGO_SHIFT) + extra_area;
 1847              		.loc 1 832 29 view .LVU598
 1848 03c0 0BEBE93B 		add	fp, fp, r9, asr #15
 1849              	.LVL214:
 832:Middlewares/lvgl/src/widgets/lv_arc.c ****             inv_area.y2 = y + ((lv_trigo_sin(end_angle) * rin) >> LV_TRIGO_SHIFT) + extra_area;
 1850              		.loc 1 832 89 view .LVU599
 1851 03c4 17FA8BFB 		uxtah	fp, r7, fp
 832:Middlewares/lvgl/src/widgets/lv_arc.c ****             inv_area.y2 = y + ((lv_trigo_sin(end_angle) * rin) >> LV_TRIGO_SHIFT) + extra_area;
 1852              		.loc 1 832 25 view .LVU600
 1853 03c8 ADF824B0 		strh	fp, [sp, #36]	@ movhi
 833:Middlewares/lvgl/src/widgets/lv_arc.c **** 
 1854              		.loc 1 833 13 is_stmt 1 view .LVU601
 833:Middlewares/lvgl/src/widgets/lv_arc.c **** 
 1855              		.loc 1 833 33 is_stmt 0 view .LVU602
 1856 03cc 28B2     		sxth	r0, r5
 1857 03ce FFF7FEFF 		bl	lv_trigo_sin
 1858              	.LVL215:
ARM GAS  /tmp/ccqOegKq.s 			page 67


 833:Middlewares/lvgl/src/widgets/lv_arc.c **** 
 1859              		.loc 1 833 57 view .LVU603
 1860 03d2 00FB08F3 		mul	r3, r0, r8
 833:Middlewares/lvgl/src/widgets/lv_arc.c **** 
 1861              		.loc 1 833 29 view .LVU604
 1862 03d6 06EBE333 		add	r3, r6, r3, asr #15
 833:Middlewares/lvgl/src/widgets/lv_arc.c **** 
 1863              		.loc 1 833 83 view .LVU605
 1864 03da 17FA83F7 		uxtah	r7, r7, r3
 1865              	.LVL216:
 833:Middlewares/lvgl/src/widgets/lv_arc.c **** 
 1866              		.loc 1 833 25 view .LVU606
 1867 03de ADF82670 		strh	r7, [sp, #38]	@ movhi
 835:Middlewares/lvgl/src/widgets/lv_arc.c ****         }
 1868              		.loc 1 835 13 is_stmt 1 view .LVU607
 1869 03e2 08A9     		add	r1, sp, #32
 1870 03e4 2046     		mov	r0, r4
 1871 03e6 FFF7FEFF 		bl	lv_obj_invalidate_area
 1872              	.LVL217:
 1873 03ea B8E6     		b	.L28
 1874              	.LVL218:
 1875              	.L41:
 838:Middlewares/lvgl/src/widgets/lv_arc.c ****         inv_area.x1 = x + ((lv_trigo_sin(end_angle + 90) * rout) >> LV_TRIGO_SHIFT) - extra_area;
 1876              		.loc 1 838 10 view .LVU608
 838:Middlewares/lvgl/src/widgets/lv_arc.c ****         inv_area.x1 = x + ((lv_trigo_sin(end_angle + 90) * rout) >> LV_TRIGO_SHIFT) - extra_area;
 1877              		.loc 1 838 12 is_stmt 0 view .LVU609
 1878 03ec 019B     		ldr	r3, [sp, #4]
 1879 03ee 039A     		ldr	r2, [sp, #12]
 1880 03f0 002B     		cmp	r3, #0
 1881 03f2 08BF     		it	eq
 1882 03f4 012A     		cmpeq	r2, #1
 1883 03f6 57D0     		beq	.L68
 846:Middlewares/lvgl/src/widgets/lv_arc.c ****         inv_area.x1 = x - rout - extra_area;
 1884              		.loc 1 846 10 is_stmt 1 view .LVU610
 846:Middlewares/lvgl/src/widgets/lv_arc.c ****         inv_area.x1 = x - rout - extra_area;
 1885              		.loc 1 846 12 is_stmt 0 view .LVU611
 1886 03f8 019B     		ldr	r3, [sp, #4]
 1887 03fa 039A     		ldr	r2, [sp, #12]
 1888 03fc 012B     		cmp	r3, #1
 1889 03fe 08BF     		it	eq
 1890 0400 022A     		cmpeq	r2, #2
 1891 0402 00F09680 		beq	.L69
 854:Middlewares/lvgl/src/widgets/lv_arc.c ****         inv_area.x1 = x + ((lv_trigo_sin(start_angle + 90) * rout) >> LV_TRIGO_SHIFT) - extra_area;
 1892              		.loc 1 854 10 is_stmt 1 view .LVU612
 854:Middlewares/lvgl/src/widgets/lv_arc.c ****         inv_area.x1 = x + ((lv_trigo_sin(start_angle + 90) * rout) >> LV_TRIGO_SHIFT) - extra_area;
 1893              		.loc 1 854 12 is_stmt 0 view .LVU613
 1894 0406 019B     		ldr	r3, [sp, #4]
 1895 0408 039A     		ldr	r2, [sp, #12]
 1896 040a 022B     		cmp	r3, #2
 1897 040c 08BF     		it	eq
 1898 040e 032A     		cmpeq	r2, #3
 1899 0410 00F0D680 		beq	.L70
 862:Middlewares/lvgl/src/widgets/lv_arc.c ****         inv_area.x1 = x + ((LV_MIN(lv_trigo_sin(end_angle + 90),
 1900              		.loc 1 862 10 is_stmt 1 view .LVU614
 862:Middlewares/lvgl/src/widgets/lv_arc.c ****         inv_area.x1 = x + ((LV_MIN(lv_trigo_sin(end_angle + 90),
 1901              		.loc 1 862 12 is_stmt 0 view .LVU615
 1902 0414 019B     		ldr	r3, [sp, #4]
ARM GAS  /tmp/ccqOegKq.s 			page 68


 1903 0416 039A     		ldr	r2, [sp, #12]
 1904 0418 032B     		cmp	r3, #3
 1905 041a 08BF     		it	eq
 1906 041c 002A     		cmpeq	r2, #0
 1907 041e 40F01E81 		bne	.L55
 863:Middlewares/lvgl/src/widgets/lv_arc.c ****                                         lv_trigo_sin(start_angle + 90)) * rin) >> LV_TRIGO_SHIFT) -
 1908              		.loc 1 863 9 is_stmt 1 view .LVU616
 863:Middlewares/lvgl/src/widgets/lv_arc.c ****                                         lv_trigo_sin(start_angle + 90)) * rin) >> LV_TRIGO_SHIFT) -
 1909              		.loc 1 863 29 is_stmt 0 view .LVU617
 1910 0422 05F15A03 		add	r3, r5, #90
 1911 0426 1BB2     		sxth	r3, r3
 1912 0428 0293     		str	r3, [sp, #8]
 1913 042a 1846     		mov	r0, r3
 1914 042c FFF7FEFF 		bl	lv_trigo_sin
 1915              	.LVL219:
 1916 0430 0190     		str	r0, [sp, #4]
 1917              	.LVL220:
 863:Middlewares/lvgl/src/widgets/lv_arc.c ****                                         lv_trigo_sin(start_angle + 90)) * rin) >> LV_TRIGO_SHIFT) -
 1918              		.loc 1 863 29 view .LVU618
 1919 0432 009A     		ldr	r2, [sp]
 1920 0434 02F15A03 		add	r3, r2, #90
 1921 0438 0FFA83FA 		sxth	r10, r3
 1922              	.LVL221:
 863:Middlewares/lvgl/src/widgets/lv_arc.c ****                                         lv_trigo_sin(start_angle + 90)) * rin) >> LV_TRIGO_SHIFT) -
 1923              		.loc 1 863 29 view .LVU619
 1924 043c 5046     		mov	r0, r10
 1925 043e FFF7FEFF 		bl	lv_trigo_sin
 1926              	.LVL222:
 1927 0442 019A     		ldr	r2, [sp, #4]
 1928 0444 8242     		cmp	r2, r0
 1929 0446 80F20681 		bge	.L56
 863:Middlewares/lvgl/src/widgets/lv_arc.c ****                                         lv_trigo_sin(start_angle + 90)) * rin) >> LV_TRIGO_SHIFT) -
 1930              		.loc 1 863 29 discriminator 1 view .LVU620
 1931 044a 0298     		ldr	r0, [sp, #8]
 1932 044c FFF7FEFF 		bl	lv_trigo_sin
 1933              	.LVL223:
 1934              	.L57:
 864:Middlewares/lvgl/src/widgets/lv_arc.c ****         inv_area.y1 = y + ((lv_trigo_sin(start_angle) * rout) >> LV_TRIGO_SHIFT) - extra_area;
 1935              		.loc 1 864 73 view .LVU621
 1936 0450 00FB08F3 		mul	r3, r0, r8
 863:Middlewares/lvgl/src/widgets/lv_arc.c ****                                         lv_trigo_sin(start_angle + 90)) * rin) >> LV_TRIGO_SHIFT) -
 1937              		.loc 1 863 25 view .LVU622
 1938 0454 0BEBE333 		add	r3, fp, r3, asr #15
 1939 0458 9BB2     		uxth	r3, r3
 864:Middlewares/lvgl/src/widgets/lv_arc.c ****         inv_area.y1 = y + ((lv_trigo_sin(start_angle) * rout) >> LV_TRIGO_SHIFT) - extra_area;
 1940              		.loc 1 864 99 view .LVU623
 1941 045a BFB2     		uxth	r7, r7
 864:Middlewares/lvgl/src/widgets/lv_arc.c ****         inv_area.y1 = y + ((lv_trigo_sin(start_angle) * rout) >> LV_TRIGO_SHIFT) - extra_area;
 1942              		.loc 1 864 99 view .LVU624
 1943 045c DB1B     		subs	r3, r3, r7
 863:Middlewares/lvgl/src/widgets/lv_arc.c ****                                         lv_trigo_sin(start_angle + 90)) * rin) >> LV_TRIGO_SHIFT) -
 1944              		.loc 1 863 21 view .LVU625
 1945 045e ADF82030 		strh	r3, [sp, #32]	@ movhi
 865:Middlewares/lvgl/src/widgets/lv_arc.c ****         inv_area.x2 = x + rout + extra_area;
 1946              		.loc 1 865 9 is_stmt 1 view .LVU626
 865:Middlewares/lvgl/src/widgets/lv_arc.c ****         inv_area.x2 = x + rout + extra_area;
 1947              		.loc 1 865 29 is_stmt 0 view .LVU627
ARM GAS  /tmp/ccqOegKq.s 			page 69


 1948 0462 BDF90000 		ldrsh	r0, [sp]
 1949 0466 FFF7FEFF 		bl	lv_trigo_sin
 1950              	.LVL224:
 865:Middlewares/lvgl/src/widgets/lv_arc.c ****         inv_area.x2 = x + rout + extra_area;
 1951              		.loc 1 865 55 view .LVU628
 1952 046a 09FB00F3 		mul	r3, r9, r0
 865:Middlewares/lvgl/src/widgets/lv_arc.c ****         inv_area.x2 = x + rout + extra_area;
 1953              		.loc 1 865 25 view .LVU629
 1954 046e 049A     		ldr	r2, [sp, #16]
 1955 0470 02EBE333 		add	r3, r2, r3, asr #15
 1956 0474 9BB2     		uxth	r3, r3
 865:Middlewares/lvgl/src/widgets/lv_arc.c ****         inv_area.x2 = x + rout + extra_area;
 1957              		.loc 1 865 82 view .LVU630
 1958 0476 DB1B     		subs	r3, r3, r7
 865:Middlewares/lvgl/src/widgets/lv_arc.c ****         inv_area.x2 = x + rout + extra_area;
 1959              		.loc 1 865 21 view .LVU631
 1960 0478 ADF82230 		strh	r3, [sp, #34]	@ movhi
 866:Middlewares/lvgl/src/widgets/lv_arc.c ****         inv_area.y2 = y + ((lv_trigo_sin(end_angle) * rout) >> LV_TRIGO_SHIFT) + extra_area;
 1961              		.loc 1 866 9 is_stmt 1 view .LVU632
 866:Middlewares/lvgl/src/widgets/lv_arc.c ****         inv_area.y2 = y + ((lv_trigo_sin(end_angle) * rout) >> LV_TRIGO_SHIFT) + extra_area;
 1962              		.loc 1 866 25 is_stmt 0 view .LVU633
 1963 047c 5E44     		add	r6, r6, fp
 866:Middlewares/lvgl/src/widgets/lv_arc.c ****         inv_area.y2 = y + ((lv_trigo_sin(end_angle) * rout) >> LV_TRIGO_SHIFT) + extra_area;
 1964              		.loc 1 866 32 view .LVU634
 1965 047e 17FA86F6 		uxtah	r6, r7, r6
 866:Middlewares/lvgl/src/widgets/lv_arc.c ****         inv_area.y2 = y + ((lv_trigo_sin(end_angle) * rout) >> LV_TRIGO_SHIFT) + extra_area;
 1966              		.loc 1 866 21 view .LVU635
 1967 0482 ADF82460 		strh	r6, [sp, #36]	@ movhi
 867:Middlewares/lvgl/src/widgets/lv_arc.c **** 
 1968              		.loc 1 867 9 is_stmt 1 view .LVU636
 867:Middlewares/lvgl/src/widgets/lv_arc.c **** 
 1969              		.loc 1 867 29 is_stmt 0 view .LVU637
 1970 0486 28B2     		sxth	r0, r5
 1971 0488 FFF7FEFF 		bl	lv_trigo_sin
 1972              	.LVL225:
 867:Middlewares/lvgl/src/widgets/lv_arc.c **** 
 1973              		.loc 1 867 53 view .LVU638
 1974 048c 00FB09F9 		mul	r9, r0, r9
 1975              	.LVL226:
 867:Middlewares/lvgl/src/widgets/lv_arc.c **** 
 1976              		.loc 1 867 25 view .LVU639
 1977 0490 049A     		ldr	r2, [sp, #16]
 1978 0492 02EBE939 		add	r9, r2, r9, asr #15
 867:Middlewares/lvgl/src/widgets/lv_arc.c **** 
 1979              		.loc 1 867 80 view .LVU640
 1980 0496 17FA89F7 		uxtah	r7, r7, r9
 1981              	.LVL227:
 867:Middlewares/lvgl/src/widgets/lv_arc.c **** 
 1982              		.loc 1 867 21 view .LVU641
 1983 049a ADF82670 		strh	r7, [sp, #38]	@ movhi
 869:Middlewares/lvgl/src/widgets/lv_arc.c ****     }
 1984              		.loc 1 869 9 is_stmt 1 view .LVU642
 1985 049e 08A9     		add	r1, sp, #32
 1986 04a0 2046     		mov	r0, r4
 1987 04a2 FFF7FEFF 		bl	lv_obj_invalidate_area
 1988              	.LVL228:
 1989 04a6 5AE6     		b	.L28
ARM GAS  /tmp/ccqOegKq.s 			page 70


 1990              	.LVL229:
 1991              	.L68:
 839:Middlewares/lvgl/src/widgets/lv_arc.c ****         inv_area.y1 = y + ((LV_MIN(lv_trigo_sin(end_angle),
 1992              		.loc 1 839 9 view .LVU643
 839:Middlewares/lvgl/src/widgets/lv_arc.c ****         inv_area.y1 = y + ((LV_MIN(lv_trigo_sin(end_angle),
 1993              		.loc 1 839 52 is_stmt 0 view .LVU644
 1994 04a8 05F15A00 		add	r0, r5, #90
 839:Middlewares/lvgl/src/widgets/lv_arc.c ****         inv_area.y1 = y + ((LV_MIN(lv_trigo_sin(end_angle),
 1995              		.loc 1 839 29 view .LVU645
 1996 04ac 00B2     		sxth	r0, r0
 1997 04ae FFF7FEFF 		bl	lv_trigo_sin
 1998              	.LVL230:
 839:Middlewares/lvgl/src/widgets/lv_arc.c ****         inv_area.y1 = y + ((LV_MIN(lv_trigo_sin(end_angle),
 1999              		.loc 1 839 58 view .LVU646
 2000 04b2 CDF80490 		str	r9, [sp, #4]
 2001              	.LVL231:
 839:Middlewares/lvgl/src/widgets/lv_arc.c ****         inv_area.y1 = y + ((LV_MIN(lv_trigo_sin(end_angle),
 2002              		.loc 1 839 58 view .LVU647
 2003 04b6 09FB00F3 		mul	r3, r9, r0
 839:Middlewares/lvgl/src/widgets/lv_arc.c ****         inv_area.y1 = y + ((LV_MIN(lv_trigo_sin(end_angle),
 2004              		.loc 1 839 25 view .LVU648
 2005 04ba 0BEBE333 		add	r3, fp, r3, asr #15
 2006 04be 9BB2     		uxth	r3, r3
 839:Middlewares/lvgl/src/widgets/lv_arc.c ****         inv_area.y1 = y + ((LV_MIN(lv_trigo_sin(end_angle),
 2007              		.loc 1 839 85 view .LVU649
 2008 04c0 BFB2     		uxth	r7, r7
 839:Middlewares/lvgl/src/widgets/lv_arc.c ****         inv_area.y1 = y + ((LV_MIN(lv_trigo_sin(end_angle),
 2009              		.loc 1 839 85 view .LVU650
 2010 04c2 DB1B     		subs	r3, r3, r7
 839:Middlewares/lvgl/src/widgets/lv_arc.c ****         inv_area.y1 = y + ((LV_MIN(lv_trigo_sin(end_angle),
 2011              		.loc 1 839 21 view .LVU651
 2012 04c4 ADF82030 		strh	r3, [sp, #32]	@ movhi
 840:Middlewares/lvgl/src/widgets/lv_arc.c ****                                         lv_trigo_sin(start_angle))  * rin) >> LV_TRIGO_SHIFT) - ext
 2013              		.loc 1 840 9 is_stmt 1 view .LVU652
 840:Middlewares/lvgl/src/widgets/lv_arc.c ****                                         lv_trigo_sin(start_angle))  * rin) >> LV_TRIGO_SHIFT) - ext
 2014              		.loc 1 840 29 is_stmt 0 view .LVU653
 2015 04c8 2DB2     		sxth	r5, r5
 840:Middlewares/lvgl/src/widgets/lv_arc.c ****                                         lv_trigo_sin(start_angle))  * rin) >> LV_TRIGO_SHIFT) - ext
 2016              		.loc 1 840 29 view .LVU654
 2017 04ca 2846     		mov	r0, r5
 2018 04cc FFF7FEFF 		bl	lv_trigo_sin
 2019              	.LVL232:
 2020 04d0 8246     		mov	r10, r0
 2021              	.LVL233:
 840:Middlewares/lvgl/src/widgets/lv_arc.c ****                                         lv_trigo_sin(start_angle))  * rin) >> LV_TRIGO_SHIFT) - ext
 2022              		.loc 1 840 29 view .LVU655
 2023 04d2 BDF90090 		ldrsh	r9, [sp]
 2024              	.LVL234:
 840:Middlewares/lvgl/src/widgets/lv_arc.c ****                                         lv_trigo_sin(start_angle))  * rin) >> LV_TRIGO_SHIFT) - ext
 2025              		.loc 1 840 29 view .LVU656
 2026 04d6 4846     		mov	r0, r9
 2027 04d8 FFF7FEFF 		bl	lv_trigo_sin
 2028              	.LVL235:
 2029 04dc 8245     		cmp	r10, r0
 2030 04de 24DA     		bge	.L47
 840:Middlewares/lvgl/src/widgets/lv_arc.c ****                                         lv_trigo_sin(start_angle))  * rin) >> LV_TRIGO_SHIFT) - ext
 2031              		.loc 1 840 29 discriminator 1 view .LVU657
ARM GAS  /tmp/ccqOegKq.s 			page 71


 2032 04e0 2846     		mov	r0, r5
 2033 04e2 FFF7FEFF 		bl	lv_trigo_sin
 2034              	.LVL236:
 2035              	.L48:
 841:Middlewares/lvgl/src/widgets/lv_arc.c ****         inv_area.x2 = x + ((lv_trigo_sin(start_angle + 90) * rout) >> LV_TRIGO_SHIFT) + extra_area;
 2036              		.loc 1 841 69 view .LVU658
 2037 04e6 00FB08F3 		mul	r3, r0, r8
 840:Middlewares/lvgl/src/widgets/lv_arc.c ****                                         lv_trigo_sin(start_angle))  * rin) >> LV_TRIGO_SHIFT) - ext
 2038              		.loc 1 840 25 view .LVU659
 2039 04ea 049A     		ldr	r2, [sp, #16]
 2040 04ec 02EBE333 		add	r3, r2, r3, asr #15
 2041 04f0 9BB2     		uxth	r3, r3
 841:Middlewares/lvgl/src/widgets/lv_arc.c ****         inv_area.x2 = x + ((lv_trigo_sin(start_angle + 90) * rout) >> LV_TRIGO_SHIFT) + extra_area;
 2042              		.loc 1 841 95 view .LVU660
 2043 04f2 DB1B     		subs	r3, r3, r7
 840:Middlewares/lvgl/src/widgets/lv_arc.c ****                                         lv_trigo_sin(start_angle))  * rin) >> LV_TRIGO_SHIFT) - ext
 2044              		.loc 1 840 21 view .LVU661
 2045 04f4 ADF82230 		strh	r3, [sp, #34]	@ movhi
 842:Middlewares/lvgl/src/widgets/lv_arc.c ****         inv_area.y2 = y + rout + extra_area;
 2046              		.loc 1 842 9 is_stmt 1 view .LVU662
 842:Middlewares/lvgl/src/widgets/lv_arc.c ****         inv_area.y2 = y + rout + extra_area;
 2047              		.loc 1 842 54 is_stmt 0 view .LVU663
 2048 04f8 0098     		ldr	r0, [sp]
 2049 04fa 5A30     		adds	r0, r0, #90
 842:Middlewares/lvgl/src/widgets/lv_arc.c ****         inv_area.y2 = y + rout + extra_area;
 2050              		.loc 1 842 29 view .LVU664
 2051 04fc 00B2     		sxth	r0, r0
 2052 04fe FFF7FEFF 		bl	lv_trigo_sin
 2053              	.LVL237:
 842:Middlewares/lvgl/src/widgets/lv_arc.c ****         inv_area.y2 = y + rout + extra_area;
 2054              		.loc 1 842 60 view .LVU665
 2055 0502 019D     		ldr	r5, [sp, #4]
 2056              	.LVL238:
 842:Middlewares/lvgl/src/widgets/lv_arc.c ****         inv_area.y2 = y + rout + extra_area;
 2057              		.loc 1 842 60 view .LVU666
 2058 0504 00FB05F5 		mul	r5, r0, r5
 842:Middlewares/lvgl/src/widgets/lv_arc.c ****         inv_area.y2 = y + rout + extra_area;
 2059              		.loc 1 842 25 view .LVU667
 2060 0508 0BEBE53B 		add	fp, fp, r5, asr #15
 2061              	.LVL239:
 842:Middlewares/lvgl/src/widgets/lv_arc.c ****         inv_area.y2 = y + rout + extra_area;
 2062              		.loc 1 842 87 view .LVU668
 2063 050c 17FA8BFB 		uxtah	fp, r7, fp
 842:Middlewares/lvgl/src/widgets/lv_arc.c ****         inv_area.y2 = y + rout + extra_area;
 2064              		.loc 1 842 21 view .LVU669
 2065 0510 ADF824B0 		strh	fp, [sp, #36]	@ movhi
 843:Middlewares/lvgl/src/widgets/lv_arc.c ****         lv_obj_invalidate_area(obj, &inv_area);
 2066              		.loc 1 843 9 is_stmt 1 view .LVU670
 843:Middlewares/lvgl/src/widgets/lv_arc.c ****         lv_obj_invalidate_area(obj, &inv_area);
 2067              		.loc 1 843 25 is_stmt 0 view .LVU671
 2068 0514 049A     		ldr	r2, [sp, #16]
 2069 0516 1644     		add	r6, r6, r2
 2070              	.LVL240:
 843:Middlewares/lvgl/src/widgets/lv_arc.c ****         lv_obj_invalidate_area(obj, &inv_area);
 2071              		.loc 1 843 32 view .LVU672
 2072 0518 17FA86F7 		uxtah	r7, r7, r6
 2073              	.LVL241:
ARM GAS  /tmp/ccqOegKq.s 			page 72


 843:Middlewares/lvgl/src/widgets/lv_arc.c ****         lv_obj_invalidate_area(obj, &inv_area);
 2074              		.loc 1 843 21 view .LVU673
 2075 051c ADF82670 		strh	r7, [sp, #38]	@ movhi
 844:Middlewares/lvgl/src/widgets/lv_arc.c ****     }
 2076              		.loc 1 844 9 is_stmt 1 view .LVU674
 2077 0520 08A9     		add	r1, sp, #32
 2078 0522 2046     		mov	r0, r4
 2079 0524 FFF7FEFF 		bl	lv_obj_invalidate_area
 2080              	.LVL242:
 2081 0528 19E6     		b	.L28
 2082              	.LVL243:
 2083              	.L47:
 840:Middlewares/lvgl/src/widgets/lv_arc.c ****                                         lv_trigo_sin(start_angle))  * rin) >> LV_TRIGO_SHIFT) - ext
 2084              		.loc 1 840 29 is_stmt 0 discriminator 2 view .LVU675
 2085 052a 4846     		mov	r0, r9
 2086 052c FFF7FEFF 		bl	lv_trigo_sin
 2087              	.LVL244:
 2088 0530 D9E7     		b	.L48
 2089              	.LVL245:
 2090              	.L69:
 847:Middlewares/lvgl/src/widgets/lv_arc.c ****         inv_area.y1 = y + ((lv_trigo_sin(end_angle) * rout) >> LV_TRIGO_SHIFT) - extra_area;
 2091              		.loc 1 847 9 is_stmt 1 view .LVU676
 847:Middlewares/lvgl/src/widgets/lv_arc.c ****         inv_area.y1 = y + ((lv_trigo_sin(end_angle) * rout) >> LV_TRIGO_SHIFT) - extra_area;
 2092              		.loc 1 847 25 is_stmt 0 view .LVU677
 2093 0532 ABEB0606 		sub	r6, fp, r6
 2094 0536 B6B2     		uxth	r6, r6
 847:Middlewares/lvgl/src/widgets/lv_arc.c ****         inv_area.y1 = y + ((lv_trigo_sin(end_angle) * rout) >> LV_TRIGO_SHIFT) - extra_area;
 2095              		.loc 1 847 32 view .LVU678
 2096 0538 BFB2     		uxth	r7, r7
 847:Middlewares/lvgl/src/widgets/lv_arc.c ****         inv_area.y1 = y + ((lv_trigo_sin(end_angle) * rout) >> LV_TRIGO_SHIFT) - extra_area;
 2097              		.loc 1 847 32 view .LVU679
 2098 053a F61B     		subs	r6, r6, r7
 847:Middlewares/lvgl/src/widgets/lv_arc.c ****         inv_area.y1 = y + ((lv_trigo_sin(end_angle) * rout) >> LV_TRIGO_SHIFT) - extra_area;
 2099              		.loc 1 847 21 view .LVU680
 2100 053c ADF82060 		strh	r6, [sp, #32]	@ movhi
 848:Middlewares/lvgl/src/widgets/lv_arc.c ****         inv_area.x2 = x + ((LV_MAX(lv_trigo_sin(start_angle + 90),
 2101              		.loc 1 848 9 is_stmt 1 view .LVU681
 848:Middlewares/lvgl/src/widgets/lv_arc.c ****         inv_area.x2 = x + ((LV_MAX(lv_trigo_sin(start_angle + 90),
 2102              		.loc 1 848 29 is_stmt 0 view .LVU682
 2103 0540 28B2     		sxth	r0, r5
 2104 0542 FFF7FEFF 		bl	lv_trigo_sin
 2105              	.LVL246:
 848:Middlewares/lvgl/src/widgets/lv_arc.c ****         inv_area.x2 = x + ((LV_MAX(lv_trigo_sin(start_angle + 90),
 2106              		.loc 1 848 53 view .LVU683
 2107 0546 CA46     		mov	r10, r9
 2108              	.LVL247:
 848:Middlewares/lvgl/src/widgets/lv_arc.c ****         inv_area.x2 = x + ((LV_MAX(lv_trigo_sin(start_angle + 90),
 2109              		.loc 1 848 53 view .LVU684
 2110 0548 09FB00F3 		mul	r3, r9, r0
 848:Middlewares/lvgl/src/widgets/lv_arc.c ****         inv_area.x2 = x + ((LV_MAX(lv_trigo_sin(start_angle + 90),
 2111              		.loc 1 848 25 view .LVU685
 2112 054c 049A     		ldr	r2, [sp, #16]
 2113 054e 02EBE333 		add	r3, r2, r3, asr #15
 2114 0552 9BB2     		uxth	r3, r3
 848:Middlewares/lvgl/src/widgets/lv_arc.c ****         inv_area.x2 = x + ((LV_MAX(lv_trigo_sin(start_angle + 90),
 2115              		.loc 1 848 80 view .LVU686
 2116 0554 DB1B     		subs	r3, r3, r7
ARM GAS  /tmp/ccqOegKq.s 			page 73


 848:Middlewares/lvgl/src/widgets/lv_arc.c ****         inv_area.x2 = x + ((LV_MAX(lv_trigo_sin(start_angle + 90),
 2117              		.loc 1 848 21 view .LVU687
 2118 0556 ADF82230 		strh	r3, [sp, #34]	@ movhi
 849:Middlewares/lvgl/src/widgets/lv_arc.c ****                                         lv_trigo_sin(end_angle + 90)) * rin) >> LV_TRIGO_SHIFT) + e
 2119              		.loc 1 849 9 is_stmt 1 view .LVU688
 849:Middlewares/lvgl/src/widgets/lv_arc.c ****                                         lv_trigo_sin(end_angle + 90)) * rin) >> LV_TRIGO_SHIFT) + e
 2120              		.loc 1 849 29 is_stmt 0 view .LVU689
 2121 055a 009B     		ldr	r3, [sp]
 2122 055c 03F15A06 		add	r6, r3, #90
 2123 0560 36B2     		sxth	r6, r6
 2124 0562 3046     		mov	r0, r6
 2125 0564 FFF7FEFF 		bl	lv_trigo_sin
 2126              	.LVL248:
 2127 0568 0190     		str	r0, [sp, #4]
 2128              	.LVL249:
 849:Middlewares/lvgl/src/widgets/lv_arc.c ****                                         lv_trigo_sin(end_angle + 90)) * rin) >> LV_TRIGO_SHIFT) + e
 2129              		.loc 1 849 29 view .LVU690
 2130 056a 05F15A09 		add	r9, r5, #90
 2131              	.LVL250:
 849:Middlewares/lvgl/src/widgets/lv_arc.c ****                                         lv_trigo_sin(end_angle + 90)) * rin) >> LV_TRIGO_SHIFT) + e
 2132              		.loc 1 849 29 view .LVU691
 2133 056e 0FFA89F9 		sxth	r9, r9
 2134 0572 4846     		mov	r0, r9
 2135 0574 FFF7FEFF 		bl	lv_trigo_sin
 2136              	.LVL251:
 2137 0578 019B     		ldr	r3, [sp, #4]
 2138 057a 8342     		cmp	r3, r0
 2139 057c 1CDD     		ble	.L50
 849:Middlewares/lvgl/src/widgets/lv_arc.c ****                                         lv_trigo_sin(end_angle + 90)) * rin) >> LV_TRIGO_SHIFT) + e
 2140              		.loc 1 849 29 discriminator 1 view .LVU692
 2141 057e 3046     		mov	r0, r6
 2142 0580 FFF7FEFF 		bl	lv_trigo_sin
 2143              	.LVL252:
 2144              	.L51:
 850:Middlewares/lvgl/src/widgets/lv_arc.c ****         inv_area.y2 = y + ((lv_trigo_sin(start_angle) * rout) >> LV_TRIGO_SHIFT) + extra_area;
 2145              		.loc 1 850 71 view .LVU693
 2146 0584 00FB08F8 		mul	r8, r0, r8
 2147              	.LVL253:
 849:Middlewares/lvgl/src/widgets/lv_arc.c ****                                         lv_trigo_sin(end_angle + 90)) * rin) >> LV_TRIGO_SHIFT) + e
 2148              		.loc 1 849 25 view .LVU694
 2149 0588 0BEBE83B 		add	fp, fp, r8, asr #15
 2150              	.LVL254:
 850:Middlewares/lvgl/src/widgets/lv_arc.c ****         inv_area.y2 = y + ((lv_trigo_sin(start_angle) * rout) >> LV_TRIGO_SHIFT) + extra_area;
 2151              		.loc 1 850 97 view .LVU695
 2152 058c 17FA8BFB 		uxtah	fp, r7, fp
 849:Middlewares/lvgl/src/widgets/lv_arc.c ****                                         lv_trigo_sin(end_angle + 90)) * rin) >> LV_TRIGO_SHIFT) + e
 2153              		.loc 1 849 21 view .LVU696
 2154 0590 ADF824B0 		strh	fp, [sp, #36]	@ movhi
 851:Middlewares/lvgl/src/widgets/lv_arc.c ****         lv_obj_invalidate_area(obj, &inv_area);
 2155              		.loc 1 851 9 is_stmt 1 view .LVU697
 851:Middlewares/lvgl/src/widgets/lv_arc.c ****         lv_obj_invalidate_area(obj, &inv_area);
 2156              		.loc 1 851 29 is_stmt 0 view .LVU698
 2157 0594 BDF90000 		ldrsh	r0, [sp]
 2158 0598 FFF7FEFF 		bl	lv_trigo_sin
 2159              	.LVL255:
 851:Middlewares/lvgl/src/widgets/lv_arc.c ****         lv_obj_invalidate_area(obj, &inv_area);
 2160              		.loc 1 851 55 view .LVU699
ARM GAS  /tmp/ccqOegKq.s 			page 74


 2161 059c 00FB0AF5 		mul	r5, r0, r10
 2162              	.LVL256:
 851:Middlewares/lvgl/src/widgets/lv_arc.c ****         lv_obj_invalidate_area(obj, &inv_area);
 2163              		.loc 1 851 25 view .LVU700
 2164 05a0 049B     		ldr	r3, [sp, #16]
 2165 05a2 03EBE535 		add	r5, r3, r5, asr #15
 851:Middlewares/lvgl/src/widgets/lv_arc.c ****         lv_obj_invalidate_area(obj, &inv_area);
 2166              		.loc 1 851 82 view .LVU701
 2167 05a6 17FA85F7 		uxtah	r7, r7, r5
 2168              	.LVL257:
 851:Middlewares/lvgl/src/widgets/lv_arc.c ****         lv_obj_invalidate_area(obj, &inv_area);
 2169              		.loc 1 851 21 view .LVU702
 2170 05aa ADF82670 		strh	r7, [sp, #38]	@ movhi
 852:Middlewares/lvgl/src/widgets/lv_arc.c ****     }
 2171              		.loc 1 852 9 is_stmt 1 view .LVU703
 2172 05ae 08A9     		add	r1, sp, #32
 2173 05b0 2046     		mov	r0, r4
 2174 05b2 FFF7FEFF 		bl	lv_obj_invalidate_area
 2175              	.LVL258:
 2176 05b6 D2E5     		b	.L28
 2177              	.LVL259:
 2178              	.L50:
 849:Middlewares/lvgl/src/widgets/lv_arc.c ****                                         lv_trigo_sin(end_angle + 90)) * rin) >> LV_TRIGO_SHIFT) + e
 2179              		.loc 1 849 29 is_stmt 0 discriminator 2 view .LVU704
 2180 05b8 4846     		mov	r0, r9
 2181 05ba FFF7FEFF 		bl	lv_trigo_sin
 2182              	.LVL260:
 2183 05be E1E7     		b	.L51
 2184              	.LVL261:
 2185              	.L70:
 855:Middlewares/lvgl/src/widgets/lv_arc.c ****         inv_area.y1 = y - rout - extra_area;
 2186              		.loc 1 855 9 is_stmt 1 view .LVU705
 855:Middlewares/lvgl/src/widgets/lv_arc.c ****         inv_area.y1 = y - rout - extra_area;
 2187              		.loc 1 855 54 is_stmt 0 view .LVU706
 2188 05c0 009B     		ldr	r3, [sp]
 2189 05c2 03F15A00 		add	r0, r3, #90
 855:Middlewares/lvgl/src/widgets/lv_arc.c ****         inv_area.y1 = y - rout - extra_area;
 2190              		.loc 1 855 29 view .LVU707
 2191 05c6 00B2     		sxth	r0, r0
 2192 05c8 FFF7FEFF 		bl	lv_trigo_sin
 2193              	.LVL262:
 855:Middlewares/lvgl/src/widgets/lv_arc.c ****         inv_area.y1 = y - rout - extra_area;
 2194              		.loc 1 855 60 view .LVU708
 2195 05cc 09FB00F3 		mul	r3, r9, r0
 855:Middlewares/lvgl/src/widgets/lv_arc.c ****         inv_area.y1 = y - rout - extra_area;
 2196              		.loc 1 855 25 view .LVU709
 2197 05d0 0BEBE333 		add	r3, fp, r3, asr #15
 2198 05d4 9BB2     		uxth	r3, r3
 855:Middlewares/lvgl/src/widgets/lv_arc.c ****         inv_area.y1 = y - rout - extra_area;
 2199              		.loc 1 855 87 view .LVU710
 2200 05d6 BFB2     		uxth	r7, r7
 855:Middlewares/lvgl/src/widgets/lv_arc.c ****         inv_area.y1 = y - rout - extra_area;
 2201              		.loc 1 855 87 view .LVU711
 2202 05d8 DB1B     		subs	r3, r3, r7
 855:Middlewares/lvgl/src/widgets/lv_arc.c ****         inv_area.y1 = y - rout - extra_area;
 2203              		.loc 1 855 21 view .LVU712
 2204 05da ADF82030 		strh	r3, [sp, #32]	@ movhi
ARM GAS  /tmp/ccqOegKq.s 			page 75


 856:Middlewares/lvgl/src/widgets/lv_arc.c ****         inv_area.x2 = x + ((lv_trigo_sin(end_angle + 90) * rout) >> LV_TRIGO_SHIFT) + extra_area;
 2205              		.loc 1 856 9 is_stmt 1 view .LVU713
 856:Middlewares/lvgl/src/widgets/lv_arc.c ****         inv_area.x2 = x + ((lv_trigo_sin(end_angle + 90) * rout) >> LV_TRIGO_SHIFT) + extra_area;
 2206              		.loc 1 856 25 is_stmt 0 view .LVU714
 2207 05de 049A     		ldr	r2, [sp, #16]
 2208 05e0 931B     		subs	r3, r2, r6
 2209 05e2 9BB2     		uxth	r3, r3
 856:Middlewares/lvgl/src/widgets/lv_arc.c ****         inv_area.x2 = x + ((lv_trigo_sin(end_angle + 90) * rout) >> LV_TRIGO_SHIFT) + extra_area;
 2210              		.loc 1 856 32 view .LVU715
 2211 05e4 DB1B     		subs	r3, r3, r7
 856:Middlewares/lvgl/src/widgets/lv_arc.c ****         inv_area.x2 = x + ((lv_trigo_sin(end_angle + 90) * rout) >> LV_TRIGO_SHIFT) + extra_area;
 2212              		.loc 1 856 21 view .LVU716
 2213 05e6 ADF82230 		strh	r3, [sp, #34]	@ movhi
 857:Middlewares/lvgl/src/widgets/lv_arc.c ****         inv_area.y2 = y + (LV_MAX(lv_trigo_sin(end_angle) * rin,
 2214              		.loc 1 857 9 is_stmt 1 view .LVU717
 857:Middlewares/lvgl/src/widgets/lv_arc.c ****         inv_area.y2 = y + (LV_MAX(lv_trigo_sin(end_angle) * rin,
 2215              		.loc 1 857 52 is_stmt 0 view .LVU718
 2216 05ea 05F15A00 		add	r0, r5, #90
 857:Middlewares/lvgl/src/widgets/lv_arc.c ****         inv_area.y2 = y + (LV_MAX(lv_trigo_sin(end_angle) * rin,
 2217              		.loc 1 857 29 view .LVU719
 2218 05ee 00B2     		sxth	r0, r0
 2219 05f0 FFF7FEFF 		bl	lv_trigo_sin
 2220              	.LVL263:
 857:Middlewares/lvgl/src/widgets/lv_arc.c ****         inv_area.y2 = y + (LV_MAX(lv_trigo_sin(end_angle) * rin,
 2221              		.loc 1 857 58 view .LVU720
 2222 05f4 00FB09F9 		mul	r9, r0, r9
 2223              	.LVL264:
 857:Middlewares/lvgl/src/widgets/lv_arc.c ****         inv_area.y2 = y + (LV_MAX(lv_trigo_sin(end_angle) * rin,
 2224              		.loc 1 857 25 view .LVU721
 2225 05f8 0BEBE93B 		add	fp, fp, r9, asr #15
 2226              	.LVL265:
 857:Middlewares/lvgl/src/widgets/lv_arc.c ****         inv_area.y2 = y + (LV_MAX(lv_trigo_sin(end_angle) * rin,
 2227              		.loc 1 857 85 view .LVU722
 2228 05fc 17FA8BFB 		uxtah	fp, r7, fp
 857:Middlewares/lvgl/src/widgets/lv_arc.c ****         inv_area.y2 = y + (LV_MAX(lv_trigo_sin(end_angle) * rin,
 2229              		.loc 1 857 21 view .LVU723
 2230 0600 ADF824B0 		strh	fp, [sp, #36]	@ movhi
 858:Middlewares/lvgl/src/widgets/lv_arc.c ****                                        lv_trigo_sin(start_angle) * rin) >> LV_TRIGO_SHIFT) + extra_
 2231              		.loc 1 858 9 is_stmt 1 view .LVU724
 858:Middlewares/lvgl/src/widgets/lv_arc.c ****                                        lv_trigo_sin(start_angle) * rin) >> LV_TRIGO_SHIFT) + extra_
 2232              		.loc 1 858 28 is_stmt 0 view .LVU725
 2233 0604 2EB2     		sxth	r6, r5
 2234              	.LVL266:
 858:Middlewares/lvgl/src/widgets/lv_arc.c ****                                        lv_trigo_sin(start_angle) * rin) >> LV_TRIGO_SHIFT) + extra_
 2235              		.loc 1 858 28 view .LVU726
 2236 0606 3046     		mov	r0, r6
 2237 0608 FFF7FEFF 		bl	lv_trigo_sin
 2238              	.LVL267:
 2239 060c 08FB00F5 		mul	r5, r8, r0
 2240              	.LVL268:
 858:Middlewares/lvgl/src/widgets/lv_arc.c ****                                        lv_trigo_sin(start_angle) * rin) >> LV_TRIGO_SHIFT) + extra_
 2241              		.loc 1 858 28 view .LVU727
 2242 0610 BDF90090 		ldrsh	r9, [sp]
 2243 0614 4846     		mov	r0, r9
 2244 0616 FFF7FEFF 		bl	lv_trigo_sin
 2245              	.LVL269:
 2246 061a 00FB08F0 		mul	r0, r0, r8
ARM GAS  /tmp/ccqOegKq.s 			page 76


 858:Middlewares/lvgl/src/widgets/lv_arc.c ****                                        lv_trigo_sin(start_angle) * rin) >> LV_TRIGO_SHIFT) + extra_
 2247              		.loc 1 858 25 view .LVU728
 2248 061e 8542     		cmp	r5, r0
 2249 0620 11DD     		ble	.L53
 858:Middlewares/lvgl/src/widgets/lv_arc.c ****                                        lv_trigo_sin(start_angle) * rin) >> LV_TRIGO_SHIFT) + extra_
 2250              		.loc 1 858 28 discriminator 1 view .LVU729
 2251 0622 3046     		mov	r0, r6
 2252 0624 FFF7FEFF 		bl	lv_trigo_sin
 2253              	.LVL270:
 2254 0628 00FB08F3 		mul	r3, r0, r8
 858:Middlewares/lvgl/src/widgets/lv_arc.c ****                                        lv_trigo_sin(start_angle) * rin) >> LV_TRIGO_SHIFT) + extra_
 2255              		.loc 1 858 25 discriminator 1 view .LVU730
 2256 062c C3F3CF33 		ubfx	r3, r3, #15, #16
 2257              	.L54:
 858:Middlewares/lvgl/src/widgets/lv_arc.c ****                                        lv_trigo_sin(start_angle) * rin) >> LV_TRIGO_SHIFT) + extra_
 2258              		.loc 1 858 25 discriminator 4 view .LVU731
 2259 0630 049A     		ldr	r2, [sp, #16]
 2260 0632 1A44     		add	r2, r2, r3
 859:Middlewares/lvgl/src/widgets/lv_arc.c ****         lv_obj_invalidate_area(obj, &inv_area);
 2261              		.loc 1 859 92 discriminator 4 view .LVU732
 2262 0634 17FA82F7 		uxtah	r7, r7, r2
 2263              	.LVL271:
 858:Middlewares/lvgl/src/widgets/lv_arc.c ****                                        lv_trigo_sin(start_angle) * rin) >> LV_TRIGO_SHIFT) + extra_
 2264              		.loc 1 858 21 discriminator 4 view .LVU733
 2265 0638 ADF82670 		strh	r7, [sp, #38]	@ movhi
 860:Middlewares/lvgl/src/widgets/lv_arc.c ****     }
 2266              		.loc 1 860 9 is_stmt 1 discriminator 4 view .LVU734
 2267 063c 08A9     		add	r1, sp, #32
 2268 063e 2046     		mov	r0, r4
 2269 0640 FFF7FEFF 		bl	lv_obj_invalidate_area
 2270              	.LVL272:
 2271 0644 8BE5     		b	.L28
 2272              	.LVL273:
 2273              	.L53:
 858:Middlewares/lvgl/src/widgets/lv_arc.c ****                                        lv_trigo_sin(start_angle) * rin) >> LV_TRIGO_SHIFT) + extra_
 2274              		.loc 1 858 28 is_stmt 0 discriminator 2 view .LVU735
 2275 0646 4846     		mov	r0, r9
 2276 0648 FFF7FEFF 		bl	lv_trigo_sin
 2277              	.LVL274:
 2278 064c 00FB08F3 		mul	r3, r0, r8
 858:Middlewares/lvgl/src/widgets/lv_arc.c ****                                        lv_trigo_sin(start_angle) * rin) >> LV_TRIGO_SHIFT) + extra_
 2279              		.loc 1 858 25 discriminator 2 view .LVU736
 2280 0650 C3F3CF33 		ubfx	r3, r3, #15, #16
 2281 0654 ECE7     		b	.L54
 2282              	.LVL275:
 2283              	.L56:
 863:Middlewares/lvgl/src/widgets/lv_arc.c ****                                         lv_trigo_sin(start_angle + 90)) * rin) >> LV_TRIGO_SHIFT) -
 2284              		.loc 1 863 29 discriminator 2 view .LVU737
 2285 0656 5046     		mov	r0, r10
 2286 0658 FFF7FEFF 		bl	lv_trigo_sin
 2287              	.LVL276:
 2288 065c F8E6     		b	.L57
 2289              	.LVL277:
 2290              	.L55:
 872:Middlewares/lvgl/src/widgets/lv_arc.c ****     }
 2291              		.loc 1 872 9 is_stmt 1 view .LVU738
 2292 065e 2046     		mov	r0, r4
ARM GAS  /tmp/ccqOegKq.s 			page 77


 2293 0660 FFF7FEFF 		bl	lv_obj_invalidate
 2294              	.LVL278:
 2295 0664 7BE5     		b	.L28
 2296              		.cfi_endproc
 2297              	.LFE170:
 2299 0666 00BF     		.section	.text.lv_arc_create,"ax",%progbits
 2300              		.align	1
 2301              		.global	lv_arc_create
 2302              		.syntax unified
 2303              		.thumb
 2304              		.thumb_func
 2305              		.fpu fpv5-d16
 2307              	lv_arc_create:
 2308              	.LVL279:
 2309              	.LFB147:
  66:Middlewares/lvgl/src/widgets/lv_arc.c ****     LV_LOG_INFO("begin")
 2310              		.loc 1 66 1 view -0
 2311              		.cfi_startproc
 2312              		@ args = 0, pretend = 0, frame = 0
 2313              		@ frame_needed = 0, uses_anonymous_args = 0
  66:Middlewares/lvgl/src/widgets/lv_arc.c ****     LV_LOG_INFO("begin")
 2314              		.loc 1 66 1 is_stmt 0 view .LVU740
 2315 0000 10B5     		push	{r4, lr}
 2316              	.LCFI17:
 2317              		.cfi_def_cfa_offset 8
 2318              		.cfi_offset 4, -8
 2319              		.cfi_offset 14, -4
 2320 0002 0146     		mov	r1, r0
  68:Middlewares/lvgl/src/widgets/lv_arc.c ****     lv_obj_class_init_obj(obj);
 2321              		.loc 1 68 5 is_stmt 1 view .LVU741
  68:Middlewares/lvgl/src/widgets/lv_arc.c ****     lv_obj_class_init_obj(obj);
 2322              		.loc 1 68 22 is_stmt 0 view .LVU742
 2323 0004 0348     		ldr	r0, .L75
 2324              	.LVL280:
  68:Middlewares/lvgl/src/widgets/lv_arc.c ****     lv_obj_class_init_obj(obj);
 2325              		.loc 1 68 22 view .LVU743
 2326 0006 FFF7FEFF 		bl	lv_obj_class_create_obj
 2327              	.LVL281:
  68:Middlewares/lvgl/src/widgets/lv_arc.c ****     lv_obj_class_init_obj(obj);
 2328              		.loc 1 68 22 view .LVU744
 2329 000a 0446     		mov	r4, r0
 2330              	.LVL282:
  69:Middlewares/lvgl/src/widgets/lv_arc.c ****     return obj;
 2331              		.loc 1 69 5 is_stmt 1 view .LVU745
 2332 000c FFF7FEFF 		bl	lv_obj_class_init_obj
 2333              	.LVL283:
  70:Middlewares/lvgl/src/widgets/lv_arc.c **** }
 2334              		.loc 1 70 5 view .LVU746
  71:Middlewares/lvgl/src/widgets/lv_arc.c **** 
 2335              		.loc 1 71 1 is_stmt 0 view .LVU747
 2336 0010 2046     		mov	r0, r4
 2337 0012 10BD     		pop	{r4, pc}
 2338              	.LVL284:
 2339              	.L76:
  71:Middlewares/lvgl/src/widgets/lv_arc.c **** 
 2340              		.loc 1 71 1 view .LVU748
 2341              		.align	2
ARM GAS  /tmp/ccqOegKq.s 			page 78


 2342              	.L75:
 2343 0014 00000000 		.word	.LANCHOR0
 2344              		.cfi_endproc
 2345              	.LFE147:
 2347              		.section	.text.lv_arc_set_start_angle,"ax",%progbits
 2348              		.align	1
 2349              		.global	lv_arc_set_start_angle
 2350              		.syntax unified
 2351              		.thumb
 2352              		.thumb_func
 2353              		.fpu fpv5-d16
 2355              	lv_arc_set_start_angle:
 2356              	.LVL285:
 2357              	.LFB148:
  91:Middlewares/lvgl/src/widgets/lv_arc.c ****     LV_ASSERT_OBJ(obj, MY_CLASS);
 2358              		.loc 1 91 1 is_stmt 1 view -0
 2359              		.cfi_startproc
 2360              		@ args = 0, pretend = 0, frame = 0
 2361              		@ frame_needed = 0, uses_anonymous_args = 0
  91:Middlewares/lvgl/src/widgets/lv_arc.c ****     LV_ASSERT_OBJ(obj, MY_CLASS);
 2362              		.loc 1 91 1 is_stmt 0 view .LVU750
 2363 0000 38B5     		push	{r3, r4, r5, lr}
 2364              	.LCFI18:
 2365              		.cfi_def_cfa_offset 16
 2366              		.cfi_offset 3, -16
 2367              		.cfi_offset 4, -12
 2368              		.cfi_offset 5, -8
 2369              		.cfi_offset 14, -4
 2370 0002 0546     		mov	r5, r0
 2371 0004 0C46     		mov	r4, r1
  92:Middlewares/lvgl/src/widgets/lv_arc.c ****     lv_arc_t * arc = (lv_arc_t *)obj;
 2372              		.loc 1 92 5 is_stmt 1 view .LVU751
  92:Middlewares/lvgl/src/widgets/lv_arc.c ****     lv_arc_t * arc = (lv_arc_t *)obj;
 2373              		.loc 1 92 5 view .LVU752
  92:Middlewares/lvgl/src/widgets/lv_arc.c ****     lv_arc_t * arc = (lv_arc_t *)obj;
 2374              		.loc 1 92 5 view .LVU753
  93:Middlewares/lvgl/src/widgets/lv_arc.c **** 
 2375              		.loc 1 93 5 view .LVU754
 2376              	.LVL286:
  95:Middlewares/lvgl/src/widgets/lv_arc.c **** 
 2377              		.loc 1 95 5 view .LVU755
  95:Middlewares/lvgl/src/widgets/lv_arc.c **** 
 2378              		.loc 1 95 7 is_stmt 0 view .LVU756
 2379 0006 B1F5B47F 		cmp	r1, #360
 2380 000a 02D9     		bls	.L78
  95:Middlewares/lvgl/src/widgets/lv_arc.c **** 
 2381              		.loc 1 95 21 is_stmt 1 discriminator 1 view .LVU757
  95:Middlewares/lvgl/src/widgets/lv_arc.c **** 
 2382              		.loc 1 95 27 is_stmt 0 discriminator 1 view .LVU758
 2383 000c A1F5B474 		sub	r4, r1, #360
 2384 0010 A4B2     		uxth	r4, r4
 2385              	.LVL287:
 2386              	.L78:
  98:Middlewares/lvgl/src/widgets/lv_arc.c ****         lv_obj_invalidate(obj);
 2387              		.loc 1 98 5 is_stmt 1 view .LVU759
  98:Middlewares/lvgl/src/widgets/lv_arc.c ****         lv_obj_invalidate(obj);
 2388              		.loc 1 98 8 is_stmt 0 view .LVU760
ARM GAS  /tmp/ccqOegKq.s 			page 79


 2389 0012 E98C     		ldrh	r1, [r5, #38]
 2390 0014 631A     		subs	r3, r4, r1
 2391 0016 002B     		cmp	r3, #0
 2392 0018 B8BF     		it	lt
 2393 001a 5B42     		rsblt	r3, r3, #0
  98:Middlewares/lvgl/src/widgets/lv_arc.c ****         lv_obj_invalidate(obj);
 2394              		.loc 1 98 7 view .LVU761
 2395 001c B32B     		cmp	r3, #179
 2396 001e 0DDC     		bgt	.L84
 102:Middlewares/lvgl/src/widgets/lv_arc.c ****         inv_arc_area(obj, LV_MIN(arc->indic_angle_start, start), LV_MAX(arc->indic_angle_start, sta
 2397              		.loc 1 102 10 is_stmt 1 view .LVU762
 102:Middlewares/lvgl/src/widgets/lv_arc.c ****         inv_arc_area(obj, LV_MIN(arc->indic_angle_start, start), LV_MAX(arc->indic_angle_start, sta
 2398              		.loc 1 102 40 is_stmt 0 view .LVU763
 2399 0020 2B8D     		ldrh	r3, [r5, #40]
 102:Middlewares/lvgl/src/widgets/lv_arc.c ****         inv_arc_area(obj, LV_MIN(arc->indic_angle_start, start), LV_MAX(arc->indic_angle_start, sta
 2400              		.loc 1 102 12 view .LVU764
 2401 0022 9942     		cmp	r1, r3
 2402 0024 01D9     		bls	.L81
 102:Middlewares/lvgl/src/widgets/lv_arc.c ****         inv_arc_area(obj, LV_MIN(arc->indic_angle_start, start), LV_MAX(arc->indic_angle_start, sta
 2403              		.loc 1 102 58 discriminator 1 view .LVU765
 2404 0026 A342     		cmp	r3, r4
 2405 0028 0CD3     		bcc	.L85
 2406              	.L81:
 107:Middlewares/lvgl/src/widgets/lv_arc.c ****         inv_arc_area(obj, LV_MIN(arc->indic_angle_start, start), LV_MAX(arc->indic_angle_start, sta
 2407              		.loc 1 107 11 is_stmt 1 view .LVU766
 107:Middlewares/lvgl/src/widgets/lv_arc.c ****         inv_arc_area(obj, LV_MIN(arc->indic_angle_start, start), LV_MAX(arc->indic_angle_start, sta
 2408              		.loc 1 107 13 is_stmt 0 view .LVU767
 2409 002a 9942     		cmp	r1, r3
 2410 002c 01D2     		bcs	.L82
 107:Middlewares/lvgl/src/widgets/lv_arc.c ****         inv_arc_area(obj, LV_MIN(arc->indic_angle_start, start), LV_MAX(arc->indic_angle_start, sta
 2411              		.loc 1 107 59 discriminator 1 view .LVU768
 2412 002e A342     		cmp	r3, r4
 2413 0030 15D8     		bhi	.L86
 2414              	.L82:
 113:Middlewares/lvgl/src/widgets/lv_arc.c ****     }
 2415              		.loc 1 113 9 is_stmt 1 view .LVU769
 2416 0032 2846     		mov	r0, r5
 2417              	.LVL288:
 113:Middlewares/lvgl/src/widgets/lv_arc.c ****     }
 2418              		.loc 1 113 9 is_stmt 0 view .LVU770
 2419 0034 FFF7FEFF 		bl	lv_obj_invalidate
 2420              	.LVL289:
 2421              	.L80:
 116:Middlewares/lvgl/src/widgets/lv_arc.c **** }
 2422              		.loc 1 116 4 is_stmt 1 view .LVU771
 116:Middlewares/lvgl/src/widgets/lv_arc.c **** }
 2423              		.loc 1 116 27 is_stmt 0 view .LVU772
 2424 0038 EC84     		strh	r4, [r5, #38]	@ movhi
 117:Middlewares/lvgl/src/widgets/lv_arc.c **** 
 2425              		.loc 1 117 1 view .LVU773
 2426 003a 38BD     		pop	{r3, r4, r5, pc}
 2427              	.LVL290:
 2428              	.L84:
  99:Middlewares/lvgl/src/widgets/lv_arc.c ****     }
 2429              		.loc 1 99 9 is_stmt 1 view .LVU774
 2430 003c 2846     		mov	r0, r5
 2431              	.LVL291:
ARM GAS  /tmp/ccqOegKq.s 			page 80


  99:Middlewares/lvgl/src/widgets/lv_arc.c ****     }
 2432              		.loc 1 99 9 is_stmt 0 view .LVU775
 2433 003e FFF7FEFF 		bl	lv_obj_invalidate
 2434              	.LVL292:
 2435 0042 F9E7     		b	.L80
 2436              	.LVL293:
 2437              	.L85:
 103:Middlewares/lvgl/src/widgets/lv_arc.c ****                      LV_PART_INDICATOR);
 2438              		.loc 1 103 9 is_stmt 1 view .LVU776
 2439 0044 4FF40033 		mov	r3, #131072
 2440 0048 0A46     		mov	r2, r1
 2441 004a A142     		cmp	r1, r4
 2442 004c 38BF     		it	cc
 2443 004e 2246     		movcc	r2, r4
 2444 0050 A142     		cmp	r1, r4
 2445 0052 28BF     		it	cs
 2446 0054 2146     		movcs	r1, r4
 2447 0056 2846     		mov	r0, r5
 2448              	.LVL294:
 103:Middlewares/lvgl/src/widgets/lv_arc.c ****                      LV_PART_INDICATOR);
 2449              		.loc 1 103 9 is_stmt 0 view .LVU777
 2450 0058 FFF7FEFF 		bl	inv_arc_area
 2451              	.LVL295:
 2452 005c ECE7     		b	.L80
 2453              	.LVL296:
 2454              	.L86:
 108:Middlewares/lvgl/src/widgets/lv_arc.c ****                      LV_PART_INDICATOR);
 2455              		.loc 1 108 9 is_stmt 1 view .LVU778
 2456 005e 4FF40033 		mov	r3, #131072
 2457 0062 0A46     		mov	r2, r1
 2458 0064 A142     		cmp	r1, r4
 2459 0066 38BF     		it	cc
 2460 0068 2246     		movcc	r2, r4
 2461 006a A142     		cmp	r1, r4
 2462 006c 28BF     		it	cs
 2463 006e 2146     		movcs	r1, r4
 2464 0070 2846     		mov	r0, r5
 2465              	.LVL297:
 108:Middlewares/lvgl/src/widgets/lv_arc.c ****                      LV_PART_INDICATOR);
 2466              		.loc 1 108 9 is_stmt 0 view .LVU779
 2467 0072 FFF7FEFF 		bl	inv_arc_area
 2468              	.LVL298:
 2469 0076 DFE7     		b	.L80
 2470              		.cfi_endproc
 2471              	.LFE148:
 2473              		.section	.text.lv_arc_set_end_angle,"ax",%progbits
 2474              		.align	1
 2475              		.global	lv_arc_set_end_angle
 2476              		.syntax unified
 2477              		.thumb
 2478              		.thumb_func
 2479              		.fpu fpv5-d16
 2481              	lv_arc_set_end_angle:
 2482              	.LVL299:
 2483              	.LFB149:
 125:Middlewares/lvgl/src/widgets/lv_arc.c ****     LV_ASSERT_OBJ(obj, MY_CLASS);
 2484              		.loc 1 125 1 is_stmt 1 view -0
ARM GAS  /tmp/ccqOegKq.s 			page 81


 2485              		.cfi_startproc
 2486              		@ args = 0, pretend = 0, frame = 0
 2487              		@ frame_needed = 0, uses_anonymous_args = 0
 125:Middlewares/lvgl/src/widgets/lv_arc.c ****     LV_ASSERT_OBJ(obj, MY_CLASS);
 2488              		.loc 1 125 1 is_stmt 0 view .LVU781
 2489 0000 38B5     		push	{r3, r4, r5, lr}
 2490              	.LCFI19:
 2491              		.cfi_def_cfa_offset 16
 2492              		.cfi_offset 3, -16
 2493              		.cfi_offset 4, -12
 2494              		.cfi_offset 5, -8
 2495              		.cfi_offset 14, -4
 2496 0002 0546     		mov	r5, r0
 2497 0004 0C46     		mov	r4, r1
 126:Middlewares/lvgl/src/widgets/lv_arc.c ****     lv_arc_t * arc = (lv_arc_t *)obj;
 2498              		.loc 1 126 5 is_stmt 1 view .LVU782
 126:Middlewares/lvgl/src/widgets/lv_arc.c ****     lv_arc_t * arc = (lv_arc_t *)obj;
 2499              		.loc 1 126 5 view .LVU783
 126:Middlewares/lvgl/src/widgets/lv_arc.c ****     lv_arc_t * arc = (lv_arc_t *)obj;
 2500              		.loc 1 126 5 view .LVU784
 127:Middlewares/lvgl/src/widgets/lv_arc.c **** 
 2501              		.loc 1 127 5 view .LVU785
 2502              	.LVL300:
 129:Middlewares/lvgl/src/widgets/lv_arc.c **** 
 2503              		.loc 1 129 5 view .LVU786
 129:Middlewares/lvgl/src/widgets/lv_arc.c **** 
 2504              		.loc 1 129 18 is_stmt 0 view .LVU787
 2505 0006 C38C     		ldrh	r3, [r0, #38]
 129:Middlewares/lvgl/src/widgets/lv_arc.c **** 
 2506              		.loc 1 129 38 view .LVU788
 2507 0008 03F5B472 		add	r2, r3, #360
 129:Middlewares/lvgl/src/widgets/lv_arc.c **** 
 2508              		.loc 1 129 7 view .LVU789
 2509 000c 9142     		cmp	r1, r2
 2510 000e 00DD     		ble	.L88
 129:Middlewares/lvgl/src/widgets/lv_arc.c **** 
 2511              		.loc 1 129 46 is_stmt 1 discriminator 1 view .LVU790
 129:Middlewares/lvgl/src/widgets/lv_arc.c **** 
 2512              		.loc 1 129 50 is_stmt 0 discriminator 1 view .LVU791
 2513 0010 94B2     		uxth	r4, r2
 2514              	.LVL301:
 2515              	.L88:
 132:Middlewares/lvgl/src/widgets/lv_arc.c ****         lv_obj_invalidate(obj);
 2516              		.loc 1 132 5 is_stmt 1 view .LVU792
 132:Middlewares/lvgl/src/widgets/lv_arc.c ****         lv_obj_invalidate(obj);
 2517              		.loc 1 132 8 is_stmt 0 view .LVU793
 2518 0012 298D     		ldrh	r1, [r5, #40]
 2519 0014 621A     		subs	r2, r4, r1
 2520 0016 002A     		cmp	r2, #0
 2521 0018 B8BF     		it	lt
 2522 001a 5242     		rsblt	r2, r2, #0
 132:Middlewares/lvgl/src/widgets/lv_arc.c ****         lv_obj_invalidate(obj);
 2523              		.loc 1 132 7 view .LVU794
 2524 001c B32A     		cmp	r2, #179
 2525 001e 0CDC     		bgt	.L94
 136:Middlewares/lvgl/src/widgets/lv_arc.c ****         inv_arc_area(obj, LV_MIN(arc->indic_angle_end, end), LV_MAX(arc->indic_angle_end, end), LV_
 2526              		.loc 1 136 10 is_stmt 1 view .LVU795
ARM GAS  /tmp/ccqOegKq.s 			page 82


 136:Middlewares/lvgl/src/widgets/lv_arc.c ****         inv_arc_area(obj, LV_MIN(arc->indic_angle_end, end), LV_MAX(arc->indic_angle_end, end), LV_
 2527              		.loc 1 136 12 is_stmt 0 view .LVU796
 2528 0020 8B42     		cmp	r3, r1
 2529 0022 01D2     		bcs	.L91
 136:Middlewares/lvgl/src/widgets/lv_arc.c ****         inv_arc_area(obj, LV_MIN(arc->indic_angle_end, end), LV_MAX(arc->indic_angle_end, end), LV_
 2530              		.loc 1 136 58 discriminator 1 view .LVU797
 2531 0024 A342     		cmp	r3, r4
 2532 0026 0CD3     		bcc	.L95
 2533              	.L91:
 140:Middlewares/lvgl/src/widgets/lv_arc.c ****         inv_arc_area(obj, LV_MIN(arc->indic_angle_end, end), LV_MAX(arc->indic_angle_end, end), LV_
 2534              		.loc 1 140 11 is_stmt 1 view .LVU798
 140:Middlewares/lvgl/src/widgets/lv_arc.c ****         inv_arc_area(obj, LV_MIN(arc->indic_angle_end, end), LV_MAX(arc->indic_angle_end, end), LV_
 2535              		.loc 1 140 13 is_stmt 0 view .LVU799
 2536 0028 8B42     		cmp	r3, r1
 2537 002a 01D9     		bls	.L92
 140:Middlewares/lvgl/src/widgets/lv_arc.c ****         inv_arc_area(obj, LV_MIN(arc->indic_angle_end, end), LV_MAX(arc->indic_angle_end, end), LV_
 2538              		.loc 1 140 59 discriminator 1 view .LVU800
 2539 002c A342     		cmp	r3, r4
 2540 002e 15D8     		bhi	.L96
 2541              	.L92:
 145:Middlewares/lvgl/src/widgets/lv_arc.c ****     }
 2542              		.loc 1 145 9 is_stmt 1 view .LVU801
 2543 0030 2846     		mov	r0, r5
 2544              	.LVL302:
 145:Middlewares/lvgl/src/widgets/lv_arc.c ****     }
 2545              		.loc 1 145 9 is_stmt 0 view .LVU802
 2546 0032 FFF7FEFF 		bl	lv_obj_invalidate
 2547              	.LVL303:
 2548              	.L90:
 148:Middlewares/lvgl/src/widgets/lv_arc.c **** }
 2549              		.loc 1 148 4 is_stmt 1 view .LVU803
 148:Middlewares/lvgl/src/widgets/lv_arc.c **** }
 2550              		.loc 1 148 25 is_stmt 0 view .LVU804
 2551 0036 2C85     		strh	r4, [r5, #40]	@ movhi
 149:Middlewares/lvgl/src/widgets/lv_arc.c **** 
 2552              		.loc 1 149 1 view .LVU805
 2553 0038 38BD     		pop	{r3, r4, r5, pc}
 2554              	.LVL304:
 2555              	.L94:
 133:Middlewares/lvgl/src/widgets/lv_arc.c ****     }
 2556              		.loc 1 133 9 is_stmt 1 view .LVU806
 2557 003a 2846     		mov	r0, r5
 2558              	.LVL305:
 133:Middlewares/lvgl/src/widgets/lv_arc.c ****     }
 2559              		.loc 1 133 9 is_stmt 0 view .LVU807
 2560 003c FFF7FEFF 		bl	lv_obj_invalidate
 2561              	.LVL306:
 2562 0040 F9E7     		b	.L90
 2563              	.LVL307:
 2564              	.L95:
 137:Middlewares/lvgl/src/widgets/lv_arc.c ****     }
 2565              		.loc 1 137 9 is_stmt 1 view .LVU808
 2566 0042 4FF40033 		mov	r3, #131072
 2567 0046 0A46     		mov	r2, r1
 2568 0048 A142     		cmp	r1, r4
 2569 004a 38BF     		it	cc
 2570 004c 2246     		movcc	r2, r4
ARM GAS  /tmp/ccqOegKq.s 			page 83


 2571 004e A142     		cmp	r1, r4
 2572 0050 28BF     		it	cs
 2573 0052 2146     		movcs	r1, r4
 2574 0054 2846     		mov	r0, r5
 2575              	.LVL308:
 137:Middlewares/lvgl/src/widgets/lv_arc.c ****     }
 2576              		.loc 1 137 9 is_stmt 0 view .LVU809
 2577 0056 FFF7FEFF 		bl	inv_arc_area
 2578              	.LVL309:
 2579 005a ECE7     		b	.L90
 2580              	.LVL310:
 2581              	.L96:
 141:Middlewares/lvgl/src/widgets/lv_arc.c ****     }
 2582              		.loc 1 141 9 is_stmt 1 view .LVU810
 2583 005c 4FF40033 		mov	r3, #131072
 2584 0060 0A46     		mov	r2, r1
 2585 0062 A142     		cmp	r1, r4
 2586 0064 38BF     		it	cc
 2587 0066 2246     		movcc	r2, r4
 2588 0068 A142     		cmp	r1, r4
 2589 006a 28BF     		it	cs
 2590 006c 2146     		movcs	r1, r4
 2591 006e 2846     		mov	r0, r5
 2592              	.LVL311:
 141:Middlewares/lvgl/src/widgets/lv_arc.c ****     }
 2593              		.loc 1 141 9 is_stmt 0 view .LVU811
 2594 0070 FFF7FEFF 		bl	inv_arc_area
 2595              	.LVL312:
 2596 0074 DFE7     		b	.L90
 2597              		.cfi_endproc
 2598              	.LFE149:
 2600              		.section	.text.value_update,"ax",%progbits
 2601              		.align	1
 2602              		.syntax unified
 2603              		.thumb
 2604              		.thumb_func
 2605              		.fpu fpv5-d16
 2607              	value_update:
 2608              	.LVL313:
 2609              	.LFB173:
 928:Middlewares/lvgl/src/widgets/lv_arc.c **** 
 929:Middlewares/lvgl/src/widgets/lv_arc.c **** /**
 930:Middlewares/lvgl/src/widgets/lv_arc.c ****  * Used internally to update arc angles after a value change
 931:Middlewares/lvgl/src/widgets/lv_arc.c ****  * @param arc pointer to a arc object
 932:Middlewares/lvgl/src/widgets/lv_arc.c ****  */
 933:Middlewares/lvgl/src/widgets/lv_arc.c **** static void value_update(lv_obj_t * obj)
 934:Middlewares/lvgl/src/widgets/lv_arc.c **** {
 2610              		.loc 1 934 1 is_stmt 1 view -0
 2611              		.cfi_startproc
 2612              		@ args = 0, pretend = 0, frame = 0
 2613              		@ frame_needed = 0, uses_anonymous_args = 0
 2614              		.loc 1 934 1 is_stmt 0 view .LVU813
 2615 0000 F0B5     		push	{r4, r5, r6, r7, lr}
 2616              	.LCFI20:
 2617              		.cfi_def_cfa_offset 20
 2618              		.cfi_offset 4, -20
 2619              		.cfi_offset 5, -16
ARM GAS  /tmp/ccqOegKq.s 			page 84


 2620              		.cfi_offset 6, -12
 2621              		.cfi_offset 7, -8
 2622              		.cfi_offset 14, -4
 2623 0002 83B0     		sub	sp, sp, #12
 2624              	.LCFI21:
 2625              		.cfi_def_cfa_offset 32
 2626 0004 0446     		mov	r4, r0
 935:Middlewares/lvgl/src/widgets/lv_arc.c ****     LV_ASSERT_OBJ(obj, MY_CLASS);
 2627              		.loc 1 935 5 is_stmt 1 view .LVU814
 2628              		.loc 1 935 5 view .LVU815
 2629              		.loc 1 935 5 view .LVU816
 936:Middlewares/lvgl/src/widgets/lv_arc.c ****     lv_arc_t * arc = (lv_arc_t *)obj;
 2630              		.loc 1 936 5 view .LVU817
 2631              	.LVL314:
 937:Middlewares/lvgl/src/widgets/lv_arc.c **** 
 938:Middlewares/lvgl/src/widgets/lv_arc.c ****     /*If the value is still not set to any value do not update*/
 939:Middlewares/lvgl/src/widgets/lv_arc.c ****     if(arc->value == VALUE_UNSET) return;
 2632              		.loc 1 939 5 view .LVU818
 2633              		.loc 1 939 11 is_stmt 0 view .LVU819
 2634 0006 B0F92E00 		ldrsh	r0, [r0, #46]
 2635              	.LVL315:
 2636              		.loc 1 939 7 view .LVU820
 2637 000a 10F5004F 		cmn	r0, #32768
 2638 000e 62D0     		beq	.L97
 940:Middlewares/lvgl/src/widgets/lv_arc.c **** 
 941:Middlewares/lvgl/src/widgets/lv_arc.c ****     int16_t bg_midpoint, range_midpoint, bg_end =arc->bg_angle_end;
 2639              		.loc 1 941 5 is_stmt 1 view .LVU821
 2640              		.loc 1 941 53 is_stmt 0 view .LVU822
 2641 0010 A18D     		ldrh	r1, [r4, #44]
 2642              		.loc 1 941 42 view .LVU823
 2643 0012 B4F92C20 		ldrsh	r2, [r4, #44]
 2644              	.LVL316:
 942:Middlewares/lvgl/src/widgets/lv_arc.c ****     if(arc->bg_angle_end <arc->bg_angle_start) bg_end =arc->bg_angle_end + 360;
 2645              		.loc 1 942 5 is_stmt 1 view .LVU824
 2646              		.loc 1 942 30 is_stmt 0 view .LVU825
 2647 0016 638D     		ldrh	r3, [r4, #42]
 2648              		.loc 1 942 7 view .LVU826
 2649 0018 9942     		cmp	r1, r3
 2650 001a 02D2     		bcs	.L99
 2651              		.loc 1 942 48 is_stmt 1 discriminator 1 view .LVU827
 2652              		.loc 1 942 74 is_stmt 0 discriminator 1 view .LVU828
 2653 001c 01F5B472 		add	r2, r1, #360
 2654              	.LVL317:
 2655              		.loc 1 942 55 discriminator 1 view .LVU829
 2656 0020 12B2     		sxth	r2, r2
 2657              	.LVL318:
 2658              	.L99:
 943:Middlewares/lvgl/src/widgets/lv_arc.c **** 
 944:Middlewares/lvgl/src/widgets/lv_arc.c ****     int16_t angle;
 2659              		.loc 1 944 5 is_stmt 1 view .LVU830
 945:Middlewares/lvgl/src/widgets/lv_arc.c ****     switch(arc->type) {
 2660              		.loc 1 945 5 view .LVU831
 2661              		.loc 1 945 15 is_stmt 0 view .LVU832
 2662 0022 94F83410 		ldrb	r1, [r4, #52]	@ zero_extendqisi2
 2663 0026 C1F34101 		ubfx	r1, r1, #1, #2
 2664              		.loc 1 945 5 view .LVU833
 2665 002a 0129     		cmp	r1, #1
ARM GAS  /tmp/ccqOegKq.s 			page 85


 2666 002c 12D0     		beq	.L100
 2667              		.loc 1 945 5 view .LVU834
 2668 002e 0229     		cmp	r1, #2
 2669 0030 44D0     		beq	.L101
 946:Middlewares/lvgl/src/widgets/lv_arc.c ****         case LV_ARC_MODE_SYMMETRICAL:
 947:Middlewares/lvgl/src/widgets/lv_arc.c ****             bg_midpoint = (arc->bg_angle_start + bg_end) / 2;
 948:Middlewares/lvgl/src/widgets/lv_arc.c ****             range_midpoint = (int32_t)(arc->min_value +arc->max_value) / 2;
 949:Middlewares/lvgl/src/widgets/lv_arc.c **** 
 950:Middlewares/lvgl/src/widgets/lv_arc.c ****             if(arc->value < range_midpoint) {
 951:Middlewares/lvgl/src/widgets/lv_arc.c ****                 angle = lv_map(arc->value,arc->min_value, range_midpoint,arc->bg_angle_start, bg_mi
 952:Middlewares/lvgl/src/widgets/lv_arc.c ****                 lv_arc_set_start_angle(obj, angle);
 953:Middlewares/lvgl/src/widgets/lv_arc.c ****                 lv_arc_set_end_angle(obj, bg_midpoint);
 954:Middlewares/lvgl/src/widgets/lv_arc.c ****             }
 955:Middlewares/lvgl/src/widgets/lv_arc.c ****             else {
 956:Middlewares/lvgl/src/widgets/lv_arc.c ****                 angle = lv_map(arc->value, range_midpoint,arc->max_value, bg_midpoint, bg_end);
 957:Middlewares/lvgl/src/widgets/lv_arc.c ****                 lv_arc_set_start_angle(obj, bg_midpoint);
 958:Middlewares/lvgl/src/widgets/lv_arc.c ****                 lv_arc_set_end_angle(obj, angle);
 959:Middlewares/lvgl/src/widgets/lv_arc.c ****             }
 960:Middlewares/lvgl/src/widgets/lv_arc.c ****             break;
 961:Middlewares/lvgl/src/widgets/lv_arc.c ****         case LV_ARC_MODE_REVERSE:
 962:Middlewares/lvgl/src/widgets/lv_arc.c ****             angle = lv_map(arc->value,arc->min_value,arc->max_value,arc->bg_angle_start, bg_end);
 963:Middlewares/lvgl/src/widgets/lv_arc.c ****             lv_arc_set_start_angle(obj, angle);
 964:Middlewares/lvgl/src/widgets/lv_arc.c ****             break;
 965:Middlewares/lvgl/src/widgets/lv_arc.c ****         default: /** LV_ARC_TYPE_NORMAL*/
 966:Middlewares/lvgl/src/widgets/lv_arc.c ****             angle = lv_map(arc->value,arc->min_value,arc->max_value,arc->bg_angle_start, bg_end);
 2670              		.loc 1 966 13 is_stmt 1 view .LVU835
 2671              		.loc 1 966 21 is_stmt 0 view .LVU836
 2672 0032 0092     		str	r2, [sp]
 2673 0034 B4F93220 		ldrsh	r2, [r4, #50]
 2674              	.LVL319:
 2675              		.loc 1 966 21 view .LVU837
 2676 0038 B4F93010 		ldrsh	r1, [r4, #48]
 2677 003c FFF7FEFF 		bl	lv_map
 2678              	.LVL320:
 2679              		.loc 1 966 19 view .LVU838
 2680 0040 05B2     		sxth	r5, r0
 2681              	.LVL321:
 967:Middlewares/lvgl/src/widgets/lv_arc.c ****             lv_arc_set_end_angle(obj, angle);
 2682              		.loc 1 967 13 is_stmt 1 view .LVU839
 2683 0042 81B2     		uxth	r1, r0
 2684 0044 2046     		mov	r0, r4
 2685 0046 FFF7FEFF 		bl	lv_arc_set_end_angle
 2686              	.LVL322:
 968:Middlewares/lvgl/src/widgets/lv_arc.c ****             lv_arc_set_start_angle(obj,arc->bg_angle_start);
 2687              		.loc 1 968 13 view .LVU840
 2688 004a 618D     		ldrh	r1, [r4, #42]
 2689 004c 2046     		mov	r0, r4
 2690 004e FFF7FEFF 		bl	lv_arc_set_start_angle
 2691              	.LVL323:
 2692 0052 3FE0     		b	.L106
 2693              	.LVL324:
 2694              	.L100:
 947:Middlewares/lvgl/src/widgets/lv_arc.c ****             range_midpoint = (int32_t)(arc->min_value +arc->max_value) / 2;
 2695              		.loc 1 947 13 view .LVU841
 947:Middlewares/lvgl/src/widgets/lv_arc.c ****             range_midpoint = (int32_t)(arc->min_value +arc->max_value) / 2;
 2696              		.loc 1 947 48 is_stmt 0 view .LVU842
 2697 0054 1746     		mov	r7, r2
ARM GAS  /tmp/ccqOegKq.s 			page 86


 947:Middlewares/lvgl/src/widgets/lv_arc.c ****             range_midpoint = (int32_t)(arc->min_value +arc->max_value) / 2;
 2698              		.loc 1 947 58 view .LVU843
 2699 0056 9A18     		adds	r2, r3, r2
 2700              	.LVL325:
 947:Middlewares/lvgl/src/widgets/lv_arc.c ****             range_midpoint = (int32_t)(arc->min_value +arc->max_value) / 2;
 2701              		.loc 1 947 58 view .LVU844
 2702 0058 1CD4     		bmi	.L109
 2703              	.L103:
 2704 005a 5610     		asrs	r6, r2, #1
 947:Middlewares/lvgl/src/widgets/lv_arc.c ****             range_midpoint = (int32_t)(arc->min_value +arc->max_value) / 2;
 2705              		.loc 1 947 25 view .LVU845
 2706 005c 42F34F05 		sbfx	r5, r2, #1, #16
 2707              	.LVL326:
 948:Middlewares/lvgl/src/widgets/lv_arc.c **** 
 2708              		.loc 1 948 13 is_stmt 1 view .LVU846
 948:Middlewares/lvgl/src/widgets/lv_arc.c **** 
 2709              		.loc 1 948 43 is_stmt 0 view .LVU847
 2710 0060 B4F930E0 		ldrsh	lr, [r4, #48]
 948:Middlewares/lvgl/src/widgets/lv_arc.c **** 
 2711              		.loc 1 948 59 view .LVU848
 2712 0064 B4F93220 		ldrsh	r2, [r4, #50]
 948:Middlewares/lvgl/src/widgets/lv_arc.c **** 
 2713              		.loc 1 948 72 view .LVU849
 2714 0068 1EEB020C 		adds	ip, lr, r2
 2715 006c 14D4     		bmi	.L110
 2716              	.L104:
 948:Middlewares/lvgl/src/widgets/lv_arc.c **** 
 2717              		.loc 1 948 28 view .LVU850
 2718 006e 4CF34F01 		sbfx	r1, ip, #1, #16
 2719              	.LVL327:
 950:Middlewares/lvgl/src/widgets/lv_arc.c ****                 angle = lv_map(arc->value,arc->min_value, range_midpoint,arc->bg_angle_start, bg_mi
 2720              		.loc 1 950 13 is_stmt 1 view .LVU851
 950:Middlewares/lvgl/src/widgets/lv_arc.c ****                 angle = lv_map(arc->value,arc->min_value, range_midpoint,arc->bg_angle_start, bg_mi
 2721              		.loc 1 950 15 is_stmt 0 view .LVU852
 2722 0072 8842     		cmp	r0, r1
 2723 0074 13DA     		bge	.L105
 951:Middlewares/lvgl/src/widgets/lv_arc.c ****                 lv_arc_set_start_angle(obj, angle);
 2724              		.loc 1 951 17 is_stmt 1 view .LVU853
 951:Middlewares/lvgl/src/widgets/lv_arc.c ****                 lv_arc_set_start_angle(obj, angle);
 2725              		.loc 1 951 25 is_stmt 0 view .LVU854
 2726 0076 0095     		str	r5, [sp]
 2727 0078 0A46     		mov	r2, r1
 2728 007a 7146     		mov	r1, lr
 2729              	.LVL328:
 951:Middlewares/lvgl/src/widgets/lv_arc.c ****                 lv_arc_set_start_angle(obj, angle);
 2730              		.loc 1 951 25 view .LVU855
 2731 007c FFF7FEFF 		bl	lv_map
 2732              	.LVL329:
 951:Middlewares/lvgl/src/widgets/lv_arc.c ****                 lv_arc_set_start_angle(obj, angle);
 2733              		.loc 1 951 23 view .LVU856
 2734 0080 05B2     		sxth	r5, r0
 2735              	.LVL330:
 952:Middlewares/lvgl/src/widgets/lv_arc.c ****                 lv_arc_set_end_angle(obj, bg_midpoint);
 2736              		.loc 1 952 17 is_stmt 1 view .LVU857
 2737 0082 81B2     		uxth	r1, r0
 2738 0084 2046     		mov	r0, r4
 2739 0086 FFF7FEFF 		bl	lv_arc_set_start_angle
ARM GAS  /tmp/ccqOegKq.s 			page 87


 2740              	.LVL331:
 953:Middlewares/lvgl/src/widgets/lv_arc.c ****             }
 2741              		.loc 1 953 17 view .LVU858
 2742 008a B1B2     		uxth	r1, r6
 2743 008c 2046     		mov	r0, r4
 2744 008e FFF7FEFF 		bl	lv_arc_set_end_angle
 2745              	.LVL332:
 2746 0092 1FE0     		b	.L106
 2747              	.LVL333:
 2748              	.L109:
 947:Middlewares/lvgl/src/widgets/lv_arc.c ****             range_midpoint = (int32_t)(arc->min_value +arc->max_value) / 2;
 2749              		.loc 1 947 58 is_stmt 0 view .LVU859
 2750 0094 0132     		adds	r2, r2, #1
 2751 0096 E0E7     		b	.L103
 2752              	.LVL334:
 2753              	.L110:
 948:Middlewares/lvgl/src/widgets/lv_arc.c **** 
 2754              		.loc 1 948 72 view .LVU860
 2755 0098 0CF1010C 		add	ip, ip, #1
 2756 009c E7E7     		b	.L104
 2757              	.LVL335:
 2758              	.L105:
 956:Middlewares/lvgl/src/widgets/lv_arc.c ****                 lv_arc_set_start_angle(obj, bg_midpoint);
 2759              		.loc 1 956 17 is_stmt 1 view .LVU861
 956:Middlewares/lvgl/src/widgets/lv_arc.c ****                 lv_arc_set_start_angle(obj, bg_midpoint);
 2760              		.loc 1 956 25 is_stmt 0 view .LVU862
 2761 009e 0097     		str	r7, [sp]
 2762 00a0 2B46     		mov	r3, r5
 2763 00a2 FFF7FEFF 		bl	lv_map
 2764              	.LVL336:
 956:Middlewares/lvgl/src/widgets/lv_arc.c ****                 lv_arc_set_start_angle(obj, bg_midpoint);
 2765              		.loc 1 956 25 view .LVU863
 2766 00a6 0746     		mov	r7, r0
 956:Middlewares/lvgl/src/widgets/lv_arc.c ****                 lv_arc_set_start_angle(obj, bg_midpoint);
 2767              		.loc 1 956 23 view .LVU864
 2768 00a8 05B2     		sxth	r5, r0
 2769              	.LVL337:
 957:Middlewares/lvgl/src/widgets/lv_arc.c ****                 lv_arc_set_end_angle(obj, angle);
 2770              		.loc 1 957 17 is_stmt 1 view .LVU865
 2771 00aa B1B2     		uxth	r1, r6
 2772 00ac 2046     		mov	r0, r4
 2773 00ae FFF7FEFF 		bl	lv_arc_set_start_angle
 2774              	.LVL338:
 958:Middlewares/lvgl/src/widgets/lv_arc.c ****             }
 2775              		.loc 1 958 17 view .LVU866
 2776 00b2 B9B2     		uxth	r1, r7
 2777 00b4 2046     		mov	r0, r4
 2778 00b6 FFF7FEFF 		bl	lv_arc_set_end_angle
 2779              	.LVL339:
 2780 00ba 0BE0     		b	.L106
 2781              	.LVL340:
 2782              	.L101:
 962:Middlewares/lvgl/src/widgets/lv_arc.c ****             lv_arc_set_start_angle(obj, angle);
 2783              		.loc 1 962 13 view .LVU867
 962:Middlewares/lvgl/src/widgets/lv_arc.c ****             lv_arc_set_start_angle(obj, angle);
 2784              		.loc 1 962 21 is_stmt 0 view .LVU868
 2785 00bc 0092     		str	r2, [sp]
ARM GAS  /tmp/ccqOegKq.s 			page 88


 2786 00be B4F93220 		ldrsh	r2, [r4, #50]
 2787              	.LVL341:
 962:Middlewares/lvgl/src/widgets/lv_arc.c ****             lv_arc_set_start_angle(obj, angle);
 2788              		.loc 1 962 21 view .LVU869
 2789 00c2 B4F93010 		ldrsh	r1, [r4, #48]
 2790 00c6 FFF7FEFF 		bl	lv_map
 2791              	.LVL342:
 962:Middlewares/lvgl/src/widgets/lv_arc.c ****             lv_arc_set_start_angle(obj, angle);
 2792              		.loc 1 962 19 view .LVU870
 2793 00ca 05B2     		sxth	r5, r0
 2794              	.LVL343:
 963:Middlewares/lvgl/src/widgets/lv_arc.c ****             break;
 2795              		.loc 1 963 13 is_stmt 1 view .LVU871
 2796 00cc 81B2     		uxth	r1, r0
 2797 00ce 2046     		mov	r0, r4
 2798 00d0 FFF7FEFF 		bl	lv_arc_set_start_angle
 2799              	.LVL344:
 964:Middlewares/lvgl/src/widgets/lv_arc.c ****         default: /** LV_ARC_TYPE_NORMAL*/
 2800              		.loc 1 964 13 view .LVU872
 2801              	.L106:
 969:Middlewares/lvgl/src/widgets/lv_arc.c ****     }
 970:Middlewares/lvgl/src/widgets/lv_arc.c ****    arc->last_angle = angle; /*Cache angle for slew rate limiting*/
 2802              		.loc 1 970 4 view .LVU873
 2803              		.loc 1 970 20 is_stmt 0 view .LVU874
 2804 00d4 A587     		strh	r5, [r4, #60]	@ movhi
 2805              	.LVL345:
 2806              	.L97:
 971:Middlewares/lvgl/src/widgets/lv_arc.c **** }
 2807              		.loc 1 971 1 view .LVU875
 2808 00d6 03B0     		add	sp, sp, #12
 2809              	.LCFI22:
 2810              		.cfi_def_cfa_offset 20
 2811              		@ sp needed
 2812 00d8 F0BD     		pop	{r4, r5, r6, r7, pc}
 2813              		.loc 1 971 1 view .LVU876
 2814              		.cfi_endproc
 2815              	.LFE173:
 2817              		.section	.text.lv_arc_set_angles,"ax",%progbits
 2818              		.align	1
 2819              		.global	lv_arc_set_angles
 2820              		.syntax unified
 2821              		.thumb
 2822              		.thumb_func
 2823              		.fpu fpv5-d16
 2825              	lv_arc_set_angles:
 2826              	.LVL346:
 2827              	.LFB150:
 158:Middlewares/lvgl/src/widgets/lv_arc.c ****     LV_ASSERT_OBJ(obj, MY_CLASS);
 2828              		.loc 1 158 1 is_stmt 1 view -0
 2829              		.cfi_startproc
 2830              		@ args = 0, pretend = 0, frame = 0
 2831              		@ frame_needed = 0, uses_anonymous_args = 0
 158:Middlewares/lvgl/src/widgets/lv_arc.c ****     LV_ASSERT_OBJ(obj, MY_CLASS);
 2832              		.loc 1 158 1 is_stmt 0 view .LVU878
 2833 0000 70B5     		push	{r4, r5, r6, lr}
 2834              	.LCFI23:
 2835              		.cfi_def_cfa_offset 16
ARM GAS  /tmp/ccqOegKq.s 			page 89


 2836              		.cfi_offset 4, -16
 2837              		.cfi_offset 5, -12
 2838              		.cfi_offset 6, -8
 2839              		.cfi_offset 14, -4
 2840 0002 0546     		mov	r5, r0
 2841 0004 0C46     		mov	r4, r1
 2842 0006 1646     		mov	r6, r2
 159:Middlewares/lvgl/src/widgets/lv_arc.c ****     lv_arc_t * arc = (lv_arc_t *)obj;
 2843              		.loc 1 159 5 is_stmt 1 view .LVU879
 159:Middlewares/lvgl/src/widgets/lv_arc.c ****     lv_arc_t * arc = (lv_arc_t *)obj;
 2844              		.loc 1 159 5 view .LVU880
 159:Middlewares/lvgl/src/widgets/lv_arc.c ****     lv_arc_t * arc = (lv_arc_t *)obj;
 2845              		.loc 1 159 5 view .LVU881
 160:Middlewares/lvgl/src/widgets/lv_arc.c **** 
 2846              		.loc 1 160 5 view .LVU882
 2847              	.LVL347:
 162:Middlewares/lvgl/src/widgets/lv_arc.c ****     if(end > (start + 360)) end = start + 360;
 2848              		.loc 1 162 5 view .LVU883
 162:Middlewares/lvgl/src/widgets/lv_arc.c ****     if(end > (start + 360)) end = start + 360;
 2849              		.loc 1 162 7 is_stmt 0 view .LVU884
 2850 0008 B1F5B47F 		cmp	r1, #360
 2851 000c 02D9     		bls	.L112
 162:Middlewares/lvgl/src/widgets/lv_arc.c ****     if(end > (start + 360)) end = start + 360;
 2852              		.loc 1 162 21 is_stmt 1 discriminator 1 view .LVU885
 162:Middlewares/lvgl/src/widgets/lv_arc.c ****     if(end > (start + 360)) end = start + 360;
 2853              		.loc 1 162 27 is_stmt 0 discriminator 1 view .LVU886
 2854 000e A1F5B474 		sub	r4, r1, #360
 2855 0012 A4B2     		uxth	r4, r4
 2856              	.LVL348:
 2857              	.L112:
 163:Middlewares/lvgl/src/widgets/lv_arc.c **** 
 2858              		.loc 1 163 5 is_stmt 1 view .LVU887
 163:Middlewares/lvgl/src/widgets/lv_arc.c **** 
 2859              		.loc 1 163 21 is_stmt 0 view .LVU888
 2860 0014 04F5B473 		add	r3, r4, #360
 163:Middlewares/lvgl/src/widgets/lv_arc.c **** 
 2861              		.loc 1 163 7 view .LVU889
 2862 0018 9E42     		cmp	r6, r3
 2863 001a 00DD     		ble	.L113
 163:Middlewares/lvgl/src/widgets/lv_arc.c **** 
 2864              		.loc 1 163 29 is_stmt 1 discriminator 1 view .LVU890
 163:Middlewares/lvgl/src/widgets/lv_arc.c **** 
 2865              		.loc 1 163 33 is_stmt 0 discriminator 1 view .LVU891
 2866 001c 9EB2     		uxth	r6, r3
 2867              	.LVL349:
 2868              	.L113:
 165:Middlewares/lvgl/src/widgets/lv_arc.c **** 
 2869              		.loc 1 165 5 is_stmt 1 view .LVU892
 2870 001e 4FF40033 		mov	r3, #131072
 2871 0022 2A8D     		ldrh	r2, [r5, #40]
 2872 0024 E98C     		ldrh	r1, [r5, #38]
 2873 0026 2846     		mov	r0, r5
 2874              	.LVL350:
 165:Middlewares/lvgl/src/widgets/lv_arc.c **** 
 2875              		.loc 1 165 5 is_stmt 0 view .LVU893
 2876 0028 FFF7FEFF 		bl	inv_arc_area
 2877              	.LVL351:
ARM GAS  /tmp/ccqOegKq.s 			page 90


 167:Middlewares/lvgl/src/widgets/lv_arc.c ****     arc->indic_angle_end = end;
 2878              		.loc 1 167 5 is_stmt 1 view .LVU894
 167:Middlewares/lvgl/src/widgets/lv_arc.c ****     arc->indic_angle_end = end;
 2879              		.loc 1 167 28 is_stmt 0 view .LVU895
 2880 002c EC84     		strh	r4, [r5, #38]	@ movhi
 168:Middlewares/lvgl/src/widgets/lv_arc.c **** 
 2881              		.loc 1 168 5 is_stmt 1 view .LVU896
 168:Middlewares/lvgl/src/widgets/lv_arc.c **** 
 2882              		.loc 1 168 26 is_stmt 0 view .LVU897
 2883 002e 2E85     		strh	r6, [r5, #40]	@ movhi
 170:Middlewares/lvgl/src/widgets/lv_arc.c **** }
 2884              		.loc 1 170 5 is_stmt 1 view .LVU898
 2885 0030 4FF40033 		mov	r3, #131072
 2886 0034 3246     		mov	r2, r6
 2887 0036 2146     		mov	r1, r4
 2888 0038 2846     		mov	r0, r5
 2889 003a FFF7FEFF 		bl	inv_arc_area
 2890              	.LVL352:
 171:Middlewares/lvgl/src/widgets/lv_arc.c **** 
 2891              		.loc 1 171 1 is_stmt 0 view .LVU899
 2892 003e 70BD     		pop	{r4, r5, r6, pc}
 171:Middlewares/lvgl/src/widgets/lv_arc.c **** 
 2893              		.loc 1 171 1 view .LVU900
 2894              		.cfi_endproc
 2895              	.LFE150:
 2897              		.section	.text.lv_arc_set_bg_start_angle,"ax",%progbits
 2898              		.align	1
 2899              		.global	lv_arc_set_bg_start_angle
 2900              		.syntax unified
 2901              		.thumb
 2902              		.thumb_func
 2903              		.fpu fpv5-d16
 2905              	lv_arc_set_bg_start_angle:
 2906              	.LVL353:
 2907              	.LFB151:
 179:Middlewares/lvgl/src/widgets/lv_arc.c ****     LV_ASSERT_OBJ(obj, MY_CLASS);
 2908              		.loc 1 179 1 is_stmt 1 view -0
 2909              		.cfi_startproc
 2910              		@ args = 0, pretend = 0, frame = 0
 2911              		@ frame_needed = 0, uses_anonymous_args = 0
 179:Middlewares/lvgl/src/widgets/lv_arc.c ****     LV_ASSERT_OBJ(obj, MY_CLASS);
 2912              		.loc 1 179 1 is_stmt 0 view .LVU902
 2913 0000 38B5     		push	{r3, r4, r5, lr}
 2914              	.LCFI24:
 2915              		.cfi_def_cfa_offset 16
 2916              		.cfi_offset 3, -16
 2917              		.cfi_offset 4, -12
 2918              		.cfi_offset 5, -8
 2919              		.cfi_offset 14, -4
 2920 0002 0546     		mov	r5, r0
 2921 0004 0C46     		mov	r4, r1
 180:Middlewares/lvgl/src/widgets/lv_arc.c ****     lv_arc_t * arc = (lv_arc_t *)obj;
 2922              		.loc 1 180 5 is_stmt 1 view .LVU903
 180:Middlewares/lvgl/src/widgets/lv_arc.c ****     lv_arc_t * arc = (lv_arc_t *)obj;
 2923              		.loc 1 180 5 view .LVU904
 180:Middlewares/lvgl/src/widgets/lv_arc.c ****     lv_arc_t * arc = (lv_arc_t *)obj;
 2924              		.loc 1 180 5 view .LVU905
ARM GAS  /tmp/ccqOegKq.s 			page 91


 181:Middlewares/lvgl/src/widgets/lv_arc.c **** 
 2925              		.loc 1 181 5 view .LVU906
 2926              	.LVL354:
 183:Middlewares/lvgl/src/widgets/lv_arc.c **** 
 2927              		.loc 1 183 5 view .LVU907
 183:Middlewares/lvgl/src/widgets/lv_arc.c **** 
 2928              		.loc 1 183 7 is_stmt 0 view .LVU908
 2929 0006 B1F5B47F 		cmp	r1, #360
 2930 000a 02D9     		bls	.L116
 183:Middlewares/lvgl/src/widgets/lv_arc.c **** 
 2931              		.loc 1 183 21 is_stmt 1 discriminator 1 view .LVU909
 183:Middlewares/lvgl/src/widgets/lv_arc.c **** 
 2932              		.loc 1 183 27 is_stmt 0 discriminator 1 view .LVU910
 2933 000c A1F5B474 		sub	r4, r1, #360
 2934 0010 A4B2     		uxth	r4, r4
 2935              	.LVL355:
 2936              	.L116:
 186:Middlewares/lvgl/src/widgets/lv_arc.c ****         lv_obj_invalidate(obj);
 2937              		.loc 1 186 5 is_stmt 1 view .LVU911
 186:Middlewares/lvgl/src/widgets/lv_arc.c ****         lv_obj_invalidate(obj);
 2938              		.loc 1 186 8 is_stmt 0 view .LVU912
 2939 0012 698D     		ldrh	r1, [r5, #42]
 2940 0014 631A     		subs	r3, r4, r1
 2941 0016 002B     		cmp	r3, #0
 2942 0018 B8BF     		it	lt
 2943 001a 5B42     		rsblt	r3, r3, #0
 186:Middlewares/lvgl/src/widgets/lv_arc.c ****         lv_obj_invalidate(obj);
 2944              		.loc 1 186 7 view .LVU913
 2945 001c B32B     		cmp	r3, #179
 2946 001e 10DC     		bgt	.L122
 190:Middlewares/lvgl/src/widgets/lv_arc.c ****         inv_arc_area(obj, LV_MIN(arc->bg_angle_start, start), LV_MAX(arc->bg_angle_start, start), L
 2947              		.loc 1 190 10 is_stmt 1 view .LVU914
 190:Middlewares/lvgl/src/widgets/lv_arc.c ****         inv_arc_area(obj, LV_MIN(arc->bg_angle_start, start), LV_MAX(arc->bg_angle_start, start), L
 2948              		.loc 1 190 37 is_stmt 0 view .LVU915
 2949 0020 AB8D     		ldrh	r3, [r5, #44]
 190:Middlewares/lvgl/src/widgets/lv_arc.c ****         inv_arc_area(obj, LV_MIN(arc->bg_angle_start, start), LV_MAX(arc->bg_angle_start, start), L
 2950              		.loc 1 190 12 view .LVU916
 2951 0022 9942     		cmp	r1, r3
 2952 0024 01D9     		bls	.L119
 190:Middlewares/lvgl/src/widgets/lv_arc.c ****         inv_arc_area(obj, LV_MIN(arc->bg_angle_start, start), LV_MAX(arc->bg_angle_start, start), L
 2953              		.loc 1 190 52 discriminator 1 view .LVU917
 2954 0026 A342     		cmp	r3, r4
 2955 0028 0FD3     		bcc	.L123
 2956              	.L119:
 194:Middlewares/lvgl/src/widgets/lv_arc.c ****         inv_arc_area(obj, LV_MIN(arc->bg_angle_start, start), LV_MAX(arc->bg_angle_start, start), L
 2957              		.loc 1 194 11 is_stmt 1 view .LVU918
 194:Middlewares/lvgl/src/widgets/lv_arc.c ****         inv_arc_area(obj, LV_MIN(arc->bg_angle_start, start), LV_MAX(arc->bg_angle_start, start), L
 2958              		.loc 1 194 13 is_stmt 0 view .LVU919
 2959 002a 9942     		cmp	r1, r3
 2960 002c 01D2     		bcs	.L120
 194:Middlewares/lvgl/src/widgets/lv_arc.c ****         inv_arc_area(obj, LV_MIN(arc->bg_angle_start, start), LV_MAX(arc->bg_angle_start, start), L
 2961              		.loc 1 194 53 discriminator 1 view .LVU920
 2962 002e A342     		cmp	r3, r4
 2963 0030 17D8     		bhi	.L124
 2964              	.L120:
 199:Middlewares/lvgl/src/widgets/lv_arc.c ****     }
 2965              		.loc 1 199 9 is_stmt 1 view .LVU921
ARM GAS  /tmp/ccqOegKq.s 			page 92


 2966 0032 2846     		mov	r0, r5
 2967              	.LVL356:
 199:Middlewares/lvgl/src/widgets/lv_arc.c ****     }
 2968              		.loc 1 199 9 is_stmt 0 view .LVU922
 2969 0034 FFF7FEFF 		bl	lv_obj_invalidate
 2970              	.LVL357:
 2971              	.L118:
 202:Middlewares/lvgl/src/widgets/lv_arc.c **** 
 2972              		.loc 1 202 4 is_stmt 1 view .LVU923
 202:Middlewares/lvgl/src/widgets/lv_arc.c **** 
 2973              		.loc 1 202 24 is_stmt 0 view .LVU924
 2974 0038 6C85     		strh	r4, [r5, #42]	@ movhi
 204:Middlewares/lvgl/src/widgets/lv_arc.c **** }
 2975              		.loc 1 204 5 is_stmt 1 view .LVU925
 2976 003a 2846     		mov	r0, r5
 2977 003c FFF7FEFF 		bl	value_update
 2978              	.LVL358:
 205:Middlewares/lvgl/src/widgets/lv_arc.c **** 
 2979              		.loc 1 205 1 is_stmt 0 view .LVU926
 2980 0040 38BD     		pop	{r3, r4, r5, pc}
 2981              	.LVL359:
 2982              	.L122:
 187:Middlewares/lvgl/src/widgets/lv_arc.c ****     }
 2983              		.loc 1 187 9 is_stmt 1 view .LVU927
 2984 0042 2846     		mov	r0, r5
 2985              	.LVL360:
 187:Middlewares/lvgl/src/widgets/lv_arc.c ****     }
 2986              		.loc 1 187 9 is_stmt 0 view .LVU928
 2987 0044 FFF7FEFF 		bl	lv_obj_invalidate
 2988              	.LVL361:
 2989 0048 F6E7     		b	.L118
 2990              	.LVL362:
 2991              	.L123:
 191:Middlewares/lvgl/src/widgets/lv_arc.c ****     }
 2992              		.loc 1 191 9 is_stmt 1 view .LVU929
 2993 004a 0023     		movs	r3, #0
 2994 004c 0A46     		mov	r2, r1
 2995 004e A142     		cmp	r1, r4
 2996 0050 38BF     		it	cc
 2997 0052 2246     		movcc	r2, r4
 2998 0054 A142     		cmp	r1, r4
 2999 0056 28BF     		it	cs
 3000 0058 2146     		movcs	r1, r4
 3001 005a 2846     		mov	r0, r5
 3002              	.LVL363:
 191:Middlewares/lvgl/src/widgets/lv_arc.c ****     }
 3003              		.loc 1 191 9 is_stmt 0 view .LVU930
 3004 005c FFF7FEFF 		bl	inv_arc_area
 3005              	.LVL364:
 3006 0060 EAE7     		b	.L118
 3007              	.LVL365:
 3008              	.L124:
 195:Middlewares/lvgl/src/widgets/lv_arc.c ****     }
 3009              		.loc 1 195 9 is_stmt 1 view .LVU931
 3010 0062 0023     		movs	r3, #0
 3011 0064 0A46     		mov	r2, r1
 3012 0066 A142     		cmp	r1, r4
ARM GAS  /tmp/ccqOegKq.s 			page 93


 3013 0068 38BF     		it	cc
 3014 006a 2246     		movcc	r2, r4
 3015 006c A142     		cmp	r1, r4
 3016 006e 28BF     		it	cs
 3017 0070 2146     		movcs	r1, r4
 3018 0072 2846     		mov	r0, r5
 3019              	.LVL366:
 195:Middlewares/lvgl/src/widgets/lv_arc.c ****     }
 3020              		.loc 1 195 9 is_stmt 0 view .LVU932
 3021 0074 FFF7FEFF 		bl	inv_arc_area
 3022              	.LVL367:
 3023 0078 DEE7     		b	.L118
 3024              		.cfi_endproc
 3025              	.LFE151:
 3027              		.section	.text.lv_arc_set_bg_end_angle,"ax",%progbits
 3028              		.align	1
 3029              		.global	lv_arc_set_bg_end_angle
 3030              		.syntax unified
 3031              		.thumb
 3032              		.thumb_func
 3033              		.fpu fpv5-d16
 3035              	lv_arc_set_bg_end_angle:
 3036              	.LVL368:
 3037              	.LFB152:
 213:Middlewares/lvgl/src/widgets/lv_arc.c ****     LV_ASSERT_OBJ(obj, MY_CLASS);
 3038              		.loc 1 213 1 is_stmt 1 view -0
 3039              		.cfi_startproc
 3040              		@ args = 0, pretend = 0, frame = 0
 3041              		@ frame_needed = 0, uses_anonymous_args = 0
 213:Middlewares/lvgl/src/widgets/lv_arc.c ****     LV_ASSERT_OBJ(obj, MY_CLASS);
 3042              		.loc 1 213 1 is_stmt 0 view .LVU934
 3043 0000 38B5     		push	{r3, r4, r5, lr}
 3044              	.LCFI25:
 3045              		.cfi_def_cfa_offset 16
 3046              		.cfi_offset 3, -16
 3047              		.cfi_offset 4, -12
 3048              		.cfi_offset 5, -8
 3049              		.cfi_offset 14, -4
 3050 0002 0546     		mov	r5, r0
 3051 0004 0C46     		mov	r4, r1
 214:Middlewares/lvgl/src/widgets/lv_arc.c ****     lv_arc_t * arc = (lv_arc_t *)obj;
 3052              		.loc 1 214 5 is_stmt 1 view .LVU935
 214:Middlewares/lvgl/src/widgets/lv_arc.c ****     lv_arc_t * arc = (lv_arc_t *)obj;
 3053              		.loc 1 214 5 view .LVU936
 214:Middlewares/lvgl/src/widgets/lv_arc.c ****     lv_arc_t * arc = (lv_arc_t *)obj;
 3054              		.loc 1 214 5 view .LVU937
 215:Middlewares/lvgl/src/widgets/lv_arc.c **** 
 3055              		.loc 1 215 5 view .LVU938
 3056              	.LVL369:
 218:Middlewares/lvgl/src/widgets/lv_arc.c **** 
 3057              		.loc 1 218 5 view .LVU939
 218:Middlewares/lvgl/src/widgets/lv_arc.c **** 
 3058              		.loc 1 218 18 is_stmt 0 view .LVU940
 3059 0006 438D     		ldrh	r3, [r0, #42]
 218:Middlewares/lvgl/src/widgets/lv_arc.c **** 
 3060              		.loc 1 218 35 view .LVU941
 3061 0008 03F5B472 		add	r2, r3, #360
ARM GAS  /tmp/ccqOegKq.s 			page 94


 218:Middlewares/lvgl/src/widgets/lv_arc.c **** 
 3062              		.loc 1 218 7 view .LVU942
 3063 000c 9142     		cmp	r1, r2
 3064 000e 00DD     		ble	.L126
 218:Middlewares/lvgl/src/widgets/lv_arc.c **** 
 3065              		.loc 1 218 43 is_stmt 1 discriminator 1 view .LVU943
 218:Middlewares/lvgl/src/widgets/lv_arc.c **** 
 3066              		.loc 1 218 47 is_stmt 0 discriminator 1 view .LVU944
 3067 0010 94B2     		uxth	r4, r2
 3068              	.LVL370:
 3069              	.L126:
 221:Middlewares/lvgl/src/widgets/lv_arc.c ****         lv_obj_invalidate(obj);
 3070              		.loc 1 221 5 is_stmt 1 view .LVU945
 221:Middlewares/lvgl/src/widgets/lv_arc.c ****         lv_obj_invalidate(obj);
 3071              		.loc 1 221 8 is_stmt 0 view .LVU946
 3072 0012 A98D     		ldrh	r1, [r5, #44]
 3073 0014 621A     		subs	r2, r4, r1
 3074 0016 002A     		cmp	r2, #0
 3075 0018 B8BF     		it	lt
 3076 001a 5242     		rsblt	r2, r2, #0
 221:Middlewares/lvgl/src/widgets/lv_arc.c ****         lv_obj_invalidate(obj);
 3077              		.loc 1 221 7 view .LVU947
 3078 001c B32A     		cmp	r2, #179
 3079 001e 0FDC     		bgt	.L132
 225:Middlewares/lvgl/src/widgets/lv_arc.c ****         inv_arc_area(obj, LV_MIN(arc->bg_angle_end, end), LV_MAX(arc->bg_angle_end, end), LV_PART_M
 3080              		.loc 1 225 10 is_stmt 1 view .LVU948
 225:Middlewares/lvgl/src/widgets/lv_arc.c ****         inv_arc_area(obj, LV_MIN(arc->bg_angle_end, end), LV_MAX(arc->bg_angle_end, end), LV_PART_M
 3081              		.loc 1 225 12 is_stmt 0 view .LVU949
 3082 0020 8B42     		cmp	r3, r1
 3083 0022 01D2     		bcs	.L129
 225:Middlewares/lvgl/src/widgets/lv_arc.c ****         inv_arc_area(obj, LV_MIN(arc->bg_angle_end, end), LV_MAX(arc->bg_angle_end, end), LV_PART_M
 3084              		.loc 1 225 52 discriminator 1 view .LVU950
 3085 0024 A342     		cmp	r3, r4
 3086 0026 0FD3     		bcc	.L133
 3087              	.L129:
 229:Middlewares/lvgl/src/widgets/lv_arc.c ****         inv_arc_area(obj, LV_MIN(arc->bg_angle_end, end), LV_MAX(arc->bg_angle_end, end), LV_PART_M
 3088              		.loc 1 229 11 is_stmt 1 view .LVU951
 229:Middlewares/lvgl/src/widgets/lv_arc.c ****         inv_arc_area(obj, LV_MIN(arc->bg_angle_end, end), LV_MAX(arc->bg_angle_end, end), LV_PART_M
 3089              		.loc 1 229 13 is_stmt 0 view .LVU952
 3090 0028 8B42     		cmp	r3, r1
 3091 002a 01D9     		bls	.L130
 229:Middlewares/lvgl/src/widgets/lv_arc.c ****         inv_arc_area(obj, LV_MIN(arc->bg_angle_end, end), LV_MAX(arc->bg_angle_end, end), LV_PART_M
 3092              		.loc 1 229 53 discriminator 1 view .LVU953
 3093 002c A342     		cmp	r3, r4
 3094 002e 17D8     		bhi	.L134
 3095              	.L130:
 234:Middlewares/lvgl/src/widgets/lv_arc.c ****     }
 3096              		.loc 1 234 9 is_stmt 1 view .LVU954
 3097 0030 2846     		mov	r0, r5
 3098              	.LVL371:
 234:Middlewares/lvgl/src/widgets/lv_arc.c ****     }
 3099              		.loc 1 234 9 is_stmt 0 view .LVU955
 3100 0032 FFF7FEFF 		bl	lv_obj_invalidate
 3101              	.LVL372:
 3102              	.L128:
 237:Middlewares/lvgl/src/widgets/lv_arc.c **** 
 3103              		.loc 1 237 5 is_stmt 1 view .LVU956
ARM GAS  /tmp/ccqOegKq.s 			page 95


 3104 0036 2846     		mov	r0, r5
 3105 0038 FFF7FEFF 		bl	value_update
 3106              	.LVL373:
 239:Middlewares/lvgl/src/widgets/lv_arc.c **** }
 3107              		.loc 1 239 4 view .LVU957
 239:Middlewares/lvgl/src/widgets/lv_arc.c **** }
 3108              		.loc 1 239 22 is_stmt 0 view .LVU958
 3109 003c AC85     		strh	r4, [r5, #44]	@ movhi
 240:Middlewares/lvgl/src/widgets/lv_arc.c **** 
 3110              		.loc 1 240 1 view .LVU959
 3111 003e 38BD     		pop	{r3, r4, r5, pc}
 3112              	.LVL374:
 3113              	.L132:
 222:Middlewares/lvgl/src/widgets/lv_arc.c ****     }
 3114              		.loc 1 222 9 is_stmt 1 view .LVU960
 3115 0040 2846     		mov	r0, r5
 3116              	.LVL375:
 222:Middlewares/lvgl/src/widgets/lv_arc.c ****     }
 3117              		.loc 1 222 9 is_stmt 0 view .LVU961
 3118 0042 FFF7FEFF 		bl	lv_obj_invalidate
 3119              	.LVL376:
 3120 0046 F6E7     		b	.L128
 3121              	.LVL377:
 3122              	.L133:
 226:Middlewares/lvgl/src/widgets/lv_arc.c ****     }
 3123              		.loc 1 226 9 is_stmt 1 view .LVU962
 3124 0048 0023     		movs	r3, #0
 3125 004a 0A46     		mov	r2, r1
 3126 004c A142     		cmp	r1, r4
 3127 004e 38BF     		it	cc
 3128 0050 2246     		movcc	r2, r4
 3129 0052 A142     		cmp	r1, r4
 3130 0054 28BF     		it	cs
 3131 0056 2146     		movcs	r1, r4
 3132 0058 2846     		mov	r0, r5
 3133              	.LVL378:
 226:Middlewares/lvgl/src/widgets/lv_arc.c ****     }
 3134              		.loc 1 226 9 is_stmt 0 view .LVU963
 3135 005a FFF7FEFF 		bl	inv_arc_area
 3136              	.LVL379:
 3137 005e EAE7     		b	.L128
 3138              	.LVL380:
 3139              	.L134:
 230:Middlewares/lvgl/src/widgets/lv_arc.c ****     }
 3140              		.loc 1 230 9 is_stmt 1 view .LVU964
 3141 0060 0023     		movs	r3, #0
 3142 0062 0A46     		mov	r2, r1
 3143 0064 A142     		cmp	r1, r4
 3144 0066 38BF     		it	cc
 3145 0068 2246     		movcc	r2, r4
 3146 006a A142     		cmp	r1, r4
 3147 006c 28BF     		it	cs
 3148 006e 2146     		movcs	r1, r4
 3149 0070 2846     		mov	r0, r5
 3150              	.LVL381:
 230:Middlewares/lvgl/src/widgets/lv_arc.c ****     }
 3151              		.loc 1 230 9 is_stmt 0 view .LVU965
ARM GAS  /tmp/ccqOegKq.s 			page 96


 3152 0072 FFF7FEFF 		bl	inv_arc_area
 3153              	.LVL382:
 3154 0076 DEE7     		b	.L128
 3155              		.cfi_endproc
 3156              	.LFE152:
 3158              		.section	.text.lv_arc_set_bg_angles,"ax",%progbits
 3159              		.align	1
 3160              		.global	lv_arc_set_bg_angles
 3161              		.syntax unified
 3162              		.thumb
 3163              		.thumb_func
 3164              		.fpu fpv5-d16
 3166              	lv_arc_set_bg_angles:
 3167              	.LVL383:
 3168              	.LFB153:
 249:Middlewares/lvgl/src/widgets/lv_arc.c **** 
 3169              		.loc 1 249 1 is_stmt 1 view -0
 3170              		.cfi_startproc
 3171              		@ args = 0, pretend = 0, frame = 0
 3172              		@ frame_needed = 0, uses_anonymous_args = 0
 249:Middlewares/lvgl/src/widgets/lv_arc.c **** 
 3173              		.loc 1 249 1 is_stmt 0 view .LVU967
 3174 0000 70B5     		push	{r4, r5, r6, lr}
 3175              	.LCFI26:
 3176              		.cfi_def_cfa_offset 16
 3177              		.cfi_offset 4, -16
 3178              		.cfi_offset 5, -12
 3179              		.cfi_offset 6, -8
 3180              		.cfi_offset 14, -4
 3181 0002 0446     		mov	r4, r0
 3182 0004 0D46     		mov	r5, r1
 3183 0006 1646     		mov	r6, r2
 251:Middlewares/lvgl/src/widgets/lv_arc.c ****     lv_arc_t * arc = (lv_arc_t *)obj;
 3184              		.loc 1 251 5 is_stmt 1 view .LVU968
 251:Middlewares/lvgl/src/widgets/lv_arc.c ****     lv_arc_t * arc = (lv_arc_t *)obj;
 3185              		.loc 1 251 5 view .LVU969
 251:Middlewares/lvgl/src/widgets/lv_arc.c ****     lv_arc_t * arc = (lv_arc_t *)obj;
 3186              		.loc 1 251 5 view .LVU970
 252:Middlewares/lvgl/src/widgets/lv_arc.c **** 
 3187              		.loc 1 252 5 view .LVU971
 3188              	.LVL384:
 254:Middlewares/lvgl/src/widgets/lv_arc.c ****     if(end > (start + 360)) end = start + 360;
 3189              		.loc 1 254 5 view .LVU972
 254:Middlewares/lvgl/src/widgets/lv_arc.c ****     if(end > (start + 360)) end = start + 360;
 3190              		.loc 1 254 7 is_stmt 0 view .LVU973
 3191 0008 B1F5B47F 		cmp	r1, #360
 3192 000c 02D9     		bls	.L136
 254:Middlewares/lvgl/src/widgets/lv_arc.c ****     if(end > (start + 360)) end = start + 360;
 3193              		.loc 1 254 21 is_stmt 1 discriminator 1 view .LVU974
 254:Middlewares/lvgl/src/widgets/lv_arc.c ****     if(end > (start + 360)) end = start + 360;
 3194              		.loc 1 254 27 is_stmt 0 discriminator 1 view .LVU975
 3195 000e A1F5B475 		sub	r5, r1, #360
 3196 0012 ADB2     		uxth	r5, r5
 3197              	.LVL385:
 3198              	.L136:
 255:Middlewares/lvgl/src/widgets/lv_arc.c **** 
 3199              		.loc 1 255 5 is_stmt 1 view .LVU976
ARM GAS  /tmp/ccqOegKq.s 			page 97


 255:Middlewares/lvgl/src/widgets/lv_arc.c **** 
 3200              		.loc 1 255 21 is_stmt 0 view .LVU977
 3201 0014 05F5B473 		add	r3, r5, #360
 255:Middlewares/lvgl/src/widgets/lv_arc.c **** 
 3202              		.loc 1 255 7 view .LVU978
 3203 0018 9E42     		cmp	r6, r3
 3204 001a 00DD     		ble	.L137
 255:Middlewares/lvgl/src/widgets/lv_arc.c **** 
 3205              		.loc 1 255 29 is_stmt 1 discriminator 1 view .LVU979
 255:Middlewares/lvgl/src/widgets/lv_arc.c **** 
 3206              		.loc 1 255 33 is_stmt 0 discriminator 1 view .LVU980
 3207 001c 9EB2     		uxth	r6, r3
 3208              	.LVL386:
 3209              	.L137:
 257:Middlewares/lvgl/src/widgets/lv_arc.c **** 
 3210              		.loc 1 257 5 is_stmt 1 view .LVU981
 3211 001e 0023     		movs	r3, #0
 3212 0020 A28D     		ldrh	r2, [r4, #44]
 3213 0022 618D     		ldrh	r1, [r4, #42]
 3214 0024 2046     		mov	r0, r4
 3215              	.LVL387:
 257:Middlewares/lvgl/src/widgets/lv_arc.c **** 
 3216              		.loc 1 257 5 is_stmt 0 view .LVU982
 3217 0026 FFF7FEFF 		bl	inv_arc_area
 3218              	.LVL388:
 259:Middlewares/lvgl/src/widgets/lv_arc.c ****    arc->bg_angle_end = end;
 3219              		.loc 1 259 4 is_stmt 1 view .LVU983
 259:Middlewares/lvgl/src/widgets/lv_arc.c ****    arc->bg_angle_end = end;
 3220              		.loc 1 259 24 is_stmt 0 view .LVU984
 3221 002a 6585     		strh	r5, [r4, #42]	@ movhi
 260:Middlewares/lvgl/src/widgets/lv_arc.c **** 
 3222              		.loc 1 260 4 is_stmt 1 view .LVU985
 260:Middlewares/lvgl/src/widgets/lv_arc.c **** 
 3223              		.loc 1 260 22 is_stmt 0 view .LVU986
 3224 002c A685     		strh	r6, [r4, #44]	@ movhi
 262:Middlewares/lvgl/src/widgets/lv_arc.c **** 
 3225              		.loc 1 262 5 is_stmt 1 view .LVU987
 3226 002e 0023     		movs	r3, #0
 3227 0030 3246     		mov	r2, r6
 3228 0032 2946     		mov	r1, r5
 3229 0034 2046     		mov	r0, r4
 3230 0036 FFF7FEFF 		bl	inv_arc_area
 3231              	.LVL389:
 264:Middlewares/lvgl/src/widgets/lv_arc.c **** }
 3232              		.loc 1 264 5 view .LVU988
 3233 003a 2046     		mov	r0, r4
 3234 003c FFF7FEFF 		bl	value_update
 3235              	.LVL390:
 265:Middlewares/lvgl/src/widgets/lv_arc.c **** 
 3236              		.loc 1 265 1 is_stmt 0 view .LVU989
 3237 0040 70BD     		pop	{r4, r5, r6, pc}
 265:Middlewares/lvgl/src/widgets/lv_arc.c **** 
 3238              		.loc 1 265 1 view .LVU990
 3239              		.cfi_endproc
 3240              	.LFE153:
 3242              		.section	.text.lv_arc_set_rotation,"ax",%progbits
 3243              		.align	1
ARM GAS  /tmp/ccqOegKq.s 			page 98


 3244              		.global	lv_arc_set_rotation
 3245              		.syntax unified
 3246              		.thumb
 3247              		.thumb_func
 3248              		.fpu fpv5-d16
 3250              	lv_arc_set_rotation:
 3251              	.LVL391:
 3252              	.LFB154:
 273:Middlewares/lvgl/src/widgets/lv_arc.c **** 
 3253              		.loc 1 273 1 is_stmt 1 view -0
 3254              		.cfi_startproc
 3255              		@ args = 0, pretend = 0, frame = 0
 3256              		@ frame_needed = 0, uses_anonymous_args = 0
 273:Middlewares/lvgl/src/widgets/lv_arc.c **** 
 3257              		.loc 1 273 1 is_stmt 0 view .LVU992
 3258 0000 08B5     		push	{r3, lr}
 3259              	.LCFI27:
 3260              		.cfi_def_cfa_offset 8
 3261              		.cfi_offset 3, -8
 3262              		.cfi_offset 14, -4
 275:Middlewares/lvgl/src/widgets/lv_arc.c ****     lv_arc_t * arc = (lv_arc_t *)obj;
 3263              		.loc 1 275 5 is_stmt 1 view .LVU993
 275:Middlewares/lvgl/src/widgets/lv_arc.c ****     lv_arc_t * arc = (lv_arc_t *)obj;
 3264              		.loc 1 275 5 view .LVU994
 275:Middlewares/lvgl/src/widgets/lv_arc.c ****     lv_arc_t * arc = (lv_arc_t *)obj;
 3265              		.loc 1 275 5 view .LVU995
 276:Middlewares/lvgl/src/widgets/lv_arc.c **** 
 3266              		.loc 1 276 5 view .LVU996
 3267              	.LVL392:
 278:Middlewares/lvgl/src/widgets/lv_arc.c **** 
 3268              		.loc 1 278 4 view .LVU997
 278:Middlewares/lvgl/src/widgets/lv_arc.c **** 
 3269              		.loc 1 278 18 is_stmt 0 view .LVU998
 3270 0002 8184     		strh	r1, [r0, #36]	@ movhi
 280:Middlewares/lvgl/src/widgets/lv_arc.c **** }
 3271              		.loc 1 280 5 is_stmt 1 view .LVU999
 3272 0004 FFF7FEFF 		bl	lv_obj_invalidate
 3273              	.LVL393:
 281:Middlewares/lvgl/src/widgets/lv_arc.c **** 
 3274              		.loc 1 281 1 is_stmt 0 view .LVU1000
 3275 0008 08BD     		pop	{r3, pc}
 3276              		.cfi_endproc
 3277              	.LFE154:
 3279              		.section	.text.lv_arc_set_value,"ax",%progbits
 3280              		.align	1
 3281              		.global	lv_arc_set_value
 3282              		.syntax unified
 3283              		.thumb
 3284              		.thumb_func
 3285              		.fpu fpv5-d16
 3287              	lv_arc_set_value:
 3288              	.LVL394:
 3289              	.LFB156:
 323:Middlewares/lvgl/src/widgets/lv_arc.c ****     LV_ASSERT_OBJ(obj, MY_CLASS);
 3290              		.loc 1 323 1 is_stmt 1 view -0
 3291              		.cfi_startproc
 3292              		@ args = 0, pretend = 0, frame = 0
ARM GAS  /tmp/ccqOegKq.s 			page 99


 3293              		@ frame_needed = 0, uses_anonymous_args = 0
 324:Middlewares/lvgl/src/widgets/lv_arc.c ****     lv_arc_t * arc = (lv_arc_t *)obj;
 3294              		.loc 1 324 5 view .LVU1002
 324:Middlewares/lvgl/src/widgets/lv_arc.c ****     lv_arc_t * arc = (lv_arc_t *)obj;
 3295              		.loc 1 324 5 view .LVU1003
 324:Middlewares/lvgl/src/widgets/lv_arc.c ****     lv_arc_t * arc = (lv_arc_t *)obj;
 3296              		.loc 1 324 5 view .LVU1004
 325:Middlewares/lvgl/src/widgets/lv_arc.c **** 
 3297              		.loc 1 325 5 view .LVU1005
 327:Middlewares/lvgl/src/widgets/lv_arc.c **** 
 3298              		.loc 1 327 5 view .LVU1006
 327:Middlewares/lvgl/src/widgets/lv_arc.c **** 
 3299              		.loc 1 327 11 is_stmt 0 view .LVU1007
 3300 0000 B0F92E20 		ldrsh	r2, [r0, #46]
 327:Middlewares/lvgl/src/widgets/lv_arc.c **** 
 3301              		.loc 1 327 7 view .LVU1008
 3302 0004 8A42     		cmp	r2, r1
 3303 0006 10D0     		beq	.L144
 323:Middlewares/lvgl/src/widgets/lv_arc.c ****     LV_ASSERT_OBJ(obj, MY_CLASS);
 3304              		.loc 1 323 1 view .LVU1009
 3305 0008 08B5     		push	{r3, lr}
 3306              	.LCFI28:
 3307              		.cfi_def_cfa_offset 8
 3308              		.cfi_offset 3, -8
 3309              		.cfi_offset 14, -4
 329:Middlewares/lvgl/src/widgets/lv_arc.c ****     new_value = value >arc->max_value ?arc->max_value : value;
 3310              		.loc 1 329 5 is_stmt 1 view .LVU1010
 330:Middlewares/lvgl/src/widgets/lv_arc.c ****     new_value = new_value <arc->min_value ?arc->min_value : new_value;
 3311              		.loc 1 330 5 view .LVU1011
 330:Middlewares/lvgl/src/widgets/lv_arc.c ****     new_value = new_value <arc->min_value ?arc->min_value : new_value;
 3312              		.loc 1 330 27 is_stmt 0 view .LVU1012
 3313 000a B0F93230 		ldrsh	r3, [r0, #50]
 330:Middlewares/lvgl/src/widgets/lv_arc.c ****     new_value = new_value <arc->min_value ?arc->min_value : new_value;
 3314              		.loc 1 330 15 view .LVU1013
 3315 000e 8B42     		cmp	r3, r1
 3316 0010 A8BF     		it	ge
 3317 0012 0B46     		movge	r3, r1
 3318              	.LVL395:
 331:Middlewares/lvgl/src/widgets/lv_arc.c **** 
 3319              		.loc 1 331 5 is_stmt 1 view .LVU1014
 331:Middlewares/lvgl/src/widgets/lv_arc.c **** 
 3320              		.loc 1 331 31 is_stmt 0 view .LVU1015
 3321 0014 B0F93010 		ldrsh	r1, [r0, #48]
 3322              	.LVL396:
 331:Middlewares/lvgl/src/widgets/lv_arc.c **** 
 3323              		.loc 1 331 15 view .LVU1016
 3324 0018 9942     		cmp	r1, r3
 3325 001a B8BF     		it	lt
 3326 001c 1946     		movlt	r1, r3
 3327              	.LVL397:
 333:Middlewares/lvgl/src/widgets/lv_arc.c ****    arc->value = new_value;
 3328              		.loc 1 333 5 is_stmt 1 view .LVU1017
 333:Middlewares/lvgl/src/widgets/lv_arc.c ****    arc->value = new_value;
 3329              		.loc 1 333 7 is_stmt 0 view .LVU1018
 3330 001e 8A42     		cmp	r2, r1
 3331 0020 02D0     		beq	.L141
 334:Middlewares/lvgl/src/widgets/lv_arc.c **** 
ARM GAS  /tmp/ccqOegKq.s 			page 100


 3332              		.loc 1 334 4 is_stmt 1 view .LVU1019
 334:Middlewares/lvgl/src/widgets/lv_arc.c **** 
 3333              		.loc 1 334 15 is_stmt 0 view .LVU1020
 3334 0022 C185     		strh	r1, [r0, #46]	@ movhi
 336:Middlewares/lvgl/src/widgets/lv_arc.c **** }
 3335              		.loc 1 336 5 is_stmt 1 view .LVU1021
 3336 0024 FFF7FEFF 		bl	value_update
 3337              	.LVL398:
 3338              	.L141:
 337:Middlewares/lvgl/src/widgets/lv_arc.c **** 
 3339              		.loc 1 337 1 is_stmt 0 view .LVU1022
 3340 0028 08BD     		pop	{r3, pc}
 3341              	.LVL399:
 3342              	.L144:
 3343              	.LCFI29:
 3344              		.cfi_def_cfa_offset 0
 3345              		.cfi_restore 3
 3346              		.cfi_restore 14
 337:Middlewares/lvgl/src/widgets/lv_arc.c **** 
 3347              		.loc 1 337 1 view .LVU1023
 3348 002a 7047     		bx	lr
 3349              		.cfi_endproc
 3350              	.LFE156:
 3352              		.section	.text.lv_arc_set_mode,"ax",%progbits
 3353              		.align	1
 3354              		.global	lv_arc_set_mode
 3355              		.syntax unified
 3356              		.thumb
 3357              		.thumb_func
 3358              		.fpu fpv5-d16
 3360              	lv_arc_set_mode:
 3361              	.LVL400:
 3362              	.LFB155:
 289:Middlewares/lvgl/src/widgets/lv_arc.c ****     LV_ASSERT_OBJ(obj, MY_CLASS);
 3363              		.loc 1 289 1 is_stmt 1 view -0
 3364              		.cfi_startproc
 3365              		@ args = 0, pretend = 0, frame = 0
 3366              		@ frame_needed = 0, uses_anonymous_args = 0
 289:Middlewares/lvgl/src/widgets/lv_arc.c ****     LV_ASSERT_OBJ(obj, MY_CLASS);
 3367              		.loc 1 289 1 is_stmt 0 view .LVU1025
 3368 0000 70B5     		push	{r4, r5, r6, lr}
 3369              	.LCFI30:
 3370              		.cfi_def_cfa_offset 16
 3371              		.cfi_offset 4, -16
 3372              		.cfi_offset 5, -12
 3373              		.cfi_offset 6, -8
 3374              		.cfi_offset 14, -4
 3375 0002 0446     		mov	r4, r0
 290:Middlewares/lvgl/src/widgets/lv_arc.c ****     lv_arc_t * arc = (lv_arc_t *)obj;
 3376              		.loc 1 290 5 is_stmt 1 view .LVU1026
 290:Middlewares/lvgl/src/widgets/lv_arc.c ****     lv_arc_t * arc = (lv_arc_t *)obj;
 3377              		.loc 1 290 5 view .LVU1027
 290:Middlewares/lvgl/src/widgets/lv_arc.c ****     lv_arc_t * arc = (lv_arc_t *)obj;
 3378              		.loc 1 290 5 view .LVU1028
 291:Middlewares/lvgl/src/widgets/lv_arc.c **** 
 3379              		.loc 1 291 5 view .LVU1029
 3380              	.LVL401:
ARM GAS  /tmp/ccqOegKq.s 			page 101


 293:Middlewares/lvgl/src/widgets/lv_arc.c **** 
 3381              		.loc 1 293 5 view .LVU1030
 293:Middlewares/lvgl/src/widgets/lv_arc.c **** 
 3382              		.loc 1 293 13 is_stmt 0 view .LVU1031
 3383 0004 B0F92E60 		ldrsh	r6, [r0, #46]
 3384              	.LVL402:
 295:Middlewares/lvgl/src/widgets/lv_arc.c ****    arc->value = -1; /** Force set_value handling*/
 3385              		.loc 1 295 4 is_stmt 1 view .LVU1032
 295:Middlewares/lvgl/src/widgets/lv_arc.c ****    arc->value = -1; /** Force set_value handling*/
 3386              		.loc 1 295 14 is_stmt 0 view .LVU1033
 3387 0008 01F00303 		and	r3, r1, #3
 3388 000c 90F83420 		ldrb	r2, [r0, #52]	@ zero_extendqisi2
 3389 0010 63F34202 		bfi	r2, r3, #1, #2
 3390 0014 80F83420 		strb	r2, [r0, #52]
 296:Middlewares/lvgl/src/widgets/lv_arc.c **** 
 3391              		.loc 1 296 4 is_stmt 1 view .LVU1034
 296:Middlewares/lvgl/src/widgets/lv_arc.c **** 
 3392              		.loc 1 296 15 is_stmt 0 view .LVU1035
 3393 0018 4FF6FF72 		movw	r2, #65535
 3394 001c C285     		strh	r2, [r0, #46]	@ movhi
 298:Middlewares/lvgl/src/widgets/lv_arc.c ****     if(arc->bg_angle_end <arc->bg_angle_start) bg_end =arc->bg_angle_end + 360;
 3395              		.loc 1 298 5 is_stmt 1 view .LVU1036
 298:Middlewares/lvgl/src/widgets/lv_arc.c ****     if(arc->bg_angle_end <arc->bg_angle_start) bg_end =arc->bg_angle_end + 360;
 3396              		.loc 1 298 37 is_stmt 0 view .LVU1037
 3397 001e 818D     		ldrh	r1, [r0, #44]
 3398              	.LVL403:
 298:Middlewares/lvgl/src/widgets/lv_arc.c ****     if(arc->bg_angle_end <arc->bg_angle_start) bg_end =arc->bg_angle_end + 360;
 3399              		.loc 1 298 26 view .LVU1038
 3400 0020 B0F92C20 		ldrsh	r2, [r0, #44]
 3401              	.LVL404:
 299:Middlewares/lvgl/src/widgets/lv_arc.c **** 
 3402              		.loc 1 299 5 is_stmt 1 view .LVU1039
 299:Middlewares/lvgl/src/widgets/lv_arc.c **** 
 3403              		.loc 1 299 30 is_stmt 0 view .LVU1040
 3404 0024 458D     		ldrh	r5, [r0, #42]
 299:Middlewares/lvgl/src/widgets/lv_arc.c **** 
 3405              		.loc 1 299 7 view .LVU1041
 3406 0026 A942     		cmp	r1, r5
 3407 0028 02D2     		bcs	.L148
 299:Middlewares/lvgl/src/widgets/lv_arc.c **** 
 3408              		.loc 1 299 48 is_stmt 1 discriminator 1 view .LVU1042
 299:Middlewares/lvgl/src/widgets/lv_arc.c **** 
 3409              		.loc 1 299 74 is_stmt 0 discriminator 1 view .LVU1043
 3410 002a 01F5B472 		add	r2, r1, #360
 3411              	.LVL405:
 299:Middlewares/lvgl/src/widgets/lv_arc.c **** 
 3412              		.loc 1 299 55 discriminator 1 view .LVU1044
 3413 002e 12B2     		sxth	r2, r2
 3414              	.LVL406:
 3415              	.L148:
 301:Middlewares/lvgl/src/widgets/lv_arc.c ****         case LV_ARC_MODE_SYMMETRICAL:
 3416              		.loc 1 301 5 is_stmt 1 view .LVU1045
 3417 0030 012B     		cmp	r3, #1
 3418 0032 06D0     		beq	.L149
 301:Middlewares/lvgl/src/widgets/lv_arc.c ****         case LV_ARC_MODE_SYMMETRICAL:
 3419              		.loc 1 301 5 is_stmt 0 view .LVU1046
 3420 0034 022B     		cmp	r3, #2
ARM GAS  /tmp/ccqOegKq.s 			page 102


 3421 0036 17D0     		beq	.L150
 311:Middlewares/lvgl/src/widgets/lv_arc.c ****     }
 3422              		.loc 1 311 13 is_stmt 1 view .LVU1047
 3423 0038 2946     		mov	r1, r5
 3424 003a 2046     		mov	r0, r4
 3425              	.LVL407:
 311:Middlewares/lvgl/src/widgets/lv_arc.c ****     }
 3426              		.loc 1 311 13 is_stmt 0 view .LVU1048
 3427 003c FFF7FEFF 		bl	lv_arc_set_start_angle
 3428              	.LVL408:
 311:Middlewares/lvgl/src/widgets/lv_arc.c ****     }
 3429              		.loc 1 311 13 view .LVU1049
 3430 0040 0BE0     		b	.L153
 3431              	.LVL409:
 3432              	.L149:
 303:Middlewares/lvgl/src/widgets/lv_arc.c ****             lv_arc_set_start_angle(obj, bg_midpoint);
 3433              		.loc 1 303 13 is_stmt 1 view .LVU1050
 303:Middlewares/lvgl/src/widgets/lv_arc.c ****             lv_arc_set_start_angle(obj, bg_midpoint);
 3434              		.loc 1 303 58 is_stmt 0 view .LVU1051
 3435 0042 5219     		adds	r2, r2, r5
 3436              	.LVL410:
 303:Middlewares/lvgl/src/widgets/lv_arc.c ****             lv_arc_set_start_angle(obj, bg_midpoint);
 3437              		.loc 1 303 58 view .LVU1052
 3438 0044 0ED4     		bmi	.L156
 3439              	.L152:
 3440              	.LVL411:
 304:Middlewares/lvgl/src/widgets/lv_arc.c ****             lv_arc_set_end_angle(obj, bg_midpoint);
 3441              		.loc 1 304 13 is_stmt 1 view .LVU1053
 3442 0046 C2F34F05 		ubfx	r5, r2, #1, #16
 3443 004a 2946     		mov	r1, r5
 3444 004c 2046     		mov	r0, r4
 3445              	.LVL412:
 304:Middlewares/lvgl/src/widgets/lv_arc.c ****             lv_arc_set_end_angle(obj, bg_midpoint);
 3446              		.loc 1 304 13 is_stmt 0 view .LVU1054
 3447 004e FFF7FEFF 		bl	lv_arc_set_start_angle
 3448              	.LVL413:
 305:Middlewares/lvgl/src/widgets/lv_arc.c ****             break;
 3449              		.loc 1 305 13 is_stmt 1 view .LVU1055
 3450 0052 2946     		mov	r1, r5
 3451 0054 2046     		mov	r0, r4
 3452 0056 FFF7FEFF 		bl	lv_arc_set_end_angle
 3453              	.LVL414:
 306:Middlewares/lvgl/src/widgets/lv_arc.c ****         case LV_ARC_MODE_REVERSE:
 3454              		.loc 1 306 13 view .LVU1056
 3455              	.L153:
 314:Middlewares/lvgl/src/widgets/lv_arc.c **** }
 3456              		.loc 1 314 5 view .LVU1057
 3457 005a 3146     		mov	r1, r6
 3458 005c 2046     		mov	r0, r4
 3459 005e FFF7FEFF 		bl	lv_arc_set_value
 3460              	.LVL415:
 315:Middlewares/lvgl/src/widgets/lv_arc.c **** 
 3461              		.loc 1 315 1 is_stmt 0 view .LVU1058
 3462 0062 70BD     		pop	{r4, r5, r6, pc}
 3463              	.LVL416:
 3464              	.L156:
 303:Middlewares/lvgl/src/widgets/lv_arc.c ****             lv_arc_set_start_angle(obj, bg_midpoint);
ARM GAS  /tmp/ccqOegKq.s 			page 103


 3465              		.loc 1 303 58 view .LVU1059
 3466 0064 0132     		adds	r2, r2, #1
 3467 0066 EEE7     		b	.L152
 3468              	.LVL417:
 3469              	.L150:
 308:Middlewares/lvgl/src/widgets/lv_arc.c ****             break;
 3470              		.loc 1 308 13 is_stmt 1 view .LVU1060
 3471 0068 2046     		mov	r0, r4
 3472              	.LVL418:
 308:Middlewares/lvgl/src/widgets/lv_arc.c ****             break;
 3473              		.loc 1 308 13 is_stmt 0 view .LVU1061
 3474 006a FFF7FEFF 		bl	lv_arc_set_end_angle
 3475              	.LVL419:
 309:Middlewares/lvgl/src/widgets/lv_arc.c ****         default: /** LV_ARC_TYPE_NORMAL*/
 3476              		.loc 1 309 13 is_stmt 1 view .LVU1062
 3477 006e F4E7     		b	.L153
 3478              		.cfi_endproc
 3479              	.LFE155:
 3481              		.section	.text.lv_arc_set_range,"ax",%progbits
 3482              		.align	1
 3483              		.global	lv_arc_set_range
 3484              		.syntax unified
 3485              		.thumb
 3486              		.thumb_func
 3487              		.fpu fpv5-d16
 3489              	lv_arc_set_range:
 3490              	.LVL420:
 3491              	.LFB157:
 346:Middlewares/lvgl/src/widgets/lv_arc.c ****     LV_ASSERT_OBJ(obj, MY_CLASS);
 3492              		.loc 1 346 1 view -0
 3493              		.cfi_startproc
 3494              		@ args = 0, pretend = 0, frame = 0
 3495              		@ frame_needed = 0, uses_anonymous_args = 0
 346:Middlewares/lvgl/src/widgets/lv_arc.c ****     LV_ASSERT_OBJ(obj, MY_CLASS);
 3496              		.loc 1 346 1 is_stmt 0 view .LVU1064
 3497 0000 08B5     		push	{r3, lr}
 3498              	.LCFI31:
 3499              		.cfi_def_cfa_offset 8
 3500              		.cfi_offset 3, -8
 3501              		.cfi_offset 14, -4
 347:Middlewares/lvgl/src/widgets/lv_arc.c ****     lv_arc_t * arc = (lv_arc_t *)obj;
 3502              		.loc 1 347 5 is_stmt 1 view .LVU1065
 347:Middlewares/lvgl/src/widgets/lv_arc.c ****     lv_arc_t * arc = (lv_arc_t *)obj;
 3503              		.loc 1 347 5 view .LVU1066
 347:Middlewares/lvgl/src/widgets/lv_arc.c ****     lv_arc_t * arc = (lv_arc_t *)obj;
 3504              		.loc 1 347 5 view .LVU1067
 348:Middlewares/lvgl/src/widgets/lv_arc.c **** 
 3505              		.loc 1 348 5 view .LVU1068
 3506              	.LVL421:
 350:Middlewares/lvgl/src/widgets/lv_arc.c **** 
 3507              		.loc 1 350 5 view .LVU1069
 350:Middlewares/lvgl/src/widgets/lv_arc.c **** 
 3508              		.loc 1 350 11 is_stmt 0 view .LVU1070
 3509 0002 B0F93030 		ldrsh	r3, [r0, #48]
 350:Middlewares/lvgl/src/widgets/lv_arc.c **** 
 3510              		.loc 1 350 7 view .LVU1071
 3511 0006 8B42     		cmp	r3, r1
ARM GAS  /tmp/ccqOegKq.s 			page 104


 3512 0008 0ED0     		beq	.L163
 3513              	.L158:
 352:Middlewares/lvgl/src/widgets/lv_arc.c ****    arc->max_value = max;
 3514              		.loc 1 352 4 is_stmt 1 view .LVU1072
 352:Middlewares/lvgl/src/widgets/lv_arc.c ****    arc->max_value = max;
 3515              		.loc 1 352 19 is_stmt 0 view .LVU1073
 3516 000a 0186     		strh	r1, [r0, #48]	@ movhi
 353:Middlewares/lvgl/src/widgets/lv_arc.c **** 
 3517              		.loc 1 353 4 is_stmt 1 view .LVU1074
 353:Middlewares/lvgl/src/widgets/lv_arc.c **** 
 3518              		.loc 1 353 19 is_stmt 0 view .LVU1075
 3519 000c 4286     		strh	r2, [r0, #50]	@ movhi
 355:Middlewares/lvgl/src/widgets/lv_arc.c ****        arc->value = min;
 3520              		.loc 1 355 5 is_stmt 1 view .LVU1076
 355:Middlewares/lvgl/src/widgets/lv_arc.c ****        arc->value = min;
 3521              		.loc 1 355 11 is_stmt 0 view .LVU1077
 3522 000e B0F92E30 		ldrsh	r3, [r0, #46]
 355:Middlewares/lvgl/src/widgets/lv_arc.c ****        arc->value = min;
 3523              		.loc 1 355 7 view .LVU1078
 3524 0012 8B42     		cmp	r3, r1
 3525 0014 00DA     		bge	.L160
 356:Middlewares/lvgl/src/widgets/lv_arc.c ****     }
 3526              		.loc 1 356 8 is_stmt 1 view .LVU1079
 356:Middlewares/lvgl/src/widgets/lv_arc.c ****     }
 3527              		.loc 1 356 19 is_stmt 0 view .LVU1080
 3528 0016 C185     		strh	r1, [r0, #46]	@ movhi
 3529              	.L160:
 358:Middlewares/lvgl/src/widgets/lv_arc.c ****        arc->value = max;
 3530              		.loc 1 358 5 is_stmt 1 view .LVU1081
 358:Middlewares/lvgl/src/widgets/lv_arc.c ****        arc->value = max;
 3531              		.loc 1 358 11 is_stmt 0 view .LVU1082
 3532 0018 B0F92E30 		ldrsh	r3, [r0, #46]
 358:Middlewares/lvgl/src/widgets/lv_arc.c ****        arc->value = max;
 3533              		.loc 1 358 7 view .LVU1083
 3534 001c 9342     		cmp	r3, r2
 3535 001e 00DD     		ble	.L161
 359:Middlewares/lvgl/src/widgets/lv_arc.c ****     }
 3536              		.loc 1 359 8 is_stmt 1 view .LVU1084
 359:Middlewares/lvgl/src/widgets/lv_arc.c ****     }
 3537              		.loc 1 359 19 is_stmt 0 view .LVU1085
 3538 0020 C285     		strh	r2, [r0, #46]	@ movhi
 3539              	.L161:
 362:Middlewares/lvgl/src/widgets/lv_arc.c **** }
 3540              		.loc 1 362 5 is_stmt 1 view .LVU1086
 3541 0022 FFF7FEFF 		bl	value_update
 3542              	.LVL422:
 3543              	.L157:
 363:Middlewares/lvgl/src/widgets/lv_arc.c **** 
 3544              		.loc 1 363 1 is_stmt 0 view .LVU1087
 3545 0026 08BD     		pop	{r3, pc}
 3546              	.LVL423:
 3547              	.L163:
 350:Middlewares/lvgl/src/widgets/lv_arc.c **** 
 3548              		.loc 1 350 35 discriminator 1 view .LVU1088
 3549 0028 B0F93230 		ldrsh	r3, [r0, #50]
 350:Middlewares/lvgl/src/widgets/lv_arc.c **** 
 3550              		.loc 1 350 30 discriminator 1 view .LVU1089
ARM GAS  /tmp/ccqOegKq.s 			page 105


 3551 002c 9342     		cmp	r3, r2
 3552 002e ECD1     		bne	.L158
 3553 0030 F9E7     		b	.L157
 3554              		.cfi_endproc
 3555              	.LFE157:
 3557              		.section	.text.lv_arc_set_change_rate,"ax",%progbits
 3558              		.align	1
 3559              		.global	lv_arc_set_change_rate
 3560              		.syntax unified
 3561              		.thumb
 3562              		.thumb_func
 3563              		.fpu fpv5-d16
 3565              	lv_arc_set_change_rate:
 3566              	.LVL424:
 3567              	.LFB158:
 372:Middlewares/lvgl/src/widgets/lv_arc.c ****     LV_ASSERT_OBJ(obj, MY_CLASS);
 3568              		.loc 1 372 1 is_stmt 1 view -0
 3569              		.cfi_startproc
 3570              		@ args = 0, pretend = 0, frame = 0
 3571              		@ frame_needed = 0, uses_anonymous_args = 0
 3572              		@ link register save eliminated.
 373:Middlewares/lvgl/src/widgets/lv_arc.c ****     lv_arc_t * arc = (lv_arc_t *)obj;
 3573              		.loc 1 373 5 view .LVU1091
 373:Middlewares/lvgl/src/widgets/lv_arc.c ****     lv_arc_t * arc = (lv_arc_t *)obj;
 3574              		.loc 1 373 5 view .LVU1092
 373:Middlewares/lvgl/src/widgets/lv_arc.c ****     lv_arc_t * arc = (lv_arc_t *)obj;
 3575              		.loc 1 373 5 view .LVU1093
 374:Middlewares/lvgl/src/widgets/lv_arc.c **** 
 3576              		.loc 1 374 5 view .LVU1094
 376:Middlewares/lvgl/src/widgets/lv_arc.c **** }
 3577              		.loc 1 376 4 view .LVU1095
 376:Middlewares/lvgl/src/widgets/lv_arc.c **** }
 3578              		.loc 1 376 18 is_stmt 0 view .LVU1096
 3579 0000 C186     		strh	r1, [r0, #54]	@ movhi
 377:Middlewares/lvgl/src/widgets/lv_arc.c **** 
 3580              		.loc 1 377 1 view .LVU1097
 3581 0002 7047     		bx	lr
 3582              		.cfi_endproc
 3583              	.LFE158:
 3585              		.section	.text.lv_arc_get_angle_start,"ax",%progbits
 3586              		.align	1
 3587              		.global	lv_arc_get_angle_start
 3588              		.syntax unified
 3589              		.thumb
 3590              		.thumb_func
 3591              		.fpu fpv5-d16
 3593              	lv_arc_get_angle_start:
 3594              	.LVL425:
 3595              	.LFB159:
 389:Middlewares/lvgl/src/widgets/lv_arc.c ****     LV_ASSERT_OBJ(obj, MY_CLASS);
 3596              		.loc 1 389 1 is_stmt 1 view -0
 3597              		.cfi_startproc
 3598              		@ args = 0, pretend = 0, frame = 0
 3599              		@ frame_needed = 0, uses_anonymous_args = 0
 3600              		@ link register save eliminated.
 390:Middlewares/lvgl/src/widgets/lv_arc.c ****     return ((lv_arc_t*) obj)->indic_angle_start;
 3601              		.loc 1 390 5 view .LVU1099
ARM GAS  /tmp/ccqOegKq.s 			page 106


 390:Middlewares/lvgl/src/widgets/lv_arc.c ****     return ((lv_arc_t*) obj)->indic_angle_start;
 3602              		.loc 1 390 5 view .LVU1100
 390:Middlewares/lvgl/src/widgets/lv_arc.c ****     return ((lv_arc_t*) obj)->indic_angle_start;
 3603              		.loc 1 390 5 view .LVU1101
 391:Middlewares/lvgl/src/widgets/lv_arc.c **** }
 3604              		.loc 1 391 5 view .LVU1102
 392:Middlewares/lvgl/src/widgets/lv_arc.c **** 
 3605              		.loc 1 392 1 is_stmt 0 view .LVU1103
 3606 0000 C08C     		ldrh	r0, [r0, #38]
 3607              	.LVL426:
 392:Middlewares/lvgl/src/widgets/lv_arc.c **** 
 3608              		.loc 1 392 1 view .LVU1104
 3609 0002 7047     		bx	lr
 3610              		.cfi_endproc
 3611              	.LFE159:
 3613              		.section	.text.lv_arc_get_angle_end,"ax",%progbits
 3614              		.align	1
 3615              		.global	lv_arc_get_angle_end
 3616              		.syntax unified
 3617              		.thumb
 3618              		.thumb_func
 3619              		.fpu fpv5-d16
 3621              	lv_arc_get_angle_end:
 3622              	.LVL427:
 3623              	.LFB160:
 400:Middlewares/lvgl/src/widgets/lv_arc.c ****     LV_ASSERT_OBJ(obj, MY_CLASS);
 3624              		.loc 1 400 1 is_stmt 1 view -0
 3625              		.cfi_startproc
 3626              		@ args = 0, pretend = 0, frame = 0
 3627              		@ frame_needed = 0, uses_anonymous_args = 0
 3628              		@ link register save eliminated.
 401:Middlewares/lvgl/src/widgets/lv_arc.c ****     return ((lv_arc_t*) obj)->indic_angle_end;
 3629              		.loc 1 401 5 view .LVU1106
 401:Middlewares/lvgl/src/widgets/lv_arc.c ****     return ((lv_arc_t*) obj)->indic_angle_end;
 3630              		.loc 1 401 5 view .LVU1107
 401:Middlewares/lvgl/src/widgets/lv_arc.c ****     return ((lv_arc_t*) obj)->indic_angle_end;
 3631              		.loc 1 401 5 view .LVU1108
 402:Middlewares/lvgl/src/widgets/lv_arc.c **** }
 3632              		.loc 1 402 5 view .LVU1109
 403:Middlewares/lvgl/src/widgets/lv_arc.c **** 
 3633              		.loc 1 403 1 is_stmt 0 view .LVU1110
 3634 0000 008D     		ldrh	r0, [r0, #40]
 3635              	.LVL428:
 403:Middlewares/lvgl/src/widgets/lv_arc.c **** 
 3636              		.loc 1 403 1 view .LVU1111
 3637 0002 7047     		bx	lr
 3638              		.cfi_endproc
 3639              	.LFE160:
 3641              		.section	.text.lv_arc_get_bg_angle_start,"ax",%progbits
 3642              		.align	1
 3643              		.global	lv_arc_get_bg_angle_start
 3644              		.syntax unified
 3645              		.thumb
 3646              		.thumb_func
 3647              		.fpu fpv5-d16
 3649              	lv_arc_get_bg_angle_start:
 3650              	.LVL429:
ARM GAS  /tmp/ccqOegKq.s 			page 107


 3651              	.LFB161:
 411:Middlewares/lvgl/src/widgets/lv_arc.c ****     LV_ASSERT_OBJ(obj, MY_CLASS);
 3652              		.loc 1 411 1 is_stmt 1 view -0
 3653              		.cfi_startproc
 3654              		@ args = 0, pretend = 0, frame = 0
 3655              		@ frame_needed = 0, uses_anonymous_args = 0
 3656              		@ link register save eliminated.
 412:Middlewares/lvgl/src/widgets/lv_arc.c ****     return ((lv_arc_t*) obj)->bg_angle_start;
 3657              		.loc 1 412 5 view .LVU1113
 412:Middlewares/lvgl/src/widgets/lv_arc.c ****     return ((lv_arc_t*) obj)->bg_angle_start;
 3658              		.loc 1 412 5 view .LVU1114
 412:Middlewares/lvgl/src/widgets/lv_arc.c ****     return ((lv_arc_t*) obj)->bg_angle_start;
 3659              		.loc 1 412 5 view .LVU1115
 413:Middlewares/lvgl/src/widgets/lv_arc.c **** }
 3660              		.loc 1 413 5 view .LVU1116
 414:Middlewares/lvgl/src/widgets/lv_arc.c **** 
 3661              		.loc 1 414 1 is_stmt 0 view .LVU1117
 3662 0000 408D     		ldrh	r0, [r0, #42]
 3663              	.LVL430:
 414:Middlewares/lvgl/src/widgets/lv_arc.c **** 
 3664              		.loc 1 414 1 view .LVU1118
 3665 0002 7047     		bx	lr
 3666              		.cfi_endproc
 3667              	.LFE161:
 3669              		.section	.text.lv_arc_get_bg_angle_end,"ax",%progbits
 3670              		.align	1
 3671              		.global	lv_arc_get_bg_angle_end
 3672              		.syntax unified
 3673              		.thumb
 3674              		.thumb_func
 3675              		.fpu fpv5-d16
 3677              	lv_arc_get_bg_angle_end:
 3678              	.LVL431:
 3679              	.LFB162:
 422:Middlewares/lvgl/src/widgets/lv_arc.c ****     LV_ASSERT_OBJ(obj, MY_CLASS);
 3680              		.loc 1 422 1 is_stmt 1 view -0
 3681              		.cfi_startproc
 3682              		@ args = 0, pretend = 0, frame = 0
 3683              		@ frame_needed = 0, uses_anonymous_args = 0
 3684              		@ link register save eliminated.
 423:Middlewares/lvgl/src/widgets/lv_arc.c ****     return ((lv_arc_t*) obj)->bg_angle_end;
 3685              		.loc 1 423 5 view .LVU1120
 423:Middlewares/lvgl/src/widgets/lv_arc.c ****     return ((lv_arc_t*) obj)->bg_angle_end;
 3686              		.loc 1 423 5 view .LVU1121
 423:Middlewares/lvgl/src/widgets/lv_arc.c ****     return ((lv_arc_t*) obj)->bg_angle_end;
 3687              		.loc 1 423 5 view .LVU1122
 424:Middlewares/lvgl/src/widgets/lv_arc.c **** }
 3688              		.loc 1 424 5 view .LVU1123
 425:Middlewares/lvgl/src/widgets/lv_arc.c **** 
 3689              		.loc 1 425 1 is_stmt 0 view .LVU1124
 3690 0000 808D     		ldrh	r0, [r0, #44]
 3691              	.LVL432:
 425:Middlewares/lvgl/src/widgets/lv_arc.c **** 
 3692              		.loc 1 425 1 view .LVU1125
 3693 0002 7047     		bx	lr
 3694              		.cfi_endproc
 3695              	.LFE162:
ARM GAS  /tmp/ccqOegKq.s 			page 108


 3697              		.section	.text.lv_arc_get_value,"ax",%progbits
 3698              		.align	1
 3699              		.global	lv_arc_get_value
 3700              		.syntax unified
 3701              		.thumb
 3702              		.thumb_func
 3703              		.fpu fpv5-d16
 3705              	lv_arc_get_value:
 3706              	.LVL433:
 3707              	.LFB163:
 434:Middlewares/lvgl/src/widgets/lv_arc.c ****     LV_ASSERT_OBJ(obj, MY_CLASS);
 3708              		.loc 1 434 1 is_stmt 1 view -0
 3709              		.cfi_startproc
 3710              		@ args = 0, pretend = 0, frame = 0
 3711              		@ frame_needed = 0, uses_anonymous_args = 0
 3712              		@ link register save eliminated.
 435:Middlewares/lvgl/src/widgets/lv_arc.c ****     return ((lv_arc_t*) obj)->value;
 3713              		.loc 1 435 5 view .LVU1127
 435:Middlewares/lvgl/src/widgets/lv_arc.c ****     return ((lv_arc_t*) obj)->value;
 3714              		.loc 1 435 5 view .LVU1128
 435:Middlewares/lvgl/src/widgets/lv_arc.c ****     return ((lv_arc_t*) obj)->value;
 3715              		.loc 1 435 5 view .LVU1129
 436:Middlewares/lvgl/src/widgets/lv_arc.c **** }
 3716              		.loc 1 436 5 view .LVU1130
 437:Middlewares/lvgl/src/widgets/lv_arc.c **** 
 3717              		.loc 1 437 1 is_stmt 0 view .LVU1131
 3718 0000 B0F92E00 		ldrsh	r0, [r0, #46]
 3719              	.LVL434:
 437:Middlewares/lvgl/src/widgets/lv_arc.c **** 
 3720              		.loc 1 437 1 view .LVU1132
 3721 0004 7047     		bx	lr
 3722              		.cfi_endproc
 3723              	.LFE163:
 3725              		.section	.text.lv_arc_event,"ax",%progbits
 3726              		.align	1
 3727              		.syntax unified
 3728              		.thumb
 3729              		.thumb_func
 3730              		.fpu fpv5-d16
 3732              	lv_arc_event:
 3733              	.LVL435:
 3734              	.LFB168:
 515:Middlewares/lvgl/src/widgets/lv_arc.c ****     LV_UNUSED(class_p);
 3735              		.loc 1 515 1 is_stmt 1 view -0
 3736              		.cfi_startproc
 3737              		@ args = 0, pretend = 0, frame = 16
 3738              		@ frame_needed = 0, uses_anonymous_args = 0
 515:Middlewares/lvgl/src/widgets/lv_arc.c ****     LV_UNUSED(class_p);
 3739              		.loc 1 515 1 is_stmt 0 view .LVU1134
 3740 0000 2DE9F043 		push	{r4, r5, r6, r7, r8, r9, lr}
 3741              	.LCFI32:
 3742              		.cfi_def_cfa_offset 28
 3743              		.cfi_offset 4, -28
 3744              		.cfi_offset 5, -24
 3745              		.cfi_offset 6, -20
 3746              		.cfi_offset 7, -16
 3747              		.cfi_offset 8, -12
ARM GAS  /tmp/ccqOegKq.s 			page 109


 3748              		.cfi_offset 9, -8
 3749              		.cfi_offset 14, -4
 3750 0004 87B0     		sub	sp, sp, #28
 3751              	.LCFI33:
 3752              		.cfi_def_cfa_offset 56
 3753 0006 0C46     		mov	r4, r1
 516:Middlewares/lvgl/src/widgets/lv_arc.c **** 
 3754              		.loc 1 516 5 is_stmt 1 view .LVU1135
 518:Middlewares/lvgl/src/widgets/lv_arc.c **** 
 3755              		.loc 1 518 5 view .LVU1136
 521:Middlewares/lvgl/src/widgets/lv_arc.c ****     if(res != LV_RES_OK) return;
 3756              		.loc 1 521 5 view .LVU1137
 521:Middlewares/lvgl/src/widgets/lv_arc.c ****     if(res != LV_RES_OK) return;
 3757              		.loc 1 521 11 is_stmt 0 view .LVU1138
 3758 0008 B848     		ldr	r0, .L206
 3759              	.LVL436:
 521:Middlewares/lvgl/src/widgets/lv_arc.c ****     if(res != LV_RES_OK) return;
 3760              		.loc 1 521 11 view .LVU1139
 3761 000a FFF7FEFF 		bl	lv_obj_event_base
 3762              	.LVL437:
 522:Middlewares/lvgl/src/widgets/lv_arc.c **** 
 3763              		.loc 1 522 5 is_stmt 1 view .LVU1140
 522:Middlewares/lvgl/src/widgets/lv_arc.c **** 
 3764              		.loc 1 522 7 is_stmt 0 view .LVU1141
 3765 000e 0128     		cmp	r0, #1
 3766 0010 02D0     		beq	.L194
 3767              	.LVL438:
 3768              	.L170:
 677:Middlewares/lvgl/src/widgets/lv_arc.c **** 
 3769              		.loc 1 677 1 view .LVU1142
 3770 0012 07B0     		add	sp, sp, #28
 3771              	.LCFI34:
 3772              		.cfi_remember_state
 3773              		.cfi_def_cfa_offset 28
 3774              		@ sp needed
 3775 0014 BDE8F083 		pop	{r4, r5, r6, r7, r8, r9, pc}
 3776              	.LVL439:
 3777              	.L194:
 3778              	.LCFI35:
 3779              		.cfi_restore_state
 524:Middlewares/lvgl/src/widgets/lv_arc.c ****     lv_obj_t * obj = lv_event_get_target(e);
 3780              		.loc 1 524 5 is_stmt 1 view .LVU1143
 524:Middlewares/lvgl/src/widgets/lv_arc.c ****     lv_obj_t * obj = lv_event_get_target(e);
 3781              		.loc 1 524 28 is_stmt 0 view .LVU1144
 3782 0018 2046     		mov	r0, r4
 3783              	.LVL440:
 524:Middlewares/lvgl/src/widgets/lv_arc.c ****     lv_obj_t * obj = lv_event_get_target(e);
 3784              		.loc 1 524 28 view .LVU1145
 3785 001a FFF7FEFF 		bl	lv_event_get_code
 3786              	.LVL441:
 3787 001e 0546     		mov	r5, r0
 3788              	.LVL442:
 525:Middlewares/lvgl/src/widgets/lv_arc.c ****     lv_arc_t * arc = (lv_arc_t *)lv_event_get_target(e);
 3789              		.loc 1 525 5 is_stmt 1 view .LVU1146
 525:Middlewares/lvgl/src/widgets/lv_arc.c ****     lv_arc_t * arc = (lv_arc_t *)lv_event_get_target(e);
 3790              		.loc 1 525 22 is_stmt 0 view .LVU1147
 3791 0020 2046     		mov	r0, r4
ARM GAS  /tmp/ccqOegKq.s 			page 110


 3792 0022 FFF7FEFF 		bl	lv_event_get_target
 3793              	.LVL443:
 3794 0026 0746     		mov	r7, r0
 3795              	.LVL444:
 526:Middlewares/lvgl/src/widgets/lv_arc.c ****     if(code == LV_EVENT_PRESSING) {
 3796              		.loc 1 526 5 is_stmt 1 view .LVU1148
 526:Middlewares/lvgl/src/widgets/lv_arc.c ****     if(code == LV_EVENT_PRESSING) {
 3797              		.loc 1 526 34 is_stmt 0 view .LVU1149
 3798 0028 2046     		mov	r0, r4
 3799              	.LVL445:
 526:Middlewares/lvgl/src/widgets/lv_arc.c ****     if(code == LV_EVENT_PRESSING) {
 3800              		.loc 1 526 34 view .LVU1150
 3801 002a FFF7FEFF 		bl	lv_event_get_target
 3802              	.LVL446:
 3803 002e 0646     		mov	r6, r0
 3804              	.LVL447:
 527:Middlewares/lvgl/src/widgets/lv_arc.c ****         lv_indev_t * indev = lv_indev_get_act();
 3805              		.loc 1 527 5 is_stmt 1 view .LVU1151
 527:Middlewares/lvgl/src/widgets/lv_arc.c ****         lv_indev_t * indev = lv_indev_get_act();
 3806              		.loc 1 527 7 is_stmt 0 view .LVU1152
 3807 0030 022D     		cmp	r5, #2
 3808 0032 10D0     		beq	.L195
 631:Middlewares/lvgl/src/widgets/lv_arc.c ****        arc->dragging = false;
 3809              		.loc 1 631 10 is_stmt 1 view .LVU1153
 631:Middlewares/lvgl/src/widgets/lv_arc.c ****        arc->dragging = false;
 3810              		.loc 1 631 12 is_stmt 0 view .LVU1154
 3811 0034 032D     		cmp	r5, #3
 3812 0036 18BF     		it	ne
 3813 0038 082D     		cmpne	r5, #8
 3814 003a 00F00E81 		beq	.L196
 643:Middlewares/lvgl/src/widgets/lv_arc.c ****         char c = *((char *)lv_event_get_param(e));
 3815              		.loc 1 643 10 is_stmt 1 view .LVU1155
 643:Middlewares/lvgl/src/widgets/lv_arc.c ****         char c = *((char *)lv_event_get_param(e));
 3816              		.loc 1 643 12 is_stmt 0 view .LVU1156
 3817 003e 0D2D     		cmp	r5, #13
 3818 0040 00F02781 		beq	.L197
 659:Middlewares/lvgl/src/widgets/lv_arc.c ****         lv_coord_t bg_left = lv_obj_get_style_pad_left(obj, LV_PART_MAIN);
 3819              		.loc 1 659 10 is_stmt 1 view .LVU1157
 659:Middlewares/lvgl/src/widgets/lv_arc.c ****         lv_coord_t bg_left = lv_obj_get_style_pad_left(obj, LV_PART_MAIN);
 3820              		.loc 1 659 12 is_stmt 0 view .LVU1158
 3821 0044 132D     		cmp	r5, #19
 3822 0046 00F05581 		beq	.L198
 674:Middlewares/lvgl/src/widgets/lv_arc.c ****         lv_arc_draw(e);
 3823              		.loc 1 674 12 is_stmt 1 view .LVU1159
 674:Middlewares/lvgl/src/widgets/lv_arc.c ****         lv_arc_draw(e);
 3824              		.loc 1 674 14 is_stmt 0 view .LVU1160
 3825 004a 152D     		cmp	r5, #21
 3826 004c E1D1     		bne	.L170
 675:Middlewares/lvgl/src/widgets/lv_arc.c ****     }
 3827              		.loc 1 675 9 is_stmt 1 view .LVU1161
 3828 004e 2046     		mov	r0, r4
 3829              	.LVL448:
 675:Middlewares/lvgl/src/widgets/lv_arc.c ****     }
 3830              		.loc 1 675 9 is_stmt 0 view .LVU1162
 3831 0050 FFF7FEFF 		bl	lv_arc_draw
 3832              	.LVL449:
 3833 0054 DDE7     		b	.L170
ARM GAS  /tmp/ccqOegKq.s 			page 111


 3834              	.LVL450:
 3835              	.L195:
 3836              	.LBB126:
 528:Middlewares/lvgl/src/widgets/lv_arc.c ****         if(indev == NULL) return;
 3837              		.loc 1 528 9 is_stmt 1 view .LVU1163
 528:Middlewares/lvgl/src/widgets/lv_arc.c ****         if(indev == NULL) return;
 3838              		.loc 1 528 30 is_stmt 0 view .LVU1164
 3839 0056 FFF7FEFF 		bl	lv_indev_get_act
 3840              	.LVL451:
 529:Middlewares/lvgl/src/widgets/lv_arc.c **** 
 3841              		.loc 1 529 9 is_stmt 1 view .LVU1165
 529:Middlewares/lvgl/src/widgets/lv_arc.c **** 
 3842              		.loc 1 529 11 is_stmt 0 view .LVU1166
 3843 005a 0446     		mov	r4, r0
 3844              	.LVL452:
 529:Middlewares/lvgl/src/widgets/lv_arc.c **** 
 3845              		.loc 1 529 11 view .LVU1167
 3846 005c 0028     		cmp	r0, #0
 3847 005e D8D0     		beq	.L170
 532:Middlewares/lvgl/src/widgets/lv_arc.c ****         if(indev_type != LV_INDEV_TYPE_POINTER) return;
 3848              		.loc 1 532 9 is_stmt 1 view .LVU1168
 532:Middlewares/lvgl/src/widgets/lv_arc.c ****         if(indev_type != LV_INDEV_TYPE_POINTER) return;
 3849              		.loc 1 532 38 is_stmt 0 view .LVU1169
 3850 0060 FFF7FEFF 		bl	lv_indev_get_type
 3851              	.LVL453:
 533:Middlewares/lvgl/src/widgets/lv_arc.c **** 
 3852              		.loc 1 533 9 is_stmt 1 view .LVU1170
 533:Middlewares/lvgl/src/widgets/lv_arc.c **** 
 3853              		.loc 1 533 11 is_stmt 0 view .LVU1171
 3854 0064 0128     		cmp	r0, #1
 3855 0066 D4D1     		bne	.L170
 535:Middlewares/lvgl/src/widgets/lv_arc.c ****         lv_indev_get_point(indev, &p);
 3856              		.loc 1 535 9 is_stmt 1 view .LVU1172
 536:Middlewares/lvgl/src/widgets/lv_arc.c **** 
 3857              		.loc 1 536 9 view .LVU1173
 3858 0068 04A9     		add	r1, sp, #16
 3859 006a 2046     		mov	r0, r4
 3860              	.LVL454:
 536:Middlewares/lvgl/src/widgets/lv_arc.c **** 
 3861              		.loc 1 536 9 is_stmt 0 view .LVU1174
 3862 006c FFF7FEFF 		bl	lv_indev_get_point
 3863              	.LVL455:
 539:Middlewares/lvgl/src/widgets/lv_arc.c ****         lv_coord_t r;
 3864              		.loc 1 539 9 is_stmt 1 view .LVU1175
 540:Middlewares/lvgl/src/widgets/lv_arc.c ****         get_center(obj, &center, &r);
 3865              		.loc 1 540 9 view .LVU1176
 541:Middlewares/lvgl/src/widgets/lv_arc.c **** 
 3866              		.loc 1 541 9 view .LVU1177
 3867 0070 0DF10E02 		add	r2, sp, #14
 3868 0074 05A9     		add	r1, sp, #20
 3869 0076 3846     		mov	r0, r7
 3870 0078 FFF7FEFF 		bl	get_center
 3871              	.LVL456:
 543:Middlewares/lvgl/src/widgets/lv_arc.c ****         p.y -=  center.y;
 3872              		.loc 1 543 9 view .LVU1178
 543:Middlewares/lvgl/src/widgets/lv_arc.c ****         p.y -=  center.y;
 3873              		.loc 1 543 23 is_stmt 0 view .LVU1179
ARM GAS  /tmp/ccqOegKq.s 			page 112


 3874 007c BDF81420 		ldrh	r2, [sp, #20]
 543:Middlewares/lvgl/src/widgets/lv_arc.c ****         p.y -=  center.y;
 3875              		.loc 1 543 13 view .LVU1180
 3876 0080 BDF81030 		ldrh	r3, [sp, #16]
 3877 0084 9B1A     		subs	r3, r3, r2
 3878 0086 ADF81030 		strh	r3, [sp, #16]	@ movhi
 544:Middlewares/lvgl/src/widgets/lv_arc.c **** 
 3879              		.loc 1 544 9 is_stmt 1 view .LVU1181
 544:Middlewares/lvgl/src/widgets/lv_arc.c **** 
 3880              		.loc 1 544 23 is_stmt 0 view .LVU1182
 3881 008a BDF81620 		ldrh	r2, [sp, #22]
 544:Middlewares/lvgl/src/widgets/lv_arc.c **** 
 3882              		.loc 1 544 13 view .LVU1183
 3883 008e BDF81230 		ldrh	r3, [sp, #18]
 3884 0092 9B1A     		subs	r3, r3, r2
 3885 0094 ADF81230 		strh	r3, [sp, #18]	@ movhi
 547:Middlewares/lvgl/src/widgets/lv_arc.c ****             lv_coord_t indic_width = lv_obj_get_style_arc_width(obj, LV_PART_INDICATOR);
 3886              		.loc 1 547 9 is_stmt 1 view .LVU1184
 547:Middlewares/lvgl/src/widgets/lv_arc.c ****             lv_coord_t indic_width = lv_obj_get_style_arc_width(obj, LV_PART_INDICATOR);
 3887              		.loc 1 547 26 is_stmt 0 view .LVU1185
 3888 0098 96F83430 		ldrb	r3, [r6, #52]	@ zero_extendqisi2
 547:Middlewares/lvgl/src/widgets/lv_arc.c ****             lv_coord_t indic_width = lv_obj_get_style_arc_width(obj, LV_PART_INDICATOR);
 3889              		.loc 1 547 11 view .LVU1186
 3890 009c 13F0010F 		tst	r3, #1
 3891 00a0 7BD0     		beq	.L199
 3892              	.L174:
 558:Middlewares/lvgl/src/widgets/lv_arc.c **** 
 3893              		.loc 1 558 9 is_stmt 1 view .LVU1187
 558:Middlewares/lvgl/src/widgets/lv_arc.c **** 
 3894              		.loc 1 558 26 is_stmt 0 view .LVU1188
 3895 00a2 96F83430 		ldrb	r3, [r6, #52]	@ zero_extendqisi2
 558:Middlewares/lvgl/src/widgets/lv_arc.c **** 
 3896              		.loc 1 558 11 view .LVU1189
 3897 00a6 13F0010F 		tst	r3, #1
 3898 00aa B2D0     		beq	.L170
 561:Middlewares/lvgl/src/widgets/lv_arc.c **** 
 3899              		.loc 1 561 9 is_stmt 1 view .LVU1190
 561:Middlewares/lvgl/src/widgets/lv_arc.c **** 
 3900              		.loc 1 561 13 is_stmt 0 view .LVU1191
 3901 00ac BDF91010 		ldrsh	r1, [sp, #16]
 561:Middlewares/lvgl/src/widgets/lv_arc.c **** 
 3902              		.loc 1 561 11 view .LVU1192
 3903 00b0 19B9     		cbnz	r1, .L176
 561:Middlewares/lvgl/src/widgets/lv_arc.c **** 
 3904              		.loc 1 561 25 discriminator 1 view .LVU1193
 3905 00b2 BDF91230 		ldrsh	r3, [sp, #18]
 561:Middlewares/lvgl/src/widgets/lv_arc.c **** 
 3906              		.loc 1 561 21 discriminator 1 view .LVU1194
 3907 00b6 002B     		cmp	r3, #0
 3908 00b8 ABD0     		beq	.L170
 3909              	.L176:
 564:Middlewares/lvgl/src/widgets/lv_arc.c ****         int16_t bg_end =arc->bg_angle_end;
 3910              		.loc 1 564 9 is_stmt 1 view .LVU1195
 565:Middlewares/lvgl/src/widgets/lv_arc.c ****         if(arc->bg_angle_end <arc->bg_angle_start) {
 3911              		.loc 1 565 9 view .LVU1196
 565:Middlewares/lvgl/src/widgets/lv_arc.c ****         if(arc->bg_angle_end <arc->bg_angle_start) {
 3912              		.loc 1 565 28 is_stmt 0 view .LVU1197
ARM GAS  /tmp/ccqOegKq.s 			page 113


 3913 00ba B38D     		ldrh	r3, [r6, #44]
 565:Middlewares/lvgl/src/widgets/lv_arc.c ****         if(arc->bg_angle_end <arc->bg_angle_start) {
 3914              		.loc 1 565 17 view .LVU1198
 3915 00bc B6F92C80 		ldrsh	r8, [r6, #44]
 3916              	.LVL457:
 566:Middlewares/lvgl/src/widgets/lv_arc.c ****             bg_end =arc->bg_angle_end + 360;
 3917              		.loc 1 566 9 is_stmt 1 view .LVU1199
 566:Middlewares/lvgl/src/widgets/lv_arc.c ****             bg_end =arc->bg_angle_end + 360;
 3918              		.loc 1 566 34 is_stmt 0 view .LVU1200
 3919 00c0 728D     		ldrh	r2, [r6, #42]
 566:Middlewares/lvgl/src/widgets/lv_arc.c ****             bg_end =arc->bg_angle_end + 360;
 3920              		.loc 1 566 11 view .LVU1201
 3921 00c2 9342     		cmp	r3, r2
 3922 00c4 03D2     		bcs	.L177
 567:Middlewares/lvgl/src/widgets/lv_arc.c ****         }
 3923              		.loc 1 567 13 is_stmt 1 view .LVU1202
 567:Middlewares/lvgl/src/widgets/lv_arc.c ****         }
 3924              		.loc 1 567 39 is_stmt 0 view .LVU1203
 3925 00c6 03F5B473 		add	r3, r3, #360
 567:Middlewares/lvgl/src/widgets/lv_arc.c ****         }
 3926              		.loc 1 567 20 view .LVU1204
 3927 00ca 0FFA83F8 		sxth	r8, r3
 3928              	.LVL458:
 3929              	.L177:
 570:Middlewares/lvgl/src/widgets/lv_arc.c ****         angle -=arc->rotation;
 3930              		.loc 1 570 9 is_stmt 1 view .LVU1205
 570:Middlewares/lvgl/src/widgets/lv_arc.c ****         angle -=arc->rotation;
 3931              		.loc 1 570 17 is_stmt 0 view .LVU1206
 3932 00ce BDF91200 		ldrsh	r0, [sp, #18]
 3933 00d2 FFF7FEFF 		bl	lv_atan2
 3934              	.LVL459:
 571:Middlewares/lvgl/src/widgets/lv_arc.c ****         angle -=arc->bg_angle_start;   /*Make the angle relative to the start angle*/
 3935              		.loc 1 571 9 is_stmt 1 view .LVU1207
 571:Middlewares/lvgl/src/widgets/lv_arc.c ****         angle -=arc->bg_angle_start;   /*Make the angle relative to the start angle*/
 3936              		.loc 1 571 20 is_stmt 0 view .LVU1208
 3937 00d6 B38C     		ldrh	r3, [r6, #36]
 571:Middlewares/lvgl/src/widgets/lv_arc.c ****         angle -=arc->bg_angle_start;   /*Make the angle relative to the start angle*/
 3938              		.loc 1 571 15 view .LVU1209
 3939 00d8 C31A     		subs	r3, r0, r3
 3940 00da 9BB2     		uxth	r3, r3
 3941              	.LVL460:
 572:Middlewares/lvgl/src/widgets/lv_arc.c **** 
 3942              		.loc 1 572 9 is_stmt 1 view .LVU1210
 572:Middlewares/lvgl/src/widgets/lv_arc.c **** 
 3943              		.loc 1 572 20 is_stmt 0 view .LVU1211
 3944 00dc 728D     		ldrh	r2, [r6, #42]
 572:Middlewares/lvgl/src/widgets/lv_arc.c **** 
 3945              		.loc 1 572 15 view .LVU1212
 3946 00de 9B1A     		subs	r3, r3, r2
 3947              	.LVL461:
 572:Middlewares/lvgl/src/widgets/lv_arc.c **** 
 3948              		.loc 1 572 15 view .LVU1213
 3949 00e0 99B2     		uxth	r1, r3
 3950 00e2 1BB2     		sxth	r3, r3
 3951              	.LVL462:
 574:Middlewares/lvgl/src/widgets/lv_arc.c **** 
 3952              		.loc 1 574 9 is_stmt 1 view .LVU1214
ARM GAS  /tmp/ccqOegKq.s 			page 114


 574:Middlewares/lvgl/src/widgets/lv_arc.c **** 
 3953              		.loc 1 574 11 is_stmt 0 view .LVU1215
 3954 00e4 002B     		cmp	r3, #0
 3955 00e6 C0F28780 		blt	.L200
 3956              	.L178:
 576:Middlewares/lvgl/src/widgets/lv_arc.c **** 
 3957              		.loc 1 576 9 is_stmt 1 view .LVU1216
 576:Middlewares/lvgl/src/widgets/lv_arc.c **** 
 3958              		.loc 1 576 36 is_stmt 0 view .LVU1217
 3959 00ea A8EB0201 		sub	r1, r8, r2
 576:Middlewares/lvgl/src/widgets/lv_arc.c **** 
 3960              		.loc 1 576 17 view .LVU1218
 3961 00ee 0CB2     		sxth	r4, r1
 3962              	.LVL463:
 578:Middlewares/lvgl/src/widgets/lv_arc.c ****         int16_t delta_angle = angle - last_angle_rel;
 3963              		.loc 1 578 9 is_stmt 1 view .LVU1219
 578:Middlewares/lvgl/src/widgets/lv_arc.c ****         int16_t delta_angle = angle - last_angle_rel;
 3964              		.loc 1 578 36 is_stmt 0 view .LVU1220
 3965 00f0 B18F     		ldrh	r1, [r6, #60]
 578:Middlewares/lvgl/src/widgets/lv_arc.c ****         int16_t delta_angle = angle - last_angle_rel;
 3966              		.loc 1 578 49 view .LVU1221
 3967 00f2 8D1A     		subs	r5, r1, r2
 3968              	.LVL464:
 578:Middlewares/lvgl/src/widgets/lv_arc.c ****         int16_t delta_angle = angle - last_angle_rel;
 3969              		.loc 1 578 49 view .LVU1222
 3970 00f4 ADB2     		uxth	r5, r5
 3971              	.LVL465:
 579:Middlewares/lvgl/src/widgets/lv_arc.c **** 
 3972              		.loc 1 579 9 is_stmt 1 view .LVU1223
 3973 00f6 521A     		subs	r2, r2, r1
 3974 00f8 91B2     		uxth	r1, r2
 579:Middlewares/lvgl/src/widgets/lv_arc.c **** 
 3975              		.loc 1 579 37 is_stmt 0 view .LVU1224
 3976 00fa CA18     		adds	r2, r1, r3
 579:Middlewares/lvgl/src/widgets/lv_arc.c **** 
 3977              		.loc 1 579 17 view .LVU1225
 3978 00fc 12B2     		sxth	r2, r2
 3979              	.LVL466:
 584:Middlewares/lvgl/src/widgets/lv_arc.c ****             if(arc->min_close) angle = 0;
 3980              		.loc 1 584 9 is_stmt 1 view .LVU1226
 584:Middlewares/lvgl/src/widgets/lv_arc.c ****             if(arc->min_close) angle = 0;
 3981              		.loc 1 584 12 is_stmt 0 view .LVU1227
 3982 00fe 002A     		cmp	r2, #0
 3983 0100 B8BF     		it	lt
 3984 0102 5242     		rsblt	r2, r2, #0
 3985              	.LVL467:
 584:Middlewares/lvgl/src/widgets/lv_arc.c ****             if(arc->min_close) angle = 0;
 3986              		.loc 1 584 12 view .LVU1228
 3987 0104 92B2     		uxth	r2, r2
 584:Middlewares/lvgl/src/widgets/lv_arc.c ****             if(arc->min_close) angle = 0;
 3988              		.loc 1 584 11 view .LVU1229
 3989 0106 B2F58C7F 		cmp	r2, #280
 3990 010a 79D9     		bls	.L179
 585:Middlewares/lvgl/src/widgets/lv_arc.c ****             else angle = deg_range;
 3991              		.loc 1 585 13 is_stmt 1 view .LVU1230
 585:Middlewares/lvgl/src/widgets/lv_arc.c ****             else angle = deg_range;
 3992              		.loc 1 585 16 is_stmt 0 view .LVU1231
ARM GAS  /tmp/ccqOegKq.s 			page 115


 3993 010c 96F83430 		ldrb	r3, [r6, #52]	@ zero_extendqisi2
 3994              	.LVL468:
 585:Middlewares/lvgl/src/widgets/lv_arc.c ****             else angle = deg_range;
 3995              		.loc 1 585 15 view .LVU1232
 3996 0110 13F0080F 		tst	r3, #8
 3997 0114 00D0     		beq	.L180
 585:Middlewares/lvgl/src/widgets/lv_arc.c ****             else angle = deg_range;
 3998              		.loc 1 585 38 view .LVU1233
 3999 0116 0024     		movs	r4, #0
 4000              	.LVL469:
 4001              	.L180:
 594:Middlewares/lvgl/src/widgets/lv_arc.c ****         uint32_t delta_tick = lv_tick_elaps(arc->last_tick);
 4002              		.loc 1 594 9 is_stmt 1 view .LVU1234
 594:Middlewares/lvgl/src/widgets/lv_arc.c ****         uint32_t delta_tick = lv_tick_elaps(arc->last_tick);
 4003              		.loc 1 594 29 is_stmt 0 view .LVU1235
 4004 0118 2144     		add	r1, r1, r4
 594:Middlewares/lvgl/src/widgets/lv_arc.c ****         uint32_t delta_tick = lv_tick_elaps(arc->last_tick);
 4005              		.loc 1 594 21 view .LVU1236
 4006 011a 0CB2     		sxth	r4, r1
 4007              	.LVL470:
 595:Middlewares/lvgl/src/widgets/lv_arc.c ****         int16_t delta_angle_max = (arc->chg_rate * delta_tick) / 1000;
 4008              		.loc 1 595 9 is_stmt 1 view .LVU1237
 595:Middlewares/lvgl/src/widgets/lv_arc.c ****         int16_t delta_angle_max = (arc->chg_rate * delta_tick) / 1000;
 4009              		.loc 1 595 31 is_stmt 0 view .LVU1238
 4010 011c B06B     		ldr	r0, [r6, #56]
 4011 011e FFF7FEFF 		bl	lv_tick_elaps
 4012              	.LVL471:
 596:Middlewares/lvgl/src/widgets/lv_arc.c **** 
 4013              		.loc 1 596 9 is_stmt 1 view .LVU1239
 596:Middlewares/lvgl/src/widgets/lv_arc.c **** 
 4014              		.loc 1 596 39 is_stmt 0 view .LVU1240
 4015 0122 F38E     		ldrh	r3, [r6, #54]
 596:Middlewares/lvgl/src/widgets/lv_arc.c **** 
 4016              		.loc 1 596 50 view .LVU1241
 4017 0124 00FB03F3 		mul	r3, r0, r3
 596:Middlewares/lvgl/src/widgets/lv_arc.c **** 
 4018              		.loc 1 596 64 view .LVU1242
 4019 0128 714A     		ldr	r2, .L206+4
 4020 012a A2FB0323 		umull	r2, r3, r2, r3
 4021 012e 9A09     		lsrs	r2, r3, #6
 596:Middlewares/lvgl/src/widgets/lv_arc.c **** 
 4022              		.loc 1 596 17 view .LVU1243
 4023 0130 43F38F13 		sbfx	r3, r3, #6, #16
 4024              	.LVL472:
 598:Middlewares/lvgl/src/widgets/lv_arc.c ****             delta_angle = delta_angle_max;
 4025              		.loc 1 598 9 is_stmt 1 view .LVU1244
 598:Middlewares/lvgl/src/widgets/lv_arc.c ****             delta_angle = delta_angle_max;
 4026              		.loc 1 598 11 is_stmt 0 view .LVU1245
 4027 0134 9C42     		cmp	r4, r3
 4028 0136 04DC     		bgt	.L183
 601:Middlewares/lvgl/src/widgets/lv_arc.c ****             delta_angle = -delta_angle_max;
 4029              		.loc 1 601 14 is_stmt 1 view .LVU1246
 601:Middlewares/lvgl/src/widgets/lv_arc.c ****             delta_angle = -delta_angle_max;
 4030              		.loc 1 601 31 is_stmt 0 view .LVU1247
 4031 0138 5B42     		rsbs	r3, r3, #0
 4032              	.LVL473:
 601:Middlewares/lvgl/src/widgets/lv_arc.c ****             delta_angle = -delta_angle_max;
ARM GAS  /tmp/ccqOegKq.s 			page 116


 4033              		.loc 1 601 16 view .LVU1248
 4034 013a 9C42     		cmp	r4, r3
 4035 013c 79DA     		bge	.L192
 602:Middlewares/lvgl/src/widgets/lv_arc.c ****         }
 4036              		.loc 1 602 13 is_stmt 1 view .LVU1249
 602:Middlewares/lvgl/src/widgets/lv_arc.c ****         }
 4037              		.loc 1 602 25 is_stmt 0 view .LVU1250
 4038 013e 5342     		rsbs	r3, r2, #0
 4039              	.LVL474:
 602:Middlewares/lvgl/src/widgets/lv_arc.c ****         }
 4040              		.loc 1 602 25 view .LVU1251
 4041 0140 1BB2     		sxth	r3, r3
 4042              	.LVL475:
 4043              	.L183:
 605:Middlewares/lvgl/src/widgets/lv_arc.c **** 
 4044              		.loc 1 605 9 is_stmt 1 view .LVU1252
 605:Middlewares/lvgl/src/widgets/lv_arc.c **** 
 4045              		.loc 1 605 32 is_stmt 0 view .LVU1253
 4046 0142 E818     		adds	r0, r5, r3
 4047              	.LVL476:
 608:Middlewares/lvgl/src/widgets/lv_arc.c ****         round = (round + 4) >> 4;
 4048              		.loc 1 608 9 is_stmt 1 view .LVU1254
 608:Middlewares/lvgl/src/widgets/lv_arc.c ****         round = (round + 4) >> 4;
 4049              		.loc 1 608 38 is_stmt 0 view .LVU1255
 4050 0144 718D     		ldrh	r1, [r6, #42]
 608:Middlewares/lvgl/src/widgets/lv_arc.c ****         round = (round + 4) >> 4;
 4051              		.loc 1 608 34 view .LVU1256
 4052 0146 A8EB0102 		sub	r2, r8, r1
 608:Middlewares/lvgl/src/widgets/lv_arc.c ****         round = (round + 4) >> 4;
 4053              		.loc 1 608 56 view .LVU1257
 4054 014a D200     		lsls	r2, r2, #3
 608:Middlewares/lvgl/src/widgets/lv_arc.c ****         round = (round + 4) >> 4;
 4055              		.loc 1 608 67 view .LVU1258
 4056 014c B6F93240 		ldrsh	r4, [r6, #50]
 608:Middlewares/lvgl/src/widgets/lv_arc.c ****         round = (round + 4) >> 4;
 4057              		.loc 1 608 83 view .LVU1259
 4058 0150 B6F93030 		ldrsh	r3, [r6, #48]
 4059              	.LVL477:
 608:Middlewares/lvgl/src/widgets/lv_arc.c ****         round = (round + 4) >> 4;
 4060              		.loc 1 608 79 view .LVU1260
 4061 0154 E51A     		subs	r5, r4, r3
 4062              	.LVL478:
 608:Middlewares/lvgl/src/widgets/lv_arc.c ****         round = (round + 4) >> 4;
 4063              		.loc 1 608 17 view .LVU1261
 4064 0156 92FBF5F2 		sdiv	r2, r2, r5
 4065              	.LVL479:
 609:Middlewares/lvgl/src/widgets/lv_arc.c ****         angle += round;
 4066              		.loc 1 609 9 is_stmt 1 view .LVU1262
 609:Middlewares/lvgl/src/widgets/lv_arc.c ****         angle += round;
 4067              		.loc 1 609 24 is_stmt 0 view .LVU1263
 4068 015a 0432     		adds	r2, r2, #4
 4069              	.LVL480:
 609:Middlewares/lvgl/src/widgets/lv_arc.c ****         angle += round;
 4070              		.loc 1 609 15 view .LVU1264
 4071 015c 1211     		asrs	r2, r2, #4
 4072              	.LVL481:
 610:Middlewares/lvgl/src/widgets/lv_arc.c **** 
ARM GAS  /tmp/ccqOegKq.s 			page 117


 4073              		.loc 1 610 9 is_stmt 1 view .LVU1265
 610:Middlewares/lvgl/src/widgets/lv_arc.c **** 
 4074              		.loc 1 610 15 is_stmt 0 view .LVU1266
 4075 015e 12FA80F2 		uxtah	r2, r2, r0
 4076              	.LVL482:
 612:Middlewares/lvgl/src/widgets/lv_arc.c **** 
 4077              		.loc 1 612 9 is_stmt 1 view .LVU1267
 612:Middlewares/lvgl/src/widgets/lv_arc.c **** 
 4078              		.loc 1 612 15 is_stmt 0 view .LVU1268
 4079 0162 11FA82F0 		uxtah	r0, r1, r2
 4080              	.LVL483:
 615:Middlewares/lvgl/src/widgets/lv_arc.c ****         int16_t new_value = lv_map(angle,arc->bg_angle_start, bg_end,arc->min_value,arc->max_value)
 4081              		.loc 1 615 9 is_stmt 1 view .LVU1269
 615:Middlewares/lvgl/src/widgets/lv_arc.c ****         int16_t new_value = lv_map(angle,arc->bg_angle_start, bg_end,arc->min_value,arc->max_value)
 4082              		.loc 1 615 17 is_stmt 0 view .LVU1270
 4083 0166 B6F92E50 		ldrsh	r5, [r6, #46]
 4084              	.LVL484:
 616:Middlewares/lvgl/src/widgets/lv_arc.c ****         if(new_value != lv_arc_get_value(obj)) {
 4085              		.loc 1 616 9 is_stmt 1 view .LVU1271
 616:Middlewares/lvgl/src/widgets/lv_arc.c ****         if(new_value != lv_arc_get_value(obj)) {
 4086              		.loc 1 616 29 is_stmt 0 view .LVU1272
 4087 016a 0094     		str	r4, [sp]
 4088 016c 4246     		mov	r2, r8
 4089 016e 00B2     		sxth	r0, r0
 616:Middlewares/lvgl/src/widgets/lv_arc.c ****         if(new_value != lv_arc_get_value(obj)) {
 4090              		.loc 1 616 29 view .LVU1273
 4091 0170 FFF7FEFF 		bl	lv_map
 4092              	.LVL485:
 616:Middlewares/lvgl/src/widgets/lv_arc.c ****         if(new_value != lv_arc_get_value(obj)) {
 4093              		.loc 1 616 17 view .LVU1274
 4094 0174 04B2     		sxth	r4, r0
 4095              	.LVL486:
 617:Middlewares/lvgl/src/widgets/lv_arc.c ****            arc->last_tick = lv_tick_get(); /*Cache timestamp for the next iteration*/
 4096              		.loc 1 617 9 is_stmt 1 view .LVU1275
 617:Middlewares/lvgl/src/widgets/lv_arc.c ****            arc->last_tick = lv_tick_get(); /*Cache timestamp for the next iteration*/
 4097              		.loc 1 617 25 is_stmt 0 view .LVU1276
 4098 0176 3846     		mov	r0, r7
 4099 0178 FFF7FEFF 		bl	lv_arc_get_value
 4100              	.LVL487:
 617:Middlewares/lvgl/src/widgets/lv_arc.c ****            arc->last_tick = lv_tick_get(); /*Cache timestamp for the next iteration*/
 4101              		.loc 1 617 11 view .LVU1277
 4102 017c A042     		cmp	r0, r4
 4103 017e 5AD1     		bne	.L201
 4104              	.L184:
 627:Middlewares/lvgl/src/widgets/lv_arc.c ****            arc->last_tick = lv_tick_get(); /*Cache timestamp for the next iteration*/
 4105              		.loc 1 627 9 is_stmt 1 view .LVU1278
 627:Middlewares/lvgl/src/widgets/lv_arc.c ****            arc->last_tick = lv_tick_get(); /*Cache timestamp for the next iteration*/
 4106              		.loc 1 627 27 is_stmt 0 view .LVU1279
 4107 0180 B6F93030 		ldrsh	r3, [r6, #48]
 627:Middlewares/lvgl/src/widgets/lv_arc.c ****            arc->last_tick = lv_tick_get(); /*Cache timestamp for the next iteration*/
 4108              		.loc 1 627 11 view .LVU1280
 4109 0184 A342     		cmp	r3, r4
 4110 0186 04D0     		beq	.L185
 627:Middlewares/lvgl/src/widgets/lv_arc.c ****            arc->last_tick = lv_tick_get(); /*Cache timestamp for the next iteration*/
 4111              		.loc 1 627 57 discriminator 1 view .LVU1281
 4112 0188 B6F93230 		ldrsh	r3, [r6, #50]
 627:Middlewares/lvgl/src/widgets/lv_arc.c ****            arc->last_tick = lv_tick_get(); /*Cache timestamp for the next iteration*/
ARM GAS  /tmp/ccqOegKq.s 			page 118


 4113              		.loc 1 627 39 discriminator 1 view .LVU1282
 4114 018c A342     		cmp	r3, r4
 4115 018e 7FF440AF 		bne	.L170
 4116              	.L185:
 628:Middlewares/lvgl/src/widgets/lv_arc.c ****         }
 4117              		.loc 1 628 12 is_stmt 1 view .LVU1283
 628:Middlewares/lvgl/src/widgets/lv_arc.c ****         }
 4118              		.loc 1 628 29 is_stmt 0 view .LVU1284
 4119 0192 FFF7FEFF 		bl	lv_tick_get
 4120              	.LVL488:
 628:Middlewares/lvgl/src/widgets/lv_arc.c ****         }
 4121              		.loc 1 628 27 view .LVU1285
 4122 0196 B063     		str	r0, [r6, #56]
 4123 0198 3BE7     		b	.L170
 4124              	.LVL489:
 4125              	.L199:
 4126              	.LBB127:
 548:Middlewares/lvgl/src/widgets/lv_arc.c ****             r -=  indic_width;
 4127              		.loc 1 548 13 is_stmt 1 view .LVU1286
 4128              	.LBB128:
 4129              	.LBI128:
 499:Middlewares/lvgl/src/widgets/../core/lv_obj_style_gen.h **** {
 4130              		.loc 2 499 26 view .LVU1287
 4131              	.LBB129:
 501:Middlewares/lvgl/src/widgets/../core/lv_obj_style_gen.h ****     return (lv_coord_t)v.num;
 4132              		.loc 2 501 5 view .LVU1288
 501:Middlewares/lvgl/src/widgets/../core/lv_obj_style_gen.h ****     return (lv_coord_t)v.num;
 4133              		.loc 2 501 26 is_stmt 0 view .LVU1289
 4134 019a 4FF40562 		mov	r2, #2128
 4135 019e 4FF40031 		mov	r1, #131072
 4136 01a2 3846     		mov	r0, r7
 4137 01a4 FFF7FEFF 		bl	lv_obj_get_style_prop
 4138              	.LVL490:
 502:Middlewares/lvgl/src/widgets/../core/lv_obj_style_gen.h **** }
 4139              		.loc 2 502 5 is_stmt 1 view .LVU1290
 502:Middlewares/lvgl/src/widgets/../core/lv_obj_style_gen.h **** }
 4140              		.loc 2 502 5 is_stmt 0 view .LVU1291
 4141              	.LBE129:
 4142              	.LBE128:
 549:Middlewares/lvgl/src/widgets/lv_arc.c ****             r -= r / 2; /*Add some more sensitive area*/
 4143              		.loc 1 549 13 is_stmt 1 view .LVU1292
 549:Middlewares/lvgl/src/widgets/lv_arc.c ****             r -= r / 2; /*Add some more sensitive area*/
 4144              		.loc 1 549 15 is_stmt 0 view .LVU1293
 4145 01a8 BDF80E20 		ldrh	r2, [sp, #14]
 4146 01ac 121A     		subs	r2, r2, r0
 4147 01ae 93B2     		uxth	r3, r2
 4148 01b0 12B2     		sxth	r2, r2
 4149 01b2 ADF80E20 		strh	r2, [sp, #14]	@ movhi
 550:Middlewares/lvgl/src/widgets/lv_arc.c ****             if(p.x * p.x + p.y * p.y > r * r) {
 4150              		.loc 1 550 13 is_stmt 1 view .LVU1294
 550:Middlewares/lvgl/src/widgets/lv_arc.c ****             if(p.x * p.x + p.y * p.y > r * r) {
 4151              		.loc 1 550 15 is_stmt 0 view .LVU1295
 4152 01b6 1146     		mov	r1, r2
 4153 01b8 002A     		cmp	r2, #0
 4154 01ba 1BDB     		blt	.L202
 4155              	.L175:
 4156 01bc A3EB6103 		sub	r3, r3, r1, asr #1
ARM GAS  /tmp/ccqOegKq.s 			page 119


 4157 01c0 1BB2     		sxth	r3, r3
 4158 01c2 ADF80E30 		strh	r3, [sp, #14]	@ movhi
 551:Middlewares/lvgl/src/widgets/lv_arc.c ****                arc->dragging = true;
 4159              		.loc 1 551 13 is_stmt 1 view .LVU1296
 551:Middlewares/lvgl/src/widgets/lv_arc.c ****                arc->dragging = true;
 4160              		.loc 1 551 17 is_stmt 0 view .LVU1297
 4161 01c6 BDF91020 		ldrsh	r2, [sp, #16]
 551:Middlewares/lvgl/src/widgets/lv_arc.c ****                arc->dragging = true;
 4162              		.loc 1 551 29 view .LVU1298
 4163 01ca BDF91210 		ldrsh	r1, [sp, #18]
 551:Middlewares/lvgl/src/widgets/lv_arc.c ****                arc->dragging = true;
 4164              		.loc 1 551 32 view .LVU1299
 4165 01ce 01FB01F1 		mul	r1, r1, r1
 551:Middlewares/lvgl/src/widgets/lv_arc.c ****                arc->dragging = true;
 4166              		.loc 1 551 26 view .LVU1300
 4167 01d2 02FB0212 		mla	r2, r2, r2, r1
 551:Middlewares/lvgl/src/widgets/lv_arc.c ****                arc->dragging = true;
 4168              		.loc 1 551 42 view .LVU1301
 4169 01d6 03FB03F3 		mul	r3, r3, r3
 551:Middlewares/lvgl/src/widgets/lv_arc.c ****                arc->dragging = true;
 4170              		.loc 1 551 15 view .LVU1302
 4171 01da 9A42     		cmp	r2, r3
 4172 01dc 7FF761AF 		ble	.L174
 552:Middlewares/lvgl/src/widgets/lv_arc.c ****                arc->last_tick = lv_tick_get(); /*Capture timestamp at dragging start*/
 4173              		.loc 1 552 16 is_stmt 1 view .LVU1303
 552:Middlewares/lvgl/src/widgets/lv_arc.c ****                arc->last_tick = lv_tick_get(); /*Capture timestamp at dragging start*/
 4174              		.loc 1 552 30 is_stmt 0 view .LVU1304
 4175 01e0 96F83430 		ldrb	r3, [r6, #52]	@ zero_extendqisi2
 4176 01e4 43F00103 		orr	r3, r3, #1
 4177 01e8 86F83430 		strb	r3, [r6, #52]
 553:Middlewares/lvgl/src/widgets/lv_arc.c ****             }
 4178              		.loc 1 553 16 is_stmt 1 view .LVU1305
 553:Middlewares/lvgl/src/widgets/lv_arc.c ****             }
 4179              		.loc 1 553 33 is_stmt 0 view .LVU1306
 4180 01ec FFF7FEFF 		bl	lv_tick_get
 4181              	.LVL491:
 553:Middlewares/lvgl/src/widgets/lv_arc.c ****             }
 4182              		.loc 1 553 31 view .LVU1307
 4183 01f0 B063     		str	r0, [r6, #56]
 4184 01f2 56E7     		b	.L174
 4185              	.LVL492:
 4186              	.L202:
 550:Middlewares/lvgl/src/widgets/lv_arc.c ****             if(p.x * p.x + p.y * p.y > r * r) {
 4187              		.loc 1 550 15 view .LVU1308
 4188 01f4 511C     		adds	r1, r2, #1
 4189 01f6 E1E7     		b	.L175
 4190              	.LVL493:
 4191              	.L200:
 550:Middlewares/lvgl/src/widgets/lv_arc.c ****             if(p.x * p.x + p.y * p.y > r * r) {
 4192              		.loc 1 550 15 view .LVU1309
 4193              	.LBE127:
 574:Middlewares/lvgl/src/widgets/lv_arc.c **** 
 4194              		.loc 1 574 23 is_stmt 1 discriminator 1 view .LVU1310
 574:Middlewares/lvgl/src/widgets/lv_arc.c **** 
 4195              		.loc 1 574 29 is_stmt 0 discriminator 1 view .LVU1311
 4196 01f8 01F5B473 		add	r3, r1, #360
 4197              	.LVL494:
ARM GAS  /tmp/ccqOegKq.s 			page 120


 574:Middlewares/lvgl/src/widgets/lv_arc.c **** 
 4198              		.loc 1 574 29 discriminator 1 view .LVU1312
 4199 01fc 1BB2     		sxth	r3, r3
 4200              	.LVL495:
 574:Middlewares/lvgl/src/widgets/lv_arc.c **** 
 4201              		.loc 1 574 29 discriminator 1 view .LVU1313
 4202 01fe 74E7     		b	.L178
 4203              	.LVL496:
 4204              	.L179:
 589:Middlewares/lvgl/src/widgets/lv_arc.c ****             else arc->min_close = 0;
 4205              		.loc 1 589 13 is_stmt 1 view .LVU1314
 589:Middlewares/lvgl/src/widgets/lv_arc.c ****             else arc->min_close = 0;
 4206              		.loc 1 589 22 is_stmt 0 view .LVU1315
 4207 0200 2246     		mov	r2, r4
 4208 0202 002C     		cmp	r4, #0
 4209 0204 0BDB     		blt	.L203
 4210              	.L181:
 4211 0206 42F34F02 		sbfx	r2, r2, #1, #16
 589:Middlewares/lvgl/src/widgets/lv_arc.c ****             else arc->min_close = 0;
 4212              		.loc 1 589 15 view .LVU1316
 4213 020a 9A42     		cmp	r2, r3
 4214 020c 09DD     		ble	.L182
 589:Middlewares/lvgl/src/widgets/lv_arc.c ****             else arc->min_close = 0;
 4215              		.loc 1 589 38 is_stmt 1 discriminator 1 view .LVU1317
 589:Middlewares/lvgl/src/widgets/lv_arc.c ****             else arc->min_close = 0;
 4216              		.loc 1 589 53 is_stmt 0 discriminator 1 view .LVU1318
 4217 020e 96F83420 		ldrb	r2, [r6, #52]	@ zero_extendqisi2
 4218 0212 42F00802 		orr	r2, r2, #8
 4219 0216 86F83420 		strb	r2, [r6, #52]
 4220 021a 1C46     		mov	r4, r3
 4221              	.LVL497:
 589:Middlewares/lvgl/src/widgets/lv_arc.c ****             else arc->min_close = 0;
 4222              		.loc 1 589 53 discriminator 1 view .LVU1319
 4223 021c 7CE7     		b	.L180
 4224              	.LVL498:
 4225              	.L203:
 589:Middlewares/lvgl/src/widgets/lv_arc.c ****             else arc->min_close = 0;
 4226              		.loc 1 589 22 view .LVU1320
 4227 021e 621C     		adds	r2, r4, #1
 4228 0220 F1E7     		b	.L181
 4229              	.L182:
 590:Middlewares/lvgl/src/widgets/lv_arc.c ****         }
 4230              		.loc 1 590 18 is_stmt 1 view .LVU1321
 590:Middlewares/lvgl/src/widgets/lv_arc.c ****         }
 4231              		.loc 1 590 33 is_stmt 0 view .LVU1322
 4232 0222 96F83420 		ldrb	r2, [r6, #52]	@ zero_extendqisi2
 4233 0226 6FF3C302 		bfc	r2, #3, #1
 4234 022a 86F83420 		strb	r2, [r6, #52]
 4235 022e 1C46     		mov	r4, r3
 4236              	.LVL499:
 590:Middlewares/lvgl/src/widgets/lv_arc.c ****         }
 4237              		.loc 1 590 33 view .LVU1323
 4238 0230 72E7     		b	.L180
 4239              	.LVL500:
 4240              	.L192:
 594:Middlewares/lvgl/src/widgets/lv_arc.c ****         uint32_t delta_tick = lv_tick_elaps(arc->last_tick);
 4241              		.loc 1 594 21 view .LVU1324
ARM GAS  /tmp/ccqOegKq.s 			page 121


 4242 0232 2346     		mov	r3, r4
 4243              	.LVL501:
 594:Middlewares/lvgl/src/widgets/lv_arc.c ****         uint32_t delta_tick = lv_tick_elaps(arc->last_tick);
 4244              		.loc 1 594 21 view .LVU1325
 4245 0234 85E7     		b	.L183
 4246              	.LVL502:
 4247              	.L201:
 618:Middlewares/lvgl/src/widgets/lv_arc.c ****             lv_arc_set_value(obj, new_value); /*set_value caches the last_angle for the next iterat
 4248              		.loc 1 618 12 is_stmt 1 view .LVU1326
 618:Middlewares/lvgl/src/widgets/lv_arc.c ****             lv_arc_set_value(obj, new_value); /*set_value caches the last_angle for the next iterat
 4249              		.loc 1 618 29 is_stmt 0 view .LVU1327
 4250 0236 FFF7FEFF 		bl	lv_tick_get
 4251              	.LVL503:
 618:Middlewares/lvgl/src/widgets/lv_arc.c ****             lv_arc_set_value(obj, new_value); /*set_value caches the last_angle for the next iterat
 4252              		.loc 1 618 27 view .LVU1328
 4253 023a B063     		str	r0, [r6, #56]
 619:Middlewares/lvgl/src/widgets/lv_arc.c ****             if(new_value != old_value) {
 4254              		.loc 1 619 13 is_stmt 1 view .LVU1329
 4255 023c 2146     		mov	r1, r4
 4256 023e 3846     		mov	r0, r7
 4257 0240 FFF7FEFF 		bl	lv_arc_set_value
 4258              	.LVL504:
 620:Middlewares/lvgl/src/widgets/lv_arc.c ****                 res = lv_event_send(obj, LV_EVENT_VALUE_CHANGED, NULL);
 4259              		.loc 1 620 13 view .LVU1330
 620:Middlewares/lvgl/src/widgets/lv_arc.c ****                 res = lv_event_send(obj, LV_EVENT_VALUE_CHANGED, NULL);
 4260              		.loc 1 620 15 is_stmt 0 view .LVU1331
 4261 0244 A542     		cmp	r5, r4
 4262 0246 9BD0     		beq	.L184
 621:Middlewares/lvgl/src/widgets/lv_arc.c ****                 if(res != LV_RES_OK) return;
 4263              		.loc 1 621 17 is_stmt 1 view .LVU1332
 621:Middlewares/lvgl/src/widgets/lv_arc.c ****                 if(res != LV_RES_OK) return;
 4264              		.loc 1 621 23 is_stmt 0 view .LVU1333
 4265 0248 0022     		movs	r2, #0
 4266 024a 1C21     		movs	r1, #28
 4267 024c 3846     		mov	r0, r7
 4268 024e FFF7FEFF 		bl	lv_event_send
 4269              	.LVL505:
 622:Middlewares/lvgl/src/widgets/lv_arc.c ****             }
 4270              		.loc 1 622 17 is_stmt 1 view .LVU1334
 622:Middlewares/lvgl/src/widgets/lv_arc.c ****             }
 4271              		.loc 1 622 19 is_stmt 0 view .LVU1335
 4272 0252 0128     		cmp	r0, #1
 4273 0254 7FF4DDAE 		bne	.L170
 4274 0258 92E7     		b	.L184
 4275              	.LVL506:
 4276              	.L196:
 622:Middlewares/lvgl/src/widgets/lv_arc.c ****             }
 4277              		.loc 1 622 19 view .LVU1336
 4278              	.LBE126:
 4279              	.LBB130:
 632:Middlewares/lvgl/src/widgets/lv_arc.c **** 
 4280              		.loc 1 632 8 is_stmt 1 view .LVU1337
 632:Middlewares/lvgl/src/widgets/lv_arc.c **** 
 4281              		.loc 1 632 22 is_stmt 0 view .LVU1338
 4282 025a 90F83430 		ldrb	r3, [r0, #52]	@ zero_extendqisi2
 4283 025e 6FF30003 		bfc	r3, #0, #1
 4284 0262 80F83430 		strb	r3, [r0, #52]
ARM GAS  /tmp/ccqOegKq.s 			page 122


 635:Middlewares/lvgl/src/widgets/lv_arc.c ****         bool editing               = lv_group_get_editing(g);
 4285              		.loc 1 635 9 is_stmt 1 view .LVU1339
 635:Middlewares/lvgl/src/widgets/lv_arc.c ****         bool editing               = lv_group_get_editing(g);
 4286              		.loc 1 635 38 is_stmt 0 view .LVU1340
 4287 0266 3846     		mov	r0, r7
 4288              	.LVL507:
 635:Middlewares/lvgl/src/widgets/lv_arc.c ****         bool editing               = lv_group_get_editing(g);
 4289              		.loc 1 635 38 view .LVU1341
 4290 0268 FFF7FEFF 		bl	lv_obj_get_group
 4291              	.LVL508:
 4292 026c 0546     		mov	r5, r0
 4293              	.LVL509:
 636:Middlewares/lvgl/src/widgets/lv_arc.c ****         lv_indev_type_t indev_type = lv_indev_get_type(lv_indev_get_act());
 4294              		.loc 1 636 9 is_stmt 1 view .LVU1342
 636:Middlewares/lvgl/src/widgets/lv_arc.c ****         lv_indev_type_t indev_type = lv_indev_get_type(lv_indev_get_act());
 4295              		.loc 1 636 38 is_stmt 0 view .LVU1343
 4296 026e FFF7FEFF 		bl	lv_group_get_editing
 4297              	.LVL510:
 636:Middlewares/lvgl/src/widgets/lv_arc.c ****         lv_indev_type_t indev_type = lv_indev_get_type(lv_indev_get_act());
 4298              		.loc 1 636 38 view .LVU1344
 4299 0272 0446     		mov	r4, r0
 4300              	.LVL511:
 637:Middlewares/lvgl/src/widgets/lv_arc.c ****         if(indev_type == LV_INDEV_TYPE_ENCODER) {
 4301              		.loc 1 637 9 is_stmt 1 view .LVU1345
 637:Middlewares/lvgl/src/widgets/lv_arc.c ****         if(indev_type == LV_INDEV_TYPE_ENCODER) {
 4302              		.loc 1 637 56 is_stmt 0 view .LVU1346
 4303 0274 FFF7FEFF 		bl	lv_indev_get_act
 4304              	.LVL512:
 637:Middlewares/lvgl/src/widgets/lv_arc.c ****         if(indev_type == LV_INDEV_TYPE_ENCODER) {
 4305              		.loc 1 637 38 view .LVU1347
 4306 0278 FFF7FEFF 		bl	lv_indev_get_type
 4307              	.LVL513:
 638:Middlewares/lvgl/src/widgets/lv_arc.c ****             if(editing) lv_group_set_editing(g, false);
 4308              		.loc 1 638 9 is_stmt 1 view .LVU1348
 638:Middlewares/lvgl/src/widgets/lv_arc.c ****             if(editing) lv_group_set_editing(g, false);
 4309              		.loc 1 638 11 is_stmt 0 view .LVU1349
 4310 027c 0428     		cmp	r0, #4
 4311 027e 7FF4C8AE 		bne	.L170
 639:Middlewares/lvgl/src/widgets/lv_arc.c ****         }
 4312              		.loc 1 639 13 is_stmt 1 view .LVU1350
 639:Middlewares/lvgl/src/widgets/lv_arc.c ****         }
 4313              		.loc 1 639 15 is_stmt 0 view .LVU1351
 4314 0282 002C     		cmp	r4, #0
 4315 0284 3FF4C5AE 		beq	.L170
 639:Middlewares/lvgl/src/widgets/lv_arc.c ****         }
 4316              		.loc 1 639 25 is_stmt 1 discriminator 1 view .LVU1352
 4317 0288 0021     		movs	r1, #0
 4318 028a 2846     		mov	r0, r5
 4319              	.LVL514:
 639:Middlewares/lvgl/src/widgets/lv_arc.c ****         }
 4320              		.loc 1 639 25 is_stmt 0 discriminator 1 view .LVU1353
 4321 028c FFF7FEFF 		bl	lv_group_set_editing
 4322              	.LVL515:
 4323 0290 BFE6     		b	.L170
 4324              	.LVL516:
 4325              	.L197:
 639:Middlewares/lvgl/src/widgets/lv_arc.c ****         }
ARM GAS  /tmp/ccqOegKq.s 			page 123


 4326              		.loc 1 639 25 discriminator 1 view .LVU1354
 4327              	.LBE130:
 4328              	.LBB131:
 644:Middlewares/lvgl/src/widgets/lv_arc.c **** 
 4329              		.loc 1 644 9 is_stmt 1 view .LVU1355
 644:Middlewares/lvgl/src/widgets/lv_arc.c **** 
 4330              		.loc 1 644 28 is_stmt 0 view .LVU1356
 4331 0292 2046     		mov	r0, r4
 4332              	.LVL517:
 644:Middlewares/lvgl/src/widgets/lv_arc.c **** 
 4333              		.loc 1 644 28 view .LVU1357
 4334 0294 FFF7FEFF 		bl	lv_event_get_param
 4335              	.LVL518:
 644:Middlewares/lvgl/src/widgets/lv_arc.c **** 
 4336              		.loc 1 644 14 view .LVU1358
 4337 0298 0378     		ldrb	r3, [r0]	@ zero_extendqisi2
 4338              	.LVL519:
 646:Middlewares/lvgl/src/widgets/lv_arc.c ****         if(c == LV_KEY_RIGHT || c == LV_KEY_UP) {
 4339              		.loc 1 646 9 is_stmt 1 view .LVU1359
 646:Middlewares/lvgl/src/widgets/lv_arc.c ****         if(c == LV_KEY_RIGHT || c == LV_KEY_UP) {
 4340              		.loc 1 646 17 is_stmt 0 view .LVU1360
 4341 029a B6F92E40 		ldrsh	r4, [r6, #46]
 4342              	.LVL520:
 647:Middlewares/lvgl/src/widgets/lv_arc.c ****             lv_arc_set_value(obj, lv_arc_get_value(obj) + 1);
 4343              		.loc 1 647 9 is_stmt 1 view .LVU1361
 647:Middlewares/lvgl/src/widgets/lv_arc.c ****             lv_arc_set_value(obj, lv_arc_get_value(obj) + 1);
 4344              		.loc 1 647 11 is_stmt 0 view .LVU1362
 4345 029e 112B     		cmp	r3, #17
 4346 02a0 18BF     		it	ne
 4347 02a2 132B     		cmpne	r3, #19
 4348 02a4 0ED0     		beq	.L204
 650:Middlewares/lvgl/src/widgets/lv_arc.c ****             lv_arc_set_value(obj, lv_arc_get_value(obj) - 1);
 4349              		.loc 1 650 14 is_stmt 1 view .LVU1363
 650:Middlewares/lvgl/src/widgets/lv_arc.c ****             lv_arc_set_value(obj, lv_arc_get_value(obj) - 1);
 4350              		.loc 1 650 16 is_stmt 0 view .LVU1364
 4351 02a6 122B     		cmp	r3, #18
 4352 02a8 18BF     		it	ne
 4353 02aa 142B     		cmpne	r3, #20
 4354 02ac 14D0     		beq	.L205
 4355              	.LVL521:
 4356              	.L190:
 654:Middlewares/lvgl/src/widgets/lv_arc.c ****             res = lv_event_send(obj, LV_EVENT_VALUE_CHANGED, NULL);
 4357              		.loc 1 654 9 is_stmt 1 view .LVU1365
 654:Middlewares/lvgl/src/widgets/lv_arc.c ****             res = lv_event_send(obj, LV_EVENT_VALUE_CHANGED, NULL);
 4358              		.loc 1 654 27 is_stmt 0 view .LVU1366
 4359 02ae B6F92E30 		ldrsh	r3, [r6, #46]
 654:Middlewares/lvgl/src/widgets/lv_arc.c ****             res = lv_event_send(obj, LV_EVENT_VALUE_CHANGED, NULL);
 4360              		.loc 1 654 11 view .LVU1367
 4361 02b2 A342     		cmp	r3, r4
 4362 02b4 3FF4ADAE 		beq	.L170
 655:Middlewares/lvgl/src/widgets/lv_arc.c ****             if(res != LV_RES_OK) return;
 4363              		.loc 1 655 13 is_stmt 1 view .LVU1368
 655:Middlewares/lvgl/src/widgets/lv_arc.c ****             if(res != LV_RES_OK) return;
 4364              		.loc 1 655 19 is_stmt 0 view .LVU1369
 4365 02b8 0022     		movs	r2, #0
 4366 02ba 1C21     		movs	r1, #28
 4367 02bc 3846     		mov	r0, r7
ARM GAS  /tmp/ccqOegKq.s 			page 124


 4368 02be FFF7FEFF 		bl	lv_event_send
 4369              	.LVL522:
 656:Middlewares/lvgl/src/widgets/lv_arc.c ****         }
 4370              		.loc 1 656 13 is_stmt 1 view .LVU1370
 4371 02c2 A6E6     		b	.L170
 4372              	.LVL523:
 4373              	.L204:
 648:Middlewares/lvgl/src/widgets/lv_arc.c ****         }
 4374              		.loc 1 648 13 view .LVU1371
 648:Middlewares/lvgl/src/widgets/lv_arc.c ****         }
 4375              		.loc 1 648 35 is_stmt 0 view .LVU1372
 4376 02c4 3846     		mov	r0, r7
 4377 02c6 FFF7FEFF 		bl	lv_arc_get_value
 4378              	.LVL524:
 648:Middlewares/lvgl/src/widgets/lv_arc.c ****         }
 4379              		.loc 1 648 35 view .LVU1373
 4380 02ca 81B2     		uxth	r1, r0
 648:Middlewares/lvgl/src/widgets/lv_arc.c ****         }
 4381              		.loc 1 648 57 view .LVU1374
 4382 02cc 0131     		adds	r1, r1, #1
 648:Middlewares/lvgl/src/widgets/lv_arc.c ****         }
 4383              		.loc 1 648 13 view .LVU1375
 4384 02ce 09B2     		sxth	r1, r1
 4385 02d0 3846     		mov	r0, r7
 4386 02d2 FFF7FEFF 		bl	lv_arc_set_value
 4387              	.LVL525:
 4388 02d6 EAE7     		b	.L190
 4389              	.LVL526:
 4390              	.L205:
 651:Middlewares/lvgl/src/widgets/lv_arc.c ****         }
 4391              		.loc 1 651 13 is_stmt 1 view .LVU1376
 651:Middlewares/lvgl/src/widgets/lv_arc.c ****         }
 4392              		.loc 1 651 35 is_stmt 0 view .LVU1377
 4393 02d8 3846     		mov	r0, r7
 4394 02da FFF7FEFF 		bl	lv_arc_get_value
 4395              	.LVL527:
 651:Middlewares/lvgl/src/widgets/lv_arc.c ****         }
 4396              		.loc 1 651 35 view .LVU1378
 4397 02de 81B2     		uxth	r1, r0
 651:Middlewares/lvgl/src/widgets/lv_arc.c ****         }
 4398              		.loc 1 651 57 view .LVU1379
 4399 02e0 0139     		subs	r1, r1, #1
 651:Middlewares/lvgl/src/widgets/lv_arc.c ****         }
 4400              		.loc 1 651 13 view .LVU1380
 4401 02e2 09B2     		sxth	r1, r1
 4402 02e4 3846     		mov	r0, r7
 4403 02e6 FFF7FEFF 		bl	lv_arc_set_value
 4404              	.LVL528:
 4405 02ea E0E7     		b	.L190
 4406              	.L207:
 4407              		.align	2
 4408              	.L206:
 4409 02ec 00000000 		.word	.LANCHOR0
 4410 02f0 D34D6210 		.word	274877907
 4411              	.LVL529:
 4412              	.L198:
 651:Middlewares/lvgl/src/widgets/lv_arc.c ****         }
ARM GAS  /tmp/ccqOegKq.s 			page 125


 4413              		.loc 1 651 13 view .LVU1381
 4414              	.LBE131:
 4415              	.LBB132:
 660:Middlewares/lvgl/src/widgets/lv_arc.c ****         lv_coord_t bg_right = lv_obj_get_style_pad_right(obj, LV_PART_MAIN);
 4416              		.loc 1 660 9 is_stmt 1 view .LVU1382
 4417              	.LBB133:
 4418              	.LBI133:
 103:Middlewares/lvgl/src/widgets/../core/lv_obj_style_gen.h **** {
 4419              		.loc 2 103 26 view .LVU1383
 4420              	.LBB134:
 105:Middlewares/lvgl/src/widgets/../core/lv_obj_style_gen.h ****     return (lv_coord_t)v.num;
 4421              		.loc 2 105 5 view .LVU1384
 105:Middlewares/lvgl/src/widgets/../core/lv_obj_style_gen.h ****     return (lv_coord_t)v.num;
 4422              		.loc 2 105 26 is_stmt 0 view .LVU1385
 4423 02f4 41F21202 		movw	r2, #4114
 4424 02f8 0021     		movs	r1, #0
 4425 02fa 3846     		mov	r0, r7
 4426              	.LVL530:
 105:Middlewares/lvgl/src/widgets/../core/lv_obj_style_gen.h ****     return (lv_coord_t)v.num;
 4427              		.loc 2 105 26 view .LVU1386
 4428 02fc FFF7FEFF 		bl	lv_obj_get_style_prop
 4429              	.LVL531:
 106:Middlewares/lvgl/src/widgets/../core/lv_obj_style_gen.h **** }
 4430              		.loc 2 106 5 is_stmt 1 view .LVU1387
 106:Middlewares/lvgl/src/widgets/../core/lv_obj_style_gen.h **** }
 4431              		.loc 2 106 12 is_stmt 0 view .LVU1388
 4432 0300 06B2     		sxth	r6, r0
 4433              	.LVL532:
 106:Middlewares/lvgl/src/widgets/../core/lv_obj_style_gen.h **** }
 4434              		.loc 2 106 12 view .LVU1389
 4435              	.LBE134:
 4436              	.LBE133:
 661:Middlewares/lvgl/src/widgets/lv_arc.c ****         lv_coord_t bg_top = lv_obj_get_style_pad_top(obj, LV_PART_MAIN);
 4437              		.loc 1 661 9 is_stmt 1 view .LVU1390
 4438              	.LBB135:
 4439              	.LBI135:
 109:Middlewares/lvgl/src/widgets/../core/lv_obj_style_gen.h **** {
 4440              		.loc 2 109 26 view .LVU1391
 4441              	.LBB136:
 111:Middlewares/lvgl/src/widgets/../core/lv_obj_style_gen.h ****     return (lv_coord_t)v.num;
 4442              		.loc 2 111 5 view .LVU1392
 111:Middlewares/lvgl/src/widgets/../core/lv_obj_style_gen.h ****     return (lv_coord_t)v.num;
 4443              		.loc 2 111 26 is_stmt 0 view .LVU1393
 4444 0302 41F21302 		movw	r2, #4115
 4445 0306 0021     		movs	r1, #0
 4446 0308 3846     		mov	r0, r7
 4447 030a FFF7FEFF 		bl	lv_obj_get_style_prop
 4448              	.LVL533:
 112:Middlewares/lvgl/src/widgets/../core/lv_obj_style_gen.h **** }
 4449              		.loc 2 112 5 is_stmt 1 view .LVU1394
 112:Middlewares/lvgl/src/widgets/../core/lv_obj_style_gen.h **** }
 4450              		.loc 2 112 12 is_stmt 0 view .LVU1395
 4451 030e 0FFA80F8 		sxth	r8, r0
 4452              	.LVL534:
 112:Middlewares/lvgl/src/widgets/../core/lv_obj_style_gen.h **** }
 4453              		.loc 2 112 12 view .LVU1396
 4454              	.LBE136:
ARM GAS  /tmp/ccqOegKq.s 			page 126


 4455              	.LBE135:
 662:Middlewares/lvgl/src/widgets/lv_arc.c ****         lv_coord_t bg_bottom = lv_obj_get_style_pad_bottom(obj, LV_PART_MAIN);
 4456              		.loc 1 662 9 is_stmt 1 view .LVU1397
 4457              	.LBB137:
 4458              	.LBI137:
  91:Middlewares/lvgl/src/widgets/../core/lv_obj_style_gen.h **** {
 4459              		.loc 2 91 26 view .LVU1398
 4460              	.LBB138:
  93:Middlewares/lvgl/src/widgets/../core/lv_obj_style_gen.h ****     return (lv_coord_t)v.num;
 4461              		.loc 2 93 5 view .LVU1399
  93:Middlewares/lvgl/src/widgets/../core/lv_obj_style_gen.h ****     return (lv_coord_t)v.num;
 4462              		.loc 2 93 26 is_stmt 0 view .LVU1400
 4463 0312 41F21002 		movw	r2, #4112
 4464 0316 0021     		movs	r1, #0
 4465 0318 3846     		mov	r0, r7
 4466 031a FFF7FEFF 		bl	lv_obj_get_style_prop
 4467              	.LVL535:
  94:Middlewares/lvgl/src/widgets/../core/lv_obj_style_gen.h **** }
 4468              		.loc 2 94 5 is_stmt 1 view .LVU1401
  94:Middlewares/lvgl/src/widgets/../core/lv_obj_style_gen.h **** }
 4469              		.loc 2 94 12 is_stmt 0 view .LVU1402
 4470 031e 0FFA80F9 		sxth	r9, r0
 4471              	.LVL536:
  94:Middlewares/lvgl/src/widgets/../core/lv_obj_style_gen.h **** }
 4472              		.loc 2 94 12 view .LVU1403
 4473              	.LBE138:
 4474              	.LBE137:
 663:Middlewares/lvgl/src/widgets/lv_arc.c ****         lv_coord_t bg_pad = LV_MAX4(bg_left, bg_right, bg_top, bg_bottom);
 4475              		.loc 1 663 9 is_stmt 1 view .LVU1404
 4476              	.LBB139:
 4477              	.LBI139:
  97:Middlewares/lvgl/src/widgets/../core/lv_obj_style_gen.h **** {
 4478              		.loc 2 97 26 view .LVU1405
 4479              	.LBB140:
  99:Middlewares/lvgl/src/widgets/../core/lv_obj_style_gen.h ****     return (lv_coord_t)v.num;
 4480              		.loc 2 99 5 view .LVU1406
  99:Middlewares/lvgl/src/widgets/../core/lv_obj_style_gen.h ****     return (lv_coord_t)v.num;
 4481              		.loc 2 99 26 is_stmt 0 view .LVU1407
 4482 0322 41F21102 		movw	r2, #4113
 4483 0326 0021     		movs	r1, #0
 4484 0328 3846     		mov	r0, r7
 4485 032a FFF7FEFF 		bl	lv_obj_get_style_prop
 4486              	.LVL537:
 100:Middlewares/lvgl/src/widgets/../core/lv_obj_style_gen.h **** }
 4487              		.loc 2 100 5 is_stmt 1 view .LVU1408
 100:Middlewares/lvgl/src/widgets/../core/lv_obj_style_gen.h **** }
 4488              		.loc 2 100 12 is_stmt 0 view .LVU1409
 4489 032e 05B2     		sxth	r5, r0
 4490              	.LVL538:
 100:Middlewares/lvgl/src/widgets/../core/lv_obj_style_gen.h **** }
 4491              		.loc 2 100 12 view .LVU1410
 4492              	.LBE140:
 4493              	.LBE139:
 664:Middlewares/lvgl/src/widgets/lv_arc.c **** 
 4494              		.loc 1 664 9 is_stmt 1 view .LVU1411
 664:Middlewares/lvgl/src/widgets/lv_arc.c **** 
 4495              		.loc 1 664 29 is_stmt 0 view .LVU1412
ARM GAS  /tmp/ccqOegKq.s 			page 127


 4496 0330 4D45     		cmp	r5, r9
 4497 0332 B8BF     		it	lt
 4498 0334 4D46     		movlt	r5, r9
 4499              	.LVL539:
 664:Middlewares/lvgl/src/widgets/lv_arc.c **** 
 4500              		.loc 1 664 29 view .LVU1413
 4501 0336 4645     		cmp	r6, r8
 4502 0338 B8BF     		it	lt
 4503 033a 4646     		movlt	r6, r8
 4504              	.LVL540:
 664:Middlewares/lvgl/src/widgets/lv_arc.c **** 
 4505              		.loc 1 664 20 view .LVU1414
 4506 033c AE42     		cmp	r6, r5
 4507 033e B8BF     		it	lt
 4508 0340 2E46     		movlt	r6, r5
 4509              	.LVL541:
 666:Middlewares/lvgl/src/widgets/lv_arc.c ****         lv_coord_t knob_right = lv_obj_get_style_pad_right(obj, LV_PART_KNOB);
 4510              		.loc 1 666 9 is_stmt 1 view .LVU1415
 4511              	.LBB141:
 4512              	.LBI141:
 103:Middlewares/lvgl/src/widgets/../core/lv_obj_style_gen.h **** {
 4513              		.loc 2 103 26 view .LVU1416
 4514              	.LBB142:
 105:Middlewares/lvgl/src/widgets/../core/lv_obj_style_gen.h ****     return (lv_coord_t)v.num;
 4515              		.loc 2 105 5 view .LVU1417
 105:Middlewares/lvgl/src/widgets/../core/lv_obj_style_gen.h ****     return (lv_coord_t)v.num;
 4516              		.loc 2 105 26 is_stmt 0 view .LVU1418
 4517 0342 41F21202 		movw	r2, #4114
 4518 0346 4FF44031 		mov	r1, #196608
 4519 034a 3846     		mov	r0, r7
 4520              	.LVL542:
 105:Middlewares/lvgl/src/widgets/../core/lv_obj_style_gen.h ****     return (lv_coord_t)v.num;
 4521              		.loc 2 105 26 view .LVU1419
 4522 034c FFF7FEFF 		bl	lv_obj_get_style_prop
 4523              	.LVL543:
 106:Middlewares/lvgl/src/widgets/../core/lv_obj_style_gen.h **** }
 4524              		.loc 2 106 5 is_stmt 1 view .LVU1420
 106:Middlewares/lvgl/src/widgets/../core/lv_obj_style_gen.h **** }
 4525              		.loc 2 106 12 is_stmt 0 view .LVU1421
 4526 0350 0FFA80F8 		sxth	r8, r0
 4527              	.LVL544:
 106:Middlewares/lvgl/src/widgets/../core/lv_obj_style_gen.h **** }
 4528              		.loc 2 106 12 view .LVU1422
 4529              	.LBE142:
 4530              	.LBE141:
 667:Middlewares/lvgl/src/widgets/lv_arc.c ****         lv_coord_t knob_top = lv_obj_get_style_pad_top(obj, LV_PART_KNOB);
 4531              		.loc 1 667 9 is_stmt 1 view .LVU1423
 4532              	.LBB143:
 4533              	.LBI143:
 109:Middlewares/lvgl/src/widgets/../core/lv_obj_style_gen.h **** {
 4534              		.loc 2 109 26 view .LVU1424
 4535              	.LBB144:
 111:Middlewares/lvgl/src/widgets/../core/lv_obj_style_gen.h ****     return (lv_coord_t)v.num;
 4536              		.loc 2 111 5 view .LVU1425
 111:Middlewares/lvgl/src/widgets/../core/lv_obj_style_gen.h ****     return (lv_coord_t)v.num;
 4537              		.loc 2 111 26 is_stmt 0 view .LVU1426
 4538 0354 41F21302 		movw	r2, #4115
ARM GAS  /tmp/ccqOegKq.s 			page 128


 4539 0358 4FF44031 		mov	r1, #196608
 4540 035c 3846     		mov	r0, r7
 4541 035e FFF7FEFF 		bl	lv_obj_get_style_prop
 4542              	.LVL545:
 112:Middlewares/lvgl/src/widgets/../core/lv_obj_style_gen.h **** }
 4543              		.loc 2 112 5 is_stmt 1 view .LVU1427
 112:Middlewares/lvgl/src/widgets/../core/lv_obj_style_gen.h **** }
 4544              		.loc 2 112 12 is_stmt 0 view .LVU1428
 4545 0362 05B2     		sxth	r5, r0
 4546              	.LVL546:
 112:Middlewares/lvgl/src/widgets/../core/lv_obj_style_gen.h **** }
 4547              		.loc 2 112 12 view .LVU1429
 4548              	.LBE144:
 4549              	.LBE143:
 668:Middlewares/lvgl/src/widgets/lv_arc.c ****         lv_coord_t knob_bottom = lv_obj_get_style_pad_bottom(obj, LV_PART_KNOB);
 4550              		.loc 1 668 9 is_stmt 1 view .LVU1430
 4551              	.LBB145:
 4552              	.LBI145:
  91:Middlewares/lvgl/src/widgets/../core/lv_obj_style_gen.h **** {
 4553              		.loc 2 91 26 view .LVU1431
 4554              	.LBB146:
  93:Middlewares/lvgl/src/widgets/../core/lv_obj_style_gen.h ****     return (lv_coord_t)v.num;
 4555              		.loc 2 93 5 view .LVU1432
  93:Middlewares/lvgl/src/widgets/../core/lv_obj_style_gen.h ****     return (lv_coord_t)v.num;
 4556              		.loc 2 93 26 is_stmt 0 view .LVU1433
 4557 0364 41F21002 		movw	r2, #4112
 4558 0368 4FF44031 		mov	r1, #196608
 4559 036c 3846     		mov	r0, r7
 4560 036e FFF7FEFF 		bl	lv_obj_get_style_prop
 4561              	.LVL547:
  94:Middlewares/lvgl/src/widgets/../core/lv_obj_style_gen.h **** }
 4562              		.loc 2 94 5 is_stmt 1 view .LVU1434
  94:Middlewares/lvgl/src/widgets/../core/lv_obj_style_gen.h **** }
 4563              		.loc 2 94 12 is_stmt 0 view .LVU1435
 4564 0372 0FFA80F9 		sxth	r9, r0
 4565              	.LVL548:
  94:Middlewares/lvgl/src/widgets/../core/lv_obj_style_gen.h **** }
 4566              		.loc 2 94 12 view .LVU1436
 4567              	.LBE146:
 4568              	.LBE145:
 669:Middlewares/lvgl/src/widgets/lv_arc.c ****         lv_coord_t knob_pad = LV_MAX4(knob_left, knob_right, knob_top, knob_bottom) + 2;
 4569              		.loc 1 669 9 is_stmt 1 view .LVU1437
 4570              	.LBB147:
 4571              	.LBI147:
  97:Middlewares/lvgl/src/widgets/../core/lv_obj_style_gen.h **** {
 4572              		.loc 2 97 26 view .LVU1438
 4573              	.LBB148:
  99:Middlewares/lvgl/src/widgets/../core/lv_obj_style_gen.h ****     return (lv_coord_t)v.num;
 4574              		.loc 2 99 5 view .LVU1439
  99:Middlewares/lvgl/src/widgets/../core/lv_obj_style_gen.h ****     return (lv_coord_t)v.num;
 4575              		.loc 2 99 26 is_stmt 0 view .LVU1440
 4576 0376 41F21102 		movw	r2, #4113
 4577 037a 4FF44031 		mov	r1, #196608
 4578 037e 3846     		mov	r0, r7
 4579 0380 FFF7FEFF 		bl	lv_obj_get_style_prop
 4580              	.LVL549:
 100:Middlewares/lvgl/src/widgets/../core/lv_obj_style_gen.h **** }
ARM GAS  /tmp/ccqOegKq.s 			page 129


 4581              		.loc 2 100 5 is_stmt 1 view .LVU1441
 100:Middlewares/lvgl/src/widgets/../core/lv_obj_style_gen.h **** }
 4582              		.loc 2 100 12 is_stmt 0 view .LVU1442
 4583 0384 03B2     		sxth	r3, r0
 4584              	.LVL550:
 100:Middlewares/lvgl/src/widgets/../core/lv_obj_style_gen.h **** }
 4585              		.loc 2 100 12 view .LVU1443
 4586              	.LBE148:
 4587              	.LBE147:
 670:Middlewares/lvgl/src/widgets/lv_arc.c **** 
 4588              		.loc 1 670 9 is_stmt 1 view .LVU1444
 670:Middlewares/lvgl/src/widgets/lv_arc.c **** 
 4589              		.loc 1 670 31 is_stmt 0 view .LVU1445
 4590 0386 4B45     		cmp	r3, r9
 4591 0388 B8BF     		it	lt
 4592 038a 4B46     		movlt	r3, r9
 4593              	.LVL551:
 670:Middlewares/lvgl/src/widgets/lv_arc.c **** 
 4594              		.loc 1 670 31 view .LVU1446
 4595 038c 4545     		cmp	r5, r8
 4596 038e B8BF     		it	lt
 4597 0390 4546     		movlt	r5, r8
 4598              	.LVL552:
 670:Middlewares/lvgl/src/widgets/lv_arc.c **** 
 4599              		.loc 1 670 31 view .LVU1447
 4600 0392 AB42     		cmp	r3, r5
 4601 0394 B8BF     		it	lt
 4602 0396 2B46     		movlt	r3, r5
 4603 0398 9BB2     		uxth	r3, r3
 670:Middlewares/lvgl/src/widgets/lv_arc.c **** 
 4604              		.loc 1 670 85 view .LVU1448
 4605 039a 0233     		adds	r3, r3, #2
 670:Middlewares/lvgl/src/widgets/lv_arc.c **** 
 4606              		.loc 1 670 20 view .LVU1449
 4607 039c 1DB2     		sxth	r5, r3
 4608              	.LVL553:
 672:Middlewares/lvgl/src/widgets/lv_arc.c ****         *s = LV_MAX(*s, knob_pad - bg_pad);
 4609              		.loc 1 672 9 is_stmt 1 view .LVU1450
 672:Middlewares/lvgl/src/widgets/lv_arc.c ****         *s = LV_MAX(*s, knob_pad - bg_pad);
 4610              		.loc 1 672 26 is_stmt 0 view .LVU1451
 4611 039e 2046     		mov	r0, r4
 4612              	.LVL554:
 672:Middlewares/lvgl/src/widgets/lv_arc.c ****         *s = LV_MAX(*s, knob_pad - bg_pad);
 4613              		.loc 1 672 26 view .LVU1452
 4614 03a0 FFF7FEFF 		bl	lv_event_get_param
 4615              	.LVL555:
 673:Middlewares/lvgl/src/widgets/lv_arc.c ****     } else if(code == LV_EVENT_DRAW_MAIN) {
 4616              		.loc 1 673 9 is_stmt 1 view .LVU1453
 673:Middlewares/lvgl/src/widgets/lv_arc.c ****     } else if(code == LV_EVENT_DRAW_MAIN) {
 4617              		.loc 1 673 14 is_stmt 0 view .LVU1454
 4618 03a4 AD1B     		subs	r5, r5, r6
 4619              	.LVL556:
 673:Middlewares/lvgl/src/widgets/lv_arc.c ****     } else if(code == LV_EVENT_DRAW_MAIN) {
 4620              		.loc 1 673 14 view .LVU1455
 4621 03a6 B0F90030 		ldrsh	r3, [r0]
 4622 03aa 9D42     		cmp	r5, r3
 4623 03ac B8BF     		it	lt
ARM GAS  /tmp/ccqOegKq.s 			page 130


 4624 03ae 1D46     		movlt	r5, r3
 673:Middlewares/lvgl/src/widgets/lv_arc.c ****     } else if(code == LV_EVENT_DRAW_MAIN) {
 4625              		.loc 1 673 12 view .LVU1456
 4626 03b0 0580     		strh	r5, [r0]	@ movhi
 4627              	.LBE132:
 4628 03b2 2EE6     		b	.L170
 4629              		.cfi_endproc
 4630              	.LFE168:
 4632              		.section	.text.lv_arc_get_min_value,"ax",%progbits
 4633              		.align	1
 4634              		.global	lv_arc_get_min_value
 4635              		.syntax unified
 4636              		.thumb
 4637              		.thumb_func
 4638              		.fpu fpv5-d16
 4640              	lv_arc_get_min_value:
 4641              	.LVL557:
 4642              	.LFB164:
 445:Middlewares/lvgl/src/widgets/lv_arc.c ****     LV_ASSERT_OBJ(obj, MY_CLASS);
 4643              		.loc 1 445 1 is_stmt 1 view -0
 4644              		.cfi_startproc
 4645              		@ args = 0, pretend = 0, frame = 0
 4646              		@ frame_needed = 0, uses_anonymous_args = 0
 4647              		@ link register save eliminated.
 446:Middlewares/lvgl/src/widgets/lv_arc.c ****     return ((lv_arc_t*) obj)->min_value;
 4648              		.loc 1 446 5 view .LVU1458
 446:Middlewares/lvgl/src/widgets/lv_arc.c ****     return ((lv_arc_t*) obj)->min_value;
 4649              		.loc 1 446 5 view .LVU1459
 446:Middlewares/lvgl/src/widgets/lv_arc.c ****     return ((lv_arc_t*) obj)->min_value;
 4650              		.loc 1 446 5 view .LVU1460
 447:Middlewares/lvgl/src/widgets/lv_arc.c **** }
 4651              		.loc 1 447 5 view .LVU1461
 448:Middlewares/lvgl/src/widgets/lv_arc.c **** 
 4652              		.loc 1 448 1 is_stmt 0 view .LVU1462
 4653 0000 B0F93000 		ldrsh	r0, [r0, #48]
 4654              	.LVL558:
 448:Middlewares/lvgl/src/widgets/lv_arc.c **** 
 4655              		.loc 1 448 1 view .LVU1463
 4656 0004 7047     		bx	lr
 4657              		.cfi_endproc
 4658              	.LFE164:
 4660              		.section	.text.lv_arc_get_max_value,"ax",%progbits
 4661              		.align	1
 4662              		.global	lv_arc_get_max_value
 4663              		.syntax unified
 4664              		.thumb
 4665              		.thumb_func
 4666              		.fpu fpv5-d16
 4668              	lv_arc_get_max_value:
 4669              	.LVL559:
 4670              	.LFB165:
 456:Middlewares/lvgl/src/widgets/lv_arc.c ****     LV_ASSERT_OBJ(obj, MY_CLASS);
 4671              		.loc 1 456 1 is_stmt 1 view -0
 4672              		.cfi_startproc
 4673              		@ args = 0, pretend = 0, frame = 0
 4674              		@ frame_needed = 0, uses_anonymous_args = 0
 4675              		@ link register save eliminated.
ARM GAS  /tmp/ccqOegKq.s 			page 131


 457:Middlewares/lvgl/src/widgets/lv_arc.c ****     return ((lv_arc_t*) obj)->max_value;
 4676              		.loc 1 457 5 view .LVU1465
 457:Middlewares/lvgl/src/widgets/lv_arc.c ****     return ((lv_arc_t*) obj)->max_value;
 4677              		.loc 1 457 5 view .LVU1466
 457:Middlewares/lvgl/src/widgets/lv_arc.c ****     return ((lv_arc_t*) obj)->max_value;
 4678              		.loc 1 457 5 view .LVU1467
 458:Middlewares/lvgl/src/widgets/lv_arc.c **** }
 4679              		.loc 1 458 5 view .LVU1468
 459:Middlewares/lvgl/src/widgets/lv_arc.c **** 
 4680              		.loc 1 459 1 is_stmt 0 view .LVU1469
 4681 0000 B0F93200 		ldrsh	r0, [r0, #50]
 4682              	.LVL560:
 459:Middlewares/lvgl/src/widgets/lv_arc.c **** 
 4683              		.loc 1 459 1 view .LVU1470
 4684 0004 7047     		bx	lr
 4685              		.cfi_endproc
 4686              	.LFE165:
 4688              		.section	.text.lv_arc_get_mode,"ax",%progbits
 4689              		.align	1
 4690              		.global	lv_arc_get_mode
 4691              		.syntax unified
 4692              		.thumb
 4693              		.thumb_func
 4694              		.fpu fpv5-d16
 4696              	lv_arc_get_mode:
 4697              	.LVL561:
 4698              	.LFB166:
 467:Middlewares/lvgl/src/widgets/lv_arc.c ****     LV_ASSERT_OBJ(obj, MY_CLASS);
 4699              		.loc 1 467 1 is_stmt 1 view -0
 4700              		.cfi_startproc
 4701              		@ args = 0, pretend = 0, frame = 0
 4702              		@ frame_needed = 0, uses_anonymous_args = 0
 4703              		@ link register save eliminated.
 468:Middlewares/lvgl/src/widgets/lv_arc.c ****     return ((lv_arc_t*) obj)->type;
 4704              		.loc 1 468 5 view .LVU1472
 468:Middlewares/lvgl/src/widgets/lv_arc.c ****     return ((lv_arc_t*) obj)->type;
 4705              		.loc 1 468 5 view .LVU1473
 468:Middlewares/lvgl/src/widgets/lv_arc.c ****     return ((lv_arc_t*) obj)->type;
 4706              		.loc 1 468 5 view .LVU1474
 469:Middlewares/lvgl/src/widgets/lv_arc.c **** }
 4707              		.loc 1 469 5 view .LVU1475
 469:Middlewares/lvgl/src/widgets/lv_arc.c **** }
 4708              		.loc 1 469 29 is_stmt 0 view .LVU1476
 4709 0000 90F83400 		ldrb	r0, [r0, #52]	@ zero_extendqisi2
 4710              	.LVL562:
 470:Middlewares/lvgl/src/widgets/lv_arc.c **** 
 4711              		.loc 1 470 1 view .LVU1477
 4712 0004 C0F34100 		ubfx	r0, r0, #1, #2
 4713 0008 7047     		bx	lr
 4714              		.cfi_endproc
 4715              	.LFE166:
 4717              		.global	lv_arc_class
 4718              		.section	.rodata.lv_arc_class,"a"
 4719              		.align	2
 4720              		.set	.LANCHOR0,. + 0
 4723              	lv_arc_class:
 4724 0000 00000000 		.word	lv_obj_class
ARM GAS  /tmp/ccqOegKq.s 			page 132


 4725 0004 00000000 		.word	lv_arc_constructor
 4726 0008 00000000 		.space	8
 4726      00000000 
 4727 0010 00000000 		.word	lv_arc_event
 4728 0014 00000000 		.space	4
 4729 0018 01       		.byte	1
 4730 0019 04       		.byte	4
 4731 001a 00       		.byte	0
 4732 001b 00       		.space	1
 4733              		.text
 4734              	.Letext0:
 4735              		.file 3 "/home/akinya/gcc-arm-none-eabi/arm-none-eabi/include/machine/_default_types.h"
 4736              		.file 4 "/home/akinya/gcc-arm-none-eabi/arm-none-eabi/include/sys/_stdint.h"
 4737              		.file 5 "Middlewares/lvgl/src/widgets/../core/../misc/../font/../misc/lv_area.h"
 4738              		.file 6 "Middlewares/lvgl/src/widgets/../core/../misc/../font/lv_font.h"
 4739              		.file 7 "Middlewares/lvgl/src/widgets/../core/../misc/lv_types.h"
 4740              		.file 8 "Middlewares/lvgl/src/widgets/../core/../misc/lv_color.h"
 4741              		.file 9 "Middlewares/lvgl/src/widgets/../core/../misc/lv_txt.h"
 4742              		.file 10 "Middlewares/lvgl/src/widgets/../core/../misc/lv_bidi.h"
 4743              		.file 11 "Middlewares/lvgl/src/widgets/../core/../misc/lv_style.h"
 4744              		.file 12 "Middlewares/lvgl/src/widgets/../core/../hal/../misc/lv_ll.h"
 4745              		.file 13 "Middlewares/lvgl/src/widgets/../core/../hal/../misc/lv_timer.h"
 4746              		.file 14 "Middlewares/lvgl/src/widgets/../core/../hal/lv_hal_disp.h"
 4747              		.file 15 "Middlewares/lvgl/src/widgets/../core/lv_obj.h"
 4748              		.file 16 "Middlewares/lvgl/src/widgets/../core/../hal/lv_hal_indev.h"
 4749              		.file 17 "Middlewares/lvgl/src/widgets/../core/lv_group.h"
 4750              		.file 18 "Middlewares/lvgl/src/widgets/../core/lv_obj_scroll.h"
 4751              		.file 19 "Middlewares/lvgl/src/widgets/../core/lv_obj_style.h"
 4752              		.file 20 "Middlewares/lvgl/src/widgets/../core/../draw/lv_draw_rect.h"
 4753              		.file 21 "Middlewares/lvgl/src/widgets/../core/../draw/lv_draw_label.h"
 4754              		.file 22 "Middlewares/lvgl/src/widgets/../core/../draw/lv_draw_img.h"
 4755              		.file 23 "Middlewares/lvgl/src/widgets/../core/../draw/lv_draw_line.h"
 4756              		.file 24 "Middlewares/lvgl/src/widgets/../core/../draw/lv_draw_arc.h"
 4757              		.file 25 "Middlewares/lvgl/src/widgets/../core/lv_obj_draw.h"
 4758              		.file 26 "Middlewares/lvgl/src/widgets/../core/lv_obj_class.h"
 4759              		.file 27 "Middlewares/lvgl/src/widgets/../core/lv_event.h"
 4760              		.file 28 "Middlewares/lvgl/src/widgets/lv_arc.h"
 4761              		.file 29 "Middlewares/lvgl/src/widgets/../core/../misc/lv_math.h"
 4762              		.file 30 "Middlewares/lvgl/src/widgets/../core/lv_obj_pos.h"
 4763              		.file 31 "Middlewares/lvgl/src/widgets/../core/../hal/lv_hal_tick.h"
 4764              		.file 32 "Middlewares/lvgl/src/widgets/../core/lv_indev.h"
ARM GAS  /tmp/ccqOegKq.s 			page 133


DEFINED SYMBOLS
                            *ABS*:0000000000000000 lv_arc.c
     /tmp/ccqOegKq.s:17     .text.get_center:0000000000000000 $t
     /tmp/ccqOegKq.s:24     .text.get_center:0000000000000000 get_center
     /tmp/ccqOegKq.s:253    .text.get_knob_area:0000000000000000 $t
     /tmp/ccqOegKq.s:259    .text.get_knob_area:0000000000000000 get_knob_area
     /tmp/ccqOegKq.s:591    .text.lv_arc_draw:0000000000000000 $t
     /tmp/ccqOegKq.s:597    .text.lv_arc_draw:0000000000000000 lv_arc_draw
     /tmp/ccqOegKq.s:955    .text.lv_arc_constructor:0000000000000000 $t
     /tmp/ccqOegKq.s:961    .text.lv_arc_constructor:0000000000000000 lv_arc_constructor
     /tmp/ccqOegKq.s:1059   .text.inv_arc_area:0000000000000000 $t
     /tmp/ccqOegKq.s:1065   .text.inv_arc_area:0000000000000000 inv_arc_area
     /tmp/ccqOegKq.s:1800   .text.inv_arc_area:0000000000000378 $d
     /tmp/ccqOegKq.s:1805   .text.inv_arc_area:000000000000037c $t
     /tmp/ccqOegKq.s:2300   .text.lv_arc_create:0000000000000000 $t
     /tmp/ccqOegKq.s:2307   .text.lv_arc_create:0000000000000000 lv_arc_create
     /tmp/ccqOegKq.s:2343   .text.lv_arc_create:0000000000000014 $d
     /tmp/ccqOegKq.s:2348   .text.lv_arc_set_start_angle:0000000000000000 $t
     /tmp/ccqOegKq.s:2355   .text.lv_arc_set_start_angle:0000000000000000 lv_arc_set_start_angle
     /tmp/ccqOegKq.s:2474   .text.lv_arc_set_end_angle:0000000000000000 $t
     /tmp/ccqOegKq.s:2481   .text.lv_arc_set_end_angle:0000000000000000 lv_arc_set_end_angle
     /tmp/ccqOegKq.s:2601   .text.value_update:0000000000000000 $t
     /tmp/ccqOegKq.s:2607   .text.value_update:0000000000000000 value_update
     /tmp/ccqOegKq.s:2818   .text.lv_arc_set_angles:0000000000000000 $t
     /tmp/ccqOegKq.s:2825   .text.lv_arc_set_angles:0000000000000000 lv_arc_set_angles
     /tmp/ccqOegKq.s:2898   .text.lv_arc_set_bg_start_angle:0000000000000000 $t
     /tmp/ccqOegKq.s:2905   .text.lv_arc_set_bg_start_angle:0000000000000000 lv_arc_set_bg_start_angle
     /tmp/ccqOegKq.s:3028   .text.lv_arc_set_bg_end_angle:0000000000000000 $t
     /tmp/ccqOegKq.s:3035   .text.lv_arc_set_bg_end_angle:0000000000000000 lv_arc_set_bg_end_angle
     /tmp/ccqOegKq.s:3159   .text.lv_arc_set_bg_angles:0000000000000000 $t
     /tmp/ccqOegKq.s:3166   .text.lv_arc_set_bg_angles:0000000000000000 lv_arc_set_bg_angles
     /tmp/ccqOegKq.s:3243   .text.lv_arc_set_rotation:0000000000000000 $t
     /tmp/ccqOegKq.s:3250   .text.lv_arc_set_rotation:0000000000000000 lv_arc_set_rotation
     /tmp/ccqOegKq.s:3280   .text.lv_arc_set_value:0000000000000000 $t
     /tmp/ccqOegKq.s:3287   .text.lv_arc_set_value:0000000000000000 lv_arc_set_value
     /tmp/ccqOegKq.s:3353   .text.lv_arc_set_mode:0000000000000000 $t
     /tmp/ccqOegKq.s:3360   .text.lv_arc_set_mode:0000000000000000 lv_arc_set_mode
     /tmp/ccqOegKq.s:3482   .text.lv_arc_set_range:0000000000000000 $t
     /tmp/ccqOegKq.s:3489   .text.lv_arc_set_range:0000000000000000 lv_arc_set_range
     /tmp/ccqOegKq.s:3558   .text.lv_arc_set_change_rate:0000000000000000 $t
     /tmp/ccqOegKq.s:3565   .text.lv_arc_set_change_rate:0000000000000000 lv_arc_set_change_rate
     /tmp/ccqOegKq.s:3586   .text.lv_arc_get_angle_start:0000000000000000 $t
     /tmp/ccqOegKq.s:3593   .text.lv_arc_get_angle_start:0000000000000000 lv_arc_get_angle_start
     /tmp/ccqOegKq.s:3614   .text.lv_arc_get_angle_end:0000000000000000 $t
     /tmp/ccqOegKq.s:3621   .text.lv_arc_get_angle_end:0000000000000000 lv_arc_get_angle_end
     /tmp/ccqOegKq.s:3642   .text.lv_arc_get_bg_angle_start:0000000000000000 $t
     /tmp/ccqOegKq.s:3649   .text.lv_arc_get_bg_angle_start:0000000000000000 lv_arc_get_bg_angle_start
     /tmp/ccqOegKq.s:3670   .text.lv_arc_get_bg_angle_end:0000000000000000 $t
     /tmp/ccqOegKq.s:3677   .text.lv_arc_get_bg_angle_end:0000000000000000 lv_arc_get_bg_angle_end
     /tmp/ccqOegKq.s:3698   .text.lv_arc_get_value:0000000000000000 $t
     /tmp/ccqOegKq.s:3705   .text.lv_arc_get_value:0000000000000000 lv_arc_get_value
     /tmp/ccqOegKq.s:3726   .text.lv_arc_event:0000000000000000 $t
     /tmp/ccqOegKq.s:3732   .text.lv_arc_event:0000000000000000 lv_arc_event
     /tmp/ccqOegKq.s:4409   .text.lv_arc_event:00000000000002ec $d
     /tmp/ccqOegKq.s:4423   .text.lv_arc_event:00000000000002f4 $t
     /tmp/ccqOegKq.s:4633   .text.lv_arc_get_min_value:0000000000000000 $t
     /tmp/ccqOegKq.s:4640   .text.lv_arc_get_min_value:0000000000000000 lv_arc_get_min_value
ARM GAS  /tmp/ccqOegKq.s 			page 134


     /tmp/ccqOegKq.s:4661   .text.lv_arc_get_max_value:0000000000000000 $t
     /tmp/ccqOegKq.s:4668   .text.lv_arc_get_max_value:0000000000000000 lv_arc_get_max_value
     /tmp/ccqOegKq.s:4689   .text.lv_arc_get_mode:0000000000000000 $t
     /tmp/ccqOegKq.s:4696   .text.lv_arc_get_mode:0000000000000000 lv_arc_get_mode
     /tmp/ccqOegKq.s:4723   .rodata.lv_arc_class:0000000000000000 lv_arc_class
     /tmp/ccqOegKq.s:4719   .rodata.lv_arc_class:0000000000000000 $d

UNDEFINED SYMBOLS
lv_obj_get_style_prop
lv_obj_get_width
lv_obj_get_height
lv_trigo_sin
lv_event_get_target
lv_event_get_param
lv_obj_draw_dsc_init
lv_draw_rect_dsc_init
lv_obj_init_draw_rect_dsc
lv_event_send
lv_draw_rect
lv_draw_arc_dsc_init
lv_obj_init_draw_arc_dsc
lv_draw_arc
lv_tick_get
lv_obj_add_flag
lv_obj_set_ext_click_area
lv_obj_is_visible
lv_obj_calculate_ext_draw_size
lv_obj_invalidate_area
lv_obj_invalidate
lv_obj_class_create_obj
lv_obj_class_init_obj
lv_map
lv_obj_event_base
lv_event_get_code
lv_indev_get_act
lv_indev_get_type
lv_indev_get_point
lv_atan2
lv_tick_elaps
lv_obj_get_group
lv_group_get_editing
lv_group_set_editing
lv_obj_class
