ARM GAS  /tmp/ccZjziLX.s 			page 1


   1              		.cpu cortex-m7
   2              		.arch armv7e-m
   3              		.fpu fpv5-d16
   4              		.eabi_attribute 28, 1
   5              		.eabi_attribute 20, 1
   6              		.eabi_attribute 21, 1
   7              		.eabi_attribute 23, 3
   8              		.eabi_attribute 24, 1
   9              		.eabi_attribute 25, 1
  10              		.eabi_attribute 26, 1
  11              		.eabi_attribute 30, 1
  12              		.eabi_attribute 34, 1
  13              		.eabi_attribute 18, 4
  14              		.file	"lv_arc.c"
  15              		.text
  16              	.Ltext0:
  17              		.cfi_sections	.debug_frame
  18              		.section	.text.get_center,"ax",%progbits
  19              		.align	1
  20              		.syntax unified
  21              		.thumb
  22              		.thumb_func
  24              	get_center:
  25              	.LVL0:
  26              	.LFB171:
  27              		.file 1 "Middlewares/lvgl/src/widgets/lv_arc.c"
   1:Middlewares/lvgl/src/widgets/lv_arc.c **** /**
   2:Middlewares/lvgl/src/widgets/lv_arc.c ****  * @file lv_arc.c
   3:Middlewares/lvgl/src/widgets/lv_arc.c ****  *
   4:Middlewares/lvgl/src/widgets/lv_arc.c ****  */
   5:Middlewares/lvgl/src/widgets/lv_arc.c **** 
   6:Middlewares/lvgl/src/widgets/lv_arc.c **** /*********************
   7:Middlewares/lvgl/src/widgets/lv_arc.c ****  *      INCLUDES
   8:Middlewares/lvgl/src/widgets/lv_arc.c ****  *********************/
   9:Middlewares/lvgl/src/widgets/lv_arc.c **** #include "lv_arc.h"
  10:Middlewares/lvgl/src/widgets/lv_arc.c **** #if LV_USE_ARC != 0
  11:Middlewares/lvgl/src/widgets/lv_arc.c **** 
  12:Middlewares/lvgl/src/widgets/lv_arc.c **** #include "../core/lv_group.h"
  13:Middlewares/lvgl/src/widgets/lv_arc.c **** #include "../core/lv_indev.h"
  14:Middlewares/lvgl/src/widgets/lv_arc.c **** #include "../misc/lv_assert.h"
  15:Middlewares/lvgl/src/widgets/lv_arc.c **** #include "../misc/lv_math.h"
  16:Middlewares/lvgl/src/widgets/lv_arc.c **** #include "../draw/lv_draw_arc.h"
  17:Middlewares/lvgl/src/widgets/lv_arc.c **** 
  18:Middlewares/lvgl/src/widgets/lv_arc.c **** /*********************
  19:Middlewares/lvgl/src/widgets/lv_arc.c ****  *      DEFINES
  20:Middlewares/lvgl/src/widgets/lv_arc.c ****  *********************/
  21:Middlewares/lvgl/src/widgets/lv_arc.c **** #define MY_CLASS &lv_arc_class
  22:Middlewares/lvgl/src/widgets/lv_arc.c **** 
  23:Middlewares/lvgl/src/widgets/lv_arc.c **** #define VALUE_UNSET INT16_MIN
  24:Middlewares/lvgl/src/widgets/lv_arc.c **** 
  25:Middlewares/lvgl/src/widgets/lv_arc.c **** /**********************
  26:Middlewares/lvgl/src/widgets/lv_arc.c ****  *      TYPEDEFS
  27:Middlewares/lvgl/src/widgets/lv_arc.c ****  **********************/
  28:Middlewares/lvgl/src/widgets/lv_arc.c **** 
  29:Middlewares/lvgl/src/widgets/lv_arc.c **** /**********************
  30:Middlewares/lvgl/src/widgets/lv_arc.c ****  *  STATIC PROTOTYPES
  31:Middlewares/lvgl/src/widgets/lv_arc.c ****  **********************/
ARM GAS  /tmp/ccZjziLX.s 			page 2


  32:Middlewares/lvgl/src/widgets/lv_arc.c **** 
  33:Middlewares/lvgl/src/widgets/lv_arc.c **** static void lv_arc_constructor(const lv_obj_class_t * class_p, lv_obj_t * obj);
  34:Middlewares/lvgl/src/widgets/lv_arc.c **** static void lv_arc_draw(lv_event_t * e);
  35:Middlewares/lvgl/src/widgets/lv_arc.c **** static void lv_arc_event(const lv_obj_class_t * class_p, lv_event_t * e);
  36:Middlewares/lvgl/src/widgets/lv_arc.c **** static void inv_arc_area(lv_obj_t * arc, uint16_t start_angle, uint16_t end_angle, lv_part_t part);
  37:Middlewares/lvgl/src/widgets/lv_arc.c **** static void get_center(lv_obj_t * obj, lv_point_t * center, lv_coord_t * arc_r);
  38:Middlewares/lvgl/src/widgets/lv_arc.c **** static void get_knob_area(lv_obj_t * arc, const lv_point_t * center, lv_coord_t r, lv_area_t * knob
  39:Middlewares/lvgl/src/widgets/lv_arc.c **** static void value_update(lv_obj_t * arc);
  40:Middlewares/lvgl/src/widgets/lv_arc.c **** 
  41:Middlewares/lvgl/src/widgets/lv_arc.c **** /**********************
  42:Middlewares/lvgl/src/widgets/lv_arc.c ****  *  STATIC VARIABLES
  43:Middlewares/lvgl/src/widgets/lv_arc.c ****  **********************/
  44:Middlewares/lvgl/src/widgets/lv_arc.c **** const lv_obj_class_t lv_arc_class  = {
  45:Middlewares/lvgl/src/widgets/lv_arc.c ****     .constructor_cb = lv_arc_constructor,
  46:Middlewares/lvgl/src/widgets/lv_arc.c ****     .event_cb = lv_arc_event,
  47:Middlewares/lvgl/src/widgets/lv_arc.c ****     .instance_size = sizeof(lv_arc_t),
  48:Middlewares/lvgl/src/widgets/lv_arc.c ****     .editable = LV_OBJ_CLASS_EDITABLE_TRUE,
  49:Middlewares/lvgl/src/widgets/lv_arc.c ****     .base_class = &lv_obj_class
  50:Middlewares/lvgl/src/widgets/lv_arc.c **** };
  51:Middlewares/lvgl/src/widgets/lv_arc.c **** 
  52:Middlewares/lvgl/src/widgets/lv_arc.c **** /**********************
  53:Middlewares/lvgl/src/widgets/lv_arc.c ****  *      MACROS
  54:Middlewares/lvgl/src/widgets/lv_arc.c ****  **********************/
  55:Middlewares/lvgl/src/widgets/lv_arc.c **** 
  56:Middlewares/lvgl/src/widgets/lv_arc.c **** /**********************
  57:Middlewares/lvgl/src/widgets/lv_arc.c ****  *   GLOBAL FUNCTIONS
  58:Middlewares/lvgl/src/widgets/lv_arc.c ****  **********************/
  59:Middlewares/lvgl/src/widgets/lv_arc.c **** 
  60:Middlewares/lvgl/src/widgets/lv_arc.c **** /**
  61:Middlewares/lvgl/src/widgets/lv_arc.c ****  * Create a arc object
  62:Middlewares/lvgl/src/widgets/lv_arc.c ****  * @param par pointer to an object, it will be the parent of the new arc
  63:Middlewares/lvgl/src/widgets/lv_arc.c ****  * @return pointer to the created arc
  64:Middlewares/lvgl/src/widgets/lv_arc.c ****  */
  65:Middlewares/lvgl/src/widgets/lv_arc.c **** lv_obj_t * lv_arc_create(lv_obj_t * parent)
  66:Middlewares/lvgl/src/widgets/lv_arc.c **** {
  67:Middlewares/lvgl/src/widgets/lv_arc.c ****     LV_LOG_INFO("begin")
  68:Middlewares/lvgl/src/widgets/lv_arc.c ****     lv_obj_t * obj = lv_obj_class_create_obj(MY_CLASS, parent);
  69:Middlewares/lvgl/src/widgets/lv_arc.c ****     lv_obj_class_init_obj(obj);
  70:Middlewares/lvgl/src/widgets/lv_arc.c ****     return obj;
  71:Middlewares/lvgl/src/widgets/lv_arc.c **** }
  72:Middlewares/lvgl/src/widgets/lv_arc.c **** 
  73:Middlewares/lvgl/src/widgets/lv_arc.c **** /*======================
  74:Middlewares/lvgl/src/widgets/lv_arc.c ****  * Add/remove functions
  75:Middlewares/lvgl/src/widgets/lv_arc.c ****  *=====================*/
  76:Middlewares/lvgl/src/widgets/lv_arc.c **** 
  77:Middlewares/lvgl/src/widgets/lv_arc.c **** /*
  78:Middlewares/lvgl/src/widgets/lv_arc.c ****  * New object specific "add" or "remove" functions come here
  79:Middlewares/lvgl/src/widgets/lv_arc.c ****  */
  80:Middlewares/lvgl/src/widgets/lv_arc.c **** 
  81:Middlewares/lvgl/src/widgets/lv_arc.c **** /*=====================
  82:Middlewares/lvgl/src/widgets/lv_arc.c ****  * Setter functions
  83:Middlewares/lvgl/src/widgets/lv_arc.c ****  *====================*/
  84:Middlewares/lvgl/src/widgets/lv_arc.c **** 
  85:Middlewares/lvgl/src/widgets/lv_arc.c **** /**
  86:Middlewares/lvgl/src/widgets/lv_arc.c ****  * Set the start angle of an arc. 0 deg: right, 90 bottom, etc.
  87:Middlewares/lvgl/src/widgets/lv_arc.c ****  * @param arc pointer to an arc object
  88:Middlewares/lvgl/src/widgets/lv_arc.c ****  * @param start the start angle [0..360]
ARM GAS  /tmp/ccZjziLX.s 			page 3


  89:Middlewares/lvgl/src/widgets/lv_arc.c ****  */
  90:Middlewares/lvgl/src/widgets/lv_arc.c **** void lv_arc_set_start_angle(lv_obj_t * obj, uint16_t start)
  91:Middlewares/lvgl/src/widgets/lv_arc.c **** {
  92:Middlewares/lvgl/src/widgets/lv_arc.c ****     LV_ASSERT_OBJ(obj, MY_CLASS);
  93:Middlewares/lvgl/src/widgets/lv_arc.c ****     lv_arc_t * arc = (lv_arc_t *)obj;
  94:Middlewares/lvgl/src/widgets/lv_arc.c **** 
  95:Middlewares/lvgl/src/widgets/lv_arc.c ****     if(start > 360) start -= 360;
  96:Middlewares/lvgl/src/widgets/lv_arc.c **** 
  97:Middlewares/lvgl/src/widgets/lv_arc.c ****     /*Too large move, the whole arc need to be invalidated anyway*/
  98:Middlewares/lvgl/src/widgets/lv_arc.c ****     if(LV_ABS(start -arc->indic_angle_start) >= 180) {
  99:Middlewares/lvgl/src/widgets/lv_arc.c ****         lv_obj_invalidate(obj);
 100:Middlewares/lvgl/src/widgets/lv_arc.c ****     }
 101:Middlewares/lvgl/src/widgets/lv_arc.c ****     /*Only a smaller incremental move*/
 102:Middlewares/lvgl/src/widgets/lv_arc.c ****     else if(arc->indic_angle_start >arc->indic_angle_end && start >arc->indic_angle_end) {
 103:Middlewares/lvgl/src/widgets/lv_arc.c ****         inv_arc_area(obj, LV_MIN(arc->indic_angle_start, start), LV_MAX(arc->indic_angle_start, sta
 104:Middlewares/lvgl/src/widgets/lv_arc.c ****                      LV_PART_INDICATOR);
 105:Middlewares/lvgl/src/widgets/lv_arc.c ****     }
 106:Middlewares/lvgl/src/widgets/lv_arc.c ****     /*Only a smaller incremental move*/
 107:Middlewares/lvgl/src/widgets/lv_arc.c ****     else  if(arc->indic_angle_start <arc->indic_angle_end && start <arc->indic_angle_end) {
 108:Middlewares/lvgl/src/widgets/lv_arc.c ****         inv_arc_area(obj, LV_MIN(arc->indic_angle_start, start), LV_MAX(arc->indic_angle_start, sta
 109:Middlewares/lvgl/src/widgets/lv_arc.c ****                      LV_PART_INDICATOR);
 110:Middlewares/lvgl/src/widgets/lv_arc.c ****     }
 111:Middlewares/lvgl/src/widgets/lv_arc.c ****     /*Crossing the start angle makes the whole arc change*/
 112:Middlewares/lvgl/src/widgets/lv_arc.c ****     else {
 113:Middlewares/lvgl/src/widgets/lv_arc.c ****         lv_obj_invalidate(obj);
 114:Middlewares/lvgl/src/widgets/lv_arc.c ****     }
 115:Middlewares/lvgl/src/widgets/lv_arc.c **** 
 116:Middlewares/lvgl/src/widgets/lv_arc.c ****    arc->indic_angle_start = start;
 117:Middlewares/lvgl/src/widgets/lv_arc.c **** }
 118:Middlewares/lvgl/src/widgets/lv_arc.c **** 
 119:Middlewares/lvgl/src/widgets/lv_arc.c **** /**
 120:Middlewares/lvgl/src/widgets/lv_arc.c ****  * Set the start angle of an arc. 0 deg: right, 90 bottom, etc.
 121:Middlewares/lvgl/src/widgets/lv_arc.c ****  * @param arc pointer to an arc object
 122:Middlewares/lvgl/src/widgets/lv_arc.c ****  * @param start the start angle [0..360]
 123:Middlewares/lvgl/src/widgets/lv_arc.c ****  */
 124:Middlewares/lvgl/src/widgets/lv_arc.c **** void lv_arc_set_end_angle(lv_obj_t * obj, uint16_t end)
 125:Middlewares/lvgl/src/widgets/lv_arc.c **** {
 126:Middlewares/lvgl/src/widgets/lv_arc.c ****     LV_ASSERT_OBJ(obj, MY_CLASS);
 127:Middlewares/lvgl/src/widgets/lv_arc.c ****     lv_arc_t * arc = (lv_arc_t *)obj;
 128:Middlewares/lvgl/src/widgets/lv_arc.c **** 
 129:Middlewares/lvgl/src/widgets/lv_arc.c ****     if(end > (arc->indic_angle_start + 360)) end =arc->indic_angle_start + 360;
 130:Middlewares/lvgl/src/widgets/lv_arc.c **** 
 131:Middlewares/lvgl/src/widgets/lv_arc.c ****     /*Too large move, the whole arc need to be invalidated anyway*/
 132:Middlewares/lvgl/src/widgets/lv_arc.c ****     if(LV_ABS(end -arc->indic_angle_end) >= 180) {
 133:Middlewares/lvgl/src/widgets/lv_arc.c ****         lv_obj_invalidate(obj);
 134:Middlewares/lvgl/src/widgets/lv_arc.c ****     }
 135:Middlewares/lvgl/src/widgets/lv_arc.c ****     /*Only a smaller incremental move*/
 136:Middlewares/lvgl/src/widgets/lv_arc.c ****     else if(arc->indic_angle_end >arc->indic_angle_start && end >arc->indic_angle_start) {
 137:Middlewares/lvgl/src/widgets/lv_arc.c ****         inv_arc_area(obj, LV_MIN(arc->indic_angle_end, end), LV_MAX(arc->indic_angle_end, end), LV_
 138:Middlewares/lvgl/src/widgets/lv_arc.c ****     }
 139:Middlewares/lvgl/src/widgets/lv_arc.c ****     /*Only a smaller incremental move*/
 140:Middlewares/lvgl/src/widgets/lv_arc.c ****     else  if(arc->indic_angle_end <arc->indic_angle_start && end <arc->indic_angle_start) {
 141:Middlewares/lvgl/src/widgets/lv_arc.c ****         inv_arc_area(obj, LV_MIN(arc->indic_angle_end, end), LV_MAX(arc->indic_angle_end, end), LV_
 142:Middlewares/lvgl/src/widgets/lv_arc.c ****     }
 143:Middlewares/lvgl/src/widgets/lv_arc.c ****     /*Crossing the end angle makes the whole arc change*/
 144:Middlewares/lvgl/src/widgets/lv_arc.c ****     else {
 145:Middlewares/lvgl/src/widgets/lv_arc.c ****         lv_obj_invalidate(obj);
ARM GAS  /tmp/ccZjziLX.s 			page 4


 146:Middlewares/lvgl/src/widgets/lv_arc.c ****     }
 147:Middlewares/lvgl/src/widgets/lv_arc.c **** 
 148:Middlewares/lvgl/src/widgets/lv_arc.c ****    arc->indic_angle_end = end;
 149:Middlewares/lvgl/src/widgets/lv_arc.c **** }
 150:Middlewares/lvgl/src/widgets/lv_arc.c **** 
 151:Middlewares/lvgl/src/widgets/lv_arc.c **** /**
 152:Middlewares/lvgl/src/widgets/lv_arc.c ****  * Set the start and end angles
 153:Middlewares/lvgl/src/widgets/lv_arc.c ****  * @param arc pointer to an arc object
 154:Middlewares/lvgl/src/widgets/lv_arc.c ****  * @param start the start angle
 155:Middlewares/lvgl/src/widgets/lv_arc.c ****  * @param end the end angle
 156:Middlewares/lvgl/src/widgets/lv_arc.c ****  */
 157:Middlewares/lvgl/src/widgets/lv_arc.c **** void lv_arc_set_angles(lv_obj_t * obj, uint16_t start, uint16_t end)
 158:Middlewares/lvgl/src/widgets/lv_arc.c **** {
 159:Middlewares/lvgl/src/widgets/lv_arc.c ****     LV_ASSERT_OBJ(obj, MY_CLASS);
 160:Middlewares/lvgl/src/widgets/lv_arc.c ****     lv_arc_t * arc = (lv_arc_t *)obj;
 161:Middlewares/lvgl/src/widgets/lv_arc.c **** 
 162:Middlewares/lvgl/src/widgets/lv_arc.c ****     if(start > 360) start -= 360;
 163:Middlewares/lvgl/src/widgets/lv_arc.c ****     if(end > (start + 360)) end = start + 360;
 164:Middlewares/lvgl/src/widgets/lv_arc.c **** 
 165:Middlewares/lvgl/src/widgets/lv_arc.c ****     inv_arc_area(obj,arc->indic_angle_start,arc->indic_angle_end, LV_PART_INDICATOR);
 166:Middlewares/lvgl/src/widgets/lv_arc.c **** 
 167:Middlewares/lvgl/src/widgets/lv_arc.c ****     arc->indic_angle_start = start;
 168:Middlewares/lvgl/src/widgets/lv_arc.c ****     arc->indic_angle_end = end;
 169:Middlewares/lvgl/src/widgets/lv_arc.c **** 
 170:Middlewares/lvgl/src/widgets/lv_arc.c ****     inv_arc_area(obj,arc->indic_angle_start,arc->indic_angle_end, LV_PART_INDICATOR);
 171:Middlewares/lvgl/src/widgets/lv_arc.c **** }
 172:Middlewares/lvgl/src/widgets/lv_arc.c **** 
 173:Middlewares/lvgl/src/widgets/lv_arc.c **** /**
 174:Middlewares/lvgl/src/widgets/lv_arc.c ****  * Set the start angle of an arc background. 0 deg: right, 90 bottom, etc.
 175:Middlewares/lvgl/src/widgets/lv_arc.c ****  * @param arc pointer to an arc object
 176:Middlewares/lvgl/src/widgets/lv_arc.c ****  * @param start the start angle
 177:Middlewares/lvgl/src/widgets/lv_arc.c ****  */
 178:Middlewares/lvgl/src/widgets/lv_arc.c **** void lv_arc_set_bg_start_angle(lv_obj_t * obj, uint16_t start)
 179:Middlewares/lvgl/src/widgets/lv_arc.c **** {
 180:Middlewares/lvgl/src/widgets/lv_arc.c ****     LV_ASSERT_OBJ(obj, MY_CLASS);
 181:Middlewares/lvgl/src/widgets/lv_arc.c ****     lv_arc_t * arc = (lv_arc_t *)obj;
 182:Middlewares/lvgl/src/widgets/lv_arc.c **** 
 183:Middlewares/lvgl/src/widgets/lv_arc.c ****     if(start > 360) start -= 360;
 184:Middlewares/lvgl/src/widgets/lv_arc.c **** 
 185:Middlewares/lvgl/src/widgets/lv_arc.c ****     /*Too large move, the whole arc need to be invalidated anyway*/
 186:Middlewares/lvgl/src/widgets/lv_arc.c ****     if(LV_ABS(start -arc->bg_angle_start) >= 180) {
 187:Middlewares/lvgl/src/widgets/lv_arc.c ****         lv_obj_invalidate(obj);
 188:Middlewares/lvgl/src/widgets/lv_arc.c ****     }
 189:Middlewares/lvgl/src/widgets/lv_arc.c ****     /*Only a smaller incremental move*/
 190:Middlewares/lvgl/src/widgets/lv_arc.c ****     else if(arc->bg_angle_start >arc->bg_angle_end && start >arc->bg_angle_end) {
 191:Middlewares/lvgl/src/widgets/lv_arc.c ****         inv_arc_area(obj, LV_MIN(arc->bg_angle_start, start), LV_MAX(arc->bg_angle_start, start), L
 192:Middlewares/lvgl/src/widgets/lv_arc.c ****     }
 193:Middlewares/lvgl/src/widgets/lv_arc.c ****     /*Only a smaller incremental move*/
 194:Middlewares/lvgl/src/widgets/lv_arc.c ****     else  if(arc->bg_angle_start <arc->bg_angle_end && start <arc->bg_angle_end) {
 195:Middlewares/lvgl/src/widgets/lv_arc.c ****         inv_arc_area(obj, LV_MIN(arc->bg_angle_start, start), LV_MAX(arc->bg_angle_start, start), L
 196:Middlewares/lvgl/src/widgets/lv_arc.c ****     }
 197:Middlewares/lvgl/src/widgets/lv_arc.c ****     /*Crossing the start angle makes the whole arc change*/
 198:Middlewares/lvgl/src/widgets/lv_arc.c ****     else {
 199:Middlewares/lvgl/src/widgets/lv_arc.c ****         lv_obj_invalidate(obj);
 200:Middlewares/lvgl/src/widgets/lv_arc.c ****     }
 201:Middlewares/lvgl/src/widgets/lv_arc.c **** 
 202:Middlewares/lvgl/src/widgets/lv_arc.c ****    arc->bg_angle_start = start;
ARM GAS  /tmp/ccZjziLX.s 			page 5


 203:Middlewares/lvgl/src/widgets/lv_arc.c **** 
 204:Middlewares/lvgl/src/widgets/lv_arc.c ****     value_update(obj);
 205:Middlewares/lvgl/src/widgets/lv_arc.c **** }
 206:Middlewares/lvgl/src/widgets/lv_arc.c **** 
 207:Middlewares/lvgl/src/widgets/lv_arc.c **** /**
 208:Middlewares/lvgl/src/widgets/lv_arc.c ****  * Set the start angle of an arc background. 0 deg: right, 90 bottom etc.
 209:Middlewares/lvgl/src/widgets/lv_arc.c ****  * @param arc pointer to an arc object
 210:Middlewares/lvgl/src/widgets/lv_arc.c ****  * @param end the end angle
 211:Middlewares/lvgl/src/widgets/lv_arc.c ****  */
 212:Middlewares/lvgl/src/widgets/lv_arc.c **** void lv_arc_set_bg_end_angle(lv_obj_t * obj, uint16_t end)
 213:Middlewares/lvgl/src/widgets/lv_arc.c **** {
 214:Middlewares/lvgl/src/widgets/lv_arc.c ****     LV_ASSERT_OBJ(obj, MY_CLASS);
 215:Middlewares/lvgl/src/widgets/lv_arc.c ****     lv_arc_t * arc = (lv_arc_t *)obj;
 216:Middlewares/lvgl/src/widgets/lv_arc.c **** 
 217:Middlewares/lvgl/src/widgets/lv_arc.c **** 
 218:Middlewares/lvgl/src/widgets/lv_arc.c ****     if(end > (arc->bg_angle_start + 360)) end =arc->bg_angle_start + 360;
 219:Middlewares/lvgl/src/widgets/lv_arc.c **** 
 220:Middlewares/lvgl/src/widgets/lv_arc.c ****     /*Too large move, the whole arc need to be invalidated anyway*/
 221:Middlewares/lvgl/src/widgets/lv_arc.c ****     if(LV_ABS(end -arc->bg_angle_end) >= 180) {
 222:Middlewares/lvgl/src/widgets/lv_arc.c ****         lv_obj_invalidate(obj);
 223:Middlewares/lvgl/src/widgets/lv_arc.c ****     }
 224:Middlewares/lvgl/src/widgets/lv_arc.c ****     /*Only a smaller incremental move*/
 225:Middlewares/lvgl/src/widgets/lv_arc.c ****     else if(arc->bg_angle_end >arc->bg_angle_start && end >arc->bg_angle_start) {
 226:Middlewares/lvgl/src/widgets/lv_arc.c ****         inv_arc_area(obj, LV_MIN(arc->bg_angle_end, end), LV_MAX(arc->bg_angle_end, end), LV_PART_M
 227:Middlewares/lvgl/src/widgets/lv_arc.c ****     }
 228:Middlewares/lvgl/src/widgets/lv_arc.c ****     /*Only a smaller incremental move*/
 229:Middlewares/lvgl/src/widgets/lv_arc.c ****     else  if(arc->bg_angle_end <arc->bg_angle_start && end <arc->bg_angle_start) {
 230:Middlewares/lvgl/src/widgets/lv_arc.c ****         inv_arc_area(obj, LV_MIN(arc->bg_angle_end, end), LV_MAX(arc->bg_angle_end, end), LV_PART_M
 231:Middlewares/lvgl/src/widgets/lv_arc.c ****     }
 232:Middlewares/lvgl/src/widgets/lv_arc.c ****     /*Crossing the end angle makes the whole arc change*/
 233:Middlewares/lvgl/src/widgets/lv_arc.c ****     else {
 234:Middlewares/lvgl/src/widgets/lv_arc.c ****         lv_obj_invalidate(obj);
 235:Middlewares/lvgl/src/widgets/lv_arc.c ****     }
 236:Middlewares/lvgl/src/widgets/lv_arc.c **** 
 237:Middlewares/lvgl/src/widgets/lv_arc.c ****     value_update(obj);
 238:Middlewares/lvgl/src/widgets/lv_arc.c **** 
 239:Middlewares/lvgl/src/widgets/lv_arc.c ****    arc->bg_angle_end = end;
 240:Middlewares/lvgl/src/widgets/lv_arc.c **** }
 241:Middlewares/lvgl/src/widgets/lv_arc.c **** 
 242:Middlewares/lvgl/src/widgets/lv_arc.c **** /**
 243:Middlewares/lvgl/src/widgets/lv_arc.c ****  * Set the start and end angles of the arc background
 244:Middlewares/lvgl/src/widgets/lv_arc.c ****  * @param arc pointer to an arc object
 245:Middlewares/lvgl/src/widgets/lv_arc.c ****  * @param start the start angle
 246:Middlewares/lvgl/src/widgets/lv_arc.c ****  * @param end the end angle
 247:Middlewares/lvgl/src/widgets/lv_arc.c ****  */
 248:Middlewares/lvgl/src/widgets/lv_arc.c **** void lv_arc_set_bg_angles(lv_obj_t * obj, uint16_t start, uint16_t end)
 249:Middlewares/lvgl/src/widgets/lv_arc.c **** {
 250:Middlewares/lvgl/src/widgets/lv_arc.c **** 
 251:Middlewares/lvgl/src/widgets/lv_arc.c ****     LV_ASSERT_OBJ(obj, MY_CLASS);
 252:Middlewares/lvgl/src/widgets/lv_arc.c ****     lv_arc_t * arc = (lv_arc_t *)obj;
 253:Middlewares/lvgl/src/widgets/lv_arc.c **** 
 254:Middlewares/lvgl/src/widgets/lv_arc.c ****     if(start > 360) start -= 360;
 255:Middlewares/lvgl/src/widgets/lv_arc.c ****     if(end > (start + 360)) end = start + 360;
 256:Middlewares/lvgl/src/widgets/lv_arc.c **** 
 257:Middlewares/lvgl/src/widgets/lv_arc.c ****     inv_arc_area(obj,arc->bg_angle_start,arc->bg_angle_end, LV_PART_MAIN);
 258:Middlewares/lvgl/src/widgets/lv_arc.c **** 
 259:Middlewares/lvgl/src/widgets/lv_arc.c ****    arc->bg_angle_start = start;
ARM GAS  /tmp/ccZjziLX.s 			page 6


 260:Middlewares/lvgl/src/widgets/lv_arc.c ****    arc->bg_angle_end = end;
 261:Middlewares/lvgl/src/widgets/lv_arc.c **** 
 262:Middlewares/lvgl/src/widgets/lv_arc.c ****     inv_arc_area(obj,arc->bg_angle_start,arc->bg_angle_end, LV_PART_MAIN);
 263:Middlewares/lvgl/src/widgets/lv_arc.c **** 
 264:Middlewares/lvgl/src/widgets/lv_arc.c ****     value_update(obj);
 265:Middlewares/lvgl/src/widgets/lv_arc.c **** }
 266:Middlewares/lvgl/src/widgets/lv_arc.c **** 
 267:Middlewares/lvgl/src/widgets/lv_arc.c **** /**
 268:Middlewares/lvgl/src/widgets/lv_arc.c ****  * Set the rotation for the whole arc
 269:Middlewares/lvgl/src/widgets/lv_arc.c ****  * @param arc pointer to an arc object
 270:Middlewares/lvgl/src/widgets/lv_arc.c ****  * @param rotation rotation angle
 271:Middlewares/lvgl/src/widgets/lv_arc.c ****  */
 272:Middlewares/lvgl/src/widgets/lv_arc.c **** void lv_arc_set_rotation(lv_obj_t * obj, uint16_t rotation)
 273:Middlewares/lvgl/src/widgets/lv_arc.c **** {
 274:Middlewares/lvgl/src/widgets/lv_arc.c **** 
 275:Middlewares/lvgl/src/widgets/lv_arc.c ****     LV_ASSERT_OBJ(obj, MY_CLASS);
 276:Middlewares/lvgl/src/widgets/lv_arc.c ****     lv_arc_t * arc = (lv_arc_t *)obj;
 277:Middlewares/lvgl/src/widgets/lv_arc.c **** 
 278:Middlewares/lvgl/src/widgets/lv_arc.c ****    arc->rotation = rotation;
 279:Middlewares/lvgl/src/widgets/lv_arc.c **** 
 280:Middlewares/lvgl/src/widgets/lv_arc.c ****     lv_obj_invalidate(obj);
 281:Middlewares/lvgl/src/widgets/lv_arc.c **** }
 282:Middlewares/lvgl/src/widgets/lv_arc.c **** 
 283:Middlewares/lvgl/src/widgets/lv_arc.c **** /**
 284:Middlewares/lvgl/src/widgets/lv_arc.c ****  * Set the type of arc.
 285:Middlewares/lvgl/src/widgets/lv_arc.c ****  * @param arc pointer to arc object
 286:Middlewares/lvgl/src/widgets/lv_arc.c ****  * @param type arc type
 287:Middlewares/lvgl/src/widgets/lv_arc.c ****  */
 288:Middlewares/lvgl/src/widgets/lv_arc.c **** void lv_arc_set_mode(lv_obj_t * obj, lv_arc_mode_t type)
 289:Middlewares/lvgl/src/widgets/lv_arc.c **** {
 290:Middlewares/lvgl/src/widgets/lv_arc.c ****     LV_ASSERT_OBJ(obj, MY_CLASS);
 291:Middlewares/lvgl/src/widgets/lv_arc.c ****     lv_arc_t * arc = (lv_arc_t *)obj;
 292:Middlewares/lvgl/src/widgets/lv_arc.c **** 
 293:Middlewares/lvgl/src/widgets/lv_arc.c ****     int16_t val =arc->value;
 294:Middlewares/lvgl/src/widgets/lv_arc.c **** 
 295:Middlewares/lvgl/src/widgets/lv_arc.c ****    arc->type = type;
 296:Middlewares/lvgl/src/widgets/lv_arc.c ****    arc->value = -1; /** Force set_value handling*/
 297:Middlewares/lvgl/src/widgets/lv_arc.c **** 
 298:Middlewares/lvgl/src/widgets/lv_arc.c ****     int16_t bg_midpoint, bg_end =arc->bg_angle_end;
 299:Middlewares/lvgl/src/widgets/lv_arc.c ****     if(arc->bg_angle_end <arc->bg_angle_start) bg_end =arc->bg_angle_end + 360;
 300:Middlewares/lvgl/src/widgets/lv_arc.c **** 
 301:Middlewares/lvgl/src/widgets/lv_arc.c ****     switch(arc->type) {
 302:Middlewares/lvgl/src/widgets/lv_arc.c ****         case LV_ARC_MODE_SYMMETRICAL:
 303:Middlewares/lvgl/src/widgets/lv_arc.c ****             bg_midpoint = (arc->bg_angle_start + bg_end) / 2;
 304:Middlewares/lvgl/src/widgets/lv_arc.c ****             lv_arc_set_start_angle(obj, bg_midpoint);
 305:Middlewares/lvgl/src/widgets/lv_arc.c ****             lv_arc_set_end_angle(obj, bg_midpoint);
 306:Middlewares/lvgl/src/widgets/lv_arc.c ****             break;
 307:Middlewares/lvgl/src/widgets/lv_arc.c ****         case LV_ARC_MODE_REVERSE:
 308:Middlewares/lvgl/src/widgets/lv_arc.c ****             lv_arc_set_end_angle(obj,arc->bg_angle_end);
 309:Middlewares/lvgl/src/widgets/lv_arc.c ****             break;
 310:Middlewares/lvgl/src/widgets/lv_arc.c ****         default: /** LV_ARC_TYPE_NORMAL*/
 311:Middlewares/lvgl/src/widgets/lv_arc.c ****             lv_arc_set_start_angle(obj,arc->bg_angle_start);
 312:Middlewares/lvgl/src/widgets/lv_arc.c ****     }
 313:Middlewares/lvgl/src/widgets/lv_arc.c **** 
 314:Middlewares/lvgl/src/widgets/lv_arc.c ****     lv_arc_set_value(obj, val);
 315:Middlewares/lvgl/src/widgets/lv_arc.c **** }
 316:Middlewares/lvgl/src/widgets/lv_arc.c **** 
ARM GAS  /tmp/ccZjziLX.s 			page 7


 317:Middlewares/lvgl/src/widgets/lv_arc.c **** /**
 318:Middlewares/lvgl/src/widgets/lv_arc.c ****  * Set a new value on the arc
 319:Middlewares/lvgl/src/widgets/lv_arc.c ****  * @param arc pointer to a arc object
 320:Middlewares/lvgl/src/widgets/lv_arc.c ****  * @param value new value
 321:Middlewares/lvgl/src/widgets/lv_arc.c ****  */
 322:Middlewares/lvgl/src/widgets/lv_arc.c **** void lv_arc_set_value(lv_obj_t * obj, int16_t value)
 323:Middlewares/lvgl/src/widgets/lv_arc.c **** {
 324:Middlewares/lvgl/src/widgets/lv_arc.c ****     LV_ASSERT_OBJ(obj, MY_CLASS);
 325:Middlewares/lvgl/src/widgets/lv_arc.c ****     lv_arc_t * arc = (lv_arc_t *)obj;
 326:Middlewares/lvgl/src/widgets/lv_arc.c **** 
 327:Middlewares/lvgl/src/widgets/lv_arc.c ****     if(arc->value == value) return;
 328:Middlewares/lvgl/src/widgets/lv_arc.c **** 
 329:Middlewares/lvgl/src/widgets/lv_arc.c ****     int16_t new_value;
 330:Middlewares/lvgl/src/widgets/lv_arc.c ****     new_value = value >arc->max_value ?arc->max_value : value;
 331:Middlewares/lvgl/src/widgets/lv_arc.c ****     new_value = new_value <arc->min_value ?arc->min_value : new_value;
 332:Middlewares/lvgl/src/widgets/lv_arc.c **** 
 333:Middlewares/lvgl/src/widgets/lv_arc.c ****     if(arc->value == new_value) return;
 334:Middlewares/lvgl/src/widgets/lv_arc.c ****    arc->value = new_value;
 335:Middlewares/lvgl/src/widgets/lv_arc.c **** 
 336:Middlewares/lvgl/src/widgets/lv_arc.c ****     value_update(obj);
 337:Middlewares/lvgl/src/widgets/lv_arc.c **** }
 338:Middlewares/lvgl/src/widgets/lv_arc.c **** 
 339:Middlewares/lvgl/src/widgets/lv_arc.c **** /**
 340:Middlewares/lvgl/src/widgets/lv_arc.c ****  * Set minimum and the maximum values of a arc
 341:Middlewares/lvgl/src/widgets/lv_arc.c ****  * @param arc pointer to the arc object
 342:Middlewares/lvgl/src/widgets/lv_arc.c ****  * @param min minimum value
 343:Middlewares/lvgl/src/widgets/lv_arc.c ****  * @param max maximum value
 344:Middlewares/lvgl/src/widgets/lv_arc.c ****  */
 345:Middlewares/lvgl/src/widgets/lv_arc.c **** void lv_arc_set_range(lv_obj_t * obj, int16_t min, int16_t max)
 346:Middlewares/lvgl/src/widgets/lv_arc.c **** {
 347:Middlewares/lvgl/src/widgets/lv_arc.c ****     LV_ASSERT_OBJ(obj, MY_CLASS);
 348:Middlewares/lvgl/src/widgets/lv_arc.c ****     lv_arc_t * arc = (lv_arc_t *)obj;
 349:Middlewares/lvgl/src/widgets/lv_arc.c **** 
 350:Middlewares/lvgl/src/widgets/lv_arc.c ****     if(arc->min_value == min &&arc->max_value == max) return;
 351:Middlewares/lvgl/src/widgets/lv_arc.c **** 
 352:Middlewares/lvgl/src/widgets/lv_arc.c ****    arc->min_value = min;
 353:Middlewares/lvgl/src/widgets/lv_arc.c ****    arc->max_value = max;
 354:Middlewares/lvgl/src/widgets/lv_arc.c **** 
 355:Middlewares/lvgl/src/widgets/lv_arc.c ****     if(arc->value < min) {
 356:Middlewares/lvgl/src/widgets/lv_arc.c ****        arc->value = min;
 357:Middlewares/lvgl/src/widgets/lv_arc.c ****     }
 358:Middlewares/lvgl/src/widgets/lv_arc.c ****     if(arc->value > max) {
 359:Middlewares/lvgl/src/widgets/lv_arc.c ****        arc->value = max;
 360:Middlewares/lvgl/src/widgets/lv_arc.c ****     }
 361:Middlewares/lvgl/src/widgets/lv_arc.c **** 
 362:Middlewares/lvgl/src/widgets/lv_arc.c ****     value_update(obj); /*value has changed relative to the new range*/
 363:Middlewares/lvgl/src/widgets/lv_arc.c **** }
 364:Middlewares/lvgl/src/widgets/lv_arc.c **** 
 365:Middlewares/lvgl/src/widgets/lv_arc.c **** /**
 366:Middlewares/lvgl/src/widgets/lv_arc.c ****  * Set the threshold of arc knob increments
 367:Middlewares/lvgl/src/widgets/lv_arc.c ****  * position.
 368:Middlewares/lvgl/src/widgets/lv_arc.c ****  * @param arc pointer to a arc object
 369:Middlewares/lvgl/src/widgets/lv_arc.c ****  * @param threshold increment threshold
 370:Middlewares/lvgl/src/widgets/lv_arc.c ****  */
 371:Middlewares/lvgl/src/widgets/lv_arc.c **** void lv_arc_set_change_rate(lv_obj_t * obj, uint16_t rate)
 372:Middlewares/lvgl/src/widgets/lv_arc.c **** {
 373:Middlewares/lvgl/src/widgets/lv_arc.c ****     LV_ASSERT_OBJ(obj, MY_CLASS);
ARM GAS  /tmp/ccZjziLX.s 			page 8


 374:Middlewares/lvgl/src/widgets/lv_arc.c ****     lv_arc_t * arc = (lv_arc_t *)obj;
 375:Middlewares/lvgl/src/widgets/lv_arc.c **** 
 376:Middlewares/lvgl/src/widgets/lv_arc.c ****    arc->chg_rate = rate;
 377:Middlewares/lvgl/src/widgets/lv_arc.c **** }
 378:Middlewares/lvgl/src/widgets/lv_arc.c **** 
 379:Middlewares/lvgl/src/widgets/lv_arc.c **** /*=====================
 380:Middlewares/lvgl/src/widgets/lv_arc.c ****  * Getter functions
 381:Middlewares/lvgl/src/widgets/lv_arc.c ****  *====================*/
 382:Middlewares/lvgl/src/widgets/lv_arc.c **** 
 383:Middlewares/lvgl/src/widgets/lv_arc.c **** /**
 384:Middlewares/lvgl/src/widgets/lv_arc.c ****  * Get the start angle of an arc.
 385:Middlewares/lvgl/src/widgets/lv_arc.c ****  * @param arc pointer to an arc object
 386:Middlewares/lvgl/src/widgets/lv_arc.c ****  * @return the start angle [0..360]
 387:Middlewares/lvgl/src/widgets/lv_arc.c ****  */
 388:Middlewares/lvgl/src/widgets/lv_arc.c **** uint16_t lv_arc_get_angle_start(lv_obj_t * obj)
 389:Middlewares/lvgl/src/widgets/lv_arc.c **** {
 390:Middlewares/lvgl/src/widgets/lv_arc.c ****     LV_ASSERT_OBJ(obj, MY_CLASS);
 391:Middlewares/lvgl/src/widgets/lv_arc.c ****     return ((lv_arc_t*) obj)->indic_angle_start;
 392:Middlewares/lvgl/src/widgets/lv_arc.c **** }
 393:Middlewares/lvgl/src/widgets/lv_arc.c **** 
 394:Middlewares/lvgl/src/widgets/lv_arc.c **** /**
 395:Middlewares/lvgl/src/widgets/lv_arc.c ****  * Get the end angle of an arc.
 396:Middlewares/lvgl/src/widgets/lv_arc.c ****  * @param arc pointer to an arc object
 397:Middlewares/lvgl/src/widgets/lv_arc.c ****  * @return the end angle [0..360]
 398:Middlewares/lvgl/src/widgets/lv_arc.c ****  */
 399:Middlewares/lvgl/src/widgets/lv_arc.c ****  uint16_t lv_arc_get_angle_end(lv_obj_t * obj)
 400:Middlewares/lvgl/src/widgets/lv_arc.c **** {
 401:Middlewares/lvgl/src/widgets/lv_arc.c ****     LV_ASSERT_OBJ(obj, MY_CLASS);
 402:Middlewares/lvgl/src/widgets/lv_arc.c ****     return ((lv_arc_t*) obj)->indic_angle_end;
 403:Middlewares/lvgl/src/widgets/lv_arc.c **** }
 404:Middlewares/lvgl/src/widgets/lv_arc.c **** 
 405:Middlewares/lvgl/src/widgets/lv_arc.c **** /**
 406:Middlewares/lvgl/src/widgets/lv_arc.c ****  * Get the start angle of an arc background.
 407:Middlewares/lvgl/src/widgets/lv_arc.c ****  * @param arc pointer to an arc object
 408:Middlewares/lvgl/src/widgets/lv_arc.c ****  * @return the start angle [0..360]
 409:Middlewares/lvgl/src/widgets/lv_arc.c ****  */
 410:Middlewares/lvgl/src/widgets/lv_arc.c **** uint16_t lv_arc_get_bg_angle_start(lv_obj_t * obj)
 411:Middlewares/lvgl/src/widgets/lv_arc.c **** {
 412:Middlewares/lvgl/src/widgets/lv_arc.c ****     LV_ASSERT_OBJ(obj, MY_CLASS);
 413:Middlewares/lvgl/src/widgets/lv_arc.c ****     return ((lv_arc_t*) obj)->bg_angle_start;
 414:Middlewares/lvgl/src/widgets/lv_arc.c **** }
 415:Middlewares/lvgl/src/widgets/lv_arc.c **** 
 416:Middlewares/lvgl/src/widgets/lv_arc.c **** /**
 417:Middlewares/lvgl/src/widgets/lv_arc.c ****  * Get the end angle of an arc background.
 418:Middlewares/lvgl/src/widgets/lv_arc.c ****  * @param arc pointer to an arc object
 419:Middlewares/lvgl/src/widgets/lv_arc.c ****  * @return the end angle [0..360]
 420:Middlewares/lvgl/src/widgets/lv_arc.c ****  */
 421:Middlewares/lvgl/src/widgets/lv_arc.c **** uint16_t lv_arc_get_bg_angle_end(lv_obj_t * obj)
 422:Middlewares/lvgl/src/widgets/lv_arc.c **** {
 423:Middlewares/lvgl/src/widgets/lv_arc.c ****     LV_ASSERT_OBJ(obj, MY_CLASS);
 424:Middlewares/lvgl/src/widgets/lv_arc.c ****     return ((lv_arc_t*) obj)->bg_angle_end;
 425:Middlewares/lvgl/src/widgets/lv_arc.c **** }
 426:Middlewares/lvgl/src/widgets/lv_arc.c **** 
 427:Middlewares/lvgl/src/widgets/lv_arc.c **** 
 428:Middlewares/lvgl/src/widgets/lv_arc.c **** /**
 429:Middlewares/lvgl/src/widgets/lv_arc.c ****  * Get the value of a arc
 430:Middlewares/lvgl/src/widgets/lv_arc.c ****  * @param arc pointer to a arc object
ARM GAS  /tmp/ccZjziLX.s 			page 9


 431:Middlewares/lvgl/src/widgets/lv_arc.c ****  * @return the value of the arc
 432:Middlewares/lvgl/src/widgets/lv_arc.c ****  */
 433:Middlewares/lvgl/src/widgets/lv_arc.c **** int16_t lv_arc_get_value(const lv_obj_t * obj)
 434:Middlewares/lvgl/src/widgets/lv_arc.c **** {
 435:Middlewares/lvgl/src/widgets/lv_arc.c ****     LV_ASSERT_OBJ(obj, MY_CLASS);
 436:Middlewares/lvgl/src/widgets/lv_arc.c ****     return ((lv_arc_t*) obj)->value;
 437:Middlewares/lvgl/src/widgets/lv_arc.c **** }
 438:Middlewares/lvgl/src/widgets/lv_arc.c **** 
 439:Middlewares/lvgl/src/widgets/lv_arc.c **** /**
 440:Middlewares/lvgl/src/widgets/lv_arc.c ****  * Get the minimum value of a arc
 441:Middlewares/lvgl/src/widgets/lv_arc.c ****  * @param arc pointer to a arc object
 442:Middlewares/lvgl/src/widgets/lv_arc.c ****  * @return the minimum value of the arc
 443:Middlewares/lvgl/src/widgets/lv_arc.c ****  */
 444:Middlewares/lvgl/src/widgets/lv_arc.c **** int16_t lv_arc_get_min_value(const lv_obj_t * obj)
 445:Middlewares/lvgl/src/widgets/lv_arc.c **** {
 446:Middlewares/lvgl/src/widgets/lv_arc.c ****     LV_ASSERT_OBJ(obj, MY_CLASS);
 447:Middlewares/lvgl/src/widgets/lv_arc.c ****     return ((lv_arc_t*) obj)->min_value;
 448:Middlewares/lvgl/src/widgets/lv_arc.c **** }
 449:Middlewares/lvgl/src/widgets/lv_arc.c **** 
 450:Middlewares/lvgl/src/widgets/lv_arc.c **** /**
 451:Middlewares/lvgl/src/widgets/lv_arc.c ****  * Get the maximum value of a arc
 452:Middlewares/lvgl/src/widgets/lv_arc.c ****  * @param arc pointer to a arc object
 453:Middlewares/lvgl/src/widgets/lv_arc.c ****  * @return the maximum value of the arc
 454:Middlewares/lvgl/src/widgets/lv_arc.c ****  */
 455:Middlewares/lvgl/src/widgets/lv_arc.c **** int16_t lv_arc_get_max_value(const lv_obj_t * obj)
 456:Middlewares/lvgl/src/widgets/lv_arc.c **** {
 457:Middlewares/lvgl/src/widgets/lv_arc.c ****     LV_ASSERT_OBJ(obj, MY_CLASS);
 458:Middlewares/lvgl/src/widgets/lv_arc.c ****     return ((lv_arc_t*) obj)->max_value;
 459:Middlewares/lvgl/src/widgets/lv_arc.c **** }
 460:Middlewares/lvgl/src/widgets/lv_arc.c **** 
 461:Middlewares/lvgl/src/widgets/lv_arc.c **** /**
 462:Middlewares/lvgl/src/widgets/lv_arc.c ****  * Get whether the arc is type or not.
 463:Middlewares/lvgl/src/widgets/lv_arc.c ****  * @param arc pointer to a arc object
 464:Middlewares/lvgl/src/widgets/lv_arc.c ****  * @return arc type
 465:Middlewares/lvgl/src/widgets/lv_arc.c ****  */
 466:Middlewares/lvgl/src/widgets/lv_arc.c **** lv_arc_mode_t lv_arc_get_mode(const lv_obj_t * obj)
 467:Middlewares/lvgl/src/widgets/lv_arc.c **** {
 468:Middlewares/lvgl/src/widgets/lv_arc.c ****     LV_ASSERT_OBJ(obj, MY_CLASS);
 469:Middlewares/lvgl/src/widgets/lv_arc.c ****     return ((lv_arc_t*) obj)->type;
 470:Middlewares/lvgl/src/widgets/lv_arc.c **** }
 471:Middlewares/lvgl/src/widgets/lv_arc.c **** 
 472:Middlewares/lvgl/src/widgets/lv_arc.c **** /*=====================
 473:Middlewares/lvgl/src/widgets/lv_arc.c ****  * Other functions
 474:Middlewares/lvgl/src/widgets/lv_arc.c ****  *====================*/
 475:Middlewares/lvgl/src/widgets/lv_arc.c **** 
 476:Middlewares/lvgl/src/widgets/lv_arc.c **** /*
 477:Middlewares/lvgl/src/widgets/lv_arc.c ****  * New object specific "other" functions come here
 478:Middlewares/lvgl/src/widgets/lv_arc.c ****  */
 479:Middlewares/lvgl/src/widgets/lv_arc.c **** 
 480:Middlewares/lvgl/src/widgets/lv_arc.c **** /**********************
 481:Middlewares/lvgl/src/widgets/lv_arc.c ****  *   STATIC FUNCTIONS
 482:Middlewares/lvgl/src/widgets/lv_arc.c ****  **********************/
 483:Middlewares/lvgl/src/widgets/lv_arc.c **** 
 484:Middlewares/lvgl/src/widgets/lv_arc.c **** static void lv_arc_constructor(const lv_obj_class_t * class_p, lv_obj_t * obj)
 485:Middlewares/lvgl/src/widgets/lv_arc.c **** {
 486:Middlewares/lvgl/src/widgets/lv_arc.c ****     LV_UNUSED(class_p);
 487:Middlewares/lvgl/src/widgets/lv_arc.c ****     LV_TRACE_OBJ_CREATE("begin");
ARM GAS  /tmp/ccZjziLX.s 			page 10


 488:Middlewares/lvgl/src/widgets/lv_arc.c **** 
 489:Middlewares/lvgl/src/widgets/lv_arc.c ****     lv_arc_t * arc = (lv_arc_t *)obj;
 490:Middlewares/lvgl/src/widgets/lv_arc.c **** 
 491:Middlewares/lvgl/src/widgets/lv_arc.c ****    /*Initialize the allocated 'ext'*/
 492:Middlewares/lvgl/src/widgets/lv_arc.c ****    arc->rotation = 0;
 493:Middlewares/lvgl/src/widgets/lv_arc.c ****    arc->bg_angle_start = 135;
 494:Middlewares/lvgl/src/widgets/lv_arc.c ****    arc->bg_angle_end   = 45;
 495:Middlewares/lvgl/src/widgets/lv_arc.c ****    arc->indic_angle_start = 135;
 496:Middlewares/lvgl/src/widgets/lv_arc.c ****    arc->indic_angle_end   = 270;
 497:Middlewares/lvgl/src/widgets/lv_arc.c ****    arc->type = LV_ARC_MODE_NORMAL;
 498:Middlewares/lvgl/src/widgets/lv_arc.c ****    arc->value = VALUE_UNSET;
 499:Middlewares/lvgl/src/widgets/lv_arc.c ****    arc->min_close = 1;
 500:Middlewares/lvgl/src/widgets/lv_arc.c ****    arc->min_value = 0;
 501:Middlewares/lvgl/src/widgets/lv_arc.c ****    arc->max_value = 100;
 502:Middlewares/lvgl/src/widgets/lv_arc.c ****    arc->dragging = false;
 503:Middlewares/lvgl/src/widgets/lv_arc.c ****    arc->chg_rate = 720;
 504:Middlewares/lvgl/src/widgets/lv_arc.c ****    arc->last_tick = lv_tick_get();
 505:Middlewares/lvgl/src/widgets/lv_arc.c ****    arc->last_angle =arc->indic_angle_end;
 506:Middlewares/lvgl/src/widgets/lv_arc.c **** 
 507:Middlewares/lvgl/src/widgets/lv_arc.c ****    lv_obj_add_flag(obj, LV_OBJ_FLAG_CLICKABLE);
 508:Middlewares/lvgl/src/widgets/lv_arc.c ****    lv_obj_set_ext_click_area(obj, LV_DPI_DEF / 10);
 509:Middlewares/lvgl/src/widgets/lv_arc.c **** 
 510:Middlewares/lvgl/src/widgets/lv_arc.c **** 
 511:Middlewares/lvgl/src/widgets/lv_arc.c ****     LV_TRACE_OBJ_CREATE("finished");
 512:Middlewares/lvgl/src/widgets/lv_arc.c **** }
 513:Middlewares/lvgl/src/widgets/lv_arc.c **** 
 514:Middlewares/lvgl/src/widgets/lv_arc.c **** static void lv_arc_event(const lv_obj_class_t * class_p, lv_event_t * e)
 515:Middlewares/lvgl/src/widgets/lv_arc.c **** {
 516:Middlewares/lvgl/src/widgets/lv_arc.c ****     LV_UNUSED(class_p);
 517:Middlewares/lvgl/src/widgets/lv_arc.c **** 
 518:Middlewares/lvgl/src/widgets/lv_arc.c ****     lv_res_t res;
 519:Middlewares/lvgl/src/widgets/lv_arc.c **** 
 520:Middlewares/lvgl/src/widgets/lv_arc.c ****     /*Call the ancestor's event handler*/
 521:Middlewares/lvgl/src/widgets/lv_arc.c ****     res = lv_obj_event_base(MY_CLASS, e);
 522:Middlewares/lvgl/src/widgets/lv_arc.c ****     if(res != LV_RES_OK) return;
 523:Middlewares/lvgl/src/widgets/lv_arc.c **** 
 524:Middlewares/lvgl/src/widgets/lv_arc.c ****     lv_event_code_t code = lv_event_get_code(e);
 525:Middlewares/lvgl/src/widgets/lv_arc.c ****     lv_obj_t * obj = lv_event_get_target(e);
 526:Middlewares/lvgl/src/widgets/lv_arc.c ****     lv_arc_t * arc = (lv_arc_t *)lv_event_get_target(e);
 527:Middlewares/lvgl/src/widgets/lv_arc.c ****     if(code == LV_EVENT_PRESSING) {
 528:Middlewares/lvgl/src/widgets/lv_arc.c ****         lv_indev_t * indev = lv_indev_get_act();
 529:Middlewares/lvgl/src/widgets/lv_arc.c ****         if(indev == NULL) return;
 530:Middlewares/lvgl/src/widgets/lv_arc.c **** 
 531:Middlewares/lvgl/src/widgets/lv_arc.c ****         /*Handle only pointers here*/
 532:Middlewares/lvgl/src/widgets/lv_arc.c ****         lv_indev_type_t indev_type = lv_indev_get_type(indev);
 533:Middlewares/lvgl/src/widgets/lv_arc.c ****         if(indev_type != LV_INDEV_TYPE_POINTER) return;
 534:Middlewares/lvgl/src/widgets/lv_arc.c **** 
 535:Middlewares/lvgl/src/widgets/lv_arc.c ****         lv_point_t p;
 536:Middlewares/lvgl/src/widgets/lv_arc.c ****         lv_indev_get_point(indev, &p);
 537:Middlewares/lvgl/src/widgets/lv_arc.c **** 
 538:Middlewares/lvgl/src/widgets/lv_arc.c ****         /*Make point relative to the arc's center*/
 539:Middlewares/lvgl/src/widgets/lv_arc.c ****         lv_point_t center;
 540:Middlewares/lvgl/src/widgets/lv_arc.c ****         lv_coord_t r;
 541:Middlewares/lvgl/src/widgets/lv_arc.c ****         get_center(obj, &center, &r);
 542:Middlewares/lvgl/src/widgets/lv_arc.c **** 
 543:Middlewares/lvgl/src/widgets/lv_arc.c ****         p.x -=  center.x;
 544:Middlewares/lvgl/src/widgets/lv_arc.c ****         p.y -=  center.y;
ARM GAS  /tmp/ccZjziLX.s 			page 11


 545:Middlewares/lvgl/src/widgets/lv_arc.c **** 
 546:Middlewares/lvgl/src/widgets/lv_arc.c ****         /*Enter dragging mode if pressed out of the knob*/
 547:Middlewares/lvgl/src/widgets/lv_arc.c ****         if(arc->dragging == false) {
 548:Middlewares/lvgl/src/widgets/lv_arc.c ****             lv_coord_t indic_width = lv_obj_get_style_arc_width(obj, LV_PART_INDICATOR);
 549:Middlewares/lvgl/src/widgets/lv_arc.c ****             r -=  indic_width;
 550:Middlewares/lvgl/src/widgets/lv_arc.c ****             r -= r / 2; /*Add some more sensitive area*/
 551:Middlewares/lvgl/src/widgets/lv_arc.c ****             if(p.x * p.x + p.y * p.y > r * r) {
 552:Middlewares/lvgl/src/widgets/lv_arc.c ****                arc->dragging = true;
 553:Middlewares/lvgl/src/widgets/lv_arc.c ****                arc->last_tick = lv_tick_get(); /*Capture timestamp at dragging start*/
 554:Middlewares/lvgl/src/widgets/lv_arc.c ****             }
 555:Middlewares/lvgl/src/widgets/lv_arc.c ****         }
 556:Middlewares/lvgl/src/widgets/lv_arc.c **** 
 557:Middlewares/lvgl/src/widgets/lv_arc.c ****         /*It must be in "dragging" mode to turn the arc*/
 558:Middlewares/lvgl/src/widgets/lv_arc.c ****         if(arc->dragging == false) return;
 559:Middlewares/lvgl/src/widgets/lv_arc.c **** 
 560:Middlewares/lvgl/src/widgets/lv_arc.c ****         /*No angle can be determined if exactly the middle of the arc is being pressed*/
 561:Middlewares/lvgl/src/widgets/lv_arc.c ****         if(p.x == 0 && p.y == 0) return;
 562:Middlewares/lvgl/src/widgets/lv_arc.c **** 
 563:Middlewares/lvgl/src/widgets/lv_arc.c ****         /*Calculate the angle of the pressed point*/
 564:Middlewares/lvgl/src/widgets/lv_arc.c ****         int16_t angle;
 565:Middlewares/lvgl/src/widgets/lv_arc.c ****         int16_t bg_end =arc->bg_angle_end;
 566:Middlewares/lvgl/src/widgets/lv_arc.c ****         if(arc->bg_angle_end <arc->bg_angle_start) {
 567:Middlewares/lvgl/src/widgets/lv_arc.c ****             bg_end =arc->bg_angle_end + 360;
 568:Middlewares/lvgl/src/widgets/lv_arc.c ****         }
 569:Middlewares/lvgl/src/widgets/lv_arc.c **** 
 570:Middlewares/lvgl/src/widgets/lv_arc.c ****         angle = lv_atan2(p.y, p.x);
 571:Middlewares/lvgl/src/widgets/lv_arc.c ****         angle -=arc->rotation;
 572:Middlewares/lvgl/src/widgets/lv_arc.c ****         angle -=arc->bg_angle_start;   /*Make the angle relative to the start angle*/
 573:Middlewares/lvgl/src/widgets/lv_arc.c **** 
 574:Middlewares/lvgl/src/widgets/lv_arc.c ****         if(angle < 0) angle += 360;
 575:Middlewares/lvgl/src/widgets/lv_arc.c **** 
 576:Middlewares/lvgl/src/widgets/lv_arc.c ****         int16_t deg_range = bg_end -arc->bg_angle_start;
 577:Middlewares/lvgl/src/widgets/lv_arc.c **** 
 578:Middlewares/lvgl/src/widgets/lv_arc.c ****         int16_t last_angle_rel =arc->last_angle -arc->bg_angle_start;
 579:Middlewares/lvgl/src/widgets/lv_arc.c ****         int16_t delta_angle = angle - last_angle_rel;
 580:Middlewares/lvgl/src/widgets/lv_arc.c **** 
 581:Middlewares/lvgl/src/widgets/lv_arc.c ****         /*Do not allow big jumps.
 582:Middlewares/lvgl/src/widgets/lv_arc.c ****          *It's mainly to avoid jumping to the opposite end if the "dead" range between min. an max.
 583:Middlewares/lvgl/src/widgets/lv_arc.c ****          *Check which was closer on the last valid press (arc->min_close) and prefer that end*/
 584:Middlewares/lvgl/src/widgets/lv_arc.c ****         if(LV_ABS(delta_angle) > 280) {
 585:Middlewares/lvgl/src/widgets/lv_arc.c ****             if(arc->min_close) angle = 0;
 586:Middlewares/lvgl/src/widgets/lv_arc.c ****             else angle = deg_range;
 587:Middlewares/lvgl/src/widgets/lv_arc.c ****         }
 588:Middlewares/lvgl/src/widgets/lv_arc.c ****         else {
 589:Middlewares/lvgl/src/widgets/lv_arc.c ****             if(angle < deg_range / 2)arc->min_close = 1;
 590:Middlewares/lvgl/src/widgets/lv_arc.c ****             else arc->min_close = 0;
 591:Middlewares/lvgl/src/widgets/lv_arc.c ****         }
 592:Middlewares/lvgl/src/widgets/lv_arc.c **** 
 593:Middlewares/lvgl/src/widgets/lv_arc.c ****         /*Calculate the slew rate limited angle based on change rate (degrees/sec)*/
 594:Middlewares/lvgl/src/widgets/lv_arc.c ****         delta_angle = angle - last_angle_rel;
 595:Middlewares/lvgl/src/widgets/lv_arc.c ****         uint32_t delta_tick = lv_tick_elaps(arc->last_tick);
 596:Middlewares/lvgl/src/widgets/lv_arc.c ****         int16_t delta_angle_max = (arc->chg_rate * delta_tick) / 1000;
 597:Middlewares/lvgl/src/widgets/lv_arc.c **** 
 598:Middlewares/lvgl/src/widgets/lv_arc.c ****         if(delta_angle > delta_angle_max) {
 599:Middlewares/lvgl/src/widgets/lv_arc.c ****             delta_angle = delta_angle_max;
 600:Middlewares/lvgl/src/widgets/lv_arc.c ****         }
 601:Middlewares/lvgl/src/widgets/lv_arc.c ****         else if(delta_angle < -delta_angle_max) {
ARM GAS  /tmp/ccZjziLX.s 			page 12


 602:Middlewares/lvgl/src/widgets/lv_arc.c ****             delta_angle = -delta_angle_max;
 603:Middlewares/lvgl/src/widgets/lv_arc.c ****         }
 604:Middlewares/lvgl/src/widgets/lv_arc.c **** 
 605:Middlewares/lvgl/src/widgets/lv_arc.c ****         angle = last_angle_rel + delta_angle; /*Apply the limited angle change*/
 606:Middlewares/lvgl/src/widgets/lv_arc.c **** 
 607:Middlewares/lvgl/src/widgets/lv_arc.c ****         /*Rounding for symmetry*/
 608:Middlewares/lvgl/src/widgets/lv_arc.c ****         int32_t round = ((bg_end -arc->bg_angle_start) * 8) / (arc->max_value -arc->min_value);
 609:Middlewares/lvgl/src/widgets/lv_arc.c ****         round = (round + 4) >> 4;
 610:Middlewares/lvgl/src/widgets/lv_arc.c ****         angle += round;
 611:Middlewares/lvgl/src/widgets/lv_arc.c **** 
 612:Middlewares/lvgl/src/widgets/lv_arc.c ****         angle +=arc->bg_angle_start;   /*Make the angle absolute again*/
 613:Middlewares/lvgl/src/widgets/lv_arc.c **** 
 614:Middlewares/lvgl/src/widgets/lv_arc.c ****         /*Set the new value*/
 615:Middlewares/lvgl/src/widgets/lv_arc.c ****         int16_t old_value =arc->value;
 616:Middlewares/lvgl/src/widgets/lv_arc.c ****         int16_t new_value = lv_map(angle,arc->bg_angle_start, bg_end,arc->min_value,arc->max_value)
 617:Middlewares/lvgl/src/widgets/lv_arc.c ****         if(new_value != lv_arc_get_value(obj)) {
 618:Middlewares/lvgl/src/widgets/lv_arc.c ****            arc->last_tick = lv_tick_get(); /*Cache timestamp for the next iteration*/
 619:Middlewares/lvgl/src/widgets/lv_arc.c ****             lv_arc_set_value(obj, new_value); /*set_value caches the last_angle for the next iterat
 620:Middlewares/lvgl/src/widgets/lv_arc.c ****             if(new_value != old_value) {
 621:Middlewares/lvgl/src/widgets/lv_arc.c ****                 res = lv_event_send(obj, LV_EVENT_VALUE_CHANGED, NULL);
 622:Middlewares/lvgl/src/widgets/lv_arc.c ****                 if(res != LV_RES_OK) return;
 623:Middlewares/lvgl/src/widgets/lv_arc.c ****             }
 624:Middlewares/lvgl/src/widgets/lv_arc.c ****         }
 625:Middlewares/lvgl/src/widgets/lv_arc.c **** 
 626:Middlewares/lvgl/src/widgets/lv_arc.c ****         /*Don1't let the elapsed time to big while sitting on an end point*/
 627:Middlewares/lvgl/src/widgets/lv_arc.c ****         if(new_value ==arc->min_value || new_value ==arc->max_value) {
 628:Middlewares/lvgl/src/widgets/lv_arc.c ****            arc->last_tick = lv_tick_get(); /*Cache timestamp for the next iteration*/
 629:Middlewares/lvgl/src/widgets/lv_arc.c ****         }
 630:Middlewares/lvgl/src/widgets/lv_arc.c ****     }
 631:Middlewares/lvgl/src/widgets/lv_arc.c ****     else if(code == LV_EVENT_RELEASED || code == LV_EVENT_PRESS_LOST) {
 632:Middlewares/lvgl/src/widgets/lv_arc.c ****        arc->dragging = false;
 633:Middlewares/lvgl/src/widgets/lv_arc.c **** 
 634:Middlewares/lvgl/src/widgets/lv_arc.c ****         /*Leave edit mode if released. (No need to wait for LONG_PRESS)*/
 635:Middlewares/lvgl/src/widgets/lv_arc.c ****         lv_group_t * g             = lv_obj_get_group(obj);
 636:Middlewares/lvgl/src/widgets/lv_arc.c ****         bool editing               = lv_group_get_editing(g);
 637:Middlewares/lvgl/src/widgets/lv_arc.c ****         lv_indev_type_t indev_type = lv_indev_get_type(lv_indev_get_act());
 638:Middlewares/lvgl/src/widgets/lv_arc.c ****         if(indev_type == LV_INDEV_TYPE_ENCODER) {
 639:Middlewares/lvgl/src/widgets/lv_arc.c ****             if(editing) lv_group_set_editing(g, false);
 640:Middlewares/lvgl/src/widgets/lv_arc.c ****         }
 641:Middlewares/lvgl/src/widgets/lv_arc.c **** 
 642:Middlewares/lvgl/src/widgets/lv_arc.c ****     }
 643:Middlewares/lvgl/src/widgets/lv_arc.c ****     else if(code == LV_EVENT_KEY) {
 644:Middlewares/lvgl/src/widgets/lv_arc.c ****         char c = *((char *)lv_event_get_param(e));
 645:Middlewares/lvgl/src/widgets/lv_arc.c **** 
 646:Middlewares/lvgl/src/widgets/lv_arc.c ****         int16_t old_value =arc->value;
 647:Middlewares/lvgl/src/widgets/lv_arc.c ****         if(c == LV_KEY_RIGHT || c == LV_KEY_UP) {
 648:Middlewares/lvgl/src/widgets/lv_arc.c ****             lv_arc_set_value(obj, lv_arc_get_value(obj) + 1);
 649:Middlewares/lvgl/src/widgets/lv_arc.c ****         }
 650:Middlewares/lvgl/src/widgets/lv_arc.c ****         else if(c == LV_KEY_LEFT || c == LV_KEY_DOWN) {
 651:Middlewares/lvgl/src/widgets/lv_arc.c ****             lv_arc_set_value(obj, lv_arc_get_value(obj) - 1);
 652:Middlewares/lvgl/src/widgets/lv_arc.c ****         }
 653:Middlewares/lvgl/src/widgets/lv_arc.c **** 
 654:Middlewares/lvgl/src/widgets/lv_arc.c ****         if(old_value !=arc->value) {
 655:Middlewares/lvgl/src/widgets/lv_arc.c ****             res = lv_event_send(obj, LV_EVENT_VALUE_CHANGED, NULL);
 656:Middlewares/lvgl/src/widgets/lv_arc.c ****             if(res != LV_RES_OK) return;
 657:Middlewares/lvgl/src/widgets/lv_arc.c ****         }
 658:Middlewares/lvgl/src/widgets/lv_arc.c ****     }
ARM GAS  /tmp/ccZjziLX.s 			page 13


 659:Middlewares/lvgl/src/widgets/lv_arc.c ****     else if(code == LV_EVENT_REFR_EXT_DRAW_SIZE) {
 660:Middlewares/lvgl/src/widgets/lv_arc.c ****         lv_coord_t bg_left = lv_obj_get_style_pad_left(obj, LV_PART_MAIN);
 661:Middlewares/lvgl/src/widgets/lv_arc.c ****         lv_coord_t bg_right = lv_obj_get_style_pad_right(obj, LV_PART_MAIN);
 662:Middlewares/lvgl/src/widgets/lv_arc.c ****         lv_coord_t bg_top = lv_obj_get_style_pad_top(obj, LV_PART_MAIN);
 663:Middlewares/lvgl/src/widgets/lv_arc.c ****         lv_coord_t bg_bottom = lv_obj_get_style_pad_bottom(obj, LV_PART_MAIN);
 664:Middlewares/lvgl/src/widgets/lv_arc.c ****         lv_coord_t bg_pad = LV_MAX4(bg_left, bg_right, bg_top, bg_bottom);
 665:Middlewares/lvgl/src/widgets/lv_arc.c **** 
 666:Middlewares/lvgl/src/widgets/lv_arc.c ****         lv_coord_t knob_left = lv_obj_get_style_pad_left(obj, LV_PART_KNOB);
 667:Middlewares/lvgl/src/widgets/lv_arc.c ****         lv_coord_t knob_right = lv_obj_get_style_pad_right(obj, LV_PART_KNOB);
 668:Middlewares/lvgl/src/widgets/lv_arc.c ****         lv_coord_t knob_top = lv_obj_get_style_pad_top(obj, LV_PART_KNOB);
 669:Middlewares/lvgl/src/widgets/lv_arc.c ****         lv_coord_t knob_bottom = lv_obj_get_style_pad_bottom(obj, LV_PART_KNOB);
 670:Middlewares/lvgl/src/widgets/lv_arc.c ****         lv_coord_t knob_pad = LV_MAX4(knob_left, knob_right, knob_top, knob_bottom) + 2;
 671:Middlewares/lvgl/src/widgets/lv_arc.c **** 
 672:Middlewares/lvgl/src/widgets/lv_arc.c ****         lv_coord_t * s = lv_event_get_param(e);
 673:Middlewares/lvgl/src/widgets/lv_arc.c ****         *s = LV_MAX(*s, knob_pad - bg_pad);
 674:Middlewares/lvgl/src/widgets/lv_arc.c ****     } else if(code == LV_EVENT_DRAW_MAIN) {
 675:Middlewares/lvgl/src/widgets/lv_arc.c ****         lv_arc_draw(e);
 676:Middlewares/lvgl/src/widgets/lv_arc.c ****     }
 677:Middlewares/lvgl/src/widgets/lv_arc.c **** }
 678:Middlewares/lvgl/src/widgets/lv_arc.c **** 
 679:Middlewares/lvgl/src/widgets/lv_arc.c **** static void lv_arc_draw(lv_event_t * e)
 680:Middlewares/lvgl/src/widgets/lv_arc.c **** {
 681:Middlewares/lvgl/src/widgets/lv_arc.c ****     lv_obj_t * obj = lv_event_get_target(e);
 682:Middlewares/lvgl/src/widgets/lv_arc.c ****     lv_arc_t * arc = (lv_arc_t *)obj;
 683:Middlewares/lvgl/src/widgets/lv_arc.c **** 
 684:Middlewares/lvgl/src/widgets/lv_arc.c ****     const lv_area_t * clip_area = lv_event_get_param(e);
 685:Middlewares/lvgl/src/widgets/lv_arc.c **** 
 686:Middlewares/lvgl/src/widgets/lv_arc.c ****     lv_point_t center;
 687:Middlewares/lvgl/src/widgets/lv_arc.c ****     lv_coord_t arc_r;
 688:Middlewares/lvgl/src/widgets/lv_arc.c ****     get_center(obj, &center, &arc_r);
 689:Middlewares/lvgl/src/widgets/lv_arc.c **** 
 690:Middlewares/lvgl/src/widgets/lv_arc.c ****     lv_obj_draw_part_dsc_t obj_draw_dsc;
 691:Middlewares/lvgl/src/widgets/lv_arc.c ****     lv_obj_draw_dsc_init(&obj_draw_dsc, clip_area);
 692:Middlewares/lvgl/src/widgets/lv_arc.c **** 
 693:Middlewares/lvgl/src/widgets/lv_arc.c ****     /*Draw the background arc*/
 694:Middlewares/lvgl/src/widgets/lv_arc.c ****     lv_draw_arc_dsc_t arc_dsc;
 695:Middlewares/lvgl/src/widgets/lv_arc.c ****     if(arc_r > 0) {
 696:Middlewares/lvgl/src/widgets/lv_arc.c ****         lv_draw_arc_dsc_init(&arc_dsc);
 697:Middlewares/lvgl/src/widgets/lv_arc.c ****         lv_obj_init_draw_arc_dsc(obj, LV_PART_MAIN, &arc_dsc);
 698:Middlewares/lvgl/src/widgets/lv_arc.c **** 
 699:Middlewares/lvgl/src/widgets/lv_arc.c ****         obj_draw_dsc.part = LV_PART_MAIN;
 700:Middlewares/lvgl/src/widgets/lv_arc.c ****         obj_draw_dsc.p1 = &center;
 701:Middlewares/lvgl/src/widgets/lv_arc.c ****         obj_draw_dsc.radius = arc_r;
 702:Middlewares/lvgl/src/widgets/lv_arc.c ****         obj_draw_dsc.arc_dsc = &arc_dsc;
 703:Middlewares/lvgl/src/widgets/lv_arc.c ****         lv_event_send(obj, LV_EVENT_DRAW_PART_BEGIN, &obj_draw_dsc);
 704:Middlewares/lvgl/src/widgets/lv_arc.c **** 
 705:Middlewares/lvgl/src/widgets/lv_arc.c ****         lv_draw_arc(center.x, center.y, arc_r, arc->bg_angle_start + arc->rotation,
 706:Middlewares/lvgl/src/widgets/lv_arc.c ****                    arc->bg_angle_end + arc->rotation, clip_area,
 707:Middlewares/lvgl/src/widgets/lv_arc.c ****                     &arc_dsc);
 708:Middlewares/lvgl/src/widgets/lv_arc.c **** 
 709:Middlewares/lvgl/src/widgets/lv_arc.c ****         lv_event_send(obj, LV_EVENT_DRAW_PART_END, &obj_draw_dsc);
 710:Middlewares/lvgl/src/widgets/lv_arc.c ****     }
 711:Middlewares/lvgl/src/widgets/lv_arc.c **** 
 712:Middlewares/lvgl/src/widgets/lv_arc.c ****     /*make the indicator arc smaller or larger according to its greatest padding value*/
 713:Middlewares/lvgl/src/widgets/lv_arc.c ****     lv_coord_t left_indic = lv_obj_get_style_pad_left(obj, LV_PART_INDICATOR);
 714:Middlewares/lvgl/src/widgets/lv_arc.c ****     lv_coord_t right_indic = lv_obj_get_style_pad_right(obj, LV_PART_INDICATOR);
 715:Middlewares/lvgl/src/widgets/lv_arc.c ****     lv_coord_t top_indic = lv_obj_get_style_pad_top(obj, LV_PART_INDICATOR);
ARM GAS  /tmp/ccZjziLX.s 			page 14


 716:Middlewares/lvgl/src/widgets/lv_arc.c ****     lv_coord_t bottom_indic = lv_obj_get_style_pad_bottom(obj, LV_PART_INDICATOR);
 717:Middlewares/lvgl/src/widgets/lv_arc.c ****     lv_coord_t indic_r = arc_r - LV_MAX4(left_indic, right_indic, top_indic, bottom_indic);
 718:Middlewares/lvgl/src/widgets/lv_arc.c **** 
 719:Middlewares/lvgl/src/widgets/lv_arc.c ****     if(indic_r > 0) {
 720:Middlewares/lvgl/src/widgets/lv_arc.c ****         lv_draw_arc_dsc_init(&arc_dsc);
 721:Middlewares/lvgl/src/widgets/lv_arc.c ****         lv_obj_init_draw_arc_dsc(obj, LV_PART_INDICATOR, &arc_dsc);
 722:Middlewares/lvgl/src/widgets/lv_arc.c **** 
 723:Middlewares/lvgl/src/widgets/lv_arc.c ****         obj_draw_dsc.part = LV_PART_INDICATOR;
 724:Middlewares/lvgl/src/widgets/lv_arc.c ****         obj_draw_dsc.p1 = &center;
 725:Middlewares/lvgl/src/widgets/lv_arc.c ****         obj_draw_dsc.radius = indic_r;
 726:Middlewares/lvgl/src/widgets/lv_arc.c ****         obj_draw_dsc.arc_dsc = &arc_dsc;
 727:Middlewares/lvgl/src/widgets/lv_arc.c ****         lv_event_send(obj, LV_EVENT_DRAW_PART_BEGIN, &obj_draw_dsc);
 728:Middlewares/lvgl/src/widgets/lv_arc.c **** 
 729:Middlewares/lvgl/src/widgets/lv_arc.c ****         lv_draw_arc(center.x, center.y, indic_r, arc->indic_angle_start +arc->rotation,
 730:Middlewares/lvgl/src/widgets/lv_arc.c ****                    arc->indic_angle_end + arc->rotation, clip_area,
 731:Middlewares/lvgl/src/widgets/lv_arc.c ****                     &arc_dsc);
 732:Middlewares/lvgl/src/widgets/lv_arc.c **** 
 733:Middlewares/lvgl/src/widgets/lv_arc.c ****         lv_event_send(obj, LV_EVENT_DRAW_PART_END, &obj_draw_dsc);
 734:Middlewares/lvgl/src/widgets/lv_arc.c ****     }
 735:Middlewares/lvgl/src/widgets/lv_arc.c **** 
 736:Middlewares/lvgl/src/widgets/lv_arc.c ****     lv_area_t knob_area;
 737:Middlewares/lvgl/src/widgets/lv_arc.c ****     get_knob_area(obj, &center, arc_r, &knob_area);
 738:Middlewares/lvgl/src/widgets/lv_arc.c **** 
 739:Middlewares/lvgl/src/widgets/lv_arc.c ****     lv_draw_rect_dsc_t knob_rect_dsc;
 740:Middlewares/lvgl/src/widgets/lv_arc.c ****     lv_draw_rect_dsc_init(&knob_rect_dsc);
 741:Middlewares/lvgl/src/widgets/lv_arc.c ****     lv_obj_init_draw_rect_dsc(obj, LV_PART_KNOB, &knob_rect_dsc);
 742:Middlewares/lvgl/src/widgets/lv_arc.c **** 
 743:Middlewares/lvgl/src/widgets/lv_arc.c ****     obj_draw_dsc.part = LV_PART_KNOB;
 744:Middlewares/lvgl/src/widgets/lv_arc.c ****     obj_draw_dsc.draw_area = &knob_area;
 745:Middlewares/lvgl/src/widgets/lv_arc.c ****     obj_draw_dsc.rect_dsc = &knob_rect_dsc;
 746:Middlewares/lvgl/src/widgets/lv_arc.c ****     lv_event_send(obj, LV_EVENT_DRAW_PART_BEGIN, &obj_draw_dsc);
 747:Middlewares/lvgl/src/widgets/lv_arc.c **** 
 748:Middlewares/lvgl/src/widgets/lv_arc.c ****     lv_draw_rect(&knob_area, clip_area, &knob_rect_dsc);
 749:Middlewares/lvgl/src/widgets/lv_arc.c **** 
 750:Middlewares/lvgl/src/widgets/lv_arc.c ****     lv_event_send(obj, LV_EVENT_DRAW_PART_END, &obj_draw_dsc);
 751:Middlewares/lvgl/src/widgets/lv_arc.c **** }
 752:Middlewares/lvgl/src/widgets/lv_arc.c **** 
 753:Middlewares/lvgl/src/widgets/lv_arc.c **** static void inv_arc_area(lv_obj_t * obj, uint16_t start_angle, uint16_t end_angle, lv_part_t part)
 754:Middlewares/lvgl/src/widgets/lv_arc.c **** {
 755:Middlewares/lvgl/src/widgets/lv_arc.c ****     LV_ASSERT_OBJ(obj, MY_CLASS);
 756:Middlewares/lvgl/src/widgets/lv_arc.c ****     lv_arc_t * arc = (lv_arc_t *)obj;
 757:Middlewares/lvgl/src/widgets/lv_arc.c **** 
 758:Middlewares/lvgl/src/widgets/lv_arc.c ****     /*Skip this complicated invalidation if the arc is not visible*/
 759:Middlewares/lvgl/src/widgets/lv_arc.c ****     if(lv_obj_is_visible(obj) == false) return;
 760:Middlewares/lvgl/src/widgets/lv_arc.c **** 
 761:Middlewares/lvgl/src/widgets/lv_arc.c ****     start_angle +=arc->rotation;
 762:Middlewares/lvgl/src/widgets/lv_arc.c ****     end_angle +=arc->rotation;
 763:Middlewares/lvgl/src/widgets/lv_arc.c **** 
 764:Middlewares/lvgl/src/widgets/lv_arc.c ****     if(start_angle >= 360) start_angle -= 360;
 765:Middlewares/lvgl/src/widgets/lv_arc.c ****     if(end_angle >= 360) end_angle -= 360;
 766:Middlewares/lvgl/src/widgets/lv_arc.c **** 
 767:Middlewares/lvgl/src/widgets/lv_arc.c ****     uint8_t start_quarter = start_angle / 90;
 768:Middlewares/lvgl/src/widgets/lv_arc.c ****     uint8_t end_quarter = end_angle / 90;
 769:Middlewares/lvgl/src/widgets/lv_arc.c **** 
 770:Middlewares/lvgl/src/widgets/lv_arc.c ****     lv_coord_t left = lv_obj_get_style_pad_left(obj, LV_PART_MAIN);
 771:Middlewares/lvgl/src/widgets/lv_arc.c ****     lv_coord_t right = lv_obj_get_style_pad_right(obj, LV_PART_MAIN);
 772:Middlewares/lvgl/src/widgets/lv_arc.c ****     lv_coord_t top = lv_obj_get_style_pad_top(obj, LV_PART_MAIN);
ARM GAS  /tmp/ccZjziLX.s 			page 15


 773:Middlewares/lvgl/src/widgets/lv_arc.c ****     lv_coord_t bottom = lv_obj_get_style_pad_bottom(obj, LV_PART_MAIN);
 774:Middlewares/lvgl/src/widgets/lv_arc.c ****     lv_coord_t rout       = (LV_MIN(lv_obj_get_width(obj) - left - right, lv_obj_get_height(obj) - 
 775:Middlewares/lvgl/src/widgets/lv_arc.c ****     lv_coord_t x       = obj->coords.x1 + rout + left;
 776:Middlewares/lvgl/src/widgets/lv_arc.c ****     lv_coord_t y       = obj->coords.y1 + rout + top;
 777:Middlewares/lvgl/src/widgets/lv_arc.c ****     lv_coord_t w = lv_obj_get_style_arc_width(obj, part);
 778:Middlewares/lvgl/src/widgets/lv_arc.c ****     lv_coord_t rounded = lv_obj_get_style_arc_rounded(obj, part);
 779:Middlewares/lvgl/src/widgets/lv_arc.c ****     lv_coord_t rin       = rout - w;
 780:Middlewares/lvgl/src/widgets/lv_arc.c ****     lv_coord_t extra_area = 0;
 781:Middlewares/lvgl/src/widgets/lv_arc.c **** 
 782:Middlewares/lvgl/src/widgets/lv_arc.c ****     extra_area = rounded ? w / 2 + 2 : 0;
 783:Middlewares/lvgl/src/widgets/lv_arc.c **** 
 784:Middlewares/lvgl/src/widgets/lv_arc.c ****     if(part == LV_PART_INDICATOR) {
 785:Middlewares/lvgl/src/widgets/lv_arc.c ****         lv_coord_t knob_extra_size = lv_obj_calculate_ext_draw_size(obj, LV_PART_KNOB);
 786:Middlewares/lvgl/src/widgets/lv_arc.c **** 
 787:Middlewares/lvgl/src/widgets/lv_arc.c ****         lv_coord_t knob_left = lv_obj_get_style_pad_left(obj, LV_PART_KNOB);
 788:Middlewares/lvgl/src/widgets/lv_arc.c ****         lv_coord_t knob_right = lv_obj_get_style_pad_right(obj, LV_PART_KNOB);
 789:Middlewares/lvgl/src/widgets/lv_arc.c ****         lv_coord_t knob_top = lv_obj_get_style_pad_top(obj, LV_PART_KNOB);
 790:Middlewares/lvgl/src/widgets/lv_arc.c ****         lv_coord_t knob_bottom = lv_obj_get_style_pad_bottom(obj, LV_PART_KNOB);
 791:Middlewares/lvgl/src/widgets/lv_arc.c **** 
 792:Middlewares/lvgl/src/widgets/lv_arc.c ****         knob_extra_size += LV_MAX4(knob_left, knob_right, knob_top, knob_bottom);
 793:Middlewares/lvgl/src/widgets/lv_arc.c **** 
 794:Middlewares/lvgl/src/widgets/lv_arc.c ****         extra_area = LV_MAX(extra_area, w / 2 + 2 + knob_extra_size);
 795:Middlewares/lvgl/src/widgets/lv_arc.c ****     }
 796:Middlewares/lvgl/src/widgets/lv_arc.c **** 
 797:Middlewares/lvgl/src/widgets/lv_arc.c ****     lv_area_t inv_area;
 798:Middlewares/lvgl/src/widgets/lv_arc.c **** 
 799:Middlewares/lvgl/src/widgets/lv_arc.c ****     if(start_quarter == end_quarter && start_angle <= end_angle) {
 800:Middlewares/lvgl/src/widgets/lv_arc.c ****         if(start_quarter == 0) {
 801:Middlewares/lvgl/src/widgets/lv_arc.c ****             inv_area.y1 = y + ((lv_trigo_sin(start_angle) * rin) >> LV_TRIGO_SHIFT) - extra_area;
 802:Middlewares/lvgl/src/widgets/lv_arc.c ****             inv_area.x2 = x + ((lv_trigo_sin(start_angle + 90) * rout) >> LV_TRIGO_SHIFT) + extra_a
 803:Middlewares/lvgl/src/widgets/lv_arc.c **** 
 804:Middlewares/lvgl/src/widgets/lv_arc.c ****             inv_area.y2 = y + ((lv_trigo_sin(end_angle) * rout) >> LV_TRIGO_SHIFT) + extra_area;
 805:Middlewares/lvgl/src/widgets/lv_arc.c ****             inv_area.x1 = x + ((lv_trigo_sin(end_angle + 90) * rin) >> LV_TRIGO_SHIFT) - extra_area
 806:Middlewares/lvgl/src/widgets/lv_arc.c **** 
 807:Middlewares/lvgl/src/widgets/lv_arc.c ****             lv_obj_invalidate_area(obj, &inv_area);
 808:Middlewares/lvgl/src/widgets/lv_arc.c ****         }
 809:Middlewares/lvgl/src/widgets/lv_arc.c ****         else if(start_quarter == 1) {
 810:Middlewares/lvgl/src/widgets/lv_arc.c ****             inv_area.y2 = y + ((lv_trigo_sin(start_angle) * rout) >> LV_TRIGO_SHIFT) + extra_area;
 811:Middlewares/lvgl/src/widgets/lv_arc.c ****             inv_area.x2 = x + ((lv_trigo_sin(start_angle + 90) * rin) >> LV_TRIGO_SHIFT) + extra_ar
 812:Middlewares/lvgl/src/widgets/lv_arc.c **** 
 813:Middlewares/lvgl/src/widgets/lv_arc.c ****             inv_area.y1 = y + ((lv_trigo_sin(end_angle) * rin) >> LV_TRIGO_SHIFT) - extra_area;
 814:Middlewares/lvgl/src/widgets/lv_arc.c ****             inv_area.x1 = x + ((lv_trigo_sin(end_angle + 90) * rout) >> LV_TRIGO_SHIFT) - extra_are
 815:Middlewares/lvgl/src/widgets/lv_arc.c **** 
 816:Middlewares/lvgl/src/widgets/lv_arc.c ****             lv_obj_invalidate_area(obj, &inv_area);
 817:Middlewares/lvgl/src/widgets/lv_arc.c ****         }
 818:Middlewares/lvgl/src/widgets/lv_arc.c ****         else if(start_quarter == 2) {
 819:Middlewares/lvgl/src/widgets/lv_arc.c ****             inv_area.x1 = x + ((lv_trigo_sin(start_angle + 90) * rout) >> LV_TRIGO_SHIFT) - extra_a
 820:Middlewares/lvgl/src/widgets/lv_arc.c ****             inv_area.y2 = y + ((lv_trigo_sin(start_angle) * rin) >> LV_TRIGO_SHIFT) + extra_area;
 821:Middlewares/lvgl/src/widgets/lv_arc.c **** 
 822:Middlewares/lvgl/src/widgets/lv_arc.c ****             inv_area.y1 = y + ((lv_trigo_sin(end_angle) * rout) >> LV_TRIGO_SHIFT) - extra_area;
 823:Middlewares/lvgl/src/widgets/lv_arc.c ****             inv_area.x2 = x + ((lv_trigo_sin(end_angle + 90) * rin) >> LV_TRIGO_SHIFT) + extra_area
 824:Middlewares/lvgl/src/widgets/lv_arc.c **** 
 825:Middlewares/lvgl/src/widgets/lv_arc.c ****             lv_obj_invalidate_area(obj, &inv_area);
 826:Middlewares/lvgl/src/widgets/lv_arc.c ****         }
 827:Middlewares/lvgl/src/widgets/lv_arc.c ****         else if(start_quarter == 3) {
 828:Middlewares/lvgl/src/widgets/lv_arc.c ****             /*Small arc here*/
 829:Middlewares/lvgl/src/widgets/lv_arc.c ****             inv_area.x1 = x + ((lv_trigo_sin(start_angle + 90) * rin) >> LV_TRIGO_SHIFT) - extra_ar
ARM GAS  /tmp/ccZjziLX.s 			page 16


 830:Middlewares/lvgl/src/widgets/lv_arc.c ****             inv_area.y1 = y + ((lv_trigo_sin(start_angle) * rout) >> LV_TRIGO_SHIFT) - extra_area;
 831:Middlewares/lvgl/src/widgets/lv_arc.c **** 
 832:Middlewares/lvgl/src/widgets/lv_arc.c ****             inv_area.x2 = x + ((lv_trigo_sin(end_angle + 90) * rout) >> LV_TRIGO_SHIFT) + extra_are
 833:Middlewares/lvgl/src/widgets/lv_arc.c ****             inv_area.y2 = y + ((lv_trigo_sin(end_angle) * rin) >> LV_TRIGO_SHIFT) + extra_area;
 834:Middlewares/lvgl/src/widgets/lv_arc.c **** 
 835:Middlewares/lvgl/src/widgets/lv_arc.c ****             lv_obj_invalidate_area(obj, &inv_area);
 836:Middlewares/lvgl/src/widgets/lv_arc.c ****         }
 837:Middlewares/lvgl/src/widgets/lv_arc.c ****     }
 838:Middlewares/lvgl/src/widgets/lv_arc.c ****     else if(start_quarter == 0 && end_quarter == 1) {
 839:Middlewares/lvgl/src/widgets/lv_arc.c ****         inv_area.x1 = x + ((lv_trigo_sin(end_angle + 90) * rout) >> LV_TRIGO_SHIFT) - extra_area;
 840:Middlewares/lvgl/src/widgets/lv_arc.c ****         inv_area.y1 = y + ((LV_MIN(lv_trigo_sin(end_angle),
 841:Middlewares/lvgl/src/widgets/lv_arc.c ****                                         lv_trigo_sin(start_angle))  * rin) >> LV_TRIGO_SHIFT) - ext
 842:Middlewares/lvgl/src/widgets/lv_arc.c ****         inv_area.x2 = x + ((lv_trigo_sin(start_angle + 90) * rout) >> LV_TRIGO_SHIFT) + extra_area;
 843:Middlewares/lvgl/src/widgets/lv_arc.c ****         inv_area.y2 = y + rout + extra_area;
 844:Middlewares/lvgl/src/widgets/lv_arc.c ****         lv_obj_invalidate_area(obj, &inv_area);
 845:Middlewares/lvgl/src/widgets/lv_arc.c ****     }
 846:Middlewares/lvgl/src/widgets/lv_arc.c ****     else if(start_quarter == 1 && end_quarter == 2) {
 847:Middlewares/lvgl/src/widgets/lv_arc.c ****         inv_area.x1 = x - rout - extra_area;
 848:Middlewares/lvgl/src/widgets/lv_arc.c ****         inv_area.y1 = y + ((lv_trigo_sin(end_angle) * rout) >> LV_TRIGO_SHIFT) - extra_area;
 849:Middlewares/lvgl/src/widgets/lv_arc.c ****         inv_area.x2 = x + ((LV_MAX(lv_trigo_sin(start_angle + 90),
 850:Middlewares/lvgl/src/widgets/lv_arc.c ****                                         lv_trigo_sin(end_angle + 90)) * rin) >> LV_TRIGO_SHIFT) + e
 851:Middlewares/lvgl/src/widgets/lv_arc.c ****         inv_area.y2 = y + ((lv_trigo_sin(start_angle) * rout) >> LV_TRIGO_SHIFT) + extra_area;
 852:Middlewares/lvgl/src/widgets/lv_arc.c ****         lv_obj_invalidate_area(obj, &inv_area);
 853:Middlewares/lvgl/src/widgets/lv_arc.c ****     }
 854:Middlewares/lvgl/src/widgets/lv_arc.c ****     else if(start_quarter == 2 && end_quarter == 3) {
 855:Middlewares/lvgl/src/widgets/lv_arc.c ****         inv_area.x1 = x + ((lv_trigo_sin(start_angle + 90) * rout) >> LV_TRIGO_SHIFT) - extra_area;
 856:Middlewares/lvgl/src/widgets/lv_arc.c ****         inv_area.y1 = y - rout - extra_area;
 857:Middlewares/lvgl/src/widgets/lv_arc.c ****         inv_area.x2 = x + ((lv_trigo_sin(end_angle + 90) * rout) >> LV_TRIGO_SHIFT) + extra_area;
 858:Middlewares/lvgl/src/widgets/lv_arc.c ****         inv_area.y2 = y + (LV_MAX(lv_trigo_sin(end_angle) * rin,
 859:Middlewares/lvgl/src/widgets/lv_arc.c ****                                        lv_trigo_sin(start_angle) * rin) >> LV_TRIGO_SHIFT) + extra_
 860:Middlewares/lvgl/src/widgets/lv_arc.c ****         lv_obj_invalidate_area(obj, &inv_area);
 861:Middlewares/lvgl/src/widgets/lv_arc.c ****     }
 862:Middlewares/lvgl/src/widgets/lv_arc.c ****     else if(start_quarter == 3 && end_quarter == 0) {
 863:Middlewares/lvgl/src/widgets/lv_arc.c ****         inv_area.x1 = x + ((LV_MIN(lv_trigo_sin(end_angle + 90),
 864:Middlewares/lvgl/src/widgets/lv_arc.c ****                                         lv_trigo_sin(start_angle + 90)) * rin) >> LV_TRIGO_SHIFT) -
 865:Middlewares/lvgl/src/widgets/lv_arc.c ****         inv_area.y1 = y + ((lv_trigo_sin(start_angle) * rout) >> LV_TRIGO_SHIFT) - extra_area;
 866:Middlewares/lvgl/src/widgets/lv_arc.c ****         inv_area.x2 = x + rout + extra_area;
 867:Middlewares/lvgl/src/widgets/lv_arc.c ****         inv_area.y2 = y + ((lv_trigo_sin(end_angle) * rout) >> LV_TRIGO_SHIFT) + extra_area;
 868:Middlewares/lvgl/src/widgets/lv_arc.c **** 
 869:Middlewares/lvgl/src/widgets/lv_arc.c ****         lv_obj_invalidate_area(obj, &inv_area);
 870:Middlewares/lvgl/src/widgets/lv_arc.c ****     }
 871:Middlewares/lvgl/src/widgets/lv_arc.c ****     else {
 872:Middlewares/lvgl/src/widgets/lv_arc.c ****         lv_obj_invalidate(obj);
 873:Middlewares/lvgl/src/widgets/lv_arc.c ****     }
 874:Middlewares/lvgl/src/widgets/lv_arc.c **** }
 875:Middlewares/lvgl/src/widgets/lv_arc.c **** 
 876:Middlewares/lvgl/src/widgets/lv_arc.c **** static void get_center(lv_obj_t * obj, lv_point_t * center, lv_coord_t * arc_r)
 877:Middlewares/lvgl/src/widgets/lv_arc.c **** {
  28              		.loc 1 877 1 view -0
  29              		.cfi_startproc
  30              		@ args = 0, pretend = 0, frame = 8
  31              		@ frame_needed = 0, uses_anonymous_args = 0
  32              		.loc 1 877 1 is_stmt 0 view .LVU1
  33 0000 2DE9F04F 		push	{r4, r5, r6, r7, r8, r9, r10, fp, lr}
  34              	.LCFI0:
  35              		.cfi_def_cfa_offset 36
  36              		.cfi_offset 4, -36
ARM GAS  /tmp/ccZjziLX.s 			page 17


  37              		.cfi_offset 5, -32
  38              		.cfi_offset 6, -28
  39              		.cfi_offset 7, -24
  40              		.cfi_offset 8, -20
  41              		.cfi_offset 9, -16
  42              		.cfi_offset 10, -12
  43              		.cfi_offset 11, -8
  44              		.cfi_offset 14, -4
  45 0004 83B0     		sub	sp, sp, #12
  46              	.LCFI1:
  47              		.cfi_def_cfa_offset 48
  48 0006 0446     		mov	r4, r0
  49 0008 0E46     		mov	r6, r1
  50 000a 0192     		str	r2, [sp, #4]
 878:Middlewares/lvgl/src/widgets/lv_arc.c ****     lv_coord_t left_bg = lv_obj_get_style_pad_left(obj, LV_PART_MAIN);
  51              		.loc 1 878 5 is_stmt 1 view .LVU2
  52              	.LVL1:
  53              	.LBB75:
  54              	.LBI75:
  55              		.file 2 "Middlewares/lvgl/src/widgets/../core/lv_obj_style_gen.h"
   1:Middlewares/lvgl/src/widgets/../core/lv_obj_style_gen.h **** static inline lv_coord_t lv_obj_get_style_width(const struct _lv_obj_t * obj, uint32_t part)
   2:Middlewares/lvgl/src/widgets/../core/lv_obj_style_gen.h **** {
   3:Middlewares/lvgl/src/widgets/../core/lv_obj_style_gen.h ****     lv_style_value_t v = lv_obj_get_style_prop(obj, part, LV_STYLE_WIDTH);
   4:Middlewares/lvgl/src/widgets/../core/lv_obj_style_gen.h ****     return (lv_coord_t)v.num;
   5:Middlewares/lvgl/src/widgets/../core/lv_obj_style_gen.h **** }
   6:Middlewares/lvgl/src/widgets/../core/lv_obj_style_gen.h **** 
   7:Middlewares/lvgl/src/widgets/../core/lv_obj_style_gen.h **** static inline lv_coord_t lv_obj_get_style_min_width(const struct _lv_obj_t * obj, uint32_t part)
   8:Middlewares/lvgl/src/widgets/../core/lv_obj_style_gen.h **** {
   9:Middlewares/lvgl/src/widgets/../core/lv_obj_style_gen.h ****     lv_style_value_t v = lv_obj_get_style_prop(obj, part, LV_STYLE_MIN_WIDTH);
  10:Middlewares/lvgl/src/widgets/../core/lv_obj_style_gen.h ****     return (lv_coord_t)v.num;
  11:Middlewares/lvgl/src/widgets/../core/lv_obj_style_gen.h **** }
  12:Middlewares/lvgl/src/widgets/../core/lv_obj_style_gen.h **** 
  13:Middlewares/lvgl/src/widgets/../core/lv_obj_style_gen.h **** static inline lv_coord_t lv_obj_get_style_max_width(const struct _lv_obj_t * obj, uint32_t part)
  14:Middlewares/lvgl/src/widgets/../core/lv_obj_style_gen.h **** {
  15:Middlewares/lvgl/src/widgets/../core/lv_obj_style_gen.h ****     lv_style_value_t v = lv_obj_get_style_prop(obj, part, LV_STYLE_MAX_WIDTH);
  16:Middlewares/lvgl/src/widgets/../core/lv_obj_style_gen.h ****     return (lv_coord_t)v.num;
  17:Middlewares/lvgl/src/widgets/../core/lv_obj_style_gen.h **** }
  18:Middlewares/lvgl/src/widgets/../core/lv_obj_style_gen.h **** 
  19:Middlewares/lvgl/src/widgets/../core/lv_obj_style_gen.h **** static inline lv_coord_t lv_obj_get_style_height(const struct _lv_obj_t * obj, uint32_t part)
  20:Middlewares/lvgl/src/widgets/../core/lv_obj_style_gen.h **** {
  21:Middlewares/lvgl/src/widgets/../core/lv_obj_style_gen.h ****     lv_style_value_t v = lv_obj_get_style_prop(obj, part, LV_STYLE_HEIGHT);
  22:Middlewares/lvgl/src/widgets/../core/lv_obj_style_gen.h ****     return (lv_coord_t)v.num;
  23:Middlewares/lvgl/src/widgets/../core/lv_obj_style_gen.h **** }
  24:Middlewares/lvgl/src/widgets/../core/lv_obj_style_gen.h **** 
  25:Middlewares/lvgl/src/widgets/../core/lv_obj_style_gen.h **** static inline lv_coord_t lv_obj_get_style_min_height(const struct _lv_obj_t * obj, uint32_t part)
  26:Middlewares/lvgl/src/widgets/../core/lv_obj_style_gen.h **** {
  27:Middlewares/lvgl/src/widgets/../core/lv_obj_style_gen.h ****     lv_style_value_t v = lv_obj_get_style_prop(obj, part, LV_STYLE_MIN_HEIGHT);
  28:Middlewares/lvgl/src/widgets/../core/lv_obj_style_gen.h ****     return (lv_coord_t)v.num;
  29:Middlewares/lvgl/src/widgets/../core/lv_obj_style_gen.h **** }
  30:Middlewares/lvgl/src/widgets/../core/lv_obj_style_gen.h **** 
  31:Middlewares/lvgl/src/widgets/../core/lv_obj_style_gen.h **** static inline lv_coord_t lv_obj_get_style_max_height(const struct _lv_obj_t * obj, uint32_t part)
  32:Middlewares/lvgl/src/widgets/../core/lv_obj_style_gen.h **** {
  33:Middlewares/lvgl/src/widgets/../core/lv_obj_style_gen.h ****     lv_style_value_t v = lv_obj_get_style_prop(obj, part, LV_STYLE_MAX_HEIGHT);
  34:Middlewares/lvgl/src/widgets/../core/lv_obj_style_gen.h ****     return (lv_coord_t)v.num;
  35:Middlewares/lvgl/src/widgets/../core/lv_obj_style_gen.h **** }
  36:Middlewares/lvgl/src/widgets/../core/lv_obj_style_gen.h **** 
  37:Middlewares/lvgl/src/widgets/../core/lv_obj_style_gen.h **** static inline lv_coord_t lv_obj_get_style_x(const struct _lv_obj_t * obj, uint32_t part)
ARM GAS  /tmp/ccZjziLX.s 			page 18


  38:Middlewares/lvgl/src/widgets/../core/lv_obj_style_gen.h **** {
  39:Middlewares/lvgl/src/widgets/../core/lv_obj_style_gen.h ****     lv_style_value_t v = lv_obj_get_style_prop(obj, part, LV_STYLE_X);
  40:Middlewares/lvgl/src/widgets/../core/lv_obj_style_gen.h ****     return (lv_coord_t)v.num;
  41:Middlewares/lvgl/src/widgets/../core/lv_obj_style_gen.h **** }
  42:Middlewares/lvgl/src/widgets/../core/lv_obj_style_gen.h **** 
  43:Middlewares/lvgl/src/widgets/../core/lv_obj_style_gen.h **** static inline lv_coord_t lv_obj_get_style_y(const struct _lv_obj_t * obj, uint32_t part)
  44:Middlewares/lvgl/src/widgets/../core/lv_obj_style_gen.h **** {
  45:Middlewares/lvgl/src/widgets/../core/lv_obj_style_gen.h ****     lv_style_value_t v = lv_obj_get_style_prop(obj, part, LV_STYLE_Y);
  46:Middlewares/lvgl/src/widgets/../core/lv_obj_style_gen.h ****     return (lv_coord_t)v.num;
  47:Middlewares/lvgl/src/widgets/../core/lv_obj_style_gen.h **** }
  48:Middlewares/lvgl/src/widgets/../core/lv_obj_style_gen.h **** 
  49:Middlewares/lvgl/src/widgets/../core/lv_obj_style_gen.h **** static inline lv_align_t lv_obj_get_style_align(const struct _lv_obj_t * obj, uint32_t part)
  50:Middlewares/lvgl/src/widgets/../core/lv_obj_style_gen.h **** {
  51:Middlewares/lvgl/src/widgets/../core/lv_obj_style_gen.h ****     lv_style_value_t v = lv_obj_get_style_prop(obj, part, LV_STYLE_ALIGN);
  52:Middlewares/lvgl/src/widgets/../core/lv_obj_style_gen.h ****     return (lv_align_t)v.num;
  53:Middlewares/lvgl/src/widgets/../core/lv_obj_style_gen.h **** }
  54:Middlewares/lvgl/src/widgets/../core/lv_obj_style_gen.h **** 
  55:Middlewares/lvgl/src/widgets/../core/lv_obj_style_gen.h **** static inline lv_coord_t lv_obj_get_style_transform_width(const struct _lv_obj_t * obj, uint32_t pa
  56:Middlewares/lvgl/src/widgets/../core/lv_obj_style_gen.h **** {
  57:Middlewares/lvgl/src/widgets/../core/lv_obj_style_gen.h ****     lv_style_value_t v = lv_obj_get_style_prop(obj, part, LV_STYLE_TRANSFORM_WIDTH);
  58:Middlewares/lvgl/src/widgets/../core/lv_obj_style_gen.h ****     return (lv_coord_t)v.num;
  59:Middlewares/lvgl/src/widgets/../core/lv_obj_style_gen.h **** }
  60:Middlewares/lvgl/src/widgets/../core/lv_obj_style_gen.h **** 
  61:Middlewares/lvgl/src/widgets/../core/lv_obj_style_gen.h **** static inline lv_coord_t lv_obj_get_style_transform_height(const struct _lv_obj_t * obj, uint32_t p
  62:Middlewares/lvgl/src/widgets/../core/lv_obj_style_gen.h **** {
  63:Middlewares/lvgl/src/widgets/../core/lv_obj_style_gen.h ****     lv_style_value_t v = lv_obj_get_style_prop(obj, part, LV_STYLE_TRANSFORM_HEIGHT);
  64:Middlewares/lvgl/src/widgets/../core/lv_obj_style_gen.h ****     return (lv_coord_t)v.num;
  65:Middlewares/lvgl/src/widgets/../core/lv_obj_style_gen.h **** }
  66:Middlewares/lvgl/src/widgets/../core/lv_obj_style_gen.h **** 
  67:Middlewares/lvgl/src/widgets/../core/lv_obj_style_gen.h **** static inline lv_coord_t lv_obj_get_style_translate_x(const struct _lv_obj_t * obj, uint32_t part)
  68:Middlewares/lvgl/src/widgets/../core/lv_obj_style_gen.h **** {
  69:Middlewares/lvgl/src/widgets/../core/lv_obj_style_gen.h ****     lv_style_value_t v = lv_obj_get_style_prop(obj, part, LV_STYLE_TRANSLATE_X);
  70:Middlewares/lvgl/src/widgets/../core/lv_obj_style_gen.h ****     return (lv_coord_t)v.num;
  71:Middlewares/lvgl/src/widgets/../core/lv_obj_style_gen.h **** }
  72:Middlewares/lvgl/src/widgets/../core/lv_obj_style_gen.h **** 
  73:Middlewares/lvgl/src/widgets/../core/lv_obj_style_gen.h **** static inline lv_coord_t lv_obj_get_style_translate_y(const struct _lv_obj_t * obj, uint32_t part)
  74:Middlewares/lvgl/src/widgets/../core/lv_obj_style_gen.h **** {
  75:Middlewares/lvgl/src/widgets/../core/lv_obj_style_gen.h ****     lv_style_value_t v = lv_obj_get_style_prop(obj, part, LV_STYLE_TRANSLATE_Y);
  76:Middlewares/lvgl/src/widgets/../core/lv_obj_style_gen.h ****     return (lv_coord_t)v.num;
  77:Middlewares/lvgl/src/widgets/../core/lv_obj_style_gen.h **** }
  78:Middlewares/lvgl/src/widgets/../core/lv_obj_style_gen.h **** 
  79:Middlewares/lvgl/src/widgets/../core/lv_obj_style_gen.h **** static inline lv_coord_t lv_obj_get_style_transform_zoom(const struct _lv_obj_t * obj, uint32_t par
  80:Middlewares/lvgl/src/widgets/../core/lv_obj_style_gen.h **** {
  81:Middlewares/lvgl/src/widgets/../core/lv_obj_style_gen.h ****     lv_style_value_t v = lv_obj_get_style_prop(obj, part, LV_STYLE_TRANSFORM_ZOOM);
  82:Middlewares/lvgl/src/widgets/../core/lv_obj_style_gen.h ****     return (lv_coord_t)v.num;
  83:Middlewares/lvgl/src/widgets/../core/lv_obj_style_gen.h **** }
  84:Middlewares/lvgl/src/widgets/../core/lv_obj_style_gen.h **** 
  85:Middlewares/lvgl/src/widgets/../core/lv_obj_style_gen.h **** static inline lv_coord_t lv_obj_get_style_transform_angle(const struct _lv_obj_t * obj, uint32_t pa
  86:Middlewares/lvgl/src/widgets/../core/lv_obj_style_gen.h **** {
  87:Middlewares/lvgl/src/widgets/../core/lv_obj_style_gen.h ****     lv_style_value_t v = lv_obj_get_style_prop(obj, part, LV_STYLE_TRANSFORM_ANGLE);
  88:Middlewares/lvgl/src/widgets/../core/lv_obj_style_gen.h ****     return (lv_coord_t)v.num;
  89:Middlewares/lvgl/src/widgets/../core/lv_obj_style_gen.h **** }
  90:Middlewares/lvgl/src/widgets/../core/lv_obj_style_gen.h **** 
  91:Middlewares/lvgl/src/widgets/../core/lv_obj_style_gen.h **** static inline lv_coord_t lv_obj_get_style_pad_top(const struct _lv_obj_t * obj, uint32_t part)
  92:Middlewares/lvgl/src/widgets/../core/lv_obj_style_gen.h **** {
  93:Middlewares/lvgl/src/widgets/../core/lv_obj_style_gen.h ****     lv_style_value_t v = lv_obj_get_style_prop(obj, part, LV_STYLE_PAD_TOP);
  94:Middlewares/lvgl/src/widgets/../core/lv_obj_style_gen.h ****     return (lv_coord_t)v.num;
ARM GAS  /tmp/ccZjziLX.s 			page 19


  95:Middlewares/lvgl/src/widgets/../core/lv_obj_style_gen.h **** }
  96:Middlewares/lvgl/src/widgets/../core/lv_obj_style_gen.h **** 
  97:Middlewares/lvgl/src/widgets/../core/lv_obj_style_gen.h **** static inline lv_coord_t lv_obj_get_style_pad_bottom(const struct _lv_obj_t * obj, uint32_t part)
  98:Middlewares/lvgl/src/widgets/../core/lv_obj_style_gen.h **** {
  99:Middlewares/lvgl/src/widgets/../core/lv_obj_style_gen.h ****     lv_style_value_t v = lv_obj_get_style_prop(obj, part, LV_STYLE_PAD_BOTTOM);
 100:Middlewares/lvgl/src/widgets/../core/lv_obj_style_gen.h ****     return (lv_coord_t)v.num;
 101:Middlewares/lvgl/src/widgets/../core/lv_obj_style_gen.h **** }
 102:Middlewares/lvgl/src/widgets/../core/lv_obj_style_gen.h **** 
 103:Middlewares/lvgl/src/widgets/../core/lv_obj_style_gen.h **** static inline lv_coord_t lv_obj_get_style_pad_left(const struct _lv_obj_t * obj, uint32_t part)
  56              		.loc 2 103 26 view .LVU3
  57              	.LBB76:
 104:Middlewares/lvgl/src/widgets/../core/lv_obj_style_gen.h **** {
 105:Middlewares/lvgl/src/widgets/../core/lv_obj_style_gen.h ****     lv_style_value_t v = lv_obj_get_style_prop(obj, part, LV_STYLE_PAD_LEFT);
  58              		.loc 2 105 5 view .LVU4
  59              		.loc 2 105 26 is_stmt 0 view .LVU5
  60 000c 41F21202 		movw	r2, #4114
  61              	.LVL2:
  62              		.loc 2 105 26 view .LVU6
  63 0010 0021     		movs	r1, #0
  64              	.LVL3:
  65              		.loc 2 105 26 view .LVU7
  66 0012 FFF7FEFF 		bl	lv_obj_get_style_prop
  67              	.LVL4:
  68              		.loc 2 105 26 view .LVU8
  69 0016 0746     		mov	r7, r0
 106:Middlewares/lvgl/src/widgets/../core/lv_obj_style_gen.h ****     return (lv_coord_t)v.num;
  70              		.loc 2 106 5 is_stmt 1 view .LVU9
  71              		.loc 2 106 12 is_stmt 0 view .LVU10
  72 0018 0FFA80FB 		sxth	fp, r0
  73              	.LVL5:
  74              		.loc 2 106 12 view .LVU11
  75              	.LBE76:
  76              	.LBE75:
 879:Middlewares/lvgl/src/widgets/lv_arc.c ****     lv_coord_t right_bg = lv_obj_get_style_pad_right(obj, LV_PART_MAIN);
  77              		.loc 1 879 5 is_stmt 1 view .LVU12
  78              	.LBB77:
  79              	.LBI77:
 107:Middlewares/lvgl/src/widgets/../core/lv_obj_style_gen.h **** }
 108:Middlewares/lvgl/src/widgets/../core/lv_obj_style_gen.h **** 
 109:Middlewares/lvgl/src/widgets/../core/lv_obj_style_gen.h **** static inline lv_coord_t lv_obj_get_style_pad_right(const struct _lv_obj_t * obj, uint32_t part)
  80              		.loc 2 109 26 view .LVU13
  81              	.LBB78:
 110:Middlewares/lvgl/src/widgets/../core/lv_obj_style_gen.h **** {
 111:Middlewares/lvgl/src/widgets/../core/lv_obj_style_gen.h ****     lv_style_value_t v = lv_obj_get_style_prop(obj, part, LV_STYLE_PAD_RIGHT);
  82              		.loc 2 111 5 view .LVU14
  83              		.loc 2 111 26 is_stmt 0 view .LVU15
  84 001c 41F21302 		movw	r2, #4115
  85 0020 0021     		movs	r1, #0
  86 0022 2046     		mov	r0, r4
  87 0024 FFF7FEFF 		bl	lv_obj_get_style_prop
  88              	.LVL6:
 112:Middlewares/lvgl/src/widgets/../core/lv_obj_style_gen.h ****     return (lv_coord_t)v.num;
  89              		.loc 2 112 5 is_stmt 1 view .LVU16
  90              		.loc 2 112 12 is_stmt 0 view .LVU17
  91 0028 0FFA80F9 		sxth	r9, r0
  92              	.LVL7:
  93              		.loc 2 112 12 view .LVU18
ARM GAS  /tmp/ccZjziLX.s 			page 20


  94              	.LBE78:
  95              	.LBE77:
 880:Middlewares/lvgl/src/widgets/lv_arc.c ****     lv_coord_t top_bg = lv_obj_get_style_pad_top(obj, LV_PART_MAIN);
  96              		.loc 1 880 5 is_stmt 1 view .LVU19
  97              	.LBB79:
  98              	.LBI79:
  91:Middlewares/lvgl/src/widgets/../core/lv_obj_style_gen.h **** {
  99              		.loc 2 91 26 view .LVU20
 100              	.LBB80:
  93:Middlewares/lvgl/src/widgets/../core/lv_obj_style_gen.h ****     return (lv_coord_t)v.num;
 101              		.loc 2 93 5 view .LVU21
  93:Middlewares/lvgl/src/widgets/../core/lv_obj_style_gen.h ****     return (lv_coord_t)v.num;
 102              		.loc 2 93 26 is_stmt 0 view .LVU22
 103 002c 41F21002 		movw	r2, #4112
 104 0030 0021     		movs	r1, #0
 105 0032 2046     		mov	r0, r4
 106 0034 FFF7FEFF 		bl	lv_obj_get_style_prop
 107              	.LVL8:
 108 0038 0090     		str	r0, [sp]
  94:Middlewares/lvgl/src/widgets/../core/lv_obj_style_gen.h **** }
 109              		.loc 2 94 5 is_stmt 1 view .LVU23
  94:Middlewares/lvgl/src/widgets/../core/lv_obj_style_gen.h **** }
 110              		.loc 2 94 12 is_stmt 0 view .LVU24
 111 003a 0FFA80FA 		sxth	r10, r0
 112              	.LVL9:
  94:Middlewares/lvgl/src/widgets/../core/lv_obj_style_gen.h **** }
 113              		.loc 2 94 12 view .LVU25
 114              	.LBE80:
 115              	.LBE79:
 881:Middlewares/lvgl/src/widgets/lv_arc.c ****     lv_coord_t bottom_bg = lv_obj_get_style_pad_bottom(obj, LV_PART_MAIN);
 116              		.loc 1 881 5 is_stmt 1 view .LVU26
 117              	.LBB81:
 118              	.LBI81:
  97:Middlewares/lvgl/src/widgets/../core/lv_obj_style_gen.h **** {
 119              		.loc 2 97 26 view .LVU27
 120              	.LBB82:
  99:Middlewares/lvgl/src/widgets/../core/lv_obj_style_gen.h ****     return (lv_coord_t)v.num;
 121              		.loc 2 99 5 view .LVU28
  99:Middlewares/lvgl/src/widgets/../core/lv_obj_style_gen.h ****     return (lv_coord_t)v.num;
 122              		.loc 2 99 26 is_stmt 0 view .LVU29
 123 003e 41F21102 		movw	r2, #4113
 124 0042 0021     		movs	r1, #0
 125 0044 2046     		mov	r0, r4
 126 0046 FFF7FEFF 		bl	lv_obj_get_style_prop
 127              	.LVL10:
 100:Middlewares/lvgl/src/widgets/../core/lv_obj_style_gen.h **** }
 128              		.loc 2 100 5 is_stmt 1 view .LVU30
 100:Middlewares/lvgl/src/widgets/../core/lv_obj_style_gen.h **** }
 129              		.loc 2 100 12 is_stmt 0 view .LVU31
 130 004a 0FFA80F8 		sxth	r8, r0
 131              	.LVL11:
 100:Middlewares/lvgl/src/widgets/../core/lv_obj_style_gen.h **** }
 132              		.loc 2 100 12 view .LVU32
 133              	.LBE82:
 134              	.LBE81:
 882:Middlewares/lvgl/src/widgets/lv_arc.c **** 
 883:Middlewares/lvgl/src/widgets/lv_arc.c ****     lv_coord_t r = (LV_MIN(lv_obj_get_width(obj) - left_bg - right_bg,
ARM GAS  /tmp/ccZjziLX.s 			page 21


 135              		.loc 1 883 5 is_stmt 1 view .LVU33
 136              		.loc 1 883 21 is_stmt 0 view .LVU34
 137 004e 2046     		mov	r0, r4
 138 0050 FFF7FEFF 		bl	lv_obj_get_width
 139              	.LVL12:
 140 0054 A0EB0B05 		sub	r5, r0, fp
 141 0058 A5EB0905 		sub	r5, r5, r9
 142 005c 2046     		mov	r0, r4
 143 005e FFF7FEFF 		bl	lv_obj_get_height
 144              	.LVL13:
 145 0062 A0EB0A00 		sub	r0, r0, r10
 146 0066 A0EB0800 		sub	r0, r0, r8
 147              		.loc 1 883 16 view .LVU35
 148 006a 8542     		cmp	r5, r0
 149 006c 26DA     		bge	.L2
 150              		.loc 1 883 21 discriminator 1 view .LVU36
 151 006e 2046     		mov	r0, r4
 152 0070 FFF7FEFF 		bl	lv_obj_get_width
 153              	.LVL14:
 154 0074 A0EB0B0B 		sub	fp, r0, fp
 155              	.LVL15:
 884:Middlewares/lvgl/src/widgets/lv_arc.c ****                                 lv_obj_get_height(obj) - top_bg - bottom_bg)) / 2;
 156              		.loc 1 884 79 discriminator 1 view .LVU37
 157 0078 BBEB0908 		subs	r8, fp, r9
 158              	.LVL16:
 159              		.loc 1 884 79 discriminator 1 view .LVU38
 160 007c 1BD4     		bmi	.L7
 161              	.L3:
 883:Middlewares/lvgl/src/widgets/lv_arc.c ****                                 lv_obj_get_height(obj) - top_bg - bottom_bg)) / 2;
 162              		.loc 1 883 16 discriminator 1 view .LVU39
 163 007e 48F34F08 		sbfx	r8, r8, #1, #16
 164              	.LVL17:
 165              	.L4:
 885:Middlewares/lvgl/src/widgets/lv_arc.c **** 
 886:Middlewares/lvgl/src/widgets/lv_arc.c ****     *arc_r = r;
 166              		.loc 1 886 5 is_stmt 1 discriminator 4 view .LVU40
 167              		.loc 1 886 12 is_stmt 0 discriminator 4 view .LVU41
 168 0082 019B     		ldr	r3, [sp, #4]
 169 0084 A3F80080 		strh	r8, [r3]	@ movhi
 887:Middlewares/lvgl/src/widgets/lv_arc.c ****     center->x = obj->coords.x1 + r + left_bg;
 170              		.loc 1 887 5 is_stmt 1 discriminator 4 view .LVU42
 171              		.loc 1 887 28 is_stmt 0 discriminator 4 view .LVU43
 172 0088 A08A     		ldrh	r0, [r4, #20]
 173              		.loc 1 887 32 discriminator 4 view .LVU44
 174 008a 1FFA88F8 		uxth	r8, r8
 175              	.LVL18:
 176              		.loc 1 887 32 discriminator 4 view .LVU45
 177 008e 4044     		add	r0, r0, r8
 178              		.loc 1 887 36 discriminator 4 view .LVU46
 179 0090 17FA80F7 		uxtah	r7, r7, r0
 180              		.loc 1 887 15 discriminator 4 view .LVU47
 181 0094 3780     		strh	r7, [r6]	@ movhi
 182              	.LVL19:
 888:Middlewares/lvgl/src/widgets/lv_arc.c ****     center->y = obj->coords.y1 + r + top_bg;
 183              		.loc 1 888 5 is_stmt 1 discriminator 4 view .LVU48
 184              		.loc 1 888 28 is_stmt 0 discriminator 4 view .LVU49
 185 0096 E08A     		ldrh	r0, [r4, #22]
ARM GAS  /tmp/ccZjziLX.s 			page 22


 186              		.loc 1 888 32 discriminator 4 view .LVU50
 187 0098 8044     		add	r8, r8, r0
 188              	.LVL20:
 189              		.loc 1 888 36 discriminator 4 view .LVU51
 190 009a 009B     		ldr	r3, [sp]
 191 009c 13FA88F0 		uxtah	r0, r3, r8
 192              		.loc 1 888 15 discriminator 4 view .LVU52
 193 00a0 7080     		strh	r0, [r6, #2]	@ movhi
 889:Middlewares/lvgl/src/widgets/lv_arc.c **** 
 890:Middlewares/lvgl/src/widgets/lv_arc.c ****     lv_coord_t indic_width = lv_obj_get_style_arc_width(obj, LV_PART_INDICATOR);
 194              		.loc 1 890 5 is_stmt 1 discriminator 4 view .LVU53
 195              	.LVL21:
 196              	.LBB83:
 197              	.LBI83:
 113:Middlewares/lvgl/src/widgets/../core/lv_obj_style_gen.h **** }
 114:Middlewares/lvgl/src/widgets/../core/lv_obj_style_gen.h **** 
 115:Middlewares/lvgl/src/widgets/../core/lv_obj_style_gen.h **** static inline lv_coord_t lv_obj_get_style_pad_row(const struct _lv_obj_t * obj, uint32_t part)
 116:Middlewares/lvgl/src/widgets/../core/lv_obj_style_gen.h **** {
 117:Middlewares/lvgl/src/widgets/../core/lv_obj_style_gen.h ****     lv_style_value_t v = lv_obj_get_style_prop(obj, part, LV_STYLE_PAD_ROW);
 118:Middlewares/lvgl/src/widgets/../core/lv_obj_style_gen.h ****     return (lv_coord_t)v.num;
 119:Middlewares/lvgl/src/widgets/../core/lv_obj_style_gen.h **** }
 120:Middlewares/lvgl/src/widgets/../core/lv_obj_style_gen.h **** 
 121:Middlewares/lvgl/src/widgets/../core/lv_obj_style_gen.h **** static inline lv_coord_t lv_obj_get_style_pad_column(const struct _lv_obj_t * obj, uint32_t part)
 122:Middlewares/lvgl/src/widgets/../core/lv_obj_style_gen.h **** {
 123:Middlewares/lvgl/src/widgets/../core/lv_obj_style_gen.h ****     lv_style_value_t v = lv_obj_get_style_prop(obj, part, LV_STYLE_PAD_COLUMN);
 124:Middlewares/lvgl/src/widgets/../core/lv_obj_style_gen.h ****     return (lv_coord_t)v.num;
 125:Middlewares/lvgl/src/widgets/../core/lv_obj_style_gen.h **** }
 126:Middlewares/lvgl/src/widgets/../core/lv_obj_style_gen.h **** 
 127:Middlewares/lvgl/src/widgets/../core/lv_obj_style_gen.h **** static inline lv_coord_t lv_obj_get_style_radius(const struct _lv_obj_t * obj, uint32_t part)
 128:Middlewares/lvgl/src/widgets/../core/lv_obj_style_gen.h **** {
 129:Middlewares/lvgl/src/widgets/../core/lv_obj_style_gen.h ****     lv_style_value_t v = lv_obj_get_style_prop(obj, part, LV_STYLE_RADIUS);
 130:Middlewares/lvgl/src/widgets/../core/lv_obj_style_gen.h ****     return (lv_coord_t)v.num;
 131:Middlewares/lvgl/src/widgets/../core/lv_obj_style_gen.h **** }
 132:Middlewares/lvgl/src/widgets/../core/lv_obj_style_gen.h **** 
 133:Middlewares/lvgl/src/widgets/../core/lv_obj_style_gen.h **** static inline bool lv_obj_get_style_clip_corner(const struct _lv_obj_t * obj, uint32_t part)
 134:Middlewares/lvgl/src/widgets/../core/lv_obj_style_gen.h **** {
 135:Middlewares/lvgl/src/widgets/../core/lv_obj_style_gen.h ****     lv_style_value_t v = lv_obj_get_style_prop(obj, part, LV_STYLE_CLIP_CORNER);
 136:Middlewares/lvgl/src/widgets/../core/lv_obj_style_gen.h ****     return (bool)v.num;
 137:Middlewares/lvgl/src/widgets/../core/lv_obj_style_gen.h **** }
 138:Middlewares/lvgl/src/widgets/../core/lv_obj_style_gen.h **** 
 139:Middlewares/lvgl/src/widgets/../core/lv_obj_style_gen.h **** static inline lv_opa_t lv_obj_get_style_opa(const struct _lv_obj_t * obj, uint32_t part)
 140:Middlewares/lvgl/src/widgets/../core/lv_obj_style_gen.h **** {
 141:Middlewares/lvgl/src/widgets/../core/lv_obj_style_gen.h ****     lv_style_value_t v = lv_obj_get_style_prop(obj, part, LV_STYLE_OPA);
 142:Middlewares/lvgl/src/widgets/../core/lv_obj_style_gen.h ****     return (lv_opa_t)v.num;
 143:Middlewares/lvgl/src/widgets/../core/lv_obj_style_gen.h **** }
 144:Middlewares/lvgl/src/widgets/../core/lv_obj_style_gen.h **** 
 145:Middlewares/lvgl/src/widgets/../core/lv_obj_style_gen.h **** static inline const lv_color_filter_dsc_t * lv_obj_get_style_color_filter_dsc(const struct _lv_obj_
 146:Middlewares/lvgl/src/widgets/../core/lv_obj_style_gen.h **** {
 147:Middlewares/lvgl/src/widgets/../core/lv_obj_style_gen.h ****     lv_style_value_t v = lv_obj_get_style_prop(obj, part, LV_STYLE_COLOR_FILTER_DSC);
 148:Middlewares/lvgl/src/widgets/../core/lv_obj_style_gen.h ****     return (const lv_color_filter_dsc_t *)v.ptr;
 149:Middlewares/lvgl/src/widgets/../core/lv_obj_style_gen.h **** }
 150:Middlewares/lvgl/src/widgets/../core/lv_obj_style_gen.h **** 
 151:Middlewares/lvgl/src/widgets/../core/lv_obj_style_gen.h **** static inline lv_opa_t lv_obj_get_style_color_filter_opa(const struct _lv_obj_t * obj, uint32_t par
 152:Middlewares/lvgl/src/widgets/../core/lv_obj_style_gen.h **** {
 153:Middlewares/lvgl/src/widgets/../core/lv_obj_style_gen.h ****     lv_style_value_t v = lv_obj_get_style_prop(obj, part, LV_STYLE_COLOR_FILTER_OPA);
 154:Middlewares/lvgl/src/widgets/../core/lv_obj_style_gen.h ****     return (lv_opa_t)v.num;
 155:Middlewares/lvgl/src/widgets/../core/lv_obj_style_gen.h **** }
ARM GAS  /tmp/ccZjziLX.s 			page 23


 156:Middlewares/lvgl/src/widgets/../core/lv_obj_style_gen.h **** 
 157:Middlewares/lvgl/src/widgets/../core/lv_obj_style_gen.h **** static inline uint32_t lv_obj_get_style_anim_time(const struct _lv_obj_t * obj, uint32_t part)
 158:Middlewares/lvgl/src/widgets/../core/lv_obj_style_gen.h **** {
 159:Middlewares/lvgl/src/widgets/../core/lv_obj_style_gen.h ****     lv_style_value_t v = lv_obj_get_style_prop(obj, part, LV_STYLE_ANIM_TIME);
 160:Middlewares/lvgl/src/widgets/../core/lv_obj_style_gen.h ****     return (uint32_t)v.num;
 161:Middlewares/lvgl/src/widgets/../core/lv_obj_style_gen.h **** }
 162:Middlewares/lvgl/src/widgets/../core/lv_obj_style_gen.h **** 
 163:Middlewares/lvgl/src/widgets/../core/lv_obj_style_gen.h **** static inline uint32_t lv_obj_get_style_anim_speed(const struct _lv_obj_t * obj, uint32_t part)
 164:Middlewares/lvgl/src/widgets/../core/lv_obj_style_gen.h **** {
 165:Middlewares/lvgl/src/widgets/../core/lv_obj_style_gen.h ****     lv_style_value_t v = lv_obj_get_style_prop(obj, part, LV_STYLE_ANIM_SPEED);
 166:Middlewares/lvgl/src/widgets/../core/lv_obj_style_gen.h ****     return (uint32_t)v.num;
 167:Middlewares/lvgl/src/widgets/../core/lv_obj_style_gen.h **** }
 168:Middlewares/lvgl/src/widgets/../core/lv_obj_style_gen.h **** 
 169:Middlewares/lvgl/src/widgets/../core/lv_obj_style_gen.h **** static inline const lv_style_transition_dsc_t * lv_obj_get_style_transition(const struct _lv_obj_t 
 170:Middlewares/lvgl/src/widgets/../core/lv_obj_style_gen.h **** {
 171:Middlewares/lvgl/src/widgets/../core/lv_obj_style_gen.h ****     lv_style_value_t v = lv_obj_get_style_prop(obj, part, LV_STYLE_TRANSITION);
 172:Middlewares/lvgl/src/widgets/../core/lv_obj_style_gen.h ****     return (const lv_style_transition_dsc_t *)v.ptr;
 173:Middlewares/lvgl/src/widgets/../core/lv_obj_style_gen.h **** }
 174:Middlewares/lvgl/src/widgets/../core/lv_obj_style_gen.h **** 
 175:Middlewares/lvgl/src/widgets/../core/lv_obj_style_gen.h **** static inline lv_blend_mode_t lv_obj_get_style_blend_mode(const struct _lv_obj_t * obj, uint32_t pa
 176:Middlewares/lvgl/src/widgets/../core/lv_obj_style_gen.h **** {
 177:Middlewares/lvgl/src/widgets/../core/lv_obj_style_gen.h ****     lv_style_value_t v = lv_obj_get_style_prop(obj, part, LV_STYLE_BLEND_MODE);
 178:Middlewares/lvgl/src/widgets/../core/lv_obj_style_gen.h ****     return (lv_blend_mode_t)v.num;
 179:Middlewares/lvgl/src/widgets/../core/lv_obj_style_gen.h **** }
 180:Middlewares/lvgl/src/widgets/../core/lv_obj_style_gen.h **** 
 181:Middlewares/lvgl/src/widgets/../core/lv_obj_style_gen.h **** static inline uint16_t lv_obj_get_style_layout(const struct _lv_obj_t * obj, uint32_t part)
 182:Middlewares/lvgl/src/widgets/../core/lv_obj_style_gen.h **** {
 183:Middlewares/lvgl/src/widgets/../core/lv_obj_style_gen.h ****     lv_style_value_t v = lv_obj_get_style_prop(obj, part, LV_STYLE_LAYOUT);
 184:Middlewares/lvgl/src/widgets/../core/lv_obj_style_gen.h ****     return (uint16_t)v.num;
 185:Middlewares/lvgl/src/widgets/../core/lv_obj_style_gen.h **** }
 186:Middlewares/lvgl/src/widgets/../core/lv_obj_style_gen.h **** 
 187:Middlewares/lvgl/src/widgets/../core/lv_obj_style_gen.h **** static inline lv_base_dir_t lv_obj_get_style_base_dir(const struct _lv_obj_t * obj, uint32_t part)
 188:Middlewares/lvgl/src/widgets/../core/lv_obj_style_gen.h **** {
 189:Middlewares/lvgl/src/widgets/../core/lv_obj_style_gen.h ****     lv_style_value_t v = lv_obj_get_style_prop(obj, part, LV_STYLE_BASE_DIR);
 190:Middlewares/lvgl/src/widgets/../core/lv_obj_style_gen.h ****     return (lv_base_dir_t)v.num;
 191:Middlewares/lvgl/src/widgets/../core/lv_obj_style_gen.h **** }
 192:Middlewares/lvgl/src/widgets/../core/lv_obj_style_gen.h **** 
 193:Middlewares/lvgl/src/widgets/../core/lv_obj_style_gen.h **** static inline lv_color_t lv_obj_get_style_bg_color(const struct _lv_obj_t * obj, uint32_t part)
 194:Middlewares/lvgl/src/widgets/../core/lv_obj_style_gen.h **** {
 195:Middlewares/lvgl/src/widgets/../core/lv_obj_style_gen.h ****     lv_style_value_t v = lv_obj_get_style_prop(obj, part, LV_STYLE_BG_COLOR);
 196:Middlewares/lvgl/src/widgets/../core/lv_obj_style_gen.h ****     return v.color;
 197:Middlewares/lvgl/src/widgets/../core/lv_obj_style_gen.h **** }
 198:Middlewares/lvgl/src/widgets/../core/lv_obj_style_gen.h **** 
 199:Middlewares/lvgl/src/widgets/../core/lv_obj_style_gen.h **** static inline lv_color_t lv_obj_get_style_bg_color_filtered(const struct _lv_obj_t * obj, uint32_t 
 200:Middlewares/lvgl/src/widgets/../core/lv_obj_style_gen.h **** {
 201:Middlewares/lvgl/src/widgets/../core/lv_obj_style_gen.h ****     lv_style_value_t v = lv_obj_get_style_prop(obj, part, LV_STYLE_BG_COLOR_FILTERED);
 202:Middlewares/lvgl/src/widgets/../core/lv_obj_style_gen.h ****     return v.color;
 203:Middlewares/lvgl/src/widgets/../core/lv_obj_style_gen.h **** }
 204:Middlewares/lvgl/src/widgets/../core/lv_obj_style_gen.h **** 
 205:Middlewares/lvgl/src/widgets/../core/lv_obj_style_gen.h **** static inline lv_opa_t lv_obj_get_style_bg_opa(const struct _lv_obj_t * obj, uint32_t part)
 206:Middlewares/lvgl/src/widgets/../core/lv_obj_style_gen.h **** {
 207:Middlewares/lvgl/src/widgets/../core/lv_obj_style_gen.h ****     lv_style_value_t v = lv_obj_get_style_prop(obj, part, LV_STYLE_BG_OPA);
 208:Middlewares/lvgl/src/widgets/../core/lv_obj_style_gen.h ****     return (lv_opa_t)v.num;
 209:Middlewares/lvgl/src/widgets/../core/lv_obj_style_gen.h **** }
 210:Middlewares/lvgl/src/widgets/../core/lv_obj_style_gen.h **** 
 211:Middlewares/lvgl/src/widgets/../core/lv_obj_style_gen.h **** static inline lv_color_t lv_obj_get_style_bg_grad_color(const struct _lv_obj_t * obj, uint32_t part
 212:Middlewares/lvgl/src/widgets/../core/lv_obj_style_gen.h **** {
ARM GAS  /tmp/ccZjziLX.s 			page 24


 213:Middlewares/lvgl/src/widgets/../core/lv_obj_style_gen.h ****     lv_style_value_t v = lv_obj_get_style_prop(obj, part, LV_STYLE_BG_GRAD_COLOR);
 214:Middlewares/lvgl/src/widgets/../core/lv_obj_style_gen.h ****     return v.color;
 215:Middlewares/lvgl/src/widgets/../core/lv_obj_style_gen.h **** }
 216:Middlewares/lvgl/src/widgets/../core/lv_obj_style_gen.h **** 
 217:Middlewares/lvgl/src/widgets/../core/lv_obj_style_gen.h **** static inline lv_color_t lv_obj_get_style_bg_grad_color_filtered(const struct _lv_obj_t * obj, uint
 218:Middlewares/lvgl/src/widgets/../core/lv_obj_style_gen.h **** {
 219:Middlewares/lvgl/src/widgets/../core/lv_obj_style_gen.h ****     lv_style_value_t v = lv_obj_get_style_prop(obj, part, LV_STYLE_BG_GRAD_COLOR_FILTERED);
 220:Middlewares/lvgl/src/widgets/../core/lv_obj_style_gen.h ****     return v.color;
 221:Middlewares/lvgl/src/widgets/../core/lv_obj_style_gen.h **** }
 222:Middlewares/lvgl/src/widgets/../core/lv_obj_style_gen.h **** 
 223:Middlewares/lvgl/src/widgets/../core/lv_obj_style_gen.h **** static inline lv_grad_dir_t lv_obj_get_style_bg_grad_dir(const struct _lv_obj_t * obj, uint32_t par
 224:Middlewares/lvgl/src/widgets/../core/lv_obj_style_gen.h **** {
 225:Middlewares/lvgl/src/widgets/../core/lv_obj_style_gen.h ****     lv_style_value_t v = lv_obj_get_style_prop(obj, part, LV_STYLE_BG_GRAD_DIR);
 226:Middlewares/lvgl/src/widgets/../core/lv_obj_style_gen.h ****     return (lv_grad_dir_t)v.num;
 227:Middlewares/lvgl/src/widgets/../core/lv_obj_style_gen.h **** }
 228:Middlewares/lvgl/src/widgets/../core/lv_obj_style_gen.h **** 
 229:Middlewares/lvgl/src/widgets/../core/lv_obj_style_gen.h **** static inline lv_coord_t lv_obj_get_style_bg_main_stop(const struct _lv_obj_t * obj, uint32_t part)
 230:Middlewares/lvgl/src/widgets/../core/lv_obj_style_gen.h **** {
 231:Middlewares/lvgl/src/widgets/../core/lv_obj_style_gen.h ****     lv_style_value_t v = lv_obj_get_style_prop(obj, part, LV_STYLE_BG_MAIN_STOP);
 232:Middlewares/lvgl/src/widgets/../core/lv_obj_style_gen.h ****     return (lv_coord_t)v.num;
 233:Middlewares/lvgl/src/widgets/../core/lv_obj_style_gen.h **** }
 234:Middlewares/lvgl/src/widgets/../core/lv_obj_style_gen.h **** 
 235:Middlewares/lvgl/src/widgets/../core/lv_obj_style_gen.h **** static inline lv_coord_t lv_obj_get_style_bg_grad_stop(const struct _lv_obj_t * obj, uint32_t part)
 236:Middlewares/lvgl/src/widgets/../core/lv_obj_style_gen.h **** {
 237:Middlewares/lvgl/src/widgets/../core/lv_obj_style_gen.h ****     lv_style_value_t v = lv_obj_get_style_prop(obj, part, LV_STYLE_BG_GRAD_STOP);
 238:Middlewares/lvgl/src/widgets/../core/lv_obj_style_gen.h ****     return (lv_coord_t)v.num;
 239:Middlewares/lvgl/src/widgets/../core/lv_obj_style_gen.h **** }
 240:Middlewares/lvgl/src/widgets/../core/lv_obj_style_gen.h **** 
 241:Middlewares/lvgl/src/widgets/../core/lv_obj_style_gen.h **** static inline const void * lv_obj_get_style_bg_img_src(const struct _lv_obj_t * obj, uint32_t part)
 242:Middlewares/lvgl/src/widgets/../core/lv_obj_style_gen.h **** {
 243:Middlewares/lvgl/src/widgets/../core/lv_obj_style_gen.h ****     lv_style_value_t v = lv_obj_get_style_prop(obj, part, LV_STYLE_BG_IMG_SRC);
 244:Middlewares/lvgl/src/widgets/../core/lv_obj_style_gen.h ****     return (const void *)v.ptr;
 245:Middlewares/lvgl/src/widgets/../core/lv_obj_style_gen.h **** }
 246:Middlewares/lvgl/src/widgets/../core/lv_obj_style_gen.h **** 
 247:Middlewares/lvgl/src/widgets/../core/lv_obj_style_gen.h **** static inline lv_opa_t lv_obj_get_style_bg_img_opa(const struct _lv_obj_t * obj, uint32_t part)
 248:Middlewares/lvgl/src/widgets/../core/lv_obj_style_gen.h **** {
 249:Middlewares/lvgl/src/widgets/../core/lv_obj_style_gen.h ****     lv_style_value_t v = lv_obj_get_style_prop(obj, part, LV_STYLE_BG_IMG_OPA);
 250:Middlewares/lvgl/src/widgets/../core/lv_obj_style_gen.h ****     return (lv_opa_t)v.num;
 251:Middlewares/lvgl/src/widgets/../core/lv_obj_style_gen.h **** }
 252:Middlewares/lvgl/src/widgets/../core/lv_obj_style_gen.h **** 
 253:Middlewares/lvgl/src/widgets/../core/lv_obj_style_gen.h **** static inline lv_color_t lv_obj_get_style_bg_img_recolor(const struct _lv_obj_t * obj, uint32_t par
 254:Middlewares/lvgl/src/widgets/../core/lv_obj_style_gen.h **** {
 255:Middlewares/lvgl/src/widgets/../core/lv_obj_style_gen.h ****     lv_style_value_t v = lv_obj_get_style_prop(obj, part, LV_STYLE_BG_IMG_RECOLOR);
 256:Middlewares/lvgl/src/widgets/../core/lv_obj_style_gen.h ****     return v.color;
 257:Middlewares/lvgl/src/widgets/../core/lv_obj_style_gen.h **** }
 258:Middlewares/lvgl/src/widgets/../core/lv_obj_style_gen.h **** 
 259:Middlewares/lvgl/src/widgets/../core/lv_obj_style_gen.h **** static inline lv_color_t lv_obj_get_style_bg_img_recolor_filtered(const struct _lv_obj_t * obj, uin
 260:Middlewares/lvgl/src/widgets/../core/lv_obj_style_gen.h **** {
 261:Middlewares/lvgl/src/widgets/../core/lv_obj_style_gen.h ****     lv_style_value_t v = lv_obj_get_style_prop(obj, part, LV_STYLE_BG_IMG_RECOLOR_FILTERED);
 262:Middlewares/lvgl/src/widgets/../core/lv_obj_style_gen.h ****     return v.color;
 263:Middlewares/lvgl/src/widgets/../core/lv_obj_style_gen.h **** }
 264:Middlewares/lvgl/src/widgets/../core/lv_obj_style_gen.h **** 
 265:Middlewares/lvgl/src/widgets/../core/lv_obj_style_gen.h **** static inline lv_opa_t lv_obj_get_style_bg_img_recolor_opa(const struct _lv_obj_t * obj, uint32_t p
 266:Middlewares/lvgl/src/widgets/../core/lv_obj_style_gen.h **** {
 267:Middlewares/lvgl/src/widgets/../core/lv_obj_style_gen.h ****     lv_style_value_t v = lv_obj_get_style_prop(obj, part, LV_STYLE_BG_IMG_RECOLOR_OPA);
 268:Middlewares/lvgl/src/widgets/../core/lv_obj_style_gen.h ****     return (lv_opa_t)v.num;
 269:Middlewares/lvgl/src/widgets/../core/lv_obj_style_gen.h **** }
ARM GAS  /tmp/ccZjziLX.s 			page 25


 270:Middlewares/lvgl/src/widgets/../core/lv_obj_style_gen.h **** 
 271:Middlewares/lvgl/src/widgets/../core/lv_obj_style_gen.h **** static inline bool lv_obj_get_style_bg_img_tiled(const struct _lv_obj_t * obj, uint32_t part)
 272:Middlewares/lvgl/src/widgets/../core/lv_obj_style_gen.h **** {
 273:Middlewares/lvgl/src/widgets/../core/lv_obj_style_gen.h ****     lv_style_value_t v = lv_obj_get_style_prop(obj, part, LV_STYLE_BG_IMG_TILED);
 274:Middlewares/lvgl/src/widgets/../core/lv_obj_style_gen.h ****     return (bool)v.num;
 275:Middlewares/lvgl/src/widgets/../core/lv_obj_style_gen.h **** }
 276:Middlewares/lvgl/src/widgets/../core/lv_obj_style_gen.h **** 
 277:Middlewares/lvgl/src/widgets/../core/lv_obj_style_gen.h **** static inline lv_color_t lv_obj_get_style_border_color(const struct _lv_obj_t * obj, uint32_t part)
 278:Middlewares/lvgl/src/widgets/../core/lv_obj_style_gen.h **** {
 279:Middlewares/lvgl/src/widgets/../core/lv_obj_style_gen.h ****     lv_style_value_t v = lv_obj_get_style_prop(obj, part, LV_STYLE_BORDER_COLOR);
 280:Middlewares/lvgl/src/widgets/../core/lv_obj_style_gen.h ****     return v.color;
 281:Middlewares/lvgl/src/widgets/../core/lv_obj_style_gen.h **** }
 282:Middlewares/lvgl/src/widgets/../core/lv_obj_style_gen.h **** 
 283:Middlewares/lvgl/src/widgets/../core/lv_obj_style_gen.h **** static inline lv_color_t lv_obj_get_style_border_color_filtered(const struct _lv_obj_t * obj, uint3
 284:Middlewares/lvgl/src/widgets/../core/lv_obj_style_gen.h **** {
 285:Middlewares/lvgl/src/widgets/../core/lv_obj_style_gen.h ****     lv_style_value_t v = lv_obj_get_style_prop(obj, part, LV_STYLE_BORDER_COLOR_FILTERED);
 286:Middlewares/lvgl/src/widgets/../core/lv_obj_style_gen.h ****     return v.color;
 287:Middlewares/lvgl/src/widgets/../core/lv_obj_style_gen.h **** }
 288:Middlewares/lvgl/src/widgets/../core/lv_obj_style_gen.h **** 
 289:Middlewares/lvgl/src/widgets/../core/lv_obj_style_gen.h **** static inline lv_opa_t lv_obj_get_style_border_opa(const struct _lv_obj_t * obj, uint32_t part)
 290:Middlewares/lvgl/src/widgets/../core/lv_obj_style_gen.h **** {
 291:Middlewares/lvgl/src/widgets/../core/lv_obj_style_gen.h ****     lv_style_value_t v = lv_obj_get_style_prop(obj, part, LV_STYLE_BORDER_OPA);
 292:Middlewares/lvgl/src/widgets/../core/lv_obj_style_gen.h ****     return (lv_opa_t)v.num;
 293:Middlewares/lvgl/src/widgets/../core/lv_obj_style_gen.h **** }
 294:Middlewares/lvgl/src/widgets/../core/lv_obj_style_gen.h **** 
 295:Middlewares/lvgl/src/widgets/../core/lv_obj_style_gen.h **** static inline lv_coord_t lv_obj_get_style_border_width(const struct _lv_obj_t * obj, uint32_t part)
 296:Middlewares/lvgl/src/widgets/../core/lv_obj_style_gen.h **** {
 297:Middlewares/lvgl/src/widgets/../core/lv_obj_style_gen.h ****     lv_style_value_t v = lv_obj_get_style_prop(obj, part, LV_STYLE_BORDER_WIDTH);
 298:Middlewares/lvgl/src/widgets/../core/lv_obj_style_gen.h ****     return (lv_coord_t)v.num;
 299:Middlewares/lvgl/src/widgets/../core/lv_obj_style_gen.h **** }
 300:Middlewares/lvgl/src/widgets/../core/lv_obj_style_gen.h **** 
 301:Middlewares/lvgl/src/widgets/../core/lv_obj_style_gen.h **** static inline lv_border_side_t lv_obj_get_style_border_side(const struct _lv_obj_t * obj, uint32_t 
 302:Middlewares/lvgl/src/widgets/../core/lv_obj_style_gen.h **** {
 303:Middlewares/lvgl/src/widgets/../core/lv_obj_style_gen.h ****     lv_style_value_t v = lv_obj_get_style_prop(obj, part, LV_STYLE_BORDER_SIDE);
 304:Middlewares/lvgl/src/widgets/../core/lv_obj_style_gen.h ****     return (lv_border_side_t)v.num;
 305:Middlewares/lvgl/src/widgets/../core/lv_obj_style_gen.h **** }
 306:Middlewares/lvgl/src/widgets/../core/lv_obj_style_gen.h **** 
 307:Middlewares/lvgl/src/widgets/../core/lv_obj_style_gen.h **** static inline bool lv_obj_get_style_border_post(const struct _lv_obj_t * obj, uint32_t part)
 308:Middlewares/lvgl/src/widgets/../core/lv_obj_style_gen.h **** {
 309:Middlewares/lvgl/src/widgets/../core/lv_obj_style_gen.h ****     lv_style_value_t v = lv_obj_get_style_prop(obj, part, LV_STYLE_BORDER_POST);
 310:Middlewares/lvgl/src/widgets/../core/lv_obj_style_gen.h ****     return (bool)v.num;
 311:Middlewares/lvgl/src/widgets/../core/lv_obj_style_gen.h **** }
 312:Middlewares/lvgl/src/widgets/../core/lv_obj_style_gen.h **** 
 313:Middlewares/lvgl/src/widgets/../core/lv_obj_style_gen.h **** static inline lv_color_t lv_obj_get_style_text_color(const struct _lv_obj_t * obj, uint32_t part)
 314:Middlewares/lvgl/src/widgets/../core/lv_obj_style_gen.h **** {
 315:Middlewares/lvgl/src/widgets/../core/lv_obj_style_gen.h ****     lv_style_value_t v = lv_obj_get_style_prop(obj, part, LV_STYLE_TEXT_COLOR);
 316:Middlewares/lvgl/src/widgets/../core/lv_obj_style_gen.h ****     return v.color;
 317:Middlewares/lvgl/src/widgets/../core/lv_obj_style_gen.h **** }
 318:Middlewares/lvgl/src/widgets/../core/lv_obj_style_gen.h **** 
 319:Middlewares/lvgl/src/widgets/../core/lv_obj_style_gen.h **** static inline lv_color_t lv_obj_get_style_text_color_filtered(const struct _lv_obj_t * obj, uint32_
 320:Middlewares/lvgl/src/widgets/../core/lv_obj_style_gen.h **** {
 321:Middlewares/lvgl/src/widgets/../core/lv_obj_style_gen.h ****     lv_style_value_t v = lv_obj_get_style_prop(obj, part, LV_STYLE_TEXT_COLOR_FILTERED);
 322:Middlewares/lvgl/src/widgets/../core/lv_obj_style_gen.h ****     return v.color;
 323:Middlewares/lvgl/src/widgets/../core/lv_obj_style_gen.h **** }
 324:Middlewares/lvgl/src/widgets/../core/lv_obj_style_gen.h **** 
 325:Middlewares/lvgl/src/widgets/../core/lv_obj_style_gen.h **** static inline lv_opa_t lv_obj_get_style_text_opa(const struct _lv_obj_t * obj, uint32_t part)
 326:Middlewares/lvgl/src/widgets/../core/lv_obj_style_gen.h **** {
ARM GAS  /tmp/ccZjziLX.s 			page 26


 327:Middlewares/lvgl/src/widgets/../core/lv_obj_style_gen.h ****     lv_style_value_t v = lv_obj_get_style_prop(obj, part, LV_STYLE_TEXT_OPA);
 328:Middlewares/lvgl/src/widgets/../core/lv_obj_style_gen.h ****     return (lv_opa_t)v.num;
 329:Middlewares/lvgl/src/widgets/../core/lv_obj_style_gen.h **** }
 330:Middlewares/lvgl/src/widgets/../core/lv_obj_style_gen.h **** 
 331:Middlewares/lvgl/src/widgets/../core/lv_obj_style_gen.h **** static inline const lv_font_t * lv_obj_get_style_text_font(const struct _lv_obj_t * obj, uint32_t p
 332:Middlewares/lvgl/src/widgets/../core/lv_obj_style_gen.h **** {
 333:Middlewares/lvgl/src/widgets/../core/lv_obj_style_gen.h ****     lv_style_value_t v = lv_obj_get_style_prop(obj, part, LV_STYLE_TEXT_FONT);
 334:Middlewares/lvgl/src/widgets/../core/lv_obj_style_gen.h ****     return (const lv_font_t *)v.ptr;
 335:Middlewares/lvgl/src/widgets/../core/lv_obj_style_gen.h **** }
 336:Middlewares/lvgl/src/widgets/../core/lv_obj_style_gen.h **** 
 337:Middlewares/lvgl/src/widgets/../core/lv_obj_style_gen.h **** static inline lv_coord_t lv_obj_get_style_text_letter_space(const struct _lv_obj_t * obj, uint32_t 
 338:Middlewares/lvgl/src/widgets/../core/lv_obj_style_gen.h **** {
 339:Middlewares/lvgl/src/widgets/../core/lv_obj_style_gen.h ****     lv_style_value_t v = lv_obj_get_style_prop(obj, part, LV_STYLE_TEXT_LETTER_SPACE);
 340:Middlewares/lvgl/src/widgets/../core/lv_obj_style_gen.h ****     return (lv_coord_t)v.num;
 341:Middlewares/lvgl/src/widgets/../core/lv_obj_style_gen.h **** }
 342:Middlewares/lvgl/src/widgets/../core/lv_obj_style_gen.h **** 
 343:Middlewares/lvgl/src/widgets/../core/lv_obj_style_gen.h **** static inline lv_coord_t lv_obj_get_style_text_line_space(const struct _lv_obj_t * obj, uint32_t pa
 344:Middlewares/lvgl/src/widgets/../core/lv_obj_style_gen.h **** {
 345:Middlewares/lvgl/src/widgets/../core/lv_obj_style_gen.h ****     lv_style_value_t v = lv_obj_get_style_prop(obj, part, LV_STYLE_TEXT_LINE_SPACE);
 346:Middlewares/lvgl/src/widgets/../core/lv_obj_style_gen.h ****     return (lv_coord_t)v.num;
 347:Middlewares/lvgl/src/widgets/../core/lv_obj_style_gen.h **** }
 348:Middlewares/lvgl/src/widgets/../core/lv_obj_style_gen.h **** 
 349:Middlewares/lvgl/src/widgets/../core/lv_obj_style_gen.h **** static inline lv_text_decor_t lv_obj_get_style_text_decor(const struct _lv_obj_t * obj, uint32_t pa
 350:Middlewares/lvgl/src/widgets/../core/lv_obj_style_gen.h **** {
 351:Middlewares/lvgl/src/widgets/../core/lv_obj_style_gen.h ****     lv_style_value_t v = lv_obj_get_style_prop(obj, part, LV_STYLE_TEXT_DECOR);
 352:Middlewares/lvgl/src/widgets/../core/lv_obj_style_gen.h ****     return (lv_text_decor_t)v.num;
 353:Middlewares/lvgl/src/widgets/../core/lv_obj_style_gen.h **** }
 354:Middlewares/lvgl/src/widgets/../core/lv_obj_style_gen.h **** 
 355:Middlewares/lvgl/src/widgets/../core/lv_obj_style_gen.h **** static inline lv_text_align_t lv_obj_get_style_text_align(const struct _lv_obj_t * obj, uint32_t pa
 356:Middlewares/lvgl/src/widgets/../core/lv_obj_style_gen.h **** {
 357:Middlewares/lvgl/src/widgets/../core/lv_obj_style_gen.h ****     lv_style_value_t v = lv_obj_get_style_prop(obj, part, LV_STYLE_TEXT_ALIGN);
 358:Middlewares/lvgl/src/widgets/../core/lv_obj_style_gen.h ****     return (lv_text_align_t)v.num;
 359:Middlewares/lvgl/src/widgets/../core/lv_obj_style_gen.h **** }
 360:Middlewares/lvgl/src/widgets/../core/lv_obj_style_gen.h **** 
 361:Middlewares/lvgl/src/widgets/../core/lv_obj_style_gen.h **** static inline lv_opa_t lv_obj_get_style_img_opa(const struct _lv_obj_t * obj, uint32_t part)
 362:Middlewares/lvgl/src/widgets/../core/lv_obj_style_gen.h **** {
 363:Middlewares/lvgl/src/widgets/../core/lv_obj_style_gen.h ****     lv_style_value_t v = lv_obj_get_style_prop(obj, part, LV_STYLE_IMG_OPA);
 364:Middlewares/lvgl/src/widgets/../core/lv_obj_style_gen.h ****     return (lv_opa_t)v.num;
 365:Middlewares/lvgl/src/widgets/../core/lv_obj_style_gen.h **** }
 366:Middlewares/lvgl/src/widgets/../core/lv_obj_style_gen.h **** 
 367:Middlewares/lvgl/src/widgets/../core/lv_obj_style_gen.h **** static inline lv_color_t lv_obj_get_style_img_recolor(const struct _lv_obj_t * obj, uint32_t part)
 368:Middlewares/lvgl/src/widgets/../core/lv_obj_style_gen.h **** {
 369:Middlewares/lvgl/src/widgets/../core/lv_obj_style_gen.h ****     lv_style_value_t v = lv_obj_get_style_prop(obj, part, LV_STYLE_IMG_RECOLOR);
 370:Middlewares/lvgl/src/widgets/../core/lv_obj_style_gen.h ****     return v.color;
 371:Middlewares/lvgl/src/widgets/../core/lv_obj_style_gen.h **** }
 372:Middlewares/lvgl/src/widgets/../core/lv_obj_style_gen.h **** 
 373:Middlewares/lvgl/src/widgets/../core/lv_obj_style_gen.h **** static inline lv_color_t lv_obj_get_style_img_recolor_filtered(const struct _lv_obj_t * obj, uint32
 374:Middlewares/lvgl/src/widgets/../core/lv_obj_style_gen.h **** {
 375:Middlewares/lvgl/src/widgets/../core/lv_obj_style_gen.h ****     lv_style_value_t v = lv_obj_get_style_prop(obj, part, LV_STYLE_IMG_RECOLOR_FILTERED);
 376:Middlewares/lvgl/src/widgets/../core/lv_obj_style_gen.h ****     return v.color;
 377:Middlewares/lvgl/src/widgets/../core/lv_obj_style_gen.h **** }
 378:Middlewares/lvgl/src/widgets/../core/lv_obj_style_gen.h **** 
 379:Middlewares/lvgl/src/widgets/../core/lv_obj_style_gen.h **** static inline lv_opa_t lv_obj_get_style_img_recolor_opa(const struct _lv_obj_t * obj, uint32_t part
 380:Middlewares/lvgl/src/widgets/../core/lv_obj_style_gen.h **** {
 381:Middlewares/lvgl/src/widgets/../core/lv_obj_style_gen.h ****     lv_style_value_t v = lv_obj_get_style_prop(obj, part, LV_STYLE_IMG_RECOLOR_OPA);
 382:Middlewares/lvgl/src/widgets/../core/lv_obj_style_gen.h ****     return (lv_opa_t)v.num;
 383:Middlewares/lvgl/src/widgets/../core/lv_obj_style_gen.h **** }
ARM GAS  /tmp/ccZjziLX.s 			page 27


 384:Middlewares/lvgl/src/widgets/../core/lv_obj_style_gen.h **** 
 385:Middlewares/lvgl/src/widgets/../core/lv_obj_style_gen.h **** static inline lv_coord_t lv_obj_get_style_outline_width(const struct _lv_obj_t * obj, uint32_t part
 386:Middlewares/lvgl/src/widgets/../core/lv_obj_style_gen.h **** {
 387:Middlewares/lvgl/src/widgets/../core/lv_obj_style_gen.h ****     lv_style_value_t v = lv_obj_get_style_prop(obj, part, LV_STYLE_OUTLINE_WIDTH);
 388:Middlewares/lvgl/src/widgets/../core/lv_obj_style_gen.h ****     return (lv_coord_t)v.num;
 389:Middlewares/lvgl/src/widgets/../core/lv_obj_style_gen.h **** }
 390:Middlewares/lvgl/src/widgets/../core/lv_obj_style_gen.h **** 
 391:Middlewares/lvgl/src/widgets/../core/lv_obj_style_gen.h **** static inline lv_color_t lv_obj_get_style_outline_color(const struct _lv_obj_t * obj, uint32_t part
 392:Middlewares/lvgl/src/widgets/../core/lv_obj_style_gen.h **** {
 393:Middlewares/lvgl/src/widgets/../core/lv_obj_style_gen.h ****     lv_style_value_t v = lv_obj_get_style_prop(obj, part, LV_STYLE_OUTLINE_COLOR);
 394:Middlewares/lvgl/src/widgets/../core/lv_obj_style_gen.h ****     return v.color;
 395:Middlewares/lvgl/src/widgets/../core/lv_obj_style_gen.h **** }
 396:Middlewares/lvgl/src/widgets/../core/lv_obj_style_gen.h **** 
 397:Middlewares/lvgl/src/widgets/../core/lv_obj_style_gen.h **** static inline lv_color_t lv_obj_get_style_outline_color_filtered(const struct _lv_obj_t * obj, uint
 398:Middlewares/lvgl/src/widgets/../core/lv_obj_style_gen.h **** {
 399:Middlewares/lvgl/src/widgets/../core/lv_obj_style_gen.h ****     lv_style_value_t v = lv_obj_get_style_prop(obj, part, LV_STYLE_OUTLINE_COLOR_FILTERED);
 400:Middlewares/lvgl/src/widgets/../core/lv_obj_style_gen.h ****     return v.color;
 401:Middlewares/lvgl/src/widgets/../core/lv_obj_style_gen.h **** }
 402:Middlewares/lvgl/src/widgets/../core/lv_obj_style_gen.h **** 
 403:Middlewares/lvgl/src/widgets/../core/lv_obj_style_gen.h **** static inline lv_opa_t lv_obj_get_style_outline_opa(const struct _lv_obj_t * obj, uint32_t part)
 404:Middlewares/lvgl/src/widgets/../core/lv_obj_style_gen.h **** {
 405:Middlewares/lvgl/src/widgets/../core/lv_obj_style_gen.h ****     lv_style_value_t v = lv_obj_get_style_prop(obj, part, LV_STYLE_OUTLINE_OPA);
 406:Middlewares/lvgl/src/widgets/../core/lv_obj_style_gen.h ****     return (lv_opa_t)v.num;
 407:Middlewares/lvgl/src/widgets/../core/lv_obj_style_gen.h **** }
 408:Middlewares/lvgl/src/widgets/../core/lv_obj_style_gen.h **** 
 409:Middlewares/lvgl/src/widgets/../core/lv_obj_style_gen.h **** static inline lv_coord_t lv_obj_get_style_outline_pad(const struct _lv_obj_t * obj, uint32_t part)
 410:Middlewares/lvgl/src/widgets/../core/lv_obj_style_gen.h **** {
 411:Middlewares/lvgl/src/widgets/../core/lv_obj_style_gen.h ****     lv_style_value_t v = lv_obj_get_style_prop(obj, part, LV_STYLE_OUTLINE_PAD);
 412:Middlewares/lvgl/src/widgets/../core/lv_obj_style_gen.h ****     return (lv_coord_t)v.num;
 413:Middlewares/lvgl/src/widgets/../core/lv_obj_style_gen.h **** }
 414:Middlewares/lvgl/src/widgets/../core/lv_obj_style_gen.h **** 
 415:Middlewares/lvgl/src/widgets/../core/lv_obj_style_gen.h **** static inline lv_coord_t lv_obj_get_style_shadow_width(const struct _lv_obj_t * obj, uint32_t part)
 416:Middlewares/lvgl/src/widgets/../core/lv_obj_style_gen.h **** {
 417:Middlewares/lvgl/src/widgets/../core/lv_obj_style_gen.h ****     lv_style_value_t v = lv_obj_get_style_prop(obj, part, LV_STYLE_SHADOW_WIDTH);
 418:Middlewares/lvgl/src/widgets/../core/lv_obj_style_gen.h ****     return (lv_coord_t)v.num;
 419:Middlewares/lvgl/src/widgets/../core/lv_obj_style_gen.h **** }
 420:Middlewares/lvgl/src/widgets/../core/lv_obj_style_gen.h **** 
 421:Middlewares/lvgl/src/widgets/../core/lv_obj_style_gen.h **** static inline lv_coord_t lv_obj_get_style_shadow_ofs_x(const struct _lv_obj_t * obj, uint32_t part)
 422:Middlewares/lvgl/src/widgets/../core/lv_obj_style_gen.h **** {
 423:Middlewares/lvgl/src/widgets/../core/lv_obj_style_gen.h ****     lv_style_value_t v = lv_obj_get_style_prop(obj, part, LV_STYLE_SHADOW_OFS_X);
 424:Middlewares/lvgl/src/widgets/../core/lv_obj_style_gen.h ****     return (lv_coord_t)v.num;
 425:Middlewares/lvgl/src/widgets/../core/lv_obj_style_gen.h **** }
 426:Middlewares/lvgl/src/widgets/../core/lv_obj_style_gen.h **** 
 427:Middlewares/lvgl/src/widgets/../core/lv_obj_style_gen.h **** static inline lv_coord_t lv_obj_get_style_shadow_ofs_y(const struct _lv_obj_t * obj, uint32_t part)
 428:Middlewares/lvgl/src/widgets/../core/lv_obj_style_gen.h **** {
 429:Middlewares/lvgl/src/widgets/../core/lv_obj_style_gen.h ****     lv_style_value_t v = lv_obj_get_style_prop(obj, part, LV_STYLE_SHADOW_OFS_Y);
 430:Middlewares/lvgl/src/widgets/../core/lv_obj_style_gen.h ****     return (lv_coord_t)v.num;
 431:Middlewares/lvgl/src/widgets/../core/lv_obj_style_gen.h **** }
 432:Middlewares/lvgl/src/widgets/../core/lv_obj_style_gen.h **** 
 433:Middlewares/lvgl/src/widgets/../core/lv_obj_style_gen.h **** static inline lv_coord_t lv_obj_get_style_shadow_spread(const struct _lv_obj_t * obj, uint32_t part
 434:Middlewares/lvgl/src/widgets/../core/lv_obj_style_gen.h **** {
 435:Middlewares/lvgl/src/widgets/../core/lv_obj_style_gen.h ****     lv_style_value_t v = lv_obj_get_style_prop(obj, part, LV_STYLE_SHADOW_SPREAD);
 436:Middlewares/lvgl/src/widgets/../core/lv_obj_style_gen.h ****     return (lv_coord_t)v.num;
 437:Middlewares/lvgl/src/widgets/../core/lv_obj_style_gen.h **** }
 438:Middlewares/lvgl/src/widgets/../core/lv_obj_style_gen.h **** 
 439:Middlewares/lvgl/src/widgets/../core/lv_obj_style_gen.h **** static inline lv_color_t lv_obj_get_style_shadow_color(const struct _lv_obj_t * obj, uint32_t part)
 440:Middlewares/lvgl/src/widgets/../core/lv_obj_style_gen.h **** {
ARM GAS  /tmp/ccZjziLX.s 			page 28


 441:Middlewares/lvgl/src/widgets/../core/lv_obj_style_gen.h ****     lv_style_value_t v = lv_obj_get_style_prop(obj, part, LV_STYLE_SHADOW_COLOR);
 442:Middlewares/lvgl/src/widgets/../core/lv_obj_style_gen.h ****     return v.color;
 443:Middlewares/lvgl/src/widgets/../core/lv_obj_style_gen.h **** }
 444:Middlewares/lvgl/src/widgets/../core/lv_obj_style_gen.h **** 
 445:Middlewares/lvgl/src/widgets/../core/lv_obj_style_gen.h **** static inline lv_color_t lv_obj_get_style_shadow_color_filtered(const struct _lv_obj_t * obj, uint3
 446:Middlewares/lvgl/src/widgets/../core/lv_obj_style_gen.h **** {
 447:Middlewares/lvgl/src/widgets/../core/lv_obj_style_gen.h ****     lv_style_value_t v = lv_obj_get_style_prop(obj, part, LV_STYLE_SHADOW_COLOR_FILTERED);
 448:Middlewares/lvgl/src/widgets/../core/lv_obj_style_gen.h ****     return v.color;
 449:Middlewares/lvgl/src/widgets/../core/lv_obj_style_gen.h **** }
 450:Middlewares/lvgl/src/widgets/../core/lv_obj_style_gen.h **** 
 451:Middlewares/lvgl/src/widgets/../core/lv_obj_style_gen.h **** static inline lv_opa_t lv_obj_get_style_shadow_opa(const struct _lv_obj_t * obj, uint32_t part)
 452:Middlewares/lvgl/src/widgets/../core/lv_obj_style_gen.h **** {
 453:Middlewares/lvgl/src/widgets/../core/lv_obj_style_gen.h ****     lv_style_value_t v = lv_obj_get_style_prop(obj, part, LV_STYLE_SHADOW_OPA);
 454:Middlewares/lvgl/src/widgets/../core/lv_obj_style_gen.h ****     return (lv_opa_t)v.num;
 455:Middlewares/lvgl/src/widgets/../core/lv_obj_style_gen.h **** }
 456:Middlewares/lvgl/src/widgets/../core/lv_obj_style_gen.h **** 
 457:Middlewares/lvgl/src/widgets/../core/lv_obj_style_gen.h **** static inline lv_coord_t lv_obj_get_style_line_width(const struct _lv_obj_t * obj, uint32_t part)
 458:Middlewares/lvgl/src/widgets/../core/lv_obj_style_gen.h **** {
 459:Middlewares/lvgl/src/widgets/../core/lv_obj_style_gen.h ****     lv_style_value_t v = lv_obj_get_style_prop(obj, part, LV_STYLE_LINE_WIDTH);
 460:Middlewares/lvgl/src/widgets/../core/lv_obj_style_gen.h ****     return (lv_coord_t)v.num;
 461:Middlewares/lvgl/src/widgets/../core/lv_obj_style_gen.h **** }
 462:Middlewares/lvgl/src/widgets/../core/lv_obj_style_gen.h **** 
 463:Middlewares/lvgl/src/widgets/../core/lv_obj_style_gen.h **** static inline lv_coord_t lv_obj_get_style_line_dash_width(const struct _lv_obj_t * obj, uint32_t pa
 464:Middlewares/lvgl/src/widgets/../core/lv_obj_style_gen.h **** {
 465:Middlewares/lvgl/src/widgets/../core/lv_obj_style_gen.h ****     lv_style_value_t v = lv_obj_get_style_prop(obj, part, LV_STYLE_LINE_DASH_WIDTH);
 466:Middlewares/lvgl/src/widgets/../core/lv_obj_style_gen.h ****     return (lv_coord_t)v.num;
 467:Middlewares/lvgl/src/widgets/../core/lv_obj_style_gen.h **** }
 468:Middlewares/lvgl/src/widgets/../core/lv_obj_style_gen.h **** 
 469:Middlewares/lvgl/src/widgets/../core/lv_obj_style_gen.h **** static inline lv_coord_t lv_obj_get_style_line_dash_gap(const struct _lv_obj_t * obj, uint32_t part
 470:Middlewares/lvgl/src/widgets/../core/lv_obj_style_gen.h **** {
 471:Middlewares/lvgl/src/widgets/../core/lv_obj_style_gen.h ****     lv_style_value_t v = lv_obj_get_style_prop(obj, part, LV_STYLE_LINE_DASH_GAP);
 472:Middlewares/lvgl/src/widgets/../core/lv_obj_style_gen.h ****     return (lv_coord_t)v.num;
 473:Middlewares/lvgl/src/widgets/../core/lv_obj_style_gen.h **** }
 474:Middlewares/lvgl/src/widgets/../core/lv_obj_style_gen.h **** 
 475:Middlewares/lvgl/src/widgets/../core/lv_obj_style_gen.h **** static inline lv_coord_t lv_obj_get_style_line_rounded(const struct _lv_obj_t * obj, uint32_t part)
 476:Middlewares/lvgl/src/widgets/../core/lv_obj_style_gen.h **** {
 477:Middlewares/lvgl/src/widgets/../core/lv_obj_style_gen.h ****     lv_style_value_t v = lv_obj_get_style_prop(obj, part, LV_STYLE_LINE_ROUNDED);
 478:Middlewares/lvgl/src/widgets/../core/lv_obj_style_gen.h ****     return (lv_coord_t)v.num;
 479:Middlewares/lvgl/src/widgets/../core/lv_obj_style_gen.h **** }
 480:Middlewares/lvgl/src/widgets/../core/lv_obj_style_gen.h **** 
 481:Middlewares/lvgl/src/widgets/../core/lv_obj_style_gen.h **** static inline lv_color_t lv_obj_get_style_line_color(const struct _lv_obj_t * obj, uint32_t part)
 482:Middlewares/lvgl/src/widgets/../core/lv_obj_style_gen.h **** {
 483:Middlewares/lvgl/src/widgets/../core/lv_obj_style_gen.h ****     lv_style_value_t v = lv_obj_get_style_prop(obj, part, LV_STYLE_LINE_COLOR);
 484:Middlewares/lvgl/src/widgets/../core/lv_obj_style_gen.h ****     return v.color;
 485:Middlewares/lvgl/src/widgets/../core/lv_obj_style_gen.h **** }
 486:Middlewares/lvgl/src/widgets/../core/lv_obj_style_gen.h **** 
 487:Middlewares/lvgl/src/widgets/../core/lv_obj_style_gen.h **** static inline lv_color_t lv_obj_get_style_line_color_filtered(const struct _lv_obj_t * obj, uint32_
 488:Middlewares/lvgl/src/widgets/../core/lv_obj_style_gen.h **** {
 489:Middlewares/lvgl/src/widgets/../core/lv_obj_style_gen.h ****     lv_style_value_t v = lv_obj_get_style_prop(obj, part, LV_STYLE_LINE_COLOR_FILTERED);
 490:Middlewares/lvgl/src/widgets/../core/lv_obj_style_gen.h ****     return v.color;
 491:Middlewares/lvgl/src/widgets/../core/lv_obj_style_gen.h **** }
 492:Middlewares/lvgl/src/widgets/../core/lv_obj_style_gen.h **** 
 493:Middlewares/lvgl/src/widgets/../core/lv_obj_style_gen.h **** static inline lv_opa_t lv_obj_get_style_line_opa(const struct _lv_obj_t * obj, uint32_t part)
 494:Middlewares/lvgl/src/widgets/../core/lv_obj_style_gen.h **** {
 495:Middlewares/lvgl/src/widgets/../core/lv_obj_style_gen.h ****     lv_style_value_t v = lv_obj_get_style_prop(obj, part, LV_STYLE_LINE_OPA);
 496:Middlewares/lvgl/src/widgets/../core/lv_obj_style_gen.h ****     return (lv_opa_t)v.num;
 497:Middlewares/lvgl/src/widgets/../core/lv_obj_style_gen.h **** }
ARM GAS  /tmp/ccZjziLX.s 			page 29


 498:Middlewares/lvgl/src/widgets/../core/lv_obj_style_gen.h **** 
 499:Middlewares/lvgl/src/widgets/../core/lv_obj_style_gen.h **** static inline lv_coord_t lv_obj_get_style_arc_width(const struct _lv_obj_t * obj, uint32_t part)
 198              		.loc 2 499 26 discriminator 4 view .LVU54
 199              	.LBB84:
 500:Middlewares/lvgl/src/widgets/../core/lv_obj_style_gen.h **** {
 501:Middlewares/lvgl/src/widgets/../core/lv_obj_style_gen.h ****     lv_style_value_t v = lv_obj_get_style_prop(obj, part, LV_STYLE_ARC_WIDTH);
 200              		.loc 2 501 5 discriminator 4 view .LVU55
 201              		.loc 2 501 26 is_stmt 0 discriminator 4 view .LVU56
 202 00a2 4FF40562 		mov	r2, #2128
 203 00a6 4FF40031 		mov	r1, #131072
 204 00aa 2046     		mov	r0, r4
 205 00ac FFF7FEFF 		bl	lv_obj_get_style_prop
 206              	.LVL22:
 502:Middlewares/lvgl/src/widgets/../core/lv_obj_style_gen.h ****     return (lv_coord_t)v.num;
 207              		.loc 2 502 5 is_stmt 1 discriminator 4 view .LVU57
 208              		.loc 2 502 5 is_stmt 0 discriminator 4 view .LVU58
 209              	.LBE84:
 210              	.LBE83:
 891:Middlewares/lvgl/src/widgets/lv_arc.c ****     r -= indic_width;
 211              		.loc 1 891 5 is_stmt 1 discriminator 4 view .LVU59
 892:Middlewares/lvgl/src/widgets/lv_arc.c **** }
 212              		.loc 1 892 1 is_stmt 0 discriminator 4 view .LVU60
 213 00b0 03B0     		add	sp, sp, #12
 214              	.LCFI2:
 215              		.cfi_remember_state
 216              		.cfi_def_cfa_offset 36
 217              	.LVL23:
 218              		.loc 1 892 1 discriminator 4 view .LVU61
 219              		@ sp needed
 220 00b2 BDE8F08F 		pop	{r4, r5, r6, r7, r8, r9, r10, fp, pc}
 221              	.LVL24:
 222              	.L7:
 223              	.LCFI3:
 224              		.cfi_restore_state
 884:Middlewares/lvgl/src/widgets/lv_arc.c **** 
 225              		.loc 1 884 79 discriminator 1 view .LVU62
 226 00b6 08F10108 		add	r8, r8, #1
 227 00ba E0E7     		b	.L3
 228              	.LVL25:
 229              	.L2:
 883:Middlewares/lvgl/src/widgets/lv_arc.c ****                                 lv_obj_get_height(obj) - top_bg - bottom_bg)) / 2;
 230              		.loc 1 883 21 discriminator 2 view .LVU63
 231 00bc 2046     		mov	r0, r4
 232 00be FFF7FEFF 		bl	lv_obj_get_height
 233              	.LVL26:
 234 00c2 A0EB0A0A 		sub	r10, r0, r10
 235              	.LVL27:
 884:Middlewares/lvgl/src/widgets/lv_arc.c **** 
 236              		.loc 1 884 79 discriminator 2 view .LVU64
 237 00c6 BAEB0808 		subs	r8, r10, r8
 238              	.LVL28:
 884:Middlewares/lvgl/src/widgets/lv_arc.c **** 
 239              		.loc 1 884 79 discriminator 2 view .LVU65
 240 00ca 02D4     		bmi	.L8
 241              	.L5:
 883:Middlewares/lvgl/src/widgets/lv_arc.c ****                                 lv_obj_get_height(obj) - top_bg - bottom_bg)) / 2;
 242              		.loc 1 883 16 discriminator 2 view .LVU66
ARM GAS  /tmp/ccZjziLX.s 			page 30


 243 00cc 48F34F08 		sbfx	r8, r8, #1, #16
 244 00d0 D7E7     		b	.L4
 245              	.L8:
 884:Middlewares/lvgl/src/widgets/lv_arc.c **** 
 246              		.loc 1 884 79 discriminator 2 view .LVU67
 247 00d2 08F10108 		add	r8, r8, #1
 248 00d6 F9E7     		b	.L5
 249              		.cfi_endproc
 250              	.LFE171:
 252              		.section	.text.get_knob_area,"ax",%progbits
 253              		.align	1
 254              		.syntax unified
 255              		.thumb
 256              		.thumb_func
 258              	get_knob_area:
 259              	.LVL29:
 260              	.LFB172:
 893:Middlewares/lvgl/src/widgets/lv_arc.c **** 
 894:Middlewares/lvgl/src/widgets/lv_arc.c **** static void get_knob_area(lv_obj_t * obj, const lv_point_t * center, lv_coord_t r, lv_area_t * knob
 895:Middlewares/lvgl/src/widgets/lv_arc.c **** {
 261              		.loc 1 895 1 is_stmt 1 view -0
 262              		.cfi_startproc
 263              		@ args = 0, pretend = 0, frame = 8
 264              		@ frame_needed = 0, uses_anonymous_args = 0
 265              		.loc 1 895 1 is_stmt 0 view .LVU69
 266 0000 2DE9F04F 		push	{r4, r5, r6, r7, r8, r9, r10, fp, lr}
 267              	.LCFI4:
 268              		.cfi_def_cfa_offset 36
 269              		.cfi_offset 4, -36
 270              		.cfi_offset 5, -32
 271              		.cfi_offset 6, -28
 272              		.cfi_offset 7, -24
 273              		.cfi_offset 8, -20
 274              		.cfi_offset 9, -16
 275              		.cfi_offset 10, -12
 276              		.cfi_offset 11, -8
 277              		.cfi_offset 14, -4
 278 0004 83B0     		sub	sp, sp, #12
 279              	.LCFI5:
 280              		.cfi_def_cfa_offset 48
 281 0006 0746     		mov	r7, r0
 282 0008 8946     		mov	r9, r1
 283 000a 1446     		mov	r4, r2
 284 000c 9846     		mov	r8, r3
 896:Middlewares/lvgl/src/widgets/lv_arc.c ****     LV_ASSERT_OBJ(obj, MY_CLASS);
 285              		.loc 1 896 5 is_stmt 1 view .LVU70
 286              		.loc 1 896 5 view .LVU71
 287              		.loc 1 896 5 view .LVU72
 897:Middlewares/lvgl/src/widgets/lv_arc.c ****     lv_arc_t * arc = (lv_arc_t *)obj;
 288              		.loc 1 897 5 view .LVU73
 289              	.LVL30:
 898:Middlewares/lvgl/src/widgets/lv_arc.c **** 
 899:Middlewares/lvgl/src/widgets/lv_arc.c ****     lv_coord_t indic_width = lv_obj_get_style_arc_width(obj, LV_PART_INDICATOR);
 290              		.loc 1 899 5 view .LVU74
 291              	.LBB85:
 292              	.LBI85:
 499:Middlewares/lvgl/src/widgets/../core/lv_obj_style_gen.h **** {
ARM GAS  /tmp/ccZjziLX.s 			page 31


 293              		.loc 2 499 26 view .LVU75
 294              	.LBB86:
 501:Middlewares/lvgl/src/widgets/../core/lv_obj_style_gen.h ****     return (lv_coord_t)v.num;
 295              		.loc 2 501 5 view .LVU76
 501:Middlewares/lvgl/src/widgets/../core/lv_obj_style_gen.h ****     return (lv_coord_t)v.num;
 296              		.loc 2 501 26 is_stmt 0 view .LVU77
 297 000e 4FF40562 		mov	r2, #2128
 298              	.LVL31:
 501:Middlewares/lvgl/src/widgets/../core/lv_obj_style_gen.h ****     return (lv_coord_t)v.num;
 299              		.loc 2 501 26 view .LVU78
 300 0012 4FF40031 		mov	r1, #131072
 301              	.LVL32:
 501:Middlewares/lvgl/src/widgets/../core/lv_obj_style_gen.h ****     return (lv_coord_t)v.num;
 302              		.loc 2 501 26 view .LVU79
 303 0016 FFF7FEFF 		bl	lv_obj_get_style_prop
 304              	.LVL33:
 305              		.loc 2 502 5 is_stmt 1 view .LVU80
 306              		.loc 2 502 12 is_stmt 0 view .LVU81
 307 001a 06B2     		sxth	r6, r0
 308              	.LVL34:
 309              		.loc 2 502 12 view .LVU82
 310              	.LBE86:
 311              	.LBE85:
 900:Middlewares/lvgl/src/widgets/lv_arc.c ****     lv_coord_t indic_width_half = indic_width / 2;
 312              		.loc 1 900 5 is_stmt 1 view .LVU83
 313              		.loc 1 900 16 is_stmt 0 view .LVU84
 314 001c 002E     		cmp	r6, #0
 315 001e 69DB     		blt	.L17
 316              	.L10:
 317              	.LVL35:
 901:Middlewares/lvgl/src/widgets/lv_arc.c ****     r -= indic_width_half;
 318              		.loc 1 901 5 is_stmt 1 view .LVU85
 319              		.loc 1 901 7 is_stmt 0 view .LVU86
 320 0020 C6F34F06 		ubfx	r6, r6, #1, #16
 321              	.LVL36:
 322              		.loc 1 901 7 view .LVU87
 323 0024 A41B     		subs	r4, r4, r6
 324 0026 24B2     		sxth	r4, r4
 325              	.LVL37:
 902:Middlewares/lvgl/src/widgets/lv_arc.c **** 
 903:Middlewares/lvgl/src/widgets/lv_arc.c ****     uint16_t angle =arc->rotation;
 326              		.loc 1 903 5 is_stmt 1 view .LVU88
 327              		.loc 1 903 14 is_stmt 0 view .LVU89
 328 0028 B7F824A0 		ldrh	r10, [r7, #36]
 329              	.LVL38:
 904:Middlewares/lvgl/src/widgets/lv_arc.c ****     if(arc->type == LV_ARC_MODE_NORMAL) {
 330              		.loc 1 904 5 is_stmt 1 view .LVU90
 331              		.loc 1 904 18 is_stmt 0 view .LVU91
 332 002c 97F83430 		ldrb	r3, [r7, #52]	@ zero_extendqisi2
 333              		.loc 1 904 7 view .LVU92
 334 0030 13F00603 		ands	r3, r3, #6
 335 0034 60D1     		bne	.L11
 905:Middlewares/lvgl/src/widgets/lv_arc.c ****         angle +=arc->indic_angle_end;
 336              		.loc 1 905 9 is_stmt 1 view .LVU93
 337              		.loc 1 905 20 is_stmt 0 view .LVU94
 338 0036 3B8D     		ldrh	r3, [r7, #40]
 339              		.loc 1 905 15 view .LVU95
ARM GAS  /tmp/ccZjziLX.s 			page 32


 340 0038 9A44     		add	r10, r10, r3
 341              	.LVL39:
 342              		.loc 1 905 15 view .LVU96
 343 003a 1FFA8AFA 		uxth	r10, r10
 344              	.LVL40:
 345              	.L12:
 906:Middlewares/lvgl/src/widgets/lv_arc.c ****     }
 907:Middlewares/lvgl/src/widgets/lv_arc.c ****     else if(arc->type == LV_ARC_MODE_REVERSE) {
 908:Middlewares/lvgl/src/widgets/lv_arc.c ****         angle +=arc->indic_angle_start;
 909:Middlewares/lvgl/src/widgets/lv_arc.c ****     }
 910:Middlewares/lvgl/src/widgets/lv_arc.c ****     else if(arc->type == LV_ARC_MODE_SYMMETRICAL) {
 911:Middlewares/lvgl/src/widgets/lv_arc.c ****         int32_t range_midpoint = (int32_t)(arc->min_value +arc->max_value) / 2;
 912:Middlewares/lvgl/src/widgets/lv_arc.c ****         if(arc->value < range_midpoint) angle +=arc->indic_angle_start;
 913:Middlewares/lvgl/src/widgets/lv_arc.c ****         else angle +=arc->indic_angle_end;
 914:Middlewares/lvgl/src/widgets/lv_arc.c ****     }
 915:Middlewares/lvgl/src/widgets/lv_arc.c ****     lv_coord_t knob_x = (r * lv_trigo_sin(angle + 90)) >> LV_TRIGO_SHIFT;
 346              		.loc 1 915 5 is_stmt 1 view .LVU97
 347              		.loc 1 915 49 is_stmt 0 view .LVU98
 348 003e 0AF15A00 		add	r0, r10, #90
 349              		.loc 1 915 30 view .LVU99
 350 0042 00B2     		sxth	r0, r0
 351 0044 FFF7FEFF 		bl	lv_trigo_sin
 352              	.LVL41:
 353              		.loc 1 915 28 view .LVU100
 354 0048 00FB04F5 		mul	r5, r0, r4
 355              		.loc 1 915 56 view .LVU101
 356 004c ED13     		asrs	r5, r5, #15
 357              	.LVL42:
 916:Middlewares/lvgl/src/widgets/lv_arc.c ****     lv_coord_t knob_y = (r * lv_trigo_sin(angle)) >> LV_TRIGO_SHIFT;
 358              		.loc 1 916 5 is_stmt 1 view .LVU102
 359              		.loc 1 916 30 is_stmt 0 view .LVU103
 360 004e 0FFA8AF0 		sxth	r0, r10
 361 0052 FFF7FEFF 		bl	lv_trigo_sin
 362              	.LVL43:
 363              		.loc 1 916 28 view .LVU104
 364 0056 00FB04F4 		mul	r4, r0, r4
 365              	.LVL44:
 366              		.loc 1 916 51 view .LVU105
 367 005a E413     		asrs	r4, r4, #15
 368              	.LVL45:
 917:Middlewares/lvgl/src/widgets/lv_arc.c **** 
 918:Middlewares/lvgl/src/widgets/lv_arc.c ****     lv_coord_t left_knob = lv_obj_get_style_pad_left(obj, LV_PART_KNOB);
 369              		.loc 1 918 5 is_stmt 1 view .LVU106
 370              	.LBB87:
 371              	.LBI87:
 103:Middlewares/lvgl/src/widgets/../core/lv_obj_style_gen.h **** {
 372              		.loc 2 103 26 view .LVU107
 373              	.LBB88:
 105:Middlewares/lvgl/src/widgets/../core/lv_obj_style_gen.h ****     return (lv_coord_t)v.num;
 374              		.loc 2 105 5 view .LVU108
 105:Middlewares/lvgl/src/widgets/../core/lv_obj_style_gen.h ****     return (lv_coord_t)v.num;
 375              		.loc 2 105 26 is_stmt 0 view .LVU109
 376 005c 41F21202 		movw	r2, #4114
 377 0060 4FF44031 		mov	r1, #196608
 378 0064 3846     		mov	r0, r7
 379 0066 FFF7FEFF 		bl	lv_obj_get_style_prop
 380              	.LVL46:
ARM GAS  /tmp/ccZjziLX.s 			page 33


 381 006a 8346     		mov	fp, r0
 382              	.LVL47:
 106:Middlewares/lvgl/src/widgets/../core/lv_obj_style_gen.h **** }
 383              		.loc 2 106 5 is_stmt 1 view .LVU110
 106:Middlewares/lvgl/src/widgets/../core/lv_obj_style_gen.h **** }
 384              		.loc 2 106 5 is_stmt 0 view .LVU111
 385              	.LBE88:
 386              	.LBE87:
 919:Middlewares/lvgl/src/widgets/lv_arc.c ****     lv_coord_t right_knob = lv_obj_get_style_pad_right(obj, LV_PART_KNOB);
 387              		.loc 1 919 5 is_stmt 1 view .LVU112
 388              	.LBB89:
 389              	.LBI89:
 109:Middlewares/lvgl/src/widgets/../core/lv_obj_style_gen.h **** {
 390              		.loc 2 109 26 view .LVU113
 391              	.LBB90:
 111:Middlewares/lvgl/src/widgets/../core/lv_obj_style_gen.h ****     return (lv_coord_t)v.num;
 392              		.loc 2 111 5 view .LVU114
 111:Middlewares/lvgl/src/widgets/../core/lv_obj_style_gen.h ****     return (lv_coord_t)v.num;
 393              		.loc 2 111 26 is_stmt 0 view .LVU115
 394 006c 41F21302 		movw	r2, #4115
 395 0070 4FF44031 		mov	r1, #196608
 396 0074 3846     		mov	r0, r7
 397 0076 FFF7FEFF 		bl	lv_obj_get_style_prop
 398              	.LVL48:
 399 007a 8246     		mov	r10, r0
 400              	.LVL49:
 112:Middlewares/lvgl/src/widgets/../core/lv_obj_style_gen.h **** }
 401              		.loc 2 112 5 is_stmt 1 view .LVU116
 112:Middlewares/lvgl/src/widgets/../core/lv_obj_style_gen.h **** }
 402              		.loc 2 112 5 is_stmt 0 view .LVU117
 403              	.LBE90:
 404              	.LBE89:
 920:Middlewares/lvgl/src/widgets/lv_arc.c ****     lv_coord_t top_knob = lv_obj_get_style_pad_top(obj, LV_PART_KNOB);
 405              		.loc 1 920 5 is_stmt 1 view .LVU118
 406              	.LBB91:
 407              	.LBI91:
  91:Middlewares/lvgl/src/widgets/../core/lv_obj_style_gen.h **** {
 408              		.loc 2 91 26 view .LVU119
 409              	.LBB92:
  93:Middlewares/lvgl/src/widgets/../core/lv_obj_style_gen.h ****     return (lv_coord_t)v.num;
 410              		.loc 2 93 5 view .LVU120
  93:Middlewares/lvgl/src/widgets/../core/lv_obj_style_gen.h ****     return (lv_coord_t)v.num;
 411              		.loc 2 93 26 is_stmt 0 view .LVU121
 412 007c 41F21002 		movw	r2, #4112
 413 0080 4FF44031 		mov	r1, #196608
 414 0084 3846     		mov	r0, r7
 415 0086 FFF7FEFF 		bl	lv_obj_get_style_prop
 416              	.LVL50:
 417 008a 0190     		str	r0, [sp, #4]
  94:Middlewares/lvgl/src/widgets/../core/lv_obj_style_gen.h **** }
 418              		.loc 2 94 5 is_stmt 1 view .LVU122
 419              	.LVL51:
  94:Middlewares/lvgl/src/widgets/../core/lv_obj_style_gen.h **** }
 420              		.loc 2 94 5 is_stmt 0 view .LVU123
 421              	.LBE92:
 422              	.LBE91:
 921:Middlewares/lvgl/src/widgets/lv_arc.c ****     lv_coord_t bottom_knob = lv_obj_get_style_pad_bottom(obj, LV_PART_KNOB);
ARM GAS  /tmp/ccZjziLX.s 			page 34


 423              		.loc 1 921 5 is_stmt 1 view .LVU124
 424              	.LBB93:
 425              	.LBI93:
  97:Middlewares/lvgl/src/widgets/../core/lv_obj_style_gen.h **** {
 426              		.loc 2 97 26 view .LVU125
 427              	.LBB94:
  99:Middlewares/lvgl/src/widgets/../core/lv_obj_style_gen.h ****     return (lv_coord_t)v.num;
 428              		.loc 2 99 5 view .LVU126
  99:Middlewares/lvgl/src/widgets/../core/lv_obj_style_gen.h ****     return (lv_coord_t)v.num;
 429              		.loc 2 99 26 is_stmt 0 view .LVU127
 430 008c 41F21102 		movw	r2, #4113
 431 0090 4FF44031 		mov	r1, #196608
 432 0094 3846     		mov	r0, r7
 433 0096 FFF7FEFF 		bl	lv_obj_get_style_prop
 434              	.LVL52:
 100:Middlewares/lvgl/src/widgets/../core/lv_obj_style_gen.h **** }
 435              		.loc 2 100 5 is_stmt 1 view .LVU128
 100:Middlewares/lvgl/src/widgets/../core/lv_obj_style_gen.h **** }
 436              		.loc 2 100 5 is_stmt 0 view .LVU129
 437              	.LBE94:
 438              	.LBE93:
 922:Middlewares/lvgl/src/widgets/lv_arc.c **** 
 923:Middlewares/lvgl/src/widgets/lv_arc.c ****     knob_area->x1 = center->x + knob_x - left_knob - indic_width_half;
 439              		.loc 1 923 5 is_stmt 1 view .LVU130
 440              		.loc 1 923 27 is_stmt 0 view .LVU131
 441 009a B9F80030 		ldrh	r3, [r9]
 442              		.loc 1 923 31 view .LVU132
 443 009e ADB2     		uxth	r5, r5
 444              		.loc 1 923 31 view .LVU133
 445 00a0 2B44     		add	r3, r3, r5
 446 00a2 9BB2     		uxth	r3, r3
 447              		.loc 1 923 40 view .LVU134
 448 00a4 A3EB0B0B 		sub	fp, r3, fp
 449              	.LVL53:
 450              		.loc 1 923 40 view .LVU135
 451 00a8 1FFA8BFB 		uxth	fp, fp
 452              		.loc 1 923 52 view .LVU136
 453 00ac ABEB060B 		sub	fp, fp, r6
 454              		.loc 1 923 19 view .LVU137
 455 00b0 A8F800B0 		strh	fp, [r8]	@ movhi
 924:Middlewares/lvgl/src/widgets/lv_arc.c ****     knob_area->x2 = center->x + knob_x + right_knob + indic_width_half;
 456              		.loc 1 924 5 is_stmt 1 view .LVU138
 457              		.loc 1 924 27 is_stmt 0 view .LVU139
 458 00b4 B9F80030 		ldrh	r3, [r9]
 459              		.loc 1 924 31 view .LVU140
 460 00b8 1D44     		add	r5, r5, r3
 461              	.LVL54:
 462              		.loc 1 924 40 view .LVU141
 463 00ba 1AFA85FA 		uxtah	r10, r10, r5
 464              	.LVL55:
 465              		.loc 1 924 53 view .LVU142
 466 00be 16FA8AFA 		uxtah	r10, r6, r10
 467              		.loc 1 924 19 view .LVU143
 468 00c2 A8F804A0 		strh	r10, [r8, #4]	@ movhi
 925:Middlewares/lvgl/src/widgets/lv_arc.c ****     knob_area->y1 = center->y + knob_y - top_knob - indic_width_half;
 469              		.loc 1 925 5 is_stmt 1 view .LVU144
 470              		.loc 1 925 27 is_stmt 0 view .LVU145
ARM GAS  /tmp/ccZjziLX.s 			page 35


 471 00c6 B9F80230 		ldrh	r3, [r9, #2]
 472              		.loc 1 925 31 view .LVU146
 473 00ca A4B2     		uxth	r4, r4
 474              		.loc 1 925 31 view .LVU147
 475 00cc 2344     		add	r3, r3, r4
 476 00ce 9BB2     		uxth	r3, r3
 477              		.loc 1 925 40 view .LVU148
 478 00d0 019A     		ldr	r2, [sp, #4]
 479              	.LVL56:
 480              		.loc 1 925 40 view .LVU149
 481 00d2 9B1A     		subs	r3, r3, r2
 482 00d4 9BB2     		uxth	r3, r3
 483              		.loc 1 925 51 view .LVU150
 484 00d6 9B1B     		subs	r3, r3, r6
 485              		.loc 1 925 19 view .LVU151
 486 00d8 A8F80230 		strh	r3, [r8, #2]	@ movhi
 926:Middlewares/lvgl/src/widgets/lv_arc.c ****     knob_area->y2 = center->y + knob_y + bottom_knob + indic_width_half;
 487              		.loc 1 926 5 is_stmt 1 view .LVU152
 488              		.loc 1 926 27 is_stmt 0 view .LVU153
 489 00dc B9F80230 		ldrh	r3, [r9, #2]
 490              		.loc 1 926 31 view .LVU154
 491 00e0 1C44     		add	r4, r4, r3
 492              	.LVL57:
 493              		.loc 1 926 40 view .LVU155
 494 00e2 10FA84F4 		uxtah	r4, r0, r4
 495              		.loc 1 926 54 view .LVU156
 496 00e6 16FA84F6 		uxtah	r6, r6, r4
 497              		.loc 1 926 19 view .LVU157
 498 00ea A8F80660 		strh	r6, [r8, #6]	@ movhi
 927:Middlewares/lvgl/src/widgets/lv_arc.c **** }
 499              		.loc 1 927 1 view .LVU158
 500 00ee 03B0     		add	sp, sp, #12
 501              	.LCFI6:
 502              		.cfi_remember_state
 503              		.cfi_def_cfa_offset 36
 504              		@ sp needed
 505 00f0 BDE8F08F 		pop	{r4, r5, r6, r7, r8, r9, r10, fp, pc}
 506              	.LVL58:
 507              	.L17:
 508              	.LCFI7:
 509              		.cfi_restore_state
 900:Middlewares/lvgl/src/widgets/lv_arc.c ****     r -= indic_width_half;
 510              		.loc 1 900 16 view .LVU159
 511 00f4 0136     		adds	r6, r6, #1
 512 00f6 93E7     		b	.L10
 513              	.LVL59:
 514              	.L11:
 907:Middlewares/lvgl/src/widgets/lv_arc.c ****         angle +=arc->indic_angle_start;
 515              		.loc 1 907 10 is_stmt 1 view .LVU160
 907:Middlewares/lvgl/src/widgets/lv_arc.c ****         angle +=arc->indic_angle_start;
 516              		.loc 1 907 12 is_stmt 0 view .LVU161
 517 00f8 042B     		cmp	r3, #4
 518 00fa 11D0     		beq	.L18
 910:Middlewares/lvgl/src/widgets/lv_arc.c ****         int32_t range_midpoint = (int32_t)(arc->min_value +arc->max_value) / 2;
 519              		.loc 1 910 10 is_stmt 1 view .LVU162
 910:Middlewares/lvgl/src/widgets/lv_arc.c ****         int32_t range_midpoint = (int32_t)(arc->min_value +arc->max_value) / 2;
 520              		.loc 1 910 12 is_stmt 0 view .LVU163
ARM GAS  /tmp/ccZjziLX.s 			page 36


 521 00fc 022B     		cmp	r3, #2
 522 00fe 9ED1     		bne	.L12
 523              	.LBB95:
 911:Middlewares/lvgl/src/widgets/lv_arc.c ****         if(arc->value < range_midpoint) angle +=arc->indic_angle_start;
 524              		.loc 1 911 9 is_stmt 1 view .LVU164
 911:Middlewares/lvgl/src/widgets/lv_arc.c ****         if(arc->value < range_midpoint) angle +=arc->indic_angle_start;
 525              		.loc 1 911 47 is_stmt 0 view .LVU165
 526 0100 B7F93030 		ldrsh	r3, [r7, #48]
 911:Middlewares/lvgl/src/widgets/lv_arc.c ****         if(arc->value < range_midpoint) angle +=arc->indic_angle_start;
 527              		.loc 1 911 63 view .LVU166
 528 0104 B7F93220 		ldrsh	r2, [r7, #50]
 911:Middlewares/lvgl/src/widgets/lv_arc.c ****         if(arc->value < range_midpoint) angle +=arc->indic_angle_start;
 529              		.loc 1 911 17 view .LVU167
 530 0108 9B18     		adds	r3, r3, r2
 531 010a 0ED4     		bmi	.L19
 532              	.L14:
 533              	.LVL60:
 912:Middlewares/lvgl/src/widgets/lv_arc.c ****         else angle +=arc->indic_angle_end;
 534              		.loc 1 912 9 is_stmt 1 view .LVU168
 912:Middlewares/lvgl/src/widgets/lv_arc.c ****         else angle +=arc->indic_angle_end;
 535              		.loc 1 912 15 is_stmt 0 view .LVU169
 536 010c B7F92E20 		ldrsh	r2, [r7, #46]
 912:Middlewares/lvgl/src/widgets/lv_arc.c ****         else angle +=arc->indic_angle_end;
 537              		.loc 1 912 11 view .LVU170
 538 0110 B2EB630F 		cmp	r2, r3, asr #1
 539 0114 0BDA     		bge	.L15
 912:Middlewares/lvgl/src/widgets/lv_arc.c ****         else angle +=arc->indic_angle_end;
 540              		.loc 1 912 41 is_stmt 1 discriminator 1 view .LVU171
 912:Middlewares/lvgl/src/widgets/lv_arc.c ****         else angle +=arc->indic_angle_end;
 541              		.loc 1 912 52 is_stmt 0 discriminator 1 view .LVU172
 542 0116 FB8C     		ldrh	r3, [r7, #38]
 543              	.LVL61:
 912:Middlewares/lvgl/src/widgets/lv_arc.c ****         else angle +=arc->indic_angle_end;
 544              		.loc 1 912 47 discriminator 1 view .LVU173
 545 0118 9A44     		add	r10, r10, r3
 546              	.LVL62:
 912:Middlewares/lvgl/src/widgets/lv_arc.c ****         else angle +=arc->indic_angle_end;
 547              		.loc 1 912 47 discriminator 1 view .LVU174
 548 011a 1FFA8AFA 		uxth	r10, r10
 549              	.LVL63:
 912:Middlewares/lvgl/src/widgets/lv_arc.c ****         else angle +=arc->indic_angle_end;
 550              		.loc 1 912 47 discriminator 1 view .LVU175
 551 011e 8EE7     		b	.L12
 552              	.L18:
 912:Middlewares/lvgl/src/widgets/lv_arc.c ****         else angle +=arc->indic_angle_end;
 553              		.loc 1 912 47 discriminator 1 view .LVU176
 554              	.LBE95:
 908:Middlewares/lvgl/src/widgets/lv_arc.c ****     }
 555              		.loc 1 908 9 is_stmt 1 view .LVU177
 908:Middlewares/lvgl/src/widgets/lv_arc.c ****     }
 556              		.loc 1 908 20 is_stmt 0 view .LVU178
 557 0120 FB8C     		ldrh	r3, [r7, #38]
 908:Middlewares/lvgl/src/widgets/lv_arc.c ****     }
 558              		.loc 1 908 15 view .LVU179
 559 0122 9A44     		add	r10, r10, r3
 560              	.LVL64:
 908:Middlewares/lvgl/src/widgets/lv_arc.c ****     }
ARM GAS  /tmp/ccZjziLX.s 			page 37


 561              		.loc 1 908 15 view .LVU180
 562 0124 1FFA8AFA 		uxth	r10, r10
 563              	.LVL65:
 908:Middlewares/lvgl/src/widgets/lv_arc.c ****     }
 564              		.loc 1 908 15 view .LVU181
 565 0128 89E7     		b	.L12
 566              	.L19:
 567              	.LBB96:
 911:Middlewares/lvgl/src/widgets/lv_arc.c ****         if(arc->value < range_midpoint) angle +=arc->indic_angle_start;
 568              		.loc 1 911 17 view .LVU182
 569 012a 0133     		adds	r3, r3, #1
 570 012c EEE7     		b	.L14
 571              	.LVL66:
 572              	.L15:
 913:Middlewares/lvgl/src/widgets/lv_arc.c ****     }
 573              		.loc 1 913 14 is_stmt 1 view .LVU183
 913:Middlewares/lvgl/src/widgets/lv_arc.c ****     }
 574              		.loc 1 913 25 is_stmt 0 view .LVU184
 575 012e 3B8D     		ldrh	r3, [r7, #40]
 576              	.LVL67:
 913:Middlewares/lvgl/src/widgets/lv_arc.c ****     }
 577              		.loc 1 913 20 view .LVU185
 578 0130 9A44     		add	r10, r10, r3
 579              	.LVL68:
 913:Middlewares/lvgl/src/widgets/lv_arc.c ****     }
 580              		.loc 1 913 20 view .LVU186
 581 0132 1FFA8AFA 		uxth	r10, r10
 582              	.LVL69:
 913:Middlewares/lvgl/src/widgets/lv_arc.c ****     }
 583              		.loc 1 913 20 view .LVU187
 584 0136 82E7     		b	.L12
 585              	.LBE96:
 586              		.cfi_endproc
 587              	.LFE172:
 589              		.section	.text.lv_arc_draw,"ax",%progbits
 590              		.align	1
 591              		.syntax unified
 592              		.thumb
 593              		.thumb_func
 595              	lv_arc_draw:
 596              	.LVL70:
 597              	.LFB169:
 680:Middlewares/lvgl/src/widgets/lv_arc.c ****     lv_obj_t * obj = lv_event_get_target(e);
 598              		.loc 1 680 1 is_stmt 1 view -0
 599              		.cfi_startproc
 600              		@ args = 0, pretend = 0, frame = 152
 601              		@ frame_needed = 0, uses_anonymous_args = 0
 680:Middlewares/lvgl/src/widgets/lv_arc.c ****     lv_obj_t * obj = lv_event_get_target(e);
 602              		.loc 1 680 1 is_stmt 0 view .LVU189
 603 0000 2DE9F041 		push	{r4, r5, r6, r7, r8, lr}
 604              	.LCFI8:
 605              		.cfi_def_cfa_offset 24
 606              		.cfi_offset 4, -24
 607              		.cfi_offset 5, -20
 608              		.cfi_offset 6, -16
 609              		.cfi_offset 7, -12
 610              		.cfi_offset 8, -8
ARM GAS  /tmp/ccZjziLX.s 			page 38


 611              		.cfi_offset 14, -4
 612 0004 AAB0     		sub	sp, sp, #168
 613              	.LCFI9:
 614              		.cfi_def_cfa_offset 192
 615 0006 0546     		mov	r5, r0
 681:Middlewares/lvgl/src/widgets/lv_arc.c ****     lv_arc_t * arc = (lv_arc_t *)obj;
 616              		.loc 1 681 5 is_stmt 1 view .LVU190
 681:Middlewares/lvgl/src/widgets/lv_arc.c ****     lv_arc_t * arc = (lv_arc_t *)obj;
 617              		.loc 1 681 22 is_stmt 0 view .LVU191
 618 0008 FFF7FEFF 		bl	lv_event_get_target
 619              	.LVL71:
 681:Middlewares/lvgl/src/widgets/lv_arc.c ****     lv_arc_t * arc = (lv_arc_t *)obj;
 620              		.loc 1 681 22 view .LVU192
 621 000c 0446     		mov	r4, r0
 622              	.LVL72:
 682:Middlewares/lvgl/src/widgets/lv_arc.c **** 
 623              		.loc 1 682 5 is_stmt 1 view .LVU193
 684:Middlewares/lvgl/src/widgets/lv_arc.c **** 
 624              		.loc 1 684 5 view .LVU194
 684:Middlewares/lvgl/src/widgets/lv_arc.c **** 
 625              		.loc 1 684 35 is_stmt 0 view .LVU195
 626 000e 2846     		mov	r0, r5
 627              	.LVL73:
 684:Middlewares/lvgl/src/widgets/lv_arc.c **** 
 628              		.loc 1 684 35 view .LVU196
 629 0010 FFF7FEFF 		bl	lv_event_get_param
 630              	.LVL74:
 631 0014 0546     		mov	r5, r0
 632              	.LVL75:
 686:Middlewares/lvgl/src/widgets/lv_arc.c ****     lv_coord_t arc_r;
 633              		.loc 1 686 5 is_stmt 1 view .LVU197
 687:Middlewares/lvgl/src/widgets/lv_arc.c ****     get_center(obj, &center, &arc_r);
 634              		.loc 1 687 5 view .LVU198
 688:Middlewares/lvgl/src/widgets/lv_arc.c **** 
 635              		.loc 1 688 5 view .LVU199
 636 0016 0DF1A202 		add	r2, sp, #162
 637 001a 29A9     		add	r1, sp, #164
 638 001c 2046     		mov	r0, r4
 639              	.LVL76:
 688:Middlewares/lvgl/src/widgets/lv_arc.c **** 
 640              		.loc 1 688 5 is_stmt 0 view .LVU200
 641 001e FFF7FEFF 		bl	get_center
 642              	.LVL77:
 690:Middlewares/lvgl/src/widgets/lv_arc.c ****     lv_obj_draw_dsc_init(&obj_draw_dsc, clip_area);
 643              		.loc 1 690 5 is_stmt 1 view .LVU201
 691:Middlewares/lvgl/src/widgets/lv_arc.c **** 
 644              		.loc 1 691 5 view .LVU202
 645 0022 2946     		mov	r1, r5
 646 0024 16A8     		add	r0, sp, #88
 647 0026 FFF7FEFF 		bl	lv_obj_draw_dsc_init
 648              	.LVL78:
 694:Middlewares/lvgl/src/widgets/lv_arc.c ****     if(arc_r > 0) {
 649              		.loc 1 694 5 view .LVU203
 695:Middlewares/lvgl/src/widgets/lv_arc.c ****         lv_draw_arc_dsc_init(&arc_dsc);
 650              		.loc 1 695 5 view .LVU204
 695:Middlewares/lvgl/src/widgets/lv_arc.c ****         lv_draw_arc_dsc_init(&arc_dsc);
 651              		.loc 1 695 14 is_stmt 0 view .LVU205
ARM GAS  /tmp/ccZjziLX.s 			page 39


 652 002a BDF9A230 		ldrsh	r3, [sp, #162]
 695:Middlewares/lvgl/src/widgets/lv_arc.c ****         lv_draw_arc_dsc_init(&arc_dsc);
 653              		.loc 1 695 7 view .LVU206
 654 002e 002B     		cmp	r3, #0
 655 0030 5ADC     		bgt	.L24
 656              	.L21:
 713:Middlewares/lvgl/src/widgets/lv_arc.c ****     lv_coord_t right_indic = lv_obj_get_style_pad_right(obj, LV_PART_INDICATOR);
 657              		.loc 1 713 5 is_stmt 1 view .LVU207
 658              	.LVL79:
 659              	.LBB97:
 660              	.LBI97:
 103:Middlewares/lvgl/src/widgets/../core/lv_obj_style_gen.h **** {
 661              		.loc 2 103 26 view .LVU208
 662              	.LBB98:
 105:Middlewares/lvgl/src/widgets/../core/lv_obj_style_gen.h ****     return (lv_coord_t)v.num;
 663              		.loc 2 105 5 view .LVU209
 105:Middlewares/lvgl/src/widgets/../core/lv_obj_style_gen.h ****     return (lv_coord_t)v.num;
 664              		.loc 2 105 26 is_stmt 0 view .LVU210
 665 0032 41F21202 		movw	r2, #4114
 666 0036 4FF40031 		mov	r1, #131072
 667 003a 2046     		mov	r0, r4
 668 003c FFF7FEFF 		bl	lv_obj_get_style_prop
 669              	.LVL80:
 106:Middlewares/lvgl/src/widgets/../core/lv_obj_style_gen.h **** }
 670              		.loc 2 106 5 is_stmt 1 view .LVU211
 106:Middlewares/lvgl/src/widgets/../core/lv_obj_style_gen.h **** }
 671              		.loc 2 106 12 is_stmt 0 view .LVU212
 672 0040 07B2     		sxth	r7, r0
 673              	.LVL81:
 106:Middlewares/lvgl/src/widgets/../core/lv_obj_style_gen.h **** }
 674              		.loc 2 106 12 view .LVU213
 675              	.LBE98:
 676              	.LBE97:
 714:Middlewares/lvgl/src/widgets/lv_arc.c ****     lv_coord_t top_indic = lv_obj_get_style_pad_top(obj, LV_PART_INDICATOR);
 677              		.loc 1 714 5 is_stmt 1 view .LVU214
 678              	.LBB99:
 679              	.LBI99:
 109:Middlewares/lvgl/src/widgets/../core/lv_obj_style_gen.h **** {
 680              		.loc 2 109 26 view .LVU215
 681              	.LBB100:
 111:Middlewares/lvgl/src/widgets/../core/lv_obj_style_gen.h ****     return (lv_coord_t)v.num;
 682              		.loc 2 111 5 view .LVU216
 111:Middlewares/lvgl/src/widgets/../core/lv_obj_style_gen.h ****     return (lv_coord_t)v.num;
 683              		.loc 2 111 26 is_stmt 0 view .LVU217
 684 0042 41F21302 		movw	r2, #4115
 685 0046 4FF40031 		mov	r1, #131072
 686 004a 2046     		mov	r0, r4
 687 004c FFF7FEFF 		bl	lv_obj_get_style_prop
 688              	.LVL82:
 112:Middlewares/lvgl/src/widgets/../core/lv_obj_style_gen.h **** }
 689              		.loc 2 112 5 is_stmt 1 view .LVU218
 112:Middlewares/lvgl/src/widgets/../core/lv_obj_style_gen.h **** }
 690              		.loc 2 112 12 is_stmt 0 view .LVU219
 691 0050 06B2     		sxth	r6, r0
 692              	.LVL83:
 112:Middlewares/lvgl/src/widgets/../core/lv_obj_style_gen.h **** }
 693              		.loc 2 112 12 view .LVU220
ARM GAS  /tmp/ccZjziLX.s 			page 40


 694              	.LBE100:
 695              	.LBE99:
 715:Middlewares/lvgl/src/widgets/lv_arc.c ****     lv_coord_t bottom_indic = lv_obj_get_style_pad_bottom(obj, LV_PART_INDICATOR);
 696              		.loc 1 715 5 is_stmt 1 view .LVU221
 697              	.LBB101:
 698              	.LBI101:
  91:Middlewares/lvgl/src/widgets/../core/lv_obj_style_gen.h **** {
 699              		.loc 2 91 26 view .LVU222
 700              	.LBB102:
  93:Middlewares/lvgl/src/widgets/../core/lv_obj_style_gen.h ****     return (lv_coord_t)v.num;
 701              		.loc 2 93 5 view .LVU223
  93:Middlewares/lvgl/src/widgets/../core/lv_obj_style_gen.h ****     return (lv_coord_t)v.num;
 702              		.loc 2 93 26 is_stmt 0 view .LVU224
 703 0052 41F21002 		movw	r2, #4112
 704 0056 4FF40031 		mov	r1, #131072
 705 005a 2046     		mov	r0, r4
 706 005c FFF7FEFF 		bl	lv_obj_get_style_prop
 707              	.LVL84:
  94:Middlewares/lvgl/src/widgets/../core/lv_obj_style_gen.h **** }
 708              		.loc 2 94 5 is_stmt 1 view .LVU225
  94:Middlewares/lvgl/src/widgets/../core/lv_obj_style_gen.h **** }
 709              		.loc 2 94 12 is_stmt 0 view .LVU226
 710 0060 0FFA80F8 		sxth	r8, r0
 711              	.LVL85:
  94:Middlewares/lvgl/src/widgets/../core/lv_obj_style_gen.h **** }
 712              		.loc 2 94 12 view .LVU227
 713              	.LBE102:
 714              	.LBE101:
 716:Middlewares/lvgl/src/widgets/lv_arc.c ****     lv_coord_t indic_r = arc_r - LV_MAX4(left_indic, right_indic, top_indic, bottom_indic);
 715              		.loc 1 716 5 is_stmt 1 view .LVU228
 716              	.LBB103:
 717              	.LBI103:
  97:Middlewares/lvgl/src/widgets/../core/lv_obj_style_gen.h **** {
 718              		.loc 2 97 26 view .LVU229
 719              	.LBB104:
  99:Middlewares/lvgl/src/widgets/../core/lv_obj_style_gen.h ****     return (lv_coord_t)v.num;
 720              		.loc 2 99 5 view .LVU230
  99:Middlewares/lvgl/src/widgets/../core/lv_obj_style_gen.h ****     return (lv_coord_t)v.num;
 721              		.loc 2 99 26 is_stmt 0 view .LVU231
 722 0064 41F21102 		movw	r2, #4113
 723 0068 4FF40031 		mov	r1, #131072
 724 006c 2046     		mov	r0, r4
 725 006e FFF7FEFF 		bl	lv_obj_get_style_prop
 726              	.LVL86:
 100:Middlewares/lvgl/src/widgets/../core/lv_obj_style_gen.h **** }
 727              		.loc 2 100 5 is_stmt 1 view .LVU232
 100:Middlewares/lvgl/src/widgets/../core/lv_obj_style_gen.h **** }
 728              		.loc 2 100 12 is_stmt 0 view .LVU233
 729 0072 03B2     		sxth	r3, r0
 730              	.LVL87:
 100:Middlewares/lvgl/src/widgets/../core/lv_obj_style_gen.h **** }
 731              		.loc 2 100 12 view .LVU234
 732              	.LBE104:
 733              	.LBE103:
 717:Middlewares/lvgl/src/widgets/lv_arc.c **** 
 734              		.loc 1 717 5 is_stmt 1 view .LVU235
 717:Middlewares/lvgl/src/widgets/lv_arc.c **** 
ARM GAS  /tmp/ccZjziLX.s 			page 41


 735              		.loc 1 717 34 is_stmt 0 view .LVU236
 736 0074 4345     		cmp	r3, r8
 737 0076 B8BF     		it	lt
 738 0078 4346     		movlt	r3, r8
 739              	.LVL88:
 717:Middlewares/lvgl/src/widgets/lv_arc.c **** 
 740              		.loc 1 717 34 view .LVU237
 741 007a BE42     		cmp	r6, r7
 742 007c B8BF     		it	lt
 743 007e 3E46     		movlt	r6, r7
 744              	.LVL89:
 717:Middlewares/lvgl/src/widgets/lv_arc.c **** 
 745              		.loc 1 717 34 view .LVU238
 746 0080 B342     		cmp	r3, r6
 747 0082 B8BF     		it	lt
 748 0084 3346     		movlt	r3, r6
 749 0086 9BB2     		uxth	r3, r3
 717:Middlewares/lvgl/src/widgets/lv_arc.c **** 
 750              		.loc 1 717 32 view .LVU239
 751 0088 BDF8A220 		ldrh	r2, [sp, #162]
 752 008c D31A     		subs	r3, r2, r3
 753 008e 9FB2     		uxth	r7, r3
 754              	.LVL90:
 717:Middlewares/lvgl/src/widgets/lv_arc.c **** 
 755              		.loc 1 717 16 view .LVU240
 756 0090 1EB2     		sxth	r6, r3
 757              	.LVL91:
 719:Middlewares/lvgl/src/widgets/lv_arc.c ****         lv_draw_arc_dsc_init(&arc_dsc);
 758              		.loc 1 719 5 is_stmt 1 view .LVU241
 719:Middlewares/lvgl/src/widgets/lv_arc.c ****         lv_draw_arc_dsc_init(&arc_dsc);
 759              		.loc 1 719 7 is_stmt 0 view .LVU242
 760 0092 002E     		cmp	r6, #0
 761 0094 58DC     		bgt	.L25
 762              	.LVL92:
 763              	.L22:
 736:Middlewares/lvgl/src/widgets/lv_arc.c ****     get_knob_area(obj, &center, arc_r, &knob_area);
 764              		.loc 1 736 5 is_stmt 1 view .LVU243
 737:Middlewares/lvgl/src/widgets/lv_arc.c **** 
 765              		.loc 1 737 5 view .LVU244
 766 0096 11AF     		add	r7, sp, #68
 767 0098 3B46     		mov	r3, r7
 768 009a BDF9A220 		ldrsh	r2, [sp, #162]
 769 009e 29A9     		add	r1, sp, #164
 770 00a0 2046     		mov	r0, r4
 771 00a2 FFF7FEFF 		bl	get_knob_area
 772              	.LVL93:
 739:Middlewares/lvgl/src/widgets/lv_arc.c ****     lv_draw_rect_dsc_init(&knob_rect_dsc);
 773              		.loc 1 739 5 view .LVU245
 740:Middlewares/lvgl/src/widgets/lv_arc.c ****     lv_obj_init_draw_rect_dsc(obj, LV_PART_KNOB, &knob_rect_dsc);
 774              		.loc 1 740 5 view .LVU246
 775 00a6 04AE     		add	r6, sp, #16
 776              	.LVL94:
 740:Middlewares/lvgl/src/widgets/lv_arc.c ****     lv_obj_init_draw_rect_dsc(obj, LV_PART_KNOB, &knob_rect_dsc);
 777              		.loc 1 740 5 is_stmt 0 view .LVU247
 778 00a8 3046     		mov	r0, r6
 779 00aa FFF7FEFF 		bl	lv_draw_rect_dsc_init
 780              	.LVL95:
ARM GAS  /tmp/ccZjziLX.s 			page 42


 741:Middlewares/lvgl/src/widgets/lv_arc.c **** 
 781              		.loc 1 741 5 is_stmt 1 view .LVU248
 782 00ae 3246     		mov	r2, r6
 783 00b0 4FF44031 		mov	r1, #196608
 784 00b4 2046     		mov	r0, r4
 785 00b6 FFF7FEFF 		bl	lv_obj_init_draw_rect_dsc
 786              	.LVL96:
 743:Middlewares/lvgl/src/widgets/lv_arc.c ****     obj_draw_dsc.draw_area = &knob_area;
 787              		.loc 1 743 5 view .LVU249
 743:Middlewares/lvgl/src/widgets/lv_arc.c ****     obj_draw_dsc.draw_area = &knob_area;
 788              		.loc 1 743 23 is_stmt 0 view .LVU250
 789 00ba 4FF44033 		mov	r3, #196608
 790 00be 2393     		str	r3, [sp, #140]
 744:Middlewares/lvgl/src/widgets/lv_arc.c ****     obj_draw_dsc.rect_dsc = &knob_rect_dsc;
 791              		.loc 1 744 5 is_stmt 1 view .LVU251
 744:Middlewares/lvgl/src/widgets/lv_arc.c ****     obj_draw_dsc.rect_dsc = &knob_rect_dsc;
 792              		.loc 1 744 28 is_stmt 0 view .LVU252
 793 00c0 1797     		str	r7, [sp, #92]
 745:Middlewares/lvgl/src/widgets/lv_arc.c ****     lv_event_send(obj, LV_EVENT_DRAW_PART_BEGIN, &obj_draw_dsc);
 794              		.loc 1 745 5 is_stmt 1 view .LVU253
 745:Middlewares/lvgl/src/widgets/lv_arc.c ****     lv_event_send(obj, LV_EVENT_DRAW_PART_BEGIN, &obj_draw_dsc);
 795              		.loc 1 745 27 is_stmt 0 view .LVU254
 796 00c2 1896     		str	r6, [sp, #96]
 746:Middlewares/lvgl/src/widgets/lv_arc.c **** 
 797              		.loc 1 746 5 is_stmt 1 view .LVU255
 798 00c4 16AA     		add	r2, sp, #88
 799 00c6 1A21     		movs	r1, #26
 800 00c8 2046     		mov	r0, r4
 801 00ca FFF7FEFF 		bl	lv_event_send
 802              	.LVL97:
 748:Middlewares/lvgl/src/widgets/lv_arc.c **** 
 803              		.loc 1 748 5 view .LVU256
 804 00ce 3246     		mov	r2, r6
 805 00d0 2946     		mov	r1, r5
 806 00d2 3846     		mov	r0, r7
 807 00d4 FFF7FEFF 		bl	lv_draw_rect
 808              	.LVL98:
 750:Middlewares/lvgl/src/widgets/lv_arc.c **** }
 809              		.loc 1 750 5 view .LVU257
 810 00d8 16AA     		add	r2, sp, #88
 811 00da 1B21     		movs	r1, #27
 812 00dc 2046     		mov	r0, r4
 813 00de FFF7FEFF 		bl	lv_event_send
 814              	.LVL99:
 751:Middlewares/lvgl/src/widgets/lv_arc.c **** 
 815              		.loc 1 751 1 is_stmt 0 view .LVU258
 816 00e2 2AB0     		add	sp, sp, #168
 817              	.LCFI10:
 818              		.cfi_remember_state
 819              		.cfi_def_cfa_offset 24
 820              		@ sp needed
 821 00e4 BDE8F081 		pop	{r4, r5, r6, r7, r8, pc}
 822              	.LVL100:
 823              	.L24:
 824              	.LCFI11:
 825              		.cfi_restore_state
 696:Middlewares/lvgl/src/widgets/lv_arc.c ****         lv_obj_init_draw_arc_dsc(obj, LV_PART_MAIN, &arc_dsc);
ARM GAS  /tmp/ccZjziLX.s 			page 43


 826              		.loc 1 696 9 is_stmt 1 view .LVU259
 827 00e8 13A8     		add	r0, sp, #76
 828 00ea FFF7FEFF 		bl	lv_draw_arc_dsc_init
 829              	.LVL101:
 697:Middlewares/lvgl/src/widgets/lv_arc.c **** 
 830              		.loc 1 697 9 view .LVU260
 831 00ee 13AA     		add	r2, sp, #76
 832 00f0 0021     		movs	r1, #0
 833 00f2 2046     		mov	r0, r4
 834 00f4 FFF7FEFF 		bl	lv_obj_init_draw_arc_dsc
 835              	.LVL102:
 699:Middlewares/lvgl/src/widgets/lv_arc.c ****         obj_draw_dsc.p1 = &center;
 836              		.loc 1 699 9 view .LVU261
 699:Middlewares/lvgl/src/widgets/lv_arc.c ****         obj_draw_dsc.p1 = &center;
 837              		.loc 1 699 27 is_stmt 0 view .LVU262
 838 00f8 0023     		movs	r3, #0
 839 00fa 2393     		str	r3, [sp, #140]
 700:Middlewares/lvgl/src/widgets/lv_arc.c ****         obj_draw_dsc.radius = arc_r;
 840              		.loc 1 700 9 is_stmt 1 view .LVU263
 700:Middlewares/lvgl/src/widgets/lv_arc.c ****         obj_draw_dsc.radius = arc_r;
 841              		.loc 1 700 25 is_stmt 0 view .LVU264
 842 00fc 29AB     		add	r3, sp, #164
 843 00fe 1D93     		str	r3, [sp, #116]
 701:Middlewares/lvgl/src/widgets/lv_arc.c ****         obj_draw_dsc.arc_dsc = &arc_dsc;
 844              		.loc 1 701 9 is_stmt 1 view .LVU265
 701:Middlewares/lvgl/src/widgets/lv_arc.c ****         obj_draw_dsc.arc_dsc = &arc_dsc;
 845              		.loc 1 701 29 is_stmt 0 view .LVU266
 846 0100 BDF8A230 		ldrh	r3, [sp, #162]
 847 0104 ADF89430 		strh	r3, [sp, #148]	@ movhi
 702:Middlewares/lvgl/src/widgets/lv_arc.c ****         lv_event_send(obj, LV_EVENT_DRAW_PART_BEGIN, &obj_draw_dsc);
 848              		.loc 1 702 9 is_stmt 1 view .LVU267
 702:Middlewares/lvgl/src/widgets/lv_arc.c ****         lv_event_send(obj, LV_EVENT_DRAW_PART_BEGIN, &obj_draw_dsc);
 849              		.loc 1 702 30 is_stmt 0 view .LVU268
 850 0108 13AB     		add	r3, sp, #76
 851 010a 1C93     		str	r3, [sp, #112]
 703:Middlewares/lvgl/src/widgets/lv_arc.c **** 
 852              		.loc 1 703 9 is_stmt 1 view .LVU269
 853 010c 16AA     		add	r2, sp, #88
 854 010e 1A21     		movs	r1, #26
 855 0110 2046     		mov	r0, r4
 856 0112 FFF7FEFF 		bl	lv_event_send
 857              	.LVL103:
 705:Middlewares/lvgl/src/widgets/lv_arc.c ****                    arc->bg_angle_end + arc->rotation, clip_area,
 858              		.loc 1 705 9 view .LVU270
 705:Middlewares/lvgl/src/widgets/lv_arc.c ****                    arc->bg_angle_end + arc->rotation, clip_area,
 859              		.loc 1 705 51 is_stmt 0 view .LVU271
 860 0116 638D     		ldrh	r3, [r4, #42]
 705:Middlewares/lvgl/src/widgets/lv_arc.c ****                    arc->bg_angle_end + arc->rotation, clip_area,
 861              		.loc 1 705 73 view .LVU272
 862 0118 A28C     		ldrh	r2, [r4, #36]
 706:Middlewares/lvgl/src/widgets/lv_arc.c ****                     &arc_dsc);
 863              		.loc 1 706 23 view .LVU273
 864 011a A18D     		ldrh	r1, [r4, #44]
 705:Middlewares/lvgl/src/widgets/lv_arc.c ****                    arc->bg_angle_end + arc->rotation, clip_area,
 865              		.loc 1 705 9 view .LVU274
 866 011c 1344     		add	r3, r3, r2
 867 011e 13A8     		add	r0, sp, #76
ARM GAS  /tmp/ccZjziLX.s 			page 44


 868 0120 0290     		str	r0, [sp, #8]
 869 0122 0195     		str	r5, [sp, #4]
 870 0124 0A44     		add	r2, r2, r1
 871 0126 92B2     		uxth	r2, r2
 872 0128 0092     		str	r2, [sp]
 873 012a 9BB2     		uxth	r3, r3
 874 012c BDF8A220 		ldrh	r2, [sp, #162]
 875 0130 BDF9A610 		ldrsh	r1, [sp, #166]
 876 0134 BDF9A400 		ldrsh	r0, [sp, #164]
 877 0138 FFF7FEFF 		bl	lv_draw_arc
 878              	.LVL104:
 709:Middlewares/lvgl/src/widgets/lv_arc.c ****     }
 879              		.loc 1 709 9 is_stmt 1 view .LVU275
 880 013c 16AA     		add	r2, sp, #88
 881 013e 1B21     		movs	r1, #27
 882 0140 2046     		mov	r0, r4
 883 0142 FFF7FEFF 		bl	lv_event_send
 884              	.LVL105:
 885 0146 74E7     		b	.L21
 886              	.LVL106:
 887              	.L25:
 720:Middlewares/lvgl/src/widgets/lv_arc.c ****         lv_obj_init_draw_arc_dsc(obj, LV_PART_INDICATOR, &arc_dsc);
 888              		.loc 1 720 9 view .LVU276
 889 0148 13A8     		add	r0, sp, #76
 890              	.LVL107:
 720:Middlewares/lvgl/src/widgets/lv_arc.c ****         lv_obj_init_draw_arc_dsc(obj, LV_PART_INDICATOR, &arc_dsc);
 891              		.loc 1 720 9 is_stmt 0 view .LVU277
 892 014a FFF7FEFF 		bl	lv_draw_arc_dsc_init
 893              	.LVL108:
 721:Middlewares/lvgl/src/widgets/lv_arc.c **** 
 894              		.loc 1 721 9 is_stmt 1 view .LVU278
 895 014e 13AA     		add	r2, sp, #76
 896 0150 4FF40031 		mov	r1, #131072
 897 0154 2046     		mov	r0, r4
 898 0156 FFF7FEFF 		bl	lv_obj_init_draw_arc_dsc
 899              	.LVL109:
 723:Middlewares/lvgl/src/widgets/lv_arc.c ****         obj_draw_dsc.p1 = &center;
 900              		.loc 1 723 9 view .LVU279
 723:Middlewares/lvgl/src/widgets/lv_arc.c ****         obj_draw_dsc.p1 = &center;
 901              		.loc 1 723 27 is_stmt 0 view .LVU280
 902 015a 4FF40033 		mov	r3, #131072
 903 015e 2393     		str	r3, [sp, #140]
 724:Middlewares/lvgl/src/widgets/lv_arc.c ****         obj_draw_dsc.radius = indic_r;
 904              		.loc 1 724 9 is_stmt 1 view .LVU281
 724:Middlewares/lvgl/src/widgets/lv_arc.c ****         obj_draw_dsc.radius = indic_r;
 905              		.loc 1 724 25 is_stmt 0 view .LVU282
 906 0160 29AB     		add	r3, sp, #164
 907 0162 1D93     		str	r3, [sp, #116]
 725:Middlewares/lvgl/src/widgets/lv_arc.c ****         obj_draw_dsc.arc_dsc = &arc_dsc;
 908              		.loc 1 725 9 is_stmt 1 view .LVU283
 725:Middlewares/lvgl/src/widgets/lv_arc.c ****         obj_draw_dsc.arc_dsc = &arc_dsc;
 909              		.loc 1 725 29 is_stmt 0 view .LVU284
 910 0164 ADF89460 		strh	r6, [sp, #148]	@ movhi
 726:Middlewares/lvgl/src/widgets/lv_arc.c ****         lv_event_send(obj, LV_EVENT_DRAW_PART_BEGIN, &obj_draw_dsc);
 911              		.loc 1 726 9 is_stmt 1 view .LVU285
 726:Middlewares/lvgl/src/widgets/lv_arc.c ****         lv_event_send(obj, LV_EVENT_DRAW_PART_BEGIN, &obj_draw_dsc);
 912              		.loc 1 726 30 is_stmt 0 view .LVU286
ARM GAS  /tmp/ccZjziLX.s 			page 45


 913 0168 13AB     		add	r3, sp, #76
 914 016a 1C93     		str	r3, [sp, #112]
 727:Middlewares/lvgl/src/widgets/lv_arc.c **** 
 915              		.loc 1 727 9 is_stmt 1 view .LVU287
 916 016c 16AA     		add	r2, sp, #88
 917 016e 1A21     		movs	r1, #26
 918 0170 2046     		mov	r0, r4
 919 0172 FFF7FEFF 		bl	lv_event_send
 920              	.LVL110:
 729:Middlewares/lvgl/src/widgets/lv_arc.c ****                    arc->indic_angle_end + arc->rotation, clip_area,
 921              		.loc 1 729 9 view .LVU288
 729:Middlewares/lvgl/src/widgets/lv_arc.c ****                    arc->indic_angle_end + arc->rotation, clip_area,
 922              		.loc 1 729 53 is_stmt 0 view .LVU289
 923 0176 E38C     		ldrh	r3, [r4, #38]
 729:Middlewares/lvgl/src/widgets/lv_arc.c ****                    arc->indic_angle_end + arc->rotation, clip_area,
 924              		.loc 1 729 77 view .LVU290
 925 0178 A28C     		ldrh	r2, [r4, #36]
 730:Middlewares/lvgl/src/widgets/lv_arc.c ****                     &arc_dsc);
 926              		.loc 1 730 23 view .LVU291
 927 017a 218D     		ldrh	r1, [r4, #40]
 729:Middlewares/lvgl/src/widgets/lv_arc.c ****                    arc->indic_angle_end + arc->rotation, clip_area,
 928              		.loc 1 729 9 view .LVU292
 929 017c 1344     		add	r3, r3, r2
 930 017e 13A8     		add	r0, sp, #76
 931 0180 0290     		str	r0, [sp, #8]
 932 0182 0195     		str	r5, [sp, #4]
 933 0184 0A44     		add	r2, r2, r1
 934 0186 92B2     		uxth	r2, r2
 935 0188 0092     		str	r2, [sp]
 936 018a 9BB2     		uxth	r3, r3
 937 018c 3A46     		mov	r2, r7
 938 018e BDF9A610 		ldrsh	r1, [sp, #166]
 939 0192 BDF9A400 		ldrsh	r0, [sp, #164]
 940 0196 FFF7FEFF 		bl	lv_draw_arc
 941              	.LVL111:
 733:Middlewares/lvgl/src/widgets/lv_arc.c ****     }
 942              		.loc 1 733 9 is_stmt 1 view .LVU293
 943 019a 16AA     		add	r2, sp, #88
 944 019c 1B21     		movs	r1, #27
 945 019e 2046     		mov	r0, r4
 946 01a0 FFF7FEFF 		bl	lv_event_send
 947              	.LVL112:
 948 01a4 77E7     		b	.L22
 949              		.cfi_endproc
 950              	.LFE169:
 952              		.section	.text.lv_arc_constructor,"ax",%progbits
 953              		.align	1
 954              		.syntax unified
 955              		.thumb
 956              		.thumb_func
 958              	lv_arc_constructor:
 959              	.LVL113:
 960              	.LFB167:
 485:Middlewares/lvgl/src/widgets/lv_arc.c ****     LV_UNUSED(class_p);
 961              		.loc 1 485 1 view -0
 962              		.cfi_startproc
 963              		@ args = 0, pretend = 0, frame = 0
ARM GAS  /tmp/ccZjziLX.s 			page 46


 964              		@ frame_needed = 0, uses_anonymous_args = 0
 485:Middlewares/lvgl/src/widgets/lv_arc.c ****     LV_UNUSED(class_p);
 965              		.loc 1 485 1 is_stmt 0 view .LVU295
 966 0000 10B5     		push	{r4, lr}
 967              	.LCFI12:
 968              		.cfi_def_cfa_offset 8
 969              		.cfi_offset 4, -8
 970              		.cfi_offset 14, -4
 971 0002 0C46     		mov	r4, r1
 486:Middlewares/lvgl/src/widgets/lv_arc.c ****     LV_TRACE_OBJ_CREATE("begin");
 972              		.loc 1 486 5 is_stmt 1 view .LVU296
 487:Middlewares/lvgl/src/widgets/lv_arc.c **** 
 973              		.loc 1 487 33 view .LVU297
 489:Middlewares/lvgl/src/widgets/lv_arc.c **** 
 974              		.loc 1 489 5 view .LVU298
 975              	.LVL114:
 492:Middlewares/lvgl/src/widgets/lv_arc.c ****    arc->bg_angle_start = 135;
 976              		.loc 1 492 4 view .LVU299
 492:Middlewares/lvgl/src/widgets/lv_arc.c ****    arc->bg_angle_start = 135;
 977              		.loc 1 492 18 is_stmt 0 view .LVU300
 978 0004 0023     		movs	r3, #0
 979 0006 8B84     		strh	r3, [r1, #36]	@ movhi
 493:Middlewares/lvgl/src/widgets/lv_arc.c ****    arc->bg_angle_end   = 45;
 980              		.loc 1 493 4 is_stmt 1 view .LVU301
 493:Middlewares/lvgl/src/widgets/lv_arc.c ****    arc->bg_angle_end   = 45;
 981              		.loc 1 493 24 is_stmt 0 view .LVU302
 982 0008 8722     		movs	r2, #135
 983 000a 4A85     		strh	r2, [r1, #42]	@ movhi
 494:Middlewares/lvgl/src/widgets/lv_arc.c ****    arc->indic_angle_start = 135;
 984              		.loc 1 494 4 is_stmt 1 view .LVU303
 494:Middlewares/lvgl/src/widgets/lv_arc.c ****    arc->indic_angle_start = 135;
 985              		.loc 1 494 24 is_stmt 0 view .LVU304
 986 000c 2D21     		movs	r1, #45
 987              	.LVL115:
 494:Middlewares/lvgl/src/widgets/lv_arc.c ****    arc->indic_angle_start = 135;
 988              		.loc 1 494 24 view .LVU305
 989 000e A185     		strh	r1, [r4, #44]	@ movhi
 495:Middlewares/lvgl/src/widgets/lv_arc.c ****    arc->indic_angle_end   = 270;
 990              		.loc 1 495 4 is_stmt 1 view .LVU306
 495:Middlewares/lvgl/src/widgets/lv_arc.c ****    arc->indic_angle_end   = 270;
 991              		.loc 1 495 27 is_stmt 0 view .LVU307
 992 0010 E284     		strh	r2, [r4, #38]	@ movhi
 496:Middlewares/lvgl/src/widgets/lv_arc.c ****    arc->type = LV_ARC_MODE_NORMAL;
 993              		.loc 1 496 4 is_stmt 1 view .LVU308
 496:Middlewares/lvgl/src/widgets/lv_arc.c ****    arc->type = LV_ARC_MODE_NORMAL;
 994              		.loc 1 496 27 is_stmt 0 view .LVU309
 995 0012 4FF48772 		mov	r2, #270
 996 0016 2285     		strh	r2, [r4, #40]	@ movhi
 497:Middlewares/lvgl/src/widgets/lv_arc.c ****    arc->value = VALUE_UNSET;
 997              		.loc 1 497 4 is_stmt 1 view .LVU310
 497:Middlewares/lvgl/src/widgets/lv_arc.c ****    arc->value = VALUE_UNSET;
 998              		.loc 1 497 14 is_stmt 0 view .LVU311
 999 0018 94F83420 		ldrb	r2, [r4, #52]	@ zero_extendqisi2
 1000 001c 63F34202 		bfi	r2, r3, #1, #2
 1001 0020 84F83420 		strb	r2, [r4, #52]
 498:Middlewares/lvgl/src/widgets/lv_arc.c ****    arc->min_close = 1;
 1002              		.loc 1 498 4 is_stmt 1 view .LVU312
ARM GAS  /tmp/ccZjziLX.s 			page 47


 498:Middlewares/lvgl/src/widgets/lv_arc.c ****    arc->min_close = 1;
 1003              		.loc 1 498 15 is_stmt 0 view .LVU313
 1004 0024 4FF40042 		mov	r2, #32768
 1005 0028 E285     		strh	r2, [r4, #46]	@ movhi
 499:Middlewares/lvgl/src/widgets/lv_arc.c ****    arc->min_value = 0;
 1006              		.loc 1 499 4 is_stmt 1 view .LVU314
 499:Middlewares/lvgl/src/widgets/lv_arc.c ****    arc->min_value = 0;
 1007              		.loc 1 499 19 is_stmt 0 view .LVU315
 1008 002a 94F83420 		ldrb	r2, [r4, #52]	@ zero_extendqisi2
 1009 002e 42F00802 		orr	r2, r2, #8
 1010 0032 84F83420 		strb	r2, [r4, #52]
 500:Middlewares/lvgl/src/widgets/lv_arc.c ****    arc->max_value = 100;
 1011              		.loc 1 500 4 is_stmt 1 view .LVU316
 500:Middlewares/lvgl/src/widgets/lv_arc.c ****    arc->max_value = 100;
 1012              		.loc 1 500 19 is_stmt 0 view .LVU317
 1013 0036 2386     		strh	r3, [r4, #48]	@ movhi
 501:Middlewares/lvgl/src/widgets/lv_arc.c ****    arc->dragging = false;
 1014              		.loc 1 501 4 is_stmt 1 view .LVU318
 501:Middlewares/lvgl/src/widgets/lv_arc.c ****    arc->dragging = false;
 1015              		.loc 1 501 19 is_stmt 0 view .LVU319
 1016 0038 6422     		movs	r2, #100
 1017 003a 6286     		strh	r2, [r4, #50]	@ movhi
 502:Middlewares/lvgl/src/widgets/lv_arc.c ****    arc->chg_rate = 720;
 1018              		.loc 1 502 4 is_stmt 1 view .LVU320
 502:Middlewares/lvgl/src/widgets/lv_arc.c ****    arc->chg_rate = 720;
 1019              		.loc 1 502 18 is_stmt 0 view .LVU321
 1020 003c 94F83420 		ldrb	r2, [r4, #52]	@ zero_extendqisi2
 1021 0040 63F30002 		bfi	r2, r3, #0, #1
 1022 0044 84F83420 		strb	r2, [r4, #52]
 503:Middlewares/lvgl/src/widgets/lv_arc.c ****    arc->last_tick = lv_tick_get();
 1023              		.loc 1 503 4 is_stmt 1 view .LVU322
 503:Middlewares/lvgl/src/widgets/lv_arc.c ****    arc->last_tick = lv_tick_get();
 1024              		.loc 1 503 18 is_stmt 0 view .LVU323
 1025 0048 4FF43473 		mov	r3, #720
 1026 004c E386     		strh	r3, [r4, #54]	@ movhi
 504:Middlewares/lvgl/src/widgets/lv_arc.c ****    arc->last_angle =arc->indic_angle_end;
 1027              		.loc 1 504 4 is_stmt 1 view .LVU324
 504:Middlewares/lvgl/src/widgets/lv_arc.c ****    arc->last_angle =arc->indic_angle_end;
 1028              		.loc 1 504 21 is_stmt 0 view .LVU325
 1029 004e FFF7FEFF 		bl	lv_tick_get
 1030              	.LVL116:
 504:Middlewares/lvgl/src/widgets/lv_arc.c ****    arc->last_angle =arc->indic_angle_end;
 1031              		.loc 1 504 19 view .LVU326
 1032 0052 A063     		str	r0, [r4, #56]
 505:Middlewares/lvgl/src/widgets/lv_arc.c **** 
 1033              		.loc 1 505 4 is_stmt 1 view .LVU327
 505:Middlewares/lvgl/src/widgets/lv_arc.c **** 
 1034              		.loc 1 505 24 is_stmt 0 view .LVU328
 1035 0054 B4F92830 		ldrsh	r3, [r4, #40]
 505:Middlewares/lvgl/src/widgets/lv_arc.c **** 
 1036              		.loc 1 505 20 view .LVU329
 1037 0058 A387     		strh	r3, [r4, #60]	@ movhi
 507:Middlewares/lvgl/src/widgets/lv_arc.c ****    lv_obj_set_ext_click_area(obj, LV_DPI_DEF / 10);
 1038              		.loc 1 507 4 is_stmt 1 view .LVU330
 1039 005a 0221     		movs	r1, #2
 1040 005c 2046     		mov	r0, r4
 1041 005e FFF7FEFF 		bl	lv_obj_add_flag
ARM GAS  /tmp/ccZjziLX.s 			page 48


 1042              	.LVL117:
 508:Middlewares/lvgl/src/widgets/lv_arc.c **** 
 1043              		.loc 1 508 4 view .LVU331
 1044 0062 0D21     		movs	r1, #13
 1045 0064 2046     		mov	r0, r4
 1046 0066 FFF7FEFF 		bl	lv_obj_set_ext_click_area
 1047              	.LVL118:
 511:Middlewares/lvgl/src/widgets/lv_arc.c **** }
 1048              		.loc 1 511 36 view .LVU332
 512:Middlewares/lvgl/src/widgets/lv_arc.c **** 
 1049              		.loc 1 512 1 is_stmt 0 view .LVU333
 1050 006a 10BD     		pop	{r4, pc}
 512:Middlewares/lvgl/src/widgets/lv_arc.c **** 
 1051              		.loc 1 512 1 view .LVU334
 1052              		.cfi_endproc
 1053              	.LFE167:
 1055              		.section	.text.inv_arc_area,"ax",%progbits
 1056              		.align	1
 1057              		.syntax unified
 1058              		.thumb
 1059              		.thumb_func
 1061              	inv_arc_area:
 1062              	.LVL119:
 1063              	.LFB170:
 754:Middlewares/lvgl/src/widgets/lv_arc.c ****     LV_ASSERT_OBJ(obj, MY_CLASS);
 1064              		.loc 1 754 1 is_stmt 1 view -0
 1065              		.cfi_startproc
 1066              		@ args = 0, pretend = 0, frame = 40
 1067              		@ frame_needed = 0, uses_anonymous_args = 0
 754:Middlewares/lvgl/src/widgets/lv_arc.c ****     LV_ASSERT_OBJ(obj, MY_CLASS);
 1068              		.loc 1 754 1 is_stmt 0 view .LVU336
 1069 0000 2DE9F04F 		push	{r4, r5, r6, r7, r8, r9, r10, fp, lr}
 1070              	.LCFI13:
 1071              		.cfi_def_cfa_offset 36
 1072              		.cfi_offset 4, -36
 1073              		.cfi_offset 5, -32
 1074              		.cfi_offset 6, -28
 1075              		.cfi_offset 7, -24
 1076              		.cfi_offset 8, -20
 1077              		.cfi_offset 9, -16
 1078              		.cfi_offset 10, -12
 1079              		.cfi_offset 11, -8
 1080              		.cfi_offset 14, -4
 1081 0004 8BB0     		sub	sp, sp, #44
 1082              	.LCFI14:
 1083              		.cfi_def_cfa_offset 80
 1084 0006 0446     		mov	r4, r0
 1085 0008 0E46     		mov	r6, r1
 1086 000a 1746     		mov	r7, r2
 1087 000c 0293     		str	r3, [sp, #8]
 755:Middlewares/lvgl/src/widgets/lv_arc.c ****     lv_arc_t * arc = (lv_arc_t *)obj;
 1088              		.loc 1 755 5 is_stmt 1 view .LVU337
 755:Middlewares/lvgl/src/widgets/lv_arc.c ****     lv_arc_t * arc = (lv_arc_t *)obj;
 1089              		.loc 1 755 5 view .LVU338
 755:Middlewares/lvgl/src/widgets/lv_arc.c ****     lv_arc_t * arc = (lv_arc_t *)obj;
 1090              		.loc 1 755 5 view .LVU339
 756:Middlewares/lvgl/src/widgets/lv_arc.c **** 
ARM GAS  /tmp/ccZjziLX.s 			page 49


 1091              		.loc 1 756 5 view .LVU340
 1092              	.LVL120:
 759:Middlewares/lvgl/src/widgets/lv_arc.c **** 
 1093              		.loc 1 759 5 view .LVU341
 759:Middlewares/lvgl/src/widgets/lv_arc.c **** 
 1094              		.loc 1 759 8 is_stmt 0 view .LVU342
 1095 000e FFF7FEFF 		bl	lv_obj_is_visible
 1096              	.LVL121:
 759:Middlewares/lvgl/src/widgets/lv_arc.c **** 
 1097              		.loc 1 759 7 view .LVU343
 1098 0012 0028     		cmp	r0, #0
 1099 0014 00F0A380 		beq	.L28
 761:Middlewares/lvgl/src/widgets/lv_arc.c ****     end_angle +=arc->rotation;
 1100              		.loc 1 761 5 is_stmt 1 view .LVU344
 761:Middlewares/lvgl/src/widgets/lv_arc.c ****     end_angle +=arc->rotation;
 1101              		.loc 1 761 22 is_stmt 0 view .LVU345
 1102 0018 A08C     		ldrh	r0, [r4, #36]
 761:Middlewares/lvgl/src/widgets/lv_arc.c ****     end_angle +=arc->rotation;
 1103              		.loc 1 761 17 view .LVU346
 1104 001a 8119     		adds	r1, r0, r6
 1105 001c 8BB2     		uxth	r3, r1
 1106 001e 0093     		str	r3, [sp]
 1107              	.LVL122:
 762:Middlewares/lvgl/src/widgets/lv_arc.c **** 
 1108              		.loc 1 762 5 is_stmt 1 view .LVU347
 762:Middlewares/lvgl/src/widgets/lv_arc.c **** 
 1109              		.loc 1 762 15 is_stmt 0 view .LVU348
 1110 0020 3844     		add	r0, r0, r7
 1111 0022 85B2     		uxth	r5, r0
 1112              	.LVL123:
 764:Middlewares/lvgl/src/widgets/lv_arc.c ****     if(end_angle >= 360) end_angle -= 360;
 1113              		.loc 1 764 5 is_stmt 1 view .LVU349
 764:Middlewares/lvgl/src/widgets/lv_arc.c ****     if(end_angle >= 360) end_angle -= 360;
 1114              		.loc 1 764 7 is_stmt 0 view .LVU350
 1115 0024 B3F5B47F 		cmp	r3, #360
 1116 0028 03D3     		bcc	.L31
 764:Middlewares/lvgl/src/widgets/lv_arc.c ****     if(end_angle >= 360) end_angle -= 360;
 1117              		.loc 1 764 28 is_stmt 1 discriminator 1 view .LVU351
 764:Middlewares/lvgl/src/widgets/lv_arc.c ****     if(end_angle >= 360) end_angle -= 360;
 1118              		.loc 1 764 40 is_stmt 0 discriminator 1 view .LVU352
 1119 002a A3F5B470 		sub	r0, r3, #360
 1120 002e 83B2     		uxth	r3, r0
 1121              	.LVL124:
 764:Middlewares/lvgl/src/widgets/lv_arc.c ****     if(end_angle >= 360) end_angle -= 360;
 1122              		.loc 1 764 40 discriminator 1 view .LVU353
 1123 0030 0093     		str	r3, [sp]
 1124              	.LVL125:
 1125              	.L31:
 765:Middlewares/lvgl/src/widgets/lv_arc.c **** 
 1126              		.loc 1 765 5 is_stmt 1 view .LVU354
 765:Middlewares/lvgl/src/widgets/lv_arc.c **** 
 1127              		.loc 1 765 7 is_stmt 0 view .LVU355
 1128 0032 B5F5B47F 		cmp	r5, #360
 1129 0036 02D3     		bcc	.L32
 765:Middlewares/lvgl/src/widgets/lv_arc.c **** 
 1130              		.loc 1 765 26 is_stmt 1 discriminator 1 view .LVU356
 765:Middlewares/lvgl/src/widgets/lv_arc.c **** 
ARM GAS  /tmp/ccZjziLX.s 			page 50


 1131              		.loc 1 765 36 is_stmt 0 discriminator 1 view .LVU357
 1132 0038 A5F5B470 		sub	r0, r5, #360
 1133 003c 85B2     		uxth	r5, r0
 1134              	.LVL126:
 1135              	.L32:
 767:Middlewares/lvgl/src/widgets/lv_arc.c ****     uint8_t end_quarter = end_angle / 90;
 1136              		.loc 1 767 5 is_stmt 1 view .LVU358
 767:Middlewares/lvgl/src/widgets/lv_arc.c ****     uint8_t end_quarter = end_angle / 90;
 1137              		.loc 1 767 13 is_stmt 0 view .LVU359
 1138 003e 009B     		ldr	r3, [sp]
 1139 0040 5A08     		lsrs	r2, r3, #1
 1140 0042 CD49     		ldr	r1, .L71
 1141 0044 A1FB0232 		umull	r3, r2, r1, r2
 1142 0048 C2F34713 		ubfx	r3, r2, #5, #8
 1143 004c 0193     		str	r3, [sp, #4]
 1144              	.LVL127:
 768:Middlewares/lvgl/src/widgets/lv_arc.c **** 
 1145              		.loc 1 768 5 is_stmt 1 view .LVU360
 768:Middlewares/lvgl/src/widgets/lv_arc.c **** 
 1146              		.loc 1 768 13 is_stmt 0 view .LVU361
 1147 004e 6B08     		lsrs	r3, r5, #1
 1148 0050 A1FB0323 		umull	r2, r3, r1, r3
 1149 0054 C3F34713 		ubfx	r3, r3, #5, #8
 1150 0058 0393     		str	r3, [sp, #12]
 1151              	.LVL128:
 770:Middlewares/lvgl/src/widgets/lv_arc.c ****     lv_coord_t right = lv_obj_get_style_pad_right(obj, LV_PART_MAIN);
 1152              		.loc 1 770 5 is_stmt 1 view .LVU362
 1153              	.LBB105:
 1154              	.LBI105:
 103:Middlewares/lvgl/src/widgets/../core/lv_obj_style_gen.h **** {
 1155              		.loc 2 103 26 view .LVU363
 1156              	.LBB106:
 105:Middlewares/lvgl/src/widgets/../core/lv_obj_style_gen.h ****     return (lv_coord_t)v.num;
 1157              		.loc 2 105 5 view .LVU364
 105:Middlewares/lvgl/src/widgets/../core/lv_obj_style_gen.h ****     return (lv_coord_t)v.num;
 1158              		.loc 2 105 26 is_stmt 0 view .LVU365
 1159 005a 41F21202 		movw	r2, #4114
 1160 005e 0021     		movs	r1, #0
 1161 0060 2046     		mov	r0, r4
 1162 0062 FFF7FEFF 		bl	lv_obj_get_style_prop
 1163              	.LVL129:
 1164 0066 0746     		mov	r7, r0
 106:Middlewares/lvgl/src/widgets/../core/lv_obj_style_gen.h **** }
 1165              		.loc 2 106 5 is_stmt 1 view .LVU366
 106:Middlewares/lvgl/src/widgets/../core/lv_obj_style_gen.h **** }
 1166              		.loc 2 106 12 is_stmt 0 view .LVU367
 1167 0068 0FFA80FB 		sxth	fp, r0
 1168              	.LVL130:
 106:Middlewares/lvgl/src/widgets/../core/lv_obj_style_gen.h **** }
 1169              		.loc 2 106 12 view .LVU368
 1170              	.LBE106:
 1171              	.LBE105:
 771:Middlewares/lvgl/src/widgets/lv_arc.c ****     lv_coord_t top = lv_obj_get_style_pad_top(obj, LV_PART_MAIN);
 1172              		.loc 1 771 5 is_stmt 1 view .LVU369
 1173              	.LBB107:
 1174              	.LBI107:
 109:Middlewares/lvgl/src/widgets/../core/lv_obj_style_gen.h **** {
ARM GAS  /tmp/ccZjziLX.s 			page 51


 1175              		.loc 2 109 26 view .LVU370
 1176              	.LBB108:
 111:Middlewares/lvgl/src/widgets/../core/lv_obj_style_gen.h ****     return (lv_coord_t)v.num;
 1177              		.loc 2 111 5 view .LVU371
 111:Middlewares/lvgl/src/widgets/../core/lv_obj_style_gen.h ****     return (lv_coord_t)v.num;
 1178              		.loc 2 111 26 is_stmt 0 view .LVU372
 1179 006c 41F21302 		movw	r2, #4115
 1180 0070 0021     		movs	r1, #0
 1181 0072 2046     		mov	r0, r4
 1182 0074 FFF7FEFF 		bl	lv_obj_get_style_prop
 1183              	.LVL131:
 112:Middlewares/lvgl/src/widgets/../core/lv_obj_style_gen.h **** }
 1184              		.loc 2 112 5 is_stmt 1 view .LVU373
 112:Middlewares/lvgl/src/widgets/../core/lv_obj_style_gen.h **** }
 1185              		.loc 2 112 12 is_stmt 0 view .LVU374
 1186 0078 0FFA80F9 		sxth	r9, r0
 1187              	.LVL132:
 112:Middlewares/lvgl/src/widgets/../core/lv_obj_style_gen.h **** }
 1188              		.loc 2 112 12 view .LVU375
 1189              	.LBE108:
 1190              	.LBE107:
 772:Middlewares/lvgl/src/widgets/lv_arc.c ****     lv_coord_t bottom = lv_obj_get_style_pad_bottom(obj, LV_PART_MAIN);
 1191              		.loc 1 772 5 is_stmt 1 view .LVU376
 1192              	.LBB109:
 1193              	.LBI109:
  91:Middlewares/lvgl/src/widgets/../core/lv_obj_style_gen.h **** {
 1194              		.loc 2 91 26 view .LVU377
 1195              	.LBB110:
  93:Middlewares/lvgl/src/widgets/../core/lv_obj_style_gen.h ****     return (lv_coord_t)v.num;
 1196              		.loc 2 93 5 view .LVU378
  93:Middlewares/lvgl/src/widgets/../core/lv_obj_style_gen.h ****     return (lv_coord_t)v.num;
 1197              		.loc 2 93 26 is_stmt 0 view .LVU379
 1198 007c 41F21002 		movw	r2, #4112
 1199 0080 0021     		movs	r1, #0
 1200 0082 2046     		mov	r0, r4
 1201 0084 FFF7FEFF 		bl	lv_obj_get_style_prop
 1202              	.LVL133:
 1203 0088 0490     		str	r0, [sp, #16]
  94:Middlewares/lvgl/src/widgets/../core/lv_obj_style_gen.h **** }
 1204              		.loc 2 94 5 is_stmt 1 view .LVU380
  94:Middlewares/lvgl/src/widgets/../core/lv_obj_style_gen.h **** }
 1205              		.loc 2 94 12 is_stmt 0 view .LVU381
 1206 008a 0FFA80FA 		sxth	r10, r0
 1207              	.LVL134:
  94:Middlewares/lvgl/src/widgets/../core/lv_obj_style_gen.h **** }
 1208              		.loc 2 94 12 view .LVU382
 1209              	.LBE110:
 1210              	.LBE109:
 773:Middlewares/lvgl/src/widgets/lv_arc.c ****     lv_coord_t rout       = (LV_MIN(lv_obj_get_width(obj) - left - right, lv_obj_get_height(obj) - 
 1211              		.loc 1 773 5 is_stmt 1 view .LVU383
 1212              	.LBB111:
 1213              	.LBI111:
  97:Middlewares/lvgl/src/widgets/../core/lv_obj_style_gen.h **** {
 1214              		.loc 2 97 26 view .LVU384
 1215              	.LBB112:
  99:Middlewares/lvgl/src/widgets/../core/lv_obj_style_gen.h ****     return (lv_coord_t)v.num;
 1216              		.loc 2 99 5 view .LVU385
ARM GAS  /tmp/ccZjziLX.s 			page 52


  99:Middlewares/lvgl/src/widgets/../core/lv_obj_style_gen.h ****     return (lv_coord_t)v.num;
 1217              		.loc 2 99 26 is_stmt 0 view .LVU386
 1218 008e 41F21102 		movw	r2, #4113
 1219 0092 0021     		movs	r1, #0
 1220 0094 2046     		mov	r0, r4
 1221 0096 FFF7FEFF 		bl	lv_obj_get_style_prop
 1222              	.LVL135:
 100:Middlewares/lvgl/src/widgets/../core/lv_obj_style_gen.h **** }
 1223              		.loc 2 100 5 is_stmt 1 view .LVU387
 100:Middlewares/lvgl/src/widgets/../core/lv_obj_style_gen.h **** }
 1224              		.loc 2 100 12 is_stmt 0 view .LVU388
 1225 009a 0FFA80F8 		sxth	r8, r0
 1226              	.LVL136:
 100:Middlewares/lvgl/src/widgets/../core/lv_obj_style_gen.h **** }
 1227              		.loc 2 100 12 view .LVU389
 1228              	.LBE112:
 1229              	.LBE111:
 774:Middlewares/lvgl/src/widgets/lv_arc.c ****     lv_coord_t x       = obj->coords.x1 + rout + left;
 1230              		.loc 1 774 5 is_stmt 1 view .LVU390
 774:Middlewares/lvgl/src/widgets/lv_arc.c ****     lv_coord_t x       = obj->coords.x1 + rout + left;
 1231              		.loc 1 774 30 is_stmt 0 view .LVU391
 1232 009e 2046     		mov	r0, r4
 1233 00a0 FFF7FEFF 		bl	lv_obj_get_width
 1234              	.LVL137:
 1235 00a4 A0EB0B06 		sub	r6, r0, fp
 1236 00a8 A6EB0906 		sub	r6, r6, r9
 1237 00ac 2046     		mov	r0, r4
 1238 00ae FFF7FEFF 		bl	lv_obj_get_height
 1239              	.LVL138:
 1240 00b2 A0EB0A00 		sub	r0, r0, r10
 1241 00b6 A0EB0800 		sub	r0, r0, r8
 774:Middlewares/lvgl/src/widgets/lv_arc.c ****     lv_coord_t x       = obj->coords.x1 + rout + left;
 1242              		.loc 1 774 16 view .LVU392
 1243 00ba 8642     		cmp	r6, r0
 1244 00bc 55DA     		bge	.L33
 774:Middlewares/lvgl/src/widgets/lv_arc.c ****     lv_coord_t x       = obj->coords.x1 + rout + left;
 1245              		.loc 1 774 30 discriminator 1 view .LVU393
 1246 00be 2046     		mov	r0, r4
 1247 00c0 FFF7FEFF 		bl	lv_obj_get_width
 1248              	.LVL139:
 1249 00c4 A0EB0B0B 		sub	fp, r0, fp
 1250              	.LVL140:
 774:Middlewares/lvgl/src/widgets/lv_arc.c ****     lv_coord_t x       = obj->coords.x1 + rout + left;
 1251              		.loc 1 774 115 discriminator 1 view .LVU394
 1252 00c8 BBEB0909 		subs	r9, fp, r9
 1253              	.LVL141:
 774:Middlewares/lvgl/src/widgets/lv_arc.c ****     lv_coord_t x       = obj->coords.x1 + rout + left;
 1254              		.loc 1 774 115 discriminator 1 view .LVU395
 1255 00cc 4AD4     		bmi	.L59
 1256              	.L34:
 774:Middlewares/lvgl/src/widgets/lv_arc.c ****     lv_coord_t x       = obj->coords.x1 + rout + left;
 1257              		.loc 1 774 16 discriminator 1 view .LVU396
 1258 00ce 49F34F09 		sbfx	r9, r9, #1, #16
 1259              	.LVL142:
 1260              	.L35:
 775:Middlewares/lvgl/src/widgets/lv_arc.c ****     lv_coord_t y       = obj->coords.y1 + rout + top;
 1261              		.loc 1 775 5 is_stmt 1 discriminator 4 view .LVU397
ARM GAS  /tmp/ccZjziLX.s 			page 53


 775:Middlewares/lvgl/src/widgets/lv_arc.c ****     lv_coord_t y       = obj->coords.y1 + rout + top;
 1262              		.loc 1 775 37 is_stmt 0 discriminator 4 view .LVU398
 1263 00d2 B4F814B0 		ldrh	fp, [r4, #20]
 775:Middlewares/lvgl/src/widgets/lv_arc.c ****     lv_coord_t y       = obj->coords.y1 + rout + top;
 1264              		.loc 1 775 41 discriminator 4 view .LVU399
 1265 00d6 1FFA89F6 		uxth	r6, r9
 1266 00da B344     		add	fp, fp, r6
 775:Middlewares/lvgl/src/widgets/lv_arc.c ****     lv_coord_t y       = obj->coords.y1 + rout + top;
 1267              		.loc 1 775 48 discriminator 4 view .LVU400
 1268 00dc 17FA8BF7 		uxtah	r7, r7, fp
 1269 00e0 1FFA87FB 		uxth	fp, r7
 1270              	.LVL143:
 776:Middlewares/lvgl/src/widgets/lv_arc.c ****     lv_coord_t w = lv_obj_get_style_arc_width(obj, part);
 1271              		.loc 1 776 5 is_stmt 1 discriminator 4 view .LVU401
 776:Middlewares/lvgl/src/widgets/lv_arc.c ****     lv_coord_t w = lv_obj_get_style_arc_width(obj, part);
 1272              		.loc 1 776 37 is_stmt 0 discriminator 4 view .LVU402
 1273 00e4 E08A     		ldrh	r0, [r4, #22]
 776:Middlewares/lvgl/src/widgets/lv_arc.c ****     lv_coord_t w = lv_obj_get_style_arc_width(obj, part);
 1274              		.loc 1 776 41 discriminator 4 view .LVU403
 1275 00e6 3044     		add	r0, r0, r6
 776:Middlewares/lvgl/src/widgets/lv_arc.c ****     lv_coord_t w = lv_obj_get_style_arc_width(obj, part);
 1276              		.loc 1 776 48 discriminator 4 view .LVU404
 1277 00e8 049B     		ldr	r3, [sp, #16]
 1278 00ea 13FA80F0 		uxtah	r0, r3, r0
 1279 00ee 83B2     		uxth	r3, r0
 1280 00f0 0493     		str	r3, [sp, #16]
 1281              	.LVL144:
 777:Middlewares/lvgl/src/widgets/lv_arc.c ****     lv_coord_t rounded = lv_obj_get_style_arc_rounded(obj, part);
 1282              		.loc 1 777 5 is_stmt 1 discriminator 4 view .LVU405
 1283              	.LBB113:
 1284              	.LBI113:
 499:Middlewares/lvgl/src/widgets/../core/lv_obj_style_gen.h **** {
 1285              		.loc 2 499 26 discriminator 4 view .LVU406
 1286              	.LBB114:
 501:Middlewares/lvgl/src/widgets/../core/lv_obj_style_gen.h ****     return (lv_coord_t)v.num;
 1287              		.loc 2 501 5 discriminator 4 view .LVU407
 501:Middlewares/lvgl/src/widgets/../core/lv_obj_style_gen.h ****     return (lv_coord_t)v.num;
 1288              		.loc 2 501 26 is_stmt 0 discriminator 4 view .LVU408
 1289 00f2 4FF40562 		mov	r2, #2128
 1290 00f6 029F     		ldr	r7, [sp, #8]
 1291 00f8 3946     		mov	r1, r7
 1292 00fa 2046     		mov	r0, r4
 1293 00fc FFF7FEFF 		bl	lv_obj_get_style_prop
 1294              	.LVL145:
 1295 0100 8046     		mov	r8, r0
 1296              	.LVL146:
 1297              		.loc 2 502 5 is_stmt 1 discriminator 4 view .LVU409
 1298              		.loc 2 502 12 is_stmt 0 discriminator 4 view .LVU410
 1299 0102 0FFA80FA 		sxth	r10, r0
 1300              	.LVL147:
 1301              		.loc 2 502 12 discriminator 4 view .LVU411
 1302              	.LBE114:
 1303              	.LBE113:
 778:Middlewares/lvgl/src/widgets/lv_arc.c ****     lv_coord_t rin       = rout - w;
 1304              		.loc 1 778 5 is_stmt 1 discriminator 4 view .LVU412
 1305              	.LBB115:
 1306              	.LBI115:
ARM GAS  /tmp/ccZjziLX.s 			page 54


 503:Middlewares/lvgl/src/widgets/../core/lv_obj_style_gen.h **** }
 504:Middlewares/lvgl/src/widgets/../core/lv_obj_style_gen.h **** 
 505:Middlewares/lvgl/src/widgets/../core/lv_obj_style_gen.h **** static inline lv_coord_t lv_obj_get_style_arc_rounded(const struct _lv_obj_t * obj, uint32_t part)
 1307              		.loc 2 505 26 discriminator 4 view .LVU413
 1308              	.LBB116:
 506:Middlewares/lvgl/src/widgets/../core/lv_obj_style_gen.h **** {
 507:Middlewares/lvgl/src/widgets/../core/lv_obj_style_gen.h ****     lv_style_value_t v = lv_obj_get_style_prop(obj, part, LV_STYLE_ARC_ROUNDED);
 1309              		.loc 2 507 5 discriminator 4 view .LVU414
 1310              		.loc 2 507 26 is_stmt 0 discriminator 4 view .LVU415
 1311 0106 5122     		movs	r2, #81
 1312 0108 3946     		mov	r1, r7
 1313 010a 2046     		mov	r0, r4
 1314              		.loc 2 507 26 discriminator 4 view .LVU416
 1315 010c FFF7FEFF 		bl	lv_obj_get_style_prop
 1316              	.LVL148:
 508:Middlewares/lvgl/src/widgets/../core/lv_obj_style_gen.h ****     return (lv_coord_t)v.num;
 1317              		.loc 2 508 5 is_stmt 1 discriminator 4 view .LVU417
 1318              		.loc 2 508 12 is_stmt 0 discriminator 4 view .LVU418
 1319 0110 07B2     		sxth	r7, r0
 1320              	.LVL149:
 1321              		.loc 2 508 12 discriminator 4 view .LVU419
 1322              	.LBE116:
 1323              	.LBE115:
 779:Middlewares/lvgl/src/widgets/lv_arc.c ****     lv_coord_t extra_area = 0;
 1324              		.loc 1 779 5 is_stmt 1 discriminator 4 view .LVU420
 779:Middlewares/lvgl/src/widgets/lv_arc.c ****     lv_coord_t extra_area = 0;
 1325              		.loc 1 779 33 is_stmt 0 discriminator 4 view .LVU421
 1326 0112 A6EB0808 		sub	r8, r6, r8
 1327              	.LVL150:
 779:Middlewares/lvgl/src/widgets/lv_arc.c ****     lv_coord_t extra_area = 0;
 1328              		.loc 1 779 16 discriminator 4 view .LVU422
 1329 0116 0FFA88F8 		sxth	r8, r8
 1330              	.LVL151:
 780:Middlewares/lvgl/src/widgets/lv_arc.c **** 
 1331              		.loc 1 780 5 is_stmt 1 discriminator 4 view .LVU423
 782:Middlewares/lvgl/src/widgets/lv_arc.c **** 
 1332              		.loc 1 782 5 discriminator 4 view .LVU424
 782:Middlewares/lvgl/src/widgets/lv_arc.c **** 
 1333              		.loc 1 782 16 is_stmt 0 discriminator 4 view .LVU425
 1334 011a 37B1     		cbz	r7, .L37
 782:Middlewares/lvgl/src/widgets/lv_arc.c **** 
 1335              		.loc 1 782 34 discriminator 1 view .LVU426
 1336 011c 5746     		mov	r7, r10
 1337              	.LVL152:
 782:Middlewares/lvgl/src/widgets/lv_arc.c **** 
 1338              		.loc 1 782 34 discriminator 1 view .LVU427
 1339 011e BAF1000F 		cmp	r10, #0
 1340 0122 30DB     		blt	.L60
 1341              	.L38:
 1342 0124 7F10     		asrs	r7, r7, #1
 1343 0126 0237     		adds	r7, r7, #2
 782:Middlewares/lvgl/src/widgets/lv_arc.c **** 
 1344              		.loc 1 782 16 discriminator 1 view .LVU428
 1345 0128 3FB2     		sxth	r7, r7
 1346              	.L37:
 1347              	.LVL153:
 784:Middlewares/lvgl/src/widgets/lv_arc.c ****         lv_coord_t knob_extra_size = lv_obj_calculate_ext_draw_size(obj, LV_PART_KNOB);
ARM GAS  /tmp/ccZjziLX.s 			page 55


 1348              		.loc 1 784 5 is_stmt 1 discriminator 4 view .LVU429
 784:Middlewares/lvgl/src/widgets/lv_arc.c ****         lv_coord_t knob_extra_size = lv_obj_calculate_ext_draw_size(obj, LV_PART_KNOB);
 1349              		.loc 1 784 7 is_stmt 0 discriminator 4 view .LVU430
 1350 012a 029B     		ldr	r3, [sp, #8]
 1351 012c B3F5003F 		cmp	r3, #131072
 1352 0130 2CD0     		beq	.L61
 1353              	.LVL154:
 1354              	.L39:
 797:Middlewares/lvgl/src/widgets/lv_arc.c **** 
 1355              		.loc 1 797 5 is_stmt 1 view .LVU431
 799:Middlewares/lvgl/src/widgets/lv_arc.c ****         if(start_quarter == 0) {
 1356              		.loc 1 799 5 view .LVU432
 799:Middlewares/lvgl/src/widgets/lv_arc.c ****         if(start_quarter == 0) {
 1357              		.loc 1 799 7 is_stmt 0 view .LVU433
 1358 0132 019B     		ldr	r3, [sp, #4]
 1359 0134 039A     		ldr	r2, [sp, #12]
 1360 0136 0099     		ldr	r1, [sp]
 1361 0138 A942     		cmp	r1, r5
 1362 013a 98BF     		it	ls
 1363 013c 9342     		cmpls	r3, r2
 1364 013e 40F05581 		bne	.L41
 800:Middlewares/lvgl/src/widgets/lv_arc.c ****             inv_area.y1 = y + ((lv_trigo_sin(start_angle) * rin) >> LV_TRIGO_SHIFT) - extra_area;
 1365              		.loc 1 800 9 is_stmt 1 view .LVU434
 800:Middlewares/lvgl/src/widgets/lv_arc.c ****             inv_area.y1 = y + ((lv_trigo_sin(start_angle) * rin) >> LV_TRIGO_SHIFT) - extra_area;
 1366              		.loc 1 800 11 is_stmt 0 view .LVU435
 1367 0142 002B     		cmp	r3, #0
 1368 0144 6AD0     		beq	.L62
 809:Middlewares/lvgl/src/widgets/lv_arc.c ****             inv_area.y2 = y + ((lv_trigo_sin(start_angle) * rout) >> LV_TRIGO_SHIFT) + extra_area;
 1369              		.loc 1 809 14 is_stmt 1 view .LVU436
 809:Middlewares/lvgl/src/widgets/lv_arc.c ****             inv_area.y2 = y + ((lv_trigo_sin(start_angle) * rout) >> LV_TRIGO_SHIFT) + extra_area;
 1370              		.loc 1 809 16 is_stmt 0 view .LVU437
 1371 0146 019B     		ldr	r3, [sp, #4]
 1372 0148 012B     		cmp	r3, #1
 1373 014a 00F0A180 		beq	.L63
 818:Middlewares/lvgl/src/widgets/lv_arc.c ****             inv_area.x1 = x + ((lv_trigo_sin(start_angle + 90) * rout) >> LV_TRIGO_SHIFT) - extra_a
 1374              		.loc 1 818 14 is_stmt 1 view .LVU438
 818:Middlewares/lvgl/src/widgets/lv_arc.c ****             inv_area.x1 = x + ((lv_trigo_sin(start_angle + 90) * rout) >> LV_TRIGO_SHIFT) - extra_a
 1375              		.loc 1 818 16 is_stmt 0 view .LVU439
 1376 014e 019B     		ldr	r3, [sp, #4]
 1377 0150 022B     		cmp	r3, #2
 1378 0152 00F0D980 		beq	.L64
 827:Middlewares/lvgl/src/widgets/lv_arc.c ****             /*Small arc here*/
 1379              		.loc 1 827 14 is_stmt 1 view .LVU440
 827:Middlewares/lvgl/src/widgets/lv_arc.c ****             /*Small arc here*/
 1380              		.loc 1 827 16 is_stmt 0 view .LVU441
 1381 0156 019B     		ldr	r3, [sp, #4]
 1382 0158 032B     		cmp	r3, #3
 1383 015a 00F00F81 		beq	.L65
 1384              	.LVL155:
 1385              	.L28:
 874:Middlewares/lvgl/src/widgets/lv_arc.c **** 
 1386              		.loc 1 874 1 view .LVU442
 1387 015e 0BB0     		add	sp, sp, #44
 1388              	.LCFI15:
 1389              		.cfi_remember_state
 1390              		.cfi_def_cfa_offset 36
 1391              		@ sp needed
ARM GAS  /tmp/ccZjziLX.s 			page 56


 1392 0160 BDE8F08F 		pop	{r4, r5, r6, r7, r8, r9, r10, fp, pc}
 1393              	.LVL156:
 1394              	.L59:
 1395              	.LCFI16:
 1396              		.cfi_restore_state
 774:Middlewares/lvgl/src/widgets/lv_arc.c ****     lv_coord_t x       = obj->coords.x1 + rout + left;
 1397              		.loc 1 774 115 discriminator 1 view .LVU443
 1398 0164 09F10109 		add	r9, r9, #1
 1399 0168 B1E7     		b	.L34
 1400              	.LVL157:
 1401              	.L33:
 774:Middlewares/lvgl/src/widgets/lv_arc.c ****     lv_coord_t x       = obj->coords.x1 + rout + left;
 1402              		.loc 1 774 30 discriminator 2 view .LVU444
 1403 016a 2046     		mov	r0, r4
 1404 016c FFF7FEFF 		bl	lv_obj_get_height
 1405              	.LVL158:
 1406 0170 A0EB0A0A 		sub	r10, r0, r10
 1407              	.LVL159:
 774:Middlewares/lvgl/src/widgets/lv_arc.c ****     lv_coord_t x       = obj->coords.x1 + rout + left;
 1408              		.loc 1 774 115 discriminator 2 view .LVU445
 1409 0174 BAEB080A 		subs	r10, r10, r8
 1410 0178 02D4     		bmi	.L66
 1411              	.L36:
 774:Middlewares/lvgl/src/widgets/lv_arc.c ****     lv_coord_t x       = obj->coords.x1 + rout + left;
 1412              		.loc 1 774 16 discriminator 2 view .LVU446
 1413 017a 4AF34F09 		sbfx	r9, r10, #1, #16
 1414              	.LVL160:
 774:Middlewares/lvgl/src/widgets/lv_arc.c ****     lv_coord_t x       = obj->coords.x1 + rout + left;
 1415              		.loc 1 774 16 discriminator 2 view .LVU447
 1416 017e A8E7     		b	.L35
 1417              	.LVL161:
 1418              	.L66:
 774:Middlewares/lvgl/src/widgets/lv_arc.c ****     lv_coord_t x       = obj->coords.x1 + rout + left;
 1419              		.loc 1 774 115 discriminator 2 view .LVU448
 1420 0180 0AF1010A 		add	r10, r10, #1
 1421 0184 F9E7     		b	.L36
 1422              	.LVL162:
 1423              	.L60:
 782:Middlewares/lvgl/src/widgets/lv_arc.c **** 
 1424              		.loc 1 782 34 discriminator 1 view .LVU449
 1425 0186 0AF10107 		add	r7, r10, #1
 1426 018a CBE7     		b	.L38
 1427              	.LVL163:
 1428              	.L61:
 1429              	.LBB117:
 785:Middlewares/lvgl/src/widgets/lv_arc.c **** 
 1430              		.loc 1 785 9 is_stmt 1 view .LVU450
 785:Middlewares/lvgl/src/widgets/lv_arc.c **** 
 1431              		.loc 1 785 38 is_stmt 0 view .LVU451
 1432 018c 4FF44031 		mov	r1, #196608
 1433 0190 2046     		mov	r0, r4
 1434              	.LVL164:
 785:Middlewares/lvgl/src/widgets/lv_arc.c **** 
 1435              		.loc 1 785 38 view .LVU452
 1436 0192 FFF7FEFF 		bl	lv_obj_calculate_ext_draw_size
 1437              	.LVL165:
 1438 0196 0790     		str	r0, [sp, #28]
ARM GAS  /tmp/ccZjziLX.s 			page 57


 1439              	.LVL166:
 787:Middlewares/lvgl/src/widgets/lv_arc.c ****         lv_coord_t knob_right = lv_obj_get_style_pad_right(obj, LV_PART_KNOB);
 1440              		.loc 1 787 9 is_stmt 1 view .LVU453
 1441              	.LBB118:
 1442              	.LBI118:
 103:Middlewares/lvgl/src/widgets/../core/lv_obj_style_gen.h **** {
 1443              		.loc 2 103 26 view .LVU454
 1444              	.LBB119:
 105:Middlewares/lvgl/src/widgets/../core/lv_obj_style_gen.h ****     return (lv_coord_t)v.num;
 1445              		.loc 2 105 5 view .LVU455
 105:Middlewares/lvgl/src/widgets/../core/lv_obj_style_gen.h ****     return (lv_coord_t)v.num;
 1446              		.loc 2 105 26 is_stmt 0 view .LVU456
 1447 0198 41F21202 		movw	r2, #4114
 1448 019c 4FF44031 		mov	r1, #196608
 1449 01a0 2046     		mov	r0, r4
 1450 01a2 FFF7FEFF 		bl	lv_obj_get_style_prop
 1451              	.LVL167:
 106:Middlewares/lvgl/src/widgets/../core/lv_obj_style_gen.h **** }
 1452              		.loc 2 106 5 is_stmt 1 view .LVU457
 106:Middlewares/lvgl/src/widgets/../core/lv_obj_style_gen.h **** }
 1453              		.loc 2 106 12 is_stmt 0 view .LVU458
 1454 01a6 03B2     		sxth	r3, r0
 1455 01a8 0693     		str	r3, [sp, #24]
 1456              	.LVL168:
 106:Middlewares/lvgl/src/widgets/../core/lv_obj_style_gen.h **** }
 1457              		.loc 2 106 12 view .LVU459
 1458              	.LBE119:
 1459              	.LBE118:
 788:Middlewares/lvgl/src/widgets/lv_arc.c ****         lv_coord_t knob_top = lv_obj_get_style_pad_top(obj, LV_PART_KNOB);
 1460              		.loc 1 788 9 is_stmt 1 view .LVU460
 1461              	.LBB120:
 1462              	.LBI120:
 109:Middlewares/lvgl/src/widgets/../core/lv_obj_style_gen.h **** {
 1463              		.loc 2 109 26 view .LVU461
 1464              	.LBB121:
 111:Middlewares/lvgl/src/widgets/../core/lv_obj_style_gen.h ****     return (lv_coord_t)v.num;
 1465              		.loc 2 111 5 view .LVU462
 111:Middlewares/lvgl/src/widgets/../core/lv_obj_style_gen.h ****     return (lv_coord_t)v.num;
 1466              		.loc 2 111 26 is_stmt 0 view .LVU463
 1467 01aa 41F21302 		movw	r2, #4115
 1468 01ae 4FF44031 		mov	r1, #196608
 1469 01b2 2046     		mov	r0, r4
 1470 01b4 FFF7FEFF 		bl	lv_obj_get_style_prop
 1471              	.LVL169:
 112:Middlewares/lvgl/src/widgets/../core/lv_obj_style_gen.h **** }
 1472              		.loc 2 112 5 is_stmt 1 view .LVU464
 112:Middlewares/lvgl/src/widgets/../core/lv_obj_style_gen.h **** }
 1473              		.loc 2 112 12 is_stmt 0 view .LVU465
 1474 01b8 02B2     		sxth	r2, r0
 1475 01ba 0592     		str	r2, [sp, #20]
 1476              	.LVL170:
 112:Middlewares/lvgl/src/widgets/../core/lv_obj_style_gen.h **** }
 1477              		.loc 2 112 12 view .LVU466
 1478              	.LBE121:
 1479              	.LBE120:
 789:Middlewares/lvgl/src/widgets/lv_arc.c ****         lv_coord_t knob_bottom = lv_obj_get_style_pad_bottom(obj, LV_PART_KNOB);
 1480              		.loc 1 789 9 is_stmt 1 view .LVU467
ARM GAS  /tmp/ccZjziLX.s 			page 58


 1481              	.LBB122:
 1482              	.LBI122:
  91:Middlewares/lvgl/src/widgets/../core/lv_obj_style_gen.h **** {
 1483              		.loc 2 91 26 view .LVU468
 1484              	.LBB123:
  93:Middlewares/lvgl/src/widgets/../core/lv_obj_style_gen.h ****     return (lv_coord_t)v.num;
 1485              		.loc 2 93 5 view .LVU469
  93:Middlewares/lvgl/src/widgets/../core/lv_obj_style_gen.h ****     return (lv_coord_t)v.num;
 1486              		.loc 2 93 26 is_stmt 0 view .LVU470
 1487 01bc 41F21002 		movw	r2, #4112
 1488 01c0 4FF44031 		mov	r1, #196608
 1489 01c4 2046     		mov	r0, r4
 1490 01c6 FFF7FEFF 		bl	lv_obj_get_style_prop
 1491              	.LVL171:
  94:Middlewares/lvgl/src/widgets/../core/lv_obj_style_gen.h **** }
 1492              		.loc 2 94 5 is_stmt 1 view .LVU471
  94:Middlewares/lvgl/src/widgets/../core/lv_obj_style_gen.h **** }
 1493              		.loc 2 94 12 is_stmt 0 view .LVU472
 1494 01ca 01B2     		sxth	r1, r0
 1495 01cc 0291     		str	r1, [sp, #8]
 1496              	.LVL172:
  94:Middlewares/lvgl/src/widgets/../core/lv_obj_style_gen.h **** }
 1497              		.loc 2 94 12 view .LVU473
 1498              	.LBE123:
 1499              	.LBE122:
 790:Middlewares/lvgl/src/widgets/lv_arc.c **** 
 1500              		.loc 1 790 9 is_stmt 1 view .LVU474
 1501              	.LBB124:
 1502              	.LBI124:
  97:Middlewares/lvgl/src/widgets/../core/lv_obj_style_gen.h **** {
 1503              		.loc 2 97 26 view .LVU475
 1504              	.LBB125:
  99:Middlewares/lvgl/src/widgets/../core/lv_obj_style_gen.h ****     return (lv_coord_t)v.num;
 1505              		.loc 2 99 5 view .LVU476
  99:Middlewares/lvgl/src/widgets/../core/lv_obj_style_gen.h ****     return (lv_coord_t)v.num;
 1506              		.loc 2 99 26 is_stmt 0 view .LVU477
 1507 01ce 41F21102 		movw	r2, #4113
 1508 01d2 4FF44031 		mov	r1, #196608
 1509 01d6 2046     		mov	r0, r4
 1510 01d8 FFF7FEFF 		bl	lv_obj_get_style_prop
 1511              	.LVL173:
 100:Middlewares/lvgl/src/widgets/../core/lv_obj_style_gen.h **** }
 1512              		.loc 2 100 5 is_stmt 1 view .LVU478
 100:Middlewares/lvgl/src/widgets/../core/lv_obj_style_gen.h **** }
 1513              		.loc 2 100 12 is_stmt 0 view .LVU479
 1514 01dc 00B2     		sxth	r0, r0
 1515              	.LVL174:
 100:Middlewares/lvgl/src/widgets/../core/lv_obj_style_gen.h **** }
 1516              		.loc 2 100 12 view .LVU480
 1517              	.LBE125:
 1518              	.LBE124:
 792:Middlewares/lvgl/src/widgets/lv_arc.c **** 
 1519              		.loc 1 792 9 is_stmt 1 view .LVU481
 792:Middlewares/lvgl/src/widgets/lv_arc.c **** 
 1520              		.loc 1 792 28 is_stmt 0 view .LVU482
 1521 01de 0299     		ldr	r1, [sp, #8]
 1522 01e0 8842     		cmp	r0, r1
ARM GAS  /tmp/ccZjziLX.s 			page 59


 1523 01e2 B8BF     		it	lt
 1524 01e4 0846     		movlt	r0, r1
 1525              	.LVL175:
 792:Middlewares/lvgl/src/widgets/lv_arc.c **** 
 1526              		.loc 1 792 28 view .LVU483
 1527 01e6 069B     		ldr	r3, [sp, #24]
 1528 01e8 059A     		ldr	r2, [sp, #20]
 1529 01ea 9342     		cmp	r3, r2
 1530 01ec B8BF     		it	lt
 1531 01ee 1346     		movlt	r3, r2
 1532 01f0 9842     		cmp	r0, r3
 1533 01f2 B8BF     		it	lt
 1534 01f4 1846     		movlt	r0, r3
 792:Middlewares/lvgl/src/widgets/lv_arc.c **** 
 1535              		.loc 1 792 25 view .LVU484
 1536 01f6 079B     		ldr	r3, [sp, #28]
 1537 01f8 13FA80F0 		uxtah	r0, r3, r0
 1538 01fc 00B2     		sxth	r0, r0
 1539              	.LVL176:
 794:Middlewares/lvgl/src/widgets/lv_arc.c ****     }
 1540              		.loc 1 794 9 is_stmt 1 view .LVU485
 794:Middlewares/lvgl/src/widgets/lv_arc.c ****     }
 1541              		.loc 1 794 22 is_stmt 0 view .LVU486
 1542 01fe 5346     		mov	r3, r10
 1543 0200 BAF1000F 		cmp	r10, #0
 1544 0204 07DB     		blt	.L67
 1545              	.L40:
 1546 0206 5B10     		asrs	r3, r3, #1
 1547 0208 0233     		adds	r3, r3, #2
 1548 020a 1844     		add	r0, r0, r3
 1549              	.LVL177:
 794:Middlewares/lvgl/src/widgets/lv_arc.c ****     }
 1550              		.loc 1 794 22 view .LVU487
 1551 020c 8742     		cmp	r7, r0
 1552 020e B8BF     		it	lt
 1553 0210 0746     		movlt	r7, r0
 1554              	.LVL178:
 794:Middlewares/lvgl/src/widgets/lv_arc.c ****     }
 1555              		.loc 1 794 20 view .LVU488
 1556 0212 3FB2     		sxth	r7, r7
 1557              	.LVL179:
 794:Middlewares/lvgl/src/widgets/lv_arc.c ****     }
 1558              		.loc 1 794 20 view .LVU489
 1559 0214 8DE7     		b	.L39
 1560              	.LVL180:
 1561              	.L67:
 794:Middlewares/lvgl/src/widgets/lv_arc.c ****     }
 1562              		.loc 1 794 22 view .LVU490
 1563 0216 0AF10103 		add	r3, r10, #1
 1564 021a F4E7     		b	.L40
 1565              	.LVL181:
 1566              	.L62:
 794:Middlewares/lvgl/src/widgets/lv_arc.c ****     }
 1567              		.loc 1 794 22 view .LVU491
 1568              	.LBE117:
 801:Middlewares/lvgl/src/widgets/lv_arc.c ****             inv_area.x2 = x + ((lv_trigo_sin(start_angle + 90) * rout) >> LV_TRIGO_SHIFT) + extra_a
 1569              		.loc 1 801 13 is_stmt 1 view .LVU492
ARM GAS  /tmp/ccZjziLX.s 			page 60


 801:Middlewares/lvgl/src/widgets/lv_arc.c ****             inv_area.x2 = x + ((lv_trigo_sin(start_angle + 90) * rout) >> LV_TRIGO_SHIFT) + extra_a
 1570              		.loc 1 801 33 is_stmt 0 view .LVU493
 1571 021c 8A46     		mov	r10, r1
 1572              	.LVL182:
 801:Middlewares/lvgl/src/widgets/lv_arc.c ****             inv_area.x2 = x + ((lv_trigo_sin(start_angle + 90) * rout) >> LV_TRIGO_SHIFT) + extra_a
 1573              		.loc 1 801 33 view .LVU494
 1574 021e 08B2     		sxth	r0, r1
 1575 0220 FFF7FEFF 		bl	lv_trigo_sin
 1576              	.LVL183:
 801:Middlewares/lvgl/src/widgets/lv_arc.c ****             inv_area.x2 = x + ((lv_trigo_sin(start_angle + 90) * rout) >> LV_TRIGO_SHIFT) + extra_a
 1577              		.loc 1 801 59 view .LVU495
 1578 0224 08FB00F3 		mul	r3, r8, r0
 801:Middlewares/lvgl/src/widgets/lv_arc.c ****             inv_area.x2 = x + ((lv_trigo_sin(start_angle + 90) * rout) >> LV_TRIGO_SHIFT) + extra_a
 1579              		.loc 1 801 29 view .LVU496
 1580 0228 049E     		ldr	r6, [sp, #16]
 1581 022a 06EBE333 		add	r3, r6, r3, asr #15
 1582 022e 9BB2     		uxth	r3, r3
 801:Middlewares/lvgl/src/widgets/lv_arc.c ****             inv_area.x2 = x + ((lv_trigo_sin(start_angle + 90) * rout) >> LV_TRIGO_SHIFT) + extra_a
 1583              		.loc 1 801 85 view .LVU497
 1584 0230 BFB2     		uxth	r7, r7
 801:Middlewares/lvgl/src/widgets/lv_arc.c ****             inv_area.x2 = x + ((lv_trigo_sin(start_angle + 90) * rout) >> LV_TRIGO_SHIFT) + extra_a
 1585              		.loc 1 801 85 view .LVU498
 1586 0232 DB1B     		subs	r3, r3, r7
 801:Middlewares/lvgl/src/widgets/lv_arc.c ****             inv_area.x2 = x + ((lv_trigo_sin(start_angle + 90) * rout) >> LV_TRIGO_SHIFT) + extra_a
 1587              		.loc 1 801 25 view .LVU499
 1588 0234 ADF82230 		strh	r3, [sp, #34]	@ movhi
 802:Middlewares/lvgl/src/widgets/lv_arc.c **** 
 1589              		.loc 1 802 13 is_stmt 1 view .LVU500
 802:Middlewares/lvgl/src/widgets/lv_arc.c **** 
 1590              		.loc 1 802 58 is_stmt 0 view .LVU501
 1591 0238 5046     		mov	r0, r10
 1592 023a 5A30     		adds	r0, r0, #90
 802:Middlewares/lvgl/src/widgets/lv_arc.c **** 
 1593              		.loc 1 802 33 view .LVU502
 1594 023c 00B2     		sxth	r0, r0
 1595 023e FFF7FEFF 		bl	lv_trigo_sin
 1596              	.LVL184:
 802:Middlewares/lvgl/src/widgets/lv_arc.c **** 
 1597              		.loc 1 802 64 view .LVU503
 1598 0242 09FB00F3 		mul	r3, r9, r0
 802:Middlewares/lvgl/src/widgets/lv_arc.c **** 
 1599              		.loc 1 802 29 view .LVU504
 1600 0246 0BEBE333 		add	r3, fp, r3, asr #15
 802:Middlewares/lvgl/src/widgets/lv_arc.c **** 
 1601              		.loc 1 802 91 view .LVU505
 1602 024a 17FA83F3 		uxtah	r3, r7, r3
 802:Middlewares/lvgl/src/widgets/lv_arc.c **** 
 1603              		.loc 1 802 25 view .LVU506
 1604 024e ADF82430 		strh	r3, [sp, #36]	@ movhi
 804:Middlewares/lvgl/src/widgets/lv_arc.c ****             inv_area.x1 = x + ((lv_trigo_sin(end_angle + 90) * rin) >> LV_TRIGO_SHIFT) - extra_area
 1605              		.loc 1 804 13 is_stmt 1 view .LVU507
 804:Middlewares/lvgl/src/widgets/lv_arc.c ****             inv_area.x1 = x + ((lv_trigo_sin(end_angle + 90) * rin) >> LV_TRIGO_SHIFT) - extra_area
 1606              		.loc 1 804 33 is_stmt 0 view .LVU508
 1607 0252 28B2     		sxth	r0, r5
 1608 0254 FFF7FEFF 		bl	lv_trigo_sin
 1609              	.LVL185:
 804:Middlewares/lvgl/src/widgets/lv_arc.c ****             inv_area.x1 = x + ((lv_trigo_sin(end_angle + 90) * rin) >> LV_TRIGO_SHIFT) - extra_area
ARM GAS  /tmp/ccZjziLX.s 			page 61


 1610              		.loc 1 804 57 view .LVU509
 1611 0258 00FB09F9 		mul	r9, r0, r9
 1612              	.LVL186:
 804:Middlewares/lvgl/src/widgets/lv_arc.c ****             inv_area.x1 = x + ((lv_trigo_sin(end_angle + 90) * rin) >> LV_TRIGO_SHIFT) - extra_area
 1613              		.loc 1 804 29 view .LVU510
 1614 025c 06EBE939 		add	r9, r6, r9, asr #15
 804:Middlewares/lvgl/src/widgets/lv_arc.c ****             inv_area.x1 = x + ((lv_trigo_sin(end_angle + 90) * rin) >> LV_TRIGO_SHIFT) - extra_area
 1615              		.loc 1 804 84 view .LVU511
 1616 0260 17FA89F9 		uxtah	r9, r7, r9
 804:Middlewares/lvgl/src/widgets/lv_arc.c ****             inv_area.x1 = x + ((lv_trigo_sin(end_angle + 90) * rin) >> LV_TRIGO_SHIFT) - extra_area
 1617              		.loc 1 804 25 view .LVU512
 1618 0264 ADF82690 		strh	r9, [sp, #38]	@ movhi
 805:Middlewares/lvgl/src/widgets/lv_arc.c **** 
 1619              		.loc 1 805 13 is_stmt 1 view .LVU513
 805:Middlewares/lvgl/src/widgets/lv_arc.c **** 
 1620              		.loc 1 805 56 is_stmt 0 view .LVU514
 1621 0268 05F15A00 		add	r0, r5, #90
 805:Middlewares/lvgl/src/widgets/lv_arc.c **** 
 1622              		.loc 1 805 33 view .LVU515
 1623 026c 00B2     		sxth	r0, r0
 1624 026e FFF7FEFF 		bl	lv_trigo_sin
 1625              	.LVL187:
 805:Middlewares/lvgl/src/widgets/lv_arc.c **** 
 1626              		.loc 1 805 62 view .LVU516
 1627 0272 00FB08F0 		mul	r0, r0, r8
 805:Middlewares/lvgl/src/widgets/lv_arc.c **** 
 1628              		.loc 1 805 29 view .LVU517
 1629 0276 0BEBE03B 		add	fp, fp, r0, asr #15
 1630              	.LVL188:
 805:Middlewares/lvgl/src/widgets/lv_arc.c **** 
 1631              		.loc 1 805 29 view .LVU518
 1632 027a 1FFA8BFB 		uxth	fp, fp
 805:Middlewares/lvgl/src/widgets/lv_arc.c **** 
 1633              		.loc 1 805 88 view .LVU519
 1634 027e ABEB0707 		sub	r7, fp, r7
 1635              	.LVL189:
 805:Middlewares/lvgl/src/widgets/lv_arc.c **** 
 1636              		.loc 1 805 25 view .LVU520
 1637 0282 ADF82070 		strh	r7, [sp, #32]	@ movhi
 807:Middlewares/lvgl/src/widgets/lv_arc.c ****         }
 1638              		.loc 1 807 13 is_stmt 1 view .LVU521
 1639 0286 08A9     		add	r1, sp, #32
 1640 0288 2046     		mov	r0, r4
 1641 028a FFF7FEFF 		bl	lv_obj_invalidate_area
 1642              	.LVL190:
 1643 028e 66E7     		b	.L28
 1644              	.LVL191:
 1645              	.L63:
 810:Middlewares/lvgl/src/widgets/lv_arc.c ****             inv_area.x2 = x + ((lv_trigo_sin(start_angle + 90) * rin) >> LV_TRIGO_SHIFT) + extra_ar
 1646              		.loc 1 810 13 view .LVU522
 810:Middlewares/lvgl/src/widgets/lv_arc.c ****             inv_area.x2 = x + ((lv_trigo_sin(start_angle + 90) * rin) >> LV_TRIGO_SHIFT) + extra_ar
 1647              		.loc 1 810 33 is_stmt 0 view .LVU523
 1648 0290 DDF800A0 		ldr	r10, [sp]
 1649              	.LVL192:
 810:Middlewares/lvgl/src/widgets/lv_arc.c ****             inv_area.x2 = x + ((lv_trigo_sin(start_angle + 90) * rin) >> LV_TRIGO_SHIFT) + extra_ar
 1650              		.loc 1 810 33 view .LVU524
 1651 0294 0FFA8AF0 		sxth	r0, r10
ARM GAS  /tmp/ccZjziLX.s 			page 62


 1652 0298 FFF7FEFF 		bl	lv_trigo_sin
 1653              	.LVL193:
 810:Middlewares/lvgl/src/widgets/lv_arc.c ****             inv_area.x2 = x + ((lv_trigo_sin(start_angle + 90) * rin) >> LV_TRIGO_SHIFT) + extra_ar
 1654              		.loc 1 810 59 view .LVU525
 1655 029c 09FB00F3 		mul	r3, r9, r0
 810:Middlewares/lvgl/src/widgets/lv_arc.c ****             inv_area.x2 = x + ((lv_trigo_sin(start_angle + 90) * rin) >> LV_TRIGO_SHIFT) + extra_ar
 1656              		.loc 1 810 29 view .LVU526
 1657 02a0 049E     		ldr	r6, [sp, #16]
 1658 02a2 06EBE333 		add	r3, r6, r3, asr #15
 810:Middlewares/lvgl/src/widgets/lv_arc.c ****             inv_area.x2 = x + ((lv_trigo_sin(start_angle + 90) * rin) >> LV_TRIGO_SHIFT) + extra_ar
 1659              		.loc 1 810 86 view .LVU527
 1660 02a6 BFB2     		uxth	r7, r7
 810:Middlewares/lvgl/src/widgets/lv_arc.c ****             inv_area.x2 = x + ((lv_trigo_sin(start_angle + 90) * rin) >> LV_TRIGO_SHIFT) + extra_ar
 1661              		.loc 1 810 86 view .LVU528
 1662 02a8 17FA83F3 		uxtah	r3, r7, r3
 810:Middlewares/lvgl/src/widgets/lv_arc.c ****             inv_area.x2 = x + ((lv_trigo_sin(start_angle + 90) * rin) >> LV_TRIGO_SHIFT) + extra_ar
 1663              		.loc 1 810 25 view .LVU529
 1664 02ac ADF82630 		strh	r3, [sp, #38]	@ movhi
 811:Middlewares/lvgl/src/widgets/lv_arc.c **** 
 1665              		.loc 1 811 13 is_stmt 1 view .LVU530
 811:Middlewares/lvgl/src/widgets/lv_arc.c **** 
 1666              		.loc 1 811 58 is_stmt 0 view .LVU531
 1667 02b0 5046     		mov	r0, r10
 1668 02b2 5A30     		adds	r0, r0, #90
 811:Middlewares/lvgl/src/widgets/lv_arc.c **** 
 1669              		.loc 1 811 33 view .LVU532
 1670 02b4 00B2     		sxth	r0, r0
 1671 02b6 FFF7FEFF 		bl	lv_trigo_sin
 1672              	.LVL194:
 811:Middlewares/lvgl/src/widgets/lv_arc.c **** 
 1673              		.loc 1 811 64 view .LVU533
 1674 02ba 08FB00F3 		mul	r3, r8, r0
 811:Middlewares/lvgl/src/widgets/lv_arc.c **** 
 1675              		.loc 1 811 29 view .LVU534
 1676 02be 0BEBE333 		add	r3, fp, r3, asr #15
 811:Middlewares/lvgl/src/widgets/lv_arc.c **** 
 1677              		.loc 1 811 90 view .LVU535
 1678 02c2 17FA83F3 		uxtah	r3, r7, r3
 811:Middlewares/lvgl/src/widgets/lv_arc.c **** 
 1679              		.loc 1 811 25 view .LVU536
 1680 02c6 ADF82430 		strh	r3, [sp, #36]	@ movhi
 813:Middlewares/lvgl/src/widgets/lv_arc.c ****             inv_area.x1 = x + ((lv_trigo_sin(end_angle + 90) * rout) >> LV_TRIGO_SHIFT) - extra_are
 1681              		.loc 1 813 13 is_stmt 1 view .LVU537
 813:Middlewares/lvgl/src/widgets/lv_arc.c ****             inv_area.x1 = x + ((lv_trigo_sin(end_angle + 90) * rout) >> LV_TRIGO_SHIFT) - extra_are
 1682              		.loc 1 813 33 is_stmt 0 view .LVU538
 1683 02ca 28B2     		sxth	r0, r5
 1684 02cc FFF7FEFF 		bl	lv_trigo_sin
 1685              	.LVL195:
 813:Middlewares/lvgl/src/widgets/lv_arc.c ****             inv_area.x1 = x + ((lv_trigo_sin(end_angle + 90) * rout) >> LV_TRIGO_SHIFT) - extra_are
 1686              		.loc 1 813 57 view .LVU539
 1687 02d0 00FB08F3 		mul	r3, r0, r8
 813:Middlewares/lvgl/src/widgets/lv_arc.c ****             inv_area.x1 = x + ((lv_trigo_sin(end_angle + 90) * rout) >> LV_TRIGO_SHIFT) - extra_are
 1688              		.loc 1 813 29 view .LVU540
 1689 02d4 06EBE333 		add	r3, r6, r3, asr #15
 1690 02d8 9BB2     		uxth	r3, r3
 813:Middlewares/lvgl/src/widgets/lv_arc.c ****             inv_area.x1 = x + ((lv_trigo_sin(end_angle + 90) * rout) >> LV_TRIGO_SHIFT) - extra_are
 1691              		.loc 1 813 83 view .LVU541
ARM GAS  /tmp/ccZjziLX.s 			page 63


 1692 02da DB1B     		subs	r3, r3, r7
 813:Middlewares/lvgl/src/widgets/lv_arc.c ****             inv_area.x1 = x + ((lv_trigo_sin(end_angle + 90) * rout) >> LV_TRIGO_SHIFT) - extra_are
 1693              		.loc 1 813 25 view .LVU542
 1694 02dc ADF82230 		strh	r3, [sp, #34]	@ movhi
 814:Middlewares/lvgl/src/widgets/lv_arc.c **** 
 1695              		.loc 1 814 13 is_stmt 1 view .LVU543
 814:Middlewares/lvgl/src/widgets/lv_arc.c **** 
 1696              		.loc 1 814 56 is_stmt 0 view .LVU544
 1697 02e0 05F15A00 		add	r0, r5, #90
 814:Middlewares/lvgl/src/widgets/lv_arc.c **** 
 1698              		.loc 1 814 33 view .LVU545
 1699 02e4 00B2     		sxth	r0, r0
 1700 02e6 FFF7FEFF 		bl	lv_trigo_sin
 1701              	.LVL196:
 814:Middlewares/lvgl/src/widgets/lv_arc.c **** 
 1702              		.loc 1 814 62 view .LVU546
 1703 02ea 00FB09F9 		mul	r9, r0, r9
 1704              	.LVL197:
 814:Middlewares/lvgl/src/widgets/lv_arc.c **** 
 1705              		.loc 1 814 29 view .LVU547
 1706 02ee 0BEBE93B 		add	fp, fp, r9, asr #15
 1707              	.LVL198:
 814:Middlewares/lvgl/src/widgets/lv_arc.c **** 
 1708              		.loc 1 814 29 view .LVU548
 1709 02f2 1FFA8BFB 		uxth	fp, fp
 814:Middlewares/lvgl/src/widgets/lv_arc.c **** 
 1710              		.loc 1 814 89 view .LVU549
 1711 02f6 ABEB0707 		sub	r7, fp, r7
 1712              	.LVL199:
 814:Middlewares/lvgl/src/widgets/lv_arc.c **** 
 1713              		.loc 1 814 25 view .LVU550
 1714 02fa ADF82070 		strh	r7, [sp, #32]	@ movhi
 816:Middlewares/lvgl/src/widgets/lv_arc.c ****         }
 1715              		.loc 1 816 13 is_stmt 1 view .LVU551
 1716 02fe 08A9     		add	r1, sp, #32
 1717 0300 2046     		mov	r0, r4
 1718 0302 FFF7FEFF 		bl	lv_obj_invalidate_area
 1719              	.LVL200:
 1720 0306 2AE7     		b	.L28
 1721              	.LVL201:
 1722              	.L64:
 819:Middlewares/lvgl/src/widgets/lv_arc.c ****             inv_area.y2 = y + ((lv_trigo_sin(start_angle) * rin) >> LV_TRIGO_SHIFT) + extra_area;
 1723              		.loc 1 819 13 view .LVU552
 819:Middlewares/lvgl/src/widgets/lv_arc.c ****             inv_area.y2 = y + ((lv_trigo_sin(start_angle) * rin) >> LV_TRIGO_SHIFT) + extra_area;
 1724              		.loc 1 819 58 is_stmt 0 view .LVU553
 1725 0308 009E     		ldr	r6, [sp]
 1726 030a 06F15A00 		add	r0, r6, #90
 819:Middlewares/lvgl/src/widgets/lv_arc.c ****             inv_area.y2 = y + ((lv_trigo_sin(start_angle) * rin) >> LV_TRIGO_SHIFT) + extra_area;
 1727              		.loc 1 819 33 view .LVU554
 1728 030e 00B2     		sxth	r0, r0
 1729 0310 FFF7FEFF 		bl	lv_trigo_sin
 1730              	.LVL202:
 819:Middlewares/lvgl/src/widgets/lv_arc.c ****             inv_area.y2 = y + ((lv_trigo_sin(start_angle) * rin) >> LV_TRIGO_SHIFT) + extra_area;
 1731              		.loc 1 819 64 view .LVU555
 1732 0314 09FB00F3 		mul	r3, r9, r0
 819:Middlewares/lvgl/src/widgets/lv_arc.c ****             inv_area.y2 = y + ((lv_trigo_sin(start_angle) * rin) >> LV_TRIGO_SHIFT) + extra_area;
 1733              		.loc 1 819 29 view .LVU556
ARM GAS  /tmp/ccZjziLX.s 			page 64


 1734 0318 0BEBE333 		add	r3, fp, r3, asr #15
 1735 031c 9BB2     		uxth	r3, r3
 819:Middlewares/lvgl/src/widgets/lv_arc.c ****             inv_area.y2 = y + ((lv_trigo_sin(start_angle) * rin) >> LV_TRIGO_SHIFT) + extra_area;
 1736              		.loc 1 819 91 view .LVU557
 1737 031e BFB2     		uxth	r7, r7
 819:Middlewares/lvgl/src/widgets/lv_arc.c ****             inv_area.y2 = y + ((lv_trigo_sin(start_angle) * rin) >> LV_TRIGO_SHIFT) + extra_area;
 1738              		.loc 1 819 91 view .LVU558
 1739 0320 DB1B     		subs	r3, r3, r7
 819:Middlewares/lvgl/src/widgets/lv_arc.c ****             inv_area.y2 = y + ((lv_trigo_sin(start_angle) * rin) >> LV_TRIGO_SHIFT) + extra_area;
 1740              		.loc 1 819 25 view .LVU559
 1741 0322 ADF82030 		strh	r3, [sp, #32]	@ movhi
 820:Middlewares/lvgl/src/widgets/lv_arc.c **** 
 1742              		.loc 1 820 13 is_stmt 1 view .LVU560
 820:Middlewares/lvgl/src/widgets/lv_arc.c **** 
 1743              		.loc 1 820 33 is_stmt 0 view .LVU561
 1744 0326 30B2     		sxth	r0, r6
 1745 0328 FFF7FEFF 		bl	lv_trigo_sin
 1746              	.LVL203:
 820:Middlewares/lvgl/src/widgets/lv_arc.c **** 
 1747              		.loc 1 820 59 view .LVU562
 1748 032c 08FB00F3 		mul	r3, r8, r0
 820:Middlewares/lvgl/src/widgets/lv_arc.c **** 
 1749              		.loc 1 820 29 view .LVU563
 1750 0330 049E     		ldr	r6, [sp, #16]
 1751 0332 06EBE333 		add	r3, r6, r3, asr #15
 820:Middlewares/lvgl/src/widgets/lv_arc.c **** 
 1752              		.loc 1 820 85 view .LVU564
 1753 0336 17FA83F3 		uxtah	r3, r7, r3
 820:Middlewares/lvgl/src/widgets/lv_arc.c **** 
 1754              		.loc 1 820 25 view .LVU565
 1755 033a ADF82630 		strh	r3, [sp, #38]	@ movhi
 822:Middlewares/lvgl/src/widgets/lv_arc.c ****             inv_area.x2 = x + ((lv_trigo_sin(end_angle + 90) * rin) >> LV_TRIGO_SHIFT) + extra_area
 1756              		.loc 1 822 13 is_stmt 1 view .LVU566
 822:Middlewares/lvgl/src/widgets/lv_arc.c ****             inv_area.x2 = x + ((lv_trigo_sin(end_angle + 90) * rin) >> LV_TRIGO_SHIFT) + extra_area
 1757              		.loc 1 822 33 is_stmt 0 view .LVU567
 1758 033e 28B2     		sxth	r0, r5
 1759 0340 FFF7FEFF 		bl	lv_trigo_sin
 1760              	.LVL204:
 822:Middlewares/lvgl/src/widgets/lv_arc.c ****             inv_area.x2 = x + ((lv_trigo_sin(end_angle + 90) * rin) >> LV_TRIGO_SHIFT) + extra_area
 1761              		.loc 1 822 57 view .LVU568
 1762 0344 00FB09F3 		mul	r3, r0, r9
 822:Middlewares/lvgl/src/widgets/lv_arc.c ****             inv_area.x2 = x + ((lv_trigo_sin(end_angle + 90) * rin) >> LV_TRIGO_SHIFT) + extra_area
 1763              		.loc 1 822 29 view .LVU569
 1764 0348 06EBE333 		add	r3, r6, r3, asr #15
 1765 034c 9BB2     		uxth	r3, r3
 822:Middlewares/lvgl/src/widgets/lv_arc.c ****             inv_area.x2 = x + ((lv_trigo_sin(end_angle + 90) * rin) >> LV_TRIGO_SHIFT) + extra_area
 1766              		.loc 1 822 84 view .LVU570
 1767 034e DB1B     		subs	r3, r3, r7
 822:Middlewares/lvgl/src/widgets/lv_arc.c ****             inv_area.x2 = x + ((lv_trigo_sin(end_angle + 90) * rin) >> LV_TRIGO_SHIFT) + extra_area
 1768              		.loc 1 822 25 view .LVU571
 1769 0350 ADF82230 		strh	r3, [sp, #34]	@ movhi
 823:Middlewares/lvgl/src/widgets/lv_arc.c **** 
 1770              		.loc 1 823 13 is_stmt 1 view .LVU572
 823:Middlewares/lvgl/src/widgets/lv_arc.c **** 
 1771              		.loc 1 823 56 is_stmt 0 view .LVU573
 1772 0354 05F15A00 		add	r0, r5, #90
 823:Middlewares/lvgl/src/widgets/lv_arc.c **** 
ARM GAS  /tmp/ccZjziLX.s 			page 65


 1773              		.loc 1 823 33 view .LVU574
 1774 0358 00B2     		sxth	r0, r0
 1775 035a FFF7FEFF 		bl	lv_trigo_sin
 1776              	.LVL205:
 823:Middlewares/lvgl/src/widgets/lv_arc.c **** 
 1777              		.loc 1 823 62 view .LVU575
 1778 035e 00FB08F0 		mul	r0, r0, r8
 823:Middlewares/lvgl/src/widgets/lv_arc.c **** 
 1779              		.loc 1 823 29 view .LVU576
 1780 0362 0BEBE03B 		add	fp, fp, r0, asr #15
 1781              	.LVL206:
 823:Middlewares/lvgl/src/widgets/lv_arc.c **** 
 1782              		.loc 1 823 88 view .LVU577
 1783 0366 17FA8BF7 		uxtah	r7, r7, fp
 1784              	.LVL207:
 823:Middlewares/lvgl/src/widgets/lv_arc.c **** 
 1785              		.loc 1 823 25 view .LVU578
 1786 036a ADF82470 		strh	r7, [sp, #36]	@ movhi
 825:Middlewares/lvgl/src/widgets/lv_arc.c ****         }
 1787              		.loc 1 825 13 is_stmt 1 view .LVU579
 1788 036e 08A9     		add	r1, sp, #32
 1789 0370 2046     		mov	r0, r4
 1790 0372 FFF7FEFF 		bl	lv_obj_invalidate_area
 1791              	.LVL208:
 1792 0376 F2E6     		b	.L28
 1793              	.L72:
 1794              		.align	2
 1795              	.L71:
 1796 0378 B7600BB6 		.word	-1240768329
 1797              	.LVL209:
 1798              	.L65:
 829:Middlewares/lvgl/src/widgets/lv_arc.c ****             inv_area.y1 = y + ((lv_trigo_sin(start_angle) * rout) >> LV_TRIGO_SHIFT) - extra_area;
 1799              		.loc 1 829 13 view .LVU580
 829:Middlewares/lvgl/src/widgets/lv_arc.c ****             inv_area.y1 = y + ((lv_trigo_sin(start_angle) * rout) >> LV_TRIGO_SHIFT) - extra_area;
 1800              		.loc 1 829 58 is_stmt 0 view .LVU581
 1801 037c 009E     		ldr	r6, [sp]
 1802 037e 06F15A00 		add	r0, r6, #90
 829:Middlewares/lvgl/src/widgets/lv_arc.c ****             inv_area.y1 = y + ((lv_trigo_sin(start_angle) * rout) >> LV_TRIGO_SHIFT) - extra_area;
 1803              		.loc 1 829 33 view .LVU582
 1804 0382 00B2     		sxth	r0, r0
 1805 0384 FFF7FEFF 		bl	lv_trigo_sin
 1806              	.LVL210:
 829:Middlewares/lvgl/src/widgets/lv_arc.c ****             inv_area.y1 = y + ((lv_trigo_sin(start_angle) * rout) >> LV_TRIGO_SHIFT) - extra_area;
 1807              		.loc 1 829 64 view .LVU583
 1808 0388 08FB00F3 		mul	r3, r8, r0
 829:Middlewares/lvgl/src/widgets/lv_arc.c ****             inv_area.y1 = y + ((lv_trigo_sin(start_angle) * rout) >> LV_TRIGO_SHIFT) - extra_area;
 1809              		.loc 1 829 29 view .LVU584
 1810 038c 0BEBE333 		add	r3, fp, r3, asr #15
 1811 0390 9BB2     		uxth	r3, r3
 829:Middlewares/lvgl/src/widgets/lv_arc.c ****             inv_area.y1 = y + ((lv_trigo_sin(start_angle) * rout) >> LV_TRIGO_SHIFT) - extra_area;
 1812              		.loc 1 829 90 view .LVU585
 1813 0392 BFB2     		uxth	r7, r7
 829:Middlewares/lvgl/src/widgets/lv_arc.c ****             inv_area.y1 = y + ((lv_trigo_sin(start_angle) * rout) >> LV_TRIGO_SHIFT) - extra_area;
 1814              		.loc 1 829 90 view .LVU586
 1815 0394 DB1B     		subs	r3, r3, r7
 829:Middlewares/lvgl/src/widgets/lv_arc.c ****             inv_area.y1 = y + ((lv_trigo_sin(start_angle) * rout) >> LV_TRIGO_SHIFT) - extra_area;
 1816              		.loc 1 829 25 view .LVU587
ARM GAS  /tmp/ccZjziLX.s 			page 66


 1817 0396 ADF82030 		strh	r3, [sp, #32]	@ movhi
 830:Middlewares/lvgl/src/widgets/lv_arc.c **** 
 1818              		.loc 1 830 13 is_stmt 1 view .LVU588
 830:Middlewares/lvgl/src/widgets/lv_arc.c **** 
 1819              		.loc 1 830 33 is_stmt 0 view .LVU589
 1820 039a 30B2     		sxth	r0, r6
 1821 039c FFF7FEFF 		bl	lv_trigo_sin
 1822              	.LVL211:
 830:Middlewares/lvgl/src/widgets/lv_arc.c **** 
 1823              		.loc 1 830 59 view .LVU590
 1824 03a0 09FB00F3 		mul	r3, r9, r0
 830:Middlewares/lvgl/src/widgets/lv_arc.c **** 
 1825              		.loc 1 830 29 view .LVU591
 1826 03a4 049E     		ldr	r6, [sp, #16]
 1827 03a6 06EBE333 		add	r3, r6, r3, asr #15
 1828 03aa 9BB2     		uxth	r3, r3
 830:Middlewares/lvgl/src/widgets/lv_arc.c **** 
 1829              		.loc 1 830 86 view .LVU592
 1830 03ac DB1B     		subs	r3, r3, r7
 830:Middlewares/lvgl/src/widgets/lv_arc.c **** 
 1831              		.loc 1 830 25 view .LVU593
 1832 03ae ADF82230 		strh	r3, [sp, #34]	@ movhi
 832:Middlewares/lvgl/src/widgets/lv_arc.c ****             inv_area.y2 = y + ((lv_trigo_sin(end_angle) * rin) >> LV_TRIGO_SHIFT) + extra_area;
 1833              		.loc 1 832 13 is_stmt 1 view .LVU594
 832:Middlewares/lvgl/src/widgets/lv_arc.c ****             inv_area.y2 = y + ((lv_trigo_sin(end_angle) * rin) >> LV_TRIGO_SHIFT) + extra_area;
 1834              		.loc 1 832 56 is_stmt 0 view .LVU595
 1835 03b2 05F15A00 		add	r0, r5, #90
 832:Middlewares/lvgl/src/widgets/lv_arc.c ****             inv_area.y2 = y + ((lv_trigo_sin(end_angle) * rin) >> LV_TRIGO_SHIFT) + extra_area;
 1836              		.loc 1 832 33 view .LVU596
 1837 03b6 00B2     		sxth	r0, r0
 1838 03b8 FFF7FEFF 		bl	lv_trigo_sin
 1839              	.LVL212:
 832:Middlewares/lvgl/src/widgets/lv_arc.c ****             inv_area.y2 = y + ((lv_trigo_sin(end_angle) * rin) >> LV_TRIGO_SHIFT) + extra_area;
 1840              		.loc 1 832 62 view .LVU597
 1841 03bc 00FB09F9 		mul	r9, r0, r9
 1842              	.LVL213:
 832:Middlewares/lvgl/src/widgets/lv_arc.c ****             inv_area.y2 = y + ((lv_trigo_sin(end_angle) * rin) >> LV_TRIGO_SHIFT) + extra_area;
 1843              		.loc 1 832 29 view .LVU598
 1844 03c0 0BEBE93B 		add	fp, fp, r9, asr #15
 1845              	.LVL214:
 832:Middlewares/lvgl/src/widgets/lv_arc.c ****             inv_area.y2 = y + ((lv_trigo_sin(end_angle) * rin) >> LV_TRIGO_SHIFT) + extra_area;
 1846              		.loc 1 832 89 view .LVU599
 1847 03c4 17FA8BFB 		uxtah	fp, r7, fp
 832:Middlewares/lvgl/src/widgets/lv_arc.c ****             inv_area.y2 = y + ((lv_trigo_sin(end_angle) * rin) >> LV_TRIGO_SHIFT) + extra_area;
 1848              		.loc 1 832 25 view .LVU600
 1849 03c8 ADF824B0 		strh	fp, [sp, #36]	@ movhi
 833:Middlewares/lvgl/src/widgets/lv_arc.c **** 
 1850              		.loc 1 833 13 is_stmt 1 view .LVU601
 833:Middlewares/lvgl/src/widgets/lv_arc.c **** 
 1851              		.loc 1 833 33 is_stmt 0 view .LVU602
 1852 03cc 28B2     		sxth	r0, r5
 1853 03ce FFF7FEFF 		bl	lv_trigo_sin
 1854              	.LVL215:
 833:Middlewares/lvgl/src/widgets/lv_arc.c **** 
 1855              		.loc 1 833 57 view .LVU603
 1856 03d2 00FB08F3 		mul	r3, r0, r8
 833:Middlewares/lvgl/src/widgets/lv_arc.c **** 
ARM GAS  /tmp/ccZjziLX.s 			page 67


 1857              		.loc 1 833 29 view .LVU604
 1858 03d6 06EBE333 		add	r3, r6, r3, asr #15
 833:Middlewares/lvgl/src/widgets/lv_arc.c **** 
 1859              		.loc 1 833 83 view .LVU605
 1860 03da 17FA83F7 		uxtah	r7, r7, r3
 1861              	.LVL216:
 833:Middlewares/lvgl/src/widgets/lv_arc.c **** 
 1862              		.loc 1 833 25 view .LVU606
 1863 03de ADF82670 		strh	r7, [sp, #38]	@ movhi
 835:Middlewares/lvgl/src/widgets/lv_arc.c ****         }
 1864              		.loc 1 835 13 is_stmt 1 view .LVU607
 1865 03e2 08A9     		add	r1, sp, #32
 1866 03e4 2046     		mov	r0, r4
 1867 03e6 FFF7FEFF 		bl	lv_obj_invalidate_area
 1868              	.LVL217:
 1869 03ea B8E6     		b	.L28
 1870              	.LVL218:
 1871              	.L41:
 838:Middlewares/lvgl/src/widgets/lv_arc.c ****         inv_area.x1 = x + ((lv_trigo_sin(end_angle + 90) * rout) >> LV_TRIGO_SHIFT) - extra_area;
 1872              		.loc 1 838 10 view .LVU608
 838:Middlewares/lvgl/src/widgets/lv_arc.c ****         inv_area.x1 = x + ((lv_trigo_sin(end_angle + 90) * rout) >> LV_TRIGO_SHIFT) - extra_area;
 1873              		.loc 1 838 12 is_stmt 0 view .LVU609
 1874 03ec 019B     		ldr	r3, [sp, #4]
 1875 03ee 039A     		ldr	r2, [sp, #12]
 1876 03f0 002B     		cmp	r3, #0
 1877 03f2 08BF     		it	eq
 1878 03f4 012A     		cmpeq	r2, #1
 1879 03f6 57D0     		beq	.L68
 846:Middlewares/lvgl/src/widgets/lv_arc.c ****         inv_area.x1 = x - rout - extra_area;
 1880              		.loc 1 846 10 is_stmt 1 view .LVU610
 846:Middlewares/lvgl/src/widgets/lv_arc.c ****         inv_area.x1 = x - rout - extra_area;
 1881              		.loc 1 846 12 is_stmt 0 view .LVU611
 1882 03f8 019B     		ldr	r3, [sp, #4]
 1883 03fa 039A     		ldr	r2, [sp, #12]
 1884 03fc 012B     		cmp	r3, #1
 1885 03fe 08BF     		it	eq
 1886 0400 022A     		cmpeq	r2, #2
 1887 0402 00F09680 		beq	.L69
 854:Middlewares/lvgl/src/widgets/lv_arc.c ****         inv_area.x1 = x + ((lv_trigo_sin(start_angle + 90) * rout) >> LV_TRIGO_SHIFT) - extra_area;
 1888              		.loc 1 854 10 is_stmt 1 view .LVU612
 854:Middlewares/lvgl/src/widgets/lv_arc.c ****         inv_area.x1 = x + ((lv_trigo_sin(start_angle + 90) * rout) >> LV_TRIGO_SHIFT) - extra_area;
 1889              		.loc 1 854 12 is_stmt 0 view .LVU613
 1890 0406 019B     		ldr	r3, [sp, #4]
 1891 0408 039A     		ldr	r2, [sp, #12]
 1892 040a 022B     		cmp	r3, #2
 1893 040c 08BF     		it	eq
 1894 040e 032A     		cmpeq	r2, #3
 1895 0410 00F0D680 		beq	.L70
 862:Middlewares/lvgl/src/widgets/lv_arc.c ****         inv_area.x1 = x + ((LV_MIN(lv_trigo_sin(end_angle + 90),
 1896              		.loc 1 862 10 is_stmt 1 view .LVU614
 862:Middlewares/lvgl/src/widgets/lv_arc.c ****         inv_area.x1 = x + ((LV_MIN(lv_trigo_sin(end_angle + 90),
 1897              		.loc 1 862 12 is_stmt 0 view .LVU615
 1898 0414 019B     		ldr	r3, [sp, #4]
 1899 0416 039A     		ldr	r2, [sp, #12]
 1900 0418 032B     		cmp	r3, #3
 1901 041a 08BF     		it	eq
 1902 041c 002A     		cmpeq	r2, #0
ARM GAS  /tmp/ccZjziLX.s 			page 68


 1903 041e 40F01E81 		bne	.L55
 863:Middlewares/lvgl/src/widgets/lv_arc.c ****                                         lv_trigo_sin(start_angle + 90)) * rin) >> LV_TRIGO_SHIFT) -
 1904              		.loc 1 863 9 is_stmt 1 view .LVU616
 863:Middlewares/lvgl/src/widgets/lv_arc.c ****                                         lv_trigo_sin(start_angle + 90)) * rin) >> LV_TRIGO_SHIFT) -
 1905              		.loc 1 863 29 is_stmt 0 view .LVU617
 1906 0422 05F15A03 		add	r3, r5, #90
 1907 0426 1BB2     		sxth	r3, r3
 1908 0428 0293     		str	r3, [sp, #8]
 1909 042a 1846     		mov	r0, r3
 1910 042c FFF7FEFF 		bl	lv_trigo_sin
