ARM GAS  /tmp/cc8F9tO6.s 			page 1


   1              		.cpu cortex-m7
   2              		.arch armv7e-m
   3              		.fpu fpv5-d16
   4              		.eabi_attribute 28, 1
   5              		.eabi_attribute 20, 1
   6              		.eabi_attribute 21, 1
   7              		.eabi_attribute 23, 3
   8              		.eabi_attribute 24, 1
   9              		.eabi_attribute 25, 1
  10              		.eabi_attribute 26, 1
  11              		.eabi_attribute 30, 1
  12              		.eabi_attribute 34, 1
  13              		.eabi_attribute 18, 4
  14              		.file	"lv_calendar.c"
  15              		.text
  16              	.Ltext0:
  17              		.cfi_sections	.debug_frame
  18              		.section	.text.is_leap_year,"ax",%progbits
  19              		.align	1
  20              		.syntax unified
  21              		.thumb
  22              		.thumb_func
  24              	is_leap_year:
  25              	.LVL0:
  26              	.LFB197:
  27              		.file 1 "Middlewares/lvgl/src/extra/widgets/calendar/lv_calendar.c"
   1:Middlewares/lvgl/src/extra/widgets/calendar/lv_calendar.c **** /**
   2:Middlewares/lvgl/src/extra/widgets/calendar/lv_calendar.c ****  * @file lv_calendar.c
   3:Middlewares/lvgl/src/extra/widgets/calendar/lv_calendar.c ****  *
   4:Middlewares/lvgl/src/extra/widgets/calendar/lv_calendar.c ****  */
   5:Middlewares/lvgl/src/extra/widgets/calendar/lv_calendar.c **** 
   6:Middlewares/lvgl/src/extra/widgets/calendar/lv_calendar.c **** /*********************
   7:Middlewares/lvgl/src/extra/widgets/calendar/lv_calendar.c ****  *      INCLUDES
   8:Middlewares/lvgl/src/extra/widgets/calendar/lv_calendar.c ****  *********************/
   9:Middlewares/lvgl/src/extra/widgets/calendar/lv_calendar.c **** #include "lv_calendar.h"
  10:Middlewares/lvgl/src/extra/widgets/calendar/lv_calendar.c **** #include "../../../lvgl.h"
  11:Middlewares/lvgl/src/extra/widgets/calendar/lv_calendar.c **** #if LV_USE_CALENDAR
  12:Middlewares/lvgl/src/extra/widgets/calendar/lv_calendar.c **** 
  13:Middlewares/lvgl/src/extra/widgets/calendar/lv_calendar.c **** /*********************
  14:Middlewares/lvgl/src/extra/widgets/calendar/lv_calendar.c ****  *      DEFINES
  15:Middlewares/lvgl/src/extra/widgets/calendar/lv_calendar.c ****  *********************/
  16:Middlewares/lvgl/src/extra/widgets/calendar/lv_calendar.c **** #define LV_CALENDAR_CTRL_TODAY      LV_BTNMATRIX_CTRL_CUSTOM_1
  17:Middlewares/lvgl/src/extra/widgets/calendar/lv_calendar.c **** #define LV_CALENDAR_CTRL_HIGHLIGHT  LV_BTNMATRIX_CTRL_CUSTOM_2
  18:Middlewares/lvgl/src/extra/widgets/calendar/lv_calendar.c **** 
  19:Middlewares/lvgl/src/extra/widgets/calendar/lv_calendar.c **** /**********************
  20:Middlewares/lvgl/src/extra/widgets/calendar/lv_calendar.c ****  *      TYPEDEFS
  21:Middlewares/lvgl/src/extra/widgets/calendar/lv_calendar.c ****  **********************/
  22:Middlewares/lvgl/src/extra/widgets/calendar/lv_calendar.c **** 
  23:Middlewares/lvgl/src/extra/widgets/calendar/lv_calendar.c **** /**********************
  24:Middlewares/lvgl/src/extra/widgets/calendar/lv_calendar.c ****  *  STATIC PROTOTYPES
  25:Middlewares/lvgl/src/extra/widgets/calendar/lv_calendar.c ****  **********************/
  26:Middlewares/lvgl/src/extra/widgets/calendar/lv_calendar.c **** static void lv_calendar_constructor(const lv_obj_class_t * class_p, lv_obj_t * obj);
  27:Middlewares/lvgl/src/extra/widgets/calendar/lv_calendar.c **** static void draw_part_begin_event_cb(lv_event_t * e);
  28:Middlewares/lvgl/src/extra/widgets/calendar/lv_calendar.c **** 
  29:Middlewares/lvgl/src/extra/widgets/calendar/lv_calendar.c **** static uint8_t get_day_of_week(uint32_t year, uint32_t month, uint32_t day);
  30:Middlewares/lvgl/src/extra/widgets/calendar/lv_calendar.c **** static uint8_t get_month_length(int32_t year, int32_t month);
  31:Middlewares/lvgl/src/extra/widgets/calendar/lv_calendar.c **** static uint8_t is_leap_year(uint32_t year);
ARM GAS  /tmp/cc8F9tO6.s 			page 2


  32:Middlewares/lvgl/src/extra/widgets/calendar/lv_calendar.c **** static void highlight_update(lv_obj_t * calendar);
  33:Middlewares/lvgl/src/extra/widgets/calendar/lv_calendar.c **** 
  34:Middlewares/lvgl/src/extra/widgets/calendar/lv_calendar.c **** /**********************
  35:Middlewares/lvgl/src/extra/widgets/calendar/lv_calendar.c ****  *  STATIC VARIABLES
  36:Middlewares/lvgl/src/extra/widgets/calendar/lv_calendar.c ****  **********************/
  37:Middlewares/lvgl/src/extra/widgets/calendar/lv_calendar.c **** const lv_obj_class_t lv_calendar_class = {
  38:Middlewares/lvgl/src/extra/widgets/calendar/lv_calendar.c ****     .constructor_cb = lv_calendar_constructor,
  39:Middlewares/lvgl/src/extra/widgets/calendar/lv_calendar.c ****     .width_def = (LV_DPI_DEF * 3) / 2,
  40:Middlewares/lvgl/src/extra/widgets/calendar/lv_calendar.c ****     .height_def =(LV_DPI_DEF * 3) / 2,
  41:Middlewares/lvgl/src/extra/widgets/calendar/lv_calendar.c ****     .group_def = LV_OBJ_CLASS_GROUP_DEF_TRUE,
  42:Middlewares/lvgl/src/extra/widgets/calendar/lv_calendar.c ****     .instance_size = sizeof(lv_calendar_t),
  43:Middlewares/lvgl/src/extra/widgets/calendar/lv_calendar.c ****     .base_class = &lv_btnmatrix_class
  44:Middlewares/lvgl/src/extra/widgets/calendar/lv_calendar.c **** };
  45:Middlewares/lvgl/src/extra/widgets/calendar/lv_calendar.c **** 
  46:Middlewares/lvgl/src/extra/widgets/calendar/lv_calendar.c **** 
  47:Middlewares/lvgl/src/extra/widgets/calendar/lv_calendar.c **** static const char * day_names_def[7] = LV_CALENDAR_DEFAULT_DAY_NAMES;
  48:Middlewares/lvgl/src/extra/widgets/calendar/lv_calendar.c **** 
  49:Middlewares/lvgl/src/extra/widgets/calendar/lv_calendar.c **** /**********************
  50:Middlewares/lvgl/src/extra/widgets/calendar/lv_calendar.c ****  *      MACROS
  51:Middlewares/lvgl/src/extra/widgets/calendar/lv_calendar.c ****  **********************/
  52:Middlewares/lvgl/src/extra/widgets/calendar/lv_calendar.c **** 
  53:Middlewares/lvgl/src/extra/widgets/calendar/lv_calendar.c **** /**********************
  54:Middlewares/lvgl/src/extra/widgets/calendar/lv_calendar.c ****  *   GLOBAL FUNCTIONS
  55:Middlewares/lvgl/src/extra/widgets/calendar/lv_calendar.c ****  **********************/
  56:Middlewares/lvgl/src/extra/widgets/calendar/lv_calendar.c **** 
  57:Middlewares/lvgl/src/extra/widgets/calendar/lv_calendar.c **** lv_obj_t * lv_calendar_create(lv_obj_t * parent)
  58:Middlewares/lvgl/src/extra/widgets/calendar/lv_calendar.c **** {
  59:Middlewares/lvgl/src/extra/widgets/calendar/lv_calendar.c ****     LV_LOG_INFO("begin")
  60:Middlewares/lvgl/src/extra/widgets/calendar/lv_calendar.c ****     lv_obj_t * obj = lv_obj_class_create_obj(&lv_calendar_class, parent);
  61:Middlewares/lvgl/src/extra/widgets/calendar/lv_calendar.c ****     lv_obj_class_init_obj(obj);
  62:Middlewares/lvgl/src/extra/widgets/calendar/lv_calendar.c ****     return obj;
  63:Middlewares/lvgl/src/extra/widgets/calendar/lv_calendar.c **** }
  64:Middlewares/lvgl/src/extra/widgets/calendar/lv_calendar.c **** 
  65:Middlewares/lvgl/src/extra/widgets/calendar/lv_calendar.c **** /*=====================
  66:Middlewares/lvgl/src/extra/widgets/calendar/lv_calendar.c ****  * Setter functions
  67:Middlewares/lvgl/src/extra/widgets/calendar/lv_calendar.c ****  *====================*/
  68:Middlewares/lvgl/src/extra/widgets/calendar/lv_calendar.c **** 
  69:Middlewares/lvgl/src/extra/widgets/calendar/lv_calendar.c **** void lv_calendar_set_day_names(lv_obj_t * obj, const char * day_names[])
  70:Middlewares/lvgl/src/extra/widgets/calendar/lv_calendar.c **** {
  71:Middlewares/lvgl/src/extra/widgets/calendar/lv_calendar.c ****     lv_calendar_t * calendar = (lv_calendar_t *)obj;
  72:Middlewares/lvgl/src/extra/widgets/calendar/lv_calendar.c ****     uint32_t i;
  73:Middlewares/lvgl/src/extra/widgets/calendar/lv_calendar.c ****     for(i = 0; i < 7; i++) {
  74:Middlewares/lvgl/src/extra/widgets/calendar/lv_calendar.c ****         calendar->map[i] = day_names[i];
  75:Middlewares/lvgl/src/extra/widgets/calendar/lv_calendar.c ****     }
  76:Middlewares/lvgl/src/extra/widgets/calendar/lv_calendar.c **** }
  77:Middlewares/lvgl/src/extra/widgets/calendar/lv_calendar.c **** 
  78:Middlewares/lvgl/src/extra/widgets/calendar/lv_calendar.c **** void lv_calendar_set_today_date(lv_obj_t * obj, uint32_t year, uint32_t month, uint32_t day)
  79:Middlewares/lvgl/src/extra/widgets/calendar/lv_calendar.c **** {
  80:Middlewares/lvgl/src/extra/widgets/calendar/lv_calendar.c ****     lv_calendar_t * calendar = (lv_calendar_t *)obj;
  81:Middlewares/lvgl/src/extra/widgets/calendar/lv_calendar.c ****     calendar->today.year         = year;
  82:Middlewares/lvgl/src/extra/widgets/calendar/lv_calendar.c ****     calendar->today.month        = month;
  83:Middlewares/lvgl/src/extra/widgets/calendar/lv_calendar.c ****     calendar->today.day          = day;
  84:Middlewares/lvgl/src/extra/widgets/calendar/lv_calendar.c **** 
  85:Middlewares/lvgl/src/extra/widgets/calendar/lv_calendar.c ****     highlight_update(obj);
  86:Middlewares/lvgl/src/extra/widgets/calendar/lv_calendar.c **** }
  87:Middlewares/lvgl/src/extra/widgets/calendar/lv_calendar.c **** 
  88:Middlewares/lvgl/src/extra/widgets/calendar/lv_calendar.c **** void lv_calendar_set_highlighted_dates(lv_obj_t * obj, lv_calendar_date_t highlighted[], uint16_t d
ARM GAS  /tmp/cc8F9tO6.s 			page 3


  89:Middlewares/lvgl/src/extra/widgets/calendar/lv_calendar.c **** {
  90:Middlewares/lvgl/src/extra/widgets/calendar/lv_calendar.c ****     LV_ASSERT_NULL(highlighted);
  91:Middlewares/lvgl/src/extra/widgets/calendar/lv_calendar.c **** 
  92:Middlewares/lvgl/src/extra/widgets/calendar/lv_calendar.c ****     lv_calendar_t * calendar = (lv_calendar_t *)obj;
  93:Middlewares/lvgl/src/extra/widgets/calendar/lv_calendar.c ****     calendar->highlighted_dates     = highlighted;
  94:Middlewares/lvgl/src/extra/widgets/calendar/lv_calendar.c ****     calendar->highlighted_dates_num = date_num;
  95:Middlewares/lvgl/src/extra/widgets/calendar/lv_calendar.c **** 
  96:Middlewares/lvgl/src/extra/widgets/calendar/lv_calendar.c ****     highlight_update(obj);
  97:Middlewares/lvgl/src/extra/widgets/calendar/lv_calendar.c **** }
  98:Middlewares/lvgl/src/extra/widgets/calendar/lv_calendar.c **** 
  99:Middlewares/lvgl/src/extra/widgets/calendar/lv_calendar.c **** void lv_calendar_set_showed_date(lv_obj_t * obj, uint32_t year, uint32_t month)
 100:Middlewares/lvgl/src/extra/widgets/calendar/lv_calendar.c **** {
 101:Middlewares/lvgl/src/extra/widgets/calendar/lv_calendar.c ****     lv_calendar_t * calendar = (lv_calendar_t *)obj;
 102:Middlewares/lvgl/src/extra/widgets/calendar/lv_calendar.c ****     calendar->showed_date.year   = year;
 103:Middlewares/lvgl/src/extra/widgets/calendar/lv_calendar.c ****     calendar->showed_date.month  = month;
 104:Middlewares/lvgl/src/extra/widgets/calendar/lv_calendar.c ****     calendar->showed_date.day    = 1;
 105:Middlewares/lvgl/src/extra/widgets/calendar/lv_calendar.c **** 
 106:Middlewares/lvgl/src/extra/widgets/calendar/lv_calendar.c ****     lv_calendar_date_t d;
 107:Middlewares/lvgl/src/extra/widgets/calendar/lv_calendar.c ****     d.year = calendar->showed_date.year;
 108:Middlewares/lvgl/src/extra/widgets/calendar/lv_calendar.c ****     d.month = calendar->showed_date.month;
 109:Middlewares/lvgl/src/extra/widgets/calendar/lv_calendar.c ****     d.day = calendar->showed_date.day;
 110:Middlewares/lvgl/src/extra/widgets/calendar/lv_calendar.c **** 
 111:Middlewares/lvgl/src/extra/widgets/calendar/lv_calendar.c ****     uint8_t i;
 112:Middlewares/lvgl/src/extra/widgets/calendar/lv_calendar.c **** 
 113:Middlewares/lvgl/src/extra/widgets/calendar/lv_calendar.c ****     /*Remove the disabled state but revert it for day names*/
 114:Middlewares/lvgl/src/extra/widgets/calendar/lv_calendar.c ****     lv_btnmatrix_clear_btn_ctrl_all(obj, LV_BTNMATRIX_CTRL_DISABLED);
 115:Middlewares/lvgl/src/extra/widgets/calendar/lv_calendar.c ****     for(i = 0; i < 7; i++) {
 116:Middlewares/lvgl/src/extra/widgets/calendar/lv_calendar.c ****         lv_btnmatrix_set_btn_ctrl(obj, i, LV_BTNMATRIX_CTRL_DISABLED);
 117:Middlewares/lvgl/src/extra/widgets/calendar/lv_calendar.c ****     }
 118:Middlewares/lvgl/src/extra/widgets/calendar/lv_calendar.c **** 
 119:Middlewares/lvgl/src/extra/widgets/calendar/lv_calendar.c ****     uint8_t act_mo_len = get_month_length(d.year, d.month);
 120:Middlewares/lvgl/src/extra/widgets/calendar/lv_calendar.c ****     uint8_t day_first = get_day_of_week(d.year, d.month, 1);
 121:Middlewares/lvgl/src/extra/widgets/calendar/lv_calendar.c ****     uint8_t c;
 122:Middlewares/lvgl/src/extra/widgets/calendar/lv_calendar.c ****     for(i = day_first, c = 1; i < act_mo_len + day_first; i++, c++) {
 123:Middlewares/lvgl/src/extra/widgets/calendar/lv_calendar.c ****         lv_snprintf(calendar->nums[i], sizeof(calendar->nums[0]), "%d", c);
 124:Middlewares/lvgl/src/extra/widgets/calendar/lv_calendar.c ****     }
 125:Middlewares/lvgl/src/extra/widgets/calendar/lv_calendar.c **** 
 126:Middlewares/lvgl/src/extra/widgets/calendar/lv_calendar.c ****     uint8_t prev_mo_len = get_month_length(d.year, d.month - 1);
 127:Middlewares/lvgl/src/extra/widgets/calendar/lv_calendar.c ****     for(i = 0, c = prev_mo_len - day_first + 1; i < day_first; i++, c++) {
 128:Middlewares/lvgl/src/extra/widgets/calendar/lv_calendar.c ****         lv_snprintf(calendar->nums[i], sizeof(calendar->nums[0]), "%d", c);
 129:Middlewares/lvgl/src/extra/widgets/calendar/lv_calendar.c ****         lv_btnmatrix_set_btn_ctrl(obj, i + 7, LV_BTNMATRIX_CTRL_DISABLED);
 130:Middlewares/lvgl/src/extra/widgets/calendar/lv_calendar.c ****     }
 131:Middlewares/lvgl/src/extra/widgets/calendar/lv_calendar.c **** 
 132:Middlewares/lvgl/src/extra/widgets/calendar/lv_calendar.c ****     for(i = day_first + act_mo_len, c = 1; i < 6 * 7; i++, c++) {
 133:Middlewares/lvgl/src/extra/widgets/calendar/lv_calendar.c ****         lv_snprintf(calendar->nums[i], sizeof(calendar->nums[0]), "%d", c);
 134:Middlewares/lvgl/src/extra/widgets/calendar/lv_calendar.c ****         lv_btnmatrix_set_btn_ctrl(obj, i + 7, LV_BTNMATRIX_CTRL_DISABLED);
 135:Middlewares/lvgl/src/extra/widgets/calendar/lv_calendar.c ****     }
 136:Middlewares/lvgl/src/extra/widgets/calendar/lv_calendar.c **** 
 137:Middlewares/lvgl/src/extra/widgets/calendar/lv_calendar.c ****     highlight_update(obj);
 138:Middlewares/lvgl/src/extra/widgets/calendar/lv_calendar.c ****     lv_obj_invalidate(obj);
 139:Middlewares/lvgl/src/extra/widgets/calendar/lv_calendar.c **** }
 140:Middlewares/lvgl/src/extra/widgets/calendar/lv_calendar.c **** 
 141:Middlewares/lvgl/src/extra/widgets/calendar/lv_calendar.c **** /*=====================
 142:Middlewares/lvgl/src/extra/widgets/calendar/lv_calendar.c ****  * Getter functions
 143:Middlewares/lvgl/src/extra/widgets/calendar/lv_calendar.c ****  *====================*/
 144:Middlewares/lvgl/src/extra/widgets/calendar/lv_calendar.c **** 
 145:Middlewares/lvgl/src/extra/widgets/calendar/lv_calendar.c **** /**
ARM GAS  /tmp/cc8F9tO6.s 			page 4


 146:Middlewares/lvgl/src/extra/widgets/calendar/lv_calendar.c ****  * Get the today's date
 147:Middlewares/lvgl/src/extra/widgets/calendar/lv_calendar.c ****  * @param calendar pointer to a calendar object
 148:Middlewares/lvgl/src/extra/widgets/calendar/lv_calendar.c ****  * @return return pointer to an `lv_calendar_date_t` variable containing the date of today.
 149:Middlewares/lvgl/src/extra/widgets/calendar/lv_calendar.c ****  */
 150:Middlewares/lvgl/src/extra/widgets/calendar/lv_calendar.c **** const lv_calendar_date_t * lv_calendar_get_today_date(const lv_obj_t * obj)
 151:Middlewares/lvgl/src/extra/widgets/calendar/lv_calendar.c **** {
 152:Middlewares/lvgl/src/extra/widgets/calendar/lv_calendar.c ****     const lv_calendar_t * calendar = (lv_calendar_t *)obj;
 153:Middlewares/lvgl/src/extra/widgets/calendar/lv_calendar.c ****     return &calendar->today;
 154:Middlewares/lvgl/src/extra/widgets/calendar/lv_calendar.c **** }
 155:Middlewares/lvgl/src/extra/widgets/calendar/lv_calendar.c **** 
 156:Middlewares/lvgl/src/extra/widgets/calendar/lv_calendar.c **** /**
 157:Middlewares/lvgl/src/extra/widgets/calendar/lv_calendar.c ****  * Get the currently showed
 158:Middlewares/lvgl/src/extra/widgets/calendar/lv_calendar.c ****  * @param calendar pointer to a calendar object
 159:Middlewares/lvgl/src/extra/widgets/calendar/lv_calendar.c ****  * @return pointer to an `lv_calendar_date_t` variable containing the date is being shown.
 160:Middlewares/lvgl/src/extra/widgets/calendar/lv_calendar.c ****  */
 161:Middlewares/lvgl/src/extra/widgets/calendar/lv_calendar.c **** const lv_calendar_date_t * lv_calendar_get_showed_date(const lv_obj_t * obj)
 162:Middlewares/lvgl/src/extra/widgets/calendar/lv_calendar.c **** {
 163:Middlewares/lvgl/src/extra/widgets/calendar/lv_calendar.c ****     const lv_calendar_t * calendar = (lv_calendar_t *)obj;
 164:Middlewares/lvgl/src/extra/widgets/calendar/lv_calendar.c ****     return &calendar->showed_date;
 165:Middlewares/lvgl/src/extra/widgets/calendar/lv_calendar.c **** }
 166:Middlewares/lvgl/src/extra/widgets/calendar/lv_calendar.c **** 
 167:Middlewares/lvgl/src/extra/widgets/calendar/lv_calendar.c **** /**
 168:Middlewares/lvgl/src/extra/widgets/calendar/lv_calendar.c ****  * Get the the highlighted dates
 169:Middlewares/lvgl/src/extra/widgets/calendar/lv_calendar.c ****  * @param calendar pointer to a calendar object
 170:Middlewares/lvgl/src/extra/widgets/calendar/lv_calendar.c ****  * @return pointer to an `lv_calendar_date_t` array containing the dates.
 171:Middlewares/lvgl/src/extra/widgets/calendar/lv_calendar.c ****  */
 172:Middlewares/lvgl/src/extra/widgets/calendar/lv_calendar.c **** lv_calendar_date_t * lv_calendar_get_highlighted_dates(const lv_obj_t * obj)
 173:Middlewares/lvgl/src/extra/widgets/calendar/lv_calendar.c **** {
 174:Middlewares/lvgl/src/extra/widgets/calendar/lv_calendar.c ****     lv_calendar_t * calendar = (lv_calendar_t *)obj;
 175:Middlewares/lvgl/src/extra/widgets/calendar/lv_calendar.c ****     return calendar->highlighted_dates;
 176:Middlewares/lvgl/src/extra/widgets/calendar/lv_calendar.c **** }
 177:Middlewares/lvgl/src/extra/widgets/calendar/lv_calendar.c **** 
 178:Middlewares/lvgl/src/extra/widgets/calendar/lv_calendar.c **** uint16_t lv_calendar_get_highlighted_dates_num(const lv_obj_t * obj)
 179:Middlewares/lvgl/src/extra/widgets/calendar/lv_calendar.c **** {
 180:Middlewares/lvgl/src/extra/widgets/calendar/lv_calendar.c ****     lv_calendar_t * calendar = (lv_calendar_t *)obj;
 181:Middlewares/lvgl/src/extra/widgets/calendar/lv_calendar.c ****     return calendar->highlighted_dates_num;
 182:Middlewares/lvgl/src/extra/widgets/calendar/lv_calendar.c **** }
 183:Middlewares/lvgl/src/extra/widgets/calendar/lv_calendar.c **** 
 184:Middlewares/lvgl/src/extra/widgets/calendar/lv_calendar.c **** lv_res_t lv_calendar_get_pressed_date(const lv_obj_t * obj, lv_calendar_date_t * date)
 185:Middlewares/lvgl/src/extra/widgets/calendar/lv_calendar.c **** {
 186:Middlewares/lvgl/src/extra/widgets/calendar/lv_calendar.c ****     lv_calendar_t * calendar = (lv_calendar_t *)obj;
 187:Middlewares/lvgl/src/extra/widgets/calendar/lv_calendar.c ****     uint16_t d = lv_btnmatrix_get_selected_btn(obj);
 188:Middlewares/lvgl/src/extra/widgets/calendar/lv_calendar.c ****     if(d == LV_BTNMATRIX_BTN_NONE) {
 189:Middlewares/lvgl/src/extra/widgets/calendar/lv_calendar.c ****         date->year = 0;
 190:Middlewares/lvgl/src/extra/widgets/calendar/lv_calendar.c ****         date->month = 0;
 191:Middlewares/lvgl/src/extra/widgets/calendar/lv_calendar.c ****         date->day = 0;
 192:Middlewares/lvgl/src/extra/widgets/calendar/lv_calendar.c ****         return LV_RES_INV;
 193:Middlewares/lvgl/src/extra/widgets/calendar/lv_calendar.c ****     }
 194:Middlewares/lvgl/src/extra/widgets/calendar/lv_calendar.c **** 
 195:Middlewares/lvgl/src/extra/widgets/calendar/lv_calendar.c ****     const char * txt = lv_btnmatrix_get_btn_text(obj, lv_btnmatrix_get_selected_btn(obj));
 196:Middlewares/lvgl/src/extra/widgets/calendar/lv_calendar.c **** 
 197:Middlewares/lvgl/src/extra/widgets/calendar/lv_calendar.c ****     if(txt[1] == 0) date->day = txt[0] - '0';
 198:Middlewares/lvgl/src/extra/widgets/calendar/lv_calendar.c ****     else date->day = (txt[0] - '0') * 10 + (txt[1] - '0');
 199:Middlewares/lvgl/src/extra/widgets/calendar/lv_calendar.c **** 
 200:Middlewares/lvgl/src/extra/widgets/calendar/lv_calendar.c ****     date->year = calendar->showed_date.year;
 201:Middlewares/lvgl/src/extra/widgets/calendar/lv_calendar.c ****     date->month = calendar->showed_date.month;
 202:Middlewares/lvgl/src/extra/widgets/calendar/lv_calendar.c **** 
ARM GAS  /tmp/cc8F9tO6.s 			page 5


 203:Middlewares/lvgl/src/extra/widgets/calendar/lv_calendar.c ****     return LV_RES_OK;
 204:Middlewares/lvgl/src/extra/widgets/calendar/lv_calendar.c **** }
 205:Middlewares/lvgl/src/extra/widgets/calendar/lv_calendar.c **** 
 206:Middlewares/lvgl/src/extra/widgets/calendar/lv_calendar.c **** 
 207:Middlewares/lvgl/src/extra/widgets/calendar/lv_calendar.c **** /**********************
 208:Middlewares/lvgl/src/extra/widgets/calendar/lv_calendar.c ****  *  STATIC FUNCTIONS
 209:Middlewares/lvgl/src/extra/widgets/calendar/lv_calendar.c ****  **********************/
 210:Middlewares/lvgl/src/extra/widgets/calendar/lv_calendar.c **** 
 211:Middlewares/lvgl/src/extra/widgets/calendar/lv_calendar.c **** static void lv_calendar_constructor(const lv_obj_class_t * class_p, lv_obj_t * obj)
 212:Middlewares/lvgl/src/extra/widgets/calendar/lv_calendar.c **** {
 213:Middlewares/lvgl/src/extra/widgets/calendar/lv_calendar.c ****     LV_UNUSED(class_p);
 214:Middlewares/lvgl/src/extra/widgets/calendar/lv_calendar.c ****     lv_calendar_t * calendar = (lv_calendar_t *)obj;
 215:Middlewares/lvgl/src/extra/widgets/calendar/lv_calendar.c **** 
 216:Middlewares/lvgl/src/extra/widgets/calendar/lv_calendar.c ****     /*Initialize the allocated 'ext'*/
 217:Middlewares/lvgl/src/extra/widgets/calendar/lv_calendar.c ****     calendar->today.year  = 2020;
 218:Middlewares/lvgl/src/extra/widgets/calendar/lv_calendar.c ****     calendar->today.month = 1;
 219:Middlewares/lvgl/src/extra/widgets/calendar/lv_calendar.c ****     calendar->today.day   = 1;
 220:Middlewares/lvgl/src/extra/widgets/calendar/lv_calendar.c **** 
 221:Middlewares/lvgl/src/extra/widgets/calendar/lv_calendar.c ****     calendar->showed_date.year  = 2020;
 222:Middlewares/lvgl/src/extra/widgets/calendar/lv_calendar.c ****     calendar->showed_date.month = 1;
 223:Middlewares/lvgl/src/extra/widgets/calendar/lv_calendar.c ****     calendar->showed_date.day   = 1;
 224:Middlewares/lvgl/src/extra/widgets/calendar/lv_calendar.c **** 
 225:Middlewares/lvgl/src/extra/widgets/calendar/lv_calendar.c ****     calendar->highlighted_dates      = NULL;
 226:Middlewares/lvgl/src/extra/widgets/calendar/lv_calendar.c ****     calendar->highlighted_dates_num  = 0;
 227:Middlewares/lvgl/src/extra/widgets/calendar/lv_calendar.c **** 
 228:Middlewares/lvgl/src/extra/widgets/calendar/lv_calendar.c ****     lv_memset_00(calendar->nums, sizeof(calendar->nums));
 229:Middlewares/lvgl/src/extra/widgets/calendar/lv_calendar.c ****     uint8_t i;
 230:Middlewares/lvgl/src/extra/widgets/calendar/lv_calendar.c ****     uint8_t j = 0;
 231:Middlewares/lvgl/src/extra/widgets/calendar/lv_calendar.c ****     for(i = 0; i < 8 * 7; i++) {
 232:Middlewares/lvgl/src/extra/widgets/calendar/lv_calendar.c ****         /*Every 8th string is "\n"*/
 233:Middlewares/lvgl/src/extra/widgets/calendar/lv_calendar.c ****         if(i != 0 && (i + 1) % 8 == 0) {
 234:Middlewares/lvgl/src/extra/widgets/calendar/lv_calendar.c ****             calendar->map[i] = "\n";
 235:Middlewares/lvgl/src/extra/widgets/calendar/lv_calendar.c ****         } else if(i < 8){
 236:Middlewares/lvgl/src/extra/widgets/calendar/lv_calendar.c ****             calendar->map[i] = day_names_def[i];
 237:Middlewares/lvgl/src/extra/widgets/calendar/lv_calendar.c ****         } else {
 238:Middlewares/lvgl/src/extra/widgets/calendar/lv_calendar.c ****             calendar->nums[j][0] = 'x';
 239:Middlewares/lvgl/src/extra/widgets/calendar/lv_calendar.c ****             calendar->map[i] = calendar->nums[j];
 240:Middlewares/lvgl/src/extra/widgets/calendar/lv_calendar.c ****             j++;
 241:Middlewares/lvgl/src/extra/widgets/calendar/lv_calendar.c ****         }
 242:Middlewares/lvgl/src/extra/widgets/calendar/lv_calendar.c ****     }
 243:Middlewares/lvgl/src/extra/widgets/calendar/lv_calendar.c ****     calendar->map[8 * 7 - 1] = "";
 244:Middlewares/lvgl/src/extra/widgets/calendar/lv_calendar.c **** 
 245:Middlewares/lvgl/src/extra/widgets/calendar/lv_calendar.c ****     lv_btnmatrix_set_map(obj, calendar->map);
 246:Middlewares/lvgl/src/extra/widgets/calendar/lv_calendar.c ****     lv_btnmatrix_set_btn_ctrl_all(obj, LV_BTNMATRIX_CTRL_CLICK_TRIG | LV_BTNMATRIX_CTRL_NO_REPEAT);
 247:Middlewares/lvgl/src/extra/widgets/calendar/lv_calendar.c **** 
 248:Middlewares/lvgl/src/extra/widgets/calendar/lv_calendar.c **** 
 249:Middlewares/lvgl/src/extra/widgets/calendar/lv_calendar.c ****     lv_calendar_set_showed_date(obj, calendar->showed_date.year, calendar->showed_date.month);
 250:Middlewares/lvgl/src/extra/widgets/calendar/lv_calendar.c ****     lv_calendar_set_today_date(obj, calendar->today.year, calendar->today.month, calendar->today.da
 251:Middlewares/lvgl/src/extra/widgets/calendar/lv_calendar.c **** 
 252:Middlewares/lvgl/src/extra/widgets/calendar/lv_calendar.c ****     lv_obj_add_event_cb(obj, draw_part_begin_event_cb, LV_EVENT_DRAW_PART_BEGIN, NULL);
 253:Middlewares/lvgl/src/extra/widgets/calendar/lv_calendar.c **** }
 254:Middlewares/lvgl/src/extra/widgets/calendar/lv_calendar.c **** 
 255:Middlewares/lvgl/src/extra/widgets/calendar/lv_calendar.c **** static void draw_part_begin_event_cb(lv_event_t * e)
 256:Middlewares/lvgl/src/extra/widgets/calendar/lv_calendar.c **** {
 257:Middlewares/lvgl/src/extra/widgets/calendar/lv_calendar.c ****     lv_obj_t * obj = lv_event_get_target(e);
 258:Middlewares/lvgl/src/extra/widgets/calendar/lv_calendar.c ****     lv_obj_draw_part_dsc_t * dsc = lv_event_get_param(e);
 259:Middlewares/lvgl/src/extra/widgets/calendar/lv_calendar.c ****     if(dsc->part == LV_PART_ITEMS) {
ARM GAS  /tmp/cc8F9tO6.s 			page 6


 260:Middlewares/lvgl/src/extra/widgets/calendar/lv_calendar.c ****         /*Day name styles*/
 261:Middlewares/lvgl/src/extra/widgets/calendar/lv_calendar.c ****         if(dsc->id < 7) {
 262:Middlewares/lvgl/src/extra/widgets/calendar/lv_calendar.c ****             dsc->rect_dsc->bg_opa = LV_OPA_TRANSP;
 263:Middlewares/lvgl/src/extra/widgets/calendar/lv_calendar.c ****             dsc->rect_dsc->border_opa = LV_OPA_TRANSP;
 264:Middlewares/lvgl/src/extra/widgets/calendar/lv_calendar.c ****         }
 265:Middlewares/lvgl/src/extra/widgets/calendar/lv_calendar.c ****         else if(lv_btnmatrix_has_btn_ctrl(obj, dsc->id, LV_BTNMATRIX_CTRL_DISABLED)) {
 266:Middlewares/lvgl/src/extra/widgets/calendar/lv_calendar.c ****             dsc->rect_dsc->bg_opa = LV_OPA_TRANSP;
 267:Middlewares/lvgl/src/extra/widgets/calendar/lv_calendar.c ****             dsc->rect_dsc->border_opa = LV_OPA_TRANSP;
 268:Middlewares/lvgl/src/extra/widgets/calendar/lv_calendar.c ****             dsc->label_dsc->color = lv_palette_main(LV_PALETTE_GREY);
 269:Middlewares/lvgl/src/extra/widgets/calendar/lv_calendar.c ****         }
 270:Middlewares/lvgl/src/extra/widgets/calendar/lv_calendar.c **** 
 271:Middlewares/lvgl/src/extra/widgets/calendar/lv_calendar.c ****         if(lv_btnmatrix_has_btn_ctrl(obj, dsc->id, LV_CALENDAR_CTRL_HIGHLIGHT)) {
 272:Middlewares/lvgl/src/extra/widgets/calendar/lv_calendar.c ****             dsc->rect_dsc->bg_opa = LV_OPA_40;
 273:Middlewares/lvgl/src/extra/widgets/calendar/lv_calendar.c ****             dsc->rect_dsc->bg_color = lv_theme_get_color_primary(obj);
 274:Middlewares/lvgl/src/extra/widgets/calendar/lv_calendar.c ****             if(lv_btnmatrix_get_selected_btn(obj) == dsc->id) {
 275:Middlewares/lvgl/src/extra/widgets/calendar/lv_calendar.c ****                 dsc->rect_dsc->bg_opa = LV_OPA_70;
 276:Middlewares/lvgl/src/extra/widgets/calendar/lv_calendar.c ****             }
 277:Middlewares/lvgl/src/extra/widgets/calendar/lv_calendar.c ****         }
 278:Middlewares/lvgl/src/extra/widgets/calendar/lv_calendar.c **** 
 279:Middlewares/lvgl/src/extra/widgets/calendar/lv_calendar.c ****         if(lv_btnmatrix_has_btn_ctrl(obj, dsc->id, LV_CALENDAR_CTRL_TODAY)) {
 280:Middlewares/lvgl/src/extra/widgets/calendar/lv_calendar.c ****             dsc->rect_dsc->border_opa = LV_OPA_COVER;
 281:Middlewares/lvgl/src/extra/widgets/calendar/lv_calendar.c ****             dsc->rect_dsc->border_color = lv_theme_get_color_primary(obj);
 282:Middlewares/lvgl/src/extra/widgets/calendar/lv_calendar.c ****             dsc->rect_dsc->border_width += 1;
 283:Middlewares/lvgl/src/extra/widgets/calendar/lv_calendar.c ****         }
 284:Middlewares/lvgl/src/extra/widgets/calendar/lv_calendar.c **** 
 285:Middlewares/lvgl/src/extra/widgets/calendar/lv_calendar.c ****     }
 286:Middlewares/lvgl/src/extra/widgets/calendar/lv_calendar.c **** }
 287:Middlewares/lvgl/src/extra/widgets/calendar/lv_calendar.c **** 
 288:Middlewares/lvgl/src/extra/widgets/calendar/lv_calendar.c **** 
 289:Middlewares/lvgl/src/extra/widgets/calendar/lv_calendar.c **** 
 290:Middlewares/lvgl/src/extra/widgets/calendar/lv_calendar.c **** 
 291:Middlewares/lvgl/src/extra/widgets/calendar/lv_calendar.c **** /**
 292:Middlewares/lvgl/src/extra/widgets/calendar/lv_calendar.c ****  * Get the number of days in a month
 293:Middlewares/lvgl/src/extra/widgets/calendar/lv_calendar.c ****  * @param year a year
 294:Middlewares/lvgl/src/extra/widgets/calendar/lv_calendar.c ****  * @param month a month. The range is basically [1..12] but [-11..0] or [13..24] is also
 295:Middlewares/lvgl/src/extra/widgets/calendar/lv_calendar.c ****  *              supported to handle next/prev. year
 296:Middlewares/lvgl/src/extra/widgets/calendar/lv_calendar.c ****  * @return [28..31]
 297:Middlewares/lvgl/src/extra/widgets/calendar/lv_calendar.c ****  */
 298:Middlewares/lvgl/src/extra/widgets/calendar/lv_calendar.c **** static uint8_t get_month_length(int32_t year, int32_t month)
 299:Middlewares/lvgl/src/extra/widgets/calendar/lv_calendar.c **** {
 300:Middlewares/lvgl/src/extra/widgets/calendar/lv_calendar.c ****     month--;
 301:Middlewares/lvgl/src/extra/widgets/calendar/lv_calendar.c ****     if(month < 0) {
 302:Middlewares/lvgl/src/extra/widgets/calendar/lv_calendar.c ****         year--;             /*Already in the previous year (won't be less then -12 to skip a whole 
 303:Middlewares/lvgl/src/extra/widgets/calendar/lv_calendar.c ****         month = 12 + month; /*`month` is negative, the result will be < 12*/
 304:Middlewares/lvgl/src/extra/widgets/calendar/lv_calendar.c ****     }
 305:Middlewares/lvgl/src/extra/widgets/calendar/lv_calendar.c ****     if(month >= 12) {
 306:Middlewares/lvgl/src/extra/widgets/calendar/lv_calendar.c ****         year++;
 307:Middlewares/lvgl/src/extra/widgets/calendar/lv_calendar.c ****         month -= 12;
 308:Middlewares/lvgl/src/extra/widgets/calendar/lv_calendar.c ****     }
 309:Middlewares/lvgl/src/extra/widgets/calendar/lv_calendar.c **** 
 310:Middlewares/lvgl/src/extra/widgets/calendar/lv_calendar.c ****     /*month == 1 is february*/
 311:Middlewares/lvgl/src/extra/widgets/calendar/lv_calendar.c ****     return (month == 1) ? (28 + is_leap_year(year)) : 31 - month % 7 % 2;
 312:Middlewares/lvgl/src/extra/widgets/calendar/lv_calendar.c **** }
 313:Middlewares/lvgl/src/extra/widgets/calendar/lv_calendar.c **** 
 314:Middlewares/lvgl/src/extra/widgets/calendar/lv_calendar.c **** /**
 315:Middlewares/lvgl/src/extra/widgets/calendar/lv_calendar.c ****  * Tells whether a year is leap year or not
 316:Middlewares/lvgl/src/extra/widgets/calendar/lv_calendar.c ****  * @param year a year
ARM GAS  /tmp/cc8F9tO6.s 			page 7


 317:Middlewares/lvgl/src/extra/widgets/calendar/lv_calendar.c ****  * @return 0: not leap year; 1: leap year
 318:Middlewares/lvgl/src/extra/widgets/calendar/lv_calendar.c ****  */
 319:Middlewares/lvgl/src/extra/widgets/calendar/lv_calendar.c **** static uint8_t is_leap_year(uint32_t year)
 320:Middlewares/lvgl/src/extra/widgets/calendar/lv_calendar.c **** {
  28              		.loc 1 320 1 view -0
  29              		.cfi_startproc
  30              		@ args = 0, pretend = 0, frame = 0
  31              		@ frame_needed = 0, uses_anonymous_args = 0
  32              		@ link register save eliminated.
 321:Middlewares/lvgl/src/extra/widgets/calendar/lv_calendar.c ****     return (year % 4) || ((year % 100 == 0) && (year % 400)) ? 0 : 1;
  33              		.loc 1 321 5 view .LVU1
  34              		.loc 1 321 66 is_stmt 0 view .LVU2
  35 0000 10F0030F 		tst	r0, #3
  36 0004 12D1     		bne	.L3
  37              		.loc 1 321 33 discriminator 1 view .LVU3
  38 0006 0C4B     		ldr	r3, .L6
  39 0008 A3FB0023 		umull	r2, r3, r3, r0
  40 000c 5B09     		lsrs	r3, r3, #5
  41 000e 6422     		movs	r2, #100
  42 0010 02FB1303 		mls	r3, r2, r3, r0
  43              		.loc 1 321 66 discriminator 1 view .LVU4
  44 0014 63B9     		cbnz	r3, .L4
  45              		.loc 1 321 54 discriminator 4 view .LVU5
  46 0016 084B     		ldr	r3, .L6
  47 0018 A3FB0023 		umull	r2, r3, r3, r0
  48 001c DB09     		lsrs	r3, r3, #7
  49 001e 4FF4C872 		mov	r2, #400
  50 0022 02FB1303 		mls	r3, r2, r3, r0
  51              		.loc 1 321 45 discriminator 4 view .LVU6
  52 0026 2BB1     		cbz	r3, .L5
  53              		.loc 1 321 66 view .LVU7
  54 0028 0020     		movs	r0, #0
  55              	.LVL1:
  56              		.loc 1 321 66 view .LVU8
  57 002a 7047     		bx	lr
  58              	.LVL2:
  59              	.L3:
  60              		.loc 1 321 66 view .LVU9
  61 002c 0020     		movs	r0, #0
  62              	.LVL3:
  63              		.loc 1 321 66 view .LVU10
  64 002e 7047     		bx	lr
  65              	.LVL4:
  66              	.L4:
  67              		.loc 1 321 66 view .LVU11
  68 0030 0120     		movs	r0, #1
  69              	.LVL5:
  70              		.loc 1 321 66 view .LVU12
  71 0032 7047     		bx	lr
  72              	.LVL6:
  73              	.L5:
  74              		.loc 1 321 66 view .LVU13
  75 0034 0120     		movs	r0, #1
  76              	.LVL7:
 322:Middlewares/lvgl/src/extra/widgets/calendar/lv_calendar.c **** }
  77              		.loc 1 322 1 view .LVU14
  78 0036 7047     		bx	lr
ARM GAS  /tmp/cc8F9tO6.s 			page 8


  79              	.L7:
  80              		.align	2
  81              	.L6:
  82 0038 1F85EB51 		.word	1374389535
  83              		.cfi_endproc
  84              	.LFE197:
  86              		.section	.text.get_month_length,"ax",%progbits
  87              		.align	1
  88              		.syntax unified
  89              		.thumb
  90              		.thumb_func
  92              	get_month_length:
  93              	.LVL8:
  94              	.LFB196:
 299:Middlewares/lvgl/src/extra/widgets/calendar/lv_calendar.c ****     month--;
  95              		.loc 1 299 1 is_stmt 1 view -0
  96              		.cfi_startproc
  97              		@ args = 0, pretend = 0, frame = 0
  98              		@ frame_needed = 0, uses_anonymous_args = 0
 299:Middlewares/lvgl/src/extra/widgets/calendar/lv_calendar.c ****     month--;
  99              		.loc 1 299 1 is_stmt 0 view .LVU16
 100 0000 08B5     		push	{r3, lr}
 101              	.LCFI0:
 102              		.cfi_def_cfa_offset 8
 103              		.cfi_offset 3, -8
 104              		.cfi_offset 14, -4
 300:Middlewares/lvgl/src/extra/widgets/calendar/lv_calendar.c ****     if(month < 0) {
 105              		.loc 1 300 5 is_stmt 1 view .LVU17
 106              	.LVL9:
 301:Middlewares/lvgl/src/extra/widgets/calendar/lv_calendar.c ****         year--;             /*Already in the previous year (won't be less then -12 to skip a whole 
 107              		.loc 1 301 5 view .LVU18
 301:Middlewares/lvgl/src/extra/widgets/calendar/lv_calendar.c ****         year--;             /*Already in the previous year (won't be less then -12 to skip a whole 
 108              		.loc 1 301 7 is_stmt 0 view .LVU19
 109 0002 4A1E     		subs	r2, r1, #1
 110              	.LVL10:
 301:Middlewares/lvgl/src/extra/widgets/calendar/lv_calendar.c ****         year--;             /*Already in the previous year (won't be less then -12 to skip a whole 
 111              		.loc 1 301 7 view .LVU20
 112 0004 18D4     		bmi	.L14
 113              	.L9:
 305:Middlewares/lvgl/src/extra/widgets/calendar/lv_calendar.c ****         year++;
 114              		.loc 1 305 5 is_stmt 1 view .LVU21
 305:Middlewares/lvgl/src/extra/widgets/calendar/lv_calendar.c ****         year++;
 115              		.loc 1 305 7 is_stmt 0 view .LVU22
 116 0006 0B2A     		cmp	r2, #11
 117 0008 01DD     		ble	.L10
 306:Middlewares/lvgl/src/extra/widgets/calendar/lv_calendar.c ****         month -= 12;
 118              		.loc 1 306 9 is_stmt 1 view .LVU23
 306:Middlewares/lvgl/src/extra/widgets/calendar/lv_calendar.c ****         month -= 12;
 119              		.loc 1 306 13 is_stmt 0 view .LVU24
 120 000a 0130     		adds	r0, r0, #1
 121              	.LVL11:
 307:Middlewares/lvgl/src/extra/widgets/calendar/lv_calendar.c ****     }
 122              		.loc 1 307 9 is_stmt 1 view .LVU25
 307:Middlewares/lvgl/src/extra/widgets/calendar/lv_calendar.c ****     }
 123              		.loc 1 307 15 is_stmt 0 view .LVU26
 124 000c 0C3A     		subs	r2, r2, #12
 125              	.LVL12:
ARM GAS  /tmp/cc8F9tO6.s 			page 9


 126              	.L10:
 311:Middlewares/lvgl/src/extra/widgets/calendar/lv_calendar.c **** }
 127              		.loc 1 311 5 is_stmt 1 view .LVU27
 311:Middlewares/lvgl/src/extra/widgets/calendar/lv_calendar.c **** }
 128              		.loc 1 311 53 is_stmt 0 view .LVU28
 129 000e 012A     		cmp	r2, #1
 130 0010 16D0     		beq	.L15
 311:Middlewares/lvgl/src/extra/widgets/calendar/lv_calendar.c **** }
 131              		.loc 1 311 66 discriminator 2 view .LVU29
 132 0012 0E4B     		ldr	r3, .L16
 133 0014 83FB0213 		smull	r1, r3, r3, r2
 134 0018 9918     		adds	r1, r3, r2
 135 001a D317     		asrs	r3, r2, #31
 136 001c C3EBA103 		rsb	r3, r3, r1, asr #2
 137 0020 C3EBC303 		rsb	r3, r3, r3, lsl #3
 311:Middlewares/lvgl/src/extra/widgets/calendar/lv_calendar.c **** }
 138              		.loc 1 311 70 discriminator 2 view .LVU30
 139 0024 D31A     		subs	r3, r2, r3
 140 0026 03F00103 		and	r3, r3, #1
 141 002a 48BF     		it	mi
 142 002c 5B42     		rsbmi	r3, r3, #0
 311:Middlewares/lvgl/src/extra/widgets/calendar/lv_calendar.c **** }
 143              		.loc 1 311 58 discriminator 2 view .LVU31
 144 002e D8B2     		uxtb	r0, r3
 145              	.LVL13:
 311:Middlewares/lvgl/src/extra/widgets/calendar/lv_calendar.c **** }
 146              		.loc 1 311 53 discriminator 2 view .LVU32
 147 0030 C0F11F00 		rsb	r0, r0, #31
 148 0034 C0B2     		uxtb	r0, r0
 149              	.LVL14:
 150              	.L12:
 312:Middlewares/lvgl/src/extra/widgets/calendar/lv_calendar.c **** 
 151              		.loc 1 312 1 discriminator 4 view .LVU33
 152 0036 08BD     		pop	{r3, pc}
 153              	.LVL15:
 154              	.L14:
 302:Middlewares/lvgl/src/extra/widgets/calendar/lv_calendar.c ****         month = 12 + month; /*`month` is negative, the result will be < 12*/
 155              		.loc 1 302 9 is_stmt 1 view .LVU34
 302:Middlewares/lvgl/src/extra/widgets/calendar/lv_calendar.c ****         month = 12 + month; /*`month` is negative, the result will be < 12*/
 156              		.loc 1 302 13 is_stmt 0 view .LVU35
 157 0038 0138     		subs	r0, r0, #1
 158              	.LVL16:
 303:Middlewares/lvgl/src/extra/widgets/calendar/lv_calendar.c ****     }
 159              		.loc 1 303 9 is_stmt 1 view .LVU36
 303:Middlewares/lvgl/src/extra/widgets/calendar/lv_calendar.c ****     }
 160              		.loc 1 303 15 is_stmt 0 view .LVU37
 161 003a 01F10B02 		add	r2, r1, #11
 162              	.LVL17:
 303:Middlewares/lvgl/src/extra/widgets/calendar/lv_calendar.c ****     }
 163              		.loc 1 303 15 view .LVU38
 164 003e E2E7     		b	.L9
 165              	.L15:
 311:Middlewares/lvgl/src/extra/widgets/calendar/lv_calendar.c **** }
 166              		.loc 1 311 33 discriminator 1 view .LVU39
 167 0040 FFF7FEFF 		bl	is_leap_year
 168              	.LVL18:
 311:Middlewares/lvgl/src/extra/widgets/calendar/lv_calendar.c **** }
ARM GAS  /tmp/cc8F9tO6.s 			page 10


 169              		.loc 1 311 53 discriminator 1 view .LVU40
 170 0044 1C30     		adds	r0, r0, #28
 171 0046 C0B2     		uxtb	r0, r0
 172 0048 F5E7     		b	.L12
 173              	.L17:
 174 004a 00BF     		.align	2
 175              	.L16:
 176 004c 93244992 		.word	-1840700269
 177              		.cfi_endproc
 178              	.LFE196:
 180              		.section	.text.get_day_of_week,"ax",%progbits
 181              		.align	1
 182              		.syntax unified
 183              		.thumb
 184              		.thumb_func
 186              	get_day_of_week:
 187              	.LVL19:
 188              	.LFB198:
 323:Middlewares/lvgl/src/extra/widgets/calendar/lv_calendar.c **** 
 324:Middlewares/lvgl/src/extra/widgets/calendar/lv_calendar.c **** /**
 325:Middlewares/lvgl/src/extra/widgets/calendar/lv_calendar.c ****  * Get the day of the week
 326:Middlewares/lvgl/src/extra/widgets/calendar/lv_calendar.c ****  * @param year a year
 327:Middlewares/lvgl/src/extra/widgets/calendar/lv_calendar.c ****  * @param month a  month [1..12]
 328:Middlewares/lvgl/src/extra/widgets/calendar/lv_calendar.c ****  * @param day a day [1..32]
 329:Middlewares/lvgl/src/extra/widgets/calendar/lv_calendar.c ****  * @return [0..6] which means [Sun..Sat] or [Mon..Sun] depending on LV_CALENDAR_WEEK_STARTS_MONDAY
 330:Middlewares/lvgl/src/extra/widgets/calendar/lv_calendar.c ****  */
 331:Middlewares/lvgl/src/extra/widgets/calendar/lv_calendar.c **** static uint8_t get_day_of_week(uint32_t year, uint32_t month, uint32_t day)
 332:Middlewares/lvgl/src/extra/widgets/calendar/lv_calendar.c **** {
 189              		.loc 1 332 1 is_stmt 1 view -0
 190              		.cfi_startproc
 191              		@ args = 0, pretend = 0, frame = 0
 192              		@ frame_needed = 0, uses_anonymous_args = 0
 193              		@ link register save eliminated.
 333:Middlewares/lvgl/src/extra/widgets/calendar/lv_calendar.c ****     uint32_t a = month < 3 ? 1 : 0;
 194              		.loc 1 333 5 view .LVU42
 195              		.loc 1 333 32 is_stmt 0 view .LVU43
 196 0000 0229     		cmp	r1, #2
 197 0002 94BF     		ite	ls
 198 0004 0123     		movls	r3, #1
 199 0006 0023     		movhi	r3, #0
 200              	.LVL20:
 334:Middlewares/lvgl/src/extra/widgets/calendar/lv_calendar.c ****     uint32_t b = year - a;
 201              		.loc 1 334 5 is_stmt 1 view .LVU44
 202              		.loc 1 334 14 is_stmt 0 view .LVU45
 203 0008 A0EB0300 		sub	r0, r0, r3
 204              	.LVL21:
 335:Middlewares/lvgl/src/extra/widgets/calendar/lv_calendar.c **** 
 336:Middlewares/lvgl/src/extra/widgets/calendar/lv_calendar.c **** #if LV_CALENDAR_WEEK_STARTS_MONDAY
 337:Middlewares/lvgl/src/extra/widgets/calendar/lv_calendar.c ****     uint32_t day_of_week = (day + (31 * (month - 2 + 12 * a) / 12) + b + (b / 4) - (b / 100) + (b /
 338:Middlewares/lvgl/src/extra/widgets/calendar/lv_calendar.c **** #else
 339:Middlewares/lvgl/src/extra/widgets/calendar/lv_calendar.c ****     uint32_t day_of_week = (day + (31 * (month - 2 + 12 * a) / 12) + b + (b / 4) - (b / 100) + (b /
 205              		.loc 1 339 5 is_stmt 1 view .LVU46
 206              		.loc 1 339 57 is_stmt 0 view .LVU47
 207 000c 94BF     		ite	ls
 208 000e 4FF00C0C 		movls	ip, #12
 209 0012 4FF0000C 		movhi	ip, #0
 210              		.loc 1 339 52 view .LVU48
ARM GAS  /tmp/cc8F9tO6.s 			page 11


 211 0016 6144     		add	r1, r1, ip
 212              	.LVL22:
 213              		.loc 1 339 39 view .LVU49
 214 0018 C1EB4113 		rsb	r3, r1, r1, lsl #5
 215              	.LVL23:
 216              		.loc 1 339 39 view .LVU50
 217 001c 3E3B     		subs	r3, r3, #62
 218              		.loc 1 339 62 view .LVU51
 219 001e 0D49     		ldr	r1, .L19
 220 0020 A1FB0313 		umull	r1, r3, r1, r3
 221              		.loc 1 339 33 view .LVU52
 222 0024 02EBD303 		add	r3, r2, r3, lsr #3
 223              		.loc 1 339 68 view .LVU53
 224 0028 0344     		add	r3, r3, r0
 225              		.loc 1 339 72 view .LVU54
 226 002a 03EB9003 		add	r3, r3, r0, lsr #2
 227              		.loc 1 339 87 view .LVU55
 228 002e 0A4A     		ldr	r2, .L19+4
 229              	.LVL24:
 230              		.loc 1 339 87 view .LVU56
 231 0030 A2FB0020 		umull	r2, r0, r2, r0
 232              	.LVL25:
 233              		.loc 1 339 82 view .LVU57
 234 0034 A3EB5013 		sub	r3, r3, r0, lsr #5
 235              		.loc 1 339 94 view .LVU58
 236 0038 03EBD013 		add	r3, r3, r0, lsr #7
 237              		.loc 1 339 14 view .LVU59
 238 003c 0748     		ldr	r0, .L19+8
 239 003e A0FB0320 		umull	r2, r0, r0, r3
 240 0042 1A1A     		subs	r2, r3, r0
 241 0044 00EB5200 		add	r0, r0, r2, lsr #1
 242 0048 8008     		lsrs	r0, r0, #2
 243 004a C0EBC000 		rsb	r0, r0, r0, lsl #3
 244 004e 181A     		subs	r0, r3, r0
 245              	.LVL26:
 340:Middlewares/lvgl/src/extra/widgets/calendar/lv_calendar.c **** #endif
 341:Middlewares/lvgl/src/extra/widgets/calendar/lv_calendar.c **** 
 342:Middlewares/lvgl/src/extra/widgets/calendar/lv_calendar.c ****     return day_of_week;
 246              		.loc 1 342 5 is_stmt 1 view .LVU60
 343:Middlewares/lvgl/src/extra/widgets/calendar/lv_calendar.c **** }
 247              		.loc 1 343 1 is_stmt 0 view .LVU61
 248 0050 C0B2     		uxtb	r0, r0
 249              	.LVL27:
 250              		.loc 1 343 1 view .LVU62
 251 0052 7047     		bx	lr
 252              	.L20:
 253              		.align	2
 254              	.L19:
 255 0054 ABAAAAAA 		.word	-1431655765
 256 0058 1F85EB51 		.word	1374389535
 257 005c 25499224 		.word	613566757
 258              		.cfi_endproc
 259              	.LFE198:
 261              		.section	.text.draw_part_begin_event_cb,"ax",%progbits
 262              		.align	1
 263              		.syntax unified
 264              		.thumb
ARM GAS  /tmp/cc8F9tO6.s 			page 12


 265              		.thumb_func
 267              	draw_part_begin_event_cb:
 268              	.LVL28:
 269              	.LFB195:
 256:Middlewares/lvgl/src/extra/widgets/calendar/lv_calendar.c ****     lv_obj_t * obj = lv_event_get_target(e);
 270              		.loc 1 256 1 is_stmt 1 view -0
 271              		.cfi_startproc
 272              		@ args = 0, pretend = 0, frame = 0
 273              		@ frame_needed = 0, uses_anonymous_args = 0
 256:Middlewares/lvgl/src/extra/widgets/calendar/lv_calendar.c ****     lv_obj_t * obj = lv_event_get_target(e);
 274              		.loc 1 256 1 is_stmt 0 view .LVU64
 275 0000 70B5     		push	{r4, r5, r6, lr}
 276              	.LCFI1:
 277              		.cfi_def_cfa_offset 16
 278              		.cfi_offset 4, -16
 279              		.cfi_offset 5, -12
 280              		.cfi_offset 6, -8
 281              		.cfi_offset 14, -4
 282 0002 0446     		mov	r4, r0
 257:Middlewares/lvgl/src/extra/widgets/calendar/lv_calendar.c ****     lv_obj_draw_part_dsc_t * dsc = lv_event_get_param(e);
 283              		.loc 1 257 5 is_stmt 1 view .LVU65
 257:Middlewares/lvgl/src/extra/widgets/calendar/lv_calendar.c ****     lv_obj_draw_part_dsc_t * dsc = lv_event_get_param(e);
 284              		.loc 1 257 22 is_stmt 0 view .LVU66
 285 0004 FFF7FEFF 		bl	lv_event_get_target
 286              	.LVL29:
 257:Middlewares/lvgl/src/extra/widgets/calendar/lv_calendar.c ****     lv_obj_draw_part_dsc_t * dsc = lv_event_get_param(e);
 287              		.loc 1 257 22 view .LVU67
 288 0008 0546     		mov	r5, r0
 289              	.LVL30:
 258:Middlewares/lvgl/src/extra/widgets/calendar/lv_calendar.c ****     if(dsc->part == LV_PART_ITEMS) {
 290              		.loc 1 258 5 is_stmt 1 view .LVU68
 258:Middlewares/lvgl/src/extra/widgets/calendar/lv_calendar.c ****     if(dsc->part == LV_PART_ITEMS) {
 291              		.loc 1 258 36 is_stmt 0 view .LVU69
 292 000a 2046     		mov	r0, r4
 293              	.LVL31:
 258:Middlewares/lvgl/src/extra/widgets/calendar/lv_calendar.c ****     if(dsc->part == LV_PART_ITEMS) {
 294              		.loc 1 258 36 view .LVU70
 295 000c FFF7FEFF 		bl	lv_event_get_param
 296              	.LVL32:
 259:Middlewares/lvgl/src/extra/widgets/calendar/lv_calendar.c ****         /*Day name styles*/
 297              		.loc 1 259 5 is_stmt 1 view .LVU71
 259:Middlewares/lvgl/src/extra/widgets/calendar/lv_calendar.c ****         /*Day name styles*/
 298              		.loc 1 259 11 is_stmt 0 view .LVU72
 299 0010 436B     		ldr	r3, [r0, #52]
 259:Middlewares/lvgl/src/extra/widgets/calendar/lv_calendar.c ****         /*Day name styles*/
 300              		.loc 1 259 7 view .LVU73
 301 0012 B3F5A02F 		cmp	r3, #327680
 302 0016 00D0     		beq	.L27
 303              	.LVL33:
 304              	.L21:
 286:Middlewares/lvgl/src/extra/widgets/calendar/lv_calendar.c **** 
 305              		.loc 1 286 1 view .LVU74
 306 0018 70BD     		pop	{r4, r5, r6, pc}
 307              	.LVL34:
 308              	.L27:
 286:Middlewares/lvgl/src/extra/widgets/calendar/lv_calendar.c **** 
 309              		.loc 1 286 1 view .LVU75
ARM GAS  /tmp/cc8F9tO6.s 			page 13


 310 001a 0446     		mov	r4, r0
 311              	.LVL35:
 261:Middlewares/lvgl/src/extra/widgets/calendar/lv_calendar.c ****             dsc->rect_dsc->bg_opa = LV_OPA_TRANSP;
 312              		.loc 1 261 9 is_stmt 1 view .LVU76
 261:Middlewares/lvgl/src/extra/widgets/calendar/lv_calendar.c ****             dsc->rect_dsc->bg_opa = LV_OPA_TRANSP;
 313              		.loc 1 261 15 is_stmt 0 view .LVU77
 314 001c 816B     		ldr	r1, [r0, #56]
 261:Middlewares/lvgl/src/extra/widgets/calendar/lv_calendar.c ****             dsc->rect_dsc->bg_opa = LV_OPA_TRANSP;
 315              		.loc 1 261 11 view .LVU78
 316 001e 0629     		cmp	r1, #6
 317 0020 20D8     		bhi	.L23
 262:Middlewares/lvgl/src/extra/widgets/calendar/lv_calendar.c ****             dsc->rect_dsc->border_opa = LV_OPA_TRANSP;
 318              		.loc 1 262 13 is_stmt 1 view .LVU79
 262:Middlewares/lvgl/src/extra/widgets/calendar/lv_calendar.c ****             dsc->rect_dsc->border_opa = LV_OPA_TRANSP;
 319              		.loc 1 262 16 is_stmt 0 view .LVU80
 320 0022 8268     		ldr	r2, [r0, #8]
 262:Middlewares/lvgl/src/extra/widgets/calendar/lv_calendar.c ****             dsc->rect_dsc->border_opa = LV_OPA_TRANSP;
 321              		.loc 1 262 35 view .LVU81
 322 0024 0023     		movs	r3, #0
 323 0026 9372     		strb	r3, [r2, #10]
 263:Middlewares/lvgl/src/extra/widgets/calendar/lv_calendar.c ****         }
 324              		.loc 1 263 13 is_stmt 1 view .LVU82
 263:Middlewares/lvgl/src/extra/widgets/calendar/lv_calendar.c ****         }
 325              		.loc 1 263 16 is_stmt 0 view .LVU83
 326 0028 8268     		ldr	r2, [r0, #8]
 263:Middlewares/lvgl/src/extra/widgets/calendar/lv_calendar.c ****         }
 327              		.loc 1 263 39 view .LVU84
 328 002a 9377     		strb	r3, [r2, #30]
 329              	.LVL36:
 330              	.L24:
 271:Middlewares/lvgl/src/extra/widgets/calendar/lv_calendar.c ****             dsc->rect_dsc->bg_opa = LV_OPA_40;
 331              		.loc 1 271 9 is_stmt 1 view .LVU85
 271:Middlewares/lvgl/src/extra/widgets/calendar/lv_calendar.c ****             dsc->rect_dsc->bg_opa = LV_OPA_40;
 332              		.loc 1 271 12 is_stmt 0 view .LVU86
 333 002c 4FF40042 		mov	r2, #32768
 334 0030 218F     		ldrh	r1, [r4, #56]
 335 0032 2846     		mov	r0, r5
 336 0034 FFF7FEFF 		bl	lv_btnmatrix_has_btn_ctrl
 337              	.LVL37:
 271:Middlewares/lvgl/src/extra/widgets/calendar/lv_calendar.c ****             dsc->rect_dsc->bg_opa = LV_OPA_40;
 338              		.loc 1 271 11 view .LVU87
 339 0038 30BB     		cbnz	r0, .L28
 340              	.L25:
 279:Middlewares/lvgl/src/extra/widgets/calendar/lv_calendar.c ****             dsc->rect_dsc->border_opa = LV_OPA_COVER;
 341              		.loc 1 279 9 is_stmt 1 view .LVU88
 279:Middlewares/lvgl/src/extra/widgets/calendar/lv_calendar.c ****             dsc->rect_dsc->border_opa = LV_OPA_COVER;
 342              		.loc 1 279 12 is_stmt 0 view .LVU89
 343 003a 4FF48042 		mov	r2, #16384
 344 003e 218F     		ldrh	r1, [r4, #56]
 345 0040 2846     		mov	r0, r5
 346 0042 FFF7FEFF 		bl	lv_btnmatrix_has_btn_ctrl
 347              	.LVL38:
 279:Middlewares/lvgl/src/extra/widgets/calendar/lv_calendar.c ****             dsc->rect_dsc->border_opa = LV_OPA_COVER;
 348              		.loc 1 279 11 view .LVU90
 349 0046 0028     		cmp	r0, #0
 350 0048 E6D0     		beq	.L21
 280:Middlewares/lvgl/src/extra/widgets/calendar/lv_calendar.c ****             dsc->rect_dsc->border_color = lv_theme_get_color_primary(obj);
ARM GAS  /tmp/cc8F9tO6.s 			page 14


 351              		.loc 1 280 13 is_stmt 1 view .LVU91
 280:Middlewares/lvgl/src/extra/widgets/calendar/lv_calendar.c ****             dsc->rect_dsc->border_color = lv_theme_get_color_primary(obj);
 352              		.loc 1 280 16 is_stmt 0 view .LVU92
 353 004a A368     		ldr	r3, [r4, #8]
 280:Middlewares/lvgl/src/extra/widgets/calendar/lv_calendar.c ****             dsc->rect_dsc->border_color = lv_theme_get_color_primary(obj);
 354              		.loc 1 280 39 view .LVU93
 355 004c FF22     		movs	r2, #255
 356 004e 9A77     		strb	r2, [r3, #30]
 281:Middlewares/lvgl/src/extra/widgets/calendar/lv_calendar.c ****             dsc->rect_dsc->border_width += 1;
 357              		.loc 1 281 13 is_stmt 1 view .LVU94
 281:Middlewares/lvgl/src/extra/widgets/calendar/lv_calendar.c ****             dsc->rect_dsc->border_width += 1;
 358              		.loc 1 281 16 is_stmt 0 view .LVU95
 359 0050 A668     		ldr	r6, [r4, #8]
 281:Middlewares/lvgl/src/extra/widgets/calendar/lv_calendar.c ****             dsc->rect_dsc->border_width += 1;
 360              		.loc 1 281 43 view .LVU96
 361 0052 2846     		mov	r0, r5
 362 0054 FFF7FEFF 		bl	lv_theme_get_color_primary
 363              	.LVL39:
 364 0058 7083     		strh	r0, [r6, #26]	@ movhi
 282:Middlewares/lvgl/src/extra/widgets/calendar/lv_calendar.c ****         }
 365              		.loc 1 282 13 is_stmt 1 view .LVU97
 282:Middlewares/lvgl/src/extra/widgets/calendar/lv_calendar.c ****         }
 366              		.loc 1 282 16 is_stmt 0 view .LVU98
 367 005a A268     		ldr	r2, [r4, #8]
 282:Middlewares/lvgl/src/extra/widgets/calendar/lv_calendar.c ****         }
 368              		.loc 1 282 41 view .LVU99
 369 005c 938B     		ldrh	r3, [r2, #28]
 370 005e 0133     		adds	r3, r3, #1
 371 0060 9383     		strh	r3, [r2, #28]	@ movhi
 286:Middlewares/lvgl/src/extra/widgets/calendar/lv_calendar.c **** 
 372              		.loc 1 286 1 view .LVU100
 373 0062 D9E7     		b	.L21
 374              	.LVL40:
 375              	.L23:
 265:Middlewares/lvgl/src/extra/widgets/calendar/lv_calendar.c ****             dsc->rect_dsc->bg_opa = LV_OPA_TRANSP;
 376              		.loc 1 265 14 is_stmt 1 view .LVU101
 265:Middlewares/lvgl/src/extra/widgets/calendar/lv_calendar.c ****             dsc->rect_dsc->bg_opa = LV_OPA_TRANSP;
 377              		.loc 1 265 17 is_stmt 0 view .LVU102
 378 0064 2022     		movs	r2, #32
 379 0066 89B2     		uxth	r1, r1
 380 0068 2846     		mov	r0, r5
 381              	.LVL41:
 265:Middlewares/lvgl/src/extra/widgets/calendar/lv_calendar.c ****             dsc->rect_dsc->bg_opa = LV_OPA_TRANSP;
 382              		.loc 1 265 17 view .LVU103
 383 006a FFF7FEFF 		bl	lv_btnmatrix_has_btn_ctrl
 384              	.LVL42:
 265:Middlewares/lvgl/src/extra/widgets/calendar/lv_calendar.c ****             dsc->rect_dsc->bg_opa = LV_OPA_TRANSP;
 385              		.loc 1 265 16 view .LVU104
 386 006e 0028     		cmp	r0, #0
 387 0070 DCD0     		beq	.L24
 266:Middlewares/lvgl/src/extra/widgets/calendar/lv_calendar.c ****             dsc->rect_dsc->border_opa = LV_OPA_TRANSP;
 388              		.loc 1 266 13 is_stmt 1 view .LVU105
 266:Middlewares/lvgl/src/extra/widgets/calendar/lv_calendar.c ****             dsc->rect_dsc->border_opa = LV_OPA_TRANSP;
 389              		.loc 1 266 16 is_stmt 0 view .LVU106
 390 0072 A268     		ldr	r2, [r4, #8]
 266:Middlewares/lvgl/src/extra/widgets/calendar/lv_calendar.c ****             dsc->rect_dsc->border_opa = LV_OPA_TRANSP;
 391              		.loc 1 266 35 view .LVU107
ARM GAS  /tmp/cc8F9tO6.s 			page 15


 392 0074 0023     		movs	r3, #0
 393 0076 9372     		strb	r3, [r2, #10]
 267:Middlewares/lvgl/src/extra/widgets/calendar/lv_calendar.c ****             dsc->label_dsc->color = lv_palette_main(LV_PALETTE_GREY);
 394              		.loc 1 267 13 is_stmt 1 view .LVU108
 267:Middlewares/lvgl/src/extra/widgets/calendar/lv_calendar.c ****             dsc->label_dsc->color = lv_palette_main(LV_PALETTE_GREY);
 395              		.loc 1 267 16 is_stmt 0 view .LVU109
 396 0078 A268     		ldr	r2, [r4, #8]
 267:Middlewares/lvgl/src/extra/widgets/calendar/lv_calendar.c ****             dsc->label_dsc->color = lv_palette_main(LV_PALETTE_GREY);
 397              		.loc 1 267 39 view .LVU110
 398 007a 9377     		strb	r3, [r2, #30]
 268:Middlewares/lvgl/src/extra/widgets/calendar/lv_calendar.c ****         }
 399              		.loc 1 268 13 is_stmt 1 view .LVU111
 268:Middlewares/lvgl/src/extra/widgets/calendar/lv_calendar.c ****         }
 400              		.loc 1 268 16 is_stmt 0 view .LVU112
 401 007c E668     		ldr	r6, [r4, #12]
 268:Middlewares/lvgl/src/extra/widgets/calendar/lv_calendar.c ****         }
 402              		.loc 1 268 37 view .LVU113
 403 007e 1220     		movs	r0, #18
 404 0080 FFF7FEFF 		bl	lv_palette_main
 405              	.LVL43:
 406 0084 B081     		strh	r0, [r6, #12]	@ movhi
 407 0086 D1E7     		b	.L24
 408              	.L28:
 272:Middlewares/lvgl/src/extra/widgets/calendar/lv_calendar.c ****             dsc->rect_dsc->bg_color = lv_theme_get_color_primary(obj);
 409              		.loc 1 272 13 is_stmt 1 view .LVU114
 272:Middlewares/lvgl/src/extra/widgets/calendar/lv_calendar.c ****             dsc->rect_dsc->bg_color = lv_theme_get_color_primary(obj);
 410              		.loc 1 272 16 is_stmt 0 view .LVU115
 411 0088 A368     		ldr	r3, [r4, #8]
 272:Middlewares/lvgl/src/extra/widgets/calendar/lv_calendar.c ****             dsc->rect_dsc->bg_color = lv_theme_get_color_primary(obj);
 412              		.loc 1 272 35 view .LVU116
 413 008a 6622     		movs	r2, #102
 414 008c 9A72     		strb	r2, [r3, #10]
 273:Middlewares/lvgl/src/extra/widgets/calendar/lv_calendar.c ****             if(lv_btnmatrix_get_selected_btn(obj) == dsc->id) {
 415              		.loc 1 273 13 is_stmt 1 view .LVU117
 273:Middlewares/lvgl/src/extra/widgets/calendar/lv_calendar.c ****             if(lv_btnmatrix_get_selected_btn(obj) == dsc->id) {
 416              		.loc 1 273 16 is_stmt 0 view .LVU118
 417 008e A668     		ldr	r6, [r4, #8]
 273:Middlewares/lvgl/src/extra/widgets/calendar/lv_calendar.c ****             if(lv_btnmatrix_get_selected_btn(obj) == dsc->id) {
 418              		.loc 1 273 39 view .LVU119
 419 0090 2846     		mov	r0, r5
 420 0092 FFF7FEFF 		bl	lv_theme_get_color_primary
 421              	.LVL44:
 422 0096 B080     		strh	r0, [r6, #4]	@ movhi
 274:Middlewares/lvgl/src/extra/widgets/calendar/lv_calendar.c ****                 dsc->rect_dsc->bg_opa = LV_OPA_70;
 423              		.loc 1 274 13 is_stmt 1 view .LVU120
 274:Middlewares/lvgl/src/extra/widgets/calendar/lv_calendar.c ****                 dsc->rect_dsc->bg_opa = LV_OPA_70;
 424              		.loc 1 274 16 is_stmt 0 view .LVU121
 425 0098 2846     		mov	r0, r5
 426 009a FFF7FEFF 		bl	lv_btnmatrix_get_selected_btn
 427              	.LVL45:
 274:Middlewares/lvgl/src/extra/widgets/calendar/lv_calendar.c ****                 dsc->rect_dsc->bg_opa = LV_OPA_70;
 428              		.loc 1 274 57 view .LVU122
 429 009e A36B     		ldr	r3, [r4, #56]
 274:Middlewares/lvgl/src/extra/widgets/calendar/lv_calendar.c ****                 dsc->rect_dsc->bg_opa = LV_OPA_70;
 430              		.loc 1 274 15 view .LVU123
 431 00a0 9842     		cmp	r0, r3
 432 00a2 CAD1     		bne	.L25
ARM GAS  /tmp/cc8F9tO6.s 			page 16


 275:Middlewares/lvgl/src/extra/widgets/calendar/lv_calendar.c ****             }
 433              		.loc 1 275 17 is_stmt 1 view .LVU124
 275:Middlewares/lvgl/src/extra/widgets/calendar/lv_calendar.c ****             }
 434              		.loc 1 275 20 is_stmt 0 view .LVU125
 435 00a4 A368     		ldr	r3, [r4, #8]
 275:Middlewares/lvgl/src/extra/widgets/calendar/lv_calendar.c ****             }
 436              		.loc 1 275 39 view .LVU126
 437 00a6 B222     		movs	r2, #178
 438 00a8 9A72     		strb	r2, [r3, #10]
 439 00aa C6E7     		b	.L25
 440              		.cfi_endproc
 441              	.LFE195:
 443              		.section	.text.highlight_update,"ax",%progbits
 444              		.align	1
 445              		.syntax unified
 446              		.thumb
 447              		.thumb_func
 449              	highlight_update:
 450              	.LVL46:
 451              	.LFB199:
 344:Middlewares/lvgl/src/extra/widgets/calendar/lv_calendar.c **** 
 345:Middlewares/lvgl/src/extra/widgets/calendar/lv_calendar.c **** static void highlight_update(lv_obj_t * obj)
 346:Middlewares/lvgl/src/extra/widgets/calendar/lv_calendar.c **** {
 452              		.loc 1 346 1 is_stmt 1 view -0
 453              		.cfi_startproc
 454              		@ args = 0, pretend = 0, frame = 0
 455              		@ frame_needed = 0, uses_anonymous_args = 0
 456              		.loc 1 346 1 is_stmt 0 view .LVU128
 457 0000 38B5     		push	{r3, r4, r5, lr}
 458              	.LCFI2:
 459              		.cfi_def_cfa_offset 16
 460              		.cfi_offset 3, -16
 461              		.cfi_offset 4, -12
 462              		.cfi_offset 5, -8
 463              		.cfi_offset 14, -4
 464 0002 0546     		mov	r5, r0
 347:Middlewares/lvgl/src/extra/widgets/calendar/lv_calendar.c ****     lv_calendar_t * calendar = (lv_calendar_t *)obj;
 465              		.loc 1 347 5 is_stmt 1 view .LVU129
 466              	.LVL47:
 348:Middlewares/lvgl/src/extra/widgets/calendar/lv_calendar.c ****     uint16_t i;
 467              		.loc 1 348 5 view .LVU130
 349:Middlewares/lvgl/src/extra/widgets/calendar/lv_calendar.c **** 
 350:Middlewares/lvgl/src/extra/widgets/calendar/lv_calendar.c ****     /*Clear all kind of selection*/
 351:Middlewares/lvgl/src/extra/widgets/calendar/lv_calendar.c ****     lv_btnmatrix_clear_btn_ctrl_all(obj, LV_CALENDAR_CTRL_TODAY | LV_CALENDAR_CTRL_HIGHLIGHT);
 468              		.loc 1 351 5 view .LVU131
 469 0004 4FF44041 		mov	r1, #49152
 470 0008 FFF7FEFF 		bl	lv_btnmatrix_clear_btn_ctrl_all
 471              	.LVL48:
 352:Middlewares/lvgl/src/extra/widgets/calendar/lv_calendar.c **** 
 353:Middlewares/lvgl/src/extra/widgets/calendar/lv_calendar.c ****     if(calendar->highlighted_dates) {
 472              		.loc 1 353 5 view .LVU132
 473              		.loc 1 353 16 is_stmt 0 view .LVU133
 474 000c 2B6C     		ldr	r3, [r5, #64]
 475              		.loc 1 353 7 view .LVU134
 476 000e 03B3     		cbz	r3, .L31
 354:Middlewares/lvgl/src/extra/widgets/calendar/lv_calendar.c ****         for(i = 0; i < calendar->highlighted_dates_num; i++) {
 477              		.loc 1 354 15 view .LVU135
ARM GAS  /tmp/cc8F9tO6.s 			page 17


 478 0010 0024     		movs	r4, #0
 479 0012 01E0     		b	.L30
 480              	.LVL49:
 481              	.L32:
 482              		.loc 1 354 57 is_stmt 1 discriminator 2 view .LVU136
 483              		.loc 1 354 58 is_stmt 0 discriminator 2 view .LVU137
 484 0014 0134     		adds	r4, r4, #1
 485              	.LVL50:
 486              		.loc 1 354 58 discriminator 2 view .LVU138
 487 0016 A4B2     		uxth	r4, r4
 488              	.LVL51:
 489              	.L30:
 490              		.loc 1 354 20 is_stmt 1 discriminator 1 view .LVU139
 491              		.loc 1 354 32 is_stmt 0 discriminator 1 view .LVU140
 492 0018 B5F84430 		ldrh	r3, [r5, #68]
 493              		.loc 1 354 9 discriminator 1 view .LVU141
 494 001c A342     		cmp	r3, r4
 495 001e 18D9     		bls	.L31
 355:Middlewares/lvgl/src/extra/widgets/calendar/lv_calendar.c ****             if(calendar->highlighted_dates[i].year == calendar->today.year && calendar->highlighted
 496              		.loc 1 355 13 is_stmt 1 view .LVU142
 497              		.loc 1 355 24 is_stmt 0 view .LVU143
 498 0020 2B6C     		ldr	r3, [r5, #64]
 499              		.loc 1 355 43 view .LVU144
 500 0022 03EB8401 		add	r1, r3, r4, lsl #2
 501              		.loc 1 355 46 view .LVU145
 502 0026 33F82420 		ldrh	r2, [r3, r4, lsl #2]
 503              		.loc 1 355 70 view .LVU146
 504 002a 2B8F     		ldrh	r3, [r5, #56]
 505              		.loc 1 355 15 view .LVU147
 506 002c 9A42     		cmp	r2, r3
 507 002e F1D1     		bne	.L32
 508              		.loc 1 355 109 discriminator 1 view .LVU148
 509 0030 91F90220 		ldrsb	r2, [r1, #2]
 510              		.loc 1 355 140 discriminator 1 view .LVU149
 511 0034 95F93E30 		ldrsb	r3, [r5, #62]
 512              		.loc 1 355 76 discriminator 1 view .LVU150
 513 0038 9A42     		cmp	r2, r3
 514 003a EBD1     		bne	.L32
 356:Middlewares/lvgl/src/extra/widgets/calendar/lv_calendar.c ****                 lv_btnmatrix_set_btn_ctrl(obj, calendar->highlighted_dates[i].day + 7, LV_CALENDAR_
 515              		.loc 1 356 17 is_stmt 1 view .LVU151
 516              		.loc 1 356 78 is_stmt 0 view .LVU152
 517 003c 91F90310 		ldrsb	r1, [r1, #3]
 518 0040 89B2     		uxth	r1, r1
 519              		.loc 1 356 17 view .LVU153
 520 0042 0731     		adds	r1, r1, #7
 521 0044 4FF40042 		mov	r2, #32768
 522 0048 89B2     		uxth	r1, r1
 523 004a 2846     		mov	r0, r5
 524 004c FFF7FEFF 		bl	lv_btnmatrix_set_btn_ctrl
 525              	.LVL52:
 526 0050 E0E7     		b	.L32
 527              	.LVL53:
 528              	.L31:
 357:Middlewares/lvgl/src/extra/widgets/calendar/lv_calendar.c ****             }
 358:Middlewares/lvgl/src/extra/widgets/calendar/lv_calendar.c ****         }
 359:Middlewares/lvgl/src/extra/widgets/calendar/lv_calendar.c ****     }
 360:Middlewares/lvgl/src/extra/widgets/calendar/lv_calendar.c **** 
ARM GAS  /tmp/cc8F9tO6.s 			page 18


 361:Middlewares/lvgl/src/extra/widgets/calendar/lv_calendar.c ****     if(calendar->showed_date.year == calendar->today.year && calendar->showed_date.month == calenda
 529              		.loc 1 361 5 is_stmt 1 view .LVU154
 530              		.loc 1 361 59 is_stmt 0 view .LVU155
 531 0052 EB6B     		ldr	r3, [r5, #60]
 532 0054 23F07F42 		bic	r2, r3, #-16777216
 533 0058 AB6B     		ldr	r3, [r5, #56]
 534 005a 23F07F43 		bic	r3, r3, #-16777216
 535              		.loc 1 361 7 view .LVU156
 536 005e 9A42     		cmp	r2, r3
 537 0060 00D0     		beq	.L37
 538              	.L29:
 362:Middlewares/lvgl/src/extra/widgets/calendar/lv_calendar.c ****         uint8_t day_first = get_day_of_week(calendar->today.year, calendar->today.month, 0);
 363:Middlewares/lvgl/src/extra/widgets/calendar/lv_calendar.c ****         lv_btnmatrix_set_btn_ctrl(obj, calendar->today.day + day_first + 7, LV_CALENDAR_CTRL_TODAY)
 364:Middlewares/lvgl/src/extra/widgets/calendar/lv_calendar.c ****     }
 365:Middlewares/lvgl/src/extra/widgets/calendar/lv_calendar.c **** }
 539              		.loc 1 365 1 view .LVU157
 540 0062 38BD     		pop	{r3, r4, r5, pc}
 541              	.LVL54:
 542              	.L37:
 543              	.LBB2:
 362:Middlewares/lvgl/src/extra/widgets/calendar/lv_calendar.c ****         uint8_t day_first = get_day_of_week(calendar->today.year, calendar->today.month, 0);
 544              		.loc 1 362 9 is_stmt 1 view .LVU158
 362:Middlewares/lvgl/src/extra/widgets/calendar/lv_calendar.c ****         uint8_t day_first = get_day_of_week(calendar->today.year, calendar->today.month, 0);
 545              		.loc 1 362 29 is_stmt 0 view .LVU159
 546 0064 0022     		movs	r2, #0
 547 0066 95F93A10 		ldrsb	r1, [r5, #58]
 548 006a 288F     		ldrh	r0, [r5, #56]
 549 006c FFF7FEFF 		bl	get_day_of_week
 550              	.LVL55:
 363:Middlewares/lvgl/src/extra/widgets/calendar/lv_calendar.c ****     }
 551              		.loc 1 363 9 is_stmt 1 view .LVU160
 363:Middlewares/lvgl/src/extra/widgets/calendar/lv_calendar.c ****     }
 552              		.loc 1 363 55 is_stmt 0 view .LVU161
 553 0070 95F93B30 		ldrsb	r3, [r5, #59]
 363:Middlewares/lvgl/src/extra/widgets/calendar/lv_calendar.c ****     }
 554              		.loc 1 363 60 view .LVU162
 555 0074 1918     		adds	r1, r3, r0
 556 0076 89B2     		uxth	r1, r1
 363:Middlewares/lvgl/src/extra/widgets/calendar/lv_calendar.c ****     }
 557              		.loc 1 363 9 view .LVU163
 558 0078 0731     		adds	r1, r1, #7
 559 007a 4FF48042 		mov	r2, #16384
 560 007e 89B2     		uxth	r1, r1
 561 0080 2846     		mov	r0, r5
 562              	.LVL56:
 363:Middlewares/lvgl/src/extra/widgets/calendar/lv_calendar.c ****     }
 563              		.loc 1 363 9 view .LVU164
 564 0082 FFF7FEFF 		bl	lv_btnmatrix_set_btn_ctrl
 565              	.LVL57:
 566              	.LBE2:
 567              		.loc 1 365 1 view .LVU165
 568 0086 ECE7     		b	.L29
 569              		.cfi_endproc
 570              	.LFE199:
 572              		.section	.text.lv_calendar_create,"ax",%progbits
 573              		.align	1
 574              		.global	lv_calendar_create
ARM GAS  /tmp/cc8F9tO6.s 			page 19


 575              		.syntax unified
 576              		.thumb
 577              		.thumb_func
 579              	lv_calendar_create:
 580              	.LVL58:
 581              	.LFB184:
  58:Middlewares/lvgl/src/extra/widgets/calendar/lv_calendar.c ****     LV_LOG_INFO("begin")
 582              		.loc 1 58 1 is_stmt 1 view -0
 583              		.cfi_startproc
 584              		@ args = 0, pretend = 0, frame = 0
 585              		@ frame_needed = 0, uses_anonymous_args = 0
  58:Middlewares/lvgl/src/extra/widgets/calendar/lv_calendar.c ****     LV_LOG_INFO("begin")
 586              		.loc 1 58 1 is_stmt 0 view .LVU167
 587 0000 10B5     		push	{r4, lr}
 588              	.LCFI3:
 589              		.cfi_def_cfa_offset 8
 590              		.cfi_offset 4, -8
 591              		.cfi_offset 14, -4
 592 0002 0146     		mov	r1, r0
  60:Middlewares/lvgl/src/extra/widgets/calendar/lv_calendar.c ****     lv_obj_class_init_obj(obj);
 593              		.loc 1 60 5 is_stmt 1 view .LVU168
  60:Middlewares/lvgl/src/extra/widgets/calendar/lv_calendar.c ****     lv_obj_class_init_obj(obj);
 594              		.loc 1 60 22 is_stmt 0 view .LVU169
 595 0004 0348     		ldr	r0, .L40
 596              	.LVL59:
  60:Middlewares/lvgl/src/extra/widgets/calendar/lv_calendar.c ****     lv_obj_class_init_obj(obj);
 597              		.loc 1 60 22 view .LVU170
 598 0006 FFF7FEFF 		bl	lv_obj_class_create_obj
 599              	.LVL60:
  60:Middlewares/lvgl/src/extra/widgets/calendar/lv_calendar.c ****     lv_obj_class_init_obj(obj);
 600              		.loc 1 60 22 view .LVU171
 601 000a 0446     		mov	r4, r0
 602              	.LVL61:
  61:Middlewares/lvgl/src/extra/widgets/calendar/lv_calendar.c ****     return obj;
 603              		.loc 1 61 5 is_stmt 1 view .LVU172
 604 000c FFF7FEFF 		bl	lv_obj_class_init_obj
 605              	.LVL62:
  62:Middlewares/lvgl/src/extra/widgets/calendar/lv_calendar.c **** }
 606              		.loc 1 62 5 view .LVU173
  63:Middlewares/lvgl/src/extra/widgets/calendar/lv_calendar.c **** 
 607              		.loc 1 63 1 is_stmt 0 view .LVU174
 608 0010 2046     		mov	r0, r4
 609 0012 10BD     		pop	{r4, pc}
 610              	.LVL63:
 611              	.L41:
  63:Middlewares/lvgl/src/extra/widgets/calendar/lv_calendar.c **** 
 612              		.loc 1 63 1 view .LVU175
 613              		.align	2
 614              	.L40:
 615 0014 00000000 		.word	.LANCHOR0
 616              		.cfi_endproc
 617              	.LFE184:
 619              		.section	.text.lv_calendar_set_day_names,"ax",%progbits
 620              		.align	1
 621              		.global	lv_calendar_set_day_names
 622              		.syntax unified
 623              		.thumb
ARM GAS  /tmp/cc8F9tO6.s 			page 20


 624              		.thumb_func
 626              	lv_calendar_set_day_names:
 627              	.LVL64:
 628              	.LFB185:
  70:Middlewares/lvgl/src/extra/widgets/calendar/lv_calendar.c ****     lv_calendar_t * calendar = (lv_calendar_t *)obj;
 629              		.loc 1 70 1 is_stmt 1 view -0
 630              		.cfi_startproc
 631              		@ args = 0, pretend = 0, frame = 0
 632              		@ frame_needed = 0, uses_anonymous_args = 0
 633              		@ link register save eliminated.
  71:Middlewares/lvgl/src/extra/widgets/calendar/lv_calendar.c ****     uint32_t i;
 634              		.loc 1 71 5 view .LVU177
  72:Middlewares/lvgl/src/extra/widgets/calendar/lv_calendar.c ****     for(i = 0; i < 7; i++) {
 635              		.loc 1 72 5 view .LVU178
  73:Middlewares/lvgl/src/extra/widgets/calendar/lv_calendar.c ****         calendar->map[i] = day_names[i];
 636              		.loc 1 73 5 view .LVU179
  73:Middlewares/lvgl/src/extra/widgets/calendar/lv_calendar.c ****         calendar->map[i] = day_names[i];
 637              		.loc 1 73 11 is_stmt 0 view .LVU180
 638 0000 0023     		movs	r3, #0
 639              	.LVL65:
  73:Middlewares/lvgl/src/extra/widgets/calendar/lv_calendar.c ****         calendar->map[i] = day_names[i];
 640              		.loc 1 73 16 is_stmt 1 view .LVU181
  73:Middlewares/lvgl/src/extra/widgets/calendar/lv_calendar.c ****         calendar->map[i] = day_names[i];
 641              		.loc 1 73 5 is_stmt 0 view .LVU182
 642 0002 062B     		cmp	r3, #6
 643 0004 0CD8     		bhi	.L48
  70:Middlewares/lvgl/src/extra/widgets/calendar/lv_calendar.c ****     lv_calendar_t * calendar = (lv_calendar_t *)obj;
 644              		.loc 1 70 1 view .LVU183
 645 0006 10B4     		push	{r4}
 646              	.LCFI4:
 647              		.cfi_def_cfa_offset 4
 648              		.cfi_offset 4, -4
 649              	.L44:
  74:Middlewares/lvgl/src/extra/widgets/calendar/lv_calendar.c ****     }
 650              		.loc 1 74 9 is_stmt 1 discriminator 3 view .LVU184
  74:Middlewares/lvgl/src/extra/widgets/calendar/lv_calendar.c ****     }
 651              		.loc 1 74 26 is_stmt 0 discriminator 3 view .LVU185
 652 0008 03F11202 		add	r2, r3, #18
 653 000c 51F82340 		ldr	r4, [r1, r3, lsl #2]
 654 0010 40F82240 		str	r4, [r0, r2, lsl #2]
  73:Middlewares/lvgl/src/extra/widgets/calendar/lv_calendar.c ****         calendar->map[i] = day_names[i];
 655              		.loc 1 73 23 is_stmt 1 discriminator 3 view .LVU186
  73:Middlewares/lvgl/src/extra/widgets/calendar/lv_calendar.c ****         calendar->map[i] = day_names[i];
 656              		.loc 1 73 24 is_stmt 0 discriminator 3 view .LVU187
 657 0014 0133     		adds	r3, r3, #1
 658              	.LVL66:
  73:Middlewares/lvgl/src/extra/widgets/calendar/lv_calendar.c ****         calendar->map[i] = day_names[i];
 659              		.loc 1 73 16 is_stmt 1 discriminator 3 view .LVU188
  73:Middlewares/lvgl/src/extra/widgets/calendar/lv_calendar.c ****         calendar->map[i] = day_names[i];
 660              		.loc 1 73 5 is_stmt 0 discriminator 3 view .LVU189
 661 0016 062B     		cmp	r3, #6
 662 0018 F6D9     		bls	.L44
  76:Middlewares/lvgl/src/extra/widgets/calendar/lv_calendar.c **** 
 663              		.loc 1 76 1 view .LVU190
 664 001a 5DF8044B 		ldr	r4, [sp], #4
 665              	.LCFI5:
 666              		.cfi_restore 4
ARM GAS  /tmp/cc8F9tO6.s 			page 21


 667              		.cfi_def_cfa_offset 0
 668 001e 7047     		bx	lr
 669              	.L48:
  76:Middlewares/lvgl/src/extra/widgets/calendar/lv_calendar.c **** 
 670              		.loc 1 76 1 view .LVU191
 671 0020 7047     		bx	lr
 672              		.cfi_endproc
 673              	.LFE185:
 675              		.section	.text.lv_calendar_set_today_date,"ax",%progbits
 676              		.align	1
 677              		.global	lv_calendar_set_today_date
 678              		.syntax unified
 679              		.thumb
 680              		.thumb_func
 682              	lv_calendar_set_today_date:
 683              	.LVL67:
 684              	.LFB186:
  79:Middlewares/lvgl/src/extra/widgets/calendar/lv_calendar.c ****     lv_calendar_t * calendar = (lv_calendar_t *)obj;
 685              		.loc 1 79 1 is_stmt 1 view -0
 686              		.cfi_startproc
 687              		@ args = 0, pretend = 0, frame = 0
 688              		@ frame_needed = 0, uses_anonymous_args = 0
  79:Middlewares/lvgl/src/extra/widgets/calendar/lv_calendar.c ****     lv_calendar_t * calendar = (lv_calendar_t *)obj;
 689              		.loc 1 79 1 is_stmt 0 view .LVU193
 690 0000 08B5     		push	{r3, lr}
 691              	.LCFI6:
 692              		.cfi_def_cfa_offset 8
 693              		.cfi_offset 3, -8
 694              		.cfi_offset 14, -4
  80:Middlewares/lvgl/src/extra/widgets/calendar/lv_calendar.c ****     calendar->today.year         = year;
 695              		.loc 1 80 5 is_stmt 1 view .LVU194
 696              	.LVL68:
  81:Middlewares/lvgl/src/extra/widgets/calendar/lv_calendar.c ****     calendar->today.month        = month;
 697              		.loc 1 81 5 view .LVU195
  81:Middlewares/lvgl/src/extra/widgets/calendar/lv_calendar.c ****     calendar->today.month        = month;
 698              		.loc 1 81 34 is_stmt 0 view .LVU196
 699 0002 0187     		strh	r1, [r0, #56]	@ movhi
  82:Middlewares/lvgl/src/extra/widgets/calendar/lv_calendar.c ****     calendar->today.day          = day;
 700              		.loc 1 82 5 is_stmt 1 view .LVU197
  82:Middlewares/lvgl/src/extra/widgets/calendar/lv_calendar.c ****     calendar->today.day          = day;
 701              		.loc 1 82 34 is_stmt 0 view .LVU198
 702 0004 80F83A20 		strb	r2, [r0, #58]
  83:Middlewares/lvgl/src/extra/widgets/calendar/lv_calendar.c **** 
 703              		.loc 1 83 5 is_stmt 1 view .LVU199
  83:Middlewares/lvgl/src/extra/widgets/calendar/lv_calendar.c **** 
 704              		.loc 1 83 34 is_stmt 0 view .LVU200
 705 0008 80F83B30 		strb	r3, [r0, #59]
  85:Middlewares/lvgl/src/extra/widgets/calendar/lv_calendar.c **** }
 706              		.loc 1 85 5 is_stmt 1 view .LVU201
 707 000c FFF7FEFF 		bl	highlight_update
 708              	.LVL69:
  86:Middlewares/lvgl/src/extra/widgets/calendar/lv_calendar.c **** 
 709              		.loc 1 86 1 is_stmt 0 view .LVU202
 710 0010 08BD     		pop	{r3, pc}
 711              		.cfi_endproc
 712              	.LFE186:
 714              		.section	.text.lv_calendar_set_highlighted_dates,"ax",%progbits
ARM GAS  /tmp/cc8F9tO6.s 			page 22


 715              		.align	1
 716              		.global	lv_calendar_set_highlighted_dates
 717              		.syntax unified
 718              		.thumb
 719              		.thumb_func
 721              	lv_calendar_set_highlighted_dates:
 722              	.LVL70:
 723              	.LFB187:
  89:Middlewares/lvgl/src/extra/widgets/calendar/lv_calendar.c ****     LV_ASSERT_NULL(highlighted);
 724              		.loc 1 89 1 is_stmt 1 view -0
 725              		.cfi_startproc
 726              		@ args = 0, pretend = 0, frame = 0
 727              		@ frame_needed = 0, uses_anonymous_args = 0
  90:Middlewares/lvgl/src/extra/widgets/calendar/lv_calendar.c **** 
 728              		.loc 1 90 5 view .LVU204
  90:Middlewares/lvgl/src/extra/widgets/calendar/lv_calendar.c **** 
 729              		.loc 1 90 5 view .LVU205
 730 0000 31B1     		cbz	r1, .L53
  89:Middlewares/lvgl/src/extra/widgets/calendar/lv_calendar.c ****     LV_ASSERT_NULL(highlighted);
 731              		.loc 1 89 1 is_stmt 0 discriminator 2 view .LVU206
 732 0002 08B5     		push	{r3, lr}
 733              	.LCFI7:
 734              		.cfi_def_cfa_offset 8
 735              		.cfi_offset 3, -8
 736              		.cfi_offset 14, -4
  90:Middlewares/lvgl/src/extra/widgets/calendar/lv_calendar.c **** 
 737              		.loc 1 90 5 is_stmt 1 discriminator 2 view .LVU207
  90:Middlewares/lvgl/src/extra/widgets/calendar/lv_calendar.c **** 
 738              		.loc 1 90 32 discriminator 2 view .LVU208
  92:Middlewares/lvgl/src/extra/widgets/calendar/lv_calendar.c ****     calendar->highlighted_dates     = highlighted;
 739              		.loc 1 92 5 discriminator 2 view .LVU209
 740              	.LVL71:
  93:Middlewares/lvgl/src/extra/widgets/calendar/lv_calendar.c ****     calendar->highlighted_dates_num = date_num;
 741              		.loc 1 93 5 discriminator 2 view .LVU210
  93:Middlewares/lvgl/src/extra/widgets/calendar/lv_calendar.c ****     calendar->highlighted_dates_num = date_num;
 742              		.loc 1 93 37 is_stmt 0 discriminator 2 view .LVU211
 743 0004 0164     		str	r1, [r0, #64]
  94:Middlewares/lvgl/src/extra/widgets/calendar/lv_calendar.c **** 
 744              		.loc 1 94 5 is_stmt 1 discriminator 2 view .LVU212
  94:Middlewares/lvgl/src/extra/widgets/calendar/lv_calendar.c **** 
 745              		.loc 1 94 37 is_stmt 0 discriminator 2 view .LVU213
 746 0006 A0F84420 		strh	r2, [r0, #68]	@ movhi
  96:Middlewares/lvgl/src/extra/widgets/calendar/lv_calendar.c **** }
 747              		.loc 1 96 5 is_stmt 1 discriminator 2 view .LVU214
 748 000a FFF7FEFF 		bl	highlight_update
 749              	.LVL72:
  97:Middlewares/lvgl/src/extra/widgets/calendar/lv_calendar.c **** 
 750              		.loc 1 97 1 is_stmt 0 discriminator 2 view .LVU215
 751 000e 08BD     		pop	{r3, pc}
 752              	.LVL73:
 753              	.L53:
 754              	.LCFI8:
 755              		.cfi_def_cfa_offset 0
 756              		.cfi_restore 3
 757              		.cfi_restore 14
  90:Middlewares/lvgl/src/extra/widgets/calendar/lv_calendar.c **** 
 758              		.loc 1 90 5 is_stmt 1 discriminator 1 view .LVU216
ARM GAS  /tmp/cc8F9tO6.s 			page 23


  90:Middlewares/lvgl/src/extra/widgets/calendar/lv_calendar.c **** 
 759              		.loc 1 90 5 discriminator 1 view .LVU217
  90:Middlewares/lvgl/src/extra/widgets/calendar/lv_calendar.c **** 
 760              		.loc 1 90 5 discriminator 1 view .LVU218
  90:Middlewares/lvgl/src/extra/widgets/calendar/lv_calendar.c **** 
 761              		.loc 1 90 5 discriminator 1 view .LVU219
 762 0010 FEE7     		b	.L53
 763              		.cfi_endproc
 764              	.LFE187:
 766              		.section	.rodata.lv_calendar_set_showed_date.str1.4,"aMS",%progbits,1
 767              		.align	2
 768              	.LC0:
 769 0000 256400   		.ascii	"%d\000"
 770              		.section	.text.lv_calendar_set_showed_date,"ax",%progbits
 771              		.align	1
 772              		.global	lv_calendar_set_showed_date
 773              		.syntax unified
 774              		.thumb
 775              		.thumb_func
 777              	lv_calendar_set_showed_date:
 778              	.LVL74:
 779              	.LFB188:
 100:Middlewares/lvgl/src/extra/widgets/calendar/lv_calendar.c ****     lv_calendar_t * calendar = (lv_calendar_t *)obj;
 780              		.loc 1 100 1 view -0
 781              		.cfi_startproc
 782              		@ args = 0, pretend = 0, frame = 8
 783              		@ frame_needed = 0, uses_anonymous_args = 0
 100:Middlewares/lvgl/src/extra/widgets/calendar/lv_calendar.c ****     lv_calendar_t * calendar = (lv_calendar_t *)obj;
 784              		.loc 1 100 1 is_stmt 0 view .LVU221
 785 0000 2DE9F047 		push	{r4, r5, r6, r7, r8, r9, r10, lr}
 786              	.LCFI9:
 787              		.cfi_def_cfa_offset 32
 788              		.cfi_offset 4, -32
 789              		.cfi_offset 5, -28
 790              		.cfi_offset 6, -24
 791              		.cfi_offset 7, -20
 792              		.cfi_offset 8, -16
 793              		.cfi_offset 9, -12
 794              		.cfi_offset 10, -8
 795              		.cfi_offset 14, -4
 796 0004 82B0     		sub	sp, sp, #8
 797              	.LCFI10:
 798              		.cfi_def_cfa_offset 40
 799 0006 0646     		mov	r6, r0
 101:Middlewares/lvgl/src/extra/widgets/calendar/lv_calendar.c ****     calendar->showed_date.year   = year;
 800              		.loc 1 101 5 is_stmt 1 view .LVU222
 801              	.LVL75:
 102:Middlewares/lvgl/src/extra/widgets/calendar/lv_calendar.c ****     calendar->showed_date.month  = month;
 802              		.loc 1 102 5 view .LVU223
 102:Middlewares/lvgl/src/extra/widgets/calendar/lv_calendar.c ****     calendar->showed_date.month  = month;
 803              		.loc 1 102 34 is_stmt 0 view .LVU224
 804 0008 8FB2     		uxth	r7, r1
 805 000a 8787     		strh	r7, [r0, #60]	@ movhi
 103:Middlewares/lvgl/src/extra/widgets/calendar/lv_calendar.c ****     calendar->showed_date.day    = 1;
 806              		.loc 1 103 5 is_stmt 1 view .LVU225
 103:Middlewares/lvgl/src/extra/widgets/calendar/lv_calendar.c ****     calendar->showed_date.day    = 1;
 807              		.loc 1 103 34 is_stmt 0 view .LVU226
ARM GAS  /tmp/cc8F9tO6.s 			page 24


 808 000c 4FFA82F9 		sxtb	r9, r2
 809 0010 80F83E90 		strb	r9, [r0, #62]
 104:Middlewares/lvgl/src/extra/widgets/calendar/lv_calendar.c **** 
 810              		.loc 1 104 5 is_stmt 1 view .LVU227
 104:Middlewares/lvgl/src/extra/widgets/calendar/lv_calendar.c **** 
 811              		.loc 1 104 34 is_stmt 0 view .LVU228
 812 0014 0123     		movs	r3, #1
 813 0016 80F83F30 		strb	r3, [r0, #63]
 106:Middlewares/lvgl/src/extra/widgets/calendar/lv_calendar.c ****     d.year = calendar->showed_date.year;
 814              		.loc 1 106 5 is_stmt 1 view .LVU229
 107:Middlewares/lvgl/src/extra/widgets/calendar/lv_calendar.c ****     d.month = calendar->showed_date.month;
 815              		.loc 1 107 5 view .LVU230
 107:Middlewares/lvgl/src/extra/widgets/calendar/lv_calendar.c ****     d.month = calendar->showed_date.month;
 816              		.loc 1 107 12 is_stmt 0 view .LVU231
 817 001a ADF80470 		strh	r7, [sp, #4]	@ movhi
 108:Middlewares/lvgl/src/extra/widgets/calendar/lv_calendar.c ****     d.day = calendar->showed_date.day;
 818              		.loc 1 108 5 is_stmt 1 view .LVU232
 108:Middlewares/lvgl/src/extra/widgets/calendar/lv_calendar.c ****     d.day = calendar->showed_date.day;
 819              		.loc 1 108 13 is_stmt 0 view .LVU233
 820 001e 8DF80690 		strb	r9, [sp, #6]
 109:Middlewares/lvgl/src/extra/widgets/calendar/lv_calendar.c **** 
 821              		.loc 1 109 5 is_stmt 1 view .LVU234
 109:Middlewares/lvgl/src/extra/widgets/calendar/lv_calendar.c **** 
 822              		.loc 1 109 11 is_stmt 0 view .LVU235
 823 0022 8DF80730 		strb	r3, [sp, #7]
 111:Middlewares/lvgl/src/extra/widgets/calendar/lv_calendar.c **** 
 824              		.loc 1 111 5 is_stmt 1 view .LVU236
 114:Middlewares/lvgl/src/extra/widgets/calendar/lv_calendar.c ****     for(i = 0; i < 7; i++) {
 825              		.loc 1 114 5 view .LVU237
 826 0026 2021     		movs	r1, #32
 827              	.LVL76:
 114:Middlewares/lvgl/src/extra/widgets/calendar/lv_calendar.c ****     for(i = 0; i < 7; i++) {
 828              		.loc 1 114 5 is_stmt 0 view .LVU238
 829 0028 FFF7FEFF 		bl	lv_btnmatrix_clear_btn_ctrl_all
 830              	.LVL77:
 115:Middlewares/lvgl/src/extra/widgets/calendar/lv_calendar.c ****         lv_btnmatrix_set_btn_ctrl(obj, i, LV_BTNMATRIX_CTRL_DISABLED);
 831              		.loc 1 115 5 is_stmt 1 view .LVU239
 115:Middlewares/lvgl/src/extra/widgets/calendar/lv_calendar.c ****         lv_btnmatrix_set_btn_ctrl(obj, i, LV_BTNMATRIX_CTRL_DISABLED);
 832              		.loc 1 115 11 is_stmt 0 view .LVU240
 833 002c 0024     		movs	r4, #0
 115:Middlewares/lvgl/src/extra/widgets/calendar/lv_calendar.c ****         lv_btnmatrix_set_btn_ctrl(obj, i, LV_BTNMATRIX_CTRL_DISABLED);
 834              		.loc 1 115 5 view .LVU241
 835 002e 06E0     		b	.L57
 836              	.LVL78:
 837              	.L58:
 116:Middlewares/lvgl/src/extra/widgets/calendar/lv_calendar.c ****     }
 838              		.loc 1 116 9 is_stmt 1 discriminator 3 view .LVU242
 839 0030 2022     		movs	r2, #32
 840 0032 2146     		mov	r1, r4
 841 0034 3046     		mov	r0, r6
 842 0036 FFF7FEFF 		bl	lv_btnmatrix_set_btn_ctrl
 843              	.LVL79:
 115:Middlewares/lvgl/src/extra/widgets/calendar/lv_calendar.c ****         lv_btnmatrix_set_btn_ctrl(obj, i, LV_BTNMATRIX_CTRL_DISABLED);
 844              		.loc 1 115 23 discriminator 3 view .LVU243
 115:Middlewares/lvgl/src/extra/widgets/calendar/lv_calendar.c ****         lv_btnmatrix_set_btn_ctrl(obj, i, LV_BTNMATRIX_CTRL_DISABLED);
 845              		.loc 1 115 24 is_stmt 0 discriminator 3 view .LVU244
 846 003a 0134     		adds	r4, r4, #1
ARM GAS  /tmp/cc8F9tO6.s 			page 25


 847              	.LVL80:
 115:Middlewares/lvgl/src/extra/widgets/calendar/lv_calendar.c ****         lv_btnmatrix_set_btn_ctrl(obj, i, LV_BTNMATRIX_CTRL_DISABLED);
 848              		.loc 1 115 24 discriminator 3 view .LVU245
 849 003c E4B2     		uxtb	r4, r4
 850              	.LVL81:
 851              	.L57:
 115:Middlewares/lvgl/src/extra/widgets/calendar/lv_calendar.c ****         lv_btnmatrix_set_btn_ctrl(obj, i, LV_BTNMATRIX_CTRL_DISABLED);
 852              		.loc 1 115 16 is_stmt 1 discriminator 1 view .LVU246
 115:Middlewares/lvgl/src/extra/widgets/calendar/lv_calendar.c ****         lv_btnmatrix_set_btn_ctrl(obj, i, LV_BTNMATRIX_CTRL_DISABLED);
 853              		.loc 1 115 5 is_stmt 0 discriminator 1 view .LVU247
 854 003e 062C     		cmp	r4, #6
 855 0040 F6D9     		bls	.L58
 119:Middlewares/lvgl/src/extra/widgets/calendar/lv_calendar.c ****     uint8_t day_first = get_day_of_week(d.year, d.month, 1);
 856              		.loc 1 119 5 is_stmt 1 view .LVU248
 119:Middlewares/lvgl/src/extra/widgets/calendar/lv_calendar.c ****     uint8_t day_first = get_day_of_week(d.year, d.month, 1);
 857              		.loc 1 119 26 is_stmt 0 view .LVU249
 858 0042 4946     		mov	r1, r9
 859 0044 3846     		mov	r0, r7
 860 0046 FFF7FEFF 		bl	get_month_length
 861              	.LVL82:
 862 004a 0446     		mov	r4, r0
 863              	.LVL83:
 120:Middlewares/lvgl/src/extra/widgets/calendar/lv_calendar.c ****     uint8_t c;
 864              		.loc 1 120 5 is_stmt 1 view .LVU250
 120:Middlewares/lvgl/src/extra/widgets/calendar/lv_calendar.c ****     uint8_t c;
 865              		.loc 1 120 25 is_stmt 0 view .LVU251
 866 004c 0122     		movs	r2, #1
 867 004e 4946     		mov	r1, r9
 868 0050 3846     		mov	r0, r7
 869 0052 FFF7FEFF 		bl	get_day_of_week
 870              	.LVL84:
 871 0056 8046     		mov	r8, r0
 872              	.LVL85:
 121:Middlewares/lvgl/src/extra/widgets/calendar/lv_calendar.c ****     for(i = day_first, c = 1; i < act_mo_len + day_first; i++, c++) {
 873              		.loc 1 121 5 is_stmt 1 view .LVU252
 122:Middlewares/lvgl/src/extra/widgets/calendar/lv_calendar.c ****         lv_snprintf(calendar->nums[i], sizeof(calendar->nums[0]), "%d", c);
 874              		.loc 1 122 5 view .LVU253
 122:Middlewares/lvgl/src/extra/widgets/calendar/lv_calendar.c ****         lv_snprintf(calendar->nums[i], sizeof(calendar->nums[0]), "%d", c);
 875              		.loc 1 122 11 is_stmt 0 view .LVU254
 876 0058 0546     		mov	r5, r0
 122:Middlewares/lvgl/src/extra/widgets/calendar/lv_calendar.c ****         lv_snprintf(calendar->nums[i], sizeof(calendar->nums[0]), "%d", c);
 877              		.loc 1 122 26 view .LVU255
 878 005a 4FF0010A 		mov	r10, #1
 122:Middlewares/lvgl/src/extra/widgets/calendar/lv_calendar.c ****         lv_snprintf(calendar->nums[i], sizeof(calendar->nums[0]), "%d", c);
 879              		.loc 1 122 5 view .LVU256
 880 005e 0EE0     		b	.L59
 881              	.LVL86:
 882              	.L60:
 123:Middlewares/lvgl/src/extra/widgets/calendar/lv_calendar.c ****     }
 883              		.loc 1 123 9 is_stmt 1 discriminator 3 view .LVU257
 123:Middlewares/lvgl/src/extra/widgets/calendar/lv_calendar.c ****     }
 884              		.loc 1 123 35 is_stmt 0 discriminator 3 view .LVU258
 885 0060 05F14A00 		add	r0, r5, #74
 123:Middlewares/lvgl/src/extra/widgets/calendar/lv_calendar.c ****     }
 886              		.loc 1 123 9 discriminator 3 view .LVU259
 887 0064 5346     		mov	r3, r10
 888 0066 284A     		ldr	r2, .L66
ARM GAS  /tmp/cc8F9tO6.s 			page 26


 889 0068 0421     		movs	r1, #4
 890 006a 06EB8000 		add	r0, r6, r0, lsl #2
 891 006e FFF7FEFF 		bl	lv_snprintf
 892              	.LVL87:
 122:Middlewares/lvgl/src/extra/widgets/calendar/lv_calendar.c ****         lv_snprintf(calendar->nums[i], sizeof(calendar->nums[0]), "%d", c);
 893              		.loc 1 122 59 is_stmt 1 discriminator 3 view .LVU260
 122:Middlewares/lvgl/src/extra/widgets/calendar/lv_calendar.c ****         lv_snprintf(calendar->nums[i], sizeof(calendar->nums[0]), "%d", c);
 894              		.loc 1 122 60 is_stmt 0 discriminator 3 view .LVU261
 895 0072 0135     		adds	r5, r5, #1
 896              	.LVL88:
 122:Middlewares/lvgl/src/extra/widgets/calendar/lv_calendar.c ****         lv_snprintf(calendar->nums[i], sizeof(calendar->nums[0]), "%d", c);
 897              		.loc 1 122 60 discriminator 3 view .LVU262
 898 0074 EDB2     		uxtb	r5, r5
 899              	.LVL89:
 122:Middlewares/lvgl/src/extra/widgets/calendar/lv_calendar.c ****         lv_snprintf(calendar->nums[i], sizeof(calendar->nums[0]), "%d", c);
 900              		.loc 1 122 65 discriminator 3 view .LVU263
 901 0076 0AF1010A 		add	r10, r10, #1
 902              	.LVL90:
 122:Middlewares/lvgl/src/extra/widgets/calendar/lv_calendar.c ****         lv_snprintf(calendar->nums[i], sizeof(calendar->nums[0]), "%d", c);
 903              		.loc 1 122 65 discriminator 3 view .LVU264
 904 007a 5FFA8AFA 		uxtb	r10, r10
 905              	.LVL91:
 906              	.L59:
 122:Middlewares/lvgl/src/extra/widgets/calendar/lv_calendar.c ****         lv_snprintf(calendar->nums[i], sizeof(calendar->nums[0]), "%d", c);
 907              		.loc 1 122 31 is_stmt 1 discriminator 1 view .LVU265
 122:Middlewares/lvgl/src/extra/widgets/calendar/lv_calendar.c ****         lv_snprintf(calendar->nums[i], sizeof(calendar->nums[0]), "%d", c);
 908              		.loc 1 122 46 is_stmt 0 discriminator 1 view .LVU266
 909 007e 04EB0803 		add	r3, r4, r8
 122:Middlewares/lvgl/src/extra/widgets/calendar/lv_calendar.c ****         lv_snprintf(calendar->nums[i], sizeof(calendar->nums[0]), "%d", c);
 910              		.loc 1 122 5 discriminator 1 view .LVU267
 911 0082 9D42     		cmp	r5, r3
 912 0084 ECDB     		blt	.L60
 126:Middlewares/lvgl/src/extra/widgets/calendar/lv_calendar.c ****     for(i = 0, c = prev_mo_len - day_first + 1; i < day_first; i++, c++) {
 913              		.loc 1 126 5 is_stmt 1 view .LVU268
 126:Middlewares/lvgl/src/extra/widgets/calendar/lv_calendar.c ****     for(i = 0, c = prev_mo_len - day_first + 1; i < day_first; i++, c++) {
 914              		.loc 1 126 27 is_stmt 0 view .LVU269
 915 0086 09F1FF31 		add	r1, r9, #-1
 916 008a 3846     		mov	r0, r7
 917 008c FFF7FEFF 		bl	get_month_length
 918              	.LVL92:
 127:Middlewares/lvgl/src/extra/widgets/calendar/lv_calendar.c ****         lv_snprintf(calendar->nums[i], sizeof(calendar->nums[0]), "%d", c);
 919              		.loc 1 127 5 is_stmt 1 view .LVU270
 127:Middlewares/lvgl/src/extra/widgets/calendar/lv_calendar.c ****         lv_snprintf(calendar->nums[i], sizeof(calendar->nums[0]), "%d", c);
 920              		.loc 1 127 32 is_stmt 0 view .LVU271
 921 0090 A0EB0807 		sub	r7, r0, r8
 922 0094 FFB2     		uxtb	r7, r7
 127:Middlewares/lvgl/src/extra/widgets/calendar/lv_calendar.c ****         lv_snprintf(calendar->nums[i], sizeof(calendar->nums[0]), "%d", c);
 923              		.loc 1 127 18 view .LVU272
 924 0096 0137     		adds	r7, r7, #1
 925 0098 FFB2     		uxtb	r7, r7
 926              	.LVL93:
 127:Middlewares/lvgl/src/extra/widgets/calendar/lv_calendar.c ****         lv_snprintf(calendar->nums[i], sizeof(calendar->nums[0]), "%d", c);
 927              		.loc 1 127 11 view .LVU273
 928 009a 0025     		movs	r5, #0
 127:Middlewares/lvgl/src/extra/widgets/calendar/lv_calendar.c ****         lv_snprintf(calendar->nums[i], sizeof(calendar->nums[0]), "%d", c);
 929              		.loc 1 127 5 view .LVU274
 930 009c 11E0     		b	.L61
ARM GAS  /tmp/cc8F9tO6.s 			page 27


 931              	.LVL94:
 932              	.L62:
 128:Middlewares/lvgl/src/extra/widgets/calendar/lv_calendar.c ****         lv_btnmatrix_set_btn_ctrl(obj, i + 7, LV_BTNMATRIX_CTRL_DISABLED);
 933              		.loc 1 128 9 is_stmt 1 discriminator 3 view .LVU275
 128:Middlewares/lvgl/src/extra/widgets/calendar/lv_calendar.c ****         lv_btnmatrix_set_btn_ctrl(obj, i + 7, LV_BTNMATRIX_CTRL_DISABLED);
 934              		.loc 1 128 35 is_stmt 0 discriminator 3 view .LVU276
 935 009e 05F14A00 		add	r0, r5, #74
 128:Middlewares/lvgl/src/extra/widgets/calendar/lv_calendar.c ****         lv_btnmatrix_set_btn_ctrl(obj, i + 7, LV_BTNMATRIX_CTRL_DISABLED);
 936              		.loc 1 128 9 discriminator 3 view .LVU277
 937 00a2 3B46     		mov	r3, r7
 938 00a4 184A     		ldr	r2, .L66
 939 00a6 0421     		movs	r1, #4
 940 00a8 06EB8000 		add	r0, r6, r0, lsl #2
 941 00ac FFF7FEFF 		bl	lv_snprintf
 942              	.LVL95:
 129:Middlewares/lvgl/src/extra/widgets/calendar/lv_calendar.c ****     }
 943              		.loc 1 129 9 is_stmt 1 discriminator 3 view .LVU278
 944 00b0 2022     		movs	r2, #32
 945 00b2 E91D     		adds	r1, r5, #7
 946 00b4 3046     		mov	r0, r6
 947 00b6 FFF7FEFF 		bl	lv_btnmatrix_set_btn_ctrl
 948              	.LVL96:
 127:Middlewares/lvgl/src/extra/widgets/calendar/lv_calendar.c ****         lv_snprintf(calendar->nums[i], sizeof(calendar->nums[0]), "%d", c);
 949              		.loc 1 127 64 discriminator 3 view .LVU279
 127:Middlewares/lvgl/src/extra/widgets/calendar/lv_calendar.c ****         lv_snprintf(calendar->nums[i], sizeof(calendar->nums[0]), "%d", c);
 950              		.loc 1 127 65 is_stmt 0 discriminator 3 view .LVU280
 951 00ba 0135     		adds	r5, r5, #1
 952              	.LVL97:
 127:Middlewares/lvgl/src/extra/widgets/calendar/lv_calendar.c ****         lv_snprintf(calendar->nums[i], sizeof(calendar->nums[0]), "%d", c);
 953              		.loc 1 127 65 discriminator 3 view .LVU281
 954 00bc EDB2     		uxtb	r5, r5
 955              	.LVL98:
 127:Middlewares/lvgl/src/extra/widgets/calendar/lv_calendar.c ****         lv_snprintf(calendar->nums[i], sizeof(calendar->nums[0]), "%d", c);
 956              		.loc 1 127 70 discriminator 3 view .LVU282
 957 00be 0137     		adds	r7, r7, #1
 958              	.LVL99:
 127:Middlewares/lvgl/src/extra/widgets/calendar/lv_calendar.c ****         lv_snprintf(calendar->nums[i], sizeof(calendar->nums[0]), "%d", c);
 959              		.loc 1 127 70 discriminator 3 view .LVU283
 960 00c0 FFB2     		uxtb	r7, r7
 961              	.LVL100:
 962              	.L61:
 127:Middlewares/lvgl/src/extra/widgets/calendar/lv_calendar.c ****         lv_snprintf(calendar->nums[i], sizeof(calendar->nums[0]), "%d", c);
 963              		.loc 1 127 49 is_stmt 1 discriminator 1 view .LVU284
 127:Middlewares/lvgl/src/extra/widgets/calendar/lv_calendar.c ****         lv_snprintf(calendar->nums[i], sizeof(calendar->nums[0]), "%d", c);
 964              		.loc 1 127 5 is_stmt 0 discriminator 1 view .LVU285
 965 00c2 4545     		cmp	r5, r8
 966 00c4 EBD3     		bcc	.L62
 132:Middlewares/lvgl/src/extra/widgets/calendar/lv_calendar.c ****         lv_snprintf(calendar->nums[i], sizeof(calendar->nums[0]), "%d", c);
 967              		.loc 1 132 5 is_stmt 1 view .LVU286
 132:Middlewares/lvgl/src/extra/widgets/calendar/lv_calendar.c ****         lv_snprintf(calendar->nums[i], sizeof(calendar->nums[0]), "%d", c);
 968              		.loc 1 132 11 is_stmt 0 view .LVU287
 969 00c6 4444     		add	r4, r4, r8
 970              	.LVL101:
 132:Middlewares/lvgl/src/extra/widgets/calendar/lv_calendar.c ****         lv_snprintf(calendar->nums[i], sizeof(calendar->nums[0]), "%d", c);
 971              		.loc 1 132 11 view .LVU288
 972 00c8 E4B2     		uxtb	r4, r4
 973              	.LVL102:
ARM GAS  /tmp/cc8F9tO6.s 			page 28


 132:Middlewares/lvgl/src/extra/widgets/calendar/lv_calendar.c ****         lv_snprintf(calendar->nums[i], sizeof(calendar->nums[0]), "%d", c);
 974              		.loc 1 132 39 view .LVU289
 975 00ca 0125     		movs	r5, #1
 132:Middlewares/lvgl/src/extra/widgets/calendar/lv_calendar.c ****         lv_snprintf(calendar->nums[i], sizeof(calendar->nums[0]), "%d", c);
 976              		.loc 1 132 5 view .LVU290
 977 00cc 11E0     		b	.L63
 978              	.LVL103:
 979              	.L64:
 133:Middlewares/lvgl/src/extra/widgets/calendar/lv_calendar.c ****         lv_btnmatrix_set_btn_ctrl(obj, i + 7, LV_BTNMATRIX_CTRL_DISABLED);
 980              		.loc 1 133 9 is_stmt 1 discriminator 3 view .LVU291
 133:Middlewares/lvgl/src/extra/widgets/calendar/lv_calendar.c ****         lv_btnmatrix_set_btn_ctrl(obj, i + 7, LV_BTNMATRIX_CTRL_DISABLED);
 981              		.loc 1 133 35 is_stmt 0 discriminator 3 view .LVU292
 982 00ce 04F14A00 		add	r0, r4, #74
 133:Middlewares/lvgl/src/extra/widgets/calendar/lv_calendar.c ****         lv_btnmatrix_set_btn_ctrl(obj, i + 7, LV_BTNMATRIX_CTRL_DISABLED);
 983              		.loc 1 133 9 discriminator 3 view .LVU293
 984 00d2 2B46     		mov	r3, r5
 985 00d4 0C4A     		ldr	r2, .L66
 986 00d6 0421     		movs	r1, #4
 987 00d8 06EB8000 		add	r0, r6, r0, lsl #2
 988 00dc FFF7FEFF 		bl	lv_snprintf
 989              	.LVL104:
 134:Middlewares/lvgl/src/extra/widgets/calendar/lv_calendar.c ****     }
 990              		.loc 1 134 9 is_stmt 1 discriminator 3 view .LVU294
 991 00e0 2022     		movs	r2, #32
 992 00e2 E11D     		adds	r1, r4, #7
 993 00e4 3046     		mov	r0, r6
 994 00e6 FFF7FEFF 		bl	lv_btnmatrix_set_btn_ctrl
 995              	.LVL105:
 132:Middlewares/lvgl/src/extra/widgets/calendar/lv_calendar.c ****         lv_snprintf(calendar->nums[i], sizeof(calendar->nums[0]), "%d", c);
 996              		.loc 1 132 55 discriminator 3 view .LVU295
 132:Middlewares/lvgl/src/extra/widgets/calendar/lv_calendar.c ****         lv_snprintf(calendar->nums[i], sizeof(calendar->nums[0]), "%d", c);
 997              		.loc 1 132 56 is_stmt 0 discriminator 3 view .LVU296
 998 00ea 0134     		adds	r4, r4, #1
 999              	.LVL106:
 132:Middlewares/lvgl/src/extra/widgets/calendar/lv_calendar.c ****         lv_snprintf(calendar->nums[i], sizeof(calendar->nums[0]), "%d", c);
 1000              		.loc 1 132 56 discriminator 3 view .LVU297
 1001 00ec E4B2     		uxtb	r4, r4
 1002              	.LVL107:
 132:Middlewares/lvgl/src/extra/widgets/calendar/lv_calendar.c ****         lv_snprintf(calendar->nums[i], sizeof(calendar->nums[0]), "%d", c);
 1003              		.loc 1 132 61 discriminator 3 view .LVU298
 1004 00ee 0135     		adds	r5, r5, #1
 1005              	.LVL108:
 132:Middlewares/lvgl/src/extra/widgets/calendar/lv_calendar.c ****         lv_snprintf(calendar->nums[i], sizeof(calendar->nums[0]), "%d", c);
 1006              		.loc 1 132 61 discriminator 3 view .LVU299
 1007 00f0 EDB2     		uxtb	r5, r5
 1008              	.LVL109:
 1009              	.L63:
 132:Middlewares/lvgl/src/extra/widgets/calendar/lv_calendar.c ****         lv_snprintf(calendar->nums[i], sizeof(calendar->nums[0]), "%d", c);
 1010              		.loc 1 132 44 is_stmt 1 discriminator 1 view .LVU300
 132:Middlewares/lvgl/src/extra/widgets/calendar/lv_calendar.c ****         lv_snprintf(calendar->nums[i], sizeof(calendar->nums[0]), "%d", c);
 1011              		.loc 1 132 5 is_stmt 0 discriminator 1 view .LVU301
 1012 00f2 292C     		cmp	r4, #41
 1013 00f4 EBD9     		bls	.L64
 137:Middlewares/lvgl/src/extra/widgets/calendar/lv_calendar.c ****     lv_obj_invalidate(obj);
 1014              		.loc 1 137 5 is_stmt 1 view .LVU302
 1015 00f6 3046     		mov	r0, r6
 1016 00f8 FFF7FEFF 		bl	highlight_update
ARM GAS  /tmp/cc8F9tO6.s 			page 29


 1017              	.LVL110:
 138:Middlewares/lvgl/src/extra/widgets/calendar/lv_calendar.c **** }
 1018              		.loc 1 138 5 view .LVU303
 1019 00fc 3046     		mov	r0, r6
 1020 00fe FFF7FEFF 		bl	lv_obj_invalidate
 1021              	.LVL111:
 139:Middlewares/lvgl/src/extra/widgets/calendar/lv_calendar.c **** 
 1022              		.loc 1 139 1 is_stmt 0 view .LVU304
 1023 0102 02B0     		add	sp, sp, #8
 1024              	.LCFI11:
 1025              		.cfi_def_cfa_offset 32
 1026              		@ sp needed
 1027 0104 BDE8F087 		pop	{r4, r5, r6, r7, r8, r9, r10, pc}
 1028              	.LVL112:
 1029              	.L67:
 139:Middlewares/lvgl/src/extra/widgets/calendar/lv_calendar.c **** 
 1030              		.loc 1 139 1 view .LVU305
 1031              		.align	2
 1032              	.L66:
 1033 0108 00000000 		.word	.LC0
 1034              		.cfi_endproc
 1035              	.LFE188:
 1037              		.section	.rodata.lv_calendar_constructor.str1.4,"aMS",%progbits,1
 1038              		.align	2
 1039              	.LC1:
 1040 0000 0A00     		.ascii	"\012\000"
 1041 0002 0000     		.align	2
 1042              	.LC2:
 1043 0004 00       		.ascii	"\000"
 1044              		.section	.text.lv_calendar_constructor,"ax",%progbits
 1045              		.align	1
 1046              		.syntax unified
 1047              		.thumb
 1048              		.thumb_func
 1050              	lv_calendar_constructor:
 1051              	.LVL113:
 1052              	.LFB194:
 212:Middlewares/lvgl/src/extra/widgets/calendar/lv_calendar.c ****     LV_UNUSED(class_p);
 1053              		.loc 1 212 1 is_stmt 1 view -0
 1054              		.cfi_startproc
 1055              		@ args = 0, pretend = 0, frame = 0
 1056              		@ frame_needed = 0, uses_anonymous_args = 0
 212:Middlewares/lvgl/src/extra/widgets/calendar/lv_calendar.c ****     LV_UNUSED(class_p);
 1057              		.loc 1 212 1 is_stmt 0 view .LVU307
 1058 0000 38B5     		push	{r3, r4, r5, lr}
 1059              	.LCFI12:
 1060              		.cfi_def_cfa_offset 16
 1061              		.cfi_offset 3, -16
 1062              		.cfi_offset 4, -12
 1063              		.cfi_offset 5, -8
 1064              		.cfi_offset 14, -4
 1065 0002 0C46     		mov	r4, r1
 213:Middlewares/lvgl/src/extra/widgets/calendar/lv_calendar.c ****     lv_calendar_t * calendar = (lv_calendar_t *)obj;
 1066              		.loc 1 213 5 is_stmt 1 view .LVU308
 214:Middlewares/lvgl/src/extra/widgets/calendar/lv_calendar.c **** 
 1067              		.loc 1 214 5 view .LVU309
 1068              	.LVL114:
ARM GAS  /tmp/cc8F9tO6.s 			page 30


 217:Middlewares/lvgl/src/extra/widgets/calendar/lv_calendar.c ****     calendar->today.month = 1;
 1069              		.loc 1 217 5 view .LVU310
 217:Middlewares/lvgl/src/extra/widgets/calendar/lv_calendar.c ****     calendar->today.month = 1;
 1070              		.loc 1 217 27 is_stmt 0 view .LVU311
 1071 0004 40F2E472 		movw	r2, #2020
 1072 0008 0A87     		strh	r2, [r1, #56]	@ movhi
 218:Middlewares/lvgl/src/extra/widgets/calendar/lv_calendar.c ****     calendar->today.day   = 1;
 1073              		.loc 1 218 5 is_stmt 1 view .LVU312
 218:Middlewares/lvgl/src/extra/widgets/calendar/lv_calendar.c ****     calendar->today.day   = 1;
 1074              		.loc 1 218 27 is_stmt 0 view .LVU313
 1075 000a 0123     		movs	r3, #1
 1076 000c 81F83A30 		strb	r3, [r1, #58]
 219:Middlewares/lvgl/src/extra/widgets/calendar/lv_calendar.c **** 
 1077              		.loc 1 219 5 is_stmt 1 view .LVU314
 219:Middlewares/lvgl/src/extra/widgets/calendar/lv_calendar.c **** 
 1078              		.loc 1 219 27 is_stmt 0 view .LVU315
 1079 0010 81F83B30 		strb	r3, [r1, #59]
 221:Middlewares/lvgl/src/extra/widgets/calendar/lv_calendar.c ****     calendar->showed_date.month = 1;
 1080              		.loc 1 221 5 is_stmt 1 view .LVU316
 221:Middlewares/lvgl/src/extra/widgets/calendar/lv_calendar.c ****     calendar->showed_date.month = 1;
 1081              		.loc 1 221 33 is_stmt 0 view .LVU317
 1082 0014 8A87     		strh	r2, [r1, #60]	@ movhi
 222:Middlewares/lvgl/src/extra/widgets/calendar/lv_calendar.c ****     calendar->showed_date.day   = 1;
 1083              		.loc 1 222 5 is_stmt 1 view .LVU318
 222:Middlewares/lvgl/src/extra/widgets/calendar/lv_calendar.c ****     calendar->showed_date.day   = 1;
 1084              		.loc 1 222 33 is_stmt 0 view .LVU319
 1085 0016 81F83E30 		strb	r3, [r1, #62]
 223:Middlewares/lvgl/src/extra/widgets/calendar/lv_calendar.c **** 
 1086              		.loc 1 223 5 is_stmt 1 view .LVU320
 223:Middlewares/lvgl/src/extra/widgets/calendar/lv_calendar.c **** 
 1087              		.loc 1 223 33 is_stmt 0 view .LVU321
 1088 001a 81F83F30 		strb	r3, [r1, #63]
 225:Middlewares/lvgl/src/extra/widgets/calendar/lv_calendar.c ****     calendar->highlighted_dates_num  = 0;
 1089              		.loc 1 225 5 is_stmt 1 view .LVU322
 225:Middlewares/lvgl/src/extra/widgets/calendar/lv_calendar.c ****     calendar->highlighted_dates_num  = 0;
 1090              		.loc 1 225 38 is_stmt 0 view .LVU323
 1091 001e 0025     		movs	r5, #0
 1092 0020 0D64     		str	r5, [r1, #64]
 226:Middlewares/lvgl/src/extra/widgets/calendar/lv_calendar.c **** 
 1093              		.loc 1 226 5 is_stmt 1 view .LVU324
 226:Middlewares/lvgl/src/extra/widgets/calendar/lv_calendar.c **** 
 1094              		.loc 1 226 38 is_stmt 0 view .LVU325
 1095 0022 A1F84450 		strh	r5, [r1, #68]	@ movhi
 228:Middlewares/lvgl/src/extra/widgets/calendar/lv_calendar.c ****     uint8_t i;
 1096              		.loc 1 228 5 is_stmt 1 view .LVU326
 1097 0026 A821     		movs	r1, #168
 1098              	.LVL115:
 228:Middlewares/lvgl/src/extra/widgets/calendar/lv_calendar.c ****     uint8_t i;
 1099              		.loc 1 228 5 is_stmt 0 view .LVU327
 1100 0028 04F59470 		add	r0, r4, #296
 1101              	.LVL116:
 228:Middlewares/lvgl/src/extra/widgets/calendar/lv_calendar.c ****     uint8_t i;
 1102              		.loc 1 228 5 view .LVU328
 1103 002c FFF7FEFF 		bl	lv_memset_00
 1104              	.LVL117:
 229:Middlewares/lvgl/src/extra/widgets/calendar/lv_calendar.c ****     uint8_t j = 0;
 1105              		.loc 1 229 5 is_stmt 1 view .LVU329
ARM GAS  /tmp/cc8F9tO6.s 			page 31


 230:Middlewares/lvgl/src/extra/widgets/calendar/lv_calendar.c ****     for(i = 0; i < 8 * 7; i++) {
 1106              		.loc 1 230 5 view .LVU330
 231:Middlewares/lvgl/src/extra/widgets/calendar/lv_calendar.c ****         /*Every 8th string is "\n"*/
 1107              		.loc 1 231 5 view .LVU331
 230:Middlewares/lvgl/src/extra/widgets/calendar/lv_calendar.c ****     for(i = 0; i < 8 * 7; i++) {
 1108              		.loc 1 230 13 is_stmt 0 view .LVU332
 1109 0030 2846     		mov	r0, r5
 231:Middlewares/lvgl/src/extra/widgets/calendar/lv_calendar.c ****         /*Every 8th string is "\n"*/
 1110              		.loc 1 231 11 view .LVU333
 1111 0032 2B46     		mov	r3, r5
 231:Middlewares/lvgl/src/extra/widgets/calendar/lv_calendar.c ****         /*Every 8th string is "\n"*/
 1112              		.loc 1 231 5 view .LVU334
 1113 0034 10E0     		b	.L69
 1114              	.LVL118:
 1115              	.L70:
 235:Middlewares/lvgl/src/extra/widgets/calendar/lv_calendar.c ****             calendar->map[i] = day_names_def[i];
 1116              		.loc 1 235 16 is_stmt 1 view .LVU335
 235:Middlewares/lvgl/src/extra/widgets/calendar/lv_calendar.c ****             calendar->map[i] = day_names_def[i];
 1117              		.loc 1 235 18 is_stmt 0 view .LVU336
 1118 0036 072B     		cmp	r3, #7
 1119 0038 1CD9     		bls	.L75
 238:Middlewares/lvgl/src/extra/widgets/calendar/lv_calendar.c ****             calendar->map[i] = calendar->nums[j];
 1120              		.loc 1 238 13 is_stmt 1 view .LVU337
 238:Middlewares/lvgl/src/extra/widgets/calendar/lv_calendar.c ****             calendar->map[i] = calendar->nums[j];
 1121              		.loc 1 238 34 is_stmt 0 view .LVU338
 1122 003a 00F14A02 		add	r2, r0, #74
 1123 003e 7821     		movs	r1, #120
 1124 0040 04F82210 		strb	r1, [r4, r2, lsl #2]
 239:Middlewares/lvgl/src/extra/widgets/calendar/lv_calendar.c ****             j++;
 1125              		.loc 1 239 13 is_stmt 1 view .LVU339
 239:Middlewares/lvgl/src/extra/widgets/calendar/lv_calendar.c ****             j++;
 1126              		.loc 1 239 32 is_stmt 0 view .LVU340
 1127 0044 04EB8202 		add	r2, r4, r2, lsl #2
 239:Middlewares/lvgl/src/extra/widgets/calendar/lv_calendar.c ****             j++;
 1128              		.loc 1 239 30 view .LVU341
 1129 0048 03F11201 		add	r1, r3, #18
 1130 004c 44F82120 		str	r2, [r4, r1, lsl #2]
 240:Middlewares/lvgl/src/extra/widgets/calendar/lv_calendar.c ****         }
 1131              		.loc 1 240 13 is_stmt 1 view .LVU342
 240:Middlewares/lvgl/src/extra/widgets/calendar/lv_calendar.c ****         }
 1132              		.loc 1 240 14 is_stmt 0 view .LVU343
 1133 0050 0130     		adds	r0, r0, #1
 1134              	.LVL119:
 240:Middlewares/lvgl/src/extra/widgets/calendar/lv_calendar.c ****         }
 1135              		.loc 1 240 14 view .LVU344
 1136 0052 C0B2     		uxtb	r0, r0
 1137              	.LVL120:
 1138              	.L71:
 231:Middlewares/lvgl/src/extra/widgets/calendar/lv_calendar.c ****         /*Every 8th string is "\n"*/
 1139              		.loc 1 231 27 is_stmt 1 discriminator 2 view .LVU345
 231:Middlewares/lvgl/src/extra/widgets/calendar/lv_calendar.c ****         /*Every 8th string is "\n"*/
 1140              		.loc 1 231 28 is_stmt 0 discriminator 2 view .LVU346
 1141 0054 0133     		adds	r3, r3, #1
 1142              	.LVL121:
 231:Middlewares/lvgl/src/extra/widgets/calendar/lv_calendar.c ****         /*Every 8th string is "\n"*/
 1143              		.loc 1 231 28 discriminator 2 view .LVU347
 1144 0056 DBB2     		uxtb	r3, r3
ARM GAS  /tmp/cc8F9tO6.s 			page 32


 1145              	.LVL122:
 1146              	.L69:
 231:Middlewares/lvgl/src/extra/widgets/calendar/lv_calendar.c ****         /*Every 8th string is "\n"*/
 1147              		.loc 1 231 16 is_stmt 1 discriminator 1 view .LVU348
 231:Middlewares/lvgl/src/extra/widgets/calendar/lv_calendar.c ****         /*Every 8th string is "\n"*/
 1148              		.loc 1 231 5 is_stmt 0 discriminator 1 view .LVU349
 1149 0058 372B     		cmp	r3, #55
 1150 005a 13D8     		bhi	.L76
 233:Middlewares/lvgl/src/extra/widgets/calendar/lv_calendar.c ****             calendar->map[i] = "\n";
 1151              		.loc 1 233 9 is_stmt 1 view .LVU350
 233:Middlewares/lvgl/src/extra/widgets/calendar/lv_calendar.c ****             calendar->map[i] = "\n";
 1152              		.loc 1 233 11 is_stmt 0 view .LVU351
 1153 005c 002B     		cmp	r3, #0
 1154 005e EAD0     		beq	.L70
 233:Middlewares/lvgl/src/extra/widgets/calendar/lv_calendar.c ****             calendar->map[i] = "\n";
 1155              		.loc 1 233 25 discriminator 1 view .LVU352
 1156 0060 5A1C     		adds	r2, r3, #1
 233:Middlewares/lvgl/src/extra/widgets/calendar/lv_calendar.c ****             calendar->map[i] = "\n";
 1157              		.loc 1 233 19 discriminator 1 view .LVU353
 1158 0062 12F0070F 		tst	r2, #7
 1159 0066 E6D1     		bne	.L70
 234:Middlewares/lvgl/src/extra/widgets/calendar/lv_calendar.c ****         } else if(i < 8){
 1160              		.loc 1 234 13 is_stmt 1 view .LVU354
 234:Middlewares/lvgl/src/extra/widgets/calendar/lv_calendar.c ****         } else if(i < 8){
 1161              		.loc 1 234 30 is_stmt 0 view .LVU355
 1162 0068 03F11202 		add	r2, r3, #18
 1163 006c 1649     		ldr	r1, .L77
 1164 006e 44F82210 		str	r1, [r4, r2, lsl #2]
 1165 0072 EFE7     		b	.L71
 1166              	.L75:
 236:Middlewares/lvgl/src/extra/widgets/calendar/lv_calendar.c ****         } else {
 1167              		.loc 1 236 13 is_stmt 1 view .LVU356
 236:Middlewares/lvgl/src/extra/widgets/calendar/lv_calendar.c ****         } else {
 1168              		.loc 1 236 45 is_stmt 0 view .LVU357
 1169 0074 154A     		ldr	r2, .L77+4
 1170 0076 52F82310 		ldr	r1, [r2, r3, lsl #2]
 236:Middlewares/lvgl/src/extra/widgets/calendar/lv_calendar.c ****         } else {
 1171              		.loc 1 236 30 view .LVU358
 1172 007a 03F11202 		add	r2, r3, #18
 1173 007e 44F82210 		str	r1, [r4, r2, lsl #2]
 1174 0082 E7E7     		b	.L71
 1175              	.L76:
 243:Middlewares/lvgl/src/extra/widgets/calendar/lv_calendar.c **** 
 1176              		.loc 1 243 5 is_stmt 1 view .LVU359
 243:Middlewares/lvgl/src/extra/widgets/calendar/lv_calendar.c **** 
 1177              		.loc 1 243 30 is_stmt 0 view .LVU360
 1178 0084 124B     		ldr	r3, .L77+8
 1179              	.LVL123:
 243:Middlewares/lvgl/src/extra/widgets/calendar/lv_calendar.c **** 
 1180              		.loc 1 243 30 view .LVU361
 1181 0086 C4F82431 		str	r3, [r4, #292]
 245:Middlewares/lvgl/src/extra/widgets/calendar/lv_calendar.c ****     lv_btnmatrix_set_btn_ctrl_all(obj, LV_BTNMATRIX_CTRL_CLICK_TRIG | LV_BTNMATRIX_CTRL_NO_REPEAT);
 1182              		.loc 1 245 5 is_stmt 1 view .LVU362
 1183 008a 04F14801 		add	r1, r4, #72
 1184 008e 2046     		mov	r0, r4
 1185              	.LVL124:
 245:Middlewares/lvgl/src/extra/widgets/calendar/lv_calendar.c ****     lv_btnmatrix_set_btn_ctrl_all(obj, LV_BTNMATRIX_CTRL_CLICK_TRIG | LV_BTNMATRIX_CTRL_NO_REPEAT);
ARM GAS  /tmp/cc8F9tO6.s 			page 33


 1186              		.loc 1 245 5 is_stmt 0 view .LVU363
 1187 0090 FFF7FEFF 		bl	lv_btnmatrix_set_map
 1188              	.LVL125:
 246:Middlewares/lvgl/src/extra/widgets/calendar/lv_calendar.c **** 
 1189              		.loc 1 246 5 is_stmt 1 view .LVU364
 1190 0094 4FF48871 		mov	r1, #272
 1191 0098 2046     		mov	r0, r4
 1192 009a FFF7FEFF 		bl	lv_btnmatrix_set_btn_ctrl_all
 1193              	.LVL126:
 249:Middlewares/lvgl/src/extra/widgets/calendar/lv_calendar.c ****     lv_calendar_set_today_date(obj, calendar->today.year, calendar->today.month, calendar->today.da
 1194              		.loc 1 249 5 view .LVU365
 1195 009e 94F93E20 		ldrsb	r2, [r4, #62]
 1196 00a2 A18F     		ldrh	r1, [r4, #60]
 1197 00a4 2046     		mov	r0, r4
 1198 00a6 FFF7FEFF 		bl	lv_calendar_set_showed_date
 1199              	.LVL127:
 250:Middlewares/lvgl/src/extra/widgets/calendar/lv_calendar.c **** 
 1200              		.loc 1 250 5 view .LVU366
 1201 00aa 94F93B30 		ldrsb	r3, [r4, #59]
 1202 00ae 94F93A20 		ldrsb	r2, [r4, #58]
 1203 00b2 218F     		ldrh	r1, [r4, #56]
 1204 00b4 2046     		mov	r0, r4
 1205 00b6 FFF7FEFF 		bl	lv_calendar_set_today_date
 1206              	.LVL128:
 252:Middlewares/lvgl/src/extra/widgets/calendar/lv_calendar.c **** }
 1207              		.loc 1 252 5 view .LVU367
 1208 00ba 0023     		movs	r3, #0
 1209 00bc 1A22     		movs	r2, #26
 1210 00be 0549     		ldr	r1, .L77+12
 1211 00c0 2046     		mov	r0, r4
 1212 00c2 FFF7FEFF 		bl	lv_obj_add_event_cb
 1213              	.LVL129:
 253:Middlewares/lvgl/src/extra/widgets/calendar/lv_calendar.c **** 
 1214              		.loc 1 253 1 is_stmt 0 view .LVU368
 1215 00c6 38BD     		pop	{r3, r4, r5, pc}
 1216              	.LVL130:
 1217              	.L78:
 253:Middlewares/lvgl/src/extra/widgets/calendar/lv_calendar.c **** 
 1218              		.loc 1 253 1 view .LVU369
 1219              		.align	2
 1220              	.L77:
 1221 00c8 00000000 		.word	.LC1
 1222 00cc 00000000 		.word	.LANCHOR1
 1223 00d0 04000000 		.word	.LC2
 1224 00d4 00000000 		.word	draw_part_begin_event_cb
 1225              		.cfi_endproc
 1226              	.LFE194:
 1228              		.section	.text.lv_calendar_get_today_date,"ax",%progbits
 1229              		.align	1
 1230              		.global	lv_calendar_get_today_date
 1231              		.syntax unified
 1232              		.thumb
 1233              		.thumb_func
 1235              	lv_calendar_get_today_date:
 1236              	.LVL131:
 1237              	.LFB189:
 151:Middlewares/lvgl/src/extra/widgets/calendar/lv_calendar.c ****     const lv_calendar_t * calendar = (lv_calendar_t *)obj;
ARM GAS  /tmp/cc8F9tO6.s 			page 34


 1238              		.loc 1 151 1 is_stmt 1 view -0
 1239              		.cfi_startproc
 1240              		@ args = 0, pretend = 0, frame = 0
 1241              		@ frame_needed = 0, uses_anonymous_args = 0
 1242              		@ link register save eliminated.
 152:Middlewares/lvgl/src/extra/widgets/calendar/lv_calendar.c ****     return &calendar->today;
 1243              		.loc 1 152 5 view .LVU371
 153:Middlewares/lvgl/src/extra/widgets/calendar/lv_calendar.c **** }
 1244              		.loc 1 153 5 view .LVU372
 154:Middlewares/lvgl/src/extra/widgets/calendar/lv_calendar.c **** 
 1245              		.loc 1 154 1 is_stmt 0 view .LVU373
 1246 0000 3830     		adds	r0, r0, #56
 1247              	.LVL132:
 154:Middlewares/lvgl/src/extra/widgets/calendar/lv_calendar.c **** 
 1248              		.loc 1 154 1 view .LVU374
 1249 0002 7047     		bx	lr
 1250              		.cfi_endproc
 1251              	.LFE189:
 1253              		.section	.text.lv_calendar_get_showed_date,"ax",%progbits
 1254              		.align	1
 1255              		.global	lv_calendar_get_showed_date
 1256              		.syntax unified
 1257              		.thumb
 1258              		.thumb_func
 1260              	lv_calendar_get_showed_date:
 1261              	.LVL133:
 1262              	.LFB190:
 162:Middlewares/lvgl/src/extra/widgets/calendar/lv_calendar.c ****     const lv_calendar_t * calendar = (lv_calendar_t *)obj;
 1263              		.loc 1 162 1 is_stmt 1 view -0
 1264              		.cfi_startproc
 1265              		@ args = 0, pretend = 0, frame = 0
 1266              		@ frame_needed = 0, uses_anonymous_args = 0
 1267              		@ link register save eliminated.
 163:Middlewares/lvgl/src/extra/widgets/calendar/lv_calendar.c ****     return &calendar->showed_date;
 1268              		.loc 1 163 5 view .LVU376
 164:Middlewares/lvgl/src/extra/widgets/calendar/lv_calendar.c **** }
 1269              		.loc 1 164 5 view .LVU377
 165:Middlewares/lvgl/src/extra/widgets/calendar/lv_calendar.c **** 
 1270              		.loc 1 165 1 is_stmt 0 view .LVU378
 1271 0000 3C30     		adds	r0, r0, #60
 1272              	.LVL134:
 165:Middlewares/lvgl/src/extra/widgets/calendar/lv_calendar.c **** 
 1273              		.loc 1 165 1 view .LVU379
 1274 0002 7047     		bx	lr
 1275              		.cfi_endproc
 1276              	.LFE190:
 1278              		.section	.text.lv_calendar_get_highlighted_dates,"ax",%progbits
 1279              		.align	1
 1280              		.global	lv_calendar_get_highlighted_dates
 1281              		.syntax unified
 1282              		.thumb
 1283              		.thumb_func
 1285              	lv_calendar_get_highlighted_dates:
 1286              	.LVL135:
 1287              	.LFB191:
 173:Middlewares/lvgl/src/extra/widgets/calendar/lv_calendar.c ****     lv_calendar_t * calendar = (lv_calendar_t *)obj;
 1288              		.loc 1 173 1 is_stmt 1 view -0
ARM GAS  /tmp/cc8F9tO6.s 			page 35


 1289              		.cfi_startproc
 1290              		@ args = 0, pretend = 0, frame = 0
 1291              		@ frame_needed = 0, uses_anonymous_args = 0
 1292              		@ link register save eliminated.
 174:Middlewares/lvgl/src/extra/widgets/calendar/lv_calendar.c ****     return calendar->highlighted_dates;
 1293              		.loc 1 174 5 view .LVU381
 175:Middlewares/lvgl/src/extra/widgets/calendar/lv_calendar.c **** }
 1294              		.loc 1 175 5 view .LVU382
 176:Middlewares/lvgl/src/extra/widgets/calendar/lv_calendar.c **** 
 1295              		.loc 1 176 1 is_stmt 0 view .LVU383
 1296 0000 006C     		ldr	r0, [r0, #64]
 1297              	.LVL136:
 176:Middlewares/lvgl/src/extra/widgets/calendar/lv_calendar.c **** 
 1298              		.loc 1 176 1 view .LVU384
 1299 0002 7047     		bx	lr
 1300              		.cfi_endproc
 1301              	.LFE191:
 1303              		.section	.text.lv_calendar_get_highlighted_dates_num,"ax",%progbits
 1304              		.align	1
 1305              		.global	lv_calendar_get_highlighted_dates_num
 1306              		.syntax unified
 1307              		.thumb
 1308              		.thumb_func
 1310              	lv_calendar_get_highlighted_dates_num:
 1311              	.LVL137:
 1312              	.LFB192:
 179:Middlewares/lvgl/src/extra/widgets/calendar/lv_calendar.c ****     lv_calendar_t * calendar = (lv_calendar_t *)obj;
 1313              		.loc 1 179 1 is_stmt 1 view -0
 1314              		.cfi_startproc
 1315              		@ args = 0, pretend = 0, frame = 0
 1316              		@ frame_needed = 0, uses_anonymous_args = 0
 1317              		@ link register save eliminated.
 180:Middlewares/lvgl/src/extra/widgets/calendar/lv_calendar.c ****     return calendar->highlighted_dates_num;
 1318              		.loc 1 180 5 view .LVU386
 181:Middlewares/lvgl/src/extra/widgets/calendar/lv_calendar.c **** }
 1319              		.loc 1 181 5 view .LVU387
 182:Middlewares/lvgl/src/extra/widgets/calendar/lv_calendar.c **** 
 1320              		.loc 1 182 1 is_stmt 0 view .LVU388
 1321 0000 B0F84400 		ldrh	r0, [r0, #68]
 1322              	.LVL138:
 182:Middlewares/lvgl/src/extra/widgets/calendar/lv_calendar.c **** 
 1323              		.loc 1 182 1 view .LVU389
 1324 0004 7047     		bx	lr
 1325              		.cfi_endproc
 1326              	.LFE192:
 1328              		.section	.text.lv_calendar_get_pressed_date,"ax",%progbits
 1329              		.align	1
 1330              		.global	lv_calendar_get_pressed_date
 1331              		.syntax unified
 1332              		.thumb
 1333              		.thumb_func
 1335              	lv_calendar_get_pressed_date:
 1336              	.LVL139:
 1337              	.LFB193:
 185:Middlewares/lvgl/src/extra/widgets/calendar/lv_calendar.c ****     lv_calendar_t * calendar = (lv_calendar_t *)obj;
 1338              		.loc 1 185 1 is_stmt 1 view -0
 1339              		.cfi_startproc
ARM GAS  /tmp/cc8F9tO6.s 			page 36


 1340              		@ args = 0, pretend = 0, frame = 0
 1341              		@ frame_needed = 0, uses_anonymous_args = 0
 185:Middlewares/lvgl/src/extra/widgets/calendar/lv_calendar.c ****     lv_calendar_t * calendar = (lv_calendar_t *)obj;
 1342              		.loc 1 185 1 is_stmt 0 view .LVU391
 1343 0000 38B5     		push	{r3, r4, r5, lr}
 1344              	.LCFI13:
 1345              		.cfi_def_cfa_offset 16
 1346              		.cfi_offset 3, -16
 1347              		.cfi_offset 4, -12
 1348              		.cfi_offset 5, -8
 1349              		.cfi_offset 14, -4
 1350 0002 0546     		mov	r5, r0
 1351 0004 0C46     		mov	r4, r1
 186:Middlewares/lvgl/src/extra/widgets/calendar/lv_calendar.c ****     uint16_t d = lv_btnmatrix_get_selected_btn(obj);
 1352              		.loc 1 186 5 is_stmt 1 view .LVU392
 1353              	.LVL140:
 187:Middlewares/lvgl/src/extra/widgets/calendar/lv_calendar.c ****     if(d == LV_BTNMATRIX_BTN_NONE) {
 1354              		.loc 1 187 5 view .LVU393
 187:Middlewares/lvgl/src/extra/widgets/calendar/lv_calendar.c ****     if(d == LV_BTNMATRIX_BTN_NONE) {
 1355              		.loc 1 187 18 is_stmt 0 view .LVU394
 1356 0006 FFF7FEFF 		bl	lv_btnmatrix_get_selected_btn
 1357              	.LVL141:
 188:Middlewares/lvgl/src/extra/widgets/calendar/lv_calendar.c ****         date->year = 0;
 1358              		.loc 1 188 5 is_stmt 1 view .LVU395
 188:Middlewares/lvgl/src/extra/widgets/calendar/lv_calendar.c ****         date->year = 0;
 1359              		.loc 1 188 7 is_stmt 0 view .LVU396
 1360 000a 4FF6FF73 		movw	r3, #65535
 1361 000e 9842     		cmp	r0, r3
 1362 0010 12D0     		beq	.L89
 195:Middlewares/lvgl/src/extra/widgets/calendar/lv_calendar.c **** 
 1363              		.loc 1 195 5 is_stmt 1 view .LVU397
 195:Middlewares/lvgl/src/extra/widgets/calendar/lv_calendar.c **** 
 1364              		.loc 1 195 24 is_stmt 0 view .LVU398
 1365 0012 2846     		mov	r0, r5
 1366              	.LVL142:
 195:Middlewares/lvgl/src/extra/widgets/calendar/lv_calendar.c **** 
 1367              		.loc 1 195 24 view .LVU399
 1368 0014 FFF7FEFF 		bl	lv_btnmatrix_get_selected_btn
 1369              	.LVL143:
 1370 0018 0146     		mov	r1, r0
 1371 001a 2846     		mov	r0, r5
 1372 001c FFF7FEFF 		bl	lv_btnmatrix_get_btn_text
 1373              	.LVL144:
 197:Middlewares/lvgl/src/extra/widgets/calendar/lv_calendar.c ****     else date->day = (txt[0] - '0') * 10 + (txt[1] - '0');
 1374              		.loc 1 197 5 is_stmt 1 view .LVU400
 197:Middlewares/lvgl/src/extra/widgets/calendar/lv_calendar.c ****     else date->day = (txt[0] - '0') * 10 + (txt[1] - '0');
 1375              		.loc 1 197 11 is_stmt 0 view .LVU401
 1376 0020 4378     		ldrb	r3, [r0, #1]	@ zero_extendqisi2
 197:Middlewares/lvgl/src/extra/widgets/calendar/lv_calendar.c ****     else date->day = (txt[0] - '0') * 10 + (txt[1] - '0');
 1377              		.loc 1 197 7 view .LVU402
 1378 0022 73B9     		cbnz	r3, .L86
 197:Middlewares/lvgl/src/extra/widgets/calendar/lv_calendar.c ****     else date->day = (txt[0] - '0') * 10 + (txt[1] - '0');
 1379              		.loc 1 197 21 is_stmt 1 discriminator 1 view .LVU403
 197:Middlewares/lvgl/src/extra/widgets/calendar/lv_calendar.c ****     else date->day = (txt[0] - '0') * 10 + (txt[1] - '0');
 1380              		.loc 1 197 36 is_stmt 0 discriminator 1 view .LVU404
 1381 0024 0378     		ldrb	r3, [r0]	@ zero_extendqisi2
 197:Middlewares/lvgl/src/extra/widgets/calendar/lv_calendar.c ****     else date->day = (txt[0] - '0') * 10 + (txt[1] - '0');
ARM GAS  /tmp/cc8F9tO6.s 			page 37


 1382              		.loc 1 197 40 discriminator 1 view .LVU405
 1383 0026 303B     		subs	r3, r3, #48
 197:Middlewares/lvgl/src/extra/widgets/calendar/lv_calendar.c ****     else date->day = (txt[0] - '0') * 10 + (txt[1] - '0');
 1384              		.loc 1 197 31 discriminator 1 view .LVU406
 1385 0028 E370     		strb	r3, [r4, #3]
 1386              	.L87:
 200:Middlewares/lvgl/src/extra/widgets/calendar/lv_calendar.c ****     date->month = calendar->showed_date.month;
 1387              		.loc 1 200 5 is_stmt 1 view .LVU407
 200:Middlewares/lvgl/src/extra/widgets/calendar/lv_calendar.c ****     date->month = calendar->showed_date.month;
 1388              		.loc 1 200 39 is_stmt 0 view .LVU408
 1389 002a AB8F     		ldrh	r3, [r5, #60]
 200:Middlewares/lvgl/src/extra/widgets/calendar/lv_calendar.c ****     date->month = calendar->showed_date.month;
 1390              		.loc 1 200 16 view .LVU409
 1391 002c 2380     		strh	r3, [r4]	@ movhi
 201:Middlewares/lvgl/src/extra/widgets/calendar/lv_calendar.c **** 
 1392              		.loc 1 201 5 is_stmt 1 view .LVU410
 201:Middlewares/lvgl/src/extra/widgets/calendar/lv_calendar.c **** 
 1393              		.loc 1 201 40 is_stmt 0 view .LVU411
 1394 002e 95F93E30 		ldrsb	r3, [r5, #62]
 201:Middlewares/lvgl/src/extra/widgets/calendar/lv_calendar.c **** 
 1395              		.loc 1 201 17 view .LVU412
 1396 0032 A370     		strb	r3, [r4, #2]
 203:Middlewares/lvgl/src/extra/widgets/calendar/lv_calendar.c **** }
 1397              		.loc 1 203 5 is_stmt 1 view .LVU413
 203:Middlewares/lvgl/src/extra/widgets/calendar/lv_calendar.c **** }
 1398              		.loc 1 203 12 is_stmt 0 view .LVU414
 1399 0034 0120     		movs	r0, #1
 1400              	.LVL145:
 1401              	.L85:
 204:Middlewares/lvgl/src/extra/widgets/calendar/lv_calendar.c **** 
 1402              		.loc 1 204 1 view .LVU415
 1403 0036 38BD     		pop	{r3, r4, r5, pc}
 1404              	.LVL146:
 1405              	.L89:
 189:Middlewares/lvgl/src/extra/widgets/calendar/lv_calendar.c ****         date->month = 0;
 1406              		.loc 1 189 9 is_stmt 1 view .LVU416
 189:Middlewares/lvgl/src/extra/widgets/calendar/lv_calendar.c ****         date->month = 0;
 1407              		.loc 1 189 20 is_stmt 0 view .LVU417
 1408 0038 0020     		movs	r0, #0
 1409              	.LVL147:
 189:Middlewares/lvgl/src/extra/widgets/calendar/lv_calendar.c ****         date->month = 0;
 1410              		.loc 1 189 20 view .LVU418
 1411 003a 2080     		strh	r0, [r4]	@ movhi
 190:Middlewares/lvgl/src/extra/widgets/calendar/lv_calendar.c ****         date->day = 0;
 1412              		.loc 1 190 9 is_stmt 1 view .LVU419
 190:Middlewares/lvgl/src/extra/widgets/calendar/lv_calendar.c ****         date->day = 0;
 1413              		.loc 1 190 21 is_stmt 0 view .LVU420
 1414 003c A070     		strb	r0, [r4, #2]
 191:Middlewares/lvgl/src/extra/widgets/calendar/lv_calendar.c ****         return LV_RES_INV;
 1415              		.loc 1 191 9 is_stmt 1 view .LVU421
 191:Middlewares/lvgl/src/extra/widgets/calendar/lv_calendar.c ****         return LV_RES_INV;
 1416              		.loc 1 191 19 is_stmt 0 view .LVU422
 1417 003e E070     		strb	r0, [r4, #3]
 192:Middlewares/lvgl/src/extra/widgets/calendar/lv_calendar.c ****     }
 1418              		.loc 1 192 9 is_stmt 1 view .LVU423
 192:Middlewares/lvgl/src/extra/widgets/calendar/lv_calendar.c ****     }
 1419              		.loc 1 192 16 is_stmt 0 view .LVU424
ARM GAS  /tmp/cc8F9tO6.s 			page 38


 1420 0040 F9E7     		b	.L85
 1421              	.LVL148:
 1422              	.L86:
 198:Middlewares/lvgl/src/extra/widgets/calendar/lv_calendar.c **** 
 1423              		.loc 1 198 10 is_stmt 1 view .LVU425
 198:Middlewares/lvgl/src/extra/widgets/calendar/lv_calendar.c **** 
 1424              		.loc 1 198 26 is_stmt 0 view .LVU426
 1425 0042 0278     		ldrb	r2, [r0]	@ zero_extendqisi2
 198:Middlewares/lvgl/src/extra/widgets/calendar/lv_calendar.c **** 
 1426              		.loc 1 198 42 view .LVU427
 1427 0044 303A     		subs	r2, r2, #48
 1428 0046 02EB8202 		add	r2, r2, r2, lsl #2
 1429 004a 03EB4203 		add	r3, r3, r2, lsl #1
 1430 004e 303B     		subs	r3, r3, #48
 198:Middlewares/lvgl/src/extra/widgets/calendar/lv_calendar.c **** 
 1431              		.loc 1 198 20 view .LVU428
 1432 0050 E370     		strb	r3, [r4, #3]
 1433 0052 EAE7     		b	.L87
 1434              		.cfi_endproc
 1435              	.LFE193:
 1437              		.section	.rodata.str1.4,"aMS",%progbits,1
 1438              		.align	2
 1439              	.LC3:
 1440 0000 537500   		.ascii	"Su\000"
 1441 0003 00       		.align	2
 1442              	.LC4:
 1443 0004 4D6F00   		.ascii	"Mo\000"
 1444 0007 00       		.align	2
 1445              	.LC5:
 1446 0008 547500   		.ascii	"Tu\000"
 1447 000b 00       		.align	2
 1448              	.LC6:
 1449 000c 576500   		.ascii	"We\000"
 1450 000f 00       		.align	2
 1451              	.LC7:
 1452 0010 546800   		.ascii	"Th\000"
 1453 0013 00       		.align	2
 1454              	.LC8:
 1455 0014 467200   		.ascii	"Fr\000"
 1456 0017 00       		.align	2
 1457              	.LC9:
 1458 0018 536100   		.ascii	"Sa\000"
 1459              		.global	lv_calendar_class
 1460              		.section	.rodata.day_names_def,"a"
 1461              		.align	2
 1462              		.set	.LANCHOR1,. + 0
 1465              	day_names_def:
 1466 0000 00000000 		.word	.LC3
 1467 0004 04000000 		.word	.LC4
 1468 0008 08000000 		.word	.LC5
 1469 000c 0C000000 		.word	.LC6
 1470 0010 10000000 		.word	.LC7
 1471 0014 14000000 		.word	.LC8
 1472 0018 18000000 		.word	.LC9
 1473              		.section	.rodata.lv_calendar_class,"a"
 1474              		.align	2
 1475              		.set	.LANCHOR0,. + 0
ARM GAS  /tmp/cc8F9tO6.s 			page 39


 1478              	lv_calendar_class:
 1479 0000 00000000 		.word	lv_btnmatrix_class
 1480 0004 00000000 		.word	lv_calendar_constructor
 1481 0008 00000000 		.space	12
 1481      00000000 
 1481      00000000 
 1482 0014 C300     		.short	195
 1483 0016 C300     		.short	195
 1484 0018 04       		.byte	4
 1485 0019 1D       		.byte	29
 1486 001a 00       		.byte	0
 1487 001b 00       		.space	1
 1488              		.text
 1489              	.Letext0:
 1490              		.file 2 "/home/akinya/gcc-arm-none-eabi/arm-none-eabi/include/machine/_default_types.h"
 1491              		.file 3 "/home/akinya/gcc-arm-none-eabi/arm-none-eabi/include/sys/_stdint.h"
 1492              		.file 4 "Middlewares/lvgl/src/extra/widgets/calendar/../../../widgets/../core/../misc/../font/../m
 1493              		.file 5 "Middlewares/lvgl/src/extra/widgets/calendar/../../../widgets/../core/../misc/../font/lv_f
 1494              		.file 6 "Middlewares/lvgl/src/extra/widgets/calendar/../../../widgets/../core/../misc/lv_types.h"
 1495              		.file 7 "Middlewares/lvgl/src/extra/widgets/calendar/../../../widgets/../core/../misc/lv_color.h"
 1496              		.file 8 "Middlewares/lvgl/src/extra/widgets/calendar/../../../widgets/../core/../misc/lv_txt.h"
 1497              		.file 9 "Middlewares/lvgl/src/extra/widgets/calendar/../../../widgets/../core/../misc/lv_bidi.h"
 1498              		.file 10 "Middlewares/lvgl/src/extra/widgets/calendar/../../../widgets/../core/../misc/lv_style.h"
 1499              		.file 11 "Middlewares/lvgl/src/extra/widgets/calendar/../../../widgets/../core/../hal/../misc/lv_l
 1500              		.file 12 "Middlewares/lvgl/src/extra/widgets/calendar/../../../widgets/../core/lv_obj.h"
 1501              		.file 13 "Middlewares/lvgl/src/extra/widgets/calendar/../../../widgets/../core/lv_group.h"
 1502              		.file 14 "Middlewares/lvgl/src/extra/widgets/calendar/../../../widgets/../core/lv_obj_scroll.h"
 1503              		.file 15 "Middlewares/lvgl/src/extra/widgets/calendar/../../../widgets/../core/lv_obj_style.h"
 1504              		.file 16 "Middlewares/lvgl/src/extra/widgets/calendar/../../../widgets/../core/../draw/lv_draw_rec
 1505              		.file 17 "Middlewares/lvgl/src/extra/widgets/calendar/../../../widgets/../core/../draw/lv_draw_lab
 1506              		.file 18 "Middlewares/lvgl/src/extra/widgets/calendar/../../../widgets/../core/../draw/lv_draw_img
 1507              		.file 19 "Middlewares/lvgl/src/extra/widgets/calendar/../../../widgets/../core/../draw/lv_draw_lin
 1508              		.file 20 "Middlewares/lvgl/src/extra/widgets/calendar/../../../widgets/../core/../draw/lv_draw_arc
 1509              		.file 21 "Middlewares/lvgl/src/extra/widgets/calendar/../../../widgets/../core/lv_obj_draw.h"
 1510              		.file 22 "Middlewares/lvgl/src/extra/widgets/calendar/../../../widgets/../core/lv_obj_class.h"
 1511              		.file 23 "Middlewares/lvgl/src/extra/widgets/calendar/../../../widgets/../core/lv_event.h"
 1512              		.file 24 "Middlewares/lvgl/src/extra/widgets/calendar/../../../widgets/lv_btnmatrix.h"
 1513              		.file 25 "Middlewares/lvgl/src/extra/widgets/calendar/lv_calendar.h"
 1514              		.file 26 "Middlewares/lvgl/src/extra/widgets/calendar/../../../../src/widgets/lv_bar.h"
 1515              		.file 27 "Middlewares/lvgl/src/extra/widgets/calendar/../../../../src/extra/widgets/imgbtn/lv_imgb
 1516              		.file 28 "Middlewares/lvgl/src/extra/widgets/calendar/../../../../src/core/lv_theme.h"
 1517              		.file 29 "Middlewares/lvgl/src/extra/widgets/calendar/../../../widgets/../core/../hal/../misc/lv_m
 1518              		.file 30 "Middlewares/lvgl/src/extra/widgets/calendar/../../../widgets/../core/../misc/lv_printf.h
 1519              		.file 31 "Middlewares/lvgl/src/extra/widgets/calendar/../../../widgets/../core/lv_obj_pos.h"
ARM GAS  /tmp/cc8F9tO6.s 			page 40

