ARM GAS  /tmp/ccdxwQT7.s 			page 1


   1              		.cpu cortex-m7
   2              		.arch armv7e-m
   3              		.fpu fpv5-d16
   4              		.eabi_attribute 28, 1
   5              		.eabi_attribute 20, 1
   6              		.eabi_attribute 21, 1
   7              		.eabi_attribute 23, 3
   8              		.eabi_attribute 24, 1
   9              		.eabi_attribute 25, 1
  10              		.eabi_attribute 26, 1
  11              		.eabi_attribute 30, 1
  12              		.eabi_attribute 34, 1
  13              		.eabi_attribute 18, 4
  14              		.file	"lv_canvas.c"
  15              		.text
  16              	.Ltext0:
  17              		.cfi_sections	.debug_frame
  18              		.section	.text.set_set_px_cb,"ax",%progbits
  19              		.align	1
  20              		.syntax unified
  21              		.thumb
  22              		.thumb_func
  24              	set_set_px_cb:
  25              	.LVL0:
  26              	.LFB165:
  27              		.file 1 "Middlewares/lvgl/src/widgets/lv_canvas.c"
   1:Middlewares/lvgl/src/widgets/lv_canvas.c **** /**
   2:Middlewares/lvgl/src/widgets/lv_canvas.c ****  * @file lv_canvas.c
   3:Middlewares/lvgl/src/widgets/lv_canvas.c ****  *
   4:Middlewares/lvgl/src/widgets/lv_canvas.c ****  */
   5:Middlewares/lvgl/src/widgets/lv_canvas.c **** 
   6:Middlewares/lvgl/src/widgets/lv_canvas.c **** /*********************
   7:Middlewares/lvgl/src/widgets/lv_canvas.c ****  *      INCLUDES
   8:Middlewares/lvgl/src/widgets/lv_canvas.c ****  *********************/
   9:Middlewares/lvgl/src/widgets/lv_canvas.c **** #include "lv_canvas.h"
  10:Middlewares/lvgl/src/widgets/lv_canvas.c **** #include "../misc/lv_assert.h"
  11:Middlewares/lvgl/src/widgets/lv_canvas.c **** #include "../misc/lv_math.h"
  12:Middlewares/lvgl/src/widgets/lv_canvas.c **** #include "../draw/lv_draw.h"
  13:Middlewares/lvgl/src/widgets/lv_canvas.c **** #include "../core/lv_refr.h"
  14:Middlewares/lvgl/src/widgets/lv_canvas.c **** 
  15:Middlewares/lvgl/src/widgets/lv_canvas.c **** #if LV_USE_CANVAS != 0
  16:Middlewares/lvgl/src/widgets/lv_canvas.c **** 
  17:Middlewares/lvgl/src/widgets/lv_canvas.c **** /*********************
  18:Middlewares/lvgl/src/widgets/lv_canvas.c ****  *      DEFINES
  19:Middlewares/lvgl/src/widgets/lv_canvas.c ****  *********************/
  20:Middlewares/lvgl/src/widgets/lv_canvas.c **** #define MY_CLASS &lv_canvas_class
  21:Middlewares/lvgl/src/widgets/lv_canvas.c **** 
  22:Middlewares/lvgl/src/widgets/lv_canvas.c **** /**********************
  23:Middlewares/lvgl/src/widgets/lv_canvas.c ****  *      TYPEDEFS
  24:Middlewares/lvgl/src/widgets/lv_canvas.c ****  **********************/
  25:Middlewares/lvgl/src/widgets/lv_canvas.c **** 
  26:Middlewares/lvgl/src/widgets/lv_canvas.c **** /**********************
  27:Middlewares/lvgl/src/widgets/lv_canvas.c ****  *  STATIC PROTOTYPES
  28:Middlewares/lvgl/src/widgets/lv_canvas.c ****  **********************/
  29:Middlewares/lvgl/src/widgets/lv_canvas.c **** static void lv_canvas_constructor(const lv_obj_class_t * class_p, lv_obj_t * obj);
  30:Middlewares/lvgl/src/widgets/lv_canvas.c **** static void set_set_px_cb(lv_disp_drv_t * disp_drv, lv_img_cf_t cf);
  31:Middlewares/lvgl/src/widgets/lv_canvas.c **** 
ARM GAS  /tmp/ccdxwQT7.s 			page 2


  32:Middlewares/lvgl/src/widgets/lv_canvas.c **** static void set_px_true_color_alpha(lv_disp_drv_t * disp_drv, uint8_t * buf, lv_coord_t buf_w, lv_c
  33:Middlewares/lvgl/src/widgets/lv_canvas.c ****                                     lv_coord_t y,
  34:Middlewares/lvgl/src/widgets/lv_canvas.c ****                                     lv_color_t color, lv_opa_t opa);
  35:Middlewares/lvgl/src/widgets/lv_canvas.c **** 
  36:Middlewares/lvgl/src/widgets/lv_canvas.c **** static void set_px_cb_alpha1(lv_disp_drv_t * disp_drv, uint8_t * buf, lv_coord_t buf_w, lv_coord_t 
  37:Middlewares/lvgl/src/widgets/lv_canvas.c ****                              lv_color_t color, lv_opa_t opa);
  38:Middlewares/lvgl/src/widgets/lv_canvas.c **** 
  39:Middlewares/lvgl/src/widgets/lv_canvas.c **** static void set_px_cb_alpha2(lv_disp_drv_t * disp_drv, uint8_t * buf, lv_coord_t buf_w, lv_coord_t 
  40:Middlewares/lvgl/src/widgets/lv_canvas.c ****                              lv_color_t color, lv_opa_t opa);
  41:Middlewares/lvgl/src/widgets/lv_canvas.c **** 
  42:Middlewares/lvgl/src/widgets/lv_canvas.c **** static void set_px_cb_alpha4(lv_disp_drv_t * disp_drv, uint8_t * buf, lv_coord_t buf_w, lv_coord_t 
  43:Middlewares/lvgl/src/widgets/lv_canvas.c ****                              lv_color_t color, lv_opa_t opa);
  44:Middlewares/lvgl/src/widgets/lv_canvas.c **** 
  45:Middlewares/lvgl/src/widgets/lv_canvas.c **** static void set_px_cb_alpha8(lv_disp_drv_t * disp_drv, uint8_t * buf, lv_coord_t buf_w, lv_coord_t 
  46:Middlewares/lvgl/src/widgets/lv_canvas.c ****                              lv_color_t color, lv_opa_t opa);
  47:Middlewares/lvgl/src/widgets/lv_canvas.c **** 
  48:Middlewares/lvgl/src/widgets/lv_canvas.c **** static void set_px_alpha_generic(lv_img_dsc_t * d, lv_coord_t x, lv_coord_t y, lv_color_t color, lv
  49:Middlewares/lvgl/src/widgets/lv_canvas.c **** 
  50:Middlewares/lvgl/src/widgets/lv_canvas.c **** /**********************
  51:Middlewares/lvgl/src/widgets/lv_canvas.c ****  *  STATIC VARIABLES
  52:Middlewares/lvgl/src/widgets/lv_canvas.c ****  **********************/
  53:Middlewares/lvgl/src/widgets/lv_canvas.c **** const lv_obj_class_t lv_canvas_class = {
  54:Middlewares/lvgl/src/widgets/lv_canvas.c ****     .constructor_cb = lv_canvas_constructor,
  55:Middlewares/lvgl/src/widgets/lv_canvas.c ****     .instance_size = sizeof(lv_canvas_t),
  56:Middlewares/lvgl/src/widgets/lv_canvas.c ****     .base_class = &lv_img_class
  57:Middlewares/lvgl/src/widgets/lv_canvas.c **** };
  58:Middlewares/lvgl/src/widgets/lv_canvas.c **** 
  59:Middlewares/lvgl/src/widgets/lv_canvas.c **** /**********************
  60:Middlewares/lvgl/src/widgets/lv_canvas.c ****  *      MACROS
  61:Middlewares/lvgl/src/widgets/lv_canvas.c ****  **********************/
  62:Middlewares/lvgl/src/widgets/lv_canvas.c **** 
  63:Middlewares/lvgl/src/widgets/lv_canvas.c **** /**********************
  64:Middlewares/lvgl/src/widgets/lv_canvas.c ****  *   GLOBAL FUNCTIONS
  65:Middlewares/lvgl/src/widgets/lv_canvas.c ****  **********************/
  66:Middlewares/lvgl/src/widgets/lv_canvas.c **** 
  67:Middlewares/lvgl/src/widgets/lv_canvas.c **** lv_obj_t * lv_canvas_create(lv_obj_t * parent)
  68:Middlewares/lvgl/src/widgets/lv_canvas.c **** {
  69:Middlewares/lvgl/src/widgets/lv_canvas.c ****     LV_LOG_INFO("begin")
  70:Middlewares/lvgl/src/widgets/lv_canvas.c ****     lv_obj_t * obj = lv_obj_class_create_obj(MY_CLASS, parent);
  71:Middlewares/lvgl/src/widgets/lv_canvas.c ****     lv_obj_class_init_obj(obj);
  72:Middlewares/lvgl/src/widgets/lv_canvas.c ****     return obj;
  73:Middlewares/lvgl/src/widgets/lv_canvas.c **** }
  74:Middlewares/lvgl/src/widgets/lv_canvas.c **** 
  75:Middlewares/lvgl/src/widgets/lv_canvas.c **** /*=====================
  76:Middlewares/lvgl/src/widgets/lv_canvas.c ****  * Setter functions
  77:Middlewares/lvgl/src/widgets/lv_canvas.c ****  *====================*/
  78:Middlewares/lvgl/src/widgets/lv_canvas.c **** 
  79:Middlewares/lvgl/src/widgets/lv_canvas.c **** void lv_canvas_set_buffer(lv_obj_t * obj, void * buf, lv_coord_t w, lv_coord_t h, lv_img_cf_t cf)
  80:Middlewares/lvgl/src/widgets/lv_canvas.c **** {
  81:Middlewares/lvgl/src/widgets/lv_canvas.c ****     LV_ASSERT_OBJ(obj, MY_CLASS);
  82:Middlewares/lvgl/src/widgets/lv_canvas.c ****     LV_ASSERT_NULL(buf);
  83:Middlewares/lvgl/src/widgets/lv_canvas.c **** 
  84:Middlewares/lvgl/src/widgets/lv_canvas.c ****     lv_canvas_t * canvas = (lv_canvas_t *)obj;
  85:Middlewares/lvgl/src/widgets/lv_canvas.c **** 
  86:Middlewares/lvgl/src/widgets/lv_canvas.c ****     canvas->dsc.header.cf = cf;
  87:Middlewares/lvgl/src/widgets/lv_canvas.c ****     canvas->dsc.header.w  = w;
  88:Middlewares/lvgl/src/widgets/lv_canvas.c ****     canvas->dsc.header.h  = h;
ARM GAS  /tmp/ccdxwQT7.s 			page 3


  89:Middlewares/lvgl/src/widgets/lv_canvas.c ****     canvas->dsc.data      = buf;
  90:Middlewares/lvgl/src/widgets/lv_canvas.c **** 
  91:Middlewares/lvgl/src/widgets/lv_canvas.c ****     lv_img_set_src(obj, &canvas->dsc);
  92:Middlewares/lvgl/src/widgets/lv_canvas.c **** }
  93:Middlewares/lvgl/src/widgets/lv_canvas.c **** 
  94:Middlewares/lvgl/src/widgets/lv_canvas.c **** void lv_canvas_set_px(lv_obj_t * obj, lv_coord_t x, lv_coord_t y, lv_color_t c)
  95:Middlewares/lvgl/src/widgets/lv_canvas.c **** {
  96:Middlewares/lvgl/src/widgets/lv_canvas.c ****     LV_ASSERT_OBJ(obj, MY_CLASS);
  97:Middlewares/lvgl/src/widgets/lv_canvas.c **** 
  98:Middlewares/lvgl/src/widgets/lv_canvas.c ****     lv_canvas_t * canvas = (lv_canvas_t *)obj;
  99:Middlewares/lvgl/src/widgets/lv_canvas.c **** 
 100:Middlewares/lvgl/src/widgets/lv_canvas.c ****     lv_img_buf_set_px_color(&canvas->dsc, x, y, c);
 101:Middlewares/lvgl/src/widgets/lv_canvas.c ****     lv_obj_invalidate(obj);
 102:Middlewares/lvgl/src/widgets/lv_canvas.c **** }
 103:Middlewares/lvgl/src/widgets/lv_canvas.c **** 
 104:Middlewares/lvgl/src/widgets/lv_canvas.c **** void lv_canvas_set_palette(lv_obj_t * obj, uint8_t id, lv_color_t c)
 105:Middlewares/lvgl/src/widgets/lv_canvas.c **** {
 106:Middlewares/lvgl/src/widgets/lv_canvas.c ****     LV_ASSERT_OBJ(obj, MY_CLASS);
 107:Middlewares/lvgl/src/widgets/lv_canvas.c **** 
 108:Middlewares/lvgl/src/widgets/lv_canvas.c ****     lv_canvas_t * canvas = (lv_canvas_t *)obj;
 109:Middlewares/lvgl/src/widgets/lv_canvas.c **** 
 110:Middlewares/lvgl/src/widgets/lv_canvas.c ****     lv_img_buf_set_palette(&canvas->dsc, id, c);
 111:Middlewares/lvgl/src/widgets/lv_canvas.c ****     lv_obj_invalidate(obj);
 112:Middlewares/lvgl/src/widgets/lv_canvas.c **** }
 113:Middlewares/lvgl/src/widgets/lv_canvas.c **** 
 114:Middlewares/lvgl/src/widgets/lv_canvas.c **** /*=====================
 115:Middlewares/lvgl/src/widgets/lv_canvas.c ****  * Getter functions
 116:Middlewares/lvgl/src/widgets/lv_canvas.c ****  *====================*/
 117:Middlewares/lvgl/src/widgets/lv_canvas.c **** 
 118:Middlewares/lvgl/src/widgets/lv_canvas.c **** lv_color_t lv_canvas_get_px(lv_obj_t * obj, lv_coord_t x, lv_coord_t y)
 119:Middlewares/lvgl/src/widgets/lv_canvas.c **** {
 120:Middlewares/lvgl/src/widgets/lv_canvas.c ****     LV_ASSERT_OBJ(obj, MY_CLASS);
 121:Middlewares/lvgl/src/widgets/lv_canvas.c **** 
 122:Middlewares/lvgl/src/widgets/lv_canvas.c ****     lv_canvas_t * canvas = (lv_canvas_t *)obj;
 123:Middlewares/lvgl/src/widgets/lv_canvas.c ****     lv_color_t color = lv_obj_get_style_img_recolor(obj, LV_PART_MAIN);
 124:Middlewares/lvgl/src/widgets/lv_canvas.c **** 
 125:Middlewares/lvgl/src/widgets/lv_canvas.c ****     return lv_img_buf_get_px_color(&canvas->dsc, x, y, color);
 126:Middlewares/lvgl/src/widgets/lv_canvas.c **** }
 127:Middlewares/lvgl/src/widgets/lv_canvas.c **** 
 128:Middlewares/lvgl/src/widgets/lv_canvas.c **** lv_img_dsc_t * lv_canvas_get_img(lv_obj_t * obj)
 129:Middlewares/lvgl/src/widgets/lv_canvas.c **** {
 130:Middlewares/lvgl/src/widgets/lv_canvas.c ****     LV_ASSERT_OBJ(obj, MY_CLASS);
 131:Middlewares/lvgl/src/widgets/lv_canvas.c **** 
 132:Middlewares/lvgl/src/widgets/lv_canvas.c ****     lv_canvas_t * canvas = (lv_canvas_t *)obj;
 133:Middlewares/lvgl/src/widgets/lv_canvas.c ****     return &canvas->dsc;
 134:Middlewares/lvgl/src/widgets/lv_canvas.c **** }
 135:Middlewares/lvgl/src/widgets/lv_canvas.c **** 
 136:Middlewares/lvgl/src/widgets/lv_canvas.c **** /*=====================
 137:Middlewares/lvgl/src/widgets/lv_canvas.c ****  * Other functions
 138:Middlewares/lvgl/src/widgets/lv_canvas.c ****  *====================*/
 139:Middlewares/lvgl/src/widgets/lv_canvas.c **** 
 140:Middlewares/lvgl/src/widgets/lv_canvas.c **** void lv_canvas_copy_buf(lv_obj_t * obj, const void * to_copy, lv_coord_t x, lv_coord_t y, lv_coord_
 141:Middlewares/lvgl/src/widgets/lv_canvas.c **** {
 142:Middlewares/lvgl/src/widgets/lv_canvas.c ****     LV_ASSERT_OBJ(obj, MY_CLASS);
 143:Middlewares/lvgl/src/widgets/lv_canvas.c ****     LV_ASSERT_NULL(to_copy);
 144:Middlewares/lvgl/src/widgets/lv_canvas.c **** 
 145:Middlewares/lvgl/src/widgets/lv_canvas.c ****     lv_canvas_t * canvas = (lv_canvas_t *)obj;
ARM GAS  /tmp/ccdxwQT7.s 			page 4


 146:Middlewares/lvgl/src/widgets/lv_canvas.c **** 
 147:Middlewares/lvgl/src/widgets/lv_canvas.c ****     if(x + w >= (lv_coord_t)canvas->dsc.header.w || y + h >= (lv_coord_t)canvas->dsc.header.h) {
 148:Middlewares/lvgl/src/widgets/lv_canvas.c ****         LV_LOG_WARN("lv_canvas_copy_buf: x or y out of the canvas");
 149:Middlewares/lvgl/src/widgets/lv_canvas.c ****         return;
 150:Middlewares/lvgl/src/widgets/lv_canvas.c ****     }
 151:Middlewares/lvgl/src/widgets/lv_canvas.c **** 
 152:Middlewares/lvgl/src/widgets/lv_canvas.c ****     uint32_t px_size   = lv_img_cf_get_px_size(canvas->dsc.header.cf) >> 3;
 153:Middlewares/lvgl/src/widgets/lv_canvas.c ****     uint32_t px        = canvas->dsc.header.w * y * px_size + x * px_size;
 154:Middlewares/lvgl/src/widgets/lv_canvas.c ****     uint8_t * to_copy8 = (uint8_t *)to_copy;
 155:Middlewares/lvgl/src/widgets/lv_canvas.c ****     lv_coord_t i;
 156:Middlewares/lvgl/src/widgets/lv_canvas.c ****     for(i = 0; i < h; i++) {
 157:Middlewares/lvgl/src/widgets/lv_canvas.c ****         lv_memcpy((void *)&canvas->dsc.data[px], to_copy8, w * px_size);
 158:Middlewares/lvgl/src/widgets/lv_canvas.c ****         px += canvas->dsc.header.w * px_size;
 159:Middlewares/lvgl/src/widgets/lv_canvas.c ****         to_copy8 += w * px_size;
 160:Middlewares/lvgl/src/widgets/lv_canvas.c ****     }
 161:Middlewares/lvgl/src/widgets/lv_canvas.c **** }
 162:Middlewares/lvgl/src/widgets/lv_canvas.c **** 
 163:Middlewares/lvgl/src/widgets/lv_canvas.c **** void lv_canvas_transform(lv_obj_t * obj, lv_img_dsc_t * img, int16_t angle, uint16_t zoom, lv_coord
 164:Middlewares/lvgl/src/widgets/lv_canvas.c ****                          lv_coord_t offset_y,
 165:Middlewares/lvgl/src/widgets/lv_canvas.c ****                          int32_t pivot_x, int32_t pivot_y, bool antialias)
 166:Middlewares/lvgl/src/widgets/lv_canvas.c **** {
 167:Middlewares/lvgl/src/widgets/lv_canvas.c **** #if LV_DRAW_COMPLEX
 168:Middlewares/lvgl/src/widgets/lv_canvas.c ****     LV_ASSERT_OBJ(obj, MY_CLASS);
 169:Middlewares/lvgl/src/widgets/lv_canvas.c ****     LV_ASSERT_NULL(img);
 170:Middlewares/lvgl/src/widgets/lv_canvas.c **** 
 171:Middlewares/lvgl/src/widgets/lv_canvas.c ****     lv_canvas_t * canvas = (lv_canvas_t *)obj;
 172:Middlewares/lvgl/src/widgets/lv_canvas.c ****     lv_color_t color = lv_obj_get_style_img_recolor(obj, LV_PART_MAIN);
 173:Middlewares/lvgl/src/widgets/lv_canvas.c **** 
 174:Middlewares/lvgl/src/widgets/lv_canvas.c ****     int32_t dest_width  = canvas->dsc.header.w;
 175:Middlewares/lvgl/src/widgets/lv_canvas.c ****     int32_t dest_height = canvas->dsc.header.h;
 176:Middlewares/lvgl/src/widgets/lv_canvas.c **** 
 177:Middlewares/lvgl/src/widgets/lv_canvas.c ****     int32_t x;
 178:Middlewares/lvgl/src/widgets/lv_canvas.c ****     int32_t y;
 179:Middlewares/lvgl/src/widgets/lv_canvas.c ****     bool ret;
 180:Middlewares/lvgl/src/widgets/lv_canvas.c **** 
 181:Middlewares/lvgl/src/widgets/lv_canvas.c ****     lv_img_transform_dsc_t dsc;
 182:Middlewares/lvgl/src/widgets/lv_canvas.c ****     dsc.cfg.angle = angle;
 183:Middlewares/lvgl/src/widgets/lv_canvas.c ****     dsc.cfg.zoom = zoom;
 184:Middlewares/lvgl/src/widgets/lv_canvas.c ****     dsc.cfg.src = img->data;
 185:Middlewares/lvgl/src/widgets/lv_canvas.c ****     dsc.cfg.src_w = img->header.w;
 186:Middlewares/lvgl/src/widgets/lv_canvas.c ****     dsc.cfg.src_h = img->header.h;
 187:Middlewares/lvgl/src/widgets/lv_canvas.c ****     dsc.cfg.cf = img->header.cf;
 188:Middlewares/lvgl/src/widgets/lv_canvas.c ****     dsc.cfg.pivot_x = pivot_x;
 189:Middlewares/lvgl/src/widgets/lv_canvas.c ****     dsc.cfg.pivot_y = pivot_y;
 190:Middlewares/lvgl/src/widgets/lv_canvas.c ****     dsc.cfg.color = color;
 191:Middlewares/lvgl/src/widgets/lv_canvas.c ****     dsc.cfg.antialias = antialias;
 192:Middlewares/lvgl/src/widgets/lv_canvas.c ****     _lv_img_buf_transform_init(&dsc);
 193:Middlewares/lvgl/src/widgets/lv_canvas.c **** 
 194:Middlewares/lvgl/src/widgets/lv_canvas.c ****     for(y = -offset_y; y < dest_height - offset_y; y++) {
 195:Middlewares/lvgl/src/widgets/lv_canvas.c ****         for(x = -offset_x; x < dest_width - offset_x; x++) {
 196:Middlewares/lvgl/src/widgets/lv_canvas.c **** 
 197:Middlewares/lvgl/src/widgets/lv_canvas.c ****             ret = _lv_img_buf_transform(&dsc, x, y);
 198:Middlewares/lvgl/src/widgets/lv_canvas.c **** 
 199:Middlewares/lvgl/src/widgets/lv_canvas.c ****             if(ret == false) continue;
 200:Middlewares/lvgl/src/widgets/lv_canvas.c **** 
 201:Middlewares/lvgl/src/widgets/lv_canvas.c ****             if(x + offset_x >= 0 && x + offset_x < dest_width && y + offset_y >= 0 && y + offset_y 
 202:Middlewares/lvgl/src/widgets/lv_canvas.c ****                 /*If the image has no alpha channel just simple set the result color on the canvas*
ARM GAS  /tmp/ccdxwQT7.s 			page 5


 203:Middlewares/lvgl/src/widgets/lv_canvas.c ****                 if(lv_img_cf_has_alpha(img->header.cf) == false) {
 204:Middlewares/lvgl/src/widgets/lv_canvas.c ****                     lv_img_buf_set_px_color(&canvas->dsc, x + offset_x, y + offset_y, dsc.res.color
 205:Middlewares/lvgl/src/widgets/lv_canvas.c ****                 }
 206:Middlewares/lvgl/src/widgets/lv_canvas.c ****                 else {
 207:Middlewares/lvgl/src/widgets/lv_canvas.c ****                     lv_color_t bg_color = lv_img_buf_get_px_color(&canvas->dsc, x + offset_x, y + o
 208:Middlewares/lvgl/src/widgets/lv_canvas.c **** 
 209:Middlewares/lvgl/src/widgets/lv_canvas.c ****                     /*If the canvas has no alpha but the image has mix the image's color with
 210:Middlewares/lvgl/src/widgets/lv_canvas.c ****                      * canvas*/
 211:Middlewares/lvgl/src/widgets/lv_canvas.c ****                     if(lv_img_cf_has_alpha(canvas->dsc.header.cf) == false) {
 212:Middlewares/lvgl/src/widgets/lv_canvas.c ****                         if(dsc.res.opa < LV_OPA_MAX) dsc.res.color = lv_color_mix(dsc.res.color, bg
 213:Middlewares/lvgl/src/widgets/lv_canvas.c ****                         lv_img_buf_set_px_color(&canvas->dsc, x + offset_x, y + offset_y, dsc.res.c
 214:Middlewares/lvgl/src/widgets/lv_canvas.c ****                     }
 215:Middlewares/lvgl/src/widgets/lv_canvas.c ****                     /*Both the image and canvas has alpha channel. Some extra calculation is
 216:Middlewares/lvgl/src/widgets/lv_canvas.c ****                        required*/
 217:Middlewares/lvgl/src/widgets/lv_canvas.c ****                     else {
 218:Middlewares/lvgl/src/widgets/lv_canvas.c ****                         lv_opa_t bg_opa = lv_img_buf_get_px_alpha(&canvas->dsc, x + offset_x, y + o
 219:Middlewares/lvgl/src/widgets/lv_canvas.c ****                         /*Pick the foreground if it's fully opaque or the Background is fully
 220:Middlewares/lvgl/src/widgets/lv_canvas.c ****                          *transparent*/
 221:Middlewares/lvgl/src/widgets/lv_canvas.c ****                         if(dsc.res.opa >= LV_OPA_MAX || bg_opa <= LV_OPA_MIN) {
 222:Middlewares/lvgl/src/widgets/lv_canvas.c ****                             lv_img_buf_set_px_color(&canvas->dsc, x + offset_x, y + offset_y, dsc.r
 223:Middlewares/lvgl/src/widgets/lv_canvas.c ****                             lv_img_buf_set_px_alpha(&canvas->dsc, x + offset_x, y + offset_y, dsc.r
 224:Middlewares/lvgl/src/widgets/lv_canvas.c ****                         }
 225:Middlewares/lvgl/src/widgets/lv_canvas.c ****                         /*Opaque background: use simple mix*/
 226:Middlewares/lvgl/src/widgets/lv_canvas.c ****                         else if(bg_opa >= LV_OPA_MAX) {
 227:Middlewares/lvgl/src/widgets/lv_canvas.c ****                             lv_img_buf_set_px_color(&canvas->dsc, x + offset_x, y + offset_y,
 228:Middlewares/lvgl/src/widgets/lv_canvas.c ****                                                     lv_color_mix(dsc.res.color, bg_color, dsc.res.o
 229:Middlewares/lvgl/src/widgets/lv_canvas.c ****                         }
 230:Middlewares/lvgl/src/widgets/lv_canvas.c ****                         /*Both colors have alpha. Expensive calculation need to be applied*/
 231:Middlewares/lvgl/src/widgets/lv_canvas.c ****                         else {
 232:Middlewares/lvgl/src/widgets/lv_canvas.c **** 
 233:Middlewares/lvgl/src/widgets/lv_canvas.c ****                             /*Info:
 234:Middlewares/lvgl/src/widgets/lv_canvas.c ****                              * https://en.wikipedia.org/wiki/Alpha_compositing#Analytical_derivatio
 235:Middlewares/lvgl/src/widgets/lv_canvas.c ****                             lv_opa_t opa_res_2 = 255 - ((uint16_t)((uint16_t)(255 - dsc.res.opa) * 
 236:Middlewares/lvgl/src/widgets/lv_canvas.c ****                             if(opa_res_2 == 0) {
 237:Middlewares/lvgl/src/widgets/lv_canvas.c ****                                 opa_res_2 = 1; /*never happens, just to be sure*/
 238:Middlewares/lvgl/src/widgets/lv_canvas.c ****                             }
 239:Middlewares/lvgl/src/widgets/lv_canvas.c ****                             lv_opa_t ratio = (uint16_t)((uint16_t)dsc.res.opa * 255) / opa_res_2;
 240:Middlewares/lvgl/src/widgets/lv_canvas.c **** 
 241:Middlewares/lvgl/src/widgets/lv_canvas.c ****                             lv_img_buf_set_px_color(&canvas->dsc, x + offset_x, y + offset_y,
 242:Middlewares/lvgl/src/widgets/lv_canvas.c ****                                                     lv_color_mix(dsc.res.color, bg_color, ratio));
 243:Middlewares/lvgl/src/widgets/lv_canvas.c ****                             lv_img_buf_set_px_alpha(&canvas->dsc, x + offset_x, y + offset_y, opa_r
 244:Middlewares/lvgl/src/widgets/lv_canvas.c ****                         }
 245:Middlewares/lvgl/src/widgets/lv_canvas.c ****                     }
 246:Middlewares/lvgl/src/widgets/lv_canvas.c ****                 }
 247:Middlewares/lvgl/src/widgets/lv_canvas.c ****             }
 248:Middlewares/lvgl/src/widgets/lv_canvas.c ****         }
 249:Middlewares/lvgl/src/widgets/lv_canvas.c ****     }
 250:Middlewares/lvgl/src/widgets/lv_canvas.c **** 
 251:Middlewares/lvgl/src/widgets/lv_canvas.c ****     lv_obj_invalidate(obj);
 252:Middlewares/lvgl/src/widgets/lv_canvas.c **** #else
 253:Middlewares/lvgl/src/widgets/lv_canvas.c ****     LV_UNUSED(obj);
 254:Middlewares/lvgl/src/widgets/lv_canvas.c ****     LV_UNUSED(img);
 255:Middlewares/lvgl/src/widgets/lv_canvas.c ****     LV_UNUSED(angle);
 256:Middlewares/lvgl/src/widgets/lv_canvas.c ****     LV_UNUSED(zoom);
 257:Middlewares/lvgl/src/widgets/lv_canvas.c ****     LV_UNUSED(offset_x);
 258:Middlewares/lvgl/src/widgets/lv_canvas.c ****     LV_UNUSED(offset_y);
 259:Middlewares/lvgl/src/widgets/lv_canvas.c ****     LV_UNUSED(pivot_x);
ARM GAS  /tmp/ccdxwQT7.s 			page 6


 260:Middlewares/lvgl/src/widgets/lv_canvas.c ****     LV_UNUSED(pivot_y);
 261:Middlewares/lvgl/src/widgets/lv_canvas.c ****     LV_UNUSED(antialias);
 262:Middlewares/lvgl/src/widgets/lv_canvas.c ****     LV_LOG_WARN("Can't transform canvas with LV_DRAW_COMPLEX == 0");
 263:Middlewares/lvgl/src/widgets/lv_canvas.c **** #endif
 264:Middlewares/lvgl/src/widgets/lv_canvas.c **** }
 265:Middlewares/lvgl/src/widgets/lv_canvas.c **** 
 266:Middlewares/lvgl/src/widgets/lv_canvas.c **** void lv_canvas_blur_hor(lv_obj_t * obj, const lv_area_t * area, uint16_t r)
 267:Middlewares/lvgl/src/widgets/lv_canvas.c **** {
 268:Middlewares/lvgl/src/widgets/lv_canvas.c ****     LV_ASSERT_OBJ(obj, MY_CLASS);
 269:Middlewares/lvgl/src/widgets/lv_canvas.c **** 
 270:Middlewares/lvgl/src/widgets/lv_canvas.c ****     if(r == 0) return;
 271:Middlewares/lvgl/src/widgets/lv_canvas.c **** 
 272:Middlewares/lvgl/src/widgets/lv_canvas.c ****     lv_canvas_t * canvas = (lv_canvas_t *)obj;
 273:Middlewares/lvgl/src/widgets/lv_canvas.c **** 
 274:Middlewares/lvgl/src/widgets/lv_canvas.c ****     lv_area_t a;
 275:Middlewares/lvgl/src/widgets/lv_canvas.c ****     if(area) {
 276:Middlewares/lvgl/src/widgets/lv_canvas.c ****         lv_area_copy(&a, area);
 277:Middlewares/lvgl/src/widgets/lv_canvas.c ****         if(a.x1 < 0) a.x1 = 0;
 278:Middlewares/lvgl/src/widgets/lv_canvas.c ****         if(a.y1 < 0) a.y1 = 0;
 279:Middlewares/lvgl/src/widgets/lv_canvas.c ****         if(a.x2 > canvas->dsc.header.w - 1) a.x2 = canvas->dsc.header.w - 1;
 280:Middlewares/lvgl/src/widgets/lv_canvas.c ****         if(a.y2 > canvas->dsc.header.h - 1) a.y2 = canvas->dsc.header.h - 1;
 281:Middlewares/lvgl/src/widgets/lv_canvas.c ****     }
 282:Middlewares/lvgl/src/widgets/lv_canvas.c ****     else {
 283:Middlewares/lvgl/src/widgets/lv_canvas.c ****         a.x1 = 0;
 284:Middlewares/lvgl/src/widgets/lv_canvas.c ****         a.y1 = 0;
 285:Middlewares/lvgl/src/widgets/lv_canvas.c ****         a.x2 = canvas->dsc.header.w - 1;
 286:Middlewares/lvgl/src/widgets/lv_canvas.c ****         a.y2 = canvas->dsc.header.h - 1;
 287:Middlewares/lvgl/src/widgets/lv_canvas.c ****     }
 288:Middlewares/lvgl/src/widgets/lv_canvas.c **** 
 289:Middlewares/lvgl/src/widgets/lv_canvas.c ****     lv_color_t color = lv_obj_get_style_img_recolor(obj, LV_PART_MAIN);
 290:Middlewares/lvgl/src/widgets/lv_canvas.c **** 
 291:Middlewares/lvgl/src/widgets/lv_canvas.c ****     uint16_t r_back = r / 2;
 292:Middlewares/lvgl/src/widgets/lv_canvas.c ****     uint16_t r_front = r / 2;
 293:Middlewares/lvgl/src/widgets/lv_canvas.c **** 
 294:Middlewares/lvgl/src/widgets/lv_canvas.c ****     if((r & 0x1) == 0) r_back--;
 295:Middlewares/lvgl/src/widgets/lv_canvas.c **** 
 296:Middlewares/lvgl/src/widgets/lv_canvas.c ****     bool has_alpha = lv_img_cf_has_alpha(canvas->dsc.header.cf);
 297:Middlewares/lvgl/src/widgets/lv_canvas.c **** 
 298:Middlewares/lvgl/src/widgets/lv_canvas.c ****     lv_coord_t line_w = lv_img_buf_get_img_size(canvas->dsc.header.w, 1, canvas->dsc.header.cf);
 299:Middlewares/lvgl/src/widgets/lv_canvas.c ****     uint8_t * line_buf = lv_mem_buf_get(line_w);
 300:Middlewares/lvgl/src/widgets/lv_canvas.c **** 
 301:Middlewares/lvgl/src/widgets/lv_canvas.c ****     lv_img_dsc_t line_img;
 302:Middlewares/lvgl/src/widgets/lv_canvas.c ****     line_img.data = line_buf;
 303:Middlewares/lvgl/src/widgets/lv_canvas.c ****     line_img.header.always_zero = 0;
 304:Middlewares/lvgl/src/widgets/lv_canvas.c ****     line_img.header.w = canvas->dsc.header.w;
 305:Middlewares/lvgl/src/widgets/lv_canvas.c ****     line_img.header.h = 1;
 306:Middlewares/lvgl/src/widgets/lv_canvas.c ****     line_img.header.cf = canvas->dsc.header.cf;
 307:Middlewares/lvgl/src/widgets/lv_canvas.c **** 
 308:Middlewares/lvgl/src/widgets/lv_canvas.c ****     lv_coord_t x;
 309:Middlewares/lvgl/src/widgets/lv_canvas.c ****     lv_coord_t y;
 310:Middlewares/lvgl/src/widgets/lv_canvas.c ****     lv_coord_t x_safe;
 311:Middlewares/lvgl/src/widgets/lv_canvas.c **** 
 312:Middlewares/lvgl/src/widgets/lv_canvas.c ****     for(y = a.y1; y <= a.y2; y++) {
 313:Middlewares/lvgl/src/widgets/lv_canvas.c ****         uint32_t asum = 0;
 314:Middlewares/lvgl/src/widgets/lv_canvas.c ****         uint32_t rsum = 0;
 315:Middlewares/lvgl/src/widgets/lv_canvas.c ****         uint32_t gsum = 0;
 316:Middlewares/lvgl/src/widgets/lv_canvas.c ****         uint32_t bsum = 0;
ARM GAS  /tmp/ccdxwQT7.s 			page 7


 317:Middlewares/lvgl/src/widgets/lv_canvas.c **** 
 318:Middlewares/lvgl/src/widgets/lv_canvas.c ****         lv_color_t c;
 319:Middlewares/lvgl/src/widgets/lv_canvas.c ****         lv_opa_t opa = LV_OPA_TRANSP;
 320:Middlewares/lvgl/src/widgets/lv_canvas.c ****         lv_memcpy(line_buf, &canvas->dsc.data[y * line_w], line_w);
 321:Middlewares/lvgl/src/widgets/lv_canvas.c **** 
 322:Middlewares/lvgl/src/widgets/lv_canvas.c ****         for(x = a.x1 - r_back; x <= a.x1 + r_front; x++) {
 323:Middlewares/lvgl/src/widgets/lv_canvas.c ****             x_safe = x < 0 ? 0 : x;
 324:Middlewares/lvgl/src/widgets/lv_canvas.c ****             x_safe = x_safe > canvas->dsc.header.w - 1 ? canvas->dsc.header.w - 1 : x_safe;
 325:Middlewares/lvgl/src/widgets/lv_canvas.c **** 
 326:Middlewares/lvgl/src/widgets/lv_canvas.c ****             c = lv_img_buf_get_px_color(&line_img, x_safe, 0, color);
 327:Middlewares/lvgl/src/widgets/lv_canvas.c ****             if(has_alpha) opa = lv_img_buf_get_px_alpha(&line_img, x_safe, 0);
 328:Middlewares/lvgl/src/widgets/lv_canvas.c **** 
 329:Middlewares/lvgl/src/widgets/lv_canvas.c ****             rsum += c.ch.red;
 330:Middlewares/lvgl/src/widgets/lv_canvas.c **** #if LV_COLOR_DEPTH == 16 && LV_COLOR_16_SWAP
 331:Middlewares/lvgl/src/widgets/lv_canvas.c ****             gsum += (c.ch.green_h << 3) + c.ch.green_l;
 332:Middlewares/lvgl/src/widgets/lv_canvas.c **** #else
 333:Middlewares/lvgl/src/widgets/lv_canvas.c ****             gsum += c.ch.green;
 334:Middlewares/lvgl/src/widgets/lv_canvas.c **** #endif
 335:Middlewares/lvgl/src/widgets/lv_canvas.c ****             bsum += c.ch.blue;
 336:Middlewares/lvgl/src/widgets/lv_canvas.c ****             if(has_alpha) asum += opa;
 337:Middlewares/lvgl/src/widgets/lv_canvas.c ****         }
 338:Middlewares/lvgl/src/widgets/lv_canvas.c **** 
 339:Middlewares/lvgl/src/widgets/lv_canvas.c ****         /*Just to indicate that the px is visible*/
 340:Middlewares/lvgl/src/widgets/lv_canvas.c ****         if(has_alpha == false) asum = LV_OPA_COVER;
 341:Middlewares/lvgl/src/widgets/lv_canvas.c **** 
 342:Middlewares/lvgl/src/widgets/lv_canvas.c ****         for(x = a.x1; x <= a.x2; x++) {
 343:Middlewares/lvgl/src/widgets/lv_canvas.c **** 
 344:Middlewares/lvgl/src/widgets/lv_canvas.c ****             if(asum) {
 345:Middlewares/lvgl/src/widgets/lv_canvas.c ****                 c.ch.red = rsum / r;
 346:Middlewares/lvgl/src/widgets/lv_canvas.c **** #if LV_COLOR_DEPTH == 16 && LV_COLOR_16_SWAP
 347:Middlewares/lvgl/src/widgets/lv_canvas.c ****                 uint8_t gtmp = gsum / r;
 348:Middlewares/lvgl/src/widgets/lv_canvas.c ****                 c.ch.green_h = gtmp >> 3;
 349:Middlewares/lvgl/src/widgets/lv_canvas.c ****                 c.ch.green_l = gtmp & 0x7;
 350:Middlewares/lvgl/src/widgets/lv_canvas.c **** #else
 351:Middlewares/lvgl/src/widgets/lv_canvas.c ****                 c.ch.green = gsum / r;
 352:Middlewares/lvgl/src/widgets/lv_canvas.c **** #endif
 353:Middlewares/lvgl/src/widgets/lv_canvas.c ****                 c.ch.blue = bsum / r;
 354:Middlewares/lvgl/src/widgets/lv_canvas.c ****                 if(has_alpha) opa = asum / r;
 355:Middlewares/lvgl/src/widgets/lv_canvas.c **** 
 356:Middlewares/lvgl/src/widgets/lv_canvas.c ****                 lv_img_buf_set_px_color(&canvas->dsc, x, y, c);
 357:Middlewares/lvgl/src/widgets/lv_canvas.c ****             }
 358:Middlewares/lvgl/src/widgets/lv_canvas.c ****             if(has_alpha) lv_img_buf_set_px_alpha(&canvas->dsc, x, y, opa);
 359:Middlewares/lvgl/src/widgets/lv_canvas.c **** 
 360:Middlewares/lvgl/src/widgets/lv_canvas.c ****             x_safe = x - r_back;
 361:Middlewares/lvgl/src/widgets/lv_canvas.c ****             x_safe = x_safe < 0 ? 0 : x_safe;
 362:Middlewares/lvgl/src/widgets/lv_canvas.c ****             c = lv_img_buf_get_px_color(&line_img, x_safe, 0, color);
 363:Middlewares/lvgl/src/widgets/lv_canvas.c ****             if(has_alpha) opa = lv_img_buf_get_px_alpha(&line_img, x_safe, 0);
 364:Middlewares/lvgl/src/widgets/lv_canvas.c **** 
 365:Middlewares/lvgl/src/widgets/lv_canvas.c ****             rsum -= c.ch.red;
 366:Middlewares/lvgl/src/widgets/lv_canvas.c **** #if LV_COLOR_DEPTH == 16 && LV_COLOR_16_SWAP
 367:Middlewares/lvgl/src/widgets/lv_canvas.c ****             gsum -= (c.ch.green_h << 3) + c.ch.green_l;
 368:Middlewares/lvgl/src/widgets/lv_canvas.c **** #else
 369:Middlewares/lvgl/src/widgets/lv_canvas.c ****             gsum -= c.ch.green;
 370:Middlewares/lvgl/src/widgets/lv_canvas.c **** #endif
 371:Middlewares/lvgl/src/widgets/lv_canvas.c ****             bsum -= c.ch.blue;
 372:Middlewares/lvgl/src/widgets/lv_canvas.c ****             if(has_alpha) asum -= opa;
 373:Middlewares/lvgl/src/widgets/lv_canvas.c **** 
ARM GAS  /tmp/ccdxwQT7.s 			page 8


 374:Middlewares/lvgl/src/widgets/lv_canvas.c ****             x_safe = x + 1 + r_front;
 375:Middlewares/lvgl/src/widgets/lv_canvas.c ****             x_safe = x_safe > canvas->dsc.header.w - 1 ? canvas->dsc.header.w - 1 : x_safe;
 376:Middlewares/lvgl/src/widgets/lv_canvas.c ****             c = lv_img_buf_get_px_color(&line_img, x_safe, 0, lv_color_white());
 377:Middlewares/lvgl/src/widgets/lv_canvas.c ****             if(has_alpha) opa = lv_img_buf_get_px_alpha(&line_img, x_safe, 0);
 378:Middlewares/lvgl/src/widgets/lv_canvas.c **** 
 379:Middlewares/lvgl/src/widgets/lv_canvas.c ****             rsum += c.ch.red;
 380:Middlewares/lvgl/src/widgets/lv_canvas.c **** #if LV_COLOR_DEPTH == 16 && LV_COLOR_16_SWAP
 381:Middlewares/lvgl/src/widgets/lv_canvas.c ****             gsum += (c.ch.green_h << 3) + c.ch.green_l;
 382:Middlewares/lvgl/src/widgets/lv_canvas.c **** #else
 383:Middlewares/lvgl/src/widgets/lv_canvas.c ****             gsum += c.ch.green;
 384:Middlewares/lvgl/src/widgets/lv_canvas.c **** #endif
 385:Middlewares/lvgl/src/widgets/lv_canvas.c ****             bsum += c.ch.blue;
 386:Middlewares/lvgl/src/widgets/lv_canvas.c ****             if(has_alpha) asum += opa;
 387:Middlewares/lvgl/src/widgets/lv_canvas.c ****         }
 388:Middlewares/lvgl/src/widgets/lv_canvas.c ****     }
 389:Middlewares/lvgl/src/widgets/lv_canvas.c ****     lv_obj_invalidate(obj);
 390:Middlewares/lvgl/src/widgets/lv_canvas.c **** 
 391:Middlewares/lvgl/src/widgets/lv_canvas.c ****     lv_mem_buf_release(line_buf);
 392:Middlewares/lvgl/src/widgets/lv_canvas.c **** }
 393:Middlewares/lvgl/src/widgets/lv_canvas.c **** 
 394:Middlewares/lvgl/src/widgets/lv_canvas.c **** void lv_canvas_blur_ver(lv_obj_t * obj, const lv_area_t * area, uint16_t r)
 395:Middlewares/lvgl/src/widgets/lv_canvas.c **** {
 396:Middlewares/lvgl/src/widgets/lv_canvas.c ****     LV_ASSERT_OBJ(obj, MY_CLASS);
 397:Middlewares/lvgl/src/widgets/lv_canvas.c **** 
 398:Middlewares/lvgl/src/widgets/lv_canvas.c ****     if(r == 0) return;
 399:Middlewares/lvgl/src/widgets/lv_canvas.c **** 
 400:Middlewares/lvgl/src/widgets/lv_canvas.c ****     lv_canvas_t * canvas = (lv_canvas_t *)obj;
 401:Middlewares/lvgl/src/widgets/lv_canvas.c **** 
 402:Middlewares/lvgl/src/widgets/lv_canvas.c ****     lv_area_t a;
 403:Middlewares/lvgl/src/widgets/lv_canvas.c ****     if(area) {
 404:Middlewares/lvgl/src/widgets/lv_canvas.c ****         lv_area_copy(&a, area);
 405:Middlewares/lvgl/src/widgets/lv_canvas.c ****         if(a.x1 < 0) a.x1 = 0;
 406:Middlewares/lvgl/src/widgets/lv_canvas.c ****         if(a.y1 < 0) a.y1 = 0;
 407:Middlewares/lvgl/src/widgets/lv_canvas.c ****         if(a.x2 > canvas->dsc.header.w - 1) a.x2 = canvas->dsc.header.w - 1;
 408:Middlewares/lvgl/src/widgets/lv_canvas.c ****         if(a.y2 > canvas->dsc.header.h - 1) a.y2 = canvas->dsc.header.h - 1;
 409:Middlewares/lvgl/src/widgets/lv_canvas.c ****     }
 410:Middlewares/lvgl/src/widgets/lv_canvas.c ****     else {
 411:Middlewares/lvgl/src/widgets/lv_canvas.c ****         a.x1 = 0;
 412:Middlewares/lvgl/src/widgets/lv_canvas.c ****         a.y1 = 0;
 413:Middlewares/lvgl/src/widgets/lv_canvas.c ****         a.x2 = canvas->dsc.header.w - 1;
 414:Middlewares/lvgl/src/widgets/lv_canvas.c ****         a.y2 = canvas->dsc.header.h - 1;
 415:Middlewares/lvgl/src/widgets/lv_canvas.c ****     }
 416:Middlewares/lvgl/src/widgets/lv_canvas.c **** 
 417:Middlewares/lvgl/src/widgets/lv_canvas.c ****     lv_color_t color = lv_obj_get_style_img_recolor(obj, LV_PART_MAIN);
 418:Middlewares/lvgl/src/widgets/lv_canvas.c **** 
 419:Middlewares/lvgl/src/widgets/lv_canvas.c ****     uint16_t r_back = r / 2;
 420:Middlewares/lvgl/src/widgets/lv_canvas.c ****     uint16_t r_front = r / 2;
 421:Middlewares/lvgl/src/widgets/lv_canvas.c **** 
 422:Middlewares/lvgl/src/widgets/lv_canvas.c ****     if((r & 0x1) == 0) r_back--;
 423:Middlewares/lvgl/src/widgets/lv_canvas.c **** 
 424:Middlewares/lvgl/src/widgets/lv_canvas.c ****     bool has_alpha = lv_img_cf_has_alpha(canvas->dsc.header.cf);
 425:Middlewares/lvgl/src/widgets/lv_canvas.c ****     lv_coord_t col_w = lv_img_buf_get_img_size(1, canvas->dsc.header.h, canvas->dsc.header.cf);
 426:Middlewares/lvgl/src/widgets/lv_canvas.c ****     uint8_t * col_buf = lv_mem_buf_get(col_w);
 427:Middlewares/lvgl/src/widgets/lv_canvas.c ****     lv_img_dsc_t line_img;
 428:Middlewares/lvgl/src/widgets/lv_canvas.c **** 
 429:Middlewares/lvgl/src/widgets/lv_canvas.c ****     line_img.data = col_buf;
 430:Middlewares/lvgl/src/widgets/lv_canvas.c ****     line_img.header.always_zero = 0;
ARM GAS  /tmp/ccdxwQT7.s 			page 9


 431:Middlewares/lvgl/src/widgets/lv_canvas.c ****     line_img.header.w = 1;
 432:Middlewares/lvgl/src/widgets/lv_canvas.c ****     line_img.header.h = canvas->dsc.header.h;
 433:Middlewares/lvgl/src/widgets/lv_canvas.c ****     line_img.header.cf = canvas->dsc.header.cf;
 434:Middlewares/lvgl/src/widgets/lv_canvas.c **** 
 435:Middlewares/lvgl/src/widgets/lv_canvas.c ****     lv_coord_t x;
 436:Middlewares/lvgl/src/widgets/lv_canvas.c ****     lv_coord_t y;
 437:Middlewares/lvgl/src/widgets/lv_canvas.c ****     lv_coord_t y_safe;
 438:Middlewares/lvgl/src/widgets/lv_canvas.c **** 
 439:Middlewares/lvgl/src/widgets/lv_canvas.c ****     for(x = a.x1; x <= a.x2; x++) {
 440:Middlewares/lvgl/src/widgets/lv_canvas.c ****         uint32_t asum = 0;
 441:Middlewares/lvgl/src/widgets/lv_canvas.c ****         uint32_t rsum = 0;
 442:Middlewares/lvgl/src/widgets/lv_canvas.c ****         uint32_t gsum = 0;
 443:Middlewares/lvgl/src/widgets/lv_canvas.c ****         uint32_t bsum = 0;
 444:Middlewares/lvgl/src/widgets/lv_canvas.c **** 
 445:Middlewares/lvgl/src/widgets/lv_canvas.c ****         lv_color_t c;
 446:Middlewares/lvgl/src/widgets/lv_canvas.c ****         lv_opa_t opa = LV_OPA_COVER;
 447:Middlewares/lvgl/src/widgets/lv_canvas.c **** 
 448:Middlewares/lvgl/src/widgets/lv_canvas.c ****         for(y = a.y1 - r_back; y <= a.y1 + r_front; y++) {
 449:Middlewares/lvgl/src/widgets/lv_canvas.c ****             y_safe = y < 0 ? 0 : y;
 450:Middlewares/lvgl/src/widgets/lv_canvas.c ****             y_safe = y_safe > canvas->dsc.header.h - 1 ? canvas->dsc.header.h - 1 : y_safe;
 451:Middlewares/lvgl/src/widgets/lv_canvas.c **** 
 452:Middlewares/lvgl/src/widgets/lv_canvas.c ****             c = lv_img_buf_get_px_color(&canvas->dsc, x, y_safe, color);
 453:Middlewares/lvgl/src/widgets/lv_canvas.c ****             if(has_alpha) opa = lv_img_buf_get_px_alpha(&canvas->dsc, x, y_safe);
 454:Middlewares/lvgl/src/widgets/lv_canvas.c **** 
 455:Middlewares/lvgl/src/widgets/lv_canvas.c ****             lv_img_buf_set_px_color(&line_img, 0, y_safe, c);
 456:Middlewares/lvgl/src/widgets/lv_canvas.c ****             if(has_alpha) lv_img_buf_set_px_alpha(&line_img, 0, y_safe, opa);
 457:Middlewares/lvgl/src/widgets/lv_canvas.c **** 
 458:Middlewares/lvgl/src/widgets/lv_canvas.c ****             rsum += c.ch.red;
 459:Middlewares/lvgl/src/widgets/lv_canvas.c **** #if LV_COLOR_DEPTH == 16 && LV_COLOR_16_SWAP
 460:Middlewares/lvgl/src/widgets/lv_canvas.c ****             gsum += (c.ch.green_h << 3) + c.ch.green_l;
 461:Middlewares/lvgl/src/widgets/lv_canvas.c **** #else
 462:Middlewares/lvgl/src/widgets/lv_canvas.c ****             gsum += c.ch.green;
 463:Middlewares/lvgl/src/widgets/lv_canvas.c **** #endif
 464:Middlewares/lvgl/src/widgets/lv_canvas.c ****             bsum += c.ch.blue;
 465:Middlewares/lvgl/src/widgets/lv_canvas.c ****             if(has_alpha) asum += opa;
 466:Middlewares/lvgl/src/widgets/lv_canvas.c ****         }
 467:Middlewares/lvgl/src/widgets/lv_canvas.c **** 
 468:Middlewares/lvgl/src/widgets/lv_canvas.c ****         /*Just to indicate that the px is visible*/
 469:Middlewares/lvgl/src/widgets/lv_canvas.c ****         if(has_alpha == false) asum = LV_OPA_COVER;
 470:Middlewares/lvgl/src/widgets/lv_canvas.c **** 
 471:Middlewares/lvgl/src/widgets/lv_canvas.c ****         for(y = a.y1; y <= a.y2; y++) {
 472:Middlewares/lvgl/src/widgets/lv_canvas.c ****             if(asum) {
 473:Middlewares/lvgl/src/widgets/lv_canvas.c ****                 c.ch.red = rsum / r;
 474:Middlewares/lvgl/src/widgets/lv_canvas.c **** #if LV_COLOR_DEPTH == 16 && LV_COLOR_16_SWAP
 475:Middlewares/lvgl/src/widgets/lv_canvas.c ****                 uint8_t gtmp = gsum / r;
 476:Middlewares/lvgl/src/widgets/lv_canvas.c ****                 c.ch.green_h = gtmp >> 3;
 477:Middlewares/lvgl/src/widgets/lv_canvas.c ****                 c.ch.green_l = gtmp & 0x7;
 478:Middlewares/lvgl/src/widgets/lv_canvas.c **** #else
 479:Middlewares/lvgl/src/widgets/lv_canvas.c ****                 c.ch.green = gsum / r;
 480:Middlewares/lvgl/src/widgets/lv_canvas.c **** #endif
 481:Middlewares/lvgl/src/widgets/lv_canvas.c ****                 c.ch.blue = bsum / r;
 482:Middlewares/lvgl/src/widgets/lv_canvas.c ****                 if(has_alpha) opa = asum / r;
 483:Middlewares/lvgl/src/widgets/lv_canvas.c **** 
 484:Middlewares/lvgl/src/widgets/lv_canvas.c ****                 lv_img_buf_set_px_color(&canvas->dsc, x, y, c);
 485:Middlewares/lvgl/src/widgets/lv_canvas.c ****             }
 486:Middlewares/lvgl/src/widgets/lv_canvas.c ****             if(has_alpha) lv_img_buf_set_px_alpha(&canvas->dsc, x, y, opa);
 487:Middlewares/lvgl/src/widgets/lv_canvas.c **** 
ARM GAS  /tmp/ccdxwQT7.s 			page 10


 488:Middlewares/lvgl/src/widgets/lv_canvas.c ****             y_safe = y - r_back;
 489:Middlewares/lvgl/src/widgets/lv_canvas.c ****             y_safe = y_safe < 0 ? 0 : y_safe;
 490:Middlewares/lvgl/src/widgets/lv_canvas.c ****             c = lv_img_buf_get_px_color(&line_img, 0, y_safe, color);
 491:Middlewares/lvgl/src/widgets/lv_canvas.c ****             if(has_alpha) opa = lv_img_buf_get_px_alpha(&line_img, 0, y_safe);
 492:Middlewares/lvgl/src/widgets/lv_canvas.c **** 
 493:Middlewares/lvgl/src/widgets/lv_canvas.c ****             rsum -= c.ch.red;
 494:Middlewares/lvgl/src/widgets/lv_canvas.c **** #if LV_COLOR_DEPTH == 16 && LV_COLOR_16_SWAP
 495:Middlewares/lvgl/src/widgets/lv_canvas.c ****             gsum -= (c.ch.green_h << 3) + c.ch.green_l;
 496:Middlewares/lvgl/src/widgets/lv_canvas.c **** #else
 497:Middlewares/lvgl/src/widgets/lv_canvas.c ****             gsum -= c.ch.green;
 498:Middlewares/lvgl/src/widgets/lv_canvas.c **** #endif
 499:Middlewares/lvgl/src/widgets/lv_canvas.c ****             bsum -= c.ch.blue;
 500:Middlewares/lvgl/src/widgets/lv_canvas.c ****             if(has_alpha) asum -= opa;
 501:Middlewares/lvgl/src/widgets/lv_canvas.c **** 
 502:Middlewares/lvgl/src/widgets/lv_canvas.c ****             y_safe = y + 1 + r_front;
 503:Middlewares/lvgl/src/widgets/lv_canvas.c ****             y_safe = y_safe > canvas->dsc.header.h - 1 ? canvas->dsc.header.h - 1 : y_safe;
 504:Middlewares/lvgl/src/widgets/lv_canvas.c **** 
 505:Middlewares/lvgl/src/widgets/lv_canvas.c ****             c = lv_img_buf_get_px_color(&canvas->dsc, x, y_safe, color);
 506:Middlewares/lvgl/src/widgets/lv_canvas.c ****             if(has_alpha) opa = lv_img_buf_get_px_alpha(&canvas->dsc, x, y_safe);
 507:Middlewares/lvgl/src/widgets/lv_canvas.c **** 
 508:Middlewares/lvgl/src/widgets/lv_canvas.c ****             lv_img_buf_set_px_color(&line_img, 0, y_safe, c);
 509:Middlewares/lvgl/src/widgets/lv_canvas.c ****             if(has_alpha) lv_img_buf_set_px_alpha(&line_img, 0, y_safe, opa);
 510:Middlewares/lvgl/src/widgets/lv_canvas.c **** 
 511:Middlewares/lvgl/src/widgets/lv_canvas.c ****             rsum += c.ch.red;
 512:Middlewares/lvgl/src/widgets/lv_canvas.c **** #if LV_COLOR_DEPTH == 16 && LV_COLOR_16_SWAP
 513:Middlewares/lvgl/src/widgets/lv_canvas.c ****             gsum += (c.ch.green_h << 3) + c.ch.green_l;
 514:Middlewares/lvgl/src/widgets/lv_canvas.c **** #else
 515:Middlewares/lvgl/src/widgets/lv_canvas.c ****             gsum += c.ch.green;
 516:Middlewares/lvgl/src/widgets/lv_canvas.c **** #endif
 517:Middlewares/lvgl/src/widgets/lv_canvas.c ****             bsum += c.ch.blue;
 518:Middlewares/lvgl/src/widgets/lv_canvas.c ****             if(has_alpha) asum += opa;
 519:Middlewares/lvgl/src/widgets/lv_canvas.c ****         }
 520:Middlewares/lvgl/src/widgets/lv_canvas.c ****     }
 521:Middlewares/lvgl/src/widgets/lv_canvas.c **** 
 522:Middlewares/lvgl/src/widgets/lv_canvas.c ****     lv_obj_invalidate(obj);
 523:Middlewares/lvgl/src/widgets/lv_canvas.c **** 
 524:Middlewares/lvgl/src/widgets/lv_canvas.c ****     lv_mem_buf_release(col_buf);
 525:Middlewares/lvgl/src/widgets/lv_canvas.c **** }
 526:Middlewares/lvgl/src/widgets/lv_canvas.c **** 
 527:Middlewares/lvgl/src/widgets/lv_canvas.c **** void lv_canvas_fill_bg(lv_obj_t * canvas, lv_color_t color, lv_opa_t opa)
 528:Middlewares/lvgl/src/widgets/lv_canvas.c **** {
 529:Middlewares/lvgl/src/widgets/lv_canvas.c ****     LV_ASSERT_OBJ(canvas, MY_CLASS);
 530:Middlewares/lvgl/src/widgets/lv_canvas.c **** 
 531:Middlewares/lvgl/src/widgets/lv_canvas.c ****     lv_img_dsc_t * dsc = lv_canvas_get_img(canvas);
 532:Middlewares/lvgl/src/widgets/lv_canvas.c **** 
 533:Middlewares/lvgl/src/widgets/lv_canvas.c ****     if(dsc->header.cf == LV_IMG_CF_INDEXED_1BIT) {
 534:Middlewares/lvgl/src/widgets/lv_canvas.c ****         uint32_t row_byte_cnt = (dsc->header.w + 7) >> 3;
 535:Middlewares/lvgl/src/widgets/lv_canvas.c ****         /*+8 skip the palette*/
 536:Middlewares/lvgl/src/widgets/lv_canvas.c ****         lv_memset((uint8_t *)dsc->data + 8, color.full ? 0xff : 0x00, row_byte_cnt * dsc->header.h)
 537:Middlewares/lvgl/src/widgets/lv_canvas.c ****     }
 538:Middlewares/lvgl/src/widgets/lv_canvas.c ****     else if(dsc->header.cf == LV_IMG_CF_ALPHA_1BIT) {
 539:Middlewares/lvgl/src/widgets/lv_canvas.c ****         uint32_t row_byte_cnt = (dsc->header.w + 7) >> 3;
 540:Middlewares/lvgl/src/widgets/lv_canvas.c ****         lv_memset((uint8_t *)dsc->data, opa > LV_OPA_50 ? 0xff : 0x00, row_byte_cnt * dsc->header.h
 541:Middlewares/lvgl/src/widgets/lv_canvas.c ****     }
 542:Middlewares/lvgl/src/widgets/lv_canvas.c ****     else {
 543:Middlewares/lvgl/src/widgets/lv_canvas.c ****         uint32_t x;
 544:Middlewares/lvgl/src/widgets/lv_canvas.c ****         uint32_t y;
ARM GAS  /tmp/ccdxwQT7.s 			page 11


 545:Middlewares/lvgl/src/widgets/lv_canvas.c ****         for(y = 0; y < dsc->header.h; y++) {
 546:Middlewares/lvgl/src/widgets/lv_canvas.c ****             for(x = 0; x < dsc->header.w; x++) {
 547:Middlewares/lvgl/src/widgets/lv_canvas.c ****                 lv_img_buf_set_px_color(dsc, x, y, color);
 548:Middlewares/lvgl/src/widgets/lv_canvas.c ****                 lv_img_buf_set_px_alpha(dsc, x, y, opa);
 549:Middlewares/lvgl/src/widgets/lv_canvas.c ****             }
 550:Middlewares/lvgl/src/widgets/lv_canvas.c ****         }
 551:Middlewares/lvgl/src/widgets/lv_canvas.c ****     }
 552:Middlewares/lvgl/src/widgets/lv_canvas.c **** 
 553:Middlewares/lvgl/src/widgets/lv_canvas.c ****     lv_obj_invalidate(canvas);
 554:Middlewares/lvgl/src/widgets/lv_canvas.c **** }
 555:Middlewares/lvgl/src/widgets/lv_canvas.c **** 
 556:Middlewares/lvgl/src/widgets/lv_canvas.c **** void lv_canvas_draw_rect(lv_obj_t * canvas, lv_coord_t x, lv_coord_t y, lv_coord_t w, lv_coord_t h,
 557:Middlewares/lvgl/src/widgets/lv_canvas.c ****                          const lv_draw_rect_dsc_t * draw_dsc)
 558:Middlewares/lvgl/src/widgets/lv_canvas.c **** {
 559:Middlewares/lvgl/src/widgets/lv_canvas.c ****     LV_ASSERT_OBJ(canvas, MY_CLASS);
 560:Middlewares/lvgl/src/widgets/lv_canvas.c **** 
 561:Middlewares/lvgl/src/widgets/lv_canvas.c ****     lv_img_dsc_t * dsc = lv_canvas_get_img(canvas);
 562:Middlewares/lvgl/src/widgets/lv_canvas.c **** 
 563:Middlewares/lvgl/src/widgets/lv_canvas.c ****     if(dsc->header.cf >= LV_IMG_CF_INDEXED_1BIT && dsc->header.cf <= LV_IMG_CF_INDEXED_8BIT) {
 564:Middlewares/lvgl/src/widgets/lv_canvas.c ****         LV_LOG_WARN("lv_canvas_draw_rect: can't draw to LV_IMG_CF_INDEXED canvas");
 565:Middlewares/lvgl/src/widgets/lv_canvas.c ****         return;
 566:Middlewares/lvgl/src/widgets/lv_canvas.c ****     }
 567:Middlewares/lvgl/src/widgets/lv_canvas.c **** 
 568:Middlewares/lvgl/src/widgets/lv_canvas.c ****     /*Create a dummy display to fool the lv_draw function.
 569:Middlewares/lvgl/src/widgets/lv_canvas.c ****      *It will think it draws to real screen.*/
 570:Middlewares/lvgl/src/widgets/lv_canvas.c ****     lv_area_t mask;
 571:Middlewares/lvgl/src/widgets/lv_canvas.c ****     mask.x1 = 0;
 572:Middlewares/lvgl/src/widgets/lv_canvas.c ****     mask.x2 = dsc->header.w - 1;
 573:Middlewares/lvgl/src/widgets/lv_canvas.c ****     mask.y1 = 0;
 574:Middlewares/lvgl/src/widgets/lv_canvas.c ****     mask.y2 = dsc->header.h - 1;
 575:Middlewares/lvgl/src/widgets/lv_canvas.c **** 
 576:Middlewares/lvgl/src/widgets/lv_canvas.c ****     lv_area_t coords;
 577:Middlewares/lvgl/src/widgets/lv_canvas.c ****     coords.x1 = x;
 578:Middlewares/lvgl/src/widgets/lv_canvas.c ****     coords.y1 = y;
 579:Middlewares/lvgl/src/widgets/lv_canvas.c ****     coords.x2 = x + w - 1;
 580:Middlewares/lvgl/src/widgets/lv_canvas.c ****     coords.y2 = y + h - 1;
 581:Middlewares/lvgl/src/widgets/lv_canvas.c **** 
 582:Middlewares/lvgl/src/widgets/lv_canvas.c ****     lv_disp_t disp;
 583:Middlewares/lvgl/src/widgets/lv_canvas.c ****     /*Allocate the fake driver on the stack as the entire display doesn't outlive this function*/
 584:Middlewares/lvgl/src/widgets/lv_canvas.c ****     lv_disp_drv_t driver;
 585:Middlewares/lvgl/src/widgets/lv_canvas.c ****     lv_memset_00(&disp, sizeof(lv_disp_t));
 586:Middlewares/lvgl/src/widgets/lv_canvas.c ****     disp.driver = &driver;
 587:Middlewares/lvgl/src/widgets/lv_canvas.c **** 
 588:Middlewares/lvgl/src/widgets/lv_canvas.c ****     lv_disp_draw_buf_t draw_buf;
 589:Middlewares/lvgl/src/widgets/lv_canvas.c ****     lv_disp_draw_buf_init(&draw_buf, (void *)dsc->data, NULL, dsc->header.w * dsc->header.h);
 590:Middlewares/lvgl/src/widgets/lv_canvas.c ****     lv_area_copy(&draw_buf.area, &mask);
 591:Middlewares/lvgl/src/widgets/lv_canvas.c **** 
 592:Middlewares/lvgl/src/widgets/lv_canvas.c ****     lv_disp_drv_init(disp.driver);
 593:Middlewares/lvgl/src/widgets/lv_canvas.c **** 
 594:Middlewares/lvgl/src/widgets/lv_canvas.c ****     disp.driver->draw_buf = &draw_buf;
 595:Middlewares/lvgl/src/widgets/lv_canvas.c ****     disp.driver->hor_res = dsc->header.w;
 596:Middlewares/lvgl/src/widgets/lv_canvas.c ****     disp.driver->ver_res = dsc->header.h;
 597:Middlewares/lvgl/src/widgets/lv_canvas.c **** 
 598:Middlewares/lvgl/src/widgets/lv_canvas.c ****     set_set_px_cb(disp.driver, dsc->header.cf);
 599:Middlewares/lvgl/src/widgets/lv_canvas.c **** 
 600:Middlewares/lvgl/src/widgets/lv_canvas.c ****     /*Disable anti-aliasing if drawing with transparent color to chroma keyed canvas*/
 601:Middlewares/lvgl/src/widgets/lv_canvas.c ****     lv_color_t ctransp = LV_COLOR_CHROMA_KEY;
ARM GAS  /tmp/ccdxwQT7.s 			page 12


 602:Middlewares/lvgl/src/widgets/lv_canvas.c ****     if(dsc->header.cf == LV_IMG_CF_TRUE_COLOR_CHROMA_KEYED &&
 603:Middlewares/lvgl/src/widgets/lv_canvas.c ****        draw_dsc->bg_color.full == ctransp.full) {
 604:Middlewares/lvgl/src/widgets/lv_canvas.c ****         disp.driver->antialiasing = 0;
 605:Middlewares/lvgl/src/widgets/lv_canvas.c ****     }
 606:Middlewares/lvgl/src/widgets/lv_canvas.c **** 
 607:Middlewares/lvgl/src/widgets/lv_canvas.c ****     lv_disp_t * refr_ori = _lv_refr_get_disp_refreshing();
 608:Middlewares/lvgl/src/widgets/lv_canvas.c ****     _lv_refr_set_disp_refreshing(&disp);
 609:Middlewares/lvgl/src/widgets/lv_canvas.c **** 
 610:Middlewares/lvgl/src/widgets/lv_canvas.c ****     lv_draw_rect(&coords, &mask, draw_dsc);
 611:Middlewares/lvgl/src/widgets/lv_canvas.c **** 
 612:Middlewares/lvgl/src/widgets/lv_canvas.c ****     _lv_refr_set_disp_refreshing(refr_ori);
 613:Middlewares/lvgl/src/widgets/lv_canvas.c **** 
 614:Middlewares/lvgl/src/widgets/lv_canvas.c ****     lv_obj_invalidate(canvas);
 615:Middlewares/lvgl/src/widgets/lv_canvas.c **** }
 616:Middlewares/lvgl/src/widgets/lv_canvas.c **** 
 617:Middlewares/lvgl/src/widgets/lv_canvas.c **** void lv_canvas_draw_text(lv_obj_t * canvas, lv_coord_t x, lv_coord_t y, lv_coord_t max_w,
 618:Middlewares/lvgl/src/widgets/lv_canvas.c ****                          lv_draw_label_dsc_t * draw_dsc, const char * txt)
 619:Middlewares/lvgl/src/widgets/lv_canvas.c **** {
 620:Middlewares/lvgl/src/widgets/lv_canvas.c ****     LV_ASSERT_OBJ(canvas, MY_CLASS);
 621:Middlewares/lvgl/src/widgets/lv_canvas.c **** 
 622:Middlewares/lvgl/src/widgets/lv_canvas.c ****     lv_img_dsc_t * dsc = lv_canvas_get_img(canvas);
 623:Middlewares/lvgl/src/widgets/lv_canvas.c **** 
 624:Middlewares/lvgl/src/widgets/lv_canvas.c ****     if(dsc->header.cf >= LV_IMG_CF_INDEXED_1BIT && dsc->header.cf <= LV_IMG_CF_INDEXED_8BIT) {
 625:Middlewares/lvgl/src/widgets/lv_canvas.c ****         LV_LOG_WARN("lv_canvas_draw_text: can't draw to LV_IMG_CF_INDEXED canvas");
 626:Middlewares/lvgl/src/widgets/lv_canvas.c ****         return;
 627:Middlewares/lvgl/src/widgets/lv_canvas.c ****     }
 628:Middlewares/lvgl/src/widgets/lv_canvas.c **** 
 629:Middlewares/lvgl/src/widgets/lv_canvas.c ****     /*Create a dummy display to fool the lv_draw function.
 630:Middlewares/lvgl/src/widgets/lv_canvas.c ****      *It will think it draws to real screen.*/
 631:Middlewares/lvgl/src/widgets/lv_canvas.c ****     lv_area_t mask;
 632:Middlewares/lvgl/src/widgets/lv_canvas.c ****     mask.x1 = 0;
 633:Middlewares/lvgl/src/widgets/lv_canvas.c ****     mask.x2 = dsc->header.w - 1;
 634:Middlewares/lvgl/src/widgets/lv_canvas.c ****     mask.y1 = 0;
 635:Middlewares/lvgl/src/widgets/lv_canvas.c ****     mask.y2 = dsc->header.h - 1;
 636:Middlewares/lvgl/src/widgets/lv_canvas.c **** 
 637:Middlewares/lvgl/src/widgets/lv_canvas.c ****     lv_area_t coords;
 638:Middlewares/lvgl/src/widgets/lv_canvas.c ****     coords.x1 = x;
 639:Middlewares/lvgl/src/widgets/lv_canvas.c ****     coords.y1 = y;
 640:Middlewares/lvgl/src/widgets/lv_canvas.c ****     coords.x2 = x + max_w - 1;
 641:Middlewares/lvgl/src/widgets/lv_canvas.c ****     coords.y2 = dsc->header.h - 1;
 642:Middlewares/lvgl/src/widgets/lv_canvas.c **** 
 643:Middlewares/lvgl/src/widgets/lv_canvas.c ****     lv_disp_t disp;
 644:Middlewares/lvgl/src/widgets/lv_canvas.c ****     /*Allocate the fake driver on the stack as the entire display doesn't outlive this function*/
 645:Middlewares/lvgl/src/widgets/lv_canvas.c ****     lv_disp_drv_t driver;
 646:Middlewares/lvgl/src/widgets/lv_canvas.c ****     lv_memset_00(&disp, sizeof(lv_disp_t));
 647:Middlewares/lvgl/src/widgets/lv_canvas.c ****     disp.driver = &driver;
 648:Middlewares/lvgl/src/widgets/lv_canvas.c **** 
 649:Middlewares/lvgl/src/widgets/lv_canvas.c ****     lv_disp_draw_buf_t draw_buf;
 650:Middlewares/lvgl/src/widgets/lv_canvas.c ****     lv_disp_draw_buf_init(&draw_buf, (void *)dsc->data, NULL, dsc->header.w * dsc->header.h);
 651:Middlewares/lvgl/src/widgets/lv_canvas.c ****     lv_area_copy(&draw_buf.area, &mask);
 652:Middlewares/lvgl/src/widgets/lv_canvas.c **** 
 653:Middlewares/lvgl/src/widgets/lv_canvas.c ****     lv_disp_drv_init(disp.driver);
 654:Middlewares/lvgl/src/widgets/lv_canvas.c **** 
 655:Middlewares/lvgl/src/widgets/lv_canvas.c ****     disp.driver->draw_buf = &draw_buf;
 656:Middlewares/lvgl/src/widgets/lv_canvas.c ****     disp.driver->hor_res = dsc->header.w;
 657:Middlewares/lvgl/src/widgets/lv_canvas.c ****     disp.driver->ver_res = dsc->header.h;
 658:Middlewares/lvgl/src/widgets/lv_canvas.c **** 
ARM GAS  /tmp/ccdxwQT7.s 			page 13


 659:Middlewares/lvgl/src/widgets/lv_canvas.c ****     set_set_px_cb(disp.driver, dsc->header.cf);
 660:Middlewares/lvgl/src/widgets/lv_canvas.c **** 
 661:Middlewares/lvgl/src/widgets/lv_canvas.c ****     lv_disp_t * refr_ori = _lv_refr_get_disp_refreshing();
 662:Middlewares/lvgl/src/widgets/lv_canvas.c ****     _lv_refr_set_disp_refreshing(&disp);
 663:Middlewares/lvgl/src/widgets/lv_canvas.c **** 
 664:Middlewares/lvgl/src/widgets/lv_canvas.c ****     lv_draw_label(&coords, &mask, draw_dsc, txt, NULL);
 665:Middlewares/lvgl/src/widgets/lv_canvas.c **** 
 666:Middlewares/lvgl/src/widgets/lv_canvas.c ****     _lv_refr_set_disp_refreshing(refr_ori);
 667:Middlewares/lvgl/src/widgets/lv_canvas.c **** 
 668:Middlewares/lvgl/src/widgets/lv_canvas.c ****     lv_obj_invalidate(canvas);
 669:Middlewares/lvgl/src/widgets/lv_canvas.c **** }
 670:Middlewares/lvgl/src/widgets/lv_canvas.c **** 
 671:Middlewares/lvgl/src/widgets/lv_canvas.c **** void lv_canvas_draw_img(lv_obj_t * canvas, lv_coord_t x, lv_coord_t y, const void * src,
 672:Middlewares/lvgl/src/widgets/lv_canvas.c ****                         const lv_draw_img_dsc_t * draw_dsc)
 673:Middlewares/lvgl/src/widgets/lv_canvas.c **** {
 674:Middlewares/lvgl/src/widgets/lv_canvas.c ****     LV_ASSERT_OBJ(canvas, MY_CLASS);
 675:Middlewares/lvgl/src/widgets/lv_canvas.c **** 
 676:Middlewares/lvgl/src/widgets/lv_canvas.c ****     lv_img_dsc_t * dsc = lv_canvas_get_img(canvas);
 677:Middlewares/lvgl/src/widgets/lv_canvas.c **** 
 678:Middlewares/lvgl/src/widgets/lv_canvas.c ****     if(dsc->header.cf >= LV_IMG_CF_INDEXED_1BIT && dsc->header.cf <= LV_IMG_CF_INDEXED_8BIT) {
 679:Middlewares/lvgl/src/widgets/lv_canvas.c ****         LV_LOG_WARN("lv_canvas_draw_img: can't draw to LV_IMG_CF_INDEXED canvas");
 680:Middlewares/lvgl/src/widgets/lv_canvas.c ****         return;
 681:Middlewares/lvgl/src/widgets/lv_canvas.c ****     }
 682:Middlewares/lvgl/src/widgets/lv_canvas.c **** 
 683:Middlewares/lvgl/src/widgets/lv_canvas.c ****     /*Create a dummy display to fool the lv_draw function.
 684:Middlewares/lvgl/src/widgets/lv_canvas.c ****      *It will think it draws to real screen.*/
 685:Middlewares/lvgl/src/widgets/lv_canvas.c ****     lv_area_t mask;
 686:Middlewares/lvgl/src/widgets/lv_canvas.c ****     mask.x1 = 0;
 687:Middlewares/lvgl/src/widgets/lv_canvas.c ****     mask.x2 = dsc->header.w - 1;
 688:Middlewares/lvgl/src/widgets/lv_canvas.c ****     mask.y1 = 0;
 689:Middlewares/lvgl/src/widgets/lv_canvas.c ****     mask.y2 = dsc->header.h - 1;
 690:Middlewares/lvgl/src/widgets/lv_canvas.c **** 
 691:Middlewares/lvgl/src/widgets/lv_canvas.c ****     lv_img_header_t header;
 692:Middlewares/lvgl/src/widgets/lv_canvas.c ****     lv_res_t res = lv_img_decoder_get_info(src, &header);
 693:Middlewares/lvgl/src/widgets/lv_canvas.c ****     if(res != LV_RES_OK) {
 694:Middlewares/lvgl/src/widgets/lv_canvas.c ****         LV_LOG_WARN("lv_canvas_draw_img: Couldn't get the image data.");
 695:Middlewares/lvgl/src/widgets/lv_canvas.c ****         return;
 696:Middlewares/lvgl/src/widgets/lv_canvas.c ****     }
 697:Middlewares/lvgl/src/widgets/lv_canvas.c **** 
 698:Middlewares/lvgl/src/widgets/lv_canvas.c ****     lv_area_t coords;
 699:Middlewares/lvgl/src/widgets/lv_canvas.c ****     coords.x1 = x;
 700:Middlewares/lvgl/src/widgets/lv_canvas.c ****     coords.y1 = y;
 701:Middlewares/lvgl/src/widgets/lv_canvas.c ****     coords.x2 = x + header.w - 1;
 702:Middlewares/lvgl/src/widgets/lv_canvas.c ****     coords.y2 = y + header.h - 1;
 703:Middlewares/lvgl/src/widgets/lv_canvas.c **** 
 704:Middlewares/lvgl/src/widgets/lv_canvas.c ****     lv_disp_t disp;
 705:Middlewares/lvgl/src/widgets/lv_canvas.c ****     /*Allocate the fake driver on the stack as the entire display doesn't outlive this function*/
 706:Middlewares/lvgl/src/widgets/lv_canvas.c ****     lv_disp_drv_t driver;
 707:Middlewares/lvgl/src/widgets/lv_canvas.c ****     lv_memset_00(&disp, sizeof(lv_disp_t));
 708:Middlewares/lvgl/src/widgets/lv_canvas.c ****     disp.driver = &driver;
 709:Middlewares/lvgl/src/widgets/lv_canvas.c **** 
 710:Middlewares/lvgl/src/widgets/lv_canvas.c ****     lv_disp_draw_buf_t draw_buf;
 711:Middlewares/lvgl/src/widgets/lv_canvas.c ****     lv_disp_draw_buf_init(&draw_buf, (void *)dsc->data, NULL, dsc->header.w * dsc->header.h);
 712:Middlewares/lvgl/src/widgets/lv_canvas.c ****     lv_area_copy(&draw_buf.area, &mask);
 713:Middlewares/lvgl/src/widgets/lv_canvas.c **** 
 714:Middlewares/lvgl/src/widgets/lv_canvas.c ****     lv_disp_drv_init(disp.driver);
 715:Middlewares/lvgl/src/widgets/lv_canvas.c **** 
ARM GAS  /tmp/ccdxwQT7.s 			page 14


 716:Middlewares/lvgl/src/widgets/lv_canvas.c ****     disp.driver->draw_buf = &draw_buf;
 717:Middlewares/lvgl/src/widgets/lv_canvas.c ****     disp.driver->hor_res = dsc->header.w;
 718:Middlewares/lvgl/src/widgets/lv_canvas.c ****     disp.driver->ver_res = dsc->header.h;
 719:Middlewares/lvgl/src/widgets/lv_canvas.c **** 
 720:Middlewares/lvgl/src/widgets/lv_canvas.c ****     set_set_px_cb(disp.driver, dsc->header.cf);
 721:Middlewares/lvgl/src/widgets/lv_canvas.c **** 
 722:Middlewares/lvgl/src/widgets/lv_canvas.c ****     lv_disp_t * refr_ori = _lv_refr_get_disp_refreshing();
 723:Middlewares/lvgl/src/widgets/lv_canvas.c ****     _lv_refr_set_disp_refreshing(&disp);
 724:Middlewares/lvgl/src/widgets/lv_canvas.c **** 
 725:Middlewares/lvgl/src/widgets/lv_canvas.c ****     lv_draw_img(&coords, &mask, src, draw_dsc);
 726:Middlewares/lvgl/src/widgets/lv_canvas.c **** 
 727:Middlewares/lvgl/src/widgets/lv_canvas.c ****     _lv_refr_set_disp_refreshing(refr_ori);
 728:Middlewares/lvgl/src/widgets/lv_canvas.c **** 
 729:Middlewares/lvgl/src/widgets/lv_canvas.c ****     lv_obj_invalidate(canvas);
 730:Middlewares/lvgl/src/widgets/lv_canvas.c **** }
 731:Middlewares/lvgl/src/widgets/lv_canvas.c **** 
 732:Middlewares/lvgl/src/widgets/lv_canvas.c **** void lv_canvas_draw_line(lv_obj_t * canvas, const lv_point_t points[], uint32_t point_cnt,
 733:Middlewares/lvgl/src/widgets/lv_canvas.c ****                          const lv_draw_line_dsc_t * draw_dsc)
 734:Middlewares/lvgl/src/widgets/lv_canvas.c **** {
 735:Middlewares/lvgl/src/widgets/lv_canvas.c ****     LV_ASSERT_OBJ(canvas, MY_CLASS);
 736:Middlewares/lvgl/src/widgets/lv_canvas.c **** 
 737:Middlewares/lvgl/src/widgets/lv_canvas.c ****     lv_img_dsc_t * dsc = lv_canvas_get_img(canvas);
 738:Middlewares/lvgl/src/widgets/lv_canvas.c **** 
 739:Middlewares/lvgl/src/widgets/lv_canvas.c ****     if(dsc->header.cf >= LV_IMG_CF_INDEXED_1BIT && dsc->header.cf <= LV_IMG_CF_INDEXED_8BIT) {
 740:Middlewares/lvgl/src/widgets/lv_canvas.c ****         LV_LOG_WARN("lv_canvas_draw_line: can't draw to LV_IMG_CF_INDEXED canvas");
 741:Middlewares/lvgl/src/widgets/lv_canvas.c ****         return;
 742:Middlewares/lvgl/src/widgets/lv_canvas.c ****     }
 743:Middlewares/lvgl/src/widgets/lv_canvas.c ****     /*Create a dummy display to fool the lv_draw function.
 744:Middlewares/lvgl/src/widgets/lv_canvas.c ****      *It will think it draws to real screen.*/
 745:Middlewares/lvgl/src/widgets/lv_canvas.c ****     lv_area_t mask;
 746:Middlewares/lvgl/src/widgets/lv_canvas.c ****     mask.x1 = 0;
 747:Middlewares/lvgl/src/widgets/lv_canvas.c ****     mask.x2 = dsc->header.w - 1;
 748:Middlewares/lvgl/src/widgets/lv_canvas.c ****     mask.y1 = 0;
 749:Middlewares/lvgl/src/widgets/lv_canvas.c ****     mask.y2 = dsc->header.h - 1;
 750:Middlewares/lvgl/src/widgets/lv_canvas.c **** 
 751:Middlewares/lvgl/src/widgets/lv_canvas.c ****     lv_disp_t disp;
 752:Middlewares/lvgl/src/widgets/lv_canvas.c ****     /*Allocate the fake driver on the stack as the entire display doesn't outlive this function*/
 753:Middlewares/lvgl/src/widgets/lv_canvas.c ****     lv_disp_drv_t driver;
 754:Middlewares/lvgl/src/widgets/lv_canvas.c ****     lv_memset_00(&disp, sizeof(lv_disp_t));
 755:Middlewares/lvgl/src/widgets/lv_canvas.c ****     disp.driver = &driver;
 756:Middlewares/lvgl/src/widgets/lv_canvas.c **** 
 757:Middlewares/lvgl/src/widgets/lv_canvas.c ****     lv_disp_draw_buf_t draw_buf;
 758:Middlewares/lvgl/src/widgets/lv_canvas.c ****     lv_disp_draw_buf_init(&draw_buf, (void *)dsc->data, NULL, dsc->header.w * dsc->header.h);
 759:Middlewares/lvgl/src/widgets/lv_canvas.c ****     lv_area_copy(&draw_buf.area, &mask);
 760:Middlewares/lvgl/src/widgets/lv_canvas.c **** 
 761:Middlewares/lvgl/src/widgets/lv_canvas.c ****     lv_disp_drv_init(disp.driver);
 762:Middlewares/lvgl/src/widgets/lv_canvas.c **** 
 763:Middlewares/lvgl/src/widgets/lv_canvas.c ****     disp.driver->draw_buf = &draw_buf;
 764:Middlewares/lvgl/src/widgets/lv_canvas.c ****     disp.driver->hor_res = dsc->header.w;
 765:Middlewares/lvgl/src/widgets/lv_canvas.c ****     disp.driver->ver_res = dsc->header.h;
 766:Middlewares/lvgl/src/widgets/lv_canvas.c **** 
 767:Middlewares/lvgl/src/widgets/lv_canvas.c ****     set_set_px_cb(disp.driver, dsc->header.cf);
 768:Middlewares/lvgl/src/widgets/lv_canvas.c **** 
 769:Middlewares/lvgl/src/widgets/lv_canvas.c ****     /*Disable anti-aliasing if drawing with transparent color to chroma keyed canvas*/
 770:Middlewares/lvgl/src/widgets/lv_canvas.c ****     lv_color_t ctransp = LV_COLOR_CHROMA_KEY;
 771:Middlewares/lvgl/src/widgets/lv_canvas.c ****     if(dsc->header.cf == LV_IMG_CF_TRUE_COLOR_CHROMA_KEYED &&
 772:Middlewares/lvgl/src/widgets/lv_canvas.c ****        draw_dsc->color.full == ctransp.full) {
ARM GAS  /tmp/ccdxwQT7.s 			page 15


 773:Middlewares/lvgl/src/widgets/lv_canvas.c ****         disp.driver->antialiasing = 0;
 774:Middlewares/lvgl/src/widgets/lv_canvas.c ****     }
 775:Middlewares/lvgl/src/widgets/lv_canvas.c **** 
 776:Middlewares/lvgl/src/widgets/lv_canvas.c ****     lv_disp_t * refr_ori = _lv_refr_get_disp_refreshing();
 777:Middlewares/lvgl/src/widgets/lv_canvas.c ****     _lv_refr_set_disp_refreshing(&disp);
 778:Middlewares/lvgl/src/widgets/lv_canvas.c **** 
 779:Middlewares/lvgl/src/widgets/lv_canvas.c ****     uint32_t i;
 780:Middlewares/lvgl/src/widgets/lv_canvas.c ****     for(i = 0; i < point_cnt - 1; i++) {
 781:Middlewares/lvgl/src/widgets/lv_canvas.c ****         lv_draw_line(&points[i], &points[i + 1], &mask, draw_dsc);
 782:Middlewares/lvgl/src/widgets/lv_canvas.c ****     }
 783:Middlewares/lvgl/src/widgets/lv_canvas.c **** 
 784:Middlewares/lvgl/src/widgets/lv_canvas.c ****     _lv_refr_set_disp_refreshing(refr_ori);
 785:Middlewares/lvgl/src/widgets/lv_canvas.c **** 
 786:Middlewares/lvgl/src/widgets/lv_canvas.c ****     lv_obj_invalidate(canvas);
 787:Middlewares/lvgl/src/widgets/lv_canvas.c **** }
 788:Middlewares/lvgl/src/widgets/lv_canvas.c **** 
 789:Middlewares/lvgl/src/widgets/lv_canvas.c **** void lv_canvas_draw_polygon(lv_obj_t * canvas, const lv_point_t points[], uint32_t point_cnt,
 790:Middlewares/lvgl/src/widgets/lv_canvas.c ****                             const lv_draw_rect_dsc_t * draw_dsc)
 791:Middlewares/lvgl/src/widgets/lv_canvas.c **** {
 792:Middlewares/lvgl/src/widgets/lv_canvas.c ****     LV_ASSERT_OBJ(canvas, MY_CLASS);
 793:Middlewares/lvgl/src/widgets/lv_canvas.c **** 
 794:Middlewares/lvgl/src/widgets/lv_canvas.c ****     lv_img_dsc_t * dsc = lv_canvas_get_img(canvas);
 795:Middlewares/lvgl/src/widgets/lv_canvas.c **** 
 796:Middlewares/lvgl/src/widgets/lv_canvas.c ****     if(dsc->header.cf >= LV_IMG_CF_INDEXED_1BIT && dsc->header.cf <= LV_IMG_CF_INDEXED_8BIT) {
 797:Middlewares/lvgl/src/widgets/lv_canvas.c ****         LV_LOG_WARN("lv_canvas_draw_polygon: can't draw to LV_IMG_CF_INDEXED canvas");
 798:Middlewares/lvgl/src/widgets/lv_canvas.c ****         return;
 799:Middlewares/lvgl/src/widgets/lv_canvas.c ****     }
 800:Middlewares/lvgl/src/widgets/lv_canvas.c **** 
 801:Middlewares/lvgl/src/widgets/lv_canvas.c ****     /*Create a dummy display to fool the lv_draw function.
 802:Middlewares/lvgl/src/widgets/lv_canvas.c ****      *It will think it draws to real screen.*/
 803:Middlewares/lvgl/src/widgets/lv_canvas.c ****     lv_area_t mask;
 804:Middlewares/lvgl/src/widgets/lv_canvas.c ****     mask.x1 = 0;
 805:Middlewares/lvgl/src/widgets/lv_canvas.c ****     mask.x2 = dsc->header.w - 1;
 806:Middlewares/lvgl/src/widgets/lv_canvas.c ****     mask.y1 = 0;
 807:Middlewares/lvgl/src/widgets/lv_canvas.c ****     mask.y2 = dsc->header.h - 1;
 808:Middlewares/lvgl/src/widgets/lv_canvas.c **** 
 809:Middlewares/lvgl/src/widgets/lv_canvas.c ****     lv_disp_t disp;
 810:Middlewares/lvgl/src/widgets/lv_canvas.c ****     /*Allocate the fake driver on the stack as the entire display doesn't outlive this function*/
 811:Middlewares/lvgl/src/widgets/lv_canvas.c ****     lv_disp_drv_t driver;
 812:Middlewares/lvgl/src/widgets/lv_canvas.c ****     lv_memset_00(&disp, sizeof(lv_disp_t));
 813:Middlewares/lvgl/src/widgets/lv_canvas.c ****     disp.driver = &driver;
 814:Middlewares/lvgl/src/widgets/lv_canvas.c **** 
 815:Middlewares/lvgl/src/widgets/lv_canvas.c ****     lv_disp_draw_buf_t draw_buf;
 816:Middlewares/lvgl/src/widgets/lv_canvas.c ****     lv_disp_draw_buf_init(&draw_buf, (void *)dsc->data, NULL, dsc->header.w * dsc->header.h);
 817:Middlewares/lvgl/src/widgets/lv_canvas.c ****     lv_area_copy(&draw_buf.area, &mask);
 818:Middlewares/lvgl/src/widgets/lv_canvas.c **** 
 819:Middlewares/lvgl/src/widgets/lv_canvas.c ****     lv_disp_drv_init(disp.driver);
 820:Middlewares/lvgl/src/widgets/lv_canvas.c **** 
 821:Middlewares/lvgl/src/widgets/lv_canvas.c ****     disp.driver->draw_buf = &draw_buf;
 822:Middlewares/lvgl/src/widgets/lv_canvas.c ****     disp.driver->hor_res = dsc->header.w;
 823:Middlewares/lvgl/src/widgets/lv_canvas.c ****     disp.driver->ver_res = dsc->header.h;
 824:Middlewares/lvgl/src/widgets/lv_canvas.c **** 
 825:Middlewares/lvgl/src/widgets/lv_canvas.c ****     set_set_px_cb(disp.driver, dsc->header.cf);
 826:Middlewares/lvgl/src/widgets/lv_canvas.c **** 
 827:Middlewares/lvgl/src/widgets/lv_canvas.c ****     /*Disable anti-aliasing if drawing with transparent color to chroma keyed canvas*/
 828:Middlewares/lvgl/src/widgets/lv_canvas.c ****     lv_color_t ctransp = LV_COLOR_CHROMA_KEY;
 829:Middlewares/lvgl/src/widgets/lv_canvas.c ****     if(dsc->header.cf == LV_IMG_CF_TRUE_COLOR_CHROMA_KEYED &&
ARM GAS  /tmp/ccdxwQT7.s 			page 16


 830:Middlewares/lvgl/src/widgets/lv_canvas.c ****        draw_dsc->bg_color.full == ctransp.full) {
 831:Middlewares/lvgl/src/widgets/lv_canvas.c ****         disp.driver->antialiasing = 0;
 832:Middlewares/lvgl/src/widgets/lv_canvas.c ****     }
 833:Middlewares/lvgl/src/widgets/lv_canvas.c **** 
 834:Middlewares/lvgl/src/widgets/lv_canvas.c ****     lv_disp_t * refr_ori = _lv_refr_get_disp_refreshing();
 835:Middlewares/lvgl/src/widgets/lv_canvas.c ****     _lv_refr_set_disp_refreshing(&disp);
 836:Middlewares/lvgl/src/widgets/lv_canvas.c **** 
 837:Middlewares/lvgl/src/widgets/lv_canvas.c ****     lv_draw_polygon(points, point_cnt, &mask, draw_dsc);
 838:Middlewares/lvgl/src/widgets/lv_canvas.c **** 
 839:Middlewares/lvgl/src/widgets/lv_canvas.c ****     _lv_refr_set_disp_refreshing(refr_ori);
 840:Middlewares/lvgl/src/widgets/lv_canvas.c **** 
 841:Middlewares/lvgl/src/widgets/lv_canvas.c ****     lv_obj_invalidate(canvas);
 842:Middlewares/lvgl/src/widgets/lv_canvas.c **** }
 843:Middlewares/lvgl/src/widgets/lv_canvas.c **** 
 844:Middlewares/lvgl/src/widgets/lv_canvas.c **** void lv_canvas_draw_arc(lv_obj_t * canvas, lv_coord_t x, lv_coord_t y, lv_coord_t r, int32_t start_
 845:Middlewares/lvgl/src/widgets/lv_canvas.c ****                         int32_t end_angle, const lv_draw_arc_dsc_t * draw_dsc)
 846:Middlewares/lvgl/src/widgets/lv_canvas.c **** {
 847:Middlewares/lvgl/src/widgets/lv_canvas.c **** #if LV_DRAW_COMPLEX
 848:Middlewares/lvgl/src/widgets/lv_canvas.c ****     LV_ASSERT_OBJ(canvas, MY_CLASS);
 849:Middlewares/lvgl/src/widgets/lv_canvas.c **** 
 850:Middlewares/lvgl/src/widgets/lv_canvas.c ****     lv_img_dsc_t * dsc = lv_canvas_get_img(canvas);
 851:Middlewares/lvgl/src/widgets/lv_canvas.c **** 
 852:Middlewares/lvgl/src/widgets/lv_canvas.c ****     if(dsc->header.cf >= LV_IMG_CF_INDEXED_1BIT && dsc->header.cf <= LV_IMG_CF_INDEXED_8BIT) {
 853:Middlewares/lvgl/src/widgets/lv_canvas.c ****         LV_LOG_WARN("lv_canvas_draw_arc: can't draw to LV_IMG_CF_INDEXED canvas");
 854:Middlewares/lvgl/src/widgets/lv_canvas.c ****         return;
 855:Middlewares/lvgl/src/widgets/lv_canvas.c ****     }
 856:Middlewares/lvgl/src/widgets/lv_canvas.c **** 
 857:Middlewares/lvgl/src/widgets/lv_canvas.c ****     /*Create a dummy display to fool the lv_draw function.
 858:Middlewares/lvgl/src/widgets/lv_canvas.c ****      *It will think it draws to real screen.*/
 859:Middlewares/lvgl/src/widgets/lv_canvas.c ****     lv_area_t mask;
 860:Middlewares/lvgl/src/widgets/lv_canvas.c ****     mask.x1 = 0;
 861:Middlewares/lvgl/src/widgets/lv_canvas.c ****     mask.x2 = dsc->header.w - 1;
 862:Middlewares/lvgl/src/widgets/lv_canvas.c ****     mask.y1 = 0;
 863:Middlewares/lvgl/src/widgets/lv_canvas.c ****     mask.y2 = dsc->header.h - 1;
 864:Middlewares/lvgl/src/widgets/lv_canvas.c **** 
 865:Middlewares/lvgl/src/widgets/lv_canvas.c ****     lv_disp_t disp;
 866:Middlewares/lvgl/src/widgets/lv_canvas.c ****     /*Allocate the fake driver on the stack as the entire display doesn't outlive this function*/
 867:Middlewares/lvgl/src/widgets/lv_canvas.c ****     lv_disp_drv_t driver;
 868:Middlewares/lvgl/src/widgets/lv_canvas.c ****     lv_memset_00(&disp, sizeof(lv_disp_t));
 869:Middlewares/lvgl/src/widgets/lv_canvas.c ****     disp.driver = &driver;
 870:Middlewares/lvgl/src/widgets/lv_canvas.c **** 
 871:Middlewares/lvgl/src/widgets/lv_canvas.c ****     lv_disp_draw_buf_t draw_buf;
 872:Middlewares/lvgl/src/widgets/lv_canvas.c ****     lv_disp_draw_buf_init(&draw_buf, (void *)dsc->data, NULL, dsc->header.w * dsc->header.h);
 873:Middlewares/lvgl/src/widgets/lv_canvas.c ****     lv_area_copy(&draw_buf.area, &mask);
 874:Middlewares/lvgl/src/widgets/lv_canvas.c **** 
 875:Middlewares/lvgl/src/widgets/lv_canvas.c ****     lv_disp_drv_init(disp.driver);
 876:Middlewares/lvgl/src/widgets/lv_canvas.c **** 
 877:Middlewares/lvgl/src/widgets/lv_canvas.c ****     disp.driver->draw_buf = &draw_buf;
 878:Middlewares/lvgl/src/widgets/lv_canvas.c ****     disp.driver->hor_res = dsc->header.w;
 879:Middlewares/lvgl/src/widgets/lv_canvas.c ****     disp.driver->ver_res = dsc->header.h;
 880:Middlewares/lvgl/src/widgets/lv_canvas.c **** 
 881:Middlewares/lvgl/src/widgets/lv_canvas.c ****     set_set_px_cb(disp.driver, dsc->header.cf);
 882:Middlewares/lvgl/src/widgets/lv_canvas.c **** 
 883:Middlewares/lvgl/src/widgets/lv_canvas.c ****     /*Disable anti-aliasing if drawing with transparent color to chroma keyed canvas*/
 884:Middlewares/lvgl/src/widgets/lv_canvas.c ****     lv_color_t ctransp = LV_COLOR_CHROMA_KEY;
 885:Middlewares/lvgl/src/widgets/lv_canvas.c ****     if(dsc->header.cf == LV_IMG_CF_TRUE_COLOR_CHROMA_KEYED &&
 886:Middlewares/lvgl/src/widgets/lv_canvas.c ****        draw_dsc->color.full == ctransp.full) {
ARM GAS  /tmp/ccdxwQT7.s 			page 17


 887:Middlewares/lvgl/src/widgets/lv_canvas.c ****         disp.driver->antialiasing = 0;
 888:Middlewares/lvgl/src/widgets/lv_canvas.c ****     }
 889:Middlewares/lvgl/src/widgets/lv_canvas.c **** 
 890:Middlewares/lvgl/src/widgets/lv_canvas.c ****     lv_disp_t * refr_ori = _lv_refr_get_disp_refreshing();
 891:Middlewares/lvgl/src/widgets/lv_canvas.c ****     _lv_refr_set_disp_refreshing(&disp);
 892:Middlewares/lvgl/src/widgets/lv_canvas.c **** 
 893:Middlewares/lvgl/src/widgets/lv_canvas.c ****     lv_draw_arc(x, y, r,  start_angle, end_angle, &mask, draw_dsc);
 894:Middlewares/lvgl/src/widgets/lv_canvas.c **** 
 895:Middlewares/lvgl/src/widgets/lv_canvas.c ****     _lv_refr_set_disp_refreshing(refr_ori);
 896:Middlewares/lvgl/src/widgets/lv_canvas.c **** 
 897:Middlewares/lvgl/src/widgets/lv_canvas.c ****     lv_obj_invalidate(canvas);
 898:Middlewares/lvgl/src/widgets/lv_canvas.c **** #else
 899:Middlewares/lvgl/src/widgets/lv_canvas.c ****     LV_UNUSED(canvas);
 900:Middlewares/lvgl/src/widgets/lv_canvas.c ****     LV_UNUSED(x);
 901:Middlewares/lvgl/src/widgets/lv_canvas.c ****     LV_UNUSED(y);
 902:Middlewares/lvgl/src/widgets/lv_canvas.c ****     LV_UNUSED(r);
 903:Middlewares/lvgl/src/widgets/lv_canvas.c ****     LV_UNUSED(start_angle);
 904:Middlewares/lvgl/src/widgets/lv_canvas.c ****     LV_UNUSED(end_angle);
 905:Middlewares/lvgl/src/widgets/lv_canvas.c ****     LV_UNUSED(draw_dsc);
 906:Middlewares/lvgl/src/widgets/lv_canvas.c ****     LV_LOG_WARN("Can't draw arc with LV_DRAW_COMPLEX == 0");
 907:Middlewares/lvgl/src/widgets/lv_canvas.c **** #endif
 908:Middlewares/lvgl/src/widgets/lv_canvas.c **** }
 909:Middlewares/lvgl/src/widgets/lv_canvas.c **** 
 910:Middlewares/lvgl/src/widgets/lv_canvas.c **** /**********************
 911:Middlewares/lvgl/src/widgets/lv_canvas.c ****  *   STATIC FUNCTIONS
 912:Middlewares/lvgl/src/widgets/lv_canvas.c ****  **********************/
 913:Middlewares/lvgl/src/widgets/lv_canvas.c **** 
 914:Middlewares/lvgl/src/widgets/lv_canvas.c **** static void lv_canvas_constructor(const lv_obj_class_t * class_p, lv_obj_t * obj)
 915:Middlewares/lvgl/src/widgets/lv_canvas.c **** {
 916:Middlewares/lvgl/src/widgets/lv_canvas.c ****     LV_UNUSED(class_p);
 917:Middlewares/lvgl/src/widgets/lv_canvas.c ****     LV_TRACE_OBJ_CREATE("begin");
 918:Middlewares/lvgl/src/widgets/lv_canvas.c **** 
 919:Middlewares/lvgl/src/widgets/lv_canvas.c ****     lv_canvas_t * canvas = (lv_canvas_t *)obj;
 920:Middlewares/lvgl/src/widgets/lv_canvas.c **** 
 921:Middlewares/lvgl/src/widgets/lv_canvas.c ****     canvas->dsc.header.always_zero = 0;
 922:Middlewares/lvgl/src/widgets/lv_canvas.c ****     canvas->dsc.header.cf          = LV_IMG_CF_TRUE_COLOR;
 923:Middlewares/lvgl/src/widgets/lv_canvas.c ****     canvas->dsc.header.h           = 0;
 924:Middlewares/lvgl/src/widgets/lv_canvas.c ****     canvas->dsc.header.w           = 0;
 925:Middlewares/lvgl/src/widgets/lv_canvas.c ****     canvas->dsc.data_size          = 0;
 926:Middlewares/lvgl/src/widgets/lv_canvas.c ****     canvas->dsc.data               = NULL;
 927:Middlewares/lvgl/src/widgets/lv_canvas.c **** 
 928:Middlewares/lvgl/src/widgets/lv_canvas.c ****     lv_img_set_src(obj, &canvas->dsc);
 929:Middlewares/lvgl/src/widgets/lv_canvas.c **** 
 930:Middlewares/lvgl/src/widgets/lv_canvas.c ****     LV_TRACE_OBJ_CREATE("finished");
 931:Middlewares/lvgl/src/widgets/lv_canvas.c **** }
 932:Middlewares/lvgl/src/widgets/lv_canvas.c **** 
 933:Middlewares/lvgl/src/widgets/lv_canvas.c **** static void set_set_px_cb(lv_disp_drv_t * disp_drv, lv_img_cf_t cf)
 934:Middlewares/lvgl/src/widgets/lv_canvas.c **** {
  28              		.loc 1 934 1 view -0
  29              		.cfi_startproc
  30              		@ args = 0, pretend = 0, frame = 0
  31              		@ frame_needed = 0, uses_anonymous_args = 0
  32              		@ link register save eliminated.
 935:Middlewares/lvgl/src/widgets/lv_canvas.c ****     switch(cf) {
  33              		.loc 1 935 5 view .LVU1
  34 0000 0539     		subs	r1, r1, #5
  35              	.LVL1:
ARM GAS  /tmp/ccdxwQT7.s 			page 18


  36              		.loc 1 935 5 is_stmt 0 view .LVU2
  37 0002 0929     		cmp	r1, #9
  38 0004 15D8     		bhi	.L2
  39 0006 DFE801F0 		tbb	[pc, r1]
  40              	.L4:
  41 000a 05       		.byte	(.L8-.L4)/2
  42 000b 14       		.byte	(.L2-.L4)/2
  43 000c 14       		.byte	(.L2-.L4)/2
  44 000d 14       		.byte	(.L2-.L4)/2
  45 000e 14       		.byte	(.L2-.L4)/2
  46 000f 14       		.byte	(.L2-.L4)/2
  47 0010 08       		.byte	(.L7-.L4)/2
  48 0011 0B       		.byte	(.L6-.L4)/2
  49 0012 0E       		.byte	(.L5-.L4)/2
  50 0013 11       		.byte	(.L3-.L4)/2
  51              		.p2align 1
  52              	.L8:
 936:Middlewares/lvgl/src/widgets/lv_canvas.c ****         case LV_IMG_CF_TRUE_COLOR_ALPHA:
 937:Middlewares/lvgl/src/widgets/lv_canvas.c ****             disp_drv->set_px_cb = set_px_true_color_alpha;
  53              		.loc 1 937 13 is_stmt 1 view .LVU3
  54              		.loc 1 937 33 is_stmt 0 view .LVU4
  55 0014 084B     		ldr	r3, .L10
  56 0016 4361     		str	r3, [r0, #20]
 938:Middlewares/lvgl/src/widgets/lv_canvas.c ****             break;
  57              		.loc 1 938 13 is_stmt 1 view .LVU5
  58 0018 7047     		bx	lr
  59              	.L7:
 939:Middlewares/lvgl/src/widgets/lv_canvas.c ****         case LV_IMG_CF_ALPHA_1BIT:
 940:Middlewares/lvgl/src/widgets/lv_canvas.c ****             disp_drv->set_px_cb = set_px_cb_alpha1;
  60              		.loc 1 940 13 view .LVU6
  61              		.loc 1 940 33 is_stmt 0 view .LVU7
  62 001a 084B     		ldr	r3, .L10+4
  63 001c 4361     		str	r3, [r0, #20]
 941:Middlewares/lvgl/src/widgets/lv_canvas.c ****             break;
  64              		.loc 1 941 13 is_stmt 1 view .LVU8
  65 001e 7047     		bx	lr
  66              	.L6:
 942:Middlewares/lvgl/src/widgets/lv_canvas.c ****         case LV_IMG_CF_ALPHA_2BIT:
 943:Middlewares/lvgl/src/widgets/lv_canvas.c ****             disp_drv->set_px_cb = set_px_cb_alpha2;
  67              		.loc 1 943 13 view .LVU9
  68              		.loc 1 943 33 is_stmt 0 view .LVU10
  69 0020 074B     		ldr	r3, .L10+8
  70 0022 4361     		str	r3, [r0, #20]
 944:Middlewares/lvgl/src/widgets/lv_canvas.c ****             break;
  71              		.loc 1 944 13 is_stmt 1 view .LVU11
  72 0024 7047     		bx	lr
  73              	.L5:
 945:Middlewares/lvgl/src/widgets/lv_canvas.c ****         case LV_IMG_CF_ALPHA_4BIT:
 946:Middlewares/lvgl/src/widgets/lv_canvas.c ****             disp_drv->set_px_cb = set_px_cb_alpha4;
  74              		.loc 1 946 13 view .LVU12
  75              		.loc 1 946 33 is_stmt 0 view .LVU13
  76 0026 074B     		ldr	r3, .L10+12
  77 0028 4361     		str	r3, [r0, #20]
 947:Middlewares/lvgl/src/widgets/lv_canvas.c ****             break;
  78              		.loc 1 947 13 is_stmt 1 view .LVU14
  79 002a 7047     		bx	lr
  80              	.L3:
ARM GAS  /tmp/ccdxwQT7.s 			page 19


 948:Middlewares/lvgl/src/widgets/lv_canvas.c ****         case LV_IMG_CF_ALPHA_8BIT:
 949:Middlewares/lvgl/src/widgets/lv_canvas.c ****             disp_drv->set_px_cb = set_px_cb_alpha8;
  81              		.loc 1 949 13 view .LVU15
  82              		.loc 1 949 33 is_stmt 0 view .LVU16
  83 002c 064B     		ldr	r3, .L10+16
  84 002e 4361     		str	r3, [r0, #20]
 950:Middlewares/lvgl/src/widgets/lv_canvas.c ****             break;
  85              		.loc 1 950 13 is_stmt 1 view .LVU17
  86 0030 7047     		bx	lr
  87              	.L2:
 951:Middlewares/lvgl/src/widgets/lv_canvas.c ****         default:
 952:Middlewares/lvgl/src/widgets/lv_canvas.c ****             disp_drv->set_px_cb = NULL;
  88              		.loc 1 952 13 view .LVU18
  89              		.loc 1 952 33 is_stmt 0 view .LVU19
  90 0032 0023     		movs	r3, #0
  91 0034 4361     		str	r3, [r0, #20]
 953:Middlewares/lvgl/src/widgets/lv_canvas.c ****     }
 954:Middlewares/lvgl/src/widgets/lv_canvas.c **** }
  92              		.loc 1 954 1 view .LVU20
  93 0036 7047     		bx	lr
  94              	.L11:
  95              		.align	2
  96              	.L10:
  97 0038 00000000 		.word	set_px_true_color_alpha
  98 003c 00000000 		.word	set_px_cb_alpha1
  99 0040 00000000 		.word	set_px_cb_alpha2
 100 0044 00000000 		.word	set_px_cb_alpha4
 101 0048 00000000 		.word	set_px_cb_alpha8
 102              		.cfi_endproc
 103              	.LFE165:
 105              		.section	.text.lv_canvas_constructor,"ax",%progbits
 106              		.align	1
 107              		.syntax unified
 108              		.thumb
 109              		.thumb_func
 111              	lv_canvas_constructor:
 112              	.LVL2:
 113              	.LFB164:
 915:Middlewares/lvgl/src/widgets/lv_canvas.c ****     LV_UNUSED(class_p);
 114              		.loc 1 915 1 is_stmt 1 view -0
 115              		.cfi_startproc
 116              		@ args = 0, pretend = 0, frame = 0
 117              		@ frame_needed = 0, uses_anonymous_args = 0
 915:Middlewares/lvgl/src/widgets/lv_canvas.c ****     LV_UNUSED(class_p);
 118              		.loc 1 915 1 is_stmt 0 view .LVU22
 119 0000 08B5     		push	{r3, lr}
 120              	.LCFI0:
 121              		.cfi_def_cfa_offset 8
 122              		.cfi_offset 3, -8
 123              		.cfi_offset 14, -4
 124 0002 0846     		mov	r0, r1
 125              	.LVL3:
 916:Middlewares/lvgl/src/widgets/lv_canvas.c ****     LV_TRACE_OBJ_CREATE("begin");
 126              		.loc 1 916 5 is_stmt 1 view .LVU23
 917:Middlewares/lvgl/src/widgets/lv_canvas.c **** 
 127              		.loc 1 917 33 view .LVU24
 919:Middlewares/lvgl/src/widgets/lv_canvas.c **** 
ARM GAS  /tmp/ccdxwQT7.s 			page 20


 128              		.loc 1 919 5 view .LVU25
 921:Middlewares/lvgl/src/widgets/lv_canvas.c ****     canvas->dsc.header.cf          = LV_IMG_CF_TRUE_COLOR;
 129              		.loc 1 921 5 view .LVU26
 921:Middlewares/lvgl/src/widgets/lv_canvas.c ****     canvas->dsc.header.cf          = LV_IMG_CF_TRUE_COLOR;
 130              		.loc 1 921 36 is_stmt 0 view .LVU27
 131 0004 91F83C30 		ldrb	r3, [r1, #60]	@ zero_extendqisi2
 132 0008 6FF34713 		bfc	r3, #5, #3
 133 000c 81F83C30 		strb	r3, [r1, #60]
 922:Middlewares/lvgl/src/widgets/lv_canvas.c ****     canvas->dsc.header.h           = 0;
 134              		.loc 1 922 5 is_stmt 1 view .LVU28
 922:Middlewares/lvgl/src/widgets/lv_canvas.c ****     canvas->dsc.header.h           = 0;
 135              		.loc 1 922 36 is_stmt 0 view .LVU29
 136 0010 DBB2     		uxtb	r3, r3
 137 0012 0422     		movs	r2, #4
 138 0014 62F30403 		bfi	r3, r2, #0, #5
 139 0018 81F83C30 		strb	r3, [r1, #60]
 923:Middlewares/lvgl/src/widgets/lv_canvas.c ****     canvas->dsc.header.w           = 0;
 140              		.loc 1 923 5 is_stmt 1 view .LVU30
 923:Middlewares/lvgl/src/widgets/lv_canvas.c ****     canvas->dsc.header.w           = 0;
 141              		.loc 1 923 36 is_stmt 0 view .LVU31
 142 001c CB8F     		ldrh	r3, [r1, #62]
 143 001e 6FF34F13 		bfc	r3, #5, #11
 144 0022 CB87     		strh	r3, [r1, #62]	@ movhi
 924:Middlewares/lvgl/src/widgets/lv_canvas.c ****     canvas->dsc.data_size          = 0;
 145              		.loc 1 924 5 is_stmt 1 view .LVU32
 924:Middlewares/lvgl/src/widgets/lv_canvas.c ****     canvas->dsc.data_size          = 0;
 146              		.loc 1 924 36 is_stmt 0 view .LVU33
 147 0024 CB6B     		ldr	r3, [r1, #60]
 148 0026 6FF39423 		bfc	r3, #10, #11
 149 002a CB63     		str	r3, [r1, #60]
 925:Middlewares/lvgl/src/widgets/lv_canvas.c ****     canvas->dsc.data               = NULL;
 150              		.loc 1 925 5 is_stmt 1 view .LVU34
 925:Middlewares/lvgl/src/widgets/lv_canvas.c ****     canvas->dsc.data               = NULL;
 151              		.loc 1 925 36 is_stmt 0 view .LVU35
 152 002c 0023     		movs	r3, #0
 153 002e 0B64     		str	r3, [r1, #64]
 926:Middlewares/lvgl/src/widgets/lv_canvas.c **** 
 154              		.loc 1 926 5 is_stmt 1 view .LVU36
 926:Middlewares/lvgl/src/widgets/lv_canvas.c **** 
 155              		.loc 1 926 36 is_stmt 0 view .LVU37
 156 0030 4B64     		str	r3, [r1, #68]
 928:Middlewares/lvgl/src/widgets/lv_canvas.c **** 
 157              		.loc 1 928 5 is_stmt 1 view .LVU38
 158 0032 3C31     		adds	r1, r1, #60
 159              	.LVL4:
 928:Middlewares/lvgl/src/widgets/lv_canvas.c **** 
 160              		.loc 1 928 5 is_stmt 0 view .LVU39
 161 0034 FFF7FEFF 		bl	lv_img_set_src
 162              	.LVL5:
 930:Middlewares/lvgl/src/widgets/lv_canvas.c **** }
 163              		.loc 1 930 36 is_stmt 1 view .LVU40
 931:Middlewares/lvgl/src/widgets/lv_canvas.c **** 
 164              		.loc 1 931 1 is_stmt 0 view .LVU41
 165 0038 08BD     		pop	{r3, pc}
 166              		.cfi_endproc
 167              	.LFE164:
 169              		.section	.text.set_px_alpha_generic,"ax",%progbits
ARM GAS  /tmp/ccdxwQT7.s 			page 21


 170              		.align	1
 171              		.syntax unified
 172              		.thumb
 173              		.thumb_func
 175              	set_px_alpha_generic:
 176              	.LVL6:
 177              	.LFB170:
 955:Middlewares/lvgl/src/widgets/lv_canvas.c **** 
 956:Middlewares/lvgl/src/widgets/lv_canvas.c **** static void set_px_cb_alpha1(lv_disp_drv_t * disp_drv, uint8_t * buf, lv_coord_t buf_w, lv_coord_t 
 957:Middlewares/lvgl/src/widgets/lv_canvas.c ****                              lv_color_t color, lv_opa_t opa)
 958:Middlewares/lvgl/src/widgets/lv_canvas.c **** {
 959:Middlewares/lvgl/src/widgets/lv_canvas.c ****     (void) disp_drv; /*Unused*/
 960:Middlewares/lvgl/src/widgets/lv_canvas.c **** 
 961:Middlewares/lvgl/src/widgets/lv_canvas.c ****     if(opa <= LV_OPA_MIN) return;
 962:Middlewares/lvgl/src/widgets/lv_canvas.c ****     lv_img_dsc_t d;
 963:Middlewares/lvgl/src/widgets/lv_canvas.c ****     d.data = buf;
 964:Middlewares/lvgl/src/widgets/lv_canvas.c ****     d.header.w = buf_w;
 965:Middlewares/lvgl/src/widgets/lv_canvas.c ****     d.header.cf = LV_IMG_CF_ALPHA_1BIT;
 966:Middlewares/lvgl/src/widgets/lv_canvas.c **** 
 967:Middlewares/lvgl/src/widgets/lv_canvas.c ****     set_px_alpha_generic(&d, x, y, color, opa);
 968:Middlewares/lvgl/src/widgets/lv_canvas.c **** }
 969:Middlewares/lvgl/src/widgets/lv_canvas.c **** 
 970:Middlewares/lvgl/src/widgets/lv_canvas.c **** static void set_px_cb_alpha2(lv_disp_drv_t * disp_drv, uint8_t * buf, lv_coord_t buf_w, lv_coord_t 
 971:Middlewares/lvgl/src/widgets/lv_canvas.c ****                              lv_color_t color, lv_opa_t opa)
 972:Middlewares/lvgl/src/widgets/lv_canvas.c **** {
 973:Middlewares/lvgl/src/widgets/lv_canvas.c ****     (void) disp_drv; /*Unused*/
 974:Middlewares/lvgl/src/widgets/lv_canvas.c **** 
 975:Middlewares/lvgl/src/widgets/lv_canvas.c ****     if(opa <= LV_OPA_MIN) return;
 976:Middlewares/lvgl/src/widgets/lv_canvas.c ****     lv_img_dsc_t d;
 977:Middlewares/lvgl/src/widgets/lv_canvas.c ****     d.data = buf;
 978:Middlewares/lvgl/src/widgets/lv_canvas.c ****     d.header.w = buf_w;
 979:Middlewares/lvgl/src/widgets/lv_canvas.c ****     d.header.cf = LV_IMG_CF_ALPHA_2BIT;
 980:Middlewares/lvgl/src/widgets/lv_canvas.c **** 
 981:Middlewares/lvgl/src/widgets/lv_canvas.c ****     set_px_alpha_generic(&d, x, y, color, opa);
 982:Middlewares/lvgl/src/widgets/lv_canvas.c **** }
 983:Middlewares/lvgl/src/widgets/lv_canvas.c **** 
 984:Middlewares/lvgl/src/widgets/lv_canvas.c **** static void set_px_cb_alpha4(lv_disp_drv_t * disp_drv, uint8_t * buf, lv_coord_t buf_w, lv_coord_t 
 985:Middlewares/lvgl/src/widgets/lv_canvas.c ****                              lv_color_t color, lv_opa_t opa)
 986:Middlewares/lvgl/src/widgets/lv_canvas.c **** {
 987:Middlewares/lvgl/src/widgets/lv_canvas.c ****     (void) disp_drv; /*Unused*/
 988:Middlewares/lvgl/src/widgets/lv_canvas.c **** 
 989:Middlewares/lvgl/src/widgets/lv_canvas.c ****     if(opa <= LV_OPA_MIN) return;
 990:Middlewares/lvgl/src/widgets/lv_canvas.c ****     lv_img_dsc_t d;
 991:Middlewares/lvgl/src/widgets/lv_canvas.c ****     d.data = buf;
 992:Middlewares/lvgl/src/widgets/lv_canvas.c ****     d.header.w = buf_w;
 993:Middlewares/lvgl/src/widgets/lv_canvas.c ****     d.header.cf = LV_IMG_CF_ALPHA_4BIT;
 994:Middlewares/lvgl/src/widgets/lv_canvas.c **** 
 995:Middlewares/lvgl/src/widgets/lv_canvas.c ****     set_px_alpha_generic(&d, x, y, color, opa);
 996:Middlewares/lvgl/src/widgets/lv_canvas.c **** }
 997:Middlewares/lvgl/src/widgets/lv_canvas.c **** 
 998:Middlewares/lvgl/src/widgets/lv_canvas.c **** static void set_px_cb_alpha8(lv_disp_drv_t * disp_drv, uint8_t * buf, lv_coord_t buf_w, lv_coord_t 
 999:Middlewares/lvgl/src/widgets/lv_canvas.c ****                              lv_color_t color, lv_opa_t opa)
1000:Middlewares/lvgl/src/widgets/lv_canvas.c **** {
1001:Middlewares/lvgl/src/widgets/lv_canvas.c ****     (void) disp_drv; /*Unused*/
1002:Middlewares/lvgl/src/widgets/lv_canvas.c **** 
1003:Middlewares/lvgl/src/widgets/lv_canvas.c ****     if(opa <= LV_OPA_MIN) return;
1004:Middlewares/lvgl/src/widgets/lv_canvas.c ****     lv_img_dsc_t d;
ARM GAS  /tmp/ccdxwQT7.s 			page 22


1005:Middlewares/lvgl/src/widgets/lv_canvas.c ****     d.data = buf;
1006:Middlewares/lvgl/src/widgets/lv_canvas.c ****     d.header.w = buf_w;
1007:Middlewares/lvgl/src/widgets/lv_canvas.c ****     d.header.cf = LV_IMG_CF_ALPHA_8BIT;
1008:Middlewares/lvgl/src/widgets/lv_canvas.c **** 
1009:Middlewares/lvgl/src/widgets/lv_canvas.c ****     set_px_alpha_generic(&d, x, y, color, opa);
1010:Middlewares/lvgl/src/widgets/lv_canvas.c **** }
1011:Middlewares/lvgl/src/widgets/lv_canvas.c **** 
1012:Middlewares/lvgl/src/widgets/lv_canvas.c **** static void set_px_alpha_generic(lv_img_dsc_t * d, lv_coord_t x, lv_coord_t y, lv_color_t color, lv
1013:Middlewares/lvgl/src/widgets/lv_canvas.c **** {
 178              		.loc 1 1013 1 is_stmt 1 view -0
 179              		.cfi_startproc
 180              		@ args = 4, pretend = 0, frame = 0
 181              		@ frame_needed = 0, uses_anonymous_args = 0
 182              		.loc 1 1013 1 is_stmt 0 view .LVU43
 183 0000 2DE9F041 		push	{r4, r5, r6, r7, r8, lr}
 184              	.LCFI1:
 185              		.cfi_def_cfa_offset 24
 186              		.cfi_offset 4, -24
 187              		.cfi_offset 5, -20
 188              		.cfi_offset 6, -16
 189              		.cfi_offset 7, -12
 190              		.cfi_offset 8, -8
 191              		.cfi_offset 14, -4
 192 0004 0446     		mov	r4, r0
 193 0006 0D46     		mov	r5, r1
 194 0008 1646     		mov	r6, r2
 195 000a 9DF81870 		ldrb	r7, [sp, #24]	@ zero_extendqisi2
1014:Middlewares/lvgl/src/widgets/lv_canvas.c ****     d->header.always_zero = 0;
 196              		.loc 1 1014 5 is_stmt 1 view .LVU44
 197              		.loc 1 1014 27 is_stmt 0 view .LVU45
 198 000e 0278     		ldrb	r2, [r0]	@ zero_extendqisi2
 199              	.LVL7:
 200              		.loc 1 1014 27 view .LVU46
 201 0010 6FF34712 		bfc	r2, #5, #3
 202 0014 0270     		strb	r2, [r0]
1015:Middlewares/lvgl/src/widgets/lv_canvas.c ****     d->header.h = 1;    /*Doesn't matter*/
 203              		.loc 1 1015 5 is_stmt 1 view .LVU47
 204              		.loc 1 1015 17 is_stmt 0 view .LVU48
 205 0016 4288     		ldrh	r2, [r0, #2]
 206 0018 0121     		movs	r1, #1
 207              	.LVL8:
 208              		.loc 1 1015 17 view .LVU49
 209 001a 61F34F12 		bfi	r2, r1, #5, #11
 210 001e 4280     		strh	r2, [r0, #2]	@ movhi
1016:Middlewares/lvgl/src/widgets/lv_canvas.c **** 
1017:Middlewares/lvgl/src/widgets/lv_canvas.c ****     uint8_t br = lv_color_brightness(color);
 211              		.loc 1 1017 5 is_stmt 1 view .LVU50
 212              	.LBB69:
 213              	.LBI69:
 214              		.file 2 "Middlewares/lvgl/src/widgets/../core/../misc/lv_color.h"
   1:Middlewares/lvgl/src/widgets/../core/../misc/lv_color.h **** /**
   2:Middlewares/lvgl/src/widgets/../core/../misc/lv_color.h ****  * @file lv_color.h
   3:Middlewares/lvgl/src/widgets/../core/../misc/lv_color.h ****  *
   4:Middlewares/lvgl/src/widgets/../core/../misc/lv_color.h ****  */
   5:Middlewares/lvgl/src/widgets/../core/../misc/lv_color.h **** 
   6:Middlewares/lvgl/src/widgets/../core/../misc/lv_color.h **** #ifndef LV_COLOR_H
   7:Middlewares/lvgl/src/widgets/../core/../misc/lv_color.h **** #define LV_COLOR_H
ARM GAS  /tmp/ccdxwQT7.s 			page 23


   8:Middlewares/lvgl/src/widgets/../core/../misc/lv_color.h **** 
   9:Middlewares/lvgl/src/widgets/../core/../misc/lv_color.h **** #ifdef __cplusplus
  10:Middlewares/lvgl/src/widgets/../core/../misc/lv_color.h **** extern "C" {
  11:Middlewares/lvgl/src/widgets/../core/../misc/lv_color.h **** #endif
  12:Middlewares/lvgl/src/widgets/../core/../misc/lv_color.h **** 
  13:Middlewares/lvgl/src/widgets/../core/../misc/lv_color.h **** /*********************
  14:Middlewares/lvgl/src/widgets/../core/../misc/lv_color.h ****  *      INCLUDES
  15:Middlewares/lvgl/src/widgets/../core/../misc/lv_color.h ****  *********************/
  16:Middlewares/lvgl/src/widgets/../core/../misc/lv_color.h **** #include "../lv_conf_internal.h"
  17:Middlewares/lvgl/src/widgets/../core/../misc/lv_color.h **** #include "lv_math.h"
  18:Middlewares/lvgl/src/widgets/../core/../misc/lv_color.h **** #include "lv_types.h"
  19:Middlewares/lvgl/src/widgets/../core/../misc/lv_color.h **** 
  20:Middlewares/lvgl/src/widgets/../core/../misc/lv_color.h **** /*Error checking*/
  21:Middlewares/lvgl/src/widgets/../core/../misc/lv_color.h **** #if LV_COLOR_DEPTH == 24
  22:Middlewares/lvgl/src/widgets/../core/../misc/lv_color.h **** #error "LV_COLOR_DEPTH 24 is deprecated. Use LV_COLOR_DEPTH 32 instead (lv_conf.h)"
  23:Middlewares/lvgl/src/widgets/../core/../misc/lv_color.h **** #endif
  24:Middlewares/lvgl/src/widgets/../core/../misc/lv_color.h **** 
  25:Middlewares/lvgl/src/widgets/../core/../misc/lv_color.h **** #if LV_COLOR_DEPTH != 32 && LV_COLOR_SCREEN_TRANSP != 0
  26:Middlewares/lvgl/src/widgets/../core/../misc/lv_color.h **** #error "LV_COLOR_SCREEN_TRANSP requires LV_COLOR_DEPTH == 32. Set it in lv_conf.h"
  27:Middlewares/lvgl/src/widgets/../core/../misc/lv_color.h **** #endif
  28:Middlewares/lvgl/src/widgets/../core/../misc/lv_color.h **** 
  29:Middlewares/lvgl/src/widgets/../core/../misc/lv_color.h **** #if LV_COLOR_DEPTH != 16 && LV_COLOR_16_SWAP != 0
  30:Middlewares/lvgl/src/widgets/../core/../misc/lv_color.h **** #error "LV_COLOR_16_SWAP requires LV_COLOR_DEPTH == 16. Set it in lv_conf.h"
  31:Middlewares/lvgl/src/widgets/../core/../misc/lv_color.h **** #endif
  32:Middlewares/lvgl/src/widgets/../core/../misc/lv_color.h **** 
  33:Middlewares/lvgl/src/widgets/../core/../misc/lv_color.h **** #include <stdint.h>
  34:Middlewares/lvgl/src/widgets/../core/../misc/lv_color.h **** 
  35:Middlewares/lvgl/src/widgets/../core/../misc/lv_color.h **** /*********************
  36:Middlewares/lvgl/src/widgets/../core/../misc/lv_color.h ****  *      DEFINES
  37:Middlewares/lvgl/src/widgets/../core/../misc/lv_color.h ****  *********************/
  38:Middlewares/lvgl/src/widgets/../core/../misc/lv_color.h **** 
  39:Middlewares/lvgl/src/widgets/../core/../misc/lv_color.h **** /**
  40:Middlewares/lvgl/src/widgets/../core/../misc/lv_color.h ****  * Opacity percentages.
  41:Middlewares/lvgl/src/widgets/../core/../misc/lv_color.h ****  */
  42:Middlewares/lvgl/src/widgets/../core/../misc/lv_color.h **** enum {
  43:Middlewares/lvgl/src/widgets/../core/../misc/lv_color.h ****     LV_OPA_TRANSP = 0,
  44:Middlewares/lvgl/src/widgets/../core/../misc/lv_color.h ****     LV_OPA_0      = 0,
  45:Middlewares/lvgl/src/widgets/../core/../misc/lv_color.h ****     LV_OPA_10     = 25,
  46:Middlewares/lvgl/src/widgets/../core/../misc/lv_color.h ****     LV_OPA_20     = 51,
  47:Middlewares/lvgl/src/widgets/../core/../misc/lv_color.h ****     LV_OPA_30     = 76,
  48:Middlewares/lvgl/src/widgets/../core/../misc/lv_color.h ****     LV_OPA_40     = 102,
  49:Middlewares/lvgl/src/widgets/../core/../misc/lv_color.h ****     LV_OPA_50     = 127,
  50:Middlewares/lvgl/src/widgets/../core/../misc/lv_color.h ****     LV_OPA_60     = 153,
  51:Middlewares/lvgl/src/widgets/../core/../misc/lv_color.h ****     LV_OPA_70     = 178,
  52:Middlewares/lvgl/src/widgets/../core/../misc/lv_color.h ****     LV_OPA_80     = 204,
  53:Middlewares/lvgl/src/widgets/../core/../misc/lv_color.h ****     LV_OPA_90     = 229,
  54:Middlewares/lvgl/src/widgets/../core/../misc/lv_color.h ****     LV_OPA_100    = 255,
  55:Middlewares/lvgl/src/widgets/../core/../misc/lv_color.h ****     LV_OPA_COVER  = 255,
  56:Middlewares/lvgl/src/widgets/../core/../misc/lv_color.h **** };
  57:Middlewares/lvgl/src/widgets/../core/../misc/lv_color.h **** 
  58:Middlewares/lvgl/src/widgets/../core/../misc/lv_color.h **** #define LV_OPA_MIN 2    /*Opacities below this will be transparent*/
  59:Middlewares/lvgl/src/widgets/../core/../misc/lv_color.h **** #define LV_OPA_MAX 253  /*Opacities above this will fully cover*/
  60:Middlewares/lvgl/src/widgets/../core/../misc/lv_color.h **** 
  61:Middlewares/lvgl/src/widgets/../core/../misc/lv_color.h **** #if LV_COLOR_DEPTH == 1
  62:Middlewares/lvgl/src/widgets/../core/../misc/lv_color.h **** #define LV_COLOR_SIZE 8
  63:Middlewares/lvgl/src/widgets/../core/../misc/lv_color.h **** #elif LV_COLOR_DEPTH == 8
  64:Middlewares/lvgl/src/widgets/../core/../misc/lv_color.h **** #define LV_COLOR_SIZE 8
ARM GAS  /tmp/ccdxwQT7.s 			page 24


  65:Middlewares/lvgl/src/widgets/../core/../misc/lv_color.h **** #elif LV_COLOR_DEPTH == 16
  66:Middlewares/lvgl/src/widgets/../core/../misc/lv_color.h **** #define LV_COLOR_SIZE 16
  67:Middlewares/lvgl/src/widgets/../core/../misc/lv_color.h **** #elif LV_COLOR_DEPTH == 32
  68:Middlewares/lvgl/src/widgets/../core/../misc/lv_color.h **** #define LV_COLOR_SIZE 32
  69:Middlewares/lvgl/src/widgets/../core/../misc/lv_color.h **** #else
  70:Middlewares/lvgl/src/widgets/../core/../misc/lv_color.h **** #error "Invalid LV_COLOR_DEPTH in lv_conf.h! Set it to 1, 8, 16 or 32!"
  71:Middlewares/lvgl/src/widgets/../core/../misc/lv_color.h **** #endif
  72:Middlewares/lvgl/src/widgets/../core/../misc/lv_color.h **** 
  73:Middlewares/lvgl/src/widgets/../core/../misc/lv_color.h **** /**
  74:Middlewares/lvgl/src/widgets/../core/../misc/lv_color.h ****  * Adjust color mix functions rounding.
  75:Middlewares/lvgl/src/widgets/../core/../misc/lv_color.h ****  * GPUs might calculate color mix (blending) differently.
  76:Middlewares/lvgl/src/widgets/../core/../misc/lv_color.h ****  * Should be in range of 0..254
  77:Middlewares/lvgl/src/widgets/../core/../misc/lv_color.h ****  * 0: no adjustment, get the integer part of the result (round down)
  78:Middlewares/lvgl/src/widgets/../core/../misc/lv_color.h ****  * 64: round up from x.75
  79:Middlewares/lvgl/src/widgets/../core/../misc/lv_color.h ****  * 128: round up from half
  80:Middlewares/lvgl/src/widgets/../core/../misc/lv_color.h ****  * 192: round up from x.25
  81:Middlewares/lvgl/src/widgets/../core/../misc/lv_color.h ****  * 254: round up*/
  82:Middlewares/lvgl/src/widgets/../core/../misc/lv_color.h **** #ifndef LV_COLOR_MIX_ROUND_OFS
  83:Middlewares/lvgl/src/widgets/../core/../misc/lv_color.h **** #if LV_COLOR_DEPTH == 32
  84:Middlewares/lvgl/src/widgets/../core/../misc/lv_color.h **** #define LV_COLOR_MIX_ROUND_OFS 0
  85:Middlewares/lvgl/src/widgets/../core/../misc/lv_color.h **** #else
  86:Middlewares/lvgl/src/widgets/../core/../misc/lv_color.h **** #define LV_COLOR_MIX_ROUND_OFS 128
  87:Middlewares/lvgl/src/widgets/../core/../misc/lv_color.h **** #endif
  88:Middlewares/lvgl/src/widgets/../core/../misc/lv_color.h **** #endif
  89:Middlewares/lvgl/src/widgets/../core/../misc/lv_color.h **** 
  90:Middlewares/lvgl/src/widgets/../core/../misc/lv_color.h **** #if defined(__cplusplus) && !defined(_LV_COLOR_HAS_MODERN_CPP)
  91:Middlewares/lvgl/src/widgets/../core/../misc/lv_color.h **** /**
  92:Middlewares/lvgl/src/widgets/../core/../misc/lv_color.h **** * MSVC compiler's definition of the __cplusplus indicating 199711L regardless to C++ standard versi
  93:Middlewares/lvgl/src/widgets/../core/../misc/lv_color.h **** * see https://devblogs.microsoft.com/cppblog/msvc-now-correctly-reports-cplusplus
  94:Middlewares/lvgl/src/widgets/../core/../misc/lv_color.h **** * so we use _MSC_VER macro instead of __cplusplus
  95:Middlewares/lvgl/src/widgets/../core/../misc/lv_color.h **** */
  96:Middlewares/lvgl/src/widgets/../core/../misc/lv_color.h **** #ifdef _MSC_VER
  97:Middlewares/lvgl/src/widgets/../core/../misc/lv_color.h **** #if _MSC_VER >= 1900 /*Visual Studio 2015*/
  98:Middlewares/lvgl/src/widgets/../core/../misc/lv_color.h **** #define _LV_COLOR_HAS_MODERN_CPP 1
  99:Middlewares/lvgl/src/widgets/../core/../misc/lv_color.h **** #endif
 100:Middlewares/lvgl/src/widgets/../core/../misc/lv_color.h **** #else
 101:Middlewares/lvgl/src/widgets/../core/../misc/lv_color.h **** #if __cplusplus >= 201103L
 102:Middlewares/lvgl/src/widgets/../core/../misc/lv_color.h **** #define _LV_COLOR_HAS_MODERN_CPP 1
 103:Middlewares/lvgl/src/widgets/../core/../misc/lv_color.h **** #endif
 104:Middlewares/lvgl/src/widgets/../core/../misc/lv_color.h **** #endif
 105:Middlewares/lvgl/src/widgets/../core/../misc/lv_color.h **** #endif /*__cplusplus*/
 106:Middlewares/lvgl/src/widgets/../core/../misc/lv_color.h **** 
 107:Middlewares/lvgl/src/widgets/../core/../misc/lv_color.h **** #ifndef _LV_COLOR_HAS_MODERN_CPP
 108:Middlewares/lvgl/src/widgets/../core/../misc/lv_color.h **** #define _LV_COLOR_HAS_MODERN_CPP 0
 109:Middlewares/lvgl/src/widgets/../core/../misc/lv_color.h **** #endif
 110:Middlewares/lvgl/src/widgets/../core/../misc/lv_color.h **** 
 111:Middlewares/lvgl/src/widgets/../core/../misc/lv_color.h **** #if _LV_COLOR_HAS_MODERN_CPP
 112:Middlewares/lvgl/src/widgets/../core/../misc/lv_color.h **** /*Fix msvc compiler error C4576 inside C++ code*/
 113:Middlewares/lvgl/src/widgets/../core/../misc/lv_color.h **** #define _LV_COLOR_MAKE_TYPE_HELPER lv_color_t
 114:Middlewares/lvgl/src/widgets/../core/../misc/lv_color.h **** #else
 115:Middlewares/lvgl/src/widgets/../core/../misc/lv_color.h **** #define _LV_COLOR_MAKE_TYPE_HELPER (lv_color_t)
 116:Middlewares/lvgl/src/widgets/../core/../misc/lv_color.h **** #endif
 117:Middlewares/lvgl/src/widgets/../core/../misc/lv_color.h **** 
 118:Middlewares/lvgl/src/widgets/../core/../misc/lv_color.h **** /*---------------------------------------
 119:Middlewares/lvgl/src/widgets/../core/../misc/lv_color.h ****  * Macros for all existing color depths
 120:Middlewares/lvgl/src/widgets/../core/../misc/lv_color.h ****  * to set/get values of the color channels
 121:Middlewares/lvgl/src/widgets/../core/../misc/lv_color.h ****  *------------------------------------------*/
ARM GAS  /tmp/ccdxwQT7.s 			page 25


 122:Middlewares/lvgl/src/widgets/../core/../misc/lv_color.h **** # define LV_COLOR_SET_R1(c, v) (c).ch.red = (uint8_t)((v) & 0x1)
 123:Middlewares/lvgl/src/widgets/../core/../misc/lv_color.h **** # define LV_COLOR_SET_G1(c, v) (c).ch.green = (uint8_t)((v) & 0x1)
 124:Middlewares/lvgl/src/widgets/../core/../misc/lv_color.h **** # define LV_COLOR_SET_B1(c, v) (c).ch.blue = (uint8_t)((v) & 0x1)
 125:Middlewares/lvgl/src/widgets/../core/../misc/lv_color.h **** # define LV_COLOR_SET_A1(c, v) do {} while(0)
 126:Middlewares/lvgl/src/widgets/../core/../misc/lv_color.h **** 
 127:Middlewares/lvgl/src/widgets/../core/../misc/lv_color.h **** # define LV_COLOR_GET_R1(c) (c).ch.red
 128:Middlewares/lvgl/src/widgets/../core/../misc/lv_color.h **** # define LV_COLOR_GET_G1(c) (c).ch.green
 129:Middlewares/lvgl/src/widgets/../core/../misc/lv_color.h **** # define LV_COLOR_GET_B1(c) (c).ch.blue
 130:Middlewares/lvgl/src/widgets/../core/../misc/lv_color.h **** # define LV_COLOR_GET_A1(c) 0xFF
 131:Middlewares/lvgl/src/widgets/../core/../misc/lv_color.h **** 
 132:Middlewares/lvgl/src/widgets/../core/../misc/lv_color.h **** # define _LV_COLOR_ZERO_INITIALIZER1 {0x00}
 133:Middlewares/lvgl/src/widgets/../core/../misc/lv_color.h **** # define LV_COLOR_MAKE1(r8, g8, b8)  {(uint8_t)((b8 >> 7) | (g8 >> 7) | (r8 >> 7))}
 134:Middlewares/lvgl/src/widgets/../core/../misc/lv_color.h **** 
 135:Middlewares/lvgl/src/widgets/../core/../misc/lv_color.h **** # define LV_COLOR_SET_R8(c, v) (c).ch.red = (uint8_t)((v) & 0x7U)
 136:Middlewares/lvgl/src/widgets/../core/../misc/lv_color.h **** # define LV_COLOR_SET_G8(c, v) (c).ch.green = (uint8_t)((v) & 0x7U)
 137:Middlewares/lvgl/src/widgets/../core/../misc/lv_color.h **** # define LV_COLOR_SET_B8(c, v) (c).ch.blue = (uint8_t)((v) & 0x3U)
 138:Middlewares/lvgl/src/widgets/../core/../misc/lv_color.h **** # define LV_COLOR_SET_A8(c, v) do {} while(0)
 139:Middlewares/lvgl/src/widgets/../core/../misc/lv_color.h **** 
 140:Middlewares/lvgl/src/widgets/../core/../misc/lv_color.h **** # define LV_COLOR_GET_R8(c) (c).ch.red
 141:Middlewares/lvgl/src/widgets/../core/../misc/lv_color.h **** # define LV_COLOR_GET_G8(c) (c).ch.green
 142:Middlewares/lvgl/src/widgets/../core/../misc/lv_color.h **** # define LV_COLOR_GET_B8(c) (c).ch.blue
 143:Middlewares/lvgl/src/widgets/../core/../misc/lv_color.h **** # define LV_COLOR_GET_A8(c) 0xFF
 144:Middlewares/lvgl/src/widgets/../core/../misc/lv_color.h **** 
 145:Middlewares/lvgl/src/widgets/../core/../misc/lv_color.h **** # define _LV_COLOR_ZERO_INITIALIZER8 _LV_COLOR_MAKE_TYPE_HELPER {{0x00, 0x00, 0x00}}
 146:Middlewares/lvgl/src/widgets/../core/../misc/lv_color.h **** # define LV_COLOR_MAKE8(r8, g8, b8) _LV_COLOR_MAKE_TYPE_HELPER  {{(uint8_t)((b8 >> 6) & 0x3U), (uin
 147:Middlewares/lvgl/src/widgets/../core/../misc/lv_color.h **** 
 148:Middlewares/lvgl/src/widgets/../core/../misc/lv_color.h **** # define LV_COLOR_SET_R16(c, v) (c).ch.red = (uint8_t)((v) & 0x1FU)
 149:Middlewares/lvgl/src/widgets/../core/../misc/lv_color.h **** #if LV_COLOR_16_SWAP == 0
 150:Middlewares/lvgl/src/widgets/../core/../misc/lv_color.h **** # define LV_COLOR_SET_G16(c, v) (c).ch.green = (uint8_t)((v) & 0x3FU)
 151:Middlewares/lvgl/src/widgets/../core/../misc/lv_color.h **** #else
 152:Middlewares/lvgl/src/widgets/../core/../misc/lv_color.h **** # define LV_COLOR_SET_G16(c, v) {(c).ch.green_h = (uint8_t)(((v) >> 3) & 0x7); (c).ch.green_l = (ui
 153:Middlewares/lvgl/src/widgets/../core/../misc/lv_color.h **** #endif
 154:Middlewares/lvgl/src/widgets/../core/../misc/lv_color.h **** # define LV_COLOR_SET_B16(c, v) (c).ch.blue = (uint8_t)((v) & 0x1FU)
 155:Middlewares/lvgl/src/widgets/../core/../misc/lv_color.h **** # define LV_COLOR_SET_A16(c, v) do {} while(0)
 156:Middlewares/lvgl/src/widgets/../core/../misc/lv_color.h **** 
 157:Middlewares/lvgl/src/widgets/../core/../misc/lv_color.h **** # define LV_COLOR_GET_R16(c) (c).ch.red
 158:Middlewares/lvgl/src/widgets/../core/../misc/lv_color.h **** #if LV_COLOR_16_SWAP == 0
 159:Middlewares/lvgl/src/widgets/../core/../misc/lv_color.h **** # define LV_COLOR_GET_G16(c) (c).ch.green
 160:Middlewares/lvgl/src/widgets/../core/../misc/lv_color.h **** #else
 161:Middlewares/lvgl/src/widgets/../core/../misc/lv_color.h **** # define LV_COLOR_GET_G16(c) (((c).ch.green_h << 3) + (c).ch.green_l)
 162:Middlewares/lvgl/src/widgets/../core/../misc/lv_color.h **** #endif
 163:Middlewares/lvgl/src/widgets/../core/../misc/lv_color.h **** # define LV_COLOR_GET_B16(c) (c).ch.blue
 164:Middlewares/lvgl/src/widgets/../core/../misc/lv_color.h **** # define LV_COLOR_GET_A16(c) 0xFF
 165:Middlewares/lvgl/src/widgets/../core/../misc/lv_color.h **** 
 166:Middlewares/lvgl/src/widgets/../core/../misc/lv_color.h **** #if LV_COLOR_16_SWAP == 0
 167:Middlewares/lvgl/src/widgets/../core/../misc/lv_color.h **** # define _LV_COLOR_ZERO_INITIALIZER16  {{0x00, 0x00, 0x00}}
 168:Middlewares/lvgl/src/widgets/../core/../misc/lv_color.h **** # define LV_COLOR_MAKE16(r8, g8, b8) {{(uint8_t)((b8 >> 3) & 0x1FU), (uint8_t)((g8 >> 2) & 0x3FU), 
 169:Middlewares/lvgl/src/widgets/../core/../misc/lv_color.h **** #else
 170:Middlewares/lvgl/src/widgets/../core/../misc/lv_color.h **** # define _LV_COLOR_ZERO_INITIALIZER16 {{0x00, 0x00, 0x00, 0x00}}
 171:Middlewares/lvgl/src/widgets/../core/../misc/lv_color.h **** # define LV_COLOR_MAKE16(r8, g8, b8) {{(uint8_t)((g8 >> 5) & 0x7U), (uint8_t)((r8 >> 3) & 0x1FU), (
 172:Middlewares/lvgl/src/widgets/../core/../misc/lv_color.h **** #endif
 173:Middlewares/lvgl/src/widgets/../core/../misc/lv_color.h **** 
 174:Middlewares/lvgl/src/widgets/../core/../misc/lv_color.h **** # define LV_COLOR_SET_R32(c, v) (c).ch.red = (uint8_t)((v) & 0xFF)
 175:Middlewares/lvgl/src/widgets/../core/../misc/lv_color.h **** # define LV_COLOR_SET_G32(c, v) (c).ch.green = (uint8_t)((v) & 0xFF)
 176:Middlewares/lvgl/src/widgets/../core/../misc/lv_color.h **** # define LV_COLOR_SET_B32(c, v) (c).ch.blue = (uint8_t)((v) & 0xFF)
 177:Middlewares/lvgl/src/widgets/../core/../misc/lv_color.h **** # define LV_COLOR_SET_A32(c, v) (c).ch.alpha = (uint8_t)((v) & 0xFF)
 178:Middlewares/lvgl/src/widgets/../core/../misc/lv_color.h **** 
ARM GAS  /tmp/ccdxwQT7.s 			page 26


 179:Middlewares/lvgl/src/widgets/../core/../misc/lv_color.h **** # define LV_COLOR_GET_R32(c) (c).ch.red
 180:Middlewares/lvgl/src/widgets/../core/../misc/lv_color.h **** # define LV_COLOR_GET_G32(c) (c).ch.green
 181:Middlewares/lvgl/src/widgets/../core/../misc/lv_color.h **** # define LV_COLOR_GET_B32(c) (c).ch.blue
 182:Middlewares/lvgl/src/widgets/../core/../misc/lv_color.h **** # define LV_COLOR_GET_A32(c) (c).ch.alpha
 183:Middlewares/lvgl/src/widgets/../core/../misc/lv_color.h **** 
 184:Middlewares/lvgl/src/widgets/../core/../misc/lv_color.h **** # define _LV_COLOR_ZERO_INITIALIZER32  {{0x00, 0x00, 0x00, 0x00}}
 185:Middlewares/lvgl/src/widgets/../core/../misc/lv_color.h **** # define LV_COLOR_MAKE32(r8, g8, b8) {{b8, g8, r8, 0xff}} /*Fix 0xff alpha*/
 186:Middlewares/lvgl/src/widgets/../core/../misc/lv_color.h **** 
 187:Middlewares/lvgl/src/widgets/../core/../misc/lv_color.h **** /*---------------------------------------
 188:Middlewares/lvgl/src/widgets/../core/../misc/lv_color.h ****  * Macros for the current color depth
 189:Middlewares/lvgl/src/widgets/../core/../misc/lv_color.h ****  * to set/get values of the color channels
 190:Middlewares/lvgl/src/widgets/../core/../misc/lv_color.h ****  *------------------------------------------*/
 191:Middlewares/lvgl/src/widgets/../core/../misc/lv_color.h **** #define LV_COLOR_SET_R(c, v) LV_CONCAT(LV_COLOR_SET_R, LV_COLOR_DEPTH)(c, v)
 192:Middlewares/lvgl/src/widgets/../core/../misc/lv_color.h **** #define LV_COLOR_SET_G(c, v) LV_CONCAT(LV_COLOR_SET_G, LV_COLOR_DEPTH)(c, v)
 193:Middlewares/lvgl/src/widgets/../core/../misc/lv_color.h **** #define LV_COLOR_SET_B(c, v) LV_CONCAT(LV_COLOR_SET_B, LV_COLOR_DEPTH)(c, v)
 194:Middlewares/lvgl/src/widgets/../core/../misc/lv_color.h **** #define LV_COLOR_SET_A(c, v) LV_CONCAT(LV_COLOR_SET_A, LV_COLOR_DEPTH)(c, v)
 195:Middlewares/lvgl/src/widgets/../core/../misc/lv_color.h **** 
 196:Middlewares/lvgl/src/widgets/../core/../misc/lv_color.h **** #define LV_COLOR_GET_R(c) LV_CONCAT(LV_COLOR_GET_R, LV_COLOR_DEPTH)(c)
 197:Middlewares/lvgl/src/widgets/../core/../misc/lv_color.h **** #define LV_COLOR_GET_G(c) LV_CONCAT(LV_COLOR_GET_G, LV_COLOR_DEPTH)(c)
 198:Middlewares/lvgl/src/widgets/../core/../misc/lv_color.h **** #define LV_COLOR_GET_B(c) LV_CONCAT(LV_COLOR_GET_B, LV_COLOR_DEPTH)(c)
 199:Middlewares/lvgl/src/widgets/../core/../misc/lv_color.h **** #define LV_COLOR_GET_A(c) LV_CONCAT(LV_COLOR_GET_A, LV_COLOR_DEPTH)(c)
 200:Middlewares/lvgl/src/widgets/../core/../misc/lv_color.h **** 
 201:Middlewares/lvgl/src/widgets/../core/../misc/lv_color.h **** #define _LV_COLOR_ZERO_INITIALIZER LV_CONCAT(_LV_COLOR_ZERO_INITIALIZER, LV_COLOR_DEPTH)
 202:Middlewares/lvgl/src/widgets/../core/../misc/lv_color.h **** #define LV_COLOR_MAKE(r8, g8, b8) LV_CONCAT(LV_COLOR_MAKE, LV_COLOR_DEPTH)(r8, g8, b8)
 203:Middlewares/lvgl/src/widgets/../core/../misc/lv_color.h **** 
 204:Middlewares/lvgl/src/widgets/../core/../misc/lv_color.h **** #define LV_UDIV255(x) ((uint32_t)((uint32_t) (x) * 0x8081) >> 0x17)
 205:Middlewares/lvgl/src/widgets/../core/../misc/lv_color.h **** 
 206:Middlewares/lvgl/src/widgets/../core/../misc/lv_color.h **** /**********************
 207:Middlewares/lvgl/src/widgets/../core/../misc/lv_color.h ****  *      TYPEDEFS
 208:Middlewares/lvgl/src/widgets/../core/../misc/lv_color.h ****  **********************/
 209:Middlewares/lvgl/src/widgets/../core/../misc/lv_color.h **** 
 210:Middlewares/lvgl/src/widgets/../core/../misc/lv_color.h **** typedef union {
 211:Middlewares/lvgl/src/widgets/../core/../misc/lv_color.h ****     uint8_t full; /*must be declared first to set all bits of byte via initializer list*/
 212:Middlewares/lvgl/src/widgets/../core/../misc/lv_color.h ****     union {
 213:Middlewares/lvgl/src/widgets/../core/../misc/lv_color.h ****         uint8_t blue : 1;
 214:Middlewares/lvgl/src/widgets/../core/../misc/lv_color.h ****         uint8_t green : 1;
 215:Middlewares/lvgl/src/widgets/../core/../misc/lv_color.h ****         uint8_t red : 1;
 216:Middlewares/lvgl/src/widgets/../core/../misc/lv_color.h ****     } ch;
 217:Middlewares/lvgl/src/widgets/../core/../misc/lv_color.h **** } lv_color1_t;
 218:Middlewares/lvgl/src/widgets/../core/../misc/lv_color.h **** 
 219:Middlewares/lvgl/src/widgets/../core/../misc/lv_color.h **** typedef union {
 220:Middlewares/lvgl/src/widgets/../core/../misc/lv_color.h ****     struct {
 221:Middlewares/lvgl/src/widgets/../core/../misc/lv_color.h ****         uint8_t blue : 2;
 222:Middlewares/lvgl/src/widgets/../core/../misc/lv_color.h ****         uint8_t green : 3;
 223:Middlewares/lvgl/src/widgets/../core/../misc/lv_color.h ****         uint8_t red : 3;
 224:Middlewares/lvgl/src/widgets/../core/../misc/lv_color.h ****     } ch;
 225:Middlewares/lvgl/src/widgets/../core/../misc/lv_color.h ****     uint8_t full;
 226:Middlewares/lvgl/src/widgets/../core/../misc/lv_color.h **** } lv_color8_t;
 227:Middlewares/lvgl/src/widgets/../core/../misc/lv_color.h **** 
 228:Middlewares/lvgl/src/widgets/../core/../misc/lv_color.h **** typedef union {
 229:Middlewares/lvgl/src/widgets/../core/../misc/lv_color.h ****     struct {
 230:Middlewares/lvgl/src/widgets/../core/../misc/lv_color.h **** #if LV_COLOR_16_SWAP == 0
 231:Middlewares/lvgl/src/widgets/../core/../misc/lv_color.h ****         uint16_t blue : 5;
 232:Middlewares/lvgl/src/widgets/../core/../misc/lv_color.h ****         uint16_t green : 6;
 233:Middlewares/lvgl/src/widgets/../core/../misc/lv_color.h ****         uint16_t red : 5;
 234:Middlewares/lvgl/src/widgets/../core/../misc/lv_color.h **** #else
 235:Middlewares/lvgl/src/widgets/../core/../misc/lv_color.h ****         uint16_t green_h : 3;
ARM GAS  /tmp/ccdxwQT7.s 			page 27


 236:Middlewares/lvgl/src/widgets/../core/../misc/lv_color.h ****         uint16_t red : 5;
 237:Middlewares/lvgl/src/widgets/../core/../misc/lv_color.h ****         uint16_t blue : 5;
 238:Middlewares/lvgl/src/widgets/../core/../misc/lv_color.h ****         uint16_t green_l : 3;
 239:Middlewares/lvgl/src/widgets/../core/../misc/lv_color.h **** #endif
 240:Middlewares/lvgl/src/widgets/../core/../misc/lv_color.h ****     } ch;
 241:Middlewares/lvgl/src/widgets/../core/../misc/lv_color.h ****     uint16_t full;
 242:Middlewares/lvgl/src/widgets/../core/../misc/lv_color.h **** } lv_color16_t;
 243:Middlewares/lvgl/src/widgets/../core/../misc/lv_color.h **** 
 244:Middlewares/lvgl/src/widgets/../core/../misc/lv_color.h **** typedef union {
 245:Middlewares/lvgl/src/widgets/../core/../misc/lv_color.h ****     struct {
 246:Middlewares/lvgl/src/widgets/../core/../misc/lv_color.h ****         uint8_t blue;
 247:Middlewares/lvgl/src/widgets/../core/../misc/lv_color.h ****         uint8_t green;
 248:Middlewares/lvgl/src/widgets/../core/../misc/lv_color.h ****         uint8_t red;
 249:Middlewares/lvgl/src/widgets/../core/../misc/lv_color.h ****         uint8_t alpha;
 250:Middlewares/lvgl/src/widgets/../core/../misc/lv_color.h ****     } ch;
 251:Middlewares/lvgl/src/widgets/../core/../misc/lv_color.h ****     uint32_t full;
 252:Middlewares/lvgl/src/widgets/../core/../misc/lv_color.h **** } lv_color32_t;
 253:Middlewares/lvgl/src/widgets/../core/../misc/lv_color.h **** 
 254:Middlewares/lvgl/src/widgets/../core/../misc/lv_color.h **** typedef LV_CONCAT3(uint, LV_COLOR_SIZE, _t) lv_color_int_t;
 255:Middlewares/lvgl/src/widgets/../core/../misc/lv_color.h **** typedef LV_CONCAT3(lv_color, LV_COLOR_DEPTH, _t) lv_color_t;
 256:Middlewares/lvgl/src/widgets/../core/../misc/lv_color.h **** 
 257:Middlewares/lvgl/src/widgets/../core/../misc/lv_color.h **** typedef struct {
 258:Middlewares/lvgl/src/widgets/../core/../misc/lv_color.h ****     uint16_t h;
 259:Middlewares/lvgl/src/widgets/../core/../misc/lv_color.h ****     uint8_t s;
 260:Middlewares/lvgl/src/widgets/../core/../misc/lv_color.h ****     uint8_t v;
 261:Middlewares/lvgl/src/widgets/../core/../misc/lv_color.h **** } lv_color_hsv_t;
 262:Middlewares/lvgl/src/widgets/../core/../misc/lv_color.h **** 
 263:Middlewares/lvgl/src/widgets/../core/../misc/lv_color.h **** //! @cond Doxygen_Suppress
 264:Middlewares/lvgl/src/widgets/../core/../misc/lv_color.h **** /*No idea where the guard is required but else throws warnings in the docs*/
 265:Middlewares/lvgl/src/widgets/../core/../misc/lv_color.h **** typedef uint8_t lv_opa_t;
 266:Middlewares/lvgl/src/widgets/../core/../misc/lv_color.h **** //! @endcond
 267:Middlewares/lvgl/src/widgets/../core/../misc/lv_color.h **** 
 268:Middlewares/lvgl/src/widgets/../core/../misc/lv_color.h **** struct _lv_color_filter_dsc_t;
 269:Middlewares/lvgl/src/widgets/../core/../misc/lv_color.h **** 
 270:Middlewares/lvgl/src/widgets/../core/../misc/lv_color.h **** typedef lv_color_t (*lv_color_filter_cb_t)(const struct _lv_color_filter_dsc_t *, lv_color_t, lv_op
 271:Middlewares/lvgl/src/widgets/../core/../misc/lv_color.h **** 
 272:Middlewares/lvgl/src/widgets/../core/../misc/lv_color.h **** typedef struct _lv_color_filter_dsc_t {
 273:Middlewares/lvgl/src/widgets/../core/../misc/lv_color.h ****     lv_color_filter_cb_t filter_cb;
 274:Middlewares/lvgl/src/widgets/../core/../misc/lv_color.h ****     void * user_data;
 275:Middlewares/lvgl/src/widgets/../core/../misc/lv_color.h **** }lv_color_filter_dsc_t;
 276:Middlewares/lvgl/src/widgets/../core/../misc/lv_color.h **** 
 277:Middlewares/lvgl/src/widgets/../core/../misc/lv_color.h **** 
 278:Middlewares/lvgl/src/widgets/../core/../misc/lv_color.h **** typedef enum {
 279:Middlewares/lvgl/src/widgets/../core/../misc/lv_color.h ****     LV_PALETTE_RED,
 280:Middlewares/lvgl/src/widgets/../core/../misc/lv_color.h ****     LV_PALETTE_PINK,
 281:Middlewares/lvgl/src/widgets/../core/../misc/lv_color.h ****     LV_PALETTE_PURPLE,
 282:Middlewares/lvgl/src/widgets/../core/../misc/lv_color.h ****     LV_PALETTE_DEEP_PURPLE,
 283:Middlewares/lvgl/src/widgets/../core/../misc/lv_color.h ****     LV_PALETTE_INDIGO,
 284:Middlewares/lvgl/src/widgets/../core/../misc/lv_color.h ****     LV_PALETTE_BLUE,
 285:Middlewares/lvgl/src/widgets/../core/../misc/lv_color.h ****     LV_PALETTE_LIGHT_BLUE,
 286:Middlewares/lvgl/src/widgets/../core/../misc/lv_color.h ****     LV_PALETTE_CYAN,
 287:Middlewares/lvgl/src/widgets/../core/../misc/lv_color.h ****     LV_PALETTE_TEAL,
 288:Middlewares/lvgl/src/widgets/../core/../misc/lv_color.h ****     LV_PALETTE_GREEN,
 289:Middlewares/lvgl/src/widgets/../core/../misc/lv_color.h ****     LV_PALETTE_LIGHT_GREEN,
 290:Middlewares/lvgl/src/widgets/../core/../misc/lv_color.h ****     LV_PALETTE_LIME,
 291:Middlewares/lvgl/src/widgets/../core/../misc/lv_color.h ****     LV_PALETTE_YELLOW,
 292:Middlewares/lvgl/src/widgets/../core/../misc/lv_color.h ****     LV_PALETTE_AMBER,
ARM GAS  /tmp/ccdxwQT7.s 			page 28


 293:Middlewares/lvgl/src/widgets/../core/../misc/lv_color.h ****     LV_PALETTE_ORANGE,
 294:Middlewares/lvgl/src/widgets/../core/../misc/lv_color.h ****     LV_PALETTE_DEEP_ORANGE,
 295:Middlewares/lvgl/src/widgets/../core/../misc/lv_color.h ****     LV_PALETTE_BROWN,
 296:Middlewares/lvgl/src/widgets/../core/../misc/lv_color.h ****     LV_PALETTE_BLUE_GREY,
 297:Middlewares/lvgl/src/widgets/../core/../misc/lv_color.h ****     LV_PALETTE_GREY,
 298:Middlewares/lvgl/src/widgets/../core/../misc/lv_color.h ****     _LV_PALETTE_LAST,
 299:Middlewares/lvgl/src/widgets/../core/../misc/lv_color.h ****     LV_PALETTE_NONE = 0xff,
 300:Middlewares/lvgl/src/widgets/../core/../misc/lv_color.h **** }lv_palette_t;
 301:Middlewares/lvgl/src/widgets/../core/../misc/lv_color.h **** 
 302:Middlewares/lvgl/src/widgets/../core/../misc/lv_color.h **** /**********************
 303:Middlewares/lvgl/src/widgets/../core/../misc/lv_color.h ****  * GLOBAL PROTOTYPES
 304:Middlewares/lvgl/src/widgets/../core/../misc/lv_color.h ****  **********************/
 305:Middlewares/lvgl/src/widgets/../core/../misc/lv_color.h **** 
 306:Middlewares/lvgl/src/widgets/../core/../misc/lv_color.h **** /*In color conversations:
 307:Middlewares/lvgl/src/widgets/../core/../misc/lv_color.h ****  * - When converting to bigger color type the LSB weight of 1 LSB is calculated
 308:Middlewares/lvgl/src/widgets/../core/../misc/lv_color.h ****  *   E.g. 16 bit Red has 5 bits
 309:Middlewares/lvgl/src/widgets/../core/../misc/lv_color.h ****  *         8 bit Red has 3 bits
 310:Middlewares/lvgl/src/widgets/../core/../misc/lv_color.h ****  *        ----------------------
 311:Middlewares/lvgl/src/widgets/../core/../misc/lv_color.h ****  *        8 bit red LSB = (2^5 - 1) / (2^3 - 1) = 31 / 7 = 4
 312:Middlewares/lvgl/src/widgets/../core/../misc/lv_color.h ****  *
 313:Middlewares/lvgl/src/widgets/../core/../misc/lv_color.h ****  * - When calculating to smaller color type simply shift out the LSBs
 314:Middlewares/lvgl/src/widgets/../core/../misc/lv_color.h ****  *   E.g.  8 bit Red has 3 bits
 315:Middlewares/lvgl/src/widgets/../core/../misc/lv_color.h ****  *        16 bit Red has 5 bits
 316:Middlewares/lvgl/src/widgets/../core/../misc/lv_color.h ****  *        ----------------------
 317:Middlewares/lvgl/src/widgets/../core/../misc/lv_color.h ****  *         Shift right with 5 - 3 = 2
 318:Middlewares/lvgl/src/widgets/../core/../misc/lv_color.h ****  */
 319:Middlewares/lvgl/src/widgets/../core/../misc/lv_color.h **** static inline uint8_t lv_color_to1(lv_color_t color)
 320:Middlewares/lvgl/src/widgets/../core/../misc/lv_color.h **** {
 321:Middlewares/lvgl/src/widgets/../core/../misc/lv_color.h **** #if LV_COLOR_DEPTH == 1
 322:Middlewares/lvgl/src/widgets/../core/../misc/lv_color.h ****     return color.full;
 323:Middlewares/lvgl/src/widgets/../core/../misc/lv_color.h **** #elif LV_COLOR_DEPTH == 8
 324:Middlewares/lvgl/src/widgets/../core/../misc/lv_color.h ****     if((LV_COLOR_GET_R(color) & 0x4) || (LV_COLOR_GET_G(color) & 0x4) || (LV_COLOR_GET_B(color) & 0
 325:Middlewares/lvgl/src/widgets/../core/../misc/lv_color.h ****         return 1;
 326:Middlewares/lvgl/src/widgets/../core/../misc/lv_color.h ****     }
 327:Middlewares/lvgl/src/widgets/../core/../misc/lv_color.h ****     else {
 328:Middlewares/lvgl/src/widgets/../core/../misc/lv_color.h ****         return 0;
 329:Middlewares/lvgl/src/widgets/../core/../misc/lv_color.h ****     }
 330:Middlewares/lvgl/src/widgets/../core/../misc/lv_color.h **** #elif LV_COLOR_DEPTH == 16
 331:Middlewares/lvgl/src/widgets/../core/../misc/lv_color.h ****     if((LV_COLOR_GET_R(color) & 0x10) || (LV_COLOR_GET_G(color) & 0x20) || (LV_COLOR_GET_B(color) &
 332:Middlewares/lvgl/src/widgets/../core/../misc/lv_color.h ****         return 1;
 333:Middlewares/lvgl/src/widgets/../core/../misc/lv_color.h ****     }
 334:Middlewares/lvgl/src/widgets/../core/../misc/lv_color.h ****     else {
 335:Middlewares/lvgl/src/widgets/../core/../misc/lv_color.h ****         return 0;
 336:Middlewares/lvgl/src/widgets/../core/../misc/lv_color.h ****     }
 337:Middlewares/lvgl/src/widgets/../core/../misc/lv_color.h **** #elif LV_COLOR_DEPTH == 32
 338:Middlewares/lvgl/src/widgets/../core/../misc/lv_color.h ****     if((LV_COLOR_GET_R(color) & 0x80) || (LV_COLOR_GET_G(color) & 0x80) || (LV_COLOR_GET_B(color) &
 339:Middlewares/lvgl/src/widgets/../core/../misc/lv_color.h ****         return 1;
 340:Middlewares/lvgl/src/widgets/../core/../misc/lv_color.h ****     }
 341:Middlewares/lvgl/src/widgets/../core/../misc/lv_color.h ****     else {
 342:Middlewares/lvgl/src/widgets/../core/../misc/lv_color.h ****         return 0;
 343:Middlewares/lvgl/src/widgets/../core/../misc/lv_color.h ****     }
 344:Middlewares/lvgl/src/widgets/../core/../misc/lv_color.h **** #endif
 345:Middlewares/lvgl/src/widgets/../core/../misc/lv_color.h **** }
 346:Middlewares/lvgl/src/widgets/../core/../misc/lv_color.h **** 
 347:Middlewares/lvgl/src/widgets/../core/../misc/lv_color.h **** static inline uint8_t lv_color_to8(lv_color_t color)
 348:Middlewares/lvgl/src/widgets/../core/../misc/lv_color.h **** {
 349:Middlewares/lvgl/src/widgets/../core/../misc/lv_color.h **** #if LV_COLOR_DEPTH == 1
ARM GAS  /tmp/ccdxwQT7.s 			page 29


 350:Middlewares/lvgl/src/widgets/../core/../misc/lv_color.h ****     if(color.full == 0)
 351:Middlewares/lvgl/src/widgets/../core/../misc/lv_color.h ****         return 0;
 352:Middlewares/lvgl/src/widgets/../core/../misc/lv_color.h ****     else
 353:Middlewares/lvgl/src/widgets/../core/../misc/lv_color.h ****         return 0xFF;
 354:Middlewares/lvgl/src/widgets/../core/../misc/lv_color.h **** #elif LV_COLOR_DEPTH == 8
 355:Middlewares/lvgl/src/widgets/../core/../misc/lv_color.h ****     return color.full;
 356:Middlewares/lvgl/src/widgets/../core/../misc/lv_color.h **** #elif LV_COLOR_DEPTH == 16
 357:Middlewares/lvgl/src/widgets/../core/../misc/lv_color.h ****     lv_color8_t ret;
 358:Middlewares/lvgl/src/widgets/../core/../misc/lv_color.h ****     LV_COLOR_SET_R8(ret, LV_COLOR_GET_R(color) >> 2); /*5 - 3  = 2*/
 359:Middlewares/lvgl/src/widgets/../core/../misc/lv_color.h ****     LV_COLOR_SET_G8(ret, LV_COLOR_GET_G(color) >> 3); /*6 - 3  = 3*/
 360:Middlewares/lvgl/src/widgets/../core/../misc/lv_color.h ****     LV_COLOR_SET_B8(ret, LV_COLOR_GET_B(color) >> 3); /*5 - 2  = 3*/
 361:Middlewares/lvgl/src/widgets/../core/../misc/lv_color.h ****     return ret.full;
 362:Middlewares/lvgl/src/widgets/../core/../misc/lv_color.h **** #elif LV_COLOR_DEPTH == 32
 363:Middlewares/lvgl/src/widgets/../core/../misc/lv_color.h ****     lv_color8_t ret;
 364:Middlewares/lvgl/src/widgets/../core/../misc/lv_color.h ****     LV_COLOR_SET_R8(ret, LV_COLOR_GET_R(color) >> 5); /*8 - 3  = 5*/
 365:Middlewares/lvgl/src/widgets/../core/../misc/lv_color.h ****     LV_COLOR_SET_G8(ret, LV_COLOR_GET_G(color) >> 5); /*8 - 3  = 5*/
 366:Middlewares/lvgl/src/widgets/../core/../misc/lv_color.h ****     LV_COLOR_SET_B8(ret, LV_COLOR_GET_B(color) >> 6); /*8 - 2  = 6*/
 367:Middlewares/lvgl/src/widgets/../core/../misc/lv_color.h ****     return ret.full;
 368:Middlewares/lvgl/src/widgets/../core/../misc/lv_color.h **** #endif
 369:Middlewares/lvgl/src/widgets/../core/../misc/lv_color.h **** }
 370:Middlewares/lvgl/src/widgets/../core/../misc/lv_color.h **** 
 371:Middlewares/lvgl/src/widgets/../core/../misc/lv_color.h **** static inline uint16_t lv_color_to16(lv_color_t color)
 372:Middlewares/lvgl/src/widgets/../core/../misc/lv_color.h **** {
 373:Middlewares/lvgl/src/widgets/../core/../misc/lv_color.h **** #if LV_COLOR_DEPTH == 1
 374:Middlewares/lvgl/src/widgets/../core/../misc/lv_color.h ****     if(color.full == 0)
 375:Middlewares/lvgl/src/widgets/../core/../misc/lv_color.h ****         return 0;
 376:Middlewares/lvgl/src/widgets/../core/../misc/lv_color.h ****     else
 377:Middlewares/lvgl/src/widgets/../core/../misc/lv_color.h ****         return 0xFFFF;
 378:Middlewares/lvgl/src/widgets/../core/../misc/lv_color.h **** #elif LV_COLOR_DEPTH == 8
 379:Middlewares/lvgl/src/widgets/../core/../misc/lv_color.h ****     lv_color16_t ret;
 380:Middlewares/lvgl/src/widgets/../core/../misc/lv_color.h ****     LV_COLOR_SET_R16(ret, LV_COLOR_GET_R(color) * 4);  /*(2^5 - 1)/(2^3 - 1) = 31/7 = 4*/
 381:Middlewares/lvgl/src/widgets/../core/../misc/lv_color.h ****     LV_COLOR_SET_G16(ret, LV_COLOR_GET_G(color) * 9);  /*(2^6 - 1)/(2^3 - 1) = 63/7 = 9*/
 382:Middlewares/lvgl/src/widgets/../core/../misc/lv_color.h ****     LV_COLOR_SET_B16(ret, LV_COLOR_GET_B(color) * 10); /*(2^5 - 1)/(2^2 - 1) = 31/3 = 10*/
 383:Middlewares/lvgl/src/widgets/../core/../misc/lv_color.h ****     return ret.full;
 384:Middlewares/lvgl/src/widgets/../core/../misc/lv_color.h **** #elif LV_COLOR_DEPTH == 16
 385:Middlewares/lvgl/src/widgets/../core/../misc/lv_color.h ****     return color.full;
 386:Middlewares/lvgl/src/widgets/../core/../misc/lv_color.h **** #elif LV_COLOR_DEPTH == 32
 387:Middlewares/lvgl/src/widgets/../core/../misc/lv_color.h ****     lv_color16_t ret;
 388:Middlewares/lvgl/src/widgets/../core/../misc/lv_color.h ****     LV_COLOR_SET_R16(ret, LV_COLOR_GET_R(color) >> 3); /*8 - 5  = 3*/
 389:Middlewares/lvgl/src/widgets/../core/../misc/lv_color.h ****     LV_COLOR_SET_G16(ret, LV_COLOR_GET_G(color) >> 2); /*8 - 6  = 2*/
 390:Middlewares/lvgl/src/widgets/../core/../misc/lv_color.h ****     LV_COLOR_SET_B16(ret, LV_COLOR_GET_B(color) >> 3); /*8 - 5  = 3*/
 391:Middlewares/lvgl/src/widgets/../core/../misc/lv_color.h ****     return ret.full;
 392:Middlewares/lvgl/src/widgets/../core/../misc/lv_color.h **** #endif
 393:Middlewares/lvgl/src/widgets/../core/../misc/lv_color.h **** }
 394:Middlewares/lvgl/src/widgets/../core/../misc/lv_color.h **** 
 395:Middlewares/lvgl/src/widgets/../core/../misc/lv_color.h **** static inline uint32_t lv_color_to32(lv_color_t color)
 396:Middlewares/lvgl/src/widgets/../core/../misc/lv_color.h **** {
 397:Middlewares/lvgl/src/widgets/../core/../misc/lv_color.h **** #if LV_COLOR_DEPTH == 1
 398:Middlewares/lvgl/src/widgets/../core/../misc/lv_color.h ****     if(color.full == 0)
 399:Middlewares/lvgl/src/widgets/../core/../misc/lv_color.h ****         return 0xFF000000;
 400:Middlewares/lvgl/src/widgets/../core/../misc/lv_color.h ****     else
 401:Middlewares/lvgl/src/widgets/../core/../misc/lv_color.h ****         return 0xFFFFFFFF;
 402:Middlewares/lvgl/src/widgets/../core/../misc/lv_color.h **** #elif LV_COLOR_DEPTH == 8
 403:Middlewares/lvgl/src/widgets/../core/../misc/lv_color.h ****     lv_color32_t ret;
 404:Middlewares/lvgl/src/widgets/../core/../misc/lv_color.h ****     LV_COLOR_SET_R32(ret, LV_COLOR_GET_R(color) * 36); /*(2^8 - 1)/(2^3 - 1) = 255/7 = 36*/
 405:Middlewares/lvgl/src/widgets/../core/../misc/lv_color.h ****     LV_COLOR_SET_G32(ret, LV_COLOR_GET_G(color) * 36); /*(2^8 - 1)/(2^3 - 1) = 255/7 = 36*/
 406:Middlewares/lvgl/src/widgets/../core/../misc/lv_color.h ****     LV_COLOR_SET_B32(ret, LV_COLOR_GET_B(color) * 85); /*(2^8 - 1)/(2^2 - 1) = 255/3 = 85*/
ARM GAS  /tmp/ccdxwQT7.s 			page 30


 407:Middlewares/lvgl/src/widgets/../core/../misc/lv_color.h ****     LV_COLOR_SET_A32(ret, 0xFF);
 408:Middlewares/lvgl/src/widgets/../core/../misc/lv_color.h ****     return ret.full;
 409:Middlewares/lvgl/src/widgets/../core/../misc/lv_color.h **** #elif LV_COLOR_DEPTH == 16
 410:Middlewares/lvgl/src/widgets/../core/../misc/lv_color.h ****     /**
 411:Middlewares/lvgl/src/widgets/../core/../misc/lv_color.h ****      * The floating point math for conversion is:
 412:Middlewares/lvgl/src/widgets/../core/../misc/lv_color.h ****      *  valueto = valuefrom * ( (2^bitsto - 1) / (float)(2^bitsfrom - 1) )
 413:Middlewares/lvgl/src/widgets/../core/../misc/lv_color.h ****      * The faster integer math for conversion is:
 414:Middlewares/lvgl/src/widgets/../core/../misc/lv_color.h ****      *  valueto = ( valuefrom * multiplier + adder ) >> divisor
 415:Middlewares/lvgl/src/widgets/../core/../misc/lv_color.h ****      *   multiplier = FLOOR( ( (2^bitsto - 1) << divisor ) / (float)(2^bitsfrom - 1) )
 416:Middlewares/lvgl/src/widgets/../core/../misc/lv_color.h ****      *
 417:Middlewares/lvgl/src/widgets/../core/../misc/lv_color.h ****      * Find the first divisor where ( adder >> divisor ) <= 0
 418:Middlewares/lvgl/src/widgets/../core/../misc/lv_color.h ****      *
 419:Middlewares/lvgl/src/widgets/../core/../misc/lv_color.h ****      * 5-bit to 8-bit: ( 31 * multiplier + adder ) >> divisor = 255
 420:Middlewares/lvgl/src/widgets/../core/../misc/lv_color.h ****      * divisor  multiplier  adder  min (0)  max (31)
 421:Middlewares/lvgl/src/widgets/../core/../misc/lv_color.h ****      *       0           8      7        7       255
 422:Middlewares/lvgl/src/widgets/../core/../misc/lv_color.h ****      *       1          16     14        7       255
 423:Middlewares/lvgl/src/widgets/../core/../misc/lv_color.h ****      *       2          32     28        7       255
 424:Middlewares/lvgl/src/widgets/../core/../misc/lv_color.h ****      *       3          65     25        3       255
 425:Middlewares/lvgl/src/widgets/../core/../misc/lv_color.h ****      *       4         131     19        1       255
 426:Middlewares/lvgl/src/widgets/../core/../misc/lv_color.h ****      *       5         263      7        0       255
 427:Middlewares/lvgl/src/widgets/../core/../misc/lv_color.h ****      *
 428:Middlewares/lvgl/src/widgets/../core/../misc/lv_color.h ****      * 6-bit to 8-bit: 255 = ( 63 * multiplier + adder ) >> divisor
 429:Middlewares/lvgl/src/widgets/../core/../misc/lv_color.h ****      * divisor  multiplier  adder  min (0)  max (63)
 430:Middlewares/lvgl/src/widgets/../core/../misc/lv_color.h ****      *       0           4      3        3       255
 431:Middlewares/lvgl/src/widgets/../core/../misc/lv_color.h ****      *       1           8      6        3       255
 432:Middlewares/lvgl/src/widgets/../core/../misc/lv_color.h ****      *       2          16     12        3       255
 433:Middlewares/lvgl/src/widgets/../core/../misc/lv_color.h ****      *       3          32     24        3       255
 434:Middlewares/lvgl/src/widgets/../core/../misc/lv_color.h ****      *       4          64     48        3       255
 435:Middlewares/lvgl/src/widgets/../core/../misc/lv_color.h ****      *       5         129     33        1       255
 436:Middlewares/lvgl/src/widgets/../core/../misc/lv_color.h ****      *       6         259      3        0       255
 437:Middlewares/lvgl/src/widgets/../core/../misc/lv_color.h ****      */
 438:Middlewares/lvgl/src/widgets/../core/../misc/lv_color.h **** 
 439:Middlewares/lvgl/src/widgets/../core/../misc/lv_color.h ****     lv_color32_t ret;
 440:Middlewares/lvgl/src/widgets/../core/../misc/lv_color.h ****     LV_COLOR_SET_R32(ret, (LV_COLOR_GET_R(color) * 263 + 7) >> 5);
 441:Middlewares/lvgl/src/widgets/../core/../misc/lv_color.h ****     LV_COLOR_SET_G32(ret, (LV_COLOR_GET_G(color) * 259 + 3) >> 6);
 442:Middlewares/lvgl/src/widgets/../core/../misc/lv_color.h ****     LV_COLOR_SET_B32(ret, (LV_COLOR_GET_B(color) * 263 + 7) >> 5);
 443:Middlewares/lvgl/src/widgets/../core/../misc/lv_color.h ****     LV_COLOR_SET_A32(ret, 0xFF);
 444:Middlewares/lvgl/src/widgets/../core/../misc/lv_color.h ****     return ret.full;
 445:Middlewares/lvgl/src/widgets/../core/../misc/lv_color.h **** #elif LV_COLOR_DEPTH == 32
 446:Middlewares/lvgl/src/widgets/../core/../misc/lv_color.h ****     return color.full;
 447:Middlewares/lvgl/src/widgets/../core/../misc/lv_color.h **** #endif
 448:Middlewares/lvgl/src/widgets/../core/../misc/lv_color.h **** }
 449:Middlewares/lvgl/src/widgets/../core/../misc/lv_color.h **** 
 450:Middlewares/lvgl/src/widgets/../core/../misc/lv_color.h **** //! @cond Doxygen_Suppress
 451:Middlewares/lvgl/src/widgets/../core/../misc/lv_color.h **** 
 452:Middlewares/lvgl/src/widgets/../core/../misc/lv_color.h **** /**
 453:Middlewares/lvgl/src/widgets/../core/../misc/lv_color.h ****  * Mix two colors with a given ratio.
 454:Middlewares/lvgl/src/widgets/../core/../misc/lv_color.h ****  * @param c1 the first color to mix (usually the foreground)
 455:Middlewares/lvgl/src/widgets/../core/../misc/lv_color.h ****  * @param c2 the second color to mix (usually the background)
 456:Middlewares/lvgl/src/widgets/../core/../misc/lv_color.h ****  * @param mix The ratio of the colors. 0: full `c2`, 255: full `c1`, 127: half `c1` and half`c2`
 457:Middlewares/lvgl/src/widgets/../core/../misc/lv_color.h ****  * @return the mixed color
 458:Middlewares/lvgl/src/widgets/../core/../misc/lv_color.h ****  */
 459:Middlewares/lvgl/src/widgets/../core/../misc/lv_color.h **** LV_ATTRIBUTE_FAST_MEM static inline lv_color_t lv_color_mix(lv_color_t c1, lv_color_t c2, uint8_t m
 460:Middlewares/lvgl/src/widgets/../core/../misc/lv_color.h **** {
 461:Middlewares/lvgl/src/widgets/../core/../misc/lv_color.h ****     lv_color_t ret;
 462:Middlewares/lvgl/src/widgets/../core/../misc/lv_color.h **** #if LV_COLOR_DEPTH != 1
 463:Middlewares/lvgl/src/widgets/../core/../misc/lv_color.h ****     /*LV_COLOR_DEPTH == 8, 16 or 32*/
ARM GAS  /tmp/ccdxwQT7.s 			page 31


 464:Middlewares/lvgl/src/widgets/../core/../misc/lv_color.h ****     LV_COLOR_SET_R(ret, LV_UDIV255((uint16_t) LV_COLOR_GET_R(c1) * mix + LV_COLOR_GET_R(c2) *
 465:Middlewares/lvgl/src/widgets/../core/../misc/lv_color.h ****                                         (255 - mix) + LV_COLOR_MIX_ROUND_OFS));
 466:Middlewares/lvgl/src/widgets/../core/../misc/lv_color.h ****     LV_COLOR_SET_G(ret, LV_UDIV255((uint16_t) LV_COLOR_GET_G(c1) * mix + LV_COLOR_GET_G(c2) *
 467:Middlewares/lvgl/src/widgets/../core/../misc/lv_color.h ****                                         (255 - mix) + LV_COLOR_MIX_ROUND_OFS));
 468:Middlewares/lvgl/src/widgets/../core/../misc/lv_color.h ****     LV_COLOR_SET_B(ret, LV_UDIV255((uint16_t) LV_COLOR_GET_B(c1) * mix + LV_COLOR_GET_B(c2) *
 469:Middlewares/lvgl/src/widgets/../core/../misc/lv_color.h ****                                         (255 - mix) + LV_COLOR_MIX_ROUND_OFS));
 470:Middlewares/lvgl/src/widgets/../core/../misc/lv_color.h ****     LV_COLOR_SET_A(ret, 0xFF);
 471:Middlewares/lvgl/src/widgets/../core/../misc/lv_color.h **** #else
 472:Middlewares/lvgl/src/widgets/../core/../misc/lv_color.h ****     /*LV_COLOR_DEPTH == 1*/
 473:Middlewares/lvgl/src/widgets/../core/../misc/lv_color.h ****     ret.full = mix > LV_OPA_50 ? c1.full : c2.full;
 474:Middlewares/lvgl/src/widgets/../core/../misc/lv_color.h **** #endif
 475:Middlewares/lvgl/src/widgets/../core/../misc/lv_color.h **** 
 476:Middlewares/lvgl/src/widgets/../core/../misc/lv_color.h ****     return ret;
 477:Middlewares/lvgl/src/widgets/../core/../misc/lv_color.h **** }
 478:Middlewares/lvgl/src/widgets/../core/../misc/lv_color.h **** 
 479:Middlewares/lvgl/src/widgets/../core/../misc/lv_color.h **** LV_ATTRIBUTE_FAST_MEM static inline void lv_color_premult(lv_color_t c, uint8_t mix, uint16_t * out
 480:Middlewares/lvgl/src/widgets/../core/../misc/lv_color.h **** {
 481:Middlewares/lvgl/src/widgets/../core/../misc/lv_color.h **** #if LV_COLOR_DEPTH != 1
 482:Middlewares/lvgl/src/widgets/../core/../misc/lv_color.h ****     out[0] = (uint16_t) LV_COLOR_GET_R(c) * mix;
 483:Middlewares/lvgl/src/widgets/../core/../misc/lv_color.h ****     out[1] = (uint16_t) LV_COLOR_GET_G(c) * mix;
 484:Middlewares/lvgl/src/widgets/../core/../misc/lv_color.h ****     out[2] = (uint16_t) LV_COLOR_GET_B(c) * mix;
 485:Middlewares/lvgl/src/widgets/../core/../misc/lv_color.h **** #else
 486:Middlewares/lvgl/src/widgets/../core/../misc/lv_color.h ****     (void) mix;
 487:Middlewares/lvgl/src/widgets/../core/../misc/lv_color.h ****     /*Pre-multiplication can't be used with 1 bpp*/
 488:Middlewares/lvgl/src/widgets/../core/../misc/lv_color.h ****     out[0] = LV_COLOR_GET_R(c);
 489:Middlewares/lvgl/src/widgets/../core/../misc/lv_color.h ****     out[1] = LV_COLOR_GET_G(c);
 490:Middlewares/lvgl/src/widgets/../core/../misc/lv_color.h ****     out[2] = LV_COLOR_GET_B(c);
 491:Middlewares/lvgl/src/widgets/../core/../misc/lv_color.h **** #endif
 492:Middlewares/lvgl/src/widgets/../core/../misc/lv_color.h **** 
 493:Middlewares/lvgl/src/widgets/../core/../misc/lv_color.h **** }
 494:Middlewares/lvgl/src/widgets/../core/../misc/lv_color.h **** 
 495:Middlewares/lvgl/src/widgets/../core/../misc/lv_color.h **** /**
 496:Middlewares/lvgl/src/widgets/../core/../misc/lv_color.h ****  * Mix two colors with a given ratio. It runs faster then `lv_color_mix` but requires some pre comp
 497:Middlewares/lvgl/src/widgets/../core/../misc/lv_color.h ****  * @param premult_c1 The first color. Should be preprocessed with `lv_color_premult(c1)`
 498:Middlewares/lvgl/src/widgets/../core/../misc/lv_color.h ****  * @param c2 The second color. As it is no pre computation required on it
 499:Middlewares/lvgl/src/widgets/../core/../misc/lv_color.h ****  * @param mix The ratio of the colors. 0: full `c1`, 255: full `c2`, 127: half `c1` and half `c2`.
 500:Middlewares/lvgl/src/widgets/../core/../misc/lv_color.h ****  *            Should be modified like mix = `255 - mix`
 501:Middlewares/lvgl/src/widgets/../core/../misc/lv_color.h ****  * @return the mixed color
 502:Middlewares/lvgl/src/widgets/../core/../misc/lv_color.h ****  * @note 255 won't give clearly `c1`.
 503:Middlewares/lvgl/src/widgets/../core/../misc/lv_color.h ****  */
 504:Middlewares/lvgl/src/widgets/../core/../misc/lv_color.h **** LV_ATTRIBUTE_FAST_MEM static inline lv_color_t lv_color_mix_premult(uint16_t * premult_c1, lv_color
 505:Middlewares/lvgl/src/widgets/../core/../misc/lv_color.h **** {
 506:Middlewares/lvgl/src/widgets/../core/../misc/lv_color.h ****     lv_color_t ret;
 507:Middlewares/lvgl/src/widgets/../core/../misc/lv_color.h **** #if LV_COLOR_DEPTH != 1
 508:Middlewares/lvgl/src/widgets/../core/../misc/lv_color.h ****     /*LV_COLOR_DEPTH == 8, 16 or 32*/
 509:Middlewares/lvgl/src/widgets/../core/../misc/lv_color.h ****     LV_COLOR_SET_R(ret, LV_UDIV255(premult_c1[0] + LV_COLOR_GET_R(c2) * mix + LV_COLOR_MIX_ROUND_OF
 510:Middlewares/lvgl/src/widgets/../core/../misc/lv_color.h ****     LV_COLOR_SET_G(ret, LV_UDIV255(premult_c1[1] + LV_COLOR_GET_G(c2) * mix + LV_COLOR_MIX_ROUND_OF
 511:Middlewares/lvgl/src/widgets/../core/../misc/lv_color.h ****     LV_COLOR_SET_B(ret, LV_UDIV255(premult_c1[2] + LV_COLOR_GET_B(c2) * mix + LV_COLOR_MIX_ROUND_OF
 512:Middlewares/lvgl/src/widgets/../core/../misc/lv_color.h ****     LV_COLOR_SET_A(ret, 0xFF);
 513:Middlewares/lvgl/src/widgets/../core/../misc/lv_color.h **** #else
 514:Middlewares/lvgl/src/widgets/../core/../misc/lv_color.h ****     /*LV_COLOR_DEPTH == 1*/
 515:Middlewares/lvgl/src/widgets/../core/../misc/lv_color.h ****     /*Restore color1*/
 516:Middlewares/lvgl/src/widgets/../core/../misc/lv_color.h ****     lv_color_t c1;
 517:Middlewares/lvgl/src/widgets/../core/../misc/lv_color.h ****     LV_COLOR_SET_R(c1, premult_c1[0]);
 518:Middlewares/lvgl/src/widgets/../core/../misc/lv_color.h ****     LV_COLOR_SET_G(c1, premult_c1[1]);
 519:Middlewares/lvgl/src/widgets/../core/../misc/lv_color.h ****     LV_COLOR_SET_B(c1, premult_c1[2]);
 520:Middlewares/lvgl/src/widgets/../core/../misc/lv_color.h ****     ret.full = mix > LV_OPA_50 ? c2.full : c1.full;
ARM GAS  /tmp/ccdxwQT7.s 			page 32


 521:Middlewares/lvgl/src/widgets/../core/../misc/lv_color.h **** #endif
 522:Middlewares/lvgl/src/widgets/../core/../misc/lv_color.h **** 
 523:Middlewares/lvgl/src/widgets/../core/../misc/lv_color.h ****     return ret;
 524:Middlewares/lvgl/src/widgets/../core/../misc/lv_color.h **** }
 525:Middlewares/lvgl/src/widgets/../core/../misc/lv_color.h **** 
 526:Middlewares/lvgl/src/widgets/../core/../misc/lv_color.h **** /**
 527:Middlewares/lvgl/src/widgets/../core/../misc/lv_color.h ****  * Mix two colors. Both color can have alpha value.
 528:Middlewares/lvgl/src/widgets/../core/../misc/lv_color.h ****  * @param bg_color background color
 529:Middlewares/lvgl/src/widgets/../core/../misc/lv_color.h ****  * @param bg_opa alpha of the background color
 530:Middlewares/lvgl/src/widgets/../core/../misc/lv_color.h ****  * @param fg_color foreground color
 531:Middlewares/lvgl/src/widgets/../core/../misc/lv_color.h ****  * @param fg_opa alpha of the foreground color
 532:Middlewares/lvgl/src/widgets/../core/../misc/lv_color.h ****  * @param res_color the result color
 533:Middlewares/lvgl/src/widgets/../core/../misc/lv_color.h ****  * @param res_opa the result opacity
 534:Middlewares/lvgl/src/widgets/../core/../misc/lv_color.h ****  */
 535:Middlewares/lvgl/src/widgets/../core/../misc/lv_color.h **** LV_ATTRIBUTE_FAST_MEM static inline void lv_color_mix_with_alpha(lv_color_t bg_color, lv_opa_t bg_o
 536:Middlewares/lvgl/src/widgets/../core/../misc/lv_color.h ****                                                                  lv_color_t fg_color, lv_opa_t fg_o
 537:Middlewares/lvgl/src/widgets/../core/../misc/lv_color.h ****                                                                  lv_color_t * res_color, lv_opa_t *
 538:Middlewares/lvgl/src/widgets/../core/../misc/lv_color.h **** {
 539:Middlewares/lvgl/src/widgets/../core/../misc/lv_color.h ****     /*Pick the foreground if it's fully opaque or the Background is fully transparent*/
 540:Middlewares/lvgl/src/widgets/../core/../misc/lv_color.h ****     if(fg_opa >= LV_OPA_MAX || bg_opa <= LV_OPA_MIN) {
 541:Middlewares/lvgl/src/widgets/../core/../misc/lv_color.h ****         res_color->full = fg_color.full;
 542:Middlewares/lvgl/src/widgets/../core/../misc/lv_color.h ****         *res_opa = fg_opa;
 543:Middlewares/lvgl/src/widgets/../core/../misc/lv_color.h ****     }
 544:Middlewares/lvgl/src/widgets/../core/../misc/lv_color.h ****     /*Transparent foreground: use the Background*/
 545:Middlewares/lvgl/src/widgets/../core/../misc/lv_color.h ****     else if(fg_opa <= LV_OPA_MIN) {
 546:Middlewares/lvgl/src/widgets/../core/../misc/lv_color.h ****         res_color->full = bg_color.full;
 547:Middlewares/lvgl/src/widgets/../core/../misc/lv_color.h ****         *res_opa = bg_opa;
 548:Middlewares/lvgl/src/widgets/../core/../misc/lv_color.h ****     }
 549:Middlewares/lvgl/src/widgets/../core/../misc/lv_color.h ****     /*Opaque background: use simple mix*/
 550:Middlewares/lvgl/src/widgets/../core/../misc/lv_color.h ****     else if(bg_opa >= LV_OPA_MAX) {
 551:Middlewares/lvgl/src/widgets/../core/../misc/lv_color.h ****         *res_color = lv_color_mix(fg_color, bg_color, fg_opa);
 552:Middlewares/lvgl/src/widgets/../core/../misc/lv_color.h ****         *res_opa = LV_OPA_COVER;
 553:Middlewares/lvgl/src/widgets/../core/../misc/lv_color.h ****     }
 554:Middlewares/lvgl/src/widgets/../core/../misc/lv_color.h ****     /*Both colors have alpha. Expensive calculation need to be applied*/
 555:Middlewares/lvgl/src/widgets/../core/../misc/lv_color.h ****     else {
 556:Middlewares/lvgl/src/widgets/../core/../misc/lv_color.h ****         /*Save the parameters and the result. If they will be asked again don't compute again*/
 557:Middlewares/lvgl/src/widgets/../core/../misc/lv_color.h ****         static lv_opa_t fg_opa_save     = 0;
 558:Middlewares/lvgl/src/widgets/../core/../misc/lv_color.h ****         static lv_opa_t bg_opa_save     = 0;
 559:Middlewares/lvgl/src/widgets/../core/../misc/lv_color.h ****         static lv_color_t fg_color_save = _LV_COLOR_ZERO_INITIALIZER;
 560:Middlewares/lvgl/src/widgets/../core/../misc/lv_color.h ****         static lv_color_t bg_color_save = _LV_COLOR_ZERO_INITIALIZER;
 561:Middlewares/lvgl/src/widgets/../core/../misc/lv_color.h ****         static lv_color_t res_color_saved = _LV_COLOR_ZERO_INITIALIZER;
 562:Middlewares/lvgl/src/widgets/../core/../misc/lv_color.h ****         static lv_opa_t res_opa_saved = 0;
 563:Middlewares/lvgl/src/widgets/../core/../misc/lv_color.h **** 
 564:Middlewares/lvgl/src/widgets/../core/../misc/lv_color.h ****         if(fg_opa != fg_opa_save || bg_opa != bg_opa_save || fg_color.full != fg_color_save.full ||
 565:Middlewares/lvgl/src/widgets/../core/../misc/lv_color.h ****            bg_color.full != bg_color_save.full) {
 566:Middlewares/lvgl/src/widgets/../core/../misc/lv_color.h ****             fg_opa_save        = fg_opa;
 567:Middlewares/lvgl/src/widgets/../core/../misc/lv_color.h ****             bg_opa_save        = bg_opa;
 568:Middlewares/lvgl/src/widgets/../core/../misc/lv_color.h ****             fg_color_save.full = fg_color.full;
 569:Middlewares/lvgl/src/widgets/../core/../misc/lv_color.h ****             bg_color_save.full = bg_color.full;
 570:Middlewares/lvgl/src/widgets/../core/../misc/lv_color.h ****             /*Info:
 571:Middlewares/lvgl/src/widgets/../core/../misc/lv_color.h ****              * https://en.wikipedia.org/wiki/Alpha_compositing#Analytical_derivation_of_the_over_op
 572:Middlewares/lvgl/src/widgets/../core/../misc/lv_color.h ****             res_opa_saved = 255 - ((uint16_t)((uint16_t)(255 - fg_opa) * (255 - bg_opa)) >> 8);
 573:Middlewares/lvgl/src/widgets/../core/../misc/lv_color.h ****             if(res_opa_saved == 0) {
 574:Middlewares/lvgl/src/widgets/../core/../misc/lv_color.h ****                 while(1)
 575:Middlewares/lvgl/src/widgets/../core/../misc/lv_color.h ****                     ;
 576:Middlewares/lvgl/src/widgets/../core/../misc/lv_color.h ****             }
 577:Middlewares/lvgl/src/widgets/../core/../misc/lv_color.h ****             lv_opa_t ratio = (uint16_t)((uint16_t)fg_opa * 255) / res_opa_saved;
ARM GAS  /tmp/ccdxwQT7.s 			page 33


 578:Middlewares/lvgl/src/widgets/../core/../misc/lv_color.h ****             res_color_saved = lv_color_mix(fg_color, bg_color, ratio);
 579:Middlewares/lvgl/src/widgets/../core/../misc/lv_color.h **** 
 580:Middlewares/lvgl/src/widgets/../core/../misc/lv_color.h ****         }
 581:Middlewares/lvgl/src/widgets/../core/../misc/lv_color.h **** 
 582:Middlewares/lvgl/src/widgets/../core/../misc/lv_color.h ****         res_color->full = res_color_saved.full;
 583:Middlewares/lvgl/src/widgets/../core/../misc/lv_color.h ****         *res_opa = res_opa_saved;
 584:Middlewares/lvgl/src/widgets/../core/../misc/lv_color.h ****     }
 585:Middlewares/lvgl/src/widgets/../core/../misc/lv_color.h **** }
 586:Middlewares/lvgl/src/widgets/../core/../misc/lv_color.h **** 
 587:Middlewares/lvgl/src/widgets/../core/../misc/lv_color.h **** //! @endcond
 588:Middlewares/lvgl/src/widgets/../core/../misc/lv_color.h **** 
 589:Middlewares/lvgl/src/widgets/../core/../misc/lv_color.h **** /**
 590:Middlewares/lvgl/src/widgets/../core/../misc/lv_color.h ****  * Get the brightness of a color
 591:Middlewares/lvgl/src/widgets/../core/../misc/lv_color.h ****  * @param color a color
 592:Middlewares/lvgl/src/widgets/../core/../misc/lv_color.h ****  * @return the brightness [0..255]
 593:Middlewares/lvgl/src/widgets/../core/../misc/lv_color.h ****  */
 594:Middlewares/lvgl/src/widgets/../core/../misc/lv_color.h **** static inline uint8_t lv_color_brightness(lv_color_t color)
 215              		.loc 2 594 23 view .LVU51
 216              	.LBB70:
 595:Middlewares/lvgl/src/widgets/../core/../misc/lv_color.h **** {
 596:Middlewares/lvgl/src/widgets/../core/../misc/lv_color.h ****     lv_color32_t c32;
 217              		.loc 2 596 5 view .LVU52
 597:Middlewares/lvgl/src/widgets/../core/../misc/lv_color.h ****     c32.full        = lv_color_to32(color);
 218              		.loc 2 597 5 view .LVU53
 219              	.LBB71:
 220              	.LBI71:
 395:Middlewares/lvgl/src/widgets/../core/../misc/lv_color.h **** {
 221              		.loc 2 395 24 view .LVU54
 222              	.LBB72:
 439:Middlewares/lvgl/src/widgets/../core/../misc/lv_color.h ****     LV_COLOR_SET_R32(ret, (LV_COLOR_GET_R(color) * 263 + 7) >> 5);
 223              		.loc 2 439 5 view .LVU55
 440:Middlewares/lvgl/src/widgets/../core/../misc/lv_color.h ****     LV_COLOR_SET_G32(ret, (LV_COLOR_GET_G(color) * 259 + 3) >> 6);
 224              		.loc 2 440 5 view .LVU56
 225 0020 C3F3C422 		ubfx	r2, r3, #11, #5
 226 0024 02EB4211 		add	r1, r2, r2, lsl #5
 227 0028 C2EBC102 		rsb	r2, r2, r1, lsl #3
 228 002c 0732     		adds	r2, r2, #7
 229 002e C2F34712 		ubfx	r2, r2, #5, #8
 230 0032 0021     		movs	r1, #0
 231              	.LVL9:
 440:Middlewares/lvgl/src/widgets/../core/../misc/lv_color.h ****     LV_COLOR_SET_G32(ret, (LV_COLOR_GET_G(color) * 259 + 3) >> 6);
 232              		.loc 2 440 5 is_stmt 0 view .LVU57
 233 0034 62F31741 		bfi	r1, r2, #16, #8
 234              	.LVL10:
 441:Middlewares/lvgl/src/widgets/../core/../misc/lv_color.h ****     LV_COLOR_SET_B32(ret, (LV_COLOR_GET_B(color) * 263 + 7) >> 5);
 235              		.loc 2 441 5 is_stmt 1 view .LVU58
 236 0038 C3F34512 		ubfx	r2, r3, #5, #6
 237 003c 02EBC210 		add	r0, r2, r2, lsl #7
 238              	.LVL11:
 441:Middlewares/lvgl/src/widgets/../core/../misc/lv_color.h ****     LV_COLOR_SET_B32(ret, (LV_COLOR_GET_B(color) * 263 + 7) >> 5);
 239              		.loc 2 441 5 is_stmt 0 view .LVU59
 240 0040 02EB4002 		add	r2, r2, r0, lsl #1
 241 0044 0332     		adds	r2, r2, #3
 242 0046 C2F38712 		ubfx	r2, r2, #6, #8
 243 004a 62F30F21 		bfi	r1, r2, #8, #8
 442:Middlewares/lvgl/src/widgets/../core/../misc/lv_color.h ****     LV_COLOR_SET_A32(ret, 0xFF);
 244              		.loc 2 442 5 is_stmt 1 view .LVU60
ARM GAS  /tmp/ccdxwQT7.s 			page 34


 245 004e 03F01F02 		and	r2, r3, #31
 246 0052 02EB4213 		add	r3, r2, r2, lsl #5
 247              	.LVL12:
 442:Middlewares/lvgl/src/widgets/../core/../misc/lv_color.h ****     LV_COLOR_SET_A32(ret, 0xFF);
 248              		.loc 2 442 5 is_stmt 0 view .LVU61
 249 0056 C2EBC302 		rsb	r2, r2, r3, lsl #3
 250 005a 0732     		adds	r2, r2, #7
 251 005c C2F34712 		ubfx	r2, r2, #5, #8
 252 0060 62F30701 		bfi	r1, r2, #0, #8
 443:Middlewares/lvgl/src/widgets/../core/../misc/lv_color.h ****     return ret.full;
 253              		.loc 2 443 5 is_stmt 1 view .LVU62
 254 0064 41F07F41 		orr	r1, r1, #-16777216
 255              	.LVL13:
 444:Middlewares/lvgl/src/widgets/../core/../misc/lv_color.h **** #elif LV_COLOR_DEPTH == 32
 256              		.loc 2 444 5 view .LVU63
 257              	.LBE72:
 258              	.LBE71:
 598:Middlewares/lvgl/src/widgets/../core/../misc/lv_color.h ****     uint16_t bright = (uint16_t)(3u * LV_COLOR_GET_R32(c32) + LV_COLOR_GET_B32(c32) + 4u * LV_COLOR
 259              		.loc 2 598 5 view .LVU64
 260              		.loc 2 598 39 is_stmt 0 view .LVU65
 261 0068 C1F3074C 		ubfx	ip, r1, #16, #8
 262              		.loc 2 598 37 view .LVU66
 263 006c 0CEB4C0C 		add	ip, ip, ip, lsl #1
 264              		.loc 2 598 92 view .LVU67
 265 0070 C1F30723 		ubfx	r3, r1, #8, #8
 266              		.loc 2 598 85 view .LVU68
 267 0074 0CEB8303 		add	r3, ip, r3, lsl #2
 268              		.loc 2 598 63 view .LVU69
 269 0078 C9B2     		uxtb	r1, r1
 270              	.LVL14:
 271              		.loc 2 598 14 view .LVU70
 272 007a 11FA83F3 		uxtah	r3, r1, r3
 273              	.LVL15:
 599:Middlewares/lvgl/src/widgets/../core/../misc/lv_color.h ****     return (uint8_t)(bright >> 3);
 274              		.loc 2 599 5 is_stmt 1 view .LVU71
 275              		.loc 2 599 12 is_stmt 0 view .LVU72
 276 007e C3F3CC08 		ubfx	r8, r3, #3, #13
 277 0082 C3F3C703 		ubfx	r3, r3, #3, #8
 278              	.LVL16:
 279              		.loc 2 599 12 view .LVU73
 280              	.LBE70:
 281              	.LBE69:
1018:Middlewares/lvgl/src/widgets/lv_canvas.c ****     if(opa < LV_OPA_MAX) {
 282              		.loc 1 1018 5 is_stmt 1 view .LVU74
 283              		.loc 1 1018 7 is_stmt 0 view .LVU75
 284 0086 FC2F     		cmp	r7, #252
 285 0088 06D9     		bls	.L17
 286              	.L15:
1019:Middlewares/lvgl/src/widgets/lv_canvas.c ****         uint8_t bg = lv_img_buf_get_px_alpha(d, x, y);
1020:Middlewares/lvgl/src/widgets/lv_canvas.c ****         br = (uint16_t)((uint16_t)br * opa + (bg * (255 - opa))) >> 8;
1021:Middlewares/lvgl/src/widgets/lv_canvas.c ****     }
1022:Middlewares/lvgl/src/widgets/lv_canvas.c **** 
1023:Middlewares/lvgl/src/widgets/lv_canvas.c ****     lv_img_buf_set_px_alpha(d, x, y, br);
 287              		.loc 1 1023 5 is_stmt 1 view .LVU76
 288 008a 3246     		mov	r2, r6
 289 008c 2946     		mov	r1, r5
 290 008e 2046     		mov	r0, r4
ARM GAS  /tmp/ccdxwQT7.s 			page 35


 291 0090 FFF7FEFF 		bl	lv_img_buf_set_px_alpha
 292              	.LVL17:
1024:Middlewares/lvgl/src/widgets/lv_canvas.c **** }
 293              		.loc 1 1024 1 is_stmt 0 view .LVU77
 294 0094 BDE8F081 		pop	{r4, r5, r6, r7, r8, pc}
 295              	.LVL18:
 296              	.L17:
 297              	.LBB73:
1019:Middlewares/lvgl/src/widgets/lv_canvas.c ****         uint8_t bg = lv_img_buf_get_px_alpha(d, x, y);
 298              		.loc 1 1019 9 is_stmt 1 view .LVU78
1019:Middlewares/lvgl/src/widgets/lv_canvas.c ****         uint8_t bg = lv_img_buf_get_px_alpha(d, x, y);
 299              		.loc 1 1019 22 is_stmt 0 view .LVU79
 300 0098 3246     		mov	r2, r6
 301 009a 2946     		mov	r1, r5
 302 009c 2046     		mov	r0, r4
 303 009e FFF7FEFF 		bl	lv_img_buf_get_px_alpha
 304              	.LVL19:
1020:Middlewares/lvgl/src/widgets/lv_canvas.c ****     }
 305              		.loc 1 1020 9 is_stmt 1 view .LVU80
1020:Middlewares/lvgl/src/widgets/lv_canvas.c ****     }
 306              		.loc 1 1020 38 is_stmt 0 view .LVU81
 307 00a2 5FFA88F8 		uxtb	r8, r8
1020:Middlewares/lvgl/src/widgets/lv_canvas.c ****     }
 308              		.loc 1 1020 57 view .LVU82
 309 00a6 C7F1FF03 		rsb	r3, r7, #255
1020:Middlewares/lvgl/src/widgets/lv_canvas.c ****     }
 310              		.loc 1 1020 14 view .LVU83
 311 00aa 10FB03F3 		smulbb	r3, r0, r3
 312 00ae 08FB0733 		mla	r3, r8, r7, r3
1020:Middlewares/lvgl/src/widgets/lv_canvas.c ****     }
 313              		.loc 1 1020 12 view .LVU84
 314 00b2 C3F30723 		ubfx	r3, r3, #8, #8
 315              	.LVL20:
1020:Middlewares/lvgl/src/widgets/lv_canvas.c ****     }
 316              		.loc 1 1020 12 view .LVU85
 317 00b6 E8E7     		b	.L15
 318              	.LBE73:
 319              		.cfi_endproc
 320              	.LFE170:
 322              		.section	.text.set_px_cb_alpha8,"ax",%progbits
 323              		.align	1
 324              		.syntax unified
 325              		.thumb
 326              		.thumb_func
 328              	set_px_cb_alpha8:
 329              	.LVL21:
 330              	.LFB169:
1000:Middlewares/lvgl/src/widgets/lv_canvas.c ****     (void) disp_drv; /*Unused*/
 331              		.loc 1 1000 1 is_stmt 1 view -0
 332              		.cfi_startproc
 333              		@ args = 12, pretend = 0, frame = 16
 334              		@ frame_needed = 0, uses_anonymous_args = 0
1000:Middlewares/lvgl/src/widgets/lv_canvas.c ****     (void) disp_drv; /*Unused*/
 335              		.loc 1 1000 1 is_stmt 0 view .LVU87
 336 0000 00B5     		push	{lr}
 337              	.LCFI2:
 338              		.cfi_def_cfa_offset 4
ARM GAS  /tmp/ccdxwQT7.s 			page 36


 339              		.cfi_offset 14, -4
 340 0002 87B0     		sub	sp, sp, #28
 341              	.LCFI3:
 342              		.cfi_def_cfa_offset 32
 343 0004 0846     		mov	r0, r1
 344              	.LVL22:
1000:Middlewares/lvgl/src/widgets/lv_canvas.c ****     (void) disp_drv; /*Unused*/
 345              		.loc 1 1000 1 view .LVU88
 346 0006 1946     		mov	r1, r3
 347              	.LVL23:
1000:Middlewares/lvgl/src/widgets/lv_canvas.c ****     (void) disp_drv; /*Unused*/
 348              		.loc 1 1000 1 view .LVU89
 349 0008 9DF82830 		ldrb	r3, [sp, #40]	@ zero_extendqisi2
 350              	.LVL24:
1001:Middlewares/lvgl/src/widgets/lv_canvas.c **** 
 351              		.loc 1 1001 5 is_stmt 1 view .LVU90
1003:Middlewares/lvgl/src/widgets/lv_canvas.c ****     lv_img_dsc_t d;
 352              		.loc 1 1003 5 view .LVU91
1003:Middlewares/lvgl/src/widgets/lv_canvas.c ****     lv_img_dsc_t d;
 353              		.loc 1 1003 7 is_stmt 0 view .LVU92
 354 000c 022B     		cmp	r3, #2
 355 000e 02D8     		bhi	.L22
 356              	.LVL25:
 357              	.L18:
1010:Middlewares/lvgl/src/widgets/lv_canvas.c **** 
 358              		.loc 1 1010 1 view .LVU93
 359 0010 07B0     		add	sp, sp, #28
 360              	.LCFI4:
 361              		.cfi_remember_state
 362              		.cfi_def_cfa_offset 4
 363              		@ sp needed
 364 0012 5DF804FB 		ldr	pc, [sp], #4
 365              	.LVL26:
 366              	.L22:
 367              	.LCFI5:
 368              		.cfi_restore_state
1004:Middlewares/lvgl/src/widgets/lv_canvas.c ****     d.data = buf;
 369              		.loc 1 1004 5 is_stmt 1 view .LVU94
1005:Middlewares/lvgl/src/widgets/lv_canvas.c ****     d.header.w = buf_w;
 370              		.loc 1 1005 5 view .LVU95
1005:Middlewares/lvgl/src/widgets/lv_canvas.c ****     d.header.w = buf_w;
 371              		.loc 1 1005 12 is_stmt 0 view .LVU96
 372 0016 0590     		str	r0, [sp, #20]
1006:Middlewares/lvgl/src/widgets/lv_canvas.c ****     d.header.cf = LV_IMG_CF_ALPHA_8BIT;
 373              		.loc 1 1006 5 is_stmt 1 view .LVU97
1006:Middlewares/lvgl/src/widgets/lv_canvas.c ****     d.header.cf = LV_IMG_CF_ALPHA_8BIT;
 374              		.loc 1 1006 16 is_stmt 0 view .LVU98
 375 0018 0398     		ldr	r0, [sp, #12]
 376              	.LVL27:
1006:Middlewares/lvgl/src/widgets/lv_canvas.c ****     d.header.cf = LV_IMG_CF_ALPHA_8BIT;
 377              		.loc 1 1006 16 view .LVU99
 378 001a 62F39420 		bfi	r0, r2, #10, #11
 379 001e 0390     		str	r0, [sp, #12]
1007:Middlewares/lvgl/src/widgets/lv_canvas.c **** 
 380              		.loc 1 1007 5 is_stmt 1 view .LVU100
1007:Middlewares/lvgl/src/widgets/lv_canvas.c **** 
 381              		.loc 1 1007 17 is_stmt 0 view .LVU101
ARM GAS  /tmp/ccdxwQT7.s 			page 37


 382 0020 9DF80C20 		ldrb	r2, [sp, #12]	@ zero_extendqisi2
 383              	.LVL28:
1007:Middlewares/lvgl/src/widgets/lv_canvas.c **** 
 384              		.loc 1 1007 17 view .LVU102
 385 0024 0E20     		movs	r0, #14
 386 0026 60F30402 		bfi	r2, r0, #0, #5
 387 002a 8DF80C20 		strb	r2, [sp, #12]
1009:Middlewares/lvgl/src/widgets/lv_canvas.c **** }
 388              		.loc 1 1009 5 is_stmt 1 view .LVU103
 389 002e 0093     		str	r3, [sp]
 390 0030 BDF82430 		ldrh	r3, [sp, #36]
 391 0034 BDF92020 		ldrsh	r2, [sp, #32]
 392 0038 03A8     		add	r0, sp, #12
 393 003a FFF7FEFF 		bl	set_px_alpha_generic
 394              	.LVL29:
1009:Middlewares/lvgl/src/widgets/lv_canvas.c **** }
 395              		.loc 1 1009 5 is_stmt 0 view .LVU104
 396 003e E7E7     		b	.L18
 397              		.cfi_endproc
 398              	.LFE169:
 400              		.section	.text.set_px_cb_alpha4,"ax",%progbits
 401              		.align	1
 402              		.syntax unified
 403              		.thumb
 404              		.thumb_func
 406              	set_px_cb_alpha4:
 407              	.LVL30:
 408              	.LFB168:
 986:Middlewares/lvgl/src/widgets/lv_canvas.c ****     (void) disp_drv; /*Unused*/
 409              		.loc 1 986 1 is_stmt 1 view -0
 410              		.cfi_startproc
 411              		@ args = 12, pretend = 0, frame = 16
 412              		@ frame_needed = 0, uses_anonymous_args = 0
 986:Middlewares/lvgl/src/widgets/lv_canvas.c ****     (void) disp_drv; /*Unused*/
 413              		.loc 1 986 1 is_stmt 0 view .LVU106
 414 0000 00B5     		push	{lr}
 415              	.LCFI6:
 416              		.cfi_def_cfa_offset 4
 417              		.cfi_offset 14, -4
 418 0002 87B0     		sub	sp, sp, #28
 419              	.LCFI7:
 420              		.cfi_def_cfa_offset 32
 421 0004 0846     		mov	r0, r1
 422              	.LVL31:
 986:Middlewares/lvgl/src/widgets/lv_canvas.c ****     (void) disp_drv; /*Unused*/
 423              		.loc 1 986 1 view .LVU107
 424 0006 1946     		mov	r1, r3
 425              	.LVL32:
 986:Middlewares/lvgl/src/widgets/lv_canvas.c ****     (void) disp_drv; /*Unused*/
 426              		.loc 1 986 1 view .LVU108
 427 0008 9DF82830 		ldrb	r3, [sp, #40]	@ zero_extendqisi2
 428              	.LVL33:
 987:Middlewares/lvgl/src/widgets/lv_canvas.c **** 
 429              		.loc 1 987 5 is_stmt 1 view .LVU109
 989:Middlewares/lvgl/src/widgets/lv_canvas.c ****     lv_img_dsc_t d;
 430              		.loc 1 989 5 view .LVU110
 989:Middlewares/lvgl/src/widgets/lv_canvas.c ****     lv_img_dsc_t d;
ARM GAS  /tmp/ccdxwQT7.s 			page 38


 431              		.loc 1 989 7 is_stmt 0 view .LVU111
 432 000c 022B     		cmp	r3, #2
 433 000e 02D8     		bhi	.L27
 434              	.LVL34:
 435              	.L23:
 996:Middlewares/lvgl/src/widgets/lv_canvas.c **** 
 436              		.loc 1 996 1 view .LVU112
 437 0010 07B0     		add	sp, sp, #28
 438              	.LCFI8:
 439              		.cfi_remember_state
 440              		.cfi_def_cfa_offset 4
 441              		@ sp needed
 442 0012 5DF804FB 		ldr	pc, [sp], #4
 443              	.LVL35:
 444              	.L27:
 445              	.LCFI9:
 446              		.cfi_restore_state
 990:Middlewares/lvgl/src/widgets/lv_canvas.c ****     d.data = buf;
 447              		.loc 1 990 5 is_stmt 1 view .LVU113
 991:Middlewares/lvgl/src/widgets/lv_canvas.c ****     d.header.w = buf_w;
 448              		.loc 1 991 5 view .LVU114
 991:Middlewares/lvgl/src/widgets/lv_canvas.c ****     d.header.w = buf_w;
 449              		.loc 1 991 12 is_stmt 0 view .LVU115
 450 0016 0590     		str	r0, [sp, #20]
 992:Middlewares/lvgl/src/widgets/lv_canvas.c ****     d.header.cf = LV_IMG_CF_ALPHA_4BIT;
 451              		.loc 1 992 5 is_stmt 1 view .LVU116
 992:Middlewares/lvgl/src/widgets/lv_canvas.c ****     d.header.cf = LV_IMG_CF_ALPHA_4BIT;
 452              		.loc 1 992 16 is_stmt 0 view .LVU117
 453 0018 0398     		ldr	r0, [sp, #12]
 454              	.LVL36:
 992:Middlewares/lvgl/src/widgets/lv_canvas.c ****     d.header.cf = LV_IMG_CF_ALPHA_4BIT;
 455              		.loc 1 992 16 view .LVU118
 456 001a 62F39420 		bfi	r0, r2, #10, #11
 457 001e 0390     		str	r0, [sp, #12]
 993:Middlewares/lvgl/src/widgets/lv_canvas.c **** 
 458              		.loc 1 993 5 is_stmt 1 view .LVU119
 993:Middlewares/lvgl/src/widgets/lv_canvas.c **** 
 459              		.loc 1 993 17 is_stmt 0 view .LVU120
 460 0020 9DF80C20 		ldrb	r2, [sp, #12]	@ zero_extendqisi2
 461              	.LVL37:
 993:Middlewares/lvgl/src/widgets/lv_canvas.c **** 
 462              		.loc 1 993 17 view .LVU121
 463 0024 0D20     		movs	r0, #13
 464 0026 60F30402 		bfi	r2, r0, #0, #5
 465 002a 8DF80C20 		strb	r2, [sp, #12]
 995:Middlewares/lvgl/src/widgets/lv_canvas.c **** }
 466              		.loc 1 995 5 is_stmt 1 view .LVU122
 467 002e 0093     		str	r3, [sp]
 468 0030 BDF82430 		ldrh	r3, [sp, #36]
 469 0034 BDF92020 		ldrsh	r2, [sp, #32]
 470 0038 03A8     		add	r0, sp, #12
 471 003a FFF7FEFF 		bl	set_px_alpha_generic
 472              	.LVL38:
 995:Middlewares/lvgl/src/widgets/lv_canvas.c **** }
 473              		.loc 1 995 5 is_stmt 0 view .LVU123
 474 003e E7E7     		b	.L23
 475              		.cfi_endproc
ARM GAS  /tmp/ccdxwQT7.s 			page 39


 476              	.LFE168:
 478              		.section	.text.set_px_cb_alpha2,"ax",%progbits
 479              		.align	1
 480              		.syntax unified
 481              		.thumb
 482              		.thumb_func
 484              	set_px_cb_alpha2:
 485              	.LVL39:
 486              	.LFB167:
 972:Middlewares/lvgl/src/widgets/lv_canvas.c ****     (void) disp_drv; /*Unused*/
 487              		.loc 1 972 1 is_stmt 1 view -0
 488              		.cfi_startproc
 489              		@ args = 12, pretend = 0, frame = 16
 490              		@ frame_needed = 0, uses_anonymous_args = 0
 972:Middlewares/lvgl/src/widgets/lv_canvas.c ****     (void) disp_drv; /*Unused*/
 491              		.loc 1 972 1 is_stmt 0 view .LVU125
 492 0000 00B5     		push	{lr}
 493              	.LCFI10:
 494              		.cfi_def_cfa_offset 4
 495              		.cfi_offset 14, -4
 496 0002 87B0     		sub	sp, sp, #28
 497              	.LCFI11:
 498              		.cfi_def_cfa_offset 32
 499 0004 0846     		mov	r0, r1
 500              	.LVL40:
 972:Middlewares/lvgl/src/widgets/lv_canvas.c ****     (void) disp_drv; /*Unused*/
 501              		.loc 1 972 1 view .LVU126
 502 0006 1946     		mov	r1, r3
 503              	.LVL41:
 972:Middlewares/lvgl/src/widgets/lv_canvas.c ****     (void) disp_drv; /*Unused*/
 504              		.loc 1 972 1 view .LVU127
 505 0008 9DF82830 		ldrb	r3, [sp, #40]	@ zero_extendqisi2
 506              	.LVL42:
 973:Middlewares/lvgl/src/widgets/lv_canvas.c **** 
 507              		.loc 1 973 5 is_stmt 1 view .LVU128
 975:Middlewares/lvgl/src/widgets/lv_canvas.c ****     lv_img_dsc_t d;
 508              		.loc 1 975 5 view .LVU129
 975:Middlewares/lvgl/src/widgets/lv_canvas.c ****     lv_img_dsc_t d;
 509              		.loc 1 975 7 is_stmt 0 view .LVU130
 510 000c 022B     		cmp	r3, #2
 511 000e 02D8     		bhi	.L32
 512              	.LVL43:
 513              	.L28:
 982:Middlewares/lvgl/src/widgets/lv_canvas.c **** 
 514              		.loc 1 982 1 view .LVU131
 515 0010 07B0     		add	sp, sp, #28
 516              	.LCFI12:
 517              		.cfi_remember_state
 518              		.cfi_def_cfa_offset 4
 519              		@ sp needed
 520 0012 5DF804FB 		ldr	pc, [sp], #4
 521              	.LVL44:
 522              	.L32:
 523              	.LCFI13:
 524              		.cfi_restore_state
 976:Middlewares/lvgl/src/widgets/lv_canvas.c ****     d.data = buf;
 525              		.loc 1 976 5 is_stmt 1 view .LVU132
ARM GAS  /tmp/ccdxwQT7.s 			page 40


 977:Middlewares/lvgl/src/widgets/lv_canvas.c ****     d.header.w = buf_w;
 526              		.loc 1 977 5 view .LVU133
 977:Middlewares/lvgl/src/widgets/lv_canvas.c ****     d.header.w = buf_w;
 527              		.loc 1 977 12 is_stmt 0 view .LVU134
 528 0016 0590     		str	r0, [sp, #20]
 978:Middlewares/lvgl/src/widgets/lv_canvas.c ****     d.header.cf = LV_IMG_CF_ALPHA_2BIT;
 529              		.loc 1 978 5 is_stmt 1 view .LVU135
 978:Middlewares/lvgl/src/widgets/lv_canvas.c ****     d.header.cf = LV_IMG_CF_ALPHA_2BIT;
 530              		.loc 1 978 16 is_stmt 0 view .LVU136
 531 0018 0398     		ldr	r0, [sp, #12]
 532              	.LVL45:
 978:Middlewares/lvgl/src/widgets/lv_canvas.c ****     d.header.cf = LV_IMG_CF_ALPHA_2BIT;
 533              		.loc 1 978 16 view .LVU137
 534 001a 62F39420 		bfi	r0, r2, #10, #11
 535 001e 0390     		str	r0, [sp, #12]
 979:Middlewares/lvgl/src/widgets/lv_canvas.c **** 
 536              		.loc 1 979 5 is_stmt 1 view .LVU138
 979:Middlewares/lvgl/src/widgets/lv_canvas.c **** 
 537              		.loc 1 979 17 is_stmt 0 view .LVU139
 538 0020 9DF80C20 		ldrb	r2, [sp, #12]	@ zero_extendqisi2
 539              	.LVL46:
 979:Middlewares/lvgl/src/widgets/lv_canvas.c **** 
 540              		.loc 1 979 17 view .LVU140
 541 0024 0C20     		movs	r0, #12
 542 0026 60F30402 		bfi	r2, r0, #0, #5
 543 002a 8DF80C20 		strb	r2, [sp, #12]
 981:Middlewares/lvgl/src/widgets/lv_canvas.c **** }
 544              		.loc 1 981 5 is_stmt 1 view .LVU141
 545 002e 0093     		str	r3, [sp]
 546 0030 BDF82430 		ldrh	r3, [sp, #36]
 547 0034 BDF92020 		ldrsh	r2, [sp, #32]
 548 0038 6844     		add	r0, sp, r0
 549 003a FFF7FEFF 		bl	set_px_alpha_generic
 550              	.LVL47:
 981:Middlewares/lvgl/src/widgets/lv_canvas.c **** }
 551              		.loc 1 981 5 is_stmt 0 view .LVU142
 552 003e E7E7     		b	.L28
 553              		.cfi_endproc
 554              	.LFE167:
 556              		.section	.text.set_px_cb_alpha1,"ax",%progbits
 557              		.align	1
 558              		.syntax unified
 559              		.thumb
 560              		.thumb_func
 562              	set_px_cb_alpha1:
 563              	.LVL48:
 564              	.LFB166:
 958:Middlewares/lvgl/src/widgets/lv_canvas.c ****     (void) disp_drv; /*Unused*/
 565              		.loc 1 958 1 is_stmt 1 view -0
 566              		.cfi_startproc
 567              		@ args = 12, pretend = 0, frame = 16
 568              		@ frame_needed = 0, uses_anonymous_args = 0
 958:Middlewares/lvgl/src/widgets/lv_canvas.c ****     (void) disp_drv; /*Unused*/
 569              		.loc 1 958 1 is_stmt 0 view .LVU144
 570 0000 00B5     		push	{lr}
 571              	.LCFI14:
 572              		.cfi_def_cfa_offset 4
ARM GAS  /tmp/ccdxwQT7.s 			page 41


 573              		.cfi_offset 14, -4
 574 0002 87B0     		sub	sp, sp, #28
 575              	.LCFI15:
 576              		.cfi_def_cfa_offset 32
 577 0004 0846     		mov	r0, r1
 578              	.LVL49:
 958:Middlewares/lvgl/src/widgets/lv_canvas.c ****     (void) disp_drv; /*Unused*/
 579              		.loc 1 958 1 view .LVU145
 580 0006 1946     		mov	r1, r3
 581              	.LVL50:
 958:Middlewares/lvgl/src/widgets/lv_canvas.c ****     (void) disp_drv; /*Unused*/
 582              		.loc 1 958 1 view .LVU146
 583 0008 9DF82830 		ldrb	r3, [sp, #40]	@ zero_extendqisi2
 584              	.LVL51:
 959:Middlewares/lvgl/src/widgets/lv_canvas.c **** 
 585              		.loc 1 959 5 is_stmt 1 view .LVU147
 961:Middlewares/lvgl/src/widgets/lv_canvas.c ****     lv_img_dsc_t d;
 586              		.loc 1 961 5 view .LVU148
 961:Middlewares/lvgl/src/widgets/lv_canvas.c ****     lv_img_dsc_t d;
 587              		.loc 1 961 7 is_stmt 0 view .LVU149
 588 000c 022B     		cmp	r3, #2
 589 000e 02D8     		bhi	.L37
 590              	.LVL52:
 591              	.L33:
 968:Middlewares/lvgl/src/widgets/lv_canvas.c **** 
 592              		.loc 1 968 1 view .LVU150
 593 0010 07B0     		add	sp, sp, #28
 594              	.LCFI16:
 595              		.cfi_remember_state
 596              		.cfi_def_cfa_offset 4
 597              		@ sp needed
 598 0012 5DF804FB 		ldr	pc, [sp], #4
 599              	.LVL53:
 600              	.L37:
 601              	.LCFI17:
 602              		.cfi_restore_state
 962:Middlewares/lvgl/src/widgets/lv_canvas.c ****     d.data = buf;
 603              		.loc 1 962 5 is_stmt 1 view .LVU151
 963:Middlewares/lvgl/src/widgets/lv_canvas.c ****     d.header.w = buf_w;
 604              		.loc 1 963 5 view .LVU152
 963:Middlewares/lvgl/src/widgets/lv_canvas.c ****     d.header.w = buf_w;
 605              		.loc 1 963 12 is_stmt 0 view .LVU153
 606 0016 0590     		str	r0, [sp, #20]
 964:Middlewares/lvgl/src/widgets/lv_canvas.c ****     d.header.cf = LV_IMG_CF_ALPHA_1BIT;
 607              		.loc 1 964 5 is_stmt 1 view .LVU154
 964:Middlewares/lvgl/src/widgets/lv_canvas.c ****     d.header.cf = LV_IMG_CF_ALPHA_1BIT;
 608              		.loc 1 964 16 is_stmt 0 view .LVU155
 609 0018 0398     		ldr	r0, [sp, #12]
 610              	.LVL54:
 964:Middlewares/lvgl/src/widgets/lv_canvas.c ****     d.header.cf = LV_IMG_CF_ALPHA_1BIT;
 611              		.loc 1 964 16 view .LVU156
 612 001a 62F39420 		bfi	r0, r2, #10, #11
 613 001e 0390     		str	r0, [sp, #12]
 965:Middlewares/lvgl/src/widgets/lv_canvas.c **** 
 614              		.loc 1 965 5 is_stmt 1 view .LVU157
 965:Middlewares/lvgl/src/widgets/lv_canvas.c **** 
 615              		.loc 1 965 17 is_stmt 0 view .LVU158
ARM GAS  /tmp/ccdxwQT7.s 			page 42


 616 0020 9DF80C20 		ldrb	r2, [sp, #12]	@ zero_extendqisi2
 617              	.LVL55:
 965:Middlewares/lvgl/src/widgets/lv_canvas.c **** 
 618              		.loc 1 965 17 view .LVU159
 619 0024 0B20     		movs	r0, #11
 620 0026 60F30402 		bfi	r2, r0, #0, #5
 621 002a 8DF80C20 		strb	r2, [sp, #12]
 967:Middlewares/lvgl/src/widgets/lv_canvas.c **** }
 622              		.loc 1 967 5 is_stmt 1 view .LVU160
 623 002e 0093     		str	r3, [sp]
 624 0030 BDF82430 		ldrh	r3, [sp, #36]
 625 0034 BDF92020 		ldrsh	r2, [sp, #32]
 626 0038 03A8     		add	r0, sp, #12
 627 003a FFF7FEFF 		bl	set_px_alpha_generic
 628              	.LVL56:
 967:Middlewares/lvgl/src/widgets/lv_canvas.c **** }
 629              		.loc 1 967 5 is_stmt 0 view .LVU161
 630 003e E7E7     		b	.L33
 631              		.cfi_endproc
 632              	.LFE166:
 634              		.section	.text.set_px_true_color_alpha,"ax",%progbits
 635              		.align	1
 636              		.syntax unified
 637              		.thumb
 638              		.thumb_func
 640              	set_px_true_color_alpha:
 641              	.LVL57:
 642              	.LFB171:
1025:Middlewares/lvgl/src/widgets/lv_canvas.c **** 
1026:Middlewares/lvgl/src/widgets/lv_canvas.c **** static void set_px_true_color_alpha(lv_disp_drv_t * disp_drv, uint8_t * buf, lv_coord_t buf_w, lv_c
1027:Middlewares/lvgl/src/widgets/lv_canvas.c ****                                     lv_coord_t y,
1028:Middlewares/lvgl/src/widgets/lv_canvas.c ****                                     lv_color_t color, lv_opa_t opa)
1029:Middlewares/lvgl/src/widgets/lv_canvas.c **** {
 643              		.loc 1 1029 1 is_stmt 1 view -0
 644              		.cfi_startproc
 645              		@ args = 12, pretend = 0, frame = 24
 646              		@ frame_needed = 0, uses_anonymous_args = 0
 647              		.loc 1 1029 1 is_stmt 0 view .LVU163
 648 0000 F0B5     		push	{r4, r5, r6, r7, lr}
 649              	.LCFI18:
 650              		.cfi_def_cfa_offset 20
 651              		.cfi_offset 4, -20
 652              		.cfi_offset 5, -16
 653              		.cfi_offset 6, -12
 654              		.cfi_offset 7, -8
 655              		.cfi_offset 14, -4
 656 0002 87B0     		sub	sp, sp, #28
 657              	.LCFI19:
 658              		.cfi_def_cfa_offset 48
 659 0004 1C46     		mov	r4, r3
 660 0006 BDF93060 		ldrsh	r6, [sp, #48]
 661 000a BDF83430 		ldrh	r3, [sp, #52]
 662              	.LVL58:
 663              		.loc 1 1029 1 view .LVU164
 664 000e ADF80430 		strh	r3, [sp, #4]	@ movhi
 665 0012 9DF83850 		ldrb	r5, [sp, #56]	@ zero_extendqisi2
1030:Middlewares/lvgl/src/widgets/lv_canvas.c ****     (void) disp_drv; /*Unused*/
ARM GAS  /tmp/ccdxwQT7.s 			page 43


 666              		.loc 1 1030 5 is_stmt 1 view .LVU165
1031:Middlewares/lvgl/src/widgets/lv_canvas.c **** 
1032:Middlewares/lvgl/src/widgets/lv_canvas.c ****     if(opa <= LV_OPA_MIN) return;
 667              		.loc 1 1032 5 view .LVU166
 668              		.loc 1 1032 7 is_stmt 0 view .LVU167
 669 0016 022D     		cmp	r5, #2
 670 0018 01D8     		bhi	.L50
 671              	.LVL59:
 672              	.L38:
1033:Middlewares/lvgl/src/widgets/lv_canvas.c ****     lv_img_dsc_t d;
1034:Middlewares/lvgl/src/widgets/lv_canvas.c ****     d.data = buf;
1035:Middlewares/lvgl/src/widgets/lv_canvas.c ****     d.header.always_zero = 0;
1036:Middlewares/lvgl/src/widgets/lv_canvas.c ****     d.header.h = 1;    /*Doesn't matter*/;
1037:Middlewares/lvgl/src/widgets/lv_canvas.c ****     d.header.w = buf_w;
1038:Middlewares/lvgl/src/widgets/lv_canvas.c ****     d.header.cf = LV_IMG_CF_TRUE_COLOR_ALPHA;
1039:Middlewares/lvgl/src/widgets/lv_canvas.c **** 
1040:Middlewares/lvgl/src/widgets/lv_canvas.c ****     lv_color_t bg_color = lv_img_buf_get_px_color(&d, x, y, lv_color_black());
1041:Middlewares/lvgl/src/widgets/lv_canvas.c ****     lv_opa_t bg_opa = lv_img_buf_get_px_alpha(&d, x, y);
1042:Middlewares/lvgl/src/widgets/lv_canvas.c **** 
1043:Middlewares/lvgl/src/widgets/lv_canvas.c ****     lv_opa_t res_opa;
1044:Middlewares/lvgl/src/widgets/lv_canvas.c ****     lv_color_t res_color;
1045:Middlewares/lvgl/src/widgets/lv_canvas.c **** 
1046:Middlewares/lvgl/src/widgets/lv_canvas.c ****     lv_color_mix_with_alpha(bg_color, bg_opa, color, opa, &res_color, &res_opa);
1047:Middlewares/lvgl/src/widgets/lv_canvas.c **** 
1048:Middlewares/lvgl/src/widgets/lv_canvas.c ****     lv_img_buf_set_px_alpha(&d, x, y, res_opa);
1049:Middlewares/lvgl/src/widgets/lv_canvas.c ****     lv_img_buf_set_px_color(&d, x, y, res_color);
1050:Middlewares/lvgl/src/widgets/lv_canvas.c **** }
 673              		.loc 1 1050 1 view .LVU168
 674 001a 07B0     		add	sp, sp, #28
 675              	.LCFI20:
 676              		.cfi_remember_state
 677              		.cfi_def_cfa_offset 20
 678              		@ sp needed
 679 001c F0BD     		pop	{r4, r5, r6, r7, pc}
 680              	.LVL60:
 681              	.L50:
 682              	.LCFI21:
 683              		.cfi_restore_state
1033:Middlewares/lvgl/src/widgets/lv_canvas.c ****     lv_img_dsc_t d;
 684              		.loc 1 1033 5 is_stmt 1 view .LVU169
1034:Middlewares/lvgl/src/widgets/lv_canvas.c ****     d.header.always_zero = 0;
 685              		.loc 1 1034 5 view .LVU170
1034:Middlewares/lvgl/src/widgets/lv_canvas.c ****     d.header.always_zero = 0;
 686              		.loc 1 1034 12 is_stmt 0 view .LVU171
 687 001e 0591     		str	r1, [sp, #20]
1035:Middlewares/lvgl/src/widgets/lv_canvas.c ****     d.header.h = 1;    /*Doesn't matter*/;
 688              		.loc 1 1035 5 is_stmt 1 view .LVU172
1035:Middlewares/lvgl/src/widgets/lv_canvas.c ****     d.header.h = 1;    /*Doesn't matter*/;
 689              		.loc 1 1035 26 is_stmt 0 view .LVU173
 690 0020 9DF80C30 		ldrb	r3, [sp, #12]	@ zero_extendqisi2
 691 0024 6FF34713 		bfc	r3, #5, #3
 692 0028 8DF80C30 		strb	r3, [sp, #12]
1036:Middlewares/lvgl/src/widgets/lv_canvas.c ****     d.header.w = buf_w;
 693              		.loc 1 1036 5 is_stmt 1 view .LVU174
1036:Middlewares/lvgl/src/widgets/lv_canvas.c ****     d.header.w = buf_w;
 694              		.loc 1 1036 16 is_stmt 0 view .LVU175
 695 002c BDF80E30 		ldrh	r3, [sp, #14]
ARM GAS  /tmp/ccdxwQT7.s 			page 44


 696 0030 0121     		movs	r1, #1
 697              	.LVL61:
1036:Middlewares/lvgl/src/widgets/lv_canvas.c ****     d.header.w = buf_w;
 698              		.loc 1 1036 16 view .LVU176
 699 0032 61F34F13 		bfi	r3, r1, #5, #11
 700 0036 ADF80E30 		strh	r3, [sp, #14]	@ movhi
1036:Middlewares/lvgl/src/widgets/lv_canvas.c ****     d.header.w = buf_w;
 701              		.loc 1 1036 42 is_stmt 1 view .LVU177
1037:Middlewares/lvgl/src/widgets/lv_canvas.c ****     d.header.cf = LV_IMG_CF_TRUE_COLOR_ALPHA;
 702              		.loc 1 1037 5 view .LVU178
1037:Middlewares/lvgl/src/widgets/lv_canvas.c ****     d.header.cf = LV_IMG_CF_TRUE_COLOR_ALPHA;
 703              		.loc 1 1037 16 is_stmt 0 view .LVU179
 704 003a 039B     		ldr	r3, [sp, #12]
 705 003c 62F39423 		bfi	r3, r2, #10, #11
 706 0040 0393     		str	r3, [sp, #12]
1038:Middlewares/lvgl/src/widgets/lv_canvas.c **** 
 707              		.loc 1 1038 5 is_stmt 1 view .LVU180
1038:Middlewares/lvgl/src/widgets/lv_canvas.c **** 
 708              		.loc 1 1038 17 is_stmt 0 view .LVU181
 709 0042 9DF80C30 		ldrb	r3, [sp, #12]	@ zero_extendqisi2
 710 0046 0522     		movs	r2, #5
 711              	.LVL62:
1038:Middlewares/lvgl/src/widgets/lv_canvas.c **** 
 712              		.loc 1 1038 17 view .LVU182
 713 0048 62F30403 		bfi	r3, r2, #0, #5
 714 004c 8DF80C30 		strb	r3, [sp, #12]
1040:Middlewares/lvgl/src/widgets/lv_canvas.c ****     lv_opa_t bg_opa = lv_img_buf_get_px_alpha(&d, x, y);
 715              		.loc 1 1040 5 is_stmt 1 view .LVU183
 716              	.LBB85:
 717              	.LBI85:
 600:Middlewares/lvgl/src/widgets/../core/../misc/lv_color.h **** }
 601:Middlewares/lvgl/src/widgets/../core/../misc/lv_color.h **** 
 602:Middlewares/lvgl/src/widgets/../core/../misc/lv_color.h **** static inline lv_color_t lv_color_make(uint8_t r, uint8_t g, uint8_t b)
 603:Middlewares/lvgl/src/widgets/../core/../misc/lv_color.h **** {
 604:Middlewares/lvgl/src/widgets/../core/../misc/lv_color.h ****     return _LV_COLOR_MAKE_TYPE_HELPER LV_COLOR_MAKE(r, g, b);
 605:Middlewares/lvgl/src/widgets/../core/../misc/lv_color.h **** }
 606:Middlewares/lvgl/src/widgets/../core/../misc/lv_color.h **** 
 607:Middlewares/lvgl/src/widgets/../core/../misc/lv_color.h **** static inline lv_color_t lv_color_hex(uint32_t c)
 608:Middlewares/lvgl/src/widgets/../core/../misc/lv_color.h **** {
 609:Middlewares/lvgl/src/widgets/../core/../misc/lv_color.h ****     return lv_color_make((uint8_t)((c >> 16) & 0xFF), (uint8_t)((c >> 8) & 0xFF), (uint8_t)(c & 0xF
 610:Middlewares/lvgl/src/widgets/../core/../misc/lv_color.h **** }
 611:Middlewares/lvgl/src/widgets/../core/../misc/lv_color.h **** 
 612:Middlewares/lvgl/src/widgets/../core/../misc/lv_color.h **** static inline lv_color_t lv_color_hex3(uint32_t c)
 613:Middlewares/lvgl/src/widgets/../core/../misc/lv_color.h **** {
 614:Middlewares/lvgl/src/widgets/../core/../misc/lv_color.h ****     return lv_color_make((uint8_t)(((c >> 4) & 0xF0) | ((c >> 8) & 0xF)), (uint8_t)((c & 0xF0) | ((
 615:Middlewares/lvgl/src/widgets/../core/../misc/lv_color.h ****                          (uint8_t)((c & 0xF) | ((c & 0xF) << 4)));
 616:Middlewares/lvgl/src/widgets/../core/../misc/lv_color.h **** }
 617:Middlewares/lvgl/src/widgets/../core/../misc/lv_color.h **** 
 618:Middlewares/lvgl/src/widgets/../core/../misc/lv_color.h **** static inline void lv_color_filter_dsc_init(lv_color_filter_dsc_t * dsc, lv_color_filter_cb_t cb)
 619:Middlewares/lvgl/src/widgets/../core/../misc/lv_color.h **** {
 620:Middlewares/lvgl/src/widgets/../core/../misc/lv_color.h ****     dsc->filter_cb = cb;
 621:Middlewares/lvgl/src/widgets/../core/../misc/lv_color.h **** }
 622:Middlewares/lvgl/src/widgets/../core/../misc/lv_color.h **** 
 623:Middlewares/lvgl/src/widgets/../core/../misc/lv_color.h **** //! @cond Doxygen_Suppress
 624:Middlewares/lvgl/src/widgets/../core/../misc/lv_color.h **** //!
 625:Middlewares/lvgl/src/widgets/../core/../misc/lv_color.h **** LV_ATTRIBUTE_FAST_MEM void lv_color_fill(lv_color_t * buf, lv_color_t color, uint32_t px_num);
 626:Middlewares/lvgl/src/widgets/../core/../misc/lv_color.h **** 
ARM GAS  /tmp/ccdxwQT7.s 			page 45


 627:Middlewares/lvgl/src/widgets/../core/../misc/lv_color.h **** //! @endcond
 628:Middlewares/lvgl/src/widgets/../core/../misc/lv_color.h **** lv_color_t lv_color_lighten(lv_color_t c, lv_opa_t lvl);
 629:Middlewares/lvgl/src/widgets/../core/../misc/lv_color.h **** 
 630:Middlewares/lvgl/src/widgets/../core/../misc/lv_color.h **** lv_color_t lv_color_darken(lv_color_t c, lv_opa_t lvl);
 631:Middlewares/lvgl/src/widgets/../core/../misc/lv_color.h **** 
 632:Middlewares/lvgl/src/widgets/../core/../misc/lv_color.h **** lv_color_t lv_color_change_lightness(lv_color_t c, lv_opa_t lvl);
 633:Middlewares/lvgl/src/widgets/../core/../misc/lv_color.h **** 
 634:Middlewares/lvgl/src/widgets/../core/../misc/lv_color.h **** /**
 635:Middlewares/lvgl/src/widgets/../core/../misc/lv_color.h ****  * Convert a HSV color to RGB
 636:Middlewares/lvgl/src/widgets/../core/../misc/lv_color.h ****  * @param h hue [0..359]
 637:Middlewares/lvgl/src/widgets/../core/../misc/lv_color.h ****  * @param s saturation [0..100]
 638:Middlewares/lvgl/src/widgets/../core/../misc/lv_color.h ****  * @param v value [0..100]
 639:Middlewares/lvgl/src/widgets/../core/../misc/lv_color.h ****  * @return the given RGB color in RGB (with LV_COLOR_DEPTH depth)
 640:Middlewares/lvgl/src/widgets/../core/../misc/lv_color.h ****  */
 641:Middlewares/lvgl/src/widgets/../core/../misc/lv_color.h **** lv_color_t lv_color_hsv_to_rgb(uint16_t h, uint8_t s, uint8_t v);
 642:Middlewares/lvgl/src/widgets/../core/../misc/lv_color.h **** 
 643:Middlewares/lvgl/src/widgets/../core/../misc/lv_color.h **** /**
 644:Middlewares/lvgl/src/widgets/../core/../misc/lv_color.h ****  * Convert a 32-bit RGB color to HSV
 645:Middlewares/lvgl/src/widgets/../core/../misc/lv_color.h ****  * @param r8 8-bit red
 646:Middlewares/lvgl/src/widgets/../core/../misc/lv_color.h ****  * @param g8 8-bit green
 647:Middlewares/lvgl/src/widgets/../core/../misc/lv_color.h ****  * @param b8 8-bit blue
 648:Middlewares/lvgl/src/widgets/../core/../misc/lv_color.h ****  * @return the given RGB color in HSV
 649:Middlewares/lvgl/src/widgets/../core/../misc/lv_color.h ****  */
 650:Middlewares/lvgl/src/widgets/../core/../misc/lv_color.h **** lv_color_hsv_t lv_color_rgb_to_hsv(uint8_t r8, uint8_t g8, uint8_t b8);
 651:Middlewares/lvgl/src/widgets/../core/../misc/lv_color.h **** 
 652:Middlewares/lvgl/src/widgets/../core/../misc/lv_color.h **** /**
 653:Middlewares/lvgl/src/widgets/../core/../misc/lv_color.h ****  * Convert a color to HSV
 654:Middlewares/lvgl/src/widgets/../core/../misc/lv_color.h ****  * @param color color
 655:Middlewares/lvgl/src/widgets/../core/../misc/lv_color.h ****  * @return the given color in HSV
 656:Middlewares/lvgl/src/widgets/../core/../misc/lv_color.h ****  */
 657:Middlewares/lvgl/src/widgets/../core/../misc/lv_color.h **** lv_color_hsv_t lv_color_to_hsv(lv_color_t color);
 658:Middlewares/lvgl/src/widgets/../core/../misc/lv_color.h **** 
 659:Middlewares/lvgl/src/widgets/../core/../misc/lv_color.h **** /**
 660:Middlewares/lvgl/src/widgets/../core/../misc/lv_color.h ****  * Just a wrapper around LV_COLOR_CHROMA_KEY because it might be more convenient to use a function 
 661:Middlewares/lvgl/src/widgets/../core/../misc/lv_color.h ****  * @return LV_COLOR_CHROMA_KEY
 662:Middlewares/lvgl/src/widgets/../core/../misc/lv_color.h ****  */
 663:Middlewares/lvgl/src/widgets/../core/../misc/lv_color.h **** static inline lv_color_t lv_color_chroma_key(void)
 664:Middlewares/lvgl/src/widgets/../core/../misc/lv_color.h **** {
 665:Middlewares/lvgl/src/widgets/../core/../misc/lv_color.h ****     return LV_COLOR_CHROMA_KEY;
 666:Middlewares/lvgl/src/widgets/../core/../misc/lv_color.h **** }
 667:Middlewares/lvgl/src/widgets/../core/../misc/lv_color.h **** 
 668:Middlewares/lvgl/src/widgets/../core/../misc/lv_color.h **** /**********************
 669:Middlewares/lvgl/src/widgets/../core/../misc/lv_color.h ****  *  PREDEFINED COLORS
 670:Middlewares/lvgl/src/widgets/../core/../misc/lv_color.h ****  **********************/
 671:Middlewares/lvgl/src/widgets/../core/../misc/lv_color.h **** /*Source: https://vuetifyjs.com/en/styles/colors/#material-colors*/
 672:Middlewares/lvgl/src/widgets/../core/../misc/lv_color.h **** 
 673:Middlewares/lvgl/src/widgets/../core/../misc/lv_color.h **** lv_color_t lv_palette_main(lv_palette_t p);
 674:Middlewares/lvgl/src/widgets/../core/../misc/lv_color.h **** static inline lv_color_t lv_color_white(void) { return lv_color_make(0xff, 0xff, 0xff);}
 675:Middlewares/lvgl/src/widgets/../core/../misc/lv_color.h **** static inline lv_color_t lv_color_black(void) { return lv_color_make(0x00, 0x0, 0x00);}
 718              		.loc 2 675 26 view .LVU184
 719              	.LBE85:
 720              		.loc 2 675 49 view .LVU185
 721              	.LVL63:
 722              	.LBB88:
 723              	.LBB86:
 724              	.LBI86:
 602:Middlewares/lvgl/src/widgets/../core/../misc/lv_color.h **** {
ARM GAS  /tmp/ccdxwQT7.s 			page 46


 725              		.loc 2 602 26 view .LVU186
 726              	.LBB87:
 604:Middlewares/lvgl/src/widgets/../core/../misc/lv_color.h **** }
 727              		.loc 2 604 5 view .LVU187
 604:Middlewares/lvgl/src/widgets/../core/../misc/lv_color.h **** }
 728              		.loc 2 604 5 is_stmt 0 view .LVU188
 729              	.LBE87:
 730              	.LBE86:
 731              	.LBE88:
1040:Middlewares/lvgl/src/widgets/lv_canvas.c ****     lv_opa_t bg_opa = lv_img_buf_get_px_alpha(&d, x, y);
 732              		.loc 1 1040 27 view .LVU189
 733 0050 4FF00003 		mov	r3, #0	@ movhi
 734 0054 3246     		mov	r2, r6
 735 0056 2146     		mov	r1, r4
 736 0058 03A8     		add	r0, sp, #12
 737              	.LVL64:
1040:Middlewares/lvgl/src/widgets/lv_canvas.c ****     lv_opa_t bg_opa = lv_img_buf_get_px_alpha(&d, x, y);
 738              		.loc 1 1040 27 view .LVU190
 739 005a FFF7FEFF 		bl	lv_img_buf_get_px_color
 740              	.LVL65:
1040:Middlewares/lvgl/src/widgets/lv_canvas.c ****     lv_opa_t bg_opa = lv_img_buf_get_px_alpha(&d, x, y);
 741              		.loc 1 1040 27 view .LVU191
 742 005e 0746     		mov	r7, r0	@ movhi
 743              	.LVL66:
1041:Middlewares/lvgl/src/widgets/lv_canvas.c **** 
 744              		.loc 1 1041 5 is_stmt 1 view .LVU192
1041:Middlewares/lvgl/src/widgets/lv_canvas.c **** 
 745              		.loc 1 1041 23 is_stmt 0 view .LVU193
 746 0060 3246     		mov	r2, r6
 747 0062 2146     		mov	r1, r4
 748 0064 03A8     		add	r0, sp, #12
 749 0066 FFF7FEFF 		bl	lv_img_buf_get_px_alpha
 750              	.LVL67:
1043:Middlewares/lvgl/src/widgets/lv_canvas.c ****     lv_color_t res_color;
 751              		.loc 1 1043 5 is_stmt 1 view .LVU194
1044:Middlewares/lvgl/src/widgets/lv_canvas.c **** 
 752              		.loc 1 1044 5 view .LVU195
1046:Middlewares/lvgl/src/widgets/lv_canvas.c **** 
 753              		.loc 1 1046 5 view .LVU196
 754              	.LBB89:
 755              	.LBI89:
 535:Middlewares/lvgl/src/widgets/../core/../misc/lv_color.h ****                                                                  lv_color_t fg_color, lv_opa_t fg_o
 756              		.loc 2 535 42 view .LVU197
 757              	.LBB90:
 540:Middlewares/lvgl/src/widgets/../core/../misc/lv_color.h ****         res_color->full = fg_color.full;
 758              		.loc 2 540 5 view .LVU198
 540:Middlewares/lvgl/src/widgets/../core/../misc/lv_color.h ****         res_color->full = fg_color.full;
 759              		.loc 2 540 39 is_stmt 0 view .LVU199
 760 006a 0228     		cmp	r0, #2
 761 006c 8CBF     		ite	hi
 762 006e 0023     		movhi	r3, #0
 763 0070 0123     		movls	r3, #1
 540:Middlewares/lvgl/src/widgets/../core/../misc/lv_color.h ****         res_color->full = fg_color.full;
 764              		.loc 2 540 29 view .LVU200
 765 0072 FC2D     		cmp	r5, #252
 766 0074 88BF     		it	hi
 767 0076 43F00103 		orrhi	r3, r3, #1
ARM GAS  /tmp/ccdxwQT7.s 			page 47


 540:Middlewares/lvgl/src/widgets/../core/../misc/lv_color.h ****         res_color->full = fg_color.full;
 768              		.loc 2 540 7 view .LVU201
 769 007a 73B1     		cbz	r3, .L41
 541:Middlewares/lvgl/src/widgets/../core/../misc/lv_color.h ****         *res_opa = fg_opa;
 770              		.loc 2 541 9 is_stmt 1 view .LVU202
 541:Middlewares/lvgl/src/widgets/../core/../misc/lv_color.h ****         *res_opa = fg_opa;
 771              		.loc 2 541 25 is_stmt 0 view .LVU203
 772 007c BDF80470 		ldrh	r7, [sp, #4]
 542:Middlewares/lvgl/src/widgets/../core/../misc/lv_color.h ****     }
 773              		.loc 2 542 9 is_stmt 1 view .LVU204
 774              	.LVL68:
 775              	.L42:
 542:Middlewares/lvgl/src/widgets/../core/../misc/lv_color.h ****     }
 776              		.loc 2 542 9 is_stmt 0 view .LVU205
 777              	.LBE90:
 778              	.LBE89:
1048:Middlewares/lvgl/src/widgets/lv_canvas.c ****     lv_img_buf_set_px_color(&d, x, y, res_color);
 779              		.loc 1 1048 5 is_stmt 1 view .LVU206
 780 0080 2B46     		mov	r3, r5
 781 0082 3246     		mov	r2, r6
 782 0084 2146     		mov	r1, r4
 783 0086 03A8     		add	r0, sp, #12
 784              	.LVL69:
1048:Middlewares/lvgl/src/widgets/lv_canvas.c ****     lv_img_buf_set_px_color(&d, x, y, res_color);
 785              		.loc 1 1048 5 is_stmt 0 view .LVU207
 786 0088 FFF7FEFF 		bl	lv_img_buf_set_px_alpha
 787              	.LVL70:
1049:Middlewares/lvgl/src/widgets/lv_canvas.c **** }
 788              		.loc 1 1049 5 is_stmt 1 view .LVU208
1049:Middlewares/lvgl/src/widgets/lv_canvas.c **** }
 789              		.loc 1 1049 5 is_stmt 0 view .LVU209
 790 008c 3B46     		mov	r3, r7	@ movhi
 791 008e 3246     		mov	r2, r6
 792 0090 2146     		mov	r1, r4
 793 0092 03A8     		add	r0, sp, #12
 794 0094 FFF7FEFF 		bl	lv_img_buf_set_px_color
 795              	.LVL71:
1049:Middlewares/lvgl/src/widgets/lv_canvas.c **** }
 796              		.loc 1 1049 5 view .LVU210
 797 0098 BFE7     		b	.L38
 798              	.LVL72:
 799              	.L41:
 800              	.LBB99:
 801              	.LBB98:
 545:Middlewares/lvgl/src/widgets/../core/../misc/lv_color.h ****         res_color->full = bg_color.full;
 802              		.loc 2 545 10 is_stmt 1 view .LVU211
 545:Middlewares/lvgl/src/widgets/../core/../misc/lv_color.h ****         res_color->full = bg_color.full;
 803              		.loc 2 545 12 is_stmt 0 view .LVU212
 804 009a 022D     		cmp	r5, #2
 805 009c 01D8     		bhi	.L43
 546:Middlewares/lvgl/src/widgets/../core/../misc/lv_color.h ****         *res_opa = bg_opa;
 806              		.loc 2 546 9 is_stmt 1 view .LVU213
 547:Middlewares/lvgl/src/widgets/../core/../misc/lv_color.h ****     }
 807              		.loc 2 547 9 view .LVU214
 808              	.LVL73:
 547:Middlewares/lvgl/src/widgets/../core/../misc/lv_color.h ****     }
 809              		.loc 2 547 18 is_stmt 0 view .LVU215
ARM GAS  /tmp/ccdxwQT7.s 			page 48


 810 009e 0546     		mov	r5, r0
 811              	.LVL74:
 547:Middlewares/lvgl/src/widgets/../core/../misc/lv_color.h ****     }
 812              		.loc 2 547 18 view .LVU216
 813 00a0 EEE7     		b	.L42
 814              	.LVL75:
 815              	.L43:
 550:Middlewares/lvgl/src/widgets/../core/../misc/lv_color.h ****         *res_color = lv_color_mix(fg_color, bg_color, fg_opa);
 816              		.loc 2 550 10 is_stmt 1 view .LVU217
 550:Middlewares/lvgl/src/widgets/../core/../misc/lv_color.h ****         *res_color = lv_color_mix(fg_color, bg_color, fg_opa);
 817              		.loc 2 550 12 is_stmt 0 view .LVU218
 818 00a2 FC28     		cmp	r0, #252
 819 00a4 3CD9     		bls	.L44
 551:Middlewares/lvgl/src/widgets/../core/../misc/lv_color.h ****         *res_opa = LV_OPA_COVER;
 820              		.loc 2 551 9 is_stmt 1 view .LVU219
 821              	.LVL76:
 822              	.LBB91:
 823              	.LBI91:
 459:Middlewares/lvgl/src/widgets/../core/../misc/lv_color.h **** {
 824              		.loc 2 459 48 view .LVU220
 825              	.LBB92:
 461:Middlewares/lvgl/src/widgets/../core/../misc/lv_color.h **** #if LV_COLOR_DEPTH != 1
 826              		.loc 2 461 5 view .LVU221
 464:Middlewares/lvgl/src/widgets/../core/../misc/lv_color.h ****                                         (255 - mix) + LV_COLOR_MIX_ROUND_OFS));
 827              		.loc 2 464 5 view .LVU222
 828 00a6 019B     		ldr	r3, [sp, #4]
 829 00a8 C3F3C421 		ubfx	r1, r3, #11, #5
 830              	.LVL77:
 464:Middlewares/lvgl/src/widgets/../core/../misc/lv_color.h ****                                         (255 - mix) + LV_COLOR_MIX_ROUND_OFS));
 831              		.loc 2 464 5 is_stmt 0 view .LVU223
 832 00ac C7F3C422 		ubfx	r2, r7, #11, #5
 833 00b0 C5F1FF03 		rsb	r3, r5, #255
 834 00b4 03FB02F2 		mul	r2, r3, r2
 835 00b8 05FB0122 		mla	r2, r5, r1, r2
 836 00bc 8032     		adds	r2, r2, #128
 837 00be 02EB0221 		add	r1, r2, r2, lsl #8
 838 00c2 02EBC112 		add	r2, r2, r1, lsl #7
 839 00c6 C2F3C452 		ubfx	r2, r2, #23, #5
 840 00ca 4FF00000 		mov	r0, #0	@ movhi
 841              	.LVL78:
 464:Middlewares/lvgl/src/widgets/../core/../misc/lv_color.h ****                                         (255 - mix) + LV_COLOR_MIX_ROUND_OFS));
 842              		.loc 2 464 5 view .LVU224
 843 00ce 62F3CF20 		bfi	r0, r2, #11, #5
 844              	.LVL79:
 466:Middlewares/lvgl/src/widgets/../core/../misc/lv_color.h ****                                         (255 - mix) + LV_COLOR_MIX_ROUND_OFS));
 845              		.loc 2 466 5 is_stmt 1 view .LVU225
 846 00d2 019A     		ldr	r2, [sp, #4]
 847 00d4 C2F34511 		ubfx	r1, r2, #5, #6
 848 00d8 C7F34512 		ubfx	r2, r7, #5, #6
 849 00dc 03FB02F2 		mul	r2, r3, r2
 850 00e0 01FB0522 		mla	r2, r1, r5, r2
 851 00e4 8032     		adds	r2, r2, #128
 852 00e6 02EB0221 		add	r1, r2, r2, lsl #8
 853 00ea 02EBC112 		add	r2, r2, r1, lsl #7
 854 00ee C2F3C552 		ubfx	r2, r2, #23, #6
 855 00f2 62F34A10 		bfi	r0, r2, #5, #6
 468:Middlewares/lvgl/src/widgets/../core/../misc/lv_color.h ****                                         (255 - mix) + LV_COLOR_MIX_ROUND_OFS));
ARM GAS  /tmp/ccdxwQT7.s 			page 49


 856              		.loc 2 468 5 view .LVU226
 857 00f6 019A     		ldr	r2, [sp, #4]
 858 00f8 02F01F02 		and	r2, r2, #31
 859 00fc 07F01F07 		and	r7, r7, #31
 860              	.LVL80:
 468:Middlewares/lvgl/src/widgets/../core/../misc/lv_color.h ****                                         (255 - mix) + LV_COLOR_MIX_ROUND_OFS));
 861              		.loc 2 468 5 is_stmt 0 view .LVU227
 862 0100 07FB03F3 		mul	r3, r7, r3
 863 0104 02FB0535 		mla	r5, r2, r5, r3
 864              	.LVL81:
 468:Middlewares/lvgl/src/widgets/../core/../misc/lv_color.h ****                                         (255 - mix) + LV_COLOR_MIX_ROUND_OFS));
 865              		.loc 2 468 5 view .LVU228
 866 0108 8035     		adds	r5, r5, #128
 867 010a 05EB0523 		add	r3, r5, r5, lsl #8
 868 010e 05EBC315 		add	r5, r5, r3, lsl #7
 869 0112 C5F3C455 		ubfx	r5, r5, #23, #5
 870 0116 65F30400 		bfi	r0, r5, #0, #5
 470:Middlewares/lvgl/src/widgets/../core/../misc/lv_color.h **** #else
 871              		.loc 2 470 5 is_stmt 1 view .LVU229
 470:Middlewares/lvgl/src/widgets/../core/../misc/lv_color.h **** #else
 872              		.loc 2 470 5 view .LVU230
 470:Middlewares/lvgl/src/widgets/../core/../misc/lv_color.h **** #else
 873              		.loc 2 470 5 view .LVU231
 476:Middlewares/lvgl/src/widgets/../core/../misc/lv_color.h **** }
 874              		.loc 2 476 5 view .LVU232
 476:Middlewares/lvgl/src/widgets/../core/../misc/lv_color.h **** }
 875              		.loc 2 476 5 is_stmt 0 view .LVU233
 876              	.LBE92:
 877              	.LBE91:
 551:Middlewares/lvgl/src/widgets/../core/../misc/lv_color.h ****         *res_opa = LV_OPA_COVER;
 878              		.loc 2 551 22 view .LVU234
 879 011a 0746     		mov	r7, r0	@ movhi
 552:Middlewares/lvgl/src/widgets/../core/../misc/lv_color.h ****     }
 880              		.loc 2 552 9 is_stmt 1 view .LVU235
 881              	.LVL82:
 552:Middlewares/lvgl/src/widgets/../core/../misc/lv_color.h ****     }
 882              		.loc 2 552 18 is_stmt 0 view .LVU236
 883 011c FF25     		movs	r5, #255
 884 011e AFE7     		b	.L42
 885              	.LVL83:
 886              	.L44:
 887              	.LBB93:
 557:Middlewares/lvgl/src/widgets/../core/../misc/lv_color.h ****         static lv_opa_t bg_opa_save     = 0;
 888              		.loc 2 557 9 is_stmt 1 view .LVU237
 558:Middlewares/lvgl/src/widgets/../core/../misc/lv_color.h ****         static lv_color_t fg_color_save = _LV_COLOR_ZERO_INITIALIZER;
 889              		.loc 2 558 9 view .LVU238
 559:Middlewares/lvgl/src/widgets/../core/../misc/lv_color.h ****         static lv_color_t bg_color_save = _LV_COLOR_ZERO_INITIALIZER;
 890              		.loc 2 559 9 view .LVU239
 560:Middlewares/lvgl/src/widgets/../core/../misc/lv_color.h ****         static lv_color_t res_color_saved = _LV_COLOR_ZERO_INITIALIZER;
 891              		.loc 2 560 9 view .LVU240
 561:Middlewares/lvgl/src/widgets/../core/../misc/lv_color.h ****         static lv_opa_t res_opa_saved = 0;
 892              		.loc 2 561 9 view .LVU241
 562:Middlewares/lvgl/src/widgets/../core/../misc/lv_color.h **** 
 893              		.loc 2 562 9 view .LVU242
 564:Middlewares/lvgl/src/widgets/../core/../misc/lv_color.h ****            bg_color.full != bg_color_save.full) {
 894              		.loc 2 564 9 view .LVU243
 564:Middlewares/lvgl/src/widgets/../core/../misc/lv_color.h ****            bg_color.full != bg_color_save.full) {
ARM GAS  /tmp/ccdxwQT7.s 			page 50


 895              		.loc 2 564 19 is_stmt 0 view .LVU244
 896 0120 394B     		ldr	r3, .L52
 897 0122 1B78     		ldrb	r3, [r3]	@ zero_extendqisi2
 564:Middlewares/lvgl/src/widgets/../core/../misc/lv_color.h ****            bg_color.full != bg_color_save.full) {
 898              		.loc 2 564 11 view .LVU245
 899 0124 9D42     		cmp	r5, r3
 900 0126 18D0     		beq	.L51
 901              	.LVL84:
 902              	.L45:
 903              	.LBB94:
 566:Middlewares/lvgl/src/widgets/../core/../misc/lv_color.h ****             bg_opa_save        = bg_opa;
 904              		.loc 2 566 13 is_stmt 1 view .LVU246
 566:Middlewares/lvgl/src/widgets/../core/../misc/lv_color.h ****             bg_opa_save        = bg_opa;
 905              		.loc 2 566 32 is_stmt 0 view .LVU247
 906 0128 374B     		ldr	r3, .L52
 907 012a 1D70     		strb	r5, [r3]
 567:Middlewares/lvgl/src/widgets/../core/../misc/lv_color.h ****             fg_color_save.full = fg_color.full;
 908              		.loc 2 567 13 is_stmt 1 view .LVU248
 567:Middlewares/lvgl/src/widgets/../core/../misc/lv_color.h ****             fg_color_save.full = fg_color.full;
 909              		.loc 2 567 32 is_stmt 0 view .LVU249
 910 012c 374B     		ldr	r3, .L52+4
 911 012e 1870     		strb	r0, [r3]
 568:Middlewares/lvgl/src/widgets/../core/../misc/lv_color.h ****             bg_color_save.full = bg_color.full;
 912              		.loc 2 568 13 is_stmt 1 view .LVU250
 568:Middlewares/lvgl/src/widgets/../core/../misc/lv_color.h ****             bg_color_save.full = bg_color.full;
 913              		.loc 2 568 32 is_stmt 0 view .LVU251
 914 0130 374B     		ldr	r3, .L52+8
 915 0132 BDF80420 		ldrh	r2, [sp, #4]
 916              	.LVL85:
 568:Middlewares/lvgl/src/widgets/../core/../misc/lv_color.h ****             bg_color_save.full = bg_color.full;
 917              		.loc 2 568 32 view .LVU252
 918 0136 1A80     		strh	r2, [r3]	@ movhi
 569:Middlewares/lvgl/src/widgets/../core/../misc/lv_color.h ****             /*Info:
 919              		.loc 2 569 13 is_stmt 1 view .LVU253
 569:Middlewares/lvgl/src/widgets/../core/../misc/lv_color.h ****             /*Info:
 920              		.loc 2 569 32 is_stmt 0 view .LVU254
 921 0138 364B     		ldr	r3, .L52+12
 922 013a 1F80     		strh	r7, [r3]	@ movhi
 572:Middlewares/lvgl/src/widgets/../core/../misc/lv_color.h ****             if(res_opa_saved == 0) {
 923              		.loc 2 572 13 is_stmt 1 view .LVU255
 572:Middlewares/lvgl/src/widgets/../core/../misc/lv_color.h ****             if(res_opa_saved == 0) {
 924              		.loc 2 572 47 is_stmt 0 view .LVU256
 925 013c ADB2     		uxth	r5, r5
 926              	.LVL86:
 572:Middlewares/lvgl/src/widgets/../core/../misc/lv_color.h ****             if(res_opa_saved == 0) {
 927              		.loc 2 572 47 view .LVU257
 928 013e C5F1FF02 		rsb	r2, r5, #255
 929              	.LVL87:
 572:Middlewares/lvgl/src/widgets/../core/../misc/lv_color.h ****             if(res_opa_saved == 0) {
 930              		.loc 2 572 79 view .LVU258
 931 0142 C0F1FF03 		rsb	r3, r0, #255
 572:Middlewares/lvgl/src/widgets/../core/../misc/lv_color.h ****             if(res_opa_saved == 0) {
 932              		.loc 2 572 36 view .LVU259
 933 0146 13FB02F3 		smulbb	r3, r3, r2
 572:Middlewares/lvgl/src/widgets/../core/../misc/lv_color.h ****             if(res_opa_saved == 0) {
 934              		.loc 2 572 33 view .LVU260
 935 014a C3F30723 		ubfx	r3, r3, #8, #8
ARM GAS  /tmp/ccdxwQT7.s 			page 51


 936 014e DB43     		mvns	r3, r3
 937 0150 DBB2     		uxtb	r3, r3
 572:Middlewares/lvgl/src/widgets/../core/../misc/lv_color.h ****             if(res_opa_saved == 0) {
 938              		.loc 2 572 27 view .LVU261
 939 0152 314A     		ldr	r2, .L52+16
 940 0154 1370     		strb	r3, [r2]
 573:Middlewares/lvgl/src/widgets/../core/../misc/lv_color.h ****                 while(1)
 941              		.loc 2 573 13 is_stmt 1 view .LVU262
 573:Middlewares/lvgl/src/widgets/../core/../misc/lv_color.h ****                 while(1)
 942              		.loc 2 573 15 is_stmt 0 view .LVU263
 943 0156 83B9     		cbnz	r3, .L47
 944              	.L48:
 574:Middlewares/lvgl/src/widgets/../core/../misc/lv_color.h ****                     ;
 945              		.loc 2 574 17 is_stmt 1 view .LVU264
 575:Middlewares/lvgl/src/widgets/../core/../misc/lv_color.h ****             }
 946              		.loc 2 575 21 view .LVU265
 574:Middlewares/lvgl/src/widgets/../core/../misc/lv_color.h ****                     ;
 947              		.loc 2 574 22 view .LVU266
 948 0158 FEE7     		b	.L48
 949              	.LVL88:
 950              	.L51:
 574:Middlewares/lvgl/src/widgets/../core/../misc/lv_color.h ****                     ;
 951              		.loc 2 574 22 is_stmt 0 view .LVU267
 952              	.LBE94:
 564:Middlewares/lvgl/src/widgets/../core/../misc/lv_color.h ****            bg_color.full != bg_color_save.full) {
 953              		.loc 2 564 44 view .LVU268
 954 015a 2C4B     		ldr	r3, .L52+4
 955 015c 1B78     		ldrb	r3, [r3]	@ zero_extendqisi2
 564:Middlewares/lvgl/src/widgets/../core/../misc/lv_color.h ****            bg_color.full != bg_color_save.full) {
 956              		.loc 2 564 34 view .LVU269
 957 015e 9842     		cmp	r0, r3
 958 0160 E2D1     		bne	.L45
 564:Middlewares/lvgl/src/widgets/../core/../misc/lv_color.h ****            bg_color.full != bg_color_save.full) {
 959              		.loc 2 564 70 view .LVU270
 960 0162 BDF80420 		ldrh	r2, [sp, #4]
 564:Middlewares/lvgl/src/widgets/../core/../misc/lv_color.h ****            bg_color.full != bg_color_save.full) {
 961              		.loc 2 564 92 view .LVU271
 962 0166 2A4B     		ldr	r3, .L52+8
 963 0168 1B88     		ldrh	r3, [r3]
 564:Middlewares/lvgl/src/widgets/../core/../misc/lv_color.h ****            bg_color.full != bg_color_save.full) {
 964              		.loc 2 564 59 view .LVU272
 965 016a 9A42     		cmp	r2, r3
 966 016c DCD1     		bne	.L45
 967              	.LVL89:
 565:Middlewares/lvgl/src/widgets/../core/../misc/lv_color.h ****             fg_opa_save        = fg_opa;
 968              		.loc 2 565 20 view .LVU273
 969 016e BBB2     		uxth	r3, r7
 565:Middlewares/lvgl/src/widgets/../core/../misc/lv_color.h ****             fg_opa_save        = fg_opa;
 970              		.loc 2 565 42 view .LVU274
 971 0170 284A     		ldr	r2, .L52+12
 972 0172 1288     		ldrh	r2, [r2]
 564:Middlewares/lvgl/src/widgets/../core/../misc/lv_color.h ****            bg_color.full != bg_color_save.full) {
 973              		.loc 2 564 98 view .LVU275
 974 0174 9342     		cmp	r3, r2
 975 0176 D7D1     		bne	.L45
 976 0178 41E0     		b	.L46
 977              	.LVL90:
ARM GAS  /tmp/ccdxwQT7.s 			page 52


 978              	.L47:
 979              	.LBB97:
 577:Middlewares/lvgl/src/widgets/../core/../misc/lv_color.h ****             res_color_saved = lv_color_mix(fg_color, bg_color, ratio);
 980              		.loc 2 577 13 is_stmt 1 view .LVU276
 577:Middlewares/lvgl/src/widgets/../core/../misc/lv_color.h ****             res_color_saved = lv_color_mix(fg_color, bg_color, ratio);
 981              		.loc 2 577 30 is_stmt 0 view .LVU277
 982 017a C5EB0525 		rsb	r5, r5, r5, lsl #8
 983 017e AAB2     		uxth	r2, r5
 577:Middlewares/lvgl/src/widgets/../core/../misc/lv_color.h ****             res_color_saved = lv_color_mix(fg_color, bg_color, ratio);
 984              		.loc 2 577 65 view .LVU278
 985 0180 92FBF3F3 		sdiv	r3, r2, r3
 577:Middlewares/lvgl/src/widgets/../core/../misc/lv_color.h ****             res_color_saved = lv_color_mix(fg_color, bg_color, ratio);
 986              		.loc 2 577 22 view .LVU279
 987 0184 DAB2     		uxtb	r2, r3
 988              	.LVL91:
 578:Middlewares/lvgl/src/widgets/../core/../misc/lv_color.h **** 
 989              		.loc 2 578 13 is_stmt 1 view .LVU280
 990              	.LBB95:
 991              	.LBI95:
 459:Middlewares/lvgl/src/widgets/../core/../misc/lv_color.h **** {
 992              		.loc 2 459 48 view .LVU281
 993              	.LBB96:
 461:Middlewares/lvgl/src/widgets/../core/../misc/lv_color.h **** #if LV_COLOR_DEPTH != 1
 994              		.loc 2 461 5 view .LVU282
 464:Middlewares/lvgl/src/widgets/../core/../misc/lv_color.h ****                                         (255 - mix) + LV_COLOR_MIX_ROUND_OFS));
 995              		.loc 2 464 5 view .LVU283
 996 0186 019B     		ldr	r3, [sp, #4]
 997 0188 C3F3C420 		ubfx	r0, r3, #11, #5
 998              	.LVL92:
 464:Middlewares/lvgl/src/widgets/../core/../misc/lv_color.h ****                                         (255 - mix) + LV_COLOR_MIX_ROUND_OFS));
 999              		.loc 2 464 5 is_stmt 0 view .LVU284
 1000 018c C7F3C423 		ubfx	r3, r7, #11, #5
 1001 0190 C2F1FF01 		rsb	r1, r2, #255
 1002 0194 01FB03F3 		mul	r3, r1, r3
 1003 0198 02FB0033 		mla	r3, r2, r0, r3
 1004 019c 8033     		adds	r3, r3, #128
 1005 019e 03EB0320 		add	r0, r3, r3, lsl #8
 1006 01a2 03EBC013 		add	r3, r3, r0, lsl #7
 1007 01a6 C3F3C453 		ubfx	r3, r3, #23, #5
 1008 01aa 4FF00000 		mov	r0, #0	@ movhi
 464:Middlewares/lvgl/src/widgets/../core/../misc/lv_color.h ****                                         (255 - mix) + LV_COLOR_MIX_ROUND_OFS));
 1009              		.loc 2 464 5 view .LVU285
 1010 01ae 63F3CF20 		bfi	r0, r3, #11, #5
 1011              	.LVL93:
 466:Middlewares/lvgl/src/widgets/../core/../misc/lv_color.h ****                                         (255 - mix) + LV_COLOR_MIX_ROUND_OFS));
 1012              		.loc 2 466 5 is_stmt 1 view .LVU286
 1013 01b2 019B     		ldr	r3, [sp, #4]
 1014 01b4 C3F34515 		ubfx	r5, r3, #5, #6
 1015 01b8 C7F34513 		ubfx	r3, r7, #5, #6
 1016 01bc 01FB03F3 		mul	r3, r1, r3
 1017 01c0 05FB0233 		mla	r3, r5, r2, r3
 1018 01c4 8033     		adds	r3, r3, #128
 1019 01c6 03EB0325 		add	r5, r3, r3, lsl #8
 1020 01ca 03EBC513 		add	r3, r3, r5, lsl #7
 1021 01ce C3F3C553 		ubfx	r3, r3, #23, #6
 1022 01d2 63F34A10 		bfi	r0, r3, #5, #6
 468:Middlewares/lvgl/src/widgets/../core/../misc/lv_color.h ****                                         (255 - mix) + LV_COLOR_MIX_ROUND_OFS));
ARM GAS  /tmp/ccdxwQT7.s 			page 53


 1023              		.loc 2 468 5 view .LVU287
 1024 01d6 019B     		ldr	r3, [sp, #4]
 1025 01d8 03F01F03 		and	r3, r3, #31
 1026 01dc 07F01F07 		and	r7, r7, #31
 1027              	.LVL94:
 468:Middlewares/lvgl/src/widgets/../core/../misc/lv_color.h ****                                         (255 - mix) + LV_COLOR_MIX_ROUND_OFS));
 1028              		.loc 2 468 5 is_stmt 0 view .LVU288
 1029 01e0 01FB07F7 		mul	r7, r1, r7
 1030 01e4 03FB0273 		mla	r3, r3, r2, r7
 1031 01e8 8033     		adds	r3, r3, #128
 1032 01ea 03EB0322 		add	r2, r3, r3, lsl #8
 1033              	.LVL95:
 468:Middlewares/lvgl/src/widgets/../core/../misc/lv_color.h ****                                         (255 - mix) + LV_COLOR_MIX_ROUND_OFS));
 1034              		.loc 2 468 5 view .LVU289
 1035 01ee 03EBC213 		add	r3, r3, r2, lsl #7
 1036 01f2 C3F3C453 		ubfx	r3, r3, #23, #5
 1037 01f6 63F30400 		bfi	r0, r3, #0, #5
 470:Middlewares/lvgl/src/widgets/../core/../misc/lv_color.h **** #else
 1038              		.loc 2 470 5 is_stmt 1 view .LVU290
 470:Middlewares/lvgl/src/widgets/../core/../misc/lv_color.h **** #else
 1039              		.loc 2 470 5 view .LVU291
 470:Middlewares/lvgl/src/widgets/../core/../misc/lv_color.h **** #else
 1040              		.loc 2 470 5 view .LVU292
 476:Middlewares/lvgl/src/widgets/../core/../misc/lv_color.h **** }
 1041              		.loc 2 476 5 view .LVU293
 476:Middlewares/lvgl/src/widgets/../core/../misc/lv_color.h **** }
 1042              		.loc 2 476 5 is_stmt 0 view .LVU294
 1043              	.LBE96:
 1044              	.LBE95:
 578:Middlewares/lvgl/src/widgets/../core/../misc/lv_color.h **** 
 1045              		.loc 2 578 31 view .LVU295
 1046 01fa 084B     		ldr	r3, .L52+20
 1047 01fc 1880     		strh	r0, [r3]	@ movhi
 1048              	.LVL96:
 1049              	.L46:
 578:Middlewares/lvgl/src/widgets/../core/../misc/lv_color.h **** 
 1050              		.loc 2 578 31 view .LVU296
 1051              	.LBE97:
 582:Middlewares/lvgl/src/widgets/../core/../misc/lv_color.h ****         *res_opa = res_opa_saved;
 1052              		.loc 2 582 9 is_stmt 1 view .LVU297
 582:Middlewares/lvgl/src/widgets/../core/../misc/lv_color.h ****         *res_opa = res_opa_saved;
 1053              		.loc 2 582 25 is_stmt 0 view .LVU298
 1054 01fe 074B     		ldr	r3, .L52+20
 1055 0200 1F88     		ldrh	r7, [r3]
 1056              	.LVL97:
 583:Middlewares/lvgl/src/widgets/../core/../misc/lv_color.h ****     }
 1057              		.loc 2 583 9 is_stmt 1 view .LVU299
 583:Middlewares/lvgl/src/widgets/../core/../misc/lv_color.h ****     }
 1058              		.loc 2 583 18 is_stmt 0 view .LVU300
 1059 0202 054B     		ldr	r3, .L52+16
 1060 0204 1D78     		ldrb	r5, [r3]	@ zero_extendqisi2
 1061              	.LVL98:
 583:Middlewares/lvgl/src/widgets/../core/../misc/lv_color.h ****     }
 1062              		.loc 2 583 18 view .LVU301
 1063 0206 3BE7     		b	.L42
 1064              	.L53:
 1065              		.align	2
ARM GAS  /tmp/ccdxwQT7.s 			page 54


 1066              	.L52:
 1067 0208 00000000 		.word	.LANCHOR0
 1068 020c 00000000 		.word	.LANCHOR1
 1069 0210 00000000 		.word	.LANCHOR2
 1070 0214 00000000 		.word	.LANCHOR3
 1071 0218 00000000 		.word	.LANCHOR4
 1072 021c 00000000 		.word	.LANCHOR5
 1073              	.LBE93:
 1074              	.LBE98:
 1075              	.LBE99:
 1076              		.cfi_endproc
 1077              	.LFE171:
 1079              		.section	.text.lv_canvas_create,"ax",%progbits
 1080              		.align	1
 1081              		.global	lv_canvas_create
 1082              		.syntax unified
 1083              		.thumb
 1084              		.thumb_func
 1086              	lv_canvas_create:
 1087              	.LVL99:
 1088              	.LFB147:
  68:Middlewares/lvgl/src/widgets/lv_canvas.c ****     LV_LOG_INFO("begin")
 1089              		.loc 1 68 1 is_stmt 1 view -0
 1090              		.cfi_startproc
 1091              		@ args = 0, pretend = 0, frame = 0
 1092              		@ frame_needed = 0, uses_anonymous_args = 0
  68:Middlewares/lvgl/src/widgets/lv_canvas.c ****     LV_LOG_INFO("begin")
 1093              		.loc 1 68 1 is_stmt 0 view .LVU303
 1094 0000 10B5     		push	{r4, lr}
 1095              	.LCFI22:
 1096              		.cfi_def_cfa_offset 8
 1097              		.cfi_offset 4, -8
 1098              		.cfi_offset 14, -4
 1099 0002 0146     		mov	r1, r0
  70:Middlewares/lvgl/src/widgets/lv_canvas.c ****     lv_obj_class_init_obj(obj);
 1100              		.loc 1 70 5 is_stmt 1 view .LVU304
  70:Middlewares/lvgl/src/widgets/lv_canvas.c ****     lv_obj_class_init_obj(obj);
 1101              		.loc 1 70 22 is_stmt 0 view .LVU305
 1102 0004 0348     		ldr	r0, .L56
 1103              	.LVL100:
  70:Middlewares/lvgl/src/widgets/lv_canvas.c ****     lv_obj_class_init_obj(obj);
 1104              		.loc 1 70 22 view .LVU306
 1105 0006 FFF7FEFF 		bl	lv_obj_class_create_obj
 1106              	.LVL101:
  70:Middlewares/lvgl/src/widgets/lv_canvas.c ****     lv_obj_class_init_obj(obj);
 1107              		.loc 1 70 22 view .LVU307
 1108 000a 0446     		mov	r4, r0
 1109              	.LVL102:
  71:Middlewares/lvgl/src/widgets/lv_canvas.c ****     return obj;
 1110              		.loc 1 71 5 is_stmt 1 view .LVU308
 1111 000c FFF7FEFF 		bl	lv_obj_class_init_obj
 1112              	.LVL103:
  72:Middlewares/lvgl/src/widgets/lv_canvas.c **** }
 1113              		.loc 1 72 5 view .LVU309
  73:Middlewares/lvgl/src/widgets/lv_canvas.c **** 
 1114              		.loc 1 73 1 is_stmt 0 view .LVU310
 1115 0010 2046     		mov	r0, r4
ARM GAS  /tmp/ccdxwQT7.s 			page 55


 1116 0012 10BD     		pop	{r4, pc}
 1117              	.LVL104:
 1118              	.L57:
  73:Middlewares/lvgl/src/widgets/lv_canvas.c **** 
 1119              		.loc 1 73 1 view .LVU311
 1120              		.align	2
 1121              	.L56:
 1122 0014 00000000 		.word	.LANCHOR6
 1123              		.cfi_endproc
 1124              	.LFE147:
 1126              		.section	.text.lv_canvas_set_buffer,"ax",%progbits
 1127              		.align	1
 1128              		.global	lv_canvas_set_buffer
 1129              		.syntax unified
 1130              		.thumb
 1131              		.thumb_func
 1133              	lv_canvas_set_buffer:
 1134              	.LVL105:
 1135              	.LFB148:
  80:Middlewares/lvgl/src/widgets/lv_canvas.c ****     LV_ASSERT_OBJ(obj, MY_CLASS);
 1136              		.loc 1 80 1 is_stmt 1 view -0
 1137              		.cfi_startproc
 1138              		@ args = 4, pretend = 0, frame = 0
 1139              		@ frame_needed = 0, uses_anonymous_args = 0
  81:Middlewares/lvgl/src/widgets/lv_canvas.c ****     LV_ASSERT_NULL(buf);
 1140              		.loc 1 81 5 view .LVU313
  81:Middlewares/lvgl/src/widgets/lv_canvas.c ****     LV_ASSERT_NULL(buf);
 1141              		.loc 1 81 5 view .LVU314
  81:Middlewares/lvgl/src/widgets/lv_canvas.c ****     LV_ASSERT_NULL(buf);
 1142              		.loc 1 81 5 view .LVU315
  82:Middlewares/lvgl/src/widgets/lv_canvas.c **** 
 1143              		.loc 1 82 5 view .LVU316
  82:Middlewares/lvgl/src/widgets/lv_canvas.c **** 
 1144              		.loc 1 82 5 view .LVU317
 1145 0000 B9B1     		cbz	r1, .L60
  80:Middlewares/lvgl/src/widgets/lv_canvas.c ****     LV_ASSERT_OBJ(obj, MY_CLASS);
 1146              		.loc 1 80 1 is_stmt 0 discriminator 2 view .LVU318
 1147 0002 10B5     		push	{r4, lr}
 1148              	.LCFI23:
 1149              		.cfi_def_cfa_offset 8
 1150              		.cfi_offset 4, -8
 1151              		.cfi_offset 14, -4
 1152 0004 0C46     		mov	r4, r1
  82:Middlewares/lvgl/src/widgets/lv_canvas.c **** 
 1153              		.loc 1 82 5 is_stmt 1 discriminator 2 view .LVU319
  82:Middlewares/lvgl/src/widgets/lv_canvas.c **** 
 1154              		.loc 1 82 24 discriminator 2 view .LVU320
  84:Middlewares/lvgl/src/widgets/lv_canvas.c **** 
 1155              		.loc 1 84 5 discriminator 2 view .LVU321
 1156              	.LVL106:
  86:Middlewares/lvgl/src/widgets/lv_canvas.c ****     canvas->dsc.header.w  = w;
 1157              		.loc 1 86 5 discriminator 2 view .LVU322
  86:Middlewares/lvgl/src/widgets/lv_canvas.c ****     canvas->dsc.header.w  = w;
 1158              		.loc 1 86 27 is_stmt 0 discriminator 2 view .LVU323
 1159 0006 90F83C10 		ldrb	r1, [r0, #60]	@ zero_extendqisi2
 1160              	.LVL107:
  86:Middlewares/lvgl/src/widgets/lv_canvas.c ****     canvas->dsc.header.w  = w;
ARM GAS  /tmp/ccdxwQT7.s 			page 56


 1161              		.loc 1 86 27 discriminator 2 view .LVU324
 1162 000a 9DF808C0 		ldrb	ip, [sp, #8]	@ zero_extendqisi2
 1163 000e 6CF30401 		bfi	r1, ip, #0, #5
 1164 0012 80F83C10 		strb	r1, [r0, #60]
  87:Middlewares/lvgl/src/widgets/lv_canvas.c ****     canvas->dsc.header.h  = h;
 1165              		.loc 1 87 5 is_stmt 1 discriminator 2 view .LVU325
  87:Middlewares/lvgl/src/widgets/lv_canvas.c ****     canvas->dsc.header.h  = h;
 1166              		.loc 1 87 27 is_stmt 0 discriminator 2 view .LVU326
 1167 0016 C16B     		ldr	r1, [r0, #60]
 1168 0018 62F39421 		bfi	r1, r2, #10, #11
 1169 001c C163     		str	r1, [r0, #60]
 1170              	.LVL108:
  88:Middlewares/lvgl/src/widgets/lv_canvas.c ****     canvas->dsc.data      = buf;
 1171              		.loc 1 88 5 is_stmt 1 discriminator 2 view .LVU327
  88:Middlewares/lvgl/src/widgets/lv_canvas.c ****     canvas->dsc.data      = buf;
 1172              		.loc 1 88 27 is_stmt 0 discriminator 2 view .LVU328
 1173 001e C28F     		ldrh	r2, [r0, #62]
 1174              	.LVL109:
  88:Middlewares/lvgl/src/widgets/lv_canvas.c ****     canvas->dsc.data      = buf;
 1175              		.loc 1 88 27 discriminator 2 view .LVU329
 1176 0020 63F34F12 		bfi	r2, r3, #5, #11
 1177              	.LVL110:
  88:Middlewares/lvgl/src/widgets/lv_canvas.c ****     canvas->dsc.data      = buf;
 1178              		.loc 1 88 27 discriminator 2 view .LVU330
 1179 0024 C287     		strh	r2, [r0, #62]	@ movhi
  89:Middlewares/lvgl/src/widgets/lv_canvas.c **** 
 1180              		.loc 1 89 5 is_stmt 1 discriminator 2 view .LVU331
  89:Middlewares/lvgl/src/widgets/lv_canvas.c **** 
 1181              		.loc 1 89 27 is_stmt 0 discriminator 2 view .LVU332
 1182 0026 4464     		str	r4, [r0, #68]
  91:Middlewares/lvgl/src/widgets/lv_canvas.c **** }
 1183              		.loc 1 91 5 is_stmt 1 discriminator 2 view .LVU333
 1184 0028 00F13C01 		add	r1, r0, #60
 1185 002c FFF7FEFF 		bl	lv_img_set_src
 1186              	.LVL111:
  92:Middlewares/lvgl/src/widgets/lv_canvas.c **** 
 1187              		.loc 1 92 1 is_stmt 0 discriminator 2 view .LVU334
 1188 0030 10BD     		pop	{r4, pc}
 1189              	.LVL112:
 1190              	.L60:
 1191              	.LCFI24:
 1192              		.cfi_def_cfa_offset 0
 1193              		.cfi_restore 4
 1194              		.cfi_restore 14
  82:Middlewares/lvgl/src/widgets/lv_canvas.c **** 
 1195              		.loc 1 82 5 is_stmt 1 discriminator 1 view .LVU335
  82:Middlewares/lvgl/src/widgets/lv_canvas.c **** 
 1196              		.loc 1 82 5 discriminator 1 view .LVU336
  82:Middlewares/lvgl/src/widgets/lv_canvas.c **** 
 1197              		.loc 1 82 5 discriminator 1 view .LVU337
  82:Middlewares/lvgl/src/widgets/lv_canvas.c **** 
 1198              		.loc 1 82 5 discriminator 1 view .LVU338
 1199 0032 FEE7     		b	.L60
 1200              		.cfi_endproc
 1201              	.LFE148:
 1203              		.section	.text.lv_canvas_set_px,"ax",%progbits
 1204              		.align	1
ARM GAS  /tmp/ccdxwQT7.s 			page 57


 1205              		.global	lv_canvas_set_px
 1206              		.syntax unified
 1207              		.thumb
 1208              		.thumb_func
 1210              	lv_canvas_set_px:
 1211              	.LVL113:
 1212              	.LFB149:
  95:Middlewares/lvgl/src/widgets/lv_canvas.c ****     LV_ASSERT_OBJ(obj, MY_CLASS);
 1213              		.loc 1 95 1 view -0
 1214              		.cfi_startproc
 1215              		@ args = 0, pretend = 0, frame = 0
 1216              		@ frame_needed = 0, uses_anonymous_args = 0
  95:Middlewares/lvgl/src/widgets/lv_canvas.c ****     LV_ASSERT_OBJ(obj, MY_CLASS);
 1217              		.loc 1 95 1 is_stmt 0 view .LVU340
 1218 0000 10B5     		push	{r4, lr}
 1219              	.LCFI25:
 1220              		.cfi_def_cfa_offset 8
 1221              		.cfi_offset 4, -8
 1222              		.cfi_offset 14, -4
 1223 0002 0446     		mov	r4, r0
  96:Middlewares/lvgl/src/widgets/lv_canvas.c **** 
 1224              		.loc 1 96 5 is_stmt 1 view .LVU341
  96:Middlewares/lvgl/src/widgets/lv_canvas.c **** 
 1225              		.loc 1 96 5 view .LVU342
  96:Middlewares/lvgl/src/widgets/lv_canvas.c **** 
 1226              		.loc 1 96 5 view .LVU343
  98:Middlewares/lvgl/src/widgets/lv_canvas.c **** 
 1227              		.loc 1 98 5 view .LVU344
 1228              	.LVL114:
 100:Middlewares/lvgl/src/widgets/lv_canvas.c ****     lv_obj_invalidate(obj);
 1229              		.loc 1 100 5 view .LVU345
 1230 0004 3C30     		adds	r0, r0, #60
 1231              	.LVL115:
 100:Middlewares/lvgl/src/widgets/lv_canvas.c ****     lv_obj_invalidate(obj);
 1232              		.loc 1 100 5 is_stmt 0 view .LVU346
 1233 0006 FFF7FEFF 		bl	lv_img_buf_set_px_color
 1234              	.LVL116:
 101:Middlewares/lvgl/src/widgets/lv_canvas.c **** }
 1235              		.loc 1 101 5 is_stmt 1 view .LVU347
 1236 000a 2046     		mov	r0, r4
 1237 000c FFF7FEFF 		bl	lv_obj_invalidate
 1238              	.LVL117:
 102:Middlewares/lvgl/src/widgets/lv_canvas.c **** 
 1239              		.loc 1 102 1 is_stmt 0 view .LVU348
 1240 0010 10BD     		pop	{r4, pc}
 102:Middlewares/lvgl/src/widgets/lv_canvas.c **** 
 1241              		.loc 1 102 1 view .LVU349
 1242              		.cfi_endproc
 1243              	.LFE149:
 1245              		.section	.text.lv_canvas_set_palette,"ax",%progbits
 1246              		.align	1
 1247              		.global	lv_canvas_set_palette
 1248              		.syntax unified
 1249              		.thumb
 1250              		.thumb_func
 1252              	lv_canvas_set_palette:
 1253              	.LVL118:
ARM GAS  /tmp/ccdxwQT7.s 			page 58


 1254              	.LFB150:
 105:Middlewares/lvgl/src/widgets/lv_canvas.c ****     LV_ASSERT_OBJ(obj, MY_CLASS);
 1255              		.loc 1 105 1 is_stmt 1 view -0
 1256              		.cfi_startproc
 1257              		@ args = 0, pretend = 0, frame = 0
 1258              		@ frame_needed = 0, uses_anonymous_args = 0
 105:Middlewares/lvgl/src/widgets/lv_canvas.c ****     LV_ASSERT_OBJ(obj, MY_CLASS);
 1259              		.loc 1 105 1 is_stmt 0 view .LVU351
 1260 0000 10B5     		push	{r4, lr}
 1261              	.LCFI26:
 1262              		.cfi_def_cfa_offset 8
 1263              		.cfi_offset 4, -8
 1264              		.cfi_offset 14, -4
 1265 0002 0446     		mov	r4, r0
 106:Middlewares/lvgl/src/widgets/lv_canvas.c **** 
 1266              		.loc 1 106 5 is_stmt 1 view .LVU352
 106:Middlewares/lvgl/src/widgets/lv_canvas.c **** 
 1267              		.loc 1 106 5 view .LVU353
 106:Middlewares/lvgl/src/widgets/lv_canvas.c **** 
 1268              		.loc 1 106 5 view .LVU354
 108:Middlewares/lvgl/src/widgets/lv_canvas.c **** 
 1269              		.loc 1 108 5 view .LVU355
 1270              	.LVL119:
 110:Middlewares/lvgl/src/widgets/lv_canvas.c ****     lv_obj_invalidate(obj);
 1271              		.loc 1 110 5 view .LVU356
 1272 0004 3C30     		adds	r0, r0, #60
 1273              	.LVL120:
 110:Middlewares/lvgl/src/widgets/lv_canvas.c ****     lv_obj_invalidate(obj);
 1274              		.loc 1 110 5 is_stmt 0 view .LVU357
 1275 0006 FFF7FEFF 		bl	lv_img_buf_set_palette
 1276              	.LVL121:
 111:Middlewares/lvgl/src/widgets/lv_canvas.c **** }
 1277              		.loc 1 111 5 is_stmt 1 view .LVU358
 1278 000a 2046     		mov	r0, r4
 1279 000c FFF7FEFF 		bl	lv_obj_invalidate
 1280              	.LVL122:
 112:Middlewares/lvgl/src/widgets/lv_canvas.c **** 
 1281              		.loc 1 112 1 is_stmt 0 view .LVU359
 1282 0010 10BD     		pop	{r4, pc}
 112:Middlewares/lvgl/src/widgets/lv_canvas.c **** 
 1283              		.loc 1 112 1 view .LVU360
 1284              		.cfi_endproc
 1285              	.LFE150:
 1287              		.section	.text.lv_canvas_get_px,"ax",%progbits
 1288              		.align	1
 1289              		.global	lv_canvas_get_px
 1290              		.syntax unified
 1291              		.thumb
 1292              		.thumb_func
 1294              	lv_canvas_get_px:
 1295              	.LVL123:
 1296              	.LFB151:
 119:Middlewares/lvgl/src/widgets/lv_canvas.c ****     LV_ASSERT_OBJ(obj, MY_CLASS);
 1297              		.loc 1 119 1 is_stmt 1 view -0
 1298              		.cfi_startproc
 1299              		@ args = 0, pretend = 0, frame = 0
 1300              		@ frame_needed = 0, uses_anonymous_args = 0
ARM GAS  /tmp/ccdxwQT7.s 			page 59


 119:Middlewares/lvgl/src/widgets/lv_canvas.c ****     LV_ASSERT_OBJ(obj, MY_CLASS);
 1301              		.loc 1 119 1 is_stmt 0 view .LVU362
 1302 0000 70B5     		push	{r4, r5, r6, lr}
 1303              	.LCFI27:
 1304              		.cfi_def_cfa_offset 16
 1305              		.cfi_offset 4, -16
 1306              		.cfi_offset 5, -12
 1307              		.cfi_offset 6, -8
 1308              		.cfi_offset 14, -4
 1309 0002 0446     		mov	r4, r0
 1310 0004 0D46     		mov	r5, r1
 1311 0006 1646     		mov	r6, r2
 120:Middlewares/lvgl/src/widgets/lv_canvas.c **** 
 1312              		.loc 1 120 5 is_stmt 1 view .LVU363
 120:Middlewares/lvgl/src/widgets/lv_canvas.c **** 
 1313              		.loc 1 120 5 view .LVU364
 120:Middlewares/lvgl/src/widgets/lv_canvas.c **** 
 1314              		.loc 1 120 5 view .LVU365
 122:Middlewares/lvgl/src/widgets/lv_canvas.c ****     lv_color_t color = lv_obj_get_style_img_recolor(obj, LV_PART_MAIN);
 1315              		.loc 1 122 5 view .LVU366
 1316              	.LVL124:
 123:Middlewares/lvgl/src/widgets/lv_canvas.c **** 
 1317              		.loc 1 123 5 view .LVU367
 1318              	.LBB100:
 1319              	.LBI100:
 1320              		.file 3 "Middlewares/lvgl/src/widgets/../core/lv_obj_style_gen.h"
   1:Middlewares/lvgl/src/widgets/../core/lv_obj_style_gen.h **** static inline lv_coord_t lv_obj_get_style_width(const struct _lv_obj_t * obj, uint32_t part)
   2:Middlewares/lvgl/src/widgets/../core/lv_obj_style_gen.h **** {
   3:Middlewares/lvgl/src/widgets/../core/lv_obj_style_gen.h ****     lv_style_value_t v = lv_obj_get_style_prop(obj, part, LV_STYLE_WIDTH);
   4:Middlewares/lvgl/src/widgets/../core/lv_obj_style_gen.h ****     return (lv_coord_t)v.num;
   5:Middlewares/lvgl/src/widgets/../core/lv_obj_style_gen.h **** }
   6:Middlewares/lvgl/src/widgets/../core/lv_obj_style_gen.h **** 
   7:Middlewares/lvgl/src/widgets/../core/lv_obj_style_gen.h **** static inline lv_coord_t lv_obj_get_style_min_width(const struct _lv_obj_t * obj, uint32_t part)
   8:Middlewares/lvgl/src/widgets/../core/lv_obj_style_gen.h **** {
   9:Middlewares/lvgl/src/widgets/../core/lv_obj_style_gen.h ****     lv_style_value_t v = lv_obj_get_style_prop(obj, part, LV_STYLE_MIN_WIDTH);
  10:Middlewares/lvgl/src/widgets/../core/lv_obj_style_gen.h ****     return (lv_coord_t)v.num;
  11:Middlewares/lvgl/src/widgets/../core/lv_obj_style_gen.h **** }
  12:Middlewares/lvgl/src/widgets/../core/lv_obj_style_gen.h **** 
  13:Middlewares/lvgl/src/widgets/../core/lv_obj_style_gen.h **** static inline lv_coord_t lv_obj_get_style_max_width(const struct _lv_obj_t * obj, uint32_t part)
  14:Middlewares/lvgl/src/widgets/../core/lv_obj_style_gen.h **** {
  15:Middlewares/lvgl/src/widgets/../core/lv_obj_style_gen.h ****     lv_style_value_t v = lv_obj_get_style_prop(obj, part, LV_STYLE_MAX_WIDTH);
  16:Middlewares/lvgl/src/widgets/../core/lv_obj_style_gen.h ****     return (lv_coord_t)v.num;
  17:Middlewares/lvgl/src/widgets/../core/lv_obj_style_gen.h **** }
  18:Middlewares/lvgl/src/widgets/../core/lv_obj_style_gen.h **** 
  19:Middlewares/lvgl/src/widgets/../core/lv_obj_style_gen.h **** static inline lv_coord_t lv_obj_get_style_height(const struct _lv_obj_t * obj, uint32_t part)
  20:Middlewares/lvgl/src/widgets/../core/lv_obj_style_gen.h **** {
  21:Middlewares/lvgl/src/widgets/../core/lv_obj_style_gen.h ****     lv_style_value_t v = lv_obj_get_style_prop(obj, part, LV_STYLE_HEIGHT);
  22:Middlewares/lvgl/src/widgets/../core/lv_obj_style_gen.h ****     return (lv_coord_t)v.num;
  23:Middlewares/lvgl/src/widgets/../core/lv_obj_style_gen.h **** }
  24:Middlewares/lvgl/src/widgets/../core/lv_obj_style_gen.h **** 
  25:Middlewares/lvgl/src/widgets/../core/lv_obj_style_gen.h **** static inline lv_coord_t lv_obj_get_style_min_height(const struct _lv_obj_t * obj, uint32_t part)
  26:Middlewares/lvgl/src/widgets/../core/lv_obj_style_gen.h **** {
  27:Middlewares/lvgl/src/widgets/../core/lv_obj_style_gen.h ****     lv_style_value_t v = lv_obj_get_style_prop(obj, part, LV_STYLE_MIN_HEIGHT);
  28:Middlewares/lvgl/src/widgets/../core/lv_obj_style_gen.h ****     return (lv_coord_t)v.num;
  29:Middlewares/lvgl/src/widgets/../core/lv_obj_style_gen.h **** }
  30:Middlewares/lvgl/src/widgets/../core/lv_obj_style_gen.h **** 
  31:Middlewares/lvgl/src/widgets/../core/lv_obj_style_gen.h **** static inline lv_coord_t lv_obj_get_style_max_height(const struct _lv_obj_t * obj, uint32_t part)
ARM GAS  /tmp/ccdxwQT7.s 			page 60


  32:Middlewares/lvgl/src/widgets/../core/lv_obj_style_gen.h **** {
  33:Middlewares/lvgl/src/widgets/../core/lv_obj_style_gen.h ****     lv_style_value_t v = lv_obj_get_style_prop(obj, part, LV_STYLE_MAX_HEIGHT);
  34:Middlewares/lvgl/src/widgets/../core/lv_obj_style_gen.h ****     return (lv_coord_t)v.num;
  35:Middlewares/lvgl/src/widgets/../core/lv_obj_style_gen.h **** }
  36:Middlewares/lvgl/src/widgets/../core/lv_obj_style_gen.h **** 
  37:Middlewares/lvgl/src/widgets/../core/lv_obj_style_gen.h **** static inline lv_coord_t lv_obj_get_style_x(const struct _lv_obj_t * obj, uint32_t part)
  38:Middlewares/lvgl/src/widgets/../core/lv_obj_style_gen.h **** {
  39:Middlewares/lvgl/src/widgets/../core/lv_obj_style_gen.h ****     lv_style_value_t v = lv_obj_get_style_prop(obj, part, LV_STYLE_X);
  40:Middlewares/lvgl/src/widgets/../core/lv_obj_style_gen.h ****     return (lv_coord_t)v.num;
  41:Middlewares/lvgl/src/widgets/../core/lv_obj_style_gen.h **** }
  42:Middlewares/lvgl/src/widgets/../core/lv_obj_style_gen.h **** 
  43:Middlewares/lvgl/src/widgets/../core/lv_obj_style_gen.h **** static inline lv_coord_t lv_obj_get_style_y(const struct _lv_obj_t * obj, uint32_t part)
  44:Middlewares/lvgl/src/widgets/../core/lv_obj_style_gen.h **** {
  45:Middlewares/lvgl/src/widgets/../core/lv_obj_style_gen.h ****     lv_style_value_t v = lv_obj_get_style_prop(obj, part, LV_STYLE_Y);
  46:Middlewares/lvgl/src/widgets/../core/lv_obj_style_gen.h ****     return (lv_coord_t)v.num;
  47:Middlewares/lvgl/src/widgets/../core/lv_obj_style_gen.h **** }
  48:Middlewares/lvgl/src/widgets/../core/lv_obj_style_gen.h **** 
  49:Middlewares/lvgl/src/widgets/../core/lv_obj_style_gen.h **** static inline lv_align_t lv_obj_get_style_align(const struct _lv_obj_t * obj, uint32_t part)
  50:Middlewares/lvgl/src/widgets/../core/lv_obj_style_gen.h **** {
  51:Middlewares/lvgl/src/widgets/../core/lv_obj_style_gen.h ****     lv_style_value_t v = lv_obj_get_style_prop(obj, part, LV_STYLE_ALIGN);
  52:Middlewares/lvgl/src/widgets/../core/lv_obj_style_gen.h ****     return (lv_align_t)v.num;
  53:Middlewares/lvgl/src/widgets/../core/lv_obj_style_gen.h **** }
  54:Middlewares/lvgl/src/widgets/../core/lv_obj_style_gen.h **** 
  55:Middlewares/lvgl/src/widgets/../core/lv_obj_style_gen.h **** static inline lv_coord_t lv_obj_get_style_transform_width(const struct _lv_obj_t * obj, uint32_t pa
  56:Middlewares/lvgl/src/widgets/../core/lv_obj_style_gen.h **** {
  57:Middlewares/lvgl/src/widgets/../core/lv_obj_style_gen.h ****     lv_style_value_t v = lv_obj_get_style_prop(obj, part, LV_STYLE_TRANSFORM_WIDTH);
  58:Middlewares/lvgl/src/widgets/../core/lv_obj_style_gen.h ****     return (lv_coord_t)v.num;
  59:Middlewares/lvgl/src/widgets/../core/lv_obj_style_gen.h **** }
  60:Middlewares/lvgl/src/widgets/../core/lv_obj_style_gen.h **** 
  61:Middlewares/lvgl/src/widgets/../core/lv_obj_style_gen.h **** static inline lv_coord_t lv_obj_get_style_transform_height(const struct _lv_obj_t * obj, uint32_t p
  62:Middlewares/lvgl/src/widgets/../core/lv_obj_style_gen.h **** {
  63:Middlewares/lvgl/src/widgets/../core/lv_obj_style_gen.h ****     lv_style_value_t v = lv_obj_get_style_prop(obj, part, LV_STYLE_TRANSFORM_HEIGHT);
  64:Middlewares/lvgl/src/widgets/../core/lv_obj_style_gen.h ****     return (lv_coord_t)v.num;
  65:Middlewares/lvgl/src/widgets/../core/lv_obj_style_gen.h **** }
  66:Middlewares/lvgl/src/widgets/../core/lv_obj_style_gen.h **** 
  67:Middlewares/lvgl/src/widgets/../core/lv_obj_style_gen.h **** static inline lv_coord_t lv_obj_get_style_translate_x(const struct _lv_obj_t * obj, uint32_t part)
  68:Middlewares/lvgl/src/widgets/../core/lv_obj_style_gen.h **** {
  69:Middlewares/lvgl/src/widgets/../core/lv_obj_style_gen.h ****     lv_style_value_t v = lv_obj_get_style_prop(obj, part, LV_STYLE_TRANSLATE_X);
  70:Middlewares/lvgl/src/widgets/../core/lv_obj_style_gen.h ****     return (lv_coord_t)v.num;
  71:Middlewares/lvgl/src/widgets/../core/lv_obj_style_gen.h **** }
  72:Middlewares/lvgl/src/widgets/../core/lv_obj_style_gen.h **** 
  73:Middlewares/lvgl/src/widgets/../core/lv_obj_style_gen.h **** static inline lv_coord_t lv_obj_get_style_translate_y(const struct _lv_obj_t * obj, uint32_t part)
  74:Middlewares/lvgl/src/widgets/../core/lv_obj_style_gen.h **** {
  75:Middlewares/lvgl/src/widgets/../core/lv_obj_style_gen.h ****     lv_style_value_t v = lv_obj_get_style_prop(obj, part, LV_STYLE_TRANSLATE_Y);
  76:Middlewares/lvgl/src/widgets/../core/lv_obj_style_gen.h ****     return (lv_coord_t)v.num;
  77:Middlewares/lvgl/src/widgets/../core/lv_obj_style_gen.h **** }
  78:Middlewares/lvgl/src/widgets/../core/lv_obj_style_gen.h **** 
  79:Middlewares/lvgl/src/widgets/../core/lv_obj_style_gen.h **** static inline lv_coord_t lv_obj_get_style_transform_zoom(const struct _lv_obj_t * obj, uint32_t par
  80:Middlewares/lvgl/src/widgets/../core/lv_obj_style_gen.h **** {
  81:Middlewares/lvgl/src/widgets/../core/lv_obj_style_gen.h ****     lv_style_value_t v = lv_obj_get_style_prop(obj, part, LV_STYLE_TRANSFORM_ZOOM);
  82:Middlewares/lvgl/src/widgets/../core/lv_obj_style_gen.h ****     return (lv_coord_t)v.num;
  83:Middlewares/lvgl/src/widgets/../core/lv_obj_style_gen.h **** }
  84:Middlewares/lvgl/src/widgets/../core/lv_obj_style_gen.h **** 
  85:Middlewares/lvgl/src/widgets/../core/lv_obj_style_gen.h **** static inline lv_coord_t lv_obj_get_style_transform_angle(const struct _lv_obj_t * obj, uint32_t pa
  86:Middlewares/lvgl/src/widgets/../core/lv_obj_style_gen.h **** {
  87:Middlewares/lvgl/src/widgets/../core/lv_obj_style_gen.h ****     lv_style_value_t v = lv_obj_get_style_prop(obj, part, LV_STYLE_TRANSFORM_ANGLE);
  88:Middlewares/lvgl/src/widgets/../core/lv_obj_style_gen.h ****     return (lv_coord_t)v.num;
ARM GAS  /tmp/ccdxwQT7.s 			page 61


  89:Middlewares/lvgl/src/widgets/../core/lv_obj_style_gen.h **** }
  90:Middlewares/lvgl/src/widgets/../core/lv_obj_style_gen.h **** 
  91:Middlewares/lvgl/src/widgets/../core/lv_obj_style_gen.h **** static inline lv_coord_t lv_obj_get_style_pad_top(const struct _lv_obj_t * obj, uint32_t part)
  92:Middlewares/lvgl/src/widgets/../core/lv_obj_style_gen.h **** {
  93:Middlewares/lvgl/src/widgets/../core/lv_obj_style_gen.h ****     lv_style_value_t v = lv_obj_get_style_prop(obj, part, LV_STYLE_PAD_TOP);
  94:Middlewares/lvgl/src/widgets/../core/lv_obj_style_gen.h ****     return (lv_coord_t)v.num;
  95:Middlewares/lvgl/src/widgets/../core/lv_obj_style_gen.h **** }
  96:Middlewares/lvgl/src/widgets/../core/lv_obj_style_gen.h **** 
  97:Middlewares/lvgl/src/widgets/../core/lv_obj_style_gen.h **** static inline lv_coord_t lv_obj_get_style_pad_bottom(const struct _lv_obj_t * obj, uint32_t part)
  98:Middlewares/lvgl/src/widgets/../core/lv_obj_style_gen.h **** {
  99:Middlewares/lvgl/src/widgets/../core/lv_obj_style_gen.h ****     lv_style_value_t v = lv_obj_get_style_prop(obj, part, LV_STYLE_PAD_BOTTOM);
 100:Middlewares/lvgl/src/widgets/../core/lv_obj_style_gen.h ****     return (lv_coord_t)v.num;
 101:Middlewares/lvgl/src/widgets/../core/lv_obj_style_gen.h **** }
 102:Middlewares/lvgl/src/widgets/../core/lv_obj_style_gen.h **** 
 103:Middlewares/lvgl/src/widgets/../core/lv_obj_style_gen.h **** static inline lv_coord_t lv_obj_get_style_pad_left(const struct _lv_obj_t * obj, uint32_t part)
 104:Middlewares/lvgl/src/widgets/../core/lv_obj_style_gen.h **** {
 105:Middlewares/lvgl/src/widgets/../core/lv_obj_style_gen.h ****     lv_style_value_t v = lv_obj_get_style_prop(obj, part, LV_STYLE_PAD_LEFT);
 106:Middlewares/lvgl/src/widgets/../core/lv_obj_style_gen.h ****     return (lv_coord_t)v.num;
 107:Middlewares/lvgl/src/widgets/../core/lv_obj_style_gen.h **** }
 108:Middlewares/lvgl/src/widgets/../core/lv_obj_style_gen.h **** 
 109:Middlewares/lvgl/src/widgets/../core/lv_obj_style_gen.h **** static inline lv_coord_t lv_obj_get_style_pad_right(const struct _lv_obj_t * obj, uint32_t part)
 110:Middlewares/lvgl/src/widgets/../core/lv_obj_style_gen.h **** {
 111:Middlewares/lvgl/src/widgets/../core/lv_obj_style_gen.h ****     lv_style_value_t v = lv_obj_get_style_prop(obj, part, LV_STYLE_PAD_RIGHT);
 112:Middlewares/lvgl/src/widgets/../core/lv_obj_style_gen.h ****     return (lv_coord_t)v.num;
 113:Middlewares/lvgl/src/widgets/../core/lv_obj_style_gen.h **** }
 114:Middlewares/lvgl/src/widgets/../core/lv_obj_style_gen.h **** 
 115:Middlewares/lvgl/src/widgets/../core/lv_obj_style_gen.h **** static inline lv_coord_t lv_obj_get_style_pad_row(const struct _lv_obj_t * obj, uint32_t part)
 116:Middlewares/lvgl/src/widgets/../core/lv_obj_style_gen.h **** {
 117:Middlewares/lvgl/src/widgets/../core/lv_obj_style_gen.h ****     lv_style_value_t v = lv_obj_get_style_prop(obj, part, LV_STYLE_PAD_ROW);
 118:Middlewares/lvgl/src/widgets/../core/lv_obj_style_gen.h ****     return (lv_coord_t)v.num;
 119:Middlewares/lvgl/src/widgets/../core/lv_obj_style_gen.h **** }
 120:Middlewares/lvgl/src/widgets/../core/lv_obj_style_gen.h **** 
 121:Middlewares/lvgl/src/widgets/../core/lv_obj_style_gen.h **** static inline lv_coord_t lv_obj_get_style_pad_column(const struct _lv_obj_t * obj, uint32_t part)
 122:Middlewares/lvgl/src/widgets/../core/lv_obj_style_gen.h **** {
 123:Middlewares/lvgl/src/widgets/../core/lv_obj_style_gen.h ****     lv_style_value_t v = lv_obj_get_style_prop(obj, part, LV_STYLE_PAD_COLUMN);
 124:Middlewares/lvgl/src/widgets/../core/lv_obj_style_gen.h ****     return (lv_coord_t)v.num;
 125:Middlewares/lvgl/src/widgets/../core/lv_obj_style_gen.h **** }
 126:Middlewares/lvgl/src/widgets/../core/lv_obj_style_gen.h **** 
 127:Middlewares/lvgl/src/widgets/../core/lv_obj_style_gen.h **** static inline lv_coord_t lv_obj_get_style_radius(const struct _lv_obj_t * obj, uint32_t part)
 128:Middlewares/lvgl/src/widgets/../core/lv_obj_style_gen.h **** {
 129:Middlewares/lvgl/src/widgets/../core/lv_obj_style_gen.h ****     lv_style_value_t v = lv_obj_get_style_prop(obj, part, LV_STYLE_RADIUS);
 130:Middlewares/lvgl/src/widgets/../core/lv_obj_style_gen.h ****     return (lv_coord_t)v.num;
 131:Middlewares/lvgl/src/widgets/../core/lv_obj_style_gen.h **** }
 132:Middlewares/lvgl/src/widgets/../core/lv_obj_style_gen.h **** 
 133:Middlewares/lvgl/src/widgets/../core/lv_obj_style_gen.h **** static inline bool lv_obj_get_style_clip_corner(const struct _lv_obj_t * obj, uint32_t part)
 134:Middlewares/lvgl/src/widgets/../core/lv_obj_style_gen.h **** {
 135:Middlewares/lvgl/src/widgets/../core/lv_obj_style_gen.h ****     lv_style_value_t v = lv_obj_get_style_prop(obj, part, LV_STYLE_CLIP_CORNER);
 136:Middlewares/lvgl/src/widgets/../core/lv_obj_style_gen.h ****     return (bool)v.num;
 137:Middlewares/lvgl/src/widgets/../core/lv_obj_style_gen.h **** }
 138:Middlewares/lvgl/src/widgets/../core/lv_obj_style_gen.h **** 
 139:Middlewares/lvgl/src/widgets/../core/lv_obj_style_gen.h **** static inline lv_opa_t lv_obj_get_style_opa(const struct _lv_obj_t * obj, uint32_t part)
 140:Middlewares/lvgl/src/widgets/../core/lv_obj_style_gen.h **** {
 141:Middlewares/lvgl/src/widgets/../core/lv_obj_style_gen.h ****     lv_style_value_t v = lv_obj_get_style_prop(obj, part, LV_STYLE_OPA);
 142:Middlewares/lvgl/src/widgets/../core/lv_obj_style_gen.h ****     return (lv_opa_t)v.num;
 143:Middlewares/lvgl/src/widgets/../core/lv_obj_style_gen.h **** }
 144:Middlewares/lvgl/src/widgets/../core/lv_obj_style_gen.h **** 
 145:Middlewares/lvgl/src/widgets/../core/lv_obj_style_gen.h **** static inline const lv_color_filter_dsc_t * lv_obj_get_style_color_filter_dsc(const struct _lv_obj_
ARM GAS  /tmp/ccdxwQT7.s 			page 62


 146:Middlewares/lvgl/src/widgets/../core/lv_obj_style_gen.h **** {
 147:Middlewares/lvgl/src/widgets/../core/lv_obj_style_gen.h ****     lv_style_value_t v = lv_obj_get_style_prop(obj, part, LV_STYLE_COLOR_FILTER_DSC);
 148:Middlewares/lvgl/src/widgets/../core/lv_obj_style_gen.h ****     return (const lv_color_filter_dsc_t *)v.ptr;
 149:Middlewares/lvgl/src/widgets/../core/lv_obj_style_gen.h **** }
 150:Middlewares/lvgl/src/widgets/../core/lv_obj_style_gen.h **** 
 151:Middlewares/lvgl/src/widgets/../core/lv_obj_style_gen.h **** static inline lv_opa_t lv_obj_get_style_color_filter_opa(const struct _lv_obj_t * obj, uint32_t par
 152:Middlewares/lvgl/src/widgets/../core/lv_obj_style_gen.h **** {
 153:Middlewares/lvgl/src/widgets/../core/lv_obj_style_gen.h ****     lv_style_value_t v = lv_obj_get_style_prop(obj, part, LV_STYLE_COLOR_FILTER_OPA);
 154:Middlewares/lvgl/src/widgets/../core/lv_obj_style_gen.h ****     return (lv_opa_t)v.num;
 155:Middlewares/lvgl/src/widgets/../core/lv_obj_style_gen.h **** }
 156:Middlewares/lvgl/src/widgets/../core/lv_obj_style_gen.h **** 
