ARM GAS  /tmp/ccAb9Zks.s 			page 1


   1              		.cpu cortex-m7
   2              		.arch armv7e-m
   3              		.fpu fpv5-d16
   4              		.eabi_attribute 28, 1
   5              		.eabi_attribute 20, 1
   6              		.eabi_attribute 21, 1
   7              		.eabi_attribute 23, 3
   8              		.eabi_attribute 24, 1
   9              		.eabi_attribute 25, 1
  10              		.eabi_attribute 26, 1
  11              		.eabi_attribute 30, 1
  12              		.eabi_attribute 34, 1
  13              		.eabi_attribute 18, 4
  14              		.file	"lv_colorwheel.c"
  15              		.text
  16              	.Ltext0:
  17              		.cfi_sections	.debug_frame
  18              		.section	.text.fast_hsv2rgb,"ax",%progbits
  19              		.align	1
  20              		.syntax unified
  21              		.thumb
  22              		.thumb_func
  24              	fast_hsv2rgb:
  25              	.LVL0:
  26              	.LFB202:
  27              		.file 1 "Middlewares/lvgl/src/extra/widgets/colorwheel/lv_colorwheel.c"
   1:Middlewares/lvgl/src/extra/widgets/colorwheel/lv_colorwheel.c **** /**
   2:Middlewares/lvgl/src/extra/widgets/colorwheel/lv_colorwheel.c ****  * @file lv_colorwheel.c
   3:Middlewares/lvgl/src/extra/widgets/colorwheel/lv_colorwheel.c ****  *
   4:Middlewares/lvgl/src/extra/widgets/colorwheel/lv_colorwheel.c ****  * Based on the work of @AloyseTech and @paulpv.
   5:Middlewares/lvgl/src/extra/widgets/colorwheel/lv_colorwheel.c ****  */
   6:Middlewares/lvgl/src/extra/widgets/colorwheel/lv_colorwheel.c **** 
   7:Middlewares/lvgl/src/extra/widgets/colorwheel/lv_colorwheel.c **** /*********************
   8:Middlewares/lvgl/src/extra/widgets/colorwheel/lv_colorwheel.c ****  *      INCLUDES
   9:Middlewares/lvgl/src/extra/widgets/colorwheel/lv_colorwheel.c ****  *********************/
  10:Middlewares/lvgl/src/extra/widgets/colorwheel/lv_colorwheel.c **** #include "lv_colorwheel.h"
  11:Middlewares/lvgl/src/extra/widgets/colorwheel/lv_colorwheel.c **** #if LV_USE_COLORWHEEL
  12:Middlewares/lvgl/src/extra/widgets/colorwheel/lv_colorwheel.c **** 
  13:Middlewares/lvgl/src/extra/widgets/colorwheel/lv_colorwheel.c **** /*********************
  14:Middlewares/lvgl/src/extra/widgets/colorwheel/lv_colorwheel.c ****  *      DEFINES
  15:Middlewares/lvgl/src/extra/widgets/colorwheel/lv_colorwheel.c ****  *********************/
  16:Middlewares/lvgl/src/extra/widgets/colorwheel/lv_colorwheel.c **** #define MY_CLASS &lv_colorwheel_class
  17:Middlewares/lvgl/src/extra/widgets/colorwheel/lv_colorwheel.c **** 
  18:Middlewares/lvgl/src/extra/widgets/colorwheel/lv_colorwheel.c **** #define LV_CPICKER_DEF_QF 3
  19:Middlewares/lvgl/src/extra/widgets/colorwheel/lv_colorwheel.c **** 
  20:Middlewares/lvgl/src/extra/widgets/colorwheel/lv_colorwheel.c **** /**
  21:Middlewares/lvgl/src/extra/widgets/colorwheel/lv_colorwheel.c ****  * The OUTER_MASK_WIDTH define is required to assist with the placing of a mask over the outer ring
  22:Middlewares/lvgl/src/extra/widgets/colorwheel/lv_colorwheel.c ****  * multicoloured radial lines are calculated for the outer ring of the widget their lengths are jit
  23:Middlewares/lvgl/src/extra/widgets/colorwheel/lv_colorwheel.c ****  * integer based arithmetic. From tests the maximum delta was found to be 2 so the current value is
  24:Middlewares/lvgl/src/extra/widgets/colorwheel/lv_colorwheel.c ****  * appropriate masking.
  25:Middlewares/lvgl/src/extra/widgets/colorwheel/lv_colorwheel.c ****  */
  26:Middlewares/lvgl/src/extra/widgets/colorwheel/lv_colorwheel.c **** #define OUTER_MASK_WIDTH 3
  27:Middlewares/lvgl/src/extra/widgets/colorwheel/lv_colorwheel.c **** 
  28:Middlewares/lvgl/src/extra/widgets/colorwheel/lv_colorwheel.c **** /**********************
  29:Middlewares/lvgl/src/extra/widgets/colorwheel/lv_colorwheel.c ****  *      TYPEDEFS
  30:Middlewares/lvgl/src/extra/widgets/colorwheel/lv_colorwheel.c ****  **********************/
  31:Middlewares/lvgl/src/extra/widgets/colorwheel/lv_colorwheel.c **** 
ARM GAS  /tmp/ccAb9Zks.s 			page 2


  32:Middlewares/lvgl/src/extra/widgets/colorwheel/lv_colorwheel.c **** /**********************
  33:Middlewares/lvgl/src/extra/widgets/colorwheel/lv_colorwheel.c ****  *  STATIC PROTOTYPES
  34:Middlewares/lvgl/src/extra/widgets/colorwheel/lv_colorwheel.c ****  **********************/
  35:Middlewares/lvgl/src/extra/widgets/colorwheel/lv_colorwheel.c **** static void lv_colorwheel_constructor(const lv_obj_class_t * class_p, lv_obj_t * obj);
  36:Middlewares/lvgl/src/extra/widgets/colorwheel/lv_colorwheel.c **** static void lv_colorwheel_event(const lv_obj_class_t * class_p, lv_event_t * e);
  37:Middlewares/lvgl/src/extra/widgets/colorwheel/lv_colorwheel.c **** 
  38:Middlewares/lvgl/src/extra/widgets/colorwheel/lv_colorwheel.c **** static void draw_disc_grad(lv_event_t * e);
  39:Middlewares/lvgl/src/extra/widgets/colorwheel/lv_colorwheel.c **** static void draw_knob(lv_event_t * e);
  40:Middlewares/lvgl/src/extra/widgets/colorwheel/lv_colorwheel.c **** static void invalidate_knob(lv_obj_t * obj);
  41:Middlewares/lvgl/src/extra/widgets/colorwheel/lv_colorwheel.c **** static lv_area_t get_knob_area(lv_obj_t * obj);
  42:Middlewares/lvgl/src/extra/widgets/colorwheel/lv_colorwheel.c **** 
  43:Middlewares/lvgl/src/extra/widgets/colorwheel/lv_colorwheel.c **** static void next_color_mode(lv_obj_t * obj);
  44:Middlewares/lvgl/src/extra/widgets/colorwheel/lv_colorwheel.c **** static lv_res_t double_click_reset(lv_obj_t * obj);
  45:Middlewares/lvgl/src/extra/widgets/colorwheel/lv_colorwheel.c **** static void refr_knob_pos(lv_obj_t * obj);
  46:Middlewares/lvgl/src/extra/widgets/colorwheel/lv_colorwheel.c **** static lv_color_t angle_to_mode_color_fast(lv_obj_t * obj, uint16_t angle);
  47:Middlewares/lvgl/src/extra/widgets/colorwheel/lv_colorwheel.c **** static uint16_t get_angle(lv_obj_t * obj);
  48:Middlewares/lvgl/src/extra/widgets/colorwheel/lv_colorwheel.c **** 
  49:Middlewares/lvgl/src/extra/widgets/colorwheel/lv_colorwheel.c **** /**********************
  50:Middlewares/lvgl/src/extra/widgets/colorwheel/lv_colorwheel.c ****  *  STATIC VARIABLES
  51:Middlewares/lvgl/src/extra/widgets/colorwheel/lv_colorwheel.c ****  **********************/
  52:Middlewares/lvgl/src/extra/widgets/colorwheel/lv_colorwheel.c **** const lv_obj_class_t lv_colorwheel_class = {.instance_size = sizeof(lv_colorwheel_t), .base_class =
  53:Middlewares/lvgl/src/extra/widgets/colorwheel/lv_colorwheel.c ****         .constructor_cb = lv_colorwheel_constructor,
  54:Middlewares/lvgl/src/extra/widgets/colorwheel/lv_colorwheel.c ****         .event_cb = lv_colorwheel_event,
  55:Middlewares/lvgl/src/extra/widgets/colorwheel/lv_colorwheel.c ****         .width_def = LV_DPI_DEF * 2,
  56:Middlewares/lvgl/src/extra/widgets/colorwheel/lv_colorwheel.c ****         .height_def = LV_DPI_DEF * 2,
  57:Middlewares/lvgl/src/extra/widgets/colorwheel/lv_colorwheel.c ****         .editable = LV_OBJ_CLASS_EDITABLE_TRUE,
  58:Middlewares/lvgl/src/extra/widgets/colorwheel/lv_colorwheel.c **** };
  59:Middlewares/lvgl/src/extra/widgets/colorwheel/lv_colorwheel.c **** 
  60:Middlewares/lvgl/src/extra/widgets/colorwheel/lv_colorwheel.c **** static bool create_knob_recolor;
  61:Middlewares/lvgl/src/extra/widgets/colorwheel/lv_colorwheel.c **** 
  62:Middlewares/lvgl/src/extra/widgets/colorwheel/lv_colorwheel.c **** /**********************
  63:Middlewares/lvgl/src/extra/widgets/colorwheel/lv_colorwheel.c ****  *      MACROS
  64:Middlewares/lvgl/src/extra/widgets/colorwheel/lv_colorwheel.c ****  **********************/
  65:Middlewares/lvgl/src/extra/widgets/colorwheel/lv_colorwheel.c **** 
  66:Middlewares/lvgl/src/extra/widgets/colorwheel/lv_colorwheel.c **** /**********************
  67:Middlewares/lvgl/src/extra/widgets/colorwheel/lv_colorwheel.c ****  *   GLOBAL FUNCTIONS
  68:Middlewares/lvgl/src/extra/widgets/colorwheel/lv_colorwheel.c ****  **********************/
  69:Middlewares/lvgl/src/extra/widgets/colorwheel/lv_colorwheel.c **** 
  70:Middlewares/lvgl/src/extra/widgets/colorwheel/lv_colorwheel.c **** /**
  71:Middlewares/lvgl/src/extra/widgets/colorwheel/lv_colorwheel.c ****  * Create a color_picker object
  72:Middlewares/lvgl/src/extra/widgets/colorwheel/lv_colorwheel.c ****  * @param par pointer to an object, it will be the parent of the new color_picker
  73:Middlewares/lvgl/src/extra/widgets/colorwheel/lv_colorwheel.c ****  * @return pointer to the created color_picker
  74:Middlewares/lvgl/src/extra/widgets/colorwheel/lv_colorwheel.c ****  */
  75:Middlewares/lvgl/src/extra/widgets/colorwheel/lv_colorwheel.c **** lv_obj_t * lv_colorwheel_create(lv_obj_t * parent, bool knob_recolor)
  76:Middlewares/lvgl/src/extra/widgets/colorwheel/lv_colorwheel.c **** {
  77:Middlewares/lvgl/src/extra/widgets/colorwheel/lv_colorwheel.c ****     LV_LOG_INFO("begin")
  78:Middlewares/lvgl/src/extra/widgets/colorwheel/lv_colorwheel.c ****     create_knob_recolor = knob_recolor;
  79:Middlewares/lvgl/src/extra/widgets/colorwheel/lv_colorwheel.c **** 
  80:Middlewares/lvgl/src/extra/widgets/colorwheel/lv_colorwheel.c ****     lv_obj_t * obj = lv_obj_class_create_obj(MY_CLASS, parent);
  81:Middlewares/lvgl/src/extra/widgets/colorwheel/lv_colorwheel.c ****     lv_obj_class_init_obj(obj);
  82:Middlewares/lvgl/src/extra/widgets/colorwheel/lv_colorwheel.c ****     return obj;
  83:Middlewares/lvgl/src/extra/widgets/colorwheel/lv_colorwheel.c **** }
  84:Middlewares/lvgl/src/extra/widgets/colorwheel/lv_colorwheel.c **** 
  85:Middlewares/lvgl/src/extra/widgets/colorwheel/lv_colorwheel.c **** /*=====================
  86:Middlewares/lvgl/src/extra/widgets/colorwheel/lv_colorwheel.c ****  * Setter functions
  87:Middlewares/lvgl/src/extra/widgets/colorwheel/lv_colorwheel.c ****  *====================*/
  88:Middlewares/lvgl/src/extra/widgets/colorwheel/lv_colorwheel.c **** 
ARM GAS  /tmp/ccAb9Zks.s 			page 3


  89:Middlewares/lvgl/src/extra/widgets/colorwheel/lv_colorwheel.c **** /**
  90:Middlewares/lvgl/src/extra/widgets/colorwheel/lv_colorwheel.c ****  * Set the current hsv of a color wheel.
  91:Middlewares/lvgl/src/extra/widgets/colorwheel/lv_colorwheel.c ****  * @param colorwheel pointer to color wheel object
  92:Middlewares/lvgl/src/extra/widgets/colorwheel/lv_colorwheel.c ****  * @param color current selected hsv
  93:Middlewares/lvgl/src/extra/widgets/colorwheel/lv_colorwheel.c ****  * @return true if changed, otherwise false
  94:Middlewares/lvgl/src/extra/widgets/colorwheel/lv_colorwheel.c ****  */
  95:Middlewares/lvgl/src/extra/widgets/colorwheel/lv_colorwheel.c **** bool lv_colorwheel_set_hsv(lv_obj_t * obj, lv_color_hsv_t hsv)
  96:Middlewares/lvgl/src/extra/widgets/colorwheel/lv_colorwheel.c **** {
  97:Middlewares/lvgl/src/extra/widgets/colorwheel/lv_colorwheel.c ****     if(hsv.h > 360) hsv.h %= 360;
  98:Middlewares/lvgl/src/extra/widgets/colorwheel/lv_colorwheel.c ****     if(hsv.s > 100) hsv.s = 100;
  99:Middlewares/lvgl/src/extra/widgets/colorwheel/lv_colorwheel.c ****     if(hsv.v > 100) hsv.v = 100;
 100:Middlewares/lvgl/src/extra/widgets/colorwheel/lv_colorwheel.c **** 
 101:Middlewares/lvgl/src/extra/widgets/colorwheel/lv_colorwheel.c ****     lv_colorwheel_t * colorwheel = (lv_colorwheel_t *)obj;
 102:Middlewares/lvgl/src/extra/widgets/colorwheel/lv_colorwheel.c **** 
 103:Middlewares/lvgl/src/extra/widgets/colorwheel/lv_colorwheel.c ****     if(colorwheel->hsv.h == hsv.h && colorwheel->hsv.s == hsv.s && colorwheel->hsv.v == hsv.v) retu
 104:Middlewares/lvgl/src/extra/widgets/colorwheel/lv_colorwheel.c **** 
 105:Middlewares/lvgl/src/extra/widgets/colorwheel/lv_colorwheel.c ****     colorwheel->hsv = hsv;
 106:Middlewares/lvgl/src/extra/widgets/colorwheel/lv_colorwheel.c **** 
 107:Middlewares/lvgl/src/extra/widgets/colorwheel/lv_colorwheel.c ****     refr_knob_pos(obj);
 108:Middlewares/lvgl/src/extra/widgets/colorwheel/lv_colorwheel.c **** 
 109:Middlewares/lvgl/src/extra/widgets/colorwheel/lv_colorwheel.c ****     lv_obj_invalidate(obj);
 110:Middlewares/lvgl/src/extra/widgets/colorwheel/lv_colorwheel.c **** 
 111:Middlewares/lvgl/src/extra/widgets/colorwheel/lv_colorwheel.c ****     return true;
 112:Middlewares/lvgl/src/extra/widgets/colorwheel/lv_colorwheel.c **** }
 113:Middlewares/lvgl/src/extra/widgets/colorwheel/lv_colorwheel.c **** 
 114:Middlewares/lvgl/src/extra/widgets/colorwheel/lv_colorwheel.c **** /**
 115:Middlewares/lvgl/src/extra/widgets/colorwheel/lv_colorwheel.c ****  * Set the current color of a color wheel.
 116:Middlewares/lvgl/src/extra/widgets/colorwheel/lv_colorwheel.c ****  * @param colorwheel pointer to color wheel object
 117:Middlewares/lvgl/src/extra/widgets/colorwheel/lv_colorwheel.c ****  * @param color current selected color
 118:Middlewares/lvgl/src/extra/widgets/colorwheel/lv_colorwheel.c ****  * @return true if changed, otherwise false
 119:Middlewares/lvgl/src/extra/widgets/colorwheel/lv_colorwheel.c ****  */
 120:Middlewares/lvgl/src/extra/widgets/colorwheel/lv_colorwheel.c **** bool lv_colorwheel_set_rgb(lv_obj_t * obj, lv_color_t color)
 121:Middlewares/lvgl/src/extra/widgets/colorwheel/lv_colorwheel.c **** {
 122:Middlewares/lvgl/src/extra/widgets/colorwheel/lv_colorwheel.c ****     lv_color32_t c32;
 123:Middlewares/lvgl/src/extra/widgets/colorwheel/lv_colorwheel.c ****     c32.full = lv_color_to32(color);
 124:Middlewares/lvgl/src/extra/widgets/colorwheel/lv_colorwheel.c **** 
 125:Middlewares/lvgl/src/extra/widgets/colorwheel/lv_colorwheel.c ****     return lv_colorwheel_set_hsv(obj,  lv_color_rgb_to_hsv(c32.ch.red, c32.ch.green, c32.ch.blue));
 126:Middlewares/lvgl/src/extra/widgets/colorwheel/lv_colorwheel.c **** }
 127:Middlewares/lvgl/src/extra/widgets/colorwheel/lv_colorwheel.c **** 
 128:Middlewares/lvgl/src/extra/widgets/colorwheel/lv_colorwheel.c **** /**
 129:Middlewares/lvgl/src/extra/widgets/colorwheel/lv_colorwheel.c ****  * Set the current color mode.
 130:Middlewares/lvgl/src/extra/widgets/colorwheel/lv_colorwheel.c ****  * @param colorwheel pointer to color wheel object
 131:Middlewares/lvgl/src/extra/widgets/colorwheel/lv_colorwheel.c ****  * @param mode color mode (hue/sat/val)
 132:Middlewares/lvgl/src/extra/widgets/colorwheel/lv_colorwheel.c ****  */
 133:Middlewares/lvgl/src/extra/widgets/colorwheel/lv_colorwheel.c **** void lv_colorwheel_set_mode(lv_obj_t * obj, lv_colorwheel_mode_t mode)
 134:Middlewares/lvgl/src/extra/widgets/colorwheel/lv_colorwheel.c **** {
 135:Middlewares/lvgl/src/extra/widgets/colorwheel/lv_colorwheel.c ****     lv_colorwheel_t * colorwheel = (lv_colorwheel_t *)obj;
 136:Middlewares/lvgl/src/extra/widgets/colorwheel/lv_colorwheel.c **** 
 137:Middlewares/lvgl/src/extra/widgets/colorwheel/lv_colorwheel.c ****     colorwheel->mode = mode;
 138:Middlewares/lvgl/src/extra/widgets/colorwheel/lv_colorwheel.c ****     refr_knob_pos(obj);
 139:Middlewares/lvgl/src/extra/widgets/colorwheel/lv_colorwheel.c ****     lv_obj_invalidate(obj);
 140:Middlewares/lvgl/src/extra/widgets/colorwheel/lv_colorwheel.c **** }
 141:Middlewares/lvgl/src/extra/widgets/colorwheel/lv_colorwheel.c **** 
 142:Middlewares/lvgl/src/extra/widgets/colorwheel/lv_colorwheel.c **** /**
 143:Middlewares/lvgl/src/extra/widgets/colorwheel/lv_colorwheel.c ****  * Set if the color mode is changed on long press on center
 144:Middlewares/lvgl/src/extra/widgets/colorwheel/lv_colorwheel.c ****  * @param colorwheel pointer to color wheel object
 145:Middlewares/lvgl/src/extra/widgets/colorwheel/lv_colorwheel.c ****  * @param fixed color mode cannot be changed on long press
ARM GAS  /tmp/ccAb9Zks.s 			page 4


 146:Middlewares/lvgl/src/extra/widgets/colorwheel/lv_colorwheel.c ****  */
 147:Middlewares/lvgl/src/extra/widgets/colorwheel/lv_colorwheel.c **** void lv_colorwheel_set_mode_fixed(lv_obj_t * obj, bool fixed)
 148:Middlewares/lvgl/src/extra/widgets/colorwheel/lv_colorwheel.c **** {
 149:Middlewares/lvgl/src/extra/widgets/colorwheel/lv_colorwheel.c ****     lv_colorwheel_t * colorwheel = (lv_colorwheel_t *)obj;
 150:Middlewares/lvgl/src/extra/widgets/colorwheel/lv_colorwheel.c **** 
 151:Middlewares/lvgl/src/extra/widgets/colorwheel/lv_colorwheel.c ****     colorwheel->mode_fixed = fixed;
 152:Middlewares/lvgl/src/extra/widgets/colorwheel/lv_colorwheel.c **** }
 153:Middlewares/lvgl/src/extra/widgets/colorwheel/lv_colorwheel.c **** 
 154:Middlewares/lvgl/src/extra/widgets/colorwheel/lv_colorwheel.c **** /*=====================
 155:Middlewares/lvgl/src/extra/widgets/colorwheel/lv_colorwheel.c ****  * Getter functions
 156:Middlewares/lvgl/src/extra/widgets/colorwheel/lv_colorwheel.c ****  *====================*/
 157:Middlewares/lvgl/src/extra/widgets/colorwheel/lv_colorwheel.c **** 
 158:Middlewares/lvgl/src/extra/widgets/colorwheel/lv_colorwheel.c **** 
 159:Middlewares/lvgl/src/extra/widgets/colorwheel/lv_colorwheel.c **** /**
 160:Middlewares/lvgl/src/extra/widgets/colorwheel/lv_colorwheel.c ****  * Get the current selected hsv of a color wheel.
 161:Middlewares/lvgl/src/extra/widgets/colorwheel/lv_colorwheel.c ****  * @param colorwheel pointer to color wheel object
 162:Middlewares/lvgl/src/extra/widgets/colorwheel/lv_colorwheel.c ****  * @return current selected hsv
 163:Middlewares/lvgl/src/extra/widgets/colorwheel/lv_colorwheel.c ****  */
 164:Middlewares/lvgl/src/extra/widgets/colorwheel/lv_colorwheel.c **** lv_color_hsv_t lv_colorwheel_get_hsv(lv_obj_t * obj)
 165:Middlewares/lvgl/src/extra/widgets/colorwheel/lv_colorwheel.c **** {
 166:Middlewares/lvgl/src/extra/widgets/colorwheel/lv_colorwheel.c ****     lv_colorwheel_t * colorwheel = (lv_colorwheel_t *)obj;
 167:Middlewares/lvgl/src/extra/widgets/colorwheel/lv_colorwheel.c **** 
 168:Middlewares/lvgl/src/extra/widgets/colorwheel/lv_colorwheel.c ****     return colorwheel->hsv;
 169:Middlewares/lvgl/src/extra/widgets/colorwheel/lv_colorwheel.c **** }
 170:Middlewares/lvgl/src/extra/widgets/colorwheel/lv_colorwheel.c **** 
 171:Middlewares/lvgl/src/extra/widgets/colorwheel/lv_colorwheel.c **** /**
 172:Middlewares/lvgl/src/extra/widgets/colorwheel/lv_colorwheel.c ****  * Get the current selected color of a color wheel.
 173:Middlewares/lvgl/src/extra/widgets/colorwheel/lv_colorwheel.c ****  * @param colorwheel pointer to color wheel object
 174:Middlewares/lvgl/src/extra/widgets/colorwheel/lv_colorwheel.c ****  * @return color current selected color
 175:Middlewares/lvgl/src/extra/widgets/colorwheel/lv_colorwheel.c ****  */
 176:Middlewares/lvgl/src/extra/widgets/colorwheel/lv_colorwheel.c **** lv_color_t lv_colorwheel_get_rgb(lv_obj_t * obj)
 177:Middlewares/lvgl/src/extra/widgets/colorwheel/lv_colorwheel.c **** {
 178:Middlewares/lvgl/src/extra/widgets/colorwheel/lv_colorwheel.c ****     lv_colorwheel_t * colorwheel = (lv_colorwheel_t *)obj;
 179:Middlewares/lvgl/src/extra/widgets/colorwheel/lv_colorwheel.c **** 
 180:Middlewares/lvgl/src/extra/widgets/colorwheel/lv_colorwheel.c ****     return lv_color_hsv_to_rgb(colorwheel->hsv.h, colorwheel->hsv.s, colorwheel->hsv.v);
 181:Middlewares/lvgl/src/extra/widgets/colorwheel/lv_colorwheel.c **** }
 182:Middlewares/lvgl/src/extra/widgets/colorwheel/lv_colorwheel.c **** 
 183:Middlewares/lvgl/src/extra/widgets/colorwheel/lv_colorwheel.c **** /**
 184:Middlewares/lvgl/src/extra/widgets/colorwheel/lv_colorwheel.c ****  * Get the current color mode.
 185:Middlewares/lvgl/src/extra/widgets/colorwheel/lv_colorwheel.c ****  * @param colorwheel pointer to color wheel object
 186:Middlewares/lvgl/src/extra/widgets/colorwheel/lv_colorwheel.c ****  * @return color mode (hue/sat/val)
 187:Middlewares/lvgl/src/extra/widgets/colorwheel/lv_colorwheel.c ****  */
 188:Middlewares/lvgl/src/extra/widgets/colorwheel/lv_colorwheel.c **** lv_colorwheel_mode_t lv_colorwheel_get_color_mode(lv_obj_t * obj)
 189:Middlewares/lvgl/src/extra/widgets/colorwheel/lv_colorwheel.c **** {
 190:Middlewares/lvgl/src/extra/widgets/colorwheel/lv_colorwheel.c ****     lv_colorwheel_t * colorwheel = (lv_colorwheel_t *)obj;
 191:Middlewares/lvgl/src/extra/widgets/colorwheel/lv_colorwheel.c **** 
 192:Middlewares/lvgl/src/extra/widgets/colorwheel/lv_colorwheel.c ****     return colorwheel->mode;
 193:Middlewares/lvgl/src/extra/widgets/colorwheel/lv_colorwheel.c **** }
 194:Middlewares/lvgl/src/extra/widgets/colorwheel/lv_colorwheel.c **** 
 195:Middlewares/lvgl/src/extra/widgets/colorwheel/lv_colorwheel.c **** /**
 196:Middlewares/lvgl/src/extra/widgets/colorwheel/lv_colorwheel.c ****  * Get if the color mode is changed on long press on center
 197:Middlewares/lvgl/src/extra/widgets/colorwheel/lv_colorwheel.c ****  * @param colorwheel pointer to color wheel object
 198:Middlewares/lvgl/src/extra/widgets/colorwheel/lv_colorwheel.c ****  * @return mode cannot be changed on long press
 199:Middlewares/lvgl/src/extra/widgets/colorwheel/lv_colorwheel.c ****  */
 200:Middlewares/lvgl/src/extra/widgets/colorwheel/lv_colorwheel.c **** bool lv_colorwheel_get_color_mode_fixed(lv_obj_t * obj)
 201:Middlewares/lvgl/src/extra/widgets/colorwheel/lv_colorwheel.c **** {
 202:Middlewares/lvgl/src/extra/widgets/colorwheel/lv_colorwheel.c ****     lv_colorwheel_t * colorwheel = (lv_colorwheel_t *)obj;
ARM GAS  /tmp/ccAb9Zks.s 			page 5


 203:Middlewares/lvgl/src/extra/widgets/colorwheel/lv_colorwheel.c **** 
 204:Middlewares/lvgl/src/extra/widgets/colorwheel/lv_colorwheel.c ****     return colorwheel->mode_fixed;
 205:Middlewares/lvgl/src/extra/widgets/colorwheel/lv_colorwheel.c **** }
 206:Middlewares/lvgl/src/extra/widgets/colorwheel/lv_colorwheel.c **** 
 207:Middlewares/lvgl/src/extra/widgets/colorwheel/lv_colorwheel.c **** /*=====================
 208:Middlewares/lvgl/src/extra/widgets/colorwheel/lv_colorwheel.c ****  * Other functions
 209:Middlewares/lvgl/src/extra/widgets/colorwheel/lv_colorwheel.c ****  *====================*/
 210:Middlewares/lvgl/src/extra/widgets/colorwheel/lv_colorwheel.c **** 
 211:Middlewares/lvgl/src/extra/widgets/colorwheel/lv_colorwheel.c **** /**********************
 212:Middlewares/lvgl/src/extra/widgets/colorwheel/lv_colorwheel.c ****  *   STATIC FUNCTIONS
 213:Middlewares/lvgl/src/extra/widgets/colorwheel/lv_colorwheel.c ****  **********************/
 214:Middlewares/lvgl/src/extra/widgets/colorwheel/lv_colorwheel.c **** 
 215:Middlewares/lvgl/src/extra/widgets/colorwheel/lv_colorwheel.c **** static void lv_colorwheel_constructor(const lv_obj_class_t * class_p, lv_obj_t * obj)
 216:Middlewares/lvgl/src/extra/widgets/colorwheel/lv_colorwheel.c **** {
 217:Middlewares/lvgl/src/extra/widgets/colorwheel/lv_colorwheel.c ****     LV_UNUSED(class_p);
 218:Middlewares/lvgl/src/extra/widgets/colorwheel/lv_colorwheel.c ****     lv_colorwheel_t * colorwheel = (lv_colorwheel_t *)obj;
 219:Middlewares/lvgl/src/extra/widgets/colorwheel/lv_colorwheel.c ****     colorwheel->hsv.h = 0;
 220:Middlewares/lvgl/src/extra/widgets/colorwheel/lv_colorwheel.c ****     colorwheel->hsv.s = 100;
 221:Middlewares/lvgl/src/extra/widgets/colorwheel/lv_colorwheel.c ****     colorwheel->hsv.v = 100;
 222:Middlewares/lvgl/src/extra/widgets/colorwheel/lv_colorwheel.c ****     colorwheel->mode = LV_COLORWHEEL_MODE_HUE;
 223:Middlewares/lvgl/src/extra/widgets/colorwheel/lv_colorwheel.c ****     colorwheel->mode_fixed = 0;
 224:Middlewares/lvgl/src/extra/widgets/colorwheel/lv_colorwheel.c ****     colorwheel->last_click_time = 0;
 225:Middlewares/lvgl/src/extra/widgets/colorwheel/lv_colorwheel.c ****     colorwheel->last_change_time = 0;
 226:Middlewares/lvgl/src/extra/widgets/colorwheel/lv_colorwheel.c ****     colorwheel->knob.recolor = create_knob_recolor;
 227:Middlewares/lvgl/src/extra/widgets/colorwheel/lv_colorwheel.c **** 
 228:Middlewares/lvgl/src/extra/widgets/colorwheel/lv_colorwheel.c ****     lv_obj_add_flag(obj, LV_OBJ_FLAG_ADV_HITTEST);
 229:Middlewares/lvgl/src/extra/widgets/colorwheel/lv_colorwheel.c ****     lv_obj_clear_flag(obj, LV_OBJ_FLAG_SCROLL_CHAIN);
 230:Middlewares/lvgl/src/extra/widgets/colorwheel/lv_colorwheel.c ****     refr_knob_pos(obj);
 231:Middlewares/lvgl/src/extra/widgets/colorwheel/lv_colorwheel.c **** }
 232:Middlewares/lvgl/src/extra/widgets/colorwheel/lv_colorwheel.c **** 
 233:Middlewares/lvgl/src/extra/widgets/colorwheel/lv_colorwheel.c **** static void draw_disc_grad(lv_event_t * e)
 234:Middlewares/lvgl/src/extra/widgets/colorwheel/lv_colorwheel.c **** {
 235:Middlewares/lvgl/src/extra/widgets/colorwheel/lv_colorwheel.c ****     lv_obj_t * obj = lv_event_get_target(e);
 236:Middlewares/lvgl/src/extra/widgets/colorwheel/lv_colorwheel.c ****     const lv_area_t * clip_area = lv_event_get_param(e);
 237:Middlewares/lvgl/src/extra/widgets/colorwheel/lv_colorwheel.c ****     lv_coord_t w = lv_obj_get_width(obj);
 238:Middlewares/lvgl/src/extra/widgets/colorwheel/lv_colorwheel.c ****     lv_coord_t h = lv_obj_get_height(obj);
 239:Middlewares/lvgl/src/extra/widgets/colorwheel/lv_colorwheel.c ****     lv_coord_t cx = obj->coords.x1 + w / 2;
 240:Middlewares/lvgl/src/extra/widgets/colorwheel/lv_colorwheel.c ****     lv_coord_t cy = obj->coords.y1 + h / 2;
 241:Middlewares/lvgl/src/extra/widgets/colorwheel/lv_colorwheel.c ****     lv_coord_t r = w / 2;
 242:Middlewares/lvgl/src/extra/widgets/colorwheel/lv_colorwheel.c **** 
 243:Middlewares/lvgl/src/extra/widgets/colorwheel/lv_colorwheel.c ****     lv_draw_line_dsc_t line_dsc;
 244:Middlewares/lvgl/src/extra/widgets/colorwheel/lv_colorwheel.c ****     lv_draw_line_dsc_init(&line_dsc);
 245:Middlewares/lvgl/src/extra/widgets/colorwheel/lv_colorwheel.c ****     lv_obj_init_draw_line_dsc(obj, LV_PART_MAIN, &line_dsc);
 246:Middlewares/lvgl/src/extra/widgets/colorwheel/lv_colorwheel.c **** 
 247:Middlewares/lvgl/src/extra/widgets/colorwheel/lv_colorwheel.c ****     line_dsc.width = (r * 628 / (256 / LV_CPICKER_DEF_QF)) / 100;
 248:Middlewares/lvgl/src/extra/widgets/colorwheel/lv_colorwheel.c ****     line_dsc.width += 2;
 249:Middlewares/lvgl/src/extra/widgets/colorwheel/lv_colorwheel.c ****     uint16_t i;
 250:Middlewares/lvgl/src/extra/widgets/colorwheel/lv_colorwheel.c ****     uint32_t a = 0;
 251:Middlewares/lvgl/src/extra/widgets/colorwheel/lv_colorwheel.c ****     lv_coord_t cir_w = lv_obj_get_style_arc_width(obj, LV_PART_MAIN);
 252:Middlewares/lvgl/src/extra/widgets/colorwheel/lv_colorwheel.c **** 
 253:Middlewares/lvgl/src/extra/widgets/colorwheel/lv_colorwheel.c **** #if LV_DRAW_COMPLEX
 254:Middlewares/lvgl/src/extra/widgets/colorwheel/lv_colorwheel.c ****     /*Mask outer and inner ring of widget to tidy up ragged edges of lines while drawing outer ring
 255:Middlewares/lvgl/src/extra/widgets/colorwheel/lv_colorwheel.c ****     lv_draw_mask_radius_param_t mask_out_param;
 256:Middlewares/lvgl/src/extra/widgets/colorwheel/lv_colorwheel.c ****     lv_draw_mask_radius_init(&mask_out_param, &obj->coords, LV_RADIUS_CIRCLE, false);
 257:Middlewares/lvgl/src/extra/widgets/colorwheel/lv_colorwheel.c ****     int16_t mask_out_id = lv_draw_mask_add(&mask_out_param, 0);
 258:Middlewares/lvgl/src/extra/widgets/colorwheel/lv_colorwheel.c **** 
 259:Middlewares/lvgl/src/extra/widgets/colorwheel/lv_colorwheel.c ****     lv_area_t mask_area;
ARM GAS  /tmp/ccAb9Zks.s 			page 6


 260:Middlewares/lvgl/src/extra/widgets/colorwheel/lv_colorwheel.c ****     lv_area_copy(&mask_area, &obj->coords);
 261:Middlewares/lvgl/src/extra/widgets/colorwheel/lv_colorwheel.c ****     mask_area.x1 += cir_w;
 262:Middlewares/lvgl/src/extra/widgets/colorwheel/lv_colorwheel.c ****     mask_area.x2 -= cir_w;
 263:Middlewares/lvgl/src/extra/widgets/colorwheel/lv_colorwheel.c ****     mask_area.y1 += cir_w;
 264:Middlewares/lvgl/src/extra/widgets/colorwheel/lv_colorwheel.c ****     mask_area.y2 -= cir_w;
 265:Middlewares/lvgl/src/extra/widgets/colorwheel/lv_colorwheel.c ****     lv_draw_mask_radius_param_t mask_in_param;
 266:Middlewares/lvgl/src/extra/widgets/colorwheel/lv_colorwheel.c ****     lv_draw_mask_radius_init(&mask_in_param, &mask_area, LV_RADIUS_CIRCLE, true);
 267:Middlewares/lvgl/src/extra/widgets/colorwheel/lv_colorwheel.c ****     int16_t mask_in_id = lv_draw_mask_add(&mask_in_param, 0);
 268:Middlewares/lvgl/src/extra/widgets/colorwheel/lv_colorwheel.c **** 
 269:Middlewares/lvgl/src/extra/widgets/colorwheel/lv_colorwheel.c ****     /*The inner and outer line ends will be masked out.
 270:Middlewares/lvgl/src/extra/widgets/colorwheel/lv_colorwheel.c ****      *So make lines a little bit longer because the masking makes a more even result*/
 271:Middlewares/lvgl/src/extra/widgets/colorwheel/lv_colorwheel.c ****     lv_coord_t cir_w_extra = line_dsc.width;
 272:Middlewares/lvgl/src/extra/widgets/colorwheel/lv_colorwheel.c **** #else
 273:Middlewares/lvgl/src/extra/widgets/colorwheel/lv_colorwheel.c ****     lv_coord_t cir_w_extra = 0;
 274:Middlewares/lvgl/src/extra/widgets/colorwheel/lv_colorwheel.c **** #endif
 275:Middlewares/lvgl/src/extra/widgets/colorwheel/lv_colorwheel.c **** 
 276:Middlewares/lvgl/src/extra/widgets/colorwheel/lv_colorwheel.c ****     for(i = 0; i <= 256; i += LV_CPICKER_DEF_QF, a += 360 * LV_CPICKER_DEF_QF) {
 277:Middlewares/lvgl/src/extra/widgets/colorwheel/lv_colorwheel.c ****         line_dsc.color = angle_to_mode_color_fast(obj, i);
 278:Middlewares/lvgl/src/extra/widgets/colorwheel/lv_colorwheel.c ****         uint16_t angle_trigo = (uint16_t)(a >> 8); /*i * 360 / 256 is the scale to apply, but we ca
 279:Middlewares/lvgl/src/extra/widgets/colorwheel/lv_colorwheel.c **** 
 280:Middlewares/lvgl/src/extra/widgets/colorwheel/lv_colorwheel.c ****         lv_point_t p[2];
 281:Middlewares/lvgl/src/extra/widgets/colorwheel/lv_colorwheel.c ****         p[0].x = cx + ((r + cir_w_extra) * lv_trigo_sin(angle_trigo) >> LV_TRIGO_SHIFT);
 282:Middlewares/lvgl/src/extra/widgets/colorwheel/lv_colorwheel.c ****         p[0].y = cy + ((r + cir_w_extra) * lv_trigo_cos(angle_trigo) >> LV_TRIGO_SHIFT);
 283:Middlewares/lvgl/src/extra/widgets/colorwheel/lv_colorwheel.c ****         p[1].x = cx + ((r - cir_w - cir_w_extra) * lv_trigo_sin(angle_trigo) >> LV_TRIGO_SHIFT);
 284:Middlewares/lvgl/src/extra/widgets/colorwheel/lv_colorwheel.c ****         p[1].y = cy + ((r - cir_w - cir_w_extra) * lv_trigo_cos(angle_trigo) >> LV_TRIGO_SHIFT);
 285:Middlewares/lvgl/src/extra/widgets/colorwheel/lv_colorwheel.c **** 
 286:Middlewares/lvgl/src/extra/widgets/colorwheel/lv_colorwheel.c ****         lv_draw_line(&p[0], &p[1], clip_area, &line_dsc);
 287:Middlewares/lvgl/src/extra/widgets/colorwheel/lv_colorwheel.c ****     }
 288:Middlewares/lvgl/src/extra/widgets/colorwheel/lv_colorwheel.c **** 
 289:Middlewares/lvgl/src/extra/widgets/colorwheel/lv_colorwheel.c **** #if LV_DRAW_COMPLEX
 290:Middlewares/lvgl/src/extra/widgets/colorwheel/lv_colorwheel.c ****     lv_draw_mask_remove_id(mask_out_id);
 291:Middlewares/lvgl/src/extra/widgets/colorwheel/lv_colorwheel.c ****     lv_draw_mask_remove_id(mask_in_id);
 292:Middlewares/lvgl/src/extra/widgets/colorwheel/lv_colorwheel.c **** #endif
 293:Middlewares/lvgl/src/extra/widgets/colorwheel/lv_colorwheel.c **** }
 294:Middlewares/lvgl/src/extra/widgets/colorwheel/lv_colorwheel.c **** 
 295:Middlewares/lvgl/src/extra/widgets/colorwheel/lv_colorwheel.c **** static void draw_knob(lv_event_t * e)
 296:Middlewares/lvgl/src/extra/widgets/colorwheel/lv_colorwheel.c **** {
 297:Middlewares/lvgl/src/extra/widgets/colorwheel/lv_colorwheel.c ****     lv_obj_t * obj = lv_event_get_target(e);
 298:Middlewares/lvgl/src/extra/widgets/colorwheel/lv_colorwheel.c ****     const lv_area_t * clip_area = lv_event_get_param(e);
 299:Middlewares/lvgl/src/extra/widgets/colorwheel/lv_colorwheel.c ****     lv_colorwheel_t * colorwheel = (lv_colorwheel_t *)obj;
 300:Middlewares/lvgl/src/extra/widgets/colorwheel/lv_colorwheel.c **** 
 301:Middlewares/lvgl/src/extra/widgets/colorwheel/lv_colorwheel.c ****     lv_draw_rect_dsc_t cir_dsc;
 302:Middlewares/lvgl/src/extra/widgets/colorwheel/lv_colorwheel.c ****     lv_draw_rect_dsc_init(&cir_dsc);
 303:Middlewares/lvgl/src/extra/widgets/colorwheel/lv_colorwheel.c ****     lv_obj_init_draw_rect_dsc(obj, LV_PART_KNOB, &cir_dsc);
 304:Middlewares/lvgl/src/extra/widgets/colorwheel/lv_colorwheel.c **** 
 305:Middlewares/lvgl/src/extra/widgets/colorwheel/lv_colorwheel.c ****     cir_dsc.radius = LV_RADIUS_CIRCLE;
 306:Middlewares/lvgl/src/extra/widgets/colorwheel/lv_colorwheel.c **** 
 307:Middlewares/lvgl/src/extra/widgets/colorwheel/lv_colorwheel.c ****     if(colorwheel->knob.recolor) {
 308:Middlewares/lvgl/src/extra/widgets/colorwheel/lv_colorwheel.c ****         cir_dsc.bg_color = lv_colorwheel_get_rgb(obj);
 309:Middlewares/lvgl/src/extra/widgets/colorwheel/lv_colorwheel.c ****     }
 310:Middlewares/lvgl/src/extra/widgets/colorwheel/lv_colorwheel.c **** 
 311:Middlewares/lvgl/src/extra/widgets/colorwheel/lv_colorwheel.c ****     lv_area_t knob_area = get_knob_area(obj);
 312:Middlewares/lvgl/src/extra/widgets/colorwheel/lv_colorwheel.c **** 
 313:Middlewares/lvgl/src/extra/widgets/colorwheel/lv_colorwheel.c ****     lv_draw_rect(&knob_area, clip_area, &cir_dsc);
 314:Middlewares/lvgl/src/extra/widgets/colorwheel/lv_colorwheel.c **** }
 315:Middlewares/lvgl/src/extra/widgets/colorwheel/lv_colorwheel.c **** 
 316:Middlewares/lvgl/src/extra/widgets/colorwheel/lv_colorwheel.c **** static void invalidate_knob(lv_obj_t * obj)
ARM GAS  /tmp/ccAb9Zks.s 			page 7


 317:Middlewares/lvgl/src/extra/widgets/colorwheel/lv_colorwheel.c **** {
 318:Middlewares/lvgl/src/extra/widgets/colorwheel/lv_colorwheel.c ****     lv_area_t knob_area = get_knob_area(obj);
 319:Middlewares/lvgl/src/extra/widgets/colorwheel/lv_colorwheel.c **** 
 320:Middlewares/lvgl/src/extra/widgets/colorwheel/lv_colorwheel.c ****     lv_obj_invalidate_area(obj, &knob_area);
 321:Middlewares/lvgl/src/extra/widgets/colorwheel/lv_colorwheel.c **** }
 322:Middlewares/lvgl/src/extra/widgets/colorwheel/lv_colorwheel.c **** 
 323:Middlewares/lvgl/src/extra/widgets/colorwheel/lv_colorwheel.c **** static lv_area_t get_knob_area(lv_obj_t * obj)
 324:Middlewares/lvgl/src/extra/widgets/colorwheel/lv_colorwheel.c **** {
 325:Middlewares/lvgl/src/extra/widgets/colorwheel/lv_colorwheel.c ****     lv_colorwheel_t * colorwheel = (lv_colorwheel_t *)obj;
 326:Middlewares/lvgl/src/extra/widgets/colorwheel/lv_colorwheel.c **** 
 327:Middlewares/lvgl/src/extra/widgets/colorwheel/lv_colorwheel.c ****     /*Get knob's radius*/
 328:Middlewares/lvgl/src/extra/widgets/colorwheel/lv_colorwheel.c ****     uint16_t r = 0;
 329:Middlewares/lvgl/src/extra/widgets/colorwheel/lv_colorwheel.c ****     r = lv_obj_get_style_arc_width(obj, LV_PART_MAIN) / 2;
 330:Middlewares/lvgl/src/extra/widgets/colorwheel/lv_colorwheel.c **** 
 331:Middlewares/lvgl/src/extra/widgets/colorwheel/lv_colorwheel.c ****     lv_coord_t left = lv_obj_get_style_pad_left(obj, LV_PART_KNOB);
 332:Middlewares/lvgl/src/extra/widgets/colorwheel/lv_colorwheel.c ****     lv_coord_t right = lv_obj_get_style_pad_right(obj, LV_PART_KNOB);
 333:Middlewares/lvgl/src/extra/widgets/colorwheel/lv_colorwheel.c ****     lv_coord_t top = lv_obj_get_style_pad_top(obj, LV_PART_KNOB);
 334:Middlewares/lvgl/src/extra/widgets/colorwheel/lv_colorwheel.c ****     lv_coord_t bottom = lv_obj_get_style_pad_bottom(obj, LV_PART_KNOB);
 335:Middlewares/lvgl/src/extra/widgets/colorwheel/lv_colorwheel.c **** 
 336:Middlewares/lvgl/src/extra/widgets/colorwheel/lv_colorwheel.c ****     lv_area_t knob_area;
 337:Middlewares/lvgl/src/extra/widgets/colorwheel/lv_colorwheel.c ****     knob_area.x1 = obj->coords.x1 + colorwheel->knob.pos.x - r - left;
 338:Middlewares/lvgl/src/extra/widgets/colorwheel/lv_colorwheel.c ****     knob_area.y1 = obj->coords.y1 + colorwheel->knob.pos.y - r - right;
 339:Middlewares/lvgl/src/extra/widgets/colorwheel/lv_colorwheel.c ****     knob_area.x2 = obj->coords.x1 + colorwheel->knob.pos.x + r + top;
 340:Middlewares/lvgl/src/extra/widgets/colorwheel/lv_colorwheel.c ****     knob_area.y2 = obj->coords.y1 + colorwheel->knob.pos.y + r + bottom;
 341:Middlewares/lvgl/src/extra/widgets/colorwheel/lv_colorwheel.c **** 
 342:Middlewares/lvgl/src/extra/widgets/colorwheel/lv_colorwheel.c ****     return knob_area;
 343:Middlewares/lvgl/src/extra/widgets/colorwheel/lv_colorwheel.c **** }
 344:Middlewares/lvgl/src/extra/widgets/colorwheel/lv_colorwheel.c **** 
 345:Middlewares/lvgl/src/extra/widgets/colorwheel/lv_colorwheel.c **** static void lv_colorwheel_event(const lv_obj_class_t * class_p, lv_event_t * e)
 346:Middlewares/lvgl/src/extra/widgets/colorwheel/lv_colorwheel.c **** {
 347:Middlewares/lvgl/src/extra/widgets/colorwheel/lv_colorwheel.c ****     LV_UNUSED(class_p);
 348:Middlewares/lvgl/src/extra/widgets/colorwheel/lv_colorwheel.c **** 
 349:Middlewares/lvgl/src/extra/widgets/colorwheel/lv_colorwheel.c ****     /*Call the ancestor's event handler*/
 350:Middlewares/lvgl/src/extra/widgets/colorwheel/lv_colorwheel.c ****     lv_res_t res = lv_obj_event_base(MY_CLASS, e);
 351:Middlewares/lvgl/src/extra/widgets/colorwheel/lv_colorwheel.c **** 
 352:Middlewares/lvgl/src/extra/widgets/colorwheel/lv_colorwheel.c ****     if(res != LV_RES_OK) return;
 353:Middlewares/lvgl/src/extra/widgets/colorwheel/lv_colorwheel.c **** 
 354:Middlewares/lvgl/src/extra/widgets/colorwheel/lv_colorwheel.c ****     lv_event_code_t code = lv_event_get_code(e);
 355:Middlewares/lvgl/src/extra/widgets/colorwheel/lv_colorwheel.c ****     lv_obj_t * obj = lv_event_get_target(e);
 356:Middlewares/lvgl/src/extra/widgets/colorwheel/lv_colorwheel.c ****     lv_colorwheel_t * colorwheel = (lv_colorwheel_t *)obj;
 357:Middlewares/lvgl/src/extra/widgets/colorwheel/lv_colorwheel.c **** 
 358:Middlewares/lvgl/src/extra/widgets/colorwheel/lv_colorwheel.c ****     if(code == LV_EVENT_REFR_EXT_DRAW_SIZE) {
 359:Middlewares/lvgl/src/extra/widgets/colorwheel/lv_colorwheel.c ****         lv_coord_t left = lv_obj_get_style_pad_left(obj, LV_PART_KNOB);
 360:Middlewares/lvgl/src/extra/widgets/colorwheel/lv_colorwheel.c ****         lv_coord_t right = lv_obj_get_style_pad_right(obj, LV_PART_KNOB);
 361:Middlewares/lvgl/src/extra/widgets/colorwheel/lv_colorwheel.c ****         lv_coord_t top = lv_obj_get_style_pad_top(obj, LV_PART_KNOB);
 362:Middlewares/lvgl/src/extra/widgets/colorwheel/lv_colorwheel.c ****         lv_coord_t bottom = lv_obj_get_style_pad_bottom(obj, LV_PART_KNOB);
 363:Middlewares/lvgl/src/extra/widgets/colorwheel/lv_colorwheel.c **** 
 364:Middlewares/lvgl/src/extra/widgets/colorwheel/lv_colorwheel.c ****         lv_coord_t knob_pad = LV_MAX4(left, right, top, bottom) + 2;
 365:Middlewares/lvgl/src/extra/widgets/colorwheel/lv_colorwheel.c ****         lv_coord_t * s = lv_event_get_param(e);
 366:Middlewares/lvgl/src/extra/widgets/colorwheel/lv_colorwheel.c ****         *s = LV_MAX(*s, knob_pad);
 367:Middlewares/lvgl/src/extra/widgets/colorwheel/lv_colorwheel.c ****     }
 368:Middlewares/lvgl/src/extra/widgets/colorwheel/lv_colorwheel.c ****     else if(code == LV_EVENT_SIZE_CHANGED) {
 369:Middlewares/lvgl/src/extra/widgets/colorwheel/lv_colorwheel.c ****         void * param = lv_event_get_param(e);
 370:Middlewares/lvgl/src/extra/widgets/colorwheel/lv_colorwheel.c ****         /*Refresh extended draw area to make knob visible*/
 371:Middlewares/lvgl/src/extra/widgets/colorwheel/lv_colorwheel.c ****         if(lv_obj_get_width(obj) != lv_area_get_width(param) ||
 372:Middlewares/lvgl/src/extra/widgets/colorwheel/lv_colorwheel.c ****            lv_obj_get_height(obj) != lv_area_get_height(param)) {
 373:Middlewares/lvgl/src/extra/widgets/colorwheel/lv_colorwheel.c ****             refr_knob_pos(obj);
ARM GAS  /tmp/ccAb9Zks.s 			page 8


 374:Middlewares/lvgl/src/extra/widgets/colorwheel/lv_colorwheel.c ****         }
 375:Middlewares/lvgl/src/extra/widgets/colorwheel/lv_colorwheel.c ****     }
 376:Middlewares/lvgl/src/extra/widgets/colorwheel/lv_colorwheel.c ****     else if(code == LV_EVENT_STYLE_CHANGED) {
 377:Middlewares/lvgl/src/extra/widgets/colorwheel/lv_colorwheel.c ****         /*Refresh extended draw area to make knob visible*/
 378:Middlewares/lvgl/src/extra/widgets/colorwheel/lv_colorwheel.c ****         refr_knob_pos(obj);
 379:Middlewares/lvgl/src/extra/widgets/colorwheel/lv_colorwheel.c ****     }
 380:Middlewares/lvgl/src/extra/widgets/colorwheel/lv_colorwheel.c ****     else if(code == LV_EVENT_KEY) {
 381:Middlewares/lvgl/src/extra/widgets/colorwheel/lv_colorwheel.c ****         uint32_t c = *((uint32_t *)lv_event_get_param(e)); /*uint32_t because can be UTF-8*/
 382:Middlewares/lvgl/src/extra/widgets/colorwheel/lv_colorwheel.c **** 
 383:Middlewares/lvgl/src/extra/widgets/colorwheel/lv_colorwheel.c ****         if(c == LV_KEY_RIGHT || c == LV_KEY_UP) {
 384:Middlewares/lvgl/src/extra/widgets/colorwheel/lv_colorwheel.c ****             lv_color_hsv_t hsv_cur;
 385:Middlewares/lvgl/src/extra/widgets/colorwheel/lv_colorwheel.c ****             hsv_cur = colorwheel->hsv;
 386:Middlewares/lvgl/src/extra/widgets/colorwheel/lv_colorwheel.c **** 
 387:Middlewares/lvgl/src/extra/widgets/colorwheel/lv_colorwheel.c ****             switch(colorwheel->mode) {
 388:Middlewares/lvgl/src/extra/widgets/colorwheel/lv_colorwheel.c ****                 case LV_COLORWHEEL_MODE_HUE:
 389:Middlewares/lvgl/src/extra/widgets/colorwheel/lv_colorwheel.c ****                     hsv_cur.h = (colorwheel->hsv.h + 1) % 360;
 390:Middlewares/lvgl/src/extra/widgets/colorwheel/lv_colorwheel.c ****                     break;
 391:Middlewares/lvgl/src/extra/widgets/colorwheel/lv_colorwheel.c ****                 case LV_COLORWHEEL_MODE_SATURATION:
 392:Middlewares/lvgl/src/extra/widgets/colorwheel/lv_colorwheel.c ****                     hsv_cur.s = (colorwheel->hsv.s + 1) % 100;
 393:Middlewares/lvgl/src/extra/widgets/colorwheel/lv_colorwheel.c ****                     break;
 394:Middlewares/lvgl/src/extra/widgets/colorwheel/lv_colorwheel.c ****                 case LV_COLORWHEEL_MODE_VALUE:
 395:Middlewares/lvgl/src/extra/widgets/colorwheel/lv_colorwheel.c ****                     hsv_cur.v = (colorwheel->hsv.v + 1) % 100;
 396:Middlewares/lvgl/src/extra/widgets/colorwheel/lv_colorwheel.c ****                     break;
 397:Middlewares/lvgl/src/extra/widgets/colorwheel/lv_colorwheel.c ****             }
 398:Middlewares/lvgl/src/extra/widgets/colorwheel/lv_colorwheel.c **** 
 399:Middlewares/lvgl/src/extra/widgets/colorwheel/lv_colorwheel.c ****             if(lv_colorwheel_set_hsv(obj, hsv_cur)) {
 400:Middlewares/lvgl/src/extra/widgets/colorwheel/lv_colorwheel.c ****                 res = lv_event_send(obj, LV_EVENT_VALUE_CHANGED, NULL);
 401:Middlewares/lvgl/src/extra/widgets/colorwheel/lv_colorwheel.c ****                 if(res != LV_RES_OK) return;
 402:Middlewares/lvgl/src/extra/widgets/colorwheel/lv_colorwheel.c ****             }
 403:Middlewares/lvgl/src/extra/widgets/colorwheel/lv_colorwheel.c ****         }
 404:Middlewares/lvgl/src/extra/widgets/colorwheel/lv_colorwheel.c ****         else if(c == LV_KEY_LEFT || c == LV_KEY_DOWN) {
 405:Middlewares/lvgl/src/extra/widgets/colorwheel/lv_colorwheel.c ****             lv_color_hsv_t hsv_cur;
 406:Middlewares/lvgl/src/extra/widgets/colorwheel/lv_colorwheel.c ****             hsv_cur = colorwheel->hsv;
 407:Middlewares/lvgl/src/extra/widgets/colorwheel/lv_colorwheel.c **** 
 408:Middlewares/lvgl/src/extra/widgets/colorwheel/lv_colorwheel.c ****             switch(colorwheel->mode) {
 409:Middlewares/lvgl/src/extra/widgets/colorwheel/lv_colorwheel.c ****                 case LV_COLORWHEEL_MODE_HUE:
 410:Middlewares/lvgl/src/extra/widgets/colorwheel/lv_colorwheel.c ****                     hsv_cur.h = colorwheel->hsv.h > 0 ? (colorwheel->hsv.h - 1) : 360;
 411:Middlewares/lvgl/src/extra/widgets/colorwheel/lv_colorwheel.c ****                     break;
 412:Middlewares/lvgl/src/extra/widgets/colorwheel/lv_colorwheel.c ****                 case LV_COLORWHEEL_MODE_SATURATION:
 413:Middlewares/lvgl/src/extra/widgets/colorwheel/lv_colorwheel.c ****                     hsv_cur.s = colorwheel->hsv.s > 0 ? (colorwheel->hsv.s - 1) : 100;
 414:Middlewares/lvgl/src/extra/widgets/colorwheel/lv_colorwheel.c ****                     break;
 415:Middlewares/lvgl/src/extra/widgets/colorwheel/lv_colorwheel.c ****                 case LV_COLORWHEEL_MODE_VALUE:
 416:Middlewares/lvgl/src/extra/widgets/colorwheel/lv_colorwheel.c ****                     hsv_cur.v = colorwheel->hsv.v > 0 ? (colorwheel->hsv.v - 1) : 100;
 417:Middlewares/lvgl/src/extra/widgets/colorwheel/lv_colorwheel.c ****                     break;
 418:Middlewares/lvgl/src/extra/widgets/colorwheel/lv_colorwheel.c ****             }
 419:Middlewares/lvgl/src/extra/widgets/colorwheel/lv_colorwheel.c **** 
 420:Middlewares/lvgl/src/extra/widgets/colorwheel/lv_colorwheel.c ****             if(lv_colorwheel_set_hsv(obj, hsv_cur)) {
 421:Middlewares/lvgl/src/extra/widgets/colorwheel/lv_colorwheel.c ****                 res = lv_event_send(obj, LV_EVENT_VALUE_CHANGED, NULL);
 422:Middlewares/lvgl/src/extra/widgets/colorwheel/lv_colorwheel.c ****                 if(res != LV_RES_OK) return;
 423:Middlewares/lvgl/src/extra/widgets/colorwheel/lv_colorwheel.c ****             }
 424:Middlewares/lvgl/src/extra/widgets/colorwheel/lv_colorwheel.c ****         }
 425:Middlewares/lvgl/src/extra/widgets/colorwheel/lv_colorwheel.c ****     }
 426:Middlewares/lvgl/src/extra/widgets/colorwheel/lv_colorwheel.c ****     else if(code == LV_EVENT_PRESSED) {
 427:Middlewares/lvgl/src/extra/widgets/colorwheel/lv_colorwheel.c ****         colorwheel->last_change_time = lv_tick_get();
 428:Middlewares/lvgl/src/extra/widgets/colorwheel/lv_colorwheel.c ****         lv_indev_get_point(lv_indev_get_act(), &colorwheel->last_press_point);
 429:Middlewares/lvgl/src/extra/widgets/colorwheel/lv_colorwheel.c ****         res = double_click_reset(obj);
 430:Middlewares/lvgl/src/extra/widgets/colorwheel/lv_colorwheel.c ****         if(res != LV_RES_OK) return;
ARM GAS  /tmp/ccAb9Zks.s 			page 9


 431:Middlewares/lvgl/src/extra/widgets/colorwheel/lv_colorwheel.c ****     }
 432:Middlewares/lvgl/src/extra/widgets/colorwheel/lv_colorwheel.c ****     else if(code == LV_EVENT_PRESSING) {
 433:Middlewares/lvgl/src/extra/widgets/colorwheel/lv_colorwheel.c ****         lv_indev_t * indev = lv_indev_get_act();
 434:Middlewares/lvgl/src/extra/widgets/colorwheel/lv_colorwheel.c ****         if(indev == NULL) return;
 435:Middlewares/lvgl/src/extra/widgets/colorwheel/lv_colorwheel.c **** 
 436:Middlewares/lvgl/src/extra/widgets/colorwheel/lv_colorwheel.c ****         lv_indev_type_t indev_type = lv_indev_get_type(indev);
 437:Middlewares/lvgl/src/extra/widgets/colorwheel/lv_colorwheel.c ****         lv_point_t p;
 438:Middlewares/lvgl/src/extra/widgets/colorwheel/lv_colorwheel.c ****         if(indev_type == LV_INDEV_TYPE_ENCODER || indev_type == LV_INDEV_TYPE_KEYPAD) {
 439:Middlewares/lvgl/src/extra/widgets/colorwheel/lv_colorwheel.c ****             p.x = obj->coords.x1 + lv_obj_get_width(obj) / 2;
 440:Middlewares/lvgl/src/extra/widgets/colorwheel/lv_colorwheel.c ****             p.y = obj->coords.y1 + lv_obj_get_height(obj) / 2;
 441:Middlewares/lvgl/src/extra/widgets/colorwheel/lv_colorwheel.c ****         }
 442:Middlewares/lvgl/src/extra/widgets/colorwheel/lv_colorwheel.c ****         else {
 443:Middlewares/lvgl/src/extra/widgets/colorwheel/lv_colorwheel.c ****             lv_indev_get_point(indev, &p);
 444:Middlewares/lvgl/src/extra/widgets/colorwheel/lv_colorwheel.c ****         }
 445:Middlewares/lvgl/src/extra/widgets/colorwheel/lv_colorwheel.c **** 
 446:Middlewares/lvgl/src/extra/widgets/colorwheel/lv_colorwheel.c ****         lv_coord_t drag_limit = indev->driver->scroll_limit;
 447:Middlewares/lvgl/src/extra/widgets/colorwheel/lv_colorwheel.c ****         if((LV_ABS(p.x - colorwheel->last_press_point.x) > drag_limit) ||
 448:Middlewares/lvgl/src/extra/widgets/colorwheel/lv_colorwheel.c ****            (LV_ABS(p.y - colorwheel->last_press_point.y) > drag_limit)) {
 449:Middlewares/lvgl/src/extra/widgets/colorwheel/lv_colorwheel.c ****             colorwheel->last_change_time = lv_tick_get();
 450:Middlewares/lvgl/src/extra/widgets/colorwheel/lv_colorwheel.c ****             colorwheel->last_press_point.x = p.x;
 451:Middlewares/lvgl/src/extra/widgets/colorwheel/lv_colorwheel.c ****             colorwheel->last_press_point.y = p.y;
 452:Middlewares/lvgl/src/extra/widgets/colorwheel/lv_colorwheel.c ****         }
 453:Middlewares/lvgl/src/extra/widgets/colorwheel/lv_colorwheel.c **** 
 454:Middlewares/lvgl/src/extra/widgets/colorwheel/lv_colorwheel.c ****         p.x -= obj->coords.x1;
 455:Middlewares/lvgl/src/extra/widgets/colorwheel/lv_colorwheel.c ****         p.y -= obj->coords.y1;
 456:Middlewares/lvgl/src/extra/widgets/colorwheel/lv_colorwheel.c **** 
 457:Middlewares/lvgl/src/extra/widgets/colorwheel/lv_colorwheel.c ****         /*Ignore pressing in the inner area*/
 458:Middlewares/lvgl/src/extra/widgets/colorwheel/lv_colorwheel.c ****         uint16_t w = lv_obj_get_width(obj);
 459:Middlewares/lvgl/src/extra/widgets/colorwheel/lv_colorwheel.c **** 
 460:Middlewares/lvgl/src/extra/widgets/colorwheel/lv_colorwheel.c ****         int16_t angle = 0;
 461:Middlewares/lvgl/src/extra/widgets/colorwheel/lv_colorwheel.c ****         lv_coord_t cir_w = lv_obj_get_style_arc_width(obj, LV_PART_MAIN);
 462:Middlewares/lvgl/src/extra/widgets/colorwheel/lv_colorwheel.c **** 
 463:Middlewares/lvgl/src/extra/widgets/colorwheel/lv_colorwheel.c ****         lv_coord_t r_in = w / 2;
 464:Middlewares/lvgl/src/extra/widgets/colorwheel/lv_colorwheel.c ****         p.x -= r_in;
 465:Middlewares/lvgl/src/extra/widgets/colorwheel/lv_colorwheel.c ****         p.y -= r_in;
 466:Middlewares/lvgl/src/extra/widgets/colorwheel/lv_colorwheel.c ****         bool on_ring = true;
 467:Middlewares/lvgl/src/extra/widgets/colorwheel/lv_colorwheel.c ****         r_in -= cir_w;
 468:Middlewares/lvgl/src/extra/widgets/colorwheel/lv_colorwheel.c ****         if(r_in > LV_DPI_DEF / 2) {
 469:Middlewares/lvgl/src/extra/widgets/colorwheel/lv_colorwheel.c ****             lv_coord_t inner = cir_w / 2;
 470:Middlewares/lvgl/src/extra/widgets/colorwheel/lv_colorwheel.c ****             r_in -= inner;
 471:Middlewares/lvgl/src/extra/widgets/colorwheel/lv_colorwheel.c **** 
 472:Middlewares/lvgl/src/extra/widgets/colorwheel/lv_colorwheel.c ****             if(r_in < LV_DPI_DEF / 2) r_in = LV_DPI_DEF / 2;
 473:Middlewares/lvgl/src/extra/widgets/colorwheel/lv_colorwheel.c ****         }
 474:Middlewares/lvgl/src/extra/widgets/colorwheel/lv_colorwheel.c **** 
 475:Middlewares/lvgl/src/extra/widgets/colorwheel/lv_colorwheel.c ****         if(p.x * p.x + p.y * p.y < r_in * r_in) {
 476:Middlewares/lvgl/src/extra/widgets/colorwheel/lv_colorwheel.c ****             on_ring = false;
 477:Middlewares/lvgl/src/extra/widgets/colorwheel/lv_colorwheel.c ****         }
 478:Middlewares/lvgl/src/extra/widgets/colorwheel/lv_colorwheel.c **** 
 479:Middlewares/lvgl/src/extra/widgets/colorwheel/lv_colorwheel.c ****         /*If the inner area is being pressed, go to the next color mode on long press*/
 480:Middlewares/lvgl/src/extra/widgets/colorwheel/lv_colorwheel.c ****         uint32_t diff = lv_tick_elaps(colorwheel->last_change_time);
 481:Middlewares/lvgl/src/extra/widgets/colorwheel/lv_colorwheel.c ****         if(!on_ring && diff > indev->driver->long_press_time && !colorwheel->mode_fixed) {
 482:Middlewares/lvgl/src/extra/widgets/colorwheel/lv_colorwheel.c ****             next_color_mode(obj);
 483:Middlewares/lvgl/src/extra/widgets/colorwheel/lv_colorwheel.c ****             lv_indev_wait_release(lv_indev_get_act());
 484:Middlewares/lvgl/src/extra/widgets/colorwheel/lv_colorwheel.c ****             return;
 485:Middlewares/lvgl/src/extra/widgets/colorwheel/lv_colorwheel.c ****         }
 486:Middlewares/lvgl/src/extra/widgets/colorwheel/lv_colorwheel.c **** 
 487:Middlewares/lvgl/src/extra/widgets/colorwheel/lv_colorwheel.c ****         /*Set the angle only if pressed on the ring*/
ARM GAS  /tmp/ccAb9Zks.s 			page 10


 488:Middlewares/lvgl/src/extra/widgets/colorwheel/lv_colorwheel.c ****         if(!on_ring) return;
 489:Middlewares/lvgl/src/extra/widgets/colorwheel/lv_colorwheel.c **** 
 490:Middlewares/lvgl/src/extra/widgets/colorwheel/lv_colorwheel.c ****         angle = lv_atan2(p.x, p.y) % 360;
 491:Middlewares/lvgl/src/extra/widgets/colorwheel/lv_colorwheel.c **** 
 492:Middlewares/lvgl/src/extra/widgets/colorwheel/lv_colorwheel.c ****         lv_color_hsv_t hsv_cur;
 493:Middlewares/lvgl/src/extra/widgets/colorwheel/lv_colorwheel.c ****         hsv_cur = colorwheel->hsv;
 494:Middlewares/lvgl/src/extra/widgets/colorwheel/lv_colorwheel.c **** 
 495:Middlewares/lvgl/src/extra/widgets/colorwheel/lv_colorwheel.c ****         switch(colorwheel->mode) {
 496:Middlewares/lvgl/src/extra/widgets/colorwheel/lv_colorwheel.c ****             case LV_COLORWHEEL_MODE_HUE:
 497:Middlewares/lvgl/src/extra/widgets/colorwheel/lv_colorwheel.c ****                 hsv_cur.h = angle;
 498:Middlewares/lvgl/src/extra/widgets/colorwheel/lv_colorwheel.c ****                 break;
 499:Middlewares/lvgl/src/extra/widgets/colorwheel/lv_colorwheel.c ****             case LV_COLORWHEEL_MODE_SATURATION:
 500:Middlewares/lvgl/src/extra/widgets/colorwheel/lv_colorwheel.c ****                 hsv_cur.s = (angle * 100) / 360;
 501:Middlewares/lvgl/src/extra/widgets/colorwheel/lv_colorwheel.c ****                 break;
 502:Middlewares/lvgl/src/extra/widgets/colorwheel/lv_colorwheel.c ****             case LV_COLORWHEEL_MODE_VALUE:
 503:Middlewares/lvgl/src/extra/widgets/colorwheel/lv_colorwheel.c ****                 hsv_cur.v = (angle * 100) / 360;
 504:Middlewares/lvgl/src/extra/widgets/colorwheel/lv_colorwheel.c ****                 break;
 505:Middlewares/lvgl/src/extra/widgets/colorwheel/lv_colorwheel.c ****         }
 506:Middlewares/lvgl/src/extra/widgets/colorwheel/lv_colorwheel.c **** 
 507:Middlewares/lvgl/src/extra/widgets/colorwheel/lv_colorwheel.c ****         if(lv_colorwheel_set_hsv(obj, hsv_cur)) {
 508:Middlewares/lvgl/src/extra/widgets/colorwheel/lv_colorwheel.c ****             res = lv_event_send(obj, LV_EVENT_VALUE_CHANGED, NULL);
 509:Middlewares/lvgl/src/extra/widgets/colorwheel/lv_colorwheel.c ****             if(res != LV_RES_OK) return;
 510:Middlewares/lvgl/src/extra/widgets/colorwheel/lv_colorwheel.c ****         }
 511:Middlewares/lvgl/src/extra/widgets/colorwheel/lv_colorwheel.c ****     }
 512:Middlewares/lvgl/src/extra/widgets/colorwheel/lv_colorwheel.c ****     else if(code == LV_EVENT_HIT_TEST) {
 513:Middlewares/lvgl/src/extra/widgets/colorwheel/lv_colorwheel.c ****         lv_hit_test_info_t * info = lv_event_get_param(e);;
 514:Middlewares/lvgl/src/extra/widgets/colorwheel/lv_colorwheel.c **** 
 515:Middlewares/lvgl/src/extra/widgets/colorwheel/lv_colorwheel.c ****         /*Valid clicks can be only in the circle*/
 516:Middlewares/lvgl/src/extra/widgets/colorwheel/lv_colorwheel.c ****         info->res = _lv_area_is_point_on(&obj->coords, info->point, LV_RADIUS_CIRCLE);
 517:Middlewares/lvgl/src/extra/widgets/colorwheel/lv_colorwheel.c ****     }
 518:Middlewares/lvgl/src/extra/widgets/colorwheel/lv_colorwheel.c ****     else if(code == LV_EVENT_DRAW_MAIN) {
 519:Middlewares/lvgl/src/extra/widgets/colorwheel/lv_colorwheel.c ****         draw_disc_grad(e);
 520:Middlewares/lvgl/src/extra/widgets/colorwheel/lv_colorwheel.c ****         draw_knob(e);
 521:Middlewares/lvgl/src/extra/widgets/colorwheel/lv_colorwheel.c ****     }
 522:Middlewares/lvgl/src/extra/widgets/colorwheel/lv_colorwheel.c ****     else if(code == LV_EVENT_COVER_CHECK) {
 523:Middlewares/lvgl/src/extra/widgets/colorwheel/lv_colorwheel.c ****         lv_cover_check_info_t * info = lv_event_get_param(e);
 524:Middlewares/lvgl/src/extra/widgets/colorwheel/lv_colorwheel.c ****         if(info->res != LV_COVER_RES_MASKED) info->res = LV_COVER_RES_NOT_COVER;
 525:Middlewares/lvgl/src/extra/widgets/colorwheel/lv_colorwheel.c ****     }
 526:Middlewares/lvgl/src/extra/widgets/colorwheel/lv_colorwheel.c **** }
 527:Middlewares/lvgl/src/extra/widgets/colorwheel/lv_colorwheel.c **** 
 528:Middlewares/lvgl/src/extra/widgets/colorwheel/lv_colorwheel.c **** 
 529:Middlewares/lvgl/src/extra/widgets/colorwheel/lv_colorwheel.c **** 
 530:Middlewares/lvgl/src/extra/widgets/colorwheel/lv_colorwheel.c **** static void next_color_mode(lv_obj_t * obj)
 531:Middlewares/lvgl/src/extra/widgets/colorwheel/lv_colorwheel.c **** {
 532:Middlewares/lvgl/src/extra/widgets/colorwheel/lv_colorwheel.c ****     lv_colorwheel_t * colorwheel = (lv_colorwheel_t *)obj;
 533:Middlewares/lvgl/src/extra/widgets/colorwheel/lv_colorwheel.c ****     colorwheel->mode = (colorwheel->mode + 1) % 3;
 534:Middlewares/lvgl/src/extra/widgets/colorwheel/lv_colorwheel.c ****     refr_knob_pos(obj);
 535:Middlewares/lvgl/src/extra/widgets/colorwheel/lv_colorwheel.c ****     lv_obj_invalidate(obj);
 536:Middlewares/lvgl/src/extra/widgets/colorwheel/lv_colorwheel.c **** }
 537:Middlewares/lvgl/src/extra/widgets/colorwheel/lv_colorwheel.c **** 
 538:Middlewares/lvgl/src/extra/widgets/colorwheel/lv_colorwheel.c **** static void refr_knob_pos(lv_obj_t * obj)
 539:Middlewares/lvgl/src/extra/widgets/colorwheel/lv_colorwheel.c **** {
 540:Middlewares/lvgl/src/extra/widgets/colorwheel/lv_colorwheel.c ****     invalidate_knob(obj);
 541:Middlewares/lvgl/src/extra/widgets/colorwheel/lv_colorwheel.c **** 
 542:Middlewares/lvgl/src/extra/widgets/colorwheel/lv_colorwheel.c ****     lv_colorwheel_t * colorwheel = (lv_colorwheel_t *)obj;
 543:Middlewares/lvgl/src/extra/widgets/colorwheel/lv_colorwheel.c ****     lv_coord_t w = lv_obj_get_width(obj);
 544:Middlewares/lvgl/src/extra/widgets/colorwheel/lv_colorwheel.c **** 
ARM GAS  /tmp/ccAb9Zks.s 			page 11


 545:Middlewares/lvgl/src/extra/widgets/colorwheel/lv_colorwheel.c ****     lv_coord_t scale_w = lv_obj_get_style_arc_width(obj, LV_PART_MAIN);
 546:Middlewares/lvgl/src/extra/widgets/colorwheel/lv_colorwheel.c ****     lv_coord_t r = (w - scale_w) / 2;
 547:Middlewares/lvgl/src/extra/widgets/colorwheel/lv_colorwheel.c ****     uint16_t angle = get_angle(obj);
 548:Middlewares/lvgl/src/extra/widgets/colorwheel/lv_colorwheel.c ****     colorwheel->knob.pos.x = (((int32_t)r * lv_trigo_sin(angle)) >> LV_TRIGO_SHIFT);
 549:Middlewares/lvgl/src/extra/widgets/colorwheel/lv_colorwheel.c ****     colorwheel->knob.pos.y = (((int32_t)r * lv_trigo_cos(angle)) >> LV_TRIGO_SHIFT);
 550:Middlewares/lvgl/src/extra/widgets/colorwheel/lv_colorwheel.c ****     colorwheel->knob.pos.x = colorwheel->knob.pos.x + w / 2;
 551:Middlewares/lvgl/src/extra/widgets/colorwheel/lv_colorwheel.c ****     colorwheel->knob.pos.y = colorwheel->knob.pos.y + w / 2;
 552:Middlewares/lvgl/src/extra/widgets/colorwheel/lv_colorwheel.c **** 
 553:Middlewares/lvgl/src/extra/widgets/colorwheel/lv_colorwheel.c ****     invalidate_knob(obj);
 554:Middlewares/lvgl/src/extra/widgets/colorwheel/lv_colorwheel.c **** }
 555:Middlewares/lvgl/src/extra/widgets/colorwheel/lv_colorwheel.c **** 
 556:Middlewares/lvgl/src/extra/widgets/colorwheel/lv_colorwheel.c **** static lv_res_t double_click_reset(lv_obj_t * obj)
 557:Middlewares/lvgl/src/extra/widgets/colorwheel/lv_colorwheel.c **** {
 558:Middlewares/lvgl/src/extra/widgets/colorwheel/lv_colorwheel.c ****     lv_colorwheel_t * colorwheel = (lv_colorwheel_t *)obj;
 559:Middlewares/lvgl/src/extra/widgets/colorwheel/lv_colorwheel.c ****     lv_indev_t * indev = lv_indev_get_act();
 560:Middlewares/lvgl/src/extra/widgets/colorwheel/lv_colorwheel.c ****     /*Double clicked? Use long press time as double click time out*/
 561:Middlewares/lvgl/src/extra/widgets/colorwheel/lv_colorwheel.c ****     if(lv_tick_elaps(colorwheel->last_click_time) < indev->driver->long_press_time) {
 562:Middlewares/lvgl/src/extra/widgets/colorwheel/lv_colorwheel.c ****         lv_color_hsv_t hsv_cur;
 563:Middlewares/lvgl/src/extra/widgets/colorwheel/lv_colorwheel.c ****         hsv_cur = colorwheel->hsv;
 564:Middlewares/lvgl/src/extra/widgets/colorwheel/lv_colorwheel.c **** 
 565:Middlewares/lvgl/src/extra/widgets/colorwheel/lv_colorwheel.c ****         switch(colorwheel->mode) {
 566:Middlewares/lvgl/src/extra/widgets/colorwheel/lv_colorwheel.c ****             case LV_COLORWHEEL_MODE_HUE:
 567:Middlewares/lvgl/src/extra/widgets/colorwheel/lv_colorwheel.c ****                 hsv_cur.h = 0;
 568:Middlewares/lvgl/src/extra/widgets/colorwheel/lv_colorwheel.c ****                 break;
 569:Middlewares/lvgl/src/extra/widgets/colorwheel/lv_colorwheel.c ****             case LV_COLORWHEEL_MODE_SATURATION:
 570:Middlewares/lvgl/src/extra/widgets/colorwheel/lv_colorwheel.c ****                 hsv_cur.s = 100;
 571:Middlewares/lvgl/src/extra/widgets/colorwheel/lv_colorwheel.c ****                 break;
 572:Middlewares/lvgl/src/extra/widgets/colorwheel/lv_colorwheel.c ****             case LV_COLORWHEEL_MODE_VALUE:
 573:Middlewares/lvgl/src/extra/widgets/colorwheel/lv_colorwheel.c ****                 hsv_cur.v = 100;
 574:Middlewares/lvgl/src/extra/widgets/colorwheel/lv_colorwheel.c ****                 break;
 575:Middlewares/lvgl/src/extra/widgets/colorwheel/lv_colorwheel.c ****         }
 576:Middlewares/lvgl/src/extra/widgets/colorwheel/lv_colorwheel.c **** 
 577:Middlewares/lvgl/src/extra/widgets/colorwheel/lv_colorwheel.c ****         lv_indev_wait_release(indev);
 578:Middlewares/lvgl/src/extra/widgets/colorwheel/lv_colorwheel.c **** 
 579:Middlewares/lvgl/src/extra/widgets/colorwheel/lv_colorwheel.c ****         if(lv_colorwheel_set_hsv(obj, hsv_cur)) {
 580:Middlewares/lvgl/src/extra/widgets/colorwheel/lv_colorwheel.c ****             lv_res_t res = lv_event_send(obj, LV_EVENT_VALUE_CHANGED, NULL);
 581:Middlewares/lvgl/src/extra/widgets/colorwheel/lv_colorwheel.c ****             if(res != LV_RES_OK) return res;
 582:Middlewares/lvgl/src/extra/widgets/colorwheel/lv_colorwheel.c ****         }
 583:Middlewares/lvgl/src/extra/widgets/colorwheel/lv_colorwheel.c ****     }
 584:Middlewares/lvgl/src/extra/widgets/colorwheel/lv_colorwheel.c ****     colorwheel->last_click_time = lv_tick_get();
 585:Middlewares/lvgl/src/extra/widgets/colorwheel/lv_colorwheel.c **** 
 586:Middlewares/lvgl/src/extra/widgets/colorwheel/lv_colorwheel.c ****     return LV_RES_OK;
 587:Middlewares/lvgl/src/extra/widgets/colorwheel/lv_colorwheel.c **** }
 588:Middlewares/lvgl/src/extra/widgets/colorwheel/lv_colorwheel.c **** 
 589:Middlewares/lvgl/src/extra/widgets/colorwheel/lv_colorwheel.c **** #define SWAPPTR(A, B) do { uint8_t * t = A; A = B; B = t; } while(0)
 590:Middlewares/lvgl/src/extra/widgets/colorwheel/lv_colorwheel.c **** #define HSV_PTR_SWAP(sextant,r,g,b)     if((sextant) & 2) { SWAPPTR((r), (b)); } if((sextant) & 4) 
 591:Middlewares/lvgl/src/extra/widgets/colorwheel/lv_colorwheel.c ****                                                 if(!((sextant) & 1)) { SWAPPTR((r), (g)); } } else 
 592:Middlewares/lvgl/src/extra/widgets/colorwheel/lv_colorwheel.c **** 
 593:Middlewares/lvgl/src/extra/widgets/colorwheel/lv_colorwheel.c **** /**
 594:Middlewares/lvgl/src/extra/widgets/colorwheel/lv_colorwheel.c ****  * Based on the idea from https://www.vagrearg.org/content/hsvrgb
 595:Middlewares/lvgl/src/extra/widgets/colorwheel/lv_colorwheel.c ****  * Here we want to compute an approximate RGB value from a HSV input color space. We don't want to 
 596:Middlewares/lvgl/src/extra/widgets/colorwheel/lv_colorwheel.c ****  * (for that, there's lv_color_hsv_to_rgb), but we want to be fast.
 597:Middlewares/lvgl/src/extra/widgets/colorwheel/lv_colorwheel.c ****  *
 598:Middlewares/lvgl/src/extra/widgets/colorwheel/lv_colorwheel.c ****  * Few tricks are used here: Hue is in range [0; 6 * 256] (so that the sextant is in the high byte 
 599:Middlewares/lvgl/src/extra/widgets/colorwheel/lv_colorwheel.c ****  * both s and v are in [0; 255] range (very convenient to avoid divisions).
 600:Middlewares/lvgl/src/extra/widgets/colorwheel/lv_colorwheel.c ****  *
 601:Middlewares/lvgl/src/extra/widgets/colorwheel/lv_colorwheel.c ****  * We fold all symmetry by swapping the R, G, B pointers so that the code is the same for all sexta
ARM GAS  /tmp/ccAb9Zks.s 			page 12


 602:Middlewares/lvgl/src/extra/widgets/colorwheel/lv_colorwheel.c ****  * We replace division by 255 by a division by 256, a.k.a a shift right by 8 bits.
 603:Middlewares/lvgl/src/extra/widgets/colorwheel/lv_colorwheel.c ****  * This is wrong, but since this is only used to compute the pixels on the screen and not the final
 604:Middlewares/lvgl/src/extra/widgets/colorwheel/lv_colorwheel.c ****  */
 605:Middlewares/lvgl/src/extra/widgets/colorwheel/lv_colorwheel.c **** static void fast_hsv2rgb(uint16_t h, uint8_t s, uint8_t v, uint8_t *r, uint8_t *g , uint8_t *b);
 606:Middlewares/lvgl/src/extra/widgets/colorwheel/lv_colorwheel.c **** static void fast_hsv2rgb(uint16_t h, uint8_t s, uint8_t v, uint8_t *r, uint8_t *g , uint8_t *b)
 607:Middlewares/lvgl/src/extra/widgets/colorwheel/lv_colorwheel.c **** {
  28              		.loc 1 607 1 view -0
  29              		.cfi_startproc
  30              		@ args = 8, pretend = 0, frame = 0
  31              		@ frame_needed = 0, uses_anonymous_args = 0
  32              		.loc 1 607 1 is_stmt 0 view .LVU1
  33 0000 70B5     		push	{r4, r5, r6, lr}
  34              	.LCFI0:
  35              		.cfi_def_cfa_offset 16
  36              		.cfi_offset 4, -16
  37              		.cfi_offset 5, -12
  38              		.cfi_offset 6, -8
  39              		.cfi_offset 14, -4
  40 0002 049C     		ldr	r4, [sp, #16]
  41 0004 059E     		ldr	r6, [sp, #20]
 608:Middlewares/lvgl/src/extra/widgets/colorwheel/lv_colorwheel.c ****     if (!s) { *r = *g = *b = v; return; }
  42              		.loc 1 608 5 is_stmt 1 view .LVU2
  43              		.loc 1 608 8 is_stmt 0 view .LVU3
  44 0006 41B3     		cbz	r1, .L12
  45 0008 8C46     		mov	ip, r1
 609:Middlewares/lvgl/src/extra/widgets/colorwheel/lv_colorwheel.c **** 
 610:Middlewares/lvgl/src/extra/widgets/colorwheel/lv_colorwheel.c ****     uint8_t sextant = h >> 8;
  46              		.loc 1 610 5 is_stmt 1 view .LVU4
  47              		.loc 1 610 13 is_stmt 0 view .LVU5
  48 000a 050A     		lsrs	r5, r0, #8
  49              	.LVL1:
 611:Middlewares/lvgl/src/extra/widgets/colorwheel/lv_colorwheel.c ****     HSV_PTR_SWAP(sextant, r, g, b); /*Swap pointers so the conversion code is the same*/
  50              		.loc 1 611 5 is_stmt 1 view .LVU6
  51 000c 10F4007F 		tst	r0, #512
  52 0010 02D1     		bne	.L4
  53 0012 3146     		mov	r1, r6
  54              	.LVL2:
  55              		.loc 1 611 5 is_stmt 0 view .LVU7
  56 0014 1E46     		mov	r6, r3
  57 0016 0B46     		mov	r3, r1
  58              	.LVL3:
  59              	.L4:
  60              		.loc 1 611 5 is_stmt 1 discriminator 3 view .LVU8
  61              		.loc 1 611 5 discriminator 3 view .LVU9
  62 0018 15F0040F 		tst	r5, #4
  63 001c 02D1     		bne	.L5
  64              		.loc 1 611 5 is_stmt 0 view .LVU10
  65 001e 1946     		mov	r1, r3
  66 0020 2346     		mov	r3, r4
  67              	.LVL4:
  68              		.loc 1 611 5 view .LVU11
  69 0022 0C46     		mov	r4, r1
  70              	.LVL5:
  71              	.L5:
  72              		.loc 1 611 5 is_stmt 1 discriminator 6 view .LVU12
  73              		.loc 1 611 5 discriminator 6 view .LVU13
  74 0024 15F0060F 		tst	r5, #6
ARM GAS  /tmp/ccAb9Zks.s 			page 13


  75 0028 1BD1     		bne	.L6
  76              		.loc 1 611 5 discriminator 7 view .LVU14
  77 002a 15F0010F 		tst	r5, #1
  78 002e 02D0     		beq	.L7
  79              		.loc 1 611 5 is_stmt 0 view .LVU15
  80 0030 1946     		mov	r1, r3
  81 0032 3346     		mov	r3, r6
  82              	.LVL6:
  83              		.loc 1 611 5 view .LVU16
  84 0034 0E46     		mov	r6, r1
  85              	.LVL7:
  86              	.L7:
  87              		.loc 1 611 5 is_stmt 1 discriminator 14 view .LVU17
  88              		.loc 1 611 35 discriminator 14 view .LVU18
 612:Middlewares/lvgl/src/extra/widgets/colorwheel/lv_colorwheel.c **** 
 613:Middlewares/lvgl/src/extra/widgets/colorwheel/lv_colorwheel.c ****     *g = v;
  89              		.loc 1 613 5 discriminator 14 view .LVU19
  90              		.loc 1 613 8 is_stmt 0 discriminator 14 view .LVU20
  91 0036 3270     		strb	r2, [r6]
 614:Middlewares/lvgl/src/extra/widgets/colorwheel/lv_colorwheel.c **** 
 615:Middlewares/lvgl/src/extra/widgets/colorwheel/lv_colorwheel.c ****     uint8_t bb = ~s;
  92              		.loc 1 615 5 is_stmt 1 discriminator 14 view .LVU21
  93              		.loc 1 615 13 is_stmt 0 discriminator 14 view .LVU22
  94 0038 6FEA0C01 		mvn	r1, ip
 616:Middlewares/lvgl/src/extra/widgets/colorwheel/lv_colorwheel.c ****     uint16_t ww = v * bb; /*Don't try to be precise, but instead, be fast*/
  95              		.loc 1 616 5 is_stmt 1 discriminator 14 view .LVU23
  96              		.loc 1 616 21 is_stmt 0 discriminator 14 view .LVU24
  97 003c 1FFA82FE 		uxth	lr, r2
  98 0040 C9B2     		uxtb	r1, r1
  99              		.loc 1 616 14 discriminator 14 view .LVU25
 100 0042 02FB01F1 		mul	r1, r2, r1
 101              	.LVL8:
 617:Middlewares/lvgl/src/extra/widgets/colorwheel/lv_colorwheel.c ****     *b = ww >> 8;
 102              		.loc 1 617 5 is_stmt 1 discriminator 14 view .LVU26
 103              		.loc 1 617 8 is_stmt 0 discriminator 14 view .LVU27
 104 0046 090A     		lsrs	r1, r1, #8
 105              	.LVL9:
 106              		.loc 1 617 8 discriminator 14 view .LVU28
 107 0048 2170     		strb	r1, [r4]
 618:Middlewares/lvgl/src/extra/widgets/colorwheel/lv_colorwheel.c **** 
 619:Middlewares/lvgl/src/extra/widgets/colorwheel/lv_colorwheel.c ****     uint8_t h_frac = h & 0xff;
 108              		.loc 1 619 5 is_stmt 1 discriminator 14 view .LVU29
 109              		.loc 1 619 13 is_stmt 0 discriminator 14 view .LVU30
 110 004a C2B2     		uxtb	r2, r0
 111              	.LVL10:
 620:Middlewares/lvgl/src/extra/widgets/colorwheel/lv_colorwheel.c **** 
 621:Middlewares/lvgl/src/extra/widgets/colorwheel/lv_colorwheel.c ****     if(!(sextant & 1)) {
 112              		.loc 1 621 5 is_stmt 1 discriminator 14 view .LVU31
 113              		.loc 1 621 7 is_stmt 0 discriminator 14 view .LVU32
 114 004c 15F0010F 		tst	r5, #1
 115 0050 13D1     		bne	.L8
 622:Middlewares/lvgl/src/extra/widgets/colorwheel/lv_colorwheel.c ****         /*Up slope*/
 623:Middlewares/lvgl/src/extra/widgets/colorwheel/lv_colorwheel.c ****         ww = !h_frac ? ((uint16_t)s << 8) : (s * (uint8_t)(-h_frac)); /*Skip multiply if not requir
 116              		.loc 1 623 9 is_stmt 1 view .LVU33
 117              		.loc 1 623 12 is_stmt 0 view .LVU34
 118 0052 6AB9     		cbnz	r2, .L9
 119              		.loc 1 623 12 discriminator 1 view .LVU35
ARM GAS  /tmp/ccAb9Zks.s 			page 14


 120 0054 4FEA0C22 		lsl	r2, ip, #8
 121              	.LVL11:
 122              		.loc 1 623 12 discriminator 1 view .LVU36
 123 0058 12E0     		b	.L10
 124              	.LVL12:
 125              	.L12:
 608:Middlewares/lvgl/src/extra/widgets/colorwheel/lv_colorwheel.c **** 
 126              		.loc 1 608 15 is_stmt 1 discriminator 1 view .LVU37
 608:Middlewares/lvgl/src/extra/widgets/colorwheel/lv_colorwheel.c **** 
 127              		.loc 1 608 28 is_stmt 0 discriminator 1 view .LVU38
 128 005a 3270     		strb	r2, [r6]
 608:Middlewares/lvgl/src/extra/widgets/colorwheel/lv_colorwheel.c **** 
 129              		.loc 1 608 23 discriminator 1 view .LVU39
 130 005c 2270     		strb	r2, [r4]
 608:Middlewares/lvgl/src/extra/widgets/colorwheel/lv_colorwheel.c **** 
 131              		.loc 1 608 18 discriminator 1 view .LVU40
 132 005e 1A70     		strb	r2, [r3]
 608:Middlewares/lvgl/src/extra/widgets/colorwheel/lv_colorwheel.c **** 
 133              		.loc 1 608 33 is_stmt 1 discriminator 1 view .LVU41
 134 0060 15E0     		b	.L1
 135              	.LVL13:
 136              	.L6:
 611:Middlewares/lvgl/src/extra/widgets/colorwheel/lv_colorwheel.c **** 
 137              		.loc 1 611 5 discriminator 8 view .LVU42
 138 0062 15F0010F 		tst	r5, #1
 139 0066 E6D1     		bne	.L7
 611:Middlewares/lvgl/src/extra/widgets/colorwheel/lv_colorwheel.c **** 
 140              		.loc 1 611 5 is_stmt 0 view .LVU43
 141 0068 1946     		mov	r1, r3
 142 006a 3346     		mov	r3, r6
 143              	.LVL14:
 611:Middlewares/lvgl/src/extra/widgets/colorwheel/lv_colorwheel.c **** 
 144              		.loc 1 611 5 view .LVU44
 145 006c 0E46     		mov	r6, r1
 146              	.LVL15:
 611:Middlewares/lvgl/src/extra/widgets/colorwheel/lv_colorwheel.c **** 
 147              		.loc 1 611 5 view .LVU45
 148 006e E2E7     		b	.L7
 149              	.LVL16:
 150              	.L9:
 151              		.loc 1 623 50 discriminator 2 view .LVU46
 152 0070 5242     		rsbs	r2, r2, #0
 153              	.LVL17:
 154              		.loc 1 623 50 discriminator 2 view .LVU47
 155 0072 D2B2     		uxtb	r2, r2
 156              	.LVL18:
 157              		.loc 1 623 12 discriminator 2 view .LVU48
 158 0074 0CFB02F2 		mul	r2, ip, r2
 159 0078 02E0     		b	.L10
 160              	.LVL19:
 161              	.L8:
 624:Middlewares/lvgl/src/extra/widgets/colorwheel/lv_colorwheel.c ****     } else {
 625:Middlewares/lvgl/src/extra/widgets/colorwheel/lv_colorwheel.c ****         /*Down slope*/
 626:Middlewares/lvgl/src/extra/widgets/colorwheel/lv_colorwheel.c ****         ww = s * h_frac;
 162              		.loc 1 626 9 is_stmt 1 view .LVU49
 163              		.loc 1 626 12 is_stmt 0 view .LVU50
 164 007a C2B2     		uxtb	r2, r0
ARM GAS  /tmp/ccAb9Zks.s 			page 15


 165              	.LVL20:
 166              		.loc 1 626 12 view .LVU51
 167 007c 02FB0CF2 		mul	r2, r2, ip
 168              	.LVL21:
 169              	.L10:
 627:Middlewares/lvgl/src/extra/widgets/colorwheel/lv_colorwheel.c ****     }
 628:Middlewares/lvgl/src/extra/widgets/colorwheel/lv_colorwheel.c ****     bb = ww >> 8;
 170              		.loc 1 628 5 is_stmt 1 view .LVU52
 629:Middlewares/lvgl/src/extra/widgets/colorwheel/lv_colorwheel.c ****     bb = ~bb;
 171              		.loc 1 629 5 view .LVU53
 172              		.loc 1 629 8 is_stmt 0 view .LVU54
 173 0080 6FEA1222 		mvn	r2, r2, lsr #8
 174              	.LVL22:
 630:Middlewares/lvgl/src/extra/widgets/colorwheel/lv_colorwheel.c ****     ww = v * bb;
 175              		.loc 1 630 5 is_stmt 1 view .LVU55
 176              		.loc 1 630 12 is_stmt 0 view .LVU56
 177 0084 D2B2     		uxtb	r2, r2
 178              		.loc 1 630 8 view .LVU57
 179 0086 0EFB02F2 		mul	r2, lr, r2
 180              	.LVL23:
 631:Middlewares/lvgl/src/extra/widgets/colorwheel/lv_colorwheel.c ****     *r = ww >> 8;
 181              		.loc 1 631 5 is_stmt 1 view .LVU58
 182              		.loc 1 631 8 is_stmt 0 view .LVU59
 183 008a 120A     		lsrs	r2, r2, #8
 184              	.LVL24:
 185              		.loc 1 631 8 view .LVU60
 186 008c 1A70     		strb	r2, [r3]
 187              	.LVL25:
 188              	.L1:
 632:Middlewares/lvgl/src/extra/widgets/colorwheel/lv_colorwheel.c **** }
 189              		.loc 1 632 1 view .LVU61
 190 008e 70BD     		pop	{r4, r5, r6, pc}
 191              		.cfi_endproc
 192              	.LFE202:
 194              		.section	.text.angle_to_mode_color_fast,"ax",%progbits
 195              		.align	1
 196              		.syntax unified
 197              		.thumb
 198              		.thumb_func
 200              	angle_to_mode_color_fast:
 201              	.LVL26:
 202              	.LFB203:
 633:Middlewares/lvgl/src/extra/widgets/colorwheel/lv_colorwheel.c **** 
 634:Middlewares/lvgl/src/extra/widgets/colorwheel/lv_colorwheel.c **** static lv_color_t angle_to_mode_color_fast(lv_obj_t * obj, uint16_t angle)
 635:Middlewares/lvgl/src/extra/widgets/colorwheel/lv_colorwheel.c **** {
 203              		.loc 1 635 1 is_stmt 1 view -0
 204              		.cfi_startproc
 205              		@ args = 0, pretend = 0, frame = 8
 206              		@ frame_needed = 0, uses_anonymous_args = 0
 207              		.loc 1 635 1 is_stmt 0 view .LVU63
 208 0000 10B5     		push	{r4, lr}
 209              	.LCFI1:
 210              		.cfi_def_cfa_offset 8
 211              		.cfi_offset 4, -8
 212              		.cfi_offset 14, -4
 213 0002 84B0     		sub	sp, sp, #16
 214              	.LCFI2:
ARM GAS  /tmp/ccAb9Zks.s 			page 16


 215              		.cfi_def_cfa_offset 24
 636:Middlewares/lvgl/src/extra/widgets/colorwheel/lv_colorwheel.c ****     lv_colorwheel_t * ext = (lv_colorwheel_t*)obj;
 216              		.loc 1 636 5 is_stmt 1 view .LVU64
 217              	.LVL27:
 637:Middlewares/lvgl/src/extra/widgets/colorwheel/lv_colorwheel.c ****     uint8_t r = 0, g = 0, b = 0;
 218              		.loc 1 637 5 view .LVU65
 219              		.loc 1 637 13 is_stmt 0 view .LVU66
 220 0004 0023     		movs	r3, #0
 221 0006 8DF80F30 		strb	r3, [sp, #15]
 222              		.loc 1 637 20 view .LVU67
 223 000a 8DF80E30 		strb	r3, [sp, #14]
 224              		.loc 1 637 27 view .LVU68
 225 000e 8DF80D30 		strb	r3, [sp, #13]
 638:Middlewares/lvgl/src/extra/widgets/colorwheel/lv_colorwheel.c ****     static uint16_t h = 0;
 226              		.loc 1 638 5 is_stmt 1 view .LVU69
 639:Middlewares/lvgl/src/extra/widgets/colorwheel/lv_colorwheel.c ****     static uint8_t s = 0, v = 0, m = 255;
 227              		.loc 1 639 5 view .LVU70
 640:Middlewares/lvgl/src/extra/widgets/colorwheel/lv_colorwheel.c **** 
 641:Middlewares/lvgl/src/extra/widgets/colorwheel/lv_colorwheel.c ****     switch(ext->mode) {
 228              		.loc 1 641 5 view .LVU71
 229              		.loc 1 641 15 is_stmt 0 view .LVU72
 230 0012 90F83C30 		ldrb	r3, [r0, #60]	@ zero_extendqisi2
 231 0016 C3F30102 		ubfx	r2, r3, #0, #2
 232 001a 03F00303 		and	r3, r3, #3
 233              		.loc 1 641 5 view .LVU73
 234 001e 012B     		cmp	r3, #1
 235 0020 46D0     		beq	.L14
 236 0022 022B     		cmp	r3, #2
 237 0024 72D0     		beq	.L15
 642:Middlewares/lvgl/src/extra/widgets/colorwheel/lv_colorwheel.c ****         default:
 643:Middlewares/lvgl/src/extra/widgets/colorwheel/lv_colorwheel.c ****         case LV_COLORWHEEL_MODE_HUE:
 644:Middlewares/lvgl/src/extra/widgets/colorwheel/lv_colorwheel.c ****             /*Don't recompute costly scaling if it does not change*/
 645:Middlewares/lvgl/src/extra/widgets/colorwheel/lv_colorwheel.c ****             if (m != ext->mode) {
 238              		.loc 1 645 13 is_stmt 1 view .LVU74
 239              		.loc 1 645 19 is_stmt 0 view .LVU75
 240 0026 514C     		ldr	r4, .L21
 241 0028 2478     		ldrb	r4, [r4]	@ zero_extendqisi2
 242              		.loc 1 645 16 view .LVU76
 243 002a A342     		cmp	r3, r4
 244 002c 1BD0     		beq	.L16
 646:Middlewares/lvgl/src/extra/widgets/colorwheel/lv_colorwheel.c ****               s = (uint8_t)(((uint16_t)ext->hsv.s * 51) / 20); v = (uint8_t)(((uint16_t)ext->hsv.v 
 245              		.loc 1 646 15 is_stmt 1 view .LVU77
 246              		.loc 1 646 48 is_stmt 0 view .LVU78
 247 002e 90F82630 		ldrb	r3, [r0, #38]	@ zero_extendqisi2
 248              		.loc 1 646 51 view .LVU79
 249 0032 03EB4303 		add	r3, r3, r3, lsl #1
 250 0036 03EB031C 		add	ip, r3, r3, lsl #4
 251              		.loc 1 646 57 view .LVU80
 252 003a 4D4C     		ldr	r4, .L21+4
 253 003c 84FB0C3C 		smull	r3, ip, r4, ip
 254              		.loc 1 646 19 view .LVU81
 255 0040 CCF3C70C 		ubfx	ip, ip, #3, #8
 256              		.loc 1 646 17 view .LVU82
 257 0044 4B4B     		ldr	r3, .L21+8
 258 0046 83F800C0 		strb	ip, [r3]
 259              		.loc 1 646 64 is_stmt 1 view .LVU83
 260              		.loc 1 646 97 is_stmt 0 view .LVU84
ARM GAS  /tmp/ccAb9Zks.s 			page 17


 261 004a 90F82730 		ldrb	r3, [r0, #39]	@ zero_extendqisi2
 262              		.loc 1 646 100 view .LVU85
 263 004e 03EB4303 		add	r3, r3, r3, lsl #1
 264 0052 03EB0313 		add	r3, r3, r3, lsl #4
 265              		.loc 1 646 106 view .LVU86
 266 0056 84FB0303 		smull	r0, r3, r4, r3
 267              	.LVL28:
 268              		.loc 1 646 68 view .LVU87
 269 005a C3F3C703 		ubfx	r3, r3, #3, #8
 270              		.loc 1 646 66 view .LVU88
 271 005e 4648     		ldr	r0, .L21+12
 272 0060 0370     		strb	r3, [r0]
 647:Middlewares/lvgl/src/extra/widgets/colorwheel/lv_colorwheel.c ****               m = ext->mode;
 273              		.loc 1 647 15 is_stmt 1 view .LVU89
 274              		.loc 1 647 17 is_stmt 0 view .LVU90
 275 0062 424B     		ldr	r3, .L21
 276 0064 1A70     		strb	r2, [r3]
 277              	.L16:
 648:Middlewares/lvgl/src/extra/widgets/colorwheel/lv_colorwheel.c ****             }
 649:Middlewares/lvgl/src/extra/widgets/colorwheel/lv_colorwheel.c ****             fast_hsv2rgb(angle * 6, s, v, &r, &g, &b); /*A smart compiler will replace x * 6 by (x 
 278              		.loc 1 649 13 is_stmt 1 view .LVU91
 279 0066 01EB4101 		add	r1, r1, r1, lsl #1
 280              	.LVL29:
 281              		.loc 1 649 13 is_stmt 0 view .LVU92
 282 006a 4800     		lsls	r0, r1, #1
 283 006c 80B2     		uxth	r0, r0
 284 006e 0DF10D03 		add	r3, sp, #13
 285 0072 0193     		str	r3, [sp, #4]
 286 0074 0DF10E03 		add	r3, sp, #14
 287 0078 0093     		str	r3, [sp]
 288 007a 0DF10F03 		add	r3, sp, #15
 289 007e 3E4A     		ldr	r2, .L21+12
 290 0080 1278     		ldrb	r2, [r2]	@ zero_extendqisi2
 291 0082 3C49     		ldr	r1, .L21+8
 292 0084 0978     		ldrb	r1, [r1]	@ zero_extendqisi2
 293 0086 FFF7FEFF 		bl	fast_hsv2rgb
 294              	.LVL30:
 650:Middlewares/lvgl/src/extra/widgets/colorwheel/lv_colorwheel.c ****             break;
 295              		.loc 1 650 13 is_stmt 1 view .LVU93
 296              	.L17:
 651:Middlewares/lvgl/src/extra/widgets/colorwheel/lv_colorwheel.c ****         case LV_COLORWHEEL_MODE_SATURATION:
 652:Middlewares/lvgl/src/extra/widgets/colorwheel/lv_colorwheel.c ****             /*Don't recompute costly scaling if it does not change*/
 653:Middlewares/lvgl/src/extra/widgets/colorwheel/lv_colorwheel.c ****             if (m != ext->mode) {
 654:Middlewares/lvgl/src/extra/widgets/colorwheel/lv_colorwheel.c ****               h = (uint16_t)(((uint32_t)ext->hsv.h * 6 * 256) / 360); v = (uint8_t)(((uint16_t)ext-
 655:Middlewares/lvgl/src/extra/widgets/colorwheel/lv_colorwheel.c ****               m = ext->mode;
 656:Middlewares/lvgl/src/extra/widgets/colorwheel/lv_colorwheel.c ****             }
 657:Middlewares/lvgl/src/extra/widgets/colorwheel/lv_colorwheel.c ****             fast_hsv2rgb(h, angle, v, &r, &g, &b);
 658:Middlewares/lvgl/src/extra/widgets/colorwheel/lv_colorwheel.c ****             break;
 659:Middlewares/lvgl/src/extra/widgets/colorwheel/lv_colorwheel.c ****         case LV_COLORWHEEL_MODE_VALUE:
 660:Middlewares/lvgl/src/extra/widgets/colorwheel/lv_colorwheel.c ****             /*Don't recompute costly scaling if it does not change*/
 661:Middlewares/lvgl/src/extra/widgets/colorwheel/lv_colorwheel.c ****             if (m != ext->mode) {
 662:Middlewares/lvgl/src/extra/widgets/colorwheel/lv_colorwheel.c ****               h = (uint16_t)(((uint32_t)ext->hsv.h * 6 * 256) / 360); s = (uint8_t)(((uint16_t)ext-
 663:Middlewares/lvgl/src/extra/widgets/colorwheel/lv_colorwheel.c ****               m = ext->mode;
 664:Middlewares/lvgl/src/extra/widgets/colorwheel/lv_colorwheel.c ****             }
 665:Middlewares/lvgl/src/extra/widgets/colorwheel/lv_colorwheel.c ****             fast_hsv2rgb(h, s, angle, &r, &g, &b);
 666:Middlewares/lvgl/src/extra/widgets/colorwheel/lv_colorwheel.c ****             break;
 667:Middlewares/lvgl/src/extra/widgets/colorwheel/lv_colorwheel.c ****     }
ARM GAS  /tmp/ccAb9Zks.s 			page 18


 668:Middlewares/lvgl/src/extra/widgets/colorwheel/lv_colorwheel.c ****     return lv_color_make(r, g, b);
 297              		.loc 1 668 5 view .LVU94
 298              		.loc 1 668 12 is_stmt 0 view .LVU95
 299 008a 9DF80F30 		ldrb	r3, [sp, #15]	@ zero_extendqisi2
 300 008e 9DF80E20 		ldrb	r2, [sp, #14]	@ zero_extendqisi2
 301 0092 9DF80D10 		ldrb	r1, [sp, #13]	@ zero_extendqisi2
 302              	.LVL31:
 303              	.LBB50:
 304              	.LBI50:
 305              		.file 2 "Middlewares/lvgl/src/extra/widgets/colorwheel/../../../../src/hal/../misc/lv_color.h"
   1:Middlewares/lvgl/src/extra/widgets/colorwheel/../../../../src/hal/../misc/lv_color.h **** /**
   2:Middlewares/lvgl/src/extra/widgets/colorwheel/../../../../src/hal/../misc/lv_color.h ****  * @file lv_color.h
   3:Middlewares/lvgl/src/extra/widgets/colorwheel/../../../../src/hal/../misc/lv_color.h ****  *
   4:Middlewares/lvgl/src/extra/widgets/colorwheel/../../../../src/hal/../misc/lv_color.h ****  */
   5:Middlewares/lvgl/src/extra/widgets/colorwheel/../../../../src/hal/../misc/lv_color.h **** 
   6:Middlewares/lvgl/src/extra/widgets/colorwheel/../../../../src/hal/../misc/lv_color.h **** #ifndef LV_COLOR_H
   7:Middlewares/lvgl/src/extra/widgets/colorwheel/../../../../src/hal/../misc/lv_color.h **** #define LV_COLOR_H
   8:Middlewares/lvgl/src/extra/widgets/colorwheel/../../../../src/hal/../misc/lv_color.h **** 
   9:Middlewares/lvgl/src/extra/widgets/colorwheel/../../../../src/hal/../misc/lv_color.h **** #ifdef __cplusplus
  10:Middlewares/lvgl/src/extra/widgets/colorwheel/../../../../src/hal/../misc/lv_color.h **** extern "C" {
  11:Middlewares/lvgl/src/extra/widgets/colorwheel/../../../../src/hal/../misc/lv_color.h **** #endif
  12:Middlewares/lvgl/src/extra/widgets/colorwheel/../../../../src/hal/../misc/lv_color.h **** 
  13:Middlewares/lvgl/src/extra/widgets/colorwheel/../../../../src/hal/../misc/lv_color.h **** /*********************
  14:Middlewares/lvgl/src/extra/widgets/colorwheel/../../../../src/hal/../misc/lv_color.h ****  *      INCLUDES
  15:Middlewares/lvgl/src/extra/widgets/colorwheel/../../../../src/hal/../misc/lv_color.h ****  *********************/
  16:Middlewares/lvgl/src/extra/widgets/colorwheel/../../../../src/hal/../misc/lv_color.h **** #include "../lv_conf_internal.h"
  17:Middlewares/lvgl/src/extra/widgets/colorwheel/../../../../src/hal/../misc/lv_color.h **** #include "lv_math.h"
  18:Middlewares/lvgl/src/extra/widgets/colorwheel/../../../../src/hal/../misc/lv_color.h **** #include "lv_types.h"
  19:Middlewares/lvgl/src/extra/widgets/colorwheel/../../../../src/hal/../misc/lv_color.h **** 
  20:Middlewares/lvgl/src/extra/widgets/colorwheel/../../../../src/hal/../misc/lv_color.h **** /*Error checking*/
  21:Middlewares/lvgl/src/extra/widgets/colorwheel/../../../../src/hal/../misc/lv_color.h **** #if LV_COLOR_DEPTH == 24
  22:Middlewares/lvgl/src/extra/widgets/colorwheel/../../../../src/hal/../misc/lv_color.h **** #error "LV_COLOR_DEPTH 24 is deprecated. Use LV_COLOR_DEPTH 32 instead (lv_conf.h)"
  23:Middlewares/lvgl/src/extra/widgets/colorwheel/../../../../src/hal/../misc/lv_color.h **** #endif
  24:Middlewares/lvgl/src/extra/widgets/colorwheel/../../../../src/hal/../misc/lv_color.h **** 
  25:Middlewares/lvgl/src/extra/widgets/colorwheel/../../../../src/hal/../misc/lv_color.h **** #if LV_COLOR_DEPTH != 32 && LV_COLOR_SCREEN_TRANSP != 0
  26:Middlewares/lvgl/src/extra/widgets/colorwheel/../../../../src/hal/../misc/lv_color.h **** #error "LV_COLOR_SCREEN_TRANSP requires LV_COLOR_DEPTH == 32. Set it in lv_conf.h"
  27:Middlewares/lvgl/src/extra/widgets/colorwheel/../../../../src/hal/../misc/lv_color.h **** #endif
  28:Middlewares/lvgl/src/extra/widgets/colorwheel/../../../../src/hal/../misc/lv_color.h **** 
  29:Middlewares/lvgl/src/extra/widgets/colorwheel/../../../../src/hal/../misc/lv_color.h **** #if LV_COLOR_DEPTH != 16 && LV_COLOR_16_SWAP != 0
  30:Middlewares/lvgl/src/extra/widgets/colorwheel/../../../../src/hal/../misc/lv_color.h **** #error "LV_COLOR_16_SWAP requires LV_COLOR_DEPTH == 16. Set it in lv_conf.h"
  31:Middlewares/lvgl/src/extra/widgets/colorwheel/../../../../src/hal/../misc/lv_color.h **** #endif
  32:Middlewares/lvgl/src/extra/widgets/colorwheel/../../../../src/hal/../misc/lv_color.h **** 
  33:Middlewares/lvgl/src/extra/widgets/colorwheel/../../../../src/hal/../misc/lv_color.h **** #include <stdint.h>
  34:Middlewares/lvgl/src/extra/widgets/colorwheel/../../../../src/hal/../misc/lv_color.h **** 
  35:Middlewares/lvgl/src/extra/widgets/colorwheel/../../../../src/hal/../misc/lv_color.h **** /*********************
  36:Middlewares/lvgl/src/extra/widgets/colorwheel/../../../../src/hal/../misc/lv_color.h ****  *      DEFINES
  37:Middlewares/lvgl/src/extra/widgets/colorwheel/../../../../src/hal/../misc/lv_color.h ****  *********************/
  38:Middlewares/lvgl/src/extra/widgets/colorwheel/../../../../src/hal/../misc/lv_color.h **** 
  39:Middlewares/lvgl/src/extra/widgets/colorwheel/../../../../src/hal/../misc/lv_color.h **** /**
  40:Middlewares/lvgl/src/extra/widgets/colorwheel/../../../../src/hal/../misc/lv_color.h ****  * Opacity percentages.
  41:Middlewares/lvgl/src/extra/widgets/colorwheel/../../../../src/hal/../misc/lv_color.h ****  */
  42:Middlewares/lvgl/src/extra/widgets/colorwheel/../../../../src/hal/../misc/lv_color.h **** enum {
  43:Middlewares/lvgl/src/extra/widgets/colorwheel/../../../../src/hal/../misc/lv_color.h ****     LV_OPA_TRANSP = 0,
  44:Middlewares/lvgl/src/extra/widgets/colorwheel/../../../../src/hal/../misc/lv_color.h ****     LV_OPA_0      = 0,
  45:Middlewares/lvgl/src/extra/widgets/colorwheel/../../../../src/hal/../misc/lv_color.h ****     LV_OPA_10     = 25,
  46:Middlewares/lvgl/src/extra/widgets/colorwheel/../../../../src/hal/../misc/lv_color.h ****     LV_OPA_20     = 51,
  47:Middlewares/lvgl/src/extra/widgets/colorwheel/../../../../src/hal/../misc/lv_color.h ****     LV_OPA_30     = 76,
ARM GAS  /tmp/ccAb9Zks.s 			page 19


  48:Middlewares/lvgl/src/extra/widgets/colorwheel/../../../../src/hal/../misc/lv_color.h ****     LV_OPA_40     = 102,
  49:Middlewares/lvgl/src/extra/widgets/colorwheel/../../../../src/hal/../misc/lv_color.h ****     LV_OPA_50     = 127,
  50:Middlewares/lvgl/src/extra/widgets/colorwheel/../../../../src/hal/../misc/lv_color.h ****     LV_OPA_60     = 153,
  51:Middlewares/lvgl/src/extra/widgets/colorwheel/../../../../src/hal/../misc/lv_color.h ****     LV_OPA_70     = 178,
  52:Middlewares/lvgl/src/extra/widgets/colorwheel/../../../../src/hal/../misc/lv_color.h ****     LV_OPA_80     = 204,
  53:Middlewares/lvgl/src/extra/widgets/colorwheel/../../../../src/hal/../misc/lv_color.h ****     LV_OPA_90     = 229,
  54:Middlewares/lvgl/src/extra/widgets/colorwheel/../../../../src/hal/../misc/lv_color.h ****     LV_OPA_100    = 255,
  55:Middlewares/lvgl/src/extra/widgets/colorwheel/../../../../src/hal/../misc/lv_color.h ****     LV_OPA_COVER  = 255,
  56:Middlewares/lvgl/src/extra/widgets/colorwheel/../../../../src/hal/../misc/lv_color.h **** };
  57:Middlewares/lvgl/src/extra/widgets/colorwheel/../../../../src/hal/../misc/lv_color.h **** 
  58:Middlewares/lvgl/src/extra/widgets/colorwheel/../../../../src/hal/../misc/lv_color.h **** #define LV_OPA_MIN 2    /*Opacities below this will be transparent*/
  59:Middlewares/lvgl/src/extra/widgets/colorwheel/../../../../src/hal/../misc/lv_color.h **** #define LV_OPA_MAX 253  /*Opacities above this will fully cover*/
  60:Middlewares/lvgl/src/extra/widgets/colorwheel/../../../../src/hal/../misc/lv_color.h **** 
  61:Middlewares/lvgl/src/extra/widgets/colorwheel/../../../../src/hal/../misc/lv_color.h **** #if LV_COLOR_DEPTH == 1
  62:Middlewares/lvgl/src/extra/widgets/colorwheel/../../../../src/hal/../misc/lv_color.h **** #define LV_COLOR_SIZE 8
  63:Middlewares/lvgl/src/extra/widgets/colorwheel/../../../../src/hal/../misc/lv_color.h **** #elif LV_COLOR_DEPTH == 8
  64:Middlewares/lvgl/src/extra/widgets/colorwheel/../../../../src/hal/../misc/lv_color.h **** #define LV_COLOR_SIZE 8
  65:Middlewares/lvgl/src/extra/widgets/colorwheel/../../../../src/hal/../misc/lv_color.h **** #elif LV_COLOR_DEPTH == 16
  66:Middlewares/lvgl/src/extra/widgets/colorwheel/../../../../src/hal/../misc/lv_color.h **** #define LV_COLOR_SIZE 16
  67:Middlewares/lvgl/src/extra/widgets/colorwheel/../../../../src/hal/../misc/lv_color.h **** #elif LV_COLOR_DEPTH == 32
  68:Middlewares/lvgl/src/extra/widgets/colorwheel/../../../../src/hal/../misc/lv_color.h **** #define LV_COLOR_SIZE 32
  69:Middlewares/lvgl/src/extra/widgets/colorwheel/../../../../src/hal/../misc/lv_color.h **** #else
  70:Middlewares/lvgl/src/extra/widgets/colorwheel/../../../../src/hal/../misc/lv_color.h **** #error "Invalid LV_COLOR_DEPTH in lv_conf.h! Set it to 1, 8, 16 or 32!"
  71:Middlewares/lvgl/src/extra/widgets/colorwheel/../../../../src/hal/../misc/lv_color.h **** #endif
  72:Middlewares/lvgl/src/extra/widgets/colorwheel/../../../../src/hal/../misc/lv_color.h **** 
  73:Middlewares/lvgl/src/extra/widgets/colorwheel/../../../../src/hal/../misc/lv_color.h **** /**
  74:Middlewares/lvgl/src/extra/widgets/colorwheel/../../../../src/hal/../misc/lv_color.h ****  * Adjust color mix functions rounding.
  75:Middlewares/lvgl/src/extra/widgets/colorwheel/../../../../src/hal/../misc/lv_color.h ****  * GPUs might calculate color mix (blending) differently.
  76:Middlewares/lvgl/src/extra/widgets/colorwheel/../../../../src/hal/../misc/lv_color.h ****  * Should be in range of 0..254
  77:Middlewares/lvgl/src/extra/widgets/colorwheel/../../../../src/hal/../misc/lv_color.h ****  * 0: no adjustment, get the integer part of the result (round down)
  78:Middlewares/lvgl/src/extra/widgets/colorwheel/../../../../src/hal/../misc/lv_color.h ****  * 64: round up from x.75
  79:Middlewares/lvgl/src/extra/widgets/colorwheel/../../../../src/hal/../misc/lv_color.h ****  * 128: round up from half
  80:Middlewares/lvgl/src/extra/widgets/colorwheel/../../../../src/hal/../misc/lv_color.h ****  * 192: round up from x.25
  81:Middlewares/lvgl/src/extra/widgets/colorwheel/../../../../src/hal/../misc/lv_color.h ****  * 254: round up*/
  82:Middlewares/lvgl/src/extra/widgets/colorwheel/../../../../src/hal/../misc/lv_color.h **** #ifndef LV_COLOR_MIX_ROUND_OFS
  83:Middlewares/lvgl/src/extra/widgets/colorwheel/../../../../src/hal/../misc/lv_color.h **** #if LV_COLOR_DEPTH == 32
  84:Middlewares/lvgl/src/extra/widgets/colorwheel/../../../../src/hal/../misc/lv_color.h **** #define LV_COLOR_MIX_ROUND_OFS 0
  85:Middlewares/lvgl/src/extra/widgets/colorwheel/../../../../src/hal/../misc/lv_color.h **** #else
  86:Middlewares/lvgl/src/extra/widgets/colorwheel/../../../../src/hal/../misc/lv_color.h **** #define LV_COLOR_MIX_ROUND_OFS 128
  87:Middlewares/lvgl/src/extra/widgets/colorwheel/../../../../src/hal/../misc/lv_color.h **** #endif
  88:Middlewares/lvgl/src/extra/widgets/colorwheel/../../../../src/hal/../misc/lv_color.h **** #endif
  89:Middlewares/lvgl/src/extra/widgets/colorwheel/../../../../src/hal/../misc/lv_color.h **** 
  90:Middlewares/lvgl/src/extra/widgets/colorwheel/../../../../src/hal/../misc/lv_color.h **** #if defined(__cplusplus) && !defined(_LV_COLOR_HAS_MODERN_CPP)
  91:Middlewares/lvgl/src/extra/widgets/colorwheel/../../../../src/hal/../misc/lv_color.h **** /**
  92:Middlewares/lvgl/src/extra/widgets/colorwheel/../../../../src/hal/../misc/lv_color.h **** * MSVC compiler's definition of the __cplusplus indicating 199711L regardless to C++ standard versi
  93:Middlewares/lvgl/src/extra/widgets/colorwheel/../../../../src/hal/../misc/lv_color.h **** * see https://devblogs.microsoft.com/cppblog/msvc-now-correctly-reports-cplusplus
  94:Middlewares/lvgl/src/extra/widgets/colorwheel/../../../../src/hal/../misc/lv_color.h **** * so we use _MSC_VER macro instead of __cplusplus
  95:Middlewares/lvgl/src/extra/widgets/colorwheel/../../../../src/hal/../misc/lv_color.h **** */
  96:Middlewares/lvgl/src/extra/widgets/colorwheel/../../../../src/hal/../misc/lv_color.h **** #ifdef _MSC_VER
  97:Middlewares/lvgl/src/extra/widgets/colorwheel/../../../../src/hal/../misc/lv_color.h **** #if _MSC_VER >= 1900 /*Visual Studio 2015*/
  98:Middlewares/lvgl/src/extra/widgets/colorwheel/../../../../src/hal/../misc/lv_color.h **** #define _LV_COLOR_HAS_MODERN_CPP 1
  99:Middlewares/lvgl/src/extra/widgets/colorwheel/../../../../src/hal/../misc/lv_color.h **** #endif
 100:Middlewares/lvgl/src/extra/widgets/colorwheel/../../../../src/hal/../misc/lv_color.h **** #else
 101:Middlewares/lvgl/src/extra/widgets/colorwheel/../../../../src/hal/../misc/lv_color.h **** #if __cplusplus >= 201103L
 102:Middlewares/lvgl/src/extra/widgets/colorwheel/../../../../src/hal/../misc/lv_color.h **** #define _LV_COLOR_HAS_MODERN_CPP 1
 103:Middlewares/lvgl/src/extra/widgets/colorwheel/../../../../src/hal/../misc/lv_color.h **** #endif
 104:Middlewares/lvgl/src/extra/widgets/colorwheel/../../../../src/hal/../misc/lv_color.h **** #endif
ARM GAS  /tmp/ccAb9Zks.s 			page 20


 105:Middlewares/lvgl/src/extra/widgets/colorwheel/../../../../src/hal/../misc/lv_color.h **** #endif /*__cplusplus*/
 106:Middlewares/lvgl/src/extra/widgets/colorwheel/../../../../src/hal/../misc/lv_color.h **** 
 107:Middlewares/lvgl/src/extra/widgets/colorwheel/../../../../src/hal/../misc/lv_color.h **** #ifndef _LV_COLOR_HAS_MODERN_CPP
 108:Middlewares/lvgl/src/extra/widgets/colorwheel/../../../../src/hal/../misc/lv_color.h **** #define _LV_COLOR_HAS_MODERN_CPP 0
 109:Middlewares/lvgl/src/extra/widgets/colorwheel/../../../../src/hal/../misc/lv_color.h **** #endif
 110:Middlewares/lvgl/src/extra/widgets/colorwheel/../../../../src/hal/../misc/lv_color.h **** 
 111:Middlewares/lvgl/src/extra/widgets/colorwheel/../../../../src/hal/../misc/lv_color.h **** #if _LV_COLOR_HAS_MODERN_CPP
 112:Middlewares/lvgl/src/extra/widgets/colorwheel/../../../../src/hal/../misc/lv_color.h **** /*Fix msvc compiler error C4576 inside C++ code*/
 113:Middlewares/lvgl/src/extra/widgets/colorwheel/../../../../src/hal/../misc/lv_color.h **** #define _LV_COLOR_MAKE_TYPE_HELPER lv_color_t
 114:Middlewares/lvgl/src/extra/widgets/colorwheel/../../../../src/hal/../misc/lv_color.h **** #else
 115:Middlewares/lvgl/src/extra/widgets/colorwheel/../../../../src/hal/../misc/lv_color.h **** #define _LV_COLOR_MAKE_TYPE_HELPER (lv_color_t)
 116:Middlewares/lvgl/src/extra/widgets/colorwheel/../../../../src/hal/../misc/lv_color.h **** #endif
 117:Middlewares/lvgl/src/extra/widgets/colorwheel/../../../../src/hal/../misc/lv_color.h **** 
 118:Middlewares/lvgl/src/extra/widgets/colorwheel/../../../../src/hal/../misc/lv_color.h **** /*---------------------------------------
 119:Middlewares/lvgl/src/extra/widgets/colorwheel/../../../../src/hal/../misc/lv_color.h ****  * Macros for all existing color depths
 120:Middlewares/lvgl/src/extra/widgets/colorwheel/../../../../src/hal/../misc/lv_color.h ****  * to set/get values of the color channels
 121:Middlewares/lvgl/src/extra/widgets/colorwheel/../../../../src/hal/../misc/lv_color.h ****  *------------------------------------------*/
 122:Middlewares/lvgl/src/extra/widgets/colorwheel/../../../../src/hal/../misc/lv_color.h **** # define LV_COLOR_SET_R1(c, v) (c).ch.red = (uint8_t)((v) & 0x1)
 123:Middlewares/lvgl/src/extra/widgets/colorwheel/../../../../src/hal/../misc/lv_color.h **** # define LV_COLOR_SET_G1(c, v) (c).ch.green = (uint8_t)((v) & 0x1)
 124:Middlewares/lvgl/src/extra/widgets/colorwheel/../../../../src/hal/../misc/lv_color.h **** # define LV_COLOR_SET_B1(c, v) (c).ch.blue = (uint8_t)((v) & 0x1)
 125:Middlewares/lvgl/src/extra/widgets/colorwheel/../../../../src/hal/../misc/lv_color.h **** # define LV_COLOR_SET_A1(c, v) do {} while(0)
 126:Middlewares/lvgl/src/extra/widgets/colorwheel/../../../../src/hal/../misc/lv_color.h **** 
 127:Middlewares/lvgl/src/extra/widgets/colorwheel/../../../../src/hal/../misc/lv_color.h **** # define LV_COLOR_GET_R1(c) (c).ch.red
 128:Middlewares/lvgl/src/extra/widgets/colorwheel/../../../../src/hal/../misc/lv_color.h **** # define LV_COLOR_GET_G1(c) (c).ch.green
 129:Middlewares/lvgl/src/extra/widgets/colorwheel/../../../../src/hal/../misc/lv_color.h **** # define LV_COLOR_GET_B1(c) (c).ch.blue
 130:Middlewares/lvgl/src/extra/widgets/colorwheel/../../../../src/hal/../misc/lv_color.h **** # define LV_COLOR_GET_A1(c) 0xFF
 131:Middlewares/lvgl/src/extra/widgets/colorwheel/../../../../src/hal/../misc/lv_color.h **** 
 132:Middlewares/lvgl/src/extra/widgets/colorwheel/../../../../src/hal/../misc/lv_color.h **** # define _LV_COLOR_ZERO_INITIALIZER1 {0x00}
 133:Middlewares/lvgl/src/extra/widgets/colorwheel/../../../../src/hal/../misc/lv_color.h **** # define LV_COLOR_MAKE1(r8, g8, b8)  {(uint8_t)((b8 >> 7) | (g8 >> 7) | (r8 >> 7))}
 134:Middlewares/lvgl/src/extra/widgets/colorwheel/../../../../src/hal/../misc/lv_color.h **** 
 135:Middlewares/lvgl/src/extra/widgets/colorwheel/../../../../src/hal/../misc/lv_color.h **** # define LV_COLOR_SET_R8(c, v) (c).ch.red = (uint8_t)((v) & 0x7U)
 136:Middlewares/lvgl/src/extra/widgets/colorwheel/../../../../src/hal/../misc/lv_color.h **** # define LV_COLOR_SET_G8(c, v) (c).ch.green = (uint8_t)((v) & 0x7U)
 137:Middlewares/lvgl/src/extra/widgets/colorwheel/../../../../src/hal/../misc/lv_color.h **** # define LV_COLOR_SET_B8(c, v) (c).ch.blue = (uint8_t)((v) & 0x3U)
 138:Middlewares/lvgl/src/extra/widgets/colorwheel/../../../../src/hal/../misc/lv_color.h **** # define LV_COLOR_SET_A8(c, v) do {} while(0)
 139:Middlewares/lvgl/src/extra/widgets/colorwheel/../../../../src/hal/../misc/lv_color.h **** 
 140:Middlewares/lvgl/src/extra/widgets/colorwheel/../../../../src/hal/../misc/lv_color.h **** # define LV_COLOR_GET_R8(c) (c).ch.red
 141:Middlewares/lvgl/src/extra/widgets/colorwheel/../../../../src/hal/../misc/lv_color.h **** # define LV_COLOR_GET_G8(c) (c).ch.green
 142:Middlewares/lvgl/src/extra/widgets/colorwheel/../../../../src/hal/../misc/lv_color.h **** # define LV_COLOR_GET_B8(c) (c).ch.blue
 143:Middlewares/lvgl/src/extra/widgets/colorwheel/../../../../src/hal/../misc/lv_color.h **** # define LV_COLOR_GET_A8(c) 0xFF
 144:Middlewares/lvgl/src/extra/widgets/colorwheel/../../../../src/hal/../misc/lv_color.h **** 
 145:Middlewares/lvgl/src/extra/widgets/colorwheel/../../../../src/hal/../misc/lv_color.h **** # define _LV_COLOR_ZERO_INITIALIZER8 _LV_COLOR_MAKE_TYPE_HELPER {{0x00, 0x00, 0x00}}
 146:Middlewares/lvgl/src/extra/widgets/colorwheel/../../../../src/hal/../misc/lv_color.h **** # define LV_COLOR_MAKE8(r8, g8, b8) _LV_COLOR_MAKE_TYPE_HELPER  {{(uint8_t)((b8 >> 6) & 0x3U), (uin
 147:Middlewares/lvgl/src/extra/widgets/colorwheel/../../../../src/hal/../misc/lv_color.h **** 
 148:Middlewares/lvgl/src/extra/widgets/colorwheel/../../../../src/hal/../misc/lv_color.h **** # define LV_COLOR_SET_R16(c, v) (c).ch.red = (uint8_t)((v) & 0x1FU)
 149:Middlewares/lvgl/src/extra/widgets/colorwheel/../../../../src/hal/../misc/lv_color.h **** #if LV_COLOR_16_SWAP == 0
 150:Middlewares/lvgl/src/extra/widgets/colorwheel/../../../../src/hal/../misc/lv_color.h **** # define LV_COLOR_SET_G16(c, v) (c).ch.green = (uint8_t)((v) & 0x3FU)
 151:Middlewares/lvgl/src/extra/widgets/colorwheel/../../../../src/hal/../misc/lv_color.h **** #else
 152:Middlewares/lvgl/src/extra/widgets/colorwheel/../../../../src/hal/../misc/lv_color.h **** # define LV_COLOR_SET_G16(c, v) {(c).ch.green_h = (uint8_t)(((v) >> 3) & 0x7); (c).ch.green_l = (ui
 153:Middlewares/lvgl/src/extra/widgets/colorwheel/../../../../src/hal/../misc/lv_color.h **** #endif
 154:Middlewares/lvgl/src/extra/widgets/colorwheel/../../../../src/hal/../misc/lv_color.h **** # define LV_COLOR_SET_B16(c, v) (c).ch.blue = (uint8_t)((v) & 0x1FU)
 155:Middlewares/lvgl/src/extra/widgets/colorwheel/../../../../src/hal/../misc/lv_color.h **** # define LV_COLOR_SET_A16(c, v) do {} while(0)
 156:Middlewares/lvgl/src/extra/widgets/colorwheel/../../../../src/hal/../misc/lv_color.h **** 
 157:Middlewares/lvgl/src/extra/widgets/colorwheel/../../../../src/hal/../misc/lv_color.h **** # define LV_COLOR_GET_R16(c) (c).ch.red
 158:Middlewares/lvgl/src/extra/widgets/colorwheel/../../../../src/hal/../misc/lv_color.h **** #if LV_COLOR_16_SWAP == 0
 159:Middlewares/lvgl/src/extra/widgets/colorwheel/../../../../src/hal/../misc/lv_color.h **** # define LV_COLOR_GET_G16(c) (c).ch.green
 160:Middlewares/lvgl/src/extra/widgets/colorwheel/../../../../src/hal/../misc/lv_color.h **** #else
 161:Middlewares/lvgl/src/extra/widgets/colorwheel/../../../../src/hal/../misc/lv_color.h **** # define LV_COLOR_GET_G16(c) (((c).ch.green_h << 3) + (c).ch.green_l)
ARM GAS  /tmp/ccAb9Zks.s 			page 21


 162:Middlewares/lvgl/src/extra/widgets/colorwheel/../../../../src/hal/../misc/lv_color.h **** #endif
 163:Middlewares/lvgl/src/extra/widgets/colorwheel/../../../../src/hal/../misc/lv_color.h **** # define LV_COLOR_GET_B16(c) (c).ch.blue
 164:Middlewares/lvgl/src/extra/widgets/colorwheel/../../../../src/hal/../misc/lv_color.h **** # define LV_COLOR_GET_A16(c) 0xFF
 165:Middlewares/lvgl/src/extra/widgets/colorwheel/../../../../src/hal/../misc/lv_color.h **** 
 166:Middlewares/lvgl/src/extra/widgets/colorwheel/../../../../src/hal/../misc/lv_color.h **** #if LV_COLOR_16_SWAP == 0
 167:Middlewares/lvgl/src/extra/widgets/colorwheel/../../../../src/hal/../misc/lv_color.h **** # define _LV_COLOR_ZERO_INITIALIZER16  {{0x00, 0x00, 0x00}}
 168:Middlewares/lvgl/src/extra/widgets/colorwheel/../../../../src/hal/../misc/lv_color.h **** # define LV_COLOR_MAKE16(r8, g8, b8) {{(uint8_t)((b8 >> 3) & 0x1FU), (uint8_t)((g8 >> 2) & 0x3FU), 
 169:Middlewares/lvgl/src/extra/widgets/colorwheel/../../../../src/hal/../misc/lv_color.h **** #else
 170:Middlewares/lvgl/src/extra/widgets/colorwheel/../../../../src/hal/../misc/lv_color.h **** # define _LV_COLOR_ZERO_INITIALIZER16 {{0x00, 0x00, 0x00, 0x00}}
 171:Middlewares/lvgl/src/extra/widgets/colorwheel/../../../../src/hal/../misc/lv_color.h **** # define LV_COLOR_MAKE16(r8, g8, b8) {{(uint8_t)((g8 >> 5) & 0x7U), (uint8_t)((r8 >> 3) & 0x1FU), (
 172:Middlewares/lvgl/src/extra/widgets/colorwheel/../../../../src/hal/../misc/lv_color.h **** #endif
 173:Middlewares/lvgl/src/extra/widgets/colorwheel/../../../../src/hal/../misc/lv_color.h **** 
 174:Middlewares/lvgl/src/extra/widgets/colorwheel/../../../../src/hal/../misc/lv_color.h **** # define LV_COLOR_SET_R32(c, v) (c).ch.red = (uint8_t)((v) & 0xFF)
 175:Middlewares/lvgl/src/extra/widgets/colorwheel/../../../../src/hal/../misc/lv_color.h **** # define LV_COLOR_SET_G32(c, v) (c).ch.green = (uint8_t)((v) & 0xFF)
 176:Middlewares/lvgl/src/extra/widgets/colorwheel/../../../../src/hal/../misc/lv_color.h **** # define LV_COLOR_SET_B32(c, v) (c).ch.blue = (uint8_t)((v) & 0xFF)
 177:Middlewares/lvgl/src/extra/widgets/colorwheel/../../../../src/hal/../misc/lv_color.h **** # define LV_COLOR_SET_A32(c, v) (c).ch.alpha = (uint8_t)((v) & 0xFF)
 178:Middlewares/lvgl/src/extra/widgets/colorwheel/../../../../src/hal/../misc/lv_color.h **** 
 179:Middlewares/lvgl/src/extra/widgets/colorwheel/../../../../src/hal/../misc/lv_color.h **** # define LV_COLOR_GET_R32(c) (c).ch.red
 180:Middlewares/lvgl/src/extra/widgets/colorwheel/../../../../src/hal/../misc/lv_color.h **** # define LV_COLOR_GET_G32(c) (c).ch.green
 181:Middlewares/lvgl/src/extra/widgets/colorwheel/../../../../src/hal/../misc/lv_color.h **** # define LV_COLOR_GET_B32(c) (c).ch.blue
 182:Middlewares/lvgl/src/extra/widgets/colorwheel/../../../../src/hal/../misc/lv_color.h **** # define LV_COLOR_GET_A32(c) (c).ch.alpha
 183:Middlewares/lvgl/src/extra/widgets/colorwheel/../../../../src/hal/../misc/lv_color.h **** 
 184:Middlewares/lvgl/src/extra/widgets/colorwheel/../../../../src/hal/../misc/lv_color.h **** # define _LV_COLOR_ZERO_INITIALIZER32  {{0x00, 0x00, 0x00, 0x00}}
 185:Middlewares/lvgl/src/extra/widgets/colorwheel/../../../../src/hal/../misc/lv_color.h **** # define LV_COLOR_MAKE32(r8, g8, b8) {{b8, g8, r8, 0xff}} /*Fix 0xff alpha*/
 186:Middlewares/lvgl/src/extra/widgets/colorwheel/../../../../src/hal/../misc/lv_color.h **** 
 187:Middlewares/lvgl/src/extra/widgets/colorwheel/../../../../src/hal/../misc/lv_color.h **** /*---------------------------------------
 188:Middlewares/lvgl/src/extra/widgets/colorwheel/../../../../src/hal/../misc/lv_color.h ****  * Macros for the current color depth
 189:Middlewares/lvgl/src/extra/widgets/colorwheel/../../../../src/hal/../misc/lv_color.h ****  * to set/get values of the color channels
 190:Middlewares/lvgl/src/extra/widgets/colorwheel/../../../../src/hal/../misc/lv_color.h ****  *------------------------------------------*/
 191:Middlewares/lvgl/src/extra/widgets/colorwheel/../../../../src/hal/../misc/lv_color.h **** #define LV_COLOR_SET_R(c, v) LV_CONCAT(LV_COLOR_SET_R, LV_COLOR_DEPTH)(c, v)
 192:Middlewares/lvgl/src/extra/widgets/colorwheel/../../../../src/hal/../misc/lv_color.h **** #define LV_COLOR_SET_G(c, v) LV_CONCAT(LV_COLOR_SET_G, LV_COLOR_DEPTH)(c, v)
 193:Middlewares/lvgl/src/extra/widgets/colorwheel/../../../../src/hal/../misc/lv_color.h **** #define LV_COLOR_SET_B(c, v) LV_CONCAT(LV_COLOR_SET_B, LV_COLOR_DEPTH)(c, v)
 194:Middlewares/lvgl/src/extra/widgets/colorwheel/../../../../src/hal/../misc/lv_color.h **** #define LV_COLOR_SET_A(c, v) LV_CONCAT(LV_COLOR_SET_A, LV_COLOR_DEPTH)(c, v)
 195:Middlewares/lvgl/src/extra/widgets/colorwheel/../../../../src/hal/../misc/lv_color.h **** 
 196:Middlewares/lvgl/src/extra/widgets/colorwheel/../../../../src/hal/../misc/lv_color.h **** #define LV_COLOR_GET_R(c) LV_CONCAT(LV_COLOR_GET_R, LV_COLOR_DEPTH)(c)
 197:Middlewares/lvgl/src/extra/widgets/colorwheel/../../../../src/hal/../misc/lv_color.h **** #define LV_COLOR_GET_G(c) LV_CONCAT(LV_COLOR_GET_G, LV_COLOR_DEPTH)(c)
 198:Middlewares/lvgl/src/extra/widgets/colorwheel/../../../../src/hal/../misc/lv_color.h **** #define LV_COLOR_GET_B(c) LV_CONCAT(LV_COLOR_GET_B, LV_COLOR_DEPTH)(c)
 199:Middlewares/lvgl/src/extra/widgets/colorwheel/../../../../src/hal/../misc/lv_color.h **** #define LV_COLOR_GET_A(c) LV_CONCAT(LV_COLOR_GET_A, LV_COLOR_DEPTH)(c)
 200:Middlewares/lvgl/src/extra/widgets/colorwheel/../../../../src/hal/../misc/lv_color.h **** 
 201:Middlewares/lvgl/src/extra/widgets/colorwheel/../../../../src/hal/../misc/lv_color.h **** #define _LV_COLOR_ZERO_INITIALIZER LV_CONCAT(_LV_COLOR_ZERO_INITIALIZER, LV_COLOR_DEPTH)
 202:Middlewares/lvgl/src/extra/widgets/colorwheel/../../../../src/hal/../misc/lv_color.h **** #define LV_COLOR_MAKE(r8, g8, b8) LV_CONCAT(LV_COLOR_MAKE, LV_COLOR_DEPTH)(r8, g8, b8)
 203:Middlewares/lvgl/src/extra/widgets/colorwheel/../../../../src/hal/../misc/lv_color.h **** 
 204:Middlewares/lvgl/src/extra/widgets/colorwheel/../../../../src/hal/../misc/lv_color.h **** #define LV_UDIV255(x) ((uint32_t)((uint32_t) (x) * 0x8081) >> 0x17)
 205:Middlewares/lvgl/src/extra/widgets/colorwheel/../../../../src/hal/../misc/lv_color.h **** 
 206:Middlewares/lvgl/src/extra/widgets/colorwheel/../../../../src/hal/../misc/lv_color.h **** /**********************
 207:Middlewares/lvgl/src/extra/widgets/colorwheel/../../../../src/hal/../misc/lv_color.h ****  *      TYPEDEFS
 208:Middlewares/lvgl/src/extra/widgets/colorwheel/../../../../src/hal/../misc/lv_color.h ****  **********************/
 209:Middlewares/lvgl/src/extra/widgets/colorwheel/../../../../src/hal/../misc/lv_color.h **** 
 210:Middlewares/lvgl/src/extra/widgets/colorwheel/../../../../src/hal/../misc/lv_color.h **** typedef union {
 211:Middlewares/lvgl/src/extra/widgets/colorwheel/../../../../src/hal/../misc/lv_color.h ****     uint8_t full; /*must be declared first to set all bits of byte via initializer list*/
 212:Middlewares/lvgl/src/extra/widgets/colorwheel/../../../../src/hal/../misc/lv_color.h ****     union {
 213:Middlewares/lvgl/src/extra/widgets/colorwheel/../../../../src/hal/../misc/lv_color.h ****         uint8_t blue : 1;
 214:Middlewares/lvgl/src/extra/widgets/colorwheel/../../../../src/hal/../misc/lv_color.h ****         uint8_t green : 1;
 215:Middlewares/lvgl/src/extra/widgets/colorwheel/../../../../src/hal/../misc/lv_color.h ****         uint8_t red : 1;
 216:Middlewares/lvgl/src/extra/widgets/colorwheel/../../../../src/hal/../misc/lv_color.h ****     } ch;
 217:Middlewares/lvgl/src/extra/widgets/colorwheel/../../../../src/hal/../misc/lv_color.h **** } lv_color1_t;
 218:Middlewares/lvgl/src/extra/widgets/colorwheel/../../../../src/hal/../misc/lv_color.h **** 
ARM GAS  /tmp/ccAb9Zks.s 			page 22


 219:Middlewares/lvgl/src/extra/widgets/colorwheel/../../../../src/hal/../misc/lv_color.h **** typedef union {
 220:Middlewares/lvgl/src/extra/widgets/colorwheel/../../../../src/hal/../misc/lv_color.h ****     struct {
 221:Middlewares/lvgl/src/extra/widgets/colorwheel/../../../../src/hal/../misc/lv_color.h ****         uint8_t blue : 2;
 222:Middlewares/lvgl/src/extra/widgets/colorwheel/../../../../src/hal/../misc/lv_color.h ****         uint8_t green : 3;
 223:Middlewares/lvgl/src/extra/widgets/colorwheel/../../../../src/hal/../misc/lv_color.h ****         uint8_t red : 3;
 224:Middlewares/lvgl/src/extra/widgets/colorwheel/../../../../src/hal/../misc/lv_color.h ****     } ch;
 225:Middlewares/lvgl/src/extra/widgets/colorwheel/../../../../src/hal/../misc/lv_color.h ****     uint8_t full;
 226:Middlewares/lvgl/src/extra/widgets/colorwheel/../../../../src/hal/../misc/lv_color.h **** } lv_color8_t;
 227:Middlewares/lvgl/src/extra/widgets/colorwheel/../../../../src/hal/../misc/lv_color.h **** 
 228:Middlewares/lvgl/src/extra/widgets/colorwheel/../../../../src/hal/../misc/lv_color.h **** typedef union {
 229:Middlewares/lvgl/src/extra/widgets/colorwheel/../../../../src/hal/../misc/lv_color.h ****     struct {
 230:Middlewares/lvgl/src/extra/widgets/colorwheel/../../../../src/hal/../misc/lv_color.h **** #if LV_COLOR_16_SWAP == 0
 231:Middlewares/lvgl/src/extra/widgets/colorwheel/../../../../src/hal/../misc/lv_color.h ****         uint16_t blue : 5;
 232:Middlewares/lvgl/src/extra/widgets/colorwheel/../../../../src/hal/../misc/lv_color.h ****         uint16_t green : 6;
 233:Middlewares/lvgl/src/extra/widgets/colorwheel/../../../../src/hal/../misc/lv_color.h ****         uint16_t red : 5;
 234:Middlewares/lvgl/src/extra/widgets/colorwheel/../../../../src/hal/../misc/lv_color.h **** #else
 235:Middlewares/lvgl/src/extra/widgets/colorwheel/../../../../src/hal/../misc/lv_color.h ****         uint16_t green_h : 3;
 236:Middlewares/lvgl/src/extra/widgets/colorwheel/../../../../src/hal/../misc/lv_color.h ****         uint16_t red : 5;
 237:Middlewares/lvgl/src/extra/widgets/colorwheel/../../../../src/hal/../misc/lv_color.h ****         uint16_t blue : 5;
 238:Middlewares/lvgl/src/extra/widgets/colorwheel/../../../../src/hal/../misc/lv_color.h ****         uint16_t green_l : 3;
 239:Middlewares/lvgl/src/extra/widgets/colorwheel/../../../../src/hal/../misc/lv_color.h **** #endif
 240:Middlewares/lvgl/src/extra/widgets/colorwheel/../../../../src/hal/../misc/lv_color.h ****     } ch;
 241:Middlewares/lvgl/src/extra/widgets/colorwheel/../../../../src/hal/../misc/lv_color.h ****     uint16_t full;
 242:Middlewares/lvgl/src/extra/widgets/colorwheel/../../../../src/hal/../misc/lv_color.h **** } lv_color16_t;
 243:Middlewares/lvgl/src/extra/widgets/colorwheel/../../../../src/hal/../misc/lv_color.h **** 
 244:Middlewares/lvgl/src/extra/widgets/colorwheel/../../../../src/hal/../misc/lv_color.h **** typedef union {
 245:Middlewares/lvgl/src/extra/widgets/colorwheel/../../../../src/hal/../misc/lv_color.h ****     struct {
 246:Middlewares/lvgl/src/extra/widgets/colorwheel/../../../../src/hal/../misc/lv_color.h ****         uint8_t blue;
 247:Middlewares/lvgl/src/extra/widgets/colorwheel/../../../../src/hal/../misc/lv_color.h ****         uint8_t green;
 248:Middlewares/lvgl/src/extra/widgets/colorwheel/../../../../src/hal/../misc/lv_color.h ****         uint8_t red;
 249:Middlewares/lvgl/src/extra/widgets/colorwheel/../../../../src/hal/../misc/lv_color.h ****         uint8_t alpha;
 250:Middlewares/lvgl/src/extra/widgets/colorwheel/../../../../src/hal/../misc/lv_color.h ****     } ch;
 251:Middlewares/lvgl/src/extra/widgets/colorwheel/../../../../src/hal/../misc/lv_color.h ****     uint32_t full;
 252:Middlewares/lvgl/src/extra/widgets/colorwheel/../../../../src/hal/../misc/lv_color.h **** } lv_color32_t;
 253:Middlewares/lvgl/src/extra/widgets/colorwheel/../../../../src/hal/../misc/lv_color.h **** 
 254:Middlewares/lvgl/src/extra/widgets/colorwheel/../../../../src/hal/../misc/lv_color.h **** typedef LV_CONCAT3(uint, LV_COLOR_SIZE, _t) lv_color_int_t;
 255:Middlewares/lvgl/src/extra/widgets/colorwheel/../../../../src/hal/../misc/lv_color.h **** typedef LV_CONCAT3(lv_color, LV_COLOR_DEPTH, _t) lv_color_t;
 256:Middlewares/lvgl/src/extra/widgets/colorwheel/../../../../src/hal/../misc/lv_color.h **** 
 257:Middlewares/lvgl/src/extra/widgets/colorwheel/../../../../src/hal/../misc/lv_color.h **** typedef struct {
 258:Middlewares/lvgl/src/extra/widgets/colorwheel/../../../../src/hal/../misc/lv_color.h ****     uint16_t h;
 259:Middlewares/lvgl/src/extra/widgets/colorwheel/../../../../src/hal/../misc/lv_color.h ****     uint8_t s;
 260:Middlewares/lvgl/src/extra/widgets/colorwheel/../../../../src/hal/../misc/lv_color.h ****     uint8_t v;
 261:Middlewares/lvgl/src/extra/widgets/colorwheel/../../../../src/hal/../misc/lv_color.h **** } lv_color_hsv_t;
 262:Middlewares/lvgl/src/extra/widgets/colorwheel/../../../../src/hal/../misc/lv_color.h **** 
 263:Middlewares/lvgl/src/extra/widgets/colorwheel/../../../../src/hal/../misc/lv_color.h **** //! @cond Doxygen_Suppress
 264:Middlewares/lvgl/src/extra/widgets/colorwheel/../../../../src/hal/../misc/lv_color.h **** /*No idea where the guard is required but else throws warnings in the docs*/
 265:Middlewares/lvgl/src/extra/widgets/colorwheel/../../../../src/hal/../misc/lv_color.h **** typedef uint8_t lv_opa_t;
 266:Middlewares/lvgl/src/extra/widgets/colorwheel/../../../../src/hal/../misc/lv_color.h **** //! @endcond
 267:Middlewares/lvgl/src/extra/widgets/colorwheel/../../../../src/hal/../misc/lv_color.h **** 
 268:Middlewares/lvgl/src/extra/widgets/colorwheel/../../../../src/hal/../misc/lv_color.h **** struct _lv_color_filter_dsc_t;
 269:Middlewares/lvgl/src/extra/widgets/colorwheel/../../../../src/hal/../misc/lv_color.h **** 
 270:Middlewares/lvgl/src/extra/widgets/colorwheel/../../../../src/hal/../misc/lv_color.h **** typedef lv_color_t (*lv_color_filter_cb_t)(const struct _lv_color_filter_dsc_t *, lv_color_t, lv_op
 271:Middlewares/lvgl/src/extra/widgets/colorwheel/../../../../src/hal/../misc/lv_color.h **** 
 272:Middlewares/lvgl/src/extra/widgets/colorwheel/../../../../src/hal/../misc/lv_color.h **** typedef struct _lv_color_filter_dsc_t {
 273:Middlewares/lvgl/src/extra/widgets/colorwheel/../../../../src/hal/../misc/lv_color.h ****     lv_color_filter_cb_t filter_cb;
 274:Middlewares/lvgl/src/extra/widgets/colorwheel/../../../../src/hal/../misc/lv_color.h ****     void * user_data;
 275:Middlewares/lvgl/src/extra/widgets/colorwheel/../../../../src/hal/../misc/lv_color.h **** }lv_color_filter_dsc_t;
ARM GAS  /tmp/ccAb9Zks.s 			page 23


 276:Middlewares/lvgl/src/extra/widgets/colorwheel/../../../../src/hal/../misc/lv_color.h **** 
 277:Middlewares/lvgl/src/extra/widgets/colorwheel/../../../../src/hal/../misc/lv_color.h **** 
 278:Middlewares/lvgl/src/extra/widgets/colorwheel/../../../../src/hal/../misc/lv_color.h **** typedef enum {
 279:Middlewares/lvgl/src/extra/widgets/colorwheel/../../../../src/hal/../misc/lv_color.h ****     LV_PALETTE_RED,
 280:Middlewares/lvgl/src/extra/widgets/colorwheel/../../../../src/hal/../misc/lv_color.h ****     LV_PALETTE_PINK,
 281:Middlewares/lvgl/src/extra/widgets/colorwheel/../../../../src/hal/../misc/lv_color.h ****     LV_PALETTE_PURPLE,
 282:Middlewares/lvgl/src/extra/widgets/colorwheel/../../../../src/hal/../misc/lv_color.h ****     LV_PALETTE_DEEP_PURPLE,
 283:Middlewares/lvgl/src/extra/widgets/colorwheel/../../../../src/hal/../misc/lv_color.h ****     LV_PALETTE_INDIGO,
 284:Middlewares/lvgl/src/extra/widgets/colorwheel/../../../../src/hal/../misc/lv_color.h ****     LV_PALETTE_BLUE,
 285:Middlewares/lvgl/src/extra/widgets/colorwheel/../../../../src/hal/../misc/lv_color.h ****     LV_PALETTE_LIGHT_BLUE,
 286:Middlewares/lvgl/src/extra/widgets/colorwheel/../../../../src/hal/../misc/lv_color.h ****     LV_PALETTE_CYAN,
 287:Middlewares/lvgl/src/extra/widgets/colorwheel/../../../../src/hal/../misc/lv_color.h ****     LV_PALETTE_TEAL,
 288:Middlewares/lvgl/src/extra/widgets/colorwheel/../../../../src/hal/../misc/lv_color.h ****     LV_PALETTE_GREEN,
 289:Middlewares/lvgl/src/extra/widgets/colorwheel/../../../../src/hal/../misc/lv_color.h ****     LV_PALETTE_LIGHT_GREEN,
 290:Middlewares/lvgl/src/extra/widgets/colorwheel/../../../../src/hal/../misc/lv_color.h ****     LV_PALETTE_LIME,
 291:Middlewares/lvgl/src/extra/widgets/colorwheel/../../../../src/hal/../misc/lv_color.h ****     LV_PALETTE_YELLOW,
 292:Middlewares/lvgl/src/extra/widgets/colorwheel/../../../../src/hal/../misc/lv_color.h ****     LV_PALETTE_AMBER,
 293:Middlewares/lvgl/src/extra/widgets/colorwheel/../../../../src/hal/../misc/lv_color.h ****     LV_PALETTE_ORANGE,
 294:Middlewares/lvgl/src/extra/widgets/colorwheel/../../../../src/hal/../misc/lv_color.h ****     LV_PALETTE_DEEP_ORANGE,
 295:Middlewares/lvgl/src/extra/widgets/colorwheel/../../../../src/hal/../misc/lv_color.h ****     LV_PALETTE_BROWN,
 296:Middlewares/lvgl/src/extra/widgets/colorwheel/../../../../src/hal/../misc/lv_color.h ****     LV_PALETTE_BLUE_GREY,
 297:Middlewares/lvgl/src/extra/widgets/colorwheel/../../../../src/hal/../misc/lv_color.h ****     LV_PALETTE_GREY,
 298:Middlewares/lvgl/src/extra/widgets/colorwheel/../../../../src/hal/../misc/lv_color.h ****     _LV_PALETTE_LAST,
 299:Middlewares/lvgl/src/extra/widgets/colorwheel/../../../../src/hal/../misc/lv_color.h ****     LV_PALETTE_NONE = 0xff,
 300:Middlewares/lvgl/src/extra/widgets/colorwheel/../../../../src/hal/../misc/lv_color.h **** }lv_palette_t;
 301:Middlewares/lvgl/src/extra/widgets/colorwheel/../../../../src/hal/../misc/lv_color.h **** 
 302:Middlewares/lvgl/src/extra/widgets/colorwheel/../../../../src/hal/../misc/lv_color.h **** /**********************
 303:Middlewares/lvgl/src/extra/widgets/colorwheel/../../../../src/hal/../misc/lv_color.h ****  * GLOBAL PROTOTYPES
 304:Middlewares/lvgl/src/extra/widgets/colorwheel/../../../../src/hal/../misc/lv_color.h ****  **********************/
 305:Middlewares/lvgl/src/extra/widgets/colorwheel/../../../../src/hal/../misc/lv_color.h **** 
 306:Middlewares/lvgl/src/extra/widgets/colorwheel/../../../../src/hal/../misc/lv_color.h **** /*In color conversations:
 307:Middlewares/lvgl/src/extra/widgets/colorwheel/../../../../src/hal/../misc/lv_color.h ****  * - When converting to bigger color type the LSB weight of 1 LSB is calculated
 308:Middlewares/lvgl/src/extra/widgets/colorwheel/../../../../src/hal/../misc/lv_color.h ****  *   E.g. 16 bit Red has 5 bits
 309:Middlewares/lvgl/src/extra/widgets/colorwheel/../../../../src/hal/../misc/lv_color.h ****  *         8 bit Red has 3 bits
 310:Middlewares/lvgl/src/extra/widgets/colorwheel/../../../../src/hal/../misc/lv_color.h ****  *        ----------------------
 311:Middlewares/lvgl/src/extra/widgets/colorwheel/../../../../src/hal/../misc/lv_color.h ****  *        8 bit red LSB = (2^5 - 1) / (2^3 - 1) = 31 / 7 = 4
 312:Middlewares/lvgl/src/extra/widgets/colorwheel/../../../../src/hal/../misc/lv_color.h ****  *
 313:Middlewares/lvgl/src/extra/widgets/colorwheel/../../../../src/hal/../misc/lv_color.h ****  * - When calculating to smaller color type simply shift out the LSBs
 314:Middlewares/lvgl/src/extra/widgets/colorwheel/../../../../src/hal/../misc/lv_color.h ****  *   E.g.  8 bit Red has 3 bits
 315:Middlewares/lvgl/src/extra/widgets/colorwheel/../../../../src/hal/../misc/lv_color.h ****  *        16 bit Red has 5 bits
 316:Middlewares/lvgl/src/extra/widgets/colorwheel/../../../../src/hal/../misc/lv_color.h ****  *        ----------------------
 317:Middlewares/lvgl/src/extra/widgets/colorwheel/../../../../src/hal/../misc/lv_color.h ****  *         Shift right with 5 - 3 = 2
 318:Middlewares/lvgl/src/extra/widgets/colorwheel/../../../../src/hal/../misc/lv_color.h ****  */
 319:Middlewares/lvgl/src/extra/widgets/colorwheel/../../../../src/hal/../misc/lv_color.h **** static inline uint8_t lv_color_to1(lv_color_t color)
 320:Middlewares/lvgl/src/extra/widgets/colorwheel/../../../../src/hal/../misc/lv_color.h **** {
 321:Middlewares/lvgl/src/extra/widgets/colorwheel/../../../../src/hal/../misc/lv_color.h **** #if LV_COLOR_DEPTH == 1
 322:Middlewares/lvgl/src/extra/widgets/colorwheel/../../../../src/hal/../misc/lv_color.h ****     return color.full;
 323:Middlewares/lvgl/src/extra/widgets/colorwheel/../../../../src/hal/../misc/lv_color.h **** #elif LV_COLOR_DEPTH == 8
 324:Middlewares/lvgl/src/extra/widgets/colorwheel/../../../../src/hal/../misc/lv_color.h ****     if((LV_COLOR_GET_R(color) & 0x4) || (LV_COLOR_GET_G(color) & 0x4) || (LV_COLOR_GET_B(color) & 0
 325:Middlewares/lvgl/src/extra/widgets/colorwheel/../../../../src/hal/../misc/lv_color.h ****         return 1;
 326:Middlewares/lvgl/src/extra/widgets/colorwheel/../../../../src/hal/../misc/lv_color.h ****     }
 327:Middlewares/lvgl/src/extra/widgets/colorwheel/../../../../src/hal/../misc/lv_color.h ****     else {
 328:Middlewares/lvgl/src/extra/widgets/colorwheel/../../../../src/hal/../misc/lv_color.h ****         return 0;
 329:Middlewares/lvgl/src/extra/widgets/colorwheel/../../../../src/hal/../misc/lv_color.h ****     }
 330:Middlewares/lvgl/src/extra/widgets/colorwheel/../../../../src/hal/../misc/lv_color.h **** #elif LV_COLOR_DEPTH == 16
 331:Middlewares/lvgl/src/extra/widgets/colorwheel/../../../../src/hal/../misc/lv_color.h ****     if((LV_COLOR_GET_R(color) & 0x10) || (LV_COLOR_GET_G(color) & 0x20) || (LV_COLOR_GET_B(color) &
 332:Middlewares/lvgl/src/extra/widgets/colorwheel/../../../../src/hal/../misc/lv_color.h ****         return 1;
ARM GAS  /tmp/ccAb9Zks.s 			page 24


 333:Middlewares/lvgl/src/extra/widgets/colorwheel/../../../../src/hal/../misc/lv_color.h ****     }
 334:Middlewares/lvgl/src/extra/widgets/colorwheel/../../../../src/hal/../misc/lv_color.h ****     else {
 335:Middlewares/lvgl/src/extra/widgets/colorwheel/../../../../src/hal/../misc/lv_color.h ****         return 0;
 336:Middlewares/lvgl/src/extra/widgets/colorwheel/../../../../src/hal/../misc/lv_color.h ****     }
 337:Middlewares/lvgl/src/extra/widgets/colorwheel/../../../../src/hal/../misc/lv_color.h **** #elif LV_COLOR_DEPTH == 32
 338:Middlewares/lvgl/src/extra/widgets/colorwheel/../../../../src/hal/../misc/lv_color.h ****     if((LV_COLOR_GET_R(color) & 0x80) || (LV_COLOR_GET_G(color) & 0x80) || (LV_COLOR_GET_B(color) &
 339:Middlewares/lvgl/src/extra/widgets/colorwheel/../../../../src/hal/../misc/lv_color.h ****         return 1;
 340:Middlewares/lvgl/src/extra/widgets/colorwheel/../../../../src/hal/../misc/lv_color.h ****     }
 341:Middlewares/lvgl/src/extra/widgets/colorwheel/../../../../src/hal/../misc/lv_color.h ****     else {
 342:Middlewares/lvgl/src/extra/widgets/colorwheel/../../../../src/hal/../misc/lv_color.h ****         return 0;
 343:Middlewares/lvgl/src/extra/widgets/colorwheel/../../../../src/hal/../misc/lv_color.h ****     }
 344:Middlewares/lvgl/src/extra/widgets/colorwheel/../../../../src/hal/../misc/lv_color.h **** #endif
 345:Middlewares/lvgl/src/extra/widgets/colorwheel/../../../../src/hal/../misc/lv_color.h **** }
 346:Middlewares/lvgl/src/extra/widgets/colorwheel/../../../../src/hal/../misc/lv_color.h **** 
 347:Middlewares/lvgl/src/extra/widgets/colorwheel/../../../../src/hal/../misc/lv_color.h **** static inline uint8_t lv_color_to8(lv_color_t color)
 348:Middlewares/lvgl/src/extra/widgets/colorwheel/../../../../src/hal/../misc/lv_color.h **** {
 349:Middlewares/lvgl/src/extra/widgets/colorwheel/../../../../src/hal/../misc/lv_color.h **** #if LV_COLOR_DEPTH == 1
 350:Middlewares/lvgl/src/extra/widgets/colorwheel/../../../../src/hal/../misc/lv_color.h ****     if(color.full == 0)
 351:Middlewares/lvgl/src/extra/widgets/colorwheel/../../../../src/hal/../misc/lv_color.h ****         return 0;
 352:Middlewares/lvgl/src/extra/widgets/colorwheel/../../../../src/hal/../misc/lv_color.h ****     else
 353:Middlewares/lvgl/src/extra/widgets/colorwheel/../../../../src/hal/../misc/lv_color.h ****         return 0xFF;
 354:Middlewares/lvgl/src/extra/widgets/colorwheel/../../../../src/hal/../misc/lv_color.h **** #elif LV_COLOR_DEPTH == 8
 355:Middlewares/lvgl/src/extra/widgets/colorwheel/../../../../src/hal/../misc/lv_color.h ****     return color.full;
 356:Middlewares/lvgl/src/extra/widgets/colorwheel/../../../../src/hal/../misc/lv_color.h **** #elif LV_COLOR_DEPTH == 16
 357:Middlewares/lvgl/src/extra/widgets/colorwheel/../../../../src/hal/../misc/lv_color.h ****     lv_color8_t ret;
 358:Middlewares/lvgl/src/extra/widgets/colorwheel/../../../../src/hal/../misc/lv_color.h ****     LV_COLOR_SET_R8(ret, LV_COLOR_GET_R(color) >> 2); /*5 - 3  = 2*/
 359:Middlewares/lvgl/src/extra/widgets/colorwheel/../../../../src/hal/../misc/lv_color.h ****     LV_COLOR_SET_G8(ret, LV_COLOR_GET_G(color) >> 3); /*6 - 3  = 3*/
 360:Middlewares/lvgl/src/extra/widgets/colorwheel/../../../../src/hal/../misc/lv_color.h ****     LV_COLOR_SET_B8(ret, LV_COLOR_GET_B(color) >> 3); /*5 - 2  = 3*/
 361:Middlewares/lvgl/src/extra/widgets/colorwheel/../../../../src/hal/../misc/lv_color.h ****     return ret.full;
 362:Middlewares/lvgl/src/extra/widgets/colorwheel/../../../../src/hal/../misc/lv_color.h **** #elif LV_COLOR_DEPTH == 32
 363:Middlewares/lvgl/src/extra/widgets/colorwheel/../../../../src/hal/../misc/lv_color.h ****     lv_color8_t ret;
 364:Middlewares/lvgl/src/extra/widgets/colorwheel/../../../../src/hal/../misc/lv_color.h ****     LV_COLOR_SET_R8(ret, LV_COLOR_GET_R(color) >> 5); /*8 - 3  = 5*/
 365:Middlewares/lvgl/src/extra/widgets/colorwheel/../../../../src/hal/../misc/lv_color.h ****     LV_COLOR_SET_G8(ret, LV_COLOR_GET_G(color) >> 5); /*8 - 3  = 5*/
 366:Middlewares/lvgl/src/extra/widgets/colorwheel/../../../../src/hal/../misc/lv_color.h ****     LV_COLOR_SET_B8(ret, LV_COLOR_GET_B(color) >> 6); /*8 - 2  = 6*/
 367:Middlewares/lvgl/src/extra/widgets/colorwheel/../../../../src/hal/../misc/lv_color.h ****     return ret.full;
 368:Middlewares/lvgl/src/extra/widgets/colorwheel/../../../../src/hal/../misc/lv_color.h **** #endif
 369:Middlewares/lvgl/src/extra/widgets/colorwheel/../../../../src/hal/../misc/lv_color.h **** }
 370:Middlewares/lvgl/src/extra/widgets/colorwheel/../../../../src/hal/../misc/lv_color.h **** 
 371:Middlewares/lvgl/src/extra/widgets/colorwheel/../../../../src/hal/../misc/lv_color.h **** static inline uint16_t lv_color_to16(lv_color_t color)
 372:Middlewares/lvgl/src/extra/widgets/colorwheel/../../../../src/hal/../misc/lv_color.h **** {
 373:Middlewares/lvgl/src/extra/widgets/colorwheel/../../../../src/hal/../misc/lv_color.h **** #if LV_COLOR_DEPTH == 1
 374:Middlewares/lvgl/src/extra/widgets/colorwheel/../../../../src/hal/../misc/lv_color.h ****     if(color.full == 0)
 375:Middlewares/lvgl/src/extra/widgets/colorwheel/../../../../src/hal/../misc/lv_color.h ****         return 0;
 376:Middlewares/lvgl/src/extra/widgets/colorwheel/../../../../src/hal/../misc/lv_color.h ****     else
 377:Middlewares/lvgl/src/extra/widgets/colorwheel/../../../../src/hal/../misc/lv_color.h ****         return 0xFFFF;
 378:Middlewares/lvgl/src/extra/widgets/colorwheel/../../../../src/hal/../misc/lv_color.h **** #elif LV_COLOR_DEPTH == 8
 379:Middlewares/lvgl/src/extra/widgets/colorwheel/../../../../src/hal/../misc/lv_color.h ****     lv_color16_t ret;
 380:Middlewares/lvgl/src/extra/widgets/colorwheel/../../../../src/hal/../misc/lv_color.h ****     LV_COLOR_SET_R16(ret, LV_COLOR_GET_R(color) * 4);  /*(2^5 - 1)/(2^3 - 1) = 31/7 = 4*/
 381:Middlewares/lvgl/src/extra/widgets/colorwheel/../../../../src/hal/../misc/lv_color.h ****     LV_COLOR_SET_G16(ret, LV_COLOR_GET_G(color) * 9);  /*(2^6 - 1)/(2^3 - 1) = 63/7 = 9*/
 382:Middlewares/lvgl/src/extra/widgets/colorwheel/../../../../src/hal/../misc/lv_color.h ****     LV_COLOR_SET_B16(ret, LV_COLOR_GET_B(color) * 10); /*(2^5 - 1)/(2^2 - 1) = 31/3 = 10*/
 383:Middlewares/lvgl/src/extra/widgets/colorwheel/../../../../src/hal/../misc/lv_color.h ****     return ret.full;
 384:Middlewares/lvgl/src/extra/widgets/colorwheel/../../../../src/hal/../misc/lv_color.h **** #elif LV_COLOR_DEPTH == 16
 385:Middlewares/lvgl/src/extra/widgets/colorwheel/../../../../src/hal/../misc/lv_color.h ****     return color.full;
 386:Middlewares/lvgl/src/extra/widgets/colorwheel/../../../../src/hal/../misc/lv_color.h **** #elif LV_COLOR_DEPTH == 32
 387:Middlewares/lvgl/src/extra/widgets/colorwheel/../../../../src/hal/../misc/lv_color.h ****     lv_color16_t ret;
 388:Middlewares/lvgl/src/extra/widgets/colorwheel/../../../../src/hal/../misc/lv_color.h ****     LV_COLOR_SET_R16(ret, LV_COLOR_GET_R(color) >> 3); /*8 - 5  = 3*/
 389:Middlewares/lvgl/src/extra/widgets/colorwheel/../../../../src/hal/../misc/lv_color.h ****     LV_COLOR_SET_G16(ret, LV_COLOR_GET_G(color) >> 2); /*8 - 6  = 2*/
ARM GAS  /tmp/ccAb9Zks.s 			page 25


 390:Middlewares/lvgl/src/extra/widgets/colorwheel/../../../../src/hal/../misc/lv_color.h ****     LV_COLOR_SET_B16(ret, LV_COLOR_GET_B(color) >> 3); /*8 - 5  = 3*/
 391:Middlewares/lvgl/src/extra/widgets/colorwheel/../../../../src/hal/../misc/lv_color.h ****     return ret.full;
 392:Middlewares/lvgl/src/extra/widgets/colorwheel/../../../../src/hal/../misc/lv_color.h **** #endif
 393:Middlewares/lvgl/src/extra/widgets/colorwheel/../../../../src/hal/../misc/lv_color.h **** }
 394:Middlewares/lvgl/src/extra/widgets/colorwheel/../../../../src/hal/../misc/lv_color.h **** 
 395:Middlewares/lvgl/src/extra/widgets/colorwheel/../../../../src/hal/../misc/lv_color.h **** static inline uint32_t lv_color_to32(lv_color_t color)
 396:Middlewares/lvgl/src/extra/widgets/colorwheel/../../../../src/hal/../misc/lv_color.h **** {
 397:Middlewares/lvgl/src/extra/widgets/colorwheel/../../../../src/hal/../misc/lv_color.h **** #if LV_COLOR_DEPTH == 1
 398:Middlewares/lvgl/src/extra/widgets/colorwheel/../../../../src/hal/../misc/lv_color.h ****     if(color.full == 0)
 399:Middlewares/lvgl/src/extra/widgets/colorwheel/../../../../src/hal/../misc/lv_color.h ****         return 0xFF000000;
 400:Middlewares/lvgl/src/extra/widgets/colorwheel/../../../../src/hal/../misc/lv_color.h ****     else
 401:Middlewares/lvgl/src/extra/widgets/colorwheel/../../../../src/hal/../misc/lv_color.h ****         return 0xFFFFFFFF;
 402:Middlewares/lvgl/src/extra/widgets/colorwheel/../../../../src/hal/../misc/lv_color.h **** #elif LV_COLOR_DEPTH == 8
 403:Middlewares/lvgl/src/extra/widgets/colorwheel/../../../../src/hal/../misc/lv_color.h ****     lv_color32_t ret;
 404:Middlewares/lvgl/src/extra/widgets/colorwheel/../../../../src/hal/../misc/lv_color.h ****     LV_COLOR_SET_R32(ret, LV_COLOR_GET_R(color) * 36); /*(2^8 - 1)/(2^3 - 1) = 255/7 = 36*/
 405:Middlewares/lvgl/src/extra/widgets/colorwheel/../../../../src/hal/../misc/lv_color.h ****     LV_COLOR_SET_G32(ret, LV_COLOR_GET_G(color) * 36); /*(2^8 - 1)/(2^3 - 1) = 255/7 = 36*/
 406:Middlewares/lvgl/src/extra/widgets/colorwheel/../../../../src/hal/../misc/lv_color.h ****     LV_COLOR_SET_B32(ret, LV_COLOR_GET_B(color) * 85); /*(2^8 - 1)/(2^2 - 1) = 255/3 = 85*/
 407:Middlewares/lvgl/src/extra/widgets/colorwheel/../../../../src/hal/../misc/lv_color.h ****     LV_COLOR_SET_A32(ret, 0xFF);
 408:Middlewares/lvgl/src/extra/widgets/colorwheel/../../../../src/hal/../misc/lv_color.h ****     return ret.full;
 409:Middlewares/lvgl/src/extra/widgets/colorwheel/../../../../src/hal/../misc/lv_color.h **** #elif LV_COLOR_DEPTH == 16
 410:Middlewares/lvgl/src/extra/widgets/colorwheel/../../../../src/hal/../misc/lv_color.h ****     /**
 411:Middlewares/lvgl/src/extra/widgets/colorwheel/../../../../src/hal/../misc/lv_color.h ****      * The floating point math for conversion is:
 412:Middlewares/lvgl/src/extra/widgets/colorwheel/../../../../src/hal/../misc/lv_color.h ****      *  valueto = valuefrom * ( (2^bitsto - 1) / (float)(2^bitsfrom - 1) )
 413:Middlewares/lvgl/src/extra/widgets/colorwheel/../../../../src/hal/../misc/lv_color.h ****      * The faster integer math for conversion is:
 414:Middlewares/lvgl/src/extra/widgets/colorwheel/../../../../src/hal/../misc/lv_color.h ****      *  valueto = ( valuefrom * multiplier + adder ) >> divisor
 415:Middlewares/lvgl/src/extra/widgets/colorwheel/../../../../src/hal/../misc/lv_color.h ****      *   multiplier = FLOOR( ( (2^bitsto - 1) << divisor ) / (float)(2^bitsfrom - 1) )
 416:Middlewares/lvgl/src/extra/widgets/colorwheel/../../../../src/hal/../misc/lv_color.h ****      *
 417:Middlewares/lvgl/src/extra/widgets/colorwheel/../../../../src/hal/../misc/lv_color.h ****      * Find the first divisor where ( adder >> divisor ) <= 0
 418:Middlewares/lvgl/src/extra/widgets/colorwheel/../../../../src/hal/../misc/lv_color.h ****      *
 419:Middlewares/lvgl/src/extra/widgets/colorwheel/../../../../src/hal/../misc/lv_color.h ****      * 5-bit to 8-bit: ( 31 * multiplier + adder ) >> divisor = 255
 420:Middlewares/lvgl/src/extra/widgets/colorwheel/../../../../src/hal/../misc/lv_color.h ****      * divisor  multiplier  adder  min (0)  max (31)
 421:Middlewares/lvgl/src/extra/widgets/colorwheel/../../../../src/hal/../misc/lv_color.h ****      *       0           8      7        7       255
 422:Middlewares/lvgl/src/extra/widgets/colorwheel/../../../../src/hal/../misc/lv_color.h ****      *       1          16     14        7       255
 423:Middlewares/lvgl/src/extra/widgets/colorwheel/../../../../src/hal/../misc/lv_color.h ****      *       2          32     28        7       255
 424:Middlewares/lvgl/src/extra/widgets/colorwheel/../../../../src/hal/../misc/lv_color.h ****      *       3          65     25        3       255
 425:Middlewares/lvgl/src/extra/widgets/colorwheel/../../../../src/hal/../misc/lv_color.h ****      *       4         131     19        1       255
 426:Middlewares/lvgl/src/extra/widgets/colorwheel/../../../../src/hal/../misc/lv_color.h ****      *       5         263      7        0       255
 427:Middlewares/lvgl/src/extra/widgets/colorwheel/../../../../src/hal/../misc/lv_color.h ****      *
 428:Middlewares/lvgl/src/extra/widgets/colorwheel/../../../../src/hal/../misc/lv_color.h ****      * 6-bit to 8-bit: 255 = ( 63 * multiplier + adder ) >> divisor
 429:Middlewares/lvgl/src/extra/widgets/colorwheel/../../../../src/hal/../misc/lv_color.h ****      * divisor  multiplier  adder  min (0)  max (63)
 430:Middlewares/lvgl/src/extra/widgets/colorwheel/../../../../src/hal/../misc/lv_color.h ****      *       0           4      3        3       255
 431:Middlewares/lvgl/src/extra/widgets/colorwheel/../../../../src/hal/../misc/lv_color.h ****      *       1           8      6        3       255
 432:Middlewares/lvgl/src/extra/widgets/colorwheel/../../../../src/hal/../misc/lv_color.h ****      *       2          16     12        3       255
 433:Middlewares/lvgl/src/extra/widgets/colorwheel/../../../../src/hal/../misc/lv_color.h ****      *       3          32     24        3       255
 434:Middlewares/lvgl/src/extra/widgets/colorwheel/../../../../src/hal/../misc/lv_color.h ****      *       4          64     48        3       255
 435:Middlewares/lvgl/src/extra/widgets/colorwheel/../../../../src/hal/../misc/lv_color.h ****      *       5         129     33        1       255
 436:Middlewares/lvgl/src/extra/widgets/colorwheel/../../../../src/hal/../misc/lv_color.h ****      *       6         259      3        0       255
 437:Middlewares/lvgl/src/extra/widgets/colorwheel/../../../../src/hal/../misc/lv_color.h ****      */
 438:Middlewares/lvgl/src/extra/widgets/colorwheel/../../../../src/hal/../misc/lv_color.h **** 
 439:Middlewares/lvgl/src/extra/widgets/colorwheel/../../../../src/hal/../misc/lv_color.h ****     lv_color32_t ret;
 440:Middlewares/lvgl/src/extra/widgets/colorwheel/../../../../src/hal/../misc/lv_color.h ****     LV_COLOR_SET_R32(ret, (LV_COLOR_GET_R(color) * 263 + 7) >> 5);
 441:Middlewares/lvgl/src/extra/widgets/colorwheel/../../../../src/hal/../misc/lv_color.h ****     LV_COLOR_SET_G32(ret, (LV_COLOR_GET_G(color) * 259 + 3) >> 6);
 442:Middlewares/lvgl/src/extra/widgets/colorwheel/../../../../src/hal/../misc/lv_color.h ****     LV_COLOR_SET_B32(ret, (LV_COLOR_GET_B(color) * 263 + 7) >> 5);
 443:Middlewares/lvgl/src/extra/widgets/colorwheel/../../../../src/hal/../misc/lv_color.h ****     LV_COLOR_SET_A32(ret, 0xFF);
 444:Middlewares/lvgl/src/extra/widgets/colorwheel/../../../../src/hal/../misc/lv_color.h ****     return ret.full;
 445:Middlewares/lvgl/src/extra/widgets/colorwheel/../../../../src/hal/../misc/lv_color.h **** #elif LV_COLOR_DEPTH == 32
 446:Middlewares/lvgl/src/extra/widgets/colorwheel/../../../../src/hal/../misc/lv_color.h ****     return color.full;
ARM GAS  /tmp/ccAb9Zks.s 			page 26


 447:Middlewares/lvgl/src/extra/widgets/colorwheel/../../../../src/hal/../misc/lv_color.h **** #endif
 448:Middlewares/lvgl/src/extra/widgets/colorwheel/../../../../src/hal/../misc/lv_color.h **** }
 449:Middlewares/lvgl/src/extra/widgets/colorwheel/../../../../src/hal/../misc/lv_color.h **** 
 450:Middlewares/lvgl/src/extra/widgets/colorwheel/../../../../src/hal/../misc/lv_color.h **** //! @cond Doxygen_Suppress
 451:Middlewares/lvgl/src/extra/widgets/colorwheel/../../../../src/hal/../misc/lv_color.h **** 
 452:Middlewares/lvgl/src/extra/widgets/colorwheel/../../../../src/hal/../misc/lv_color.h **** /**
 453:Middlewares/lvgl/src/extra/widgets/colorwheel/../../../../src/hal/../misc/lv_color.h ****  * Mix two colors with a given ratio.
 454:Middlewares/lvgl/src/extra/widgets/colorwheel/../../../../src/hal/../misc/lv_color.h ****  * @param c1 the first color to mix (usually the foreground)
 455:Middlewares/lvgl/src/extra/widgets/colorwheel/../../../../src/hal/../misc/lv_color.h ****  * @param c2 the second color to mix (usually the background)
 456:Middlewares/lvgl/src/extra/widgets/colorwheel/../../../../src/hal/../misc/lv_color.h ****  * @param mix The ratio of the colors. 0: full `c2`, 255: full `c1`, 127: half `c1` and half`c2`
 457:Middlewares/lvgl/src/extra/widgets/colorwheel/../../../../src/hal/../misc/lv_color.h ****  * @return the mixed color
 458:Middlewares/lvgl/src/extra/widgets/colorwheel/../../../../src/hal/../misc/lv_color.h ****  */
 459:Middlewares/lvgl/src/extra/widgets/colorwheel/../../../../src/hal/../misc/lv_color.h **** LV_ATTRIBUTE_FAST_MEM static inline lv_color_t lv_color_mix(lv_color_t c1, lv_color_t c2, uint8_t m
 460:Middlewares/lvgl/src/extra/widgets/colorwheel/../../../../src/hal/../misc/lv_color.h **** {
 461:Middlewares/lvgl/src/extra/widgets/colorwheel/../../../../src/hal/../misc/lv_color.h ****     lv_color_t ret;
 462:Middlewares/lvgl/src/extra/widgets/colorwheel/../../../../src/hal/../misc/lv_color.h **** #if LV_COLOR_DEPTH != 1
 463:Middlewares/lvgl/src/extra/widgets/colorwheel/../../../../src/hal/../misc/lv_color.h ****     /*LV_COLOR_DEPTH == 8, 16 or 32*/
 464:Middlewares/lvgl/src/extra/widgets/colorwheel/../../../../src/hal/../misc/lv_color.h ****     LV_COLOR_SET_R(ret, LV_UDIV255((uint16_t) LV_COLOR_GET_R(c1) * mix + LV_COLOR_GET_R(c2) *
 465:Middlewares/lvgl/src/extra/widgets/colorwheel/../../../../src/hal/../misc/lv_color.h ****                                         (255 - mix) + LV_COLOR_MIX_ROUND_OFS));
 466:Middlewares/lvgl/src/extra/widgets/colorwheel/../../../../src/hal/../misc/lv_color.h ****     LV_COLOR_SET_G(ret, LV_UDIV255((uint16_t) LV_COLOR_GET_G(c1) * mix + LV_COLOR_GET_G(c2) *
 467:Middlewares/lvgl/src/extra/widgets/colorwheel/../../../../src/hal/../misc/lv_color.h ****                                         (255 - mix) + LV_COLOR_MIX_ROUND_OFS));
 468:Middlewares/lvgl/src/extra/widgets/colorwheel/../../../../src/hal/../misc/lv_color.h ****     LV_COLOR_SET_B(ret, LV_UDIV255((uint16_t) LV_COLOR_GET_B(c1) * mix + LV_COLOR_GET_B(c2) *
 469:Middlewares/lvgl/src/extra/widgets/colorwheel/../../../../src/hal/../misc/lv_color.h ****                                         (255 - mix) + LV_COLOR_MIX_ROUND_OFS));
 470:Middlewares/lvgl/src/extra/widgets/colorwheel/../../../../src/hal/../misc/lv_color.h ****     LV_COLOR_SET_A(ret, 0xFF);
 471:Middlewares/lvgl/src/extra/widgets/colorwheel/../../../../src/hal/../misc/lv_color.h **** #else
 472:Middlewares/lvgl/src/extra/widgets/colorwheel/../../../../src/hal/../misc/lv_color.h ****     /*LV_COLOR_DEPTH == 1*/
 473:Middlewares/lvgl/src/extra/widgets/colorwheel/../../../../src/hal/../misc/lv_color.h ****     ret.full = mix > LV_OPA_50 ? c1.full : c2.full;
 474:Middlewares/lvgl/src/extra/widgets/colorwheel/../../../../src/hal/../misc/lv_color.h **** #endif
 475:Middlewares/lvgl/src/extra/widgets/colorwheel/../../../../src/hal/../misc/lv_color.h **** 
 476:Middlewares/lvgl/src/extra/widgets/colorwheel/../../../../src/hal/../misc/lv_color.h ****     return ret;
 477:Middlewares/lvgl/src/extra/widgets/colorwheel/../../../../src/hal/../misc/lv_color.h **** }
 478:Middlewares/lvgl/src/extra/widgets/colorwheel/../../../../src/hal/../misc/lv_color.h **** 
 479:Middlewares/lvgl/src/extra/widgets/colorwheel/../../../../src/hal/../misc/lv_color.h **** LV_ATTRIBUTE_FAST_MEM static inline void lv_color_premult(lv_color_t c, uint8_t mix, uint16_t * out
 480:Middlewares/lvgl/src/extra/widgets/colorwheel/../../../../src/hal/../misc/lv_color.h **** {
 481:Middlewares/lvgl/src/extra/widgets/colorwheel/../../../../src/hal/../misc/lv_color.h **** #if LV_COLOR_DEPTH != 1
 482:Middlewares/lvgl/src/extra/widgets/colorwheel/../../../../src/hal/../misc/lv_color.h ****     out[0] = (uint16_t) LV_COLOR_GET_R(c) * mix;
 483:Middlewares/lvgl/src/extra/widgets/colorwheel/../../../../src/hal/../misc/lv_color.h ****     out[1] = (uint16_t) LV_COLOR_GET_G(c) * mix;
 484:Middlewares/lvgl/src/extra/widgets/colorwheel/../../../../src/hal/../misc/lv_color.h ****     out[2] = (uint16_t) LV_COLOR_GET_B(c) * mix;
 485:Middlewares/lvgl/src/extra/widgets/colorwheel/../../../../src/hal/../misc/lv_color.h **** #else
 486:Middlewares/lvgl/src/extra/widgets/colorwheel/../../../../src/hal/../misc/lv_color.h ****     (void) mix;
 487:Middlewares/lvgl/src/extra/widgets/colorwheel/../../../../src/hal/../misc/lv_color.h ****     /*Pre-multiplication can't be used with 1 bpp*/
 488:Middlewares/lvgl/src/extra/widgets/colorwheel/../../../../src/hal/../misc/lv_color.h ****     out[0] = LV_COLOR_GET_R(c);
 489:Middlewares/lvgl/src/extra/widgets/colorwheel/../../../../src/hal/../misc/lv_color.h ****     out[1] = LV_COLOR_GET_G(c);
 490:Middlewares/lvgl/src/extra/widgets/colorwheel/../../../../src/hal/../misc/lv_color.h ****     out[2] = LV_COLOR_GET_B(c);
 491:Middlewares/lvgl/src/extra/widgets/colorwheel/../../../../src/hal/../misc/lv_color.h **** #endif
 492:Middlewares/lvgl/src/extra/widgets/colorwheel/../../../../src/hal/../misc/lv_color.h **** 
 493:Middlewares/lvgl/src/extra/widgets/colorwheel/../../../../src/hal/../misc/lv_color.h **** }
 494:Middlewares/lvgl/src/extra/widgets/colorwheel/../../../../src/hal/../misc/lv_color.h **** 
 495:Middlewares/lvgl/src/extra/widgets/colorwheel/../../../../src/hal/../misc/lv_color.h **** /**
 496:Middlewares/lvgl/src/extra/widgets/colorwheel/../../../../src/hal/../misc/lv_color.h ****  * Mix two colors with a given ratio. It runs faster then `lv_color_mix` but requires some pre comp
 497:Middlewares/lvgl/src/extra/widgets/colorwheel/../../../../src/hal/../misc/lv_color.h ****  * @param premult_c1 The first color. Should be preprocessed with `lv_color_premult(c1)`
 498:Middlewares/lvgl/src/extra/widgets/colorwheel/../../../../src/hal/../misc/lv_color.h ****  * @param c2 The second color. As it is no pre computation required on it
 499:Middlewares/lvgl/src/extra/widgets/colorwheel/../../../../src/hal/../misc/lv_color.h ****  * @param mix The ratio of the colors. 0: full `c1`, 255: full `c2`, 127: half `c1` and half `c2`.
 500:Middlewares/lvgl/src/extra/widgets/colorwheel/../../../../src/hal/../misc/lv_color.h ****  *            Should be modified like mix = `255 - mix`
 501:Middlewares/lvgl/src/extra/widgets/colorwheel/../../../../src/hal/../misc/lv_color.h ****  * @return the mixed color
 502:Middlewares/lvgl/src/extra/widgets/colorwheel/../../../../src/hal/../misc/lv_color.h ****  * @note 255 won't give clearly `c1`.
 503:Middlewares/lvgl/src/extra/widgets/colorwheel/../../../../src/hal/../misc/lv_color.h ****  */
ARM GAS  /tmp/ccAb9Zks.s 			page 27


 504:Middlewares/lvgl/src/extra/widgets/colorwheel/../../../../src/hal/../misc/lv_color.h **** LV_ATTRIBUTE_FAST_MEM static inline lv_color_t lv_color_mix_premult(uint16_t * premult_c1, lv_color
 505:Middlewares/lvgl/src/extra/widgets/colorwheel/../../../../src/hal/../misc/lv_color.h **** {
 506:Middlewares/lvgl/src/extra/widgets/colorwheel/../../../../src/hal/../misc/lv_color.h ****     lv_color_t ret;
 507:Middlewares/lvgl/src/extra/widgets/colorwheel/../../../../src/hal/../misc/lv_color.h **** #if LV_COLOR_DEPTH != 1
 508:Middlewares/lvgl/src/extra/widgets/colorwheel/../../../../src/hal/../misc/lv_color.h ****     /*LV_COLOR_DEPTH == 8, 16 or 32*/
 509:Middlewares/lvgl/src/extra/widgets/colorwheel/../../../../src/hal/../misc/lv_color.h ****     LV_COLOR_SET_R(ret, LV_UDIV255(premult_c1[0] + LV_COLOR_GET_R(c2) * mix + LV_COLOR_MIX_ROUND_OF
 510:Middlewares/lvgl/src/extra/widgets/colorwheel/../../../../src/hal/../misc/lv_color.h ****     LV_COLOR_SET_G(ret, LV_UDIV255(premult_c1[1] + LV_COLOR_GET_G(c2) * mix + LV_COLOR_MIX_ROUND_OF
 511:Middlewares/lvgl/src/extra/widgets/colorwheel/../../../../src/hal/../misc/lv_color.h ****     LV_COLOR_SET_B(ret, LV_UDIV255(premult_c1[2] + LV_COLOR_GET_B(c2) * mix + LV_COLOR_MIX_ROUND_OF
 512:Middlewares/lvgl/src/extra/widgets/colorwheel/../../../../src/hal/../misc/lv_color.h ****     LV_COLOR_SET_A(ret, 0xFF);
 513:Middlewares/lvgl/src/extra/widgets/colorwheel/../../../../src/hal/../misc/lv_color.h **** #else
 514:Middlewares/lvgl/src/extra/widgets/colorwheel/../../../../src/hal/../misc/lv_color.h ****     /*LV_COLOR_DEPTH == 1*/
 515:Middlewares/lvgl/src/extra/widgets/colorwheel/../../../../src/hal/../misc/lv_color.h ****     /*Restore color1*/
 516:Middlewares/lvgl/src/extra/widgets/colorwheel/../../../../src/hal/../misc/lv_color.h ****     lv_color_t c1;
 517:Middlewares/lvgl/src/extra/widgets/colorwheel/../../../../src/hal/../misc/lv_color.h ****     LV_COLOR_SET_R(c1, premult_c1[0]);
 518:Middlewares/lvgl/src/extra/widgets/colorwheel/../../../../src/hal/../misc/lv_color.h ****     LV_COLOR_SET_G(c1, premult_c1[1]);
 519:Middlewares/lvgl/src/extra/widgets/colorwheel/../../../../src/hal/../misc/lv_color.h ****     LV_COLOR_SET_B(c1, premult_c1[2]);
 520:Middlewares/lvgl/src/extra/widgets/colorwheel/../../../../src/hal/../misc/lv_color.h ****     ret.full = mix > LV_OPA_50 ? c2.full : c1.full;
 521:Middlewares/lvgl/src/extra/widgets/colorwheel/../../../../src/hal/../misc/lv_color.h **** #endif
 522:Middlewares/lvgl/src/extra/widgets/colorwheel/../../../../src/hal/../misc/lv_color.h **** 
 523:Middlewares/lvgl/src/extra/widgets/colorwheel/../../../../src/hal/../misc/lv_color.h ****     return ret;
 524:Middlewares/lvgl/src/extra/widgets/colorwheel/../../../../src/hal/../misc/lv_color.h **** }
 525:Middlewares/lvgl/src/extra/widgets/colorwheel/../../../../src/hal/../misc/lv_color.h **** 
 526:Middlewares/lvgl/src/extra/widgets/colorwheel/../../../../src/hal/../misc/lv_color.h **** /**
 527:Middlewares/lvgl/src/extra/widgets/colorwheel/../../../../src/hal/../misc/lv_color.h ****  * Mix two colors. Both color can have alpha value.
 528:Middlewares/lvgl/src/extra/widgets/colorwheel/../../../../src/hal/../misc/lv_color.h ****  * @param bg_color background color
 529:Middlewares/lvgl/src/extra/widgets/colorwheel/../../../../src/hal/../misc/lv_color.h ****  * @param bg_opa alpha of the background color
 530:Middlewares/lvgl/src/extra/widgets/colorwheel/../../../../src/hal/../misc/lv_color.h ****  * @param fg_color foreground color
 531:Middlewares/lvgl/src/extra/widgets/colorwheel/../../../../src/hal/../misc/lv_color.h ****  * @param fg_opa alpha of the foreground color
 532:Middlewares/lvgl/src/extra/widgets/colorwheel/../../../../src/hal/../misc/lv_color.h ****  * @param res_color the result color
 533:Middlewares/lvgl/src/extra/widgets/colorwheel/../../../../src/hal/../misc/lv_color.h ****  * @param res_opa the result opacity
 534:Middlewares/lvgl/src/extra/widgets/colorwheel/../../../../src/hal/../misc/lv_color.h ****  */
 535:Middlewares/lvgl/src/extra/widgets/colorwheel/../../../../src/hal/../misc/lv_color.h **** LV_ATTRIBUTE_FAST_MEM static inline void lv_color_mix_with_alpha(lv_color_t bg_color, lv_opa_t bg_o
 536:Middlewares/lvgl/src/extra/widgets/colorwheel/../../../../src/hal/../misc/lv_color.h ****                                                                  lv_color_t fg_color, lv_opa_t fg_o
 537:Middlewares/lvgl/src/extra/widgets/colorwheel/../../../../src/hal/../misc/lv_color.h ****                                                                  lv_color_t * res_color, lv_opa_t *
 538:Middlewares/lvgl/src/extra/widgets/colorwheel/../../../../src/hal/../misc/lv_color.h **** {
 539:Middlewares/lvgl/src/extra/widgets/colorwheel/../../../../src/hal/../misc/lv_color.h ****     /*Pick the foreground if it's fully opaque or the Background is fully transparent*/
 540:Middlewares/lvgl/src/extra/widgets/colorwheel/../../../../src/hal/../misc/lv_color.h ****     if(fg_opa >= LV_OPA_MAX || bg_opa <= LV_OPA_MIN) {
 541:Middlewares/lvgl/src/extra/widgets/colorwheel/../../../../src/hal/../misc/lv_color.h ****         res_color->full = fg_color.full;
 542:Middlewares/lvgl/src/extra/widgets/colorwheel/../../../../src/hal/../misc/lv_color.h ****         *res_opa = fg_opa;
 543:Middlewares/lvgl/src/extra/widgets/colorwheel/../../../../src/hal/../misc/lv_color.h ****     }
 544:Middlewares/lvgl/src/extra/widgets/colorwheel/../../../../src/hal/../misc/lv_color.h ****     /*Transparent foreground: use the Background*/
 545:Middlewares/lvgl/src/extra/widgets/colorwheel/../../../../src/hal/../misc/lv_color.h ****     else if(fg_opa <= LV_OPA_MIN) {
 546:Middlewares/lvgl/src/extra/widgets/colorwheel/../../../../src/hal/../misc/lv_color.h ****         res_color->full = bg_color.full;
 547:Middlewares/lvgl/src/extra/widgets/colorwheel/../../../../src/hal/../misc/lv_color.h ****         *res_opa = bg_opa;
 548:Middlewares/lvgl/src/extra/widgets/colorwheel/../../../../src/hal/../misc/lv_color.h ****     }
 549:Middlewares/lvgl/src/extra/widgets/colorwheel/../../../../src/hal/../misc/lv_color.h ****     /*Opaque background: use simple mix*/
 550:Middlewares/lvgl/src/extra/widgets/colorwheel/../../../../src/hal/../misc/lv_color.h ****     else if(bg_opa >= LV_OPA_MAX) {
 551:Middlewares/lvgl/src/extra/widgets/colorwheel/../../../../src/hal/../misc/lv_color.h ****         *res_color = lv_color_mix(fg_color, bg_color, fg_opa);
 552:Middlewares/lvgl/src/extra/widgets/colorwheel/../../../../src/hal/../misc/lv_color.h ****         *res_opa = LV_OPA_COVER;
 553:Middlewares/lvgl/src/extra/widgets/colorwheel/../../../../src/hal/../misc/lv_color.h ****     }
 554:Middlewares/lvgl/src/extra/widgets/colorwheel/../../../../src/hal/../misc/lv_color.h ****     /*Both colors have alpha. Expensive calculation need to be applied*/
 555:Middlewares/lvgl/src/extra/widgets/colorwheel/../../../../src/hal/../misc/lv_color.h ****     else {
 556:Middlewares/lvgl/src/extra/widgets/colorwheel/../../../../src/hal/../misc/lv_color.h ****         /*Save the parameters and the result. If they will be asked again don't compute again*/
 557:Middlewares/lvgl/src/extra/widgets/colorwheel/../../../../src/hal/../misc/lv_color.h ****         static lv_opa_t fg_opa_save     = 0;
 558:Middlewares/lvgl/src/extra/widgets/colorwheel/../../../../src/hal/../misc/lv_color.h ****         static lv_opa_t bg_opa_save     = 0;
 559:Middlewares/lvgl/src/extra/widgets/colorwheel/../../../../src/hal/../misc/lv_color.h ****         static lv_color_t fg_color_save = _LV_COLOR_ZERO_INITIALIZER;
 560:Middlewares/lvgl/src/extra/widgets/colorwheel/../../../../src/hal/../misc/lv_color.h ****         static lv_color_t bg_color_save = _LV_COLOR_ZERO_INITIALIZER;
ARM GAS  /tmp/ccAb9Zks.s 			page 28


 561:Middlewares/lvgl/src/extra/widgets/colorwheel/../../../../src/hal/../misc/lv_color.h ****         static lv_color_t res_color_saved = _LV_COLOR_ZERO_INITIALIZER;
 562:Middlewares/lvgl/src/extra/widgets/colorwheel/../../../../src/hal/../misc/lv_color.h ****         static lv_opa_t res_opa_saved = 0;
 563:Middlewares/lvgl/src/extra/widgets/colorwheel/../../../../src/hal/../misc/lv_color.h **** 
 564:Middlewares/lvgl/src/extra/widgets/colorwheel/../../../../src/hal/../misc/lv_color.h ****         if(fg_opa != fg_opa_save || bg_opa != bg_opa_save || fg_color.full != fg_color_save.full ||
 565:Middlewares/lvgl/src/extra/widgets/colorwheel/../../../../src/hal/../misc/lv_color.h ****            bg_color.full != bg_color_save.full) {
 566:Middlewares/lvgl/src/extra/widgets/colorwheel/../../../../src/hal/../misc/lv_color.h ****             fg_opa_save        = fg_opa;
 567:Middlewares/lvgl/src/extra/widgets/colorwheel/../../../../src/hal/../misc/lv_color.h ****             bg_opa_save        = bg_opa;
 568:Middlewares/lvgl/src/extra/widgets/colorwheel/../../../../src/hal/../misc/lv_color.h ****             fg_color_save.full = fg_color.full;
 569:Middlewares/lvgl/src/extra/widgets/colorwheel/../../../../src/hal/../misc/lv_color.h ****             bg_color_save.full = bg_color.full;
 570:Middlewares/lvgl/src/extra/widgets/colorwheel/../../../../src/hal/../misc/lv_color.h ****             /*Info:
 571:Middlewares/lvgl/src/extra/widgets/colorwheel/../../../../src/hal/../misc/lv_color.h ****              * https://en.wikipedia.org/wiki/Alpha_compositing#Analytical_derivation_of_the_over_op
 572:Middlewares/lvgl/src/extra/widgets/colorwheel/../../../../src/hal/../misc/lv_color.h ****             res_opa_saved = 255 - ((uint16_t)((uint16_t)(255 - fg_opa) * (255 - bg_opa)) >> 8);
 573:Middlewares/lvgl/src/extra/widgets/colorwheel/../../../../src/hal/../misc/lv_color.h ****             if(res_opa_saved == 0) {
 574:Middlewares/lvgl/src/extra/widgets/colorwheel/../../../../src/hal/../misc/lv_color.h ****                 while(1)
 575:Middlewares/lvgl/src/extra/widgets/colorwheel/../../../../src/hal/../misc/lv_color.h ****                     ;
 576:Middlewares/lvgl/src/extra/widgets/colorwheel/../../../../src/hal/../misc/lv_color.h ****             }
 577:Middlewares/lvgl/src/extra/widgets/colorwheel/../../../../src/hal/../misc/lv_color.h ****             lv_opa_t ratio = (uint16_t)((uint16_t)fg_opa * 255) / res_opa_saved;
 578:Middlewares/lvgl/src/extra/widgets/colorwheel/../../../../src/hal/../misc/lv_color.h ****             res_color_saved = lv_color_mix(fg_color, bg_color, ratio);
 579:Middlewares/lvgl/src/extra/widgets/colorwheel/../../../../src/hal/../misc/lv_color.h **** 
 580:Middlewares/lvgl/src/extra/widgets/colorwheel/../../../../src/hal/../misc/lv_color.h ****         }
 581:Middlewares/lvgl/src/extra/widgets/colorwheel/../../../../src/hal/../misc/lv_color.h **** 
 582:Middlewares/lvgl/src/extra/widgets/colorwheel/../../../../src/hal/../misc/lv_color.h ****         res_color->full = res_color_saved.full;
 583:Middlewares/lvgl/src/extra/widgets/colorwheel/../../../../src/hal/../misc/lv_color.h ****         *res_opa = res_opa_saved;
 584:Middlewares/lvgl/src/extra/widgets/colorwheel/../../../../src/hal/../misc/lv_color.h ****     }
 585:Middlewares/lvgl/src/extra/widgets/colorwheel/../../../../src/hal/../misc/lv_color.h **** }
 586:Middlewares/lvgl/src/extra/widgets/colorwheel/../../../../src/hal/../misc/lv_color.h **** 
 587:Middlewares/lvgl/src/extra/widgets/colorwheel/../../../../src/hal/../misc/lv_color.h **** //! @endcond
 588:Middlewares/lvgl/src/extra/widgets/colorwheel/../../../../src/hal/../misc/lv_color.h **** 
 589:Middlewares/lvgl/src/extra/widgets/colorwheel/../../../../src/hal/../misc/lv_color.h **** /**
 590:Middlewares/lvgl/src/extra/widgets/colorwheel/../../../../src/hal/../misc/lv_color.h ****  * Get the brightness of a color
 591:Middlewares/lvgl/src/extra/widgets/colorwheel/../../../../src/hal/../misc/lv_color.h ****  * @param color a color
 592:Middlewares/lvgl/src/extra/widgets/colorwheel/../../../../src/hal/../misc/lv_color.h ****  * @return the brightness [0..255]
 593:Middlewares/lvgl/src/extra/widgets/colorwheel/../../../../src/hal/../misc/lv_color.h ****  */
 594:Middlewares/lvgl/src/extra/widgets/colorwheel/../../../../src/hal/../misc/lv_color.h **** static inline uint8_t lv_color_brightness(lv_color_t color)
 595:Middlewares/lvgl/src/extra/widgets/colorwheel/../../../../src/hal/../misc/lv_color.h **** {
 596:Middlewares/lvgl/src/extra/widgets/colorwheel/../../../../src/hal/../misc/lv_color.h ****     lv_color32_t c32;
 597:Middlewares/lvgl/src/extra/widgets/colorwheel/../../../../src/hal/../misc/lv_color.h ****     c32.full        = lv_color_to32(color);
 598:Middlewares/lvgl/src/extra/widgets/colorwheel/../../../../src/hal/../misc/lv_color.h ****     uint16_t bright = (uint16_t)(3u * LV_COLOR_GET_R32(c32) + LV_COLOR_GET_B32(c32) + 4u * LV_COLOR
 599:Middlewares/lvgl/src/extra/widgets/colorwheel/../../../../src/hal/../misc/lv_color.h ****     return (uint8_t)(bright >> 3);
 600:Middlewares/lvgl/src/extra/widgets/colorwheel/../../../../src/hal/../misc/lv_color.h **** }
 601:Middlewares/lvgl/src/extra/widgets/colorwheel/../../../../src/hal/../misc/lv_color.h **** 
 602:Middlewares/lvgl/src/extra/widgets/colorwheel/../../../../src/hal/../misc/lv_color.h **** static inline lv_color_t lv_color_make(uint8_t r, uint8_t g, uint8_t b)
 306              		.loc 2 602 26 is_stmt 1 view .LVU96
 307              	.LBB51:
 603:Middlewares/lvgl/src/extra/widgets/colorwheel/../../../../src/hal/../misc/lv_color.h **** {
 604:Middlewares/lvgl/src/extra/widgets/colorwheel/../../../../src/hal/../misc/lv_color.h ****     return _LV_COLOR_MAKE_TYPE_HELPER LV_COLOR_MAKE(r, g, b);
 308              		.loc 2 604 5 view .LVU97
 309              		.loc 2 604 39 is_stmt 0 view .LVU98
 310 0096 C908     		lsrs	r1, r1, #3
 311              	.LVL32:
 312              		.loc 2 604 39 view .LVU99
 313 0098 9208     		lsrs	r2, r2, #2
 314              	.LVL33:
 315              		.loc 2 604 39 view .LVU100
 316 009a DB08     		lsrs	r3, r3, #3
 317              	.LVL34:
 318              		.loc 2 604 12 view .LVU101
ARM GAS  /tmp/ccAb9Zks.s 			page 29


 319 009c 4FF00000 		mov	r0, #0	@ movhi
 320 00a0 61F30400 		bfi	r0, r1, #0, #5
 321 00a4 62F34A10 		bfi	r0, r2, #5, #6
 322 00a8 63F3CF20 		bfi	r0, r3, #11, #5
 323              	.LVL35:
 324              		.loc 2 604 12 view .LVU102
 325              	.LBE51:
 326              	.LBE50:
 669:Middlewares/lvgl/src/extra/widgets/colorwheel/lv_colorwheel.c **** }
 327              		.loc 1 669 1 view .LVU103
 328 00ac 04B0     		add	sp, sp, #16
 329              	.LCFI3:
 330              		.cfi_remember_state
 331              		.cfi_def_cfa_offset 8
 332              		@ sp needed
 333 00ae 10BD     		pop	{r4, pc}
 334              	.LVL36:
 335              	.L14:
 336              	.LCFI4:
 337              		.cfi_restore_state
 653:Middlewares/lvgl/src/extra/widgets/colorwheel/lv_colorwheel.c ****               h = (uint16_t)(((uint32_t)ext->hsv.h * 6 * 256) / 360); v = (uint8_t)(((uint16_t)ext-
 338              		.loc 1 653 13 is_stmt 1 view .LVU104
 653:Middlewares/lvgl/src/extra/widgets/colorwheel/lv_colorwheel.c ****               h = (uint16_t)(((uint32_t)ext->hsv.h * 6 * 256) / 360); v = (uint8_t)(((uint16_t)ext-
 339              		.loc 1 653 19 is_stmt 0 view .LVU105
 340 00b0 2E4C     		ldr	r4, .L21
 341 00b2 2478     		ldrb	r4, [r4]	@ zero_extendqisi2
 653:Middlewares/lvgl/src/extra/widgets/colorwheel/lv_colorwheel.c ****               h = (uint16_t)(((uint32_t)ext->hsv.h * 6 * 256) / 360); v = (uint8_t)(((uint16_t)ext-
 342              		.loc 1 653 16 view .LVU106
 343 00b4 A342     		cmp	r3, r4
 344 00b6 19D0     		beq	.L18
 654:Middlewares/lvgl/src/extra/widgets/colorwheel/lv_colorwheel.c ****               m = ext->mode;
 345              		.loc 1 654 15 is_stmt 1 view .LVU107
 654:Middlewares/lvgl/src/extra/widgets/colorwheel/lv_colorwheel.c ****               m = ext->mode;
 346              		.loc 1 654 49 is_stmt 0 view .LVU108
 347 00b8 838C     		ldrh	r3, [r0, #36]
 654:Middlewares/lvgl/src/extra/widgets/colorwheel/lv_colorwheel.c ****               m = ext->mode;
 348              		.loc 1 654 56 view .LVU109
 349 00ba 03EB4303 		add	r3, r3, r3, lsl #1
 654:Middlewares/lvgl/src/extra/widgets/colorwheel/lv_colorwheel.c ****               m = ext->mode;
 350              		.loc 1 654 63 view .LVU110
 351 00be 9B01     		lsls	r3, r3, #6
 352 00c0 2E4C     		ldr	r4, .L21+16
 353 00c2 A4FB0343 		umull	r4, r3, r4, r3
 654:Middlewares/lvgl/src/extra/widgets/colorwheel/lv_colorwheel.c ****               m = ext->mode;
 354              		.loc 1 654 19 view .LVU111
 355 00c6 C3F38F03 		ubfx	r3, r3, #2, #16
 654:Middlewares/lvgl/src/extra/widgets/colorwheel/lv_colorwheel.c ****               m = ext->mode;
 356              		.loc 1 654 17 view .LVU112
 357 00ca 2D4C     		ldr	r4, .L21+20
 358 00cc 2380     		strh	r3, [r4]	@ movhi
 654:Middlewares/lvgl/src/extra/widgets/colorwheel/lv_colorwheel.c ****               m = ext->mode;
 359              		.loc 1 654 71 is_stmt 1 view .LVU113
 654:Middlewares/lvgl/src/extra/widgets/colorwheel/lv_colorwheel.c ****               m = ext->mode;
 360              		.loc 1 654 104 is_stmt 0 view .LVU114
 361 00ce 90F82730 		ldrb	r3, [r0, #39]	@ zero_extendqisi2
 654:Middlewares/lvgl/src/extra/widgets/colorwheel/lv_colorwheel.c ****               m = ext->mode;
 362              		.loc 1 654 107 view .LVU115
ARM GAS  /tmp/ccAb9Zks.s 			page 30


 363 00d2 03EB4303 		add	r3, r3, r3, lsl #1
 364 00d6 03EB0313 		add	r3, r3, r3, lsl #4
 654:Middlewares/lvgl/src/extra/widgets/colorwheel/lv_colorwheel.c ****               m = ext->mode;
 365              		.loc 1 654 113 view .LVU116
 366 00da 2548     		ldr	r0, .L21+4
 367              	.LVL37:
 654:Middlewares/lvgl/src/extra/widgets/colorwheel/lv_colorwheel.c ****               m = ext->mode;
 368              		.loc 1 654 113 view .LVU117
 369 00dc 80FB0303 		smull	r0, r3, r0, r3
 654:Middlewares/lvgl/src/extra/widgets/colorwheel/lv_colorwheel.c ****               m = ext->mode;
 370              		.loc 1 654 75 view .LVU118
 371 00e0 C3F3C703 		ubfx	r3, r3, #3, #8
 654:Middlewares/lvgl/src/extra/widgets/colorwheel/lv_colorwheel.c ****               m = ext->mode;
 372              		.loc 1 654 73 view .LVU119
 373 00e4 2448     		ldr	r0, .L21+12
 374 00e6 0370     		strb	r3, [r0]
 655:Middlewares/lvgl/src/extra/widgets/colorwheel/lv_colorwheel.c ****             }
 375              		.loc 1 655 15 is_stmt 1 view .LVU120
 655:Middlewares/lvgl/src/extra/widgets/colorwheel/lv_colorwheel.c ****             }
 376              		.loc 1 655 17 is_stmt 0 view .LVU121
 377 00e8 204B     		ldr	r3, .L21
 378 00ea 1A70     		strb	r2, [r3]
 379              	.L18:
 657:Middlewares/lvgl/src/extra/widgets/colorwheel/lv_colorwheel.c ****             break;
 380              		.loc 1 657 13 is_stmt 1 view .LVU122
 381 00ec 0DF10D03 		add	r3, sp, #13
 382 00f0 0193     		str	r3, [sp, #4]
 383 00f2 0DF10E03 		add	r3, sp, #14
 384 00f6 0093     		str	r3, [sp]
 385 00f8 0DF10F03 		add	r3, sp, #15
 386 00fc 1E4A     		ldr	r2, .L21+12
 387 00fe 1278     		ldrb	r2, [r2]	@ zero_extendqisi2
 388 0100 C9B2     		uxtb	r1, r1
 389              	.LVL38:
 657:Middlewares/lvgl/src/extra/widgets/colorwheel/lv_colorwheel.c ****             break;
 390              		.loc 1 657 13 is_stmt 0 view .LVU123
 391 0102 1F48     		ldr	r0, .L21+20
 392 0104 0088     		ldrh	r0, [r0]
 393 0106 FFF7FEFF 		bl	fast_hsv2rgb
 394              	.LVL39:
 658:Middlewares/lvgl/src/extra/widgets/colorwheel/lv_colorwheel.c ****         case LV_COLORWHEEL_MODE_VALUE:
 395              		.loc 1 658 13 is_stmt 1 view .LVU124
 396 010a BEE7     		b	.L17
 397              	.LVL40:
 398              	.L15:
 661:Middlewares/lvgl/src/extra/widgets/colorwheel/lv_colorwheel.c ****               h = (uint16_t)(((uint32_t)ext->hsv.h * 6 * 256) / 360); s = (uint8_t)(((uint16_t)ext-
 399              		.loc 1 661 13 view .LVU125
 661:Middlewares/lvgl/src/extra/widgets/colorwheel/lv_colorwheel.c ****               h = (uint16_t)(((uint32_t)ext->hsv.h * 6 * 256) / 360); s = (uint8_t)(((uint16_t)ext-
 400              		.loc 1 661 19 is_stmt 0 view .LVU126
 401 010c 174C     		ldr	r4, .L21
 402 010e 94F800C0 		ldrb	ip, [r4]	@ zero_extendqisi2
 661:Middlewares/lvgl/src/extra/widgets/colorwheel/lv_colorwheel.c ****               h = (uint16_t)(((uint32_t)ext->hsv.h * 6 * 256) / 360); s = (uint8_t)(((uint16_t)ext-
 403              		.loc 1 661 16 view .LVU127
 404 0112 6345     		cmp	r3, ip
 405 0114 19D0     		beq	.L19
 662:Middlewares/lvgl/src/extra/widgets/colorwheel/lv_colorwheel.c ****               m = ext->mode;
 406              		.loc 1 662 15 is_stmt 1 view .LVU128
ARM GAS  /tmp/ccAb9Zks.s 			page 31


 662:Middlewares/lvgl/src/extra/widgets/colorwheel/lv_colorwheel.c ****               m = ext->mode;
 407              		.loc 1 662 49 is_stmt 0 view .LVU129
 408 0116 838C     		ldrh	r3, [r0, #36]
 662:Middlewares/lvgl/src/extra/widgets/colorwheel/lv_colorwheel.c ****               m = ext->mode;
 409              		.loc 1 662 56 view .LVU130
 410 0118 03EB4303 		add	r3, r3, r3, lsl #1
 662:Middlewares/lvgl/src/extra/widgets/colorwheel/lv_colorwheel.c ****               m = ext->mode;
 411              		.loc 1 662 63 view .LVU131
 412 011c 9B01     		lsls	r3, r3, #6
 413 011e 174C     		ldr	r4, .L21+16
 414 0120 A4FB0343 		umull	r4, r3, r4, r3
 662:Middlewares/lvgl/src/extra/widgets/colorwheel/lv_colorwheel.c ****               m = ext->mode;
 415              		.loc 1 662 19 view .LVU132
 416 0124 C3F38F03 		ubfx	r3, r3, #2, #16
 662:Middlewares/lvgl/src/extra/widgets/colorwheel/lv_colorwheel.c ****               m = ext->mode;
 417              		.loc 1 662 17 view .LVU133
 418 0128 154C     		ldr	r4, .L21+20
 419 012a 2380     		strh	r3, [r4]	@ movhi
 662:Middlewares/lvgl/src/extra/widgets/colorwheel/lv_colorwheel.c ****               m = ext->mode;
 420              		.loc 1 662 71 is_stmt 1 view .LVU134
 662:Middlewares/lvgl/src/extra/widgets/colorwheel/lv_colorwheel.c ****               m = ext->mode;
 421              		.loc 1 662 104 is_stmt 0 view .LVU135
 422 012c 90F82630 		ldrb	r3, [r0, #38]	@ zero_extendqisi2
 662:Middlewares/lvgl/src/extra/widgets/colorwheel/lv_colorwheel.c ****               m = ext->mode;
 423              		.loc 1 662 107 view .LVU136
 424 0130 03EB4303 		add	r3, r3, r3, lsl #1
 425 0134 03EB0313 		add	r3, r3, r3, lsl #4
 662:Middlewares/lvgl/src/extra/widgets/colorwheel/lv_colorwheel.c ****               m = ext->mode;
 426              		.loc 1 662 113 view .LVU137
 427 0138 0D48     		ldr	r0, .L21+4
 428              	.LVL41:
 662:Middlewares/lvgl/src/extra/widgets/colorwheel/lv_colorwheel.c ****               m = ext->mode;
 429              		.loc 1 662 113 view .LVU138
 430 013a 80FB0303 		smull	r0, r3, r0, r3
 662:Middlewares/lvgl/src/extra/widgets/colorwheel/lv_colorwheel.c ****               m = ext->mode;
 431              		.loc 1 662 75 view .LVU139
 432 013e C3F3C703 		ubfx	r3, r3, #3, #8
 662:Middlewares/lvgl/src/extra/widgets/colorwheel/lv_colorwheel.c ****               m = ext->mode;
 433              		.loc 1 662 73 view .LVU140
 434 0142 0C48     		ldr	r0, .L21+8
 435 0144 0370     		strb	r3, [r0]
 663:Middlewares/lvgl/src/extra/widgets/colorwheel/lv_colorwheel.c ****             }
 436              		.loc 1 663 15 is_stmt 1 view .LVU141
 663:Middlewares/lvgl/src/extra/widgets/colorwheel/lv_colorwheel.c ****             }
 437              		.loc 1 663 17 is_stmt 0 view .LVU142
 438 0146 094B     		ldr	r3, .L21
 439 0148 1A70     		strb	r2, [r3]
 440              	.L19:
 665:Middlewares/lvgl/src/extra/widgets/colorwheel/lv_colorwheel.c ****             break;
 441              		.loc 1 665 13 is_stmt 1 view .LVU143
 442 014a 0DF10D03 		add	r3, sp, #13
 443 014e 0193     		str	r3, [sp, #4]
 444 0150 0DF10E03 		add	r3, sp, #14
 445 0154 0093     		str	r3, [sp]
 446 0156 0DF10F03 		add	r3, sp, #15
 447 015a CAB2     		uxtb	r2, r1
 448 015c 0549     		ldr	r1, .L21+8
ARM GAS  /tmp/ccAb9Zks.s 			page 32


 449              	.LVL42:
 665:Middlewares/lvgl/src/extra/widgets/colorwheel/lv_colorwheel.c ****             break;
 450              		.loc 1 665 13 is_stmt 0 view .LVU144
 451 015e 0978     		ldrb	r1, [r1]	@ zero_extendqisi2
 452 0160 0748     		ldr	r0, .L21+20
 453 0162 0088     		ldrh	r0, [r0]
 454 0164 FFF7FEFF 		bl	fast_hsv2rgb
 455              	.LVL43:
 666:Middlewares/lvgl/src/extra/widgets/colorwheel/lv_colorwheel.c ****     }
 456              		.loc 1 666 13 is_stmt 1 view .LVU145
 457 0168 8FE7     		b	.L17
 458              	.L22:
 459 016a 00BF     		.align	2
 460              	.L21:
 461 016c 00000000 		.word	.LANCHOR0
 462 0170 67666666 		.word	1717986919
 463 0174 00000000 		.word	.LANCHOR1
 464 0178 00000000 		.word	.LANCHOR2
 465 017c 176CC116 		.word	381774871
 466 0180 00000000 		.word	.LANCHOR3
 467              		.cfi_endproc
 468              	.LFE203:
 470              		.section	.text.get_angle,"ax",%progbits
 471              		.align	1
 472              		.syntax unified
 473              		.thumb
 474              		.thumb_func
 476              	get_angle:
 477              	.LVL44:
 478              	.LFB204:
 670:Middlewares/lvgl/src/extra/widgets/colorwheel/lv_colorwheel.c **** 
 671:Middlewares/lvgl/src/extra/widgets/colorwheel/lv_colorwheel.c **** static uint16_t get_angle(lv_obj_t * obj)
 672:Middlewares/lvgl/src/extra/widgets/colorwheel/lv_colorwheel.c **** {
 479              		.loc 1 672 1 view -0
 480              		.cfi_startproc
 481              		@ args = 0, pretend = 0, frame = 0
 482              		@ frame_needed = 0, uses_anonymous_args = 0
 483              		@ link register save eliminated.
 673:Middlewares/lvgl/src/extra/widgets/colorwheel/lv_colorwheel.c ****     lv_colorwheel_t * colorwheel = (lv_colorwheel_t *)obj;
 484              		.loc 1 673 5 view .LVU147
 674:Middlewares/lvgl/src/extra/widgets/colorwheel/lv_colorwheel.c ****     uint16_t angle;
 485              		.loc 1 674 5 view .LVU148
 675:Middlewares/lvgl/src/extra/widgets/colorwheel/lv_colorwheel.c ****     switch(colorwheel->mode) {
 486              		.loc 1 675 5 view .LVU149
 487              		.loc 1 675 22 is_stmt 0 view .LVU150
 488 0000 90F83C30 		ldrb	r3, [r0, #60]	@ zero_extendqisi2
 489 0004 03F00303 		and	r3, r3, #3
 490              		.loc 1 675 5 view .LVU151
 491 0008 012B     		cmp	r3, #1
 492 000a 03D0     		beq	.L24
 493 000c 022B     		cmp	r3, #2
 494 000e 0CD0     		beq	.L25
 676:Middlewares/lvgl/src/extra/widgets/colorwheel/lv_colorwheel.c ****         default:
 677:Middlewares/lvgl/src/extra/widgets/colorwheel/lv_colorwheel.c ****         case LV_COLORWHEEL_MODE_HUE:
 678:Middlewares/lvgl/src/extra/widgets/colorwheel/lv_colorwheel.c ****             angle = colorwheel->hsv.h;
 495              		.loc 1 678 13 is_stmt 1 view .LVU152
 496              		.loc 1 678 19 is_stmt 0 view .LVU153
ARM GAS  /tmp/ccAb9Zks.s 			page 33


 497 0010 808C     		ldrh	r0, [r0, #36]
 498              	.LVL45:
 679:Middlewares/lvgl/src/extra/widgets/colorwheel/lv_colorwheel.c ****             break;
 499              		.loc 1 679 13 is_stmt 1 view .LVU154
 500 0012 7047     		bx	lr
 501              	.LVL46:
 502              	.L24:
 680:Middlewares/lvgl/src/extra/widgets/colorwheel/lv_colorwheel.c ****         case LV_COLORWHEEL_MODE_SATURATION:
 681:Middlewares/lvgl/src/extra/widgets/colorwheel/lv_colorwheel.c ****             angle = (colorwheel->hsv.s * 360) / 100;
 503              		.loc 1 681 13 view .LVU155
 504              		.loc 1 681 37 is_stmt 0 view .LVU156
 505 0014 90F82600 		ldrb	r0, [r0, #38]	@ zero_extendqisi2
 506              	.LVL47:
 507              		.loc 1 681 40 view .LVU157
 508 0018 4FF4B473 		mov	r3, #360
 509 001c 03FB00F0 		mul	r0, r3, r0
 510              		.loc 1 681 47 view .LVU158
 511 0020 074B     		ldr	r3, .L27
 512 0022 83FB0030 		smull	r3, r0, r3, r0
 513              		.loc 1 681 19 view .LVU159
 514 0026 4009     		lsrs	r0, r0, #5
 515              	.LVL48:
 682:Middlewares/lvgl/src/extra/widgets/colorwheel/lv_colorwheel.c ****             break;
 516              		.loc 1 682 13 is_stmt 1 view .LVU160
 517 0028 7047     		bx	lr
 518              	.LVL49:
 519              	.L25:
 683:Middlewares/lvgl/src/extra/widgets/colorwheel/lv_colorwheel.c ****         case LV_COLORWHEEL_MODE_VALUE:
 684:Middlewares/lvgl/src/extra/widgets/colorwheel/lv_colorwheel.c ****             angle = (colorwheel->hsv.v * 360) / 100 ;
 520              		.loc 1 684 13 view .LVU161
 521              		.loc 1 684 37 is_stmt 0 view .LVU162
 522 002a 90F82700 		ldrb	r0, [r0, #39]	@ zero_extendqisi2
 523              	.LVL50:
 524              		.loc 1 684 40 view .LVU163
 525 002e 4FF4B473 		mov	r3, #360
 526 0032 03FB00F0 		mul	r0, r3, r0
 527              		.loc 1 684 47 view .LVU164
 528 0036 024B     		ldr	r3, .L27
 529 0038 83FB0030 		smull	r3, r0, r3, r0
 530              		.loc 1 684 19 view .LVU165
 531 003c 4009     		lsrs	r0, r0, #5
 532              	.LVL51:
 685:Middlewares/lvgl/src/extra/widgets/colorwheel/lv_colorwheel.c ****             break;
 533              		.loc 1 685 13 is_stmt 1 view .LVU166
 686:Middlewares/lvgl/src/extra/widgets/colorwheel/lv_colorwheel.c ****     }
 687:Middlewares/lvgl/src/extra/widgets/colorwheel/lv_colorwheel.c ****     return angle;
 534              		.loc 1 687 5 view .LVU167
 688:Middlewares/lvgl/src/extra/widgets/colorwheel/lv_colorwheel.c **** }
 535              		.loc 1 688 1 is_stmt 0 view .LVU168
 536 003e 7047     		bx	lr
 537              	.L28:
 538              		.align	2
 539              	.L27:
 540 0040 1F85EB51 		.word	1374389535
 541              		.cfi_endproc
 542              	.LFE204:
 544              		.section	.text.get_knob_area,"ax",%progbits
ARM GAS  /tmp/ccAb9Zks.s 			page 34


 545              		.align	1
 546              		.syntax unified
 547              		.thumb
 548              		.thumb_func
 550              	get_knob_area:
 551              	.LVL52:
 552              	.LFB197:
 324:Middlewares/lvgl/src/extra/widgets/colorwheel/lv_colorwheel.c ****     lv_colorwheel_t * colorwheel = (lv_colorwheel_t *)obj;
 553              		.loc 1 324 1 is_stmt 1 view -0
 554              		.cfi_startproc
 555              		@ args = 0, pretend = 0, frame = 0
 556              		@ frame_needed = 0, uses_anonymous_args = 0
 324:Middlewares/lvgl/src/extra/widgets/colorwheel/lv_colorwheel.c ****     lv_colorwheel_t * colorwheel = (lv_colorwheel_t *)obj;
 557              		.loc 1 324 1 is_stmt 0 view .LVU170
 558 0000 2DE9F843 		push	{r3, r4, r5, r6, r7, r8, r9, lr}
 559              	.LCFI5:
 560              		.cfi_def_cfa_offset 32
 561              		.cfi_offset 3, -32
 562              		.cfi_offset 4, -28
 563              		.cfi_offset 5, -24
 564              		.cfi_offset 6, -20
 565              		.cfi_offset 7, -16
 566              		.cfi_offset 8, -12
 567              		.cfi_offset 9, -8
 568              		.cfi_offset 14, -4
 569 0004 0646     		mov	r6, r0
 570 0006 0C46     		mov	r4, r1
 325:Middlewares/lvgl/src/extra/widgets/colorwheel/lv_colorwheel.c **** 
 571              		.loc 1 325 5 is_stmt 1 view .LVU171
 572              	.LVL53:
 328:Middlewares/lvgl/src/extra/widgets/colorwheel/lv_colorwheel.c ****     r = lv_obj_get_style_arc_width(obj, LV_PART_MAIN) / 2;
 573              		.loc 1 328 5 view .LVU172
 329:Middlewares/lvgl/src/extra/widgets/colorwheel/lv_colorwheel.c **** 
 574              		.loc 1 329 5 view .LVU173
 575              	.LBB52:
 576              	.LBI52:
 577              		.file 3 "Middlewares/lvgl/src/extra/widgets/colorwheel/../../../../src/core/lv_obj_style_gen.h"
   1:Middlewares/lvgl/src/extra/widgets/colorwheel/../../../../src/core/lv_obj_style_gen.h **** static inline lv_coord_t lv_obj_get_style_width(const struct _lv_obj_t * obj, uint32_t part)
   2:Middlewares/lvgl/src/extra/widgets/colorwheel/../../../../src/core/lv_obj_style_gen.h **** {
   3:Middlewares/lvgl/src/extra/widgets/colorwheel/../../../../src/core/lv_obj_style_gen.h ****     lv_style_value_t v = lv_obj_get_style_prop(obj, part, LV_STYLE_WIDTH);
   4:Middlewares/lvgl/src/extra/widgets/colorwheel/../../../../src/core/lv_obj_style_gen.h ****     return (lv_coord_t)v.num;
   5:Middlewares/lvgl/src/extra/widgets/colorwheel/../../../../src/core/lv_obj_style_gen.h **** }
   6:Middlewares/lvgl/src/extra/widgets/colorwheel/../../../../src/core/lv_obj_style_gen.h **** 
   7:Middlewares/lvgl/src/extra/widgets/colorwheel/../../../../src/core/lv_obj_style_gen.h **** static inline lv_coord_t lv_obj_get_style_min_width(const struct _lv_obj_t * obj, uint32_t part)
   8:Middlewares/lvgl/src/extra/widgets/colorwheel/../../../../src/core/lv_obj_style_gen.h **** {
   9:Middlewares/lvgl/src/extra/widgets/colorwheel/../../../../src/core/lv_obj_style_gen.h ****     lv_style_value_t v = lv_obj_get_style_prop(obj, part, LV_STYLE_MIN_WIDTH);
  10:Middlewares/lvgl/src/extra/widgets/colorwheel/../../../../src/core/lv_obj_style_gen.h ****     return (lv_coord_t)v.num;
  11:Middlewares/lvgl/src/extra/widgets/colorwheel/../../../../src/core/lv_obj_style_gen.h **** }
  12:Middlewares/lvgl/src/extra/widgets/colorwheel/../../../../src/core/lv_obj_style_gen.h **** 
  13:Middlewares/lvgl/src/extra/widgets/colorwheel/../../../../src/core/lv_obj_style_gen.h **** static inline lv_coord_t lv_obj_get_style_max_width(const struct _lv_obj_t * obj, uint32_t part)
  14:Middlewares/lvgl/src/extra/widgets/colorwheel/../../../../src/core/lv_obj_style_gen.h **** {
  15:Middlewares/lvgl/src/extra/widgets/colorwheel/../../../../src/core/lv_obj_style_gen.h ****     lv_style_value_t v = lv_obj_get_style_prop(obj, part, LV_STYLE_MAX_WIDTH);
  16:Middlewares/lvgl/src/extra/widgets/colorwheel/../../../../src/core/lv_obj_style_gen.h ****     return (lv_coord_t)v.num;
  17:Middlewares/lvgl/src/extra/widgets/colorwheel/../../../../src/core/lv_obj_style_gen.h **** }
  18:Middlewares/lvgl/src/extra/widgets/colorwheel/../../../../src/core/lv_obj_style_gen.h **** 
  19:Middlewares/lvgl/src/extra/widgets/colorwheel/../../../../src/core/lv_obj_style_gen.h **** static inline lv_coord_t lv_obj_get_style_height(const struct _lv_obj_t * obj, uint32_t part)
  20:Middlewares/lvgl/src/extra/widgets/colorwheel/../../../../src/core/lv_obj_style_gen.h **** {
ARM GAS  /tmp/ccAb9Zks.s 			page 35


  21:Middlewares/lvgl/src/extra/widgets/colorwheel/../../../../src/core/lv_obj_style_gen.h ****     lv_style_value_t v = lv_obj_get_style_prop(obj, part, LV_STYLE_HEIGHT);
  22:Middlewares/lvgl/src/extra/widgets/colorwheel/../../../../src/core/lv_obj_style_gen.h ****     return (lv_coord_t)v.num;
  23:Middlewares/lvgl/src/extra/widgets/colorwheel/../../../../src/core/lv_obj_style_gen.h **** }
  24:Middlewares/lvgl/src/extra/widgets/colorwheel/../../../../src/core/lv_obj_style_gen.h **** 
  25:Middlewares/lvgl/src/extra/widgets/colorwheel/../../../../src/core/lv_obj_style_gen.h **** static inline lv_coord_t lv_obj_get_style_min_height(const struct _lv_obj_t * obj, uint32_t part)
  26:Middlewares/lvgl/src/extra/widgets/colorwheel/../../../../src/core/lv_obj_style_gen.h **** {
  27:Middlewares/lvgl/src/extra/widgets/colorwheel/../../../../src/core/lv_obj_style_gen.h ****     lv_style_value_t v = lv_obj_get_style_prop(obj, part, LV_STYLE_MIN_HEIGHT);
  28:Middlewares/lvgl/src/extra/widgets/colorwheel/../../../../src/core/lv_obj_style_gen.h ****     return (lv_coord_t)v.num;
  29:Middlewares/lvgl/src/extra/widgets/colorwheel/../../../../src/core/lv_obj_style_gen.h **** }
  30:Middlewares/lvgl/src/extra/widgets/colorwheel/../../../../src/core/lv_obj_style_gen.h **** 
  31:Middlewares/lvgl/src/extra/widgets/colorwheel/../../../../src/core/lv_obj_style_gen.h **** static inline lv_coord_t lv_obj_get_style_max_height(const struct _lv_obj_t * obj, uint32_t part)
  32:Middlewares/lvgl/src/extra/widgets/colorwheel/../../../../src/core/lv_obj_style_gen.h **** {
  33:Middlewares/lvgl/src/extra/widgets/colorwheel/../../../../src/core/lv_obj_style_gen.h ****     lv_style_value_t v = lv_obj_get_style_prop(obj, part, LV_STYLE_MAX_HEIGHT);
  34:Middlewares/lvgl/src/extra/widgets/colorwheel/../../../../src/core/lv_obj_style_gen.h ****     return (lv_coord_t)v.num;
  35:Middlewares/lvgl/src/extra/widgets/colorwheel/../../../../src/core/lv_obj_style_gen.h **** }
  36:Middlewares/lvgl/src/extra/widgets/colorwheel/../../../../src/core/lv_obj_style_gen.h **** 
  37:Middlewares/lvgl/src/extra/widgets/colorwheel/../../../../src/core/lv_obj_style_gen.h **** static inline lv_coord_t lv_obj_get_style_x(const struct _lv_obj_t * obj, uint32_t part)
  38:Middlewares/lvgl/src/extra/widgets/colorwheel/../../../../src/core/lv_obj_style_gen.h **** {
  39:Middlewares/lvgl/src/extra/widgets/colorwheel/../../../../src/core/lv_obj_style_gen.h ****     lv_style_value_t v = lv_obj_get_style_prop(obj, part, LV_STYLE_X);
  40:Middlewares/lvgl/src/extra/widgets/colorwheel/../../../../src/core/lv_obj_style_gen.h ****     return (lv_coord_t)v.num;
  41:Middlewares/lvgl/src/extra/widgets/colorwheel/../../../../src/core/lv_obj_style_gen.h **** }
  42:Middlewares/lvgl/src/extra/widgets/colorwheel/../../../../src/core/lv_obj_style_gen.h **** 
  43:Middlewares/lvgl/src/extra/widgets/colorwheel/../../../../src/core/lv_obj_style_gen.h **** static inline lv_coord_t lv_obj_get_style_y(const struct _lv_obj_t * obj, uint32_t part)
  44:Middlewares/lvgl/src/extra/widgets/colorwheel/../../../../src/core/lv_obj_style_gen.h **** {
  45:Middlewares/lvgl/src/extra/widgets/colorwheel/../../../../src/core/lv_obj_style_gen.h ****     lv_style_value_t v = lv_obj_get_style_prop(obj, part, LV_STYLE_Y);
  46:Middlewares/lvgl/src/extra/widgets/colorwheel/../../../../src/core/lv_obj_style_gen.h ****     return (lv_coord_t)v.num;
  47:Middlewares/lvgl/src/extra/widgets/colorwheel/../../../../src/core/lv_obj_style_gen.h **** }
  48:Middlewares/lvgl/src/extra/widgets/colorwheel/../../../../src/core/lv_obj_style_gen.h **** 
  49:Middlewares/lvgl/src/extra/widgets/colorwheel/../../../../src/core/lv_obj_style_gen.h **** static inline lv_align_t lv_obj_get_style_align(const struct _lv_obj_t * obj, uint32_t part)
  50:Middlewares/lvgl/src/extra/widgets/colorwheel/../../../../src/core/lv_obj_style_gen.h **** {
  51:Middlewares/lvgl/src/extra/widgets/colorwheel/../../../../src/core/lv_obj_style_gen.h ****     lv_style_value_t v = lv_obj_get_style_prop(obj, part, LV_STYLE_ALIGN);
  52:Middlewares/lvgl/src/extra/widgets/colorwheel/../../../../src/core/lv_obj_style_gen.h ****     return (lv_align_t)v.num;
  53:Middlewares/lvgl/src/extra/widgets/colorwheel/../../../../src/core/lv_obj_style_gen.h **** }
  54:Middlewares/lvgl/src/extra/widgets/colorwheel/../../../../src/core/lv_obj_style_gen.h **** 
  55:Middlewares/lvgl/src/extra/widgets/colorwheel/../../../../src/core/lv_obj_style_gen.h **** static inline lv_coord_t lv_obj_get_style_transform_width(const struct _lv_obj_t * obj, uint32_t pa
  56:Middlewares/lvgl/src/extra/widgets/colorwheel/../../../../src/core/lv_obj_style_gen.h **** {
  57:Middlewares/lvgl/src/extra/widgets/colorwheel/../../../../src/core/lv_obj_style_gen.h ****     lv_style_value_t v = lv_obj_get_style_prop(obj, part, LV_STYLE_TRANSFORM_WIDTH);
  58:Middlewares/lvgl/src/extra/widgets/colorwheel/../../../../src/core/lv_obj_style_gen.h ****     return (lv_coord_t)v.num;
  59:Middlewares/lvgl/src/extra/widgets/colorwheel/../../../../src/core/lv_obj_style_gen.h **** }
  60:Middlewares/lvgl/src/extra/widgets/colorwheel/../../../../src/core/lv_obj_style_gen.h **** 
  61:Middlewares/lvgl/src/extra/widgets/colorwheel/../../../../src/core/lv_obj_style_gen.h **** static inline lv_coord_t lv_obj_get_style_transform_height(const struct _lv_obj_t * obj, uint32_t p
  62:Middlewares/lvgl/src/extra/widgets/colorwheel/../../../../src/core/lv_obj_style_gen.h **** {
  63:Middlewares/lvgl/src/extra/widgets/colorwheel/../../../../src/core/lv_obj_style_gen.h ****     lv_style_value_t v = lv_obj_get_style_prop(obj, part, LV_STYLE_TRANSFORM_HEIGHT);
  64:Middlewares/lvgl/src/extra/widgets/colorwheel/../../../../src/core/lv_obj_style_gen.h ****     return (lv_coord_t)v.num;
  65:Middlewares/lvgl/src/extra/widgets/colorwheel/../../../../src/core/lv_obj_style_gen.h **** }
  66:Middlewares/lvgl/src/extra/widgets/colorwheel/../../../../src/core/lv_obj_style_gen.h **** 
  67:Middlewares/lvgl/src/extra/widgets/colorwheel/../../../../src/core/lv_obj_style_gen.h **** static inline lv_coord_t lv_obj_get_style_translate_x(const struct _lv_obj_t * obj, uint32_t part)
  68:Middlewares/lvgl/src/extra/widgets/colorwheel/../../../../src/core/lv_obj_style_gen.h **** {
  69:Middlewares/lvgl/src/extra/widgets/colorwheel/../../../../src/core/lv_obj_style_gen.h ****     lv_style_value_t v = lv_obj_get_style_prop(obj, part, LV_STYLE_TRANSLATE_X);
  70:Middlewares/lvgl/src/extra/widgets/colorwheel/../../../../src/core/lv_obj_style_gen.h ****     return (lv_coord_t)v.num;
  71:Middlewares/lvgl/src/extra/widgets/colorwheel/../../../../src/core/lv_obj_style_gen.h **** }
  72:Middlewares/lvgl/src/extra/widgets/colorwheel/../../../../src/core/lv_obj_style_gen.h **** 
  73:Middlewares/lvgl/src/extra/widgets/colorwheel/../../../../src/core/lv_obj_style_gen.h **** static inline lv_coord_t lv_obj_get_style_translate_y(const struct _lv_obj_t * obj, uint32_t part)
  74:Middlewares/lvgl/src/extra/widgets/colorwheel/../../../../src/core/lv_obj_style_gen.h **** {
  75:Middlewares/lvgl/src/extra/widgets/colorwheel/../../../../src/core/lv_obj_style_gen.h ****     lv_style_value_t v = lv_obj_get_style_prop(obj, part, LV_STYLE_TRANSLATE_Y);
  76:Middlewares/lvgl/src/extra/widgets/colorwheel/../../../../src/core/lv_obj_style_gen.h ****     return (lv_coord_t)v.num;
  77:Middlewares/lvgl/src/extra/widgets/colorwheel/../../../../src/core/lv_obj_style_gen.h **** }
ARM GAS  /tmp/ccAb9Zks.s 			page 36


  78:Middlewares/lvgl/src/extra/widgets/colorwheel/../../../../src/core/lv_obj_style_gen.h **** 
  79:Middlewares/lvgl/src/extra/widgets/colorwheel/../../../../src/core/lv_obj_style_gen.h **** static inline lv_coord_t lv_obj_get_style_transform_zoom(const struct _lv_obj_t * obj, uint32_t par
  80:Middlewares/lvgl/src/extra/widgets/colorwheel/../../../../src/core/lv_obj_style_gen.h **** {
  81:Middlewares/lvgl/src/extra/widgets/colorwheel/../../../../src/core/lv_obj_style_gen.h ****     lv_style_value_t v = lv_obj_get_style_prop(obj, part, LV_STYLE_TRANSFORM_ZOOM);
  82:Middlewares/lvgl/src/extra/widgets/colorwheel/../../../../src/core/lv_obj_style_gen.h ****     return (lv_coord_t)v.num;
  83:Middlewares/lvgl/src/extra/widgets/colorwheel/../../../../src/core/lv_obj_style_gen.h **** }
  84:Middlewares/lvgl/src/extra/widgets/colorwheel/../../../../src/core/lv_obj_style_gen.h **** 
  85:Middlewares/lvgl/src/extra/widgets/colorwheel/../../../../src/core/lv_obj_style_gen.h **** static inline lv_coord_t lv_obj_get_style_transform_angle(const struct _lv_obj_t * obj, uint32_t pa
  86:Middlewares/lvgl/src/extra/widgets/colorwheel/../../../../src/core/lv_obj_style_gen.h **** {
  87:Middlewares/lvgl/src/extra/widgets/colorwheel/../../../../src/core/lv_obj_style_gen.h ****     lv_style_value_t v = lv_obj_get_style_prop(obj, part, LV_STYLE_TRANSFORM_ANGLE);
  88:Middlewares/lvgl/src/extra/widgets/colorwheel/../../../../src/core/lv_obj_style_gen.h ****     return (lv_coord_t)v.num;
  89:Middlewares/lvgl/src/extra/widgets/colorwheel/../../../../src/core/lv_obj_style_gen.h **** }
  90:Middlewares/lvgl/src/extra/widgets/colorwheel/../../../../src/core/lv_obj_style_gen.h **** 
  91:Middlewares/lvgl/src/extra/widgets/colorwheel/../../../../src/core/lv_obj_style_gen.h **** static inline lv_coord_t lv_obj_get_style_pad_top(const struct _lv_obj_t * obj, uint32_t part)
  92:Middlewares/lvgl/src/extra/widgets/colorwheel/../../../../src/core/lv_obj_style_gen.h **** {
  93:Middlewares/lvgl/src/extra/widgets/colorwheel/../../../../src/core/lv_obj_style_gen.h ****     lv_style_value_t v = lv_obj_get_style_prop(obj, part, LV_STYLE_PAD_TOP);
  94:Middlewares/lvgl/src/extra/widgets/colorwheel/../../../../src/core/lv_obj_style_gen.h ****     return (lv_coord_t)v.num;
  95:Middlewares/lvgl/src/extra/widgets/colorwheel/../../../../src/core/lv_obj_style_gen.h **** }
  96:Middlewares/lvgl/src/extra/widgets/colorwheel/../../../../src/core/lv_obj_style_gen.h **** 
  97:Middlewares/lvgl/src/extra/widgets/colorwheel/../../../../src/core/lv_obj_style_gen.h **** static inline lv_coord_t lv_obj_get_style_pad_bottom(const struct _lv_obj_t * obj, uint32_t part)
  98:Middlewares/lvgl/src/extra/widgets/colorwheel/../../../../src/core/lv_obj_style_gen.h **** {
  99:Middlewares/lvgl/src/extra/widgets/colorwheel/../../../../src/core/lv_obj_style_gen.h ****     lv_style_value_t v = lv_obj_get_style_prop(obj, part, LV_STYLE_PAD_BOTTOM);
 100:Middlewares/lvgl/src/extra/widgets/colorwheel/../../../../src/core/lv_obj_style_gen.h ****     return (lv_coord_t)v.num;
 101:Middlewares/lvgl/src/extra/widgets/colorwheel/../../../../src/core/lv_obj_style_gen.h **** }
 102:Middlewares/lvgl/src/extra/widgets/colorwheel/../../../../src/core/lv_obj_style_gen.h **** 
 103:Middlewares/lvgl/src/extra/widgets/colorwheel/../../../../src/core/lv_obj_style_gen.h **** static inline lv_coord_t lv_obj_get_style_pad_left(const struct _lv_obj_t * obj, uint32_t part)
 104:Middlewares/lvgl/src/extra/widgets/colorwheel/../../../../src/core/lv_obj_style_gen.h **** {
 105:Middlewares/lvgl/src/extra/widgets/colorwheel/../../../../src/core/lv_obj_style_gen.h ****     lv_style_value_t v = lv_obj_get_style_prop(obj, part, LV_STYLE_PAD_LEFT);
 106:Middlewares/lvgl/src/extra/widgets/colorwheel/../../../../src/core/lv_obj_style_gen.h ****     return (lv_coord_t)v.num;
 107:Middlewares/lvgl/src/extra/widgets/colorwheel/../../../../src/core/lv_obj_style_gen.h **** }
 108:Middlewares/lvgl/src/extra/widgets/colorwheel/../../../../src/core/lv_obj_style_gen.h **** 
 109:Middlewares/lvgl/src/extra/widgets/colorwheel/../../../../src/core/lv_obj_style_gen.h **** static inline lv_coord_t lv_obj_get_style_pad_right(const struct _lv_obj_t * obj, uint32_t part)
 110:Middlewares/lvgl/src/extra/widgets/colorwheel/../../../../src/core/lv_obj_style_gen.h **** {
 111:Middlewares/lvgl/src/extra/widgets/colorwheel/../../../../src/core/lv_obj_style_gen.h ****     lv_style_value_t v = lv_obj_get_style_prop(obj, part, LV_STYLE_PAD_RIGHT);
 112:Middlewares/lvgl/src/extra/widgets/colorwheel/../../../../src/core/lv_obj_style_gen.h ****     return (lv_coord_t)v.num;
 113:Middlewares/lvgl/src/extra/widgets/colorwheel/../../../../src/core/lv_obj_style_gen.h **** }
 114:Middlewares/lvgl/src/extra/widgets/colorwheel/../../../../src/core/lv_obj_style_gen.h **** 
 115:Middlewares/lvgl/src/extra/widgets/colorwheel/../../../../src/core/lv_obj_style_gen.h **** static inline lv_coord_t lv_obj_get_style_pad_row(const struct _lv_obj_t * obj, uint32_t part)
 116:Middlewares/lvgl/src/extra/widgets/colorwheel/../../../../src/core/lv_obj_style_gen.h **** {
 117:Middlewares/lvgl/src/extra/widgets/colorwheel/../../../../src/core/lv_obj_style_gen.h ****     lv_style_value_t v = lv_obj_get_style_prop(obj, part, LV_STYLE_PAD_ROW);
 118:Middlewares/lvgl/src/extra/widgets/colorwheel/../../../../src/core/lv_obj_style_gen.h ****     return (lv_coord_t)v.num;
 119:Middlewares/lvgl/src/extra/widgets/colorwheel/../../../../src/core/lv_obj_style_gen.h **** }
 120:Middlewares/lvgl/src/extra/widgets/colorwheel/../../../../src/core/lv_obj_style_gen.h **** 
 121:Middlewares/lvgl/src/extra/widgets/colorwheel/../../../../src/core/lv_obj_style_gen.h **** static inline lv_coord_t lv_obj_get_style_pad_column(const struct _lv_obj_t * obj, uint32_t part)
 122:Middlewares/lvgl/src/extra/widgets/colorwheel/../../../../src/core/lv_obj_style_gen.h **** {
 123:Middlewares/lvgl/src/extra/widgets/colorwheel/../../../../src/core/lv_obj_style_gen.h ****     lv_style_value_t v = lv_obj_get_style_prop(obj, part, LV_STYLE_PAD_COLUMN);
 124:Middlewares/lvgl/src/extra/widgets/colorwheel/../../../../src/core/lv_obj_style_gen.h ****     return (lv_coord_t)v.num;
 125:Middlewares/lvgl/src/extra/widgets/colorwheel/../../../../src/core/lv_obj_style_gen.h **** }
 126:Middlewares/lvgl/src/extra/widgets/colorwheel/../../../../src/core/lv_obj_style_gen.h **** 
 127:Middlewares/lvgl/src/extra/widgets/colorwheel/../../../../src/core/lv_obj_style_gen.h **** static inline lv_coord_t lv_obj_get_style_radius(const struct _lv_obj_t * obj, uint32_t part)
 128:Middlewares/lvgl/src/extra/widgets/colorwheel/../../../../src/core/lv_obj_style_gen.h **** {
 129:Middlewares/lvgl/src/extra/widgets/colorwheel/../../../../src/core/lv_obj_style_gen.h ****     lv_style_value_t v = lv_obj_get_style_prop(obj, part, LV_STYLE_RADIUS);
 130:Middlewares/lvgl/src/extra/widgets/colorwheel/../../../../src/core/lv_obj_style_gen.h ****     return (lv_coord_t)v.num;
 131:Middlewares/lvgl/src/extra/widgets/colorwheel/../../../../src/core/lv_obj_style_gen.h **** }
 132:Middlewares/lvgl/src/extra/widgets/colorwheel/../../../../src/core/lv_obj_style_gen.h **** 
 133:Middlewares/lvgl/src/extra/widgets/colorwheel/../../../../src/core/lv_obj_style_gen.h **** static inline bool lv_obj_get_style_clip_corner(const struct _lv_obj_t * obj, uint32_t part)
 134:Middlewares/lvgl/src/extra/widgets/colorwheel/../../../../src/core/lv_obj_style_gen.h **** {
ARM GAS  /tmp/ccAb9Zks.s 			page 37


 135:Middlewares/lvgl/src/extra/widgets/colorwheel/../../../../src/core/lv_obj_style_gen.h ****     lv_style_value_t v = lv_obj_get_style_prop(obj, part, LV_STYLE_CLIP_CORNER);
 136:Middlewares/lvgl/src/extra/widgets/colorwheel/../../../../src/core/lv_obj_style_gen.h ****     return (bool)v.num;
 137:Middlewares/lvgl/src/extra/widgets/colorwheel/../../../../src/core/lv_obj_style_gen.h **** }
 138:Middlewares/lvgl/src/extra/widgets/colorwheel/../../../../src/core/lv_obj_style_gen.h **** 
 139:Middlewares/lvgl/src/extra/widgets/colorwheel/../../../../src/core/lv_obj_style_gen.h **** static inline lv_opa_t lv_obj_get_style_opa(const struct _lv_obj_t * obj, uint32_t part)
 140:Middlewares/lvgl/src/extra/widgets/colorwheel/../../../../src/core/lv_obj_style_gen.h **** {
 141:Middlewares/lvgl/src/extra/widgets/colorwheel/../../../../src/core/lv_obj_style_gen.h ****     lv_style_value_t v = lv_obj_get_style_prop(obj, part, LV_STYLE_OPA);
 142:Middlewares/lvgl/src/extra/widgets/colorwheel/../../../../src/core/lv_obj_style_gen.h ****     return (lv_opa_t)v.num;
 143:Middlewares/lvgl/src/extra/widgets/colorwheel/../../../../src/core/lv_obj_style_gen.h **** }
 144:Middlewares/lvgl/src/extra/widgets/colorwheel/../../../../src/core/lv_obj_style_gen.h **** 
 145:Middlewares/lvgl/src/extra/widgets/colorwheel/../../../../src/core/lv_obj_style_gen.h **** static inline const lv_color_filter_dsc_t * lv_obj_get_style_color_filter_dsc(const struct _lv_obj_
 146:Middlewares/lvgl/src/extra/widgets/colorwheel/../../../../src/core/lv_obj_style_gen.h **** {
 147:Middlewares/lvgl/src/extra/widgets/colorwheel/../../../../src/core/lv_obj_style_gen.h ****     lv_style_value_t v = lv_obj_get_style_prop(obj, part, LV_STYLE_COLOR_FILTER_DSC);
 148:Middlewares/lvgl/src/extra/widgets/colorwheel/../../../../src/core/lv_obj_style_gen.h ****     return (const lv_color_filter_dsc_t *)v.ptr;
 149:Middlewares/lvgl/src/extra/widgets/colorwheel/../../../../src/core/lv_obj_style_gen.h **** }
 150:Middlewares/lvgl/src/extra/widgets/colorwheel/../../../../src/core/lv_obj_style_gen.h **** 
 151:Middlewares/lvgl/src/extra/widgets/colorwheel/../../../../src/core/lv_obj_style_gen.h **** static inline lv_opa_t lv_obj_get_style_color_filter_opa(const struct _lv_obj_t * obj, uint32_t par
 152:Middlewares/lvgl/src/extra/widgets/colorwheel/../../../../src/core/lv_obj_style_gen.h **** {
 153:Middlewares/lvgl/src/extra/widgets/colorwheel/../../../../src/core/lv_obj_style_gen.h ****     lv_style_value_t v = lv_obj_get_style_prop(obj, part, LV_STYLE_COLOR_FILTER_OPA);
 154:Middlewares/lvgl/src/extra/widgets/colorwheel/../../../../src/core/lv_obj_style_gen.h ****     return (lv_opa_t)v.num;
 155:Middlewares/lvgl/src/extra/widgets/colorwheel/../../../../src/core/lv_obj_style_gen.h **** }
 156:Middlewares/lvgl/src/extra/widgets/colorwheel/../../../../src/core/lv_obj_style_gen.h **** 
 157:Middlewares/lvgl/src/extra/widgets/colorwheel/../../../../src/core/lv_obj_style_gen.h **** static inline uint32_t lv_obj_get_style_anim_time(const struct _lv_obj_t * obj, uint32_t part)
 158:Middlewares/lvgl/src/extra/widgets/colorwheel/../../../../src/core/lv_obj_style_gen.h **** {
 159:Middlewares/lvgl/src/extra/widgets/colorwheel/../../../../src/core/lv_obj_style_gen.h ****     lv_style_value_t v = lv_obj_get_style_prop(obj, part, LV_STYLE_ANIM_TIME);
 160:Middlewares/lvgl/src/extra/widgets/colorwheel/../../../../src/core/lv_obj_style_gen.h ****     return (uint32_t)v.num;
 161:Middlewares/lvgl/src/extra/widgets/colorwheel/../../../../src/core/lv_obj_style_gen.h **** }
 162:Middlewares/lvgl/src/extra/widgets/colorwheel/../../../../src/core/lv_obj_style_gen.h **** 
 163:Middlewares/lvgl/src/extra/widgets/colorwheel/../../../../src/core/lv_obj_style_gen.h **** static inline uint32_t lv_obj_get_style_anim_speed(const struct _lv_obj_t * obj, uint32_t part)
 164:Middlewares/lvgl/src/extra/widgets/colorwheel/../../../../src/core/lv_obj_style_gen.h **** {
 165:Middlewares/lvgl/src/extra/widgets/colorwheel/../../../../src/core/lv_obj_style_gen.h ****     lv_style_value_t v = lv_obj_get_style_prop(obj, part, LV_STYLE_ANIM_SPEED);
 166:Middlewares/lvgl/src/extra/widgets/colorwheel/../../../../src/core/lv_obj_style_gen.h ****     return (uint32_t)v.num;
 167:Middlewares/lvgl/src/extra/widgets/colorwheel/../../../../src/core/lv_obj_style_gen.h **** }
 168:Middlewares/lvgl/src/extra/widgets/colorwheel/../../../../src/core/lv_obj_style_gen.h **** 
 169:Middlewares/lvgl/src/extra/widgets/colorwheel/../../../../src/core/lv_obj_style_gen.h **** static inline const lv_style_transition_dsc_t * lv_obj_get_style_transition(const struct _lv_obj_t 
 170:Middlewares/lvgl/src/extra/widgets/colorwheel/../../../../src/core/lv_obj_style_gen.h **** {
 171:Middlewares/lvgl/src/extra/widgets/colorwheel/../../../../src/core/lv_obj_style_gen.h ****     lv_style_value_t v = lv_obj_get_style_prop(obj, part, LV_STYLE_TRANSITION);
 172:Middlewares/lvgl/src/extra/widgets/colorwheel/../../../../src/core/lv_obj_style_gen.h ****     return (const lv_style_transition_dsc_t *)v.ptr;
 173:Middlewares/lvgl/src/extra/widgets/colorwheel/../../../../src/core/lv_obj_style_gen.h **** }
 174:Middlewares/lvgl/src/extra/widgets/colorwheel/../../../../src/core/lv_obj_style_gen.h **** 
 175:Middlewares/lvgl/src/extra/widgets/colorwheel/../../../../src/core/lv_obj_style_gen.h **** static inline lv_blend_mode_t lv_obj_get_style_blend_mode(const struct _lv_obj_t * obj, uint32_t pa
 176:Middlewares/lvgl/src/extra/widgets/colorwheel/../../../../src/core/lv_obj_style_gen.h **** {
 177:Middlewares/lvgl/src/extra/widgets/colorwheel/../../../../src/core/lv_obj_style_gen.h ****     lv_style_value_t v = lv_obj_get_style_prop(obj, part, LV_STYLE_BLEND_MODE);
 178:Middlewares/lvgl/src/extra/widgets/colorwheel/../../../../src/core/lv_obj_style_gen.h ****     return (lv_blend_mode_t)v.num;
 179:Middlewares/lvgl/src/extra/widgets/colorwheel/../../../../src/core/lv_obj_style_gen.h **** }
 180:Middlewares/lvgl/src/extra/widgets/colorwheel/../../../../src/core/lv_obj_style_gen.h **** 
 181:Middlewares/lvgl/src/extra/widgets/colorwheel/../../../../src/core/lv_obj_style_gen.h **** static inline uint16_t lv_obj_get_style_layout(const struct _lv_obj_t * obj, uint32_t part)
 182:Middlewares/lvgl/src/extra/widgets/colorwheel/../../../../src/core/lv_obj_style_gen.h **** {
 183:Middlewares/lvgl/src/extra/widgets/colorwheel/../../../../src/core/lv_obj_style_gen.h ****     lv_style_value_t v = lv_obj_get_style_prop(obj, part, LV_STYLE_LAYOUT);
 184:Middlewares/lvgl/src/extra/widgets/colorwheel/../../../../src/core/lv_obj_style_gen.h ****     return (uint16_t)v.num;
 185:Middlewares/lvgl/src/extra/widgets/colorwheel/../../../../src/core/lv_obj_style_gen.h **** }
 186:Middlewares/lvgl/src/extra/widgets/colorwheel/../../../../src/core/lv_obj_style_gen.h **** 
 187:Middlewares/lvgl/src/extra/widgets/colorwheel/../../../../src/core/lv_obj_style_gen.h **** static inline lv_base_dir_t lv_obj_get_style_base_dir(const struct _lv_obj_t * obj, uint32_t part)
 188:Middlewares/lvgl/src/extra/widgets/colorwheel/../../../../src/core/lv_obj_style_gen.h **** {
 189:Middlewares/lvgl/src/extra/widgets/colorwheel/../../../../src/core/lv_obj_style_gen.h ****     lv_style_value_t v = lv_obj_get_style_prop(obj, part, LV_STYLE_BASE_DIR);
 190:Middlewares/lvgl/src/extra/widgets/colorwheel/../../../../src/core/lv_obj_style_gen.h ****     return (lv_base_dir_t)v.num;
 191:Middlewares/lvgl/src/extra/widgets/colorwheel/../../../../src/core/lv_obj_style_gen.h **** }
ARM GAS  /tmp/ccAb9Zks.s 			page 38


 192:Middlewares/lvgl/src/extra/widgets/colorwheel/../../../../src/core/lv_obj_style_gen.h **** 
 193:Middlewares/lvgl/src/extra/widgets/colorwheel/../../../../src/core/lv_obj_style_gen.h **** static inline lv_color_t lv_obj_get_style_bg_color(const struct _lv_obj_t * obj, uint32_t part)
 194:Middlewares/lvgl/src/extra/widgets/colorwheel/../../../../src/core/lv_obj_style_gen.h **** {
 195:Middlewares/lvgl/src/extra/widgets/colorwheel/../../../../src/core/lv_obj_style_gen.h ****     lv_style_value_t v = lv_obj_get_style_prop(obj, part, LV_STYLE_BG_COLOR);
 196:Middlewares/lvgl/src/extra/widgets/colorwheel/../../../../src/core/lv_obj_style_gen.h ****     return v.color;
 197:Middlewares/lvgl/src/extra/widgets/colorwheel/../../../../src/core/lv_obj_style_gen.h **** }
 198:Middlewares/lvgl/src/extra/widgets/colorwheel/../../../../src/core/lv_obj_style_gen.h **** 
 199:Middlewares/lvgl/src/extra/widgets/colorwheel/../../../../src/core/lv_obj_style_gen.h **** static inline lv_color_t lv_obj_get_style_bg_color_filtered(const struct _lv_obj_t * obj, uint32_t 
 200:Middlewares/lvgl/src/extra/widgets/colorwheel/../../../../src/core/lv_obj_style_gen.h **** {
 201:Middlewares/lvgl/src/extra/widgets/colorwheel/../../../../src/core/lv_obj_style_gen.h ****     lv_style_value_t v = lv_obj_get_style_prop(obj, part, LV_STYLE_BG_COLOR_FILTERED);
 202:Middlewares/lvgl/src/extra/widgets/colorwheel/../../../../src/core/lv_obj_style_gen.h ****     return v.color;
 203:Middlewares/lvgl/src/extra/widgets/colorwheel/../../../../src/core/lv_obj_style_gen.h **** }
 204:Middlewares/lvgl/src/extra/widgets/colorwheel/../../../../src/core/lv_obj_style_gen.h **** 
 205:Middlewares/lvgl/src/extra/widgets/colorwheel/../../../../src/core/lv_obj_style_gen.h **** static inline lv_opa_t lv_obj_get_style_bg_opa(const struct _lv_obj_t * obj, uint32_t part)
 206:Middlewares/lvgl/src/extra/widgets/colorwheel/../../../../src/core/lv_obj_style_gen.h **** {
 207:Middlewares/lvgl/src/extra/widgets/colorwheel/../../../../src/core/lv_obj_style_gen.h ****     lv_style_value_t v = lv_obj_get_style_prop(obj, part, LV_STYLE_BG_OPA);
 208:Middlewares/lvgl/src/extra/widgets/colorwheel/../../../../src/core/lv_obj_style_gen.h ****     return (lv_opa_t)v.num;
 209:Middlewares/lvgl/src/extra/widgets/colorwheel/../../../../src/core/lv_obj_style_gen.h **** }
 210:Middlewares/lvgl/src/extra/widgets/colorwheel/../../../../src/core/lv_obj_style_gen.h **** 
 211:Middlewares/lvgl/src/extra/widgets/colorwheel/../../../../src/core/lv_obj_style_gen.h **** static inline lv_color_t lv_obj_get_style_bg_grad_color(const struct _lv_obj_t * obj, uint32_t part
 212:Middlewares/lvgl/src/extra/widgets/colorwheel/../../../../src/core/lv_obj_style_gen.h **** {
 213:Middlewares/lvgl/src/extra/widgets/colorwheel/../../../../src/core/lv_obj_style_gen.h ****     lv_style_value_t v = lv_obj_get_style_prop(obj, part, LV_STYLE_BG_GRAD_COLOR);
 214:Middlewares/lvgl/src/extra/widgets/colorwheel/../../../../src/core/lv_obj_style_gen.h ****     return v.color;
 215:Middlewares/lvgl/src/extra/widgets/colorwheel/../../../../src/core/lv_obj_style_gen.h **** }
 216:Middlewares/lvgl/src/extra/widgets/colorwheel/../../../../src/core/lv_obj_style_gen.h **** 
 217:Middlewares/lvgl/src/extra/widgets/colorwheel/../../../../src/core/lv_obj_style_gen.h **** static inline lv_color_t lv_obj_get_style_bg_grad_color_filtered(const struct _lv_obj_t * obj, uint
 218:Middlewares/lvgl/src/extra/widgets/colorwheel/../../../../src/core/lv_obj_style_gen.h **** {
 219:Middlewares/lvgl/src/extra/widgets/colorwheel/../../../../src/core/lv_obj_style_gen.h ****     lv_style_value_t v = lv_obj_get_style_prop(obj, part, LV_STYLE_BG_GRAD_COLOR_FILTERED);
 220:Middlewares/lvgl/src/extra/widgets/colorwheel/../../../../src/core/lv_obj_style_gen.h ****     return v.color;
 221:Middlewares/lvgl/src/extra/widgets/colorwheel/../../../../src/core/lv_obj_style_gen.h **** }
 222:Middlewares/lvgl/src/extra/widgets/colorwheel/../../../../src/core/lv_obj_style_gen.h **** 
 223:Middlewares/lvgl/src/extra/widgets/colorwheel/../../../../src/core/lv_obj_style_gen.h **** static inline lv_grad_dir_t lv_obj_get_style_bg_grad_dir(const struct _lv_obj_t * obj, uint32_t par
 224:Middlewares/lvgl/src/extra/widgets/colorwheel/../../../../src/core/lv_obj_style_gen.h **** {
 225:Middlewares/lvgl/src/extra/widgets/colorwheel/../../../../src/core/lv_obj_style_gen.h ****     lv_style_value_t v = lv_obj_get_style_prop(obj, part, LV_STYLE_BG_GRAD_DIR);
 226:Middlewares/lvgl/src/extra/widgets/colorwheel/../../../../src/core/lv_obj_style_gen.h ****     return (lv_grad_dir_t)v.num;
 227:Middlewares/lvgl/src/extra/widgets/colorwheel/../../../../src/core/lv_obj_style_gen.h **** }
 228:Middlewares/lvgl/src/extra/widgets/colorwheel/../../../../src/core/lv_obj_style_gen.h **** 
 229:Middlewares/lvgl/src/extra/widgets/colorwheel/../../../../src/core/lv_obj_style_gen.h **** static inline lv_coord_t lv_obj_get_style_bg_main_stop(const struct _lv_obj_t * obj, uint32_t part)
 230:Middlewares/lvgl/src/extra/widgets/colorwheel/../../../../src/core/lv_obj_style_gen.h **** {
 231:Middlewares/lvgl/src/extra/widgets/colorwheel/../../../../src/core/lv_obj_style_gen.h ****     lv_style_value_t v = lv_obj_get_style_prop(obj, part, LV_STYLE_BG_MAIN_STOP);
 232:Middlewares/lvgl/src/extra/widgets/colorwheel/../../../../src/core/lv_obj_style_gen.h ****     return (lv_coord_t)v.num;
 233:Middlewares/lvgl/src/extra/widgets/colorwheel/../../../../src/core/lv_obj_style_gen.h **** }
 234:Middlewares/lvgl/src/extra/widgets/colorwheel/../../../../src/core/lv_obj_style_gen.h **** 
 235:Middlewares/lvgl/src/extra/widgets/colorwheel/../../../../src/core/lv_obj_style_gen.h **** static inline lv_coord_t lv_obj_get_style_bg_grad_stop(const struct _lv_obj_t * obj, uint32_t part)
 236:Middlewares/lvgl/src/extra/widgets/colorwheel/../../../../src/core/lv_obj_style_gen.h **** {
 237:Middlewares/lvgl/src/extra/widgets/colorwheel/../../../../src/core/lv_obj_style_gen.h ****     lv_style_value_t v = lv_obj_get_style_prop(obj, part, LV_STYLE_BG_GRAD_STOP);
 238:Middlewares/lvgl/src/extra/widgets/colorwheel/../../../../src/core/lv_obj_style_gen.h ****     return (lv_coord_t)v.num;
 239:Middlewares/lvgl/src/extra/widgets/colorwheel/../../../../src/core/lv_obj_style_gen.h **** }
 240:Middlewares/lvgl/src/extra/widgets/colorwheel/../../../../src/core/lv_obj_style_gen.h **** 
 241:Middlewares/lvgl/src/extra/widgets/colorwheel/../../../../src/core/lv_obj_style_gen.h **** static inline const void * lv_obj_get_style_bg_img_src(const struct _lv_obj_t * obj, uint32_t part)
 242:Middlewares/lvgl/src/extra/widgets/colorwheel/../../../../src/core/lv_obj_style_gen.h **** {
 243:Middlewares/lvgl/src/extra/widgets/colorwheel/../../../../src/core/lv_obj_style_gen.h ****     lv_style_value_t v = lv_obj_get_style_prop(obj, part, LV_STYLE_BG_IMG_SRC);
 244:Middlewares/lvgl/src/extra/widgets/colorwheel/../../../../src/core/lv_obj_style_gen.h ****     return (const void *)v.ptr;
 245:Middlewares/lvgl/src/extra/widgets/colorwheel/../../../../src/core/lv_obj_style_gen.h **** }
 246:Middlewares/lvgl/src/extra/widgets/colorwheel/../../../../src/core/lv_obj_style_gen.h **** 
 247:Middlewares/lvgl/src/extra/widgets/colorwheel/../../../../src/core/lv_obj_style_gen.h **** static inline lv_opa_t lv_obj_get_style_bg_img_opa(const struct _lv_obj_t * obj, uint32_t part)
 248:Middlewares/lvgl/src/extra/widgets/colorwheel/../../../../src/core/lv_obj_style_gen.h **** {
ARM GAS  /tmp/ccAb9Zks.s 			page 39


 249:Middlewares/lvgl/src/extra/widgets/colorwheel/../../../../src/core/lv_obj_style_gen.h ****     lv_style_value_t v = lv_obj_get_style_prop(obj, part, LV_STYLE_BG_IMG_OPA);
 250:Middlewares/lvgl/src/extra/widgets/colorwheel/../../../../src/core/lv_obj_style_gen.h ****     return (lv_opa_t)v.num;
 251:Middlewares/lvgl/src/extra/widgets/colorwheel/../../../../src/core/lv_obj_style_gen.h **** }
 252:Middlewares/lvgl/src/extra/widgets/colorwheel/../../../../src/core/lv_obj_style_gen.h **** 
 253:Middlewares/lvgl/src/extra/widgets/colorwheel/../../../../src/core/lv_obj_style_gen.h **** static inline lv_color_t lv_obj_get_style_bg_img_recolor(const struct _lv_obj_t * obj, uint32_t par
 254:Middlewares/lvgl/src/extra/widgets/colorwheel/../../../../src/core/lv_obj_style_gen.h **** {
 255:Middlewares/lvgl/src/extra/widgets/colorwheel/../../../../src/core/lv_obj_style_gen.h ****     lv_style_value_t v = lv_obj_get_style_prop(obj, part, LV_STYLE_BG_IMG_RECOLOR);
 256:Middlewares/lvgl/src/extra/widgets/colorwheel/../../../../src/core/lv_obj_style_gen.h ****     return v.color;
 257:Middlewares/lvgl/src/extra/widgets/colorwheel/../../../../src/core/lv_obj_style_gen.h **** }
 258:Middlewares/lvgl/src/extra/widgets/colorwheel/../../../../src/core/lv_obj_style_gen.h **** 
 259:Middlewares/lvgl/src/extra/widgets/colorwheel/../../../../src/core/lv_obj_style_gen.h **** static inline lv_color_t lv_obj_get_style_bg_img_recolor_filtered(const struct _lv_obj_t * obj, uin
 260:Middlewares/lvgl/src/extra/widgets/colorwheel/../../../../src/core/lv_obj_style_gen.h **** {
 261:Middlewares/lvgl/src/extra/widgets/colorwheel/../../../../src/core/lv_obj_style_gen.h ****     lv_style_value_t v = lv_obj_get_style_prop(obj, part, LV_STYLE_BG_IMG_RECOLOR_FILTERED);
 262:Middlewares/lvgl/src/extra/widgets/colorwheel/../../../../src/core/lv_obj_style_gen.h ****     return v.color;
 263:Middlewares/lvgl/src/extra/widgets/colorwheel/../../../../src/core/lv_obj_style_gen.h **** }
 264:Middlewares/lvgl/src/extra/widgets/colorwheel/../../../../src/core/lv_obj_style_gen.h **** 
 265:Middlewares/lvgl/src/extra/widgets/colorwheel/../../../../src/core/lv_obj_style_gen.h **** static inline lv_opa_t lv_obj_get_style_bg_img_recolor_opa(const struct _lv_obj_t * obj, uint32_t p
 266:Middlewares/lvgl/src/extra/widgets/colorwheel/../../../../src/core/lv_obj_style_gen.h **** {
 267:Middlewares/lvgl/src/extra/widgets/colorwheel/../../../../src/core/lv_obj_style_gen.h ****     lv_style_value_t v = lv_obj_get_style_prop(obj, part, LV_STYLE_BG_IMG_RECOLOR_OPA);
 268:Middlewares/lvgl/src/extra/widgets/colorwheel/../../../../src/core/lv_obj_style_gen.h ****     return (lv_opa_t)v.num;
 269:Middlewares/lvgl/src/extra/widgets/colorwheel/../../../../src/core/lv_obj_style_gen.h **** }
 270:Middlewares/lvgl/src/extra/widgets/colorwheel/../../../../src/core/lv_obj_style_gen.h **** 
 271:Middlewares/lvgl/src/extra/widgets/colorwheel/../../../../src/core/lv_obj_style_gen.h **** static inline bool lv_obj_get_style_bg_img_tiled(const struct _lv_obj_t * obj, uint32_t part)
 272:Middlewares/lvgl/src/extra/widgets/colorwheel/../../../../src/core/lv_obj_style_gen.h **** {
 273:Middlewares/lvgl/src/extra/widgets/colorwheel/../../../../src/core/lv_obj_style_gen.h ****     lv_style_value_t v = lv_obj_get_style_prop(obj, part, LV_STYLE_BG_IMG_TILED);
 274:Middlewares/lvgl/src/extra/widgets/colorwheel/../../../../src/core/lv_obj_style_gen.h ****     return (bool)v.num;
 275:Middlewares/lvgl/src/extra/widgets/colorwheel/../../../../src/core/lv_obj_style_gen.h **** }
 276:Middlewares/lvgl/src/extra/widgets/colorwheel/../../../../src/core/lv_obj_style_gen.h **** 
 277:Middlewares/lvgl/src/extra/widgets/colorwheel/../../../../src/core/lv_obj_style_gen.h **** static inline lv_color_t lv_obj_get_style_border_color(const struct _lv_obj_t * obj, uint32_t part)
 278:Middlewares/lvgl/src/extra/widgets/colorwheel/../../../../src/core/lv_obj_style_gen.h **** {
 279:Middlewares/lvgl/src/extra/widgets/colorwheel/../../../../src/core/lv_obj_style_gen.h ****     lv_style_value_t v = lv_obj_get_style_prop(obj, part, LV_STYLE_BORDER_COLOR);
 280:Middlewares/lvgl/src/extra/widgets/colorwheel/../../../../src/core/lv_obj_style_gen.h ****     return v.color;
 281:Middlewares/lvgl/src/extra/widgets/colorwheel/../../../../src/core/lv_obj_style_gen.h **** }
 282:Middlewares/lvgl/src/extra/widgets/colorwheel/../../../../src/core/lv_obj_style_gen.h **** 
 283:Middlewares/lvgl/src/extra/widgets/colorwheel/../../../../src/core/lv_obj_style_gen.h **** static inline lv_color_t lv_obj_get_style_border_color_filtered(const struct _lv_obj_t * obj, uint3
 284:Middlewares/lvgl/src/extra/widgets/colorwheel/../../../../src/core/lv_obj_style_gen.h **** {
 285:Middlewares/lvgl/src/extra/widgets/colorwheel/../../../../src/core/lv_obj_style_gen.h ****     lv_style_value_t v = lv_obj_get_style_prop(obj, part, LV_STYLE_BORDER_COLOR_FILTERED);
 286:Middlewares/lvgl/src/extra/widgets/colorwheel/../../../../src/core/lv_obj_style_gen.h ****     return v.color;
 287:Middlewares/lvgl/src/extra/widgets/colorwheel/../../../../src/core/lv_obj_style_gen.h **** }
 288:Middlewares/lvgl/src/extra/widgets/colorwheel/../../../../src/core/lv_obj_style_gen.h **** 
 289:Middlewares/lvgl/src/extra/widgets/colorwheel/../../../../src/core/lv_obj_style_gen.h **** static inline lv_opa_t lv_obj_get_style_border_opa(const struct _lv_obj_t * obj, uint32_t part)
 290:Middlewares/lvgl/src/extra/widgets/colorwheel/../../../../src/core/lv_obj_style_gen.h **** {
 291:Middlewares/lvgl/src/extra/widgets/colorwheel/../../../../src/core/lv_obj_style_gen.h ****     lv_style_value_t v = lv_obj_get_style_prop(obj, part, LV_STYLE_BORDER_OPA);
 292:Middlewares/lvgl/src/extra/widgets/colorwheel/../../../../src/core/lv_obj_style_gen.h ****     return (lv_opa_t)v.num;
 293:Middlewares/lvgl/src/extra/widgets/colorwheel/../../../../src/core/lv_obj_style_gen.h **** }
 294:Middlewares/lvgl/src/extra/widgets/colorwheel/../../../../src/core/lv_obj_style_gen.h **** 
 295:Middlewares/lvgl/src/extra/widgets/colorwheel/../../../../src/core/lv_obj_style_gen.h **** static inline lv_coord_t lv_obj_get_style_border_width(const struct _lv_obj_t * obj, uint32_t part)
 296:Middlewares/lvgl/src/extra/widgets/colorwheel/../../../../src/core/lv_obj_style_gen.h **** {
 297:Middlewares/lvgl/src/extra/widgets/colorwheel/../../../../src/core/lv_obj_style_gen.h ****     lv_style_value_t v = lv_obj_get_style_prop(obj, part, LV_STYLE_BORDER_WIDTH);
 298:Middlewares/lvgl/src/extra/widgets/colorwheel/../../../../src/core/lv_obj_style_gen.h ****     return (lv_coord_t)v.num;
 299:Middlewares/lvgl/src/extra/widgets/colorwheel/../../../../src/core/lv_obj_style_gen.h **** }
 300:Middlewares/lvgl/src/extra/widgets/colorwheel/../../../../src/core/lv_obj_style_gen.h **** 
 301:Middlewares/lvgl/src/extra/widgets/colorwheel/../../../../src/core/lv_obj_style_gen.h **** static inline lv_border_side_t lv_obj_get_style_border_side(const struct _lv_obj_t * obj, uint32_t 
 302:Middlewares/lvgl/src/extra/widgets/colorwheel/../../../../src/core/lv_obj_style_gen.h **** {
 303:Middlewares/lvgl/src/extra/widgets/colorwheel/../../../../src/core/lv_obj_style_gen.h ****     lv_style_value_t v = lv_obj_get_style_prop(obj, part, LV_STYLE_BORDER_SIDE);
 304:Middlewares/lvgl/src/extra/widgets/colorwheel/../../../../src/core/lv_obj_style_gen.h ****     return (lv_border_side_t)v.num;
 305:Middlewares/lvgl/src/extra/widgets/colorwheel/../../../../src/core/lv_obj_style_gen.h **** }
ARM GAS  /tmp/ccAb9Zks.s 			page 40


 306:Middlewares/lvgl/src/extra/widgets/colorwheel/../../../../src/core/lv_obj_style_gen.h **** 
 307:Middlewares/lvgl/src/extra/widgets/colorwheel/../../../../src/core/lv_obj_style_gen.h **** static inline bool lv_obj_get_style_border_post(const struct _lv_obj_t * obj, uint32_t part)
 308:Middlewares/lvgl/src/extra/widgets/colorwheel/../../../../src/core/lv_obj_style_gen.h **** {
 309:Middlewares/lvgl/src/extra/widgets/colorwheel/../../../../src/core/lv_obj_style_gen.h ****     lv_style_value_t v = lv_obj_get_style_prop(obj, part, LV_STYLE_BORDER_POST);
 310:Middlewares/lvgl/src/extra/widgets/colorwheel/../../../../src/core/lv_obj_style_gen.h ****     return (bool)v.num;
 311:Middlewares/lvgl/src/extra/widgets/colorwheel/../../../../src/core/lv_obj_style_gen.h **** }
 312:Middlewares/lvgl/src/extra/widgets/colorwheel/../../../../src/core/lv_obj_style_gen.h **** 
 313:Middlewares/lvgl/src/extra/widgets/colorwheel/../../../../src/core/lv_obj_style_gen.h **** static inline lv_color_t lv_obj_get_style_text_color(const struct _lv_obj_t * obj, uint32_t part)
 314:Middlewares/lvgl/src/extra/widgets/colorwheel/../../../../src/core/lv_obj_style_gen.h **** {
 315:Middlewares/lvgl/src/extra/widgets/colorwheel/../../../../src/core/lv_obj_style_gen.h ****     lv_style_value_t v = lv_obj_get_style_prop(obj, part, LV_STYLE_TEXT_COLOR);
 316:Middlewares/lvgl/src/extra/widgets/colorwheel/../../../../src/core/lv_obj_style_gen.h ****     return v.color;
 317:Middlewares/lvgl/src/extra/widgets/colorwheel/../../../../src/core/lv_obj_style_gen.h **** }
 318:Middlewares/lvgl/src/extra/widgets/colorwheel/../../../../src/core/lv_obj_style_gen.h **** 
 319:Middlewares/lvgl/src/extra/widgets/colorwheel/../../../../src/core/lv_obj_style_gen.h **** static inline lv_color_t lv_obj_get_style_text_color_filtered(const struct _lv_obj_t * obj, uint32_
 320:Middlewares/lvgl/src/extra/widgets/colorwheel/../../../../src/core/lv_obj_style_gen.h **** {
 321:Middlewares/lvgl/src/extra/widgets/colorwheel/../../../../src/core/lv_obj_style_gen.h ****     lv_style_value_t v = lv_obj_get_style_prop(obj, part, LV_STYLE_TEXT_COLOR_FILTERED);
 322:Middlewares/lvgl/src/extra/widgets/colorwheel/../../../../src/core/lv_obj_style_gen.h ****     return v.color;
 323:Middlewares/lvgl/src/extra/widgets/colorwheel/../../../../src/core/lv_obj_style_gen.h **** }
 324:Middlewares/lvgl/src/extra/widgets/colorwheel/../../../../src/core/lv_obj_style_gen.h **** 
 325:Middlewares/lvgl/src/extra/widgets/colorwheel/../../../../src/core/lv_obj_style_gen.h **** static inline lv_opa_t lv_obj_get_style_text_opa(const struct _lv_obj_t * obj, uint32_t part)
 326:Middlewares/lvgl/src/extra/widgets/colorwheel/../../../../src/core/lv_obj_style_gen.h **** {
 327:Middlewares/lvgl/src/extra/widgets/colorwheel/../../../../src/core/lv_obj_style_gen.h ****     lv_style_value_t v = lv_obj_get_style_prop(obj, part, LV_STYLE_TEXT_OPA);
 328:Middlewares/lvgl/src/extra/widgets/colorwheel/../../../../src/core/lv_obj_style_gen.h ****     return (lv_opa_t)v.num;
 329:Middlewares/lvgl/src/extra/widgets/colorwheel/../../../../src/core/lv_obj_style_gen.h **** }
 330:Middlewares/lvgl/src/extra/widgets/colorwheel/../../../../src/core/lv_obj_style_gen.h **** 
 331:Middlewares/lvgl/src/extra/widgets/colorwheel/../../../../src/core/lv_obj_style_gen.h **** static inline const lv_font_t * lv_obj_get_style_text_font(const struct _lv_obj_t * obj, uint32_t p
 332:Middlewares/lvgl/src/extra/widgets/colorwheel/../../../../src/core/lv_obj_style_gen.h **** {
 333:Middlewares/lvgl/src/extra/widgets/colorwheel/../../../../src/core/lv_obj_style_gen.h ****     lv_style_value_t v = lv_obj_get_style_prop(obj, part, LV_STYLE_TEXT_FONT);
 334:Middlewares/lvgl/src/extra/widgets/colorwheel/../../../../src/core/lv_obj_style_gen.h ****     return (const lv_font_t *)v.ptr;
 335:Middlewares/lvgl/src/extra/widgets/colorwheel/../../../../src/core/lv_obj_style_gen.h **** }
 336:Middlewares/lvgl/src/extra/widgets/colorwheel/../../../../src/core/lv_obj_style_gen.h **** 
 337:Middlewares/lvgl/src/extra/widgets/colorwheel/../../../../src/core/lv_obj_style_gen.h **** static inline lv_coord_t lv_obj_get_style_text_letter_space(const struct _lv_obj_t * obj, uint32_t 
 338:Middlewares/lvgl/src/extra/widgets/colorwheel/../../../../src/core/lv_obj_style_gen.h **** {
 339:Middlewares/lvgl/src/extra/widgets/colorwheel/../../../../src/core/lv_obj_style_gen.h ****     lv_style_value_t v = lv_obj_get_style_prop(obj, part, LV_STYLE_TEXT_LETTER_SPACE);
 340:Middlewares/lvgl/src/extra/widgets/colorwheel/../../../../src/core/lv_obj_style_gen.h ****     return (lv_coord_t)v.num;
 341:Middlewares/lvgl/src/extra/widgets/colorwheel/../../../../src/core/lv_obj_style_gen.h **** }
 342:Middlewares/lvgl/src/extra/widgets/colorwheel/../../../../src/core/lv_obj_style_gen.h **** 
 343:Middlewares/lvgl/src/extra/widgets/colorwheel/../../../../src/core/lv_obj_style_gen.h **** static inline lv_coord_t lv_obj_get_style_text_line_space(const struct _lv_obj_t * obj, uint32_t pa
 344:Middlewares/lvgl/src/extra/widgets/colorwheel/../../../../src/core/lv_obj_style_gen.h **** {
 345:Middlewares/lvgl/src/extra/widgets/colorwheel/../../../../src/core/lv_obj_style_gen.h ****     lv_style_value_t v = lv_obj_get_style_prop(obj, part, LV_STYLE_TEXT_LINE_SPACE);
 346:Middlewares/lvgl/src/extra/widgets/colorwheel/../../../../src/core/lv_obj_style_gen.h ****     return (lv_coord_t)v.num;
 347:Middlewares/lvgl/src/extra/widgets/colorwheel/../../../../src/core/lv_obj_style_gen.h **** }
 348:Middlewares/lvgl/src/extra/widgets/colorwheel/../../../../src/core/lv_obj_style_gen.h **** 
 349:Middlewares/lvgl/src/extra/widgets/colorwheel/../../../../src/core/lv_obj_style_gen.h **** static inline lv_text_decor_t lv_obj_get_style_text_decor(const struct _lv_obj_t * obj, uint32_t pa
 350:Middlewares/lvgl/src/extra/widgets/colorwheel/../../../../src/core/lv_obj_style_gen.h **** {
 351:Middlewares/lvgl/src/extra/widgets/colorwheel/../../../../src/core/lv_obj_style_gen.h ****     lv_style_value_t v = lv_obj_get_style_prop(obj, part, LV_STYLE_TEXT_DECOR);
 352:Middlewares/lvgl/src/extra/widgets/colorwheel/../../../../src/core/lv_obj_style_gen.h ****     return (lv_text_decor_t)v.num;
 353:Middlewares/lvgl/src/extra/widgets/colorwheel/../../../../src/core/lv_obj_style_gen.h **** }
 354:Middlewares/lvgl/src/extra/widgets/colorwheel/../../../../src/core/lv_obj_style_gen.h **** 
 355:Middlewares/lvgl/src/extra/widgets/colorwheel/../../../../src/core/lv_obj_style_gen.h **** static inline lv_text_align_t lv_obj_get_style_text_align(const struct _lv_obj_t * obj, uint32_t pa
 356:Middlewares/lvgl/src/extra/widgets/colorwheel/../../../../src/core/lv_obj_style_gen.h **** {
 357:Middlewares/lvgl/src/extra/widgets/colorwheel/../../../../src/core/lv_obj_style_gen.h ****     lv_style_value_t v = lv_obj_get_style_prop(obj, part, LV_STYLE_TEXT_ALIGN);
 358:Middlewares/lvgl/src/extra/widgets/colorwheel/../../../../src/core/lv_obj_style_gen.h ****     return (lv_text_align_t)v.num;
 359:Middlewares/lvgl/src/extra/widgets/colorwheel/../../../../src/core/lv_obj_style_gen.h **** }
 360:Middlewares/lvgl/src/extra/widgets/colorwheel/../../../../src/core/lv_obj_style_gen.h **** 
 361:Middlewares/lvgl/src/extra/widgets/colorwheel/../../../../src/core/lv_obj_style_gen.h **** static inline lv_opa_t lv_obj_get_style_img_opa(const struct _lv_obj_t * obj, uint32_t part)
 362:Middlewares/lvgl/src/extra/widgets/colorwheel/../../../../src/core/lv_obj_style_gen.h **** {
ARM GAS  /tmp/ccAb9Zks.s 			page 41


 363:Middlewares/lvgl/src/extra/widgets/colorwheel/../../../../src/core/lv_obj_style_gen.h ****     lv_style_value_t v = lv_obj_get_style_prop(obj, part, LV_STYLE_IMG_OPA);
 364:Middlewares/lvgl/src/extra/widgets/colorwheel/../../../../src/core/lv_obj_style_gen.h ****     return (lv_opa_t)v.num;
 365:Middlewares/lvgl/src/extra/widgets/colorwheel/../../../../src/core/lv_obj_style_gen.h **** }
 366:Middlewares/lvgl/src/extra/widgets/colorwheel/../../../../src/core/lv_obj_style_gen.h **** 
 367:Middlewares/lvgl/src/extra/widgets/colorwheel/../../../../src/core/lv_obj_style_gen.h **** static inline lv_color_t lv_obj_get_style_img_recolor(const struct _lv_obj_t * obj, uint32_t part)
 368:Middlewares/lvgl/src/extra/widgets/colorwheel/../../../../src/core/lv_obj_style_gen.h **** {
 369:Middlewares/lvgl/src/extra/widgets/colorwheel/../../../../src/core/lv_obj_style_gen.h ****     lv_style_value_t v = lv_obj_get_style_prop(obj, part, LV_STYLE_IMG_RECOLOR);
 370:Middlewares/lvgl/src/extra/widgets/colorwheel/../../../../src/core/lv_obj_style_gen.h ****     return v.color;
 371:Middlewares/lvgl/src/extra/widgets/colorwheel/../../../../src/core/lv_obj_style_gen.h **** }
 372:Middlewares/lvgl/src/extra/widgets/colorwheel/../../../../src/core/lv_obj_style_gen.h **** 
 373:Middlewares/lvgl/src/extra/widgets/colorwheel/../../../../src/core/lv_obj_style_gen.h **** static inline lv_color_t lv_obj_get_style_img_recolor_filtered(const struct _lv_obj_t * obj, uint32
 374:Middlewares/lvgl/src/extra/widgets/colorwheel/../../../../src/core/lv_obj_style_gen.h **** {
 375:Middlewares/lvgl/src/extra/widgets/colorwheel/../../../../src/core/lv_obj_style_gen.h ****     lv_style_value_t v = lv_obj_get_style_prop(obj, part, LV_STYLE_IMG_RECOLOR_FILTERED);
 376:Middlewares/lvgl/src/extra/widgets/colorwheel/../../../../src/core/lv_obj_style_gen.h ****     return v.color;
 377:Middlewares/lvgl/src/extra/widgets/colorwheel/../../../../src/core/lv_obj_style_gen.h **** }
 378:Middlewares/lvgl/src/extra/widgets/colorwheel/../../../../src/core/lv_obj_style_gen.h **** 
 379:Middlewares/lvgl/src/extra/widgets/colorwheel/../../../../src/core/lv_obj_style_gen.h **** static inline lv_opa_t lv_obj_get_style_img_recolor_opa(const struct _lv_obj_t * obj, uint32_t part
 380:Middlewares/lvgl/src/extra/widgets/colorwheel/../../../../src/core/lv_obj_style_gen.h **** {
 381:Middlewares/lvgl/src/extra/widgets/colorwheel/../../../../src/core/lv_obj_style_gen.h ****     lv_style_value_t v = lv_obj_get_style_prop(obj, part, LV_STYLE_IMG_RECOLOR_OPA);
 382:Middlewares/lvgl/src/extra/widgets/colorwheel/../../../../src/core/lv_obj_style_gen.h ****     return (lv_opa_t)v.num;
 383:Middlewares/lvgl/src/extra/widgets/colorwheel/../../../../src/core/lv_obj_style_gen.h **** }
 384:Middlewares/lvgl/src/extra/widgets/colorwheel/../../../../src/core/lv_obj_style_gen.h **** 
 385:Middlewares/lvgl/src/extra/widgets/colorwheel/../../../../src/core/lv_obj_style_gen.h **** static inline lv_coord_t lv_obj_get_style_outline_width(const struct _lv_obj_t * obj, uint32_t part
 386:Middlewares/lvgl/src/extra/widgets/colorwheel/../../../../src/core/lv_obj_style_gen.h **** {
 387:Middlewares/lvgl/src/extra/widgets/colorwheel/../../../../src/core/lv_obj_style_gen.h ****     lv_style_value_t v = lv_obj_get_style_prop(obj, part, LV_STYLE_OUTLINE_WIDTH);
 388:Middlewares/lvgl/src/extra/widgets/colorwheel/../../../../src/core/lv_obj_style_gen.h ****     return (lv_coord_t)v.num;
 389:Middlewares/lvgl/src/extra/widgets/colorwheel/../../../../src/core/lv_obj_style_gen.h **** }
 390:Middlewares/lvgl/src/extra/widgets/colorwheel/../../../../src/core/lv_obj_style_gen.h **** 
 391:Middlewares/lvgl/src/extra/widgets/colorwheel/../../../../src/core/lv_obj_style_gen.h **** static inline lv_color_t lv_obj_get_style_outline_color(const struct _lv_obj_t * obj, uint32_t part
 392:Middlewares/lvgl/src/extra/widgets/colorwheel/../../../../src/core/lv_obj_style_gen.h **** {
 393:Middlewares/lvgl/src/extra/widgets/colorwheel/../../../../src/core/lv_obj_style_gen.h ****     lv_style_value_t v = lv_obj_get_style_prop(obj, part, LV_STYLE_OUTLINE_COLOR);
 394:Middlewares/lvgl/src/extra/widgets/colorwheel/../../../../src/core/lv_obj_style_gen.h ****     return v.color;
 395:Middlewares/lvgl/src/extra/widgets/colorwheel/../../../../src/core/lv_obj_style_gen.h **** }
 396:Middlewares/lvgl/src/extra/widgets/colorwheel/../../../../src/core/lv_obj_style_gen.h **** 
 397:Middlewares/lvgl/src/extra/widgets/colorwheel/../../../../src/core/lv_obj_style_gen.h **** static inline lv_color_t lv_obj_get_style_outline_color_filtered(const struct _lv_obj_t * obj, uint
 398:Middlewares/lvgl/src/extra/widgets/colorwheel/../../../../src/core/lv_obj_style_gen.h **** {
 399:Middlewares/lvgl/src/extra/widgets/colorwheel/../../../../src/core/lv_obj_style_gen.h ****     lv_style_value_t v = lv_obj_get_style_prop(obj, part, LV_STYLE_OUTLINE_COLOR_FILTERED);
 400:Middlewares/lvgl/src/extra/widgets/colorwheel/../../../../src/core/lv_obj_style_gen.h ****     return v.color;
 401:Middlewares/lvgl/src/extra/widgets/colorwheel/../../../../src/core/lv_obj_style_gen.h **** }
 402:Middlewares/lvgl/src/extra/widgets/colorwheel/../../../../src/core/lv_obj_style_gen.h **** 
 403:Middlewares/lvgl/src/extra/widgets/colorwheel/../../../../src/core/lv_obj_style_gen.h **** static inline lv_opa_t lv_obj_get_style_outline_opa(const struct _lv_obj_t * obj, uint32_t part)
 404:Middlewares/lvgl/src/extra/widgets/colorwheel/../../../../src/core/lv_obj_style_gen.h **** {
 405:Middlewares/lvgl/src/extra/widgets/colorwheel/../../../../src/core/lv_obj_style_gen.h ****     lv_style_value_t v = lv_obj_get_style_prop(obj, part, LV_STYLE_OUTLINE_OPA);
 406:Middlewares/lvgl/src/extra/widgets/colorwheel/../../../../src/core/lv_obj_style_gen.h ****     return (lv_opa_t)v.num;
 407:Middlewares/lvgl/src/extra/widgets/colorwheel/../../../../src/core/lv_obj_style_gen.h **** }
 408:Middlewares/lvgl/src/extra/widgets/colorwheel/../../../../src/core/lv_obj_style_gen.h **** 
 409:Middlewares/lvgl/src/extra/widgets/colorwheel/../../../../src/core/lv_obj_style_gen.h **** static inline lv_coord_t lv_obj_get_style_outline_pad(const struct _lv_obj_t * obj, uint32_t part)
 410:Middlewares/lvgl/src/extra/widgets/colorwheel/../../../../src/core/lv_obj_style_gen.h **** {
 411:Middlewares/lvgl/src/extra/widgets/colorwheel/../../../../src/core/lv_obj_style_gen.h ****     lv_style_value_t v = lv_obj_get_style_prop(obj, part, LV_STYLE_OUTLINE_PAD);
 412:Middlewares/lvgl/src/extra/widgets/colorwheel/../../../../src/core/lv_obj_style_gen.h ****     return (lv_coord_t)v.num;
 413:Middlewares/lvgl/src/extra/widgets/colorwheel/../../../../src/core/lv_obj_style_gen.h **** }
 414:Middlewares/lvgl/src/extra/widgets/colorwheel/../../../../src/core/lv_obj_style_gen.h **** 
 415:Middlewares/lvgl/src/extra/widgets/colorwheel/../../../../src/core/lv_obj_style_gen.h **** static inline lv_coord_t lv_obj_get_style_shadow_width(const struct _lv_obj_t * obj, uint32_t part)
 416:Middlewares/lvgl/src/extra/widgets/colorwheel/../../../../src/core/lv_obj_style_gen.h **** {
 417:Middlewares/lvgl/src/extra/widgets/colorwheel/../../../../src/core/lv_obj_style_gen.h ****     lv_style_value_t v = lv_obj_get_style_prop(obj, part, LV_STYLE_SHADOW_WIDTH);
 418:Middlewares/lvgl/src/extra/widgets/colorwheel/../../../../src/core/lv_obj_style_gen.h ****     return (lv_coord_t)v.num;
 419:Middlewares/lvgl/src/extra/widgets/colorwheel/../../../../src/core/lv_obj_style_gen.h **** }
ARM GAS  /tmp/ccAb9Zks.s 			page 42


 420:Middlewares/lvgl/src/extra/widgets/colorwheel/../../../../src/core/lv_obj_style_gen.h **** 
 421:Middlewares/lvgl/src/extra/widgets/colorwheel/../../../../src/core/lv_obj_style_gen.h **** static inline lv_coord_t lv_obj_get_style_shadow_ofs_x(const struct _lv_obj_t * obj, uint32_t part)
 422:Middlewares/lvgl/src/extra/widgets/colorwheel/../../../../src/core/lv_obj_style_gen.h **** {
 423:Middlewares/lvgl/src/extra/widgets/colorwheel/../../../../src/core/lv_obj_style_gen.h ****     lv_style_value_t v = lv_obj_get_style_prop(obj, part, LV_STYLE_SHADOW_OFS_X);
 424:Middlewares/lvgl/src/extra/widgets/colorwheel/../../../../src/core/lv_obj_style_gen.h ****     return (lv_coord_t)v.num;
 425:Middlewares/lvgl/src/extra/widgets/colorwheel/../../../../src/core/lv_obj_style_gen.h **** }
 426:Middlewares/lvgl/src/extra/widgets/colorwheel/../../../../src/core/lv_obj_style_gen.h **** 
 427:Middlewares/lvgl/src/extra/widgets/colorwheel/../../../../src/core/lv_obj_style_gen.h **** static inline lv_coord_t lv_obj_get_style_shadow_ofs_y(const struct _lv_obj_t * obj, uint32_t part)
 428:Middlewares/lvgl/src/extra/widgets/colorwheel/../../../../src/core/lv_obj_style_gen.h **** {
 429:Middlewares/lvgl/src/extra/widgets/colorwheel/../../../../src/core/lv_obj_style_gen.h ****     lv_style_value_t v = lv_obj_get_style_prop(obj, part, LV_STYLE_SHADOW_OFS_Y);
 430:Middlewares/lvgl/src/extra/widgets/colorwheel/../../../../src/core/lv_obj_style_gen.h ****     return (lv_coord_t)v.num;
 431:Middlewares/lvgl/src/extra/widgets/colorwheel/../../../../src/core/lv_obj_style_gen.h **** }
 432:Middlewares/lvgl/src/extra/widgets/colorwheel/../../../../src/core/lv_obj_style_gen.h **** 
 433:Middlewares/lvgl/src/extra/widgets/colorwheel/../../../../src/core/lv_obj_style_gen.h **** static inline lv_coord_t lv_obj_get_style_shadow_spread(const struct _lv_obj_t * obj, uint32_t part
 434:Middlewares/lvgl/src/extra/widgets/colorwheel/../../../../src/core/lv_obj_style_gen.h **** {
 435:Middlewares/lvgl/src/extra/widgets/colorwheel/../../../../src/core/lv_obj_style_gen.h ****     lv_style_value_t v = lv_obj_get_style_prop(obj, part, LV_STYLE_SHADOW_SPREAD);
 436:Middlewares/lvgl/src/extra/widgets/colorwheel/../../../../src/core/lv_obj_style_gen.h ****     return (lv_coord_t)v.num;
 437:Middlewares/lvgl/src/extra/widgets/colorwheel/../../../../src/core/lv_obj_style_gen.h **** }
 438:Middlewares/lvgl/src/extra/widgets/colorwheel/../../../../src/core/lv_obj_style_gen.h **** 
 439:Middlewares/lvgl/src/extra/widgets/colorwheel/../../../../src/core/lv_obj_style_gen.h **** static inline lv_color_t lv_obj_get_style_shadow_color(const struct _lv_obj_t * obj, uint32_t part)
 440:Middlewares/lvgl/src/extra/widgets/colorwheel/../../../../src/core/lv_obj_style_gen.h **** {
 441:Middlewares/lvgl/src/extra/widgets/colorwheel/../../../../src/core/lv_obj_style_gen.h ****     lv_style_value_t v = lv_obj_get_style_prop(obj, part, LV_STYLE_SHADOW_COLOR);
 442:Middlewares/lvgl/src/extra/widgets/colorwheel/../../../../src/core/lv_obj_style_gen.h ****     return v.color;
 443:Middlewares/lvgl/src/extra/widgets/colorwheel/../../../../src/core/lv_obj_style_gen.h **** }
 444:Middlewares/lvgl/src/extra/widgets/colorwheel/../../../../src/core/lv_obj_style_gen.h **** 
 445:Middlewares/lvgl/src/extra/widgets/colorwheel/../../../../src/core/lv_obj_style_gen.h **** static inline lv_color_t lv_obj_get_style_shadow_color_filtered(const struct _lv_obj_t * obj, uint3
 446:Middlewares/lvgl/src/extra/widgets/colorwheel/../../../../src/core/lv_obj_style_gen.h **** {
 447:Middlewares/lvgl/src/extra/widgets/colorwheel/../../../../src/core/lv_obj_style_gen.h ****     lv_style_value_t v = lv_obj_get_style_prop(obj, part, LV_STYLE_SHADOW_COLOR_FILTERED);
 448:Middlewares/lvgl/src/extra/widgets/colorwheel/../../../../src/core/lv_obj_style_gen.h ****     return v.color;
 449:Middlewares/lvgl/src/extra/widgets/colorwheel/../../../../src/core/lv_obj_style_gen.h **** }
 450:Middlewares/lvgl/src/extra/widgets/colorwheel/../../../../src/core/lv_obj_style_gen.h **** 
 451:Middlewares/lvgl/src/extra/widgets/colorwheel/../../../../src/core/lv_obj_style_gen.h **** static inline lv_opa_t lv_obj_get_style_shadow_opa(const struct _lv_obj_t * obj, uint32_t part)
 452:Middlewares/lvgl/src/extra/widgets/colorwheel/../../../../src/core/lv_obj_style_gen.h **** {
 453:Middlewares/lvgl/src/extra/widgets/colorwheel/../../../../src/core/lv_obj_style_gen.h ****     lv_style_value_t v = lv_obj_get_style_prop(obj, part, LV_STYLE_SHADOW_OPA);
 454:Middlewares/lvgl/src/extra/widgets/colorwheel/../../../../src/core/lv_obj_style_gen.h ****     return (lv_opa_t)v.num;
 455:Middlewares/lvgl/src/extra/widgets/colorwheel/../../../../src/core/lv_obj_style_gen.h **** }
 456:Middlewares/lvgl/src/extra/widgets/colorwheel/../../../../src/core/lv_obj_style_gen.h **** 
 457:Middlewares/lvgl/src/extra/widgets/colorwheel/../../../../src/core/lv_obj_style_gen.h **** static inline lv_coord_t lv_obj_get_style_line_width(const struct _lv_obj_t * obj, uint32_t part)
 458:Middlewares/lvgl/src/extra/widgets/colorwheel/../../../../src/core/lv_obj_style_gen.h **** {
 459:Middlewares/lvgl/src/extra/widgets/colorwheel/../../../../src/core/lv_obj_style_gen.h ****     lv_style_value_t v = lv_obj_get_style_prop(obj, part, LV_STYLE_LINE_WIDTH);
 460:Middlewares/lvgl/src/extra/widgets/colorwheel/../../../../src/core/lv_obj_style_gen.h ****     return (lv_coord_t)v.num;
 461:Middlewares/lvgl/src/extra/widgets/colorwheel/../../../../src/core/lv_obj_style_gen.h **** }
 462:Middlewares/lvgl/src/extra/widgets/colorwheel/../../../../src/core/lv_obj_style_gen.h **** 
 463:Middlewares/lvgl/src/extra/widgets/colorwheel/../../../../src/core/lv_obj_style_gen.h **** static inline lv_coord_t lv_obj_get_style_line_dash_width(const struct _lv_obj_t * obj, uint32_t pa
 464:Middlewares/lvgl/src/extra/widgets/colorwheel/../../../../src/core/lv_obj_style_gen.h **** {
 465:Middlewares/lvgl/src/extra/widgets/colorwheel/../../../../src/core/lv_obj_style_gen.h ****     lv_style_value_t v = lv_obj_get_style_prop(obj, part, LV_STYLE_LINE_DASH_WIDTH);
 466:Middlewares/lvgl/src/extra/widgets/colorwheel/../../../../src/core/lv_obj_style_gen.h ****     return (lv_coord_t)v.num;
 467:Middlewares/lvgl/src/extra/widgets/colorwheel/../../../../src/core/lv_obj_style_gen.h **** }
 468:Middlewares/lvgl/src/extra/widgets/colorwheel/../../../../src/core/lv_obj_style_gen.h **** 
 469:Middlewares/lvgl/src/extra/widgets/colorwheel/../../../../src/core/lv_obj_style_gen.h **** static inline lv_coord_t lv_obj_get_style_line_dash_gap(const struct _lv_obj_t * obj, uint32_t part
 470:Middlewares/lvgl/src/extra/widgets/colorwheel/../../../../src/core/lv_obj_style_gen.h **** {
 471:Middlewares/lvgl/src/extra/widgets/colorwheel/../../../../src/core/lv_obj_style_gen.h ****     lv_style_value_t v = lv_obj_get_style_prop(obj, part, LV_STYLE_LINE_DASH_GAP);
 472:Middlewares/lvgl/src/extra/widgets/colorwheel/../../../../src/core/lv_obj_style_gen.h ****     return (lv_coord_t)v.num;
 473:Middlewares/lvgl/src/extra/widgets/colorwheel/../../../../src/core/lv_obj_style_gen.h **** }
 474:Middlewares/lvgl/src/extra/widgets/colorwheel/../../../../src/core/lv_obj_style_gen.h **** 
 475:Middlewares/lvgl/src/extra/widgets/colorwheel/../../../../src/core/lv_obj_style_gen.h **** static inline lv_coord_t lv_obj_get_style_line_rounded(const struct _lv_obj_t * obj, uint32_t part)
 476:Middlewares/lvgl/src/extra/widgets/colorwheel/../../../../src/core/lv_obj_style_gen.h **** {
ARM GAS  /tmp/ccAb9Zks.s 			page 43


 477:Middlewares/lvgl/src/extra/widgets/colorwheel/../../../../src/core/lv_obj_style_gen.h ****     lv_style_value_t v = lv_obj_get_style_prop(obj, part, LV_STYLE_LINE_ROUNDED);
 478:Middlewares/lvgl/src/extra/widgets/colorwheel/../../../../src/core/lv_obj_style_gen.h ****     return (lv_coord_t)v.num;
 479:Middlewares/lvgl/src/extra/widgets/colorwheel/../../../../src/core/lv_obj_style_gen.h **** }
 480:Middlewares/lvgl/src/extra/widgets/colorwheel/../../../../src/core/lv_obj_style_gen.h **** 
 481:Middlewares/lvgl/src/extra/widgets/colorwheel/../../../../src/core/lv_obj_style_gen.h **** static inline lv_color_t lv_obj_get_style_line_color(const struct _lv_obj_t * obj, uint32_t part)
 482:Middlewares/lvgl/src/extra/widgets/colorwheel/../../../../src/core/lv_obj_style_gen.h **** {
 483:Middlewares/lvgl/src/extra/widgets/colorwheel/../../../../src/core/lv_obj_style_gen.h ****     lv_style_value_t v = lv_obj_get_style_prop(obj, part, LV_STYLE_LINE_COLOR);
 484:Middlewares/lvgl/src/extra/widgets/colorwheel/../../../../src/core/lv_obj_style_gen.h ****     return v.color;
 485:Middlewares/lvgl/src/extra/widgets/colorwheel/../../../../src/core/lv_obj_style_gen.h **** }
 486:Middlewares/lvgl/src/extra/widgets/colorwheel/../../../../src/core/lv_obj_style_gen.h **** 
 487:Middlewares/lvgl/src/extra/widgets/colorwheel/../../../../src/core/lv_obj_style_gen.h **** static inline lv_color_t lv_obj_get_style_line_color_filtered(const struct _lv_obj_t * obj, uint32_
 488:Middlewares/lvgl/src/extra/widgets/colorwheel/../../../../src/core/lv_obj_style_gen.h **** {
 489:Middlewares/lvgl/src/extra/widgets/colorwheel/../../../../src/core/lv_obj_style_gen.h ****     lv_style_value_t v = lv_obj_get_style_prop(obj, part, LV_STYLE_LINE_COLOR_FILTERED);
 490:Middlewares/lvgl/src/extra/widgets/colorwheel/../../../../src/core/lv_obj_style_gen.h ****     return v.color;
 491:Middlewares/lvgl/src/extra/widgets/colorwheel/../../../../src/core/lv_obj_style_gen.h **** }
 492:Middlewares/lvgl/src/extra/widgets/colorwheel/../../../../src/core/lv_obj_style_gen.h **** 
 493:Middlewares/lvgl/src/extra/widgets/colorwheel/../../../../src/core/lv_obj_style_gen.h **** static inline lv_opa_t lv_obj_get_style_line_opa(const struct _lv_obj_t * obj, uint32_t part)
 494:Middlewares/lvgl/src/extra/widgets/colorwheel/../../../../src/core/lv_obj_style_gen.h **** {
 495:Middlewares/lvgl/src/extra/widgets/colorwheel/../../../../src/core/lv_obj_style_gen.h ****     lv_style_value_t v = lv_obj_get_style_prop(obj, part, LV_STYLE_LINE_OPA);
 496:Middlewares/lvgl/src/extra/widgets/colorwheel/../../../../src/core/lv_obj_style_gen.h ****     return (lv_opa_t)v.num;
 497:Middlewares/lvgl/src/extra/widgets/colorwheel/../../../../src/core/lv_obj_style_gen.h **** }
 498:Middlewares/lvgl/src/extra/widgets/colorwheel/../../../../src/core/lv_obj_style_gen.h **** 
 499:Middlewares/lvgl/src/extra/widgets/colorwheel/../../../../src/core/lv_obj_style_gen.h **** static inline lv_coord_t lv_obj_get_style_arc_width(const struct _lv_obj_t * obj, uint32_t part)
 578              		.loc 3 499 26 view .LVU174
 579              	.LBB53:
 500:Middlewares/lvgl/src/extra/widgets/colorwheel/../../../../src/core/lv_obj_style_gen.h **** {
 501:Middlewares/lvgl/src/extra/widgets/colorwheel/../../../../src/core/lv_obj_style_gen.h ****     lv_style_value_t v = lv_obj_get_style_prop(obj, part, LV_STYLE_ARC_WIDTH);
 580              		.loc 3 501 5 view .LVU175
 581              		.loc 3 501 26 is_stmt 0 view .LVU176
 582 0008 4FF40562 		mov	r2, #2128
 583 000c 0021     		movs	r1, #0
 584              	.LVL54:
 585              		.loc 3 501 26 view .LVU177
 586 000e 2046     		mov	r0, r4
 587              	.LVL55:
 588              		.loc 3 501 26 view .LVU178
 589 0010 FFF7FEFF 		bl	lv_obj_get_style_prop
 590              	.LVL56:
 502:Middlewares/lvgl/src/extra/widgets/colorwheel/../../../../src/core/lv_obj_style_gen.h ****     return (lv_coord_t)v.num;
 591              		.loc 3 502 5 is_stmt 1 view .LVU179
 592              		.loc 3 502 12 is_stmt 0 view .LVU180
 593 0014 03B2     		sxth	r3, r0
 594              	.LVL57:
 595              		.loc 3 502 12 view .LVU181
 596              	.LBE53:
 597              	.LBE52:
 329:Middlewares/lvgl/src/extra/widgets/colorwheel/lv_colorwheel.c **** 
 598              		.loc 1 329 7 view .LVU182
 599 0016 002B     		cmp	r3, #0
 600 0018 3EDB     		blt	.L32
 601              	.L30:
 602 001a C3F34F05 		ubfx	r5, r3, #1, #16
 603              	.LVL58:
 331:Middlewares/lvgl/src/extra/widgets/colorwheel/lv_colorwheel.c ****     lv_coord_t right = lv_obj_get_style_pad_right(obj, LV_PART_KNOB);
 604              		.loc 1 331 5 is_stmt 1 view .LVU183
 605              	.LBB54:
 606              	.LBI54:
ARM GAS  /tmp/ccAb9Zks.s 			page 44


 103:Middlewares/lvgl/src/extra/widgets/colorwheel/../../../../src/core/lv_obj_style_gen.h **** {
 607              		.loc 3 103 26 view .LVU184
 608              	.LBB55:
 105:Middlewares/lvgl/src/extra/widgets/colorwheel/../../../../src/core/lv_obj_style_gen.h ****     return (lv_coord_t)v.num;
 609              		.loc 3 105 5 view .LVU185
 105:Middlewares/lvgl/src/extra/widgets/colorwheel/../../../../src/core/lv_obj_style_gen.h ****     return (lv_coord_t)v.num;
 610              		.loc 3 105 26 is_stmt 0 view .LVU186
 611 001e 41F21202 		movw	r2, #4114
 612 0022 4FF44031 		mov	r1, #196608
 613 0026 2046     		mov	r0, r4
 614 0028 FFF7FEFF 		bl	lv_obj_get_style_prop
 615              	.LVL59:
 616 002c 8146     		mov	r9, r0
 617              	.LVL60:
 106:Middlewares/lvgl/src/extra/widgets/colorwheel/../../../../src/core/lv_obj_style_gen.h **** }
 618              		.loc 3 106 5 is_stmt 1 view .LVU187
 106:Middlewares/lvgl/src/extra/widgets/colorwheel/../../../../src/core/lv_obj_style_gen.h **** }
 619              		.loc 3 106 5 is_stmt 0 view .LVU188
 620              	.LBE55:
 621              	.LBE54:
 332:Middlewares/lvgl/src/extra/widgets/colorwheel/lv_colorwheel.c ****     lv_coord_t top = lv_obj_get_style_pad_top(obj, LV_PART_KNOB);
 622              		.loc 1 332 5 is_stmt 1 view .LVU189
 623              	.LBB56:
 624              	.LBI56:
 109:Middlewares/lvgl/src/extra/widgets/colorwheel/../../../../src/core/lv_obj_style_gen.h **** {
 625              		.loc 3 109 26 view .LVU190
 626              	.LBB57:
 111:Middlewares/lvgl/src/extra/widgets/colorwheel/../../../../src/core/lv_obj_style_gen.h ****     return (lv_coord_t)v.num;
 627              		.loc 3 111 5 view .LVU191
 111:Middlewares/lvgl/src/extra/widgets/colorwheel/../../../../src/core/lv_obj_style_gen.h ****     return (lv_coord_t)v.num;
 628              		.loc 3 111 26 is_stmt 0 view .LVU192
 629 002e 41F21302 		movw	r2, #4115
 630 0032 4FF44031 		mov	r1, #196608
 631 0036 2046     		mov	r0, r4
 632 0038 FFF7FEFF 		bl	lv_obj_get_style_prop
 633              	.LVL61:
 634 003c 8046     		mov	r8, r0
 635              	.LVL62:
 112:Middlewares/lvgl/src/extra/widgets/colorwheel/../../../../src/core/lv_obj_style_gen.h **** }
 636              		.loc 3 112 5 is_stmt 1 view .LVU193
 112:Middlewares/lvgl/src/extra/widgets/colorwheel/../../../../src/core/lv_obj_style_gen.h **** }
 637              		.loc 3 112 5 is_stmt 0 view .LVU194
 638              	.LBE57:
 639              	.LBE56:
 333:Middlewares/lvgl/src/extra/widgets/colorwheel/lv_colorwheel.c ****     lv_coord_t bottom = lv_obj_get_style_pad_bottom(obj, LV_PART_KNOB);
 640              		.loc 1 333 5 is_stmt 1 view .LVU195
 641              	.LBB58:
 642              	.LBI58:
  91:Middlewares/lvgl/src/extra/widgets/colorwheel/../../../../src/core/lv_obj_style_gen.h **** {
 643              		.loc 3 91 26 view .LVU196
 644              	.LBB59:
  93:Middlewares/lvgl/src/extra/widgets/colorwheel/../../../../src/core/lv_obj_style_gen.h ****     return (lv_coord_t)v.num;
 645              		.loc 3 93 5 view .LVU197
  93:Middlewares/lvgl/src/extra/widgets/colorwheel/../../../../src/core/lv_obj_style_gen.h ****     return (lv_coord_t)v.num;
 646              		.loc 3 93 26 is_stmt 0 view .LVU198
 647 003e 41F21002 		movw	r2, #4112
 648 0042 4FF44031 		mov	r1, #196608
ARM GAS  /tmp/ccAb9Zks.s 			page 45


 649 0046 2046     		mov	r0, r4
 650 0048 FFF7FEFF 		bl	lv_obj_get_style_prop
 651              	.LVL63:
 652 004c 0746     		mov	r7, r0
 653              	.LVL64:
  94:Middlewares/lvgl/src/extra/widgets/colorwheel/../../../../src/core/lv_obj_style_gen.h **** }
 654              		.loc 3 94 5 is_stmt 1 view .LVU199
  94:Middlewares/lvgl/src/extra/widgets/colorwheel/../../../../src/core/lv_obj_style_gen.h **** }
 655              		.loc 3 94 5 is_stmt 0 view .LVU200
 656              	.LBE59:
 657              	.LBE58:
 334:Middlewares/lvgl/src/extra/widgets/colorwheel/lv_colorwheel.c **** 
 658              		.loc 1 334 5 is_stmt 1 view .LVU201
 659              	.LBB60:
 660              	.LBI60:
  97:Middlewares/lvgl/src/extra/widgets/colorwheel/../../../../src/core/lv_obj_style_gen.h **** {
 661              		.loc 3 97 26 view .LVU202
 662              	.LBB61:
  99:Middlewares/lvgl/src/extra/widgets/colorwheel/../../../../src/core/lv_obj_style_gen.h ****     return (lv_coord_t)v.num;
 663              		.loc 3 99 5 view .LVU203
  99:Middlewares/lvgl/src/extra/widgets/colorwheel/../../../../src/core/lv_obj_style_gen.h ****     return (lv_coord_t)v.num;
 664              		.loc 3 99 26 is_stmt 0 view .LVU204
 665 004e 41F21102 		movw	r2, #4113
 666 0052 4FF44031 		mov	r1, #196608
 667 0056 2046     		mov	r0, r4
 668 0058 FFF7FEFF 		bl	lv_obj_get_style_prop
 669              	.LVL65:
 100:Middlewares/lvgl/src/extra/widgets/colorwheel/../../../../src/core/lv_obj_style_gen.h **** }
 670              		.loc 3 100 5 is_stmt 1 view .LVU205
 100:Middlewares/lvgl/src/extra/widgets/colorwheel/../../../../src/core/lv_obj_style_gen.h **** }
 671              		.loc 3 100 5 is_stmt 0 view .LVU206
 672              	.LBE61:
 673              	.LBE60:
 336:Middlewares/lvgl/src/extra/widgets/colorwheel/lv_colorwheel.c ****     knob_area.x1 = obj->coords.x1 + colorwheel->knob.pos.x - r - left;
 674              		.loc 1 336 5 is_stmt 1 view .LVU207
 337:Middlewares/lvgl/src/extra/widgets/colorwheel/lv_colorwheel.c ****     knob_area.y1 = obj->coords.y1 + colorwheel->knob.pos.y - r - right;
 675              		.loc 1 337 5 view .LVU208
 337:Middlewares/lvgl/src/extra/widgets/colorwheel/lv_colorwheel.c ****     knob_area.y1 = obj->coords.y1 + colorwheel->knob.pos.y - r - right;
 676              		.loc 1 337 31 is_stmt 0 view .LVU209
 677 005c A28A     		ldrh	r2, [r4, #20]
 337:Middlewares/lvgl/src/extra/widgets/colorwheel/lv_colorwheel.c ****     knob_area.y1 = obj->coords.y1 + colorwheel->knob.pos.y - r - right;
 678              		.loc 1 337 57 view .LVU210
 679 005e 238D     		ldrh	r3, [r4, #40]
 337:Middlewares/lvgl/src/extra/widgets/colorwheel/lv_colorwheel.c ****     knob_area.y1 = obj->coords.y1 + colorwheel->knob.pos.y - r - right;
 680              		.loc 1 337 35 view .LVU211
 681 0060 1A44     		add	r2, r2, r3
 682 0062 92B2     		uxth	r2, r2
 337:Middlewares/lvgl/src/extra/widgets/colorwheel/lv_colorwheel.c ****     knob_area.y1 = obj->coords.y1 + colorwheel->knob.pos.y - r - right;
 683              		.loc 1 337 60 view .LVU212
 684 0064 531B     		subs	r3, r2, r5
 685 0066 9BB2     		uxth	r3, r3
 337:Middlewares/lvgl/src/extra/widgets/colorwheel/lv_colorwheel.c ****     knob_area.y1 = obj->coords.y1 + colorwheel->knob.pos.y - r - right;
 686              		.loc 1 337 64 view .LVU213
 687 0068 A3EB0903 		sub	r3, r3, r9
 337:Middlewares/lvgl/src/extra/widgets/colorwheel/lv_colorwheel.c ****     knob_area.y1 = obj->coords.y1 + colorwheel->knob.pos.y - r - right;
 688              		.loc 1 337 18 view .LVU214
 689 006c 3380     		strh	r3, [r6]	@ movhi
ARM GAS  /tmp/ccAb9Zks.s 			page 46


 338:Middlewares/lvgl/src/extra/widgets/colorwheel/lv_colorwheel.c ****     knob_area.x2 = obj->coords.x1 + colorwheel->knob.pos.x + r + top;
 690              		.loc 1 338 5 is_stmt 1 view .LVU215
 338:Middlewares/lvgl/src/extra/widgets/colorwheel/lv_colorwheel.c ****     knob_area.x2 = obj->coords.x1 + colorwheel->knob.pos.x + r + top;
 691              		.loc 1 338 31 is_stmt 0 view .LVU216
 692 006e E38A     		ldrh	r3, [r4, #22]
 338:Middlewares/lvgl/src/extra/widgets/colorwheel/lv_colorwheel.c ****     knob_area.x2 = obj->coords.x1 + colorwheel->knob.pos.x + r + top;
 693              		.loc 1 338 57 view .LVU217
 694 0070 618D     		ldrh	r1, [r4, #42]
 338:Middlewares/lvgl/src/extra/widgets/colorwheel/lv_colorwheel.c ****     knob_area.x2 = obj->coords.x1 + colorwheel->knob.pos.x + r + top;
 695              		.loc 1 338 35 view .LVU218
 696 0072 0B44     		add	r3, r3, r1
 697 0074 9BB2     		uxth	r3, r3
 338:Middlewares/lvgl/src/extra/widgets/colorwheel/lv_colorwheel.c ****     knob_area.x2 = obj->coords.x1 + colorwheel->knob.pos.x + r + top;
 698              		.loc 1 338 60 view .LVU219
 699 0076 591B     		subs	r1, r3, r5
 700 0078 89B2     		uxth	r1, r1
 338:Middlewares/lvgl/src/extra/widgets/colorwheel/lv_colorwheel.c ****     knob_area.x2 = obj->coords.x1 + colorwheel->knob.pos.x + r + top;
 701              		.loc 1 338 64 view .LVU220
 702 007a A1EB0808 		sub	r8, r1, r8
 703              	.LVL66:
 338:Middlewares/lvgl/src/extra/widgets/colorwheel/lv_colorwheel.c ****     knob_area.x2 = obj->coords.x1 + colorwheel->knob.pos.x + r + top;
 704              		.loc 1 338 18 view .LVU221
 705 007e A6F80280 		strh	r8, [r6, #2]	@ movhi
 339:Middlewares/lvgl/src/extra/widgets/colorwheel/lv_colorwheel.c ****     knob_area.y2 = obj->coords.y1 + colorwheel->knob.pos.y + r + bottom;
 706              		.loc 1 339 5 is_stmt 1 view .LVU222
 339:Middlewares/lvgl/src/extra/widgets/colorwheel/lv_colorwheel.c ****     knob_area.y2 = obj->coords.y1 + colorwheel->knob.pos.y + r + bottom;
 707              		.loc 1 339 60 is_stmt 0 view .LVU223
 708 0082 2A44     		add	r2, r2, r5
 339:Middlewares/lvgl/src/extra/widgets/colorwheel/lv_colorwheel.c ****     knob_area.y2 = obj->coords.y1 + colorwheel->knob.pos.y + r + bottom;
 709              		.loc 1 339 64 view .LVU224
 710 0084 17FA82F7 		uxtah	r7, r7, r2
 711              	.LVL67:
 339:Middlewares/lvgl/src/extra/widgets/colorwheel/lv_colorwheel.c ****     knob_area.y2 = obj->coords.y1 + colorwheel->knob.pos.y + r + bottom;
 712              		.loc 1 339 18 view .LVU225
 713 0088 B780     		strh	r7, [r6, #4]	@ movhi
 340:Middlewares/lvgl/src/extra/widgets/colorwheel/lv_colorwheel.c **** 
 714              		.loc 1 340 5 is_stmt 1 view .LVU226
 340:Middlewares/lvgl/src/extra/widgets/colorwheel/lv_colorwheel.c **** 
 715              		.loc 1 340 60 is_stmt 0 view .LVU227
 716 008a 2B44     		add	r3, r3, r5
 340:Middlewares/lvgl/src/extra/widgets/colorwheel/lv_colorwheel.c **** 
 717              		.loc 1 340 64 view .LVU228
 718 008c 10FA83F3 		uxtah	r3, r0, r3
 340:Middlewares/lvgl/src/extra/widgets/colorwheel/lv_colorwheel.c **** 
 719              		.loc 1 340 18 view .LVU229
 720 0090 F380     		strh	r3, [r6, #6]	@ movhi
 342:Middlewares/lvgl/src/extra/widgets/colorwheel/lv_colorwheel.c **** }
 721              		.loc 1 342 5 is_stmt 1 view .LVU230
 343:Middlewares/lvgl/src/extra/widgets/colorwheel/lv_colorwheel.c **** 
 722              		.loc 1 343 1 is_stmt 0 view .LVU231
 723 0092 3046     		mov	r0, r6
 724              	.LVL68:
 343:Middlewares/lvgl/src/extra/widgets/colorwheel/lv_colorwheel.c **** 
 725              		.loc 1 343 1 view .LVU232
 726 0094 BDE8F883 		pop	{r3, r4, r5, r6, r7, r8, r9, pc}
 727              	.LVL69:
 728              	.L32:
ARM GAS  /tmp/ccAb9Zks.s 			page 47


 329:Middlewares/lvgl/src/extra/widgets/colorwheel/lv_colorwheel.c **** 
 729              		.loc 1 329 7 view .LVU233
 730 0098 0133     		adds	r3, r3, #1
 731 009a BEE7     		b	.L30
 732              		.cfi_endproc
 733              	.LFE197:
 735              		.section	.text.invalidate_knob,"ax",%progbits
 736              		.align	1
 737              		.syntax unified
 738              		.thumb
 739              		.thumb_func
 741              	invalidate_knob:
 742              	.LVL70:
 743              	.LFB196:
 317:Middlewares/lvgl/src/extra/widgets/colorwheel/lv_colorwheel.c ****     lv_area_t knob_area = get_knob_area(obj);
 744              		.loc 1 317 1 is_stmt 1 view -0
 745              		.cfi_startproc
 746              		@ args = 0, pretend = 0, frame = 8
 747              		@ frame_needed = 0, uses_anonymous_args = 0
 317:Middlewares/lvgl/src/extra/widgets/colorwheel/lv_colorwheel.c ****     lv_area_t knob_area = get_knob_area(obj);
 748              		.loc 1 317 1 is_stmt 0 view .LVU235
 749 0000 10B5     		push	{r4, lr}
 750              	.LCFI6:
 751              		.cfi_def_cfa_offset 8
 752              		.cfi_offset 4, -8
 753              		.cfi_offset 14, -4
 754 0002 82B0     		sub	sp, sp, #8
 755              	.LCFI7:
 756              		.cfi_def_cfa_offset 16
 757 0004 0446     		mov	r4, r0
 318:Middlewares/lvgl/src/extra/widgets/colorwheel/lv_colorwheel.c **** 
 758              		.loc 1 318 5 is_stmt 1 view .LVU236
 318:Middlewares/lvgl/src/extra/widgets/colorwheel/lv_colorwheel.c **** 
 759              		.loc 1 318 27 is_stmt 0 view .LVU237
 760 0006 0146     		mov	r1, r0
 761 0008 6846     		mov	r0, sp
 762              	.LVL71:
 318:Middlewares/lvgl/src/extra/widgets/colorwheel/lv_colorwheel.c **** 
 763              		.loc 1 318 27 view .LVU238
 764 000a FFF7FEFF 		bl	get_knob_area
 765              	.LVL72:
 320:Middlewares/lvgl/src/extra/widgets/colorwheel/lv_colorwheel.c **** }
 766              		.loc 1 320 5 is_stmt 1 view .LVU239
 767 000e 6946     		mov	r1, sp
 768 0010 2046     		mov	r0, r4
 769 0012 FFF7FEFF 		bl	lv_obj_invalidate_area
 770              	.LVL73:
 321:Middlewares/lvgl/src/extra/widgets/colorwheel/lv_colorwheel.c **** 
 771              		.loc 1 321 1 is_stmt 0 view .LVU240
 772 0016 02B0     		add	sp, sp, #8
 773              	.LCFI8:
 774              		.cfi_def_cfa_offset 8
 775              		@ sp needed
 776 0018 10BD     		pop	{r4, pc}
 321:Middlewares/lvgl/src/extra/widgets/colorwheel/lv_colorwheel.c **** 
 777              		.loc 1 321 1 view .LVU241
 778              		.cfi_endproc
ARM GAS  /tmp/ccAb9Zks.s 			page 48


 779              	.LFE196:
 781              		.section	.text.refr_knob_pos,"ax",%progbits
 782              		.align	1
 783              		.syntax unified
 784              		.thumb
 785              		.thumb_func
 787              	refr_knob_pos:
 788              	.LVL74:
 789              	.LFB200:
 539:Middlewares/lvgl/src/extra/widgets/colorwheel/lv_colorwheel.c ****     invalidate_knob(obj);
 790              		.loc 1 539 1 is_stmt 1 view -0
 791              		.cfi_startproc
 792              		@ args = 0, pretend = 0, frame = 0
 793              		@ frame_needed = 0, uses_anonymous_args = 0
 539:Middlewares/lvgl/src/extra/widgets/colorwheel/lv_colorwheel.c ****     invalidate_knob(obj);
 794              		.loc 1 539 1 is_stmt 0 view .LVU243
 795 0000 F8B5     		push	{r3, r4, r5, r6, r7, lr}
 796              	.LCFI9:
 797              		.cfi_def_cfa_offset 24
 798              		.cfi_offset 3, -24
 799              		.cfi_offset 4, -20
 800              		.cfi_offset 5, -16
 801              		.cfi_offset 6, -12
 802              		.cfi_offset 7, -8
 803              		.cfi_offset 14, -4
 804 0002 0546     		mov	r5, r0
 540:Middlewares/lvgl/src/extra/widgets/colorwheel/lv_colorwheel.c **** 
 805              		.loc 1 540 5 is_stmt 1 view .LVU244
 806 0004 FFF7FEFF 		bl	invalidate_knob
 807              	.LVL75:
 542:Middlewares/lvgl/src/extra/widgets/colorwheel/lv_colorwheel.c ****     lv_coord_t w = lv_obj_get_width(obj);
 808              		.loc 1 542 5 view .LVU245
 543:Middlewares/lvgl/src/extra/widgets/colorwheel/lv_colorwheel.c **** 
 809              		.loc 1 543 5 view .LVU246
 543:Middlewares/lvgl/src/extra/widgets/colorwheel/lv_colorwheel.c **** 
 810              		.loc 1 543 20 is_stmt 0 view .LVU247
 811 0008 2846     		mov	r0, r5
 812 000a FFF7FEFF 		bl	lv_obj_get_width
 813              	.LVL76:
 814 000e 0646     		mov	r6, r0
 815              	.LVL77:
 545:Middlewares/lvgl/src/extra/widgets/colorwheel/lv_colorwheel.c ****     lv_coord_t r = (w - scale_w) / 2;
 816              		.loc 1 545 5 is_stmt 1 view .LVU248
 817              	.LBB62:
 818              	.LBI62:
 499:Middlewares/lvgl/src/extra/widgets/colorwheel/../../../../src/core/lv_obj_style_gen.h **** {
 819              		.loc 3 499 26 view .LVU249
 820              	.LBB63:
 501:Middlewares/lvgl/src/extra/widgets/colorwheel/../../../../src/core/lv_obj_style_gen.h ****     return (lv_coord_t)v.num;
 821              		.loc 3 501 5 view .LVU250
 501:Middlewares/lvgl/src/extra/widgets/colorwheel/../../../../src/core/lv_obj_style_gen.h ****     return (lv_coord_t)v.num;
 822              		.loc 3 501 26 is_stmt 0 view .LVU251
 823 0010 4FF40562 		mov	r2, #2128
 824 0014 0021     		movs	r1, #0
 825 0016 2846     		mov	r0, r5
 826 0018 FFF7FEFF 		bl	lv_obj_get_style_prop
 827              	.LVL78:
ARM GAS  /tmp/ccAb9Zks.s 			page 49


 828              		.loc 3 502 5 is_stmt 1 view .LVU252
 829              		.loc 3 502 12 is_stmt 0 view .LVU253
 830 001c 04B2     		sxth	r4, r0
 831              	.LVL79:
 832              		.loc 3 502 12 view .LVU254
 833              	.LBE63:
 834              	.LBE62:
 546:Middlewares/lvgl/src/extra/widgets/colorwheel/lv_colorwheel.c ****     uint16_t angle = get_angle(obj);
 835              		.loc 1 546 5 is_stmt 1 view .LVU255
 546:Middlewares/lvgl/src/extra/widgets/colorwheel/lv_colorwheel.c ****     uint16_t angle = get_angle(obj);
 836              		.loc 1 546 34 is_stmt 0 view .LVU256
 837 001e 341B     		subs	r4, r6, r4
 838              	.LVL80:
 546:Middlewares/lvgl/src/extra/widgets/colorwheel/lv_colorwheel.c ****     uint16_t angle = get_angle(obj);
 839              		.loc 1 546 34 view .LVU257
 840 0020 25D4     		bmi	.L39
 841              	.L36:
 546:Middlewares/lvgl/src/extra/widgets/colorwheel/lv_colorwheel.c ****     uint16_t angle = get_angle(obj);
 842              		.loc 1 546 16 view .LVU258
 843 0022 44F34F04 		sbfx	r4, r4, #1, #16
 844              	.LVL81:
 547:Middlewares/lvgl/src/extra/widgets/colorwheel/lv_colorwheel.c ****     colorwheel->knob.pos.x = (((int32_t)r * lv_trigo_sin(angle)) >> LV_TRIGO_SHIFT);
 845              		.loc 1 547 5 is_stmt 1 view .LVU259
 547:Middlewares/lvgl/src/extra/widgets/colorwheel/lv_colorwheel.c ****     colorwheel->knob.pos.x = (((int32_t)r * lv_trigo_sin(angle)) >> LV_TRIGO_SHIFT);
 846              		.loc 1 547 22 is_stmt 0 view .LVU260
 847 0026 2846     		mov	r0, r5
 848              	.LVL82:
 547:Middlewares/lvgl/src/extra/widgets/colorwheel/lv_colorwheel.c ****     colorwheel->knob.pos.x = (((int32_t)r * lv_trigo_sin(angle)) >> LV_TRIGO_SHIFT);
 849              		.loc 1 547 22 view .LVU261
 850 0028 FFF7FEFF 		bl	get_angle
 851              	.LVL83:
 852 002c 0746     		mov	r7, r0
 853              	.LVL84:
 548:Middlewares/lvgl/src/extra/widgets/colorwheel/lv_colorwheel.c ****     colorwheel->knob.pos.y = (((int32_t)r * lv_trigo_cos(angle)) >> LV_TRIGO_SHIFT);
 854              		.loc 1 548 5 is_stmt 1 view .LVU262
 548:Middlewares/lvgl/src/extra/widgets/colorwheel/lv_colorwheel.c ****     colorwheel->knob.pos.y = (((int32_t)r * lv_trigo_cos(angle)) >> LV_TRIGO_SHIFT);
 855              		.loc 1 548 45 is_stmt 0 view .LVU263
 856 002e 00B2     		sxth	r0, r0
 548:Middlewares/lvgl/src/extra/widgets/colorwheel/lv_colorwheel.c ****     colorwheel->knob.pos.y = (((int32_t)r * lv_trigo_cos(angle)) >> LV_TRIGO_SHIFT);
 857              		.loc 1 548 45 view .LVU264
 858 0030 FFF7FEFF 		bl	lv_trigo_sin
 859              	.LVL85:
 548:Middlewares/lvgl/src/extra/widgets/colorwheel/lv_colorwheel.c ****     colorwheel->knob.pos.y = (((int32_t)r * lv_trigo_cos(angle)) >> LV_TRIGO_SHIFT);
 860              		.loc 1 548 43 view .LVU265
 861 0034 04FB00F0 		mul	r0, r4, r0
 548:Middlewares/lvgl/src/extra/widgets/colorwheel/lv_colorwheel.c ****     colorwheel->knob.pos.y = (((int32_t)r * lv_trigo_cos(angle)) >> LV_TRIGO_SHIFT);
 862              		.loc 1 548 66 view .LVU266
 863 0038 C013     		asrs	r0, r0, #15
 548:Middlewares/lvgl/src/extra/widgets/colorwheel/lv_colorwheel.c ****     colorwheel->knob.pos.y = (((int32_t)r * lv_trigo_cos(angle)) >> LV_TRIGO_SHIFT);
 864              		.loc 1 548 28 view .LVU267
 865 003a 2885     		strh	r0, [r5, #40]	@ movhi
 549:Middlewares/lvgl/src/extra/widgets/colorwheel/lv_colorwheel.c ****     colorwheel->knob.pos.x = colorwheel->knob.pos.x + w / 2;
 866              		.loc 1 549 5 is_stmt 1 view .LVU268
 867              	.LVL86:
 868              	.LBB64:
 869              	.LBI64:
 870              		.file 4 "Middlewares/lvgl/src/extra/widgets/colorwheel/../../../../src/misc/lv_math.h"
ARM GAS  /tmp/ccAb9Zks.s 			page 50


   1:Middlewares/lvgl/src/extra/widgets/colorwheel/../../../../src/misc/lv_math.h **** /**
   2:Middlewares/lvgl/src/extra/widgets/colorwheel/../../../../src/misc/lv_math.h ****  * @file lv_math.h
   3:Middlewares/lvgl/src/extra/widgets/colorwheel/../../../../src/misc/lv_math.h ****  *
   4:Middlewares/lvgl/src/extra/widgets/colorwheel/../../../../src/misc/lv_math.h ****  */
   5:Middlewares/lvgl/src/extra/widgets/colorwheel/../../../../src/misc/lv_math.h **** 
   6:Middlewares/lvgl/src/extra/widgets/colorwheel/../../../../src/misc/lv_math.h **** #ifndef LV_MATH_H
   7:Middlewares/lvgl/src/extra/widgets/colorwheel/../../../../src/misc/lv_math.h **** #define LV_MATH_H
   8:Middlewares/lvgl/src/extra/widgets/colorwheel/../../../../src/misc/lv_math.h **** 
   9:Middlewares/lvgl/src/extra/widgets/colorwheel/../../../../src/misc/lv_math.h **** #ifdef __cplusplus
  10:Middlewares/lvgl/src/extra/widgets/colorwheel/../../../../src/misc/lv_math.h **** extern "C" {
  11:Middlewares/lvgl/src/extra/widgets/colorwheel/../../../../src/misc/lv_math.h **** #endif
  12:Middlewares/lvgl/src/extra/widgets/colorwheel/../../../../src/misc/lv_math.h **** 
  13:Middlewares/lvgl/src/extra/widgets/colorwheel/../../../../src/misc/lv_math.h **** /*********************
  14:Middlewares/lvgl/src/extra/widgets/colorwheel/../../../../src/misc/lv_math.h ****  *      INCLUDES
  15:Middlewares/lvgl/src/extra/widgets/colorwheel/../../../../src/misc/lv_math.h ****  *********************/
  16:Middlewares/lvgl/src/extra/widgets/colorwheel/../../../../src/misc/lv_math.h **** #include "../lv_conf_internal.h"
  17:Middlewares/lvgl/src/extra/widgets/colorwheel/../../../../src/misc/lv_math.h **** #include <stdint.h>
  18:Middlewares/lvgl/src/extra/widgets/colorwheel/../../../../src/misc/lv_math.h **** 
  19:Middlewares/lvgl/src/extra/widgets/colorwheel/../../../../src/misc/lv_math.h **** /*********************
  20:Middlewares/lvgl/src/extra/widgets/colorwheel/../../../../src/misc/lv_math.h ****  *      DEFINES
  21:Middlewares/lvgl/src/extra/widgets/colorwheel/../../../../src/misc/lv_math.h ****  *********************/
  22:Middlewares/lvgl/src/extra/widgets/colorwheel/../../../../src/misc/lv_math.h **** #define LV_TRIGO_SIN_MAX 32767
  23:Middlewares/lvgl/src/extra/widgets/colorwheel/../../../../src/misc/lv_math.h **** #define LV_TRIGO_SHIFT 15 /**<  >> LV_TRIGO_SHIFT to normalize*/
  24:Middlewares/lvgl/src/extra/widgets/colorwheel/../../../../src/misc/lv_math.h **** 
  25:Middlewares/lvgl/src/extra/widgets/colorwheel/../../../../src/misc/lv_math.h **** #define LV_BEZIER_VAL_MAX 1024 /**< Max time in Bezier functions (not [0..1] to use integers)*/
  26:Middlewares/lvgl/src/extra/widgets/colorwheel/../../../../src/misc/lv_math.h **** #define LV_BEZIER_VAL_SHIFT 10 /**< log2(LV_BEZIER_VAL_MAX): used to normalize up scaled values*/
  27:Middlewares/lvgl/src/extra/widgets/colorwheel/../../../../src/misc/lv_math.h **** 
  28:Middlewares/lvgl/src/extra/widgets/colorwheel/../../../../src/misc/lv_math.h **** /**********************
  29:Middlewares/lvgl/src/extra/widgets/colorwheel/../../../../src/misc/lv_math.h ****  *      TYPEDEFS
  30:Middlewares/lvgl/src/extra/widgets/colorwheel/../../../../src/misc/lv_math.h ****  **********************/
  31:Middlewares/lvgl/src/extra/widgets/colorwheel/../../../../src/misc/lv_math.h **** 
  32:Middlewares/lvgl/src/extra/widgets/colorwheel/../../../../src/misc/lv_math.h **** typedef struct {
  33:Middlewares/lvgl/src/extra/widgets/colorwheel/../../../../src/misc/lv_math.h ****     uint16_t i;
  34:Middlewares/lvgl/src/extra/widgets/colorwheel/../../../../src/misc/lv_math.h ****     uint16_t f;
  35:Middlewares/lvgl/src/extra/widgets/colorwheel/../../../../src/misc/lv_math.h **** } lv_sqrt_res_t;
  36:Middlewares/lvgl/src/extra/widgets/colorwheel/../../../../src/misc/lv_math.h **** 
  37:Middlewares/lvgl/src/extra/widgets/colorwheel/../../../../src/misc/lv_math.h **** /**********************
  38:Middlewares/lvgl/src/extra/widgets/colorwheel/../../../../src/misc/lv_math.h ****  * GLOBAL PROTOTYPES
  39:Middlewares/lvgl/src/extra/widgets/colorwheel/../../../../src/misc/lv_math.h ****  **********************/
  40:Middlewares/lvgl/src/extra/widgets/colorwheel/../../../../src/misc/lv_math.h **** 
  41:Middlewares/lvgl/src/extra/widgets/colorwheel/../../../../src/misc/lv_math.h **** //! @cond Doxygen_Suppress
  42:Middlewares/lvgl/src/extra/widgets/colorwheel/../../../../src/misc/lv_math.h **** /**
  43:Middlewares/lvgl/src/extra/widgets/colorwheel/../../../../src/misc/lv_math.h ****  * Return with sinus of an angle
  44:Middlewares/lvgl/src/extra/widgets/colorwheel/../../../../src/misc/lv_math.h ****  * @param angle
  45:Middlewares/lvgl/src/extra/widgets/colorwheel/../../../../src/misc/lv_math.h ****  * @return sinus of 'angle'. sin(-90) = -32767, sin(90) = 32767
  46:Middlewares/lvgl/src/extra/widgets/colorwheel/../../../../src/misc/lv_math.h ****  */
  47:Middlewares/lvgl/src/extra/widgets/colorwheel/../../../../src/misc/lv_math.h **** LV_ATTRIBUTE_FAST_MEM int16_t lv_trigo_sin(int16_t angle);
  48:Middlewares/lvgl/src/extra/widgets/colorwheel/../../../../src/misc/lv_math.h **** 
  49:Middlewares/lvgl/src/extra/widgets/colorwheel/../../../../src/misc/lv_math.h **** static inline LV_ATTRIBUTE_FAST_MEM int16_t lv_trigo_cos(int16_t angle)
 871              		.loc 4 49 45 view .LVU269
 872              	.LBB65:
  50:Middlewares/lvgl/src/extra/widgets/colorwheel/../../../../src/misc/lv_math.h **** {
  51:Middlewares/lvgl/src/extra/widgets/colorwheel/../../../../src/misc/lv_math.h ****     return lv_trigo_sin(angle + 90);
 873              		.loc 4 51 5 view .LVU270
 874              		.loc 4 51 31 is_stmt 0 view .LVU271
 875 003c 07F15A00 		add	r0, r7, #90
 876              		.loc 4 51 12 view .LVU272
ARM GAS  /tmp/ccAb9Zks.s 			page 51


 877 0040 00B2     		sxth	r0, r0
 878 0042 FFF7FEFF 		bl	lv_trigo_sin
 879              	.LVL87:
 880              		.loc 4 51 12 view .LVU273
 881              	.LBE65:
 882              	.LBE64:
 549:Middlewares/lvgl/src/extra/widgets/colorwheel/lv_colorwheel.c ****     colorwheel->knob.pos.x = colorwheel->knob.pos.x + w / 2;
 883              		.loc 1 549 43 view .LVU274
 884 0046 00FB04F4 		mul	r4, r0, r4
 885              	.LVL88:
 549:Middlewares/lvgl/src/extra/widgets/colorwheel/lv_colorwheel.c ****     colorwheel->knob.pos.x = colorwheel->knob.pos.x + w / 2;
 886              		.loc 1 549 28 view .LVU275
 887 004a 44F3CF34 		sbfx	r4, r4, #15, #16
 888 004e 6C85     		strh	r4, [r5, #42]	@ movhi
 550:Middlewares/lvgl/src/extra/widgets/colorwheel/lv_colorwheel.c ****     colorwheel->knob.pos.y = colorwheel->knob.pos.y + w / 2;
 889              		.loc 1 550 5 is_stmt 1 view .LVU276
 550:Middlewares/lvgl/src/extra/widgets/colorwheel/lv_colorwheel.c ****     colorwheel->knob.pos.y = colorwheel->knob.pos.y + w / 2;
 890              		.loc 1 550 50 is_stmt 0 view .LVU277
 891 0050 2B8D     		ldrh	r3, [r5, #40]
 550:Middlewares/lvgl/src/extra/widgets/colorwheel/lv_colorwheel.c ****     colorwheel->knob.pos.y = colorwheel->knob.pos.y + w / 2;
 892              		.loc 1 550 53 view .LVU278
 893 0052 3046     		mov	r0, r6
 894 0054 002E     		cmp	r6, #0
 895 0056 0CDB     		blt	.L40
 896              	.L37:
 897 0058 C0F34F00 		ubfx	r0, r0, #1, #16
 898 005c 0344     		add	r3, r3, r0
 550:Middlewares/lvgl/src/extra/widgets/colorwheel/lv_colorwheel.c ****     colorwheel->knob.pos.y = colorwheel->knob.pos.y + w / 2;
 899              		.loc 1 550 28 view .LVU279
 900 005e 2B85     		strh	r3, [r5, #40]	@ movhi
 551:Middlewares/lvgl/src/extra/widgets/colorwheel/lv_colorwheel.c **** 
 901              		.loc 1 551 5 is_stmt 1 view .LVU280
 551:Middlewares/lvgl/src/extra/widgets/colorwheel/lv_colorwheel.c **** 
 902              		.loc 1 551 53 is_stmt 0 view .LVU281
 903 0060 10FA84F4 		uxtah	r4, r0, r4
 551:Middlewares/lvgl/src/extra/widgets/colorwheel/lv_colorwheel.c **** 
 904              		.loc 1 551 28 view .LVU282
 905 0064 6C85     		strh	r4, [r5, #42]	@ movhi
 553:Middlewares/lvgl/src/extra/widgets/colorwheel/lv_colorwheel.c **** }
 906              		.loc 1 553 5 is_stmt 1 view .LVU283
 907 0066 2846     		mov	r0, r5
 908 0068 FFF7FEFF 		bl	invalidate_knob
 909              	.LVL89:
 554:Middlewares/lvgl/src/extra/widgets/colorwheel/lv_colorwheel.c **** 
 910              		.loc 1 554 1 is_stmt 0 view .LVU284
 911 006c F8BD     		pop	{r3, r4, r5, r6, r7, pc}
 912              	.LVL90:
 913              	.L39:
 546:Middlewares/lvgl/src/extra/widgets/colorwheel/lv_colorwheel.c ****     uint16_t angle = get_angle(obj);
 914              		.loc 1 546 34 view .LVU285
 915 006e 0134     		adds	r4, r4, #1
 916 0070 D7E7     		b	.L36
 917              	.LVL91:
 918              	.L40:
 550:Middlewares/lvgl/src/extra/widgets/colorwheel/lv_colorwheel.c ****     colorwheel->knob.pos.y = colorwheel->knob.pos.y + w / 2;
 919              		.loc 1 550 53 view .LVU286
 920 0072 701C     		adds	r0, r6, #1
ARM GAS  /tmp/ccAb9Zks.s 			page 52


 921 0074 F0E7     		b	.L37
 922              		.cfi_endproc
 923              	.LFE200:
 925              		.section	.text.next_color_mode,"ax",%progbits
 926              		.align	1
 927              		.syntax unified
 928              		.thumb
 929              		.thumb_func
 931              	next_color_mode:
 932              	.LVL92:
 933              	.LFB199:
 531:Middlewares/lvgl/src/extra/widgets/colorwheel/lv_colorwheel.c ****     lv_colorwheel_t * colorwheel = (lv_colorwheel_t *)obj;
 934              		.loc 1 531 1 is_stmt 1 view -0
 935              		.cfi_startproc
 936              		@ args = 0, pretend = 0, frame = 0
 937              		@ frame_needed = 0, uses_anonymous_args = 0
 531:Middlewares/lvgl/src/extra/widgets/colorwheel/lv_colorwheel.c ****     lv_colorwheel_t * colorwheel = (lv_colorwheel_t *)obj;
 938              		.loc 1 531 1 is_stmt 0 view .LVU288
 939 0000 10B5     		push	{r4, lr}
 940              	.LCFI10:
 941              		.cfi_def_cfa_offset 8
 942              		.cfi_offset 4, -8
 943              		.cfi_offset 14, -4
 944 0002 0446     		mov	r4, r0
 532:Middlewares/lvgl/src/extra/widgets/colorwheel/lv_colorwheel.c ****     colorwheel->mode = (colorwheel->mode + 1) % 3;
 945              		.loc 1 532 5 is_stmt 1 view .LVU289
 946              	.LVL93:
 533:Middlewares/lvgl/src/extra/widgets/colorwheel/lv_colorwheel.c ****     refr_knob_pos(obj);
 947              		.loc 1 533 5 view .LVU290
 533:Middlewares/lvgl/src/extra/widgets/colorwheel/lv_colorwheel.c ****     refr_knob_pos(obj);
 948              		.loc 1 533 35 is_stmt 0 view .LVU291
 949 0004 90F83C10 		ldrb	r1, [r0, #60]	@ zero_extendqisi2
 950 0008 01F00303 		and	r3, r1, #3
 533:Middlewares/lvgl/src/extra/widgets/colorwheel/lv_colorwheel.c ****     refr_knob_pos(obj);
 951              		.loc 1 533 42 view .LVU292
 952 000c 0133     		adds	r3, r3, #1
 533:Middlewares/lvgl/src/extra/widgets/colorwheel/lv_colorwheel.c ****     refr_knob_pos(obj);
 953              		.loc 1 533 47 view .LVU293
 954 000e 084A     		ldr	r2, .L43
 955 0010 82FB03C2 		smull	ip, r2, r2, r3
 956 0014 02EB4202 		add	r2, r2, r2, lsl #1
 957 0018 9B1A     		subs	r3, r3, r2
 533:Middlewares/lvgl/src/extra/widgets/colorwheel/lv_colorwheel.c ****     refr_knob_pos(obj);
 958              		.loc 1 533 22 view .LVU294
 959 001a 0A46     		mov	r2, r1
 960 001c 63F30102 		bfi	r2, r3, #0, #2
 961 0020 80F83C20 		strb	r2, [r0, #60]
 534:Middlewares/lvgl/src/extra/widgets/colorwheel/lv_colorwheel.c ****     lv_obj_invalidate(obj);
 962              		.loc 1 534 5 is_stmt 1 view .LVU295
 963 0024 FFF7FEFF 		bl	refr_knob_pos
 964              	.LVL94:
 535:Middlewares/lvgl/src/extra/widgets/colorwheel/lv_colorwheel.c **** }
 965              		.loc 1 535 5 view .LVU296
 966 0028 2046     		mov	r0, r4
 967 002a FFF7FEFF 		bl	lv_obj_invalidate
 968              	.LVL95:
 536:Middlewares/lvgl/src/extra/widgets/colorwheel/lv_colorwheel.c **** 
ARM GAS  /tmp/ccAb9Zks.s 			page 53


 969              		.loc 1 536 1 is_stmt 0 view .LVU297
 970 002e 10BD     		pop	{r4, pc}
 971              	.LVL96:
 972              	.L44:
 536:Middlewares/lvgl/src/extra/widgets/colorwheel/lv_colorwheel.c **** 
 973              		.loc 1 536 1 view .LVU298
 974              		.align	2
 975              	.L43:
 976 0030 56555555 		.word	1431655766
 977              		.cfi_endproc
 978              	.LFE199:
 980              		.section	.text.draw_disc_grad,"ax",%progbits
 981              		.align	1
 982              		.syntax unified
 983              		.thumb
 984              		.thumb_func
 986              	draw_disc_grad:
 987              	.LVL97:
 988              	.LFB194:
 234:Middlewares/lvgl/src/extra/widgets/colorwheel/lv_colorwheel.c ****     lv_obj_t * obj = lv_event_get_target(e);
 989              		.loc 1 234 1 is_stmt 1 view -0
 990              		.cfi_startproc
 991              		@ args = 0, pretend = 0, frame = 112
 992              		@ frame_needed = 0, uses_anonymous_args = 0
 234:Middlewares/lvgl/src/extra/widgets/colorwheel/lv_colorwheel.c ****     lv_obj_t * obj = lv_event_get_target(e);
 993              		.loc 1 234 1 is_stmt 0 view .LVU300
 994 0000 2DE9F04F 		push	{r4, r5, r6, r7, r8, r9, r10, fp, lr}
 995              	.LCFI11:
 996              		.cfi_def_cfa_offset 36
 997              		.cfi_offset 4, -36
 998              		.cfi_offset 5, -32
 999              		.cfi_offset 6, -28
 1000              		.cfi_offset 7, -24
 1001              		.cfi_offset 8, -20
 1002              		.cfi_offset 9, -16
 1003              		.cfi_offset 10, -12
 1004              		.cfi_offset 11, -8
 1005              		.cfi_offset 14, -4
 1006 0004 9DB0     		sub	sp, sp, #116
 1007              	.LCFI12:
 1008              		.cfi_def_cfa_offset 152
 1009 0006 0446     		mov	r4, r0
 235:Middlewares/lvgl/src/extra/widgets/colorwheel/lv_colorwheel.c ****     const lv_area_t * clip_area = lv_event_get_param(e);
 1010              		.loc 1 235 5 is_stmt 1 view .LVU301
 235:Middlewares/lvgl/src/extra/widgets/colorwheel/lv_colorwheel.c ****     const lv_area_t * clip_area = lv_event_get_param(e);
 1011              		.loc 1 235 22 is_stmt 0 view .LVU302
 1012 0008 FFF7FEFF 		bl	lv_event_get_target
 1013              	.LVL98:
 235:Middlewares/lvgl/src/extra/widgets/colorwheel/lv_colorwheel.c ****     const lv_area_t * clip_area = lv_event_get_param(e);
 1014              		.loc 1 235 22 view .LVU303
 1015 000c 0546     		mov	r5, r0
 1016 000e 0190     		str	r0, [sp, #4]
 1017              	.LVL99:
 236:Middlewares/lvgl/src/extra/widgets/colorwheel/lv_colorwheel.c ****     lv_coord_t w = lv_obj_get_width(obj);
 1018              		.loc 1 236 5 is_stmt 1 view .LVU304
 236:Middlewares/lvgl/src/extra/widgets/colorwheel/lv_colorwheel.c ****     lv_coord_t w = lv_obj_get_width(obj);
 1019              		.loc 1 236 35 is_stmt 0 view .LVU305
ARM GAS  /tmp/ccAb9Zks.s 			page 54


 1020 0010 2046     		mov	r0, r4
 1021              	.LVL100:
 236:Middlewares/lvgl/src/extra/widgets/colorwheel/lv_colorwheel.c ****     lv_coord_t w = lv_obj_get_width(obj);
 1022              		.loc 1 236 35 view .LVU306
 1023 0012 FFF7FEFF 		bl	lv_event_get_param
 1024              	.LVL101:
 1025 0016 0290     		str	r0, [sp, #8]
 1026              	.LVL102:
 237:Middlewares/lvgl/src/extra/widgets/colorwheel/lv_colorwheel.c ****     lv_coord_t h = lv_obj_get_height(obj);
 1027              		.loc 1 237 5 is_stmt 1 view .LVU307
 237:Middlewares/lvgl/src/extra/widgets/colorwheel/lv_colorwheel.c ****     lv_coord_t h = lv_obj_get_height(obj);
 1028              		.loc 1 237 20 is_stmt 0 view .LVU308
 1029 0018 2846     		mov	r0, r5
 1030              	.LVL103:
 237:Middlewares/lvgl/src/extra/widgets/colorwheel/lv_colorwheel.c ****     lv_coord_t h = lv_obj_get_height(obj);
 1031              		.loc 1 237 20 view .LVU309
 1032 001a FFF7FEFF 		bl	lv_obj_get_width
 1033              	.LVL104:
 1034 001e 0446     		mov	r4, r0
 1035              	.LVL105:
 238:Middlewares/lvgl/src/extra/widgets/colorwheel/lv_colorwheel.c ****     lv_coord_t cx = obj->coords.x1 + w / 2;
 1036              		.loc 1 238 5 is_stmt 1 view .LVU310
 238:Middlewares/lvgl/src/extra/widgets/colorwheel/lv_colorwheel.c ****     lv_coord_t cx = obj->coords.x1 + w / 2;
 1037              		.loc 1 238 20 is_stmt 0 view .LVU311
 1038 0020 2846     		mov	r0, r5
 1039 0022 FFF7FEFF 		bl	lv_obj_get_height
 1040              	.LVL106:
 239:Middlewares/lvgl/src/extra/widgets/colorwheel/lv_colorwheel.c ****     lv_coord_t cy = obj->coords.y1 + h / 2;
 1041              		.loc 1 239 5 is_stmt 1 view .LVU312
 239:Middlewares/lvgl/src/extra/widgets/colorwheel/lv_colorwheel.c ****     lv_coord_t cy = obj->coords.y1 + h / 2;
 1042              		.loc 1 239 32 is_stmt 0 view .LVU313
 1043 0026 B5F814B0 		ldrh	fp, [r5, #20]
 239:Middlewares/lvgl/src/extra/widgets/colorwheel/lv_colorwheel.c ****     lv_coord_t cy = obj->coords.y1 + h / 2;
 1044              		.loc 1 239 36 view .LVU314
 1045 002a A146     		mov	r9, r4
 1046 002c 002C     		cmp	r4, #0
 1047 002e 6CDB     		blt	.L51
 1048              	.L46:
 1049 0030 49F34F09 		sbfx	r9, r9, #1, #16
 1050 0034 CB44     		add	fp, fp, r9
 1051 0036 1FFA8BFB 		uxth	fp, fp
 1052              	.LVL107:
 240:Middlewares/lvgl/src/extra/widgets/colorwheel/lv_colorwheel.c ****     lv_coord_t r = w / 2;
 1053              		.loc 1 240 5 is_stmt 1 view .LVU315
 240:Middlewares/lvgl/src/extra/widgets/colorwheel/lv_colorwheel.c ****     lv_coord_t r = w / 2;
 1054              		.loc 1 240 32 is_stmt 0 view .LVU316
 1055 003a 019B     		ldr	r3, [sp, #4]
 1056 003c B3F816A0 		ldrh	r10, [r3, #22]
 240:Middlewares/lvgl/src/extra/widgets/colorwheel/lv_colorwheel.c ****     lv_coord_t r = w / 2;
 1057              		.loc 1 240 36 view .LVU317
 1058 0040 0346     		mov	r3, r0
 1059 0042 0028     		cmp	r0, #0
 1060 0044 64DB     		blt	.L52
 1061              	.L47:
 1062 0046 0AEB630A 		add	r10, r10, r3, asr #1
 1063 004a 1FFA8AFA 		uxth	r10, r10
 1064              	.LVL108:
ARM GAS  /tmp/ccAb9Zks.s 			page 55


 241:Middlewares/lvgl/src/extra/widgets/colorwheel/lv_colorwheel.c **** 
 1065              		.loc 1 241 5 is_stmt 1 view .LVU318
 243:Middlewares/lvgl/src/extra/widgets/colorwheel/lv_colorwheel.c ****     lv_draw_line_dsc_init(&line_dsc);
 1066              		.loc 1 243 5 view .LVU319
 244:Middlewares/lvgl/src/extra/widgets/colorwheel/lv_colorwheel.c ****     lv_obj_init_draw_line_dsc(obj, LV_PART_MAIN, &line_dsc);
 1067              		.loc 1 244 5 view .LVU320
 1068 004e 19A8     		add	r0, sp, #100
 1069              	.LVL109:
 244:Middlewares/lvgl/src/extra/widgets/colorwheel/lv_colorwheel.c ****     lv_obj_init_draw_line_dsc(obj, LV_PART_MAIN, &line_dsc);
 1070              		.loc 1 244 5 is_stmt 0 view .LVU321
 1071 0050 FFF7FEFF 		bl	lv_draw_line_dsc_init
 1072              	.LVL110:
 245:Middlewares/lvgl/src/extra/widgets/colorwheel/lv_colorwheel.c **** 
 1073              		.loc 1 245 5 is_stmt 1 view .LVU322
 1074 0054 19AA     		add	r2, sp, #100
 1075 0056 0021     		movs	r1, #0
 1076 0058 019D     		ldr	r5, [sp, #4]
 1077              	.LVL111:
 245:Middlewares/lvgl/src/extra/widgets/colorwheel/lv_colorwheel.c **** 
 1078              		.loc 1 245 5 is_stmt 0 view .LVU323
 1079 005a 2846     		mov	r0, r5
 1080 005c FFF7FEFF 		bl	lv_obj_init_draw_line_dsc
 1081              	.LVL112:
 247:Middlewares/lvgl/src/extra/widgets/colorwheel/lv_colorwheel.c ****     line_dsc.width += 2;
 1082              		.loc 1 247 5 is_stmt 1 view .LVU324
 247:Middlewares/lvgl/src/extra/widgets/colorwheel/lv_colorwheel.c ****     line_dsc.width += 2;
 1083              		.loc 1 247 25 is_stmt 0 view .LVU325
 1084 0060 4FF41D73 		mov	r3, #628
 1085 0064 03FB09F3 		mul	r3, r3, r9
 247:Middlewares/lvgl/src/extra/widgets/colorwheel/lv_colorwheel.c ****     line_dsc.width += 2;
 1086              		.loc 1 247 60 view .LVU326
 1087 0068 514A     		ldr	r2, .L53
 1088 006a 82FB0312 		smull	r1, r2, r2, r3
 1089 006e DB17     		asrs	r3, r3, #31
 1090 0070 C3EB2233 		rsb	r3, r3, r2, asr #12
 247:Middlewares/lvgl/src/extra/widgets/colorwheel/lv_colorwheel.c ****     line_dsc.width += 2;
 1091              		.loc 1 247 20 view .LVU327
 1092 0074 1BB2     		sxth	r3, r3
 1093 0076 ADF86630 		strh	r3, [sp, #102]	@ movhi
 248:Middlewares/lvgl/src/extra/widgets/colorwheel/lv_colorwheel.c ****     uint16_t i;
 1094              		.loc 1 248 5 is_stmt 1 view .LVU328
 248:Middlewares/lvgl/src/extra/widgets/colorwheel/lv_colorwheel.c ****     uint16_t i;
 1095              		.loc 1 248 20 is_stmt 0 view .LVU329
 1096 007a 0233     		adds	r3, r3, #2
 1097 007c ADF86630 		strh	r3, [sp, #102]	@ movhi
 249:Middlewares/lvgl/src/extra/widgets/colorwheel/lv_colorwheel.c ****     uint32_t a = 0;
 1098              		.loc 1 249 5 is_stmt 1 view .LVU330
 250:Middlewares/lvgl/src/extra/widgets/colorwheel/lv_colorwheel.c ****     lv_coord_t cir_w = lv_obj_get_style_arc_width(obj, LV_PART_MAIN);
 1099              		.loc 1 250 5 view .LVU331
 1100              	.LVL113:
 251:Middlewares/lvgl/src/extra/widgets/colorwheel/lv_colorwheel.c **** 
 1101              		.loc 1 251 5 view .LVU332
 1102              	.LBB66:
 1103              	.LBI66:
 499:Middlewares/lvgl/src/extra/widgets/colorwheel/../../../../src/core/lv_obj_style_gen.h **** {
 1104              		.loc 3 499 26 view .LVU333
 1105              	.LBB67:
ARM GAS  /tmp/ccAb9Zks.s 			page 56


 501:Middlewares/lvgl/src/extra/widgets/colorwheel/../../../../src/core/lv_obj_style_gen.h ****     return (lv_coord_t)v.num;
 1106              		.loc 3 501 5 view .LVU334
 501:Middlewares/lvgl/src/extra/widgets/colorwheel/../../../../src/core/lv_obj_style_gen.h ****     return (lv_coord_t)v.num;
 1107              		.loc 3 501 26 is_stmt 0 view .LVU335
 1108 0080 4FF40562 		mov	r2, #2128
 1109 0084 0021     		movs	r1, #0
 1110 0086 2846     		mov	r0, r5
 1111 0088 FFF7FEFF 		bl	lv_obj_get_style_prop
 1112              	.LVL114:
 1113 008c 0446     		mov	r4, r0
 1114              	.LVL115:
 1115              		.loc 3 502 5 is_stmt 1 view .LVU336
 1116              		.loc 3 502 12 is_stmt 0 view .LVU337
 1117 008e 03B2     		sxth	r3, r0
 1118 0090 0393     		str	r3, [sp, #12]
 1119              	.LVL116:
 1120              		.loc 3 502 12 view .LVU338
 1121              	.LBE67:
 1122              	.LBE66:
 255:Middlewares/lvgl/src/extra/widgets/colorwheel/lv_colorwheel.c ****     lv_draw_mask_radius_init(&mask_out_param, &obj->coords, LV_RADIUS_CIRCLE, false);
 1123              		.loc 1 255 5 is_stmt 1 view .LVU339
 256:Middlewares/lvgl/src/extra/widgets/colorwheel/lv_colorwheel.c ****     int16_t mask_out_id = lv_draw_mask_add(&mask_out_param, 0);
 1124              		.loc 1 256 5 view .LVU340
 1125 0092 0023     		movs	r3, #0
 1126 0094 47F6FF72 		movw	r2, #32767
 1127 0098 05F11401 		add	r1, r5, #20
 1128 009c 12A8     		add	r0, sp, #72
 256:Middlewares/lvgl/src/extra/widgets/colorwheel/lv_colorwheel.c ****     int16_t mask_out_id = lv_draw_mask_add(&mask_out_param, 0);
 1129              		.loc 1 256 5 is_stmt 0 view .LVU341
 1130 009e FFF7FEFF 		bl	lv_draw_mask_radius_init
 1131              	.LVL117:
 257:Middlewares/lvgl/src/extra/widgets/colorwheel/lv_colorwheel.c **** 
 1132              		.loc 1 257 5 is_stmt 1 view .LVU342
 257:Middlewares/lvgl/src/extra/widgets/colorwheel/lv_colorwheel.c **** 
 1133              		.loc 1 257 27 is_stmt 0 view .LVU343
 1134 00a2 0021     		movs	r1, #0
 1135 00a4 12A8     		add	r0, sp, #72
 1136 00a6 FFF7FEFF 		bl	lv_draw_mask_add
 1137              	.LVL118:
 1138 00aa 0490     		str	r0, [sp, #16]
 1139              	.LVL119:
 259:Middlewares/lvgl/src/extra/widgets/colorwheel/lv_colorwheel.c ****     lv_area_copy(&mask_area, &obj->coords);
 1140              		.loc 1 259 5 is_stmt 1 view .LVU344
 260:Middlewares/lvgl/src/extra/widgets/colorwheel/lv_colorwheel.c ****     mask_area.x1 += cir_w;
 1141              		.loc 1 260 5 view .LVU345
 1142              	.LBB68:
 1143              	.LBI68:
 1144              		.file 5 "Middlewares/lvgl/src/extra/widgets/colorwheel/../../../../src/hal/../misc/lv_area.h"
   1:Middlewares/lvgl/src/extra/widgets/colorwheel/../../../../src/hal/../misc/lv_area.h **** /**
   2:Middlewares/lvgl/src/extra/widgets/colorwheel/../../../../src/hal/../misc/lv_area.h ****  * @file lv_area.h
   3:Middlewares/lvgl/src/extra/widgets/colorwheel/../../../../src/hal/../misc/lv_area.h ****  *
   4:Middlewares/lvgl/src/extra/widgets/colorwheel/../../../../src/hal/../misc/lv_area.h ****  */
   5:Middlewares/lvgl/src/extra/widgets/colorwheel/../../../../src/hal/../misc/lv_area.h **** 
   6:Middlewares/lvgl/src/extra/widgets/colorwheel/../../../../src/hal/../misc/lv_area.h **** #ifndef LV_AREA_H
   7:Middlewares/lvgl/src/extra/widgets/colorwheel/../../../../src/hal/../misc/lv_area.h **** #define LV_AREA_H
   8:Middlewares/lvgl/src/extra/widgets/colorwheel/../../../../src/hal/../misc/lv_area.h **** 
   9:Middlewares/lvgl/src/extra/widgets/colorwheel/../../../../src/hal/../misc/lv_area.h **** #ifdef __cplusplus
ARM GAS  /tmp/ccAb9Zks.s 			page 57


  10:Middlewares/lvgl/src/extra/widgets/colorwheel/../../../../src/hal/../misc/lv_area.h **** extern "C" {
  11:Middlewares/lvgl/src/extra/widgets/colorwheel/../../../../src/hal/../misc/lv_area.h **** #endif
  12:Middlewares/lvgl/src/extra/widgets/colorwheel/../../../../src/hal/../misc/lv_area.h **** 
  13:Middlewares/lvgl/src/extra/widgets/colorwheel/../../../../src/hal/../misc/lv_area.h **** /*********************
  14:Middlewares/lvgl/src/extra/widgets/colorwheel/../../../../src/hal/../misc/lv_area.h ****  *      INCLUDES
  15:Middlewares/lvgl/src/extra/widgets/colorwheel/../../../../src/hal/../misc/lv_area.h ****  *********************/
  16:Middlewares/lvgl/src/extra/widgets/colorwheel/../../../../src/hal/../misc/lv_area.h **** #include "../lv_conf_internal.h"
  17:Middlewares/lvgl/src/extra/widgets/colorwheel/../../../../src/hal/../misc/lv_area.h **** #include <string.h>
  18:Middlewares/lvgl/src/extra/widgets/colorwheel/../../../../src/hal/../misc/lv_area.h **** #include <stdbool.h>
  19:Middlewares/lvgl/src/extra/widgets/colorwheel/../../../../src/hal/../misc/lv_area.h **** #include <stdint.h>
  20:Middlewares/lvgl/src/extra/widgets/colorwheel/../../../../src/hal/../misc/lv_area.h **** 
  21:Middlewares/lvgl/src/extra/widgets/colorwheel/../../../../src/hal/../misc/lv_area.h **** /*********************
  22:Middlewares/lvgl/src/extra/widgets/colorwheel/../../../../src/hal/../misc/lv_area.h ****  *      DEFINES
  23:Middlewares/lvgl/src/extra/widgets/colorwheel/../../../../src/hal/../misc/lv_area.h ****  *********************/
  24:Middlewares/lvgl/src/extra/widgets/colorwheel/../../../../src/hal/../misc/lv_area.h **** 
  25:Middlewares/lvgl/src/extra/widgets/colorwheel/../../../../src/hal/../misc/lv_area.h **** #define _LV_COORD_MAX_REDUCE    8192
  26:Middlewares/lvgl/src/extra/widgets/colorwheel/../../../../src/hal/../misc/lv_area.h **** 
  27:Middlewares/lvgl/src/extra/widgets/colorwheel/../../../../src/hal/../misc/lv_area.h **** #if LV_USE_LARGE_COORD
  28:Middlewares/lvgl/src/extra/widgets/colorwheel/../../../../src/hal/../misc/lv_area.h **** typedef int32_t lv_coord_t;
  29:Middlewares/lvgl/src/extra/widgets/colorwheel/../../../../src/hal/../misc/lv_area.h **** #else
  30:Middlewares/lvgl/src/extra/widgets/colorwheel/../../../../src/hal/../misc/lv_area.h **** typedef int16_t lv_coord_t;
  31:Middlewares/lvgl/src/extra/widgets/colorwheel/../../../../src/hal/../misc/lv_area.h **** #endif
  32:Middlewares/lvgl/src/extra/widgets/colorwheel/../../../../src/hal/../misc/lv_area.h **** 
  33:Middlewares/lvgl/src/extra/widgets/colorwheel/../../../../src/hal/../misc/lv_area.h **** /*To allow some special values in the end reduce the max value*/
  34:Middlewares/lvgl/src/extra/widgets/colorwheel/../../../../src/hal/../misc/lv_area.h **** #define LV_COORD_MAX ((lv_coord_t)((uint32_t)((uint32_t)1 << (8 * sizeof(lv_coord_t) - 1)) - _LV_CO
  35:Middlewares/lvgl/src/extra/widgets/colorwheel/../../../../src/hal/../misc/lv_area.h **** #define LV_COORD_MIN (-LV_COORD_MAX)
  36:Middlewares/lvgl/src/extra/widgets/colorwheel/../../../../src/hal/../misc/lv_area.h **** 
  37:Middlewares/lvgl/src/extra/widgets/colorwheel/../../../../src/hal/../misc/lv_area.h **** LV_EXPORT_CONST_INT(LV_COORD_MAX);
  38:Middlewares/lvgl/src/extra/widgets/colorwheel/../../../../src/hal/../misc/lv_area.h **** LV_EXPORT_CONST_INT(LV_COORD_MIN);
  39:Middlewares/lvgl/src/extra/widgets/colorwheel/../../../../src/hal/../misc/lv_area.h **** 
  40:Middlewares/lvgl/src/extra/widgets/colorwheel/../../../../src/hal/../misc/lv_area.h **** /**********************
  41:Middlewares/lvgl/src/extra/widgets/colorwheel/../../../../src/hal/../misc/lv_area.h ****  *      TYPEDEFS
  42:Middlewares/lvgl/src/extra/widgets/colorwheel/../../../../src/hal/../misc/lv_area.h ****  **********************/
  43:Middlewares/lvgl/src/extra/widgets/colorwheel/../../../../src/hal/../misc/lv_area.h **** 
  44:Middlewares/lvgl/src/extra/widgets/colorwheel/../../../../src/hal/../misc/lv_area.h **** /**
  45:Middlewares/lvgl/src/extra/widgets/colorwheel/../../../../src/hal/../misc/lv_area.h ****  * Represents a point on the screen.
  46:Middlewares/lvgl/src/extra/widgets/colorwheel/../../../../src/hal/../misc/lv_area.h ****  */
  47:Middlewares/lvgl/src/extra/widgets/colorwheel/../../../../src/hal/../misc/lv_area.h **** typedef struct {
  48:Middlewares/lvgl/src/extra/widgets/colorwheel/../../../../src/hal/../misc/lv_area.h ****     lv_coord_t x;
  49:Middlewares/lvgl/src/extra/widgets/colorwheel/../../../../src/hal/../misc/lv_area.h ****     lv_coord_t y;
  50:Middlewares/lvgl/src/extra/widgets/colorwheel/../../../../src/hal/../misc/lv_area.h **** } lv_point_t;
  51:Middlewares/lvgl/src/extra/widgets/colorwheel/../../../../src/hal/../misc/lv_area.h **** 
  52:Middlewares/lvgl/src/extra/widgets/colorwheel/../../../../src/hal/../misc/lv_area.h **** /** Represents an area of the screen.*/
  53:Middlewares/lvgl/src/extra/widgets/colorwheel/../../../../src/hal/../misc/lv_area.h **** typedef struct {
  54:Middlewares/lvgl/src/extra/widgets/colorwheel/../../../../src/hal/../misc/lv_area.h ****     lv_coord_t x1;
  55:Middlewares/lvgl/src/extra/widgets/colorwheel/../../../../src/hal/../misc/lv_area.h ****     lv_coord_t y1;
  56:Middlewares/lvgl/src/extra/widgets/colorwheel/../../../../src/hal/../misc/lv_area.h ****     lv_coord_t x2;
  57:Middlewares/lvgl/src/extra/widgets/colorwheel/../../../../src/hal/../misc/lv_area.h ****     lv_coord_t y2;
  58:Middlewares/lvgl/src/extra/widgets/colorwheel/../../../../src/hal/../misc/lv_area.h **** } lv_area_t;
  59:Middlewares/lvgl/src/extra/widgets/colorwheel/../../../../src/hal/../misc/lv_area.h **** 
  60:Middlewares/lvgl/src/extra/widgets/colorwheel/../../../../src/hal/../misc/lv_area.h **** /** Alignments*/
  61:Middlewares/lvgl/src/extra/widgets/colorwheel/../../../../src/hal/../misc/lv_area.h **** enum {
  62:Middlewares/lvgl/src/extra/widgets/colorwheel/../../../../src/hal/../misc/lv_area.h ****     LV_ALIGN_DEFAULT = 0,
  63:Middlewares/lvgl/src/extra/widgets/colorwheel/../../../../src/hal/../misc/lv_area.h ****     LV_ALIGN_TOP_LEFT,
  64:Middlewares/lvgl/src/extra/widgets/colorwheel/../../../../src/hal/../misc/lv_area.h ****     LV_ALIGN_TOP_MID,
  65:Middlewares/lvgl/src/extra/widgets/colorwheel/../../../../src/hal/../misc/lv_area.h ****     LV_ALIGN_TOP_RIGHT,
  66:Middlewares/lvgl/src/extra/widgets/colorwheel/../../../../src/hal/../misc/lv_area.h ****     LV_ALIGN_BOTTOM_LEFT,
ARM GAS  /tmp/ccAb9Zks.s 			page 58


  67:Middlewares/lvgl/src/extra/widgets/colorwheel/../../../../src/hal/../misc/lv_area.h ****     LV_ALIGN_BOTTOM_MID,
  68:Middlewares/lvgl/src/extra/widgets/colorwheel/../../../../src/hal/../misc/lv_area.h ****     LV_ALIGN_BOTTOM_RIGHT,
  69:Middlewares/lvgl/src/extra/widgets/colorwheel/../../../../src/hal/../misc/lv_area.h ****     LV_ALIGN_LEFT_MID,
  70:Middlewares/lvgl/src/extra/widgets/colorwheel/../../../../src/hal/../misc/lv_area.h ****     LV_ALIGN_RIGHT_MID,
  71:Middlewares/lvgl/src/extra/widgets/colorwheel/../../../../src/hal/../misc/lv_area.h ****     LV_ALIGN_CENTER,
  72:Middlewares/lvgl/src/extra/widgets/colorwheel/../../../../src/hal/../misc/lv_area.h **** 
  73:Middlewares/lvgl/src/extra/widgets/colorwheel/../../../../src/hal/../misc/lv_area.h ****     LV_ALIGN_OUT_TOP_LEFT,
  74:Middlewares/lvgl/src/extra/widgets/colorwheel/../../../../src/hal/../misc/lv_area.h ****     LV_ALIGN_OUT_TOP_MID,
  75:Middlewares/lvgl/src/extra/widgets/colorwheel/../../../../src/hal/../misc/lv_area.h ****     LV_ALIGN_OUT_TOP_RIGHT,
  76:Middlewares/lvgl/src/extra/widgets/colorwheel/../../../../src/hal/../misc/lv_area.h ****     LV_ALIGN_OUT_BOTTOM_LEFT,
  77:Middlewares/lvgl/src/extra/widgets/colorwheel/../../../../src/hal/../misc/lv_area.h ****     LV_ALIGN_OUT_BOTTOM_MID,
  78:Middlewares/lvgl/src/extra/widgets/colorwheel/../../../../src/hal/../misc/lv_area.h ****     LV_ALIGN_OUT_BOTTOM_RIGHT,
  79:Middlewares/lvgl/src/extra/widgets/colorwheel/../../../../src/hal/../misc/lv_area.h ****     LV_ALIGN_OUT_LEFT_TOP,
  80:Middlewares/lvgl/src/extra/widgets/colorwheel/../../../../src/hal/../misc/lv_area.h ****     LV_ALIGN_OUT_LEFT_MID,
  81:Middlewares/lvgl/src/extra/widgets/colorwheel/../../../../src/hal/../misc/lv_area.h ****     LV_ALIGN_OUT_LEFT_BOTTOM,
  82:Middlewares/lvgl/src/extra/widgets/colorwheel/../../../../src/hal/../misc/lv_area.h ****     LV_ALIGN_OUT_RIGHT_TOP,
  83:Middlewares/lvgl/src/extra/widgets/colorwheel/../../../../src/hal/../misc/lv_area.h ****     LV_ALIGN_OUT_RIGHT_MID,
  84:Middlewares/lvgl/src/extra/widgets/colorwheel/../../../../src/hal/../misc/lv_area.h ****     LV_ALIGN_OUT_RIGHT_BOTTOM,
  85:Middlewares/lvgl/src/extra/widgets/colorwheel/../../../../src/hal/../misc/lv_area.h **** };
  86:Middlewares/lvgl/src/extra/widgets/colorwheel/../../../../src/hal/../misc/lv_area.h **** typedef uint8_t lv_align_t;
  87:Middlewares/lvgl/src/extra/widgets/colorwheel/../../../../src/hal/../misc/lv_area.h **** 
  88:Middlewares/lvgl/src/extra/widgets/colorwheel/../../../../src/hal/../misc/lv_area.h **** enum {
  89:Middlewares/lvgl/src/extra/widgets/colorwheel/../../../../src/hal/../misc/lv_area.h ****     LV_DIR_NONE     = 0x00,
  90:Middlewares/lvgl/src/extra/widgets/colorwheel/../../../../src/hal/../misc/lv_area.h ****     LV_DIR_LEFT     = (1 << 0),
  91:Middlewares/lvgl/src/extra/widgets/colorwheel/../../../../src/hal/../misc/lv_area.h ****     LV_DIR_RIGHT    = (1 << 1),
  92:Middlewares/lvgl/src/extra/widgets/colorwheel/../../../../src/hal/../misc/lv_area.h ****     LV_DIR_TOP      = (1 << 2),
  93:Middlewares/lvgl/src/extra/widgets/colorwheel/../../../../src/hal/../misc/lv_area.h ****     LV_DIR_BOTTOM   = (1 << 3),
  94:Middlewares/lvgl/src/extra/widgets/colorwheel/../../../../src/hal/../misc/lv_area.h ****     LV_DIR_HOR      = LV_DIR_LEFT | LV_DIR_RIGHT,
  95:Middlewares/lvgl/src/extra/widgets/colorwheel/../../../../src/hal/../misc/lv_area.h ****     LV_DIR_VER      = LV_DIR_TOP | LV_DIR_BOTTOM,
  96:Middlewares/lvgl/src/extra/widgets/colorwheel/../../../../src/hal/../misc/lv_area.h ****     LV_DIR_ALL      = LV_DIR_HOR | LV_DIR_VER,
  97:Middlewares/lvgl/src/extra/widgets/colorwheel/../../../../src/hal/../misc/lv_area.h **** };
  98:Middlewares/lvgl/src/extra/widgets/colorwheel/../../../../src/hal/../misc/lv_area.h **** 
  99:Middlewares/lvgl/src/extra/widgets/colorwheel/../../../../src/hal/../misc/lv_area.h **** typedef uint8_t lv_dir_t;
 100:Middlewares/lvgl/src/extra/widgets/colorwheel/../../../../src/hal/../misc/lv_area.h **** 
 101:Middlewares/lvgl/src/extra/widgets/colorwheel/../../../../src/hal/../misc/lv_area.h **** /**********************
 102:Middlewares/lvgl/src/extra/widgets/colorwheel/../../../../src/hal/../misc/lv_area.h ****  * GLOBAL PROTOTYPES
 103:Middlewares/lvgl/src/extra/widgets/colorwheel/../../../../src/hal/../misc/lv_area.h ****  **********************/
 104:Middlewares/lvgl/src/extra/widgets/colorwheel/../../../../src/hal/../misc/lv_area.h **** 
 105:Middlewares/lvgl/src/extra/widgets/colorwheel/../../../../src/hal/../misc/lv_area.h **** /**
 106:Middlewares/lvgl/src/extra/widgets/colorwheel/../../../../src/hal/../misc/lv_area.h ****  * Initialize an area
 107:Middlewares/lvgl/src/extra/widgets/colorwheel/../../../../src/hal/../misc/lv_area.h ****  * @param area_p pointer to an area
 108:Middlewares/lvgl/src/extra/widgets/colorwheel/../../../../src/hal/../misc/lv_area.h ****  * @param x1 left coordinate of the area
 109:Middlewares/lvgl/src/extra/widgets/colorwheel/../../../../src/hal/../misc/lv_area.h ****  * @param y1 top coordinate of the area
 110:Middlewares/lvgl/src/extra/widgets/colorwheel/../../../../src/hal/../misc/lv_area.h ****  * @param x2 right coordinate of the area
 111:Middlewares/lvgl/src/extra/widgets/colorwheel/../../../../src/hal/../misc/lv_area.h ****  * @param y2 bottom coordinate of the area
 112:Middlewares/lvgl/src/extra/widgets/colorwheel/../../../../src/hal/../misc/lv_area.h ****  */
 113:Middlewares/lvgl/src/extra/widgets/colorwheel/../../../../src/hal/../misc/lv_area.h **** void lv_area_set(lv_area_t * area_p, lv_coord_t x1, lv_coord_t y1, lv_coord_t x2, lv_coord_t y2);
 114:Middlewares/lvgl/src/extra/widgets/colorwheel/../../../../src/hal/../misc/lv_area.h **** 
 115:Middlewares/lvgl/src/extra/widgets/colorwheel/../../../../src/hal/../misc/lv_area.h **** /**
 116:Middlewares/lvgl/src/extra/widgets/colorwheel/../../../../src/hal/../misc/lv_area.h ****  * Copy an area
 117:Middlewares/lvgl/src/extra/widgets/colorwheel/../../../../src/hal/../misc/lv_area.h ****  * @param dest pointer to the destination area
 118:Middlewares/lvgl/src/extra/widgets/colorwheel/../../../../src/hal/../misc/lv_area.h ****  * @param src pointer to the source area
 119:Middlewares/lvgl/src/extra/widgets/colorwheel/../../../../src/hal/../misc/lv_area.h ****  */
 120:Middlewares/lvgl/src/extra/widgets/colorwheel/../../../../src/hal/../misc/lv_area.h **** inline static void lv_area_copy(lv_area_t * dest, const lv_area_t * src)
 1145              		.loc 5 120 20 view .LVU346
 1146              	.LBB69:
 121:Middlewares/lvgl/src/extra/widgets/colorwheel/../../../../src/hal/../misc/lv_area.h **** {
ARM GAS  /tmp/ccAb9Zks.s 			page 59


 122:Middlewares/lvgl/src/extra/widgets/colorwheel/../../../../src/hal/../misc/lv_area.h ****     dest->x1 = src->x1;
 1147              		.loc 5 122 5 view .LVU347
 1148              		.loc 5 122 19 is_stmt 0 view .LVU348
 1149 00ac B5F91400 		ldrsh	r0, [r5, #20]
 1150              		.loc 5 122 14 view .LVU349
 1151 00b0 ADF84000 		strh	r0, [sp, #64]	@ movhi
 123:Middlewares/lvgl/src/extra/widgets/colorwheel/../../../../src/hal/../misc/lv_area.h ****     dest->y1 = src->y1;
 1152              		.loc 5 123 5 is_stmt 1 view .LVU350
 1153              		.loc 5 123 19 is_stmt 0 view .LVU351
 1154 00b4 B5F91620 		ldrsh	r2, [r5, #22]
 1155              		.loc 5 123 14 view .LVU352
 1156 00b8 ADF84220 		strh	r2, [sp, #66]	@ movhi
 124:Middlewares/lvgl/src/extra/widgets/colorwheel/../../../../src/hal/../misc/lv_area.h ****     dest->x2 = src->x2;
 1157              		.loc 5 124 5 is_stmt 1 view .LVU353
 1158              		.loc 5 124 19 is_stmt 0 view .LVU354
 1159 00bc B5F91810 		ldrsh	r1, [r5, #24]
 1160              		.loc 5 124 14 view .LVU355
 1161 00c0 ADF84410 		strh	r1, [sp, #68]	@ movhi
 125:Middlewares/lvgl/src/extra/widgets/colorwheel/../../../../src/hal/../misc/lv_area.h ****     dest->y2 = src->y2;
 1162              		.loc 5 125 5 is_stmt 1 view .LVU356
 1163              		.loc 5 125 19 is_stmt 0 view .LVU357
 1164 00c4 B5F91A30 		ldrsh	r3, [r5, #26]
 1165              		.loc 5 125 14 view .LVU358
 1166 00c8 ADF84630 		strh	r3, [sp, #70]	@ movhi
 1167              	.LVL120:
 1168              		.loc 5 125 14 view .LVU359
 1169              	.LBE69:
 1170              	.LBE68:
 261:Middlewares/lvgl/src/extra/widgets/colorwheel/lv_colorwheel.c ****     mask_area.x2 -= cir_w;
 1171              		.loc 1 261 5 is_stmt 1 view .LVU360
 261:Middlewares/lvgl/src/extra/widgets/colorwheel/lv_colorwheel.c ****     mask_area.x2 -= cir_w;
 1172              		.loc 1 261 18 is_stmt 0 view .LVU361
 1173 00cc A4B2     		uxth	r4, r4
 261:Middlewares/lvgl/src/extra/widgets/colorwheel/lv_colorwheel.c ****     mask_area.x2 -= cir_w;
 1174              		.loc 1 261 18 view .LVU362
 1175 00ce 2044     		add	r0, r0, r4
 1176 00d0 ADF84000 		strh	r0, [sp, #64]	@ movhi
 262:Middlewares/lvgl/src/extra/widgets/colorwheel/lv_colorwheel.c ****     mask_area.y1 += cir_w;
 1177              		.loc 1 262 5 is_stmt 1 view .LVU363
 262:Middlewares/lvgl/src/extra/widgets/colorwheel/lv_colorwheel.c ****     mask_area.y1 += cir_w;
 1178              		.loc 1 262 18 is_stmt 0 view .LVU364
 1179 00d4 091B     		subs	r1, r1, r4
 1180 00d6 ADF84410 		strh	r1, [sp, #68]	@ movhi
 263:Middlewares/lvgl/src/extra/widgets/colorwheel/lv_colorwheel.c ****     mask_area.y2 -= cir_w;
 1181              		.loc 1 263 5 is_stmt 1 view .LVU365
 263:Middlewares/lvgl/src/extra/widgets/colorwheel/lv_colorwheel.c ****     mask_area.y2 -= cir_w;
 1182              		.loc 1 263 18 is_stmt 0 view .LVU366
 1183 00da 2244     		add	r2, r2, r4
 1184 00dc ADF84220 		strh	r2, [sp, #66]	@ movhi
 264:Middlewares/lvgl/src/extra/widgets/colorwheel/lv_colorwheel.c ****     lv_draw_mask_radius_param_t mask_in_param;
 1185              		.loc 1 264 5 is_stmt 1 view .LVU367
 264:Middlewares/lvgl/src/extra/widgets/colorwheel/lv_colorwheel.c ****     lv_draw_mask_radius_param_t mask_in_param;
 1186              		.loc 1 264 18 is_stmt 0 view .LVU368
 1187 00e0 1B1B     		subs	r3, r3, r4
 1188 00e2 ADF84630 		strh	r3, [sp, #70]	@ movhi
 265:Middlewares/lvgl/src/extra/widgets/colorwheel/lv_colorwheel.c ****     lv_draw_mask_radius_init(&mask_in_param, &mask_area, LV_RADIUS_CIRCLE, true);
 1189              		.loc 1 265 5 is_stmt 1 view .LVU369
ARM GAS  /tmp/ccAb9Zks.s 			page 60


 266:Middlewares/lvgl/src/extra/widgets/colorwheel/lv_colorwheel.c ****     int16_t mask_in_id = lv_draw_mask_add(&mask_in_param, 0);
 1190              		.loc 1 266 5 view .LVU370
 1191 00e6 0123     		movs	r3, #1
 1192 00e8 47F6FF72 		movw	r2, #32767
 1193 00ec 10A9     		add	r1, sp, #64
 1194 00ee 09A8     		add	r0, sp, #36
 1195 00f0 FFF7FEFF 		bl	lv_draw_mask_radius_init
 1196              	.LVL121:
 267:Middlewares/lvgl/src/extra/widgets/colorwheel/lv_colorwheel.c **** 
 1197              		.loc 1 267 5 view .LVU371
 267:Middlewares/lvgl/src/extra/widgets/colorwheel/lv_colorwheel.c **** 
 1198              		.loc 1 267 26 is_stmt 0 view .LVU372
 1199 00f4 0021     		movs	r1, #0
 1200 00f6 09A8     		add	r0, sp, #36
 1201 00f8 FFF7FEFF 		bl	lv_draw_mask_add
 1202              	.LVL122:
 1203 00fc 0590     		str	r0, [sp, #20]
 1204              	.LVL123:
 271:Middlewares/lvgl/src/extra/widgets/colorwheel/lv_colorwheel.c **** #else
 1205              		.loc 1 271 5 is_stmt 1 view .LVU373
 271:Middlewares/lvgl/src/extra/widgets/colorwheel/lv_colorwheel.c **** #else
 1206              		.loc 1 271 16 is_stmt 0 view .LVU374
 1207 00fe BDF96630 		ldrsh	r3, [sp, #102]
 1208 0102 0093     		str	r3, [sp]
 1209              	.LVL124:
 276:Middlewares/lvgl/src/extra/widgets/colorwheel/lv_colorwheel.c ****         line_dsc.color = angle_to_mode_color_fast(obj, i);
 1210              		.loc 1 276 5 is_stmt 1 view .LVU375
 250:Middlewares/lvgl/src/extra/widgets/colorwheel/lv_colorwheel.c ****     lv_coord_t cir_w = lv_obj_get_style_arc_width(obj, LV_PART_MAIN);
 1211              		.loc 1 250 14 is_stmt 0 view .LVU376
 1212 0104 0027     		movs	r7, #0
 276:Middlewares/lvgl/src/extra/widgets/colorwheel/lv_colorwheel.c ****         line_dsc.color = angle_to_mode_color_fast(obj, i);
 1213              		.loc 1 276 11 view .LVU377
 1214 0106 3E46     		mov	r6, r7
 276:Middlewares/lvgl/src/extra/widgets/colorwheel/lv_colorwheel.c ****         line_dsc.color = angle_to_mode_color_fast(obj, i);
 1215              		.loc 1 276 5 view .LVU378
 1216 0108 46E0     		b	.L48
 1217              	.LVL125:
 1218              	.L51:
 239:Middlewares/lvgl/src/extra/widgets/colorwheel/lv_colorwheel.c ****     lv_coord_t cy = obj->coords.y1 + h / 2;
 1219              		.loc 1 239 36 view .LVU379
 1220 010a 04F10109 		add	r9, r4, #1
 1221 010e 8FE7     		b	.L46
 1222              	.LVL126:
 1223              	.L52:
 240:Middlewares/lvgl/src/extra/widgets/colorwheel/lv_colorwheel.c ****     lv_coord_t r = w / 2;
 1224              		.loc 1 240 36 view .LVU380
 1225 0110 431C     		adds	r3, r0, #1
 1226 0112 98E7     		b	.L47
 1227              	.LVL127:
 1228              	.L49:
 1229              	.LBB70:
 277:Middlewares/lvgl/src/extra/widgets/colorwheel/lv_colorwheel.c ****         uint16_t angle_trigo = (uint16_t)(a >> 8); /*i * 360 / 256 is the scale to apply, but we ca
 1230              		.loc 1 277 9 is_stmt 1 discriminator 3 view .LVU381
 277:Middlewares/lvgl/src/extra/widgets/colorwheel/lv_colorwheel.c ****         uint16_t angle_trigo = (uint16_t)(a >> 8); /*i * 360 / 256 is the scale to apply, but we ca
 1231              		.loc 1 277 26 is_stmt 0 discriminator 3 view .LVU382
 1232 0114 3146     		mov	r1, r6
 1233 0116 0198     		ldr	r0, [sp, #4]
ARM GAS  /tmp/ccAb9Zks.s 			page 61


 1234 0118 FFF7FEFF 		bl	angle_to_mode_color_fast
 1235              	.LVL128:
 1236 011c ADF86400 		strh	r0, [sp, #100]	@ movhi
 278:Middlewares/lvgl/src/extra/widgets/colorwheel/lv_colorwheel.c **** 
 1237              		.loc 1 278 9 is_stmt 1 discriminator 3 view .LVU383
 278:Middlewares/lvgl/src/extra/widgets/colorwheel/lv_colorwheel.c **** 
 1238              		.loc 1 278 18 is_stmt 0 discriminator 3 view .LVU384
 1239 0120 C7F30F25 		ubfx	r5, r7, #8, #16
 1240              	.LVL129:
 280:Middlewares/lvgl/src/extra/widgets/colorwheel/lv_colorwheel.c ****         p[0].x = cx + ((r + cir_w_extra) * lv_trigo_sin(angle_trigo) >> LV_TRIGO_SHIFT);
 1241              		.loc 1 280 9 is_stmt 1 discriminator 3 view .LVU385
 281:Middlewares/lvgl/src/extra/widgets/colorwheel/lv_colorwheel.c ****         p[0].y = cy + ((r + cir_w_extra) * lv_trigo_cos(angle_trigo) >> LV_TRIGO_SHIFT);
 1242              		.loc 1 281 9 discriminator 3 view .LVU386
 281:Middlewares/lvgl/src/extra/widgets/colorwheel/lv_colorwheel.c ****         p[0].y = cy + ((r + cir_w_extra) * lv_trigo_cos(angle_trigo) >> LV_TRIGO_SHIFT);
 1243              		.loc 1 281 27 is_stmt 0 discriminator 3 view .LVU387
 1244 0124 009B     		ldr	r3, [sp]
 1245 0126 09EB0304 		add	r4, r9, r3
 281:Middlewares/lvgl/src/extra/widgets/colorwheel/lv_colorwheel.c ****         p[0].y = cy + ((r + cir_w_extra) * lv_trigo_cos(angle_trigo) >> LV_TRIGO_SHIFT);
 1246              		.loc 1 281 44 discriminator 3 view .LVU388
 1247 012a 47F30F28 		sbfx	r8, r7, #8, #16
 1248 012e 4046     		mov	r0, r8
 1249 0130 FFF7FEFF 		bl	lv_trigo_sin
 1250              	.LVL130:
 281:Middlewares/lvgl/src/extra/widgets/colorwheel/lv_colorwheel.c ****         p[0].y = cy + ((r + cir_w_extra) * lv_trigo_cos(angle_trigo) >> LV_TRIGO_SHIFT);
 1251              		.loc 1 281 42 discriminator 3 view .LVU389
 1252 0134 04FB00F0 		mul	r0, r4, r0
 281:Middlewares/lvgl/src/extra/widgets/colorwheel/lv_colorwheel.c ****         p[0].y = cy + ((r + cir_w_extra) * lv_trigo_cos(angle_trigo) >> LV_TRIGO_SHIFT);
 1253              		.loc 1 281 21 discriminator 3 view .LVU390
 1254 0138 0BEBE030 		add	r0, fp, r0, asr #15
 281:Middlewares/lvgl/src/extra/widgets/colorwheel/lv_colorwheel.c ****         p[0].y = cy + ((r + cir_w_extra) * lv_trigo_cos(angle_trigo) >> LV_TRIGO_SHIFT);
 1255              		.loc 1 281 16 discriminator 3 view .LVU391
 1256 013c ADF81C00 		strh	r0, [sp, #28]	@ movhi
 282:Middlewares/lvgl/src/extra/widgets/colorwheel/lv_colorwheel.c ****         p[1].x = cx + ((r - cir_w - cir_w_extra) * lv_trigo_sin(angle_trigo) >> LV_TRIGO_SHIFT);
 1257              		.loc 1 282 9 is_stmt 1 discriminator 3 view .LVU392
 1258              	.LVL131:
 1259              	.LBB71:
 1260              	.LBI71:
  49:Middlewares/lvgl/src/extra/widgets/colorwheel/../../../../src/misc/lv_math.h **** {
 1261              		.loc 4 49 45 discriminator 3 view .LVU393
 1262              	.LBB72:
 1263              		.loc 4 51 5 discriminator 3 view .LVU394
 1264              		.loc 4 51 31 is_stmt 0 discriminator 3 view .LVU395
 1265 0140 5A35     		adds	r5, r5, #90
 1266              	.LVL132:
 1267              		.loc 4 51 12 discriminator 3 view .LVU396
 1268 0142 2DB2     		sxth	r5, r5
 1269              	.LVL133:
 1270              		.loc 4 51 12 discriminator 3 view .LVU397
 1271 0144 2846     		mov	r0, r5
 1272 0146 FFF7FEFF 		bl	lv_trigo_sin
 1273              	.LVL134:
 1274              		.loc 4 51 12 discriminator 3 view .LVU398
 1275              	.LBE72:
 1276              	.LBE71:
 282:Middlewares/lvgl/src/extra/widgets/colorwheel/lv_colorwheel.c ****         p[1].x = cx + ((r - cir_w - cir_w_extra) * lv_trigo_sin(angle_trigo) >> LV_TRIGO_SHIFT);
 1277              		.loc 1 282 42 discriminator 3 view .LVU399
 1278 014a 00FB04F4 		mul	r4, r0, r4
ARM GAS  /tmp/ccAb9Zks.s 			page 62


 282:Middlewares/lvgl/src/extra/widgets/colorwheel/lv_colorwheel.c ****         p[1].x = cx + ((r - cir_w - cir_w_extra) * lv_trigo_sin(angle_trigo) >> LV_TRIGO_SHIFT);
 1279              		.loc 1 282 21 discriminator 3 view .LVU400
 1280 014e 0AEBE434 		add	r4, r10, r4, asr #15
 282:Middlewares/lvgl/src/extra/widgets/colorwheel/lv_colorwheel.c ****         p[1].x = cx + ((r - cir_w - cir_w_extra) * lv_trigo_sin(angle_trigo) >> LV_TRIGO_SHIFT);
 1281              		.loc 1 282 16 discriminator 3 view .LVU401
 1282 0152 ADF81E40 		strh	r4, [sp, #30]	@ movhi
 283:Middlewares/lvgl/src/extra/widgets/colorwheel/lv_colorwheel.c ****         p[1].y = cy + ((r - cir_w - cir_w_extra) * lv_trigo_cos(angle_trigo) >> LV_TRIGO_SHIFT);
 1283              		.loc 1 283 9 is_stmt 1 discriminator 3 view .LVU402
 283:Middlewares/lvgl/src/extra/widgets/colorwheel/lv_colorwheel.c ****         p[1].y = cy + ((r - cir_w - cir_w_extra) * lv_trigo_cos(angle_trigo) >> LV_TRIGO_SHIFT);
 1284              		.loc 1 283 27 is_stmt 0 discriminator 3 view .LVU403
 1285 0156 039A     		ldr	r2, [sp, #12]
 1286 0158 A9EB0204 		sub	r4, r9, r2
 283:Middlewares/lvgl/src/extra/widgets/colorwheel/lv_colorwheel.c ****         p[1].y = cy + ((r - cir_w - cir_w_extra) * lv_trigo_cos(angle_trigo) >> LV_TRIGO_SHIFT);
 1287              		.loc 1 283 35 discriminator 3 view .LVU404
 1288 015c 009B     		ldr	r3, [sp]
 1289 015e E41A     		subs	r4, r4, r3
 283:Middlewares/lvgl/src/extra/widgets/colorwheel/lv_colorwheel.c ****         p[1].y = cy + ((r - cir_w - cir_w_extra) * lv_trigo_cos(angle_trigo) >> LV_TRIGO_SHIFT);
 1290              		.loc 1 283 52 discriminator 3 view .LVU405
 1291 0160 4046     		mov	r0, r8
 1292 0162 FFF7FEFF 		bl	lv_trigo_sin
 1293              	.LVL135:
 283:Middlewares/lvgl/src/extra/widgets/colorwheel/lv_colorwheel.c ****         p[1].y = cy + ((r - cir_w - cir_w_extra) * lv_trigo_cos(angle_trigo) >> LV_TRIGO_SHIFT);
 1294              		.loc 1 283 50 discriminator 3 view .LVU406
 1295 0166 04FB00F0 		mul	r0, r4, r0
 283:Middlewares/lvgl/src/extra/widgets/colorwheel/lv_colorwheel.c ****         p[1].y = cy + ((r - cir_w - cir_w_extra) * lv_trigo_cos(angle_trigo) >> LV_TRIGO_SHIFT);
 1296              		.loc 1 283 21 discriminator 3 view .LVU407
 1297 016a 0BEBE030 		add	r0, fp, r0, asr #15
 283:Middlewares/lvgl/src/extra/widgets/colorwheel/lv_colorwheel.c ****         p[1].y = cy + ((r - cir_w - cir_w_extra) * lv_trigo_cos(angle_trigo) >> LV_TRIGO_SHIFT);
 1298              		.loc 1 283 16 discriminator 3 view .LVU408
 1299 016e ADF82000 		strh	r0, [sp, #32]	@ movhi
 284:Middlewares/lvgl/src/extra/widgets/colorwheel/lv_colorwheel.c **** 
 1300              		.loc 1 284 9 is_stmt 1 discriminator 3 view .LVU409
 1301              	.LVL136:
 1302              	.LBB73:
 1303              	.LBI73:
  49:Middlewares/lvgl/src/extra/widgets/colorwheel/../../../../src/misc/lv_math.h **** {
 1304              		.loc 4 49 45 discriminator 3 view .LVU410
 1305              	.LBB74:
 1306              		.loc 4 51 5 discriminator 3 view .LVU411
 1307              		.loc 4 51 12 is_stmt 0 discriminator 3 view .LVU412
 1308 0172 2846     		mov	r0, r5
 1309 0174 FFF7FEFF 		bl	lv_trigo_sin
 1310              	.LVL137:
 1311              		.loc 4 51 12 discriminator 3 view .LVU413
 1312              	.LBE74:
 1313              	.LBE73:
 284:Middlewares/lvgl/src/extra/widgets/colorwheel/lv_colorwheel.c **** 
 1314              		.loc 1 284 50 discriminator 3 view .LVU414
 1315 0178 00FB04F4 		mul	r4, r0, r4
 284:Middlewares/lvgl/src/extra/widgets/colorwheel/lv_colorwheel.c **** 
 1316              		.loc 1 284 21 discriminator 3 view .LVU415
 1317 017c 0AEBE434 		add	r4, r10, r4, asr #15
 284:Middlewares/lvgl/src/extra/widgets/colorwheel/lv_colorwheel.c **** 
 1318              		.loc 1 284 16 discriminator 3 view .LVU416
 1319 0180 ADF82240 		strh	r4, [sp, #34]	@ movhi
 286:Middlewares/lvgl/src/extra/widgets/colorwheel/lv_colorwheel.c ****     }
 1320              		.loc 1 286 9 is_stmt 1 discriminator 3 view .LVU417
ARM GAS  /tmp/ccAb9Zks.s 			page 63


 1321 0184 19AB     		add	r3, sp, #100
 1322 0186 029A     		ldr	r2, [sp, #8]
 1323 0188 08A9     		add	r1, sp, #32
 1324 018a 07A8     		add	r0, sp, #28
 1325 018c FFF7FEFF 		bl	lv_draw_line
 1326              	.LVL138:
 1327              	.LBE70:
 276:Middlewares/lvgl/src/extra/widgets/colorwheel/lv_colorwheel.c ****         line_dsc.color = angle_to_mode_color_fast(obj, i);
 1328              		.loc 1 276 26 discriminator 3 view .LVU418
 276:Middlewares/lvgl/src/extra/widgets/colorwheel/lv_colorwheel.c ****         line_dsc.color = angle_to_mode_color_fast(obj, i);
 1329              		.loc 1 276 28 is_stmt 0 discriminator 3 view .LVU419
 1330 0190 0336     		adds	r6, r6, #3
 1331              	.LVL139:
 276:Middlewares/lvgl/src/extra/widgets/colorwheel/lv_colorwheel.c ****         line_dsc.color = angle_to_mode_color_fast(obj, i);
 1332              		.loc 1 276 28 discriminator 3 view .LVU420
 1333 0192 B6B2     		uxth	r6, r6
 1334              	.LVL140:
 276:Middlewares/lvgl/src/extra/widgets/colorwheel/lv_colorwheel.c ****         line_dsc.color = angle_to_mode_color_fast(obj, i);
 1335              		.loc 1 276 52 discriminator 3 view .LVU421
 1336 0194 07F58767 		add	r7, r7, #1080
 1337              	.LVL141:
 1338              	.L48:
 276:Middlewares/lvgl/src/extra/widgets/colorwheel/lv_colorwheel.c ****         line_dsc.color = angle_to_mode_color_fast(obj, i);
 1339              		.loc 1 276 16 is_stmt 1 discriminator 1 view .LVU422
 276:Middlewares/lvgl/src/extra/widgets/colorwheel/lv_colorwheel.c ****         line_dsc.color = angle_to_mode_color_fast(obj, i);
 1340              		.loc 1 276 5 is_stmt 0 discriminator 1 view .LVU423
 1341 0198 B6F5807F 		cmp	r6, #256
 1342 019c BAD9     		bls	.L49
 290:Middlewares/lvgl/src/extra/widgets/colorwheel/lv_colorwheel.c ****     lv_draw_mask_remove_id(mask_in_id);
 1343              		.loc 1 290 5 is_stmt 1 view .LVU424
 1344 019e 0498     		ldr	r0, [sp, #16]
 1345 01a0 FFF7FEFF 		bl	lv_draw_mask_remove_id
 1346              	.LVL142:
 291:Middlewares/lvgl/src/extra/widgets/colorwheel/lv_colorwheel.c **** #endif
 1347              		.loc 1 291 5 view .LVU425
 1348 01a4 0598     		ldr	r0, [sp, #20]
 1349 01a6 FFF7FEFF 		bl	lv_draw_mask_remove_id
 1350              	.LVL143:
 293:Middlewares/lvgl/src/extra/widgets/colorwheel/lv_colorwheel.c **** 
 1351              		.loc 1 293 1 is_stmt 0 view .LVU426
 1352 01aa 1DB0     		add	sp, sp, #116
 1353              	.LCFI13:
 1354              		.cfi_def_cfa_offset 36
 1355              	.LVL144:
 293:Middlewares/lvgl/src/extra/widgets/colorwheel/lv_colorwheel.c **** 
 1356              		.loc 1 293 1 view .LVU427
 1357              		@ sp needed
 1358 01ac BDE8F08F 		pop	{r4, r5, r6, r7, r8, r9, r10, fp, pc}
 1359              	.LVL145:
 1360              	.L54:
 293:Middlewares/lvgl/src/extra/widgets/colorwheel/lv_colorwheel.c **** 
 1361              		.loc 1 293 1 view .LVU428
 1362              		.align	2
 1363              	.L53:
 1364 01b0 53A45C7B 		.word	2069668947
 1365              		.cfi_endproc
 1366              	.LFE194:
ARM GAS  /tmp/ccAb9Zks.s 			page 64


 1368              		.section	.text.lv_colorwheel_constructor,"ax",%progbits
 1369              		.align	1
 1370              		.syntax unified
 1371              		.thumb
 1372              		.thumb_func
 1374              	lv_colorwheel_constructor:
 1375              	.LVL146:
 1376              	.LFB193:
 216:Middlewares/lvgl/src/extra/widgets/colorwheel/lv_colorwheel.c ****     LV_UNUSED(class_p);
 1377              		.loc 1 216 1 is_stmt 1 view -0
 1378              		.cfi_startproc
 1379              		@ args = 0, pretend = 0, frame = 0
 1380              		@ frame_needed = 0, uses_anonymous_args = 0
 216:Middlewares/lvgl/src/extra/widgets/colorwheel/lv_colorwheel.c ****     LV_UNUSED(class_p);
 1381              		.loc 1 216 1 is_stmt 0 view .LVU430
 1382 0000 10B5     		push	{r4, lr}
 1383              	.LCFI14:
 1384              		.cfi_def_cfa_offset 8
 1385              		.cfi_offset 4, -8
 1386              		.cfi_offset 14, -4
 1387 0002 0C46     		mov	r4, r1
 217:Middlewares/lvgl/src/extra/widgets/colorwheel/lv_colorwheel.c ****     lv_colorwheel_t * colorwheel = (lv_colorwheel_t *)obj;
 1388              		.loc 1 217 5 is_stmt 1 view .LVU431
 218:Middlewares/lvgl/src/extra/widgets/colorwheel/lv_colorwheel.c ****     colorwheel->hsv.h = 0;
 1389              		.loc 1 218 5 view .LVU432
 1390              	.LVL147:
 219:Middlewares/lvgl/src/extra/widgets/colorwheel/lv_colorwheel.c ****     colorwheel->hsv.s = 100;
 1391              		.loc 1 219 5 view .LVU433
 219:Middlewares/lvgl/src/extra/widgets/colorwheel/lv_colorwheel.c ****     colorwheel->hsv.s = 100;
 1392              		.loc 1 219 23 is_stmt 0 view .LVU434
 1393 0004 0023     		movs	r3, #0
 1394 0006 8B84     		strh	r3, [r1, #36]	@ movhi
 220:Middlewares/lvgl/src/extra/widgets/colorwheel/lv_colorwheel.c ****     colorwheel->hsv.v = 100;
 1395              		.loc 1 220 5 is_stmt 1 view .LVU435
 220:Middlewares/lvgl/src/extra/widgets/colorwheel/lv_colorwheel.c ****     colorwheel->hsv.v = 100;
 1396              		.loc 1 220 23 is_stmt 0 view .LVU436
 1397 0008 6422     		movs	r2, #100
 1398 000a 81F82620 		strb	r2, [r1, #38]
 221:Middlewares/lvgl/src/extra/widgets/colorwheel/lv_colorwheel.c ****     colorwheel->mode = LV_COLORWHEEL_MODE_HUE;
 1399              		.loc 1 221 5 is_stmt 1 view .LVU437
 221:Middlewares/lvgl/src/extra/widgets/colorwheel/lv_colorwheel.c ****     colorwheel->mode = LV_COLORWHEEL_MODE_HUE;
 1400              		.loc 1 221 23 is_stmt 0 view .LVU438
 1401 000e 81F82720 		strb	r2, [r1, #39]
 222:Middlewares/lvgl/src/extra/widgets/colorwheel/lv_colorwheel.c ****     colorwheel->mode_fixed = 0;
 1402              		.loc 1 222 5 is_stmt 1 view .LVU439
 222:Middlewares/lvgl/src/extra/widgets/colorwheel/lv_colorwheel.c ****     colorwheel->mode_fixed = 0;
 1403              		.loc 1 222 22 is_stmt 0 view .LVU440
 1404 0012 91F83C20 		ldrb	r2, [r1, #60]	@ zero_extendqisi2
 1405 0016 63F30102 		bfi	r2, r3, #0, #2
 1406 001a 81F83C20 		strb	r2, [r1, #60]
 223:Middlewares/lvgl/src/extra/widgets/colorwheel/lv_colorwheel.c ****     colorwheel->last_click_time = 0;
 1407              		.loc 1 223 5 is_stmt 1 view .LVU441
 223:Middlewares/lvgl/src/extra/widgets/colorwheel/lv_colorwheel.c ****     colorwheel->last_click_time = 0;
 1408              		.loc 1 223 28 is_stmt 0 view .LVU442
 1409 001e D2B2     		uxtb	r2, r2
 1410 0020 63F38202 		bfi	r2, r3, #2, #1
 1411 0024 81F83C20 		strb	r2, [r1, #60]
ARM GAS  /tmp/ccAb9Zks.s 			page 65


 224:Middlewares/lvgl/src/extra/widgets/colorwheel/lv_colorwheel.c ****     colorwheel->last_change_time = 0;
 1412              		.loc 1 224 5 is_stmt 1 view .LVU443
 224:Middlewares/lvgl/src/extra/widgets/colorwheel/lv_colorwheel.c ****     colorwheel->last_change_time = 0;
 1413              		.loc 1 224 33 is_stmt 0 view .LVU444
 1414 0028 0B63     		str	r3, [r1, #48]
 225:Middlewares/lvgl/src/extra/widgets/colorwheel/lv_colorwheel.c ****     colorwheel->knob.recolor = create_knob_recolor;
 1415              		.loc 1 225 5 is_stmt 1 view .LVU445
 225:Middlewares/lvgl/src/extra/widgets/colorwheel/lv_colorwheel.c ****     colorwheel->knob.recolor = create_knob_recolor;
 1416              		.loc 1 225 34 is_stmt 0 view .LVU446
 1417 002a 4B63     		str	r3, [r1, #52]
 226:Middlewares/lvgl/src/extra/widgets/colorwheel/lv_colorwheel.c **** 
 1418              		.loc 1 226 5 is_stmt 1 view .LVU447
 226:Middlewares/lvgl/src/extra/widgets/colorwheel/lv_colorwheel.c **** 
 1419              		.loc 1 226 30 is_stmt 0 view .LVU448
 1420 002c 91F82C30 		ldrb	r3, [r1, #44]	@ zero_extendqisi2
 1421 0030 094A     		ldr	r2, .L57
 1422 0032 1278     		ldrb	r2, [r2]	@ zero_extendqisi2
 1423 0034 62F30003 		bfi	r3, r2, #0, #1
 1424 0038 81F82C30 		strb	r3, [r1, #44]
 228:Middlewares/lvgl/src/extra/widgets/colorwheel/lv_colorwheel.c ****     lv_obj_clear_flag(obj, LV_OBJ_FLAG_SCROLL_CHAIN);
 1425              		.loc 1 228 5 is_stmt 1 view .LVU449
 1426 003c 4FF48041 		mov	r1, #16384
 1427              	.LVL148:
 228:Middlewares/lvgl/src/extra/widgets/colorwheel/lv_colorwheel.c ****     lv_obj_clear_flag(obj, LV_OBJ_FLAG_SCROLL_CHAIN);
 1428              		.loc 1 228 5 is_stmt 0 view .LVU450
 1429 0040 2046     		mov	r0, r4
 1430              	.LVL149:
 228:Middlewares/lvgl/src/extra/widgets/colorwheel/lv_colorwheel.c ****     lv_obj_clear_flag(obj, LV_OBJ_FLAG_SCROLL_CHAIN);
 1431              		.loc 1 228 5 view .LVU451
 1432 0042 FFF7FEFF 		bl	lv_obj_add_flag
 1433              	.LVL150:
 229:Middlewares/lvgl/src/extra/widgets/colorwheel/lv_colorwheel.c ****     refr_knob_pos(obj);
 1434              		.loc 1 229 5 is_stmt 1 view .LVU452
 1435 0046 4FF48071 		mov	r1, #256
 1436 004a 2046     		mov	r0, r4
 1437 004c FFF7FEFF 		bl	lv_obj_clear_flag
 1438              	.LVL151:
 230:Middlewares/lvgl/src/extra/widgets/colorwheel/lv_colorwheel.c **** }
 1439              		.loc 1 230 5 view .LVU453
 1440 0050 2046     		mov	r0, r4
 1441 0052 FFF7FEFF 		bl	refr_knob_pos
 1442              	.LVL152:
 231:Middlewares/lvgl/src/extra/widgets/colorwheel/lv_colorwheel.c **** 
 1443              		.loc 1 231 1 is_stmt 0 view .LVU454
 1444 0056 10BD     		pop	{r4, pc}
 1445              	.LVL153:
 1446              	.L58:
 231:Middlewares/lvgl/src/extra/widgets/colorwheel/lv_colorwheel.c **** 
 1447              		.loc 1 231 1 view .LVU455
 1448              		.align	2
 1449              	.L57:
 1450 0058 00000000 		.word	.LANCHOR4
 1451              		.cfi_endproc
 1452              	.LFE193:
 1454              		.section	.text.lv_colorwheel_create,"ax",%progbits
 1455              		.align	1
 1456              		.global	lv_colorwheel_create
ARM GAS  /tmp/ccAb9Zks.s 			page 66


 1457              		.syntax unified
 1458              		.thumb
 1459              		.thumb_func
 1461              	lv_colorwheel_create:
 1462              	.LVL154:
 1463              	.LFB184:
  76:Middlewares/lvgl/src/extra/widgets/colorwheel/lv_colorwheel.c ****     LV_LOG_INFO("begin")
 1464              		.loc 1 76 1 is_stmt 1 view -0
 1465              		.cfi_startproc
 1466              		@ args = 0, pretend = 0, frame = 0
 1467              		@ frame_needed = 0, uses_anonymous_args = 0
  76:Middlewares/lvgl/src/extra/widgets/colorwheel/lv_colorwheel.c ****     LV_LOG_INFO("begin")
 1468              		.loc 1 76 1 is_stmt 0 view .LVU457
 1469 0000 10B5     		push	{r4, lr}
 1470              	.LCFI15:
 1471              		.cfi_def_cfa_offset 8
 1472              		.cfi_offset 4, -8
 1473              		.cfi_offset 14, -4
  78:Middlewares/lvgl/src/extra/widgets/colorwheel/lv_colorwheel.c **** 
 1474              		.loc 1 78 5 is_stmt 1 view .LVU458
  78:Middlewares/lvgl/src/extra/widgets/colorwheel/lv_colorwheel.c **** 
 1475              		.loc 1 78 25 is_stmt 0 view .LVU459
 1476 0002 054B     		ldr	r3, .L61
 1477 0004 1970     		strb	r1, [r3]
  80:Middlewares/lvgl/src/extra/widgets/colorwheel/lv_colorwheel.c ****     lv_obj_class_init_obj(obj);
 1478              		.loc 1 80 5 is_stmt 1 view .LVU460
  80:Middlewares/lvgl/src/extra/widgets/colorwheel/lv_colorwheel.c ****     lv_obj_class_init_obj(obj);
 1479              		.loc 1 80 22 is_stmt 0 view .LVU461
 1480 0006 0146     		mov	r1, r0
 1481              	.LVL155:
  80:Middlewares/lvgl/src/extra/widgets/colorwheel/lv_colorwheel.c ****     lv_obj_class_init_obj(obj);
 1482              		.loc 1 80 22 view .LVU462
 1483 0008 0448     		ldr	r0, .L61+4
 1484              	.LVL156:
  80:Middlewares/lvgl/src/extra/widgets/colorwheel/lv_colorwheel.c ****     lv_obj_class_init_obj(obj);
 1485              		.loc 1 80 22 view .LVU463
 1486 000a FFF7FEFF 		bl	lv_obj_class_create_obj
 1487              	.LVL157:
  80:Middlewares/lvgl/src/extra/widgets/colorwheel/lv_colorwheel.c ****     lv_obj_class_init_obj(obj);
 1488              		.loc 1 80 22 view .LVU464
 1489 000e 0446     		mov	r4, r0
 1490              	.LVL158:
  81:Middlewares/lvgl/src/extra/widgets/colorwheel/lv_colorwheel.c ****     return obj;
 1491              		.loc 1 81 5 is_stmt 1 view .LVU465
 1492 0010 FFF7FEFF 		bl	lv_obj_class_init_obj
 1493              	.LVL159:
  82:Middlewares/lvgl/src/extra/widgets/colorwheel/lv_colorwheel.c **** }
 1494              		.loc 1 82 5 view .LVU466
  83:Middlewares/lvgl/src/extra/widgets/colorwheel/lv_colorwheel.c **** 
 1495              		.loc 1 83 1 is_stmt 0 view .LVU467
 1496 0014 2046     		mov	r0, r4
 1497 0016 10BD     		pop	{r4, pc}
 1498              	.LVL160:
 1499              	.L62:
  83:Middlewares/lvgl/src/extra/widgets/colorwheel/lv_colorwheel.c **** 
 1500              		.loc 1 83 1 view .LVU468
 1501              		.align	2
ARM GAS  /tmp/ccAb9Zks.s 			page 67


 1502              	.L61:
 1503 0018 00000000 		.word	.LANCHOR4
 1504 001c 00000000 		.word	.LANCHOR5
 1505              		.cfi_endproc
 1506              	.LFE184:
 1508              		.section	.text.lv_colorwheel_set_hsv,"ax",%progbits
 1509              		.align	1
 1510              		.global	lv_colorwheel_set_hsv
 1511              		.syntax unified
 1512              		.thumb
 1513              		.thumb_func
 1515              	lv_colorwheel_set_hsv:
 1516              	.LVL161:
 1517              	.LFB185:
  96:Middlewares/lvgl/src/extra/widgets/colorwheel/lv_colorwheel.c ****     if(hsv.h > 360) hsv.h %= 360;
 1518              		.loc 1 96 1 is_stmt 1 view -0
 1519              		.cfi_startproc
 1520              		@ args = 0, pretend = 0, frame = 8
 1521              		@ frame_needed = 0, uses_anonymous_args = 0
  96:Middlewares/lvgl/src/extra/widgets/colorwheel/lv_colorwheel.c ****     if(hsv.h > 360) hsv.h %= 360;
 1522              		.loc 1 96 1 is_stmt 0 view .LVU470
 1523 0000 10B5     		push	{r4, lr}
 1524              	.LCFI16:
 1525              		.cfi_def_cfa_offset 8
 1526              		.cfi_offset 4, -8
 1527              		.cfi_offset 14, -4
 1528 0002 82B0     		sub	sp, sp, #8
 1529              	.LCFI17:
 1530              		.cfi_def_cfa_offset 16
 1531 0004 0446     		mov	r4, r0
 1532 0006 0191     		str	r1, [sp, #4]
  97:Middlewares/lvgl/src/extra/widgets/colorwheel/lv_colorwheel.c ****     if(hsv.s > 100) hsv.s = 100;
 1533              		.loc 1 97 5 is_stmt 1 view .LVU471
  97:Middlewares/lvgl/src/extra/widgets/colorwheel/lv_colorwheel.c ****     if(hsv.s > 100) hsv.s = 100;
 1534              		.loc 1 97 11 is_stmt 0 view .LVU472
 1535 0008 BDF80430 		ldrh	r3, [sp, #4]
  97:Middlewares/lvgl/src/extra/widgets/colorwheel/lv_colorwheel.c ****     if(hsv.s > 100) hsv.s = 100;
 1536              		.loc 1 97 7 view .LVU473
 1537 000c B3F5B47F 		cmp	r3, #360
 1538 0010 0AD9     		bls	.L64
  97:Middlewares/lvgl/src/extra/widgets/colorwheel/lv_colorwheel.c ****     if(hsv.s > 100) hsv.s = 100;
 1539              		.loc 1 97 21 is_stmt 1 discriminator 1 view .LVU474
  97:Middlewares/lvgl/src/extra/widgets/colorwheel/lv_colorwheel.c ****     if(hsv.s > 100) hsv.s = 100;
 1540              		.loc 1 97 27 is_stmt 0 discriminator 1 view .LVU475
 1541 0012 DA08     		lsrs	r2, r3, #3
 1542 0014 1749     		ldr	r1, .L71
 1543 0016 A1FB0212 		umull	r1, r2, r1, r2
 1544 001a 9208     		lsrs	r2, r2, #2
 1545 001c 4FF4B471 		mov	r1, #360
 1546 0020 01FB1233 		mls	r3, r1, r2, r3
 1547 0024 ADF80430 		strh	r3, [sp, #4]	@ movhi
 1548              	.L64:
  98:Middlewares/lvgl/src/extra/widgets/colorwheel/lv_colorwheel.c ****     if(hsv.v > 100) hsv.v = 100;
 1549              		.loc 1 98 5 is_stmt 1 view .LVU476
  98:Middlewares/lvgl/src/extra/widgets/colorwheel/lv_colorwheel.c ****     if(hsv.v > 100) hsv.v = 100;
 1550              		.loc 1 98 11 is_stmt 0 view .LVU477
 1551 0028 9DF80630 		ldrb	r3, [sp, #6]	@ zero_extendqisi2
ARM GAS  /tmp/ccAb9Zks.s 			page 68


  98:Middlewares/lvgl/src/extra/widgets/colorwheel/lv_colorwheel.c ****     if(hsv.v > 100) hsv.v = 100;
 1552              		.loc 1 98 7 view .LVU478
 1553 002c 642B     		cmp	r3, #100
 1554 002e 02D9     		bls	.L65
  98:Middlewares/lvgl/src/extra/widgets/colorwheel/lv_colorwheel.c ****     if(hsv.v > 100) hsv.v = 100;
 1555              		.loc 1 98 21 is_stmt 1 discriminator 1 view .LVU479
  98:Middlewares/lvgl/src/extra/widgets/colorwheel/lv_colorwheel.c ****     if(hsv.v > 100) hsv.v = 100;
 1556              		.loc 1 98 27 is_stmt 0 discriminator 1 view .LVU480
 1557 0030 6423     		movs	r3, #100
 1558 0032 8DF80630 		strb	r3, [sp, #6]
 1559              	.L65:
  99:Middlewares/lvgl/src/extra/widgets/colorwheel/lv_colorwheel.c **** 
 1560              		.loc 1 99 5 is_stmt 1 view .LVU481
  99:Middlewares/lvgl/src/extra/widgets/colorwheel/lv_colorwheel.c **** 
 1561              		.loc 1 99 11 is_stmt 0 view .LVU482
 1562 0036 9DF80730 		ldrb	r3, [sp, #7]	@ zero_extendqisi2
  99:Middlewares/lvgl/src/extra/widgets/colorwheel/lv_colorwheel.c **** 
 1563              		.loc 1 99 7 view .LVU483
 1564 003a 642B     		cmp	r3, #100
 1565 003c 02D9     		bls	.L66
  99:Middlewares/lvgl/src/extra/widgets/colorwheel/lv_colorwheel.c **** 
 1566              		.loc 1 99 21 is_stmt 1 discriminator 1 view .LVU484
  99:Middlewares/lvgl/src/extra/widgets/colorwheel/lv_colorwheel.c **** 
 1567              		.loc 1 99 27 is_stmt 0 discriminator 1 view .LVU485
 1568 003e 6423     		movs	r3, #100
 1569 0040 8DF80730 		strb	r3, [sp, #7]
 1570              	.L66:
 101:Middlewares/lvgl/src/extra/widgets/colorwheel/lv_colorwheel.c **** 
 1571              		.loc 1 101 5 is_stmt 1 view .LVU486
 1572              	.LVL162:
 103:Middlewares/lvgl/src/extra/widgets/colorwheel/lv_colorwheel.c **** 
 1573              		.loc 1 103 5 view .LVU487
 103:Middlewares/lvgl/src/extra/widgets/colorwheel/lv_colorwheel.c **** 
 1574              		.loc 1 103 23 is_stmt 0 view .LVU488
 1575 0044 A28C     		ldrh	r2, [r4, #36]
 103:Middlewares/lvgl/src/extra/widgets/colorwheel/lv_colorwheel.c **** 
 1576              		.loc 1 103 32 view .LVU489
 1577 0046 BDF80430 		ldrh	r3, [sp, #4]
 103:Middlewares/lvgl/src/extra/widgets/colorwheel/lv_colorwheel.c **** 
 1578              		.loc 1 103 7 view .LVU490
 1579 004a 9A42     		cmp	r2, r3
 1580 004c 04D1     		bne	.L67
 103:Middlewares/lvgl/src/extra/widgets/colorwheel/lv_colorwheel.c **** 
 1581              		.loc 1 103 65 discriminator 1 view .LVU491
 1582 004e E28C     		ldrh	r2, [r4, #38]
 1583 0050 BDF80630 		ldrh	r3, [sp, #6]
 1584 0054 9A42     		cmp	r2, r3
 1585 0056 0AD0     		beq	.L69
 1586              	.L67:
 105:Middlewares/lvgl/src/extra/widgets/colorwheel/lv_colorwheel.c **** 
 1587              		.loc 1 105 5 is_stmt 1 view .LVU492
 105:Middlewares/lvgl/src/extra/widgets/colorwheel/lv_colorwheel.c **** 
 1588              		.loc 1 105 21 is_stmt 0 view .LVU493
 1589 0058 019B     		ldr	r3, [sp, #4]
 1590 005a 6362     		str	r3, [r4, #36]
 107:Middlewares/lvgl/src/extra/widgets/colorwheel/lv_colorwheel.c **** 
 1591              		.loc 1 107 5 is_stmt 1 view .LVU494
ARM GAS  /tmp/ccAb9Zks.s 			page 69


 1592 005c 2046     		mov	r0, r4
 1593              	.LVL163:
 107:Middlewares/lvgl/src/extra/widgets/colorwheel/lv_colorwheel.c **** 
 1594              		.loc 1 107 5 is_stmt 0 view .LVU495
 1595 005e FFF7FEFF 		bl	refr_knob_pos
 1596              	.LVL164:
 109:Middlewares/lvgl/src/extra/widgets/colorwheel/lv_colorwheel.c **** 
 1597              		.loc 1 109 5 is_stmt 1 view .LVU496
 1598 0062 2046     		mov	r0, r4
 1599 0064 FFF7FEFF 		bl	lv_obj_invalidate
 1600              	.LVL165:
 111:Middlewares/lvgl/src/extra/widgets/colorwheel/lv_colorwheel.c **** }
 1601              		.loc 1 111 5 view .LVU497
 111:Middlewares/lvgl/src/extra/widgets/colorwheel/lv_colorwheel.c **** }
 1602              		.loc 1 111 12 is_stmt 0 view .LVU498
 1603 0068 0120     		movs	r0, #1
 1604              	.L68:
 112:Middlewares/lvgl/src/extra/widgets/colorwheel/lv_colorwheel.c **** 
 1605              		.loc 1 112 1 view .LVU499
 1606 006a 02B0     		add	sp, sp, #8
 1607              	.LCFI18:
 1608              		.cfi_remember_state
 1609              		.cfi_def_cfa_offset 8
 1610              		@ sp needed
 1611 006c 10BD     		pop	{r4, pc}
 1612              	.LVL166:
 1613              	.L69:
 1614              	.LCFI19:
 1615              		.cfi_restore_state
 103:Middlewares/lvgl/src/extra/widgets/colorwheel/lv_colorwheel.c **** 
 1616              		.loc 1 103 103 view .LVU500
 1617 006e 0020     		movs	r0, #0
 1618              	.LVL167:
 103:Middlewares/lvgl/src/extra/widgets/colorwheel/lv_colorwheel.c **** 
 1619              		.loc 1 103 103 view .LVU501
 1620 0070 FBE7     		b	.L68
 1621              	.L72:
 1622 0072 00BF     		.align	2
 1623              	.L71:
 1624 0074 176CC116 		.word	381774871
 1625              		.cfi_endproc
 1626              	.LFE185:
 1628              		.section	.text.double_click_reset,"ax",%progbits
 1629              		.align	1
 1630              		.syntax unified
 1631              		.thumb
 1632              		.thumb_func
 1634              	double_click_reset:
 1635              	.LVL168:
 1636              	.LFB201:
 557:Middlewares/lvgl/src/extra/widgets/colorwheel/lv_colorwheel.c ****     lv_colorwheel_t * colorwheel = (lv_colorwheel_t *)obj;
 1637              		.loc 1 557 1 is_stmt 1 view -0
 1638              		.cfi_startproc
 1639              		@ args = 0, pretend = 0, frame = 8
 1640              		@ frame_needed = 0, uses_anonymous_args = 0
 557:Middlewares/lvgl/src/extra/widgets/colorwheel/lv_colorwheel.c ****     lv_colorwheel_t * colorwheel = (lv_colorwheel_t *)obj;
 1641              		.loc 1 557 1 is_stmt 0 view .LVU503
ARM GAS  /tmp/ccAb9Zks.s 			page 70


 1642 0000 30B5     		push	{r4, r5, lr}
 1643              	.LCFI20:
 1644              		.cfi_def_cfa_offset 12
 1645              		.cfi_offset 4, -12
 1646              		.cfi_offset 5, -8
 1647              		.cfi_offset 14, -4
 1648 0002 83B0     		sub	sp, sp, #12
 1649              	.LCFI21:
 1650              		.cfi_def_cfa_offset 24
 1651 0004 0446     		mov	r4, r0
 558:Middlewares/lvgl/src/extra/widgets/colorwheel/lv_colorwheel.c ****     lv_indev_t * indev = lv_indev_get_act();
 1652              		.loc 1 558 5 is_stmt 1 view .LVU504
 1653              	.LVL169:
 559:Middlewares/lvgl/src/extra/widgets/colorwheel/lv_colorwheel.c ****     /*Double clicked? Use long press time as double click time out*/
 1654              		.loc 1 559 5 view .LVU505
 559:Middlewares/lvgl/src/extra/widgets/colorwheel/lv_colorwheel.c ****     /*Double clicked? Use long press time as double click time out*/
 1655              		.loc 1 559 26 is_stmt 0 view .LVU506
 1656 0006 FFF7FEFF 		bl	lv_indev_get_act
 1657              	.LVL170:
 559:Middlewares/lvgl/src/extra/widgets/colorwheel/lv_colorwheel.c ****     /*Double clicked? Use long press time as double click time out*/
 1658              		.loc 1 559 26 view .LVU507
 1659 000a 0546     		mov	r5, r0
 1660              	.LVL171:
 561:Middlewares/lvgl/src/extra/widgets/colorwheel/lv_colorwheel.c ****         lv_color_hsv_t hsv_cur;
 1661              		.loc 1 561 5 is_stmt 1 view .LVU508
 561:Middlewares/lvgl/src/extra/widgets/colorwheel/lv_colorwheel.c ****         lv_color_hsv_t hsv_cur;
 1662              		.loc 1 561 8 is_stmt 0 view .LVU509
 1663 000c 206B     		ldr	r0, [r4, #48]
 1664              	.LVL172:
 561:Middlewares/lvgl/src/extra/widgets/colorwheel/lv_colorwheel.c ****         lv_color_hsv_t hsv_cur;
 1665              		.loc 1 561 8 view .LVU510
 1666 000e FFF7FEFF 		bl	lv_tick_elaps
 1667              	.LVL173:
 561:Middlewares/lvgl/src/extra/widgets/colorwheel/lv_colorwheel.c ****         lv_color_hsv_t hsv_cur;
 1668              		.loc 1 561 58 view .LVU511
 1669 0012 2B68     		ldr	r3, [r5]
 561:Middlewares/lvgl/src/extra/widgets/colorwheel/lv_colorwheel.c ****         lv_color_hsv_t hsv_cur;
 1670              		.loc 1 561 66 view .LVU512
 1671 0014 9B8B     		ldrh	r3, [r3, #28]
 561:Middlewares/lvgl/src/extra/widgets/colorwheel/lv_colorwheel.c ****         lv_color_hsv_t hsv_cur;
 1672              		.loc 1 561 7 view .LVU513
 1673 0016 9842     		cmp	r0, r3
 1674 0018 12D2     		bcs	.L74
 1675              	.LBB75:
 562:Middlewares/lvgl/src/extra/widgets/colorwheel/lv_colorwheel.c ****         hsv_cur = colorwheel->hsv;
 1676              		.loc 1 562 9 is_stmt 1 view .LVU514
 563:Middlewares/lvgl/src/extra/widgets/colorwheel/lv_colorwheel.c **** 
 1677              		.loc 1 563 9 view .LVU515
 563:Middlewares/lvgl/src/extra/widgets/colorwheel/lv_colorwheel.c **** 
 1678              		.loc 1 563 17 is_stmt 0 view .LVU516
 1679 001a 636A     		ldr	r3, [r4, #36]
 1680 001c 0193     		str	r3, [sp, #4]
 565:Middlewares/lvgl/src/extra/widgets/colorwheel/lv_colorwheel.c ****             case LV_COLORWHEEL_MODE_HUE:
 1681              		.loc 1 565 9 is_stmt 1 view .LVU517
 565:Middlewares/lvgl/src/extra/widgets/colorwheel/lv_colorwheel.c ****             case LV_COLORWHEEL_MODE_HUE:
 1682              		.loc 1 565 26 is_stmt 0 view .LVU518
 1683 001e 94F83C30 		ldrb	r3, [r4, #60]	@ zero_extendqisi2
ARM GAS  /tmp/ccAb9Zks.s 			page 71


 1684 0022 03F00303 		and	r3, r3, #3
 565:Middlewares/lvgl/src/extra/widgets/colorwheel/lv_colorwheel.c ****             case LV_COLORWHEEL_MODE_HUE:
 1685              		.loc 1 565 9 view .LVU519
 1686 0026 012B     		cmp	r3, #1
 1687 0028 13D0     		beq	.L75
 1688 002a 022B     		cmp	r3, #2
 1689 002c 15D0     		beq	.L76
 1690 002e 6BB1     		cbz	r3, .L81
 1691              	.L77:
 577:Middlewares/lvgl/src/extra/widgets/colorwheel/lv_colorwheel.c **** 
 1692              		.loc 1 577 9 is_stmt 1 view .LVU520
 1693 0030 2846     		mov	r0, r5
 1694 0032 FFF7FEFF 		bl	lv_indev_wait_release
 1695              	.LVL174:
 579:Middlewares/lvgl/src/extra/widgets/colorwheel/lv_colorwheel.c ****             lv_res_t res = lv_event_send(obj, LV_EVENT_VALUE_CHANGED, NULL);
 1696              		.loc 1 579 9 view .LVU521
 579:Middlewares/lvgl/src/extra/widgets/colorwheel/lv_colorwheel.c ****             lv_res_t res = lv_event_send(obj, LV_EVENT_VALUE_CHANGED, NULL);
 1697              		.loc 1 579 12 is_stmt 0 view .LVU522
 1698 0036 0199     		ldr	r1, [sp, #4]
 1699 0038 2046     		mov	r0, r4
 1700 003a FFF7FEFF 		bl	lv_colorwheel_set_hsv
 1701              	.LVL175:
 579:Middlewares/lvgl/src/extra/widgets/colorwheel/lv_colorwheel.c ****             lv_res_t res = lv_event_send(obj, LV_EVENT_VALUE_CHANGED, NULL);
 1702              		.loc 1 579 11 view .LVU523
 1703 003e 80B9     		cbnz	r0, .L82
 1704              	.L74:
 579:Middlewares/lvgl/src/extra/widgets/colorwheel/lv_colorwheel.c ****             lv_res_t res = lv_event_send(obj, LV_EVENT_VALUE_CHANGED, NULL);
 1705              		.loc 1 579 11 view .LVU524
 1706              	.LBE75:
 584:Middlewares/lvgl/src/extra/widgets/colorwheel/lv_colorwheel.c **** 
 1707              		.loc 1 584 5 is_stmt 1 view .LVU525
 584:Middlewares/lvgl/src/extra/widgets/colorwheel/lv_colorwheel.c **** 
 1708              		.loc 1 584 35 is_stmt 0 view .LVU526
 1709 0040 FFF7FEFF 		bl	lv_tick_get
 1710              	.LVL176:
 584:Middlewares/lvgl/src/extra/widgets/colorwheel/lv_colorwheel.c **** 
 1711              		.loc 1 584 33 view .LVU527
 1712 0044 2063     		str	r0, [r4, #48]
 586:Middlewares/lvgl/src/extra/widgets/colorwheel/lv_colorwheel.c **** }
 1713              		.loc 1 586 5 is_stmt 1 view .LVU528
 586:Middlewares/lvgl/src/extra/widgets/colorwheel/lv_colorwheel.c **** }
 1714              		.loc 1 586 12 is_stmt 0 view .LVU529
 1715 0046 0120     		movs	r0, #1
 1716              	.L79:
 587:Middlewares/lvgl/src/extra/widgets/colorwheel/lv_colorwheel.c **** 
 1717              		.loc 1 587 1 view .LVU530
 1718 0048 03B0     		add	sp, sp, #12
 1719              	.LCFI22:
 1720              		.cfi_remember_state
 1721              		.cfi_def_cfa_offset 12
 1722              		@ sp needed
 1723 004a 30BD     		pop	{r4, r5, pc}
 1724              	.LVL177:
 1725              	.L81:
 1726              	.LCFI23:
 1727              		.cfi_restore_state
 1728              	.LBB77:
ARM GAS  /tmp/ccAb9Zks.s 			page 72


 567:Middlewares/lvgl/src/extra/widgets/colorwheel/lv_colorwheel.c ****                 break;
 1729              		.loc 1 567 17 is_stmt 1 view .LVU531
 567:Middlewares/lvgl/src/extra/widgets/colorwheel/lv_colorwheel.c ****                 break;
 1730              		.loc 1 567 27 is_stmt 0 view .LVU532
 1731 004c ADF80430 		strh	r3, [sp, #4]	@ movhi
 568:Middlewares/lvgl/src/extra/widgets/colorwheel/lv_colorwheel.c ****             case LV_COLORWHEEL_MODE_SATURATION:
 1732              		.loc 1 568 17 is_stmt 1 view .LVU533
 1733 0050 EEE7     		b	.L77
 1734              	.L75:
 570:Middlewares/lvgl/src/extra/widgets/colorwheel/lv_colorwheel.c ****                 break;
 1735              		.loc 1 570 17 view .LVU534
 570:Middlewares/lvgl/src/extra/widgets/colorwheel/lv_colorwheel.c ****                 break;
 1736              		.loc 1 570 27 is_stmt 0 view .LVU535
 1737 0052 6423     		movs	r3, #100
 1738 0054 8DF80630 		strb	r3, [sp, #6]
 571:Middlewares/lvgl/src/extra/widgets/colorwheel/lv_colorwheel.c ****             case LV_COLORWHEEL_MODE_VALUE:
 1739              		.loc 1 571 17 is_stmt 1 view .LVU536
 1740 0058 EAE7     		b	.L77
 1741              	.L76:
 573:Middlewares/lvgl/src/extra/widgets/colorwheel/lv_colorwheel.c ****                 break;
 1742              		.loc 1 573 17 view .LVU537
 573:Middlewares/lvgl/src/extra/widgets/colorwheel/lv_colorwheel.c ****                 break;
 1743              		.loc 1 573 27 is_stmt 0 view .LVU538
 1744 005a 6423     		movs	r3, #100
 1745 005c 8DF80730 		strb	r3, [sp, #7]
 574:Middlewares/lvgl/src/extra/widgets/colorwheel/lv_colorwheel.c ****         }
 1746              		.loc 1 574 17 is_stmt 1 view .LVU539
 1747 0060 E6E7     		b	.L77
 1748              	.L82:
 1749              	.LBB76:
 580:Middlewares/lvgl/src/extra/widgets/colorwheel/lv_colorwheel.c ****             if(res != LV_RES_OK) return res;
 1750              		.loc 1 580 13 view .LVU540
 580:Middlewares/lvgl/src/extra/widgets/colorwheel/lv_colorwheel.c ****             if(res != LV_RES_OK) return res;
 1751              		.loc 1 580 28 is_stmt 0 view .LVU541
 1752 0062 0022     		movs	r2, #0
 1753 0064 1C21     		movs	r1, #28
 1754 0066 2046     		mov	r0, r4
 1755 0068 FFF7FEFF 		bl	lv_event_send
 1756              	.LVL178:
 581:Middlewares/lvgl/src/extra/widgets/colorwheel/lv_colorwheel.c ****         }
 1757              		.loc 1 581 13 is_stmt 1 view .LVU542
 581:Middlewares/lvgl/src/extra/widgets/colorwheel/lv_colorwheel.c ****         }
 1758              		.loc 1 581 15 is_stmt 0 view .LVU543
 1759 006c 0128     		cmp	r0, #1
 1760 006e EBD1     		bne	.L79
 1761 0070 E6E7     		b	.L74
 1762              	.LBE76:
 1763              	.LBE77:
 1764              		.cfi_endproc
 1765              	.LFE201:
 1767              		.section	.text.lv_colorwheel_set_rgb,"ax",%progbits
 1768              		.align	1
 1769              		.global	lv_colorwheel_set_rgb
 1770              		.syntax unified
 1771              		.thumb
 1772              		.thumb_func
 1774              	lv_colorwheel_set_rgb:
ARM GAS  /tmp/ccAb9Zks.s 			page 73


 1775              	.LVL179:
 1776              	.LFB186:
 121:Middlewares/lvgl/src/extra/widgets/colorwheel/lv_colorwheel.c ****     lv_color32_t c32;
 1777              		.loc 1 121 1 is_stmt 1 view -0
 1778              		.cfi_startproc
 1779              		@ args = 0, pretend = 0, frame = 8
 1780              		@ frame_needed = 0, uses_anonymous_args = 0
 121:Middlewares/lvgl/src/extra/widgets/colorwheel/lv_colorwheel.c ****     lv_color32_t c32;
 1781              		.loc 1 121 1 is_stmt 0 view .LVU545
 1782 0000 10B5     		push	{r4, lr}
 1783              	.LCFI24:
 1784              		.cfi_def_cfa_offset 8
 1785              		.cfi_offset 4, -8
 1786              		.cfi_offset 14, -4
 1787 0002 82B0     		sub	sp, sp, #8
 1788              	.LCFI25:
 1789              		.cfi_def_cfa_offset 16
 1790 0004 0446     		mov	r4, r0
 122:Middlewares/lvgl/src/extra/widgets/colorwheel/lv_colorwheel.c ****     c32.full = lv_color_to32(color);
 1791              		.loc 1 122 5 is_stmt 1 view .LVU546
 123:Middlewares/lvgl/src/extra/widgets/colorwheel/lv_colorwheel.c **** 
 1792              		.loc 1 123 5 view .LVU547
 1793              	.LBB80:
 1794              	.LBI80:
 395:Middlewares/lvgl/src/extra/widgets/colorwheel/../../../../src/hal/../misc/lv_color.h **** {
 1795              		.loc 2 395 24 view .LVU548
 1796              	.LBB81:
 439:Middlewares/lvgl/src/extra/widgets/colorwheel/../../../../src/hal/../misc/lv_color.h ****     LV_COLOR_SET_R32(ret, (LV_COLOR_GET_R(color) * 263 + 7) >> 5);
 1797              		.loc 2 439 5 view .LVU549
 440:Middlewares/lvgl/src/extra/widgets/colorwheel/../../../../src/hal/../misc/lv_color.h ****     LV_COLOR_SET_G32(ret, (LV_COLOR_GET_G(color) * 259 + 3) >> 6);
 1798              		.loc 2 440 5 view .LVU550
 1799 0006 C1F3C423 		ubfx	r3, r1, #11, #5
 1800 000a 03EB4312 		add	r2, r3, r3, lsl #5
 1801 000e C3EBC203 		rsb	r3, r3, r2, lsl #3
 1802 0012 0733     		adds	r3, r3, #7
 1803 0014 C3F34713 		ubfx	r3, r3, #5, #8
 1804 0018 0020     		movs	r0, #0
 1805              	.LVL180:
 440:Middlewares/lvgl/src/extra/widgets/colorwheel/../../../../src/hal/../misc/lv_color.h ****     LV_COLOR_SET_G32(ret, (LV_COLOR_GET_G(color) * 259 + 3) >> 6);
 1806              		.loc 2 440 5 is_stmt 0 view .LVU551
 1807 001a 63F31740 		bfi	r0, r3, #16, #8
 1808              	.LVL181:
 441:Middlewares/lvgl/src/extra/widgets/colorwheel/../../../../src/hal/../misc/lv_color.h ****     LV_COLOR_SET_B32(ret, (LV_COLOR_GET_B(color) * 263 + 7) >> 5);
 1809              		.loc 2 441 5 is_stmt 1 view .LVU552
 1810 001e C1F34513 		ubfx	r3, r1, #5, #6
 1811 0022 03EBC312 		add	r2, r3, r3, lsl #7
 1812 0026 03EB4203 		add	r3, r3, r2, lsl #1
 1813 002a 0333     		adds	r3, r3, #3
 1814 002c C3F38713 		ubfx	r3, r3, #6, #8
 1815 0030 63F30F20 		bfi	r0, r3, #8, #8
 442:Middlewares/lvgl/src/extra/widgets/colorwheel/../../../../src/hal/../misc/lv_color.h ****     LV_COLOR_SET_A32(ret, 0xFF);
 1816              		.loc 2 442 5 view .LVU553
 1817 0034 01F01F01 		and	r1, r1, #31
 1818              	.LVL182:
 442:Middlewares/lvgl/src/extra/widgets/colorwheel/../../../../src/hal/../misc/lv_color.h ****     LV_COLOR_SET_A32(ret, 0xFF);
 1819              		.loc 2 442 5 is_stmt 0 view .LVU554
 1820 0038 01EB4113 		add	r3, r1, r1, lsl #5
ARM GAS  /tmp/ccAb9Zks.s 			page 74


 1821 003c C1EBC301 		rsb	r1, r1, r3, lsl #3
 1822 0040 0731     		adds	r1, r1, #7
 1823 0042 C1F34711 		ubfx	r1, r1, #5, #8
 1824 0046 61F30700 		bfi	r0, r1, #0, #8
 443:Middlewares/lvgl/src/extra/widgets/colorwheel/../../../../src/hal/../misc/lv_color.h ****     return ret.full;
 1825              		.loc 2 443 5 is_stmt 1 view .LVU555
 1826 004a 40F07F40 		orr	r0, r0, #-16777216
 1827              	.LVL183:
 444:Middlewares/lvgl/src/extra/widgets/colorwheel/../../../../src/hal/../misc/lv_color.h **** #elif LV_COLOR_DEPTH == 32
 1828              		.loc 2 444 5 view .LVU556
 1829              	.LBE81:
 1830              	.LBE80:
 125:Middlewares/lvgl/src/extra/widgets/colorwheel/lv_colorwheel.c **** }
 1831              		.loc 1 125 5 view .LVU557
 125:Middlewares/lvgl/src/extra/widgets/colorwheel/lv_colorwheel.c **** }
 1832              		.loc 1 125 12 is_stmt 0 view .LVU558
 1833 004e C2B2     		uxtb	r2, r0
 1834 0050 C0F30721 		ubfx	r1, r0, #8, #8
 1835 0054 C0F30740 		ubfx	r0, r0, #16, #8
 125:Middlewares/lvgl/src/extra/widgets/colorwheel/lv_colorwheel.c **** }
 1836              		.loc 1 125 12 view .LVU559
 1837 0058 FFF7FEFF 		bl	lv_color_rgb_to_hsv
 1838              	.LVL184:
 1839 005c 0146     		mov	r1, r0
 1840 005e 0190     		str	r0, [sp, #4]
 1841 0060 2046     		mov	r0, r4
 1842 0062 FFF7FEFF 		bl	lv_colorwheel_set_hsv
 1843              	.LVL185:
 126:Middlewares/lvgl/src/extra/widgets/colorwheel/lv_colorwheel.c **** 
 1844              		.loc 1 126 1 view .LVU560
 1845 0066 02B0     		add	sp, sp, #8
 1846              	.LCFI26:
 1847              		.cfi_def_cfa_offset 8
 1848              		@ sp needed
 1849 0068 10BD     		pop	{r4, pc}
 126:Middlewares/lvgl/src/extra/widgets/colorwheel/lv_colorwheel.c **** 
 1850              		.loc 1 126 1 view .LVU561
 1851              		.cfi_endproc
 1852              	.LFE186:
 1854              		.section	.text.lv_colorwheel_set_mode,"ax",%progbits
 1855              		.align	1
 1856              		.global	lv_colorwheel_set_mode
 1857              		.syntax unified
 1858              		.thumb
 1859              		.thumb_func
 1861              	lv_colorwheel_set_mode:
 1862              	.LVL186:
 1863              	.LFB187:
 134:Middlewares/lvgl/src/extra/widgets/colorwheel/lv_colorwheel.c ****     lv_colorwheel_t * colorwheel = (lv_colorwheel_t *)obj;
 1864              		.loc 1 134 1 is_stmt 1 view -0
 1865              		.cfi_startproc
 1866              		@ args = 0, pretend = 0, frame = 0
 1867              		@ frame_needed = 0, uses_anonymous_args = 0
 134:Middlewares/lvgl/src/extra/widgets/colorwheel/lv_colorwheel.c ****     lv_colorwheel_t * colorwheel = (lv_colorwheel_t *)obj;
 1868              		.loc 1 134 1 is_stmt 0 view .LVU563
 1869 0000 10B5     		push	{r4, lr}
 1870              	.LCFI27:
ARM GAS  /tmp/ccAb9Zks.s 			page 75


 1871              		.cfi_def_cfa_offset 8
 1872              		.cfi_offset 4, -8
 1873              		.cfi_offset 14, -4
 1874 0002 0446     		mov	r4, r0
 135:Middlewares/lvgl/src/extra/widgets/colorwheel/lv_colorwheel.c **** 
 1875              		.loc 1 135 5 is_stmt 1 view .LVU564
 1876              	.LVL187:
 137:Middlewares/lvgl/src/extra/widgets/colorwheel/lv_colorwheel.c ****     refr_knob_pos(obj);
 1877              		.loc 1 137 5 view .LVU565
 137:Middlewares/lvgl/src/extra/widgets/colorwheel/lv_colorwheel.c ****     refr_knob_pos(obj);
 1878              		.loc 1 137 22 is_stmt 0 view .LVU566
 1879 0004 90F83C30 		ldrb	r3, [r0, #60]	@ zero_extendqisi2
 1880 0008 61F30103 		bfi	r3, r1, #0, #2
 1881 000c 80F83C30 		strb	r3, [r0, #60]
 138:Middlewares/lvgl/src/extra/widgets/colorwheel/lv_colorwheel.c ****     lv_obj_invalidate(obj);
 1882              		.loc 1 138 5 is_stmt 1 view .LVU567
 1883 0010 FFF7FEFF 		bl	refr_knob_pos
 1884              	.LVL188:
 139:Middlewares/lvgl/src/extra/widgets/colorwheel/lv_colorwheel.c **** }
 1885              		.loc 1 139 5 view .LVU568
 1886 0014 2046     		mov	r0, r4
 1887 0016 FFF7FEFF 		bl	lv_obj_invalidate
 1888              	.LVL189:
 140:Middlewares/lvgl/src/extra/widgets/colorwheel/lv_colorwheel.c **** 
 1889              		.loc 1 140 1 is_stmt 0 view .LVU569
 1890 001a 10BD     		pop	{r4, pc}
 140:Middlewares/lvgl/src/extra/widgets/colorwheel/lv_colorwheel.c **** 
 1891              		.loc 1 140 1 view .LVU570
 1892              		.cfi_endproc
 1893              	.LFE187:
 1895              		.section	.text.lv_colorwheel_set_mode_fixed,"ax",%progbits
 1896              		.align	1
 1897              		.global	lv_colorwheel_set_mode_fixed
 1898              		.syntax unified
 1899              		.thumb
 1900              		.thumb_func
 1902              	lv_colorwheel_set_mode_fixed:
 1903              	.LVL190:
 1904              	.LFB188:
 148:Middlewares/lvgl/src/extra/widgets/colorwheel/lv_colorwheel.c ****     lv_colorwheel_t * colorwheel = (lv_colorwheel_t *)obj;
 1905              		.loc 1 148 1 is_stmt 1 view -0
 1906              		.cfi_startproc
 1907              		@ args = 0, pretend = 0, frame = 0
 1908              		@ frame_needed = 0, uses_anonymous_args = 0
 1909              		@ link register save eliminated.
 149:Middlewares/lvgl/src/extra/widgets/colorwheel/lv_colorwheel.c **** 
 1910              		.loc 1 149 5 view .LVU572
 151:Middlewares/lvgl/src/extra/widgets/colorwheel/lv_colorwheel.c **** }
 1911              		.loc 1 151 5 view .LVU573
 151:Middlewares/lvgl/src/extra/widgets/colorwheel/lv_colorwheel.c **** }
 1912              		.loc 1 151 28 is_stmt 0 view .LVU574
 1913 0000 90F83C30 		ldrb	r3, [r0, #60]	@ zero_extendqisi2
 1914 0004 61F38203 		bfi	r3, r1, #2, #1
 1915 0008 80F83C30 		strb	r3, [r0, #60]
 152:Middlewares/lvgl/src/extra/widgets/colorwheel/lv_colorwheel.c **** 
 1916              		.loc 1 152 1 view .LVU575
 1917 000c 7047     		bx	lr
ARM GAS  /tmp/ccAb9Zks.s 			page 76


 1918              		.cfi_endproc
 1919              	.LFE188:
 1921              		.section	.text.lv_colorwheel_get_hsv,"ax",%progbits
 1922              		.align	1
 1923              		.global	lv_colorwheel_get_hsv
 1924              		.syntax unified
 1925              		.thumb
 1926              		.thumb_func
 1928              	lv_colorwheel_get_hsv:
 1929              	.LVL191:
 1930              	.LFB189:
 165:Middlewares/lvgl/src/extra/widgets/colorwheel/lv_colorwheel.c ****     lv_colorwheel_t * colorwheel = (lv_colorwheel_t *)obj;
 1931              		.loc 1 165 1 is_stmt 1 view -0
 1932              		.cfi_startproc
 1933              		@ args = 0, pretend = 0, frame = 8
 1934              		@ frame_needed = 0, uses_anonymous_args = 0
 1935              		@ link register save eliminated.
 165:Middlewares/lvgl/src/extra/widgets/colorwheel/lv_colorwheel.c ****     lv_colorwheel_t * colorwheel = (lv_colorwheel_t *)obj;
 1936              		.loc 1 165 1 is_stmt 0 view .LVU577
 1937 0000 82B0     		sub	sp, sp, #8
 1938              	.LCFI28:
 1939              		.cfi_def_cfa_offset 8
 166:Middlewares/lvgl/src/extra/widgets/colorwheel/lv_colorwheel.c **** 
 1940              		.loc 1 166 5 is_stmt 1 view .LVU578
 1941              	.LVL192:
 168:Middlewares/lvgl/src/extra/widgets/colorwheel/lv_colorwheel.c **** }
 1942              		.loc 1 168 5 view .LVU579
 168:Middlewares/lvgl/src/extra/widgets/colorwheel/lv_colorwheel.c **** }
 1943              		.loc 1 168 22 is_stmt 0 view .LVU580
 1944 0002 436A     		ldr	r3, [r0, #36]
 1945 0004 0193     		str	r3, [sp, #4]
 1946 0006 0020     		movs	r0, #0
 1947              	.LVL193:
 168:Middlewares/lvgl/src/extra/widgets/colorwheel/lv_colorwheel.c **** }
 1948              		.loc 1 168 22 view .LVU581
 1949 0008 BDF80430 		ldrh	r3, [sp, #4]
 1950 000c 63F30F00 		bfi	r0, r3, #0, #16
 1951 0010 BDF80630 		ldrh	r3, [sp, #6]
 1952 0014 63F31F40 		bfi	r0, r3, #16, #16
 169:Middlewares/lvgl/src/extra/widgets/colorwheel/lv_colorwheel.c **** 
 1953              		.loc 1 169 1 view .LVU582
 1954 0018 02B0     		add	sp, sp, #8
 1955              	.LCFI29:
 1956              		.cfi_def_cfa_offset 0
 1957              		@ sp needed
 1958 001a 7047     		bx	lr
 1959              		.cfi_endproc
 1960              	.LFE189:
 1962              		.section	.text.lv_colorwheel_get_rgb,"ax",%progbits
 1963              		.align	1
 1964              		.global	lv_colorwheel_get_rgb
 1965              		.syntax unified
 1966              		.thumb
 1967              		.thumb_func
 1969              	lv_colorwheel_get_rgb:
 1970              	.LVL194:
 1971              	.LFB190:
ARM GAS  /tmp/ccAb9Zks.s 			page 77


 177:Middlewares/lvgl/src/extra/widgets/colorwheel/lv_colorwheel.c ****     lv_colorwheel_t * colorwheel = (lv_colorwheel_t *)obj;
 1972              		.loc 1 177 1 is_stmt 1 view -0
 1973              		.cfi_startproc
 1974              		@ args = 0, pretend = 0, frame = 0
 1975              		@ frame_needed = 0, uses_anonymous_args = 0
 177:Middlewares/lvgl/src/extra/widgets/colorwheel/lv_colorwheel.c ****     lv_colorwheel_t * colorwheel = (lv_colorwheel_t *)obj;
 1976              		.loc 1 177 1 is_stmt 0 view .LVU584
 1977 0000 08B5     		push	{r3, lr}
 1978              	.LCFI30:
 1979              		.cfi_def_cfa_offset 8
 1980              		.cfi_offset 3, -8
 1981              		.cfi_offset 14, -4
 178:Middlewares/lvgl/src/extra/widgets/colorwheel/lv_colorwheel.c **** 
 1982              		.loc 1 178 5 is_stmt 1 view .LVU585
 1983              	.LVL195:
 180:Middlewares/lvgl/src/extra/widgets/colorwheel/lv_colorwheel.c **** }
 1984              		.loc 1 180 5 view .LVU586
 180:Middlewares/lvgl/src/extra/widgets/colorwheel/lv_colorwheel.c **** }
 1985              		.loc 1 180 12 is_stmt 0 view .LVU587
 1986 0002 90F82720 		ldrb	r2, [r0, #39]	@ zero_extendqisi2
 1987 0006 90F82610 		ldrb	r1, [r0, #38]	@ zero_extendqisi2
 1988 000a 808C     		ldrh	r0, [r0, #36]
 1989              	.LVL196:
 180:Middlewares/lvgl/src/extra/widgets/colorwheel/lv_colorwheel.c **** }
 1990              		.loc 1 180 12 view .LVU588
 1991 000c FFF7FEFF 		bl	lv_color_hsv_to_rgb
 1992              	.LVL197:
 181:Middlewares/lvgl/src/extra/widgets/colorwheel/lv_colorwheel.c **** 
 1993              		.loc 1 181 1 view .LVU589
 1994 0010 08BD     		pop	{r3, pc}
 1995              		.cfi_endproc
 1996              	.LFE190:
 1998              		.section	.text.draw_knob,"ax",%progbits
 1999              		.align	1
 2000              		.syntax unified
 2001              		.thumb
 2002              		.thumb_func
 2004              	draw_knob:
 2005              	.LVL198:
 2006              	.LFB195:
 296:Middlewares/lvgl/src/extra/widgets/colorwheel/lv_colorwheel.c ****     lv_obj_t * obj = lv_event_get_target(e);
 2007              		.loc 1 296 1 is_stmt 1 view -0
 2008              		.cfi_startproc
 2009              		@ args = 0, pretend = 0, frame = 64
 2010              		@ frame_needed = 0, uses_anonymous_args = 0
 296:Middlewares/lvgl/src/extra/widgets/colorwheel/lv_colorwheel.c ****     lv_obj_t * obj = lv_event_get_target(e);
 2011              		.loc 1 296 1 is_stmt 0 view .LVU591
 2012 0000 30B5     		push	{r4, r5, lr}
 2013              	.LCFI31:
 2014              		.cfi_def_cfa_offset 12
 2015              		.cfi_offset 4, -12
 2016              		.cfi_offset 5, -8
 2017              		.cfi_offset 14, -4
 2018 0002 91B0     		sub	sp, sp, #68
 2019              	.LCFI32:
 2020              		.cfi_def_cfa_offset 80
 2021 0004 0546     		mov	r5, r0
ARM GAS  /tmp/ccAb9Zks.s 			page 78


 297:Middlewares/lvgl/src/extra/widgets/colorwheel/lv_colorwheel.c ****     const lv_area_t * clip_area = lv_event_get_param(e);
 2022              		.loc 1 297 5 is_stmt 1 view .LVU592
 297:Middlewares/lvgl/src/extra/widgets/colorwheel/lv_colorwheel.c ****     const lv_area_t * clip_area = lv_event_get_param(e);
 2023              		.loc 1 297 22 is_stmt 0 view .LVU593
 2024 0006 FFF7FEFF 		bl	lv_event_get_target
 2025              	.LVL199:
 297:Middlewares/lvgl/src/extra/widgets/colorwheel/lv_colorwheel.c ****     const lv_area_t * clip_area = lv_event_get_param(e);
 2026              		.loc 1 297 22 view .LVU594
 2027 000a 0446     		mov	r4, r0
 2028              	.LVL200:
 298:Middlewares/lvgl/src/extra/widgets/colorwheel/lv_colorwheel.c ****     lv_colorwheel_t * colorwheel = (lv_colorwheel_t *)obj;
 2029              		.loc 1 298 5 is_stmt 1 view .LVU595
 298:Middlewares/lvgl/src/extra/widgets/colorwheel/lv_colorwheel.c ****     lv_colorwheel_t * colorwheel = (lv_colorwheel_t *)obj;
 2030              		.loc 1 298 35 is_stmt 0 view .LVU596
 2031 000c 2846     		mov	r0, r5
 2032              	.LVL201:
 298:Middlewares/lvgl/src/extra/widgets/colorwheel/lv_colorwheel.c ****     lv_colorwheel_t * colorwheel = (lv_colorwheel_t *)obj;
 2033              		.loc 1 298 35 view .LVU597
 2034 000e FFF7FEFF 		bl	lv_event_get_param
 2035              	.LVL202:
 2036 0012 0546     		mov	r5, r0
 2037              	.LVL203:
 299:Middlewares/lvgl/src/extra/widgets/colorwheel/lv_colorwheel.c **** 
 2038              		.loc 1 299 5 is_stmt 1 view .LVU598
 301:Middlewares/lvgl/src/extra/widgets/colorwheel/lv_colorwheel.c ****     lv_draw_rect_dsc_init(&cir_dsc);
 2039              		.loc 1 301 5 view .LVU599
 302:Middlewares/lvgl/src/extra/widgets/colorwheel/lv_colorwheel.c ****     lv_obj_init_draw_rect_dsc(obj, LV_PART_KNOB, &cir_dsc);
 2040              		.loc 1 302 5 view .LVU600
 2041 0014 03A8     		add	r0, sp, #12
 2042              	.LVL204:
 302:Middlewares/lvgl/src/extra/widgets/colorwheel/lv_colorwheel.c ****     lv_obj_init_draw_rect_dsc(obj, LV_PART_KNOB, &cir_dsc);
 2043              		.loc 1 302 5 is_stmt 0 view .LVU601
 2044 0016 FFF7FEFF 		bl	lv_draw_rect_dsc_init
 2045              	.LVL205:
 303:Middlewares/lvgl/src/extra/widgets/colorwheel/lv_colorwheel.c **** 
 2046              		.loc 1 303 5 is_stmt 1 view .LVU602
 2047 001a 03AA     		add	r2, sp, #12
 2048 001c 4FF44031 		mov	r1, #196608
 2049 0020 2046     		mov	r0, r4
 2050 0022 FFF7FEFF 		bl	lv_obj_init_draw_rect_dsc
 2051              	.LVL206:
 305:Middlewares/lvgl/src/extra/widgets/colorwheel/lv_colorwheel.c **** 
 2052              		.loc 1 305 5 view .LVU603
 305:Middlewares/lvgl/src/extra/widgets/colorwheel/lv_colorwheel.c **** 
 2053              		.loc 1 305 20 is_stmt 0 view .LVU604
 2054 0026 47F6FF73 		movw	r3, #32767
 2055 002a ADF80C30 		strh	r3, [sp, #12]	@ movhi
 307:Middlewares/lvgl/src/extra/widgets/colorwheel/lv_colorwheel.c ****         cir_dsc.bg_color = lv_colorwheel_get_rgb(obj);
 2056              		.loc 1 307 5 is_stmt 1 view .LVU605
 307:Middlewares/lvgl/src/extra/widgets/colorwheel/lv_colorwheel.c ****         cir_dsc.bg_color = lv_colorwheel_get_rgb(obj);
 2057              		.loc 1 307 8 is_stmt 0 view .LVU606
 2058 002e 94F82C30 		ldrb	r3, [r4, #44]	@ zero_extendqisi2
 307:Middlewares/lvgl/src/extra/widgets/colorwheel/lv_colorwheel.c ****         cir_dsc.bg_color = lv_colorwheel_get_rgb(obj);
 2059              		.loc 1 307 7 view .LVU607
 2060 0032 13F0010F 		tst	r3, #1
 2061 0036 0AD1     		bne	.L95
 2062              	.L93:
ARM GAS  /tmp/ccAb9Zks.s 			page 79


 311:Middlewares/lvgl/src/extra/widgets/colorwheel/lv_colorwheel.c **** 
 2063              		.loc 1 311 5 is_stmt 1 view .LVU608
 311:Middlewares/lvgl/src/extra/widgets/colorwheel/lv_colorwheel.c **** 
 2064              		.loc 1 311 27 is_stmt 0 view .LVU609
 2065 0038 2146     		mov	r1, r4
 2066 003a 01A8     		add	r0, sp, #4
 2067 003c FFF7FEFF 		bl	get_knob_area
 2068              	.LVL207:
 313:Middlewares/lvgl/src/extra/widgets/colorwheel/lv_colorwheel.c **** }
 2069              		.loc 1 313 5 is_stmt 1 view .LVU610
 2070 0040 03AA     		add	r2, sp, #12
 2071 0042 2946     		mov	r1, r5
 2072 0044 01A8     		add	r0, sp, #4
 2073 0046 FFF7FEFF 		bl	lv_draw_rect
 2074              	.LVL208:
 314:Middlewares/lvgl/src/extra/widgets/colorwheel/lv_colorwheel.c **** 
 2075              		.loc 1 314 1 is_stmt 0 view .LVU611
 2076 004a 11B0     		add	sp, sp, #68
 2077              	.LCFI33:
 2078              		.cfi_remember_state
 2079              		.cfi_def_cfa_offset 12
 2080              		@ sp needed
 2081 004c 30BD     		pop	{r4, r5, pc}
 2082              	.LVL209:
 2083              	.L95:
 2084              	.LCFI34:
 2085              		.cfi_restore_state
 308:Middlewares/lvgl/src/extra/widgets/colorwheel/lv_colorwheel.c ****     }
 2086              		.loc 1 308 9 is_stmt 1 view .LVU612
 308:Middlewares/lvgl/src/extra/widgets/colorwheel/lv_colorwheel.c ****     }
 2087              		.loc 1 308 28 is_stmt 0 view .LVU613
 2088 004e 2046     		mov	r0, r4
 2089 0050 FFF7FEFF 		bl	lv_colorwheel_get_rgb
 2090              	.LVL210:
 2091 0054 ADF81000 		strh	r0, [sp, #16]	@ movhi
 2092 0058 EEE7     		b	.L93
 2093              		.cfi_endproc
 2094              	.LFE195:
 2096              		.section	.text.lv_colorwheel_event,"ax",%progbits
 2097              		.align	1
 2098              		.syntax unified
 2099              		.thumb
 2100              		.thumb_func
 2102              	lv_colorwheel_event:
 2103              	.LVL211:
 2104              	.LFB198:
 346:Middlewares/lvgl/src/extra/widgets/colorwheel/lv_colorwheel.c ****     LV_UNUSED(class_p);
 2105              		.loc 1 346 1 is_stmt 1 view -0
 2106              		.cfi_startproc
 2107              		@ args = 0, pretend = 0, frame = 8
 2108              		@ frame_needed = 0, uses_anonymous_args = 0
 346:Middlewares/lvgl/src/extra/widgets/colorwheel/lv_colorwheel.c ****     LV_UNUSED(class_p);
 2109              		.loc 1 346 1 is_stmt 0 view .LVU615
 2110 0000 2DE9F043 		push	{r4, r5, r6, r7, r8, r9, lr}
 2111              	.LCFI35:
 2112              		.cfi_def_cfa_offset 28
 2113              		.cfi_offset 4, -28
ARM GAS  /tmp/ccAb9Zks.s 			page 80


 2114              		.cfi_offset 5, -24
 2115              		.cfi_offset 6, -20
 2116              		.cfi_offset 7, -16
 2117              		.cfi_offset 8, -12
 2118              		.cfi_offset 9, -8
 2119              		.cfi_offset 14, -4
 2120 0004 83B0     		sub	sp, sp, #12
 2121              	.LCFI36:
 2122              		.cfi_def_cfa_offset 40
 2123 0006 0D46     		mov	r5, r1
 347:Middlewares/lvgl/src/extra/widgets/colorwheel/lv_colorwheel.c **** 
 2124              		.loc 1 347 5 is_stmt 1 view .LVU616
 350:Middlewares/lvgl/src/extra/widgets/colorwheel/lv_colorwheel.c **** 
 2125              		.loc 1 350 5 view .LVU617
 350:Middlewares/lvgl/src/extra/widgets/colorwheel/lv_colorwheel.c **** 
 2126              		.loc 1 350 20 is_stmt 0 view .LVU618
 2127 0008 8B48     		ldr	r0, .L157
 2128              	.LVL212:
 350:Middlewares/lvgl/src/extra/widgets/colorwheel/lv_colorwheel.c **** 
 2129              		.loc 1 350 20 view .LVU619
 2130 000a FFF7FEFF 		bl	lv_obj_event_base
 2131              	.LVL213:
 352:Middlewares/lvgl/src/extra/widgets/colorwheel/lv_colorwheel.c **** 
 2132              		.loc 1 352 5 is_stmt 1 view .LVU620
 352:Middlewares/lvgl/src/extra/widgets/colorwheel/lv_colorwheel.c **** 
 2133              		.loc 1 352 7 is_stmt 0 view .LVU621
 2134 000e 0128     		cmp	r0, #1
 2135 0010 02D0     		beq	.L140
 2136              	.LVL214:
 2137              	.L96:
 526:Middlewares/lvgl/src/extra/widgets/colorwheel/lv_colorwheel.c **** 
 2138              		.loc 1 526 1 view .LVU622
 2139 0012 03B0     		add	sp, sp, #12
 2140              	.LCFI37:
 2141              		.cfi_remember_state
 2142              		.cfi_def_cfa_offset 28
 2143              		@ sp needed
 2144 0014 BDE8F083 		pop	{r4, r5, r6, r7, r8, r9, pc}
 2145              	.LVL215:
 2146              	.L140:
 2147              	.LCFI38:
 2148              		.cfi_restore_state
 354:Middlewares/lvgl/src/extra/widgets/colorwheel/lv_colorwheel.c ****     lv_obj_t * obj = lv_event_get_target(e);
 2149              		.loc 1 354 5 is_stmt 1 view .LVU623
 354:Middlewares/lvgl/src/extra/widgets/colorwheel/lv_colorwheel.c ****     lv_obj_t * obj = lv_event_get_target(e);
 2150              		.loc 1 354 28 is_stmt 0 view .LVU624
 2151 0018 2846     		mov	r0, r5
 2152              	.LVL216:
 354:Middlewares/lvgl/src/extra/widgets/colorwheel/lv_colorwheel.c ****     lv_obj_t * obj = lv_event_get_target(e);
 2153              		.loc 1 354 28 view .LVU625
 2154 001a FFF7FEFF 		bl	lv_event_get_code
 2155              	.LVL217:
 2156 001e 0446     		mov	r4, r0
 2157              	.LVL218:
 355:Middlewares/lvgl/src/extra/widgets/colorwheel/lv_colorwheel.c ****     lv_colorwheel_t * colorwheel = (lv_colorwheel_t *)obj;
 2158              		.loc 1 355 5 is_stmt 1 view .LVU626
 355:Middlewares/lvgl/src/extra/widgets/colorwheel/lv_colorwheel.c ****     lv_colorwheel_t * colorwheel = (lv_colorwheel_t *)obj;
ARM GAS  /tmp/ccAb9Zks.s 			page 81


 2159              		.loc 1 355 22 is_stmt 0 view .LVU627
 2160 0020 2846     		mov	r0, r5
 2161 0022 FFF7FEFF 		bl	lv_event_get_target
 2162              	.LVL219:
 2163 0026 0646     		mov	r6, r0
 2164              	.LVL220:
 356:Middlewares/lvgl/src/extra/widgets/colorwheel/lv_colorwheel.c **** 
 2165              		.loc 1 356 5 is_stmt 1 view .LVU628
 358:Middlewares/lvgl/src/extra/widgets/colorwheel/lv_colorwheel.c ****         lv_coord_t left = lv_obj_get_style_pad_left(obj, LV_PART_KNOB);
 2166              		.loc 1 358 5 view .LVU629
 358:Middlewares/lvgl/src/extra/widgets/colorwheel/lv_colorwheel.c ****         lv_coord_t left = lv_obj_get_style_pad_left(obj, LV_PART_KNOB);
 2167              		.loc 1 358 7 is_stmt 0 view .LVU630
 2168 0028 132C     		cmp	r4, #19
 2169 002a 1CD0     		beq	.L141
 368:Middlewares/lvgl/src/extra/widgets/colorwheel/lv_colorwheel.c ****         void * param = lv_event_get_param(e);
 2170              		.loc 1 368 10 is_stmt 1 view .LVU631
 368:Middlewares/lvgl/src/extra/widgets/colorwheel/lv_colorwheel.c ****         void * param = lv_event_get_param(e);
 2171              		.loc 1 368 12 is_stmt 0 view .LVU632
 2172 002c 232C     		cmp	r4, #35
 2173 002e 51D0     		beq	.L142
 376:Middlewares/lvgl/src/extra/widgets/colorwheel/lv_colorwheel.c ****         /*Refresh extended draw area to make knob visible*/
 2174              		.loc 1 376 10 is_stmt 1 view .LVU633
 376:Middlewares/lvgl/src/extra/widgets/colorwheel/lv_colorwheel.c ****         /*Refresh extended draw area to make knob visible*/
 2175              		.loc 1 376 12 is_stmt 0 view .LVU634
 2176 0030 242C     		cmp	r4, #36
 2177 0032 6ED0     		beq	.L143
 380:Middlewares/lvgl/src/extra/widgets/colorwheel/lv_colorwheel.c ****         uint32_t c = *((uint32_t *)lv_event_get_param(e)); /*uint32_t because can be UTF-8*/
 2178              		.loc 1 380 10 is_stmt 1 view .LVU635
 380:Middlewares/lvgl/src/extra/widgets/colorwheel/lv_colorwheel.c ****         uint32_t c = *((uint32_t *)lv_event_get_param(e)); /*uint32_t because can be UTF-8*/
 2179              		.loc 1 380 12 is_stmt 0 view .LVU636
 2180 0034 0D2C     		cmp	r4, #13
 2181 0036 6FD0     		beq	.L144
 426:Middlewares/lvgl/src/extra/widgets/colorwheel/lv_colorwheel.c ****         colorwheel->last_change_time = lv_tick_get();
 2182              		.loc 1 426 10 is_stmt 1 view .LVU637
 426:Middlewares/lvgl/src/extra/widgets/colorwheel/lv_colorwheel.c ****         colorwheel->last_change_time = lv_tick_get();
 2183              		.loc 1 426 12 is_stmt 0 view .LVU638
 2184 0038 012C     		cmp	r4, #1
 2185 003a 00F0F080 		beq	.L145
 432:Middlewares/lvgl/src/extra/widgets/colorwheel/lv_colorwheel.c ****         lv_indev_t * indev = lv_indev_get_act();
 2186              		.loc 1 432 10 is_stmt 1 view .LVU639
 432:Middlewares/lvgl/src/extra/widgets/colorwheel/lv_colorwheel.c ****         lv_indev_t * indev = lv_indev_get_act();
 2187              		.loc 1 432 12 is_stmt 0 view .LVU640
 2188 003e 022C     		cmp	r4, #2
 2189 0040 00F00081 		beq	.L146
 512:Middlewares/lvgl/src/extra/widgets/colorwheel/lv_colorwheel.c ****         lv_hit_test_info_t * info = lv_event_get_param(e);;
 2190              		.loc 1 512 10 is_stmt 1 view .LVU641
 512:Middlewares/lvgl/src/extra/widgets/colorwheel/lv_colorwheel.c ****         lv_hit_test_info_t * info = lv_event_get_param(e);;
 2191              		.loc 1 512 12 is_stmt 0 view .LVU642
 2192 0044 112C     		cmp	r4, #17
 2193 0046 00F0E981 		beq	.L147
 518:Middlewares/lvgl/src/extra/widgets/colorwheel/lv_colorwheel.c ****         draw_disc_grad(e);
 2194              		.loc 1 518 10 is_stmt 1 view .LVU643
 518:Middlewares/lvgl/src/extra/widgets/colorwheel/lv_colorwheel.c ****         draw_disc_grad(e);
 2195              		.loc 1 518 12 is_stmt 0 view .LVU644
 2196 004a 152C     		cmp	r4, #21
 2197 004c 00F0F381 		beq	.L148
 522:Middlewares/lvgl/src/extra/widgets/colorwheel/lv_colorwheel.c ****         lv_cover_check_info_t * info = lv_event_get_param(e);
ARM GAS  /tmp/ccAb9Zks.s 			page 82


 2198              		.loc 1 522 10 is_stmt 1 view .LVU645
 522:Middlewares/lvgl/src/extra/widgets/colorwheel/lv_colorwheel.c ****         lv_cover_check_info_t * info = lv_event_get_param(e);
 2199              		.loc 1 522 12 is_stmt 0 view .LVU646
 2200 0050 122C     		cmp	r4, #18
 2201 0052 DED1     		bne	.L96
 2202              	.LBB82:
 523:Middlewares/lvgl/src/extra/widgets/colorwheel/lv_colorwheel.c ****         if(info->res != LV_COVER_RES_MASKED) info->res = LV_COVER_RES_NOT_COVER;
 2203              		.loc 1 523 9 is_stmt 1 view .LVU647
 523:Middlewares/lvgl/src/extra/widgets/colorwheel/lv_colorwheel.c ****         if(info->res != LV_COVER_RES_MASKED) info->res = LV_COVER_RES_NOT_COVER;
 2204              		.loc 1 523 40 is_stmt 0 view .LVU648
 2205 0054 2846     		mov	r0, r5
 2206              	.LVL221:
 523:Middlewares/lvgl/src/extra/widgets/colorwheel/lv_colorwheel.c ****         if(info->res != LV_COVER_RES_MASKED) info->res = LV_COVER_RES_NOT_COVER;
 2207              		.loc 1 523 40 view .LVU649
 2208 0056 FFF7FEFF 		bl	lv_event_get_param
 2209              	.LVL222:
 524:Middlewares/lvgl/src/extra/widgets/colorwheel/lv_colorwheel.c ****     }
 2210              		.loc 1 524 9 is_stmt 1 view .LVU650
 524:Middlewares/lvgl/src/extra/widgets/colorwheel/lv_colorwheel.c ****     }
 2211              		.loc 1 524 16 is_stmt 0 view .LVU651
 2212 005a 0378     		ldrb	r3, [r0]	@ zero_extendqisi2
 524:Middlewares/lvgl/src/extra/widgets/colorwheel/lv_colorwheel.c ****     }
 2213              		.loc 1 524 11 view .LVU652
 2214 005c 022B     		cmp	r3, #2
 2215 005e D8D0     		beq	.L96
 524:Middlewares/lvgl/src/extra/widgets/colorwheel/lv_colorwheel.c ****     }
 2216              		.loc 1 524 46 is_stmt 1 discriminator 1 view .LVU653
 524:Middlewares/lvgl/src/extra/widgets/colorwheel/lv_colorwheel.c ****     }
 2217              		.loc 1 524 56 is_stmt 0 discriminator 1 view .LVU654
 2218 0060 0123     		movs	r3, #1
 2219 0062 0370     		strb	r3, [r0]
 2220 0064 D5E7     		b	.L96
 2221              	.LVL223:
 2222              	.L141:
 524:Middlewares/lvgl/src/extra/widgets/colorwheel/lv_colorwheel.c ****     }
 2223              		.loc 1 524 56 discriminator 1 view .LVU655
 2224              	.LBE82:
 2225              	.LBB83:
 359:Middlewares/lvgl/src/extra/widgets/colorwheel/lv_colorwheel.c ****         lv_coord_t right = lv_obj_get_style_pad_right(obj, LV_PART_KNOB);
 2226              		.loc 1 359 9 is_stmt 1 view .LVU656
 2227              	.LBB84:
 2228              	.LBI84:
 103:Middlewares/lvgl/src/extra/widgets/colorwheel/../../../../src/core/lv_obj_style_gen.h **** {
 2229              		.loc 3 103 26 view .LVU657
 2230              	.LBB85:
 105:Middlewares/lvgl/src/extra/widgets/colorwheel/../../../../src/core/lv_obj_style_gen.h ****     return (lv_coord_t)v.num;
 2231              		.loc 3 105 5 view .LVU658
 105:Middlewares/lvgl/src/extra/widgets/colorwheel/../../../../src/core/lv_obj_style_gen.h ****     return (lv_coord_t)v.num;
 2232              		.loc 3 105 26 is_stmt 0 view .LVU659
 2233 0066 41F21202 		movw	r2, #4114
 2234 006a 4FF44031 		mov	r1, #196608
 2235 006e FFF7FEFF 		bl	lv_obj_get_style_prop
 2236              	.LVL224:
 106:Middlewares/lvgl/src/extra/widgets/colorwheel/../../../../src/core/lv_obj_style_gen.h **** }
 2237              		.loc 3 106 5 is_stmt 1 view .LVU660
 106:Middlewares/lvgl/src/extra/widgets/colorwheel/../../../../src/core/lv_obj_style_gen.h **** }
 2238              		.loc 3 106 12 is_stmt 0 view .LVU661
ARM GAS  /tmp/ccAb9Zks.s 			page 83


 2239 0072 0FFA80F8 		sxth	r8, r0
 2240              	.LVL225:
 106:Middlewares/lvgl/src/extra/widgets/colorwheel/../../../../src/core/lv_obj_style_gen.h **** }
 2241              		.loc 3 106 12 view .LVU662
 2242              	.LBE85:
 2243              	.LBE84:
 360:Middlewares/lvgl/src/extra/widgets/colorwheel/lv_colorwheel.c ****         lv_coord_t top = lv_obj_get_style_pad_top(obj, LV_PART_KNOB);
 2244              		.loc 1 360 9 is_stmt 1 view .LVU663
 2245              	.LBB86:
 2246              	.LBI86:
 109:Middlewares/lvgl/src/extra/widgets/colorwheel/../../../../src/core/lv_obj_style_gen.h **** {
 2247              		.loc 3 109 26 view .LVU664
 2248              	.LBB87:
 111:Middlewares/lvgl/src/extra/widgets/colorwheel/../../../../src/core/lv_obj_style_gen.h ****     return (lv_coord_t)v.num;
 2249              		.loc 3 111 5 view .LVU665
 111:Middlewares/lvgl/src/extra/widgets/colorwheel/../../../../src/core/lv_obj_style_gen.h ****     return (lv_coord_t)v.num;
 2250              		.loc 3 111 26 is_stmt 0 view .LVU666
 2251 0076 41F21302 		movw	r2, #4115
 2252 007a 4FF44031 		mov	r1, #196608
 2253 007e 3046     		mov	r0, r6
 2254 0080 FFF7FEFF 		bl	lv_obj_get_style_prop
 2255              	.LVL226:
 112:Middlewares/lvgl/src/extra/widgets/colorwheel/../../../../src/core/lv_obj_style_gen.h **** }
 2256              		.loc 3 112 5 is_stmt 1 view .LVU667
 112:Middlewares/lvgl/src/extra/widgets/colorwheel/../../../../src/core/lv_obj_style_gen.h **** }
 2257              		.loc 3 112 12 is_stmt 0 view .LVU668
 2258 0084 07B2     		sxth	r7, r0
 2259              	.LVL227:
 112:Middlewares/lvgl/src/extra/widgets/colorwheel/../../../../src/core/lv_obj_style_gen.h **** }
 2260              		.loc 3 112 12 view .LVU669
 2261              	.LBE87:
 2262              	.LBE86:
 361:Middlewares/lvgl/src/extra/widgets/colorwheel/lv_colorwheel.c ****         lv_coord_t bottom = lv_obj_get_style_pad_bottom(obj, LV_PART_KNOB);
 2263              		.loc 1 361 9 is_stmt 1 view .LVU670
 2264              	.LBB88:
 2265              	.LBI88:
  91:Middlewares/lvgl/src/extra/widgets/colorwheel/../../../../src/core/lv_obj_style_gen.h **** {
 2266              		.loc 3 91 26 view .LVU671
 2267              	.LBB89:
  93:Middlewares/lvgl/src/extra/widgets/colorwheel/../../../../src/core/lv_obj_style_gen.h ****     return (lv_coord_t)v.num;
 2268              		.loc 3 93 5 view .LVU672
  93:Middlewares/lvgl/src/extra/widgets/colorwheel/../../../../src/core/lv_obj_style_gen.h ****     return (lv_coord_t)v.num;
 2269              		.loc 3 93 26 is_stmt 0 view .LVU673
 2270 0086 41F21002 		movw	r2, #4112
 2271 008a 4FF44031 		mov	r1, #196608
 2272 008e 3046     		mov	r0, r6
 2273 0090 FFF7FEFF 		bl	lv_obj_get_style_prop
 2274              	.LVL228:
  94:Middlewares/lvgl/src/extra/widgets/colorwheel/../../../../src/core/lv_obj_style_gen.h **** }
 2275              		.loc 3 94 5 is_stmt 1 view .LVU674
  94:Middlewares/lvgl/src/extra/widgets/colorwheel/../../../../src/core/lv_obj_style_gen.h **** }
 2276              		.loc 3 94 12 is_stmt 0 view .LVU675
 2277 0094 0FFA80F9 		sxth	r9, r0
 2278              	.LVL229:
  94:Middlewares/lvgl/src/extra/widgets/colorwheel/../../../../src/core/lv_obj_style_gen.h **** }
 2279              		.loc 3 94 12 view .LVU676
 2280              	.LBE89:
ARM GAS  /tmp/ccAb9Zks.s 			page 84


 2281              	.LBE88:
 362:Middlewares/lvgl/src/extra/widgets/colorwheel/lv_colorwheel.c **** 
 2282              		.loc 1 362 9 is_stmt 1 view .LVU677
 2283              	.LBB90:
 2284              	.LBI90:
  97:Middlewares/lvgl/src/extra/widgets/colorwheel/../../../../src/core/lv_obj_style_gen.h **** {
 2285              		.loc 3 97 26 view .LVU678
 2286              	.LBB91:
  99:Middlewares/lvgl/src/extra/widgets/colorwheel/../../../../src/core/lv_obj_style_gen.h ****     return (lv_coord_t)v.num;
 2287              		.loc 3 99 5 view .LVU679
  99:Middlewares/lvgl/src/extra/widgets/colorwheel/../../../../src/core/lv_obj_style_gen.h ****     return (lv_coord_t)v.num;
 2288              		.loc 3 99 26 is_stmt 0 view .LVU680
 2289 0098 41F21102 		movw	r2, #4113
 2290 009c 4FF44031 		mov	r1, #196608
 2291 00a0 3046     		mov	r0, r6
 2292 00a2 FFF7FEFF 		bl	lv_obj_get_style_prop
 2293              	.LVL230:
 100:Middlewares/lvgl/src/extra/widgets/colorwheel/../../../../src/core/lv_obj_style_gen.h **** }
 2294              		.loc 3 100 5 is_stmt 1 view .LVU681
 100:Middlewares/lvgl/src/extra/widgets/colorwheel/../../../../src/core/lv_obj_style_gen.h **** }
 2295              		.loc 3 100 12 is_stmt 0 view .LVU682
 2296 00a6 04B2     		sxth	r4, r0
 2297              	.LVL231:
 100:Middlewares/lvgl/src/extra/widgets/colorwheel/../../../../src/core/lv_obj_style_gen.h **** }
 2298              		.loc 3 100 12 view .LVU683
 2299              	.LBE91:
 2300              	.LBE90:
 364:Middlewares/lvgl/src/extra/widgets/colorwheel/lv_colorwheel.c ****         lv_coord_t * s = lv_event_get_param(e);
 2301              		.loc 1 364 9 is_stmt 1 view .LVU684
 364:Middlewares/lvgl/src/extra/widgets/colorwheel/lv_colorwheel.c ****         lv_coord_t * s = lv_event_get_param(e);
 2302              		.loc 1 364 31 is_stmt 0 view .LVU685
 2303 00a8 4C45     		cmp	r4, r9
 2304 00aa B8BF     		it	lt
 2305 00ac 4C46     		movlt	r4, r9
 2306              	.LVL232:
 364:Middlewares/lvgl/src/extra/widgets/colorwheel/lv_colorwheel.c ****         lv_coord_t * s = lv_event_get_param(e);
 2307              		.loc 1 364 31 view .LVU686
 2308 00ae 4745     		cmp	r7, r8
 2309 00b0 B8BF     		it	lt
 2310 00b2 4746     		movlt	r7, r8
 2311              	.LVL233:
 364:Middlewares/lvgl/src/extra/widgets/colorwheel/lv_colorwheel.c ****         lv_coord_t * s = lv_event_get_param(e);
 2312              		.loc 1 364 31 view .LVU687
 2313 00b4 BC42     		cmp	r4, r7
 2314 00b6 B8BF     		it	lt
 2315 00b8 3C46     		movlt	r4, r7
 2316 00ba A4B2     		uxth	r4, r4
 364:Middlewares/lvgl/src/extra/widgets/colorwheel/lv_colorwheel.c ****         lv_coord_t * s = lv_event_get_param(e);
 2317              		.loc 1 364 65 view .LVU688
 2318 00bc 0234     		adds	r4, r4, #2
 364:Middlewares/lvgl/src/extra/widgets/colorwheel/lv_colorwheel.c ****         lv_coord_t * s = lv_event_get_param(e);
 2319              		.loc 1 364 20 view .LVU689
 2320 00be 24B2     		sxth	r4, r4
 2321              	.LVL234:
 365:Middlewares/lvgl/src/extra/widgets/colorwheel/lv_colorwheel.c ****         *s = LV_MAX(*s, knob_pad);
 2322              		.loc 1 365 9 is_stmt 1 view .LVU690
 365:Middlewares/lvgl/src/extra/widgets/colorwheel/lv_colorwheel.c ****         *s = LV_MAX(*s, knob_pad);
ARM GAS  /tmp/ccAb9Zks.s 			page 85


 2323              		.loc 1 365 26 is_stmt 0 view .LVU691
 2324 00c0 2846     		mov	r0, r5
 2325              	.LVL235:
 365:Middlewares/lvgl/src/extra/widgets/colorwheel/lv_colorwheel.c ****         *s = LV_MAX(*s, knob_pad);
 2326              		.loc 1 365 26 view .LVU692
 2327 00c2 FFF7FEFF 		bl	lv_event_get_param
 2328              	.LVL236:
 366:Middlewares/lvgl/src/extra/widgets/colorwheel/lv_colorwheel.c ****     }
 2329              		.loc 1 366 9 is_stmt 1 view .LVU693
 366:Middlewares/lvgl/src/extra/widgets/colorwheel/lv_colorwheel.c ****     }
 2330              		.loc 1 366 14 is_stmt 0 view .LVU694
 2331 00c6 B0F90030 		ldrsh	r3, [r0]
 2332 00ca 9C42     		cmp	r4, r3
 2333 00cc B8BF     		it	lt
 2334 00ce 1C46     		movlt	r4, r3
 2335              	.LVL237:
 366:Middlewares/lvgl/src/extra/widgets/colorwheel/lv_colorwheel.c ****     }
 2336              		.loc 1 366 12 view .LVU695
 2337 00d0 0480     		strh	r4, [r0]	@ movhi
 2338              	.LBE83:
 2339 00d2 9EE7     		b	.L96
 2340              	.LVL238:
 2341              	.L142:
 2342              	.LBB92:
 369:Middlewares/lvgl/src/extra/widgets/colorwheel/lv_colorwheel.c ****         /*Refresh extended draw area to make knob visible*/
 2343              		.loc 1 369 9 is_stmt 1 view .LVU696
 369:Middlewares/lvgl/src/extra/widgets/colorwheel/lv_colorwheel.c ****         /*Refresh extended draw area to make knob visible*/
 2344              		.loc 1 369 24 is_stmt 0 view .LVU697
 2345 00d4 2846     		mov	r0, r5
 2346              	.LVL239:
 369:Middlewares/lvgl/src/extra/widgets/colorwheel/lv_colorwheel.c ****         /*Refresh extended draw area to make knob visible*/
 2347              		.loc 1 369 24 view .LVU698
 2348 00d6 FFF7FEFF 		bl	lv_event_get_param
 2349              	.LVL240:
 2350 00da 0446     		mov	r4, r0
 2351              	.LVL241:
 371:Middlewares/lvgl/src/extra/widgets/colorwheel/lv_colorwheel.c ****            lv_obj_get_height(obj) != lv_area_get_height(param)) {
 2352              		.loc 1 371 9 is_stmt 1 view .LVU699
 371:Middlewares/lvgl/src/extra/widgets/colorwheel/lv_colorwheel.c ****            lv_obj_get_height(obj) != lv_area_get_height(param)) {
 2353              		.loc 1 371 12 is_stmt 0 view .LVU700
 2354 00dc 3046     		mov	r0, r6
 2355              	.LVL242:
 371:Middlewares/lvgl/src/extra/widgets/colorwheel/lv_colorwheel.c ****            lv_obj_get_height(obj) != lv_area_get_height(param)) {
 2356              		.loc 1 371 12 view .LVU701
 2357 00de FFF7FEFF 		bl	lv_obj_get_width
 2358              	.LVL243:
 2359              	.LBB93:
 2360              	.LBI93:
 126:Middlewares/lvgl/src/extra/widgets/colorwheel/../../../../src/hal/../misc/lv_area.h **** }
 127:Middlewares/lvgl/src/extra/widgets/colorwheel/../../../../src/hal/../misc/lv_area.h **** 
 128:Middlewares/lvgl/src/extra/widgets/colorwheel/../../../../src/hal/../misc/lv_area.h **** /**
 129:Middlewares/lvgl/src/extra/widgets/colorwheel/../../../../src/hal/../misc/lv_area.h ****  * Get the width of an area
 130:Middlewares/lvgl/src/extra/widgets/colorwheel/../../../../src/hal/../misc/lv_area.h ****  * @param area_p pointer to an area
 131:Middlewares/lvgl/src/extra/widgets/colorwheel/../../../../src/hal/../misc/lv_area.h ****  * @return the width of the area (if x1 == x2 -> width = 1)
 132:Middlewares/lvgl/src/extra/widgets/colorwheel/../../../../src/hal/../misc/lv_area.h ****  */
 133:Middlewares/lvgl/src/extra/widgets/colorwheel/../../../../src/hal/../misc/lv_area.h **** static inline lv_coord_t lv_area_get_width(const lv_area_t * area_p)
 2361              		.loc 5 133 26 is_stmt 1 view .LVU702
ARM GAS  /tmp/ccAb9Zks.s 			page 86


 2362              	.LBB94:
 134:Middlewares/lvgl/src/extra/widgets/colorwheel/../../../../src/hal/../misc/lv_area.h **** {
 135:Middlewares/lvgl/src/extra/widgets/colorwheel/../../../../src/hal/../misc/lv_area.h ****     return (lv_coord_t)(area_p->x2 - area_p->x1 + 1);
 2363              		.loc 5 135 5 view .LVU703
 2364              		.loc 5 135 31 is_stmt 0 view .LVU704
 2365 00e2 A388     		ldrh	r3, [r4, #4]
 2366              		.loc 5 135 44 view .LVU705
 2367 00e4 2288     		ldrh	r2, [r4]
 2368              		.loc 5 135 36 view .LVU706
 2369 00e6 9B1A     		subs	r3, r3, r2
 2370 00e8 9BB2     		uxth	r3, r3
 2371              		.loc 5 135 49 view .LVU707
 2372 00ea 0133     		adds	r3, r3, #1
 2373              		.loc 5 135 12 view .LVU708
 2374 00ec 1BB2     		sxth	r3, r3
 2375              	.LVL244:
 2376              		.loc 5 135 12 view .LVU709
 2377              	.LBE94:
 2378              	.LBE93:
 371:Middlewares/lvgl/src/extra/widgets/colorwheel/lv_colorwheel.c ****            lv_obj_get_height(obj) != lv_area_get_height(param)) {
 2379              		.loc 1 371 11 view .LVU710
 2380 00ee 9842     		cmp	r0, r3
 2381 00f0 03D0     		beq	.L149
 2382              	.L100:
 373:Middlewares/lvgl/src/extra/widgets/colorwheel/lv_colorwheel.c ****         }
 2383              		.loc 1 373 13 is_stmt 1 view .LVU711
 2384 00f2 3046     		mov	r0, r6
 2385 00f4 FFF7FEFF 		bl	refr_knob_pos
 2386              	.LVL245:
 2387 00f8 8BE7     		b	.L96
 2388              	.L149:
 372:Middlewares/lvgl/src/extra/widgets/colorwheel/lv_colorwheel.c ****             refr_knob_pos(obj);
 2389              		.loc 1 372 12 is_stmt 0 discriminator 1 view .LVU712
 2390 00fa 3046     		mov	r0, r6
 2391 00fc FFF7FEFF 		bl	lv_obj_get_height
 2392              	.LVL246:
 2393              	.LBB95:
 2394              	.LBI95:
 136:Middlewares/lvgl/src/extra/widgets/colorwheel/../../../../src/hal/../misc/lv_area.h **** }
 137:Middlewares/lvgl/src/extra/widgets/colorwheel/../../../../src/hal/../misc/lv_area.h **** 
 138:Middlewares/lvgl/src/extra/widgets/colorwheel/../../../../src/hal/../misc/lv_area.h **** /**
 139:Middlewares/lvgl/src/extra/widgets/colorwheel/../../../../src/hal/../misc/lv_area.h ****  * Get the height of an area
 140:Middlewares/lvgl/src/extra/widgets/colorwheel/../../../../src/hal/../misc/lv_area.h ****  * @param area_p pointer to an area
 141:Middlewares/lvgl/src/extra/widgets/colorwheel/../../../../src/hal/../misc/lv_area.h ****  * @return the height of the area (if y1 == y2 -> height = 1)
 142:Middlewares/lvgl/src/extra/widgets/colorwheel/../../../../src/hal/../misc/lv_area.h ****  */
 143:Middlewares/lvgl/src/extra/widgets/colorwheel/../../../../src/hal/../misc/lv_area.h **** static inline lv_coord_t lv_area_get_height(const lv_area_t * area_p)
 2395              		.loc 5 143 26 is_stmt 1 discriminator 1 view .LVU713
 2396              	.LBB96:
 144:Middlewares/lvgl/src/extra/widgets/colorwheel/../../../../src/hal/../misc/lv_area.h **** {
 145:Middlewares/lvgl/src/extra/widgets/colorwheel/../../../../src/hal/../misc/lv_area.h ****     return (lv_coord_t)(area_p->y2 - area_p->y1 + 1);
 2397              		.loc 5 145 5 discriminator 1 view .LVU714
 2398              		.loc 5 145 31 is_stmt 0 discriminator 1 view .LVU715
 2399 0100 E388     		ldrh	r3, [r4, #6]
 2400              		.loc 5 145 44 discriminator 1 view .LVU716
 2401 0102 6288     		ldrh	r2, [r4, #2]
 2402              		.loc 5 145 36 discriminator 1 view .LVU717
 2403 0104 9B1A     		subs	r3, r3, r2
ARM GAS  /tmp/ccAb9Zks.s 			page 87


 2404 0106 9BB2     		uxth	r3, r3
 2405              		.loc 5 145 49 discriminator 1 view .LVU718
 2406 0108 0133     		adds	r3, r3, #1
 2407              		.loc 5 145 12 discriminator 1 view .LVU719
 2408 010a 1BB2     		sxth	r3, r3
 2409              	.LVL247:
 2410              		.loc 5 145 12 discriminator 1 view .LVU720
 2411              	.LBE96:
 2412              	.LBE95:
 371:Middlewares/lvgl/src/extra/widgets/colorwheel/lv_colorwheel.c ****            lv_obj_get_height(obj) != lv_area_get_height(param)) {
 2413              		.loc 1 371 62 discriminator 1 view .LVU721
 2414 010c 9842     		cmp	r0, r3
 2415 010e F0D1     		bne	.L100
 2416 0110 7FE7     		b	.L96
 2417              	.LVL248:
 2418              	.L143:
 371:Middlewares/lvgl/src/extra/widgets/colorwheel/lv_colorwheel.c ****            lv_obj_get_height(obj) != lv_area_get_height(param)) {
 2419              		.loc 1 371 62 discriminator 1 view .LVU722
 2420              	.LBE92:
 378:Middlewares/lvgl/src/extra/widgets/colorwheel/lv_colorwheel.c ****     }
 2421              		.loc 1 378 9 is_stmt 1 view .LVU723
 2422 0112 FFF7FEFF 		bl	refr_knob_pos
 2423              	.LVL249:
 378:Middlewares/lvgl/src/extra/widgets/colorwheel/lv_colorwheel.c ****     }
 2424              		.loc 1 378 9 is_stmt 0 view .LVU724
 2425 0116 7CE7     		b	.L96
 2426              	.LVL250:
 2427              	.L144:
 2428              	.LBB97:
 381:Middlewares/lvgl/src/extra/widgets/colorwheel/lv_colorwheel.c **** 
 2429              		.loc 1 381 9 is_stmt 1 view .LVU725
 381:Middlewares/lvgl/src/extra/widgets/colorwheel/lv_colorwheel.c **** 
 2430              		.loc 1 381 36 is_stmt 0 view .LVU726
 2431 0118 2846     		mov	r0, r5
 2432              	.LVL251:
 381:Middlewares/lvgl/src/extra/widgets/colorwheel/lv_colorwheel.c **** 
 2433              		.loc 1 381 36 view .LVU727
 2434 011a FFF7FEFF 		bl	lv_event_get_param
 2435              	.LVL252:
 381:Middlewares/lvgl/src/extra/widgets/colorwheel/lv_colorwheel.c **** 
 2436              		.loc 1 381 18 view .LVU728
 2437 011e 0368     		ldr	r3, [r0]
 2438              	.LVL253:
 383:Middlewares/lvgl/src/extra/widgets/colorwheel/lv_colorwheel.c ****             lv_color_hsv_t hsv_cur;
 2439              		.loc 1 383 9 is_stmt 1 view .LVU729
 383:Middlewares/lvgl/src/extra/widgets/colorwheel/lv_colorwheel.c ****             lv_color_hsv_t hsv_cur;
 2440              		.loc 1 383 11 is_stmt 0 view .LVU730
 2441 0120 112B     		cmp	r3, #17
 2442 0122 18BF     		it	ne
 2443 0124 132B     		cmpne	r3, #19
 2444 0126 3FD1     		bne	.L103
 2445              	.LBB98:
 384:Middlewares/lvgl/src/extra/widgets/colorwheel/lv_colorwheel.c ****             hsv_cur = colorwheel->hsv;
 2446              		.loc 1 384 13 is_stmt 1 view .LVU731
 385:Middlewares/lvgl/src/extra/widgets/colorwheel/lv_colorwheel.c **** 
 2447              		.loc 1 385 13 view .LVU732
 385:Middlewares/lvgl/src/extra/widgets/colorwheel/lv_colorwheel.c **** 
ARM GAS  /tmp/ccAb9Zks.s 			page 88


 2448              		.loc 1 385 21 is_stmt 0 view .LVU733
 2449 0128 736A     		ldr	r3, [r6, #36]
 2450              	.LVL254:
 385:Middlewares/lvgl/src/extra/widgets/colorwheel/lv_colorwheel.c **** 
 2451              		.loc 1 385 21 view .LVU734
 2452 012a 0193     		str	r3, [sp, #4]
 2453              	.LVL255:
 387:Middlewares/lvgl/src/extra/widgets/colorwheel/lv_colorwheel.c ****                 case LV_COLORWHEEL_MODE_HUE:
 2454              		.loc 1 387 13 is_stmt 1 view .LVU735
 387:Middlewares/lvgl/src/extra/widgets/colorwheel/lv_colorwheel.c ****                 case LV_COLORWHEEL_MODE_HUE:
 2455              		.loc 1 387 30 is_stmt 0 view .LVU736
 2456 012c 96F83C30 		ldrb	r3, [r6, #60]	@ zero_extendqisi2
 2457 0130 03F00303 		and	r3, r3, #3
 387:Middlewares/lvgl/src/extra/widgets/colorwheel/lv_colorwheel.c ****                 case LV_COLORWHEEL_MODE_HUE:
 2458              		.loc 1 387 13 view .LVU737
 2459 0134 012B     		cmp	r3, #1
 2460 0136 1DD0     		beq	.L104
 2461 0138 022B     		cmp	r3, #2
 2462 013a 28D0     		beq	.L105
 2463 013c 63B1     		cbz	r3, .L150
 2464              	.L106:
 399:Middlewares/lvgl/src/extra/widgets/colorwheel/lv_colorwheel.c ****                 res = lv_event_send(obj, LV_EVENT_VALUE_CHANGED, NULL);
 2465              		.loc 1 399 13 is_stmt 1 view .LVU738
 399:Middlewares/lvgl/src/extra/widgets/colorwheel/lv_colorwheel.c ****                 res = lv_event_send(obj, LV_EVENT_VALUE_CHANGED, NULL);
 2466              		.loc 1 399 16 is_stmt 0 view .LVU739
 2467 013e 0199     		ldr	r1, [sp, #4]
 2468 0140 3046     		mov	r0, r6
 2469 0142 FFF7FEFF 		bl	lv_colorwheel_set_hsv
 2470              	.LVL256:
 399:Middlewares/lvgl/src/extra/widgets/colorwheel/lv_colorwheel.c ****                 res = lv_event_send(obj, LV_EVENT_VALUE_CHANGED, NULL);
 2471              		.loc 1 399 15 view .LVU740
 2472 0146 0028     		cmp	r0, #0
 2473 0148 3FF463AF 		beq	.L96
 400:Middlewares/lvgl/src/extra/widgets/colorwheel/lv_colorwheel.c ****                 if(res != LV_RES_OK) return;
 2474              		.loc 1 400 17 is_stmt 1 view .LVU741
 400:Middlewares/lvgl/src/extra/widgets/colorwheel/lv_colorwheel.c ****                 if(res != LV_RES_OK) return;
 2475              		.loc 1 400 23 is_stmt 0 view .LVU742
 2476 014c 0022     		movs	r2, #0
 2477 014e 1C21     		movs	r1, #28
 2478 0150 3046     		mov	r0, r6
 2479 0152 FFF7FEFF 		bl	lv_event_send
 2480              	.LVL257:
 401:Middlewares/lvgl/src/extra/widgets/colorwheel/lv_colorwheel.c ****             }
 2481              		.loc 1 401 17 is_stmt 1 view .LVU743
 2482 0156 5CE7     		b	.L96
 2483              	.LVL258:
 2484              	.L150:
 389:Middlewares/lvgl/src/extra/widgets/colorwheel/lv_colorwheel.c ****                     break;
 2485              		.loc 1 389 21 view .LVU744
 389:Middlewares/lvgl/src/extra/widgets/colorwheel/lv_colorwheel.c ****                     break;
 2486              		.loc 1 389 49 is_stmt 0 view .LVU745
 2487 0158 B28C     		ldrh	r2, [r6, #36]
 389:Middlewares/lvgl/src/extra/widgets/colorwheel/lv_colorwheel.c ****                     break;
 2488              		.loc 1 389 52 view .LVU746
 2489 015a 0132     		adds	r2, r2, #1
 389:Middlewares/lvgl/src/extra/widgets/colorwheel/lv_colorwheel.c ****                     break;
 2490              		.loc 1 389 57 view .LVU747
ARM GAS  /tmp/ccAb9Zks.s 			page 89


 2491 015c 374B     		ldr	r3, .L157+4
 2492 015e 83FB0213 		smull	r1, r3, r3, r2
 2493 0162 1344     		add	r3, r3, r2
 2494 0164 1B12     		asrs	r3, r3, #8
 2495 0166 4FF4B471 		mov	r1, #360
 2496 016a 01FB1323 		mls	r3, r1, r3, r2
 389:Middlewares/lvgl/src/extra/widgets/colorwheel/lv_colorwheel.c ****                     break;
 2497              		.loc 1 389 31 view .LVU748
 2498 016e ADF80430 		strh	r3, [sp, #4]	@ movhi
 390:Middlewares/lvgl/src/extra/widgets/colorwheel/lv_colorwheel.c ****                 case LV_COLORWHEEL_MODE_SATURATION:
 2499              		.loc 1 390 21 is_stmt 1 view .LVU749
 2500 0172 E4E7     		b	.L106
 2501              	.L104:
 392:Middlewares/lvgl/src/extra/widgets/colorwheel/lv_colorwheel.c ****                     break;
 2502              		.loc 1 392 21 view .LVU750
 392:Middlewares/lvgl/src/extra/widgets/colorwheel/lv_colorwheel.c ****                     break;
 2503              		.loc 1 392 49 is_stmt 0 view .LVU751
 2504 0174 96F82620 		ldrb	r2, [r6, #38]	@ zero_extendqisi2
 392:Middlewares/lvgl/src/extra/widgets/colorwheel/lv_colorwheel.c ****                     break;
 2505              		.loc 1 392 52 view .LVU752
 2506 0178 0132     		adds	r2, r2, #1
 392:Middlewares/lvgl/src/extra/widgets/colorwheel/lv_colorwheel.c ****                     break;
 2507              		.loc 1 392 57 view .LVU753
 2508 017a 314B     		ldr	r3, .L157+8
 2509 017c 83FB0213 		smull	r1, r3, r3, r2
 2510 0180 5B11     		asrs	r3, r3, #5
 2511 0182 6421     		movs	r1, #100
 2512 0184 01FB1323 		mls	r3, r1, r3, r2
 392:Middlewares/lvgl/src/extra/widgets/colorwheel/lv_colorwheel.c ****                     break;
 2513              		.loc 1 392 31 view .LVU754
 2514 0188 8DF80630 		strb	r3, [sp, #6]
 393:Middlewares/lvgl/src/extra/widgets/colorwheel/lv_colorwheel.c ****                 case LV_COLORWHEEL_MODE_VALUE:
 2515              		.loc 1 393 21 is_stmt 1 view .LVU755
 2516 018c D7E7     		b	.L106
 2517              	.L105:
 395:Middlewares/lvgl/src/extra/widgets/colorwheel/lv_colorwheel.c ****                     break;
 2518              		.loc 1 395 21 view .LVU756
 395:Middlewares/lvgl/src/extra/widgets/colorwheel/lv_colorwheel.c ****                     break;
 2519              		.loc 1 395 49 is_stmt 0 view .LVU757
 2520 018e 96F82720 		ldrb	r2, [r6, #39]	@ zero_extendqisi2
 395:Middlewares/lvgl/src/extra/widgets/colorwheel/lv_colorwheel.c ****                     break;
 2521              		.loc 1 395 52 view .LVU758
 2522 0192 0132     		adds	r2, r2, #1
 395:Middlewares/lvgl/src/extra/widgets/colorwheel/lv_colorwheel.c ****                     break;
 2523              		.loc 1 395 57 view .LVU759
 2524 0194 2A4B     		ldr	r3, .L157+8
 2525 0196 83FB0213 		smull	r1, r3, r3, r2
 2526 019a 5B11     		asrs	r3, r3, #5
 2527 019c 6421     		movs	r1, #100
 2528 019e 01FB1323 		mls	r3, r1, r3, r2
 395:Middlewares/lvgl/src/extra/widgets/colorwheel/lv_colorwheel.c ****                     break;
 2529              		.loc 1 395 31 view .LVU760
 2530 01a2 8DF80730 		strb	r3, [sp, #7]
 396:Middlewares/lvgl/src/extra/widgets/colorwheel/lv_colorwheel.c ****             }
 2531              		.loc 1 396 21 is_stmt 1 view .LVU761
 2532 01a6 CAE7     		b	.L106
 2533              	.LVL259:
ARM GAS  /tmp/ccAb9Zks.s 			page 90


 2534              	.L103:
 396:Middlewares/lvgl/src/extra/widgets/colorwheel/lv_colorwheel.c ****             }
 2535              		.loc 1 396 21 is_stmt 0 view .LVU762
 2536              	.LBE98:
 404:Middlewares/lvgl/src/extra/widgets/colorwheel/lv_colorwheel.c ****             lv_color_hsv_t hsv_cur;
 2537              		.loc 1 404 14 is_stmt 1 view .LVU763
 404:Middlewares/lvgl/src/extra/widgets/colorwheel/lv_colorwheel.c ****             lv_color_hsv_t hsv_cur;
 2538              		.loc 1 404 16 is_stmt 0 view .LVU764
 2539 01a8 122B     		cmp	r3, #18
 2540 01aa 18BF     		it	ne
 2541 01ac 142B     		cmpne	r3, #20
 2542 01ae 7FF430AF 		bne	.L96
 2543              	.LBB99:
 405:Middlewares/lvgl/src/extra/widgets/colorwheel/lv_colorwheel.c ****             hsv_cur = colorwheel->hsv;
 2544              		.loc 1 405 13 is_stmt 1 view .LVU765
 406:Middlewares/lvgl/src/extra/widgets/colorwheel/lv_colorwheel.c **** 
 2545              		.loc 1 406 13 view .LVU766
 406:Middlewares/lvgl/src/extra/widgets/colorwheel/lv_colorwheel.c **** 
 2546              		.loc 1 406 21 is_stmt 0 view .LVU767
 2547 01b2 736A     		ldr	r3, [r6, #36]
 2548              	.LVL260:
 406:Middlewares/lvgl/src/extra/widgets/colorwheel/lv_colorwheel.c **** 
 2549              		.loc 1 406 21 view .LVU768
 2550 01b4 0193     		str	r3, [sp, #4]
 2551              	.LVL261:
 408:Middlewares/lvgl/src/extra/widgets/colorwheel/lv_colorwheel.c ****                 case LV_COLORWHEEL_MODE_HUE:
 2552              		.loc 1 408 13 is_stmt 1 view .LVU769
 408:Middlewares/lvgl/src/extra/widgets/colorwheel/lv_colorwheel.c ****                 case LV_COLORWHEEL_MODE_HUE:
 2553              		.loc 1 408 30 is_stmt 0 view .LVU770
 2554 01b6 96F83C30 		ldrb	r3, [r6, #60]	@ zero_extendqisi2
 2555 01ba 03F00303 		and	r3, r3, #3
 408:Middlewares/lvgl/src/extra/widgets/colorwheel/lv_colorwheel.c ****                 case LV_COLORWHEEL_MODE_HUE:
 2556              		.loc 1 408 13 view .LVU771
 2557 01be 012B     		cmp	r3, #1
 2558 01c0 19D0     		beq	.L108
 2559 01c2 022B     		cmp	r3, #2
 2560 01c4 21D0     		beq	.L109
 2561 01c6 63B1     		cbz	r3, .L151
 2562              	.L110:
 420:Middlewares/lvgl/src/extra/widgets/colorwheel/lv_colorwheel.c ****                 res = lv_event_send(obj, LV_EVENT_VALUE_CHANGED, NULL);
 2563              		.loc 1 420 13 is_stmt 1 view .LVU772
 420:Middlewares/lvgl/src/extra/widgets/colorwheel/lv_colorwheel.c ****                 res = lv_event_send(obj, LV_EVENT_VALUE_CHANGED, NULL);
 2564              		.loc 1 420 16 is_stmt 0 view .LVU773
 2565 01c8 0199     		ldr	r1, [sp, #4]
 2566 01ca 3046     		mov	r0, r6
 2567 01cc FFF7FEFF 		bl	lv_colorwheel_set_hsv
 2568              	.LVL262:
 420:Middlewares/lvgl/src/extra/widgets/colorwheel/lv_colorwheel.c ****                 res = lv_event_send(obj, LV_EVENT_VALUE_CHANGED, NULL);
 2569              		.loc 1 420 15 view .LVU774
 2570 01d0 0028     		cmp	r0, #0
 2571 01d2 3FF41EAF 		beq	.L96
 421:Middlewares/lvgl/src/extra/widgets/colorwheel/lv_colorwheel.c ****                 if(res != LV_RES_OK) return;
 2572              		.loc 1 421 17 is_stmt 1 view .LVU775
 421:Middlewares/lvgl/src/extra/widgets/colorwheel/lv_colorwheel.c ****                 if(res != LV_RES_OK) return;
 2573              		.loc 1 421 23 is_stmt 0 view .LVU776
 2574 01d6 0022     		movs	r2, #0
 2575 01d8 1C21     		movs	r1, #28
ARM GAS  /tmp/ccAb9Zks.s 			page 91


 2576 01da 3046     		mov	r0, r6
 2577 01dc FFF7FEFF 		bl	lv_event_send
 2578              	.LVL263:
 422:Middlewares/lvgl/src/extra/widgets/colorwheel/lv_colorwheel.c ****             }
 2579              		.loc 1 422 17 is_stmt 1 view .LVU777
 2580 01e0 17E7     		b	.L96
 2581              	.LVL264:
 2582              	.L151:
 410:Middlewares/lvgl/src/extra/widgets/colorwheel/lv_colorwheel.c ****                     break;
 2583              		.loc 1 410 21 view .LVU778
 410:Middlewares/lvgl/src/extra/widgets/colorwheel/lv_colorwheel.c ****                     break;
 2584              		.loc 1 410 48 is_stmt 0 view .LVU779
 2585 01e2 B38C     		ldrh	r3, [r6, #36]
 410:Middlewares/lvgl/src/extra/widgets/colorwheel/lv_colorwheel.c ****                     break;
 2586              		.loc 1 410 31 view .LVU780
 2587 01e4 13B1     		cbz	r3, .L134
 410:Middlewares/lvgl/src/extra/widgets/colorwheel/lv_colorwheel.c ****                     break;
 2588              		.loc 1 410 31 discriminator 1 view .LVU781
 2589 01e6 013B     		subs	r3, r3, #1
 2590 01e8 9BB2     		uxth	r3, r3
 2591 01ea 01E0     		b	.L111
 2592              	.L134:
 410:Middlewares/lvgl/src/extra/widgets/colorwheel/lv_colorwheel.c ****                     break;
 2593              		.loc 1 410 31 view .LVU782
 2594 01ec 4FF4B473 		mov	r3, #360
 2595              	.L111:
 410:Middlewares/lvgl/src/extra/widgets/colorwheel/lv_colorwheel.c ****                     break;
 2596              		.loc 1 410 31 discriminator 4 view .LVU783
 2597 01f0 ADF80430 		strh	r3, [sp, #4]	@ movhi
 411:Middlewares/lvgl/src/extra/widgets/colorwheel/lv_colorwheel.c ****                 case LV_COLORWHEEL_MODE_SATURATION:
 2598              		.loc 1 411 21 is_stmt 1 discriminator 4 view .LVU784
 2599 01f4 E8E7     		b	.L110
 2600              	.L108:
 413:Middlewares/lvgl/src/extra/widgets/colorwheel/lv_colorwheel.c ****                     break;
 2601              		.loc 1 413 21 view .LVU785
 413:Middlewares/lvgl/src/extra/widgets/colorwheel/lv_colorwheel.c ****                     break;
 2602              		.loc 1 413 48 is_stmt 0 view .LVU786
 2603 01f6 96F82630 		ldrb	r3, [r6, #38]	@ zero_extendqisi2
 413:Middlewares/lvgl/src/extra/widgets/colorwheel/lv_colorwheel.c ****                     break;
 2604              		.loc 1 413 31 view .LVU787
 2605 01fa 13B1     		cbz	r3, .L135
 413:Middlewares/lvgl/src/extra/widgets/colorwheel/lv_colorwheel.c ****                     break;
 2606              		.loc 1 413 31 discriminator 1 view .LVU788
 2607 01fc 013B     		subs	r3, r3, #1
 2608 01fe DBB2     		uxtb	r3, r3
 2609 0200 00E0     		b	.L112
 2610              	.L135:
 413:Middlewares/lvgl/src/extra/widgets/colorwheel/lv_colorwheel.c ****                     break;
 2611              		.loc 1 413 31 view .LVU789
 2612 0202 6423     		movs	r3, #100
 2613              	.L112:
 413:Middlewares/lvgl/src/extra/widgets/colorwheel/lv_colorwheel.c ****                     break;
 2614              		.loc 1 413 31 discriminator 4 view .LVU790
 2615 0204 8DF80630 		strb	r3, [sp, #6]
 414:Middlewares/lvgl/src/extra/widgets/colorwheel/lv_colorwheel.c ****                 case LV_COLORWHEEL_MODE_VALUE:
 2616              		.loc 1 414 21 is_stmt 1 discriminator 4 view .LVU791
 2617 0208 DEE7     		b	.L110
ARM GAS  /tmp/ccAb9Zks.s 			page 92


 2618              	.L109:
 416:Middlewares/lvgl/src/extra/widgets/colorwheel/lv_colorwheel.c ****                     break;
 2619              		.loc 1 416 21 view .LVU792
 416:Middlewares/lvgl/src/extra/widgets/colorwheel/lv_colorwheel.c ****                     break;
 2620              		.loc 1 416 48 is_stmt 0 view .LVU793
 2621 020a 96F82730 		ldrb	r3, [r6, #39]	@ zero_extendqisi2
 416:Middlewares/lvgl/src/extra/widgets/colorwheel/lv_colorwheel.c ****                     break;
 2622              		.loc 1 416 31 view .LVU794
 2623 020e 13B1     		cbz	r3, .L136
 416:Middlewares/lvgl/src/extra/widgets/colorwheel/lv_colorwheel.c ****                     break;
 2624              		.loc 1 416 31 discriminator 1 view .LVU795
 2625 0210 013B     		subs	r3, r3, #1
 2626 0212 DBB2     		uxtb	r3, r3
 2627 0214 00E0     		b	.L113
 2628              	.L136:
 416:Middlewares/lvgl/src/extra/widgets/colorwheel/lv_colorwheel.c ****                     break;
 2629              		.loc 1 416 31 view .LVU796
 2630 0216 6423     		movs	r3, #100
 2631              	.L113:
 416:Middlewares/lvgl/src/extra/widgets/colorwheel/lv_colorwheel.c ****                     break;
 2632              		.loc 1 416 31 discriminator 4 view .LVU797
 2633 0218 8DF80730 		strb	r3, [sp, #7]
 417:Middlewares/lvgl/src/extra/widgets/colorwheel/lv_colorwheel.c ****             }
 2634              		.loc 1 417 21 is_stmt 1 discriminator 4 view .LVU798
 2635 021c D4E7     		b	.L110
 2636              	.LVL265:
 2637              	.L145:
 417:Middlewares/lvgl/src/extra/widgets/colorwheel/lv_colorwheel.c ****             }
 2638              		.loc 1 417 21 is_stmt 0 discriminator 4 view .LVU799
 2639              	.LBE99:
 2640              	.LBE97:
 427:Middlewares/lvgl/src/extra/widgets/colorwheel/lv_colorwheel.c ****         lv_indev_get_point(lv_indev_get_act(), &colorwheel->last_press_point);
 2641              		.loc 1 427 9 is_stmt 1 view .LVU800
 427:Middlewares/lvgl/src/extra/widgets/colorwheel/lv_colorwheel.c ****         lv_indev_get_point(lv_indev_get_act(), &colorwheel->last_press_point);
 2642              		.loc 1 427 40 is_stmt 0 view .LVU801
 2643 021e FFF7FEFF 		bl	lv_tick_get
 2644              	.LVL266:
 427:Middlewares/lvgl/src/extra/widgets/colorwheel/lv_colorwheel.c ****         lv_indev_get_point(lv_indev_get_act(), &colorwheel->last_press_point);
 2645              		.loc 1 427 38 view .LVU802
 2646 0222 7063     		str	r0, [r6, #52]
 428:Middlewares/lvgl/src/extra/widgets/colorwheel/lv_colorwheel.c ****         res = double_click_reset(obj);
 2647              		.loc 1 428 9 is_stmt 1 view .LVU803
 428:Middlewares/lvgl/src/extra/widgets/colorwheel/lv_colorwheel.c ****         res = double_click_reset(obj);
 2648              		.loc 1 428 28 is_stmt 0 view .LVU804
 2649 0224 FFF7FEFF 		bl	lv_indev_get_act
 2650              	.LVL267:
 428:Middlewares/lvgl/src/extra/widgets/colorwheel/lv_colorwheel.c ****         res = double_click_reset(obj);
 2651              		.loc 1 428 9 view .LVU805
 2652 0228 06F13801 		add	r1, r6, #56
 2653 022c FFF7FEFF 		bl	lv_indev_get_point
 2654              	.LVL268:
 429:Middlewares/lvgl/src/extra/widgets/colorwheel/lv_colorwheel.c ****         if(res != LV_RES_OK) return;
 2655              		.loc 1 429 9 is_stmt 1 view .LVU806
 429:Middlewares/lvgl/src/extra/widgets/colorwheel/lv_colorwheel.c ****         if(res != LV_RES_OK) return;
 2656              		.loc 1 429 15 is_stmt 0 view .LVU807
 2657 0230 3046     		mov	r0, r6
 2658 0232 FFF7FEFF 		bl	double_click_reset
ARM GAS  /tmp/ccAb9Zks.s 			page 93


 2659              	.LVL269:
 430:Middlewares/lvgl/src/extra/widgets/colorwheel/lv_colorwheel.c ****     }
 2660              		.loc 1 430 9 is_stmt 1 view .LVU808
 2661 0236 ECE6     		b	.L96
 2662              	.L158:
 2663              		.align	2
 2664              	.L157:
 2665 0238 00000000 		.word	.LANCHOR5
 2666 023c B7600BB6 		.word	-1240768329
 2667 0240 1F85EB51 		.word	1374389535
 2668              	.LVL270:
 2669              	.L146:
 2670              	.LBB100:
 433:Middlewares/lvgl/src/extra/widgets/colorwheel/lv_colorwheel.c ****         if(indev == NULL) return;
 2671              		.loc 1 433 9 view .LVU809
 433:Middlewares/lvgl/src/extra/widgets/colorwheel/lv_colorwheel.c ****         if(indev == NULL) return;
 2672              		.loc 1 433 30 is_stmt 0 view .LVU810
 2673 0244 FFF7FEFF 		bl	lv_indev_get_act
 2674              	.LVL271:
 434:Middlewares/lvgl/src/extra/widgets/colorwheel/lv_colorwheel.c **** 
 2675              		.loc 1 434 9 is_stmt 1 view .LVU811
 434:Middlewares/lvgl/src/extra/widgets/colorwheel/lv_colorwheel.c **** 
 2676              		.loc 1 434 11 is_stmt 0 view .LVU812
 2677 0248 0446     		mov	r4, r0
 2678              	.LVL272:
 434:Middlewares/lvgl/src/extra/widgets/colorwheel/lv_colorwheel.c **** 
 2679              		.loc 1 434 11 view .LVU813
 2680 024a 0028     		cmp	r0, #0
 2681 024c 3FF4E1AE 		beq	.L96
 436:Middlewares/lvgl/src/extra/widgets/colorwheel/lv_colorwheel.c ****         lv_point_t p;
 2682              		.loc 1 436 9 is_stmt 1 view .LVU814
 436:Middlewares/lvgl/src/extra/widgets/colorwheel/lv_colorwheel.c ****         lv_point_t p;
 2683              		.loc 1 436 38 is_stmt 0 view .LVU815
 2684 0250 FFF7FEFF 		bl	lv_indev_get_type
 2685              	.LVL273:
 437:Middlewares/lvgl/src/extra/widgets/colorwheel/lv_colorwheel.c ****         if(indev_type == LV_INDEV_TYPE_ENCODER || indev_type == LV_INDEV_TYPE_KEYPAD) {
 2686              		.loc 1 437 9 is_stmt 1 view .LVU816
 438:Middlewares/lvgl/src/extra/widgets/colorwheel/lv_colorwheel.c ****             p.x = obj->coords.x1 + lv_obj_get_width(obj) / 2;
 2687              		.loc 1 438 9 view .LVU817
 438:Middlewares/lvgl/src/extra/widgets/colorwheel/lv_colorwheel.c ****             p.x = obj->coords.x1 + lv_obj_get_width(obj) / 2;
 2688              		.loc 1 438 11 is_stmt 0 view .LVU818
 2689 0254 0228     		cmp	r0, #2
 2690 0256 18BF     		it	ne
 2691 0258 0428     		cmpne	r0, #4
 2692 025a 40F0B180 		bne	.L118
 439:Middlewares/lvgl/src/extra/widgets/colorwheel/lv_colorwheel.c ****             p.y = obj->coords.y1 + lv_obj_get_height(obj) / 2;
 2693              		.loc 1 439 13 is_stmt 1 view .LVU819
 439:Middlewares/lvgl/src/extra/widgets/colorwheel/lv_colorwheel.c ****             p.y = obj->coords.y1 + lv_obj_get_height(obj) / 2;
 2694              		.loc 1 439 30 is_stmt 0 view .LVU820
 2695 025e B58A     		ldrh	r5, [r6, #20]
 2696              	.LVL274:
 439:Middlewares/lvgl/src/extra/widgets/colorwheel/lv_colorwheel.c ****             p.y = obj->coords.y1 + lv_obj_get_height(obj) / 2;
 2697              		.loc 1 439 36 view .LVU821
 2698 0260 3046     		mov	r0, r6
 2699              	.LVL275:
 439:Middlewares/lvgl/src/extra/widgets/colorwheel/lv_colorwheel.c ****             p.y = obj->coords.y1 + lv_obj_get_height(obj) / 2;
 2700              		.loc 1 439 36 view .LVU822
ARM GAS  /tmp/ccAb9Zks.s 			page 94


 2701 0262 FFF7FEFF 		bl	lv_obj_get_width
 2702              	.LVL276:
 439:Middlewares/lvgl/src/extra/widgets/colorwheel/lv_colorwheel.c ****             p.y = obj->coords.y1 + lv_obj_get_height(obj) / 2;
 2703              		.loc 1 439 34 view .LVU823
 2704 0266 0346     		mov	r3, r0
 2705 0268 0028     		cmp	r0, #0
 2706 026a C0F2A580 		blt	.L152
 2707              	.L119:
 2708 026e 05EB6305 		add	r5, r5, r3, asr #1
 439:Middlewares/lvgl/src/extra/widgets/colorwheel/lv_colorwheel.c ****             p.y = obj->coords.y1 + lv_obj_get_height(obj) / 2;
 2709              		.loc 1 439 17 view .LVU824
 2710 0272 ADF80050 		strh	r5, [sp]	@ movhi
 440:Middlewares/lvgl/src/extra/widgets/colorwheel/lv_colorwheel.c ****         }
 2711              		.loc 1 440 13 is_stmt 1 view .LVU825
 440:Middlewares/lvgl/src/extra/widgets/colorwheel/lv_colorwheel.c ****         }
 2712              		.loc 1 440 30 is_stmt 0 view .LVU826
 2713 0276 F58A     		ldrh	r5, [r6, #22]
 440:Middlewares/lvgl/src/extra/widgets/colorwheel/lv_colorwheel.c ****         }
 2714              		.loc 1 440 36 view .LVU827
 2715 0278 3046     		mov	r0, r6
 2716 027a FFF7FEFF 		bl	lv_obj_get_height
 2717              	.LVL277:
 440:Middlewares/lvgl/src/extra/widgets/colorwheel/lv_colorwheel.c ****         }
 2718              		.loc 1 440 34 view .LVU828
 2719 027e 0346     		mov	r3, r0
 2720 0280 0028     		cmp	r0, #0
 2721 0282 C0F29B80 		blt	.L153
 2722              	.L120:
 2723 0286 05EB6305 		add	r5, r5, r3, asr #1
 440:Middlewares/lvgl/src/extra/widgets/colorwheel/lv_colorwheel.c ****         }
 2724              		.loc 1 440 17 view .LVU829
 2725 028a ADF80250 		strh	r5, [sp, #2]	@ movhi
 2726              	.L121:
 446:Middlewares/lvgl/src/extra/widgets/colorwheel/lv_colorwheel.c ****         if((LV_ABS(p.x - colorwheel->last_press_point.x) > drag_limit) ||
 2727              		.loc 1 446 9 is_stmt 1 view .LVU830
 446:Middlewares/lvgl/src/extra/widgets/colorwheel/lv_colorwheel.c ****         if((LV_ABS(p.x - colorwheel->last_press_point.x) > drag_limit) ||
 2728              		.loc 1 446 38 is_stmt 0 view .LVU831
 2729 028e 2368     		ldr	r3, [r4]
 446:Middlewares/lvgl/src/extra/widgets/colorwheel/lv_colorwheel.c ****         if((LV_ABS(p.x - colorwheel->last_press_point.x) > drag_limit) ||
 2730              		.loc 1 446 46 view .LVU832
 2731 0290 1A7E     		ldrb	r2, [r3, #24]	@ zero_extendqisi2
 2732              	.LVL278:
 447:Middlewares/lvgl/src/extra/widgets/colorwheel/lv_colorwheel.c ****            (LV_ABS(p.y - colorwheel->last_press_point.y) > drag_limit)) {
 2733              		.loc 1 447 9 is_stmt 1 view .LVU833
 447:Middlewares/lvgl/src/extra/widgets/colorwheel/lv_colorwheel.c ****            (LV_ABS(p.y - colorwheel->last_press_point.y) > drag_limit)) {
 2734              		.loc 1 447 13 is_stmt 0 view .LVU834
 2735 0292 BDF90030 		ldrsh	r3, [sp]
 2736 0296 B6F93810 		ldrsh	r1, [r6, #56]
 2737 029a 5B1A     		subs	r3, r3, r1
 2738 029c 002B     		cmp	r3, #0
 2739 029e B8BF     		it	lt
 2740 02a0 5B42     		rsblt	r3, r3, #0
 447:Middlewares/lvgl/src/extra/widgets/colorwheel/lv_colorwheel.c ****            (LV_ABS(p.y - colorwheel->last_press_point.y) > drag_limit)) {
 2741              		.loc 1 447 11 view .LVU835
 2742 02a2 9342     		cmp	r3, r2
 2743 02a4 09DC     		bgt	.L122
 448:Middlewares/lvgl/src/extra/widgets/colorwheel/lv_colorwheel.c ****             colorwheel->last_change_time = lv_tick_get();
ARM GAS  /tmp/ccAb9Zks.s 			page 95


 2744              		.loc 1 448 13 discriminator 1 view .LVU836
 2745 02a6 BDF90230 		ldrsh	r3, [sp, #2]
 2746 02aa B6F93A10 		ldrsh	r1, [r6, #58]
 2747 02ae 5B1A     		subs	r3, r3, r1
 2748 02b0 002B     		cmp	r3, #0
 2749 02b2 B8BF     		it	lt
 2750 02b4 5B42     		rsblt	r3, r3, #0
 447:Middlewares/lvgl/src/extra/widgets/colorwheel/lv_colorwheel.c ****            (LV_ABS(p.y - colorwheel->last_press_point.y) > drag_limit)) {
 2751              		.loc 1 447 72 discriminator 1 view .LVU837
 2752 02b6 9A42     		cmp	r2, r3
 2753 02b8 08DA     		bge	.L123
 2754              	.L122:
 449:Middlewares/lvgl/src/extra/widgets/colorwheel/lv_colorwheel.c ****             colorwheel->last_press_point.x = p.x;
 2755              		.loc 1 449 13 is_stmt 1 view .LVU838
 449:Middlewares/lvgl/src/extra/widgets/colorwheel/lv_colorwheel.c ****             colorwheel->last_press_point.x = p.x;
 2756              		.loc 1 449 44 is_stmt 0 view .LVU839
 2757 02ba FFF7FEFF 		bl	lv_tick_get
 2758              	.LVL279:
 449:Middlewares/lvgl/src/extra/widgets/colorwheel/lv_colorwheel.c ****             colorwheel->last_press_point.x = p.x;
 2759              		.loc 1 449 42 view .LVU840
 2760 02be 7063     		str	r0, [r6, #52]
 450:Middlewares/lvgl/src/extra/widgets/colorwheel/lv_colorwheel.c ****             colorwheel->last_press_point.y = p.y;
 2761              		.loc 1 450 13 is_stmt 1 view .LVU841
 450:Middlewares/lvgl/src/extra/widgets/colorwheel/lv_colorwheel.c ****             colorwheel->last_press_point.y = p.y;
 2762              		.loc 1 450 47 is_stmt 0 view .LVU842
 2763 02c0 BDF90030 		ldrsh	r3, [sp]
 450:Middlewares/lvgl/src/extra/widgets/colorwheel/lv_colorwheel.c ****             colorwheel->last_press_point.y = p.y;
 2764              		.loc 1 450 44 view .LVU843
 2765 02c4 3387     		strh	r3, [r6, #56]	@ movhi
 451:Middlewares/lvgl/src/extra/widgets/colorwheel/lv_colorwheel.c ****         }
 2766              		.loc 1 451 13 is_stmt 1 view .LVU844
 451:Middlewares/lvgl/src/extra/widgets/colorwheel/lv_colorwheel.c ****         }
 2767              		.loc 1 451 47 is_stmt 0 view .LVU845
 2768 02c6 BDF90230 		ldrsh	r3, [sp, #2]
 451:Middlewares/lvgl/src/extra/widgets/colorwheel/lv_colorwheel.c ****         }
 2769              		.loc 1 451 44 view .LVU846
 2770 02ca 7387     		strh	r3, [r6, #58]	@ movhi
 2771              	.L123:
 454:Middlewares/lvgl/src/extra/widgets/colorwheel/lv_colorwheel.c ****         p.y -= obj->coords.y1;
 2772              		.loc 1 454 9 is_stmt 1 view .LVU847
 454:Middlewares/lvgl/src/extra/widgets/colorwheel/lv_colorwheel.c ****         p.y -= obj->coords.y1;
 2773              		.loc 1 454 27 is_stmt 0 view .LVU848
 2774 02cc B28A     		ldrh	r2, [r6, #20]
 454:Middlewares/lvgl/src/extra/widgets/colorwheel/lv_colorwheel.c ****         p.y -= obj->coords.y1;
 2775              		.loc 1 454 13 view .LVU849
 2776 02ce BDF80030 		ldrh	r3, [sp]
 2777 02d2 9B1A     		subs	r3, r3, r2
 2778 02d4 ADF80030 		strh	r3, [sp]	@ movhi
 455:Middlewares/lvgl/src/extra/widgets/colorwheel/lv_colorwheel.c **** 
 2779              		.loc 1 455 9 is_stmt 1 view .LVU850
 455:Middlewares/lvgl/src/extra/widgets/colorwheel/lv_colorwheel.c **** 
 2780              		.loc 1 455 27 is_stmt 0 view .LVU851
 2781 02d8 F28A     		ldrh	r2, [r6, #22]
 455:Middlewares/lvgl/src/extra/widgets/colorwheel/lv_colorwheel.c **** 
 2782              		.loc 1 455 13 view .LVU852
 2783 02da BDF80230 		ldrh	r3, [sp, #2]
 2784 02de 9B1A     		subs	r3, r3, r2
ARM GAS  /tmp/ccAb9Zks.s 			page 96


 2785 02e0 ADF80230 		strh	r3, [sp, #2]	@ movhi
 458:Middlewares/lvgl/src/extra/widgets/colorwheel/lv_colorwheel.c **** 
 2786              		.loc 1 458 9 is_stmt 1 view .LVU853
 458:Middlewares/lvgl/src/extra/widgets/colorwheel/lv_colorwheel.c **** 
 2787              		.loc 1 458 22 is_stmt 0 view .LVU854
 2788 02e4 3046     		mov	r0, r6
 2789 02e6 FFF7FEFF 		bl	lv_obj_get_width
 2790              	.LVL280:
 458:Middlewares/lvgl/src/extra/widgets/colorwheel/lv_colorwheel.c **** 
 2791              		.loc 1 458 18 view .LVU855
 2792 02ea 85B2     		uxth	r5, r0
 2793              	.LVL281:
 460:Middlewares/lvgl/src/extra/widgets/colorwheel/lv_colorwheel.c ****         lv_coord_t cir_w = lv_obj_get_style_arc_width(obj, LV_PART_MAIN);
 2794              		.loc 1 460 9 is_stmt 1 view .LVU856
 461:Middlewares/lvgl/src/extra/widgets/colorwheel/lv_colorwheel.c **** 
 2795              		.loc 1 461 9 view .LVU857
 2796              	.LBB101:
 2797              	.LBI101:
 499:Middlewares/lvgl/src/extra/widgets/colorwheel/../../../../src/core/lv_obj_style_gen.h **** {
 2798              		.loc 3 499 26 view .LVU858
 2799              	.LBB102:
 501:Middlewares/lvgl/src/extra/widgets/colorwheel/../../../../src/core/lv_obj_style_gen.h ****     return (lv_coord_t)v.num;
 2800              		.loc 3 501 5 view .LVU859
 501:Middlewares/lvgl/src/extra/widgets/colorwheel/../../../../src/core/lv_obj_style_gen.h ****     return (lv_coord_t)v.num;
 2801              		.loc 3 501 26 is_stmt 0 view .LVU860
 2802 02ec 4FF40562 		mov	r2, #2128
 2803 02f0 0021     		movs	r1, #0
 2804 02f2 3046     		mov	r0, r6
 2805 02f4 FFF7FEFF 		bl	lv_obj_get_style_prop
 2806              	.LVL282:
 2807              		.loc 3 502 5 is_stmt 1 view .LVU861
 2808              		.loc 3 502 12 is_stmt 0 view .LVU862
 2809 02f8 07B2     		sxth	r7, r0
 2810              	.LVL283:
 2811              		.loc 3 502 12 view .LVU863
 2812              	.LBE102:
 2813              	.LBE101:
 463:Middlewares/lvgl/src/extra/widgets/colorwheel/lv_colorwheel.c ****         p.x -= r_in;
 2814              		.loc 1 463 9 is_stmt 1 view .LVU864
 464:Middlewares/lvgl/src/extra/widgets/colorwheel/lv_colorwheel.c ****         p.y -= r_in;
 2815              		.loc 1 464 9 view .LVU865
 464:Middlewares/lvgl/src/extra/widgets/colorwheel/lv_colorwheel.c ****         p.y -= r_in;
 2816              		.loc 1 464 13 is_stmt 0 view .LVU866
 2817 02fa BDF80020 		ldrh	r2, [sp]
 2818 02fe A2EB5502 		sub	r2, r2, r5, lsr #1
 2819 0302 12B2     		sxth	r2, r2
 2820 0304 ADF80020 		strh	r2, [sp]	@ movhi
 465:Middlewares/lvgl/src/extra/widgets/colorwheel/lv_colorwheel.c ****         bool on_ring = true;
 2821              		.loc 1 465 9 is_stmt 1 view .LVU867
 465:Middlewares/lvgl/src/extra/widgets/colorwheel/lv_colorwheel.c ****         bool on_ring = true;
 2822              		.loc 1 465 13 is_stmt 0 view .LVU868
 2823 0308 BDF80210 		ldrh	r1, [sp, #2]
 2824 030c A1EB5501 		sub	r1, r1, r5, lsr #1
 2825 0310 09B2     		sxth	r1, r1
 2826 0312 ADF80210 		strh	r1, [sp, #2]	@ movhi
 466:Middlewares/lvgl/src/extra/widgets/colorwheel/lv_colorwheel.c ****         r_in -= cir_w;
 2827              		.loc 1 466 9 is_stmt 1 view .LVU869
ARM GAS  /tmp/ccAb9Zks.s 			page 97


 2828              	.LVL284:
 467:Middlewares/lvgl/src/extra/widgets/colorwheel/lv_colorwheel.c ****         if(r_in > LV_DPI_DEF / 2) {
 2829              		.loc 1 467 9 view .LVU870
 467:Middlewares/lvgl/src/extra/widgets/colorwheel/lv_colorwheel.c ****         if(r_in > LV_DPI_DEF / 2) {
 2830              		.loc 1 467 14 is_stmt 0 view .LVU871
 2831 0316 C0EB5503 		rsb	r3, r0, r5, lsr #1
 2832 031a 98B2     		uxth	r0, r3
 467:Middlewares/lvgl/src/extra/widgets/colorwheel/lv_colorwheel.c ****         if(r_in > LV_DPI_DEF / 2) {
 2833              		.loc 1 467 14 view .LVU872
 2834 031c 1BB2     		sxth	r3, r3
 2835              	.LVL285:
 468:Middlewares/lvgl/src/extra/widgets/colorwheel/lv_colorwheel.c ****             lv_coord_t inner = cir_w / 2;
 2836              		.loc 1 468 9 is_stmt 1 view .LVU873
 468:Middlewares/lvgl/src/extra/widgets/colorwheel/lv_colorwheel.c ****             lv_coord_t inner = cir_w / 2;
 2837              		.loc 1 468 11 is_stmt 0 view .LVU874
 2838 031e 412B     		cmp	r3, #65
 2839 0320 08DD     		ble	.L124
 2840              	.LBB103:
 469:Middlewares/lvgl/src/extra/widgets/colorwheel/lv_colorwheel.c ****             r_in -= inner;
 2841              		.loc 1 469 13 is_stmt 1 view .LVU875
 469:Middlewares/lvgl/src/extra/widgets/colorwheel/lv_colorwheel.c ****             r_in -= inner;
 2842              		.loc 1 469 24 is_stmt 0 view .LVU876
 2843 0322 3B46     		mov	r3, r7
 2844              	.LVL286:
 469:Middlewares/lvgl/src/extra/widgets/colorwheel/lv_colorwheel.c ****             r_in -= inner;
 2845              		.loc 1 469 24 view .LVU877
 2846 0324 002F     		cmp	r7, #0
 2847 0326 50DB     		blt	.L154
 2848              	.L125:
 2849              	.LVL287:
 470:Middlewares/lvgl/src/extra/widgets/colorwheel/lv_colorwheel.c **** 
 2850              		.loc 1 470 13 is_stmt 1 view .LVU878
 470:Middlewares/lvgl/src/extra/widgets/colorwheel/lv_colorwheel.c **** 
 2851              		.loc 1 470 18 is_stmt 0 view .LVU879
 2852 0328 A0EB6303 		sub	r3, r0, r3, asr #1
 2853              	.LVL288:
 470:Middlewares/lvgl/src/extra/widgets/colorwheel/lv_colorwheel.c **** 
 2854              		.loc 1 470 18 view .LVU880
 2855 032c 1BB2     		sxth	r3, r3
 2856              	.LVL289:
 472:Middlewares/lvgl/src/extra/widgets/colorwheel/lv_colorwheel.c ****         }
 2857              		.loc 1 472 13 is_stmt 1 view .LVU881
 472:Middlewares/lvgl/src/extra/widgets/colorwheel/lv_colorwheel.c ****         }
 2858              		.loc 1 472 15 is_stmt 0 view .LVU882
 2859 032e 402B     		cmp	r3, #64
 2860 0330 00DC     		bgt	.L124
 472:Middlewares/lvgl/src/extra/widgets/colorwheel/lv_colorwheel.c ****         }
 2861              		.loc 1 472 44 view .LVU883
 2862 0332 4123     		movs	r3, #65
 2863              	.LVL290:
 2864              	.L124:
 472:Middlewares/lvgl/src/extra/widgets/colorwheel/lv_colorwheel.c ****         }
 2865              		.loc 1 472 44 view .LVU884
 2866              	.LBE103:
 475:Middlewares/lvgl/src/extra/widgets/colorwheel/lv_colorwheel.c ****             on_ring = false;
 2867              		.loc 1 475 9 is_stmt 1 view .LVU885
 475:Middlewares/lvgl/src/extra/widgets/colorwheel/lv_colorwheel.c ****             on_ring = false;
ARM GAS  /tmp/ccAb9Zks.s 			page 98


 2868              		.loc 1 475 28 is_stmt 0 view .LVU886
 2869 0334 01FB01F1 		mul	r1, r1, r1
 475:Middlewares/lvgl/src/extra/widgets/colorwheel/lv_colorwheel.c ****             on_ring = false;
 2870              		.loc 1 475 22 view .LVU887
 2871 0338 02FB0212 		mla	r2, r2, r2, r1
 475:Middlewares/lvgl/src/extra/widgets/colorwheel/lv_colorwheel.c ****             on_ring = false;
 2872              		.loc 1 475 41 view .LVU888
 2873 033c 03FB03F3 		mul	r3, r3, r3
 2874              	.LVL291:
 475:Middlewares/lvgl/src/extra/widgets/colorwheel/lv_colorwheel.c ****             on_ring = false;
 2875              		.loc 1 475 11 view .LVU889
 2876 0340 9A42     		cmp	r2, r3
 2877 0342 44DB     		blt	.L138
 466:Middlewares/lvgl/src/extra/widgets/colorwheel/lv_colorwheel.c ****         r_in -= cir_w;
 2878              		.loc 1 466 14 view .LVU890
 2879 0344 0125     		movs	r5, #1
 2880              	.LVL292:
 2881              	.L126:
 480:Middlewares/lvgl/src/extra/widgets/colorwheel/lv_colorwheel.c ****         if(!on_ring && diff > indev->driver->long_press_time && !colorwheel->mode_fixed) {
 2882              		.loc 1 480 9 is_stmt 1 view .LVU891
 480:Middlewares/lvgl/src/extra/widgets/colorwheel/lv_colorwheel.c ****         if(!on_ring && diff > indev->driver->long_press_time && !colorwheel->mode_fixed) {
 2883              		.loc 1 480 25 is_stmt 0 view .LVU892
 2884 0346 706B     		ldr	r0, [r6, #52]
 2885 0348 FFF7FEFF 		bl	lv_tick_elaps
 2886              	.LVL293:
 481:Middlewares/lvgl/src/extra/widgets/colorwheel/lv_colorwheel.c ****             next_color_mode(obj);
 2887              		.loc 1 481 9 is_stmt 1 view .LVU893
 481:Middlewares/lvgl/src/extra/widgets/colorwheel/lv_colorwheel.c ****             next_color_mode(obj);
 2888              		.loc 1 481 11 is_stmt 0 view .LVU894
 2889 034c 45B9     		cbnz	r5, .L127
 481:Middlewares/lvgl/src/extra/widgets/colorwheel/lv_colorwheel.c ****             next_color_mode(obj);
 2890              		.loc 1 481 36 discriminator 1 view .LVU895
 2891 034e 2368     		ldr	r3, [r4]
 481:Middlewares/lvgl/src/extra/widgets/colorwheel/lv_colorwheel.c ****             next_color_mode(obj);
 2892              		.loc 1 481 44 discriminator 1 view .LVU896
 2893 0350 9B8B     		ldrh	r3, [r3, #28]
 481:Middlewares/lvgl/src/extra/widgets/colorwheel/lv_colorwheel.c ****             next_color_mode(obj);
 2894              		.loc 1 481 21 discriminator 1 view .LVU897
 2895 0352 8342     		cmp	r3, r0
 2896 0354 04D2     		bcs	.L127
 481:Middlewares/lvgl/src/extra/widgets/colorwheel/lv_colorwheel.c ****             next_color_mode(obj);
 2897              		.loc 1 481 65 discriminator 2 view .LVU898
 2898 0356 96F83C30 		ldrb	r3, [r6, #60]	@ zero_extendqisi2
 481:Middlewares/lvgl/src/extra/widgets/colorwheel/lv_colorwheel.c ****             next_color_mode(obj);
 2899              		.loc 1 481 62 discriminator 2 view .LVU899
 2900 035a 13F0040F 		tst	r3, #4
 2901 035e 38D0     		beq	.L155
 2902              	.L127:
 488:Middlewares/lvgl/src/extra/widgets/colorwheel/lv_colorwheel.c **** 
 2903              		.loc 1 488 9 is_stmt 1 view .LVU900
 488:Middlewares/lvgl/src/extra/widgets/colorwheel/lv_colorwheel.c **** 
 2904              		.loc 1 488 11 is_stmt 0 view .LVU901
 2905 0360 002D     		cmp	r5, #0
 2906 0362 3FF456AE 		beq	.L96
 490:Middlewares/lvgl/src/extra/widgets/colorwheel/lv_colorwheel.c **** 
 2907              		.loc 1 490 9 is_stmt 1 view .LVU902
 490:Middlewares/lvgl/src/extra/widgets/colorwheel/lv_colorwheel.c **** 
ARM GAS  /tmp/ccAb9Zks.s 			page 99


 2908              		.loc 1 490 17 is_stmt 0 view .LVU903
 2909 0366 BDF90210 		ldrsh	r1, [sp, #2]
 2910 036a BDF90000 		ldrsh	r0, [sp]
 2911              	.LVL294:
 490:Middlewares/lvgl/src/extra/widgets/colorwheel/lv_colorwheel.c **** 
 2912              		.loc 1 490 17 view .LVU904
 2913 036e FFF7FEFF 		bl	lv_atan2
 2914              	.LVL295:
 490:Middlewares/lvgl/src/extra/widgets/colorwheel/lv_colorwheel.c **** 
 2915              		.loc 1 490 15 view .LVU905
 2916 0372 C308     		lsrs	r3, r0, #3
 2917 0374 334A     		ldr	r2, .L159
 2918 0376 A2FB0323 		umull	r2, r3, r2, r3
 2919 037a 9B08     		lsrs	r3, r3, #2
 2920 037c 4FF4B472 		mov	r2, #360
 2921 0380 02FB1303 		mls	r3, r2, r3, r0
 2922 0384 99B2     		uxth	r1, r3
 2923 0386 1BB2     		sxth	r3, r3
 2924              	.LVL296:
 492:Middlewares/lvgl/src/extra/widgets/colorwheel/lv_colorwheel.c ****         hsv_cur = colorwheel->hsv;
 2925              		.loc 1 492 9 is_stmt 1 view .LVU906
 493:Middlewares/lvgl/src/extra/widgets/colorwheel/lv_colorwheel.c **** 
 2926              		.loc 1 493 9 view .LVU907
 493:Middlewares/lvgl/src/extra/widgets/colorwheel/lv_colorwheel.c **** 
 2927              		.loc 1 493 17 is_stmt 0 view .LVU908
 2928 0388 726A     		ldr	r2, [r6, #36]
 2929 038a 0192     		str	r2, [sp, #4]
 495:Middlewares/lvgl/src/extra/widgets/colorwheel/lv_colorwheel.c ****             case LV_COLORWHEEL_MODE_HUE:
 2930              		.loc 1 495 9 is_stmt 1 view .LVU909
 495:Middlewares/lvgl/src/extra/widgets/colorwheel/lv_colorwheel.c ****             case LV_COLORWHEEL_MODE_HUE:
 2931              		.loc 1 495 26 is_stmt 0 view .LVU910
 2932 038c 96F83C20 		ldrb	r2, [r6, #60]	@ zero_extendqisi2
 2933 0390 02F00302 		and	r2, r2, #3
 495:Middlewares/lvgl/src/extra/widgets/colorwheel/lv_colorwheel.c ****             case LV_COLORWHEEL_MODE_HUE:
 2934              		.loc 1 495 9 view .LVU911
 2935 0394 012A     		cmp	r2, #1
 2936 0396 27D0     		beq	.L128
 2937 0398 022A     		cmp	r2, #2
 2938 039a 32D0     		beq	.L129
 2939 039c 0AB3     		cbz	r2, .L156
 2940              	.LVL297:
 2941              	.L130:
 507:Middlewares/lvgl/src/extra/widgets/colorwheel/lv_colorwheel.c ****             res = lv_event_send(obj, LV_EVENT_VALUE_CHANGED, NULL);
 2942              		.loc 1 507 9 is_stmt 1 view .LVU912
 507:Middlewares/lvgl/src/extra/widgets/colorwheel/lv_colorwheel.c ****             res = lv_event_send(obj, LV_EVENT_VALUE_CHANGED, NULL);
 2943              		.loc 1 507 12 is_stmt 0 view .LVU913
 2944 039e 0199     		ldr	r1, [sp, #4]
 2945 03a0 3046     		mov	r0, r6
 2946              	.LVL298:
 507:Middlewares/lvgl/src/extra/widgets/colorwheel/lv_colorwheel.c ****             res = lv_event_send(obj, LV_EVENT_VALUE_CHANGED, NULL);
 2947              		.loc 1 507 12 view .LVU914
 2948 03a2 FFF7FEFF 		bl	lv_colorwheel_set_hsv
 2949              	.LVL299:
 507:Middlewares/lvgl/src/extra/widgets/colorwheel/lv_colorwheel.c ****             res = lv_event_send(obj, LV_EVENT_VALUE_CHANGED, NULL);
 2950              		.loc 1 507 11 view .LVU915
 2951 03a6 0028     		cmp	r0, #0
 2952 03a8 3FF433AE 		beq	.L96
ARM GAS  /tmp/ccAb9Zks.s 			page 100


 508:Middlewares/lvgl/src/extra/widgets/colorwheel/lv_colorwheel.c ****             if(res != LV_RES_OK) return;
 2953              		.loc 1 508 13 is_stmt 1 view .LVU916
 508:Middlewares/lvgl/src/extra/widgets/colorwheel/lv_colorwheel.c ****             if(res != LV_RES_OK) return;
 2954              		.loc 1 508 19 is_stmt 0 view .LVU917
 2955 03ac 0022     		movs	r2, #0
 2956 03ae 1C21     		movs	r1, #28
 2957 03b0 3046     		mov	r0, r6
 2958 03b2 FFF7FEFF 		bl	lv_event_send
 2959              	.LVL300:
 509:Middlewares/lvgl/src/extra/widgets/colorwheel/lv_colorwheel.c ****         }
 2960              		.loc 1 509 13 is_stmt 1 view .LVU918
 2961 03b6 2CE6     		b	.L96
 2962              	.LVL301:
 2963              	.L152:
 439:Middlewares/lvgl/src/extra/widgets/colorwheel/lv_colorwheel.c ****             p.y = obj->coords.y1 + lv_obj_get_height(obj) / 2;
 2964              		.loc 1 439 34 is_stmt 0 view .LVU919
 2965 03b8 431C     		adds	r3, r0, #1
 2966 03ba 58E7     		b	.L119
 2967              	.L153:
 440:Middlewares/lvgl/src/extra/widgets/colorwheel/lv_colorwheel.c ****         }
 2968              		.loc 1 440 34 view .LVU920
 2969 03bc 431C     		adds	r3, r0, #1
 2970 03be 62E7     		b	.L120
 2971              	.LVL302:
 2972              	.L118:
 443:Middlewares/lvgl/src/extra/widgets/colorwheel/lv_colorwheel.c ****         }
 2973              		.loc 1 443 13 is_stmt 1 view .LVU921
 2974 03c0 6946     		mov	r1, sp
 2975 03c2 2046     		mov	r0, r4
 2976              	.LVL303:
 443:Middlewares/lvgl/src/extra/widgets/colorwheel/lv_colorwheel.c ****         }
 2977              		.loc 1 443 13 is_stmt 0 view .LVU922
 2978 03c4 FFF7FEFF 		bl	lv_indev_get_point
 2979              	.LVL304:
 2980 03c8 61E7     		b	.L121
 2981              	.LVL305:
 2982              	.L154:
 2983              	.LBB104:
 469:Middlewares/lvgl/src/extra/widgets/colorwheel/lv_colorwheel.c ****             r_in -= inner;
 2984              		.loc 1 469 24 view .LVU923
 2985 03ca 7B1C     		adds	r3, r7, #1
 2986 03cc ACE7     		b	.L125
 2987              	.LVL306:
 2988              	.L138:
 469:Middlewares/lvgl/src/extra/widgets/colorwheel/lv_colorwheel.c ****             r_in -= inner;
 2989              		.loc 1 469 24 view .LVU924
 2990              	.LBE104:
 476:Middlewares/lvgl/src/extra/widgets/colorwheel/lv_colorwheel.c ****         }
 2991              		.loc 1 476 21 view .LVU925
 2992 03ce 0025     		movs	r5, #0
 2993              	.LVL307:
 476:Middlewares/lvgl/src/extra/widgets/colorwheel/lv_colorwheel.c ****         }
 2994              		.loc 1 476 21 view .LVU926
 2995 03d0 B9E7     		b	.L126
 2996              	.LVL308:
 2997              	.L155:
 482:Middlewares/lvgl/src/extra/widgets/colorwheel/lv_colorwheel.c ****             lv_indev_wait_release(lv_indev_get_act());
ARM GAS  /tmp/ccAb9Zks.s 			page 101


 2998              		.loc 1 482 13 is_stmt 1 view .LVU927
 2999 03d2 3046     		mov	r0, r6
 3000              	.LVL309:
 482:Middlewares/lvgl/src/extra/widgets/colorwheel/lv_colorwheel.c ****             lv_indev_wait_release(lv_indev_get_act());
 3001              		.loc 1 482 13 is_stmt 0 view .LVU928
 3002 03d4 FFF7FEFF 		bl	next_color_mode
 3003              	.LVL310:
 483:Middlewares/lvgl/src/extra/widgets/colorwheel/lv_colorwheel.c ****             return;
 3004              		.loc 1 483 13 is_stmt 1 view .LVU929
 3005 03d8 FFF7FEFF 		bl	lv_indev_get_act
 3006              	.LVL311:
 3007 03dc FFF7FEFF 		bl	lv_indev_wait_release
 3008              	.LVL312:
 484:Middlewares/lvgl/src/extra/widgets/colorwheel/lv_colorwheel.c ****         }
 3009              		.loc 1 484 13 view .LVU930
 3010 03e0 17E6     		b	.L96
 3011              	.LVL313:
 3012              	.L156:
 497:Middlewares/lvgl/src/extra/widgets/colorwheel/lv_colorwheel.c ****                 break;
 3013              		.loc 1 497 17 view .LVU931
 497:Middlewares/lvgl/src/extra/widgets/colorwheel/lv_colorwheel.c ****                 break;
 3014              		.loc 1 497 27 is_stmt 0 view .LVU932
 3015 03e2 ADF80410 		strh	r1, [sp, #4]	@ movhi
 498:Middlewares/lvgl/src/extra/widgets/colorwheel/lv_colorwheel.c ****             case LV_COLORWHEEL_MODE_SATURATION:
 3016              		.loc 1 498 17 is_stmt 1 view .LVU933
 3017 03e6 DAE7     		b	.L130
 3018              	.L128:
 500:Middlewares/lvgl/src/extra/widgets/colorwheel/lv_colorwheel.c ****                 break;
 3019              		.loc 1 500 17 view .LVU934
 500:Middlewares/lvgl/src/extra/widgets/colorwheel/lv_colorwheel.c ****                 break;
 3020              		.loc 1 500 36 is_stmt 0 view .LVU935
 3021 03e8 6422     		movs	r2, #100
 3022 03ea 02FB03F3 		mul	r3, r2, r3
 3023              	.LVL314:
 500:Middlewares/lvgl/src/extra/widgets/colorwheel/lv_colorwheel.c ****                 break;
 3024              		.loc 1 500 43 view .LVU936
 3025 03ee 164A     		ldr	r2, .L159+4
 3026 03f0 82FB0312 		smull	r1, r2, r2, r3
 3027              	.LVL315:
 500:Middlewares/lvgl/src/extra/widgets/colorwheel/lv_colorwheel.c ****                 break;
 3028              		.loc 1 500 43 view .LVU937
 3029 03f4 1A44     		add	r2, r2, r3
 3030 03f6 DB17     		asrs	r3, r3, #31
 3031 03f8 C3EB2223 		rsb	r3, r3, r2, asr #8
 500:Middlewares/lvgl/src/extra/widgets/colorwheel/lv_colorwheel.c ****                 break;
 3032              		.loc 1 500 27 view .LVU938
 3033 03fc 8DF80630 		strb	r3, [sp, #6]
 501:Middlewares/lvgl/src/extra/widgets/colorwheel/lv_colorwheel.c ****             case LV_COLORWHEEL_MODE_VALUE:
 3034              		.loc 1 501 17 is_stmt 1 view .LVU939
 3035 0400 CDE7     		b	.L130
 3036              	.LVL316:
 3037              	.L129:
 503:Middlewares/lvgl/src/extra/widgets/colorwheel/lv_colorwheel.c ****                 break;
 3038              		.loc 1 503 17 view .LVU940
 503:Middlewares/lvgl/src/extra/widgets/colorwheel/lv_colorwheel.c ****                 break;
 3039              		.loc 1 503 36 is_stmt 0 view .LVU941
 3040 0402 6422     		movs	r2, #100
ARM GAS  /tmp/ccAb9Zks.s 			page 102


 3041 0404 02FB03F3 		mul	r3, r2, r3
 3042              	.LVL317:
 503:Middlewares/lvgl/src/extra/widgets/colorwheel/lv_colorwheel.c ****                 break;
 3043              		.loc 1 503 43 view .LVU942
 3044 0408 0F4A     		ldr	r2, .L159+4
 3045 040a 82FB0312 		smull	r1, r2, r2, r3
 3046 040e 1A44     		add	r2, r2, r3
 3047 0410 DB17     		asrs	r3, r3, #31
 3048 0412 C3EB2223 		rsb	r3, r3, r2, asr #8
 503:Middlewares/lvgl/src/extra/widgets/colorwheel/lv_colorwheel.c ****                 break;
 3049              		.loc 1 503 27 view .LVU943
 3050 0416 8DF80730 		strb	r3, [sp, #7]
 504:Middlewares/lvgl/src/extra/widgets/colorwheel/lv_colorwheel.c ****         }
 3051              		.loc 1 504 17 is_stmt 1 view .LVU944
 3052 041a C0E7     		b	.L130
 3053              	.LVL318:
 3054              	.L147:
 504:Middlewares/lvgl/src/extra/widgets/colorwheel/lv_colorwheel.c ****         }
 3055              		.loc 1 504 17 is_stmt 0 view .LVU945
 3056              	.LBE100:
 3057              	.LBB105:
 513:Middlewares/lvgl/src/extra/widgets/colorwheel/lv_colorwheel.c **** 
 3058              		.loc 1 513 9 is_stmt 1 view .LVU946
 513:Middlewares/lvgl/src/extra/widgets/colorwheel/lv_colorwheel.c **** 
 3059              		.loc 1 513 37 is_stmt 0 view .LVU947
 3060 041c 2846     		mov	r0, r5
 3061              	.LVL319:
 513:Middlewares/lvgl/src/extra/widgets/colorwheel/lv_colorwheel.c **** 
 3062              		.loc 1 513 37 view .LVU948
 3063 041e FFF7FEFF 		bl	lv_event_get_param
 3064              	.LVL320:
 3065 0422 0446     		mov	r4, r0
 3066              	.LVL321:
 513:Middlewares/lvgl/src/extra/widgets/colorwheel/lv_colorwheel.c **** 
 3067              		.loc 1 513 59 is_stmt 1 view .LVU949
 516:Middlewares/lvgl/src/extra/widgets/colorwheel/lv_colorwheel.c ****     }
 3068              		.loc 1 516 9 view .LVU950
 516:Middlewares/lvgl/src/extra/widgets/colorwheel/lv_colorwheel.c ****     }
 3069              		.loc 1 516 21 is_stmt 0 view .LVU951
 3070 0424 47F6FF72 		movw	r2, #32767
 3071 0428 0168     		ldr	r1, [r0]
 3072 042a 06F11400 		add	r0, r6, #20
 3073              	.LVL322:
 516:Middlewares/lvgl/src/extra/widgets/colorwheel/lv_colorwheel.c ****     }
 3074              		.loc 1 516 21 view .LVU952
 3075 042e FFF7FEFF 		bl	_lv_area_is_point_on
 3076              	.LVL323:
 516:Middlewares/lvgl/src/extra/widgets/colorwheel/lv_colorwheel.c ****     }
 3077              		.loc 1 516 19 view .LVU953
 3078 0432 2071     		strb	r0, [r4, #4]
 3079              	.LBE105:
 3080 0434 EDE5     		b	.L96
 3081              	.LVL324:
 3082              	.L148:
 519:Middlewares/lvgl/src/extra/widgets/colorwheel/lv_colorwheel.c ****         draw_knob(e);
 3083              		.loc 1 519 9 is_stmt 1 view .LVU954
 3084 0436 2846     		mov	r0, r5
ARM GAS  /tmp/ccAb9Zks.s 			page 103


 3085              	.LVL325:
 519:Middlewares/lvgl/src/extra/widgets/colorwheel/lv_colorwheel.c ****         draw_knob(e);
 3086              		.loc 1 519 9 is_stmt 0 view .LVU955
 3087 0438 FFF7FEFF 		bl	draw_disc_grad
 3088              	.LVL326:
 520:Middlewares/lvgl/src/extra/widgets/colorwheel/lv_colorwheel.c ****     }
 3089              		.loc 1 520 9 is_stmt 1 view .LVU956
 3090 043c 2846     		mov	r0, r5
 3091 043e FFF7FEFF 		bl	draw_knob
 3092              	.LVL327:
 3093 0442 E6E5     		b	.L96
 3094              	.L160:
 3095              		.align	2
 3096              	.L159:
 3097 0444 176CC116 		.word	381774871
 3098 0448 B7600BB6 		.word	-1240768329
 3099              		.cfi_endproc
 3100              	.LFE198:
 3102              		.section	.text.lv_colorwheel_get_color_mode,"ax",%progbits
 3103              		.align	1
 3104              		.global	lv_colorwheel_get_color_mode
 3105              		.syntax unified
 3106              		.thumb
 3107              		.thumb_func
 3109              	lv_colorwheel_get_color_mode:
 3110              	.LVL328:
 3111              	.LFB191:
 189:Middlewares/lvgl/src/extra/widgets/colorwheel/lv_colorwheel.c ****     lv_colorwheel_t * colorwheel = (lv_colorwheel_t *)obj;
 3112              		.loc 1 189 1 view -0
 3113              		.cfi_startproc
 3114              		@ args = 0, pretend = 0, frame = 0
 3115              		@ frame_needed = 0, uses_anonymous_args = 0
 3116              		@ link register save eliminated.
 190:Middlewares/lvgl/src/extra/widgets/colorwheel/lv_colorwheel.c **** 
 3117              		.loc 1 190 5 view .LVU958
 192:Middlewares/lvgl/src/extra/widgets/colorwheel/lv_colorwheel.c **** }
 3118              		.loc 1 192 5 view .LVU959
 192:Middlewares/lvgl/src/extra/widgets/colorwheel/lv_colorwheel.c **** }
 3119              		.loc 1 192 22 is_stmt 0 view .LVU960
 3120 0000 90F83C00 		ldrb	r0, [r0, #60]	@ zero_extendqisi2
 3121              	.LVL329:
 193:Middlewares/lvgl/src/extra/widgets/colorwheel/lv_colorwheel.c **** 
 3122              		.loc 1 193 1 view .LVU961
 3123 0004 00F00300 		and	r0, r0, #3
 3124 0008 7047     		bx	lr
 3125              		.cfi_endproc
 3126              	.LFE191:
 3128              		.section	.text.lv_colorwheel_get_color_mode_fixed,"ax",%progbits
 3129              		.align	1
 3130              		.global	lv_colorwheel_get_color_mode_fixed
 3131              		.syntax unified
 3132              		.thumb
 3133              		.thumb_func
 3135              	lv_colorwheel_get_color_mode_fixed:
 3136              	.LVL330:
 3137              	.LFB192:
 201:Middlewares/lvgl/src/extra/widgets/colorwheel/lv_colorwheel.c ****     lv_colorwheel_t * colorwheel = (lv_colorwheel_t *)obj;
ARM GAS  /tmp/ccAb9Zks.s 			page 104


 3138              		.loc 1 201 1 is_stmt 1 view -0
 3139              		.cfi_startproc
 3140              		@ args = 0, pretend = 0, frame = 0
 3141              		@ frame_needed = 0, uses_anonymous_args = 0
 3142              		@ link register save eliminated.
 202:Middlewares/lvgl/src/extra/widgets/colorwheel/lv_colorwheel.c **** 
 3143              		.loc 1 202 5 view .LVU963
 204:Middlewares/lvgl/src/extra/widgets/colorwheel/lv_colorwheel.c **** }
 3144              		.loc 1 204 5 view .LVU964
 204:Middlewares/lvgl/src/extra/widgets/colorwheel/lv_colorwheel.c **** }
 3145              		.loc 1 204 22 is_stmt 0 view .LVU965
 3146 0000 90F83C00 		ldrb	r0, [r0, #60]	@ zero_extendqisi2
 3147              	.LVL331:
 205:Middlewares/lvgl/src/extra/widgets/colorwheel/lv_colorwheel.c **** 
 3148              		.loc 1 205 1 view .LVU966
 3149 0004 C0F38000 		ubfx	r0, r0, #2, #1
 3150 0008 7047     		bx	lr
 3151              		.cfi_endproc
 3152              	.LFE192:
 3154              		.global	lv_colorwheel_class
 3155              		.section	.bss.create_knob_recolor,"aw",%nobits
 3156              		.set	.LANCHOR4,. + 0
 3159              	create_knob_recolor:
 3160 0000 00       		.space	1
 3161              		.section	.bss.h.0,"aw",%nobits
 3162              		.align	1
 3163              		.set	.LANCHOR3,. + 0
 3166              	h.0:
 3167 0000 0000     		.space	2
 3168              		.section	.bss.s.2,"aw",%nobits
 3169              		.set	.LANCHOR1,. + 0
 3172              	s.2:
 3173 0000 00       		.space	1
 3174              		.section	.bss.v.1,"aw",%nobits
 3175              		.set	.LANCHOR2,. + 0
 3178              	v.1:
 3179 0000 00       		.space	1
 3180              		.section	.data.m.3,"aw"
 3181              		.set	.LANCHOR0,. + 0
 3184              	m.3:
 3185 0000 FF       		.byte	-1
 3186              		.section	.rodata.lv_colorwheel_class,"a"
 3187              		.align	2
 3188              		.set	.LANCHOR5,. + 0
 3191              	lv_colorwheel_class:
 3192 0000 00000000 		.word	lv_obj_class
 3193 0004 00000000 		.word	lv_colorwheel_constructor
 3194 0008 00000000 		.space	8
 3194      00000000 
 3195 0010 00000000 		.word	lv_colorwheel_event
 3196 0014 0401     		.short	260
 3197 0016 0401     		.short	260
 3198 0018 01       		.byte	1
 3199 0019 04       		.byte	4
 3200 001a 00       		.byte	0
 3201 001b 00       		.space	1
 3202              		.text
ARM GAS  /tmp/ccAb9Zks.s 			page 105


 3203              	.Letext0:
 3204              		.file 6 "/home/akinya/gcc-arm-none-eabi/arm-none-eabi/include/machine/_default_types.h"
 3205              		.file 7 "/home/akinya/gcc-arm-none-eabi/arm-none-eabi/include/sys/_stdint.h"
 3206              		.file 8 "Middlewares/lvgl/src/extra/widgets/colorwheel/../../../../src/misc/lv_types.h"
 3207              		.file 9 "Middlewares/lvgl/src/extra/widgets/colorwheel/../../../../src/misc/lv_ll.h"
 3208              		.file 10 "Middlewares/lvgl/src/extra/widgets/colorwheel/../../../../src/misc/lv_timer.h"
 3209              		.file 11 "Middlewares/lvgl/src/extra/widgets/colorwheel/../../../../src/hal/lv_hal_disp.h"
 3210              		.file 12 "Middlewares/lvgl/src/extra/widgets/colorwheel/../../../../src/core/lv_theme.h"
 3211              		.file 13 "Middlewares/lvgl/src/extra/widgets/colorwheel/../../../../src/core/lv_obj.h"
 3212              		.file 14 "Middlewares/lvgl/src/extra/widgets/colorwheel/../../../../src/hal/lv_hal_indev.h"
 3213              		.file 15 "Middlewares/lvgl/src/extra/widgets/colorwheel/../../../../src/core/lv_group.h"
 3214              		.file 16 "Middlewares/lvgl/src/extra/widgets/colorwheel/../../../../src/core/../misc/../font/lv_fo
 3215              		.file 17 "Middlewares/lvgl/src/extra/widgets/colorwheel/../../../../src/core/../misc/lv_style.h"
 3216              		.file 18 "Middlewares/lvgl/src/extra/widgets/colorwheel/../../../../src/core/lv_obj_scroll.h"
 3217              		.file 19 "Middlewares/lvgl/src/extra/widgets/colorwheel/../../../../src/core/lv_obj_style.h"
 3218              		.file 20 "Middlewares/lvgl/src/extra/widgets/colorwheel/../../../../src/core/../draw/lv_draw_mask.
 3219              		.file 21 "Middlewares/lvgl/src/extra/widgets/colorwheel/../../../../src/core/../draw/lv_draw_rect.
 3220              		.file 22 "Middlewares/lvgl/src/extra/widgets/colorwheel/../../../../src/core/../draw/lv_draw_line.
 3221              		.file 23 "Middlewares/lvgl/src/extra/widgets/colorwheel/../../../../src/core/lv_obj_draw.h"
 3222              		.file 24 "Middlewares/lvgl/src/extra/widgets/colorwheel/../../../../src/core/lv_obj_class.h"
 3223              		.file 25 "Middlewares/lvgl/src/extra/widgets/colorwheel/../../../../src/core/lv_event.h"
 3224              		.file 26 "Middlewares/lvgl/src/extra/widgets/colorwheel/../../../../src/widgets/lv_bar.h"
 3225              		.file 27 "Middlewares/lvgl/src/extra/widgets/colorwheel/../../../../src/extra/widgets/imgbtn/lv_im
 3226              		.file 28 "Middlewares/lvgl/src/extra/widgets/colorwheel/lv_colorwheel.h"
 3227              		.file 29 "Middlewares/lvgl/src/extra/widgets/colorwheel/../../../../src/core/lv_indev.h"
 3228              		.file 30 "Middlewares/lvgl/src/extra/widgets/colorwheel/../../../../src/hal/lv_hal_tick.h"
 3229              		.file 31 "Middlewares/lvgl/src/extra/widgets/colorwheel/../../../../src/core/lv_obj_pos.h"
ARM GAS  /tmp/ccAb9Zks.s 			page 106


DEFINED SYMBOLS
                            *ABS*:0000000000000000 lv_colorwheel.c
     /tmp/ccAb9Zks.s:19     .text.fast_hsv2rgb:0000000000000000 $t
     /tmp/ccAb9Zks.s:24     .text.fast_hsv2rgb:0000000000000000 fast_hsv2rgb
     /tmp/ccAb9Zks.s:195    .text.angle_to_mode_color_fast:0000000000000000 $t
     /tmp/ccAb9Zks.s:200    .text.angle_to_mode_color_fast:0000000000000000 angle_to_mode_color_fast
     /tmp/ccAb9Zks.s:461    .text.angle_to_mode_color_fast:000000000000016c $d
     /tmp/ccAb9Zks.s:471    .text.get_angle:0000000000000000 $t
     /tmp/ccAb9Zks.s:476    .text.get_angle:0000000000000000 get_angle
     /tmp/ccAb9Zks.s:540    .text.get_angle:0000000000000040 $d
     /tmp/ccAb9Zks.s:545    .text.get_knob_area:0000000000000000 $t
     /tmp/ccAb9Zks.s:550    .text.get_knob_area:0000000000000000 get_knob_area
     /tmp/ccAb9Zks.s:736    .text.invalidate_knob:0000000000000000 $t
     /tmp/ccAb9Zks.s:741    .text.invalidate_knob:0000000000000000 invalidate_knob
     /tmp/ccAb9Zks.s:782    .text.refr_knob_pos:0000000000000000 $t
     /tmp/ccAb9Zks.s:787    .text.refr_knob_pos:0000000000000000 refr_knob_pos
     /tmp/ccAb9Zks.s:926    .text.next_color_mode:0000000000000000 $t
     /tmp/ccAb9Zks.s:931    .text.next_color_mode:0000000000000000 next_color_mode
     /tmp/ccAb9Zks.s:976    .text.next_color_mode:0000000000000030 $d
     /tmp/ccAb9Zks.s:981    .text.draw_disc_grad:0000000000000000 $t
     /tmp/ccAb9Zks.s:986    .text.draw_disc_grad:0000000000000000 draw_disc_grad
     /tmp/ccAb9Zks.s:1364   .text.draw_disc_grad:00000000000001b0 $d
     /tmp/ccAb9Zks.s:1369   .text.lv_colorwheel_constructor:0000000000000000 $t
     /tmp/ccAb9Zks.s:1374   .text.lv_colorwheel_constructor:0000000000000000 lv_colorwheel_constructor
     /tmp/ccAb9Zks.s:1450   .text.lv_colorwheel_constructor:0000000000000058 $d
     /tmp/ccAb9Zks.s:1455   .text.lv_colorwheel_create:0000000000000000 $t
     /tmp/ccAb9Zks.s:1461   .text.lv_colorwheel_create:0000000000000000 lv_colorwheel_create
     /tmp/ccAb9Zks.s:1503   .text.lv_colorwheel_create:0000000000000018 $d
     /tmp/ccAb9Zks.s:1509   .text.lv_colorwheel_set_hsv:0000000000000000 $t
     /tmp/ccAb9Zks.s:1515   .text.lv_colorwheel_set_hsv:0000000000000000 lv_colorwheel_set_hsv
     /tmp/ccAb9Zks.s:1624   .text.lv_colorwheel_set_hsv:0000000000000074 $d
     /tmp/ccAb9Zks.s:1629   .text.double_click_reset:0000000000000000 $t
     /tmp/ccAb9Zks.s:1634   .text.double_click_reset:0000000000000000 double_click_reset
     /tmp/ccAb9Zks.s:1768   .text.lv_colorwheel_set_rgb:0000000000000000 $t
     /tmp/ccAb9Zks.s:1774   .text.lv_colorwheel_set_rgb:0000000000000000 lv_colorwheel_set_rgb
     /tmp/ccAb9Zks.s:1855   .text.lv_colorwheel_set_mode:0000000000000000 $t
     /tmp/ccAb9Zks.s:1861   .text.lv_colorwheel_set_mode:0000000000000000 lv_colorwheel_set_mode
     /tmp/ccAb9Zks.s:1896   .text.lv_colorwheel_set_mode_fixed:0000000000000000 $t
     /tmp/ccAb9Zks.s:1902   .text.lv_colorwheel_set_mode_fixed:0000000000000000 lv_colorwheel_set_mode_fixed
     /tmp/ccAb9Zks.s:1922   .text.lv_colorwheel_get_hsv:0000000000000000 $t
     /tmp/ccAb9Zks.s:1928   .text.lv_colorwheel_get_hsv:0000000000000000 lv_colorwheel_get_hsv
     /tmp/ccAb9Zks.s:1963   .text.lv_colorwheel_get_rgb:0000000000000000 $t
     /tmp/ccAb9Zks.s:1969   .text.lv_colorwheel_get_rgb:0000000000000000 lv_colorwheel_get_rgb
     /tmp/ccAb9Zks.s:1999   .text.draw_knob:0000000000000000 $t
     /tmp/ccAb9Zks.s:2004   .text.draw_knob:0000000000000000 draw_knob
     /tmp/ccAb9Zks.s:2097   .text.lv_colorwheel_event:0000000000000000 $t
     /tmp/ccAb9Zks.s:2102   .text.lv_colorwheel_event:0000000000000000 lv_colorwheel_event
     /tmp/ccAb9Zks.s:2665   .text.lv_colorwheel_event:0000000000000238 $d
     /tmp/ccAb9Zks.s:2673   .text.lv_colorwheel_event:0000000000000244 $t
     /tmp/ccAb9Zks.s:3097   .text.lv_colorwheel_event:0000000000000444 $d
     /tmp/ccAb9Zks.s:3103   .text.lv_colorwheel_get_color_mode:0000000000000000 $t
     /tmp/ccAb9Zks.s:3109   .text.lv_colorwheel_get_color_mode:0000000000000000 lv_colorwheel_get_color_mode
     /tmp/ccAb9Zks.s:3129   .text.lv_colorwheel_get_color_mode_fixed:0000000000000000 $t
     /tmp/ccAb9Zks.s:3135   .text.lv_colorwheel_get_color_mode_fixed:0000000000000000 lv_colorwheel_get_color_mode_fixed
     /tmp/ccAb9Zks.s:3191   .rodata.lv_colorwheel_class:0000000000000000 lv_colorwheel_class
     /tmp/ccAb9Zks.s:3159   .bss.create_knob_recolor:0000000000000000 create_knob_recolor
     /tmp/ccAb9Zks.s:3160   .bss.create_knob_recolor:0000000000000000 $d
ARM GAS  /tmp/ccAb9Zks.s 			page 107


     /tmp/ccAb9Zks.s:3162   .bss.h.0:0000000000000000 $d
     /tmp/ccAb9Zks.s:3166   .bss.h.0:0000000000000000 h.0
     /tmp/ccAb9Zks.s:3172   .bss.s.2:0000000000000000 s.2
     /tmp/ccAb9Zks.s:3173   .bss.s.2:0000000000000000 $d
     /tmp/ccAb9Zks.s:3178   .bss.v.1:0000000000000000 v.1
     /tmp/ccAb9Zks.s:3179   .bss.v.1:0000000000000000 $d
     /tmp/ccAb9Zks.s:3184   .data.m.3:0000000000000000 m.3
     /tmp/ccAb9Zks.s:3187   .rodata.lv_colorwheel_class:0000000000000000 $d

UNDEFINED SYMBOLS
lv_obj_get_style_prop
lv_obj_invalidate_area
lv_obj_get_width
lv_trigo_sin
lv_obj_invalidate
lv_event_get_target
lv_event_get_param
lv_obj_get_height
lv_draw_line_dsc_init
lv_obj_init_draw_line_dsc
lv_draw_mask_radius_init
lv_draw_mask_add
lv_draw_line
lv_draw_mask_remove_id
lv_obj_add_flag
lv_obj_clear_flag
lv_obj_class_create_obj
lv_obj_class_init_obj
lv_indev_get_act
lv_tick_elaps
lv_indev_wait_release
lv_tick_get
lv_event_send
lv_color_rgb_to_hsv
lv_color_hsv_to_rgb
lv_draw_rect_dsc_init
lv_obj_init_draw_rect_dsc
lv_draw_rect
lv_obj_event_base
lv_event_get_code
lv_indev_get_point
lv_indev_get_type
lv_atan2
_lv_area_is_point_on
lv_obj_class
