ARM GAS  /tmp/cc2G6pGY.s 			page 1


   1              		.cpu cortex-m7
   2              		.eabi_attribute 28, 1
   3              		.eabi_attribute 20, 1
   4              		.eabi_attribute 21, 1
   5              		.eabi_attribute 23, 3
   6              		.eabi_attribute 24, 1
   7              		.eabi_attribute 25, 1
   8              		.eabi_attribute 26, 1
   9              		.eabi_attribute 30, 1
  10              		.eabi_attribute 34, 1
  11              		.eabi_attribute 18, 4
  12              		.file	"lv_calendar_header_dropdown.c"
  13              		.text
  14              	.Ltext0:
  15              		.cfi_sections	.debug_frame
  16              		.section	.text.month_event_cb,"ax",%progbits
  17              		.align	1
  18              		.arch armv7e-m
  19              		.syntax unified
  20              		.thumb
  21              		.thumb_func
  22              		.fpu fpv5-d16
  24              	month_event_cb:
  25              	.LVL0:
  26              	.LFB153:
  27              		.file 1 "Middlewares/lvgl/src/extra/widgets/calendar/lv_calendar_header_dropdown.c"
   1:Middlewares/lvgl/src/extra/widgets/calendar/lv_calendar_header_dropdown.c **** /**
   2:Middlewares/lvgl/src/extra/widgets/calendar/lv_calendar_header_dropdown.c ****  * @file lv_calendar_header_dropdown.c
   3:Middlewares/lvgl/src/extra/widgets/calendar/lv_calendar_header_dropdown.c ****  *
   4:Middlewares/lvgl/src/extra/widgets/calendar/lv_calendar_header_dropdown.c ****  */
   5:Middlewares/lvgl/src/extra/widgets/calendar/lv_calendar_header_dropdown.c **** 
   6:Middlewares/lvgl/src/extra/widgets/calendar/lv_calendar_header_dropdown.c **** /*********************
   7:Middlewares/lvgl/src/extra/widgets/calendar/lv_calendar_header_dropdown.c ****  *      INCLUDES
   8:Middlewares/lvgl/src/extra/widgets/calendar/lv_calendar_header_dropdown.c ****  *********************/
   9:Middlewares/lvgl/src/extra/widgets/calendar/lv_calendar_header_dropdown.c **** #include "lv_calendar_header_dropdown.h"
  10:Middlewares/lvgl/src/extra/widgets/calendar/lv_calendar_header_dropdown.c **** #if LV_USE_CALENDAR_HEADER_DROPDOWN
  11:Middlewares/lvgl/src/extra/widgets/calendar/lv_calendar_header_dropdown.c **** 
  12:Middlewares/lvgl/src/extra/widgets/calendar/lv_calendar_header_dropdown.c **** #include "lv_calendar.h"
  13:Middlewares/lvgl/src/extra/widgets/calendar/lv_calendar_header_dropdown.c **** #include "../../../widgets/lv_dropdown.h"
  14:Middlewares/lvgl/src/extra/widgets/calendar/lv_calendar_header_dropdown.c **** #include "../../layouts/flex/lv_flex.h"
  15:Middlewares/lvgl/src/extra/widgets/calendar/lv_calendar_header_dropdown.c **** 
  16:Middlewares/lvgl/src/extra/widgets/calendar/lv_calendar_header_dropdown.c **** /*********************
  17:Middlewares/lvgl/src/extra/widgets/calendar/lv_calendar_header_dropdown.c ****  *      DEFINES
  18:Middlewares/lvgl/src/extra/widgets/calendar/lv_calendar_header_dropdown.c ****  *********************/
  19:Middlewares/lvgl/src/extra/widgets/calendar/lv_calendar_header_dropdown.c **** 
  20:Middlewares/lvgl/src/extra/widgets/calendar/lv_calendar_header_dropdown.c **** /**********************
  21:Middlewares/lvgl/src/extra/widgets/calendar/lv_calendar_header_dropdown.c ****  *      TYPEDEFS
  22:Middlewares/lvgl/src/extra/widgets/calendar/lv_calendar_header_dropdown.c ****  **********************/
  23:Middlewares/lvgl/src/extra/widgets/calendar/lv_calendar_header_dropdown.c **** 
  24:Middlewares/lvgl/src/extra/widgets/calendar/lv_calendar_header_dropdown.c **** /**********************
  25:Middlewares/lvgl/src/extra/widgets/calendar/lv_calendar_header_dropdown.c ****  *  STATIC PROTOTYPES
  26:Middlewares/lvgl/src/extra/widgets/calendar/lv_calendar_header_dropdown.c ****  **********************/
  27:Middlewares/lvgl/src/extra/widgets/calendar/lv_calendar_header_dropdown.c **** static void year_event_cb(lv_event_t * e);
  28:Middlewares/lvgl/src/extra/widgets/calendar/lv_calendar_header_dropdown.c **** static void month_event_cb(lv_event_t * e);
  29:Middlewares/lvgl/src/extra/widgets/calendar/lv_calendar_header_dropdown.c **** 
  30:Middlewares/lvgl/src/extra/widgets/calendar/lv_calendar_header_dropdown.c **** /**********************
  31:Middlewares/lvgl/src/extra/widgets/calendar/lv_calendar_header_dropdown.c ****  *  STATIC VARIABLES
ARM GAS  /tmp/cc2G6pGY.s 			page 2


  32:Middlewares/lvgl/src/extra/widgets/calendar/lv_calendar_header_dropdown.c ****  **********************/
  33:Middlewares/lvgl/src/extra/widgets/calendar/lv_calendar_header_dropdown.c **** static const char * month_list = "01\n02\n03\n04\n05\n06\n07\n08\n09\n10\n11\n12";
  34:Middlewares/lvgl/src/extra/widgets/calendar/lv_calendar_header_dropdown.c **** static const char * year_list = {
  35:Middlewares/lvgl/src/extra/widgets/calendar/lv_calendar_header_dropdown.c ****         "2023\n2022\n2021\n"
  36:Middlewares/lvgl/src/extra/widgets/calendar/lv_calendar_header_dropdown.c ****         "2020\n2019\n2018\n2017\n2016\n2015\n2014\n2013\n2012\n2011\n2010\n2009\n2008\n2007\n2006\n
  37:Middlewares/lvgl/src/extra/widgets/calendar/lv_calendar_header_dropdown.c ****         "2000\n1999\n1998\n1997\n1996\n1995\n1994\n1993\n1992\n1991\n1990\n1989\n1988\n1987\n1986\n
  38:Middlewares/lvgl/src/extra/widgets/calendar/lv_calendar_header_dropdown.c ****         "1980\n1979\n1978\n1977\n1976\n1975\n1974\n1973\n1972\n1971\n1970\n1969\n1968\n1967\n1966\n
  39:Middlewares/lvgl/src/extra/widgets/calendar/lv_calendar_header_dropdown.c ****         "1960\n1959\n1958\n1957\n1956\n1955\n1954\n1953\n1952\n1951\n1950\n1949\n1948\n1947\n1946\n
  40:Middlewares/lvgl/src/extra/widgets/calendar/lv_calendar_header_dropdown.c ****         "1940\n1939\n1938\n1937\n1936\n1935\n1934\n1933\n1932\n1931\n1930\n1929\n1928\n1927\n1926\n
  41:Middlewares/lvgl/src/extra/widgets/calendar/lv_calendar_header_dropdown.c ****         "1920\n1919\n1918\n1917\n1916\n1915\n1914\n1913\n1912\n1911\n1910\n1909\n1908\n1907\n1906\n
  42:Middlewares/lvgl/src/extra/widgets/calendar/lv_calendar_header_dropdown.c **** };
  43:Middlewares/lvgl/src/extra/widgets/calendar/lv_calendar_header_dropdown.c **** 
  44:Middlewares/lvgl/src/extra/widgets/calendar/lv_calendar_header_dropdown.c **** /**********************
  45:Middlewares/lvgl/src/extra/widgets/calendar/lv_calendar_header_dropdown.c ****  *      MACROS
  46:Middlewares/lvgl/src/extra/widgets/calendar/lv_calendar_header_dropdown.c ****  **********************/
  47:Middlewares/lvgl/src/extra/widgets/calendar/lv_calendar_header_dropdown.c **** 
  48:Middlewares/lvgl/src/extra/widgets/calendar/lv_calendar_header_dropdown.c **** /**********************
  49:Middlewares/lvgl/src/extra/widgets/calendar/lv_calendar_header_dropdown.c ****  *   GLOBAL FUNCTIONS
  50:Middlewares/lvgl/src/extra/widgets/calendar/lv_calendar_header_dropdown.c ****  **********************/
  51:Middlewares/lvgl/src/extra/widgets/calendar/lv_calendar_header_dropdown.c **** 
  52:Middlewares/lvgl/src/extra/widgets/calendar/lv_calendar_header_dropdown.c **** lv_obj_t * lv_calendar_header_dropdown_create(lv_obj_t * parent, lv_obj_t * calendar)
  53:Middlewares/lvgl/src/extra/widgets/calendar/lv_calendar_header_dropdown.c **** {
  54:Middlewares/lvgl/src/extra/widgets/calendar/lv_calendar_header_dropdown.c ****     lv_obj_t * header = lv_obj_create(parent);
  55:Middlewares/lvgl/src/extra/widgets/calendar/lv_calendar_header_dropdown.c **** 
  56:Middlewares/lvgl/src/extra/widgets/calendar/lv_calendar_header_dropdown.c ****     /*Use the same paddings as the calendar*/
  57:Middlewares/lvgl/src/extra/widgets/calendar/lv_calendar_header_dropdown.c ****     lv_obj_set_style_pad_left(header,lv_obj_get_style_pad_left(calendar, LV_PART_MAIN), 0);
  58:Middlewares/lvgl/src/extra/widgets/calendar/lv_calendar_header_dropdown.c ****     lv_obj_set_style_pad_right(header,lv_obj_get_style_pad_right(calendar, LV_PART_MAIN), 0);
  59:Middlewares/lvgl/src/extra/widgets/calendar/lv_calendar_header_dropdown.c ****     lv_obj_set_style_pad_top(header,lv_obj_get_style_pad_top(calendar, LV_PART_MAIN), 0);
  60:Middlewares/lvgl/src/extra/widgets/calendar/lv_calendar_header_dropdown.c ****     lv_obj_set_style_pad_bottom(header,lv_obj_get_style_pad_bottom(calendar, LV_PART_MAIN), 0);
  61:Middlewares/lvgl/src/extra/widgets/calendar/lv_calendar_header_dropdown.c ****     lv_obj_set_style_pad_column(header,lv_obj_get_style_pad_column(calendar, LV_PART_MAIN), 0);
  62:Middlewares/lvgl/src/extra/widgets/calendar/lv_calendar_header_dropdown.c ****     lv_obj_set_style_radius(header,lv_obj_get_style_radius(calendar, LV_PART_MAIN), 0);
  63:Middlewares/lvgl/src/extra/widgets/calendar/lv_calendar_header_dropdown.c **** 
  64:Middlewares/lvgl/src/extra/widgets/calendar/lv_calendar_header_dropdown.c ****     const lv_calendar_date_t * cur_date = lv_calendar_get_showed_date(calendar);
  65:Middlewares/lvgl/src/extra/widgets/calendar/lv_calendar_header_dropdown.c **** 
  66:Middlewares/lvgl/src/extra/widgets/calendar/lv_calendar_header_dropdown.c ****     lv_obj_update_layout(calendar);
  67:Middlewares/lvgl/src/extra/widgets/calendar/lv_calendar_header_dropdown.c ****     lv_coord_t w = lv_obj_get_width(calendar);
  68:Middlewares/lvgl/src/extra/widgets/calendar/lv_calendar_header_dropdown.c ****     lv_obj_set_size(header,  w, LV_SIZE_CONTENT);
  69:Middlewares/lvgl/src/extra/widgets/calendar/lv_calendar_header_dropdown.c ****     lv_obj_set_flex_flow(header, LV_FLEX_FLOW_ROW);
  70:Middlewares/lvgl/src/extra/widgets/calendar/lv_calendar_header_dropdown.c ****     lv_obj_set_flex_align(header, LV_FLEX_ALIGN_START, LV_FLEX_ALIGN_CENTER, LV_FLEX_ALIGN_START);
  71:Middlewares/lvgl/src/extra/widgets/calendar/lv_calendar_header_dropdown.c **** 
  72:Middlewares/lvgl/src/extra/widgets/calendar/lv_calendar_header_dropdown.c ****     lv_obj_t * year_dd = lv_dropdown_create(header);
  73:Middlewares/lvgl/src/extra/widgets/calendar/lv_calendar_header_dropdown.c ****     lv_dropdown_set_options(year_dd, year_list);
  74:Middlewares/lvgl/src/extra/widgets/calendar/lv_calendar_header_dropdown.c ****     lv_dropdown_set_selected(year_dd, 2023 - cur_date->year);
  75:Middlewares/lvgl/src/extra/widgets/calendar/lv_calendar_header_dropdown.c ****     lv_obj_add_event_cb(year_dd, year_event_cb, LV_EVENT_VALUE_CHANGED, calendar);
  76:Middlewares/lvgl/src/extra/widgets/calendar/lv_calendar_header_dropdown.c ****     lv_obj_set_flex_grow(year_dd, 1);
  77:Middlewares/lvgl/src/extra/widgets/calendar/lv_calendar_header_dropdown.c **** 
  78:Middlewares/lvgl/src/extra/widgets/calendar/lv_calendar_header_dropdown.c ****     lv_obj_t * month_dd = lv_dropdown_create(header);
  79:Middlewares/lvgl/src/extra/widgets/calendar/lv_calendar_header_dropdown.c ****     lv_dropdown_set_options(month_dd, month_list);
  80:Middlewares/lvgl/src/extra/widgets/calendar/lv_calendar_header_dropdown.c ****     lv_dropdown_set_selected(month_dd, cur_date->month - 1);
  81:Middlewares/lvgl/src/extra/widgets/calendar/lv_calendar_header_dropdown.c ****     lv_obj_add_event_cb(month_dd, month_event_cb, LV_EVENT_VALUE_CHANGED, calendar);
  82:Middlewares/lvgl/src/extra/widgets/calendar/lv_calendar_header_dropdown.c ****     lv_obj_set_flex_grow(month_dd, 1);
  83:Middlewares/lvgl/src/extra/widgets/calendar/lv_calendar_header_dropdown.c **** 
  84:Middlewares/lvgl/src/extra/widgets/calendar/lv_calendar_header_dropdown.c ****     lv_obj_align_to(header, calendar, LV_ALIGN_OUT_TOP_MID, 0, 0);
  85:Middlewares/lvgl/src/extra/widgets/calendar/lv_calendar_header_dropdown.c **** 
  86:Middlewares/lvgl/src/extra/widgets/calendar/lv_calendar_header_dropdown.c ****     return header;
  87:Middlewares/lvgl/src/extra/widgets/calendar/lv_calendar_header_dropdown.c **** }
  88:Middlewares/lvgl/src/extra/widgets/calendar/lv_calendar_header_dropdown.c **** 
ARM GAS  /tmp/cc2G6pGY.s 			page 3


  89:Middlewares/lvgl/src/extra/widgets/calendar/lv_calendar_header_dropdown.c **** /**********************
  90:Middlewares/lvgl/src/extra/widgets/calendar/lv_calendar_header_dropdown.c ****  *  STATIC FUNCTIONS
  91:Middlewares/lvgl/src/extra/widgets/calendar/lv_calendar_header_dropdown.c ****  **********************/
  92:Middlewares/lvgl/src/extra/widgets/calendar/lv_calendar_header_dropdown.c **** 
  93:Middlewares/lvgl/src/extra/widgets/calendar/lv_calendar_header_dropdown.c **** static void month_event_cb(lv_event_t * e)
  94:Middlewares/lvgl/src/extra/widgets/calendar/lv_calendar_header_dropdown.c **** {
  28              		.loc 1 94 1 view -0
  29              		.cfi_startproc
  30              		@ args = 0, pretend = 0, frame = 8
  31              		@ frame_needed = 0, uses_anonymous_args = 0
  32              		.loc 1 94 1 is_stmt 0 view .LVU1
  33 0000 30B5     		push	{r4, r5, lr}
  34              	.LCFI0:
  35              		.cfi_def_cfa_offset 12
  36              		.cfi_offset 4, -12
  37              		.cfi_offset 5, -8
  38              		.cfi_offset 14, -4
  39 0002 83B0     		sub	sp, sp, #12
  40              	.LCFI1:
  41              		.cfi_def_cfa_offset 24
  42 0004 0546     		mov	r5, r0
  95:Middlewares/lvgl/src/extra/widgets/calendar/lv_calendar_header_dropdown.c ****     lv_obj_t * dropdown = lv_event_get_target(e);
  43              		.loc 1 95 5 is_stmt 1 view .LVU2
  44              		.loc 1 95 27 is_stmt 0 view .LVU3
  45 0006 FFF7FEFF 		bl	lv_event_get_target
  46              	.LVL1:
  47              		.loc 1 95 27 view .LVU4
  48 000a 0446     		mov	r4, r0
  49              	.LVL2:
  96:Middlewares/lvgl/src/extra/widgets/calendar/lv_calendar_header_dropdown.c ****     lv_obj_t * calendar = lv_event_get_user_data(e);
  50              		.loc 1 96 5 is_stmt 1 view .LVU5
  51              		.loc 1 96 27 is_stmt 0 view .LVU6
  52 000c 2846     		mov	r0, r5
  53              	.LVL3:
  54              		.loc 1 96 27 view .LVU7
  55 000e FFF7FEFF 		bl	lv_event_get_user_data
  56              	.LVL4:
  57 0012 0546     		mov	r5, r0
  58              	.LVL5:
  97:Middlewares/lvgl/src/extra/widgets/calendar/lv_calendar_header_dropdown.c **** 
  98:Middlewares/lvgl/src/extra/widgets/calendar/lv_calendar_header_dropdown.c ****     uint16_t sel = lv_dropdown_get_selected(dropdown);
  59              		.loc 1 98 5 is_stmt 1 view .LVU8
  60              		.loc 1 98 20 is_stmt 0 view .LVU9
  61 0014 2046     		mov	r0, r4
  62              	.LVL6:
  63              		.loc 1 98 20 view .LVU10
  64 0016 FFF7FEFF 		bl	lv_dropdown_get_selected
  65              	.LVL7:
  66 001a 0446     		mov	r4, r0
  67              	.LVL8:
  99:Middlewares/lvgl/src/extra/widgets/calendar/lv_calendar_header_dropdown.c **** 
 100:Middlewares/lvgl/src/extra/widgets/calendar/lv_calendar_header_dropdown.c ****     const lv_calendar_date_t * d;
  68              		.loc 1 100 5 is_stmt 1 view .LVU11
 101:Middlewares/lvgl/src/extra/widgets/calendar/lv_calendar_header_dropdown.c ****     d = lv_calendar_get_showed_date(calendar);
  69              		.loc 1 101 5 view .LVU12
  70              		.loc 1 101 9 is_stmt 0 view .LVU13
  71 001c 2846     		mov	r0, r5
ARM GAS  /tmp/cc2G6pGY.s 			page 4


  72 001e FFF7FEFF 		bl	lv_calendar_get_showed_date
  73              	.LVL9:
 102:Middlewares/lvgl/src/extra/widgets/calendar/lv_calendar_header_dropdown.c ****     lv_calendar_date_t newd = *d;
  74              		.loc 1 102 5 is_stmt 1 view .LVU14
  75              		.loc 1 102 24 is_stmt 0 view .LVU15
  76 0022 0068     		ldr	r0, [r0]	@ unaligned
  77              	.LVL10:
  78              		.loc 1 102 24 view .LVU16
  79 0024 0190     		str	r0, [sp, #4]
 103:Middlewares/lvgl/src/extra/widgets/calendar/lv_calendar_header_dropdown.c ****     newd.month = sel + 1;
  80              		.loc 1 103 5 is_stmt 1 view .LVU17
  81              		.loc 1 103 22 is_stmt 0 view .LVU18
  82 0026 621C     		adds	r2, r4, #1
  83 0028 52B2     		sxtb	r2, r2
  84              		.loc 1 103 16 view .LVU19
  85 002a 8DF80620 		strb	r2, [sp, #6]
 104:Middlewares/lvgl/src/extra/widgets/calendar/lv_calendar_header_dropdown.c **** 
 105:Middlewares/lvgl/src/extra/widgets/calendar/lv_calendar_header_dropdown.c ****     lv_calendar_set_showed_date(calendar, newd.year, newd.month);
  86              		.loc 1 105 5 is_stmt 1 view .LVU20
  87 002e BDF80410 		ldrh	r1, [sp, #4]
  88 0032 2846     		mov	r0, r5
  89 0034 FFF7FEFF 		bl	lv_calendar_set_showed_date
  90              	.LVL11:
 106:Middlewares/lvgl/src/extra/widgets/calendar/lv_calendar_header_dropdown.c **** }
  91              		.loc 1 106 1 is_stmt 0 view .LVU21
  92 0038 03B0     		add	sp, sp, #12
  93              	.LCFI2:
  94              		.cfi_def_cfa_offset 12
  95              		@ sp needed
  96 003a 30BD     		pop	{r4, r5, pc}
  97              		.loc 1 106 1 view .LVU22
  98              		.cfi_endproc
  99              	.LFE153:
 101              		.section	.text.year_event_cb,"ax",%progbits
 102              		.align	1
 103              		.syntax unified
 104              		.thumb
 105              		.thumb_func
 106              		.fpu fpv5-d16
 108              	year_event_cb:
 109              	.LVL12:
 110              	.LFB154:
 107:Middlewares/lvgl/src/extra/widgets/calendar/lv_calendar_header_dropdown.c **** static void year_event_cb(lv_event_t * e)
 108:Middlewares/lvgl/src/extra/widgets/calendar/lv_calendar_header_dropdown.c **** {
 111              		.loc 1 108 1 is_stmt 1 view -0
 112              		.cfi_startproc
 113              		@ args = 0, pretend = 0, frame = 8
 114              		@ frame_needed = 0, uses_anonymous_args = 0
 115              		.loc 1 108 1 is_stmt 0 view .LVU24
 116 0000 30B5     		push	{r4, r5, lr}
 117              	.LCFI3:
 118              		.cfi_def_cfa_offset 12
 119              		.cfi_offset 4, -12
 120              		.cfi_offset 5, -8
 121              		.cfi_offset 14, -4
 122 0002 83B0     		sub	sp, sp, #12
 123              	.LCFI4:
ARM GAS  /tmp/cc2G6pGY.s 			page 5


 124              		.cfi_def_cfa_offset 24
 125 0004 0446     		mov	r4, r0
 109:Middlewares/lvgl/src/extra/widgets/calendar/lv_calendar_header_dropdown.c ****     lv_obj_t * dropdown = lv_event_get_target(e);
 126              		.loc 1 109 5 is_stmt 1 view .LVU25
 127              		.loc 1 109 27 is_stmt 0 view .LVU26
 128 0006 FFF7FEFF 		bl	lv_event_get_target
 129              	.LVL13:
 130              		.loc 1 109 27 view .LVU27
 131 000a 0546     		mov	r5, r0
 132              	.LVL14:
 110:Middlewares/lvgl/src/extra/widgets/calendar/lv_calendar_header_dropdown.c ****     lv_obj_t * calendar = lv_event_get_user_data(e);
 133              		.loc 1 110 5 is_stmt 1 view .LVU28
 134              		.loc 1 110 27 is_stmt 0 view .LVU29
 135 000c 2046     		mov	r0, r4
 136              	.LVL15:
 137              		.loc 1 110 27 view .LVU30
 138 000e FFF7FEFF 		bl	lv_event_get_user_data
 139              	.LVL16:
 140 0012 0446     		mov	r4, r0
 141              	.LVL17:
 111:Middlewares/lvgl/src/extra/widgets/calendar/lv_calendar_header_dropdown.c **** 
 112:Middlewares/lvgl/src/extra/widgets/calendar/lv_calendar_header_dropdown.c ****     uint16_t sel = lv_dropdown_get_selected(dropdown);
 142              		.loc 1 112 5 is_stmt 1 view .LVU31
 143              		.loc 1 112 20 is_stmt 0 view .LVU32
 144 0014 2846     		mov	r0, r5
 145              	.LVL18:
 146              		.loc 1 112 20 view .LVU33
 147 0016 FFF7FEFF 		bl	lv_dropdown_get_selected
 148              	.LVL19:
 149 001a 0546     		mov	r5, r0
 150              	.LVL20:
 113:Middlewares/lvgl/src/extra/widgets/calendar/lv_calendar_header_dropdown.c **** 
 114:Middlewares/lvgl/src/extra/widgets/calendar/lv_calendar_header_dropdown.c ****     const lv_calendar_date_t * d;
 151              		.loc 1 114 5 is_stmt 1 view .LVU34
 115:Middlewares/lvgl/src/extra/widgets/calendar/lv_calendar_header_dropdown.c ****     d = lv_calendar_get_showed_date(calendar);
 152              		.loc 1 115 5 view .LVU35
 153              		.loc 1 115 9 is_stmt 0 view .LVU36
 154 001c 2046     		mov	r0, r4
 155 001e FFF7FEFF 		bl	lv_calendar_get_showed_date
 156              	.LVL21:
 116:Middlewares/lvgl/src/extra/widgets/calendar/lv_calendar_header_dropdown.c ****     lv_calendar_date_t newd = *d;
 157              		.loc 1 116 5 is_stmt 1 view .LVU37
 158              		.loc 1 116 24 is_stmt 0 view .LVU38
 159 0022 0068     		ldr	r0, [r0]	@ unaligned
 160              	.LVL22:
 161              		.loc 1 116 24 view .LVU39
 162 0024 0190     		str	r0, [sp, #4]
 117:Middlewares/lvgl/src/extra/widgets/calendar/lv_calendar_header_dropdown.c ****     newd.year = 2023 - sel;
 163              		.loc 1 117 5 is_stmt 1 view .LVU40
 164              		.loc 1 117 22 is_stmt 0 view .LVU41
 165 0026 40F2E771 		movw	r1, #2023
 166 002a 491B     		subs	r1, r1, r5
 167 002c 89B2     		uxth	r1, r1
 168              		.loc 1 117 15 view .LVU42
 169 002e ADF80410 		strh	r1, [sp, #4]	@ movhi
 118:Middlewares/lvgl/src/extra/widgets/calendar/lv_calendar_header_dropdown.c **** 
 119:Middlewares/lvgl/src/extra/widgets/calendar/lv_calendar_header_dropdown.c ****     lv_calendar_set_showed_date(calendar, newd.year, newd.month);
ARM GAS  /tmp/cc2G6pGY.s 			page 6


 170              		.loc 1 119 5 is_stmt 1 view .LVU43
 171 0032 9DF90620 		ldrsb	r2, [sp, #6]
 172 0036 2046     		mov	r0, r4
 173 0038 FFF7FEFF 		bl	lv_calendar_set_showed_date
 174              	.LVL23:
 120:Middlewares/lvgl/src/extra/widgets/calendar/lv_calendar_header_dropdown.c **** }
 175              		.loc 1 120 1 is_stmt 0 view .LVU44
 176 003c 03B0     		add	sp, sp, #12
 177              	.LCFI5:
 178              		.cfi_def_cfa_offset 12
 179              		@ sp needed
 180 003e 30BD     		pop	{r4, r5, pc}
 181              		.loc 1 120 1 view .LVU45
 182              		.cfi_endproc
 183              	.LFE154:
 185              		.section	.rodata.lv_calendar_header_dropdown_create.str1.4,"aMS",%progbits,1
 186              		.align	2
 187              	.LC0:
 188 0000 32303233 		.ascii	"2023\0122022\0122021\0122020\0122019\0122018\012201"
 188      0A323032 
 188      320A3230 
 188      32310A32 
 188      3032300A 
 189 0021 370A3230 		.ascii	"7\0122016\0122015\0122014\0122013\0122012\0122011\012"
 189      31360A32 
 189      3031350A 
 189      32303134 
 189      0A323031 
 190 0041 32303130 		.ascii	"2010\0122009\0122008\0122007\0122006\0122005\012200"
 190      0A323030 
 190      390A3230 
 190      30380A32 
 190      3030370A 
 191 0062 340A3230 		.ascii	"4\0122003\0122002\0122001\0122000\0121999\0121998\012"
 191      30330A32 
 191      3030320A 
 191      32303031 
 191      0A323030 
 192 0082 31393937 		.ascii	"1997\0121996\0121995\0121994\0121993\0121992\012199"
 192      0A313939 
 192      360A3139 
 192      39350A31 
 192      3939340A 
 193 00a3 310A3139 		.ascii	"1\0121990\0121989\0121988\0121987\0121986\0121985\012"
 193      39300A31 
 193      3938390A 
 193      31393838 
 193      0A313938 
 194 00c3 31393834 		.ascii	"1984\0121983\0121982\0121981\0121980\0121979\012197"
 194      0A313938 
 194      330A3139 
 194      38320A31 
 194      3938310A 
 195 00e4 380A3139 		.ascii	"8\0121977\0121976\0121975\0121974\0121973\0121972\012"
 195      37370A31 
 195      3937360A 
 195      31393735 
ARM GAS  /tmp/cc2G6pGY.s 			page 7


 195      0A313937 
 196 0104 31393731 		.ascii	"1971\0121970\0121969\0121968\0121967\0121966\012196"
 196      0A313937 
 196      300A3139 
 196      36390A31 
 196      3936380A 
 197 0125 350A3139 		.ascii	"5\0121964\0121963\0121962\0121961\0121960\0121959\012"
 197      36340A31 
 197      3936330A 
 197      31393632 
 197      0A313936 
 198 0145 31393538 		.ascii	"1958\0121957\0121956\0121955\0121954\0121953\012195"
 198      0A313935 
 198      370A3139 
 198      35360A31 
 198      3935350A 
 199 0166 320A3139 		.ascii	"2\0121951\0121950\0121949\0121948\0121947\0121946\012"
 199      35310A31 
 199      3935300A 
 199      31393439 
 199      0A313934 
 200 0186 31393435 		.ascii	"1945\0121944\0121943\0121942\0121941\0121940\012193"
 200      0A313934 
 200      340A3139 
 200      34330A31 
 200      3934320A 
 201 01a7 390A3139 		.ascii	"9\0121938\0121937\0121936\0121935\0121934\0121933\012"
 201      33380A31 
 201      3933370A 
 201      31393336 
 201      0A313933 
 202 01c7 31393332 		.ascii	"1932\0121931\0121930\0121929\0121928\0121927\012192"
 202      0A313933 
 202      310A3139 
 202      33300A31 
 202      3932390A 
 203 01e8 360A3139 		.ascii	"6\0121925\0121924\0121923\0121922\0121921\0121920\012"
 203      32350A31 
 203      3932340A 
 203      31393233 
 203      0A313932 
 204 0208 31393139 		.ascii	"1919\0121918\0121917\0121916\0121915\0121914\012191"
 204      0A313931 
 204      380A3139 
 204      31370A31 
 204      3931360A 
 205 0229 330A3139 		.ascii	"3\0121912\0121911\0121910\0121909\0121908\0121907\012"
 205      31320A31 
 205      3931310A 
 205      31393130 
 205      0A313930 
 206 0249 31393036 		.ascii	"1906\0121905\0121904\0121903\0121902\0121901\000"
 206      0A313930 
 206      350A3139 
 206      30340A31 
 206      3930330A 
 207 0267 00       		.align	2
ARM GAS  /tmp/cc2G6pGY.s 			page 8


 208              	.LC1:
 209 0268 30310A30 		.ascii	"01\01202\01203\01204\01205\01206\01207\01208\01209\012"
 209      320A3033 
 209      0A30340A 
 209      30350A30 
 209      360A3037 
 210 0283 31300A31 		.ascii	"10\01211\01212\000"
 210      310A3132 
 210      00
 211              		.section	.text.lv_calendar_header_dropdown_create,"ax",%progbits
 212              		.align	1
 213              		.global	lv_calendar_header_dropdown_create
 214              		.syntax unified
 215              		.thumb
 216              		.thumb_func
 217              		.fpu fpv5-d16
 219              	lv_calendar_header_dropdown_create:
 220              	.LVL24:
 221              	.LFB152:
  53:Middlewares/lvgl/src/extra/widgets/calendar/lv_calendar_header_dropdown.c ****     lv_obj_t * header = lv_obj_create(parent);
 222              		.loc 1 53 1 is_stmt 1 view -0
 223              		.cfi_startproc
 224              		@ args = 0, pretend = 0, frame = 0
 225              		@ frame_needed = 0, uses_anonymous_args = 0
  53:Middlewares/lvgl/src/extra/widgets/calendar/lv_calendar_header_dropdown.c ****     lv_obj_t * header = lv_obj_create(parent);
 226              		.loc 1 53 1 is_stmt 0 view .LVU47
 227 0000 F0B5     		push	{r4, r5, r6, r7, lr}
 228              	.LCFI6:
 229              		.cfi_def_cfa_offset 20
 230              		.cfi_offset 4, -20
 231              		.cfi_offset 5, -16
 232              		.cfi_offset 6, -12
 233              		.cfi_offset 7, -8
 234              		.cfi_offset 14, -4
 235 0002 83B0     		sub	sp, sp, #12
 236              	.LCFI7:
 237              		.cfi_def_cfa_offset 32
 238 0004 0D46     		mov	r5, r1
  54:Middlewares/lvgl/src/extra/widgets/calendar/lv_calendar_header_dropdown.c **** 
 239              		.loc 1 54 5 is_stmt 1 view .LVU48
  54:Middlewares/lvgl/src/extra/widgets/calendar/lv_calendar_header_dropdown.c **** 
 240              		.loc 1 54 25 is_stmt 0 view .LVU49
 241 0006 FFF7FEFF 		bl	lv_obj_create
 242              	.LVL25:
  54:Middlewares/lvgl/src/extra/widgets/calendar/lv_calendar_header_dropdown.c **** 
 243              		.loc 1 54 25 view .LVU50
 244 000a 0446     		mov	r4, r0
 245              	.LVL26:
  57:Middlewares/lvgl/src/extra/widgets/calendar/lv_calendar_header_dropdown.c ****     lv_obj_set_style_pad_right(header,lv_obj_get_style_pad_right(calendar, LV_PART_MAIN), 0);
 246              		.loc 1 57 5 is_stmt 1 view .LVU51
 247              	.LBB14:
 248              	.LBI14:
 249              		.file 2 "Middlewares/lvgl/src/extra/widgets/calendar/../../../core/lv_obj_style_gen.h"
   1:Middlewares/lvgl/src/extra/widgets/calendar/../../../core/lv_obj_style_gen.h **** static inline lv_coord_t lv_obj_get_style_width(const struct _lv_obj_t * obj, uint32_t part)
   2:Middlewares/lvgl/src/extra/widgets/calendar/../../../core/lv_obj_style_gen.h **** {
   3:Middlewares/lvgl/src/extra/widgets/calendar/../../../core/lv_obj_style_gen.h ****     lv_style_value_t v = lv_obj_get_style_prop(obj, part, LV_STYLE_WIDTH);
   4:Middlewares/lvgl/src/extra/widgets/calendar/../../../core/lv_obj_style_gen.h ****     return (lv_coord_t)v.num;
ARM GAS  /tmp/cc2G6pGY.s 			page 9


   5:Middlewares/lvgl/src/extra/widgets/calendar/../../../core/lv_obj_style_gen.h **** }
   6:Middlewares/lvgl/src/extra/widgets/calendar/../../../core/lv_obj_style_gen.h **** 
   7:Middlewares/lvgl/src/extra/widgets/calendar/../../../core/lv_obj_style_gen.h **** static inline lv_coord_t lv_obj_get_style_min_width(const struct _lv_obj_t * obj, uint32_t part)
   8:Middlewares/lvgl/src/extra/widgets/calendar/../../../core/lv_obj_style_gen.h **** {
   9:Middlewares/lvgl/src/extra/widgets/calendar/../../../core/lv_obj_style_gen.h ****     lv_style_value_t v = lv_obj_get_style_prop(obj, part, LV_STYLE_MIN_WIDTH);
  10:Middlewares/lvgl/src/extra/widgets/calendar/../../../core/lv_obj_style_gen.h ****     return (lv_coord_t)v.num;
  11:Middlewares/lvgl/src/extra/widgets/calendar/../../../core/lv_obj_style_gen.h **** }
  12:Middlewares/lvgl/src/extra/widgets/calendar/../../../core/lv_obj_style_gen.h **** 
  13:Middlewares/lvgl/src/extra/widgets/calendar/../../../core/lv_obj_style_gen.h **** static inline lv_coord_t lv_obj_get_style_max_width(const struct _lv_obj_t * obj, uint32_t part)
  14:Middlewares/lvgl/src/extra/widgets/calendar/../../../core/lv_obj_style_gen.h **** {
  15:Middlewares/lvgl/src/extra/widgets/calendar/../../../core/lv_obj_style_gen.h ****     lv_style_value_t v = lv_obj_get_style_prop(obj, part, LV_STYLE_MAX_WIDTH);
  16:Middlewares/lvgl/src/extra/widgets/calendar/../../../core/lv_obj_style_gen.h ****     return (lv_coord_t)v.num;
  17:Middlewares/lvgl/src/extra/widgets/calendar/../../../core/lv_obj_style_gen.h **** }
  18:Middlewares/lvgl/src/extra/widgets/calendar/../../../core/lv_obj_style_gen.h **** 
  19:Middlewares/lvgl/src/extra/widgets/calendar/../../../core/lv_obj_style_gen.h **** static inline lv_coord_t lv_obj_get_style_height(const struct _lv_obj_t * obj, uint32_t part)
  20:Middlewares/lvgl/src/extra/widgets/calendar/../../../core/lv_obj_style_gen.h **** {
  21:Middlewares/lvgl/src/extra/widgets/calendar/../../../core/lv_obj_style_gen.h ****     lv_style_value_t v = lv_obj_get_style_prop(obj, part, LV_STYLE_HEIGHT);
  22:Middlewares/lvgl/src/extra/widgets/calendar/../../../core/lv_obj_style_gen.h ****     return (lv_coord_t)v.num;
  23:Middlewares/lvgl/src/extra/widgets/calendar/../../../core/lv_obj_style_gen.h **** }
  24:Middlewares/lvgl/src/extra/widgets/calendar/../../../core/lv_obj_style_gen.h **** 
  25:Middlewares/lvgl/src/extra/widgets/calendar/../../../core/lv_obj_style_gen.h **** static inline lv_coord_t lv_obj_get_style_min_height(const struct _lv_obj_t * obj, uint32_t part)
  26:Middlewares/lvgl/src/extra/widgets/calendar/../../../core/lv_obj_style_gen.h **** {
  27:Middlewares/lvgl/src/extra/widgets/calendar/../../../core/lv_obj_style_gen.h ****     lv_style_value_t v = lv_obj_get_style_prop(obj, part, LV_STYLE_MIN_HEIGHT);
  28:Middlewares/lvgl/src/extra/widgets/calendar/../../../core/lv_obj_style_gen.h ****     return (lv_coord_t)v.num;
  29:Middlewares/lvgl/src/extra/widgets/calendar/../../../core/lv_obj_style_gen.h **** }
  30:Middlewares/lvgl/src/extra/widgets/calendar/../../../core/lv_obj_style_gen.h **** 
  31:Middlewares/lvgl/src/extra/widgets/calendar/../../../core/lv_obj_style_gen.h **** static inline lv_coord_t lv_obj_get_style_max_height(const struct _lv_obj_t * obj, uint32_t part)
  32:Middlewares/lvgl/src/extra/widgets/calendar/../../../core/lv_obj_style_gen.h **** {
  33:Middlewares/lvgl/src/extra/widgets/calendar/../../../core/lv_obj_style_gen.h ****     lv_style_value_t v = lv_obj_get_style_prop(obj, part, LV_STYLE_MAX_HEIGHT);
  34:Middlewares/lvgl/src/extra/widgets/calendar/../../../core/lv_obj_style_gen.h ****     return (lv_coord_t)v.num;
  35:Middlewares/lvgl/src/extra/widgets/calendar/../../../core/lv_obj_style_gen.h **** }
  36:Middlewares/lvgl/src/extra/widgets/calendar/../../../core/lv_obj_style_gen.h **** 
  37:Middlewares/lvgl/src/extra/widgets/calendar/../../../core/lv_obj_style_gen.h **** static inline lv_coord_t lv_obj_get_style_x(const struct _lv_obj_t * obj, uint32_t part)
  38:Middlewares/lvgl/src/extra/widgets/calendar/../../../core/lv_obj_style_gen.h **** {
  39:Middlewares/lvgl/src/extra/widgets/calendar/../../../core/lv_obj_style_gen.h ****     lv_style_value_t v = lv_obj_get_style_prop(obj, part, LV_STYLE_X);
  40:Middlewares/lvgl/src/extra/widgets/calendar/../../../core/lv_obj_style_gen.h ****     return (lv_coord_t)v.num;
  41:Middlewares/lvgl/src/extra/widgets/calendar/../../../core/lv_obj_style_gen.h **** }
  42:Middlewares/lvgl/src/extra/widgets/calendar/../../../core/lv_obj_style_gen.h **** 
  43:Middlewares/lvgl/src/extra/widgets/calendar/../../../core/lv_obj_style_gen.h **** static inline lv_coord_t lv_obj_get_style_y(const struct _lv_obj_t * obj, uint32_t part)
  44:Middlewares/lvgl/src/extra/widgets/calendar/../../../core/lv_obj_style_gen.h **** {
  45:Middlewares/lvgl/src/extra/widgets/calendar/../../../core/lv_obj_style_gen.h ****     lv_style_value_t v = lv_obj_get_style_prop(obj, part, LV_STYLE_Y);
  46:Middlewares/lvgl/src/extra/widgets/calendar/../../../core/lv_obj_style_gen.h ****     return (lv_coord_t)v.num;
  47:Middlewares/lvgl/src/extra/widgets/calendar/../../../core/lv_obj_style_gen.h **** }
  48:Middlewares/lvgl/src/extra/widgets/calendar/../../../core/lv_obj_style_gen.h **** 
  49:Middlewares/lvgl/src/extra/widgets/calendar/../../../core/lv_obj_style_gen.h **** static inline lv_align_t lv_obj_get_style_align(const struct _lv_obj_t * obj, uint32_t part)
  50:Middlewares/lvgl/src/extra/widgets/calendar/../../../core/lv_obj_style_gen.h **** {
  51:Middlewares/lvgl/src/extra/widgets/calendar/../../../core/lv_obj_style_gen.h ****     lv_style_value_t v = lv_obj_get_style_prop(obj, part, LV_STYLE_ALIGN);
  52:Middlewares/lvgl/src/extra/widgets/calendar/../../../core/lv_obj_style_gen.h ****     return (lv_align_t)v.num;
  53:Middlewares/lvgl/src/extra/widgets/calendar/../../../core/lv_obj_style_gen.h **** }
  54:Middlewares/lvgl/src/extra/widgets/calendar/../../../core/lv_obj_style_gen.h **** 
  55:Middlewares/lvgl/src/extra/widgets/calendar/../../../core/lv_obj_style_gen.h **** static inline lv_coord_t lv_obj_get_style_transform_width(const struct _lv_obj_t * obj, uint32_t pa
  56:Middlewares/lvgl/src/extra/widgets/calendar/../../../core/lv_obj_style_gen.h **** {
  57:Middlewares/lvgl/src/extra/widgets/calendar/../../../core/lv_obj_style_gen.h ****     lv_style_value_t v = lv_obj_get_style_prop(obj, part, LV_STYLE_TRANSFORM_WIDTH);
  58:Middlewares/lvgl/src/extra/widgets/calendar/../../../core/lv_obj_style_gen.h ****     return (lv_coord_t)v.num;
  59:Middlewares/lvgl/src/extra/widgets/calendar/../../../core/lv_obj_style_gen.h **** }
  60:Middlewares/lvgl/src/extra/widgets/calendar/../../../core/lv_obj_style_gen.h **** 
  61:Middlewares/lvgl/src/extra/widgets/calendar/../../../core/lv_obj_style_gen.h **** static inline lv_coord_t lv_obj_get_style_transform_height(const struct _lv_obj_t * obj, uint32_t p
ARM GAS  /tmp/cc2G6pGY.s 			page 10


  62:Middlewares/lvgl/src/extra/widgets/calendar/../../../core/lv_obj_style_gen.h **** {
  63:Middlewares/lvgl/src/extra/widgets/calendar/../../../core/lv_obj_style_gen.h ****     lv_style_value_t v = lv_obj_get_style_prop(obj, part, LV_STYLE_TRANSFORM_HEIGHT);
  64:Middlewares/lvgl/src/extra/widgets/calendar/../../../core/lv_obj_style_gen.h ****     return (lv_coord_t)v.num;
  65:Middlewares/lvgl/src/extra/widgets/calendar/../../../core/lv_obj_style_gen.h **** }
  66:Middlewares/lvgl/src/extra/widgets/calendar/../../../core/lv_obj_style_gen.h **** 
  67:Middlewares/lvgl/src/extra/widgets/calendar/../../../core/lv_obj_style_gen.h **** static inline lv_coord_t lv_obj_get_style_translate_x(const struct _lv_obj_t * obj, uint32_t part)
  68:Middlewares/lvgl/src/extra/widgets/calendar/../../../core/lv_obj_style_gen.h **** {
  69:Middlewares/lvgl/src/extra/widgets/calendar/../../../core/lv_obj_style_gen.h ****     lv_style_value_t v = lv_obj_get_style_prop(obj, part, LV_STYLE_TRANSLATE_X);
  70:Middlewares/lvgl/src/extra/widgets/calendar/../../../core/lv_obj_style_gen.h ****     return (lv_coord_t)v.num;
  71:Middlewares/lvgl/src/extra/widgets/calendar/../../../core/lv_obj_style_gen.h **** }
  72:Middlewares/lvgl/src/extra/widgets/calendar/../../../core/lv_obj_style_gen.h **** 
  73:Middlewares/lvgl/src/extra/widgets/calendar/../../../core/lv_obj_style_gen.h **** static inline lv_coord_t lv_obj_get_style_translate_y(const struct _lv_obj_t * obj, uint32_t part)
  74:Middlewares/lvgl/src/extra/widgets/calendar/../../../core/lv_obj_style_gen.h **** {
  75:Middlewares/lvgl/src/extra/widgets/calendar/../../../core/lv_obj_style_gen.h ****     lv_style_value_t v = lv_obj_get_style_prop(obj, part, LV_STYLE_TRANSLATE_Y);
  76:Middlewares/lvgl/src/extra/widgets/calendar/../../../core/lv_obj_style_gen.h ****     return (lv_coord_t)v.num;
  77:Middlewares/lvgl/src/extra/widgets/calendar/../../../core/lv_obj_style_gen.h **** }
  78:Middlewares/lvgl/src/extra/widgets/calendar/../../../core/lv_obj_style_gen.h **** 
  79:Middlewares/lvgl/src/extra/widgets/calendar/../../../core/lv_obj_style_gen.h **** static inline lv_coord_t lv_obj_get_style_transform_zoom(const struct _lv_obj_t * obj, uint32_t par
  80:Middlewares/lvgl/src/extra/widgets/calendar/../../../core/lv_obj_style_gen.h **** {
  81:Middlewares/lvgl/src/extra/widgets/calendar/../../../core/lv_obj_style_gen.h ****     lv_style_value_t v = lv_obj_get_style_prop(obj, part, LV_STYLE_TRANSFORM_ZOOM);
  82:Middlewares/lvgl/src/extra/widgets/calendar/../../../core/lv_obj_style_gen.h ****     return (lv_coord_t)v.num;
  83:Middlewares/lvgl/src/extra/widgets/calendar/../../../core/lv_obj_style_gen.h **** }
  84:Middlewares/lvgl/src/extra/widgets/calendar/../../../core/lv_obj_style_gen.h **** 
  85:Middlewares/lvgl/src/extra/widgets/calendar/../../../core/lv_obj_style_gen.h **** static inline lv_coord_t lv_obj_get_style_transform_angle(const struct _lv_obj_t * obj, uint32_t pa
  86:Middlewares/lvgl/src/extra/widgets/calendar/../../../core/lv_obj_style_gen.h **** {
  87:Middlewares/lvgl/src/extra/widgets/calendar/../../../core/lv_obj_style_gen.h ****     lv_style_value_t v = lv_obj_get_style_prop(obj, part, LV_STYLE_TRANSFORM_ANGLE);
  88:Middlewares/lvgl/src/extra/widgets/calendar/../../../core/lv_obj_style_gen.h ****     return (lv_coord_t)v.num;
  89:Middlewares/lvgl/src/extra/widgets/calendar/../../../core/lv_obj_style_gen.h **** }
  90:Middlewares/lvgl/src/extra/widgets/calendar/../../../core/lv_obj_style_gen.h **** 
  91:Middlewares/lvgl/src/extra/widgets/calendar/../../../core/lv_obj_style_gen.h **** static inline lv_coord_t lv_obj_get_style_pad_top(const struct _lv_obj_t * obj, uint32_t part)
  92:Middlewares/lvgl/src/extra/widgets/calendar/../../../core/lv_obj_style_gen.h **** {
  93:Middlewares/lvgl/src/extra/widgets/calendar/../../../core/lv_obj_style_gen.h ****     lv_style_value_t v = lv_obj_get_style_prop(obj, part, LV_STYLE_PAD_TOP);
  94:Middlewares/lvgl/src/extra/widgets/calendar/../../../core/lv_obj_style_gen.h ****     return (lv_coord_t)v.num;
  95:Middlewares/lvgl/src/extra/widgets/calendar/../../../core/lv_obj_style_gen.h **** }
  96:Middlewares/lvgl/src/extra/widgets/calendar/../../../core/lv_obj_style_gen.h **** 
  97:Middlewares/lvgl/src/extra/widgets/calendar/../../../core/lv_obj_style_gen.h **** static inline lv_coord_t lv_obj_get_style_pad_bottom(const struct _lv_obj_t * obj, uint32_t part)
  98:Middlewares/lvgl/src/extra/widgets/calendar/../../../core/lv_obj_style_gen.h **** {
  99:Middlewares/lvgl/src/extra/widgets/calendar/../../../core/lv_obj_style_gen.h ****     lv_style_value_t v = lv_obj_get_style_prop(obj, part, LV_STYLE_PAD_BOTTOM);
 100:Middlewares/lvgl/src/extra/widgets/calendar/../../../core/lv_obj_style_gen.h ****     return (lv_coord_t)v.num;
 101:Middlewares/lvgl/src/extra/widgets/calendar/../../../core/lv_obj_style_gen.h **** }
 102:Middlewares/lvgl/src/extra/widgets/calendar/../../../core/lv_obj_style_gen.h **** 
 103:Middlewares/lvgl/src/extra/widgets/calendar/../../../core/lv_obj_style_gen.h **** static inline lv_coord_t lv_obj_get_style_pad_left(const struct _lv_obj_t * obj, uint32_t part)
 250              		.loc 2 103 26 view .LVU52
 251              	.LBB15:
 104:Middlewares/lvgl/src/extra/widgets/calendar/../../../core/lv_obj_style_gen.h **** {
 105:Middlewares/lvgl/src/extra/widgets/calendar/../../../core/lv_obj_style_gen.h ****     lv_style_value_t v = lv_obj_get_style_prop(obj, part, LV_STYLE_PAD_LEFT);
 252              		.loc 2 105 5 view .LVU53
 253              		.loc 2 105 26 is_stmt 0 view .LVU54
 254 000c 41F21202 		movw	r2, #4114
 255 0010 0021     		movs	r1, #0
 256 0012 2846     		mov	r0, r5
 257              	.LVL27:
 258              		.loc 2 105 26 view .LVU55
 259 0014 FFF7FEFF 		bl	lv_obj_get_style_prop
 260              	.LVL28:
 106:Middlewares/lvgl/src/extra/widgets/calendar/../../../core/lv_obj_style_gen.h ****     return (lv_coord_t)v.num;
 261              		.loc 2 106 5 is_stmt 1 view .LVU56
ARM GAS  /tmp/cc2G6pGY.s 			page 11


 262              		.loc 2 106 5 is_stmt 0 view .LVU57
 263              	.LBE15:
 264              	.LBE14:
  57:Middlewares/lvgl/src/extra/widgets/calendar/lv_calendar_header_dropdown.c ****     lv_obj_set_style_pad_right(header,lv_obj_get_style_pad_right(calendar, LV_PART_MAIN), 0);
 265              		.loc 1 57 5 view .LVU58
 266 0018 0022     		movs	r2, #0
 267 001a 01B2     		sxth	r1, r0
 268 001c 2046     		mov	r0, r4
 269 001e FFF7FEFF 		bl	lv_obj_set_style_pad_left
 270              	.LVL29:
  58:Middlewares/lvgl/src/extra/widgets/calendar/lv_calendar_header_dropdown.c ****     lv_obj_set_style_pad_top(header,lv_obj_get_style_pad_top(calendar, LV_PART_MAIN), 0);
 271              		.loc 1 58 5 is_stmt 1 view .LVU59
 272              	.LBB16:
 273              	.LBI16:
 107:Middlewares/lvgl/src/extra/widgets/calendar/../../../core/lv_obj_style_gen.h **** }
 108:Middlewares/lvgl/src/extra/widgets/calendar/../../../core/lv_obj_style_gen.h **** 
 109:Middlewares/lvgl/src/extra/widgets/calendar/../../../core/lv_obj_style_gen.h **** static inline lv_coord_t lv_obj_get_style_pad_right(const struct _lv_obj_t * obj, uint32_t part)
 274              		.loc 2 109 26 view .LVU60
 275              	.LBB17:
 110:Middlewares/lvgl/src/extra/widgets/calendar/../../../core/lv_obj_style_gen.h **** {
 111:Middlewares/lvgl/src/extra/widgets/calendar/../../../core/lv_obj_style_gen.h ****     lv_style_value_t v = lv_obj_get_style_prop(obj, part, LV_STYLE_PAD_RIGHT);
 276              		.loc 2 111 5 view .LVU61
 277              		.loc 2 111 26 is_stmt 0 view .LVU62
 278 0022 41F21302 		movw	r2, #4115
 279 0026 0021     		movs	r1, #0
 280 0028 2846     		mov	r0, r5
 281 002a FFF7FEFF 		bl	lv_obj_get_style_prop
 282              	.LVL30:
 112:Middlewares/lvgl/src/extra/widgets/calendar/../../../core/lv_obj_style_gen.h ****     return (lv_coord_t)v.num;
 283              		.loc 2 112 5 is_stmt 1 view .LVU63
 284              		.loc 2 112 5 is_stmt 0 view .LVU64
 285              	.LBE17:
 286              	.LBE16:
  58:Middlewares/lvgl/src/extra/widgets/calendar/lv_calendar_header_dropdown.c ****     lv_obj_set_style_pad_top(header,lv_obj_get_style_pad_top(calendar, LV_PART_MAIN), 0);
 287              		.loc 1 58 5 view .LVU65
 288 002e 0022     		movs	r2, #0
 289 0030 01B2     		sxth	r1, r0
 290 0032 2046     		mov	r0, r4
 291 0034 FFF7FEFF 		bl	lv_obj_set_style_pad_right
 292              	.LVL31:
  59:Middlewares/lvgl/src/extra/widgets/calendar/lv_calendar_header_dropdown.c ****     lv_obj_set_style_pad_bottom(header,lv_obj_get_style_pad_bottom(calendar, LV_PART_MAIN), 0);
 293              		.loc 1 59 5 is_stmt 1 view .LVU66
 294              	.LBB18:
 295              	.LBI18:
  91:Middlewares/lvgl/src/extra/widgets/calendar/../../../core/lv_obj_style_gen.h **** {
 296              		.loc 2 91 26 view .LVU67
 297              	.LBB19:
  93:Middlewares/lvgl/src/extra/widgets/calendar/../../../core/lv_obj_style_gen.h ****     return (lv_coord_t)v.num;
 298              		.loc 2 93 5 view .LVU68
  93:Middlewares/lvgl/src/extra/widgets/calendar/../../../core/lv_obj_style_gen.h ****     return (lv_coord_t)v.num;
 299              		.loc 2 93 26 is_stmt 0 view .LVU69
 300 0038 41F21002 		movw	r2, #4112
 301 003c 0021     		movs	r1, #0
 302 003e 2846     		mov	r0, r5
 303 0040 FFF7FEFF 		bl	lv_obj_get_style_prop
 304              	.LVL32:
  94:Middlewares/lvgl/src/extra/widgets/calendar/../../../core/lv_obj_style_gen.h **** }
ARM GAS  /tmp/cc2G6pGY.s 			page 12


 305              		.loc 2 94 5 is_stmt 1 view .LVU70
  94:Middlewares/lvgl/src/extra/widgets/calendar/../../../core/lv_obj_style_gen.h **** }
 306              		.loc 2 94 5 is_stmt 0 view .LVU71
 307              	.LBE19:
 308              	.LBE18:
  59:Middlewares/lvgl/src/extra/widgets/calendar/lv_calendar_header_dropdown.c ****     lv_obj_set_style_pad_bottom(header,lv_obj_get_style_pad_bottom(calendar, LV_PART_MAIN), 0);
 309              		.loc 1 59 5 view .LVU72
 310 0044 0022     		movs	r2, #0
 311 0046 01B2     		sxth	r1, r0
 312 0048 2046     		mov	r0, r4
 313 004a FFF7FEFF 		bl	lv_obj_set_style_pad_top
 314              	.LVL33:
  60:Middlewares/lvgl/src/extra/widgets/calendar/lv_calendar_header_dropdown.c ****     lv_obj_set_style_pad_column(header,lv_obj_get_style_pad_column(calendar, LV_PART_MAIN), 0);
 315              		.loc 1 60 5 is_stmt 1 view .LVU73
 316              	.LBB20:
 317              	.LBI20:
  97:Middlewares/lvgl/src/extra/widgets/calendar/../../../core/lv_obj_style_gen.h **** {
 318              		.loc 2 97 26 view .LVU74
 319              	.LBB21:
  99:Middlewares/lvgl/src/extra/widgets/calendar/../../../core/lv_obj_style_gen.h ****     return (lv_coord_t)v.num;
 320              		.loc 2 99 5 view .LVU75
  99:Middlewares/lvgl/src/extra/widgets/calendar/../../../core/lv_obj_style_gen.h ****     return (lv_coord_t)v.num;
 321              		.loc 2 99 26 is_stmt 0 view .LVU76
 322 004e 41F21102 		movw	r2, #4113
 323 0052 0021     		movs	r1, #0
 324 0054 2846     		mov	r0, r5
 325 0056 FFF7FEFF 		bl	lv_obj_get_style_prop
 326              	.LVL34:
 100:Middlewares/lvgl/src/extra/widgets/calendar/../../../core/lv_obj_style_gen.h **** }
 327              		.loc 2 100 5 is_stmt 1 view .LVU77
 100:Middlewares/lvgl/src/extra/widgets/calendar/../../../core/lv_obj_style_gen.h **** }
 328              		.loc 2 100 5 is_stmt 0 view .LVU78
 329              	.LBE21:
 330              	.LBE20:
  60:Middlewares/lvgl/src/extra/widgets/calendar/lv_calendar_header_dropdown.c ****     lv_obj_set_style_pad_column(header,lv_obj_get_style_pad_column(calendar, LV_PART_MAIN), 0);
 331              		.loc 1 60 5 view .LVU79
 332 005a 0022     		movs	r2, #0
 333 005c 01B2     		sxth	r1, r0
 334 005e 2046     		mov	r0, r4
 335 0060 FFF7FEFF 		bl	lv_obj_set_style_pad_bottom
 336              	.LVL35:
  61:Middlewares/lvgl/src/extra/widgets/calendar/lv_calendar_header_dropdown.c ****     lv_obj_set_style_radius(header,lv_obj_get_style_radius(calendar, LV_PART_MAIN), 0);
 337              		.loc 1 61 5 is_stmt 1 view .LVU80
 338              	.LBB22:
 339              	.LBI22:
 113:Middlewares/lvgl/src/extra/widgets/calendar/../../../core/lv_obj_style_gen.h **** }
 114:Middlewares/lvgl/src/extra/widgets/calendar/../../../core/lv_obj_style_gen.h **** 
 115:Middlewares/lvgl/src/extra/widgets/calendar/../../../core/lv_obj_style_gen.h **** static inline lv_coord_t lv_obj_get_style_pad_row(const struct _lv_obj_t * obj, uint32_t part)
 116:Middlewares/lvgl/src/extra/widgets/calendar/../../../core/lv_obj_style_gen.h **** {
 117:Middlewares/lvgl/src/extra/widgets/calendar/../../../core/lv_obj_style_gen.h ****     lv_style_value_t v = lv_obj_get_style_prop(obj, part, LV_STYLE_PAD_ROW);
 118:Middlewares/lvgl/src/extra/widgets/calendar/../../../core/lv_obj_style_gen.h ****     return (lv_coord_t)v.num;
 119:Middlewares/lvgl/src/extra/widgets/calendar/../../../core/lv_obj_style_gen.h **** }
 120:Middlewares/lvgl/src/extra/widgets/calendar/../../../core/lv_obj_style_gen.h **** 
 121:Middlewares/lvgl/src/extra/widgets/calendar/../../../core/lv_obj_style_gen.h **** static inline lv_coord_t lv_obj_get_style_pad_column(const struct _lv_obj_t * obj, uint32_t part)
 340              		.loc 2 121 26 view .LVU81
 341              	.LBB23:
 122:Middlewares/lvgl/src/extra/widgets/calendar/../../../core/lv_obj_style_gen.h **** {
ARM GAS  /tmp/cc2G6pGY.s 			page 13


 123:Middlewares/lvgl/src/extra/widgets/calendar/../../../core/lv_obj_style_gen.h ****     lv_style_value_t v = lv_obj_get_style_prop(obj, part, LV_STYLE_PAD_COLUMN);
 342              		.loc 2 123 5 view .LVU82
 343              		.loc 2 123 26 is_stmt 0 view .LVU83
 344 0064 41F21502 		movw	r2, #4117
 345 0068 0021     		movs	r1, #0
 346 006a 2846     		mov	r0, r5
 347 006c FFF7FEFF 		bl	lv_obj_get_style_prop
 348              	.LVL36:
 124:Middlewares/lvgl/src/extra/widgets/calendar/../../../core/lv_obj_style_gen.h ****     return (lv_coord_t)v.num;
 349              		.loc 2 124 5 is_stmt 1 view .LVU84
 350              		.loc 2 124 5 is_stmt 0 view .LVU85
 351              	.LBE23:
 352              	.LBE22:
  61:Middlewares/lvgl/src/extra/widgets/calendar/lv_calendar_header_dropdown.c ****     lv_obj_set_style_radius(header,lv_obj_get_style_radius(calendar, LV_PART_MAIN), 0);
 353              		.loc 1 61 5 view .LVU86
 354 0070 0022     		movs	r2, #0
 355 0072 01B2     		sxth	r1, r0
 356 0074 2046     		mov	r0, r4
 357 0076 FFF7FEFF 		bl	lv_obj_set_style_pad_column
 358              	.LVL37:
  62:Middlewares/lvgl/src/extra/widgets/calendar/lv_calendar_header_dropdown.c **** 
 359              		.loc 1 62 5 is_stmt 1 view .LVU87
 360              	.LBB24:
 361              	.LBI24:
 125:Middlewares/lvgl/src/extra/widgets/calendar/../../../core/lv_obj_style_gen.h **** }
 126:Middlewares/lvgl/src/extra/widgets/calendar/../../../core/lv_obj_style_gen.h **** 
 127:Middlewares/lvgl/src/extra/widgets/calendar/../../../core/lv_obj_style_gen.h **** static inline lv_coord_t lv_obj_get_style_radius(const struct _lv_obj_t * obj, uint32_t part)
 362              		.loc 2 127 26 view .LVU88
 363              	.LBB25:
 128:Middlewares/lvgl/src/extra/widgets/calendar/../../../core/lv_obj_style_gen.h **** {
 129:Middlewares/lvgl/src/extra/widgets/calendar/../../../core/lv_obj_style_gen.h ****     lv_style_value_t v = lv_obj_get_style_prop(obj, part, LV_STYLE_RADIUS);
 364              		.loc 2 129 5 view .LVU89
 365              		.loc 2 129 26 is_stmt 0 view .LVU90
 366 007a 6022     		movs	r2, #96
 367 007c 0021     		movs	r1, #0
 368 007e 2846     		mov	r0, r5
 369 0080 FFF7FEFF 		bl	lv_obj_get_style_prop
 370              	.LVL38:
 130:Middlewares/lvgl/src/extra/widgets/calendar/../../../core/lv_obj_style_gen.h ****     return (lv_coord_t)v.num;
 371              		.loc 2 130 5 is_stmt 1 view .LVU91
 372              		.loc 2 130 5 is_stmt 0 view .LVU92
 373              	.LBE25:
 374              	.LBE24:
  62:Middlewares/lvgl/src/extra/widgets/calendar/lv_calendar_header_dropdown.c **** 
 375              		.loc 1 62 5 view .LVU93
 376 0084 0022     		movs	r2, #0
 377 0086 01B2     		sxth	r1, r0
 378 0088 2046     		mov	r0, r4
 379 008a FFF7FEFF 		bl	lv_obj_set_style_radius
 380              	.LVL39:
  64:Middlewares/lvgl/src/extra/widgets/calendar/lv_calendar_header_dropdown.c **** 
 381              		.loc 1 64 5 is_stmt 1 view .LVU94
  64:Middlewares/lvgl/src/extra/widgets/calendar/lv_calendar_header_dropdown.c **** 
 382              		.loc 1 64 43 is_stmt 0 view .LVU95
 383 008e 2846     		mov	r0, r5
 384 0090 FFF7FEFF 		bl	lv_calendar_get_showed_date
 385              	.LVL40:
ARM GAS  /tmp/cc2G6pGY.s 			page 14


 386 0094 0746     		mov	r7, r0
 387              	.LVL41:
  66:Middlewares/lvgl/src/extra/widgets/calendar/lv_calendar_header_dropdown.c ****     lv_coord_t w = lv_obj_get_width(calendar);
 388              		.loc 1 66 5 is_stmt 1 view .LVU96
 389 0096 2846     		mov	r0, r5
 390              	.LVL42:
  66:Middlewares/lvgl/src/extra/widgets/calendar/lv_calendar_header_dropdown.c ****     lv_coord_t w = lv_obj_get_width(calendar);
 391              		.loc 1 66 5 is_stmt 0 view .LVU97
 392 0098 FFF7FEFF 		bl	lv_obj_update_layout
 393              	.LVL43:
  67:Middlewares/lvgl/src/extra/widgets/calendar/lv_calendar_header_dropdown.c ****     lv_obj_set_size(header,  w, LV_SIZE_CONTENT);
 394              		.loc 1 67 5 is_stmt 1 view .LVU98
  67:Middlewares/lvgl/src/extra/widgets/calendar/lv_calendar_header_dropdown.c ****     lv_obj_set_size(header,  w, LV_SIZE_CONTENT);
 395              		.loc 1 67 20 is_stmt 0 view .LVU99
 396 009c 2846     		mov	r0, r5
 397 009e FFF7FEFF 		bl	lv_obj_get_width
 398              	.LVL44:
 399 00a2 0146     		mov	r1, r0
 400              	.LVL45:
  68:Middlewares/lvgl/src/extra/widgets/calendar/lv_calendar_header_dropdown.c ****     lv_obj_set_flex_flow(header, LV_FLEX_FLOW_ROW);
 401              		.loc 1 68 5 is_stmt 1 view .LVU100
 402 00a4 42F2D172 		movw	r2, #10193
 403 00a8 2046     		mov	r0, r4
 404 00aa FFF7FEFF 		bl	lv_obj_set_size
 405              	.LVL46:
  69:Middlewares/lvgl/src/extra/widgets/calendar/lv_calendar_header_dropdown.c ****     lv_obj_set_flex_align(header, LV_FLEX_ALIGN_START, LV_FLEX_ALIGN_CENTER, LV_FLEX_ALIGN_START);
 406              		.loc 1 69 5 view .LVU101
 407 00ae 0021     		movs	r1, #0
 408 00b0 2046     		mov	r0, r4
 409 00b2 FFF7FEFF 		bl	lv_obj_set_flex_flow
 410              	.LVL47:
  70:Middlewares/lvgl/src/extra/widgets/calendar/lv_calendar_header_dropdown.c **** 
 411              		.loc 1 70 5 view .LVU102
 412 00b6 0023     		movs	r3, #0
 413 00b8 0222     		movs	r2, #2
 414 00ba 1946     		mov	r1, r3
 415 00bc 2046     		mov	r0, r4
 416 00be FFF7FEFF 		bl	lv_obj_set_flex_align
 417              	.LVL48:
  72:Middlewares/lvgl/src/extra/widgets/calendar/lv_calendar_header_dropdown.c ****     lv_dropdown_set_options(year_dd, year_list);
 418              		.loc 1 72 5 view .LVU103
  72:Middlewares/lvgl/src/extra/widgets/calendar/lv_calendar_header_dropdown.c ****     lv_dropdown_set_options(year_dd, year_list);
 419              		.loc 1 72 26 is_stmt 0 view .LVU104
 420 00c2 2046     		mov	r0, r4
 421 00c4 FFF7FEFF 		bl	lv_dropdown_create
 422              	.LVL49:
 423 00c8 0646     		mov	r6, r0
 424              	.LVL50:
  73:Middlewares/lvgl/src/extra/widgets/calendar/lv_calendar_header_dropdown.c ****     lv_dropdown_set_selected(year_dd, 2023 - cur_date->year);
 425              		.loc 1 73 5 is_stmt 1 view .LVU105
 426 00ca 1C49     		ldr	r1, .L7
 427 00cc FFF7FEFF 		bl	lv_dropdown_set_options
 428              	.LVL51:
  74:Middlewares/lvgl/src/extra/widgets/calendar/lv_calendar_header_dropdown.c ****     lv_obj_add_event_cb(year_dd, year_event_cb, LV_EVENT_VALUE_CHANGED, calendar);
 429              		.loc 1 74 5 view .LVU106
  74:Middlewares/lvgl/src/extra/widgets/calendar/lv_calendar_header_dropdown.c ****     lv_obj_add_event_cb(year_dd, year_event_cb, LV_EVENT_VALUE_CHANGED, calendar);
 430              		.loc 1 74 54 is_stmt 0 view .LVU107
ARM GAS  /tmp/cc2G6pGY.s 			page 15


 431 00d0 3B88     		ldrh	r3, [r7]
  74:Middlewares/lvgl/src/extra/widgets/calendar/lv_calendar_header_dropdown.c ****     lv_obj_add_event_cb(year_dd, year_event_cb, LV_EVENT_VALUE_CHANGED, calendar);
 432              		.loc 1 74 5 view .LVU108
 433 00d2 40F2E771 		movw	r1, #2023
 434 00d6 C91A     		subs	r1, r1, r3
 435 00d8 89B2     		uxth	r1, r1
 436 00da 3046     		mov	r0, r6
 437 00dc FFF7FEFF 		bl	lv_dropdown_set_selected
 438              	.LVL52:
  75:Middlewares/lvgl/src/extra/widgets/calendar/lv_calendar_header_dropdown.c ****     lv_obj_set_flex_grow(year_dd, 1);
 439              		.loc 1 75 5 is_stmt 1 view .LVU109
 440 00e0 2B46     		mov	r3, r5
 441 00e2 1C22     		movs	r2, #28
 442 00e4 1649     		ldr	r1, .L7+4
 443 00e6 3046     		mov	r0, r6
 444 00e8 FFF7FEFF 		bl	lv_obj_add_event_cb
 445              	.LVL53:
  76:Middlewares/lvgl/src/extra/widgets/calendar/lv_calendar_header_dropdown.c **** 
 446              		.loc 1 76 5 view .LVU110
 447 00ec 0121     		movs	r1, #1
 448 00ee 3046     		mov	r0, r6
 449 00f0 FFF7FEFF 		bl	lv_obj_set_flex_grow
 450              	.LVL54:
  78:Middlewares/lvgl/src/extra/widgets/calendar/lv_calendar_header_dropdown.c ****     lv_dropdown_set_options(month_dd, month_list);
 451              		.loc 1 78 5 view .LVU111
  78:Middlewares/lvgl/src/extra/widgets/calendar/lv_calendar_header_dropdown.c ****     lv_dropdown_set_options(month_dd, month_list);
 452              		.loc 1 78 27 is_stmt 0 view .LVU112
 453 00f4 2046     		mov	r0, r4
 454 00f6 FFF7FEFF 		bl	lv_dropdown_create
 455              	.LVL55:
 456 00fa 0646     		mov	r6, r0
 457              	.LVL56:
  79:Middlewares/lvgl/src/extra/widgets/calendar/lv_calendar_header_dropdown.c ****     lv_dropdown_set_selected(month_dd, cur_date->month - 1);
 458              		.loc 1 79 5 is_stmt 1 view .LVU113
 459 00fc 1149     		ldr	r1, .L7+8
 460 00fe FFF7FEFF 		bl	lv_dropdown_set_options
 461              	.LVL57:
  80:Middlewares/lvgl/src/extra/widgets/calendar/lv_calendar_header_dropdown.c ****     lv_obj_add_event_cb(month_dd, month_event_cb, LV_EVENT_VALUE_CHANGED, calendar);
 462              		.loc 1 80 5 view .LVU114
  80:Middlewares/lvgl/src/extra/widgets/calendar/lv_calendar_header_dropdown.c ****     lv_obj_add_event_cb(month_dd, month_event_cb, LV_EVENT_VALUE_CHANGED, calendar);
 463              		.loc 1 80 48 is_stmt 0 view .LVU115
 464 0102 97F90210 		ldrsb	r1, [r7, #2]
 465 0106 89B2     		uxth	r1, r1
  80:Middlewares/lvgl/src/extra/widgets/calendar/lv_calendar_header_dropdown.c ****     lv_obj_add_event_cb(month_dd, month_event_cb, LV_EVENT_VALUE_CHANGED, calendar);
 466              		.loc 1 80 5 view .LVU116
 467 0108 0139     		subs	r1, r1, #1
 468 010a 89B2     		uxth	r1, r1
 469 010c 3046     		mov	r0, r6
 470 010e FFF7FEFF 		bl	lv_dropdown_set_selected
 471              	.LVL58:
  81:Middlewares/lvgl/src/extra/widgets/calendar/lv_calendar_header_dropdown.c ****     lv_obj_set_flex_grow(month_dd, 1);
 472              		.loc 1 81 5 is_stmt 1 view .LVU117
 473 0112 2B46     		mov	r3, r5
 474 0114 1C22     		movs	r2, #28
 475 0116 0C49     		ldr	r1, .L7+12
 476 0118 3046     		mov	r0, r6
 477 011a FFF7FEFF 		bl	lv_obj_add_event_cb
ARM GAS  /tmp/cc2G6pGY.s 			page 16


 478              	.LVL59:
  82:Middlewares/lvgl/src/extra/widgets/calendar/lv_calendar_header_dropdown.c **** 
 479              		.loc 1 82 5 view .LVU118
 480 011e 0121     		movs	r1, #1
 481 0120 3046     		mov	r0, r6
 482 0122 FFF7FEFF 		bl	lv_obj_set_flex_grow
 483              	.LVL60:
  84:Middlewares/lvgl/src/extra/widgets/calendar/lv_calendar_header_dropdown.c **** 
 484              		.loc 1 84 5 view .LVU119
 485 0126 0023     		movs	r3, #0
 486 0128 0093     		str	r3, [sp]
 487 012a 0B22     		movs	r2, #11
 488 012c 2946     		mov	r1, r5
 489 012e 2046     		mov	r0, r4
 490 0130 FFF7FEFF 		bl	lv_obj_align_to
 491              	.LVL61:
  86:Middlewares/lvgl/src/extra/widgets/calendar/lv_calendar_header_dropdown.c **** }
 492              		.loc 1 86 5 view .LVU120
  87:Middlewares/lvgl/src/extra/widgets/calendar/lv_calendar_header_dropdown.c **** 
 493              		.loc 1 87 1 is_stmt 0 view .LVU121
 494 0134 2046     		mov	r0, r4
 495 0136 03B0     		add	sp, sp, #12
 496              	.LCFI8:
 497              		.cfi_def_cfa_offset 20
 498              		@ sp needed
 499 0138 F0BD     		pop	{r4, r5, r6, r7, pc}
 500              	.LVL62:
 501              	.L8:
  87:Middlewares/lvgl/src/extra/widgets/calendar/lv_calendar_header_dropdown.c **** 
 502              		.loc 1 87 1 view .LVU122
 503 013a 00BF     		.align	2
 504              	.L7:
 505 013c 00000000 		.word	.LC0
 506 0140 00000000 		.word	year_event_cb
 507 0144 68020000 		.word	.LC1
 508 0148 00000000 		.word	month_event_cb
 509              		.cfi_endproc
 510              	.LFE152:
 512              		.text
 513              	.Letext0:
 514              		.file 3 "/home/akinya/gcc-arm-none-eabi/arm-none-eabi/include/machine/_default_types.h"
 515              		.file 4 "/home/akinya/gcc-arm-none-eabi/arm-none-eabi/include/sys/_stdint.h"
 516              		.file 5 "Middlewares/lvgl/src/extra/widgets/calendar/../../../core/../misc/../font/../misc/lv_area
 517              		.file 6 "Middlewares/lvgl/src/extra/widgets/calendar/../../../core/../misc/lv_color.h"
 518              		.file 7 "Middlewares/lvgl/src/extra/widgets/calendar/../../../core/../misc/lv_style.h"
 519              		.file 8 "Middlewares/lvgl/src/extra/widgets/calendar/../../../core/../hal/../misc/lv_ll.h"
 520              		.file 9 "Middlewares/lvgl/src/extra/widgets/calendar/../../../core/lv_obj.h"
 521              		.file 10 "Middlewares/lvgl/src/extra/widgets/calendar/../../../core/lv_group.h"
 522              		.file 11 "Middlewares/lvgl/src/extra/widgets/calendar/../../../core/lv_obj_scroll.h"
 523              		.file 12 "Middlewares/lvgl/src/extra/widgets/calendar/../../../core/lv_obj_style.h"
 524              		.file 13 "Middlewares/lvgl/src/extra/widgets/calendar/../../../core/lv_obj_class.h"
 525              		.file 14 "Middlewares/lvgl/src/extra/widgets/calendar/../../../core/lv_event.h"
 526              		.file 15 "Middlewares/lvgl/src/extra/widgets/calendar/lv_calendar.h"
 527              		.file 16 "Middlewares/lvgl/src/extra/widgets/calendar/../../layouts/flex/lv_flex.h"
 528              		.file 17 "Middlewares/lvgl/src/extra/widgets/calendar/../../../widgets/lv_dropdown.h"
 529              		.file 18 "Middlewares/lvgl/src/extra/widgets/calendar/../../../core/lv_obj_pos.h"
ARM GAS  /tmp/cc2G6pGY.s 			page 17

