ARM GAS  /tmp/ccUpPomB.s 			page 1


   1              		.cpu cortex-m7
   2              		.arch armv7e-m
   3              		.fpu fpv5-d16
   4              		.eabi_attribute 28, 1
   5              		.eabi_attribute 20, 1
   6              		.eabi_attribute 21, 1
   7              		.eabi_attribute 23, 3
   8              		.eabi_attribute 24, 1
   9              		.eabi_attribute 25, 1
  10              		.eabi_attribute 26, 1
  11              		.eabi_attribute 30, 1
  12              		.eabi_attribute 34, 1
  13              		.eabi_attribute 18, 4
  14              		.file	"lv_draw_rect.c"
  15              		.text
  16              	.Ltext0:
  17              		.cfi_sections	.debug_frame
  18              		.section	.text.shadow_blur_corner,"ax",%progbits
  19              		.align	1
  20              		.syntax unified
  21              		.thumb
  22              		.thumb_func
  24              	shadow_blur_corner:
  25              	.LVL0:
  26              	.LFB155:
  27              		.file 1 "Middlewares/lvgl/src/draw/lv_draw_rect.c"
   1:Middlewares/lvgl/src/draw/lv_draw_rect.c **** /**
   2:Middlewares/lvgl/src/draw/lv_draw_rect.c ****  * @file lv_draw_rect.c
   3:Middlewares/lvgl/src/draw/lv_draw_rect.c ****  *
   4:Middlewares/lvgl/src/draw/lv_draw_rect.c ****  */
   5:Middlewares/lvgl/src/draw/lv_draw_rect.c **** 
   6:Middlewares/lvgl/src/draw/lv_draw_rect.c **** /*********************
   7:Middlewares/lvgl/src/draw/lv_draw_rect.c ****  *      INCLUDES
   8:Middlewares/lvgl/src/draw/lv_draw_rect.c ****  *********************/
   9:Middlewares/lvgl/src/draw/lv_draw_rect.c **** #include "lv_draw_rect.h"
  10:Middlewares/lvgl/src/draw/lv_draw_rect.c **** #include "lv_draw_blend.h"
  11:Middlewares/lvgl/src/draw/lv_draw_rect.c **** #include "lv_draw_mask.h"
  12:Middlewares/lvgl/src/draw/lv_draw_rect.c **** #include "../misc/lv_math.h"
  13:Middlewares/lvgl/src/draw/lv_draw_rect.c **** #include "../misc/lv_txt_ap.h"
  14:Middlewares/lvgl/src/draw/lv_draw_rect.c **** #include "../core/lv_refr.h"
  15:Middlewares/lvgl/src/draw/lv_draw_rect.c **** #include "../misc/lv_assert.h"
  16:Middlewares/lvgl/src/draw/lv_draw_rect.c **** 
  17:Middlewares/lvgl/src/draw/lv_draw_rect.c **** /*********************
  18:Middlewares/lvgl/src/draw/lv_draw_rect.c ****  *      DEFINES
  19:Middlewares/lvgl/src/draw/lv_draw_rect.c ****  *********************/
  20:Middlewares/lvgl/src/draw/lv_draw_rect.c **** #define SHADOW_UPSCALE_SHIFT   6
  21:Middlewares/lvgl/src/draw/lv_draw_rect.c **** #define SHADOW_ENHANCE          1
  22:Middlewares/lvgl/src/draw/lv_draw_rect.c **** #define SPLIT_LIMIT             50
  23:Middlewares/lvgl/src/draw/lv_draw_rect.c **** 
  24:Middlewares/lvgl/src/draw/lv_draw_rect.c **** /**********************
  25:Middlewares/lvgl/src/draw/lv_draw_rect.c ****  *      TYPEDEFS
  26:Middlewares/lvgl/src/draw/lv_draw_rect.c ****  **********************/
  27:Middlewares/lvgl/src/draw/lv_draw_rect.c **** 
  28:Middlewares/lvgl/src/draw/lv_draw_rect.c **** /**********************
  29:Middlewares/lvgl/src/draw/lv_draw_rect.c ****  *  STATIC PROTOTYPES
  30:Middlewares/lvgl/src/draw/lv_draw_rect.c ****  **********************/
  31:Middlewares/lvgl/src/draw/lv_draw_rect.c **** LV_ATTRIBUTE_FAST_MEM static void draw_bg(const lv_area_t * coords, const lv_area_t * clip,
ARM GAS  /tmp/ccUpPomB.s 			page 2


  32:Middlewares/lvgl/src/draw/lv_draw_rect.c ****                                           const lv_draw_rect_dsc_t * dsc);
  33:Middlewares/lvgl/src/draw/lv_draw_rect.c **** LV_ATTRIBUTE_FAST_MEM static void draw_bg_img(const lv_area_t * coords, const lv_area_t * clip,
  34:Middlewares/lvgl/src/draw/lv_draw_rect.c ****                                           const lv_draw_rect_dsc_t * dsc);
  35:Middlewares/lvgl/src/draw/lv_draw_rect.c **** LV_ATTRIBUTE_FAST_MEM static void draw_border(const lv_area_t * coords, const lv_area_t * clip,
  36:Middlewares/lvgl/src/draw/lv_draw_rect.c ****                                               const lv_draw_rect_dsc_t * dsc);
  37:Middlewares/lvgl/src/draw/lv_draw_rect.c **** 
  38:Middlewares/lvgl/src/draw/lv_draw_rect.c **** static void draw_outline(const lv_area_t * coords, const lv_area_t * clip, const lv_draw_rect_dsc_t
  39:Middlewares/lvgl/src/draw/lv_draw_rect.c **** 
  40:Middlewares/lvgl/src/draw/lv_draw_rect.c **** #if LV_DRAW_COMPLEX
  41:Middlewares/lvgl/src/draw/lv_draw_rect.c **** LV_ATTRIBUTE_FAST_MEM static void draw_shadow(const lv_area_t * coords, const lv_area_t * clip,
  42:Middlewares/lvgl/src/draw/lv_draw_rect.c ****                                               const lv_draw_rect_dsc_t * dsc);
  43:Middlewares/lvgl/src/draw/lv_draw_rect.c **** LV_ATTRIBUTE_FAST_MEM static void shadow_draw_corner_buf(const lv_area_t * coords,  uint16_t * sh_b
  44:Middlewares/lvgl/src/draw/lv_draw_rect.c ****                                                          lv_coord_t r);
  45:Middlewares/lvgl/src/draw/lv_draw_rect.c **** LV_ATTRIBUTE_FAST_MEM static void shadow_blur_corner(lv_coord_t size, lv_coord_t sw, uint16_t * sh_
  46:Middlewares/lvgl/src/draw/lv_draw_rect.c **** 
  47:Middlewares/lvgl/src/draw/lv_draw_rect.c **** static void draw_full_border(const lv_area_t * area_inner, const lv_area_t * area_outer, const lv_a
  48:Middlewares/lvgl/src/draw/lv_draw_rect.c ****                              lv_coord_t radius, bool radius_is_in, lv_color_t color, lv_opa_t opa, 
  49:Middlewares/lvgl/src/draw/lv_draw_rect.c **** #else
  50:Middlewares/lvgl/src/draw/lv_draw_rect.c **** static void draw_simple_border(const lv_area_t * clip, const lv_area_t * area_inner, const lv_area_
  51:Middlewares/lvgl/src/draw/lv_draw_rect.c ****         lv_color_t color, lv_opa_t opa, lv_border_side_t side);
  52:Middlewares/lvgl/src/draw/lv_draw_rect.c **** #endif
  53:Middlewares/lvgl/src/draw/lv_draw_rect.c **** 
  54:Middlewares/lvgl/src/draw/lv_draw_rect.c **** #if LV_DRAW_COMPLEX
  55:Middlewares/lvgl/src/draw/lv_draw_rect.c **** LV_ATTRIBUTE_FAST_MEM static inline lv_color_t grad_get(const lv_draw_rect_dsc_t * dsc, lv_coord_t 
  56:Middlewares/lvgl/src/draw/lv_draw_rect.c **** #endif
  57:Middlewares/lvgl/src/draw/lv_draw_rect.c **** 
  58:Middlewares/lvgl/src/draw/lv_draw_rect.c **** /**********************
  59:Middlewares/lvgl/src/draw/lv_draw_rect.c ****  *  STATIC VARIABLES
  60:Middlewares/lvgl/src/draw/lv_draw_rect.c ****  **********************/
  61:Middlewares/lvgl/src/draw/lv_draw_rect.c **** #if defined(LV_SHADOW_CACHE_SIZE) && LV_SHADOW_CACHE_SIZE > 0
  62:Middlewares/lvgl/src/draw/lv_draw_rect.c ****     static uint8_t sh_cache[LV_SHADOW_CACHE_SIZE * LV_SHADOW_CACHE_SIZE];
  63:Middlewares/lvgl/src/draw/lv_draw_rect.c ****     static int32_t sh_cache_size = -1;
  64:Middlewares/lvgl/src/draw/lv_draw_rect.c ****     static int32_t sh_cache_r = -1;
  65:Middlewares/lvgl/src/draw/lv_draw_rect.c **** #endif
  66:Middlewares/lvgl/src/draw/lv_draw_rect.c **** 
  67:Middlewares/lvgl/src/draw/lv_draw_rect.c **** /**********************
  68:Middlewares/lvgl/src/draw/lv_draw_rect.c ****  *      MACROS
  69:Middlewares/lvgl/src/draw/lv_draw_rect.c ****  **********************/
  70:Middlewares/lvgl/src/draw/lv_draw_rect.c **** 
  71:Middlewares/lvgl/src/draw/lv_draw_rect.c **** /**********************
  72:Middlewares/lvgl/src/draw/lv_draw_rect.c ****  *   GLOBAL FUNCTIONS
  73:Middlewares/lvgl/src/draw/lv_draw_rect.c ****  **********************/
  74:Middlewares/lvgl/src/draw/lv_draw_rect.c **** 
  75:Middlewares/lvgl/src/draw/lv_draw_rect.c **** LV_ATTRIBUTE_FAST_MEM void lv_draw_rect_dsc_init(lv_draw_rect_dsc_t * dsc)
  76:Middlewares/lvgl/src/draw/lv_draw_rect.c **** {
  77:Middlewares/lvgl/src/draw/lv_draw_rect.c ****     lv_memset_00(dsc, sizeof(lv_draw_rect_dsc_t));
  78:Middlewares/lvgl/src/draw/lv_draw_rect.c ****     dsc->bg_color = lv_color_white();
  79:Middlewares/lvgl/src/draw/lv_draw_rect.c ****     dsc->bg_grad_color = lv_color_black();
  80:Middlewares/lvgl/src/draw/lv_draw_rect.c ****     dsc->border_color = lv_color_black();
  81:Middlewares/lvgl/src/draw/lv_draw_rect.c ****     dsc->shadow_color = lv_color_black();
  82:Middlewares/lvgl/src/draw/lv_draw_rect.c ****     dsc->bg_grad_color_stop = 0xFF;
  83:Middlewares/lvgl/src/draw/lv_draw_rect.c ****     dsc->bg_img_symbol_font = LV_FONT_DEFAULT;
  84:Middlewares/lvgl/src/draw/lv_draw_rect.c ****     dsc->bg_opa = LV_OPA_COVER;
  85:Middlewares/lvgl/src/draw/lv_draw_rect.c ****     dsc->bg_img_opa = LV_OPA_COVER;
  86:Middlewares/lvgl/src/draw/lv_draw_rect.c ****     dsc->outline_opa = LV_OPA_COVER;
  87:Middlewares/lvgl/src/draw/lv_draw_rect.c ****     dsc->border_opa = LV_OPA_COVER;
  88:Middlewares/lvgl/src/draw/lv_draw_rect.c ****     dsc->shadow_opa = LV_OPA_COVER;
ARM GAS  /tmp/ccUpPomB.s 			page 3


  89:Middlewares/lvgl/src/draw/lv_draw_rect.c ****     dsc->border_side = LV_BORDER_SIDE_FULL;
  90:Middlewares/lvgl/src/draw/lv_draw_rect.c **** }
  91:Middlewares/lvgl/src/draw/lv_draw_rect.c **** 
  92:Middlewares/lvgl/src/draw/lv_draw_rect.c **** /**
  93:Middlewares/lvgl/src/draw/lv_draw_rect.c ****  * Draw a rectangle
  94:Middlewares/lvgl/src/draw/lv_draw_rect.c ****  * @param coords the coordinates of the rectangle
  95:Middlewares/lvgl/src/draw/lv_draw_rect.c ****  * @param mask the rectangle will be drawn only in this mask
  96:Middlewares/lvgl/src/draw/lv_draw_rect.c ****  * @param dsc pointer to an initialized `lv_draw_rect_dsc_t` variable
  97:Middlewares/lvgl/src/draw/lv_draw_rect.c ****  */
  98:Middlewares/lvgl/src/draw/lv_draw_rect.c **** void lv_draw_rect(const lv_area_t * coords, const lv_area_t * clip, const lv_draw_rect_dsc_t * dsc)
  99:Middlewares/lvgl/src/draw/lv_draw_rect.c **** {
 100:Middlewares/lvgl/src/draw/lv_draw_rect.c ****     if(lv_area_get_height(coords) < 1 || lv_area_get_width(coords) < 1) return;
 101:Middlewares/lvgl/src/draw/lv_draw_rect.c **** #if LV_DRAW_COMPLEX
 102:Middlewares/lvgl/src/draw/lv_draw_rect.c ****     draw_shadow(coords, clip, dsc);
 103:Middlewares/lvgl/src/draw/lv_draw_rect.c **** #endif
 104:Middlewares/lvgl/src/draw/lv_draw_rect.c **** 
 105:Middlewares/lvgl/src/draw/lv_draw_rect.c ****     draw_bg(coords, clip, dsc);
 106:Middlewares/lvgl/src/draw/lv_draw_rect.c ****     draw_bg_img(coords, clip, dsc);
 107:Middlewares/lvgl/src/draw/lv_draw_rect.c **** 
 108:Middlewares/lvgl/src/draw/lv_draw_rect.c ****     draw_border(coords, clip, dsc);
 109:Middlewares/lvgl/src/draw/lv_draw_rect.c **** 
 110:Middlewares/lvgl/src/draw/lv_draw_rect.c ****     draw_outline(coords, clip, dsc);
 111:Middlewares/lvgl/src/draw/lv_draw_rect.c **** 
 112:Middlewares/lvgl/src/draw/lv_draw_rect.c ****     LV_ASSERT_MEM_INTEGRITY();
 113:Middlewares/lvgl/src/draw/lv_draw_rect.c **** }
 114:Middlewares/lvgl/src/draw/lv_draw_rect.c **** 
 115:Middlewares/lvgl/src/draw/lv_draw_rect.c **** /**********************
 116:Middlewares/lvgl/src/draw/lv_draw_rect.c ****  *   STATIC FUNCTIONS
 117:Middlewares/lvgl/src/draw/lv_draw_rect.c ****  **********************/
 118:Middlewares/lvgl/src/draw/lv_draw_rect.c **** 
 119:Middlewares/lvgl/src/draw/lv_draw_rect.c **** LV_ATTRIBUTE_FAST_MEM static void draw_bg(const lv_area_t * coords, const lv_area_t * clip,
 120:Middlewares/lvgl/src/draw/lv_draw_rect.c ****                                           const lv_draw_rect_dsc_t * dsc)
 121:Middlewares/lvgl/src/draw/lv_draw_rect.c **** {
 122:Middlewares/lvgl/src/draw/lv_draw_rect.c ****     if(dsc->bg_opa <= LV_OPA_MIN) return;
 123:Middlewares/lvgl/src/draw/lv_draw_rect.c **** 
 124:Middlewares/lvgl/src/draw/lv_draw_rect.c ****     lv_area_t coords_bg;
 125:Middlewares/lvgl/src/draw/lv_draw_rect.c ****     lv_area_copy(&coords_bg, coords);
 126:Middlewares/lvgl/src/draw/lv_draw_rect.c **** 
 127:Middlewares/lvgl/src/draw/lv_draw_rect.c ****     /*If the border fully covers make the bg area 1px smaller to avoid artifacts on the corners*/
 128:Middlewares/lvgl/src/draw/lv_draw_rect.c ****     if(dsc->border_width > 1 && dsc->border_opa >= LV_OPA_MAX && dsc->radius != 0) {
 129:Middlewares/lvgl/src/draw/lv_draw_rect.c ****         coords_bg.x1 += (dsc->border_side & LV_BORDER_SIDE_LEFT) ? 1 : 0;
 130:Middlewares/lvgl/src/draw/lv_draw_rect.c ****         coords_bg.y1 += (dsc->border_side & LV_BORDER_SIDE_TOP) ? 1 : 0;
 131:Middlewares/lvgl/src/draw/lv_draw_rect.c ****         coords_bg.x2 -= (dsc->border_side & LV_BORDER_SIDE_RIGHT) ? 1 : 0;
 132:Middlewares/lvgl/src/draw/lv_draw_rect.c ****         coords_bg.y2 -= (dsc->border_side & LV_BORDER_SIDE_BOTTOM) ? 1 : 0;
 133:Middlewares/lvgl/src/draw/lv_draw_rect.c ****     }
 134:Middlewares/lvgl/src/draw/lv_draw_rect.c **** 
 135:Middlewares/lvgl/src/draw/lv_draw_rect.c ****     lv_opa_t opa = dsc->bg_opa;
 136:Middlewares/lvgl/src/draw/lv_draw_rect.c **** 
 137:Middlewares/lvgl/src/draw/lv_draw_rect.c ****     if(opa > LV_OPA_MAX) opa = LV_OPA_COVER;
 138:Middlewares/lvgl/src/draw/lv_draw_rect.c **** 
 139:Middlewares/lvgl/src/draw/lv_draw_rect.c ****     lv_disp_t * disp = _lv_refr_get_disp_refreshing();
 140:Middlewares/lvgl/src/draw/lv_draw_rect.c ****     lv_disp_draw_buf_t * draw_buf = lv_disp_get_draw_buf(disp);
 141:Middlewares/lvgl/src/draw/lv_draw_rect.c **** 
 142:Middlewares/lvgl/src/draw/lv_draw_rect.c ****     /*Get clipped fill area which is the real draw area.
 143:Middlewares/lvgl/src/draw/lv_draw_rect.c ****      *It is always the same or inside `fill_area`*/
 144:Middlewares/lvgl/src/draw/lv_draw_rect.c ****     lv_area_t draw_area;
 145:Middlewares/lvgl/src/draw/lv_draw_rect.c ****     bool is_common;
ARM GAS  /tmp/ccUpPomB.s 			page 4


 146:Middlewares/lvgl/src/draw/lv_draw_rect.c ****     is_common = _lv_area_intersect(&draw_area, &coords_bg, clip);
 147:Middlewares/lvgl/src/draw/lv_draw_rect.c ****     if(is_common == false) return;
 148:Middlewares/lvgl/src/draw/lv_draw_rect.c **** 
 149:Middlewares/lvgl/src/draw/lv_draw_rect.c ****     const lv_area_t * disp_area = &draw_buf->area;
 150:Middlewares/lvgl/src/draw/lv_draw_rect.c **** 
 151:Middlewares/lvgl/src/draw/lv_draw_rect.c ****     /*Now `draw_area` has absolute coordinates.
 152:Middlewares/lvgl/src/draw/lv_draw_rect.c ****      *Make it relative to `disp_area` to simplify draw to `disp_buf`*/
 153:Middlewares/lvgl/src/draw/lv_draw_rect.c ****     draw_area.x1 -= disp_area->x1;
 154:Middlewares/lvgl/src/draw/lv_draw_rect.c ****     draw_area.y1 -= disp_area->y1;
 155:Middlewares/lvgl/src/draw/lv_draw_rect.c ****     draw_area.x2 -= disp_area->x1;
 156:Middlewares/lvgl/src/draw/lv_draw_rect.c ****     draw_area.y2 -= disp_area->y1;
 157:Middlewares/lvgl/src/draw/lv_draw_rect.c **** 
 158:Middlewares/lvgl/src/draw/lv_draw_rect.c **** 
 159:Middlewares/lvgl/src/draw/lv_draw_rect.c ****     lv_grad_dir_t grad_dir = dsc->bg_grad_dir;
 160:Middlewares/lvgl/src/draw/lv_draw_rect.c ****     if(dsc->bg_color.full == dsc->bg_grad_color.full) grad_dir = LV_GRAD_DIR_NONE;
 161:Middlewares/lvgl/src/draw/lv_draw_rect.c **** 
 162:Middlewares/lvgl/src/draw/lv_draw_rect.c ****     uint16_t other_mask_cnt = lv_draw_mask_get_cnt();
 163:Middlewares/lvgl/src/draw/lv_draw_rect.c ****     bool simple_mode = true;
 164:Middlewares/lvgl/src/draw/lv_draw_rect.c ****     if(other_mask_cnt) simple_mode = false;
 165:Middlewares/lvgl/src/draw/lv_draw_rect.c ****     else if(grad_dir == LV_GRAD_DIR_HOR) simple_mode = false;
 166:Middlewares/lvgl/src/draw/lv_draw_rect.c **** 
 167:Middlewares/lvgl/src/draw/lv_draw_rect.c **** 
 168:Middlewares/lvgl/src/draw/lv_draw_rect.c ****     int32_t coords_w = lv_area_get_width(&coords_bg);
 169:Middlewares/lvgl/src/draw/lv_draw_rect.c ****     int32_t coords_h = lv_area_get_height(&coords_bg);
 170:Middlewares/lvgl/src/draw/lv_draw_rect.c **** 
 171:Middlewares/lvgl/src/draw/lv_draw_rect.c ****     /*Get the real radius*/
 172:Middlewares/lvgl/src/draw/lv_draw_rect.c ****     int32_t rout = dsc->radius;
 173:Middlewares/lvgl/src/draw/lv_draw_rect.c ****     int32_t short_side = LV_MIN(coords_w, coords_h);
 174:Middlewares/lvgl/src/draw/lv_draw_rect.c ****     if(rout > short_side >> 1) rout = short_side >> 1;
 175:Middlewares/lvgl/src/draw/lv_draw_rect.c **** 
 176:Middlewares/lvgl/src/draw/lv_draw_rect.c ****     /*Most simple case: just a plain rectangle*/
 177:Middlewares/lvgl/src/draw/lv_draw_rect.c ****     if(simple_mode && rout == 0 && (grad_dir == LV_GRAD_DIR_NONE)) {
 178:Middlewares/lvgl/src/draw/lv_draw_rect.c ****         _lv_blend_fill(clip, &coords_bg,
 179:Middlewares/lvgl/src/draw/lv_draw_rect.c ****                        dsc->bg_color, NULL, LV_DRAW_MASK_RES_FULL_COVER, opa,
 180:Middlewares/lvgl/src/draw/lv_draw_rect.c ****                        dsc->blend_mode);
 181:Middlewares/lvgl/src/draw/lv_draw_rect.c ****     }
 182:Middlewares/lvgl/src/draw/lv_draw_rect.c **** 
 183:Middlewares/lvgl/src/draw/lv_draw_rect.c **** #if LV_DRAW_COMPLEX
 184:Middlewares/lvgl/src/draw/lv_draw_rect.c ****     /*More complex case: there is a radius, gradient or other mask.*/
 185:Middlewares/lvgl/src/draw/lv_draw_rect.c ****     else {
 186:Middlewares/lvgl/src/draw/lv_draw_rect.c ****         int32_t draw_area_w = lv_area_get_width(&draw_area);
 187:Middlewares/lvgl/src/draw/lv_draw_rect.c ****         int16_t mask_rout_id = LV_MASK_ID_INV;
 188:Middlewares/lvgl/src/draw/lv_draw_rect.c ****         lv_opa_t * mask_buf = lv_mem_buf_get(draw_area_w);
 189:Middlewares/lvgl/src/draw/lv_draw_rect.c ****         lv_draw_mask_radius_param_t mask_rout_param;
 190:Middlewares/lvgl/src/draw/lv_draw_rect.c ****         if(rout > 0) {
 191:Middlewares/lvgl/src/draw/lv_draw_rect.c ****             lv_draw_mask_radius_init(&mask_rout_param, &coords_bg, rout, false);
 192:Middlewares/lvgl/src/draw/lv_draw_rect.c ****             mask_rout_id = lv_draw_mask_add(&mask_rout_param, NULL);
 193:Middlewares/lvgl/src/draw/lv_draw_rect.c ****         }
 194:Middlewares/lvgl/src/draw/lv_draw_rect.c **** 
 195:Middlewares/lvgl/src/draw/lv_draw_rect.c ****         /*Draw the background line by line*/
 196:Middlewares/lvgl/src/draw/lv_draw_rect.c ****         int32_t h;
 197:Middlewares/lvgl/src/draw/lv_draw_rect.c ****         lv_draw_mask_res_t mask_res = LV_DRAW_MASK_RES_FULL_COVER;
 198:Middlewares/lvgl/src/draw/lv_draw_rect.c ****         lv_color_t grad_color = dsc->bg_color;
 199:Middlewares/lvgl/src/draw/lv_draw_rect.c **** 
 200:Middlewares/lvgl/src/draw/lv_draw_rect.c ****         /*In case of horizontal gradient pre-compute a line with a gradient*/
 201:Middlewares/lvgl/src/draw/lv_draw_rect.c ****         lv_color_t * grad_map = NULL;
 202:Middlewares/lvgl/src/draw/lv_draw_rect.c ****         if(grad_dir == LV_GRAD_DIR_HOR) {
ARM GAS  /tmp/ccUpPomB.s 			page 5


 203:Middlewares/lvgl/src/draw/lv_draw_rect.c ****             grad_map = lv_mem_buf_get(coords_w * sizeof(lv_color_t));
 204:Middlewares/lvgl/src/draw/lv_draw_rect.c **** 
 205:Middlewares/lvgl/src/draw/lv_draw_rect.c ****             int32_t i;
 206:Middlewares/lvgl/src/draw/lv_draw_rect.c ****             for(i = 0; i < coords_w; i++) {
 207:Middlewares/lvgl/src/draw/lv_draw_rect.c ****                 grad_map[i] = grad_get(dsc, coords_w, i);
 208:Middlewares/lvgl/src/draw/lv_draw_rect.c ****             }
 209:Middlewares/lvgl/src/draw/lv_draw_rect.c ****         }
 210:Middlewares/lvgl/src/draw/lv_draw_rect.c **** 
 211:Middlewares/lvgl/src/draw/lv_draw_rect.c ****         bool split = false;
 212:Middlewares/lvgl/src/draw/lv_draw_rect.c ****         if(lv_area_get_width(&coords_bg) - 2 * rout > SPLIT_LIMIT) split = true;
 213:Middlewares/lvgl/src/draw/lv_draw_rect.c **** 
 214:Middlewares/lvgl/src/draw/lv_draw_rect.c ****         lv_opa_t opa2;
 215:Middlewares/lvgl/src/draw/lv_draw_rect.c **** 
 216:Middlewares/lvgl/src/draw/lv_draw_rect.c ****         lv_area_t fill_area;
 217:Middlewares/lvgl/src/draw/lv_draw_rect.c ****         fill_area.x1 = coords_bg.x1;
 218:Middlewares/lvgl/src/draw/lv_draw_rect.c ****         fill_area.x2 = coords_bg.x2;
 219:Middlewares/lvgl/src/draw/lv_draw_rect.c ****         fill_area.y1 = disp_area->y1 + draw_area.y1;
 220:Middlewares/lvgl/src/draw/lv_draw_rect.c ****         fill_area.y2 = fill_area.y1;
 221:Middlewares/lvgl/src/draw/lv_draw_rect.c ****         for(h = draw_area.y1; h <= draw_area.y2; h++) {
 222:Middlewares/lvgl/src/draw/lv_draw_rect.c ****             int32_t y = h + draw_buf->area.y1;
 223:Middlewares/lvgl/src/draw/lv_draw_rect.c **** 
 224:Middlewares/lvgl/src/draw/lv_draw_rect.c ****             opa2 = opa;
 225:Middlewares/lvgl/src/draw/lv_draw_rect.c **** 
 226:Middlewares/lvgl/src/draw/lv_draw_rect.c ****             /*In not corner areas apply the mask only if required*/
 227:Middlewares/lvgl/src/draw/lv_draw_rect.c ****             if(y > coords_bg.y1 + rout + 1 &&
 228:Middlewares/lvgl/src/draw/lv_draw_rect.c ****                y < coords_bg.y2 - rout - 1) {
 229:Middlewares/lvgl/src/draw/lv_draw_rect.c ****                 mask_res = LV_DRAW_MASK_RES_FULL_COVER;
 230:Middlewares/lvgl/src/draw/lv_draw_rect.c ****                 if(simple_mode == false) {
 231:Middlewares/lvgl/src/draw/lv_draw_rect.c ****                     lv_memset(mask_buf, opa, draw_area_w);
 232:Middlewares/lvgl/src/draw/lv_draw_rect.c ****                     mask_res = lv_draw_mask_apply(mask_buf, draw_buf->area.x1 + draw_area.x1, draw_
 233:Middlewares/lvgl/src/draw/lv_draw_rect.c ****                 }
 234:Middlewares/lvgl/src/draw/lv_draw_rect.c ****             }
 235:Middlewares/lvgl/src/draw/lv_draw_rect.c ****             /*In corner areas apply the mask anyway*/
 236:Middlewares/lvgl/src/draw/lv_draw_rect.c ****             else {
 237:Middlewares/lvgl/src/draw/lv_draw_rect.c ****                 lv_memset(mask_buf, opa, draw_area_w);
 238:Middlewares/lvgl/src/draw/lv_draw_rect.c ****                 mask_res = lv_draw_mask_apply(mask_buf, draw_buf->area.x1 + draw_area.x1, draw_buf-
 239:Middlewares/lvgl/src/draw/lv_draw_rect.c ****             }
 240:Middlewares/lvgl/src/draw/lv_draw_rect.c **** 
 241:Middlewares/lvgl/src/draw/lv_draw_rect.c ****             /*If mask will taken into account its base opacity was already set by memset above*/
 242:Middlewares/lvgl/src/draw/lv_draw_rect.c ****             if(mask_res == LV_DRAW_MASK_RES_CHANGED) {
 243:Middlewares/lvgl/src/draw/lv_draw_rect.c ****                 opa2 = LV_OPA_COVER;
 244:Middlewares/lvgl/src/draw/lv_draw_rect.c ****             }
 245:Middlewares/lvgl/src/draw/lv_draw_rect.c **** 
 246:Middlewares/lvgl/src/draw/lv_draw_rect.c ****             /*Get the current line color*/
 247:Middlewares/lvgl/src/draw/lv_draw_rect.c ****             if(grad_dir == LV_GRAD_DIR_VER) {
 248:Middlewares/lvgl/src/draw/lv_draw_rect.c ****                 grad_color = grad_get(dsc, lv_area_get_height(&coords_bg), y - coords_bg.y1);
 249:Middlewares/lvgl/src/draw/lv_draw_rect.c ****             }
 250:Middlewares/lvgl/src/draw/lv_draw_rect.c **** 
 251:Middlewares/lvgl/src/draw/lv_draw_rect.c ****             /*If there is not other mask and drawing the corner area split the drawing to corner an
 252:Middlewares/lvgl/src/draw/lv_draw_rect.c ****              *because it the middle mask shouldn't be taken into account (therefore its faster)*/
 253:Middlewares/lvgl/src/draw/lv_draw_rect.c ****             if(simple_mode && split &&
 254:Middlewares/lvgl/src/draw/lv_draw_rect.c ****                (y < coords_bg.y1 + rout + 1 ||
 255:Middlewares/lvgl/src/draw/lv_draw_rect.c ****                 y > coords_bg.y2 - rout - 1)) {
 256:Middlewares/lvgl/src/draw/lv_draw_rect.c **** 
 257:Middlewares/lvgl/src/draw/lv_draw_rect.c ****                 /*Left part*/
 258:Middlewares/lvgl/src/draw/lv_draw_rect.c ****                 lv_area_t fill_area2;
 259:Middlewares/lvgl/src/draw/lv_draw_rect.c ****                 fill_area2.x1 = coords_bg.x1;
ARM GAS  /tmp/ccUpPomB.s 			page 6


 260:Middlewares/lvgl/src/draw/lv_draw_rect.c ****                 fill_area2.x2 = coords_bg.x1 + rout - 1;
 261:Middlewares/lvgl/src/draw/lv_draw_rect.c ****                 fill_area2.y1 = fill_area.y1;
 262:Middlewares/lvgl/src/draw/lv_draw_rect.c ****                 fill_area2.y2 = fill_area.y2;
 263:Middlewares/lvgl/src/draw/lv_draw_rect.c **** 
 264:Middlewares/lvgl/src/draw/lv_draw_rect.c ****                 _lv_blend_fill(clip, &fill_area2,
 265:Middlewares/lvgl/src/draw/lv_draw_rect.c ****                                grad_color, mask_buf, mask_res, opa2, dsc->blend_mode);
 266:Middlewares/lvgl/src/draw/lv_draw_rect.c **** 
 267:Middlewares/lvgl/src/draw/lv_draw_rect.c ****                 /*Center part*/
 268:Middlewares/lvgl/src/draw/lv_draw_rect.c ****                 if(grad_dir == LV_GRAD_DIR_VER) {
 269:Middlewares/lvgl/src/draw/lv_draw_rect.c ****                     fill_area2.x1 = coords_bg.x1 + rout;
 270:Middlewares/lvgl/src/draw/lv_draw_rect.c ****                     fill_area2.x2 = coords_bg.x2 - rout;
 271:Middlewares/lvgl/src/draw/lv_draw_rect.c ****                     _lv_blend_fill(clip, &fill_area2,
 272:Middlewares/lvgl/src/draw/lv_draw_rect.c ****                                    grad_color, NULL, LV_DRAW_MASK_RES_FULL_COVER, opa, dsc->blend_m
 273:Middlewares/lvgl/src/draw/lv_draw_rect.c ****                 }
 274:Middlewares/lvgl/src/draw/lv_draw_rect.c **** 
 275:Middlewares/lvgl/src/draw/lv_draw_rect.c ****                 /*Right part*/
 276:Middlewares/lvgl/src/draw/lv_draw_rect.c ****                 fill_area2.x1 = coords_bg.x2 - rout + 1;
 277:Middlewares/lvgl/src/draw/lv_draw_rect.c ****                 fill_area2.x2 = coords_bg.x2;
 278:Middlewares/lvgl/src/draw/lv_draw_rect.c **** 
 279:Middlewares/lvgl/src/draw/lv_draw_rect.c ****                 int32_t mask_ofs = (coords_bg.x2 - rout + 1) - (draw_buf->area.x1 + draw_area.x1);
 280:Middlewares/lvgl/src/draw/lv_draw_rect.c ****                 if(mask_ofs < 0) mask_ofs = 0;
 281:Middlewares/lvgl/src/draw/lv_draw_rect.c ****                 _lv_blend_fill(clip, &fill_area2,
 282:Middlewares/lvgl/src/draw/lv_draw_rect.c ****                                grad_color, mask_buf + mask_ofs, mask_res, opa2, dsc->blend_mode);
 283:Middlewares/lvgl/src/draw/lv_draw_rect.c **** 
 284:Middlewares/lvgl/src/draw/lv_draw_rect.c ****             }
 285:Middlewares/lvgl/src/draw/lv_draw_rect.c ****             else {
 286:Middlewares/lvgl/src/draw/lv_draw_rect.c ****                 if(grad_dir == LV_GRAD_DIR_HOR) {
 287:Middlewares/lvgl/src/draw/lv_draw_rect.c ****                     _lv_blend_map(clip, &fill_area, grad_map, mask_buf, mask_res, opa2, dsc->blend_
 288:Middlewares/lvgl/src/draw/lv_draw_rect.c ****                 }
 289:Middlewares/lvgl/src/draw/lv_draw_rect.c ****                 else if(grad_dir == LV_GRAD_DIR_VER) {
 290:Middlewares/lvgl/src/draw/lv_draw_rect.c ****                     _lv_blend_fill(clip, &fill_area,
 291:Middlewares/lvgl/src/draw/lv_draw_rect.c ****                                    grad_color, mask_buf, mask_res, opa2, dsc->blend_mode);
 292:Middlewares/lvgl/src/draw/lv_draw_rect.c ****                 }
 293:Middlewares/lvgl/src/draw/lv_draw_rect.c ****                 else if(other_mask_cnt != 0 || !split) {
 294:Middlewares/lvgl/src/draw/lv_draw_rect.c ****                     _lv_blend_fill(clip, &fill_area,
 295:Middlewares/lvgl/src/draw/lv_draw_rect.c ****                                    grad_color, mask_buf, mask_res, opa2, dsc->blend_mode);
 296:Middlewares/lvgl/src/draw/lv_draw_rect.c ****                 }
 297:Middlewares/lvgl/src/draw/lv_draw_rect.c ****             }
 298:Middlewares/lvgl/src/draw/lv_draw_rect.c ****             fill_area.y1++;
 299:Middlewares/lvgl/src/draw/lv_draw_rect.c ****             fill_area.y2++;
 300:Middlewares/lvgl/src/draw/lv_draw_rect.c ****         }
 301:Middlewares/lvgl/src/draw/lv_draw_rect.c **** 
 302:Middlewares/lvgl/src/draw/lv_draw_rect.c ****         if(grad_dir == LV_GRAD_DIR_NONE && other_mask_cnt == 0 && split) {
 303:Middlewares/lvgl/src/draw/lv_draw_rect.c ****             /*Central part*/
 304:Middlewares/lvgl/src/draw/lv_draw_rect.c ****             fill_area.x1 = coords_bg.x1 + rout;
 305:Middlewares/lvgl/src/draw/lv_draw_rect.c ****             fill_area.x2 = coords_bg.x2 - rout;
 306:Middlewares/lvgl/src/draw/lv_draw_rect.c ****             fill_area.y1 = coords_bg.y1;
 307:Middlewares/lvgl/src/draw/lv_draw_rect.c ****             fill_area.y2 = coords_bg.y1 + rout;
 308:Middlewares/lvgl/src/draw/lv_draw_rect.c **** 
 309:Middlewares/lvgl/src/draw/lv_draw_rect.c ****             _lv_blend_fill(clip, &fill_area,
 310:Middlewares/lvgl/src/draw/lv_draw_rect.c ****                            dsc->bg_color, NULL, LV_DRAW_MASK_RES_FULL_COVER, opa, dsc->blend_mode);
 311:Middlewares/lvgl/src/draw/lv_draw_rect.c **** 
 312:Middlewares/lvgl/src/draw/lv_draw_rect.c ****             fill_area.y1 = coords_bg.y2 - rout;
 313:Middlewares/lvgl/src/draw/lv_draw_rect.c ****             if(fill_area.y1 <= fill_area.y2) fill_area.y1 = fill_area.y2 + 1;    /*Avoid overdrawin
 314:Middlewares/lvgl/src/draw/lv_draw_rect.c ****             fill_area.y2 = coords_bg.y2;
 315:Middlewares/lvgl/src/draw/lv_draw_rect.c **** 
 316:Middlewares/lvgl/src/draw/lv_draw_rect.c ****             _lv_blend_fill(clip, &fill_area,
ARM GAS  /tmp/ccUpPomB.s 			page 7


 317:Middlewares/lvgl/src/draw/lv_draw_rect.c ****                            dsc->bg_color, NULL, LV_DRAW_MASK_RES_FULL_COVER, opa, dsc->blend_mode);
 318:Middlewares/lvgl/src/draw/lv_draw_rect.c **** 
 319:Middlewares/lvgl/src/draw/lv_draw_rect.c ****             fill_area.x1 = coords_bg.x1;
 320:Middlewares/lvgl/src/draw/lv_draw_rect.c ****             fill_area.x2 = coords_bg.x2;
 321:Middlewares/lvgl/src/draw/lv_draw_rect.c ****             fill_area.y1 = coords_bg.y1 + rout + 1;
 322:Middlewares/lvgl/src/draw/lv_draw_rect.c ****             fill_area.y2 = coords_bg.y2 - rout - 1;
 323:Middlewares/lvgl/src/draw/lv_draw_rect.c **** 
 324:Middlewares/lvgl/src/draw/lv_draw_rect.c ****             _lv_blend_fill(clip, &fill_area,
 325:Middlewares/lvgl/src/draw/lv_draw_rect.c ****                            dsc->bg_color, NULL, LV_DRAW_MASK_RES_FULL_COVER, opa, dsc->blend_mode);
 326:Middlewares/lvgl/src/draw/lv_draw_rect.c **** 
 327:Middlewares/lvgl/src/draw/lv_draw_rect.c ****         }
 328:Middlewares/lvgl/src/draw/lv_draw_rect.c **** 
 329:Middlewares/lvgl/src/draw/lv_draw_rect.c ****         if(grad_map) lv_mem_buf_release(grad_map);
 330:Middlewares/lvgl/src/draw/lv_draw_rect.c ****         if(mask_buf) lv_mem_buf_release(mask_buf);
 331:Middlewares/lvgl/src/draw/lv_draw_rect.c ****         lv_draw_mask_remove_id(mask_rout_id);
 332:Middlewares/lvgl/src/draw/lv_draw_rect.c ****     }
 333:Middlewares/lvgl/src/draw/lv_draw_rect.c **** 
 334:Middlewares/lvgl/src/draw/lv_draw_rect.c **** #endif
 335:Middlewares/lvgl/src/draw/lv_draw_rect.c **** }
 336:Middlewares/lvgl/src/draw/lv_draw_rect.c **** 
 337:Middlewares/lvgl/src/draw/lv_draw_rect.c **** LV_ATTRIBUTE_FAST_MEM static void draw_bg_img(const lv_area_t * coords, const lv_area_t * clip,
 338:Middlewares/lvgl/src/draw/lv_draw_rect.c ****                                           const lv_draw_rect_dsc_t * dsc)
 339:Middlewares/lvgl/src/draw/lv_draw_rect.c **** {
 340:Middlewares/lvgl/src/draw/lv_draw_rect.c ****     if(dsc->bg_img_src == NULL) return;
 341:Middlewares/lvgl/src/draw/lv_draw_rect.c ****     if(dsc->bg_img_opa <= LV_OPA_MIN) return;
 342:Middlewares/lvgl/src/draw/lv_draw_rect.c **** 
 343:Middlewares/lvgl/src/draw/lv_draw_rect.c ****     lv_img_src_t src_type = lv_img_src_get_type(dsc->bg_img_src);
 344:Middlewares/lvgl/src/draw/lv_draw_rect.c ****     if(src_type == LV_IMG_SRC_SYMBOL) {
 345:Middlewares/lvgl/src/draw/lv_draw_rect.c ****         lv_point_t size;
 346:Middlewares/lvgl/src/draw/lv_draw_rect.c ****         lv_txt_get_size(&size, dsc->bg_img_src, dsc->bg_img_symbol_font, 0, 0, LV_COORD_MAX, LV_TEX
 347:Middlewares/lvgl/src/draw/lv_draw_rect.c ****         lv_area_t a;
 348:Middlewares/lvgl/src/draw/lv_draw_rect.c ****         a.x1 = coords->x1 + lv_area_get_width(coords) / 2 - size.x / 2;
 349:Middlewares/lvgl/src/draw/lv_draw_rect.c ****         a.x2 = a.x1 + size.x - 1;
 350:Middlewares/lvgl/src/draw/lv_draw_rect.c ****         a.y1 = coords->y1 + lv_area_get_height(coords) / 2 - size.y / 2;
 351:Middlewares/lvgl/src/draw/lv_draw_rect.c ****         a.y2 = a.y1 + size.y - 1;
 352:Middlewares/lvgl/src/draw/lv_draw_rect.c **** 
 353:Middlewares/lvgl/src/draw/lv_draw_rect.c ****         lv_draw_label_dsc_t label_draw_dsc;
 354:Middlewares/lvgl/src/draw/lv_draw_rect.c ****         lv_draw_label_dsc_init(&label_draw_dsc);
 355:Middlewares/lvgl/src/draw/lv_draw_rect.c ****         label_draw_dsc.font = dsc->bg_img_symbol_font;
 356:Middlewares/lvgl/src/draw/lv_draw_rect.c ****         label_draw_dsc.color = dsc->bg_img_recolor;
 357:Middlewares/lvgl/src/draw/lv_draw_rect.c ****         label_draw_dsc.opa = dsc->bg_img_opa;
 358:Middlewares/lvgl/src/draw/lv_draw_rect.c ****         lv_draw_label(&a, clip, &label_draw_dsc, dsc->bg_img_src, NULL);
 359:Middlewares/lvgl/src/draw/lv_draw_rect.c ****     }
 360:Middlewares/lvgl/src/draw/lv_draw_rect.c ****     else {
 361:Middlewares/lvgl/src/draw/lv_draw_rect.c ****         lv_img_header_t header;
 362:Middlewares/lvgl/src/draw/lv_draw_rect.c ****         lv_res_t res = lv_img_decoder_get_info(dsc->bg_img_src, &header);
 363:Middlewares/lvgl/src/draw/lv_draw_rect.c ****         if(res != LV_RES_OK) {
 364:Middlewares/lvgl/src/draw/lv_draw_rect.c ****             LV_LOG_WARN("Coudn't read the background image");
 365:Middlewares/lvgl/src/draw/lv_draw_rect.c ****             return;
 366:Middlewares/lvgl/src/draw/lv_draw_rect.c ****         }
 367:Middlewares/lvgl/src/draw/lv_draw_rect.c **** 
 368:Middlewares/lvgl/src/draw/lv_draw_rect.c ****         lv_draw_img_dsc_t img_dsc;
 369:Middlewares/lvgl/src/draw/lv_draw_rect.c ****         lv_draw_img_dsc_init(&img_dsc);
 370:Middlewares/lvgl/src/draw/lv_draw_rect.c ****         img_dsc.blend_mode = dsc->blend_mode;
 371:Middlewares/lvgl/src/draw/lv_draw_rect.c ****         img_dsc.recolor = dsc->bg_img_recolor;
 372:Middlewares/lvgl/src/draw/lv_draw_rect.c ****         img_dsc.recolor_opa = dsc->bg_img_recolor_opa;
 373:Middlewares/lvgl/src/draw/lv_draw_rect.c ****         img_dsc.opa = dsc->bg_img_opa;
ARM GAS  /tmp/ccUpPomB.s 			page 8


 374:Middlewares/lvgl/src/draw/lv_draw_rect.c **** 
 375:Middlewares/lvgl/src/draw/lv_draw_rect.c ****         /*Center align*/
 376:Middlewares/lvgl/src/draw/lv_draw_rect.c ****         if(dsc->bg_img_tiled == false) {
 377:Middlewares/lvgl/src/draw/lv_draw_rect.c ****             lv_area_t area;
 378:Middlewares/lvgl/src/draw/lv_draw_rect.c ****             area.x1 = coords->x1 + lv_area_get_width(coords) / 2 - header.w / 2;
 379:Middlewares/lvgl/src/draw/lv_draw_rect.c ****             area.y1 = coords->y1 + lv_area_get_height(coords) / 2 - header.h / 2;
 380:Middlewares/lvgl/src/draw/lv_draw_rect.c ****             area.x2 = area.x1 + header.w - 1;
 381:Middlewares/lvgl/src/draw/lv_draw_rect.c ****             area.y2 = area.y1 + header.h - 1;
 382:Middlewares/lvgl/src/draw/lv_draw_rect.c **** 
 383:Middlewares/lvgl/src/draw/lv_draw_rect.c ****             lv_draw_img(&area, clip, dsc->bg_img_src, &img_dsc);
 384:Middlewares/lvgl/src/draw/lv_draw_rect.c ****         } else {
 385:Middlewares/lvgl/src/draw/lv_draw_rect.c ****             lv_area_t area;
 386:Middlewares/lvgl/src/draw/lv_draw_rect.c ****             area.y1 = coords->y1;
 387:Middlewares/lvgl/src/draw/lv_draw_rect.c ****             area.y2 = area.y1 + header.h - 1;
 388:Middlewares/lvgl/src/draw/lv_draw_rect.c **** 
 389:Middlewares/lvgl/src/draw/lv_draw_rect.c ****             for(; area.y1 <= coords->y2; area.y1 += header.h, area.y2 += header.h) {
 390:Middlewares/lvgl/src/draw/lv_draw_rect.c **** 
 391:Middlewares/lvgl/src/draw/lv_draw_rect.c ****                 area.x1 = coords->x1;
 392:Middlewares/lvgl/src/draw/lv_draw_rect.c ****                 area.x2 = area.x1 + header.w - 1;
 393:Middlewares/lvgl/src/draw/lv_draw_rect.c ****                 for(; area.x1 <= coords->x2; area.x1 += header.w, area.x2 += header.w) {
 394:Middlewares/lvgl/src/draw/lv_draw_rect.c ****                     lv_draw_img(&area, clip, dsc->bg_img_src, &img_dsc);
 395:Middlewares/lvgl/src/draw/lv_draw_rect.c ****                 }
 396:Middlewares/lvgl/src/draw/lv_draw_rect.c ****             }
 397:Middlewares/lvgl/src/draw/lv_draw_rect.c ****         }
 398:Middlewares/lvgl/src/draw/lv_draw_rect.c ****     }
 399:Middlewares/lvgl/src/draw/lv_draw_rect.c **** }
 400:Middlewares/lvgl/src/draw/lv_draw_rect.c **** 
 401:Middlewares/lvgl/src/draw/lv_draw_rect.c **** LV_ATTRIBUTE_FAST_MEM static void draw_border(const lv_area_t * coords, const lv_area_t * clip,
 402:Middlewares/lvgl/src/draw/lv_draw_rect.c ****                                               const lv_draw_rect_dsc_t * dsc)
 403:Middlewares/lvgl/src/draw/lv_draw_rect.c **** {
 404:Middlewares/lvgl/src/draw/lv_draw_rect.c ****     if(dsc->border_opa <= LV_OPA_MIN) return;
 405:Middlewares/lvgl/src/draw/lv_draw_rect.c ****     if(dsc->border_width == 0) return;
 406:Middlewares/lvgl/src/draw/lv_draw_rect.c ****     if(dsc->border_side == LV_BORDER_SIDE_NONE) return;
 407:Middlewares/lvgl/src/draw/lv_draw_rect.c ****     if(dsc->border_post) return;
 408:Middlewares/lvgl/src/draw/lv_draw_rect.c **** 
 409:Middlewares/lvgl/src/draw/lv_draw_rect.c ****     int32_t coords_w = lv_area_get_width(coords);
 410:Middlewares/lvgl/src/draw/lv_draw_rect.c ****     int32_t coords_h = lv_area_get_height(coords);
 411:Middlewares/lvgl/src/draw/lv_draw_rect.c **** 
 412:Middlewares/lvgl/src/draw/lv_draw_rect.c ****     /*Get the real radius*/
 413:Middlewares/lvgl/src/draw/lv_draw_rect.c ****     int32_t rout = dsc->radius;
 414:Middlewares/lvgl/src/draw/lv_draw_rect.c ****     int32_t short_side = LV_MIN(coords_w, coords_h);
 415:Middlewares/lvgl/src/draw/lv_draw_rect.c ****     if(rout > short_side >> 1) rout = short_side >> 1;
 416:Middlewares/lvgl/src/draw/lv_draw_rect.c **** 
 417:Middlewares/lvgl/src/draw/lv_draw_rect.c ****     /*Get the inner area*/
 418:Middlewares/lvgl/src/draw/lv_draw_rect.c ****     lv_area_t area_inner;
 419:Middlewares/lvgl/src/draw/lv_draw_rect.c ****     lv_area_copy(&area_inner, coords);
 420:Middlewares/lvgl/src/draw/lv_draw_rect.c ****     area_inner.x1 += ((dsc->border_side & LV_BORDER_SIDE_LEFT) ? dsc->border_width : - (dsc->border
 421:Middlewares/lvgl/src/draw/lv_draw_rect.c ****     area_inner.x2 -= ((dsc->border_side & LV_BORDER_SIDE_RIGHT) ? dsc->border_width : - (dsc->borde
 422:Middlewares/lvgl/src/draw/lv_draw_rect.c ****     area_inner.y1 += ((dsc->border_side & LV_BORDER_SIDE_TOP) ? dsc->border_width : - (dsc->border_
 423:Middlewares/lvgl/src/draw/lv_draw_rect.c ****     area_inner.y2 -= ((dsc->border_side & LV_BORDER_SIDE_BOTTOM) ? dsc->border_width : - (dsc->bord
 424:Middlewares/lvgl/src/draw/lv_draw_rect.c **** 
 425:Middlewares/lvgl/src/draw/lv_draw_rect.c **** #if LV_DRAW_COMPLEX
 426:Middlewares/lvgl/src/draw/lv_draw_rect.c ****     if(dsc->border_side == LV_BORDER_SIDE_FULL) {
 427:Middlewares/lvgl/src/draw/lv_draw_rect.c ****         draw_full_border(&area_inner, coords, clip, dsc->radius, false, dsc->border_color, dsc->bor
 428:Middlewares/lvgl/src/draw/lv_draw_rect.c ****                          dsc->blend_mode);
 429:Middlewares/lvgl/src/draw/lv_draw_rect.c ****     }
 430:Middlewares/lvgl/src/draw/lv_draw_rect.c ****     else {
ARM GAS  /tmp/ccUpPomB.s 			page 9


 431:Middlewares/lvgl/src/draw/lv_draw_rect.c ****         lv_opa_t opa = dsc->border_opa;
 432:Middlewares/lvgl/src/draw/lv_draw_rect.c ****         if(opa > LV_OPA_MAX) opa = LV_OPA_COVER;
 433:Middlewares/lvgl/src/draw/lv_draw_rect.c **** 
 434:Middlewares/lvgl/src/draw/lv_draw_rect.c ****         lv_disp_t * disp = _lv_refr_get_disp_refreshing();
 435:Middlewares/lvgl/src/draw/lv_draw_rect.c ****         lv_disp_draw_buf_t * draw_buf = lv_disp_get_draw_buf(disp);
 436:Middlewares/lvgl/src/draw/lv_draw_rect.c **** 
 437:Middlewares/lvgl/src/draw/lv_draw_rect.c ****         /*Get clipped fill area which is the real draw area.
 438:Middlewares/lvgl/src/draw/lv_draw_rect.c ****          *It is always the same or inside `fill_area`*/
 439:Middlewares/lvgl/src/draw/lv_draw_rect.c ****         lv_area_t draw_area;
 440:Middlewares/lvgl/src/draw/lv_draw_rect.c ****         bool is_common;
 441:Middlewares/lvgl/src/draw/lv_draw_rect.c ****         is_common = _lv_area_intersect(&draw_area, coords, clip);
 442:Middlewares/lvgl/src/draw/lv_draw_rect.c ****         if(is_common == false) return;
 443:Middlewares/lvgl/src/draw/lv_draw_rect.c **** 
 444:Middlewares/lvgl/src/draw/lv_draw_rect.c ****         const lv_area_t * disp_area = &draw_buf->area;
 445:Middlewares/lvgl/src/draw/lv_draw_rect.c **** 
 446:Middlewares/lvgl/src/draw/lv_draw_rect.c ****         /*Now `draw_area` has absolute coordinates.
 447:Middlewares/lvgl/src/draw/lv_draw_rect.c ****          *Make it relative to `disp_area` to simplify draw to `disp_buf`*/
 448:Middlewares/lvgl/src/draw/lv_draw_rect.c ****         draw_area.x1 -= disp_area->x1;
 449:Middlewares/lvgl/src/draw/lv_draw_rect.c ****         draw_area.y1 -= disp_area->y1;
 450:Middlewares/lvgl/src/draw/lv_draw_rect.c ****         draw_area.x2 -= disp_area->x1;
 451:Middlewares/lvgl/src/draw/lv_draw_rect.c ****         draw_area.y2 -= disp_area->y1;
 452:Middlewares/lvgl/src/draw/lv_draw_rect.c **** 
 453:Middlewares/lvgl/src/draw/lv_draw_rect.c ****         int32_t draw_area_w = lv_area_get_width(&draw_area);
 454:Middlewares/lvgl/src/draw/lv_draw_rect.c **** 
 455:Middlewares/lvgl/src/draw/lv_draw_rect.c ****         /*Create a mask if there is a radius*/
 456:Middlewares/lvgl/src/draw/lv_draw_rect.c ****         lv_opa_t * mask_buf = lv_mem_buf_get(draw_area_w);
 457:Middlewares/lvgl/src/draw/lv_draw_rect.c **** 
 458:Middlewares/lvgl/src/draw/lv_draw_rect.c ****         /*Create mask for the outer area*/
 459:Middlewares/lvgl/src/draw/lv_draw_rect.c ****         int16_t mask_rout_id = LV_MASK_ID_INV;
 460:Middlewares/lvgl/src/draw/lv_draw_rect.c ****         lv_draw_mask_radius_param_t mask_rout_param;
 461:Middlewares/lvgl/src/draw/lv_draw_rect.c ****         if(rout > 0) {
 462:Middlewares/lvgl/src/draw/lv_draw_rect.c ****             lv_draw_mask_radius_init(&mask_rout_param, coords, rout, false);
 463:Middlewares/lvgl/src/draw/lv_draw_rect.c ****             mask_rout_id = lv_draw_mask_add(&mask_rout_param, NULL);
 464:Middlewares/lvgl/src/draw/lv_draw_rect.c ****         }
 465:Middlewares/lvgl/src/draw/lv_draw_rect.c **** 
 466:Middlewares/lvgl/src/draw/lv_draw_rect.c ****         /*Create mask for the inner mask*/
 467:Middlewares/lvgl/src/draw/lv_draw_rect.c ****         int32_t rin = rout - dsc->border_width;
 468:Middlewares/lvgl/src/draw/lv_draw_rect.c ****         if(rin < 0) rin = 0;
 469:Middlewares/lvgl/src/draw/lv_draw_rect.c ****         lv_draw_mask_radius_param_t mask_rin_param;
 470:Middlewares/lvgl/src/draw/lv_draw_rect.c ****         lv_draw_mask_radius_init(&mask_rin_param, &area_inner, rout - dsc->border_width, true);
 471:Middlewares/lvgl/src/draw/lv_draw_rect.c ****         int16_t mask_rin_id = lv_draw_mask_add(&mask_rin_param, NULL);
 472:Middlewares/lvgl/src/draw/lv_draw_rect.c **** 
 473:Middlewares/lvgl/src/draw/lv_draw_rect.c ****         int32_t corner_size = LV_MAX(rout, dsc->border_width - 1);
 474:Middlewares/lvgl/src/draw/lv_draw_rect.c **** 
 475:Middlewares/lvgl/src/draw/lv_draw_rect.c ****         int32_t h;
 476:Middlewares/lvgl/src/draw/lv_draw_rect.c ****         lv_draw_mask_res_t mask_res;
 477:Middlewares/lvgl/src/draw/lv_draw_rect.c ****         lv_area_t fill_area;
 478:Middlewares/lvgl/src/draw/lv_draw_rect.c **** 
 479:Middlewares/lvgl/src/draw/lv_draw_rect.c ****         lv_color_t color = dsc->border_color;
 480:Middlewares/lvgl/src/draw/lv_draw_rect.c ****         lv_blend_mode_t blend_mode = dsc->blend_mode;
 481:Middlewares/lvgl/src/draw/lv_draw_rect.c **** 
 482:Middlewares/lvgl/src/draw/lv_draw_rect.c ****         fill_area.x1 = coords->x1;
 483:Middlewares/lvgl/src/draw/lv_draw_rect.c ****         fill_area.x2 = coords->x2;
 484:Middlewares/lvgl/src/draw/lv_draw_rect.c ****         fill_area.y1 = disp_area->y1 + draw_area.y1;
 485:Middlewares/lvgl/src/draw/lv_draw_rect.c ****         fill_area.y2 = fill_area.y1;
 486:Middlewares/lvgl/src/draw/lv_draw_rect.c **** 
 487:Middlewares/lvgl/src/draw/lv_draw_rect.c ****         if(dsc->border_side == LV_BORDER_SIDE_LEFT) fill_area.x2 = coords->x1 + corner_size;
ARM GAS  /tmp/ccUpPomB.s 			page 10


 488:Middlewares/lvgl/src/draw/lv_draw_rect.c **** 
 489:Middlewares/lvgl/src/draw/lv_draw_rect.c ****         volatile bool top_only = false;
 490:Middlewares/lvgl/src/draw/lv_draw_rect.c ****         volatile bool bottom_only = false;
 491:Middlewares/lvgl/src/draw/lv_draw_rect.c ****         if(dsc->border_side == LV_BORDER_SIDE_TOP) top_only = true;
 492:Middlewares/lvgl/src/draw/lv_draw_rect.c ****         if(dsc->border_side == LV_BORDER_SIDE_BOTTOM) bottom_only = true;
 493:Middlewares/lvgl/src/draw/lv_draw_rect.c ****         if(dsc->border_side == (LV_BORDER_SIDE_TOP | LV_BORDER_SIDE_BOTTOM)) {
 494:Middlewares/lvgl/src/draw/lv_draw_rect.c ****             top_only = true;
 495:Middlewares/lvgl/src/draw/lv_draw_rect.c ****             bottom_only = true;
 496:Middlewares/lvgl/src/draw/lv_draw_rect.c ****         }
 497:Middlewares/lvgl/src/draw/lv_draw_rect.c **** 
 498:Middlewares/lvgl/src/draw/lv_draw_rect.c ****         volatile bool normal = !top_only && !bottom_only ? true : false;
 499:Middlewares/lvgl/src/draw/lv_draw_rect.c **** 
 500:Middlewares/lvgl/src/draw/lv_draw_rect.c ****         for(h = draw_area.y1; h <= draw_area.y2; h++) {
 501:Middlewares/lvgl/src/draw/lv_draw_rect.c ****             if(normal ||
 502:Middlewares/lvgl/src/draw/lv_draw_rect.c ****                (top_only && fill_area.y1 <= coords->y1 + corner_size) ||
 503:Middlewares/lvgl/src/draw/lv_draw_rect.c ****                (bottom_only && fill_area.y1 >= coords->y2 - corner_size)) {
 504:Middlewares/lvgl/src/draw/lv_draw_rect.c ****                 lv_memset_ff(mask_buf, draw_area_w);
 505:Middlewares/lvgl/src/draw/lv_draw_rect.c ****                 mask_res = lv_draw_mask_apply(mask_buf, draw_buf->area.x1 + draw_area.x1, draw_buf-
 506:Middlewares/lvgl/src/draw/lv_draw_rect.c ****                 _lv_blend_fill(clip, &fill_area, color, mask_buf, mask_res, opa, blend_mode);
 507:Middlewares/lvgl/src/draw/lv_draw_rect.c ****             }
 508:Middlewares/lvgl/src/draw/lv_draw_rect.c ****             fill_area.y1++;
 509:Middlewares/lvgl/src/draw/lv_draw_rect.c ****             fill_area.y2++;
 510:Middlewares/lvgl/src/draw/lv_draw_rect.c **** 
 511:Middlewares/lvgl/src/draw/lv_draw_rect.c ****         }
 512:Middlewares/lvgl/src/draw/lv_draw_rect.c ****         lv_draw_mask_remove_id(mask_rin_id);
 513:Middlewares/lvgl/src/draw/lv_draw_rect.c ****         lv_draw_mask_remove_id(mask_rout_id);
 514:Middlewares/lvgl/src/draw/lv_draw_rect.c ****         lv_mem_buf_release(mask_buf);
 515:Middlewares/lvgl/src/draw/lv_draw_rect.c ****     }
 516:Middlewares/lvgl/src/draw/lv_draw_rect.c **** #else /*LV_DRAW_COMPLEX*/
 517:Middlewares/lvgl/src/draw/lv_draw_rect.c ****     draw_simple_border(clip, &area_inner, coords, dsc->border_color, dsc->border_opa, dsc->border_s
 518:Middlewares/lvgl/src/draw/lv_draw_rect.c **** #endif
 519:Middlewares/lvgl/src/draw/lv_draw_rect.c **** }
 520:Middlewares/lvgl/src/draw/lv_draw_rect.c **** 
 521:Middlewares/lvgl/src/draw/lv_draw_rect.c **** #if LV_DRAW_COMPLEX
 522:Middlewares/lvgl/src/draw/lv_draw_rect.c **** LV_ATTRIBUTE_FAST_MEM static inline lv_color_t grad_get(const lv_draw_rect_dsc_t * dsc, lv_coord_t 
 523:Middlewares/lvgl/src/draw/lv_draw_rect.c **** {
 524:Middlewares/lvgl/src/draw/lv_draw_rect.c ****     int32_t min = (dsc->bg_main_color_stop * s) >> 8;
 525:Middlewares/lvgl/src/draw/lv_draw_rect.c ****     if(i <= min) return dsc->bg_color;
 526:Middlewares/lvgl/src/draw/lv_draw_rect.c **** 
 527:Middlewares/lvgl/src/draw/lv_draw_rect.c ****     int32_t max = (dsc->bg_grad_color_stop * s) >> 8;
 528:Middlewares/lvgl/src/draw/lv_draw_rect.c ****     if(i >= max) return dsc->bg_grad_color;
 529:Middlewares/lvgl/src/draw/lv_draw_rect.c **** 
 530:Middlewares/lvgl/src/draw/lv_draw_rect.c ****     int32_t d = dsc->bg_grad_color_stop - dsc->bg_main_color_stop;
 531:Middlewares/lvgl/src/draw/lv_draw_rect.c ****     d = (s * d) >> 8;
 532:Middlewares/lvgl/src/draw/lv_draw_rect.c ****     i -= min;
 533:Middlewares/lvgl/src/draw/lv_draw_rect.c ****     lv_opa_t mix = (i * 255) / d;
 534:Middlewares/lvgl/src/draw/lv_draw_rect.c ****     return lv_color_mix(dsc->bg_grad_color, dsc->bg_color, mix);
 535:Middlewares/lvgl/src/draw/lv_draw_rect.c **** }
 536:Middlewares/lvgl/src/draw/lv_draw_rect.c **** 
 537:Middlewares/lvgl/src/draw/lv_draw_rect.c **** LV_ATTRIBUTE_FAST_MEM static void draw_shadow(const lv_area_t * coords, const lv_area_t * clip,
 538:Middlewares/lvgl/src/draw/lv_draw_rect.c ****                                               const lv_draw_rect_dsc_t * dsc)
 539:Middlewares/lvgl/src/draw/lv_draw_rect.c **** {
 540:Middlewares/lvgl/src/draw/lv_draw_rect.c ****     /*Check whether the shadow is visible*/
 541:Middlewares/lvgl/src/draw/lv_draw_rect.c ****     if(dsc->shadow_width == 0) return;
 542:Middlewares/lvgl/src/draw/lv_draw_rect.c ****     if(dsc->shadow_opa <= LV_OPA_MIN) return;
 543:Middlewares/lvgl/src/draw/lv_draw_rect.c **** 
 544:Middlewares/lvgl/src/draw/lv_draw_rect.c ****     if(dsc->shadow_width == 1 && dsc->shadow_ofs_x == 0 &&
ARM GAS  /tmp/ccUpPomB.s 			page 11


 545:Middlewares/lvgl/src/draw/lv_draw_rect.c ****        dsc->shadow_ofs_y == 0 && dsc->shadow_spread <= 0) {
 546:Middlewares/lvgl/src/draw/lv_draw_rect.c ****         return;
 547:Middlewares/lvgl/src/draw/lv_draw_rect.c ****     }
 548:Middlewares/lvgl/src/draw/lv_draw_rect.c **** 
 549:Middlewares/lvgl/src/draw/lv_draw_rect.c ****     int32_t sw = dsc->shadow_width;
 550:Middlewares/lvgl/src/draw/lv_draw_rect.c **** 
 551:Middlewares/lvgl/src/draw/lv_draw_rect.c ****     lv_area_t sh_rect_area;
 552:Middlewares/lvgl/src/draw/lv_draw_rect.c ****     sh_rect_area.x1 = coords->x1  + dsc->shadow_ofs_x - dsc->shadow_spread;
 553:Middlewares/lvgl/src/draw/lv_draw_rect.c ****     sh_rect_area.x2 = coords->x2  + dsc->shadow_ofs_x + dsc->shadow_spread;
 554:Middlewares/lvgl/src/draw/lv_draw_rect.c ****     sh_rect_area.y1 = coords->y1  + dsc->shadow_ofs_y - dsc->shadow_spread;
 555:Middlewares/lvgl/src/draw/lv_draw_rect.c ****     sh_rect_area.y2 = coords->y2  + dsc->shadow_ofs_y + dsc->shadow_spread;
 556:Middlewares/lvgl/src/draw/lv_draw_rect.c **** 
 557:Middlewares/lvgl/src/draw/lv_draw_rect.c ****     lv_area_t sh_area;
 558:Middlewares/lvgl/src/draw/lv_draw_rect.c ****     sh_area.x1 = sh_rect_area.x1 - sw / 2 - 1;
 559:Middlewares/lvgl/src/draw/lv_draw_rect.c ****     sh_area.x2 = sh_rect_area.x2 + sw / 2 + 1;
 560:Middlewares/lvgl/src/draw/lv_draw_rect.c ****     sh_area.y1 = sh_rect_area.y1 - sw / 2 - 1;
 561:Middlewares/lvgl/src/draw/lv_draw_rect.c ****     sh_area.y2 = sh_rect_area.y2 + sw / 2 + 1;
 562:Middlewares/lvgl/src/draw/lv_draw_rect.c **** 
 563:Middlewares/lvgl/src/draw/lv_draw_rect.c ****     lv_opa_t opa = dsc->shadow_opa;
 564:Middlewares/lvgl/src/draw/lv_draw_rect.c **** 
 565:Middlewares/lvgl/src/draw/lv_draw_rect.c ****     if(opa > LV_OPA_MAX) opa = LV_OPA_COVER;
 566:Middlewares/lvgl/src/draw/lv_draw_rect.c **** 
 567:Middlewares/lvgl/src/draw/lv_draw_rect.c ****     lv_disp_t * disp = _lv_refr_get_disp_refreshing();
 568:Middlewares/lvgl/src/draw/lv_draw_rect.c ****     lv_disp_draw_buf_t * draw_buf = lv_disp_get_draw_buf(disp);
 569:Middlewares/lvgl/src/draw/lv_draw_rect.c **** 
 570:Middlewares/lvgl/src/draw/lv_draw_rect.c ****     /*Get clipped fill area which is the real draw area.
 571:Middlewares/lvgl/src/draw/lv_draw_rect.c ****      *It is always the same or inside `fill_area`*/
 572:Middlewares/lvgl/src/draw/lv_draw_rect.c ****     lv_area_t draw_area;
 573:Middlewares/lvgl/src/draw/lv_draw_rect.c ****     bool is_common;
 574:Middlewares/lvgl/src/draw/lv_draw_rect.c ****     is_common = _lv_area_intersect(&draw_area, &sh_area, clip);
 575:Middlewares/lvgl/src/draw/lv_draw_rect.c ****     if(is_common == false) return;
 576:Middlewares/lvgl/src/draw/lv_draw_rect.c **** 
 577:Middlewares/lvgl/src/draw/lv_draw_rect.c ****     const lv_area_t * disp_area = &draw_buf->area;
 578:Middlewares/lvgl/src/draw/lv_draw_rect.c **** 
 579:Middlewares/lvgl/src/draw/lv_draw_rect.c ****     /*Now `draw_area` has absolute coordinates.
 580:Middlewares/lvgl/src/draw/lv_draw_rect.c ****      *Make it relative to `disp_area` to simplify draw to `disp_buf`*/
 581:Middlewares/lvgl/src/draw/lv_draw_rect.c ****     draw_area.x1 -= disp_area->x1;
 582:Middlewares/lvgl/src/draw/lv_draw_rect.c ****     draw_area.y1 -= disp_area->y1;
 583:Middlewares/lvgl/src/draw/lv_draw_rect.c ****     draw_area.x2 -= disp_area->x1;
 584:Middlewares/lvgl/src/draw/lv_draw_rect.c ****     draw_area.y2 -= disp_area->y1;
 585:Middlewares/lvgl/src/draw/lv_draw_rect.c **** 
 586:Middlewares/lvgl/src/draw/lv_draw_rect.c ****     /*Consider 1 px smaller bg to be sure the edge will be covered by the shadow*/
 587:Middlewares/lvgl/src/draw/lv_draw_rect.c ****     lv_area_t bg_coords;
 588:Middlewares/lvgl/src/draw/lv_draw_rect.c ****     lv_area_copy(&bg_coords, coords);
 589:Middlewares/lvgl/src/draw/lv_draw_rect.c ****     bg_coords.x1 += 1;
 590:Middlewares/lvgl/src/draw/lv_draw_rect.c ****     bg_coords.y1 += 1;
 591:Middlewares/lvgl/src/draw/lv_draw_rect.c ****     bg_coords.x2 -= 1;
 592:Middlewares/lvgl/src/draw/lv_draw_rect.c ****     bg_coords.y2 -= 1;
 593:Middlewares/lvgl/src/draw/lv_draw_rect.c **** 
 594:Middlewares/lvgl/src/draw/lv_draw_rect.c ****     /*Get the real radius*/
 595:Middlewares/lvgl/src/draw/lv_draw_rect.c ****     int32_t r_bg = dsc->radius;
 596:Middlewares/lvgl/src/draw/lv_draw_rect.c ****     int32_t short_side = LV_MIN(lv_area_get_width(&bg_coords), lv_area_get_height(&bg_coords));
 597:Middlewares/lvgl/src/draw/lv_draw_rect.c ****     if(r_bg > short_side >> 1) r_bg = short_side >> 1;
 598:Middlewares/lvgl/src/draw/lv_draw_rect.c **** 
 599:Middlewares/lvgl/src/draw/lv_draw_rect.c ****     int32_t r_sh = dsc->radius;
 600:Middlewares/lvgl/src/draw/lv_draw_rect.c ****     short_side = LV_MIN(lv_area_get_width(&sh_rect_area), lv_area_get_height(&sh_rect_area));
 601:Middlewares/lvgl/src/draw/lv_draw_rect.c ****     if(r_sh > short_side >> 1) r_sh = short_side >> 1;
ARM GAS  /tmp/ccUpPomB.s 			page 12


 602:Middlewares/lvgl/src/draw/lv_draw_rect.c **** 
 603:Middlewares/lvgl/src/draw/lv_draw_rect.c ****     int32_t corner_size = sw  + r_sh;
 604:Middlewares/lvgl/src/draw/lv_draw_rect.c **** 
 605:Middlewares/lvgl/src/draw/lv_draw_rect.c ****     lv_opa_t * sh_buf;
 606:Middlewares/lvgl/src/draw/lv_draw_rect.c **** 
 607:Middlewares/lvgl/src/draw/lv_draw_rect.c **** #if LV_SHADOW_CACHE_SIZE
 608:Middlewares/lvgl/src/draw/lv_draw_rect.c ****     if(sh_cache_size == corner_size && sh_cache_r == r_sh) {
 609:Middlewares/lvgl/src/draw/lv_draw_rect.c ****         /*Use the cache if available*/
 610:Middlewares/lvgl/src/draw/lv_draw_rect.c ****         sh_buf = lv_mem_buf_get(corner_size * corner_size);
 611:Middlewares/lvgl/src/draw/lv_draw_rect.c ****         lv_memcpy(sh_buf, sh_cache, corner_size * corner_size);
 612:Middlewares/lvgl/src/draw/lv_draw_rect.c ****     }
 613:Middlewares/lvgl/src/draw/lv_draw_rect.c ****     else {
 614:Middlewares/lvgl/src/draw/lv_draw_rect.c ****         /*A larger buffer is required for calculation*/
 615:Middlewares/lvgl/src/draw/lv_draw_rect.c ****         sh_buf = lv_mem_buf_get(corner_size * corner_size * sizeof(uint16_t));
 616:Middlewares/lvgl/src/draw/lv_draw_rect.c ****         shadow_draw_corner_buf(&sh_rect_area, (uint16_t *)sh_buf, dsc->shadow_width, r_sh);
 617:Middlewares/lvgl/src/draw/lv_draw_rect.c **** 
 618:Middlewares/lvgl/src/draw/lv_draw_rect.c ****         /*Cache the corner if it fits into the cache size*/
 619:Middlewares/lvgl/src/draw/lv_draw_rect.c ****         if((uint32_t)corner_size * corner_size < sizeof(sh_cache)) {
 620:Middlewares/lvgl/src/draw/lv_draw_rect.c ****             lv_memcpy(sh_cache, sh_buf, corner_size * corner_size);
 621:Middlewares/lvgl/src/draw/lv_draw_rect.c ****             sh_cache_size = corner_size;
 622:Middlewares/lvgl/src/draw/lv_draw_rect.c ****             sh_cache_r = r_sh;
 623:Middlewares/lvgl/src/draw/lv_draw_rect.c ****         }
 624:Middlewares/lvgl/src/draw/lv_draw_rect.c ****     }
 625:Middlewares/lvgl/src/draw/lv_draw_rect.c **** #else
 626:Middlewares/lvgl/src/draw/lv_draw_rect.c ****     sh_buf = lv_mem_buf_get(corner_size * corner_size * sizeof(uint16_t));
 627:Middlewares/lvgl/src/draw/lv_draw_rect.c ****     shadow_draw_corner_buf(&sh_rect_area, (uint16_t *)sh_buf, dsc->shadow_width, r_sh);
 628:Middlewares/lvgl/src/draw/lv_draw_rect.c **** #endif
 629:Middlewares/lvgl/src/draw/lv_draw_rect.c **** 
 630:Middlewares/lvgl/src/draw/lv_draw_rect.c ****     lv_coord_t h_half = sh_area.y1 + lv_area_get_height(&sh_area) / 2;
 631:Middlewares/lvgl/src/draw/lv_draw_rect.c ****     lv_coord_t w_half = sh_area.x1 + lv_area_get_width(&sh_area) / 2;
 632:Middlewares/lvgl/src/draw/lv_draw_rect.c **** 
 633:Middlewares/lvgl/src/draw/lv_draw_rect.c ****     bool simple_mode = true;
 634:Middlewares/lvgl/src/draw/lv_draw_rect.c ****     if(lv_draw_mask_get_cnt() > 0) simple_mode = false;
 635:Middlewares/lvgl/src/draw/lv_draw_rect.c ****     else if(dsc->shadow_ofs_x != 0 || dsc->shadow_ofs_y != 0) simple_mode = false;
 636:Middlewares/lvgl/src/draw/lv_draw_rect.c ****     else if(dsc->shadow_spread != 0) simple_mode = false;
 637:Middlewares/lvgl/src/draw/lv_draw_rect.c **** 
 638:Middlewares/lvgl/src/draw/lv_draw_rect.c ****     /*Create a mask*/
 639:Middlewares/lvgl/src/draw/lv_draw_rect.c ****     lv_draw_mask_res_t mask_res;
 640:Middlewares/lvgl/src/draw/lv_draw_rect.c ****     lv_opa_t * mask_buf = lv_mem_buf_get(lv_area_get_width(&sh_area));
 641:Middlewares/lvgl/src/draw/lv_draw_rect.c **** 
 642:Middlewares/lvgl/src/draw/lv_draw_rect.c ****     lv_draw_mask_radius_param_t mask_rout_param;
 643:Middlewares/lvgl/src/draw/lv_draw_rect.c ****     lv_draw_mask_radius_init(&mask_rout_param, &bg_coords, r_bg, true);
 644:Middlewares/lvgl/src/draw/lv_draw_rect.c **** 
 645:Middlewares/lvgl/src/draw/lv_draw_rect.c ****     int16_t mask_rout_id = lv_draw_mask_add(&mask_rout_param, NULL);
 646:Middlewares/lvgl/src/draw/lv_draw_rect.c **** 
 647:Middlewares/lvgl/src/draw/lv_draw_rect.c ****     lv_area_t a;
 648:Middlewares/lvgl/src/draw/lv_draw_rect.c **** 
 649:Middlewares/lvgl/src/draw/lv_draw_rect.c ****     /*Draw the top right corner*/
 650:Middlewares/lvgl/src/draw/lv_draw_rect.c ****     int32_t y;
 651:Middlewares/lvgl/src/draw/lv_draw_rect.c ****     lv_opa_t * sh_buf_tmp;
 652:Middlewares/lvgl/src/draw/lv_draw_rect.c ****     a.x2 = sh_area.x2;
 653:Middlewares/lvgl/src/draw/lv_draw_rect.c ****     a.x1 = a.x2 - corner_size + 1;
 654:Middlewares/lvgl/src/draw/lv_draw_rect.c ****     a.y1 = sh_area.y1;
 655:Middlewares/lvgl/src/draw/lv_draw_rect.c ****     a.y2 = a.y1 + corner_size - 1;
 656:Middlewares/lvgl/src/draw/lv_draw_rect.c **** 
 657:Middlewares/lvgl/src/draw/lv_draw_rect.c ****     lv_area_t ca;
 658:Middlewares/lvgl/src/draw/lv_draw_rect.c ****     bool has_com = _lv_area_intersect(&ca, &a, clip);
ARM GAS  /tmp/ccUpPomB.s 			page 13


 659:Middlewares/lvgl/src/draw/lv_draw_rect.c ****     if(has_com && _lv_area_is_in(&a, &bg_coords, r_bg) == false) {
 660:Middlewares/lvgl/src/draw/lv_draw_rect.c ****         /*Avoid overlap in the middle with large radius*/
 661:Middlewares/lvgl/src/draw/lv_draw_rect.c ****         if(ca.y2 > h_half) ca.y2 = h_half;
 662:Middlewares/lvgl/src/draw/lv_draw_rect.c ****         if(ca.x1 <= w_half) ca.x1 = w_half + 1;
 663:Middlewares/lvgl/src/draw/lv_draw_rect.c **** 
 664:Middlewares/lvgl/src/draw/lv_draw_rect.c ****         lv_coord_t h = lv_area_get_height(&ca);
 665:Middlewares/lvgl/src/draw/lv_draw_rect.c ****         lv_coord_t w = lv_area_get_width(&ca);
 666:Middlewares/lvgl/src/draw/lv_draw_rect.c ****         if(w > 0) {
 667:Middlewares/lvgl/src/draw/lv_draw_rect.c ****             sh_buf_tmp = sh_buf + (ca.x1 - a.x1);
 668:Middlewares/lvgl/src/draw/lv_draw_rect.c ****             sh_buf_tmp += corner_size * (ca.y1 - a.y1);
 669:Middlewares/lvgl/src/draw/lv_draw_rect.c **** 
 670:Middlewares/lvgl/src/draw/lv_draw_rect.c ****             lv_area_t fa;
 671:Middlewares/lvgl/src/draw/lv_draw_rect.c ****             lv_area_copy(&fa, &ca);
 672:Middlewares/lvgl/src/draw/lv_draw_rect.c ****             fa.y2 = fa.y1;
 673:Middlewares/lvgl/src/draw/lv_draw_rect.c **** 
 674:Middlewares/lvgl/src/draw/lv_draw_rect.c ****             for(y = 0; y < h; y++) {
 675:Middlewares/lvgl/src/draw/lv_draw_rect.c ****                 lv_memcpy(mask_buf, sh_buf_tmp, w);
 676:Middlewares/lvgl/src/draw/lv_draw_rect.c ****                 mask_res = lv_draw_mask_apply(mask_buf, fa.x1, fa.y1, w);
 677:Middlewares/lvgl/src/draw/lv_draw_rect.c ****                 if(mask_res == LV_DRAW_MASK_RES_FULL_COVER) mask_res = LV_DRAW_MASK_RES_CHANGED;
 678:Middlewares/lvgl/src/draw/lv_draw_rect.c **** 
 679:Middlewares/lvgl/src/draw/lv_draw_rect.c ****                 _lv_blend_fill(clip, &fa, dsc->shadow_color, mask_buf,
 680:Middlewares/lvgl/src/draw/lv_draw_rect.c ****                                mask_res, opa, dsc->blend_mode);
 681:Middlewares/lvgl/src/draw/lv_draw_rect.c ****                 fa.y1++;
 682:Middlewares/lvgl/src/draw/lv_draw_rect.c ****                 fa.y2++;
 683:Middlewares/lvgl/src/draw/lv_draw_rect.c ****                 sh_buf_tmp += corner_size;
 684:Middlewares/lvgl/src/draw/lv_draw_rect.c ****             }
 685:Middlewares/lvgl/src/draw/lv_draw_rect.c ****         }
 686:Middlewares/lvgl/src/draw/lv_draw_rect.c ****     }
 687:Middlewares/lvgl/src/draw/lv_draw_rect.c **** 
 688:Middlewares/lvgl/src/draw/lv_draw_rect.c ****     /*Draw the bottom right corner*/
 689:Middlewares/lvgl/src/draw/lv_draw_rect.c ****     a.x2 = sh_area.x2;
 690:Middlewares/lvgl/src/draw/lv_draw_rect.c ****     a.x1 = a.x2 - corner_size + 1;
 691:Middlewares/lvgl/src/draw/lv_draw_rect.c ****     a.y1 = sh_area.y2 - corner_size + 1;
 692:Middlewares/lvgl/src/draw/lv_draw_rect.c ****     a.y2 = sh_area.y2;
 693:Middlewares/lvgl/src/draw/lv_draw_rect.c **** 
 694:Middlewares/lvgl/src/draw/lv_draw_rect.c ****     has_com = _lv_area_intersect(&ca, &a, clip);
 695:Middlewares/lvgl/src/draw/lv_draw_rect.c ****     if(has_com && _lv_area_is_in(&a, &bg_coords, r_bg) == false) {
 696:Middlewares/lvgl/src/draw/lv_draw_rect.c ****         /*Avoid overlap in the middle with large radius*/
 697:Middlewares/lvgl/src/draw/lv_draw_rect.c ****         if(ca.y1 <= h_half) ca.y1 = h_half;
 698:Middlewares/lvgl/src/draw/lv_draw_rect.c ****         if(ca.x1 <= w_half) ca.x1 = w_half;
 699:Middlewares/lvgl/src/draw/lv_draw_rect.c **** 
 700:Middlewares/lvgl/src/draw/lv_draw_rect.c ****         lv_coord_t h = lv_area_get_height(&ca);
 701:Middlewares/lvgl/src/draw/lv_draw_rect.c ****         lv_coord_t w = lv_area_get_width(&ca);
 702:Middlewares/lvgl/src/draw/lv_draw_rect.c **** 
 703:Middlewares/lvgl/src/draw/lv_draw_rect.c ****         if(w > 0) {
 704:Middlewares/lvgl/src/draw/lv_draw_rect.c ****             sh_buf_tmp = sh_buf + (ca.x1 - a.x1);
 705:Middlewares/lvgl/src/draw/lv_draw_rect.c ****             sh_buf_tmp += corner_size * (a.y2 - ca.y2);
 706:Middlewares/lvgl/src/draw/lv_draw_rect.c **** 
 707:Middlewares/lvgl/src/draw/lv_draw_rect.c ****             lv_area_t fa;
 708:Middlewares/lvgl/src/draw/lv_draw_rect.c ****             lv_area_copy(&fa, &ca);
 709:Middlewares/lvgl/src/draw/lv_draw_rect.c ****             fa.y1 = fa.y2;    /*Fill from bottom to top*/
 710:Middlewares/lvgl/src/draw/lv_draw_rect.c **** 
 711:Middlewares/lvgl/src/draw/lv_draw_rect.c ****             for(y = 0; y < h; y++) {
 712:Middlewares/lvgl/src/draw/lv_draw_rect.c ****                 lv_memcpy(mask_buf, sh_buf_tmp, w);
 713:Middlewares/lvgl/src/draw/lv_draw_rect.c ****                 mask_res = lv_draw_mask_apply(mask_buf, fa.x1, fa.y1, w);
 714:Middlewares/lvgl/src/draw/lv_draw_rect.c ****                 if(mask_res == LV_DRAW_MASK_RES_FULL_COVER) mask_res = LV_DRAW_MASK_RES_CHANGED;
 715:Middlewares/lvgl/src/draw/lv_draw_rect.c **** 
ARM GAS  /tmp/ccUpPomB.s 			page 14


 716:Middlewares/lvgl/src/draw/lv_draw_rect.c ****                 _lv_blend_fill(clip, &fa, dsc->shadow_color, mask_buf,
 717:Middlewares/lvgl/src/draw/lv_draw_rect.c ****                                mask_res, opa, dsc->blend_mode);
 718:Middlewares/lvgl/src/draw/lv_draw_rect.c ****                 fa.y1--;
 719:Middlewares/lvgl/src/draw/lv_draw_rect.c ****                 fa.y2--;
 720:Middlewares/lvgl/src/draw/lv_draw_rect.c ****                 sh_buf_tmp += corner_size;
 721:Middlewares/lvgl/src/draw/lv_draw_rect.c ****             }
 722:Middlewares/lvgl/src/draw/lv_draw_rect.c ****         }
 723:Middlewares/lvgl/src/draw/lv_draw_rect.c ****     }
 724:Middlewares/lvgl/src/draw/lv_draw_rect.c **** 
 725:Middlewares/lvgl/src/draw/lv_draw_rect.c ****     /*Fill the right side*/
 726:Middlewares/lvgl/src/draw/lv_draw_rect.c ****     a.x2 = sh_area.x2;
 727:Middlewares/lvgl/src/draw/lv_draw_rect.c ****     a.x1 = a.x2 - corner_size + 1;
 728:Middlewares/lvgl/src/draw/lv_draw_rect.c ****     a.y1 = sh_area.y1 + corner_size;
 729:Middlewares/lvgl/src/draw/lv_draw_rect.c ****     a.y2 = sh_area.y2 - corner_size;
 730:Middlewares/lvgl/src/draw/lv_draw_rect.c **** 
 731:Middlewares/lvgl/src/draw/lv_draw_rect.c ****     has_com = _lv_area_intersect(&ca, &a, clip);
 732:Middlewares/lvgl/src/draw/lv_draw_rect.c ****     if(has_com && _lv_area_is_in(&a, &bg_coords, r_bg) == false) {
 733:Middlewares/lvgl/src/draw/lv_draw_rect.c ****         /*Avoid overlap in the middle with large radius*/
 734:Middlewares/lvgl/src/draw/lv_draw_rect.c ****         if(ca.x1 <= w_half) ca.x1 = w_half + 1;
 735:Middlewares/lvgl/src/draw/lv_draw_rect.c **** 
 736:Middlewares/lvgl/src/draw/lv_draw_rect.c ****         if(simple_mode) ca.x1 = LV_MAX(ca.x1, coords->x2);
 737:Middlewares/lvgl/src/draw/lv_draw_rect.c **** 
 738:Middlewares/lvgl/src/draw/lv_draw_rect.c ****         /*Draw horizontal lines*/
 739:Middlewares/lvgl/src/draw/lv_draw_rect.c ****         lv_coord_t w = lv_area_get_width(&ca);
 740:Middlewares/lvgl/src/draw/lv_draw_rect.c ****         if(w > 0) {
 741:Middlewares/lvgl/src/draw/lv_draw_rect.c ****             lv_coord_t h = lv_area_get_height(&ca);
 742:Middlewares/lvgl/src/draw/lv_draw_rect.c **** 
 743:Middlewares/lvgl/src/draw/lv_draw_rect.c ****             /*The last line of the shadow is repeated on the side*/
 744:Middlewares/lvgl/src/draw/lv_draw_rect.c ****             sh_buf_tmp = sh_buf + corner_size * (corner_size - 1);
 745:Middlewares/lvgl/src/draw/lv_draw_rect.c ****             sh_buf_tmp += ca.x1 - a.x1;
 746:Middlewares/lvgl/src/draw/lv_draw_rect.c **** 
 747:Middlewares/lvgl/src/draw/lv_draw_rect.c ****             lv_area_t fa;
 748:Middlewares/lvgl/src/draw/lv_draw_rect.c ****             lv_area_copy(&fa, &ca);
 749:Middlewares/lvgl/src/draw/lv_draw_rect.c ****             fa.y2 = fa.y1;
 750:Middlewares/lvgl/src/draw/lv_draw_rect.c ****             mask_res = LV_DRAW_MASK_RES_FULL_COVER;
 751:Middlewares/lvgl/src/draw/lv_draw_rect.c ****             for(y = 0; y < h; y++) {
 752:Middlewares/lvgl/src/draw/lv_draw_rect.c ****                 lv_memcpy(mask_buf, sh_buf_tmp, w);
 753:Middlewares/lvgl/src/draw/lv_draw_rect.c **** 
 754:Middlewares/lvgl/src/draw/lv_draw_rect.c ****                 if(simple_mode) {
 755:Middlewares/lvgl/src/draw/lv_draw_rect.c ****                     mask_res = LV_DRAW_MASK_RES_CHANGED;
 756:Middlewares/lvgl/src/draw/lv_draw_rect.c ****                 }
 757:Middlewares/lvgl/src/draw/lv_draw_rect.c ****                 else {
 758:Middlewares/lvgl/src/draw/lv_draw_rect.c ****                     mask_res = lv_draw_mask_apply(mask_buf, fa.x1, fa.y1, w);
 759:Middlewares/lvgl/src/draw/lv_draw_rect.c ****                     if(mask_res == LV_DRAW_MASK_RES_FULL_COVER) mask_res = LV_DRAW_MASK_RES_CHANGED
 760:Middlewares/lvgl/src/draw/lv_draw_rect.c ****                 }
 761:Middlewares/lvgl/src/draw/lv_draw_rect.c **** 
 762:Middlewares/lvgl/src/draw/lv_draw_rect.c ****                 _lv_blend_fill(clip, &fa,
 763:Middlewares/lvgl/src/draw/lv_draw_rect.c ****                                dsc->shadow_color, mask_buf, mask_res, dsc->shadow_opa, dsc->blend_m
 764:Middlewares/lvgl/src/draw/lv_draw_rect.c ****                 fa.y1++;
 765:Middlewares/lvgl/src/draw/lv_draw_rect.c ****                 fa.y2++;
 766:Middlewares/lvgl/src/draw/lv_draw_rect.c ****             }
 767:Middlewares/lvgl/src/draw/lv_draw_rect.c ****         }
 768:Middlewares/lvgl/src/draw/lv_draw_rect.c ****     }
 769:Middlewares/lvgl/src/draw/lv_draw_rect.c **** 
 770:Middlewares/lvgl/src/draw/lv_draw_rect.c ****     /*Invert the shadow corner buffer and draw the corners on the left*/
 771:Middlewares/lvgl/src/draw/lv_draw_rect.c ****     sh_buf_tmp = sh_buf ;
 772:Middlewares/lvgl/src/draw/lv_draw_rect.c ****     for(y = 0; y < corner_size; y++) {
ARM GAS  /tmp/ccUpPomB.s 			page 15


 773:Middlewares/lvgl/src/draw/lv_draw_rect.c ****         int32_t x;
 774:Middlewares/lvgl/src/draw/lv_draw_rect.c ****         for(x = 0; x < corner_size / 2; x++) {
 775:Middlewares/lvgl/src/draw/lv_draw_rect.c ****             lv_opa_t tmp = sh_buf_tmp[x];
 776:Middlewares/lvgl/src/draw/lv_draw_rect.c ****             sh_buf_tmp[x] = sh_buf_tmp[corner_size - x - 1];
 777:Middlewares/lvgl/src/draw/lv_draw_rect.c ****             sh_buf_tmp[corner_size - x - 1] = tmp;
 778:Middlewares/lvgl/src/draw/lv_draw_rect.c ****         }
 779:Middlewares/lvgl/src/draw/lv_draw_rect.c ****         sh_buf_tmp += corner_size;
 780:Middlewares/lvgl/src/draw/lv_draw_rect.c ****     }
 781:Middlewares/lvgl/src/draw/lv_draw_rect.c **** 
 782:Middlewares/lvgl/src/draw/lv_draw_rect.c ****     /*Draw the top left corner*/
 783:Middlewares/lvgl/src/draw/lv_draw_rect.c ****     a.x1 = sh_area.x1;
 784:Middlewares/lvgl/src/draw/lv_draw_rect.c ****     a.x2 = a.x1 + corner_size - 1;
 785:Middlewares/lvgl/src/draw/lv_draw_rect.c ****     a.y1 = sh_area.y1;
 786:Middlewares/lvgl/src/draw/lv_draw_rect.c ****     a.y2 = a.y1 + corner_size - 1;
 787:Middlewares/lvgl/src/draw/lv_draw_rect.c **** 
 788:Middlewares/lvgl/src/draw/lv_draw_rect.c ****     has_com = _lv_area_intersect(&ca, &a, clip);
 789:Middlewares/lvgl/src/draw/lv_draw_rect.c ****     if(has_com && _lv_area_is_in(&a, &bg_coords, r_bg) == false) {
 790:Middlewares/lvgl/src/draw/lv_draw_rect.c ****         /*Avoid overlap in the middle with large radius*/
 791:Middlewares/lvgl/src/draw/lv_draw_rect.c ****         if(ca.y2 > h_half) ca.y2 = h_half;
 792:Middlewares/lvgl/src/draw/lv_draw_rect.c ****         if(ca.x2 > w_half) ca.x2 = w_half;
 793:Middlewares/lvgl/src/draw/lv_draw_rect.c **** 
 794:Middlewares/lvgl/src/draw/lv_draw_rect.c ****         lv_coord_t h = lv_area_get_height(&ca);
 795:Middlewares/lvgl/src/draw/lv_draw_rect.c ****         lv_coord_t w = lv_area_get_width(&ca);
 796:Middlewares/lvgl/src/draw/lv_draw_rect.c ****         if(w > 0) {
 797:Middlewares/lvgl/src/draw/lv_draw_rect.c ****             sh_buf_tmp = sh_buf + (ca.x1 - a.x1);
 798:Middlewares/lvgl/src/draw/lv_draw_rect.c ****             sh_buf_tmp += corner_size * (ca.y1 - a.y1);
 799:Middlewares/lvgl/src/draw/lv_draw_rect.c **** 
 800:Middlewares/lvgl/src/draw/lv_draw_rect.c ****             lv_area_t fa;
 801:Middlewares/lvgl/src/draw/lv_draw_rect.c ****             lv_area_copy(&fa, &ca);
 802:Middlewares/lvgl/src/draw/lv_draw_rect.c ****             fa.y2 = fa.y1;
 803:Middlewares/lvgl/src/draw/lv_draw_rect.c **** 
 804:Middlewares/lvgl/src/draw/lv_draw_rect.c ****             for(y = 0; y < h; y++) {
 805:Middlewares/lvgl/src/draw/lv_draw_rect.c ****                 lv_memcpy(mask_buf, sh_buf_tmp, w);
 806:Middlewares/lvgl/src/draw/lv_draw_rect.c ****                 mask_res = lv_draw_mask_apply(mask_buf, fa.x1, fa.y1, w);
 807:Middlewares/lvgl/src/draw/lv_draw_rect.c ****                 if(mask_res == LV_DRAW_MASK_RES_FULL_COVER) mask_res = LV_DRAW_MASK_RES_CHANGED;
 808:Middlewares/lvgl/src/draw/lv_draw_rect.c **** 
 809:Middlewares/lvgl/src/draw/lv_draw_rect.c ****                 _lv_blend_fill(clip, &fa, dsc->shadow_color, mask_buf,
 810:Middlewares/lvgl/src/draw/lv_draw_rect.c ****                                mask_res, opa, dsc->blend_mode);
 811:Middlewares/lvgl/src/draw/lv_draw_rect.c ****                 fa.y1++;
 812:Middlewares/lvgl/src/draw/lv_draw_rect.c ****                 fa.y2++;
 813:Middlewares/lvgl/src/draw/lv_draw_rect.c ****                 sh_buf_tmp += corner_size;
 814:Middlewares/lvgl/src/draw/lv_draw_rect.c ****             }
 815:Middlewares/lvgl/src/draw/lv_draw_rect.c ****         }
 816:Middlewares/lvgl/src/draw/lv_draw_rect.c ****     }
 817:Middlewares/lvgl/src/draw/lv_draw_rect.c **** 
 818:Middlewares/lvgl/src/draw/lv_draw_rect.c ****     /*Draw the bottom left corner*/
 819:Middlewares/lvgl/src/draw/lv_draw_rect.c ****     a.x1 = sh_area.x1;
 820:Middlewares/lvgl/src/draw/lv_draw_rect.c ****     a.x2 = a.x1 + corner_size - 1;
 821:Middlewares/lvgl/src/draw/lv_draw_rect.c ****     a.y1 = sh_area.y2 - corner_size + 1;
 822:Middlewares/lvgl/src/draw/lv_draw_rect.c ****     a.y2 = sh_area.y2;
 823:Middlewares/lvgl/src/draw/lv_draw_rect.c **** 
 824:Middlewares/lvgl/src/draw/lv_draw_rect.c ****     has_com = _lv_area_intersect(&ca, &a, clip);
 825:Middlewares/lvgl/src/draw/lv_draw_rect.c ****     if(has_com && _lv_area_is_in(&a, &bg_coords, r_bg) == false) {
 826:Middlewares/lvgl/src/draw/lv_draw_rect.c ****         /*Avoid overlap in the middle with large radius*/
 827:Middlewares/lvgl/src/draw/lv_draw_rect.c ****         if(ca.y1 <= h_half) ca.y1 = h_half + 1;
 828:Middlewares/lvgl/src/draw/lv_draw_rect.c ****         if(ca.x2 > w_half) ca.x2 = w_half;
 829:Middlewares/lvgl/src/draw/lv_draw_rect.c ****         lv_coord_t h = lv_area_get_height(&ca);
ARM GAS  /tmp/ccUpPomB.s 			page 16


 830:Middlewares/lvgl/src/draw/lv_draw_rect.c ****         lv_coord_t w = lv_area_get_width(&ca);
 831:Middlewares/lvgl/src/draw/lv_draw_rect.c **** 
 832:Middlewares/lvgl/src/draw/lv_draw_rect.c ****         if(w > 0) {
 833:Middlewares/lvgl/src/draw/lv_draw_rect.c ****             sh_buf_tmp = sh_buf + (ca.x1 - a.x1);
 834:Middlewares/lvgl/src/draw/lv_draw_rect.c ****             sh_buf_tmp += corner_size * (a.y2 - ca.y2);
 835:Middlewares/lvgl/src/draw/lv_draw_rect.c **** 
 836:Middlewares/lvgl/src/draw/lv_draw_rect.c ****             lv_area_t fa;
 837:Middlewares/lvgl/src/draw/lv_draw_rect.c ****             lv_area_copy(&fa, &ca);
 838:Middlewares/lvgl/src/draw/lv_draw_rect.c ****             fa.y1 = fa.y2;    /*Fill from bottom to top*/
 839:Middlewares/lvgl/src/draw/lv_draw_rect.c **** 
 840:Middlewares/lvgl/src/draw/lv_draw_rect.c ****             for(y = 0; y < h; y++) {
 841:Middlewares/lvgl/src/draw/lv_draw_rect.c ****                 lv_memcpy(mask_buf, sh_buf_tmp, w);
 842:Middlewares/lvgl/src/draw/lv_draw_rect.c ****                 mask_res = lv_draw_mask_apply(mask_buf, fa.x1, fa.y1, w);
 843:Middlewares/lvgl/src/draw/lv_draw_rect.c ****                 if(mask_res == LV_DRAW_MASK_RES_FULL_COVER) mask_res = LV_DRAW_MASK_RES_CHANGED;
 844:Middlewares/lvgl/src/draw/lv_draw_rect.c **** 
 845:Middlewares/lvgl/src/draw/lv_draw_rect.c ****                 _lv_blend_fill(clip, &fa, dsc->shadow_color, mask_buf,
 846:Middlewares/lvgl/src/draw/lv_draw_rect.c ****                                mask_res, opa, dsc->blend_mode);
 847:Middlewares/lvgl/src/draw/lv_draw_rect.c ****                 fa.y1--;
 848:Middlewares/lvgl/src/draw/lv_draw_rect.c ****                 fa.y2--;
 849:Middlewares/lvgl/src/draw/lv_draw_rect.c ****                 sh_buf_tmp += corner_size;
 850:Middlewares/lvgl/src/draw/lv_draw_rect.c ****             }
 851:Middlewares/lvgl/src/draw/lv_draw_rect.c ****         }
 852:Middlewares/lvgl/src/draw/lv_draw_rect.c ****     }
 853:Middlewares/lvgl/src/draw/lv_draw_rect.c **** 
 854:Middlewares/lvgl/src/draw/lv_draw_rect.c ****     /*Fill the left side*/
 855:Middlewares/lvgl/src/draw/lv_draw_rect.c ****     a.x1 = sh_area.x1;
 856:Middlewares/lvgl/src/draw/lv_draw_rect.c ****     a.x2 = a.x1 + corner_size - 1;
 857:Middlewares/lvgl/src/draw/lv_draw_rect.c ****     a.y1 = sh_area.y1 + corner_size;
 858:Middlewares/lvgl/src/draw/lv_draw_rect.c ****     a.y2 = sh_area.y2 - corner_size;
 859:Middlewares/lvgl/src/draw/lv_draw_rect.c **** 
 860:Middlewares/lvgl/src/draw/lv_draw_rect.c ****     has_com = _lv_area_intersect(&ca, &a, clip);
 861:Middlewares/lvgl/src/draw/lv_draw_rect.c ****     if(has_com && _lv_area_is_in(&a, &bg_coords, r_bg) == false) {
 862:Middlewares/lvgl/src/draw/lv_draw_rect.c ****         /*Avoid overlap in the middle with large radius*/
 863:Middlewares/lvgl/src/draw/lv_draw_rect.c ****         if(ca.x2 > w_half) ca.x2 = w_half;
 864:Middlewares/lvgl/src/draw/lv_draw_rect.c **** 
 865:Middlewares/lvgl/src/draw/lv_draw_rect.c ****         if(simple_mode) ca.x2 = LV_MIN(coords->x1, ca.x2);
 866:Middlewares/lvgl/src/draw/lv_draw_rect.c ****         /*Draw vertical lines*/
 867:Middlewares/lvgl/src/draw/lv_draw_rect.c ****         lv_coord_t w = lv_area_get_width(&ca);
 868:Middlewares/lvgl/src/draw/lv_draw_rect.c ****         if(w > 0) {
 869:Middlewares/lvgl/src/draw/lv_draw_rect.c ****             lv_coord_t h = lv_area_get_height(&ca);
 870:Middlewares/lvgl/src/draw/lv_draw_rect.c ****             /*The last line of the shadow is repeated on the side*/
 871:Middlewares/lvgl/src/draw/lv_draw_rect.c ****             sh_buf_tmp = sh_buf + corner_size * (corner_size - 1);
 872:Middlewares/lvgl/src/draw/lv_draw_rect.c ****             sh_buf_tmp += ca.x1 - a.x1;
 873:Middlewares/lvgl/src/draw/lv_draw_rect.c **** 
 874:Middlewares/lvgl/src/draw/lv_draw_rect.c ****             lv_area_t fa;
 875:Middlewares/lvgl/src/draw/lv_draw_rect.c ****             lv_area_copy(&fa, &ca);
 876:Middlewares/lvgl/src/draw/lv_draw_rect.c ****             fa.y2 = fa.y1;
 877:Middlewares/lvgl/src/draw/lv_draw_rect.c ****             for(y = 0; y < h; y++) {
 878:Middlewares/lvgl/src/draw/lv_draw_rect.c ****                 lv_memcpy(mask_buf, sh_buf_tmp, w);
 879:Middlewares/lvgl/src/draw/lv_draw_rect.c ****                 if(simple_mode) {
 880:Middlewares/lvgl/src/draw/lv_draw_rect.c ****                     mask_res = LV_DRAW_MASK_RES_CHANGED;
 881:Middlewares/lvgl/src/draw/lv_draw_rect.c ****                 }
 882:Middlewares/lvgl/src/draw/lv_draw_rect.c ****                 else {
 883:Middlewares/lvgl/src/draw/lv_draw_rect.c ****                     mask_res = lv_draw_mask_apply(mask_buf, fa.x1, fa.y1, w);
 884:Middlewares/lvgl/src/draw/lv_draw_rect.c ****                     if(mask_res == LV_DRAW_MASK_RES_FULL_COVER) mask_res = LV_DRAW_MASK_RES_CHANGED
 885:Middlewares/lvgl/src/draw/lv_draw_rect.c ****                 }
 886:Middlewares/lvgl/src/draw/lv_draw_rect.c **** 
ARM GAS  /tmp/ccUpPomB.s 			page 17


 887:Middlewares/lvgl/src/draw/lv_draw_rect.c ****                 _lv_blend_fill(clip, &fa,
 888:Middlewares/lvgl/src/draw/lv_draw_rect.c ****                                dsc->shadow_color, mask_buf, mask_res, dsc->shadow_opa, dsc->blend_m
 889:Middlewares/lvgl/src/draw/lv_draw_rect.c ****                 fa.y1++;
 890:Middlewares/lvgl/src/draw/lv_draw_rect.c ****                 fa.y2++;
 891:Middlewares/lvgl/src/draw/lv_draw_rect.c ****             }
 892:Middlewares/lvgl/src/draw/lv_draw_rect.c ****         }
 893:Middlewares/lvgl/src/draw/lv_draw_rect.c ****     }
 894:Middlewares/lvgl/src/draw/lv_draw_rect.c **** 
 895:Middlewares/lvgl/src/draw/lv_draw_rect.c ****     /*Fill the top side*/
 896:Middlewares/lvgl/src/draw/lv_draw_rect.c ****     a.x1 = sh_area.x1 + corner_size;
 897:Middlewares/lvgl/src/draw/lv_draw_rect.c ****     a.x2 = sh_area.x2 - corner_size;
 898:Middlewares/lvgl/src/draw/lv_draw_rect.c ****     a.y1 = sh_area.y1;
 899:Middlewares/lvgl/src/draw/lv_draw_rect.c ****     a.y2 = sh_area.y1 + corner_size - 1;
 900:Middlewares/lvgl/src/draw/lv_draw_rect.c **** 
 901:Middlewares/lvgl/src/draw/lv_draw_rect.c ****     has_com = _lv_area_intersect(&ca, &a, clip);
 902:Middlewares/lvgl/src/draw/lv_draw_rect.c ****     if(has_com && _lv_area_is_in(&a, &bg_coords, r_bg) == false) {
 903:Middlewares/lvgl/src/draw/lv_draw_rect.c ****         /*Avoid overlap in the middle with large radius*/
 904:Middlewares/lvgl/src/draw/lv_draw_rect.c ****         if(ca.y2 > h_half) ca.y2 = h_half;
 905:Middlewares/lvgl/src/draw/lv_draw_rect.c **** 
 906:Middlewares/lvgl/src/draw/lv_draw_rect.c ****         if(simple_mode) ca.y2 = LV_MIN(ca.y2, coords->y1);
 907:Middlewares/lvgl/src/draw/lv_draw_rect.c **** 
 908:Middlewares/lvgl/src/draw/lv_draw_rect.c ****         /*Draw horizontal lines*/
 909:Middlewares/lvgl/src/draw/lv_draw_rect.c ****         lv_coord_t w = lv_area_get_width(&ca);
 910:Middlewares/lvgl/src/draw/lv_draw_rect.c ****         lv_coord_t h = lv_area_get_height(&ca);
 911:Middlewares/lvgl/src/draw/lv_draw_rect.c ****         sh_buf_tmp = sh_buf + corner_size - 1;
 912:Middlewares/lvgl/src/draw/lv_draw_rect.c ****         sh_buf_tmp += corner_size * (ca.y1 - a.y1);
 913:Middlewares/lvgl/src/draw/lv_draw_rect.c **** 
 914:Middlewares/lvgl/src/draw/lv_draw_rect.c ****         lv_area_t fa;
 915:Middlewares/lvgl/src/draw/lv_draw_rect.c ****         lv_area_copy(&fa, &ca);
 916:Middlewares/lvgl/src/draw/lv_draw_rect.c ****         fa.y2 = fa.y1;
 917:Middlewares/lvgl/src/draw/lv_draw_rect.c ****         mask_res = LV_DRAW_MASK_RES_FULL_COVER;
 918:Middlewares/lvgl/src/draw/lv_draw_rect.c ****         for(y = 0; y < h; y++) {
 919:Middlewares/lvgl/src/draw/lv_draw_rect.c ****             lv_opa_t opa_tmp = sh_buf_tmp[0];
 920:Middlewares/lvgl/src/draw/lv_draw_rect.c ****             if(opa_tmp != LV_OPA_COVER || opa != LV_OPA_COVER) opa_tmp = (opa * opa_tmp) >> 8;
 921:Middlewares/lvgl/src/draw/lv_draw_rect.c **** 
 922:Middlewares/lvgl/src/draw/lv_draw_rect.c ****             lv_memset(mask_buf, opa_tmp, w);
 923:Middlewares/lvgl/src/draw/lv_draw_rect.c **** 
 924:Middlewares/lvgl/src/draw/lv_draw_rect.c ****             if(simple_mode) {
 925:Middlewares/lvgl/src/draw/lv_draw_rect.c ****                 mask_res = LV_DRAW_MASK_RES_CHANGED;
 926:Middlewares/lvgl/src/draw/lv_draw_rect.c ****             }
 927:Middlewares/lvgl/src/draw/lv_draw_rect.c ****             else {
 928:Middlewares/lvgl/src/draw/lv_draw_rect.c ****                 mask_res = lv_draw_mask_apply(mask_buf, fa.x1, fa.y1, w);
 929:Middlewares/lvgl/src/draw/lv_draw_rect.c ****                 if(mask_res == LV_DRAW_MASK_RES_FULL_COVER) mask_res = LV_DRAW_MASK_RES_CHANGED;
 930:Middlewares/lvgl/src/draw/lv_draw_rect.c ****             }
 931:Middlewares/lvgl/src/draw/lv_draw_rect.c **** 
 932:Middlewares/lvgl/src/draw/lv_draw_rect.c ****             _lv_blend_fill(clip, &fa, dsc->shadow_color, mask_buf,
 933:Middlewares/lvgl/src/draw/lv_draw_rect.c ****                            mask_res, LV_OPA_COVER, dsc->blend_mode);
 934:Middlewares/lvgl/src/draw/lv_draw_rect.c ****             fa.y1++;
 935:Middlewares/lvgl/src/draw/lv_draw_rect.c ****             fa.y2++;
 936:Middlewares/lvgl/src/draw/lv_draw_rect.c ****             sh_buf_tmp += corner_size;
 937:Middlewares/lvgl/src/draw/lv_draw_rect.c ****         }
 938:Middlewares/lvgl/src/draw/lv_draw_rect.c ****     }
 939:Middlewares/lvgl/src/draw/lv_draw_rect.c **** 
 940:Middlewares/lvgl/src/draw/lv_draw_rect.c ****     /*Fill the bottom side*/
 941:Middlewares/lvgl/src/draw/lv_draw_rect.c ****     a.x1 = sh_area.x1 + corner_size;
 942:Middlewares/lvgl/src/draw/lv_draw_rect.c ****     a.x2 = sh_area.x2 - corner_size;
 943:Middlewares/lvgl/src/draw/lv_draw_rect.c ****     a.y1 = sh_area.y2 - corner_size + 1;
ARM GAS  /tmp/ccUpPomB.s 			page 18


 944:Middlewares/lvgl/src/draw/lv_draw_rect.c ****     a.y2 = sh_area.y2;
 945:Middlewares/lvgl/src/draw/lv_draw_rect.c **** 
 946:Middlewares/lvgl/src/draw/lv_draw_rect.c ****     has_com = _lv_area_intersect(&ca, &a, clip);
 947:Middlewares/lvgl/src/draw/lv_draw_rect.c ****     if(has_com && _lv_area_is_in(&a, &bg_coords, r_bg) == false) {
 948:Middlewares/lvgl/src/draw/lv_draw_rect.c ****         /*Avoid overlap in the middle with large radius*/
 949:Middlewares/lvgl/src/draw/lv_draw_rect.c ****         if(ca.y1 <= h_half) ca.y1 = h_half + 1;
 950:Middlewares/lvgl/src/draw/lv_draw_rect.c **** 
 951:Middlewares/lvgl/src/draw/lv_draw_rect.c ****         if(simple_mode) ca.y1 = LV_MAX(ca.y1, coords->y2);
 952:Middlewares/lvgl/src/draw/lv_draw_rect.c **** 
 953:Middlewares/lvgl/src/draw/lv_draw_rect.c ****         /*Draw horizontal lines*/
 954:Middlewares/lvgl/src/draw/lv_draw_rect.c ****         lv_coord_t w = lv_area_get_width(&ca);
 955:Middlewares/lvgl/src/draw/lv_draw_rect.c ****         lv_coord_t h = lv_area_get_height(&ca);
 956:Middlewares/lvgl/src/draw/lv_draw_rect.c ****         sh_buf_tmp = sh_buf + corner_size - 1;
 957:Middlewares/lvgl/src/draw/lv_draw_rect.c ****         sh_buf_tmp += corner_size * (a.y2 - ca.y2);
 958:Middlewares/lvgl/src/draw/lv_draw_rect.c **** 
 959:Middlewares/lvgl/src/draw/lv_draw_rect.c ****         lv_area_t fa;
 960:Middlewares/lvgl/src/draw/lv_draw_rect.c ****         lv_area_copy(&fa, &ca);
 961:Middlewares/lvgl/src/draw/lv_draw_rect.c ****         fa.y1 = fa.y2;
 962:Middlewares/lvgl/src/draw/lv_draw_rect.c ****         for(y = 0; y < h; y++) {
 963:Middlewares/lvgl/src/draw/lv_draw_rect.c ****             lv_opa_t opa_tmp = sh_buf_tmp[0];
 964:Middlewares/lvgl/src/draw/lv_draw_rect.c ****             if(opa_tmp != LV_OPA_COVER || opa != LV_OPA_COVER) opa_tmp = (opa * opa_tmp) >> 8;
 965:Middlewares/lvgl/src/draw/lv_draw_rect.c **** 
 966:Middlewares/lvgl/src/draw/lv_draw_rect.c ****             lv_memset(mask_buf, opa_tmp, w);
 967:Middlewares/lvgl/src/draw/lv_draw_rect.c ****             if(simple_mode) {
 968:Middlewares/lvgl/src/draw/lv_draw_rect.c ****                 mask_res = LV_DRAW_MASK_RES_CHANGED;
 969:Middlewares/lvgl/src/draw/lv_draw_rect.c ****             }
 970:Middlewares/lvgl/src/draw/lv_draw_rect.c ****             else {
 971:Middlewares/lvgl/src/draw/lv_draw_rect.c ****                 mask_res = lv_draw_mask_apply(mask_buf, fa.x1, fa.y1, w);
 972:Middlewares/lvgl/src/draw/lv_draw_rect.c ****                 if(mask_res == LV_DRAW_MASK_RES_FULL_COVER) mask_res = LV_DRAW_MASK_RES_CHANGED;
 973:Middlewares/lvgl/src/draw/lv_draw_rect.c ****             }
 974:Middlewares/lvgl/src/draw/lv_draw_rect.c **** 
 975:Middlewares/lvgl/src/draw/lv_draw_rect.c ****             _lv_blend_fill(clip, &fa, dsc->shadow_color, mask_buf,
 976:Middlewares/lvgl/src/draw/lv_draw_rect.c ****                            mask_res, LV_OPA_COVER, dsc->blend_mode);
 977:Middlewares/lvgl/src/draw/lv_draw_rect.c ****             fa.y1--;
 978:Middlewares/lvgl/src/draw/lv_draw_rect.c ****             fa.y2--;
 979:Middlewares/lvgl/src/draw/lv_draw_rect.c ****             sh_buf_tmp += corner_size;
 980:Middlewares/lvgl/src/draw/lv_draw_rect.c ****         }
 981:Middlewares/lvgl/src/draw/lv_draw_rect.c ****     }
 982:Middlewares/lvgl/src/draw/lv_draw_rect.c **** 
 983:Middlewares/lvgl/src/draw/lv_draw_rect.c ****     /*Draw the middle area*/
 984:Middlewares/lvgl/src/draw/lv_draw_rect.c ****     a.x1 = sh_area.x1 + corner_size;
 985:Middlewares/lvgl/src/draw/lv_draw_rect.c ****     a.x2 = sh_area.x2 - corner_size;
 986:Middlewares/lvgl/src/draw/lv_draw_rect.c ****     a.y1 = sh_area.y1 + corner_size;
 987:Middlewares/lvgl/src/draw/lv_draw_rect.c ****     a.y2 = sh_area.y2 - corner_size;
 988:Middlewares/lvgl/src/draw/lv_draw_rect.c **** 
 989:Middlewares/lvgl/src/draw/lv_draw_rect.c ****     has_com = _lv_area_intersect(&ca, &a, clip);
 990:Middlewares/lvgl/src/draw/lv_draw_rect.c ****     if(has_com && simple_mode == false &&  _lv_area_is_in(&a, &bg_coords, r_bg) == false) {
 991:Middlewares/lvgl/src/draw/lv_draw_rect.c ****         /*Draw horizontal lines*/
 992:Middlewares/lvgl/src/draw/lv_draw_rect.c ****         lv_coord_t w = lv_area_get_width(&ca);
 993:Middlewares/lvgl/src/draw/lv_draw_rect.c ****         lv_coord_t h = lv_area_get_height(&ca);
 994:Middlewares/lvgl/src/draw/lv_draw_rect.c **** 
 995:Middlewares/lvgl/src/draw/lv_draw_rect.c ****         lv_area_t fa;
 996:Middlewares/lvgl/src/draw/lv_draw_rect.c ****         lv_area_copy(&fa, &ca);
 997:Middlewares/lvgl/src/draw/lv_draw_rect.c ****         fa.y2 = fa.y1;
 998:Middlewares/lvgl/src/draw/lv_draw_rect.c ****         for(y = 0; y < h; y++) {
 999:Middlewares/lvgl/src/draw/lv_draw_rect.c ****             lv_memset(mask_buf, dsc->shadow_opa, w);
1000:Middlewares/lvgl/src/draw/lv_draw_rect.c ****             mask_res = lv_draw_mask_apply(mask_buf, fa.x1, fa.y1, w);
ARM GAS  /tmp/ccUpPomB.s 			page 19


1001:Middlewares/lvgl/src/draw/lv_draw_rect.c ****             if(mask_res == LV_DRAW_MASK_RES_FULL_COVER) mask_res = LV_DRAW_MASK_RES_CHANGED;
1002:Middlewares/lvgl/src/draw/lv_draw_rect.c **** 
1003:Middlewares/lvgl/src/draw/lv_draw_rect.c ****             _lv_blend_fill(clip, &fa, dsc->shadow_color, mask_buf,
1004:Middlewares/lvgl/src/draw/lv_draw_rect.c ****                            mask_res, LV_OPA_COVER, dsc->blend_mode);
1005:Middlewares/lvgl/src/draw/lv_draw_rect.c ****             fa.y1++;
1006:Middlewares/lvgl/src/draw/lv_draw_rect.c ****             fa.y2++;
1007:Middlewares/lvgl/src/draw/lv_draw_rect.c ****         }
1008:Middlewares/lvgl/src/draw/lv_draw_rect.c ****     }
1009:Middlewares/lvgl/src/draw/lv_draw_rect.c **** 
1010:Middlewares/lvgl/src/draw/lv_draw_rect.c ****     lv_draw_mask_remove_id(mask_rout_id);
1011:Middlewares/lvgl/src/draw/lv_draw_rect.c ****     lv_mem_buf_release(mask_buf);
1012:Middlewares/lvgl/src/draw/lv_draw_rect.c ****     lv_mem_buf_release(sh_buf);
1013:Middlewares/lvgl/src/draw/lv_draw_rect.c **** }
1014:Middlewares/lvgl/src/draw/lv_draw_rect.c **** 
1015:Middlewares/lvgl/src/draw/lv_draw_rect.c **** /**
1016:Middlewares/lvgl/src/draw/lv_draw_rect.c ****  * Calculate a blurred corner
1017:Middlewares/lvgl/src/draw/lv_draw_rect.c ****  * @param coords Coordinates of the shadow
1018:Middlewares/lvgl/src/draw/lv_draw_rect.c ****  * @param sh_buf a buffer to store the result. It's size should be `(sw + r)^2 * 2`
1019:Middlewares/lvgl/src/draw/lv_draw_rect.c ****  * @param sw shadow width
1020:Middlewares/lvgl/src/draw/lv_draw_rect.c ****  * @param r radius
1021:Middlewares/lvgl/src/draw/lv_draw_rect.c ****  */
1022:Middlewares/lvgl/src/draw/lv_draw_rect.c **** LV_ATTRIBUTE_FAST_MEM static void shadow_draw_corner_buf(const lv_area_t * coords, uint16_t * sh_bu
1023:Middlewares/lvgl/src/draw/lv_draw_rect.c ****                                                          lv_coord_t r)
1024:Middlewares/lvgl/src/draw/lv_draw_rect.c **** {
1025:Middlewares/lvgl/src/draw/lv_draw_rect.c ****     int32_t sw_ori = sw;
1026:Middlewares/lvgl/src/draw/lv_draw_rect.c ****     int32_t size = sw_ori  + r;
1027:Middlewares/lvgl/src/draw/lv_draw_rect.c **** 
1028:Middlewares/lvgl/src/draw/lv_draw_rect.c ****     lv_area_t sh_area;
1029:Middlewares/lvgl/src/draw/lv_draw_rect.c ****     lv_area_copy(&sh_area, coords);
1030:Middlewares/lvgl/src/draw/lv_draw_rect.c ****     sh_area.x2 = sw / 2 + r - 1  - ((sw & 1) ? 0 : 1);
1031:Middlewares/lvgl/src/draw/lv_draw_rect.c ****     sh_area.y1 = sw / 2 + 1;
1032:Middlewares/lvgl/src/draw/lv_draw_rect.c **** 
1033:Middlewares/lvgl/src/draw/lv_draw_rect.c ****     sh_area.x1 = sh_area.x2 - lv_area_get_width(coords);
1034:Middlewares/lvgl/src/draw/lv_draw_rect.c ****     sh_area.y2 = sh_area.y1 + lv_area_get_height(coords);
1035:Middlewares/lvgl/src/draw/lv_draw_rect.c **** 
1036:Middlewares/lvgl/src/draw/lv_draw_rect.c ****     lv_draw_mask_radius_param_t mask_param;
1037:Middlewares/lvgl/src/draw/lv_draw_rect.c ****     lv_draw_mask_radius_init(&mask_param, &sh_area, r, false);
1038:Middlewares/lvgl/src/draw/lv_draw_rect.c **** 
1039:Middlewares/lvgl/src/draw/lv_draw_rect.c **** #if SHADOW_ENHANCE
1040:Middlewares/lvgl/src/draw/lv_draw_rect.c ****     /*Set half shadow width width because blur will be repeated*/
1041:Middlewares/lvgl/src/draw/lv_draw_rect.c ****     if(sw_ori == 1) sw = 1;
1042:Middlewares/lvgl/src/draw/lv_draw_rect.c ****     else sw = sw_ori >> 1;
1043:Middlewares/lvgl/src/draw/lv_draw_rect.c **** #endif
1044:Middlewares/lvgl/src/draw/lv_draw_rect.c **** 
1045:Middlewares/lvgl/src/draw/lv_draw_rect.c ****     int32_t y;
1046:Middlewares/lvgl/src/draw/lv_draw_rect.c ****     lv_opa_t * mask_line = lv_mem_buf_get(size);
1047:Middlewares/lvgl/src/draw/lv_draw_rect.c ****     uint16_t * sh_ups_tmp_buf = (uint16_t *)sh_buf;
1048:Middlewares/lvgl/src/draw/lv_draw_rect.c ****     for(y = 0; y < size; y++) {
1049:Middlewares/lvgl/src/draw/lv_draw_rect.c ****         lv_memset_ff(mask_line, size);
1050:Middlewares/lvgl/src/draw/lv_draw_rect.c ****         lv_draw_mask_res_t mask_res = mask_param.dsc.cb(mask_line, 0, y, size, &mask_param);
1051:Middlewares/lvgl/src/draw/lv_draw_rect.c ****         if(mask_res == LV_DRAW_MASK_RES_TRANSP) {
1052:Middlewares/lvgl/src/draw/lv_draw_rect.c ****             lv_memset_00(sh_ups_tmp_buf, size * sizeof(sh_ups_tmp_buf[0]));
1053:Middlewares/lvgl/src/draw/lv_draw_rect.c ****         }
1054:Middlewares/lvgl/src/draw/lv_draw_rect.c ****         else {
1055:Middlewares/lvgl/src/draw/lv_draw_rect.c ****             int32_t i;
1056:Middlewares/lvgl/src/draw/lv_draw_rect.c ****             sh_ups_tmp_buf[0] = (mask_line[0] << SHADOW_UPSCALE_SHIFT) / sw;
1057:Middlewares/lvgl/src/draw/lv_draw_rect.c ****             for(i = 1; i < size; i++) {
ARM GAS  /tmp/ccUpPomB.s 			page 20


1058:Middlewares/lvgl/src/draw/lv_draw_rect.c ****                 if(mask_line[i] == mask_line[i - 1]) sh_ups_tmp_buf[i] = sh_ups_tmp_buf[i - 1];
1059:Middlewares/lvgl/src/draw/lv_draw_rect.c ****                 else  sh_ups_tmp_buf[i] = (mask_line[i] << SHADOW_UPSCALE_SHIFT) / sw;
1060:Middlewares/lvgl/src/draw/lv_draw_rect.c ****             }
1061:Middlewares/lvgl/src/draw/lv_draw_rect.c ****         }
1062:Middlewares/lvgl/src/draw/lv_draw_rect.c **** 
1063:Middlewares/lvgl/src/draw/lv_draw_rect.c ****         sh_ups_tmp_buf += size;
1064:Middlewares/lvgl/src/draw/lv_draw_rect.c ****     }
1065:Middlewares/lvgl/src/draw/lv_draw_rect.c ****     lv_mem_buf_release(mask_line);
1066:Middlewares/lvgl/src/draw/lv_draw_rect.c **** 
1067:Middlewares/lvgl/src/draw/lv_draw_rect.c ****     if(sw == 1) {
1068:Middlewares/lvgl/src/draw/lv_draw_rect.c ****         int32_t i;
1069:Middlewares/lvgl/src/draw/lv_draw_rect.c ****         lv_opa_t * res_buf = (lv_opa_t *)sh_buf;
1070:Middlewares/lvgl/src/draw/lv_draw_rect.c ****         for(i = 0; i < size * size; i++) {
1071:Middlewares/lvgl/src/draw/lv_draw_rect.c ****             res_buf[i] = (sh_buf[i] >> SHADOW_UPSCALE_SHIFT);
1072:Middlewares/lvgl/src/draw/lv_draw_rect.c ****         }
1073:Middlewares/lvgl/src/draw/lv_draw_rect.c ****         return;
1074:Middlewares/lvgl/src/draw/lv_draw_rect.c ****     }
1075:Middlewares/lvgl/src/draw/lv_draw_rect.c **** 
1076:Middlewares/lvgl/src/draw/lv_draw_rect.c ****     shadow_blur_corner(size, sw, sh_buf);
1077:Middlewares/lvgl/src/draw/lv_draw_rect.c **** 
1078:Middlewares/lvgl/src/draw/lv_draw_rect.c **** #if SHADOW_ENHANCE == 0
1079:Middlewares/lvgl/src/draw/lv_draw_rect.c ****     /*The result is required in lv_opa_t not uint16_t*/
1080:Middlewares/lvgl/src/draw/lv_draw_rect.c ****     uint32_t x;
1081:Middlewares/lvgl/src/draw/lv_draw_rect.c ****     lv_opa_t * res_buf = (lv_opa_t *)sh_buf;
1082:Middlewares/lvgl/src/draw/lv_draw_rect.c ****     for(x = 0; x < size * size; x++) {
1083:Middlewares/lvgl/src/draw/lv_draw_rect.c ****         res_buf[x] = sh_buf[x];
1084:Middlewares/lvgl/src/draw/lv_draw_rect.c ****     }
1085:Middlewares/lvgl/src/draw/lv_draw_rect.c **** #else
1086:Middlewares/lvgl/src/draw/lv_draw_rect.c ****     sw += sw_ori & 1;
1087:Middlewares/lvgl/src/draw/lv_draw_rect.c ****     if(sw > 1) {
1088:Middlewares/lvgl/src/draw/lv_draw_rect.c ****         uint32_t i;
1089:Middlewares/lvgl/src/draw/lv_draw_rect.c ****         sh_buf[0] = (sh_buf[0] << SHADOW_UPSCALE_SHIFT) / sw;
1090:Middlewares/lvgl/src/draw/lv_draw_rect.c ****         for(i = 1; i < (uint32_t) size * size; i++) {
1091:Middlewares/lvgl/src/draw/lv_draw_rect.c ****             if(sh_buf[i] == sh_buf[i - 1]) sh_buf[i] = sh_buf[i - 1];
1092:Middlewares/lvgl/src/draw/lv_draw_rect.c ****             else  sh_buf[i] = (sh_buf[i] << SHADOW_UPSCALE_SHIFT) / sw;
1093:Middlewares/lvgl/src/draw/lv_draw_rect.c ****         }
1094:Middlewares/lvgl/src/draw/lv_draw_rect.c **** 
1095:Middlewares/lvgl/src/draw/lv_draw_rect.c ****         shadow_blur_corner(size, sw, sh_buf);
1096:Middlewares/lvgl/src/draw/lv_draw_rect.c ****     }
1097:Middlewares/lvgl/src/draw/lv_draw_rect.c ****     int32_t x;
1098:Middlewares/lvgl/src/draw/lv_draw_rect.c ****     lv_opa_t * res_buf = (lv_opa_t *)sh_buf;
1099:Middlewares/lvgl/src/draw/lv_draw_rect.c ****     for(x = 0; x < size * size; x++) {
1100:Middlewares/lvgl/src/draw/lv_draw_rect.c ****         res_buf[x] = sh_buf[x];
1101:Middlewares/lvgl/src/draw/lv_draw_rect.c ****     }
1102:Middlewares/lvgl/src/draw/lv_draw_rect.c **** #endif
1103:Middlewares/lvgl/src/draw/lv_draw_rect.c **** 
1104:Middlewares/lvgl/src/draw/lv_draw_rect.c **** }
1105:Middlewares/lvgl/src/draw/lv_draw_rect.c **** 
1106:Middlewares/lvgl/src/draw/lv_draw_rect.c **** LV_ATTRIBUTE_FAST_MEM static void shadow_blur_corner(lv_coord_t size, lv_coord_t sw, uint16_t * sh_
1107:Middlewares/lvgl/src/draw/lv_draw_rect.c **** {
  28              		.loc 1 1107 1 view -0
  29              		.cfi_startproc
  30              		@ args = 0, pretend = 0, frame = 8
  31              		@ frame_needed = 0, uses_anonymous_args = 0
  32              		.loc 1 1107 1 is_stmt 0 view .LVU1
  33 0000 2DE9F04F 		push	{r4, r5, r6, r7, r8, r9, r10, fp, lr}
  34              	.LCFI0:
ARM GAS  /tmp/ccUpPomB.s 			page 21


  35              		.cfi_def_cfa_offset 36
  36              		.cfi_offset 4, -36
  37              		.cfi_offset 5, -32
  38              		.cfi_offset 6, -28
  39              		.cfi_offset 7, -24
  40              		.cfi_offset 8, -20
  41              		.cfi_offset 9, -16
  42              		.cfi_offset 10, -12
  43              		.cfi_offset 11, -8
  44              		.cfi_offset 14, -4
  45 0004 83B0     		sub	sp, sp, #12
  46              	.LCFI1:
  47              		.cfi_def_cfa_offset 48
  48 0006 0446     		mov	r4, r0
  49 0008 0191     		str	r1, [sp, #4]
  50 000a 1646     		mov	r6, r2
1108:Middlewares/lvgl/src/draw/lv_draw_rect.c ****     int32_t s_left = sw >> 1;
  51              		.loc 1 1108 5 is_stmt 1 view .LVU2
  52              		.loc 1 1108 25 is_stmt 0 view .LVU3
  53 000c 4FEA6108 		asr	r8, r1, #1
  54              	.LVL1:
1109:Middlewares/lvgl/src/draw/lv_draw_rect.c ****     int32_t s_right = (sw >> 1);
  55              		.loc 1 1109 5 is_stmt 1 view .LVU4
1110:Middlewares/lvgl/src/draw/lv_draw_rect.c ****     if((sw & 1) == 0) s_left--;
  56              		.loc 1 1110 5 view .LVU5
  57              		.loc 1 1110 7 is_stmt 0 view .LVU6
  58 0010 11F0010F 		tst	r1, #1
  59 0014 02D1     		bne	.L25
  60              		.loc 1 1110 23 is_stmt 1 discriminator 1 view .LVU7
  61              		.loc 1 1110 29 is_stmt 0 discriminator 1 view .LVU8
  62 0016 08F1FF39 		add	r9, r8, #-1
  63              	.LVL2:
  64              		.loc 1 1110 29 discriminator 1 view .LVU9
  65 001a 00E0     		b	.L2
  66              	.LVL3:
  67              	.L25:
1108:Middlewares/lvgl/src/draw/lv_draw_rect.c ****     int32_t s_left = sw >> 1;
  68              		.loc 1 1108 13 view .LVU10
  69 001c C146     		mov	r9, r8
  70              	.LVL4:
  71              	.L2:
1111:Middlewares/lvgl/src/draw/lv_draw_rect.c **** 
1112:Middlewares/lvgl/src/draw/lv_draw_rect.c ****     /*Horizontal blur*/
1113:Middlewares/lvgl/src/draw/lv_draw_rect.c ****     uint16_t * sh_ups_blur_buf = lv_mem_buf_get(size * sizeof(uint16_t));
  72              		.loc 1 1113 5 is_stmt 1 view .LVU11
  73              		.loc 1 1113 54 is_stmt 0 view .LVU12
  74 001e 6700     		lsls	r7, r4, #1
  75              		.loc 1 1113 34 view .LVU13
  76 0020 3846     		mov	r0, r7
  77              	.LVL5:
  78              		.loc 1 1113 34 view .LVU14
  79 0022 FFF7FEFF 		bl	lv_mem_buf_get
  80              	.LVL6:
  81              		.loc 1 1113 34 view .LVU15
  82 0026 0546     		mov	r5, r0
  83              	.LVL7:
1114:Middlewares/lvgl/src/draw/lv_draw_rect.c **** 
ARM GAS  /tmp/ccUpPomB.s 			page 22


1115:Middlewares/lvgl/src/draw/lv_draw_rect.c ****     int32_t x;
  84              		.loc 1 1115 5 is_stmt 1 view .LVU16
1116:Middlewares/lvgl/src/draw/lv_draw_rect.c ****     int32_t y;
  85              		.loc 1 1116 5 view .LVU17
1117:Middlewares/lvgl/src/draw/lv_draw_rect.c **** 
1118:Middlewares/lvgl/src/draw/lv_draw_rect.c ****     uint16_t * sh_ups_tmp_buf = sh_ups_buf;
  86              		.loc 1 1118 5 view .LVU18
1119:Middlewares/lvgl/src/draw/lv_draw_rect.c **** 
1120:Middlewares/lvgl/src/draw/lv_draw_rect.c ****     for(y = 0; y < size; y++) {
  87              		.loc 1 1120 5 view .LVU19
1118:Middlewares/lvgl/src/draw/lv_draw_rect.c **** 
  88              		.loc 1 1118 16 is_stmt 0 view .LVU20
  89 0028 B246     		mov	r10, r6
  90              		.loc 1 1120 11 view .LVU21
  91 002a 4FF0000B 		mov	fp, #0
  92              		.loc 1 1120 5 view .LVU22
  93 002e 22E0     		b	.L3
  94              	.LVL8:
  95              	.L26:
  96              	.LBB189:
  97              	.LBB190:
1121:Middlewares/lvgl/src/draw/lv_draw_rect.c ****         int32_t v = sh_ups_tmp_buf[size - 1] * sw;
1122:Middlewares/lvgl/src/draw/lv_draw_rect.c ****         for(x = size - 1; x >= 0; x--) {
1123:Middlewares/lvgl/src/draw/lv_draw_rect.c ****             sh_ups_blur_buf[x] = v;
1124:Middlewares/lvgl/src/draw/lv_draw_rect.c **** 
1125:Middlewares/lvgl/src/draw/lv_draw_rect.c ****             /*Forget the right pixel*/
1126:Middlewares/lvgl/src/draw/lv_draw_rect.c ****             uint32_t right_val = 0;
  98              		.loc 1 1126 22 view .LVU23
  99 0030 0021     		movs	r1, #0
 100              	.LVL9:
 101              	.L5:
1127:Middlewares/lvgl/src/draw/lv_draw_rect.c ****             if(x + s_right < size) right_val = sh_ups_tmp_buf[x + s_right];
1128:Middlewares/lvgl/src/draw/lv_draw_rect.c ****             v -= right_val;
 102              		.loc 1 1128 13 is_stmt 1 view .LVU24
 103              		.loc 1 1128 15 is_stmt 0 view .LVU25
 104 0032 521A     		subs	r2, r2, r1
 105              	.LVL10:
1129:Middlewares/lvgl/src/draw/lv_draw_rect.c **** 
1130:Middlewares/lvgl/src/draw/lv_draw_rect.c ****             /*Add the left pixel*/
1131:Middlewares/lvgl/src/draw/lv_draw_rect.c ****             uint32_t left_val;
 106              		.loc 1 1131 13 is_stmt 1 view .LVU26
1132:Middlewares/lvgl/src/draw/lv_draw_rect.c ****             if(x - s_left - 1 < 0) left_val = sh_ups_tmp_buf[0];
 107              		.loc 1 1132 13 view .LVU27
 108              		.loc 1 1132 18 is_stmt 0 view .LVU28
 109 0034 A3EB0901 		sub	r1, r3, r9
 110              	.LVL11:
 111              		.loc 1 1132 15 view .LVU29
 112 0038 0029     		cmp	r1, #0
 113 003a 11DD     		ble	.L29
1133:Middlewares/lvgl/src/draw/lv_draw_rect.c ****             else left_val = sh_ups_tmp_buf[x - s_left - 1];
 114              		.loc 1 1133 18 is_stmt 1 view .LVU30
 115              		.loc 1 1133 43 is_stmt 0 view .LVU31
 116 003c 6FF00040 		mvn	r0, #-2147483648
 117 0040 0844     		add	r0, r0, r1
 118 0042 3AF81010 		ldrh	r1, [r10, r0, lsl #1]
 119              	.LVL12:
 120              	.L7:
ARM GAS  /tmp/ccUpPomB.s 			page 23


1134:Middlewares/lvgl/src/draw/lv_draw_rect.c ****             v += left_val;
 121              		.loc 1 1134 13 is_stmt 1 discriminator 2 view .LVU32
 122              		.loc 1 1134 15 is_stmt 0 discriminator 2 view .LVU33
 123 0046 0A44     		add	r2, r2, r1
 124              	.LVL13:
 125              		.loc 1 1134 15 discriminator 2 view .LVU34
 126              	.LBE190:
1122:Middlewares/lvgl/src/draw/lv_draw_rect.c ****             sh_ups_blur_buf[x] = v;
 127              		.loc 1 1122 35 is_stmt 1 discriminator 2 view .LVU35
1122:Middlewares/lvgl/src/draw/lv_draw_rect.c ****             sh_ups_blur_buf[x] = v;
 128              		.loc 1 1122 36 is_stmt 0 discriminator 2 view .LVU36
 129 0048 013B     		subs	r3, r3, #1
 130              	.LVL14:
 131              	.L4:
1122:Middlewares/lvgl/src/draw/lv_draw_rect.c ****             sh_ups_blur_buf[x] = v;
 132              		.loc 1 1122 27 is_stmt 1 discriminator 1 view .LVU37
1122:Middlewares/lvgl/src/draw/lv_draw_rect.c ****             sh_ups_blur_buf[x] = v;
 133              		.loc 1 1122 9 is_stmt 0 discriminator 1 view .LVU38
 134 004a 002B     		cmp	r3, #0
 135 004c 0BDB     		blt	.L30
 136              	.LBB191:
1123:Middlewares/lvgl/src/draw/lv_draw_rect.c **** 
 137              		.loc 1 1123 13 is_stmt 1 view .LVU39
1123:Middlewares/lvgl/src/draw/lv_draw_rect.c **** 
 138              		.loc 1 1123 32 is_stmt 0 view .LVU40
 139 004e 25F81320 		strh	r2, [r5, r3, lsl #1]	@ movhi
1126:Middlewares/lvgl/src/draw/lv_draw_rect.c ****             if(x + s_right < size) right_val = sh_ups_tmp_buf[x + s_right];
 140              		.loc 1 1126 13 is_stmt 1 view .LVU41
 141              	.LVL15:
1127:Middlewares/lvgl/src/draw/lv_draw_rect.c ****             v -= right_val;
 142              		.loc 1 1127 13 view .LVU42
1127:Middlewares/lvgl/src/draw/lv_draw_rect.c ****             v -= right_val;
 143              		.loc 1 1127 18 is_stmt 0 view .LVU43
 144 0052 03EB0801 		add	r1, r3, r8
1127:Middlewares/lvgl/src/draw/lv_draw_rect.c ****             v -= right_val;
 145              		.loc 1 1127 15 view .LVU44
 146 0056 A142     		cmp	r1, r4
 147 0058 EADA     		bge	.L26
1127:Middlewares/lvgl/src/draw/lv_draw_rect.c ****             v -= right_val;
 148              		.loc 1 1127 36 is_stmt 1 discriminator 1 view .LVU45
1127:Middlewares/lvgl/src/draw/lv_draw_rect.c ****             v -= right_val;
 149              		.loc 1 1127 62 is_stmt 0 discriminator 1 view .LVU46
 150 005a 3AF81110 		ldrh	r1, [r10, r1, lsl #1]
 151              	.LVL16:
1127:Middlewares/lvgl/src/draw/lv_draw_rect.c ****             v -= right_val;
 152              		.loc 1 1127 62 discriminator 1 view .LVU47
 153 005e E8E7     		b	.L5
 154              	.LVL17:
 155              	.L29:
1132:Middlewares/lvgl/src/draw/lv_draw_rect.c ****             else left_val = sh_ups_tmp_buf[x - s_left - 1];
 156              		.loc 1 1132 36 is_stmt 1 discriminator 1 view .LVU48
1132:Middlewares/lvgl/src/draw/lv_draw_rect.c ****             else left_val = sh_ups_tmp_buf[x - s_left - 1];
 157              		.loc 1 1132 61 is_stmt 0 discriminator 1 view .LVU49
 158 0060 BAF80010 		ldrh	r1, [r10]
 159              	.LVL18:
1132:Middlewares/lvgl/src/draw/lv_draw_rect.c ****             else left_val = sh_ups_tmp_buf[x - s_left - 1];
 160              		.loc 1 1132 61 discriminator 1 view .LVU50
ARM GAS  /tmp/ccUpPomB.s 			page 24


 161 0064 EFE7     		b	.L7
 162              	.LVL19:
 163              	.L30:
1132:Middlewares/lvgl/src/draw/lv_draw_rect.c ****             else left_val = sh_ups_tmp_buf[x - s_left - 1];
 164              		.loc 1 1132 61 discriminator 1 view .LVU51
 165              	.LBE191:
1135:Middlewares/lvgl/src/draw/lv_draw_rect.c ****         }
1136:Middlewares/lvgl/src/draw/lv_draw_rect.c ****         lv_memcpy(sh_ups_tmp_buf, sh_ups_blur_buf, size * sizeof(uint16_t));
 166              		.loc 1 1136 9 is_stmt 1 discriminator 2 view .LVU52
 167 0066 3A46     		mov	r2, r7
 168              	.LVL20:
 169              		.loc 1 1136 9 is_stmt 0 discriminator 2 view .LVU53
 170 0068 2946     		mov	r1, r5
 171 006a 5046     		mov	r0, r10
 172 006c FFF7FEFF 		bl	lv_memcpy
 173              	.LVL21:
1137:Middlewares/lvgl/src/draw/lv_draw_rect.c ****         sh_ups_tmp_buf += size;
 174              		.loc 1 1137 9 is_stmt 1 discriminator 2 view .LVU54
 175              		.loc 1 1137 24 is_stmt 0 discriminator 2 view .LVU55
 176 0070 BA44     		add	r10, r10, r7
 177              	.LVL22:
 178              		.loc 1 1137 24 discriminator 2 view .LVU56
 179              	.LBE189:
1120:Middlewares/lvgl/src/draw/lv_draw_rect.c ****         int32_t v = sh_ups_tmp_buf[size - 1] * sw;
 180              		.loc 1 1120 26 is_stmt 1 discriminator 2 view .LVU57
1120:Middlewares/lvgl/src/draw/lv_draw_rect.c ****         int32_t v = sh_ups_tmp_buf[size - 1] * sw;
 181              		.loc 1 1120 27 is_stmt 0 discriminator 2 view .LVU58
 182 0072 0BF1010B 		add	fp, fp, #1
 183              	.LVL23:
 184              	.L3:
1120:Middlewares/lvgl/src/draw/lv_draw_rect.c ****         int32_t v = sh_ups_tmp_buf[size - 1] * sw;
 185              		.loc 1 1120 16 is_stmt 1 discriminator 1 view .LVU59
1120:Middlewares/lvgl/src/draw/lv_draw_rect.c ****         int32_t v = sh_ups_tmp_buf[size - 1] * sw;
 186              		.loc 1 1120 5 is_stmt 0 discriminator 1 view .LVU60
 187 0076 5C45     		cmp	r4, fp
 188 0078 09DD     		ble	.L31
 189              	.LBB192:
1121:Middlewares/lvgl/src/draw/lv_draw_rect.c ****         for(x = size - 1; x >= 0; x--) {
 190              		.loc 1 1121 9 is_stmt 1 view .LVU61
1121:Middlewares/lvgl/src/draw/lv_draw_rect.c ****         for(x = size - 1; x >= 0; x--) {
 191              		.loc 1 1121 35 is_stmt 0 view .LVU62
 192 007a 6FF00043 		mvn	r3, #-2147483648
 193 007e 2344     		add	r3, r3, r4
 194 0080 3AF81320 		ldrh	r2, [r10, r3, lsl #1]
1121:Middlewares/lvgl/src/draw/lv_draw_rect.c ****         for(x = size - 1; x >= 0; x--) {
 195              		.loc 1 1121 17 view .LVU63
 196 0084 019B     		ldr	r3, [sp, #4]
 197 0086 03FB02F2 		mul	r2, r3, r2
 198              	.LVL24:
1122:Middlewares/lvgl/src/draw/lv_draw_rect.c ****             sh_ups_blur_buf[x] = v;
 199              		.loc 1 1122 9 is_stmt 1 view .LVU64
1122:Middlewares/lvgl/src/draw/lv_draw_rect.c ****             sh_ups_blur_buf[x] = v;
 200              		.loc 1 1122 15 is_stmt 0 view .LVU65
 201 008a 631E     		subs	r3, r4, #1
 202              	.LVL25:
1122:Middlewares/lvgl/src/draw/lv_draw_rect.c ****             sh_ups_blur_buf[x] = v;
 203              		.loc 1 1122 9 view .LVU66
ARM GAS  /tmp/ccUpPomB.s 			page 25


 204 008c DDE7     		b	.L4
 205              	.LVL26:
 206              	.L31:
1122:Middlewares/lvgl/src/draw/lv_draw_rect.c ****             sh_ups_blur_buf[x] = v;
 207              		.loc 1 1122 9 view .LVU67
 208              	.LBE192:
1138:Middlewares/lvgl/src/draw/lv_draw_rect.c ****     }
1139:Middlewares/lvgl/src/draw/lv_draw_rect.c **** 
1140:Middlewares/lvgl/src/draw/lv_draw_rect.c ****     /*Vertical blur*/
1141:Middlewares/lvgl/src/draw/lv_draw_rect.c ****     uint32_t i;
 209              		.loc 1 1141 5 is_stmt 1 view .LVU68
1142:Middlewares/lvgl/src/draw/lv_draw_rect.c ****     sh_ups_buf[0] = sh_ups_buf[0] / sw;
 210              		.loc 1 1142 5 view .LVU69
 211              		.loc 1 1142 31 is_stmt 0 view .LVU70
 212 008e 3388     		ldrh	r3, [r6]
 213              		.loc 1 1142 35 view .LVU71
 214 0090 019A     		ldr	r2, [sp, #4]
 215 0092 93FBF2F3 		sdiv	r3, r3, r2
 216              		.loc 1 1142 19 view .LVU72
 217 0096 3380     		strh	r3, [r6]	@ movhi
1143:Middlewares/lvgl/src/draw/lv_draw_rect.c ****     for(i = 1; i < (uint32_t)size * size; i++) {
 218              		.loc 1 1143 5 is_stmt 1 view .LVU73
 219              	.LVL27:
 220              		.loc 1 1143 11 is_stmt 0 view .LVU74
 221 0098 0123     		movs	r3, #1
 222              		.loc 1 1143 5 view .LVU75
 223 009a 02E0     		b	.L10
 224              	.LVL28:
 225              	.L33:
1144:Middlewares/lvgl/src/draw/lv_draw_rect.c ****         if(sh_ups_buf[i] == sh_ups_buf[i - 1]) sh_ups_buf[i] = sh_ups_buf[i - 1];
 226              		.loc 1 1144 48 is_stmt 1 discriminator 1 view .LVU76
 227              		.loc 1 1144 62 is_stmt 0 discriminator 1 view .LVU77
 228 009c 26F81320 		strh	r2, [r6, r3, lsl #1]	@ movhi
 229              	.L12:
1143:Middlewares/lvgl/src/draw/lv_draw_rect.c ****     for(i = 1; i < (uint32_t)size * size; i++) {
 230              		.loc 1 1143 43 is_stmt 1 discriminator 2 view .LVU78
1143:Middlewares/lvgl/src/draw/lv_draw_rect.c ****     for(i = 1; i < (uint32_t)size * size; i++) {
 231              		.loc 1 1143 44 is_stmt 0 discriminator 2 view .LVU79
 232 00a0 0133     		adds	r3, r3, #1
 233              	.LVL29:
 234              	.L10:
1143:Middlewares/lvgl/src/draw/lv_draw_rect.c ****     for(i = 1; i < (uint32_t)size * size; i++) {
 235              		.loc 1 1143 16 is_stmt 1 discriminator 1 view .LVU80
1143:Middlewares/lvgl/src/draw/lv_draw_rect.c ****     for(i = 1; i < (uint32_t)size * size; i++) {
 236              		.loc 1 1143 35 is_stmt 0 discriminator 1 view .LVU81
 237 00a2 04FB04F2 		mul	r2, r4, r4
1143:Middlewares/lvgl/src/draw/lv_draw_rect.c ****     for(i = 1; i < (uint32_t)size * size; i++) {
 238              		.loc 1 1143 5 discriminator 1 view .LVU82
 239 00a6 9A42     		cmp	r2, r3
 240 00a8 0ED9     		bls	.L32
 241              		.loc 1 1144 9 is_stmt 1 view .LVU83
 242              		.loc 1 1144 22 is_stmt 0 view .LVU84
 243 00aa 36F81310 		ldrh	r1, [r6, r3, lsl #1]
 244              		.loc 1 1144 39 view .LVU85
 245 00ae 6FF00042 		mvn	r2, #-2147483648
 246 00b2 1A44     		add	r2, r2, r3
 247 00b4 36F81220 		ldrh	r2, [r6, r2, lsl #1]
ARM GAS  /tmp/ccUpPomB.s 			page 26


 248              		.loc 1 1144 11 view .LVU86
 249 00b8 9142     		cmp	r1, r2
 250 00ba EFD0     		beq	.L33
1145:Middlewares/lvgl/src/draw/lv_draw_rect.c ****         else  sh_ups_buf[i] = sh_ups_buf[i] / sw;
 251              		.loc 1 1145 15 is_stmt 1 view .LVU87
 252              		.loc 1 1145 45 is_stmt 0 view .LVU88
 253 00bc 019A     		ldr	r2, [sp, #4]
 254 00be 91FBF2F1 		sdiv	r1, r1, r2
 255              		.loc 1 1145 29 view .LVU89
 256 00c2 26F81310 		strh	r1, [r6, r3, lsl #1]	@ movhi
 257 00c6 EBE7     		b	.L12
 258              	.L32:
1146:Middlewares/lvgl/src/draw/lv_draw_rect.c ****     }
1147:Middlewares/lvgl/src/draw/lv_draw_rect.c **** 
1148:Middlewares/lvgl/src/draw/lv_draw_rect.c ****     for(x = 0; x < size; x++) {
 259              		.loc 1 1148 11 view .LVU90
 260 00c8 4FF0000E 		mov	lr, #0
 261 00cc 32E0     		b	.L14
 262              	.LVL30:
 263              	.L27:
 264              	.LBB193:
 265              	.LBB194:
1149:Middlewares/lvgl/src/draw/lv_draw_rect.c ****         sh_ups_tmp_buf = &sh_ups_buf[x];
1150:Middlewares/lvgl/src/draw/lv_draw_rect.c ****         int32_t v = sh_ups_tmp_buf[0] * sw;
1151:Middlewares/lvgl/src/draw/lv_draw_rect.c ****         for(y = 0; y < size ; y++, sh_ups_tmp_buf += size) {
1152:Middlewares/lvgl/src/draw/lv_draw_rect.c ****             sh_ups_blur_buf[y] = v < 0 ? 0 : (v >> SHADOW_UPSCALE_SHIFT);
 266              		.loc 1 1152 32 view .LVU91
 267 00ce 0021     		movs	r1, #0
 268 00d0 10E0     		b	.L16
 269              	.L35:
1153:Middlewares/lvgl/src/draw/lv_draw_rect.c **** 
1154:Middlewares/lvgl/src/draw/lv_draw_rect.c ****             /*Forget the top pixel*/
1155:Middlewares/lvgl/src/draw/lv_draw_rect.c ****             uint32_t top_val;
1156:Middlewares/lvgl/src/draw/lv_draw_rect.c ****             if(y - s_right <= 0) top_val = sh_ups_tmp_buf[0];
 270              		.loc 1 1156 34 is_stmt 1 discriminator 1 view .LVU92
 271              		.loc 1 1156 58 is_stmt 0 discriminator 1 view .LVU93
 272 00d2 BCF80010 		ldrh	r1, [ip]
 273              	.LVL31:
 274              		.loc 1 1156 58 discriminator 1 view .LVU94
 275 00d6 17E0     		b	.L18
 276              	.LVL32:
 277              	.L19:
1157:Middlewares/lvgl/src/draw/lv_draw_rect.c ****             else top_val = sh_ups_buf[(y - s_right) * size + x];
1158:Middlewares/lvgl/src/draw/lv_draw_rect.c ****             v -= top_val;
1159:Middlewares/lvgl/src/draw/lv_draw_rect.c **** 
1160:Middlewares/lvgl/src/draw/lv_draw_rect.c ****             /*Add the bottom pixel*/
1161:Middlewares/lvgl/src/draw/lv_draw_rect.c ****             uint32_t bottom_val;
1162:Middlewares/lvgl/src/draw/lv_draw_rect.c ****             if(y + s_left + 1 < size) bottom_val = sh_ups_buf[(y + s_left + 1) * size + x];
1163:Middlewares/lvgl/src/draw/lv_draw_rect.c ****             else bottom_val = sh_ups_buf[(size - 1) * size + x];
 278              		.loc 1 1163 18 is_stmt 1 view .LVU95
 279              		.loc 1 1163 48 is_stmt 0 view .LVU96
 280 00d8 611E     		subs	r1, r4, #1
 281              		.loc 1 1163 60 view .LVU97
 282 00da 01FB04E1 		mla	r1, r1, r4, lr
 283              		.loc 1 1163 41 view .LVU98
 284 00de 36F81110 		ldrh	r1, [r6, r1, lsl #1]
 285              	.LVL33:
ARM GAS  /tmp/ccUpPomB.s 			page 27


 286              	.L20:
1164:Middlewares/lvgl/src/draw/lv_draw_rect.c ****             v += bottom_val;
 287              		.loc 1 1164 13 is_stmt 1 discriminator 2 view .LVU99
 288              		.loc 1 1164 15 is_stmt 0 discriminator 2 view .LVU100
 289 00e2 0A44     		add	r2, r2, r1
 290              	.LVL34:
 291              		.loc 1 1164 15 discriminator 2 view .LVU101
 292              	.LBE194:
1151:Middlewares/lvgl/src/draw/lv_draw_rect.c ****             sh_ups_blur_buf[y] = v < 0 ? 0 : (v >> SHADOW_UPSCALE_SHIFT);
 293              		.loc 1 1151 31 is_stmt 1 discriminator 2 view .LVU102
1151:Middlewares/lvgl/src/draw/lv_draw_rect.c ****             sh_ups_blur_buf[y] = v < 0 ? 0 : (v >> SHADOW_UPSCALE_SHIFT);
 294              		.loc 1 1151 32 is_stmt 0 discriminator 2 view .LVU103
 295 00e4 0133     		adds	r3, r3, #1
 296              	.LVL35:
1151:Middlewares/lvgl/src/draw/lv_draw_rect.c ****             sh_ups_blur_buf[y] = v < 0 ? 0 : (v >> SHADOW_UPSCALE_SHIFT);
 297              		.loc 1 1151 51 discriminator 2 view .LVU104
 298 00e6 BC44     		add	ip, ip, r7
 299              	.LVL36:
 300              	.L15:
1151:Middlewares/lvgl/src/draw/lv_draw_rect.c ****             sh_ups_blur_buf[y] = v < 0 ? 0 : (v >> SHADOW_UPSCALE_SHIFT);
 301              		.loc 1 1151 20 is_stmt 1 discriminator 1 view .LVU105
1151:Middlewares/lvgl/src/draw/lv_draw_rect.c ****             sh_ups_blur_buf[y] = v < 0 ? 0 : (v >> SHADOW_UPSCALE_SHIFT);
 302              		.loc 1 1151 9 is_stmt 0 discriminator 1 view .LVU106
 303 00e8 9C42     		cmp	r4, r3
 304 00ea 18DD     		ble	.L34
 305              	.LBB195:
1152:Middlewares/lvgl/src/draw/lv_draw_rect.c **** 
 306              		.loc 1 1152 13 is_stmt 1 view .LVU107
1152:Middlewares/lvgl/src/draw/lv_draw_rect.c **** 
 307              		.loc 1 1152 32 is_stmt 0 view .LVU108
 308 00ec 002A     		cmp	r2, #0
 309 00ee EEDB     		blt	.L27
1152:Middlewares/lvgl/src/draw/lv_draw_rect.c **** 
 310              		.loc 1 1152 32 discriminator 1 view .LVU109
 311 00f0 C2F38F11 		ubfx	r1, r2, #6, #16
 312              	.L16:
1152:Middlewares/lvgl/src/draw/lv_draw_rect.c **** 
 313              		.loc 1 1152 32 discriminator 4 view .LVU110
 314 00f4 25F81310 		strh	r1, [r5, r3, lsl #1]	@ movhi
1155:Middlewares/lvgl/src/draw/lv_draw_rect.c ****             if(y - s_right <= 0) top_val = sh_ups_tmp_buf[0];
 315              		.loc 1 1155 13 is_stmt 1 discriminator 4 view .LVU111
1156:Middlewares/lvgl/src/draw/lv_draw_rect.c ****             else top_val = sh_ups_buf[(y - s_right) * size + x];
 316              		.loc 1 1156 13 discriminator 4 view .LVU112
1156:Middlewares/lvgl/src/draw/lv_draw_rect.c ****             else top_val = sh_ups_buf[(y - s_right) * size + x];
 317              		.loc 1 1156 18 is_stmt 0 discriminator 4 view .LVU113
 318 00f8 A3EB0801 		sub	r1, r3, r8
1156:Middlewares/lvgl/src/draw/lv_draw_rect.c ****             else top_val = sh_ups_buf[(y - s_right) * size + x];
 319              		.loc 1 1156 15 discriminator 4 view .LVU114
 320 00fc 0029     		cmp	r1, #0
 321 00fe E8DD     		ble	.L35
1157:Middlewares/lvgl/src/draw/lv_draw_rect.c ****             v -= top_val;
 322              		.loc 1 1157 18 is_stmt 1 view .LVU115
1157:Middlewares/lvgl/src/draw/lv_draw_rect.c ****             v -= top_val;
 323              		.loc 1 1157 60 is_stmt 0 view .LVU116
 324 0100 01FB04E1 		mla	r1, r1, r4, lr
1157:Middlewares/lvgl/src/draw/lv_draw_rect.c ****             v -= top_val;
 325              		.loc 1 1157 38 view .LVU117
ARM GAS  /tmp/ccUpPomB.s 			page 28


 326 0104 36F81110 		ldrh	r1, [r6, r1, lsl #1]
 327              	.LVL37:
 328              	.L18:
1158:Middlewares/lvgl/src/draw/lv_draw_rect.c **** 
 329              		.loc 1 1158 13 is_stmt 1 view .LVU118
1158:Middlewares/lvgl/src/draw/lv_draw_rect.c **** 
 330              		.loc 1 1158 15 is_stmt 0 view .LVU119
 331 0108 521A     		subs	r2, r2, r1
 332              	.LVL38:
1161:Middlewares/lvgl/src/draw/lv_draw_rect.c ****             if(y + s_left + 1 < size) bottom_val = sh_ups_buf[(y + s_left + 1) * size + x];
 333              		.loc 1 1161 13 is_stmt 1 view .LVU120
1162:Middlewares/lvgl/src/draw/lv_draw_rect.c ****             else bottom_val = sh_ups_buf[(size - 1) * size + x];
 334              		.loc 1 1162 13 view .LVU121
1162:Middlewares/lvgl/src/draw/lv_draw_rect.c ****             else bottom_val = sh_ups_buf[(size - 1) * size + x];
 335              		.loc 1 1162 18 is_stmt 0 view .LVU122
 336 010a 09EB0301 		add	r1, r9, r3
 337              	.LVL39:
1162:Middlewares/lvgl/src/draw/lv_draw_rect.c ****             else bottom_val = sh_ups_buf[(size - 1) * size + x];
 338              		.loc 1 1162 27 view .LVU123
 339 010e 0131     		adds	r1, r1, #1
1162:Middlewares/lvgl/src/draw/lv_draw_rect.c ****             else bottom_val = sh_ups_buf[(size - 1) * size + x];
 340              		.loc 1 1162 15 view .LVU124
 341 0110 8C42     		cmp	r4, r1
 342 0112 E1DD     		ble	.L19
1162:Middlewares/lvgl/src/draw/lv_draw_rect.c ****             else bottom_val = sh_ups_buf[(size - 1) * size + x];
 343              		.loc 1 1162 39 is_stmt 1 discriminator 1 view .LVU125
1162:Middlewares/lvgl/src/draw/lv_draw_rect.c ****             else bottom_val = sh_ups_buf[(size - 1) * size + x];
 344              		.loc 1 1162 87 is_stmt 0 discriminator 1 view .LVU126
 345 0114 01FB04E1 		mla	r1, r1, r4, lr
1162:Middlewares/lvgl/src/draw/lv_draw_rect.c ****             else bottom_val = sh_ups_buf[(size - 1) * size + x];
 346              		.loc 1 1162 62 discriminator 1 view .LVU127
 347 0118 36F81110 		ldrh	r1, [r6, r1, lsl #1]
 348              	.LVL40:
1162:Middlewares/lvgl/src/draw/lv_draw_rect.c ****             else bottom_val = sh_ups_buf[(size - 1) * size + x];
 349              		.loc 1 1162 62 discriminator 1 view .LVU128
 350 011c E1E7     		b	.L20
 351              	.LVL41:
 352              	.L34:
1162:Middlewares/lvgl/src/draw/lv_draw_rect.c ****             else bottom_val = sh_ups_buf[(size - 1) * size + x];
 353              		.loc 1 1162 62 discriminator 1 view .LVU129
 354              	.LBE195:
1165:Middlewares/lvgl/src/draw/lv_draw_rect.c ****         }
1166:Middlewares/lvgl/src/draw/lv_draw_rect.c **** 
1167:Middlewares/lvgl/src/draw/lv_draw_rect.c ****         /*Write back the result into `sh_ups_buf`*/
1168:Middlewares/lvgl/src/draw/lv_draw_rect.c ****         sh_ups_tmp_buf = &sh_ups_buf[x];
1169:Middlewares/lvgl/src/draw/lv_draw_rect.c ****         for(y = 0; y < size; y++, sh_ups_tmp_buf += size) {
 355              		.loc 1 1169 15 view .LVU130
 356 011e 0023     		movs	r3, #0
 357              	.LVL42:
 358              		.loc 1 1169 15 view .LVU131
 359 0120 04E0     		b	.L22
 360              	.LVL43:
 361              	.L23:
1170:Middlewares/lvgl/src/draw/lv_draw_rect.c ****             (*sh_ups_tmp_buf) = sh_ups_blur_buf[y];
 362              		.loc 1 1170 13 is_stmt 1 discriminator 3 view .LVU132
 363              		.loc 1 1170 48 is_stmt 0 discriminator 3 view .LVU133
 364 0122 35F81320 		ldrh	r2, [r5, r3, lsl #1]
ARM GAS  /tmp/ccUpPomB.s 			page 29


 365              		.loc 1 1170 31 discriminator 3 view .LVU134
 366 0126 0280     		strh	r2, [r0]	@ movhi
1169:Middlewares/lvgl/src/draw/lv_draw_rect.c ****             (*sh_ups_tmp_buf) = sh_ups_blur_buf[y];
 367              		.loc 1 1169 30 is_stmt 1 discriminator 3 view .LVU135
1169:Middlewares/lvgl/src/draw/lv_draw_rect.c ****             (*sh_ups_tmp_buf) = sh_ups_blur_buf[y];
 368              		.loc 1 1169 31 is_stmt 0 discriminator 3 view .LVU136
 369 0128 0133     		adds	r3, r3, #1
 370              	.LVL44:
1169:Middlewares/lvgl/src/draw/lv_draw_rect.c ****             (*sh_ups_tmp_buf) = sh_ups_blur_buf[y];
 371              		.loc 1 1169 50 discriminator 3 view .LVU137
 372 012a 3844     		add	r0, r0, r7
 373              	.LVL45:
 374              	.L22:
1169:Middlewares/lvgl/src/draw/lv_draw_rect.c ****             (*sh_ups_tmp_buf) = sh_ups_blur_buf[y];
 375              		.loc 1 1169 20 is_stmt 1 discriminator 1 view .LVU138
1169:Middlewares/lvgl/src/draw/lv_draw_rect.c ****             (*sh_ups_tmp_buf) = sh_ups_blur_buf[y];
 376              		.loc 1 1169 9 is_stmt 0 discriminator 1 view .LVU139
 377 012c 9C42     		cmp	r4, r3
 378 012e F8DC     		bgt	.L23
 379              	.LBE193:
1148:Middlewares/lvgl/src/draw/lv_draw_rect.c ****         sh_ups_tmp_buf = &sh_ups_buf[x];
 380              		.loc 1 1148 26 is_stmt 1 discriminator 2 view .LVU140
1148:Middlewares/lvgl/src/draw/lv_draw_rect.c ****         sh_ups_tmp_buf = &sh_ups_buf[x];
 381              		.loc 1 1148 27 is_stmt 0 discriminator 2 view .LVU141
 382 0130 0EF1010E 		add	lr, lr, #1
 383              	.LVL46:
 384              	.L14:
1148:Middlewares/lvgl/src/draw/lv_draw_rect.c ****         sh_ups_tmp_buf = &sh_ups_buf[x];
 385              		.loc 1 1148 16 is_stmt 1 discriminator 1 view .LVU142
1148:Middlewares/lvgl/src/draw/lv_draw_rect.c ****         sh_ups_tmp_buf = &sh_ups_buf[x];
 386              		.loc 1 1148 5 is_stmt 0 discriminator 1 view .LVU143
 387 0134 7445     		cmp	r4, lr
 388 0136 09DD     		ble	.L36
 389              	.LBB196:
1149:Middlewares/lvgl/src/draw/lv_draw_rect.c ****         int32_t v = sh_ups_tmp_buf[0] * sw;
 390              		.loc 1 1149 9 is_stmt 1 view .LVU144
1149:Middlewares/lvgl/src/draw/lv_draw_rect.c ****         int32_t v = sh_ups_tmp_buf[0] * sw;
 391              		.loc 1 1149 24 is_stmt 0 view .LVU145
 392 0138 06EB4E00 		add	r0, r6, lr, lsl #1
 393              	.LVL47:
1150:Middlewares/lvgl/src/draw/lv_draw_rect.c ****         for(y = 0; y < size ; y++, sh_ups_tmp_buf += size) {
 394              		.loc 1 1150 9 is_stmt 1 view .LVU146
1150:Middlewares/lvgl/src/draw/lv_draw_rect.c ****         for(y = 0; y < size ; y++, sh_ups_tmp_buf += size) {
 395              		.loc 1 1150 35 is_stmt 0 view .LVU147
 396 013c 36F81E20 		ldrh	r2, [r6, lr, lsl #1]
1150:Middlewares/lvgl/src/draw/lv_draw_rect.c ****         for(y = 0; y < size ; y++, sh_ups_tmp_buf += size) {
 397              		.loc 1 1150 17 view .LVU148
 398 0140 019B     		ldr	r3, [sp, #4]
 399 0142 03FB02F2 		mul	r2, r3, r2
 400              	.LVL48:
1151:Middlewares/lvgl/src/draw/lv_draw_rect.c ****             sh_ups_blur_buf[y] = v < 0 ? 0 : (v >> SHADOW_UPSCALE_SHIFT);
 401              		.loc 1 1151 9 is_stmt 1 view .LVU149
1149:Middlewares/lvgl/src/draw/lv_draw_rect.c ****         int32_t v = sh_ups_tmp_buf[0] * sw;
 402              		.loc 1 1149 24 is_stmt 0 view .LVU150
 403 0146 8446     		mov	ip, r0
1151:Middlewares/lvgl/src/draw/lv_draw_rect.c ****             sh_ups_blur_buf[y] = v < 0 ? 0 : (v >> SHADOW_UPSCALE_SHIFT);
 404              		.loc 1 1151 15 view .LVU151
ARM GAS  /tmp/ccUpPomB.s 			page 30


 405 0148 0023     		movs	r3, #0
1151:Middlewares/lvgl/src/draw/lv_draw_rect.c ****             sh_ups_blur_buf[y] = v < 0 ? 0 : (v >> SHADOW_UPSCALE_SHIFT);
 406              		.loc 1 1151 9 view .LVU152
 407 014a CDE7     		b	.L15
 408              	.LVL49:
 409              	.L36:
1151:Middlewares/lvgl/src/draw/lv_draw_rect.c ****             sh_ups_blur_buf[y] = v < 0 ? 0 : (v >> SHADOW_UPSCALE_SHIFT);
 410              		.loc 1 1151 9 view .LVU153
 411              	.LBE196:
1171:Middlewares/lvgl/src/draw/lv_draw_rect.c ****         }
1172:Middlewares/lvgl/src/draw/lv_draw_rect.c ****     }
1173:Middlewares/lvgl/src/draw/lv_draw_rect.c **** 
1174:Middlewares/lvgl/src/draw/lv_draw_rect.c ****     lv_mem_buf_release(sh_ups_blur_buf);
 412              		.loc 1 1174 5 is_stmt 1 view .LVU154
 413 014c 2846     		mov	r0, r5
 414 014e FFF7FEFF 		bl	lv_mem_buf_release
 415              	.LVL50:
1175:Middlewares/lvgl/src/draw/lv_draw_rect.c **** }
 416              		.loc 1 1175 1 is_stmt 0 view .LVU155
 417 0152 03B0     		add	sp, sp, #12
 418              	.LCFI2:
 419              		.cfi_def_cfa_offset 36
 420              		@ sp needed
 421 0154 BDE8F08F 		pop	{r4, r5, r6, r7, r8, r9, r10, fp, pc}
 422              		.loc 1 1175 1 view .LVU156
 423              		.cfi_endproc
 424              	.LFE155:
 426              		.section	.text.shadow_draw_corner_buf,"ax",%progbits
 427              		.align	1
 428              		.syntax unified
 429              		.thumb
 430              		.thumb_func
 432              	shadow_draw_corner_buf:
 433              	.LVL51:
 434              	.LFB154:
1024:Middlewares/lvgl/src/draw/lv_draw_rect.c ****     int32_t sw_ori = sw;
 435              		.loc 1 1024 1 is_stmt 1 view -0
 436              		.cfi_startproc
 437              		@ args = 0, pretend = 0, frame = 40
 438              		@ frame_needed = 0, uses_anonymous_args = 0
1024:Middlewares/lvgl/src/draw/lv_draw_rect.c ****     int32_t sw_ori = sw;
 439              		.loc 1 1024 1 is_stmt 0 view .LVU158
 440 0000 2DE9F04F 		push	{r4, r5, r6, r7, r8, r9, r10, fp, lr}
 441              	.LCFI3:
 442              		.cfi_def_cfa_offset 36
 443              		.cfi_offset 4, -36
 444              		.cfi_offset 5, -32
 445              		.cfi_offset 6, -28
 446              		.cfi_offset 7, -24
 447              		.cfi_offset 8, -20
 448              		.cfi_offset 9, -16
 449              		.cfi_offset 10, -12
 450              		.cfi_offset 11, -8
 451              		.cfi_offset 14, -4
 452 0004 8DB0     		sub	sp, sp, #52
 453              	.LCFI4:
 454              		.cfi_def_cfa_offset 88
ARM GAS  /tmp/ccUpPomB.s 			page 31


 455 0006 8846     		mov	r8, r1
 456 0008 9146     		mov	r9, r2
 457 000a 1A46     		mov	r2, r3
 458              	.LVL52:
1025:Middlewares/lvgl/src/draw/lv_draw_rect.c ****     int32_t size = sw_ori  + r;
 459              		.loc 1 1025 5 is_stmt 1 view .LVU159
1026:Middlewares/lvgl/src/draw/lv_draw_rect.c **** 
 460              		.loc 1 1026 5 view .LVU160
1026:Middlewares/lvgl/src/draw/lv_draw_rect.c **** 
 461              		.loc 1 1026 13 is_stmt 0 view .LVU161
 462 000c 03EB0904 		add	r4, r3, r9
 463              	.LVL53:
1028:Middlewares/lvgl/src/draw/lv_draw_rect.c ****     lv_area_copy(&sh_area, coords);
 464              		.loc 1 1028 5 is_stmt 1 view .LVU162
1029:Middlewares/lvgl/src/draw/lv_draw_rect.c ****     sh_area.x2 = sw / 2 + r - 1  - ((sw & 1) ? 0 : 1);
 465              		.loc 1 1029 5 view .LVU163
 466              	.LBB197:
 467              	.LBI197:
 468              		.file 2 "Middlewares/lvgl/src/draw/../misc/lv_area.h"
   1:Middlewares/lvgl/src/draw/../misc/lv_area.h **** /**
   2:Middlewares/lvgl/src/draw/../misc/lv_area.h ****  * @file lv_area.h
   3:Middlewares/lvgl/src/draw/../misc/lv_area.h ****  *
   4:Middlewares/lvgl/src/draw/../misc/lv_area.h ****  */
   5:Middlewares/lvgl/src/draw/../misc/lv_area.h **** 
   6:Middlewares/lvgl/src/draw/../misc/lv_area.h **** #ifndef LV_AREA_H
   7:Middlewares/lvgl/src/draw/../misc/lv_area.h **** #define LV_AREA_H
   8:Middlewares/lvgl/src/draw/../misc/lv_area.h **** 
   9:Middlewares/lvgl/src/draw/../misc/lv_area.h **** #ifdef __cplusplus
  10:Middlewares/lvgl/src/draw/../misc/lv_area.h **** extern "C" {
  11:Middlewares/lvgl/src/draw/../misc/lv_area.h **** #endif
  12:Middlewares/lvgl/src/draw/../misc/lv_area.h **** 
  13:Middlewares/lvgl/src/draw/../misc/lv_area.h **** /*********************
  14:Middlewares/lvgl/src/draw/../misc/lv_area.h ****  *      INCLUDES
  15:Middlewares/lvgl/src/draw/../misc/lv_area.h ****  *********************/
  16:Middlewares/lvgl/src/draw/../misc/lv_area.h **** #include "../lv_conf_internal.h"
  17:Middlewares/lvgl/src/draw/../misc/lv_area.h **** #include <string.h>
  18:Middlewares/lvgl/src/draw/../misc/lv_area.h **** #include <stdbool.h>
  19:Middlewares/lvgl/src/draw/../misc/lv_area.h **** #include <stdint.h>
  20:Middlewares/lvgl/src/draw/../misc/lv_area.h **** 
  21:Middlewares/lvgl/src/draw/../misc/lv_area.h **** /*********************
  22:Middlewares/lvgl/src/draw/../misc/lv_area.h ****  *      DEFINES
  23:Middlewares/lvgl/src/draw/../misc/lv_area.h ****  *********************/
  24:Middlewares/lvgl/src/draw/../misc/lv_area.h **** 
  25:Middlewares/lvgl/src/draw/../misc/lv_area.h **** #define _LV_COORD_MAX_REDUCE    8192
  26:Middlewares/lvgl/src/draw/../misc/lv_area.h **** 
  27:Middlewares/lvgl/src/draw/../misc/lv_area.h **** #if LV_USE_LARGE_COORD
  28:Middlewares/lvgl/src/draw/../misc/lv_area.h **** typedef int32_t lv_coord_t;
  29:Middlewares/lvgl/src/draw/../misc/lv_area.h **** #else
  30:Middlewares/lvgl/src/draw/../misc/lv_area.h **** typedef int16_t lv_coord_t;
  31:Middlewares/lvgl/src/draw/../misc/lv_area.h **** #endif
  32:Middlewares/lvgl/src/draw/../misc/lv_area.h **** 
  33:Middlewares/lvgl/src/draw/../misc/lv_area.h **** /*To allow some special values in the end reduce the max value*/
  34:Middlewares/lvgl/src/draw/../misc/lv_area.h **** #define LV_COORD_MAX ((lv_coord_t)((uint32_t)((uint32_t)1 << (8 * sizeof(lv_coord_t) - 1)) - _LV_CO
  35:Middlewares/lvgl/src/draw/../misc/lv_area.h **** #define LV_COORD_MIN (-LV_COORD_MAX)
  36:Middlewares/lvgl/src/draw/../misc/lv_area.h **** 
  37:Middlewares/lvgl/src/draw/../misc/lv_area.h **** LV_EXPORT_CONST_INT(LV_COORD_MAX);
  38:Middlewares/lvgl/src/draw/../misc/lv_area.h **** LV_EXPORT_CONST_INT(LV_COORD_MIN);
ARM GAS  /tmp/ccUpPomB.s 			page 32


  39:Middlewares/lvgl/src/draw/../misc/lv_area.h **** 
  40:Middlewares/lvgl/src/draw/../misc/lv_area.h **** /**********************
  41:Middlewares/lvgl/src/draw/../misc/lv_area.h ****  *      TYPEDEFS
  42:Middlewares/lvgl/src/draw/../misc/lv_area.h ****  **********************/
  43:Middlewares/lvgl/src/draw/../misc/lv_area.h **** 
  44:Middlewares/lvgl/src/draw/../misc/lv_area.h **** /**
  45:Middlewares/lvgl/src/draw/../misc/lv_area.h ****  * Represents a point on the screen.
  46:Middlewares/lvgl/src/draw/../misc/lv_area.h ****  */
  47:Middlewares/lvgl/src/draw/../misc/lv_area.h **** typedef struct {
  48:Middlewares/lvgl/src/draw/../misc/lv_area.h ****     lv_coord_t x;
  49:Middlewares/lvgl/src/draw/../misc/lv_area.h ****     lv_coord_t y;
  50:Middlewares/lvgl/src/draw/../misc/lv_area.h **** } lv_point_t;
  51:Middlewares/lvgl/src/draw/../misc/lv_area.h **** 
  52:Middlewares/lvgl/src/draw/../misc/lv_area.h **** /** Represents an area of the screen.*/
  53:Middlewares/lvgl/src/draw/../misc/lv_area.h **** typedef struct {
  54:Middlewares/lvgl/src/draw/../misc/lv_area.h ****     lv_coord_t x1;
  55:Middlewares/lvgl/src/draw/../misc/lv_area.h ****     lv_coord_t y1;
  56:Middlewares/lvgl/src/draw/../misc/lv_area.h ****     lv_coord_t x2;
  57:Middlewares/lvgl/src/draw/../misc/lv_area.h ****     lv_coord_t y2;
  58:Middlewares/lvgl/src/draw/../misc/lv_area.h **** } lv_area_t;
  59:Middlewares/lvgl/src/draw/../misc/lv_area.h **** 
  60:Middlewares/lvgl/src/draw/../misc/lv_area.h **** /** Alignments*/
  61:Middlewares/lvgl/src/draw/../misc/lv_area.h **** enum {
  62:Middlewares/lvgl/src/draw/../misc/lv_area.h ****     LV_ALIGN_DEFAULT = 0,
  63:Middlewares/lvgl/src/draw/../misc/lv_area.h ****     LV_ALIGN_TOP_LEFT,
  64:Middlewares/lvgl/src/draw/../misc/lv_area.h ****     LV_ALIGN_TOP_MID,
  65:Middlewares/lvgl/src/draw/../misc/lv_area.h ****     LV_ALIGN_TOP_RIGHT,
  66:Middlewares/lvgl/src/draw/../misc/lv_area.h ****     LV_ALIGN_BOTTOM_LEFT,
  67:Middlewares/lvgl/src/draw/../misc/lv_area.h ****     LV_ALIGN_BOTTOM_MID,
  68:Middlewares/lvgl/src/draw/../misc/lv_area.h ****     LV_ALIGN_BOTTOM_RIGHT,
  69:Middlewares/lvgl/src/draw/../misc/lv_area.h ****     LV_ALIGN_LEFT_MID,
  70:Middlewares/lvgl/src/draw/../misc/lv_area.h ****     LV_ALIGN_RIGHT_MID,
  71:Middlewares/lvgl/src/draw/../misc/lv_area.h ****     LV_ALIGN_CENTER,
  72:Middlewares/lvgl/src/draw/../misc/lv_area.h **** 
  73:Middlewares/lvgl/src/draw/../misc/lv_area.h ****     LV_ALIGN_OUT_TOP_LEFT,
  74:Middlewares/lvgl/src/draw/../misc/lv_area.h ****     LV_ALIGN_OUT_TOP_MID,
  75:Middlewares/lvgl/src/draw/../misc/lv_area.h ****     LV_ALIGN_OUT_TOP_RIGHT,
  76:Middlewares/lvgl/src/draw/../misc/lv_area.h ****     LV_ALIGN_OUT_BOTTOM_LEFT,
  77:Middlewares/lvgl/src/draw/../misc/lv_area.h ****     LV_ALIGN_OUT_BOTTOM_MID,
  78:Middlewares/lvgl/src/draw/../misc/lv_area.h ****     LV_ALIGN_OUT_BOTTOM_RIGHT,
  79:Middlewares/lvgl/src/draw/../misc/lv_area.h ****     LV_ALIGN_OUT_LEFT_TOP,
  80:Middlewares/lvgl/src/draw/../misc/lv_area.h ****     LV_ALIGN_OUT_LEFT_MID,
  81:Middlewares/lvgl/src/draw/../misc/lv_area.h ****     LV_ALIGN_OUT_LEFT_BOTTOM,
  82:Middlewares/lvgl/src/draw/../misc/lv_area.h ****     LV_ALIGN_OUT_RIGHT_TOP,
  83:Middlewares/lvgl/src/draw/../misc/lv_area.h ****     LV_ALIGN_OUT_RIGHT_MID,
  84:Middlewares/lvgl/src/draw/../misc/lv_area.h ****     LV_ALIGN_OUT_RIGHT_BOTTOM,
  85:Middlewares/lvgl/src/draw/../misc/lv_area.h **** };
  86:Middlewares/lvgl/src/draw/../misc/lv_area.h **** typedef uint8_t lv_align_t;
  87:Middlewares/lvgl/src/draw/../misc/lv_area.h **** 
  88:Middlewares/lvgl/src/draw/../misc/lv_area.h **** enum {
  89:Middlewares/lvgl/src/draw/../misc/lv_area.h ****     LV_DIR_NONE     = 0x00,
  90:Middlewares/lvgl/src/draw/../misc/lv_area.h ****     LV_DIR_LEFT     = (1 << 0),
  91:Middlewares/lvgl/src/draw/../misc/lv_area.h ****     LV_DIR_RIGHT    = (1 << 1),
  92:Middlewares/lvgl/src/draw/../misc/lv_area.h ****     LV_DIR_TOP      = (1 << 2),
  93:Middlewares/lvgl/src/draw/../misc/lv_area.h ****     LV_DIR_BOTTOM   = (1 << 3),
  94:Middlewares/lvgl/src/draw/../misc/lv_area.h ****     LV_DIR_HOR      = LV_DIR_LEFT | LV_DIR_RIGHT,
  95:Middlewares/lvgl/src/draw/../misc/lv_area.h ****     LV_DIR_VER      = LV_DIR_TOP | LV_DIR_BOTTOM,
ARM GAS  /tmp/ccUpPomB.s 			page 33


  96:Middlewares/lvgl/src/draw/../misc/lv_area.h ****     LV_DIR_ALL      = LV_DIR_HOR | LV_DIR_VER,
  97:Middlewares/lvgl/src/draw/../misc/lv_area.h **** };
  98:Middlewares/lvgl/src/draw/../misc/lv_area.h **** 
  99:Middlewares/lvgl/src/draw/../misc/lv_area.h **** typedef uint8_t lv_dir_t;
 100:Middlewares/lvgl/src/draw/../misc/lv_area.h **** 
 101:Middlewares/lvgl/src/draw/../misc/lv_area.h **** /**********************
 102:Middlewares/lvgl/src/draw/../misc/lv_area.h ****  * GLOBAL PROTOTYPES
 103:Middlewares/lvgl/src/draw/../misc/lv_area.h ****  **********************/
 104:Middlewares/lvgl/src/draw/../misc/lv_area.h **** 
 105:Middlewares/lvgl/src/draw/../misc/lv_area.h **** /**
 106:Middlewares/lvgl/src/draw/../misc/lv_area.h ****  * Initialize an area
 107:Middlewares/lvgl/src/draw/../misc/lv_area.h ****  * @param area_p pointer to an area
 108:Middlewares/lvgl/src/draw/../misc/lv_area.h ****  * @param x1 left coordinate of the area
 109:Middlewares/lvgl/src/draw/../misc/lv_area.h ****  * @param y1 top coordinate of the area
 110:Middlewares/lvgl/src/draw/../misc/lv_area.h ****  * @param x2 right coordinate of the area
 111:Middlewares/lvgl/src/draw/../misc/lv_area.h ****  * @param y2 bottom coordinate of the area
 112:Middlewares/lvgl/src/draw/../misc/lv_area.h ****  */
 113:Middlewares/lvgl/src/draw/../misc/lv_area.h **** void lv_area_set(lv_area_t * area_p, lv_coord_t x1, lv_coord_t y1, lv_coord_t x2, lv_coord_t y2);
 114:Middlewares/lvgl/src/draw/../misc/lv_area.h **** 
 115:Middlewares/lvgl/src/draw/../misc/lv_area.h **** /**
 116:Middlewares/lvgl/src/draw/../misc/lv_area.h ****  * Copy an area
 117:Middlewares/lvgl/src/draw/../misc/lv_area.h ****  * @param dest pointer to the destination area
 118:Middlewares/lvgl/src/draw/../misc/lv_area.h ****  * @param src pointer to the source area
 119:Middlewares/lvgl/src/draw/../misc/lv_area.h ****  */
 120:Middlewares/lvgl/src/draw/../misc/lv_area.h **** inline static void lv_area_copy(lv_area_t * dest, const lv_area_t * src)
 469              		.loc 2 120 20 view .LVU164
 470              	.LBB198:
 121:Middlewares/lvgl/src/draw/../misc/lv_area.h **** {
 122:Middlewares/lvgl/src/draw/../misc/lv_area.h ****     dest->x1 = src->x1;
 471              		.loc 2 122 5 view .LVU165
 472              		.loc 2 122 19 is_stmt 0 view .LVU166
 473 0010 B0F90030 		ldrsh	r3, [r0]
 474              	.LVL54:
 475              		.loc 2 122 14 view .LVU167
 476 0014 ADF82830 		strh	r3, [sp, #40]	@ movhi
 123:Middlewares/lvgl/src/draw/../misc/lv_area.h ****     dest->y1 = src->y1;
 477              		.loc 2 123 5 is_stmt 1 view .LVU168
 478              		.loc 2 123 19 is_stmt 0 view .LVU169
 479 0018 B0F90230 		ldrsh	r3, [r0, #2]
 480              		.loc 2 123 14 view .LVU170
 481 001c ADF82A30 		strh	r3, [sp, #42]	@ movhi
 124:Middlewares/lvgl/src/draw/../misc/lv_area.h ****     dest->x2 = src->x2;
 482              		.loc 2 124 5 is_stmt 1 view .LVU171
 483              		.loc 2 124 19 is_stmt 0 view .LVU172
 484 0020 B0F90430 		ldrsh	r3, [r0, #4]
 485              		.loc 2 124 14 view .LVU173
 486 0024 ADF82C30 		strh	r3, [sp, #44]	@ movhi
 125:Middlewares/lvgl/src/draw/../misc/lv_area.h ****     dest->y2 = src->y2;
 487              		.loc 2 125 5 is_stmt 1 view .LVU174
 488              		.loc 2 125 19 is_stmt 0 view .LVU175
 489 0028 B0F90630 		ldrsh	r3, [r0, #6]
 490              		.loc 2 125 14 view .LVU176
 491 002c ADF82E30 		strh	r3, [sp, #46]	@ movhi
 492              	.LVL55:
 493              		.loc 2 125 14 view .LVU177
 494              	.LBE198:
 495              	.LBE197:
ARM GAS  /tmp/ccUpPomB.s 			page 34


1030:Middlewares/lvgl/src/draw/lv_draw_rect.c ****     sh_area.y1 = sw / 2 + 1;
 496              		.loc 1 1030 5 is_stmt 1 view .LVU178
1030:Middlewares/lvgl/src/draw/lv_draw_rect.c ****     sh_area.y1 = sw / 2 + 1;
 497              		.loc 1 1030 25 is_stmt 0 view .LVU179
 498 0030 4946     		mov	r1, r9
 499              	.LVL56:
1030:Middlewares/lvgl/src/draw/lv_draw_rect.c ****     sh_area.y1 = sw / 2 + 1;
 500              		.loc 1 1030 25 view .LVU180
 501 0032 B9F1000F 		cmp	r9, #0
 502 0036 35DB     		blt	.L63
 503              	.L38:
1030:Middlewares/lvgl/src/draw/lv_draw_rect.c ****     sh_area.y1 = sw / 2 + 1;
 504              		.loc 1 1030 25 view .LVU181
 505 0038 C1F34F01 		ubfx	r1, r1, #1, #16
 506 003c 8B18     		adds	r3, r1, r2
 507 003e 9BB2     		uxth	r3, r3
1030:Middlewares/lvgl/src/draw/lv_draw_rect.c ****     sh_area.y1 = sw / 2 + 1;
 508              		.loc 1 1030 50 view .LVU182
 509 0040 19F0010A 		ands	r10, r9, #1
 510 0044 0CBF     		ite	eq
 511 0046 0125     		moveq	r5, #1
 512 0048 0025     		movne	r5, #0
1030:Middlewares/lvgl/src/draw/lv_draw_rect.c ****     sh_area.y1 = sw / 2 + 1;
 513              		.loc 1 1030 34 view .LVU183
 514 004a 5B1B     		subs	r3, r3, r5
 515 004c 013B     		subs	r3, r3, #1
 516 004e 9EB2     		uxth	r6, r3
1030:Middlewares/lvgl/src/draw/lv_draw_rect.c ****     sh_area.y1 = sw / 2 + 1;
 517              		.loc 1 1030 16 view .LVU184
 518 0050 ADF82C30 		strh	r3, [sp, #44]	@ movhi
1031:Middlewares/lvgl/src/draw/lv_draw_rect.c **** 
 519              		.loc 1 1031 5 is_stmt 1 view .LVU185
1031:Middlewares/lvgl/src/draw/lv_draw_rect.c **** 
 520              		.loc 1 1031 25 is_stmt 0 view .LVU186
 521 0054 0131     		adds	r1, r1, #1
1031:Middlewares/lvgl/src/draw/lv_draw_rect.c **** 
 522              		.loc 1 1031 16 view .LVU187
 523 0056 ADF82A10 		strh	r1, [sp, #42]	@ movhi
1033:Middlewares/lvgl/src/draw/lv_draw_rect.c ****     sh_area.y2 = sh_area.y1 + lv_area_get_height(coords);
 524              		.loc 1 1033 5 is_stmt 1 view .LVU188
 525              	.LVL57:
 526              	.LBB199:
 527              	.LBI199:
 126:Middlewares/lvgl/src/draw/../misc/lv_area.h **** }
 127:Middlewares/lvgl/src/draw/../misc/lv_area.h **** 
 128:Middlewares/lvgl/src/draw/../misc/lv_area.h **** /**
 129:Middlewares/lvgl/src/draw/../misc/lv_area.h ****  * Get the width of an area
 130:Middlewares/lvgl/src/draw/../misc/lv_area.h ****  * @param area_p pointer to an area
 131:Middlewares/lvgl/src/draw/../misc/lv_area.h ****  * @return the width of the area (if x1 == x2 -> width = 1)
 132:Middlewares/lvgl/src/draw/../misc/lv_area.h ****  */
 133:Middlewares/lvgl/src/draw/../misc/lv_area.h **** static inline lv_coord_t lv_area_get_width(const lv_area_t * area_p)
 528              		.loc 2 133 26 view .LVU189
 529              	.LBB200:
 134:Middlewares/lvgl/src/draw/../misc/lv_area.h **** {
 135:Middlewares/lvgl/src/draw/../misc/lv_area.h ****     return (lv_coord_t)(area_p->x2 - area_p->x1 + 1);
 530              		.loc 2 135 5 view .LVU190
 531              		.loc 2 135 31 is_stmt 0 view .LVU191
ARM GAS  /tmp/ccUpPomB.s 			page 35


 532 005a 8588     		ldrh	r5, [r0, #4]
 533              		.loc 2 135 44 view .LVU192
 534 005c 0388     		ldrh	r3, [r0]
 535              		.loc 2 135 36 view .LVU193
 536 005e ED1A     		subs	r5, r5, r3
 537 0060 ADB2     		uxth	r5, r5
 538              		.loc 2 135 49 view .LVU194
 539 0062 0135     		adds	r5, r5, #1
 540 0064 ADB2     		uxth	r5, r5
 541              	.LVL58:
 542              		.loc 2 135 49 view .LVU195
 543              	.LBE200:
 544              	.LBE199:
1033:Middlewares/lvgl/src/draw/lv_draw_rect.c ****     sh_area.y2 = sh_area.y1 + lv_area_get_height(coords);
 545              		.loc 1 1033 29 view .LVU196
 546 0066 751B     		subs	r5, r6, r5
1033:Middlewares/lvgl/src/draw/lv_draw_rect.c ****     sh_area.y2 = sh_area.y1 + lv_area_get_height(coords);
 547              		.loc 1 1033 16 view .LVU197
 548 0068 ADF82850 		strh	r5, [sp, #40]	@ movhi
1034:Middlewares/lvgl/src/draw/lv_draw_rect.c **** 
 549              		.loc 1 1034 5 is_stmt 1 view .LVU198
 550              	.LVL59:
 551              	.LBB201:
 552              	.LBI201:
 136:Middlewares/lvgl/src/draw/../misc/lv_area.h **** }
 137:Middlewares/lvgl/src/draw/../misc/lv_area.h **** 
 138:Middlewares/lvgl/src/draw/../misc/lv_area.h **** /**
 139:Middlewares/lvgl/src/draw/../misc/lv_area.h ****  * Get the height of an area
 140:Middlewares/lvgl/src/draw/../misc/lv_area.h ****  * @param area_p pointer to an area
 141:Middlewares/lvgl/src/draw/../misc/lv_area.h ****  * @return the height of the area (if y1 == y2 -> height = 1)
 142:Middlewares/lvgl/src/draw/../misc/lv_area.h ****  */
 143:Middlewares/lvgl/src/draw/../misc/lv_area.h **** static inline lv_coord_t lv_area_get_height(const lv_area_t * area_p)
 553              		.loc 2 143 26 view .LVU199
 554              	.LBB202:
 144:Middlewares/lvgl/src/draw/../misc/lv_area.h **** {
 145:Middlewares/lvgl/src/draw/../misc/lv_area.h ****     return (lv_coord_t)(area_p->y2 - area_p->y1 + 1);
 555              		.loc 2 145 5 view .LVU200
 556              		.loc 2 145 31 is_stmt 0 view .LVU201
 557 006c C588     		ldrh	r5, [r0, #6]
 558              		.loc 2 145 44 view .LVU202
 559 006e 4088     		ldrh	r0, [r0, #2]
 560              	.LVL60:
 561              		.loc 2 145 36 view .LVU203
 562 0070 281A     		subs	r0, r5, r0
 563 0072 80B2     		uxth	r0, r0
 564              		.loc 2 145 49 view .LVU204
 565 0074 0130     		adds	r0, r0, #1
 566 0076 80B2     		uxth	r0, r0
 567              	.LVL61:
 568              		.loc 2 145 49 view .LVU205
 569              	.LBE202:
 570              	.LBE201:
1034:Middlewares/lvgl/src/draw/lv_draw_rect.c **** 
 571              		.loc 1 1034 29 view .LVU206
 572 0078 10FA81F1 		uxtah	r1, r0, r1
1034:Middlewares/lvgl/src/draw/lv_draw_rect.c **** 
 573              		.loc 1 1034 16 view .LVU207
ARM GAS  /tmp/ccUpPomB.s 			page 36


 574 007c ADF82E10 		strh	r1, [sp, #46]	@ movhi
1036:Middlewares/lvgl/src/draw/lv_draw_rect.c ****     lv_draw_mask_radius_init(&mask_param, &sh_area, r, false);
 575              		.loc 1 1036 5 is_stmt 1 view .LVU208
1037:Middlewares/lvgl/src/draw/lv_draw_rect.c **** 
 576              		.loc 1 1037 5 view .LVU209
 577 0080 0023     		movs	r3, #0
 578 0082 0AA9     		add	r1, sp, #40
 579 0084 03A8     		add	r0, sp, #12
 580 0086 FFF7FEFF 		bl	lv_draw_mask_radius_init
 581              	.LVL62:
1041:Middlewares/lvgl/src/draw/lv_draw_rect.c ****     else sw = sw_ori >> 1;
 582              		.loc 1 1041 5 view .LVU210
1041:Middlewares/lvgl/src/draw/lv_draw_rect.c ****     else sw = sw_ori >> 1;
 583              		.loc 1 1041 7 is_stmt 0 view .LVU211
 584 008a B9F1010F 		cmp	r9, #1
 585 008e 0CD0     		beq	.L59
1042:Middlewares/lvgl/src/draw/lv_draw_rect.c **** #endif
 586              		.loc 1 1042 10 is_stmt 1 view .LVU212
1042:Middlewares/lvgl/src/draw/lv_draw_rect.c **** #endif
 587              		.loc 1 1042 13 is_stmt 0 view .LVU213
 588 0090 4FEA6909 		asr	r9, r9, #1
 589              	.LVL63:
 590              	.L39:
1045:Middlewares/lvgl/src/draw/lv_draw_rect.c ****     lv_opa_t * mask_line = lv_mem_buf_get(size);
 591              		.loc 1 1045 5 is_stmt 1 view .LVU214
1046:Middlewares/lvgl/src/draw/lv_draw_rect.c ****     uint16_t * sh_ups_tmp_buf = (uint16_t *)sh_buf;
 592              		.loc 1 1046 5 view .LVU215
1046:Middlewares/lvgl/src/draw/lv_draw_rect.c ****     uint16_t * sh_ups_tmp_buf = (uint16_t *)sh_buf;
 593              		.loc 1 1046 28 is_stmt 0 view .LVU216
 594 0094 2046     		mov	r0, r4
 595 0096 FFF7FEFF 		bl	lv_mem_buf_get
 596              	.LVL64:
 597 009a 0546     		mov	r5, r0
 598              	.LVL65:
1047:Middlewares/lvgl/src/draw/lv_draw_rect.c ****     for(y = 0; y < size; y++) {
 599              		.loc 1 1047 5 is_stmt 1 view .LVU217
1048:Middlewares/lvgl/src/draw/lv_draw_rect.c ****         lv_memset_ff(mask_line, size);
 600              		.loc 1 1048 5 view .LVU218
1047:Middlewares/lvgl/src/draw/lv_draw_rect.c ****     for(y = 0; y < size; y++) {
 601              		.loc 1 1047 16 is_stmt 0 view .LVU219
 602 009c 4646     		mov	r6, r8
1048:Middlewares/lvgl/src/draw/lv_draw_rect.c ****         lv_memset_ff(mask_line, size);
 603              		.loc 1 1048 11 view .LVU220
 604 009e 4FF0000B 		mov	fp, #0
1048:Middlewares/lvgl/src/draw/lv_draw_rect.c ****         lv_memset_ff(mask_line, size);
 605              		.loc 1 1048 5 view .LVU221
 606 00a2 27E0     		b	.L40
 607              	.LVL66:
 608              	.L63:
1030:Middlewares/lvgl/src/draw/lv_draw_rect.c ****     sh_area.y1 = sw / 2 + 1;
 609              		.loc 1 1030 25 view .LVU222
 610 00a4 09F10101 		add	r1, r9, #1
 611              	.LVL67:
1030:Middlewares/lvgl/src/draw/lv_draw_rect.c ****     sh_area.y1 = sw / 2 + 1;
 612              		.loc 1 1030 25 view .LVU223
 613 00a8 C6E7     		b	.L38
 614              	.LVL68:
ARM GAS  /tmp/ccUpPomB.s 			page 37


 615              	.L59:
1041:Middlewares/lvgl/src/draw/lv_draw_rect.c ****     else sw = sw_ori >> 1;
 616              		.loc 1 1041 24 view .LVU224
 617 00aa 4FF00109 		mov	r9, #1
 618              	.LVL69:
1041:Middlewares/lvgl/src/draw/lv_draw_rect.c ****     else sw = sw_ori >> 1;
 619              		.loc 1 1041 24 view .LVU225
 620 00ae F1E7     		b	.L39
 621              	.LVL70:
 622              	.L41:
 623              	.LBB203:
 624              	.LBB204:
1055:Middlewares/lvgl/src/draw/lv_draw_rect.c ****             sh_ups_tmp_buf[0] = (mask_line[0] << SHADOW_UPSCALE_SHIFT) / sw;
 625              		.loc 1 1055 13 is_stmt 1 view .LVU226
1056:Middlewares/lvgl/src/draw/lv_draw_rect.c ****             for(i = 1; i < size; i++) {
 626              		.loc 1 1056 13 view .LVU227
1056:Middlewares/lvgl/src/draw/lv_draw_rect.c ****             for(i = 1; i < size; i++) {
 627              		.loc 1 1056 43 is_stmt 0 view .LVU228
 628 00b0 2B78     		ldrb	r3, [r5]	@ zero_extendqisi2
1056:Middlewares/lvgl/src/draw/lv_draw_rect.c ****             for(i = 1; i < size; i++) {
 629              		.loc 1 1056 47 view .LVU229
 630 00b2 9B01     		lsls	r3, r3, #6
1056:Middlewares/lvgl/src/draw/lv_draw_rect.c ****             for(i = 1; i < size; i++) {
 631              		.loc 1 1056 72 view .LVU230
 632 00b4 4846     		mov	r0, r9
 633              	.LVL71:
1056:Middlewares/lvgl/src/draw/lv_draw_rect.c ****             for(i = 1; i < size; i++) {
 634              		.loc 1 1056 72 view .LVU231
 635 00b6 93FBF9F3 		sdiv	r3, r3, r9
1056:Middlewares/lvgl/src/draw/lv_draw_rect.c ****             for(i = 1; i < size; i++) {
 636              		.loc 1 1056 31 view .LVU232
 637 00ba 3380     		strh	r3, [r6]	@ movhi
1057:Middlewares/lvgl/src/draw/lv_draw_rect.c ****                 if(mask_line[i] == mask_line[i - 1]) sh_ups_tmp_buf[i] = sh_ups_tmp_buf[i - 1];
 638              		.loc 1 1057 13 is_stmt 1 view .LVU233
 639              	.LVL72:
1057:Middlewares/lvgl/src/draw/lv_draw_rect.c ****                 if(mask_line[i] == mask_line[i - 1]) sh_ups_tmp_buf[i] = sh_ups_tmp_buf[i - 1];
 640              		.loc 1 1057 19 is_stmt 0 view .LVU234
 641 00bc 0123     		movs	r3, #1
1057:Middlewares/lvgl/src/draw/lv_draw_rect.c ****                 if(mask_line[i] == mask_line[i - 1]) sh_ups_tmp_buf[i] = sh_ups_tmp_buf[i - 1];
 642              		.loc 1 1057 13 view .LVU235
 643 00be 07E0     		b	.L43
 644              	.LVL73:
 645              	.L64:
1058:Middlewares/lvgl/src/draw/lv_draw_rect.c ****                 else  sh_ups_tmp_buf[i] = (mask_line[i] << SHADOW_UPSCALE_SHIFT) / sw;
 646              		.loc 1 1058 54 is_stmt 1 discriminator 1 view .LVU236
1058:Middlewares/lvgl/src/draw/lv_draw_rect.c ****                 else  sh_ups_tmp_buf[i] = (mask_line[i] << SHADOW_UPSCALE_SHIFT) / sw;
 647              		.loc 1 1058 88 is_stmt 0 discriminator 1 view .LVU237
 648 00c0 6FF00042 		mvn	r2, #-2147483648
 649 00c4 1A44     		add	r2, r2, r3
 650 00c6 36F81220 		ldrh	r2, [r6, r2, lsl #1]
1058:Middlewares/lvgl/src/draw/lv_draw_rect.c ****                 else  sh_ups_tmp_buf[i] = (mask_line[i] << SHADOW_UPSCALE_SHIFT) / sw;
 651              		.loc 1 1058 72 discriminator 1 view .LVU238
 652 00ca 26F81320 		strh	r2, [r6, r3, lsl #1]	@ movhi
 653              	.L45:
1057:Middlewares/lvgl/src/draw/lv_draw_rect.c ****                 if(mask_line[i] == mask_line[i - 1]) sh_ups_tmp_buf[i] = sh_ups_tmp_buf[i - 1];
 654              		.loc 1 1057 34 is_stmt 1 discriminator 2 view .LVU239
1057:Middlewares/lvgl/src/draw/lv_draw_rect.c ****                 if(mask_line[i] == mask_line[i - 1]) sh_ups_tmp_buf[i] = sh_ups_tmp_buf[i - 1];
ARM GAS  /tmp/ccUpPomB.s 			page 38


 655              		.loc 1 1057 35 is_stmt 0 discriminator 2 view .LVU240
 656 00ce 0133     		adds	r3, r3, #1
 657              	.LVL74:
 658              	.L43:
1057:Middlewares/lvgl/src/draw/lv_draw_rect.c ****                 if(mask_line[i] == mask_line[i - 1]) sh_ups_tmp_buf[i] = sh_ups_tmp_buf[i - 1];
 659              		.loc 1 1057 24 is_stmt 1 discriminator 1 view .LVU241
1057:Middlewares/lvgl/src/draw/lv_draw_rect.c ****                 if(mask_line[i] == mask_line[i - 1]) sh_ups_tmp_buf[i] = sh_ups_tmp_buf[i - 1];
 660              		.loc 1 1057 13 is_stmt 0 discriminator 1 view .LVU242
 661 00d0 A342     		cmp	r3, r4
 662 00d2 0BDA     		bge	.L42
1058:Middlewares/lvgl/src/draw/lv_draw_rect.c ****                 else  sh_ups_tmp_buf[i] = (mask_line[i] << SHADOW_UPSCALE_SHIFT) / sw;
 663              		.loc 1 1058 17 is_stmt 1 view .LVU243
1058:Middlewares/lvgl/src/draw/lv_draw_rect.c ****                 else  sh_ups_tmp_buf[i] = (mask_line[i] << SHADOW_UPSCALE_SHIFT) / sw;
 664              		.loc 1 1058 29 is_stmt 0 view .LVU244
 665 00d4 EA5C     		ldrb	r2, [r5, r3]	@ zero_extendqisi2
1058:Middlewares/lvgl/src/draw/lv_draw_rect.c ****                 else  sh_ups_tmp_buf[i] = (mask_line[i] << SHADOW_UPSCALE_SHIFT) / sw;
 666              		.loc 1 1058 45 view .LVU245
 667 00d6 E918     		adds	r1, r5, r3
 668 00d8 11F8011C 		ldrb	r1, [r1, #-1]	@ zero_extendqisi2
1058:Middlewares/lvgl/src/draw/lv_draw_rect.c ****                 else  sh_ups_tmp_buf[i] = (mask_line[i] << SHADOW_UPSCALE_SHIFT) / sw;
 669              		.loc 1 1058 19 view .LVU246
 670 00dc 8A42     		cmp	r2, r1
 671 00de EFD0     		beq	.L64
1059:Middlewares/lvgl/src/draw/lv_draw_rect.c ****             }
 672              		.loc 1 1059 23 is_stmt 1 view .LVU247
1059:Middlewares/lvgl/src/draw/lv_draw_rect.c ****             }
 673              		.loc 1 1059 57 is_stmt 0 view .LVU248
 674 00e0 9201     		lsls	r2, r2, #6
1059:Middlewares/lvgl/src/draw/lv_draw_rect.c ****             }
 675              		.loc 1 1059 82 view .LVU249
 676 00e2 92FBF0F2 		sdiv	r2, r2, r0
1059:Middlewares/lvgl/src/draw/lv_draw_rect.c ****             }
 677              		.loc 1 1059 41 view .LVU250
 678 00e6 26F81320 		strh	r2, [r6, r3, lsl #1]	@ movhi
 679 00ea F0E7     		b	.L45
 680              	.LVL75:
 681              	.L42:
1059:Middlewares/lvgl/src/draw/lv_draw_rect.c ****             }
 682              		.loc 1 1059 41 view .LVU251
 683              	.LBE204:
1063:Middlewares/lvgl/src/draw/lv_draw_rect.c ****     }
 684              		.loc 1 1063 9 is_stmt 1 discriminator 2 view .LVU252
1063:Middlewares/lvgl/src/draw/lv_draw_rect.c ****     }
 685              		.loc 1 1063 24 is_stmt 0 discriminator 2 view .LVU253
 686 00ec 06EB4406 		add	r6, r6, r4, lsl #1
 687              	.LVL76:
1063:Middlewares/lvgl/src/draw/lv_draw_rect.c ****     }
 688              		.loc 1 1063 24 discriminator 2 view .LVU254
 689              	.LBE203:
1048:Middlewares/lvgl/src/draw/lv_draw_rect.c ****         lv_memset_ff(mask_line, size);
 690              		.loc 1 1048 26 is_stmt 1 discriminator 2 view .LVU255
1048:Middlewares/lvgl/src/draw/lv_draw_rect.c ****         lv_memset_ff(mask_line, size);
 691              		.loc 1 1048 27 is_stmt 0 discriminator 2 view .LVU256
 692 00f0 0BF1010B 		add	fp, fp, #1
 693              	.LVL77:
 694              	.L40:
1048:Middlewares/lvgl/src/draw/lv_draw_rect.c ****         lv_memset_ff(mask_line, size);
ARM GAS  /tmp/ccUpPomB.s 			page 39


 695              		.loc 1 1048 16 is_stmt 1 discriminator 1 view .LVU257
1048:Middlewares/lvgl/src/draw/lv_draw_rect.c ****         lv_memset_ff(mask_line, size);
 696              		.loc 1 1048 5 is_stmt 0 discriminator 1 view .LVU258
 697 00f4 A345     		cmp	fp, r4
 698 00f6 13DA     		bge	.L65
 699              	.LBB205:
1049:Middlewares/lvgl/src/draw/lv_draw_rect.c ****         lv_draw_mask_res_t mask_res = mask_param.dsc.cb(mask_line, 0, y, size, &mask_param);
 700              		.loc 1 1049 9 is_stmt 1 view .LVU259
 701 00f8 2146     		mov	r1, r4
 702 00fa 2846     		mov	r0, r5
 703 00fc FFF7FEFF 		bl	lv_memset_ff
 704              	.LVL78:
1050:Middlewares/lvgl/src/draw/lv_draw_rect.c ****         if(mask_res == LV_DRAW_MASK_RES_TRANSP) {
 705              		.loc 1 1050 9 view .LVU260
1050:Middlewares/lvgl/src/draw/lv_draw_rect.c ****         if(mask_res == LV_DRAW_MASK_RES_TRANSP) {
 706              		.loc 1 1050 39 is_stmt 0 view .LVU261
 707 0100 03AB     		add	r3, sp, #12
 708 0102 0093     		str	r3, [sp]
 709 0104 23B2     		sxth	r3, r4
 710 0106 0FFA8BF2 		sxth	r2, fp
 711 010a 0021     		movs	r1, #0
 712 010c 2846     		mov	r0, r5
 713 010e 039F     		ldr	r7, [sp, #12]
 714 0110 B847     		blx	r7
 715              	.LVL79:
1051:Middlewares/lvgl/src/draw/lv_draw_rect.c ****             lv_memset_00(sh_ups_tmp_buf, size * sizeof(sh_ups_tmp_buf[0]));
 716              		.loc 1 1051 9 is_stmt 1 view .LVU262
1051:Middlewares/lvgl/src/draw/lv_draw_rect.c ****             lv_memset_00(sh_ups_tmp_buf, size * sizeof(sh_ups_tmp_buf[0]));
 717              		.loc 1 1051 11 is_stmt 0 view .LVU263
 718 0112 0028     		cmp	r0, #0
 719 0114 CCD1     		bne	.L41
1052:Middlewares/lvgl/src/draw/lv_draw_rect.c ****         }
 720              		.loc 1 1052 13 is_stmt 1 view .LVU264
 721 0116 6100     		lsls	r1, r4, #1
 722 0118 3046     		mov	r0, r6
 723              	.LVL80:
1052:Middlewares/lvgl/src/draw/lv_draw_rect.c ****         }
 724              		.loc 1 1052 13 is_stmt 0 view .LVU265
 725 011a FFF7FEFF 		bl	lv_memset_00
 726              	.LVL81:
 727 011e E5E7     		b	.L42
 728              	.L65:
1052:Middlewares/lvgl/src/draw/lv_draw_rect.c ****         }
 729              		.loc 1 1052 13 view .LVU266
 730              	.LBE205:
1065:Middlewares/lvgl/src/draw/lv_draw_rect.c **** 
 731              		.loc 1 1065 5 is_stmt 1 view .LVU267
 732 0120 2846     		mov	r0, r5
 733 0122 FFF7FEFF 		bl	lv_mem_buf_release
 734              	.LVL82:
1067:Middlewares/lvgl/src/draw/lv_draw_rect.c ****         int32_t i;
 735              		.loc 1 1067 5 view .LVU268
1067:Middlewares/lvgl/src/draw/lv_draw_rect.c ****         int32_t i;
 736              		.loc 1 1067 7 is_stmt 0 view .LVU269
 737 0126 B9F1010F 		cmp	r9, #1
 738 012a 1DD0     		beq	.L66
1076:Middlewares/lvgl/src/draw/lv_draw_rect.c **** 
ARM GAS  /tmp/ccUpPomB.s 			page 40


 739              		.loc 1 1076 5 is_stmt 1 view .LVU270
 740 012c 25B2     		sxth	r5, r4
 741              	.LVL83:
1076:Middlewares/lvgl/src/draw/lv_draw_rect.c **** 
 742              		.loc 1 1076 5 is_stmt 0 view .LVU271
 743 012e 4246     		mov	r2, r8
 744 0130 4946     		mov	r1, r9
 745 0132 2846     		mov	r0, r5
 746 0134 FFF7FEFF 		bl	shadow_blur_corner
 747              	.LVL84:
1086:Middlewares/lvgl/src/draw/lv_draw_rect.c ****     if(sw > 1) {
 748              		.loc 1 1086 5 is_stmt 1 view .LVU272
1086:Middlewares/lvgl/src/draw/lv_draw_rect.c ****     if(sw > 1) {
 749              		.loc 1 1086 8 is_stmt 0 view .LVU273
 750 0138 0AEB0901 		add	r1, r10, r9
 751              	.LVL85:
1087:Middlewares/lvgl/src/draw/lv_draw_rect.c ****         uint32_t i;
 752              		.loc 1 1087 5 is_stmt 1 view .LVU274
1087:Middlewares/lvgl/src/draw/lv_draw_rect.c ****         uint32_t i;
 753              		.loc 1 1087 7 is_stmt 0 view .LVU275
 754 013c 0129     		cmp	r1, #1
 755 013e 2FDD     		ble	.L52
 756              	.LBB206:
1088:Middlewares/lvgl/src/draw/lv_draw_rect.c ****         sh_buf[0] = (sh_buf[0] << SHADOW_UPSCALE_SHIFT) / sw;
 757              		.loc 1 1088 9 is_stmt 1 view .LVU276
1089:Middlewares/lvgl/src/draw/lv_draw_rect.c ****         for(i = 1; i < (uint32_t) size * size; i++) {
 758              		.loc 1 1089 9 view .LVU277
1089:Middlewares/lvgl/src/draw/lv_draw_rect.c ****         for(i = 1; i < (uint32_t) size * size; i++) {
 759              		.loc 1 1089 28 is_stmt 0 view .LVU278
 760 0140 B8F80030 		ldrh	r3, [r8]
1089:Middlewares/lvgl/src/draw/lv_draw_rect.c ****         for(i = 1; i < (uint32_t) size * size; i++) {
 761              		.loc 1 1089 32 view .LVU279
 762 0144 9B01     		lsls	r3, r3, #6
1089:Middlewares/lvgl/src/draw/lv_draw_rect.c ****         for(i = 1; i < (uint32_t) size * size; i++) {
 763              		.loc 1 1089 57 view .LVU280
 764 0146 93FBF1F3 		sdiv	r3, r3, r1
1089:Middlewares/lvgl/src/draw/lv_draw_rect.c ****         for(i = 1; i < (uint32_t) size * size; i++) {
 765              		.loc 1 1089 19 view .LVU281
 766 014a A8F80030 		strh	r3, [r8]	@ movhi
1090:Middlewares/lvgl/src/draw/lv_draw_rect.c ****             if(sh_buf[i] == sh_buf[i - 1]) sh_buf[i] = sh_buf[i - 1];
 767              		.loc 1 1090 9 is_stmt 1 view .LVU282
 768              	.LVL86:
1090:Middlewares/lvgl/src/draw/lv_draw_rect.c ****             if(sh_buf[i] == sh_buf[i - 1]) sh_buf[i] = sh_buf[i - 1];
 769              		.loc 1 1090 15 is_stmt 0 view .LVU283
 770 014e 0123     		movs	r3, #1
1090:Middlewares/lvgl/src/draw/lv_draw_rect.c ****             if(sh_buf[i] == sh_buf[i - 1]) sh_buf[i] = sh_buf[i - 1];
 771              		.loc 1 1090 9 view .LVU284
 772 0150 0FE0     		b	.L53
 773              	.LVL87:
 774              	.L50:
1090:Middlewares/lvgl/src/draw/lv_draw_rect.c ****             if(sh_buf[i] == sh_buf[i - 1]) sh_buf[i] = sh_buf[i - 1];
 775              		.loc 1 1090 9 view .LVU285
 776              	.LBE206:
 777              	.LBB207:
1071:Middlewares/lvgl/src/draw/lv_draw_rect.c ****         }
 778              		.loc 1 1071 13 is_stmt 1 discriminator 3 view .LVU286
1071:Middlewares/lvgl/src/draw/lv_draw_rect.c ****         }
ARM GAS  /tmp/ccUpPomB.s 			page 41


 779              		.loc 1 1071 33 is_stmt 0 discriminator 3 view .LVU287
 780 0152 38F81320 		ldrh	r2, [r8, r3, lsl #1]
1071:Middlewares/lvgl/src/draw/lv_draw_rect.c ****         }
 781              		.loc 1 1071 24 discriminator 3 view .LVU288
 782 0156 9209     		lsrs	r2, r2, #6
 783 0158 08F80320 		strb	r2, [r8, r3]
1070:Middlewares/lvgl/src/draw/lv_draw_rect.c ****             res_buf[i] = (sh_buf[i] >> SHADOW_UPSCALE_SHIFT);
 784              		.loc 1 1070 37 is_stmt 1 discriminator 3 view .LVU289
1070:Middlewares/lvgl/src/draw/lv_draw_rect.c ****             res_buf[i] = (sh_buf[i] >> SHADOW_UPSCALE_SHIFT);
 785              		.loc 1 1070 38 is_stmt 0 discriminator 3 view .LVU290
 786 015c 0133     		adds	r3, r3, #1
 787              	.LVL88:
 788              	.L48:
1070:Middlewares/lvgl/src/draw/lv_draw_rect.c ****             res_buf[i] = (sh_buf[i] >> SHADOW_UPSCALE_SHIFT);
 789              		.loc 1 1070 20 is_stmt 1 discriminator 1 view .LVU291
1070:Middlewares/lvgl/src/draw/lv_draw_rect.c ****             res_buf[i] = (sh_buf[i] >> SHADOW_UPSCALE_SHIFT);
 790              		.loc 1 1070 29 is_stmt 0 discriminator 1 view .LVU292
 791 015e 04FB04F2 		mul	r2, r4, r4
1070:Middlewares/lvgl/src/draw/lv_draw_rect.c ****             res_buf[i] = (sh_buf[i] >> SHADOW_UPSCALE_SHIFT);
 792              		.loc 1 1070 9 discriminator 1 view .LVU293
 793 0162 9A42     		cmp	r2, r3
 794 0164 F5DC     		bgt	.L50
 795 0166 26E0     		b	.L37
 796              	.LVL89:
 797              	.L66:
1070:Middlewares/lvgl/src/draw/lv_draw_rect.c ****             res_buf[i] = (sh_buf[i] >> SHADOW_UPSCALE_SHIFT);
 798              		.loc 1 1070 15 view .LVU294
 799 0168 0023     		movs	r3, #0
 800 016a F8E7     		b	.L48
 801              	.LVL90:
 802              	.L68:
1070:Middlewares/lvgl/src/draw/lv_draw_rect.c ****             res_buf[i] = (sh_buf[i] >> SHADOW_UPSCALE_SHIFT);
 803              		.loc 1 1070 15 view .LVU295
 804              	.LBE207:
 805              	.LBB208:
1091:Middlewares/lvgl/src/draw/lv_draw_rect.c ****             else  sh_buf[i] = (sh_buf[i] << SHADOW_UPSCALE_SHIFT) / sw;
 806              		.loc 1 1091 44 is_stmt 1 discriminator 1 view .LVU296
1091:Middlewares/lvgl/src/draw/lv_draw_rect.c ****             else  sh_buf[i] = (sh_buf[i] << SHADOW_UPSCALE_SHIFT) / sw;
 807              		.loc 1 1091 54 is_stmt 0 discriminator 1 view .LVU297
 808 016c 28F81300 		strh	r0, [r8, r3, lsl #1]	@ movhi
 809              	.L55:
1090:Middlewares/lvgl/src/draw/lv_draw_rect.c ****             if(sh_buf[i] == sh_buf[i - 1]) sh_buf[i] = sh_buf[i - 1];
 810              		.loc 1 1090 48 is_stmt 1 discriminator 2 view .LVU298
1090:Middlewares/lvgl/src/draw/lv_draw_rect.c ****             if(sh_buf[i] == sh_buf[i - 1]) sh_buf[i] = sh_buf[i - 1];
 811              		.loc 1 1090 49 is_stmt 0 discriminator 2 view .LVU299
 812 0170 0133     		adds	r3, r3, #1
 813              	.LVL91:
 814              	.L53:
1090:Middlewares/lvgl/src/draw/lv_draw_rect.c ****             if(sh_buf[i] == sh_buf[i - 1]) sh_buf[i] = sh_buf[i - 1];
 815              		.loc 1 1090 20 is_stmt 1 discriminator 1 view .LVU300
1090:Middlewares/lvgl/src/draw/lv_draw_rect.c ****             if(sh_buf[i] == sh_buf[i - 1]) sh_buf[i] = sh_buf[i - 1];
 816              		.loc 1 1090 40 is_stmt 0 discriminator 1 view .LVU301
 817 0172 04FB04F2 		mul	r2, r4, r4
1090:Middlewares/lvgl/src/draw/lv_draw_rect.c ****             if(sh_buf[i] == sh_buf[i - 1]) sh_buf[i] = sh_buf[i - 1];
 818              		.loc 1 1090 9 discriminator 1 view .LVU302
 819 0176 9A42     		cmp	r2, r3
 820 0178 0ED9     		bls	.L67
ARM GAS  /tmp/ccUpPomB.s 			page 42


1091:Middlewares/lvgl/src/draw/lv_draw_rect.c ****             else  sh_buf[i] = (sh_buf[i] << SHADOW_UPSCALE_SHIFT) / sw;
 821              		.loc 1 1091 13 is_stmt 1 view .LVU303
1091:Middlewares/lvgl/src/draw/lv_draw_rect.c ****             else  sh_buf[i] = (sh_buf[i] << SHADOW_UPSCALE_SHIFT) / sw;
 822              		.loc 1 1091 22 is_stmt 0 view .LVU304
 823 017a 38F81320 		ldrh	r2, [r8, r3, lsl #1]
1091:Middlewares/lvgl/src/draw/lv_draw_rect.c ****             else  sh_buf[i] = (sh_buf[i] << SHADOW_UPSCALE_SHIFT) / sw;
 824              		.loc 1 1091 35 view .LVU305
 825 017e 6FF00040 		mvn	r0, #-2147483648
 826 0182 1844     		add	r0, r0, r3
 827 0184 38F81000 		ldrh	r0, [r8, r0, lsl #1]
1091:Middlewares/lvgl/src/draw/lv_draw_rect.c ****             else  sh_buf[i] = (sh_buf[i] << SHADOW_UPSCALE_SHIFT) / sw;
 828              		.loc 1 1091 15 view .LVU306
 829 0188 8242     		cmp	r2, r0
 830 018a EFD0     		beq	.L68
1092:Middlewares/lvgl/src/draw/lv_draw_rect.c ****         }
 831              		.loc 1 1092 19 is_stmt 1 view .LVU307
1092:Middlewares/lvgl/src/draw/lv_draw_rect.c ****         }
 832              		.loc 1 1092 42 is_stmt 0 view .LVU308
 833 018c 9201     		lsls	r2, r2, #6
1092:Middlewares/lvgl/src/draw/lv_draw_rect.c ****         }
 834              		.loc 1 1092 67 view .LVU309
 835 018e 92FBF1F2 		sdiv	r2, r2, r1
1092:Middlewares/lvgl/src/draw/lv_draw_rect.c ****         }
 836              		.loc 1 1092 29 view .LVU310
 837 0192 28F81320 		strh	r2, [r8, r3, lsl #1]	@ movhi
 838 0196 EBE7     		b	.L55
 839              	.L67:
1095:Middlewares/lvgl/src/draw/lv_draw_rect.c ****     }
 840              		.loc 1 1095 9 is_stmt 1 view .LVU311
 841 0198 4246     		mov	r2, r8
 842 019a 2846     		mov	r0, r5
 843 019c FFF7FEFF 		bl	shadow_blur_corner
 844              	.LVL92:
 845              	.L52:
1090:Middlewares/lvgl/src/draw/lv_draw_rect.c ****             if(sh_buf[i] == sh_buf[i - 1]) sh_buf[i] = sh_buf[i - 1];
 846              		.loc 1 1090 15 is_stmt 0 discriminator 1 view .LVU312
 847 01a0 0023     		movs	r3, #0
 848 01a2 04E0     		b	.L57
 849              	.LVL93:
 850              	.L58:
1090:Middlewares/lvgl/src/draw/lv_draw_rect.c ****             if(sh_buf[i] == sh_buf[i - 1]) sh_buf[i] = sh_buf[i - 1];
 851              		.loc 1 1090 15 discriminator 1 view .LVU313
 852              	.LBE208:
1100:Middlewares/lvgl/src/draw/lv_draw_rect.c ****     }
 853              		.loc 1 1100 9 is_stmt 1 discriminator 3 view .LVU314
1100:Middlewares/lvgl/src/draw/lv_draw_rect.c ****     }
 854              		.loc 1 1100 28 is_stmt 0 discriminator 3 view .LVU315
 855 01a4 38F81320 		ldrh	r2, [r8, r3, lsl #1]
1100:Middlewares/lvgl/src/draw/lv_draw_rect.c ****     }
 856              		.loc 1 1100 20 discriminator 3 view .LVU316
 857 01a8 08F80320 		strb	r2, [r8, r3]
1099:Middlewares/lvgl/src/draw/lv_draw_rect.c ****         res_buf[x] = sh_buf[x];
 858              		.loc 1 1099 33 is_stmt 1 discriminator 3 view .LVU317
1099:Middlewares/lvgl/src/draw/lv_draw_rect.c ****         res_buf[x] = sh_buf[x];
 859              		.loc 1 1099 34 is_stmt 0 discriminator 3 view .LVU318
 860 01ac 0133     		adds	r3, r3, #1
 861              	.LVL94:
ARM GAS  /tmp/ccUpPomB.s 			page 43


 862              	.L57:
1099:Middlewares/lvgl/src/draw/lv_draw_rect.c ****         res_buf[x] = sh_buf[x];
 863              		.loc 1 1099 16 is_stmt 1 discriminator 1 view .LVU319
1099:Middlewares/lvgl/src/draw/lv_draw_rect.c ****         res_buf[x] = sh_buf[x];
 864              		.loc 1 1099 25 is_stmt 0 discriminator 1 view .LVU320
 865 01ae 04FB04F2 		mul	r2, r4, r4
1099:Middlewares/lvgl/src/draw/lv_draw_rect.c ****         res_buf[x] = sh_buf[x];
 866              		.loc 1 1099 5 discriminator 1 view .LVU321
 867 01b2 9A42     		cmp	r2, r3
 868 01b4 F6DC     		bgt	.L58
 869              	.LVL95:
 870              	.L37:
1104:Middlewares/lvgl/src/draw/lv_draw_rect.c **** 
 871              		.loc 1 1104 1 view .LVU322
 872 01b6 0DB0     		add	sp, sp, #52
 873              	.LCFI5:
 874              		.cfi_def_cfa_offset 36
 875              		@ sp needed
 876 01b8 BDE8F08F 		pop	{r4, r5, r6, r7, r8, r9, r10, fp, pc}
1104:Middlewares/lvgl/src/draw/lv_draw_rect.c **** 
 877              		.loc 1 1104 1 view .LVU323
 878              		.cfi_endproc
 879              	.LFE154:
 881              		.section	.text.draw_shadow,"ax",%progbits
 882              		.align	1
 883              		.syntax unified
 884              		.thumb
 885              		.thumb_func
 887              	draw_shadow:
 888              	.LVL96:
 889              	.LFB153:
 539:Middlewares/lvgl/src/draw/lv_draw_rect.c ****     /*Check whether the shadow is visible*/
 890              		.loc 1 539 1 is_stmt 1 view -0
 891              		.cfi_startproc
 892              		@ args = 0, pretend = 0, frame = 136
 893              		@ frame_needed = 0, uses_anonymous_args = 0
 539:Middlewares/lvgl/src/draw/lv_draw_rect.c ****     /*Check whether the shadow is visible*/
 894              		.loc 1 539 1 is_stmt 0 view .LVU325
 895 0000 2DE9F04F 		push	{r4, r5, r6, r7, r8, r9, r10, fp, lr}
 896              	.LCFI6:
 897              		.cfi_def_cfa_offset 36
 898              		.cfi_offset 4, -36
 899              		.cfi_offset 5, -32
 900              		.cfi_offset 6, -28
 901              		.cfi_offset 7, -24
 902              		.cfi_offset 8, -20
 903              		.cfi_offset 9, -16
 904              		.cfi_offset 10, -12
 905              		.cfi_offset 11, -8
 906              		.cfi_offset 14, -4
 907 0004 A7B0     		sub	sp, sp, #156
 908              	.LCFI7:
 909              		.cfi_def_cfa_offset 192
 910 0006 0590     		str	r0, [sp, #20]
 911 0008 0491     		str	r1, [sp, #16]
 541:Middlewares/lvgl/src/draw/lv_draw_rect.c ****     if(dsc->shadow_opa <= LV_OPA_MIN) return;
 912              		.loc 1 541 5 is_stmt 1 view .LVU326
ARM GAS  /tmp/ccUpPomB.s 			page 44


 541:Middlewares/lvgl/src/draw/lv_draw_rect.c ****     if(dsc->shadow_opa <= LV_OPA_MIN) return;
 913              		.loc 1 541 11 is_stmt 0 view .LVU327
 914 000a B2F92A40 		ldrsh	r4, [r2, #42]
 541:Middlewares/lvgl/src/draw/lv_draw_rect.c ****     if(dsc->shadow_opa <= LV_OPA_MIN) return;
 915              		.loc 1 541 7 view .LVU328
 916 000e 002C     		cmp	r4, #0
 917 0010 00F0DC83 		beq	.L69
 918 0014 1546     		mov	r5, r2
 542:Middlewares/lvgl/src/draw/lv_draw_rect.c **** 
 919              		.loc 1 542 5 is_stmt 1 view .LVU329
 542:Middlewares/lvgl/src/draw/lv_draw_rect.c **** 
 920              		.loc 1 542 11 is_stmt 0 view .LVU330
 921 0016 92F83230 		ldrb	r3, [r2, #50]	@ zero_extendqisi2
 922 001a 0793     		str	r3, [sp, #28]
 542:Middlewares/lvgl/src/draw/lv_draw_rect.c **** 
 923              		.loc 1 542 7 view .LVU331
 924 001c 022B     		cmp	r3, #2
 925 001e 40F2D583 		bls	.L69
 544:Middlewares/lvgl/src/draw/lv_draw_rect.c ****        dsc->shadow_ofs_y == 0 && dsc->shadow_spread <= 0) {
 926              		.loc 1 544 5 is_stmt 1 view .LVU332
 544:Middlewares/lvgl/src/draw/lv_draw_rect.c ****        dsc->shadow_ofs_y == 0 && dsc->shadow_spread <= 0) {
 927              		.loc 1 544 7 is_stmt 0 view .LVU333
 928 0022 012C     		cmp	r4, #1
 929 0024 00F0F180 		beq	.L162
 930              	.L71:
 549:Middlewares/lvgl/src/draw/lv_draw_rect.c **** 
 931              		.loc 1 549 5 is_stmt 1 view .LVU334
 932              	.LVL97:
 551:Middlewares/lvgl/src/draw/lv_draw_rect.c ****     sh_rect_area.x1 = coords->x1  + dsc->shadow_ofs_x - dsc->shadow_spread;
 933              		.loc 1 551 5 view .LVU335
 552:Middlewares/lvgl/src/draw/lv_draw_rect.c ****     sh_rect_area.x2 = coords->x2  + dsc->shadow_ofs_x + dsc->shadow_spread;
 934              		.loc 1 552 5 view .LVU336
 552:Middlewares/lvgl/src/draw/lv_draw_rect.c ****     sh_rect_area.x2 = coords->x2  + dsc->shadow_ofs_x + dsc->shadow_spread;
 935              		.loc 1 552 29 is_stmt 0 view .LVU337
 936 0028 059F     		ldr	r7, [sp, #20]
 937 002a 3B88     		ldrh	r3, [r7]
 552:Middlewares/lvgl/src/draw/lv_draw_rect.c ****     sh_rect_area.x2 = coords->x2  + dsc->shadow_ofs_x + dsc->shadow_spread;
 938              		.loc 1 552 40 view .LVU338
 939 002c A98D     		ldrh	r1, [r5, #44]
 940              	.LVL98:
 552:Middlewares/lvgl/src/draw/lv_draw_rect.c ****     sh_rect_area.x2 = coords->x2  + dsc->shadow_ofs_x + dsc->shadow_spread;
 941              		.loc 1 552 35 view .LVU339
 942 002e 0B44     		add	r3, r3, r1
 943 0030 9BB2     		uxth	r3, r3
 552:Middlewares/lvgl/src/draw/lv_draw_rect.c ****     sh_rect_area.x2 = coords->x2  + dsc->shadow_ofs_x + dsc->shadow_spread;
 944              		.loc 1 552 60 view .LVU340
 945 0032 2A8E     		ldrh	r2, [r5, #48]
 946              	.LVL99:
 552:Middlewares/lvgl/src/draw/lv_draw_rect.c ****     sh_rect_area.x2 = coords->x2  + dsc->shadow_ofs_x + dsc->shadow_spread;
 947              		.loc 1 552 55 view .LVU341
 948 0034 9B1A     		subs	r3, r3, r2
 949 0036 9EB2     		uxth	r6, r3
 552:Middlewares/lvgl/src/draw/lv_draw_rect.c ****     sh_rect_area.x2 = coords->x2  + dsc->shadow_ofs_x + dsc->shadow_spread;
 950              		.loc 1 552 21 view .LVU342
 951 0038 ADF89030 		strh	r3, [sp, #144]	@ movhi
 553:Middlewares/lvgl/src/draw/lv_draw_rect.c ****     sh_rect_area.y1 = coords->y1  + dsc->shadow_ofs_y - dsc->shadow_spread;
 952              		.loc 1 553 5 is_stmt 1 view .LVU343
ARM GAS  /tmp/ccUpPomB.s 			page 45


 553:Middlewares/lvgl/src/draw/lv_draw_rect.c ****     sh_rect_area.y1 = coords->y1  + dsc->shadow_ofs_y - dsc->shadow_spread;
 953              		.loc 1 553 29 is_stmt 0 view .LVU344
 954 003c BB88     		ldrh	r3, [r7, #4]
 553:Middlewares/lvgl/src/draw/lv_draw_rect.c ****     sh_rect_area.y1 = coords->y1  + dsc->shadow_ofs_y - dsc->shadow_spread;
 955              		.loc 1 553 35 view .LVU345
 956 003e 0B44     		add	r3, r3, r1
 553:Middlewares/lvgl/src/draw/lv_draw_rect.c ****     sh_rect_area.y1 = coords->y1  + dsc->shadow_ofs_y - dsc->shadow_spread;
 957              		.loc 1 553 55 view .LVU346
 958 0040 12FA83F3 		uxtah	r3, r2, r3
 959 0044 98B2     		uxth	r0, r3
 960              	.LVL100:
 553:Middlewares/lvgl/src/draw/lv_draw_rect.c ****     sh_rect_area.y1 = coords->y1  + dsc->shadow_ofs_y - dsc->shadow_spread;
 961              		.loc 1 553 21 view .LVU347
 962 0046 ADF89430 		strh	r3, [sp, #148]	@ movhi
 554:Middlewares/lvgl/src/draw/lv_draw_rect.c ****     sh_rect_area.y2 = coords->y2  + dsc->shadow_ofs_y + dsc->shadow_spread;
 963              		.loc 1 554 5 is_stmt 1 view .LVU348
 554:Middlewares/lvgl/src/draw/lv_draw_rect.c ****     sh_rect_area.y2 = coords->y2  + dsc->shadow_ofs_y + dsc->shadow_spread;
 964              		.loc 1 554 29 is_stmt 0 view .LVU349
 965 004a 7B88     		ldrh	r3, [r7, #2]
 554:Middlewares/lvgl/src/draw/lv_draw_rect.c ****     sh_rect_area.y2 = coords->y2  + dsc->shadow_ofs_y + dsc->shadow_spread;
 966              		.loc 1 554 40 view .LVU350
 967 004c EF8D     		ldrh	r7, [r5, #46]
 554:Middlewares/lvgl/src/draw/lv_draw_rect.c ****     sh_rect_area.y2 = coords->y2  + dsc->shadow_ofs_y + dsc->shadow_spread;
 968              		.loc 1 554 35 view .LVU351
 969 004e 3B44     		add	r3, r3, r7
 970 0050 9BB2     		uxth	r3, r3
 554:Middlewares/lvgl/src/draw/lv_draw_rect.c ****     sh_rect_area.y2 = coords->y2  + dsc->shadow_ofs_y + dsc->shadow_spread;
 971              		.loc 1 554 55 view .LVU352
 972 0052 9B1A     		subs	r3, r3, r2
 973 0054 99B2     		uxth	r1, r3
 554:Middlewares/lvgl/src/draw/lv_draw_rect.c ****     sh_rect_area.y2 = coords->y2  + dsc->shadow_ofs_y + dsc->shadow_spread;
 974              		.loc 1 554 21 view .LVU353
 975 0056 ADF89230 		strh	r3, [sp, #146]	@ movhi
 555:Middlewares/lvgl/src/draw/lv_draw_rect.c **** 
 976              		.loc 1 555 5 is_stmt 1 view .LVU354
 555:Middlewares/lvgl/src/draw/lv_draw_rect.c **** 
 977              		.loc 1 555 29 is_stmt 0 view .LVU355
 978 005a 059B     		ldr	r3, [sp, #20]
 979 005c DB88     		ldrh	r3, [r3, #6]
 555:Middlewares/lvgl/src/draw/lv_draw_rect.c **** 
 980              		.loc 1 555 35 view .LVU356
 981 005e 3B44     		add	r3, r3, r7
 555:Middlewares/lvgl/src/draw/lv_draw_rect.c **** 
 982              		.loc 1 555 55 view .LVU357
 983 0060 12FA83F3 		uxtah	r3, r2, r3
 984 0064 9AB2     		uxth	r2, r3
 555:Middlewares/lvgl/src/draw/lv_draw_rect.c **** 
 985              		.loc 1 555 21 view .LVU358
 986 0066 ADF89630 		strh	r3, [sp, #150]	@ movhi
 557:Middlewares/lvgl/src/draw/lv_draw_rect.c ****     sh_area.x1 = sh_rect_area.x1 - sw / 2 - 1;
 987              		.loc 1 557 5 is_stmt 1 view .LVU359
 558:Middlewares/lvgl/src/draw/lv_draw_rect.c ****     sh_area.x2 = sh_rect_area.x2 + sw / 2 + 1;
 988              		.loc 1 558 5 view .LVU360
 558:Middlewares/lvgl/src/draw/lv_draw_rect.c ****     sh_area.x2 = sh_rect_area.x2 + sw / 2 + 1;
 989              		.loc 1 558 39 is_stmt 0 view .LVU361
 990 006a 2346     		mov	r3, r4
 991 006c 002C     		cmp	r4, #0
ARM GAS  /tmp/ccUpPomB.s 			page 46


 992 006e C0F2D680 		blt	.L163
 993              	.L72:
 558:Middlewares/lvgl/src/draw/lv_draw_rect.c ****     sh_area.x2 = sh_rect_area.x2 + sw / 2 + 1;
 994              		.loc 1 558 39 view .LVU362
 995 0072 5B10     		asrs	r3, r3, #1
 996 0074 5B42     		rsbs	r3, r3, #0
 558:Middlewares/lvgl/src/draw/lv_draw_rect.c ****     sh_area.x2 = sh_rect_area.x2 + sw / 2 + 1;
 997              		.loc 1 558 34 view .LVU363
 998 0076 9BB2     		uxth	r3, r3
 999 0078 1E44     		add	r6, r6, r3
 1000 007a B6B2     		uxth	r6, r6
 558:Middlewares/lvgl/src/draw/lv_draw_rect.c ****     sh_area.x2 = sh_rect_area.x2 + sw / 2 + 1;
 1001              		.loc 1 558 43 view .LVU364
 1002 007c 013E     		subs	r6, r6, #1
 558:Middlewares/lvgl/src/draw/lv_draw_rect.c ****     sh_area.x2 = sh_rect_area.x2 + sw / 2 + 1;
 1003              		.loc 1 558 16 view .LVU365
 1004 007e ADF88860 		strh	r6, [sp, #136]	@ movhi
 559:Middlewares/lvgl/src/draw/lv_draw_rect.c ****     sh_area.y1 = sh_rect_area.y1 - sw / 2 - 1;
 1005              		.loc 1 559 5 is_stmt 1 view .LVU366
 559:Middlewares/lvgl/src/draw/lv_draw_rect.c ****     sh_area.y1 = sh_rect_area.y1 - sw / 2 - 1;
 1006              		.loc 1 559 39 is_stmt 0 view .LVU367
 1007 0082 2646     		mov	r6, r4
 1008 0084 002C     		cmp	r4, #0
 1009 0086 C0F2CC80 		blt	.L164
 1010              	.L73:
 559:Middlewares/lvgl/src/draw/lv_draw_rect.c ****     sh_area.y1 = sh_rect_area.y1 - sw / 2 - 1;
 1011              		.loc 1 559 34 view .LVU368
 1012 008a C6F34F06 		ubfx	r6, r6, #1, #16
 1013 008e 3044     		add	r0, r0, r6
 1014 0090 80B2     		uxth	r0, r0
 559:Middlewares/lvgl/src/draw/lv_draw_rect.c ****     sh_area.y1 = sh_rect_area.y1 - sw / 2 - 1;
 1015              		.loc 1 559 43 view .LVU369
 1016 0092 0130     		adds	r0, r0, #1
 559:Middlewares/lvgl/src/draw/lv_draw_rect.c ****     sh_area.y1 = sh_rect_area.y1 - sw / 2 - 1;
 1017              		.loc 1 559 16 view .LVU370
 1018 0094 ADF88C00 		strh	r0, [sp, #140]	@ movhi
 560:Middlewares/lvgl/src/draw/lv_draw_rect.c ****     sh_area.y2 = sh_rect_area.y2 + sw / 2 + 1;
 1019              		.loc 1 560 5 is_stmt 1 view .LVU371
 560:Middlewares/lvgl/src/draw/lv_draw_rect.c ****     sh_area.y2 = sh_rect_area.y2 + sw / 2 + 1;
 1020              		.loc 1 560 34 is_stmt 0 view .LVU372
 1021 0098 1944     		add	r1, r1, r3
 1022 009a 89B2     		uxth	r1, r1
 560:Middlewares/lvgl/src/draw/lv_draw_rect.c ****     sh_area.y2 = sh_rect_area.y2 + sw / 2 + 1;
 1023              		.loc 1 560 43 view .LVU373
 1024 009c 0139     		subs	r1, r1, #1
 560:Middlewares/lvgl/src/draw/lv_draw_rect.c ****     sh_area.y2 = sh_rect_area.y2 + sw / 2 + 1;
 1025              		.loc 1 560 16 view .LVU374
 1026 009e ADF88A10 		strh	r1, [sp, #138]	@ movhi
 561:Middlewares/lvgl/src/draw/lv_draw_rect.c **** 
 1027              		.loc 1 561 5 is_stmt 1 view .LVU375
 561:Middlewares/lvgl/src/draw/lv_draw_rect.c **** 
 1028              		.loc 1 561 34 is_stmt 0 view .LVU376
 1029 00a2 9319     		adds	r3, r2, r6
 1030 00a4 9BB2     		uxth	r3, r3
 561:Middlewares/lvgl/src/draw/lv_draw_rect.c **** 
 1031              		.loc 1 561 43 view .LVU377
 1032 00a6 0133     		adds	r3, r3, #1
ARM GAS  /tmp/ccUpPomB.s 			page 47


 561:Middlewares/lvgl/src/draw/lv_draw_rect.c **** 
 1033              		.loc 1 561 16 view .LVU378
 1034 00a8 ADF88E30 		strh	r3, [sp, #142]	@ movhi
 563:Middlewares/lvgl/src/draw/lv_draw_rect.c **** 
 1035              		.loc 1 563 5 is_stmt 1 view .LVU379
 1036              	.LVL101:
 565:Middlewares/lvgl/src/draw/lv_draw_rect.c **** 
 1037              		.loc 1 565 5 view .LVU380
 565:Middlewares/lvgl/src/draw/lv_draw_rect.c **** 
 1038              		.loc 1 565 7 is_stmt 0 view .LVU381
 1039 00ac 079B     		ldr	r3, [sp, #28]
 1040 00ae FD2B     		cmp	r3, #253
 1041 00b0 01D9     		bls	.L74
 565:Middlewares/lvgl/src/draw/lv_draw_rect.c **** 
 1042              		.loc 1 565 30 view .LVU382
 1043 00b2 FF23     		movs	r3, #255
 1044 00b4 0793     		str	r3, [sp, #28]
 1045              	.LVL102:
 1046              	.L74:
 567:Middlewares/lvgl/src/draw/lv_draw_rect.c ****     lv_disp_draw_buf_t * draw_buf = lv_disp_get_draw_buf(disp);
 1047              		.loc 1 567 5 is_stmt 1 view .LVU383
 567:Middlewares/lvgl/src/draw/lv_draw_rect.c ****     lv_disp_draw_buf_t * draw_buf = lv_disp_get_draw_buf(disp);
 1048              		.loc 1 567 24 is_stmt 0 view .LVU384
 1049 00b6 FFF7FEFF 		bl	_lv_refr_get_disp_refreshing
 1050              	.LVL103:
 568:Middlewares/lvgl/src/draw/lv_draw_rect.c **** 
 1051              		.loc 1 568 5 is_stmt 1 view .LVU385
 568:Middlewares/lvgl/src/draw/lv_draw_rect.c **** 
 1052              		.loc 1 568 37 is_stmt 0 view .LVU386
 1053 00ba FFF7FEFF 		bl	lv_disp_get_draw_buf
 1054              	.LVL104:
 568:Middlewares/lvgl/src/draw/lv_draw_rect.c **** 
 1055              		.loc 1 568 37 view .LVU387
 1056 00be 0646     		mov	r6, r0
 1057              	.LVL105:
 572:Middlewares/lvgl/src/draw/lv_draw_rect.c ****     bool is_common;
 1058              		.loc 1 572 5 is_stmt 1 view .LVU388
 573:Middlewares/lvgl/src/draw/lv_draw_rect.c ****     is_common = _lv_area_intersect(&draw_area, &sh_area, clip);
 1059              		.loc 1 573 5 view .LVU389
 574:Middlewares/lvgl/src/draw/lv_draw_rect.c ****     if(is_common == false) return;
 1060              		.loc 1 574 5 view .LVU390
 574:Middlewares/lvgl/src/draw/lv_draw_rect.c ****     if(is_common == false) return;
 1061              		.loc 1 574 17 is_stmt 0 view .LVU391
 1062 00c0 049A     		ldr	r2, [sp, #16]
 1063 00c2 22A9     		add	r1, sp, #136
 1064 00c4 20A8     		add	r0, sp, #128
 1065              	.LVL106:
 574:Middlewares/lvgl/src/draw/lv_draw_rect.c ****     if(is_common == false) return;
 1066              		.loc 1 574 17 view .LVU392
 1067 00c6 FFF7FEFF 		bl	_lv_area_intersect
 1068              	.LVL107:
 575:Middlewares/lvgl/src/draw/lv_draw_rect.c **** 
 1069              		.loc 1 575 5 is_stmt 1 view .LVU393
 575:Middlewares/lvgl/src/draw/lv_draw_rect.c **** 
 1070              		.loc 1 575 7 is_stmt 0 view .LVU394
 1071 00ca 0690     		str	r0, [sp, #24]
 1072 00cc 0028     		cmp	r0, #0
ARM GAS  /tmp/ccUpPomB.s 			page 48


 1073 00ce 00F07D83 		beq	.L69
 577:Middlewares/lvgl/src/draw/lv_draw_rect.c **** 
 1074              		.loc 1 577 5 is_stmt 1 view .LVU395
 1075              	.LVL108:
 581:Middlewares/lvgl/src/draw/lv_draw_rect.c ****     draw_area.y1 -= disp_area->y1;
 1076              		.loc 1 581 5 view .LVU396
 581:Middlewares/lvgl/src/draw/lv_draw_rect.c ****     draw_area.y1 -= disp_area->y1;
 1077              		.loc 1 581 30 is_stmt 0 view .LVU397
 1078 00d2 318A     		ldrh	r1, [r6, #16]
 581:Middlewares/lvgl/src/draw/lv_draw_rect.c ****     draw_area.y1 -= disp_area->y1;
 1079              		.loc 1 581 18 view .LVU398
 1080 00d4 BDF88030 		ldrh	r3, [sp, #128]
 1081 00d8 5B1A     		subs	r3, r3, r1
 1082 00da ADF88030 		strh	r3, [sp, #128]	@ movhi
 582:Middlewares/lvgl/src/draw/lv_draw_rect.c ****     draw_area.x2 -= disp_area->x1;
 1083              		.loc 1 582 5 is_stmt 1 view .LVU399
 582:Middlewares/lvgl/src/draw/lv_draw_rect.c ****     draw_area.x2 -= disp_area->x1;
 1084              		.loc 1 582 30 is_stmt 0 view .LVU400
 1085 00de 728A     		ldrh	r2, [r6, #18]
 582:Middlewares/lvgl/src/draw/lv_draw_rect.c ****     draw_area.x2 -= disp_area->x1;
 1086              		.loc 1 582 18 view .LVU401
 1087 00e0 BDF88230 		ldrh	r3, [sp, #130]
 1088 00e4 9B1A     		subs	r3, r3, r2
 1089 00e6 ADF88230 		strh	r3, [sp, #130]	@ movhi
 583:Middlewares/lvgl/src/draw/lv_draw_rect.c ****     draw_area.y2 -= disp_area->y1;
 1090              		.loc 1 583 5 is_stmt 1 view .LVU402
 583:Middlewares/lvgl/src/draw/lv_draw_rect.c ****     draw_area.y2 -= disp_area->y1;
 1091              		.loc 1 583 18 is_stmt 0 view .LVU403
 1092 00ea BDF88430 		ldrh	r3, [sp, #132]
 1093 00ee 5B1A     		subs	r3, r3, r1
 1094 00f0 ADF88430 		strh	r3, [sp, #132]	@ movhi
 584:Middlewares/lvgl/src/draw/lv_draw_rect.c **** 
 1095              		.loc 1 584 5 is_stmt 1 view .LVU404
 584:Middlewares/lvgl/src/draw/lv_draw_rect.c **** 
 1096              		.loc 1 584 18 is_stmt 0 view .LVU405
 1097 00f4 BDF88630 		ldrh	r3, [sp, #134]
 1098 00f8 9B1A     		subs	r3, r3, r2
 1099 00fa ADF88630 		strh	r3, [sp, #134]	@ movhi
 587:Middlewares/lvgl/src/draw/lv_draw_rect.c ****     lv_area_copy(&bg_coords, coords);
 1100              		.loc 1 587 5 is_stmt 1 view .LVU406
 588:Middlewares/lvgl/src/draw/lv_draw_rect.c ****     bg_coords.x1 += 1;
 1101              		.loc 1 588 5 view .LVU407
 1102              	.LVL109:
 1103              	.LBB209:
 1104              	.LBI209:
 120:Middlewares/lvgl/src/draw/../misc/lv_area.h **** {
 1105              		.loc 2 120 20 view .LVU408
 1106              	.LBB210:
 122:Middlewares/lvgl/src/draw/../misc/lv_area.h ****     dest->y1 = src->y1;
 1107              		.loc 2 122 5 view .LVU409
 122:Middlewares/lvgl/src/draw/../misc/lv_area.h ****     dest->y1 = src->y1;
 1108              		.loc 2 122 19 is_stmt 0 view .LVU410
 1109 00fe 0599     		ldr	r1, [sp, #20]
 1110 0100 B1F90020 		ldrsh	r2, [r1]
 122:Middlewares/lvgl/src/draw/../misc/lv_area.h ****     dest->y1 = src->y1;
 1111              		.loc 2 122 14 view .LVU411
 1112 0104 ADF87820 		strh	r2, [sp, #120]	@ movhi
ARM GAS  /tmp/ccUpPomB.s 			page 49


 123:Middlewares/lvgl/src/draw/../misc/lv_area.h ****     dest->x2 = src->x2;
 1113              		.loc 2 123 5 is_stmt 1 view .LVU412
 123:Middlewares/lvgl/src/draw/../misc/lv_area.h ****     dest->x2 = src->x2;
 1114              		.loc 2 123 19 is_stmt 0 view .LVU413
 1115 0108 B1F90200 		ldrsh	r0, [r1, #2]
 1116              	.LVL110:
 123:Middlewares/lvgl/src/draw/../misc/lv_area.h ****     dest->x2 = src->x2;
 1117              		.loc 2 123 14 view .LVU414
 1118 010c ADF87A00 		strh	r0, [sp, #122]	@ movhi
 124:Middlewares/lvgl/src/draw/../misc/lv_area.h ****     dest->y2 = src->y2;
 1119              		.loc 2 124 5 is_stmt 1 view .LVU415
 124:Middlewares/lvgl/src/draw/../misc/lv_area.h ****     dest->y2 = src->y2;
 1120              		.loc 2 124 19 is_stmt 0 view .LVU416
 1121 0110 B1F90430 		ldrsh	r3, [r1, #4]
 124:Middlewares/lvgl/src/draw/../misc/lv_area.h ****     dest->y2 = src->y2;
 1122              		.loc 2 124 14 view .LVU417
 1123 0114 ADF87C30 		strh	r3, [sp, #124]	@ movhi
 125:Middlewares/lvgl/src/draw/../misc/lv_area.h **** }
 1124              		.loc 2 125 5 is_stmt 1 view .LVU418
 125:Middlewares/lvgl/src/draw/../misc/lv_area.h **** }
 1125              		.loc 2 125 19 is_stmt 0 view .LVU419
 1126 0118 B1F90610 		ldrsh	r1, [r1, #6]
 125:Middlewares/lvgl/src/draw/../misc/lv_area.h **** }
 1127              		.loc 2 125 14 view .LVU420
 1128 011c ADF87E10 		strh	r1, [sp, #126]	@ movhi
 1129              	.LVL111:
 125:Middlewares/lvgl/src/draw/../misc/lv_area.h **** }
 1130              		.loc 2 125 14 view .LVU421
 1131              	.LBE210:
 1132              	.LBE209:
 589:Middlewares/lvgl/src/draw/lv_draw_rect.c ****     bg_coords.y1 += 1;
 1133              		.loc 1 589 5 is_stmt 1 view .LVU422
 589:Middlewares/lvgl/src/draw/lv_draw_rect.c ****     bg_coords.y1 += 1;
 1134              		.loc 1 589 18 is_stmt 0 view .LVU423
 1135 0120 0132     		adds	r2, r2, #1
 1136 0122 96B2     		uxth	r6, r2
 1137              	.LVL112:
 589:Middlewares/lvgl/src/draw/lv_draw_rect.c ****     bg_coords.y1 += 1;
 1138              		.loc 1 589 18 view .LVU424
 1139 0124 ADF87860 		strh	r6, [sp, #120]	@ movhi
 590:Middlewares/lvgl/src/draw/lv_draw_rect.c ****     bg_coords.x2 -= 1;
 1140              		.loc 1 590 5 is_stmt 1 view .LVU425
 590:Middlewares/lvgl/src/draw/lv_draw_rect.c ****     bg_coords.x2 -= 1;
 1141              		.loc 1 590 18 is_stmt 0 view .LVU426
 1142 0128 0130     		adds	r0, r0, #1
 1143 012a 80B2     		uxth	r0, r0
 1144 012c ADF87A00 		strh	r0, [sp, #122]	@ movhi
 591:Middlewares/lvgl/src/draw/lv_draw_rect.c ****     bg_coords.y2 -= 1;
 1145              		.loc 1 591 5 is_stmt 1 view .LVU427
 591:Middlewares/lvgl/src/draw/lv_draw_rect.c ****     bg_coords.y2 -= 1;
 1146              		.loc 1 591 18 is_stmt 0 view .LVU428
 1147 0130 013B     		subs	r3, r3, #1
 1148 0132 9AB2     		uxth	r2, r3
 1149 0134 ADF87C20 		strh	r2, [sp, #124]	@ movhi
 592:Middlewares/lvgl/src/draw/lv_draw_rect.c **** 
 1150              		.loc 1 592 5 is_stmt 1 view .LVU429
 592:Middlewares/lvgl/src/draw/lv_draw_rect.c **** 
ARM GAS  /tmp/ccUpPomB.s 			page 50


 1151              		.loc 1 592 18 is_stmt 0 view .LVU430
 1152 0138 4B1E     		subs	r3, r1, #1
 1153 013a 9BB2     		uxth	r3, r3
 1154 013c ADF87E30 		strh	r3, [sp, #126]	@ movhi
 595:Middlewares/lvgl/src/draw/lv_draw_rect.c ****     int32_t short_side = LV_MIN(lv_area_get_width(&bg_coords), lv_area_get_height(&bg_coords));
 1155              		.loc 1 595 5 is_stmt 1 view .LVU431
 595:Middlewares/lvgl/src/draw/lv_draw_rect.c ****     int32_t short_side = LV_MIN(lv_area_get_width(&bg_coords), lv_area_get_height(&bg_coords));
 1156              		.loc 1 595 23 is_stmt 0 view .LVU432
 1157 0140 B5F90010 		ldrsh	r1, [r5]
 1158              	.LVL113:
 596:Middlewares/lvgl/src/draw/lv_draw_rect.c ****     if(r_bg > short_side >> 1) r_bg = short_side >> 1;
 1159              		.loc 1 596 5 is_stmt 1 view .LVU433
 1160              	.LBB211:
 1161              	.LBI211:
 133:Middlewares/lvgl/src/draw/../misc/lv_area.h **** {
 1162              		.loc 2 133 26 view .LVU434
 1163              	.LBB212:
 135:Middlewares/lvgl/src/draw/../misc/lv_area.h **** }
 1164              		.loc 2 135 5 view .LVU435
 135:Middlewares/lvgl/src/draw/../misc/lv_area.h **** }
 1165              		.loc 2 135 36 is_stmt 0 view .LVU436
 1166 0144 921B     		subs	r2, r2, r6
 1167 0146 92B2     		uxth	r2, r2
 135:Middlewares/lvgl/src/draw/../misc/lv_area.h **** }
 1168              		.loc 2 135 49 view .LVU437
 1169 0148 0132     		adds	r2, r2, #1
 135:Middlewares/lvgl/src/draw/../misc/lv_area.h **** }
 1170              		.loc 2 135 12 view .LVU438
 1171 014a 12B2     		sxth	r2, r2
 1172              	.LVL114:
 135:Middlewares/lvgl/src/draw/../misc/lv_area.h **** }
 1173              		.loc 2 135 12 view .LVU439
 1174              	.LBE212:
 1175              	.LBE211:
 1176              	.LBB213:
 1177              	.LBI213:
 143:Middlewares/lvgl/src/draw/../misc/lv_area.h **** {
 1178              		.loc 2 143 26 is_stmt 1 view .LVU440
 1179              	.LBB214:
 1180              		.loc 2 145 5 view .LVU441
 1181              		.loc 2 145 36 is_stmt 0 view .LVU442
 1182 014c 1B1A     		subs	r3, r3, r0
 1183 014e 9BB2     		uxth	r3, r3
 1184              		.loc 2 145 49 view .LVU443
 1185 0150 0133     		adds	r3, r3, #1
 1186              		.loc 2 145 12 view .LVU444
 1187 0152 1BB2     		sxth	r3, r3
 1188              	.LVL115:
 1189              		.loc 2 145 12 view .LVU445
 1190              	.LBE214:
 1191              	.LBE213:
 596:Middlewares/lvgl/src/draw/lv_draw_rect.c ****     if(r_bg > short_side >> 1) r_bg = short_side >> 1;
 1192              		.loc 1 596 26 view .LVU446
 1193 0154 9A42     		cmp	r2, r3
 1194 0156 00DB     		blt	.L76
 1195              	.LVL116:
 1196              		.loc 2 145 5 is_stmt 1 view .LVU447
ARM GAS  /tmp/ccUpPomB.s 			page 51


 596:Middlewares/lvgl/src/draw/lv_draw_rect.c ****     if(r_bg > short_side >> 1) r_bg = short_side >> 1;
 1197              		.loc 1 596 26 is_stmt 0 view .LVU448
 1198 0158 1A46     		mov	r2, r3
 1199              	.L76:
 1200              	.LVL117:
 597:Middlewares/lvgl/src/draw/lv_draw_rect.c **** 
 1201              		.loc 1 597 5 is_stmt 1 discriminator 4 view .LVU449
 597:Middlewares/lvgl/src/draw/lv_draw_rect.c **** 
 1202              		.loc 1 597 26 is_stmt 0 discriminator 4 view .LVU450
 1203 015a 5710     		asrs	r7, r2, #1
 597:Middlewares/lvgl/src/draw/lv_draw_rect.c **** 
 1204              		.loc 1 597 7 discriminator 4 view .LVU451
 1205 015c B1EB620F 		cmp	r1, r2, asr #1
 1206 0160 00DC     		bgt	.L77
 595:Middlewares/lvgl/src/draw/lv_draw_rect.c ****     int32_t short_side = LV_MIN(lv_area_get_width(&bg_coords), lv_area_get_height(&bg_coords));
 1207              		.loc 1 595 13 view .LVU452
 1208 0162 0F46     		mov	r7, r1
 1209              	.L77:
 1210              	.LVL118:
 599:Middlewares/lvgl/src/draw/lv_draw_rect.c ****     short_side = LV_MIN(lv_area_get_width(&sh_rect_area), lv_area_get_height(&sh_rect_area));
 1211              		.loc 1 599 5 is_stmt 1 view .LVU453
 600:Middlewares/lvgl/src/draw/lv_draw_rect.c ****     if(r_sh > short_side >> 1) r_sh = short_side >> 1;
 1212              		.loc 1 600 5 view .LVU454
 1213              	.LBB215:
 1214              	.LBI215:
 133:Middlewares/lvgl/src/draw/../misc/lv_area.h **** {
 1215              		.loc 2 133 26 view .LVU455
 1216              	.LBB216:
 135:Middlewares/lvgl/src/draw/../misc/lv_area.h **** }
 1217              		.loc 2 135 5 view .LVU456
 135:Middlewares/lvgl/src/draw/../misc/lv_area.h **** }
 1218              		.loc 2 135 31 is_stmt 0 view .LVU457
 1219 0164 BDF89430 		ldrh	r3, [sp, #148]
 135:Middlewares/lvgl/src/draw/../misc/lv_area.h **** }
 1220              		.loc 2 135 44 view .LVU458
 1221 0168 BDF89020 		ldrh	r2, [sp, #144]
 1222              	.LVL119:
 135:Middlewares/lvgl/src/draw/../misc/lv_area.h **** }
 1223              		.loc 2 135 36 view .LVU459
 1224 016c 9B1A     		subs	r3, r3, r2
 1225 016e 9BB2     		uxth	r3, r3
 135:Middlewares/lvgl/src/draw/../misc/lv_area.h **** }
 1226              		.loc 2 135 49 view .LVU460
 1227 0170 0133     		adds	r3, r3, #1
 135:Middlewares/lvgl/src/draw/../misc/lv_area.h **** }
 1228              		.loc 2 135 12 view .LVU461
 1229 0172 1AB2     		sxth	r2, r3
 1230              	.LVL120:
 135:Middlewares/lvgl/src/draw/../misc/lv_area.h **** }
 1231              		.loc 2 135 12 view .LVU462
 1232              	.LBE216:
 1233              	.LBE215:
 1234              	.LBB217:
 1235              	.LBI217:
 143:Middlewares/lvgl/src/draw/../misc/lv_area.h **** {
 1236              		.loc 2 143 26 is_stmt 1 view .LVU463
 1237              	.LBB218:
ARM GAS  /tmp/ccUpPomB.s 			page 52


 1238              		.loc 2 145 5 view .LVU464
 1239              		.loc 2 145 31 is_stmt 0 view .LVU465
 1240 0174 BDF89630 		ldrh	r3, [sp, #150]
 1241              		.loc 2 145 44 view .LVU466
 1242 0178 BDF89200 		ldrh	r0, [sp, #146]
 1243              		.loc 2 145 36 view .LVU467
 1244 017c 1B1A     		subs	r3, r3, r0
 1245 017e 9BB2     		uxth	r3, r3
 1246              		.loc 2 145 49 view .LVU468
 1247 0180 0133     		adds	r3, r3, #1
 1248              		.loc 2 145 12 view .LVU469
 1249 0182 1BB2     		sxth	r3, r3
 1250              	.LVL121:
 1251              		.loc 2 145 12 view .LVU470
 1252              	.LBE218:
 1253              	.LBE217:
 600:Middlewares/lvgl/src/draw/lv_draw_rect.c ****     if(r_sh > short_side >> 1) r_sh = short_side >> 1;
 1254              		.loc 1 600 18 view .LVU471
 1255 0184 9342     		cmp	r3, r2
 1256 0186 00DD     		ble	.L79
 1257              	.LVL122:
 135:Middlewares/lvgl/src/draw/../misc/lv_area.h **** }
 1258              		.loc 2 135 5 is_stmt 1 view .LVU472
 600:Middlewares/lvgl/src/draw/lv_draw_rect.c ****     if(r_sh > short_side >> 1) r_sh = short_side >> 1;
 1259              		.loc 1 600 18 is_stmt 0 view .LVU473
 1260 0188 1346     		mov	r3, r2
 1261              	.L79:
 1262              	.LVL123:
 601:Middlewares/lvgl/src/draw/lv_draw_rect.c **** 
 1263              		.loc 1 601 5 is_stmt 1 discriminator 4 view .LVU474
 601:Middlewares/lvgl/src/draw/lv_draw_rect.c **** 
 1264              		.loc 1 601 26 is_stmt 0 discriminator 4 view .LVU475
 1265 018a 5E10     		asrs	r6, r3, #1
 601:Middlewares/lvgl/src/draw/lv_draw_rect.c **** 
 1266              		.loc 1 601 7 discriminator 4 view .LVU476
 1267 018c B1EB630F 		cmp	r1, r3, asr #1
 1268 0190 00DC     		bgt	.L80
 599:Middlewares/lvgl/src/draw/lv_draw_rect.c ****     short_side = LV_MIN(lv_area_get_width(&sh_rect_area), lv_area_get_height(&sh_rect_area));
 1269              		.loc 1 599 13 view .LVU477
 1270 0192 0E46     		mov	r6, r1
 1271              	.L80:
 1272              	.LVL124:
 603:Middlewares/lvgl/src/draw/lv_draw_rect.c **** 
 1273              		.loc 1 603 5 is_stmt 1 view .LVU478
 603:Middlewares/lvgl/src/draw/lv_draw_rect.c **** 
 1274              		.loc 1 603 13 is_stmt 0 view .LVU479
 1275 0194 3444     		add	r4, r4, r6
 1276              	.LVL125:
 605:Middlewares/lvgl/src/draw/lv_draw_rect.c **** 
 1277              		.loc 1 605 5 is_stmt 1 view .LVU480
 626:Middlewares/lvgl/src/draw/lv_draw_rect.c ****     shadow_draw_corner_buf(&sh_rect_area, (uint16_t *)sh_buf, dsc->shadow_width, r_sh);
 1278              		.loc 1 626 5 view .LVU481
 626:Middlewares/lvgl/src/draw/lv_draw_rect.c ****     shadow_draw_corner_buf(&sh_rect_area, (uint16_t *)sh_buf, dsc->shadow_width, r_sh);
 1279              		.loc 1 626 41 is_stmt 0 view .LVU482
 1280 0196 04FB04F0 		mul	r0, r4, r4
 626:Middlewares/lvgl/src/draw/lv_draw_rect.c ****     shadow_draw_corner_buf(&sh_rect_area, (uint16_t *)sh_buf, dsc->shadow_width, r_sh);
 1281              		.loc 1 626 14 view .LVU483
ARM GAS  /tmp/ccUpPomB.s 			page 53


 1282 019a 4000     		lsls	r0, r0, #1
 1283 019c FFF7FEFF 		bl	lv_mem_buf_get
 1284              	.LVL126:
 626:Middlewares/lvgl/src/draw/lv_draw_rect.c ****     shadow_draw_corner_buf(&sh_rect_area, (uint16_t *)sh_buf, dsc->shadow_width, r_sh);
 1285              		.loc 1 626 14 view .LVU484
 1286 01a0 0146     		mov	r1, r0
 1287 01a2 0990     		str	r0, [sp, #36]
 1288              	.LVL127:
 627:Middlewares/lvgl/src/draw/lv_draw_rect.c **** #endif
 1289              		.loc 1 627 5 is_stmt 1 view .LVU485
 1290 01a4 33B2     		sxth	r3, r6
 1291 01a6 B5F92A20 		ldrsh	r2, [r5, #42]
 1292 01aa 24A8     		add	r0, sp, #144
 1293              	.LVL128:
 627:Middlewares/lvgl/src/draw/lv_draw_rect.c **** #endif
 1294              		.loc 1 627 5 is_stmt 0 view .LVU486
 1295 01ac FFF7FEFF 		bl	shadow_draw_corner_buf
 1296              	.LVL129:
 630:Middlewares/lvgl/src/draw/lv_draw_rect.c ****     lv_coord_t w_half = sh_area.x1 + lv_area_get_width(&sh_area) / 2;
 1297              		.loc 1 630 5 is_stmt 1 view .LVU487
 630:Middlewares/lvgl/src/draw/lv_draw_rect.c ****     lv_coord_t w_half = sh_area.x1 + lv_area_get_width(&sh_area) / 2;
 1298              		.loc 1 630 32 is_stmt 0 view .LVU488
 1299 01b0 BDF88A20 		ldrh	r2, [sp, #138]
 1300              	.LVL130:
 1301              	.LBB219:
 1302              	.LBI219:
 143:Middlewares/lvgl/src/draw/../misc/lv_area.h **** {
 1303              		.loc 2 143 26 is_stmt 1 view .LVU489
 1304              	.LBB220:
 1305              		.loc 2 145 5 view .LVU490
 1306              		.loc 2 145 31 is_stmt 0 view .LVU491
 1307 01b4 BDF88E30 		ldrh	r3, [sp, #142]
 1308              		.loc 2 145 36 view .LVU492
 1309 01b8 9B1A     		subs	r3, r3, r2
 1310 01ba 9BB2     		uxth	r3, r3
 1311              		.loc 2 145 49 view .LVU493
 1312 01bc 0133     		adds	r3, r3, #1
 1313              		.loc 2 145 12 view .LVU494
 1314 01be 1BB2     		sxth	r3, r3
 1315              	.LVL131:
 1316              		.loc 2 145 12 view .LVU495
 1317              	.LBE220:
 1318              	.LBE219:
 630:Middlewares/lvgl/src/draw/lv_draw_rect.c ****     lv_coord_t w_half = sh_area.x1 + lv_area_get_width(&sh_area) / 2;
 1319              		.loc 1 630 36 view .LVU496
 1320 01c0 002B     		cmp	r3, #0
 1321 01c2 30DB     		blt	.L165
 1322              	.L81:
 1323 01c4 02EB6303 		add	r3, r2, r3, asr #1
 1324 01c8 9AB2     		uxth	r2, r3
 1325 01ca 0D92     		str	r2, [sp, #52]
 630:Middlewares/lvgl/src/draw/lv_draw_rect.c ****     lv_coord_t w_half = sh_area.x1 + lv_area_get_width(&sh_area) / 2;
 1326              		.loc 1 630 16 view .LVU497
 1327 01cc 1BB2     		sxth	r3, r3
 1328 01ce 0B93     		str	r3, [sp, #44]
 1329              	.LVL132:
 631:Middlewares/lvgl/src/draw/lv_draw_rect.c **** 
ARM GAS  /tmp/ccUpPomB.s 			page 54


 1330              		.loc 1 631 5 is_stmt 1 view .LVU498
 631:Middlewares/lvgl/src/draw/lv_draw_rect.c **** 
 1331              		.loc 1 631 32 is_stmt 0 view .LVU499
 1332 01d0 BDF88820 		ldrh	r2, [sp, #136]
 1333              	.LVL133:
 1334              	.LBB221:
 1335              	.LBI221:
 133:Middlewares/lvgl/src/draw/../misc/lv_area.h **** {
 1336              		.loc 2 133 26 is_stmt 1 view .LVU500
 1337              	.LBB222:
 135:Middlewares/lvgl/src/draw/../misc/lv_area.h **** }
 1338              		.loc 2 135 5 view .LVU501
 135:Middlewares/lvgl/src/draw/../misc/lv_area.h **** }
 1339              		.loc 2 135 31 is_stmt 0 view .LVU502
 1340 01d4 BDF88C30 		ldrh	r3, [sp, #140]
 135:Middlewares/lvgl/src/draw/../misc/lv_area.h **** }
 1341              		.loc 2 135 36 view .LVU503
 1342 01d8 9B1A     		subs	r3, r3, r2
 1343 01da 9BB2     		uxth	r3, r3
 135:Middlewares/lvgl/src/draw/../misc/lv_area.h **** }
 1344              		.loc 2 135 49 view .LVU504
 1345 01dc 0133     		adds	r3, r3, #1
 135:Middlewares/lvgl/src/draw/../misc/lv_area.h **** }
 1346              		.loc 2 135 12 view .LVU505
 1347 01de 1BB2     		sxth	r3, r3
 1348              	.LVL134:
 135:Middlewares/lvgl/src/draw/../misc/lv_area.h **** }
 1349              		.loc 2 135 12 view .LVU506
 1350              	.LBE222:
 1351              	.LBE221:
 631:Middlewares/lvgl/src/draw/lv_draw_rect.c **** 
 1352              		.loc 1 631 36 view .LVU507
 1353 01e0 002B     		cmp	r3, #0
 1354 01e2 22DB     		blt	.L166
 1355              	.L82:
 1356 01e4 02EB6303 		add	r3, r2, r3, asr #1
 1357 01e8 9AB2     		uxth	r2, r3
 1358 01ea 0E92     		str	r2, [sp, #56]
 631:Middlewares/lvgl/src/draw/lv_draw_rect.c **** 
 1359              		.loc 1 631 16 view .LVU508
 1360 01ec 1BB2     		sxth	r3, r3
 1361 01ee 0C93     		str	r3, [sp, #48]
 1362              	.LVL135:
 633:Middlewares/lvgl/src/draw/lv_draw_rect.c ****     if(lv_draw_mask_get_cnt() > 0) simple_mode = false;
 1363              		.loc 1 633 5 is_stmt 1 view .LVU509
 634:Middlewares/lvgl/src/draw/lv_draw_rect.c ****     else if(dsc->shadow_ofs_x != 0 || dsc->shadow_ofs_y != 0) simple_mode = false;
 1364              		.loc 1 634 5 view .LVU510
 634:Middlewares/lvgl/src/draw/lv_draw_rect.c ****     else if(dsc->shadow_ofs_x != 0 || dsc->shadow_ofs_y != 0) simple_mode = false;
 1365              		.loc 1 634 8 is_stmt 0 view .LVU511
 1366 01f0 FFF7FEFF 		bl	lv_draw_mask_get_cnt
 1367              	.LVL136:
 634:Middlewares/lvgl/src/draw/lv_draw_rect.c ****     else if(dsc->shadow_ofs_x != 0 || dsc->shadow_ofs_y != 0) simple_mode = false;
 1368              		.loc 1 634 7 view .LVU512
 1369 01f4 D8B9     		cbnz	r0, .L144
 635:Middlewares/lvgl/src/draw/lv_draw_rect.c ****     else if(dsc->shadow_spread != 0) simple_mode = false;
 1370              		.loc 1 635 10 is_stmt 1 view .LVU513
 635:Middlewares/lvgl/src/draw/lv_draw_rect.c ****     else if(dsc->shadow_spread != 0) simple_mode = false;
ARM GAS  /tmp/ccUpPomB.s 			page 55


 1371              		.loc 1 635 36 is_stmt 0 view .LVU514
 1372 01f6 EB6A     		ldr	r3, [r5, #44]
 635:Middlewares/lvgl/src/draw/lv_draw_rect.c ****     else if(dsc->shadow_spread != 0) simple_mode = false;
 1373              		.loc 1 635 12 view .LVU515
 1374 01f8 002B     		cmp	r3, #0
 1375 01fa 40F08980 		bne	.L145
 636:Middlewares/lvgl/src/draw/lv_draw_rect.c **** 
 1376              		.loc 1 636 10 is_stmt 1 view .LVU516
 636:Middlewares/lvgl/src/draw/lv_draw_rect.c **** 
 1377              		.loc 1 636 16 is_stmt 0 view .LVU517
 1378 01fe B5F93030 		ldrsh	r3, [r5, #48]
 636:Middlewares/lvgl/src/draw/lv_draw_rect.c **** 
 1379              		.loc 1 636 12 view .LVU518
 1380 0202 B3B1     		cbz	r3, .L83
 636:Middlewares/lvgl/src/draw/lv_draw_rect.c **** 
 1381              		.loc 1 636 50 view .LVU519
 1382 0204 0023     		movs	r3, #0
 1383 0206 0693     		str	r3, [sp, #24]
 1384 0208 13E0     		b	.L83
 1385              	.LVL137:
 1386              	.L162:
 544:Middlewares/lvgl/src/draw/lv_draw_rect.c ****        dsc->shadow_ofs_y == 0 && dsc->shadow_spread <= 0) {
 1387              		.loc 1 544 57 discriminator 1 view .LVU520
 1388 020a D36A     		ldr	r3, [r2, #44]
 1389 020c 002B     		cmp	r3, #0
 1390 020e 7FF40BAF 		bne	.L71
 545:Middlewares/lvgl/src/draw/lv_draw_rect.c ****         return;
 1391              		.loc 1 545 37 view .LVU521
 1392 0212 B2F93030 		ldrsh	r3, [r2, #48]
 545:Middlewares/lvgl/src/draw/lv_draw_rect.c ****         return;
 1393              		.loc 1 545 31 view .LVU522
 1394 0216 002B     		cmp	r3, #0
 1395 0218 3FF706AF 		bgt	.L71
 1396 021c D6E2     		b	.L69
 1397              	.LVL138:
 1398              	.L163:
 558:Middlewares/lvgl/src/draw/lv_draw_rect.c ****     sh_area.x2 = sh_rect_area.x2 + sw / 2 + 1;
 1399              		.loc 1 558 39 view .LVU523
 1400 021e 631C     		adds	r3, r4, #1
 1401              	.LVL139:
 558:Middlewares/lvgl/src/draw/lv_draw_rect.c ****     sh_area.x2 = sh_rect_area.x2 + sw / 2 + 1;
 1402              		.loc 1 558 39 view .LVU524
 1403 0220 27E7     		b	.L72
 1404              	.L164:
 559:Middlewares/lvgl/src/draw/lv_draw_rect.c ****     sh_area.y1 = sh_rect_area.y1 - sw / 2 - 1;
 1405              		.loc 1 559 39 view .LVU525
 1406 0222 661C     		adds	r6, r4, #1
 1407 0224 31E7     		b	.L73
 1408              	.LVL140:
 1409              	.L165:
 630:Middlewares/lvgl/src/draw/lv_draw_rect.c ****     lv_coord_t w_half = sh_area.x1 + lv_area_get_width(&sh_area) / 2;
 1410              		.loc 1 630 36 view .LVU526
 1411 0226 0133     		adds	r3, r3, #1
 1412 0228 CCE7     		b	.L81
 1413              	.LVL141:
 1414              	.L166:
 631:Middlewares/lvgl/src/draw/lv_draw_rect.c **** 
ARM GAS  /tmp/ccUpPomB.s 			page 56


 1415              		.loc 1 631 36 view .LVU527
 1416 022a 0133     		adds	r3, r3, #1
 1417 022c DAE7     		b	.L82
 1418              	.LVL142:
 1419              	.L144:
 634:Middlewares/lvgl/src/draw/lv_draw_rect.c ****     else if(dsc->shadow_ofs_x != 0 || dsc->shadow_ofs_y != 0) simple_mode = false;
 1420              		.loc 1 634 48 view .LVU528
 1421 022e 0023     		movs	r3, #0
 1422 0230 0693     		str	r3, [sp, #24]
 1423              	.L83:
 1424              	.LVL143:
 639:Middlewares/lvgl/src/draw/lv_draw_rect.c ****     lv_opa_t * mask_buf = lv_mem_buf_get(lv_area_get_width(&sh_area));
 1425              		.loc 1 639 5 is_stmt 1 view .LVU529
 640:Middlewares/lvgl/src/draw/lv_draw_rect.c **** 
 1426              		.loc 1 640 5 view .LVU530
 1427              	.LBB223:
 1428              	.LBI223:
 133:Middlewares/lvgl/src/draw/../misc/lv_area.h **** {
 1429              		.loc 2 133 26 view .LVU531
 1430              	.LBB224:
 135:Middlewares/lvgl/src/draw/../misc/lv_area.h **** }
 1431              		.loc 2 135 5 view .LVU532
 135:Middlewares/lvgl/src/draw/../misc/lv_area.h **** }
 1432              		.loc 2 135 31 is_stmt 0 view .LVU533
 1433 0232 BDF88C00 		ldrh	r0, [sp, #140]
 135:Middlewares/lvgl/src/draw/../misc/lv_area.h **** }
 1434              		.loc 2 135 44 view .LVU534
 1435 0236 BDF88830 		ldrh	r3, [sp, #136]
 135:Middlewares/lvgl/src/draw/../misc/lv_area.h **** }
 1436              		.loc 2 135 36 view .LVU535
 1437 023a C01A     		subs	r0, r0, r3
 1438 023c 80B2     		uxth	r0, r0
 135:Middlewares/lvgl/src/draw/../misc/lv_area.h **** }
 1439              		.loc 2 135 49 view .LVU536
 1440 023e 0130     		adds	r0, r0, #1
 1441              	.LVL144:
 135:Middlewares/lvgl/src/draw/../misc/lv_area.h **** }
 1442              		.loc 2 135 49 view .LVU537
 1443              	.LBE224:
 1444              	.LBE223:
 640:Middlewares/lvgl/src/draw/lv_draw_rect.c **** 
 1445              		.loc 1 640 27 view .LVU538
 1446 0240 00B2     		sxth	r0, r0
 1447 0242 FFF7FEFF 		bl	lv_mem_buf_get
 1448              	.LVL145:
 1449 0246 0646     		mov	r6, r0
 1450              	.LVL146:
 642:Middlewares/lvgl/src/draw/lv_draw_rect.c ****     lv_draw_mask_radius_init(&mask_rout_param, &bg_coords, r_bg, true);
 1451              		.loc 1 642 5 is_stmt 1 view .LVU539
 643:Middlewares/lvgl/src/draw/lv_draw_rect.c **** 
 1452              		.loc 1 643 5 view .LVU540
 1453 0248 3BB2     		sxth	r3, r7
 1454 024a 1A46     		mov	r2, r3
 1455 024c 0893     		str	r3, [sp, #32]
 1456 024e 0123     		movs	r3, #1
 1457 0250 1EA9     		add	r1, sp, #120
 1458 0252 17A8     		add	r0, sp, #92
ARM GAS  /tmp/ccUpPomB.s 			page 57


 1459              	.LVL147:
 643:Middlewares/lvgl/src/draw/lv_draw_rect.c **** 
 1460              		.loc 1 643 5 is_stmt 0 view .LVU541
 1461 0254 FFF7FEFF 		bl	lv_draw_mask_radius_init
 1462              	.LVL148:
 645:Middlewares/lvgl/src/draw/lv_draw_rect.c **** 
 1463              		.loc 1 645 5 is_stmt 1 view .LVU542
 645:Middlewares/lvgl/src/draw/lv_draw_rect.c **** 
 1464              		.loc 1 645 28 is_stmt 0 view .LVU543
 1465 0258 0021     		movs	r1, #0
 1466 025a 17A8     		add	r0, sp, #92
 1467 025c FFF7FEFF 		bl	lv_draw_mask_add
 1468              	.LVL149:
 1469 0260 0A90     		str	r0, [sp, #40]
 1470              	.LVL150:
 647:Middlewares/lvgl/src/draw/lv_draw_rect.c **** 
 1471              		.loc 1 647 5 is_stmt 1 view .LVU544
 650:Middlewares/lvgl/src/draw/lv_draw_rect.c ****     lv_opa_t * sh_buf_tmp;
 1472              		.loc 1 650 5 view .LVU545
 651:Middlewares/lvgl/src/draw/lv_draw_rect.c ****     a.x2 = sh_area.x2;
 1473              		.loc 1 651 5 view .LVU546
 652:Middlewares/lvgl/src/draw/lv_draw_rect.c ****     a.x1 = a.x2 - corner_size + 1;
 1474              		.loc 1 652 5 view .LVU547
 652:Middlewares/lvgl/src/draw/lv_draw_rect.c ****     a.x1 = a.x2 - corner_size + 1;
 1475              		.loc 1 652 19 is_stmt 0 view .LVU548
 1476 0262 BDF98C30 		ldrsh	r3, [sp, #140]
 652:Middlewares/lvgl/src/draw/lv_draw_rect.c ****     a.x1 = a.x2 - corner_size + 1;
 1477              		.loc 1 652 10 view .LVU549
 1478 0266 ADF85830 		strh	r3, [sp, #88]	@ movhi
 653:Middlewares/lvgl/src/draw/lv_draw_rect.c ****     a.y1 = sh_area.y1;
 1479              		.loc 1 653 5 is_stmt 1 view .LVU550
 653:Middlewares/lvgl/src/draw/lv_draw_rect.c ****     a.y1 = sh_area.y1;
 1480              		.loc 1 653 13 is_stmt 0 view .LVU551
 1481 026a 9BB2     		uxth	r3, r3
 653:Middlewares/lvgl/src/draw/lv_draw_rect.c ****     a.y1 = sh_area.y1;
 1482              		.loc 1 653 17 view .LVU552
 1483 026c A7B2     		uxth	r7, r4
 1484              	.LVL151:
 653:Middlewares/lvgl/src/draw/lv_draw_rect.c ****     a.y1 = sh_area.y1;
 1485              		.loc 1 653 17 view .LVU553
 1486 026e DB1B     		subs	r3, r3, r7
 1487 0270 9BB2     		uxth	r3, r3
 653:Middlewares/lvgl/src/draw/lv_draw_rect.c ****     a.y1 = sh_area.y1;
 1488              		.loc 1 653 31 view .LVU554
 1489 0272 0133     		adds	r3, r3, #1
 653:Middlewares/lvgl/src/draw/lv_draw_rect.c ****     a.y1 = sh_area.y1;
 1490              		.loc 1 653 10 view .LVU555
 1491 0274 ADF85430 		strh	r3, [sp, #84]	@ movhi
 654:Middlewares/lvgl/src/draw/lv_draw_rect.c ****     a.y2 = a.y1 + corner_size - 1;
 1492              		.loc 1 654 5 is_stmt 1 view .LVU556
 654:Middlewares/lvgl/src/draw/lv_draw_rect.c ****     a.y2 = a.y1 + corner_size - 1;
 1493              		.loc 1 654 19 is_stmt 0 view .LVU557
 1494 0278 BDF98A30 		ldrsh	r3, [sp, #138]
 654:Middlewares/lvgl/src/draw/lv_draw_rect.c ****     a.y2 = a.y1 + corner_size - 1;
 1495              		.loc 1 654 10 view .LVU558
 1496 027c ADF85630 		strh	r3, [sp, #86]	@ movhi
 655:Middlewares/lvgl/src/draw/lv_draw_rect.c **** 
ARM GAS  /tmp/ccUpPomB.s 			page 58


 1497              		.loc 1 655 5 is_stmt 1 view .LVU559
 655:Middlewares/lvgl/src/draw/lv_draw_rect.c **** 
 1498              		.loc 1 655 17 is_stmt 0 view .LVU560
 1499 0280 17FA83F3 		uxtah	r3, r7, r3
 1500 0284 9BB2     		uxth	r3, r3
 655:Middlewares/lvgl/src/draw/lv_draw_rect.c **** 
 1501              		.loc 1 655 31 view .LVU561
 1502 0286 013B     		subs	r3, r3, #1
 655:Middlewares/lvgl/src/draw/lv_draw_rect.c **** 
 1503              		.loc 1 655 10 view .LVU562
 1504 0288 ADF85A30 		strh	r3, [sp, #90]	@ movhi
 657:Middlewares/lvgl/src/draw/lv_draw_rect.c ****     bool has_com = _lv_area_intersect(&ca, &a, clip);
 1505              		.loc 1 657 5 is_stmt 1 view .LVU563
 658:Middlewares/lvgl/src/draw/lv_draw_rect.c ****     if(has_com && _lv_area_is_in(&a, &bg_coords, r_bg) == false) {
 1506              		.loc 1 658 5 view .LVU564
 658:Middlewares/lvgl/src/draw/lv_draw_rect.c ****     if(has_com && _lv_area_is_in(&a, &bg_coords, r_bg) == false) {
 1507              		.loc 1 658 20 is_stmt 0 view .LVU565
 1508 028c 049A     		ldr	r2, [sp, #16]
 1509 028e 15A9     		add	r1, sp, #84
 1510 0290 13A8     		add	r0, sp, #76
 1511 0292 FFF7FEFF 		bl	_lv_area_intersect
 1512              	.LVL152:
 659:Middlewares/lvgl/src/draw/lv_draw_rect.c ****         /*Avoid overlap in the middle with large radius*/
 1513              		.loc 1 659 5 is_stmt 1 view .LVU566
 659:Middlewares/lvgl/src/draw/lv_draw_rect.c ****         /*Avoid overlap in the middle with large radius*/
 1514              		.loc 1 659 7 is_stmt 0 view .LVU567
 1515 0296 0028     		cmp	r0, #0
 1516 0298 3DD1     		bne	.L167
 1517              	.LVL153:
 1518              	.L84:
 689:Middlewares/lvgl/src/draw/lv_draw_rect.c ****     a.x1 = a.x2 - corner_size + 1;
 1519              		.loc 1 689 5 is_stmt 1 view .LVU568
 689:Middlewares/lvgl/src/draw/lv_draw_rect.c ****     a.x1 = a.x2 - corner_size + 1;
 1520              		.loc 1 689 19 is_stmt 0 view .LVU569
 1521 029a BDF98C30 		ldrsh	r3, [sp, #140]
 689:Middlewares/lvgl/src/draw/lv_draw_rect.c ****     a.x1 = a.x2 - corner_size + 1;
 1522              		.loc 1 689 10 view .LVU570
 1523 029e ADF85830 		strh	r3, [sp, #88]	@ movhi
 690:Middlewares/lvgl/src/draw/lv_draw_rect.c ****     a.y1 = sh_area.y2 - corner_size + 1;
 1524              		.loc 1 690 5 is_stmt 1 view .LVU571
 690:Middlewares/lvgl/src/draw/lv_draw_rect.c ****     a.y1 = sh_area.y2 - corner_size + 1;
 1525              		.loc 1 690 13 is_stmt 0 view .LVU572
 1526 02a2 9BB2     		uxth	r3, r3
 690:Middlewares/lvgl/src/draw/lv_draw_rect.c ****     a.y1 = sh_area.y2 - corner_size + 1;
 1527              		.loc 1 690 17 view .LVU573
 1528 02a4 DB1B     		subs	r3, r3, r7
 1529 02a6 9BB2     		uxth	r3, r3
 690:Middlewares/lvgl/src/draw/lv_draw_rect.c ****     a.y1 = sh_area.y2 - corner_size + 1;
 1530              		.loc 1 690 31 view .LVU574
 1531 02a8 0133     		adds	r3, r3, #1
 690:Middlewares/lvgl/src/draw/lv_draw_rect.c ****     a.y1 = sh_area.y2 - corner_size + 1;
 1532              		.loc 1 690 10 view .LVU575
 1533 02aa ADF85430 		strh	r3, [sp, #84]	@ movhi
 691:Middlewares/lvgl/src/draw/lv_draw_rect.c ****     a.y2 = sh_area.y2;
 1534              		.loc 1 691 5 is_stmt 1 view .LVU576
 691:Middlewares/lvgl/src/draw/lv_draw_rect.c ****     a.y2 = sh_area.y2;
 1535              		.loc 1 691 19 is_stmt 0 view .LVU577
ARM GAS  /tmp/ccUpPomB.s 			page 59


 1536 02ae BDF98E20 		ldrsh	r2, [sp, #142]
 1537 02b2 93B2     		uxth	r3, r2
 691:Middlewares/lvgl/src/draw/lv_draw_rect.c ****     a.y2 = sh_area.y2;
 1538              		.loc 1 691 23 view .LVU578
 1539 02b4 DB1B     		subs	r3, r3, r7
 1540 02b6 9BB2     		uxth	r3, r3
 691:Middlewares/lvgl/src/draw/lv_draw_rect.c ****     a.y2 = sh_area.y2;
 1541              		.loc 1 691 37 view .LVU579
 1542 02b8 0133     		adds	r3, r3, #1
 691:Middlewares/lvgl/src/draw/lv_draw_rect.c ****     a.y2 = sh_area.y2;
 1543              		.loc 1 691 10 view .LVU580
 1544 02ba ADF85630 		strh	r3, [sp, #86]	@ movhi
 692:Middlewares/lvgl/src/draw/lv_draw_rect.c **** 
 1545              		.loc 1 692 5 is_stmt 1 view .LVU581
 692:Middlewares/lvgl/src/draw/lv_draw_rect.c **** 
 1546              		.loc 1 692 10 is_stmt 0 view .LVU582
 1547 02be ADF85A20 		strh	r2, [sp, #90]	@ movhi
 694:Middlewares/lvgl/src/draw/lv_draw_rect.c ****     if(has_com && _lv_area_is_in(&a, &bg_coords, r_bg) == false) {
 1548              		.loc 1 694 5 is_stmt 1 view .LVU583
 694:Middlewares/lvgl/src/draw/lv_draw_rect.c ****     if(has_com && _lv_area_is_in(&a, &bg_coords, r_bg) == false) {
 1549              		.loc 1 694 15 is_stmt 0 view .LVU584
 1550 02c2 049A     		ldr	r2, [sp, #16]
 1551 02c4 15A9     		add	r1, sp, #84
 1552 02c6 13A8     		add	r0, sp, #76
 1553 02c8 FFF7FEFF 		bl	_lv_area_intersect
 1554              	.LVL154:
 695:Middlewares/lvgl/src/draw/lv_draw_rect.c ****         /*Avoid overlap in the middle with large radius*/
 1555              		.loc 1 695 5 is_stmt 1 view .LVU585
 695:Middlewares/lvgl/src/draw/lv_draw_rect.c ****         /*Avoid overlap in the middle with large radius*/
 1556              		.loc 1 695 7 is_stmt 0 view .LVU586
 1557 02cc 0028     		cmp	r0, #0
 1558 02ce 40F0A280 		bne	.L168
 1559              	.LVL155:
 1560              	.L90:
 726:Middlewares/lvgl/src/draw/lv_draw_rect.c ****     a.x1 = a.x2 - corner_size + 1;
 1561              		.loc 1 726 5 is_stmt 1 view .LVU587
 726:Middlewares/lvgl/src/draw/lv_draw_rect.c ****     a.x1 = a.x2 - corner_size + 1;
 1562              		.loc 1 726 19 is_stmt 0 view .LVU588
 1563 02d2 BDF98C30 		ldrsh	r3, [sp, #140]
 726:Middlewares/lvgl/src/draw/lv_draw_rect.c ****     a.x1 = a.x2 - corner_size + 1;
 1564              		.loc 1 726 10 view .LVU589
 1565 02d6 ADF85830 		strh	r3, [sp, #88]	@ movhi
 727:Middlewares/lvgl/src/draw/lv_draw_rect.c ****     a.y1 = sh_area.y1 + corner_size;
 1566              		.loc 1 727 5 is_stmt 1 view .LVU590
 727:Middlewares/lvgl/src/draw/lv_draw_rect.c ****     a.y1 = sh_area.y1 + corner_size;
 1567              		.loc 1 727 13 is_stmt 0 view .LVU591
 1568 02da 9BB2     		uxth	r3, r3
 727:Middlewares/lvgl/src/draw/lv_draw_rect.c ****     a.y1 = sh_area.y1 + corner_size;
 1569              		.loc 1 727 17 view .LVU592
 1570 02dc DB1B     		subs	r3, r3, r7
 1571 02de 9BB2     		uxth	r3, r3
 727:Middlewares/lvgl/src/draw/lv_draw_rect.c ****     a.y1 = sh_area.y1 + corner_size;
 1572              		.loc 1 727 31 view .LVU593
 1573 02e0 0133     		adds	r3, r3, #1
 727:Middlewares/lvgl/src/draw/lv_draw_rect.c ****     a.y1 = sh_area.y1 + corner_size;
 1574              		.loc 1 727 10 view .LVU594
 1575 02e2 ADF85430 		strh	r3, [sp, #84]	@ movhi
ARM GAS  /tmp/ccUpPomB.s 			page 60


 728:Middlewares/lvgl/src/draw/lv_draw_rect.c ****     a.y2 = sh_area.y2 - corner_size;
 1576              		.loc 1 728 5 is_stmt 1 view .LVU595
 728:Middlewares/lvgl/src/draw/lv_draw_rect.c ****     a.y2 = sh_area.y2 - corner_size;
 1577              		.loc 1 728 19 is_stmt 0 view .LVU596
 1578 02e6 BDF88A30 		ldrh	r3, [sp, #138]
 728:Middlewares/lvgl/src/draw/lv_draw_rect.c ****     a.y2 = sh_area.y2 - corner_size;
 1579              		.loc 1 728 23 view .LVU597
 1580 02ea 3B44     		add	r3, r3, r7
 728:Middlewares/lvgl/src/draw/lv_draw_rect.c ****     a.y2 = sh_area.y2 - corner_size;
 1581              		.loc 1 728 10 view .LVU598
 1582 02ec ADF85630 		strh	r3, [sp, #86]	@ movhi
 729:Middlewares/lvgl/src/draw/lv_draw_rect.c **** 
 1583              		.loc 1 729 5 is_stmt 1 view .LVU599
 729:Middlewares/lvgl/src/draw/lv_draw_rect.c **** 
 1584              		.loc 1 729 19 is_stmt 0 view .LVU600
 1585 02f0 BDF88E30 		ldrh	r3, [sp, #142]
 729:Middlewares/lvgl/src/draw/lv_draw_rect.c **** 
 1586              		.loc 1 729 23 view .LVU601
 1587 02f4 DB1B     		subs	r3, r3, r7
 729:Middlewares/lvgl/src/draw/lv_draw_rect.c **** 
 1588              		.loc 1 729 10 view .LVU602
 1589 02f6 ADF85A30 		strh	r3, [sp, #90]	@ movhi
 731:Middlewares/lvgl/src/draw/lv_draw_rect.c ****     if(has_com && _lv_area_is_in(&a, &bg_coords, r_bg) == false) {
 1590              		.loc 1 731 5 is_stmt 1 view .LVU603
 731:Middlewares/lvgl/src/draw/lv_draw_rect.c ****     if(has_com && _lv_area_is_in(&a, &bg_coords, r_bg) == false) {
 1591              		.loc 1 731 15 is_stmt 0 view .LVU604
 1592 02fa 049A     		ldr	r2, [sp, #16]
 1593 02fc 15A9     		add	r1, sp, #84
 1594 02fe 13A8     		add	r0, sp, #76
 1595 0300 FFF7FEFF 		bl	_lv_area_intersect
 1596              	.LVL156:
 732:Middlewares/lvgl/src/draw/lv_draw_rect.c ****         /*Avoid overlap in the middle with large radius*/
 1597              		.loc 1 732 5 is_stmt 1 view .LVU605
 732:Middlewares/lvgl/src/draw/lv_draw_rect.c ****         /*Avoid overlap in the middle with large radius*/
 1598              		.loc 1 732 7 is_stmt 0 view .LVU606
 1599 0304 0028     		cmp	r0, #0
 1600 0306 40F00681 		bne	.L169
 1601              	.LVL157:
 1602              	.L96:
 1603              	.LBB225:
 774:Middlewares/lvgl/src/draw/lv_draw_rect.c ****             lv_opa_t tmp = sh_buf_tmp[x];
 1604              		.loc 1 774 15 discriminator 1 view .LVU607
 1605 030a 0999     		ldr	r1, [sp, #36]
 1606 030c 0020     		movs	r0, #0
 1607 030e A4E1     		b	.L104
 1608              	.LVL158:
 1609              	.L145:
 774:Middlewares/lvgl/src/draw/lv_draw_rect.c ****             lv_opa_t tmp = sh_buf_tmp[x];
 1610              		.loc 1 774 15 discriminator 1 view .LVU608
 1611              	.LBE225:
 635:Middlewares/lvgl/src/draw/lv_draw_rect.c ****     else if(dsc->shadow_spread != 0) simple_mode = false;
 1612              		.loc 1 635 75 view .LVU609
 1613 0310 0023     		movs	r3, #0
 1614 0312 0693     		str	r3, [sp, #24]
 1615 0314 8DE7     		b	.L83
 1616              	.LVL159:
 1617              	.L167:
ARM GAS  /tmp/ccUpPomB.s 			page 61


 659:Middlewares/lvgl/src/draw/lv_draw_rect.c ****         /*Avoid overlap in the middle with large radius*/
 1618              		.loc 1 659 19 discriminator 1 view .LVU610
 1619 0316 089A     		ldr	r2, [sp, #32]
 1620 0318 1EA9     		add	r1, sp, #120
 1621 031a 15A8     		add	r0, sp, #84
 1622              	.LVL160:
 659:Middlewares/lvgl/src/draw/lv_draw_rect.c ****         /*Avoid overlap in the middle with large radius*/
 1623              		.loc 1 659 19 discriminator 1 view .LVU611
 1624 031c FFF7FEFF 		bl	_lv_area_is_in
 1625              	.LVL161:
 659:Middlewares/lvgl/src/draw/lv_draw_rect.c ****         /*Avoid overlap in the middle with large radius*/
 1626              		.loc 1 659 16 discriminator 1 view .LVU612
 1627 0320 0028     		cmp	r0, #0
 1628 0322 BAD1     		bne	.L84
 1629              	.LBB227:
 661:Middlewares/lvgl/src/draw/lv_draw_rect.c ****         if(ca.x1 <= w_half) ca.x1 = w_half + 1;
 1630              		.loc 1 661 9 is_stmt 1 view .LVU613
 661:Middlewares/lvgl/src/draw/lv_draw_rect.c ****         if(ca.x1 <= w_half) ca.x1 = w_half + 1;
 1631              		.loc 1 661 14 is_stmt 0 view .LVU614
 1632 0324 BDF95230 		ldrsh	r3, [sp, #82]
 661:Middlewares/lvgl/src/draw/lv_draw_rect.c ****         if(ca.x1 <= w_half) ca.x1 = w_half + 1;
 1633              		.loc 1 661 11 view .LVU615
 1634 0328 0B9A     		ldr	r2, [sp, #44]
 1635 032a 9342     		cmp	r3, r2
 1636 032c 01DD     		ble	.L85
 661:Middlewares/lvgl/src/draw/lv_draw_rect.c ****         if(ca.x1 <= w_half) ca.x1 = w_half + 1;
 1637              		.loc 1 661 28 is_stmt 1 discriminator 1 view .LVU616
 661:Middlewares/lvgl/src/draw/lv_draw_rect.c ****         if(ca.x1 <= w_half) ca.x1 = w_half + 1;
 1638              		.loc 1 661 34 is_stmt 0 discriminator 1 view .LVU617
 1639 032e ADF85220 		strh	r2, [sp, #82]	@ movhi
 1640              	.L85:
 662:Middlewares/lvgl/src/draw/lv_draw_rect.c **** 
 1641              		.loc 1 662 9 is_stmt 1 view .LVU618
 662:Middlewares/lvgl/src/draw/lv_draw_rect.c **** 
 1642              		.loc 1 662 14 is_stmt 0 view .LVU619
 1643 0332 BDF94C30 		ldrsh	r3, [sp, #76]
 662:Middlewares/lvgl/src/draw/lv_draw_rect.c **** 
 1644              		.loc 1 662 11 view .LVU620
 1645 0336 0C9A     		ldr	r2, [sp, #48]
 1646 0338 9342     		cmp	r3, r2
 1647 033a 03DC     		bgt	.L86
 662:Middlewares/lvgl/src/draw/lv_draw_rect.c **** 
 1648              		.loc 1 662 29 is_stmt 1 discriminator 1 view .LVU621
 662:Middlewares/lvgl/src/draw/lv_draw_rect.c **** 
 1649              		.loc 1 662 44 is_stmt 0 discriminator 1 view .LVU622
 1650 033c 0E9B     		ldr	r3, [sp, #56]
 1651 033e 0133     		adds	r3, r3, #1
 662:Middlewares/lvgl/src/draw/lv_draw_rect.c **** 
 1652              		.loc 1 662 35 discriminator 1 view .LVU623
 1653 0340 ADF84C30 		strh	r3, [sp, #76]	@ movhi
 1654              	.L86:
 664:Middlewares/lvgl/src/draw/lv_draw_rect.c ****         lv_coord_t w = lv_area_get_width(&ca);
 1655              		.loc 1 664 9 is_stmt 1 view .LVU624
 1656              	.LVL162:
 1657              	.LBB228:
 1658              	.LBI228:
 143:Middlewares/lvgl/src/draw/../misc/lv_area.h **** {
ARM GAS  /tmp/ccUpPomB.s 			page 62


 1659              		.loc 2 143 26 view .LVU625
 1660              	.LBB229:
 1661              		.loc 2 145 5 view .LVU626
 1662              		.loc 2 145 31 is_stmt 0 view .LVU627
 1663 0344 BDF952E0 		ldrsh	lr, [sp, #82]
 1664 0348 1FFA8EFB 		uxth	fp, lr
 1665              		.loc 2 145 44 view .LVU628
 1666 034c BDF94E30 		ldrsh	r3, [sp, #78]
 1667 0350 9AB2     		uxth	r2, r3
 1668              		.loc 2 145 36 view .LVU629
 1669 0352 ABEB020B 		sub	fp, fp, r2
 1670 0356 1FFA8BFB 		uxth	fp, fp
 1671              		.loc 2 145 49 view .LVU630
 1672 035a 0BF1010B 		add	fp, fp, #1
 1673              		.loc 2 145 12 view .LVU631
 1674 035e 0FFA8BFB 		sxth	fp, fp
 1675              	.LVL163:
 1676              		.loc 2 145 12 view .LVU632
 1677              	.LBE229:
 1678              	.LBE228:
 665:Middlewares/lvgl/src/draw/lv_draw_rect.c ****         if(w > 0) {
 1679              		.loc 1 665 9 is_stmt 1 view .LVU633
 1680              	.LBB230:
 1681              	.LBI230:
 133:Middlewares/lvgl/src/draw/../misc/lv_area.h **** {
 1682              		.loc 2 133 26 view .LVU634
 1683              	.LBB231:
 135:Middlewares/lvgl/src/draw/../misc/lv_area.h **** }
 1684              		.loc 2 135 5 view .LVU635
 135:Middlewares/lvgl/src/draw/../misc/lv_area.h **** }
 1685              		.loc 2 135 31 is_stmt 0 view .LVU636
 1686 0362 BDF95000 		ldrsh	r0, [sp, #80]
 1687 0366 1FFA80FA 		uxth	r10, r0
 135:Middlewares/lvgl/src/draw/../misc/lv_area.h **** }
 1688              		.loc 2 135 44 view .LVU637
 1689 036a BDF94C20 		ldrsh	r2, [sp, #76]
 1690 036e 1FFA82FC 		uxth	ip, r2
 135:Middlewares/lvgl/src/draw/../misc/lv_area.h **** }
 1691              		.loc 2 135 36 view .LVU638
 1692 0372 AAEB0C0A 		sub	r10, r10, ip
 1693 0376 1FFA8AFA 		uxth	r10, r10
 135:Middlewares/lvgl/src/draw/../misc/lv_area.h **** }
 1694              		.loc 2 135 49 view .LVU639
 1695 037a 0AF1010A 		add	r10, r10, #1
 135:Middlewares/lvgl/src/draw/../misc/lv_area.h **** }
 1696              		.loc 2 135 12 view .LVU640
 1697 037e 0FFA8AFA 		sxth	r10, r10
 1698              	.LVL164:
 135:Middlewares/lvgl/src/draw/../misc/lv_area.h **** }
 1699              		.loc 2 135 12 view .LVU641
 1700              	.LBE231:
 1701              	.LBE230:
 666:Middlewares/lvgl/src/draw/lv_draw_rect.c ****             sh_buf_tmp = sh_buf + (ca.x1 - a.x1);
 1702              		.loc 1 666 9 is_stmt 1 view .LVU642
 666:Middlewares/lvgl/src/draw/lv_draw_rect.c ****             sh_buf_tmp = sh_buf + (ca.x1 - a.x1);
 1703              		.loc 1 666 11 is_stmt 0 view .LVU643
 1704 0382 BAF1000F 		cmp	r10, #0
ARM GAS  /tmp/ccUpPomB.s 			page 63


 1705 0386 88DD     		ble	.L84
 1706              	.LBB232:
 667:Middlewares/lvgl/src/draw/lv_draw_rect.c ****             sh_buf_tmp += corner_size * (ca.y1 - a.y1);
 1707              		.loc 1 667 13 is_stmt 1 view .LVU644
 667:Middlewares/lvgl/src/draw/lv_draw_rect.c ****             sh_buf_tmp += corner_size * (ca.y1 - a.y1);
 1708              		.loc 1 667 45 is_stmt 0 view .LVU645
 1709 0388 BDF95480 		ldrsh	r8, [sp, #84]
 667:Middlewares/lvgl/src/draw/lv_draw_rect.c ****             sh_buf_tmp += corner_size * (ca.y1 - a.y1);
 1710              		.loc 1 667 42 view .LVU646
 1711 038c A2EB0808 		sub	r8, r2, r8
 1712              	.LVL165:
 668:Middlewares/lvgl/src/draw/lv_draw_rect.c **** 
 1713              		.loc 1 668 13 is_stmt 1 view .LVU647
 668:Middlewares/lvgl/src/draw/lv_draw_rect.c **** 
 1714              		.loc 1 668 51 is_stmt 0 view .LVU648
 1715 0390 BDF956C0 		ldrsh	ip, [sp, #86]
 668:Middlewares/lvgl/src/draw/lv_draw_rect.c **** 
 1716              		.loc 1 668 48 view .LVU649
 1717 0394 A3EB0C0C 		sub	ip, r3, ip
 668:Middlewares/lvgl/src/draw/lv_draw_rect.c **** 
 1718              		.loc 1 668 24 view .LVU650
 1719 0398 04FB0C88 		mla	r8, r4, ip, r8
 1720              	.LVL166:
 668:Middlewares/lvgl/src/draw/lv_draw_rect.c **** 
 1721              		.loc 1 668 24 view .LVU651
 1722 039c 0999     		ldr	r1, [sp, #36]
 1723 039e 8844     		add	r8, r8, r1
 1724              	.LVL167:
 670:Middlewares/lvgl/src/draw/lv_draw_rect.c ****             lv_area_copy(&fa, &ca);
 1725              		.loc 1 670 13 is_stmt 1 view .LVU652
 671:Middlewares/lvgl/src/draw/lv_draw_rect.c ****             fa.y2 = fa.y1;
 1726              		.loc 1 671 13 view .LVU653
 1727              	.LBB233:
 1728              	.LBI233:
 120:Middlewares/lvgl/src/draw/../misc/lv_area.h **** {
 1729              		.loc 2 120 20 view .LVU654
 1730              	.LBB234:
 122:Middlewares/lvgl/src/draw/../misc/lv_area.h ****     dest->y1 = src->y1;
 1731              		.loc 2 122 5 view .LVU655
 122:Middlewares/lvgl/src/draw/../misc/lv_area.h ****     dest->y1 = src->y1;
 1732              		.loc 2 122 14 is_stmt 0 view .LVU656
 1733 03a0 ADF84420 		strh	r2, [sp, #68]	@ movhi
 123:Middlewares/lvgl/src/draw/../misc/lv_area.h ****     dest->x2 = src->x2;
 1734              		.loc 2 123 5 is_stmt 1 view .LVU657
 123:Middlewares/lvgl/src/draw/../misc/lv_area.h ****     dest->x2 = src->x2;
 1735              		.loc 2 123 14 is_stmt 0 view .LVU658
 1736 03a4 ADF84630 		strh	r3, [sp, #70]	@ movhi
 124:Middlewares/lvgl/src/draw/../misc/lv_area.h ****     dest->y2 = src->y2;
 1737              		.loc 2 124 5 is_stmt 1 view .LVU659
 124:Middlewares/lvgl/src/draw/../misc/lv_area.h ****     dest->y2 = src->y2;
 1738              		.loc 2 124 14 is_stmt 0 view .LVU660
 1739 03a8 ADF84800 		strh	r0, [sp, #72]	@ movhi
 125:Middlewares/lvgl/src/draw/../misc/lv_area.h **** }
 1740              		.loc 2 125 5 is_stmt 1 view .LVU661
 125:Middlewares/lvgl/src/draw/../misc/lv_area.h **** }
 1741              		.loc 2 125 14 is_stmt 0 view .LVU662
 1742 03ac ADF84AE0 		strh	lr, [sp, #74]	@ movhi
ARM GAS  /tmp/ccUpPomB.s 			page 64


 1743              	.LVL168:
 125:Middlewares/lvgl/src/draw/../misc/lv_area.h **** }
 1744              		.loc 2 125 14 view .LVU663
 1745              	.LBE234:
 1746              	.LBE233:
 672:Middlewares/lvgl/src/draw/lv_draw_rect.c **** 
 1747              		.loc 1 672 13 is_stmt 1 view .LVU664
 672:Middlewares/lvgl/src/draw/lv_draw_rect.c **** 
 1748              		.loc 1 672 19 is_stmt 0 view .LVU665
 1749 03b0 ADF84A30 		strh	r3, [sp, #74]	@ movhi
 674:Middlewares/lvgl/src/draw/lv_draw_rect.c ****                 lv_memcpy(mask_buf, sh_buf_tmp, w);
 1750              		.loc 1 674 13 is_stmt 1 view .LVU666
 1751              	.LVL169:
 674:Middlewares/lvgl/src/draw/lv_draw_rect.c ****                 lv_memcpy(mask_buf, sh_buf_tmp, w);
 1752              		.loc 1 674 19 is_stmt 0 view .LVU667
 1753 03b4 4FF00009 		mov	r9, #0
 1754 03b8 0F97     		str	r7, [sp, #60]
 1755 03ba 079F     		ldr	r7, [sp, #28]
 674:Middlewares/lvgl/src/draw/lv_draw_rect.c ****                 lv_memcpy(mask_buf, sh_buf_tmp, w);
 1756              		.loc 1 674 13 view .LVU668
 1757 03bc 16E0     		b	.L87
 1758              	.LVL170:
 1759              	.L88:
 679:Middlewares/lvgl/src/draw/lv_draw_rect.c ****                                mask_res, opa, dsc->blend_mode);
 1760              		.loc 1 679 17 is_stmt 1 discriminator 2 view .LVU669
 1761 03be AB78     		ldrb	r3, [r5, #2]	@ zero_extendqisi2
 1762 03c0 0293     		str	r3, [sp, #8]
 1763 03c2 0197     		str	r7, [sp, #4]
 1764 03c4 0090     		str	r0, [sp]
 1765 03c6 3346     		mov	r3, r6
 1766 03c8 2A8D     		ldrh	r2, [r5, #40]
 1767 03ca 11A9     		add	r1, sp, #68
 1768 03cc 0498     		ldr	r0, [sp, #16]
 1769              	.LVL171:
 679:Middlewares/lvgl/src/draw/lv_draw_rect.c ****                                mask_res, opa, dsc->blend_mode);
 1770              		.loc 1 679 17 is_stmt 0 discriminator 2 view .LVU670
 1771 03ce FFF7FEFF 		bl	_lv_blend_fill
 1772              	.LVL172:
 681:Middlewares/lvgl/src/draw/lv_draw_rect.c ****                 fa.y2++;
 1773              		.loc 1 681 17 is_stmt 1 discriminator 2 view .LVU671
 681:Middlewares/lvgl/src/draw/lv_draw_rect.c ****                 fa.y2++;
 1774              		.loc 1 681 19 is_stmt 0 discriminator 2 view .LVU672
 1775 03d2 BDF94630 		ldrsh	r3, [sp, #70]
 681:Middlewares/lvgl/src/draw/lv_draw_rect.c ****                 fa.y2++;
 1776              		.loc 1 681 22 discriminator 2 view .LVU673
 1777 03d6 0133     		adds	r3, r3, #1
 1778 03d8 ADF84630 		strh	r3, [sp, #70]	@ movhi
 682:Middlewares/lvgl/src/draw/lv_draw_rect.c ****                 sh_buf_tmp += corner_size;
 1779              		.loc 1 682 17 is_stmt 1 discriminator 2 view .LVU674
 682:Middlewares/lvgl/src/draw/lv_draw_rect.c ****                 sh_buf_tmp += corner_size;
 1780              		.loc 1 682 19 is_stmt 0 discriminator 2 view .LVU675
 1781 03dc BDF94A30 		ldrsh	r3, [sp, #74]
 682:Middlewares/lvgl/src/draw/lv_draw_rect.c ****                 sh_buf_tmp += corner_size;
 1782              		.loc 1 682 22 discriminator 2 view .LVU676
 1783 03e0 0133     		adds	r3, r3, #1
 1784 03e2 ADF84A30 		strh	r3, [sp, #74]	@ movhi
 683:Middlewares/lvgl/src/draw/lv_draw_rect.c ****             }
ARM GAS  /tmp/ccUpPomB.s 			page 65


 1785              		.loc 1 683 17 is_stmt 1 discriminator 2 view .LVU677
 683:Middlewares/lvgl/src/draw/lv_draw_rect.c ****             }
 1786              		.loc 1 683 28 is_stmt 0 discriminator 2 view .LVU678
 1787 03e6 A044     		add	r8, r8, r4
 1788              	.LVL173:
 674:Middlewares/lvgl/src/draw/lv_draw_rect.c ****                 lv_memcpy(mask_buf, sh_buf_tmp, w);
 1789              		.loc 1 674 31 is_stmt 1 discriminator 2 view .LVU679
 674:Middlewares/lvgl/src/draw/lv_draw_rect.c ****                 lv_memcpy(mask_buf, sh_buf_tmp, w);
 1790              		.loc 1 674 32 is_stmt 0 discriminator 2 view .LVU680
 1791 03e8 09F10109 		add	r9, r9, #1
 1792              	.LVL174:
 1793              	.L87:
 674:Middlewares/lvgl/src/draw/lv_draw_rect.c ****                 lv_memcpy(mask_buf, sh_buf_tmp, w);
 1794              		.loc 1 674 24 is_stmt 1 discriminator 1 view .LVU681
 674:Middlewares/lvgl/src/draw/lv_draw_rect.c ****                 lv_memcpy(mask_buf, sh_buf_tmp, w);
 1795              		.loc 1 674 13 is_stmt 0 discriminator 1 view .LVU682
 1796 03ec CB45     		cmp	fp, r9
 1797 03ee 10DD     		ble	.L170
 675:Middlewares/lvgl/src/draw/lv_draw_rect.c ****                 mask_res = lv_draw_mask_apply(mask_buf, fa.x1, fa.y1, w);
 1798              		.loc 1 675 17 is_stmt 1 view .LVU683
 1799 03f0 5246     		mov	r2, r10
 1800 03f2 4146     		mov	r1, r8
 1801 03f4 3046     		mov	r0, r6
 1802 03f6 FFF7FEFF 		bl	lv_memcpy
 1803              	.LVL175:
 676:Middlewares/lvgl/src/draw/lv_draw_rect.c ****                 if(mask_res == LV_DRAW_MASK_RES_FULL_COVER) mask_res = LV_DRAW_MASK_RES_CHANGED;
 1804              		.loc 1 676 17 view .LVU684
 676:Middlewares/lvgl/src/draw/lv_draw_rect.c ****                 if(mask_res == LV_DRAW_MASK_RES_FULL_COVER) mask_res = LV_DRAW_MASK_RES_CHANGED;
 1805              		.loc 1 676 28 is_stmt 0 view .LVU685
 1806 03fa 5346     		mov	r3, r10
 1807 03fc BDF94620 		ldrsh	r2, [sp, #70]
 1808 0400 BDF94410 		ldrsh	r1, [sp, #68]
 1809 0404 3046     		mov	r0, r6
 1810 0406 FFF7FEFF 		bl	lv_draw_mask_apply
 1811              	.LVL176:
 677:Middlewares/lvgl/src/draw/lv_draw_rect.c **** 
 1812              		.loc 1 677 17 is_stmt 1 view .LVU686
 677:Middlewares/lvgl/src/draw/lv_draw_rect.c **** 
 1813              		.loc 1 677 19 is_stmt 0 view .LVU687
 1814 040a 0128     		cmp	r0, #1
 1815 040c D7D1     		bne	.L88
 677:Middlewares/lvgl/src/draw/lv_draw_rect.c **** 
 1816              		.loc 1 677 70 view .LVU688
 1817 040e 0220     		movs	r0, #2
 1818              	.LVL177:
 677:Middlewares/lvgl/src/draw/lv_draw_rect.c **** 
 1819              		.loc 1 677 70 view .LVU689
 1820 0410 D5E7     		b	.L88
 1821              	.L170:
 677:Middlewares/lvgl/src/draw/lv_draw_rect.c **** 
 1822              		.loc 1 677 70 view .LVU690
 1823 0412 0F9F     		ldr	r7, [sp, #60]
 1824 0414 41E7     		b	.L84
 1825              	.LVL178:
 1826              	.L168:
 677:Middlewares/lvgl/src/draw/lv_draw_rect.c **** 
 1827              		.loc 1 677 70 view .LVU691
ARM GAS  /tmp/ccUpPomB.s 			page 66


 1828              	.LBE232:
 1829              	.LBE227:
 695:Middlewares/lvgl/src/draw/lv_draw_rect.c ****         /*Avoid overlap in the middle with large radius*/
 1830              		.loc 1 695 19 discriminator 1 view .LVU692
 1831 0416 089A     		ldr	r2, [sp, #32]
 1832 0418 1EA9     		add	r1, sp, #120
 1833 041a 15A8     		add	r0, sp, #84
 1834              	.LVL179:
 695:Middlewares/lvgl/src/draw/lv_draw_rect.c ****         /*Avoid overlap in the middle with large radius*/
 1835              		.loc 1 695 19 discriminator 1 view .LVU693
 1836 041c FFF7FEFF 		bl	_lv_area_is_in
 1837              	.LVL180:
 695:Middlewares/lvgl/src/draw/lv_draw_rect.c ****         /*Avoid overlap in the middle with large radius*/
 1838              		.loc 1 695 16 discriminator 1 view .LVU694
 1839 0420 0028     		cmp	r0, #0
 1840 0422 7FF456AF 		bne	.L90
 1841              	.LBB235:
 697:Middlewares/lvgl/src/draw/lv_draw_rect.c ****         if(ca.x1 <= w_half) ca.x1 = w_half;
 1842              		.loc 1 697 9 is_stmt 1 view .LVU695
 697:Middlewares/lvgl/src/draw/lv_draw_rect.c ****         if(ca.x1 <= w_half) ca.x1 = w_half;
 1843              		.loc 1 697 14 is_stmt 0 view .LVU696
 1844 0426 BDF94E30 		ldrsh	r3, [sp, #78]
 697:Middlewares/lvgl/src/draw/lv_draw_rect.c ****         if(ca.x1 <= w_half) ca.x1 = w_half;
 1845              		.loc 1 697 11 view .LVU697
 1846 042a 0B9A     		ldr	r2, [sp, #44]
 1847 042c 9342     		cmp	r3, r2
 1848 042e 01DC     		bgt	.L91
 697:Middlewares/lvgl/src/draw/lv_draw_rect.c ****         if(ca.x1 <= w_half) ca.x1 = w_half;
 1849              		.loc 1 697 29 is_stmt 1 discriminator 1 view .LVU698
 697:Middlewares/lvgl/src/draw/lv_draw_rect.c ****         if(ca.x1 <= w_half) ca.x1 = w_half;
 1850              		.loc 1 697 35 is_stmt 0 discriminator 1 view .LVU699
 1851 0430 ADF84E20 		strh	r2, [sp, #78]	@ movhi
 1852              	.L91:
 698:Middlewares/lvgl/src/draw/lv_draw_rect.c **** 
 1853              		.loc 1 698 9 is_stmt 1 view .LVU700
 698:Middlewares/lvgl/src/draw/lv_draw_rect.c **** 
 1854              		.loc 1 698 14 is_stmt 0 view .LVU701
 1855 0434 BDF94C30 		ldrsh	r3, [sp, #76]
 698:Middlewares/lvgl/src/draw/lv_draw_rect.c **** 
 1856              		.loc 1 698 11 view .LVU702
 1857 0438 0C9A     		ldr	r2, [sp, #48]
 1858 043a 9342     		cmp	r3, r2
 1859 043c 01DC     		bgt	.L92
 698:Middlewares/lvgl/src/draw/lv_draw_rect.c **** 
 1860              		.loc 1 698 29 is_stmt 1 discriminator 1 view .LVU703
 698:Middlewares/lvgl/src/draw/lv_draw_rect.c **** 
 1861              		.loc 1 698 35 is_stmt 0 discriminator 1 view .LVU704
 1862 043e ADF84C20 		strh	r2, [sp, #76]	@ movhi
 1863              	.L92:
 700:Middlewares/lvgl/src/draw/lv_draw_rect.c ****         lv_coord_t w = lv_area_get_width(&ca);
 1864              		.loc 1 700 9 is_stmt 1 view .LVU705
 1865              	.LVL181:
 1866              	.LBB236:
 1867              	.LBI236:
 143:Middlewares/lvgl/src/draw/../misc/lv_area.h **** {
 1868              		.loc 2 143 26 view .LVU706
 1869              	.LBB237:
ARM GAS  /tmp/ccUpPomB.s 			page 67


 1870              		.loc 2 145 5 view .LVU707
 1871              		.loc 2 145 31 is_stmt 0 view .LVU708
 1872 0442 BDF95230 		ldrsh	r3, [sp, #82]
 1873 0446 1FFA83FB 		uxth	fp, r3
 1874              		.loc 2 145 44 view .LVU709
 1875 044a BDF94E00 		ldrsh	r0, [sp, #78]
 1876 044e 82B2     		uxth	r2, r0
 1877              		.loc 2 145 36 view .LVU710
 1878 0450 ABEB020B 		sub	fp, fp, r2
 1879 0454 1FFA8BFB 		uxth	fp, fp
 1880              		.loc 2 145 49 view .LVU711
 1881 0458 0BF1010B 		add	fp, fp, #1
 1882              		.loc 2 145 12 view .LVU712
 1883 045c 0FFA8BFB 		sxth	fp, fp
 1884              	.LVL182:
 1885              		.loc 2 145 12 view .LVU713
 1886              	.LBE237:
 1887              	.LBE236:
 701:Middlewares/lvgl/src/draw/lv_draw_rect.c **** 
 1888              		.loc 1 701 9 is_stmt 1 view .LVU714
 1889              	.LBB238:
 1890              	.LBI238:
 133:Middlewares/lvgl/src/draw/../misc/lv_area.h **** {
 1891              		.loc 2 133 26 view .LVU715
 1892              	.LBB239:
 135:Middlewares/lvgl/src/draw/../misc/lv_area.h **** }
 1893              		.loc 2 135 5 view .LVU716
 135:Middlewares/lvgl/src/draw/../misc/lv_area.h **** }
 1894              		.loc 2 135 31 is_stmt 0 view .LVU717
 1895 0460 BDF950E0 		ldrsh	lr, [sp, #80]
 1896 0464 1FFA8EFA 		uxth	r10, lr
 135:Middlewares/lvgl/src/draw/../misc/lv_area.h **** }
 1897              		.loc 2 135 44 view .LVU718
 1898 0468 BDF94C20 		ldrsh	r2, [sp, #76]
 1899 046c 1FFA82FC 		uxth	ip, r2
 135:Middlewares/lvgl/src/draw/../misc/lv_area.h **** }
 1900              		.loc 2 135 36 view .LVU719
 1901 0470 AAEB0C0A 		sub	r10, r10, ip
 1902 0474 1FFA8AFA 		uxth	r10, r10
 135:Middlewares/lvgl/src/draw/../misc/lv_area.h **** }
 1903              		.loc 2 135 49 view .LVU720
 1904 0478 0AF1010A 		add	r10, r10, #1
 135:Middlewares/lvgl/src/draw/../misc/lv_area.h **** }
 1905              		.loc 2 135 12 view .LVU721
 1906 047c 0FFA8AFA 		sxth	r10, r10
 1907              	.LVL183:
 135:Middlewares/lvgl/src/draw/../misc/lv_area.h **** }
 1908              		.loc 2 135 12 view .LVU722
 1909              	.LBE239:
 1910              	.LBE238:
 703:Middlewares/lvgl/src/draw/lv_draw_rect.c ****             sh_buf_tmp = sh_buf + (ca.x1 - a.x1);
 1911              		.loc 1 703 9 is_stmt 1 view .LVU723
 703:Middlewares/lvgl/src/draw/lv_draw_rect.c ****             sh_buf_tmp = sh_buf + (ca.x1 - a.x1);
 1912              		.loc 1 703 11 is_stmt 0 view .LVU724
 1913 0480 BAF1000F 		cmp	r10, #0
 1914 0484 7FF725AF 		ble	.L90
 1915              	.LBB240:
ARM GAS  /tmp/ccUpPomB.s 			page 68


 704:Middlewares/lvgl/src/draw/lv_draw_rect.c ****             sh_buf_tmp += corner_size * (a.y2 - ca.y2);
 1916              		.loc 1 704 13 is_stmt 1 view .LVU725
 704:Middlewares/lvgl/src/draw/lv_draw_rect.c ****             sh_buf_tmp += corner_size * (a.y2 - ca.y2);
 1917              		.loc 1 704 45 is_stmt 0 view .LVU726
 1918 0488 BDF95480 		ldrsh	r8, [sp, #84]
 704:Middlewares/lvgl/src/draw/lv_draw_rect.c ****             sh_buf_tmp += corner_size * (a.y2 - ca.y2);
 1919              		.loc 1 704 42 view .LVU727
 1920 048c A2EB0808 		sub	r8, r2, r8
 1921              	.LVL184:
 705:Middlewares/lvgl/src/draw/lv_draw_rect.c **** 
 1922              		.loc 1 705 13 is_stmt 1 view .LVU728
 705:Middlewares/lvgl/src/draw/lv_draw_rect.c **** 
 1923              		.loc 1 705 43 is_stmt 0 view .LVU729
 1924 0490 BDF95AC0 		ldrsh	ip, [sp, #90]
 705:Middlewares/lvgl/src/draw/lv_draw_rect.c **** 
 1925              		.loc 1 705 47 view .LVU730
 1926 0494 ACEB030C 		sub	ip, ip, r3
 705:Middlewares/lvgl/src/draw/lv_draw_rect.c **** 
 1927              		.loc 1 705 24 view .LVU731
 1928 0498 04FB0C88 		mla	r8, r4, ip, r8
 1929              	.LVL185:
 705:Middlewares/lvgl/src/draw/lv_draw_rect.c **** 
 1930              		.loc 1 705 24 view .LVU732
 1931 049c 0999     		ldr	r1, [sp, #36]
 1932 049e 8844     		add	r8, r8, r1
 1933              	.LVL186:
 707:Middlewares/lvgl/src/draw/lv_draw_rect.c ****             lv_area_copy(&fa, &ca);
 1934              		.loc 1 707 13 is_stmt 1 view .LVU733
 708:Middlewares/lvgl/src/draw/lv_draw_rect.c ****             fa.y1 = fa.y2;    /*Fill from bottom to top*/
 1935              		.loc 1 708 13 view .LVU734
 1936              	.LBB241:
 1937              	.LBI241:
 120:Middlewares/lvgl/src/draw/../misc/lv_area.h **** {
 1938              		.loc 2 120 20 view .LVU735
 1939              	.LBB242:
 122:Middlewares/lvgl/src/draw/../misc/lv_area.h ****     dest->y1 = src->y1;
 1940              		.loc 2 122 5 view .LVU736
 122:Middlewares/lvgl/src/draw/../misc/lv_area.h ****     dest->y1 = src->y1;
 1941              		.loc 2 122 14 is_stmt 0 view .LVU737
 1942 04a0 ADF84420 		strh	r2, [sp, #68]	@ movhi
 123:Middlewares/lvgl/src/draw/../misc/lv_area.h ****     dest->x2 = src->x2;
 1943              		.loc 2 123 5 is_stmt 1 view .LVU738
 123:Middlewares/lvgl/src/draw/../misc/lv_area.h ****     dest->x2 = src->x2;
 1944              		.loc 2 123 14 is_stmt 0 view .LVU739
 1945 04a4 ADF84600 		strh	r0, [sp, #70]	@ movhi
 124:Middlewares/lvgl/src/draw/../misc/lv_area.h ****     dest->y2 = src->y2;
 1946              		.loc 2 124 5 is_stmt 1 view .LVU740
 124:Middlewares/lvgl/src/draw/../misc/lv_area.h ****     dest->y2 = src->y2;
 1947              		.loc 2 124 14 is_stmt 0 view .LVU741
 1948 04a8 ADF848E0 		strh	lr, [sp, #72]	@ movhi
 125:Middlewares/lvgl/src/draw/../misc/lv_area.h **** }
 1949              		.loc 2 125 5 is_stmt 1 view .LVU742
 125:Middlewares/lvgl/src/draw/../misc/lv_area.h **** }
 1950              		.loc 2 125 14 is_stmt 0 view .LVU743
 1951 04ac ADF84A30 		strh	r3, [sp, #74]	@ movhi
 1952              	.LVL187:
 125:Middlewares/lvgl/src/draw/../misc/lv_area.h **** }
ARM GAS  /tmp/ccUpPomB.s 			page 69


 1953              		.loc 2 125 14 view .LVU744
 1954              	.LBE242:
 1955              	.LBE241:
 709:Middlewares/lvgl/src/draw/lv_draw_rect.c **** 
 1956              		.loc 1 709 13 is_stmt 1 view .LVU745
 709:Middlewares/lvgl/src/draw/lv_draw_rect.c **** 
 1957              		.loc 1 709 19 is_stmt 0 view .LVU746
 1958 04b0 ADF84630 		strh	r3, [sp, #70]	@ movhi
 711:Middlewares/lvgl/src/draw/lv_draw_rect.c ****                 lv_memcpy(mask_buf, sh_buf_tmp, w);
 1959              		.loc 1 711 13 is_stmt 1 view .LVU747
 1960              	.LVL188:
 711:Middlewares/lvgl/src/draw/lv_draw_rect.c ****                 lv_memcpy(mask_buf, sh_buf_tmp, w);
 1961              		.loc 1 711 19 is_stmt 0 view .LVU748
 1962 04b4 4FF00009 		mov	r9, #0
 1963 04b8 0F97     		str	r7, [sp, #60]
 1964 04ba 079F     		ldr	r7, [sp, #28]
 711:Middlewares/lvgl/src/draw/lv_draw_rect.c ****                 lv_memcpy(mask_buf, sh_buf_tmp, w);
 1965              		.loc 1 711 13 view .LVU749
 1966 04bc 16E0     		b	.L93
 1967              	.LVL189:
 1968              	.L94:
 716:Middlewares/lvgl/src/draw/lv_draw_rect.c ****                                mask_res, opa, dsc->blend_mode);
 1969              		.loc 1 716 17 is_stmt 1 discriminator 2 view .LVU750
 1970 04be AB78     		ldrb	r3, [r5, #2]	@ zero_extendqisi2
 1971 04c0 0293     		str	r3, [sp, #8]
 1972 04c2 0197     		str	r7, [sp, #4]
 1973 04c4 0090     		str	r0, [sp]
 1974 04c6 3346     		mov	r3, r6
 1975 04c8 2A8D     		ldrh	r2, [r5, #40]
 1976 04ca 11A9     		add	r1, sp, #68
 1977 04cc 0498     		ldr	r0, [sp, #16]
 1978              	.LVL190:
 716:Middlewares/lvgl/src/draw/lv_draw_rect.c ****                                mask_res, opa, dsc->blend_mode);
 1979              		.loc 1 716 17 is_stmt 0 discriminator 2 view .LVU751
 1980 04ce FFF7FEFF 		bl	_lv_blend_fill
 1981              	.LVL191:
 718:Middlewares/lvgl/src/draw/lv_draw_rect.c ****                 fa.y2--;
 1982              		.loc 1 718 17 is_stmt 1 discriminator 2 view .LVU752
 718:Middlewares/lvgl/src/draw/lv_draw_rect.c ****                 fa.y2--;
 1983              		.loc 1 718 19 is_stmt 0 discriminator 2 view .LVU753
 1984 04d2 BDF94630 		ldrsh	r3, [sp, #70]
 718:Middlewares/lvgl/src/draw/lv_draw_rect.c ****                 fa.y2--;
 1985              		.loc 1 718 22 discriminator 2 view .LVU754
 1986 04d6 013B     		subs	r3, r3, #1
 1987 04d8 ADF84630 		strh	r3, [sp, #70]	@ movhi
 719:Middlewares/lvgl/src/draw/lv_draw_rect.c ****                 sh_buf_tmp += corner_size;
 1988              		.loc 1 719 17 is_stmt 1 discriminator 2 view .LVU755
 719:Middlewares/lvgl/src/draw/lv_draw_rect.c ****                 sh_buf_tmp += corner_size;
 1989              		.loc 1 719 19 is_stmt 0 discriminator 2 view .LVU756
 1990 04dc BDF94A30 		ldrsh	r3, [sp, #74]
 719:Middlewares/lvgl/src/draw/lv_draw_rect.c ****                 sh_buf_tmp += corner_size;
 1991              		.loc 1 719 22 discriminator 2 view .LVU757
 1992 04e0 013B     		subs	r3, r3, #1
 1993 04e2 ADF84A30 		strh	r3, [sp, #74]	@ movhi
 720:Middlewares/lvgl/src/draw/lv_draw_rect.c ****             }
 1994              		.loc 1 720 17 is_stmt 1 discriminator 2 view .LVU758
 720:Middlewares/lvgl/src/draw/lv_draw_rect.c ****             }
ARM GAS  /tmp/ccUpPomB.s 			page 70


 1995              		.loc 1 720 28 is_stmt 0 discriminator 2 view .LVU759
 1996 04e6 A044     		add	r8, r8, r4
 1997              	.LVL192:
 711:Middlewares/lvgl/src/draw/lv_draw_rect.c ****                 lv_memcpy(mask_buf, sh_buf_tmp, w);
 1998              		.loc 1 711 31 is_stmt 1 discriminator 2 view .LVU760
 711:Middlewares/lvgl/src/draw/lv_draw_rect.c ****                 lv_memcpy(mask_buf, sh_buf_tmp, w);
 1999              		.loc 1 711 32 is_stmt 0 discriminator 2 view .LVU761
 2000 04e8 09F10109 		add	r9, r9, #1
 2001              	.LVL193:
 2002              	.L93:
 711:Middlewares/lvgl/src/draw/lv_draw_rect.c ****                 lv_memcpy(mask_buf, sh_buf_tmp, w);
 2003              		.loc 1 711 24 is_stmt 1 discriminator 1 view .LVU762
 711:Middlewares/lvgl/src/draw/lv_draw_rect.c ****                 lv_memcpy(mask_buf, sh_buf_tmp, w);
 2004              		.loc 1 711 13 is_stmt 0 discriminator 1 view .LVU763
 2005 04ec CB45     		cmp	fp, r9
 2006 04ee 10DD     		ble	.L171
 712:Middlewares/lvgl/src/draw/lv_draw_rect.c ****                 mask_res = lv_draw_mask_apply(mask_buf, fa.x1, fa.y1, w);
 2007              		.loc 1 712 17 is_stmt 1 view .LVU764
 2008 04f0 5246     		mov	r2, r10
 2009 04f2 4146     		mov	r1, r8
 2010 04f4 3046     		mov	r0, r6
 2011 04f6 FFF7FEFF 		bl	lv_memcpy
 2012              	.LVL194:
 713:Middlewares/lvgl/src/draw/lv_draw_rect.c ****                 if(mask_res == LV_DRAW_MASK_RES_FULL_COVER) mask_res = LV_DRAW_MASK_RES_CHANGED;
 2013              		.loc 1 713 17 view .LVU765
 713:Middlewares/lvgl/src/draw/lv_draw_rect.c ****                 if(mask_res == LV_DRAW_MASK_RES_FULL_COVER) mask_res = LV_DRAW_MASK_RES_CHANGED;
 2014              		.loc 1 713 28 is_stmt 0 view .LVU766
 2015 04fa 5346     		mov	r3, r10
 2016 04fc BDF94620 		ldrsh	r2, [sp, #70]
 2017 0500 BDF94410 		ldrsh	r1, [sp, #68]
 2018 0504 3046     		mov	r0, r6
 2019 0506 FFF7FEFF 		bl	lv_draw_mask_apply
 2020              	.LVL195:
 714:Middlewares/lvgl/src/draw/lv_draw_rect.c **** 
 2021              		.loc 1 714 17 is_stmt 1 view .LVU767
 714:Middlewares/lvgl/src/draw/lv_draw_rect.c **** 
 2022              		.loc 1 714 19 is_stmt 0 view .LVU768
 2023 050a 0128     		cmp	r0, #1
 2024 050c D7D1     		bne	.L94
 714:Middlewares/lvgl/src/draw/lv_draw_rect.c **** 
 2025              		.loc 1 714 70 view .LVU769
 2026 050e 0220     		movs	r0, #2
 2027              	.LVL196:
 714:Middlewares/lvgl/src/draw/lv_draw_rect.c **** 
 2028              		.loc 1 714 70 view .LVU770
 2029 0510 D5E7     		b	.L94
 2030              	.L171:
 714:Middlewares/lvgl/src/draw/lv_draw_rect.c **** 
 2031              		.loc 1 714 70 view .LVU771
 2032 0512 0F9F     		ldr	r7, [sp, #60]
 2033 0514 DDE6     		b	.L90
 2034              	.LVL197:
 2035              	.L169:
 714:Middlewares/lvgl/src/draw/lv_draw_rect.c **** 
 2036              		.loc 1 714 70 view .LVU772
 2037              	.LBE240:
 2038              	.LBE235:
ARM GAS  /tmp/ccUpPomB.s 			page 71


 732:Middlewares/lvgl/src/draw/lv_draw_rect.c ****         /*Avoid overlap in the middle with large radius*/
 2039              		.loc 1 732 19 discriminator 1 view .LVU773
 2040 0516 089A     		ldr	r2, [sp, #32]
 2041 0518 1EA9     		add	r1, sp, #120
 2042 051a 15A8     		add	r0, sp, #84
 2043              	.LVL198:
 732:Middlewares/lvgl/src/draw/lv_draw_rect.c ****         /*Avoid overlap in the middle with large radius*/
 2044              		.loc 1 732 19 discriminator 1 view .LVU774
 2045 051c FFF7FEFF 		bl	_lv_area_is_in
 2046              	.LVL199:
 732:Middlewares/lvgl/src/draw/lv_draw_rect.c ****         /*Avoid overlap in the middle with large radius*/
 2047              		.loc 1 732 16 discriminator 1 view .LVU775
 2048 0520 0028     		cmp	r0, #0
 2049 0522 7FF4F2AE 		bne	.L96
 2050              	.LBB243:
 734:Middlewares/lvgl/src/draw/lv_draw_rect.c **** 
 2051              		.loc 1 734 9 is_stmt 1 view .LVU776
 734:Middlewares/lvgl/src/draw/lv_draw_rect.c **** 
 2052              		.loc 1 734 14 is_stmt 0 view .LVU777
 2053 0526 BDF94C30 		ldrsh	r3, [sp, #76]
 734:Middlewares/lvgl/src/draw/lv_draw_rect.c **** 
 2054              		.loc 1 734 11 view .LVU778
 2055 052a 0C9A     		ldr	r2, [sp, #48]
 2056 052c 9342     		cmp	r3, r2
 2057 052e 03DC     		bgt	.L97
 734:Middlewares/lvgl/src/draw/lv_draw_rect.c **** 
 2058              		.loc 1 734 29 is_stmt 1 discriminator 1 view .LVU779
 734:Middlewares/lvgl/src/draw/lv_draw_rect.c **** 
 2059              		.loc 1 734 44 is_stmt 0 discriminator 1 view .LVU780
 2060 0530 0E9B     		ldr	r3, [sp, #56]
 2061 0532 0133     		adds	r3, r3, #1
 734:Middlewares/lvgl/src/draw/lv_draw_rect.c **** 
 2062              		.loc 1 734 35 discriminator 1 view .LVU781
 2063 0534 ADF84C30 		strh	r3, [sp, #76]	@ movhi
 2064              	.L97:
 736:Middlewares/lvgl/src/draw/lv_draw_rect.c **** 
 2065              		.loc 1 736 9 is_stmt 1 view .LVU782
 736:Middlewares/lvgl/src/draw/lv_draw_rect.c **** 
 2066              		.loc 1 736 11 is_stmt 0 view .LVU783
 2067 0538 069B     		ldr	r3, [sp, #24]
 2068 053a 4BB1     		cbz	r3, .L98
 736:Middlewares/lvgl/src/draw/lv_draw_rect.c **** 
 2069              		.loc 1 736 25 is_stmt 1 discriminator 1 view .LVU784
 736:Middlewares/lvgl/src/draw/lv_draw_rect.c **** 
 2070              		.loc 1 736 33 is_stmt 0 discriminator 1 view .LVU785
 2071 053c 059B     		ldr	r3, [sp, #20]
 2072 053e B3F90430 		ldrsh	r3, [r3, #4]
 2073 0542 BDF94C20 		ldrsh	r2, [sp, #76]
 2074 0546 9342     		cmp	r3, r2
 2075 0548 B8BF     		it	lt
 2076 054a 1346     		movlt	r3, r2
 736:Middlewares/lvgl/src/draw/lv_draw_rect.c **** 
 2077              		.loc 1 736 31 discriminator 1 view .LVU786
 2078 054c ADF84C30 		strh	r3, [sp, #76]	@ movhi
 2079              	.L98:
 739:Middlewares/lvgl/src/draw/lv_draw_rect.c ****         if(w > 0) {
 2080              		.loc 1 739 9 is_stmt 1 view .LVU787
ARM GAS  /tmp/ccUpPomB.s 			page 72


 2081              	.LVL200:
 2082              	.LBB244:
 2083              	.LBI244:
 133:Middlewares/lvgl/src/draw/../misc/lv_area.h **** {
 2084              		.loc 2 133 26 view .LVU788
 2085              	.LBB245:
 135:Middlewares/lvgl/src/draw/../misc/lv_area.h **** }
 2086              		.loc 2 135 5 view .LVU789
 135:Middlewares/lvgl/src/draw/../misc/lv_area.h **** }
 2087              		.loc 2 135 31 is_stmt 0 view .LVU790
 2088 0550 BDF95020 		ldrsh	r2, [sp, #80]
 2089 0554 1FFA82F9 		uxth	r9, r2
 135:Middlewares/lvgl/src/draw/../misc/lv_area.h **** }
 2090              		.loc 2 135 44 view .LVU791
 2091 0558 BDF94C30 		ldrsh	r3, [sp, #76]
 2092 055c 99B2     		uxth	r1, r3
 135:Middlewares/lvgl/src/draw/../misc/lv_area.h **** }
 2093              		.loc 2 135 36 view .LVU792
 2094 055e A9EB0109 		sub	r9, r9, r1
 2095 0562 1FFA89F9 		uxth	r9, r9
 135:Middlewares/lvgl/src/draw/../misc/lv_area.h **** }
 2096              		.loc 2 135 49 view .LVU793
 2097 0566 09F10109 		add	r9, r9, #1
 135:Middlewares/lvgl/src/draw/../misc/lv_area.h **** }
 2098              		.loc 2 135 12 view .LVU794
 2099 056a 0FFA89F9 		sxth	r9, r9
 2100              	.LVL201:
 135:Middlewares/lvgl/src/draw/../misc/lv_area.h **** }
 2101              		.loc 2 135 12 view .LVU795
 2102              	.LBE245:
 2103              	.LBE244:
 740:Middlewares/lvgl/src/draw/lv_draw_rect.c ****             lv_coord_t h = lv_area_get_height(&ca);
 2104              		.loc 1 740 9 is_stmt 1 view .LVU796
 740:Middlewares/lvgl/src/draw/lv_draw_rect.c ****             lv_coord_t h = lv_area_get_height(&ca);
 2105              		.loc 1 740 11 is_stmt 0 view .LVU797
 2106 056e B9F1000F 		cmp	r9, #0
 2107 0572 7FF7CAAE 		ble	.L96
 2108              	.LBB246:
 741:Middlewares/lvgl/src/draw/lv_draw_rect.c **** 
 2109              		.loc 1 741 13 is_stmt 1 view .LVU798
 2110              	.LVL202:
 2111              	.LBB247:
 2112              	.LBI247:
 143:Middlewares/lvgl/src/draw/../misc/lv_area.h **** {
 2113              		.loc 2 143 26 view .LVU799
 2114              	.LBB248:
 2115              		.loc 2 145 5 view .LVU800
 2116              		.loc 2 145 31 is_stmt 0 view .LVU801
 2117 0576 BDF952E0 		ldrsh	lr, [sp, #82]
 2118 057a 1FFA8EFA 		uxth	r10, lr
 2119              		.loc 2 145 44 view .LVU802
 2120 057e BDF94E10 		ldrsh	r1, [sp, #78]
 2121 0582 1FFA81FC 		uxth	ip, r1
 2122              		.loc 2 145 36 view .LVU803
 2123 0586 AAEB0C0A 		sub	r10, r10, ip
 2124 058a 1FFA8AFA 		uxth	r10, r10
 2125              		.loc 2 145 49 view .LVU804
ARM GAS  /tmp/ccUpPomB.s 			page 73


 2126 058e 0AF1010A 		add	r10, r10, #1
 2127              		.loc 2 145 12 view .LVU805
 2128 0592 0FFA8AFA 		sxth	r10, r10
 2129              	.LVL203:
 2130              		.loc 2 145 12 view .LVU806
 2131              	.LBE248:
 2132              	.LBE247:
 744:Middlewares/lvgl/src/draw/lv_draw_rect.c ****             sh_buf_tmp += ca.x1 - a.x1;
 2133              		.loc 1 744 13 is_stmt 1 view .LVU807
 744:Middlewares/lvgl/src/draw/lv_draw_rect.c ****             sh_buf_tmp += ca.x1 - a.x1;
 2134              		.loc 1 744 62 is_stmt 0 view .LVU808
 2135 0596 04F1FF3C 		add	ip, r4, #-1
 745:Middlewares/lvgl/src/draw/lv_draw_rect.c **** 
 2136              		.loc 1 745 13 is_stmt 1 view .LVU809
 745:Middlewares/lvgl/src/draw/lv_draw_rect.c **** 
 2137              		.loc 1 745 36 is_stmt 0 view .LVU810
 2138 059a BDF954B0 		ldrsh	fp, [sp, #84]
 745:Middlewares/lvgl/src/draw/lv_draw_rect.c **** 
 2139              		.loc 1 745 33 view .LVU811
 2140 059e A3EB0B0B 		sub	fp, r3, fp
 745:Middlewares/lvgl/src/draw/lv_draw_rect.c **** 
 2141              		.loc 1 745 24 view .LVU812
 2142 05a2 04FB0CBB 		mla	fp, r4, ip, fp
 2143 05a6 0998     		ldr	r0, [sp, #36]
 2144 05a8 8344     		add	fp, fp, r0
 2145              	.LVL204:
 747:Middlewares/lvgl/src/draw/lv_draw_rect.c ****             lv_area_copy(&fa, &ca);
 2146              		.loc 1 747 13 is_stmt 1 view .LVU813
 748:Middlewares/lvgl/src/draw/lv_draw_rect.c ****             fa.y2 = fa.y1;
 2147              		.loc 1 748 13 view .LVU814
 2148              	.LBB249:
 2149              	.LBI249:
 120:Middlewares/lvgl/src/draw/../misc/lv_area.h **** {
 2150              		.loc 2 120 20 view .LVU815
 2151              	.LBB250:
 122:Middlewares/lvgl/src/draw/../misc/lv_area.h ****     dest->y1 = src->y1;
 2152              		.loc 2 122 5 view .LVU816
 122:Middlewares/lvgl/src/draw/../misc/lv_area.h ****     dest->y1 = src->y1;
 2153              		.loc 2 122 14 is_stmt 0 view .LVU817
 2154 05aa ADF84430 		strh	r3, [sp, #68]	@ movhi
 123:Middlewares/lvgl/src/draw/../misc/lv_area.h ****     dest->x2 = src->x2;
 2155              		.loc 2 123 5 is_stmt 1 view .LVU818
 123:Middlewares/lvgl/src/draw/../misc/lv_area.h ****     dest->x2 = src->x2;
 2156              		.loc 2 123 14 is_stmt 0 view .LVU819
 2157 05ae ADF84610 		strh	r1, [sp, #70]	@ movhi
 124:Middlewares/lvgl/src/draw/../misc/lv_area.h ****     dest->y2 = src->y2;
 2158              		.loc 2 124 5 is_stmt 1 view .LVU820
 124:Middlewares/lvgl/src/draw/../misc/lv_area.h ****     dest->y2 = src->y2;
 2159              		.loc 2 124 14 is_stmt 0 view .LVU821
 2160 05b2 ADF84820 		strh	r2, [sp, #72]	@ movhi
 125:Middlewares/lvgl/src/draw/../misc/lv_area.h **** }
 2161              		.loc 2 125 5 is_stmt 1 view .LVU822
 125:Middlewares/lvgl/src/draw/../misc/lv_area.h **** }
 2162              		.loc 2 125 14 is_stmt 0 view .LVU823
 2163 05b6 ADF84AE0 		strh	lr, [sp, #74]	@ movhi
 2164              	.LVL205:
 125:Middlewares/lvgl/src/draw/../misc/lv_area.h **** }
ARM GAS  /tmp/ccUpPomB.s 			page 74


 2165              		.loc 2 125 14 view .LVU824
 2166              	.LBE250:
 2167              	.LBE249:
 749:Middlewares/lvgl/src/draw/lv_draw_rect.c ****             mask_res = LV_DRAW_MASK_RES_FULL_COVER;
 2168              		.loc 1 749 13 is_stmt 1 view .LVU825
 749:Middlewares/lvgl/src/draw/lv_draw_rect.c ****             mask_res = LV_DRAW_MASK_RES_FULL_COVER;
 2169              		.loc 1 749 19 is_stmt 0 view .LVU826
 2170 05ba ADF84A10 		strh	r1, [sp, #74]	@ movhi
 750:Middlewares/lvgl/src/draw/lv_draw_rect.c ****             for(y = 0; y < h; y++) {
 2171              		.loc 1 750 13 is_stmt 1 view .LVU827
 2172              	.LVL206:
 751:Middlewares/lvgl/src/draw/lv_draw_rect.c ****                 lv_memcpy(mask_buf, sh_buf_tmp, w);
 2173              		.loc 1 751 13 view .LVU828
 751:Middlewares/lvgl/src/draw/lv_draw_rect.c ****                 lv_memcpy(mask_buf, sh_buf_tmp, w);
 2174              		.loc 1 751 19 is_stmt 0 view .LVU829
 2175 05be 4FF00008 		mov	r8, #0
 2176 05c2 0E97     		str	r7, [sp, #56]
 2177 05c4 0F94     		str	r4, [sp, #60]
 2178 05c6 069C     		ldr	r4, [sp, #24]
 2179              	.LVL207:
 751:Middlewares/lvgl/src/draw/lv_draw_rect.c ****                 lv_memcpy(mask_buf, sh_buf_tmp, w);
 2180              		.loc 1 751 19 view .LVU830
 2181 05c8 049F     		ldr	r7, [sp, #16]
 751:Middlewares/lvgl/src/draw/lv_draw_rect.c ****                 lv_memcpy(mask_buf, sh_buf_tmp, w);
 2182              		.loc 1 751 13 view .LVU831
 2183 05ca 21E0     		b	.L99
 2184              	.LVL208:
 2185              	.L174:
 758:Middlewares/lvgl/src/draw/lv_draw_rect.c ****                     if(mask_res == LV_DRAW_MASK_RES_FULL_COVER) mask_res = LV_DRAW_MASK_RES_CHANGED
 2186              		.loc 1 758 21 is_stmt 1 view .LVU832
 758:Middlewares/lvgl/src/draw/lv_draw_rect.c ****                     if(mask_res == LV_DRAW_MASK_RES_FULL_COVER) mask_res = LV_DRAW_MASK_RES_CHANGED
 2187              		.loc 1 758 32 is_stmt 0 view .LVU833
 2188 05cc 4B46     		mov	r3, r9
 2189 05ce BDF94620 		ldrsh	r2, [sp, #70]
 2190 05d2 BDF94410 		ldrsh	r1, [sp, #68]
 2191 05d6 3046     		mov	r0, r6
 2192 05d8 FFF7FEFF 		bl	lv_draw_mask_apply
 2193              	.LVL209:
 759:Middlewares/lvgl/src/draw/lv_draw_rect.c ****                 }
 2194              		.loc 1 759 21 is_stmt 1 view .LVU834
 759:Middlewares/lvgl/src/draw/lv_draw_rect.c ****                 }
 2195              		.loc 1 759 23 is_stmt 0 view .LVU835
 2196 05dc 0128     		cmp	r0, #1
 2197 05de 22D0     		beq	.L172
 2198              	.LVL210:
 2199              	.L100:
 762:Middlewares/lvgl/src/draw/lv_draw_rect.c ****                                dsc->shadow_color, mask_buf, mask_res, dsc->shadow_opa, dsc->blend_m
 2200              		.loc 1 762 17 is_stmt 1 discriminator 2 view .LVU836
 2201 05e0 AB78     		ldrb	r3, [r5, #2]	@ zero_extendqisi2
 2202 05e2 0293     		str	r3, [sp, #8]
 2203 05e4 95F83230 		ldrb	r3, [r5, #50]	@ zero_extendqisi2
 2204 05e8 0193     		str	r3, [sp, #4]
 2205 05ea 0090     		str	r0, [sp]
 2206 05ec 3346     		mov	r3, r6
 2207 05ee 2A8D     		ldrh	r2, [r5, #40]
 2208 05f0 11A9     		add	r1, sp, #68
 2209 05f2 3846     		mov	r0, r7
ARM GAS  /tmp/ccUpPomB.s 			page 75


 2210              	.LVL211:
 762:Middlewares/lvgl/src/draw/lv_draw_rect.c ****                                dsc->shadow_color, mask_buf, mask_res, dsc->shadow_opa, dsc->blend_m
 2211              		.loc 1 762 17 is_stmt 0 discriminator 2 view .LVU837
 2212 05f4 FFF7FEFF 		bl	_lv_blend_fill
 2213              	.LVL212:
 764:Middlewares/lvgl/src/draw/lv_draw_rect.c ****                 fa.y2++;
 2214              		.loc 1 764 17 is_stmt 1 discriminator 2 view .LVU838
 764:Middlewares/lvgl/src/draw/lv_draw_rect.c ****                 fa.y2++;
 2215              		.loc 1 764 19 is_stmt 0 discriminator 2 view .LVU839
 2216 05f8 BDF94630 		ldrsh	r3, [sp, #70]
 764:Middlewares/lvgl/src/draw/lv_draw_rect.c ****                 fa.y2++;
 2217              		.loc 1 764 22 discriminator 2 view .LVU840
 2218 05fc 0133     		adds	r3, r3, #1
 2219 05fe ADF84630 		strh	r3, [sp, #70]	@ movhi
 765:Middlewares/lvgl/src/draw/lv_draw_rect.c ****             }
 2220              		.loc 1 765 17 is_stmt 1 discriminator 2 view .LVU841
 765:Middlewares/lvgl/src/draw/lv_draw_rect.c ****             }
 2221              		.loc 1 765 19 is_stmt 0 discriminator 2 view .LVU842
 2222 0602 BDF94A30 		ldrsh	r3, [sp, #74]
 765:Middlewares/lvgl/src/draw/lv_draw_rect.c ****             }
 2223              		.loc 1 765 22 discriminator 2 view .LVU843
 2224 0606 0133     		adds	r3, r3, #1
 2225 0608 ADF84A30 		strh	r3, [sp, #74]	@ movhi
 751:Middlewares/lvgl/src/draw/lv_draw_rect.c ****                 lv_memcpy(mask_buf, sh_buf_tmp, w);
 2226              		.loc 1 751 31 is_stmt 1 discriminator 2 view .LVU844
 751:Middlewares/lvgl/src/draw/lv_draw_rect.c ****                 lv_memcpy(mask_buf, sh_buf_tmp, w);
 2227              		.loc 1 751 32 is_stmt 0 discriminator 2 view .LVU845
 2228 060c 08F10108 		add	r8, r8, #1
 2229              	.LVL213:
 2230              	.L99:
 751:Middlewares/lvgl/src/draw/lv_draw_rect.c ****                 lv_memcpy(mask_buf, sh_buf_tmp, w);
 2231              		.loc 1 751 24 is_stmt 1 discriminator 1 view .LVU846
 751:Middlewares/lvgl/src/draw/lv_draw_rect.c ****                 lv_memcpy(mask_buf, sh_buf_tmp, w);
 2232              		.loc 1 751 13 is_stmt 0 discriminator 1 view .LVU847
 2233 0610 C245     		cmp	r10, r8
 2234 0612 0ADD     		ble	.L173
 752:Middlewares/lvgl/src/draw/lv_draw_rect.c **** 
 2235              		.loc 1 752 17 is_stmt 1 view .LVU848
 2236 0614 4A46     		mov	r2, r9
 2237 0616 5946     		mov	r1, fp
 2238 0618 3046     		mov	r0, r6
 2239 061a FFF7FEFF 		bl	lv_memcpy
 2240              	.LVL214:
 754:Middlewares/lvgl/src/draw/lv_draw_rect.c ****                     mask_res = LV_DRAW_MASK_RES_CHANGED;
 2241              		.loc 1 754 17 view .LVU849
 754:Middlewares/lvgl/src/draw/lv_draw_rect.c ****                     mask_res = LV_DRAW_MASK_RES_CHANGED;
 2242              		.loc 1 754 19 is_stmt 0 view .LVU850
 2243 061e 002C     		cmp	r4, #0
 2244 0620 D4D0     		beq	.L174
 755:Middlewares/lvgl/src/draw/lv_draw_rect.c ****                 }
 2245              		.loc 1 755 30 view .LVU851
 2246 0622 0220     		movs	r0, #2
 2247 0624 DCE7     		b	.L100
 2248              	.LVL215:
 2249              	.L172:
 759:Middlewares/lvgl/src/draw/lv_draw_rect.c ****                 }
 2250              		.loc 1 759 74 view .LVU852
ARM GAS  /tmp/ccUpPomB.s 			page 76


 2251 0626 0220     		movs	r0, #2
 2252              	.LVL216:
 759:Middlewares/lvgl/src/draw/lv_draw_rect.c ****                 }
 2253              		.loc 1 759 74 view .LVU853
 2254 0628 DAE7     		b	.L100
 2255              	.L173:
 759:Middlewares/lvgl/src/draw/lv_draw_rect.c ****                 }
 2256              		.loc 1 759 74 view .LVU854
 2257 062a 0E9F     		ldr	r7, [sp, #56]
 2258 062c 0F9C     		ldr	r4, [sp, #60]
 2259 062e 6CE6     		b	.L96
 2260              	.LVL217:
 2261              	.L102:
 759:Middlewares/lvgl/src/draw/lv_draw_rect.c ****                 }
 2262              		.loc 1 759 74 view .LVU855
 2263              	.LBE246:
 2264              	.LBE243:
 2265              	.LBB251:
 774:Middlewares/lvgl/src/draw/lv_draw_rect.c ****             lv_opa_t tmp = sh_buf_tmp[x];
 2266              		.loc 1 774 9 discriminator 1 view .LVU856
 2267 0630 B3EB620F 		cmp	r3, r2, asr #1
 2268 0634 0FDA     		bge	.L175
 2269              	.LBB226:
 775:Middlewares/lvgl/src/draw/lv_draw_rect.c ****             sh_buf_tmp[x] = sh_buf_tmp[corner_size - x - 1];
 2270              		.loc 1 775 13 is_stmt 1 discriminator 3 view .LVU857
 775:Middlewares/lvgl/src/draw/lv_draw_rect.c ****             sh_buf_tmp[x] = sh_buf_tmp[corner_size - x - 1];
 2271              		.loc 1 775 22 is_stmt 0 discriminator 3 view .LVU858
 2272 0636 11F803C0 		ldrb	ip, [r1, r3]	@ zero_extendqisi2
 2273              	.LVL218:
 776:Middlewares/lvgl/src/draw/lv_draw_rect.c ****             sh_buf_tmp[corner_size - x - 1] = tmp;
 2274              		.loc 1 776 13 is_stmt 1 discriminator 3 view .LVU859
 776:Middlewares/lvgl/src/draw/lv_draw_rect.c ****             sh_buf_tmp[corner_size - x - 1] = tmp;
 2275              		.loc 1 776 52 is_stmt 0 discriminator 3 view .LVU860
 2276 063a E21A     		subs	r2, r4, r3
 776:Middlewares/lvgl/src/draw/lv_draw_rect.c ****             sh_buf_tmp[corner_size - x - 1] = tmp;
 2277              		.loc 1 776 39 discriminator 3 view .LVU861
 2278 063c 013A     		subs	r2, r2, #1
 2279 063e 11F802E0 		ldrb	lr, [r1, r2]	@ zero_extendqisi2
 776:Middlewares/lvgl/src/draw/lv_draw_rect.c ****             sh_buf_tmp[corner_size - x - 1] = tmp;
 2280              		.loc 1 776 27 discriminator 3 view .LVU862
 2281 0642 01F803E0 		strb	lr, [r1, r3]
 777:Middlewares/lvgl/src/draw/lv_draw_rect.c ****         }
 2282              		.loc 1 777 13 is_stmt 1 discriminator 3 view .LVU863
 777:Middlewares/lvgl/src/draw/lv_draw_rect.c ****         }
 2283              		.loc 1 777 45 is_stmt 0 discriminator 3 view .LVU864
 2284 0646 01F802C0 		strb	ip, [r1, r2]
 2285              	.LBE226:
 774:Middlewares/lvgl/src/draw/lv_draw_rect.c ****             lv_opa_t tmp = sh_buf_tmp[x];
 2286              		.loc 1 774 41 is_stmt 1 discriminator 3 view .LVU865
 774:Middlewares/lvgl/src/draw/lv_draw_rect.c ****             lv_opa_t tmp = sh_buf_tmp[x];
 2287              		.loc 1 774 42 is_stmt 0 discriminator 3 view .LVU866
 2288 064a 0133     		adds	r3, r3, #1
 2289              	.LVL219:
 2290              	.L105:
 774:Middlewares/lvgl/src/draw/lv_draw_rect.c ****             lv_opa_t tmp = sh_buf_tmp[x];
 2291              		.loc 1 774 20 is_stmt 1 discriminator 1 view .LVU867
 774:Middlewares/lvgl/src/draw/lv_draw_rect.c ****             lv_opa_t tmp = sh_buf_tmp[x];
ARM GAS  /tmp/ccUpPomB.s 			page 77


 2292              		.loc 1 774 36 is_stmt 0 discriminator 1 view .LVU868
 2293 064c 2246     		mov	r2, r4
 2294 064e 002C     		cmp	r4, #0
 2295 0650 EEDA     		bge	.L102
 2296 0652 621C     		adds	r2, r4, #1
 2297 0654 ECE7     		b	.L102
 2298              	.L175:
 779:Middlewares/lvgl/src/draw/lv_draw_rect.c ****     }
 2299              		.loc 1 779 9 is_stmt 1 discriminator 2 view .LVU869
 779:Middlewares/lvgl/src/draw/lv_draw_rect.c ****     }
 2300              		.loc 1 779 20 is_stmt 0 discriminator 2 view .LVU870
 2301 0656 2144     		add	r1, r1, r4
 2302              	.LVL220:
 779:Middlewares/lvgl/src/draw/lv_draw_rect.c ****     }
 2303              		.loc 1 779 20 discriminator 2 view .LVU871
 2304              	.LBE251:
 772:Middlewares/lvgl/src/draw/lv_draw_rect.c ****         int32_t x;
 2305              		.loc 1 772 33 is_stmt 1 discriminator 2 view .LVU872
 772:Middlewares/lvgl/src/draw/lv_draw_rect.c ****         int32_t x;
 2306              		.loc 1 772 34 is_stmt 0 discriminator 2 view .LVU873
 2307 0658 0130     		adds	r0, r0, #1
 2308              	.LVL221:
 2309              	.L104:
 772:Middlewares/lvgl/src/draw/lv_draw_rect.c ****         int32_t x;
 2310              		.loc 1 772 16 is_stmt 1 discriminator 1 view .LVU874
 772:Middlewares/lvgl/src/draw/lv_draw_rect.c ****         int32_t x;
 2311              		.loc 1 772 5 is_stmt 0 discriminator 1 view .LVU875
 2312 065a A042     		cmp	r0, r4
 2313 065c 01DA     		bge	.L176
 2314              	.LBB252:
 774:Middlewares/lvgl/src/draw/lv_draw_rect.c ****             lv_opa_t tmp = sh_buf_tmp[x];
 2315              		.loc 1 774 15 view .LVU876
 2316 065e 0023     		movs	r3, #0
 2317 0660 F4E7     		b	.L105
 2318              	.L176:
 2319              	.LBE252:
 783:Middlewares/lvgl/src/draw/lv_draw_rect.c ****     a.x2 = a.x1 + corner_size - 1;
 2320              		.loc 1 783 5 is_stmt 1 view .LVU877
 783:Middlewares/lvgl/src/draw/lv_draw_rect.c ****     a.x2 = a.x1 + corner_size - 1;
 2321              		.loc 1 783 19 is_stmt 0 view .LVU878
 2322 0662 BDF98830 		ldrsh	r3, [sp, #136]
 783:Middlewares/lvgl/src/draw/lv_draw_rect.c ****     a.x2 = a.x1 + corner_size - 1;
 2323              		.loc 1 783 10 view .LVU879
 2324 0666 ADF85430 		strh	r3, [sp, #84]	@ movhi
 784:Middlewares/lvgl/src/draw/lv_draw_rect.c ****     a.y1 = sh_area.y1;
 2325              		.loc 1 784 5 is_stmt 1 view .LVU880
 784:Middlewares/lvgl/src/draw/lv_draw_rect.c ****     a.y1 = sh_area.y1;
 2326              		.loc 1 784 17 is_stmt 0 view .LVU881
 2327 066a 17FA83F3 		uxtah	r3, r7, r3
 2328 066e 9BB2     		uxth	r3, r3
 784:Middlewares/lvgl/src/draw/lv_draw_rect.c ****     a.y1 = sh_area.y1;
 2329              		.loc 1 784 31 view .LVU882
 2330 0670 013B     		subs	r3, r3, #1
 784:Middlewares/lvgl/src/draw/lv_draw_rect.c ****     a.y1 = sh_area.y1;
 2331              		.loc 1 784 10 view .LVU883
 2332 0672 ADF85830 		strh	r3, [sp, #88]	@ movhi
 785:Middlewares/lvgl/src/draw/lv_draw_rect.c ****     a.y2 = a.y1 + corner_size - 1;
ARM GAS  /tmp/ccUpPomB.s 			page 78


 2333              		.loc 1 785 5 is_stmt 1 view .LVU884
 785:Middlewares/lvgl/src/draw/lv_draw_rect.c ****     a.y2 = a.y1 + corner_size - 1;
 2334              		.loc 1 785 19 is_stmt 0 view .LVU885
 2335 0676 BDF98A30 		ldrsh	r3, [sp, #138]
 785:Middlewares/lvgl/src/draw/lv_draw_rect.c ****     a.y2 = a.y1 + corner_size - 1;
 2336              		.loc 1 785 10 view .LVU886
 2337 067a ADF85630 		strh	r3, [sp, #86]	@ movhi
 786:Middlewares/lvgl/src/draw/lv_draw_rect.c **** 
 2338              		.loc 1 786 5 is_stmt 1 view .LVU887
 786:Middlewares/lvgl/src/draw/lv_draw_rect.c **** 
 2339              		.loc 1 786 17 is_stmt 0 view .LVU888
 2340 067e 17FA83F3 		uxtah	r3, r7, r3
 2341 0682 9BB2     		uxth	r3, r3
 786:Middlewares/lvgl/src/draw/lv_draw_rect.c **** 
 2342              		.loc 1 786 31 view .LVU889
 2343 0684 013B     		subs	r3, r3, #1
 786:Middlewares/lvgl/src/draw/lv_draw_rect.c **** 
 2344              		.loc 1 786 10 view .LVU890
 2345 0686 ADF85A30 		strh	r3, [sp, #90]	@ movhi
 788:Middlewares/lvgl/src/draw/lv_draw_rect.c ****     if(has_com && _lv_area_is_in(&a, &bg_coords, r_bg) == false) {
 2346              		.loc 1 788 5 is_stmt 1 view .LVU891
 788:Middlewares/lvgl/src/draw/lv_draw_rect.c ****     if(has_com && _lv_area_is_in(&a, &bg_coords, r_bg) == false) {
 2347              		.loc 1 788 15 is_stmt 0 view .LVU892
 2348 068a 049A     		ldr	r2, [sp, #16]
 2349 068c 15A9     		add	r1, sp, #84
 2350              	.LVL222:
 788:Middlewares/lvgl/src/draw/lv_draw_rect.c ****     if(has_com && _lv_area_is_in(&a, &bg_coords, r_bg) == false) {
 2351              		.loc 1 788 15 view .LVU893
 2352 068e 13A8     		add	r0, sp, #76
 2353              	.LVL223:
 788:Middlewares/lvgl/src/draw/lv_draw_rect.c ****     if(has_com && _lv_area_is_in(&a, &bg_coords, r_bg) == false) {
 2354              		.loc 1 788 15 view .LVU894
 2355 0690 FFF7FEFF 		bl	_lv_area_intersect
 2356              	.LVL224:
 789:Middlewares/lvgl/src/draw/lv_draw_rect.c ****         /*Avoid overlap in the middle with large radius*/
 2357              		.loc 1 789 5 is_stmt 1 view .LVU895
 789:Middlewares/lvgl/src/draw/lv_draw_rect.c ****         /*Avoid overlap in the middle with large radius*/
 2358              		.loc 1 789 7 is_stmt 0 view .LVU896
 2359 0694 0028     		cmp	r0, #0
 2360 0696 40F09C80 		bne	.L177
 2361              	.LVL225:
 2362              	.L106:
 819:Middlewares/lvgl/src/draw/lv_draw_rect.c ****     a.x2 = a.x1 + corner_size - 1;
 2363              		.loc 1 819 5 is_stmt 1 view .LVU897
 819:Middlewares/lvgl/src/draw/lv_draw_rect.c ****     a.x2 = a.x1 + corner_size - 1;
 2364              		.loc 1 819 19 is_stmt 0 view .LVU898
 2365 069a BDF98830 		ldrsh	r3, [sp, #136]
 819:Middlewares/lvgl/src/draw/lv_draw_rect.c ****     a.x2 = a.x1 + corner_size - 1;
 2366              		.loc 1 819 10 view .LVU899
 2367 069e ADF85430 		strh	r3, [sp, #84]	@ movhi
 820:Middlewares/lvgl/src/draw/lv_draw_rect.c ****     a.y1 = sh_area.y2 - corner_size + 1;
 2368              		.loc 1 820 5 is_stmt 1 view .LVU900
 820:Middlewares/lvgl/src/draw/lv_draw_rect.c ****     a.y1 = sh_area.y2 - corner_size + 1;
 2369              		.loc 1 820 17 is_stmt 0 view .LVU901
 2370 06a2 17FA83F3 		uxtah	r3, r7, r3
 2371 06a6 9BB2     		uxth	r3, r3
 820:Middlewares/lvgl/src/draw/lv_draw_rect.c ****     a.y1 = sh_area.y2 - corner_size + 1;
ARM GAS  /tmp/ccUpPomB.s 			page 79


 2372              		.loc 1 820 31 view .LVU902
 2373 06a8 013B     		subs	r3, r3, #1
 820:Middlewares/lvgl/src/draw/lv_draw_rect.c ****     a.y1 = sh_area.y2 - corner_size + 1;
 2374              		.loc 1 820 10 view .LVU903
 2375 06aa ADF85830 		strh	r3, [sp, #88]	@ movhi
 821:Middlewares/lvgl/src/draw/lv_draw_rect.c ****     a.y2 = sh_area.y2;
 2376              		.loc 1 821 5 is_stmt 1 view .LVU904
 821:Middlewares/lvgl/src/draw/lv_draw_rect.c ****     a.y2 = sh_area.y2;
 2377              		.loc 1 821 19 is_stmt 0 view .LVU905
 2378 06ae BDF98E20 		ldrsh	r2, [sp, #142]
 2379 06b2 93B2     		uxth	r3, r2
 821:Middlewares/lvgl/src/draw/lv_draw_rect.c ****     a.y2 = sh_area.y2;
 2380              		.loc 1 821 23 view .LVU906
 2381 06b4 DB1B     		subs	r3, r3, r7
 2382 06b6 9BB2     		uxth	r3, r3
 821:Middlewares/lvgl/src/draw/lv_draw_rect.c ****     a.y2 = sh_area.y2;
 2383              		.loc 1 821 37 view .LVU907
 2384 06b8 0133     		adds	r3, r3, #1
 821:Middlewares/lvgl/src/draw/lv_draw_rect.c ****     a.y2 = sh_area.y2;
 2385              		.loc 1 821 10 view .LVU908
 2386 06ba ADF85630 		strh	r3, [sp, #86]	@ movhi
 822:Middlewares/lvgl/src/draw/lv_draw_rect.c **** 
 2387              		.loc 1 822 5 is_stmt 1 view .LVU909
 822:Middlewares/lvgl/src/draw/lv_draw_rect.c **** 
 2388              		.loc 1 822 10 is_stmt 0 view .LVU910
 2389 06be ADF85A20 		strh	r2, [sp, #90]	@ movhi
 824:Middlewares/lvgl/src/draw/lv_draw_rect.c ****     if(has_com && _lv_area_is_in(&a, &bg_coords, r_bg) == false) {
 2390              		.loc 1 824 5 is_stmt 1 view .LVU911
 824:Middlewares/lvgl/src/draw/lv_draw_rect.c ****     if(has_com && _lv_area_is_in(&a, &bg_coords, r_bg) == false) {
 2391              		.loc 1 824 15 is_stmt 0 view .LVU912
 2392 06c2 049A     		ldr	r2, [sp, #16]
 2393 06c4 15A9     		add	r1, sp, #84
 2394 06c6 13A8     		add	r0, sp, #76
 2395 06c8 FFF7FEFF 		bl	_lv_area_intersect
 2396              	.LVL226:
 825:Middlewares/lvgl/src/draw/lv_draw_rect.c ****         /*Avoid overlap in the middle with large radius*/
 2397              		.loc 1 825 5 is_stmt 1 view .LVU913
 825:Middlewares/lvgl/src/draw/lv_draw_rect.c ****         /*Avoid overlap in the middle with large radius*/
 2398              		.loc 1 825 7 is_stmt 0 view .LVU914
 2399 06cc 0028     		cmp	r0, #0
 2400 06ce 40F00081 		bne	.L178
 2401              	.LVL227:
 2402              	.L112:
 855:Middlewares/lvgl/src/draw/lv_draw_rect.c ****     a.x2 = a.x1 + corner_size - 1;
 2403              		.loc 1 855 5 is_stmt 1 view .LVU915
 855:Middlewares/lvgl/src/draw/lv_draw_rect.c ****     a.x2 = a.x1 + corner_size - 1;
 2404              		.loc 1 855 19 is_stmt 0 view .LVU916
 2405 06d2 BDF98830 		ldrsh	r3, [sp, #136]
 855:Middlewares/lvgl/src/draw/lv_draw_rect.c ****     a.x2 = a.x1 + corner_size - 1;
 2406              		.loc 1 855 10 view .LVU917
 2407 06d6 ADF85430 		strh	r3, [sp, #84]	@ movhi
 856:Middlewares/lvgl/src/draw/lv_draw_rect.c ****     a.y1 = sh_area.y1 + corner_size;
 2408              		.loc 1 856 5 is_stmt 1 view .LVU918
 856:Middlewares/lvgl/src/draw/lv_draw_rect.c ****     a.y1 = sh_area.y1 + corner_size;
 2409              		.loc 1 856 17 is_stmt 0 view .LVU919
 2410 06da 17FA83F3 		uxtah	r3, r7, r3
 2411 06de 9BB2     		uxth	r3, r3
ARM GAS  /tmp/ccUpPomB.s 			page 80


 856:Middlewares/lvgl/src/draw/lv_draw_rect.c ****     a.y1 = sh_area.y1 + corner_size;
 2412              		.loc 1 856 31 view .LVU920
 2413 06e0 013B     		subs	r3, r3, #1
 856:Middlewares/lvgl/src/draw/lv_draw_rect.c ****     a.y1 = sh_area.y1 + corner_size;
 2414              		.loc 1 856 10 view .LVU921
 2415 06e2 ADF85830 		strh	r3, [sp, #88]	@ movhi
 857:Middlewares/lvgl/src/draw/lv_draw_rect.c ****     a.y2 = sh_area.y2 - corner_size;
 2416              		.loc 1 857 5 is_stmt 1 view .LVU922
 857:Middlewares/lvgl/src/draw/lv_draw_rect.c ****     a.y2 = sh_area.y2 - corner_size;
 2417              		.loc 1 857 19 is_stmt 0 view .LVU923
 2418 06e6 BDF88A30 		ldrh	r3, [sp, #138]
 857:Middlewares/lvgl/src/draw/lv_draw_rect.c ****     a.y2 = sh_area.y2 - corner_size;
 2419              		.loc 1 857 23 view .LVU924
 2420 06ea 3B44     		add	r3, r3, r7
 857:Middlewares/lvgl/src/draw/lv_draw_rect.c ****     a.y2 = sh_area.y2 - corner_size;
 2421              		.loc 1 857 10 view .LVU925
 2422 06ec ADF85630 		strh	r3, [sp, #86]	@ movhi
 858:Middlewares/lvgl/src/draw/lv_draw_rect.c **** 
 2423              		.loc 1 858 5 is_stmt 1 view .LVU926
 858:Middlewares/lvgl/src/draw/lv_draw_rect.c **** 
 2424              		.loc 1 858 19 is_stmt 0 view .LVU927
 2425 06f0 BDF88E30 		ldrh	r3, [sp, #142]
 858:Middlewares/lvgl/src/draw/lv_draw_rect.c **** 
 2426              		.loc 1 858 23 view .LVU928
 2427 06f4 DB1B     		subs	r3, r3, r7
 858:Middlewares/lvgl/src/draw/lv_draw_rect.c **** 
 2428              		.loc 1 858 10 view .LVU929
 2429 06f6 ADF85A30 		strh	r3, [sp, #90]	@ movhi
 860:Middlewares/lvgl/src/draw/lv_draw_rect.c ****     if(has_com && _lv_area_is_in(&a, &bg_coords, r_bg) == false) {
 2430              		.loc 1 860 5 is_stmt 1 view .LVU930
 860:Middlewares/lvgl/src/draw/lv_draw_rect.c ****     if(has_com && _lv_area_is_in(&a, &bg_coords, r_bg) == false) {
 2431              		.loc 1 860 15 is_stmt 0 view .LVU931
 2432 06fa 049A     		ldr	r2, [sp, #16]
 2433 06fc 15A9     		add	r1, sp, #84
 2434 06fe 13A8     		add	r0, sp, #76
 2435 0700 FFF7FEFF 		bl	_lv_area_intersect
 2436              	.LVL228:
 861:Middlewares/lvgl/src/draw/lv_draw_rect.c ****         /*Avoid overlap in the middle with large radius*/
 2437              		.loc 1 861 5 is_stmt 1 view .LVU932
 861:Middlewares/lvgl/src/draw/lv_draw_rect.c ****         /*Avoid overlap in the middle with large radius*/
 2438              		.loc 1 861 7 is_stmt 0 view .LVU933
 2439 0704 0028     		cmp	r0, #0
 2440 0706 40F06681 		bne	.L179
 2441              	.LVL229:
 2442              	.L118:
 896:Middlewares/lvgl/src/draw/lv_draw_rect.c ****     a.x2 = sh_area.x2 - corner_size;
 2443              		.loc 1 896 5 is_stmt 1 view .LVU934
 896:Middlewares/lvgl/src/draw/lv_draw_rect.c ****     a.x2 = sh_area.x2 - corner_size;
 2444              		.loc 1 896 19 is_stmt 0 view .LVU935
 2445 070a BDF88830 		ldrh	r3, [sp, #136]
 896:Middlewares/lvgl/src/draw/lv_draw_rect.c ****     a.x2 = sh_area.x2 - corner_size;
 2446              		.loc 1 896 23 view .LVU936
 2447 070e 3B44     		add	r3, r3, r7
 896:Middlewares/lvgl/src/draw/lv_draw_rect.c ****     a.x2 = sh_area.x2 - corner_size;
 2448              		.loc 1 896 10 view .LVU937
 2449 0710 ADF85430 		strh	r3, [sp, #84]	@ movhi
 897:Middlewares/lvgl/src/draw/lv_draw_rect.c ****     a.y1 = sh_area.y1;
ARM GAS  /tmp/ccUpPomB.s 			page 81


 2450              		.loc 1 897 5 is_stmt 1 view .LVU938
 897:Middlewares/lvgl/src/draw/lv_draw_rect.c ****     a.y1 = sh_area.y1;
 2451              		.loc 1 897 19 is_stmt 0 view .LVU939
 2452 0714 BDF88C30 		ldrh	r3, [sp, #140]
 897:Middlewares/lvgl/src/draw/lv_draw_rect.c ****     a.y1 = sh_area.y1;
 2453              		.loc 1 897 23 view .LVU940
 2454 0718 DB1B     		subs	r3, r3, r7
 897:Middlewares/lvgl/src/draw/lv_draw_rect.c ****     a.y1 = sh_area.y1;
 2455              		.loc 1 897 10 view .LVU941
 2456 071a ADF85830 		strh	r3, [sp, #88]	@ movhi
 898:Middlewares/lvgl/src/draw/lv_draw_rect.c ****     a.y2 = sh_area.y1 + corner_size - 1;
 2457              		.loc 1 898 5 is_stmt 1 view .LVU942
 898:Middlewares/lvgl/src/draw/lv_draw_rect.c ****     a.y2 = sh_area.y1 + corner_size - 1;
 2458              		.loc 1 898 19 is_stmt 0 view .LVU943
 2459 071e BDF98A30 		ldrsh	r3, [sp, #138]
 898:Middlewares/lvgl/src/draw/lv_draw_rect.c ****     a.y2 = sh_area.y1 + corner_size - 1;
 2460              		.loc 1 898 10 view .LVU944
 2461 0722 ADF85630 		strh	r3, [sp, #86]	@ movhi
 899:Middlewares/lvgl/src/draw/lv_draw_rect.c **** 
 2462              		.loc 1 899 5 is_stmt 1 view .LVU945
 899:Middlewares/lvgl/src/draw/lv_draw_rect.c **** 
 2463              		.loc 1 899 23 is_stmt 0 view .LVU946
 2464 0726 17FA83F3 		uxtah	r3, r7, r3
 2465 072a 9BB2     		uxth	r3, r3
 899:Middlewares/lvgl/src/draw/lv_draw_rect.c **** 
 2466              		.loc 1 899 37 view .LVU947
 2467 072c 013B     		subs	r3, r3, #1
 899:Middlewares/lvgl/src/draw/lv_draw_rect.c **** 
 2468              		.loc 1 899 10 view .LVU948
 2469 072e ADF85A30 		strh	r3, [sp, #90]	@ movhi
 901:Middlewares/lvgl/src/draw/lv_draw_rect.c ****     if(has_com && _lv_area_is_in(&a, &bg_coords, r_bg) == false) {
 2470              		.loc 1 901 5 is_stmt 1 view .LVU949
 901:Middlewares/lvgl/src/draw/lv_draw_rect.c ****     if(has_com && _lv_area_is_in(&a, &bg_coords, r_bg) == false) {
 2471              		.loc 1 901 15 is_stmt 0 view .LVU950
 2472 0732 049A     		ldr	r2, [sp, #16]
 2473 0734 15A9     		add	r1, sp, #84
 2474 0736 13A8     		add	r0, sp, #76
 2475 0738 FFF7FEFF 		bl	_lv_area_intersect
 2476              	.LVL230:
 902:Middlewares/lvgl/src/draw/lv_draw_rect.c ****         /*Avoid overlap in the middle with large radius*/
 2477              		.loc 1 902 5 is_stmt 1 view .LVU951
 902:Middlewares/lvgl/src/draw/lv_draw_rect.c ****         /*Avoid overlap in the middle with large radius*/
 2478              		.loc 1 902 7 is_stmt 0 view .LVU952
 2479 073c 0028     		cmp	r0, #0
 2480 073e 40F0D581 		bne	.L180
 2481              	.LVL231:
 2482              	.L124:
 941:Middlewares/lvgl/src/draw/lv_draw_rect.c ****     a.x2 = sh_area.x2 - corner_size;
 2483              		.loc 1 941 5 is_stmt 1 view .LVU953
 941:Middlewares/lvgl/src/draw/lv_draw_rect.c ****     a.x2 = sh_area.x2 - corner_size;
 2484              		.loc 1 941 19 is_stmt 0 view .LVU954
 2485 0742 BDF88830 		ldrh	r3, [sp, #136]
 941:Middlewares/lvgl/src/draw/lv_draw_rect.c ****     a.x2 = sh_area.x2 - corner_size;
 2486              		.loc 1 941 23 view .LVU955
 2487 0746 3B44     		add	r3, r3, r7
 941:Middlewares/lvgl/src/draw/lv_draw_rect.c ****     a.x2 = sh_area.x2 - corner_size;
 2488              		.loc 1 941 10 view .LVU956
ARM GAS  /tmp/ccUpPomB.s 			page 82


 2489 0748 ADF85430 		strh	r3, [sp, #84]	@ movhi
 942:Middlewares/lvgl/src/draw/lv_draw_rect.c ****     a.y1 = sh_area.y2 - corner_size + 1;
 2490              		.loc 1 942 5 is_stmt 1 view .LVU957
 942:Middlewares/lvgl/src/draw/lv_draw_rect.c ****     a.y1 = sh_area.y2 - corner_size + 1;
 2491              		.loc 1 942 19 is_stmt 0 view .LVU958
 2492 074c BDF88C30 		ldrh	r3, [sp, #140]
 942:Middlewares/lvgl/src/draw/lv_draw_rect.c ****     a.y1 = sh_area.y2 - corner_size + 1;
 2493              		.loc 1 942 23 view .LVU959
 2494 0750 DB1B     		subs	r3, r3, r7
 942:Middlewares/lvgl/src/draw/lv_draw_rect.c ****     a.y1 = sh_area.y2 - corner_size + 1;
 2495              		.loc 1 942 10 view .LVU960
 2496 0752 ADF85830 		strh	r3, [sp, #88]	@ movhi
 943:Middlewares/lvgl/src/draw/lv_draw_rect.c ****     a.y2 = sh_area.y2;
 2497              		.loc 1 943 5 is_stmt 1 view .LVU961
 943:Middlewares/lvgl/src/draw/lv_draw_rect.c ****     a.y2 = sh_area.y2;
 2498              		.loc 1 943 19 is_stmt 0 view .LVU962
 2499 0756 BDF98E20 		ldrsh	r2, [sp, #142]
 2500 075a 93B2     		uxth	r3, r2
 943:Middlewares/lvgl/src/draw/lv_draw_rect.c ****     a.y2 = sh_area.y2;
 2501              		.loc 1 943 23 view .LVU963
 2502 075c DB1B     		subs	r3, r3, r7
 2503 075e 9BB2     		uxth	r3, r3
 943:Middlewares/lvgl/src/draw/lv_draw_rect.c ****     a.y2 = sh_area.y2;
 2504              		.loc 1 943 37 view .LVU964
 2505 0760 0133     		adds	r3, r3, #1
 943:Middlewares/lvgl/src/draw/lv_draw_rect.c ****     a.y2 = sh_area.y2;
 2506              		.loc 1 943 10 view .LVU965
 2507 0762 ADF85630 		strh	r3, [sp, #86]	@ movhi
 944:Middlewares/lvgl/src/draw/lv_draw_rect.c **** 
 2508              		.loc 1 944 5 is_stmt 1 view .LVU966
 944:Middlewares/lvgl/src/draw/lv_draw_rect.c **** 
 2509              		.loc 1 944 10 is_stmt 0 view .LVU967
 2510 0766 ADF85A20 		strh	r2, [sp, #90]	@ movhi
 946:Middlewares/lvgl/src/draw/lv_draw_rect.c ****     if(has_com && _lv_area_is_in(&a, &bg_coords, r_bg) == false) {
 2511              		.loc 1 946 5 is_stmt 1 view .LVU968
 946:Middlewares/lvgl/src/draw/lv_draw_rect.c ****     if(has_com && _lv_area_is_in(&a, &bg_coords, r_bg) == false) {
 2512              		.loc 1 946 15 is_stmt 0 view .LVU969
 2513 076a 049A     		ldr	r2, [sp, #16]
 2514 076c 15A9     		add	r1, sp, #84
 2515 076e 13A8     		add	r0, sp, #76
 2516 0770 FFF7FEFF 		bl	_lv_area_intersect
 2517              	.LVL232:
 947:Middlewares/lvgl/src/draw/lv_draw_rect.c ****         /*Avoid overlap in the middle with large radius*/
 2518              		.loc 1 947 5 is_stmt 1 view .LVU970
 947:Middlewares/lvgl/src/draw/lv_draw_rect.c ****         /*Avoid overlap in the middle with large radius*/
 2519              		.loc 1 947 7 is_stmt 0 view .LVU971
 2520 0774 0028     		cmp	r0, #0
 2521 0776 40F04682 		bne	.L181
 2522              	.LVL233:
 2523              	.L131:
 984:Middlewares/lvgl/src/draw/lv_draw_rect.c ****     a.x2 = sh_area.x2 - corner_size;
 2524              		.loc 1 984 5 is_stmt 1 view .LVU972
 984:Middlewares/lvgl/src/draw/lv_draw_rect.c ****     a.x2 = sh_area.x2 - corner_size;
 2525              		.loc 1 984 19 is_stmt 0 view .LVU973
 2526 077a BDF88830 		ldrh	r3, [sp, #136]
 984:Middlewares/lvgl/src/draw/lv_draw_rect.c ****     a.x2 = sh_area.x2 - corner_size;
 2527              		.loc 1 984 23 view .LVU974
ARM GAS  /tmp/ccUpPomB.s 			page 83


 2528 077e 3B44     		add	r3, r3, r7
 984:Middlewares/lvgl/src/draw/lv_draw_rect.c ****     a.x2 = sh_area.x2 - corner_size;
 2529              		.loc 1 984 10 view .LVU975
 2530 0780 ADF85430 		strh	r3, [sp, #84]	@ movhi
 985:Middlewares/lvgl/src/draw/lv_draw_rect.c ****     a.y1 = sh_area.y1 + corner_size;
 2531              		.loc 1 985 5 is_stmt 1 view .LVU976
 985:Middlewares/lvgl/src/draw/lv_draw_rect.c ****     a.y1 = sh_area.y1 + corner_size;
 2532              		.loc 1 985 19 is_stmt 0 view .LVU977
 2533 0784 BDF88C30 		ldrh	r3, [sp, #140]
 985:Middlewares/lvgl/src/draw/lv_draw_rect.c ****     a.y1 = sh_area.y1 + corner_size;
 2534              		.loc 1 985 23 view .LVU978
 2535 0788 DB1B     		subs	r3, r3, r7
 985:Middlewares/lvgl/src/draw/lv_draw_rect.c ****     a.y1 = sh_area.y1 + corner_size;
 2536              		.loc 1 985 10 view .LVU979
 2537 078a ADF85830 		strh	r3, [sp, #88]	@ movhi
 986:Middlewares/lvgl/src/draw/lv_draw_rect.c ****     a.y2 = sh_area.y2 - corner_size;
 2538              		.loc 1 986 5 is_stmt 1 view .LVU980
 986:Middlewares/lvgl/src/draw/lv_draw_rect.c ****     a.y2 = sh_area.y2 - corner_size;
 2539              		.loc 1 986 19 is_stmt 0 view .LVU981
 2540 078e BDF88A30 		ldrh	r3, [sp, #138]
 986:Middlewares/lvgl/src/draw/lv_draw_rect.c ****     a.y2 = sh_area.y2 - corner_size;
 2541              		.loc 1 986 23 view .LVU982
 2542 0792 3B44     		add	r3, r3, r7
 986:Middlewares/lvgl/src/draw/lv_draw_rect.c ****     a.y2 = sh_area.y2 - corner_size;
 2543              		.loc 1 986 10 view .LVU983
 2544 0794 ADF85630 		strh	r3, [sp, #86]	@ movhi
 987:Middlewares/lvgl/src/draw/lv_draw_rect.c **** 
 2545              		.loc 1 987 5 is_stmt 1 view .LVU984
 987:Middlewares/lvgl/src/draw/lv_draw_rect.c **** 
 2546              		.loc 1 987 19 is_stmt 0 view .LVU985
 2547 0798 BDF88E30 		ldrh	r3, [sp, #142]
 987:Middlewares/lvgl/src/draw/lv_draw_rect.c **** 
 2548              		.loc 1 987 23 view .LVU986
 2549 079c DF1B     		subs	r7, r3, r7
 987:Middlewares/lvgl/src/draw/lv_draw_rect.c **** 
 2550              		.loc 1 987 10 view .LVU987
 2551 079e ADF85A70 		strh	r7, [sp, #90]	@ movhi
 989:Middlewares/lvgl/src/draw/lv_draw_rect.c ****     if(has_com && simple_mode == false &&  _lv_area_is_in(&a, &bg_coords, r_bg) == false) {
 2552              		.loc 1 989 5 is_stmt 1 view .LVU988
 989:Middlewares/lvgl/src/draw/lv_draw_rect.c ****     if(has_com && simple_mode == false &&  _lv_area_is_in(&a, &bg_coords, r_bg) == false) {
 2553              		.loc 1 989 15 is_stmt 0 view .LVU989
 2554 07a2 049A     		ldr	r2, [sp, #16]
 2555 07a4 15A9     		add	r1, sp, #84
 2556 07a6 13A8     		add	r0, sp, #76
 2557 07a8 FFF7FEFF 		bl	_lv_area_intersect
 2558              	.LVL234:
 990:Middlewares/lvgl/src/draw/lv_draw_rect.c ****         /*Draw horizontal lines*/
 2559              		.loc 1 990 5 is_stmt 1 view .LVU990
 990:Middlewares/lvgl/src/draw/lv_draw_rect.c ****         /*Draw horizontal lines*/
 2560              		.loc 1 990 31 is_stmt 0 view .LVU991
 2561 07ac 069B     		ldr	r3, [sp, #24]
 2562 07ae 83F00103 		eor	r3, r3, #1
 2563 07b2 DBB2     		uxtb	r3, r3
 990:Middlewares/lvgl/src/draw/lv_draw_rect.c ****         /*Draw horizontal lines*/
 2564              		.loc 1 990 7 view .LVU992
 2565 07b4 0342     		tst	r3, r0
 2566 07b6 40F0B582 		bne	.L182
ARM GAS  /tmp/ccUpPomB.s 			page 84


 2567              	.LVL235:
 2568              	.L138:
1010:Middlewares/lvgl/src/draw/lv_draw_rect.c ****     lv_mem_buf_release(mask_buf);
 2569              		.loc 1 1010 5 is_stmt 1 discriminator 1 view .LVU993
 2570 07ba 0A98     		ldr	r0, [sp, #40]
 2571 07bc FFF7FEFF 		bl	lv_draw_mask_remove_id
 2572              	.LVL236:
1011:Middlewares/lvgl/src/draw/lv_draw_rect.c ****     lv_mem_buf_release(sh_buf);
 2573              		.loc 1 1011 5 discriminator 1 view .LVU994
 2574 07c0 3046     		mov	r0, r6
 2575 07c2 FFF7FEFF 		bl	lv_mem_buf_release
 2576              	.LVL237:
1012:Middlewares/lvgl/src/draw/lv_draw_rect.c **** }
 2577              		.loc 1 1012 5 discriminator 1 view .LVU995
 2578 07c6 0998     		ldr	r0, [sp, #36]
 2579 07c8 FFF7FEFF 		bl	lv_mem_buf_release
 2580              	.LVL238:
 2581              	.L69:
1013:Middlewares/lvgl/src/draw/lv_draw_rect.c **** 
 2582              		.loc 1 1013 1 is_stmt 0 view .LVU996
 2583 07cc 27B0     		add	sp, sp, #156
 2584              	.LCFI8:
 2585              		.cfi_remember_state
 2586              		.cfi_def_cfa_offset 36
 2587              		@ sp needed
 2588 07ce BDE8F08F 		pop	{r4, r5, r6, r7, r8, r9, r10, fp, pc}
 2589              	.LVL239:
 2590              	.L177:
 2591              	.LCFI9:
 2592              		.cfi_restore_state
 789:Middlewares/lvgl/src/draw/lv_draw_rect.c ****         /*Avoid overlap in the middle with large radius*/
 2593              		.loc 1 789 19 discriminator 1 view .LVU997
 2594 07d2 089A     		ldr	r2, [sp, #32]
 2595 07d4 1EA9     		add	r1, sp, #120
 2596 07d6 15A8     		add	r0, sp, #84
 2597              	.LVL240:
 789:Middlewares/lvgl/src/draw/lv_draw_rect.c ****         /*Avoid overlap in the middle with large radius*/
 2598              		.loc 1 789 19 discriminator 1 view .LVU998
 2599 07d8 FFF7FEFF 		bl	_lv_area_is_in
 2600              	.LVL241:
 789:Middlewares/lvgl/src/draw/lv_draw_rect.c ****         /*Avoid overlap in the middle with large radius*/
 2601              		.loc 1 789 16 discriminator 1 view .LVU999
 2602 07dc 0028     		cmp	r0, #0
 2603 07de 7FF45CAF 		bne	.L106
 2604              	.LBB253:
 791:Middlewares/lvgl/src/draw/lv_draw_rect.c ****         if(ca.x2 > w_half) ca.x2 = w_half;
 2605              		.loc 1 791 9 is_stmt 1 view .LVU1000
 791:Middlewares/lvgl/src/draw/lv_draw_rect.c ****         if(ca.x2 > w_half) ca.x2 = w_half;
 2606              		.loc 1 791 14 is_stmt 0 view .LVU1001
 2607 07e2 BDF95230 		ldrsh	r3, [sp, #82]
 791:Middlewares/lvgl/src/draw/lv_draw_rect.c ****         if(ca.x2 > w_half) ca.x2 = w_half;
 2608              		.loc 1 791 11 view .LVU1002
 2609 07e6 0B9A     		ldr	r2, [sp, #44]
 2610 07e8 9342     		cmp	r3, r2
 2611 07ea 01DD     		ble	.L107
 791:Middlewares/lvgl/src/draw/lv_draw_rect.c ****         if(ca.x2 > w_half) ca.x2 = w_half;
 2612              		.loc 1 791 28 is_stmt 1 discriminator 1 view .LVU1003
ARM GAS  /tmp/ccUpPomB.s 			page 85


 791:Middlewares/lvgl/src/draw/lv_draw_rect.c ****         if(ca.x2 > w_half) ca.x2 = w_half;
 2613              		.loc 1 791 34 is_stmt 0 discriminator 1 view .LVU1004
 2614 07ec ADF85220 		strh	r2, [sp, #82]	@ movhi
 2615              	.L107:
 792:Middlewares/lvgl/src/draw/lv_draw_rect.c **** 
 2616              		.loc 1 792 9 is_stmt 1 view .LVU1005
 792:Middlewares/lvgl/src/draw/lv_draw_rect.c **** 
 2617              		.loc 1 792 14 is_stmt 0 view .LVU1006
 2618 07f0 BDF95030 		ldrsh	r3, [sp, #80]
 792:Middlewares/lvgl/src/draw/lv_draw_rect.c **** 
 2619              		.loc 1 792 11 view .LVU1007
 2620 07f4 0C9A     		ldr	r2, [sp, #48]
 2621 07f6 9342     		cmp	r3, r2
 2622 07f8 01DD     		ble	.L108
 792:Middlewares/lvgl/src/draw/lv_draw_rect.c **** 
 2623              		.loc 1 792 28 is_stmt 1 discriminator 1 view .LVU1008
 792:Middlewares/lvgl/src/draw/lv_draw_rect.c **** 
 2624              		.loc 1 792 34 is_stmt 0 discriminator 1 view .LVU1009
 2625 07fa ADF85020 		strh	r2, [sp, #80]	@ movhi
 2626              	.L108:
 794:Middlewares/lvgl/src/draw/lv_draw_rect.c ****         lv_coord_t w = lv_area_get_width(&ca);
 2627              		.loc 1 794 9 is_stmt 1 view .LVU1010
 2628              	.LVL242:
 2629              	.LBB254:
 2630              	.LBI254:
 143:Middlewares/lvgl/src/draw/../misc/lv_area.h **** {
 2631              		.loc 2 143 26 view .LVU1011
 2632              	.LBB255:
 2633              		.loc 2 145 5 view .LVU1012
 2634              		.loc 2 145 31 is_stmt 0 view .LVU1013
 2635 07fe BDF952E0 		ldrsh	lr, [sp, #82]
 2636 0802 1FFA8EFB 		uxth	fp, lr
 2637              		.loc 2 145 44 view .LVU1014
 2638 0806 BDF94E30 		ldrsh	r3, [sp, #78]
 2639 080a 9AB2     		uxth	r2, r3
 2640              		.loc 2 145 36 view .LVU1015
 2641 080c ABEB020B 		sub	fp, fp, r2
 2642 0810 1FFA8BFB 		uxth	fp, fp
 2643              		.loc 2 145 49 view .LVU1016
 2644 0814 0BF1010B 		add	fp, fp, #1
 2645              		.loc 2 145 12 view .LVU1017
 2646 0818 0FFA8BFB 		sxth	fp, fp
 2647              	.LVL243:
 2648              		.loc 2 145 12 view .LVU1018
 2649              	.LBE255:
 2650              	.LBE254:
 795:Middlewares/lvgl/src/draw/lv_draw_rect.c ****         if(w > 0) {
 2651              		.loc 1 795 9 is_stmt 1 view .LVU1019
 2652              	.LBB256:
 2653              	.LBI256:
 133:Middlewares/lvgl/src/draw/../misc/lv_area.h **** {
 2654              		.loc 2 133 26 view .LVU1020
 2655              	.LBB257:
 135:Middlewares/lvgl/src/draw/../misc/lv_area.h **** }
 2656              		.loc 2 135 5 view .LVU1021
 135:Middlewares/lvgl/src/draw/../misc/lv_area.h **** }
 2657              		.loc 2 135 31 is_stmt 0 view .LVU1022
ARM GAS  /tmp/ccUpPomB.s 			page 86


 2658 081c BDF95000 		ldrsh	r0, [sp, #80]
 2659 0820 1FFA80FA 		uxth	r10, r0
 135:Middlewares/lvgl/src/draw/../misc/lv_area.h **** }
 2660              		.loc 2 135 44 view .LVU1023
 2661 0824 BDF94C20 		ldrsh	r2, [sp, #76]
 2662 0828 1FFA82FC 		uxth	ip, r2
 135:Middlewares/lvgl/src/draw/../misc/lv_area.h **** }
 2663              		.loc 2 135 36 view .LVU1024
 2664 082c AAEB0C0A 		sub	r10, r10, ip
 2665 0830 1FFA8AFA 		uxth	r10, r10
 135:Middlewares/lvgl/src/draw/../misc/lv_area.h **** }
 2666              		.loc 2 135 49 view .LVU1025
 2667 0834 0AF1010A 		add	r10, r10, #1
 135:Middlewares/lvgl/src/draw/../misc/lv_area.h **** }
 2668              		.loc 2 135 12 view .LVU1026
 2669 0838 0FFA8AFA 		sxth	r10, r10
 2670              	.LVL244:
 135:Middlewares/lvgl/src/draw/../misc/lv_area.h **** }
 2671              		.loc 2 135 12 view .LVU1027
 2672              	.LBE257:
 2673              	.LBE256:
 796:Middlewares/lvgl/src/draw/lv_draw_rect.c ****             sh_buf_tmp = sh_buf + (ca.x1 - a.x1);
 2674              		.loc 1 796 9 is_stmt 1 view .LVU1028
 796:Middlewares/lvgl/src/draw/lv_draw_rect.c ****             sh_buf_tmp = sh_buf + (ca.x1 - a.x1);
 2675              		.loc 1 796 11 is_stmt 0 view .LVU1029
 2676 083c BAF1000F 		cmp	r10, #0
 2677 0840 7FF72BAF 		ble	.L106
 2678              	.LBB258:
 797:Middlewares/lvgl/src/draw/lv_draw_rect.c ****             sh_buf_tmp += corner_size * (ca.y1 - a.y1);
 2679              		.loc 1 797 13 is_stmt 1 view .LVU1030
 797:Middlewares/lvgl/src/draw/lv_draw_rect.c ****             sh_buf_tmp += corner_size * (ca.y1 - a.y1);
 2680              		.loc 1 797 45 is_stmt 0 view .LVU1031
 2681 0844 BDF95480 		ldrsh	r8, [sp, #84]
 797:Middlewares/lvgl/src/draw/lv_draw_rect.c ****             sh_buf_tmp += corner_size * (ca.y1 - a.y1);
 2682              		.loc 1 797 42 view .LVU1032
 2683 0848 A2EB0808 		sub	r8, r2, r8
 2684              	.LVL245:
 798:Middlewares/lvgl/src/draw/lv_draw_rect.c **** 
 2685              		.loc 1 798 13 is_stmt 1 view .LVU1033
 798:Middlewares/lvgl/src/draw/lv_draw_rect.c **** 
 2686              		.loc 1 798 51 is_stmt 0 view .LVU1034
 2687 084c BDF956C0 		ldrsh	ip, [sp, #86]
 798:Middlewares/lvgl/src/draw/lv_draw_rect.c **** 
 2688              		.loc 1 798 48 view .LVU1035
 2689 0850 A3EB0C0C 		sub	ip, r3, ip
 798:Middlewares/lvgl/src/draw/lv_draw_rect.c **** 
 2690              		.loc 1 798 24 view .LVU1036
 2691 0854 04FB0C88 		mla	r8, r4, ip, r8
 2692              	.LVL246:
 798:Middlewares/lvgl/src/draw/lv_draw_rect.c **** 
 2693              		.loc 1 798 24 view .LVU1037
 2694 0858 0999     		ldr	r1, [sp, #36]
 2695 085a 8844     		add	r8, r8, r1
 2696              	.LVL247:
 800:Middlewares/lvgl/src/draw/lv_draw_rect.c ****             lv_area_copy(&fa, &ca);
 2697              		.loc 1 800 13 is_stmt 1 view .LVU1038
 801:Middlewares/lvgl/src/draw/lv_draw_rect.c ****             fa.y2 = fa.y1;
ARM GAS  /tmp/ccUpPomB.s 			page 87


 2698              		.loc 1 801 13 view .LVU1039
 2699              	.LBB259:
 2700              	.LBI259:
 120:Middlewares/lvgl/src/draw/../misc/lv_area.h **** {
 2701              		.loc 2 120 20 view .LVU1040
 2702              	.LBB260:
 122:Middlewares/lvgl/src/draw/../misc/lv_area.h ****     dest->y1 = src->y1;
 2703              		.loc 2 122 5 view .LVU1041
 122:Middlewares/lvgl/src/draw/../misc/lv_area.h ****     dest->y1 = src->y1;
 2704              		.loc 2 122 14 is_stmt 0 view .LVU1042
 2705 085c ADF84420 		strh	r2, [sp, #68]	@ movhi
 123:Middlewares/lvgl/src/draw/../misc/lv_area.h ****     dest->x2 = src->x2;
 2706              		.loc 2 123 5 is_stmt 1 view .LVU1043
 123:Middlewares/lvgl/src/draw/../misc/lv_area.h ****     dest->x2 = src->x2;
 2707              		.loc 2 123 14 is_stmt 0 view .LVU1044
 2708 0860 ADF84630 		strh	r3, [sp, #70]	@ movhi
 124:Middlewares/lvgl/src/draw/../misc/lv_area.h ****     dest->y2 = src->y2;
 2709              		.loc 2 124 5 is_stmt 1 view .LVU1045
 124:Middlewares/lvgl/src/draw/../misc/lv_area.h ****     dest->y2 = src->y2;
 2710              		.loc 2 124 14 is_stmt 0 view .LVU1046
 2711 0864 ADF84800 		strh	r0, [sp, #72]	@ movhi
 125:Middlewares/lvgl/src/draw/../misc/lv_area.h **** }
 2712              		.loc 2 125 5 is_stmt 1 view .LVU1047
 125:Middlewares/lvgl/src/draw/../misc/lv_area.h **** }
 2713              		.loc 2 125 14 is_stmt 0 view .LVU1048
 2714 0868 ADF84AE0 		strh	lr, [sp, #74]	@ movhi
 2715              	.LVL248:
 125:Middlewares/lvgl/src/draw/../misc/lv_area.h **** }
 2716              		.loc 2 125 14 view .LVU1049
 2717              	.LBE260:
 2718              	.LBE259:
 802:Middlewares/lvgl/src/draw/lv_draw_rect.c **** 
 2719              		.loc 1 802 13 is_stmt 1 view .LVU1050
 802:Middlewares/lvgl/src/draw/lv_draw_rect.c **** 
 2720              		.loc 1 802 19 is_stmt 0 view .LVU1051
 2721 086c ADF84A30 		strh	r3, [sp, #74]	@ movhi
 804:Middlewares/lvgl/src/draw/lv_draw_rect.c ****                 lv_memcpy(mask_buf, sh_buf_tmp, w);
 2722              		.loc 1 804 13 is_stmt 1 view .LVU1052
 2723              	.LVL249:
 804:Middlewares/lvgl/src/draw/lv_draw_rect.c ****                 lv_memcpy(mask_buf, sh_buf_tmp, w);
 2724              		.loc 1 804 19 is_stmt 0 view .LVU1053
 2725 0870 4FF00009 		mov	r9, #0
 2726 0874 0E97     		str	r7, [sp, #56]
 2727 0876 079F     		ldr	r7, [sp, #28]
 804:Middlewares/lvgl/src/draw/lv_draw_rect.c ****                 lv_memcpy(mask_buf, sh_buf_tmp, w);
 2728              		.loc 1 804 13 view .LVU1054
 2729 0878 16E0     		b	.L109
 2730              	.LVL250:
 2731              	.L110:
 809:Middlewares/lvgl/src/draw/lv_draw_rect.c ****                                mask_res, opa, dsc->blend_mode);
 2732              		.loc 1 809 17 is_stmt 1 discriminator 2 view .LVU1055
 2733 087a AB78     		ldrb	r3, [r5, #2]	@ zero_extendqisi2
 2734 087c 0293     		str	r3, [sp, #8]
 2735 087e 0197     		str	r7, [sp, #4]
 2736 0880 0090     		str	r0, [sp]
 2737 0882 3346     		mov	r3, r6
 2738 0884 2A8D     		ldrh	r2, [r5, #40]
ARM GAS  /tmp/ccUpPomB.s 			page 88


 2739 0886 11A9     		add	r1, sp, #68
 2740 0888 0498     		ldr	r0, [sp, #16]
 2741              	.LVL251:
 809:Middlewares/lvgl/src/draw/lv_draw_rect.c ****                                mask_res, opa, dsc->blend_mode);
 2742              		.loc 1 809 17 is_stmt 0 discriminator 2 view .LVU1056
 2743 088a FFF7FEFF 		bl	_lv_blend_fill
 2744              	.LVL252:
 811:Middlewares/lvgl/src/draw/lv_draw_rect.c ****                 fa.y2++;
 2745              		.loc 1 811 17 is_stmt 1 discriminator 2 view .LVU1057
 811:Middlewares/lvgl/src/draw/lv_draw_rect.c ****                 fa.y2++;
 2746              		.loc 1 811 19 is_stmt 0 discriminator 2 view .LVU1058
 2747 088e BDF94630 		ldrsh	r3, [sp, #70]
 811:Middlewares/lvgl/src/draw/lv_draw_rect.c ****                 fa.y2++;
 2748              		.loc 1 811 22 discriminator 2 view .LVU1059
 2749 0892 0133     		adds	r3, r3, #1
 2750 0894 ADF84630 		strh	r3, [sp, #70]	@ movhi
 812:Middlewares/lvgl/src/draw/lv_draw_rect.c ****                 sh_buf_tmp += corner_size;
 2751              		.loc 1 812 17 is_stmt 1 discriminator 2 view .LVU1060
 812:Middlewares/lvgl/src/draw/lv_draw_rect.c ****                 sh_buf_tmp += corner_size;
 2752              		.loc 1 812 19 is_stmt 0 discriminator 2 view .LVU1061
 2753 0898 BDF94A30 		ldrsh	r3, [sp, #74]
 812:Middlewares/lvgl/src/draw/lv_draw_rect.c ****                 sh_buf_tmp += corner_size;
 2754              		.loc 1 812 22 discriminator 2 view .LVU1062
 2755 089c 0133     		adds	r3, r3, #1
 2756 089e ADF84A30 		strh	r3, [sp, #74]	@ movhi
 813:Middlewares/lvgl/src/draw/lv_draw_rect.c ****             }
 2757              		.loc 1 813 17 is_stmt 1 discriminator 2 view .LVU1063
 813:Middlewares/lvgl/src/draw/lv_draw_rect.c ****             }
 2758              		.loc 1 813 28 is_stmt 0 discriminator 2 view .LVU1064
 2759 08a2 A044     		add	r8, r8, r4
 2760              	.LVL253:
 804:Middlewares/lvgl/src/draw/lv_draw_rect.c ****                 lv_memcpy(mask_buf, sh_buf_tmp, w);
 2761              		.loc 1 804 31 is_stmt 1 discriminator 2 view .LVU1065
 804:Middlewares/lvgl/src/draw/lv_draw_rect.c ****                 lv_memcpy(mask_buf, sh_buf_tmp, w);
 2762              		.loc 1 804 32 is_stmt 0 discriminator 2 view .LVU1066
 2763 08a4 09F10109 		add	r9, r9, #1
 2764              	.LVL254:
 2765              	.L109:
 804:Middlewares/lvgl/src/draw/lv_draw_rect.c ****                 lv_memcpy(mask_buf, sh_buf_tmp, w);
 2766              		.loc 1 804 24 is_stmt 1 discriminator 1 view .LVU1067
 804:Middlewares/lvgl/src/draw/lv_draw_rect.c ****                 lv_memcpy(mask_buf, sh_buf_tmp, w);
 2767              		.loc 1 804 13 is_stmt 0 discriminator 1 view .LVU1068
 2768 08a8 CB45     		cmp	fp, r9
 2769 08aa 10DD     		ble	.L183
 805:Middlewares/lvgl/src/draw/lv_draw_rect.c ****                 mask_res = lv_draw_mask_apply(mask_buf, fa.x1, fa.y1, w);
 2770              		.loc 1 805 17 is_stmt 1 view .LVU1069
 2771 08ac 5246     		mov	r2, r10
 2772 08ae 4146     		mov	r1, r8
 2773 08b0 3046     		mov	r0, r6
 2774 08b2 FFF7FEFF 		bl	lv_memcpy
 2775              	.LVL255:
 806:Middlewares/lvgl/src/draw/lv_draw_rect.c ****                 if(mask_res == LV_DRAW_MASK_RES_FULL_COVER) mask_res = LV_DRAW_MASK_RES_CHANGED;
 2776              		.loc 1 806 17 view .LVU1070
 806:Middlewares/lvgl/src/draw/lv_draw_rect.c ****                 if(mask_res == LV_DRAW_MASK_RES_FULL_COVER) mask_res = LV_DRAW_MASK_RES_CHANGED;
 2777              		.loc 1 806 28 is_stmt 0 view .LVU1071
 2778 08b6 5346     		mov	r3, r10
 2779 08b8 BDF94620 		ldrsh	r2, [sp, #70]
ARM GAS  /tmp/ccUpPomB.s 			page 89


 2780 08bc BDF94410 		ldrsh	r1, [sp, #68]
 2781 08c0 3046     		mov	r0, r6
 2782 08c2 FFF7FEFF 		bl	lv_draw_mask_apply
 2783              	.LVL256:
 807:Middlewares/lvgl/src/draw/lv_draw_rect.c **** 
 2784              		.loc 1 807 17 is_stmt 1 view .LVU1072
 807:Middlewares/lvgl/src/draw/lv_draw_rect.c **** 
 2785              		.loc 1 807 19 is_stmt 0 view .LVU1073
 2786 08c6 0128     		cmp	r0, #1
 2787 08c8 D7D1     		bne	.L110
 807:Middlewares/lvgl/src/draw/lv_draw_rect.c **** 
 2788              		.loc 1 807 70 view .LVU1074
 2789 08ca 0220     		movs	r0, #2
 2790              	.LVL257:
 807:Middlewares/lvgl/src/draw/lv_draw_rect.c **** 
 2791              		.loc 1 807 70 view .LVU1075
 2792 08cc D5E7     		b	.L110
 2793              	.L183:
 807:Middlewares/lvgl/src/draw/lv_draw_rect.c **** 
 2794              		.loc 1 807 70 view .LVU1076
 2795 08ce 0E9F     		ldr	r7, [sp, #56]
 2796 08d0 E3E6     		b	.L106
 2797              	.LVL258:
 2798              	.L178:
 807:Middlewares/lvgl/src/draw/lv_draw_rect.c **** 
 2799              		.loc 1 807 70 view .LVU1077
 2800              	.LBE258:
 2801              	.LBE253:
 825:Middlewares/lvgl/src/draw/lv_draw_rect.c ****         /*Avoid overlap in the middle with large radius*/
 2802              		.loc 1 825 19 discriminator 1 view .LVU1078
 2803 08d2 089A     		ldr	r2, [sp, #32]
 2804 08d4 1EA9     		add	r1, sp, #120
 2805 08d6 15A8     		add	r0, sp, #84
 2806              	.LVL259:
 825:Middlewares/lvgl/src/draw/lv_draw_rect.c ****         /*Avoid overlap in the middle with large radius*/
 2807              		.loc 1 825 19 discriminator 1 view .LVU1079
 2808 08d8 FFF7FEFF 		bl	_lv_area_is_in
 2809              	.LVL260:
 825:Middlewares/lvgl/src/draw/lv_draw_rect.c ****         /*Avoid overlap in the middle with large radius*/
 2810              		.loc 1 825 16 discriminator 1 view .LVU1080
 2811 08dc 0028     		cmp	r0, #0
 2812 08de 7FF4F8AE 		bne	.L112
 2813              	.LBB261:
 827:Middlewares/lvgl/src/draw/lv_draw_rect.c ****         if(ca.x2 > w_half) ca.x2 = w_half;
 2814              		.loc 1 827 9 is_stmt 1 view .LVU1081
 827:Middlewares/lvgl/src/draw/lv_draw_rect.c ****         if(ca.x2 > w_half) ca.x2 = w_half;
 2815              		.loc 1 827 14 is_stmt 0 view .LVU1082
 2816 08e2 BDF94E30 		ldrsh	r3, [sp, #78]
 827:Middlewares/lvgl/src/draw/lv_draw_rect.c ****         if(ca.x2 > w_half) ca.x2 = w_half;
 2817              		.loc 1 827 11 view .LVU1083
 2818 08e6 0B9A     		ldr	r2, [sp, #44]
 2819 08e8 9342     		cmp	r3, r2
 2820 08ea 03DC     		bgt	.L113
 827:Middlewares/lvgl/src/draw/lv_draw_rect.c ****         if(ca.x2 > w_half) ca.x2 = w_half;
 2821              		.loc 1 827 29 is_stmt 1 discriminator 1 view .LVU1084
 827:Middlewares/lvgl/src/draw/lv_draw_rect.c ****         if(ca.x2 > w_half) ca.x2 = w_half;
 2822              		.loc 1 827 44 is_stmt 0 discriminator 1 view .LVU1085
ARM GAS  /tmp/ccUpPomB.s 			page 90


 2823 08ec 0D9B     		ldr	r3, [sp, #52]
 2824 08ee 0133     		adds	r3, r3, #1
 827:Middlewares/lvgl/src/draw/lv_draw_rect.c ****         if(ca.x2 > w_half) ca.x2 = w_half;
 2825              		.loc 1 827 35 discriminator 1 view .LVU1086
 2826 08f0 ADF84E30 		strh	r3, [sp, #78]	@ movhi
 2827              	.L113:
 828:Middlewares/lvgl/src/draw/lv_draw_rect.c ****         lv_coord_t h = lv_area_get_height(&ca);
 2828              		.loc 1 828 9 is_stmt 1 view .LVU1087
 828:Middlewares/lvgl/src/draw/lv_draw_rect.c ****         lv_coord_t h = lv_area_get_height(&ca);
 2829              		.loc 1 828 14 is_stmt 0 view .LVU1088
 2830 08f4 BDF95030 		ldrsh	r3, [sp, #80]
 828:Middlewares/lvgl/src/draw/lv_draw_rect.c ****         lv_coord_t h = lv_area_get_height(&ca);
 2831              		.loc 1 828 11 view .LVU1089
 2832 08f8 0C9A     		ldr	r2, [sp, #48]
 2833 08fa 9342     		cmp	r3, r2
 2834 08fc 01DD     		ble	.L114
 828:Middlewares/lvgl/src/draw/lv_draw_rect.c ****         lv_coord_t h = lv_area_get_height(&ca);
 2835              		.loc 1 828 28 is_stmt 1 discriminator 1 view .LVU1090
 828:Middlewares/lvgl/src/draw/lv_draw_rect.c ****         lv_coord_t h = lv_area_get_height(&ca);
 2836              		.loc 1 828 34 is_stmt 0 discriminator 1 view .LVU1091
 2837 08fe ADF85020 		strh	r2, [sp, #80]	@ movhi
 2838              	.L114:
 829:Middlewares/lvgl/src/draw/lv_draw_rect.c ****         lv_coord_t w = lv_area_get_width(&ca);
 2839              		.loc 1 829 9 is_stmt 1 view .LVU1092
 2840              	.LVL261:
 2841              	.LBB262:
 2842              	.LBI262:
 143:Middlewares/lvgl/src/draw/../misc/lv_area.h **** {
 2843              		.loc 2 143 26 view .LVU1093
 2844              	.LBB263:
 2845              		.loc 2 145 5 view .LVU1094
 2846              		.loc 2 145 31 is_stmt 0 view .LVU1095
 2847 0902 BDF95230 		ldrsh	r3, [sp, #82]
 2848 0906 1FFA83FB 		uxth	fp, r3
 2849              		.loc 2 145 44 view .LVU1096
 2850 090a BDF94E00 		ldrsh	r0, [sp, #78]
 2851 090e 82B2     		uxth	r2, r0
 2852              		.loc 2 145 36 view .LVU1097
 2853 0910 ABEB020B 		sub	fp, fp, r2
 2854 0914 1FFA8BFB 		uxth	fp, fp
 2855              		.loc 2 145 49 view .LVU1098
 2856 0918 0BF1010B 		add	fp, fp, #1
 2857              		.loc 2 145 12 view .LVU1099
 2858 091c 0FFA8BFB 		sxth	fp, fp
 2859              	.LVL262:
 2860              		.loc 2 145 12 view .LVU1100
 2861              	.LBE263:
 2862              	.LBE262:
 830:Middlewares/lvgl/src/draw/lv_draw_rect.c **** 
 2863              		.loc 1 830 9 is_stmt 1 view .LVU1101
 2864              	.LBB264:
 2865              	.LBI264:
 133:Middlewares/lvgl/src/draw/../misc/lv_area.h **** {
 2866              		.loc 2 133 26 view .LVU1102
 2867              	.LBB265:
 135:Middlewares/lvgl/src/draw/../misc/lv_area.h **** }
 2868              		.loc 2 135 5 view .LVU1103
ARM GAS  /tmp/ccUpPomB.s 			page 91


 135:Middlewares/lvgl/src/draw/../misc/lv_area.h **** }
 2869              		.loc 2 135 31 is_stmt 0 view .LVU1104
 2870 0920 BDF950E0 		ldrsh	lr, [sp, #80]
 2871 0924 1FFA8EFA 		uxth	r10, lr
 135:Middlewares/lvgl/src/draw/../misc/lv_area.h **** }
 2872              		.loc 2 135 44 view .LVU1105
 2873 0928 BDF94C20 		ldrsh	r2, [sp, #76]
 2874 092c 1FFA82FC 		uxth	ip, r2
 135:Middlewares/lvgl/src/draw/../misc/lv_area.h **** }
 2875              		.loc 2 135 36 view .LVU1106
 2876 0930 AAEB0C0A 		sub	r10, r10, ip
 2877 0934 1FFA8AFA 		uxth	r10, r10
 135:Middlewares/lvgl/src/draw/../misc/lv_area.h **** }
 2878              		.loc 2 135 49 view .LVU1107
 2879 0938 0AF1010A 		add	r10, r10, #1
 135:Middlewares/lvgl/src/draw/../misc/lv_area.h **** }
 2880              		.loc 2 135 12 view .LVU1108
 2881 093c 0FFA8AFA 		sxth	r10, r10
 2882              	.LVL263:
 135:Middlewares/lvgl/src/draw/../misc/lv_area.h **** }
 2883              		.loc 2 135 12 view .LVU1109
 2884              	.LBE265:
 2885              	.LBE264:
 832:Middlewares/lvgl/src/draw/lv_draw_rect.c ****             sh_buf_tmp = sh_buf + (ca.x1 - a.x1);
 2886              		.loc 1 832 9 is_stmt 1 view .LVU1110
 832:Middlewares/lvgl/src/draw/lv_draw_rect.c ****             sh_buf_tmp = sh_buf + (ca.x1 - a.x1);
 2887              		.loc 1 832 11 is_stmt 0 view .LVU1111
 2888 0940 BAF1000F 		cmp	r10, #0
 2889 0944 7FF7C5AE 		ble	.L112
 2890              	.LBB266:
 833:Middlewares/lvgl/src/draw/lv_draw_rect.c ****             sh_buf_tmp += corner_size * (a.y2 - ca.y2);
 2891              		.loc 1 833 13 is_stmt 1 view .LVU1112
 833:Middlewares/lvgl/src/draw/lv_draw_rect.c ****             sh_buf_tmp += corner_size * (a.y2 - ca.y2);
 2892              		.loc 1 833 45 is_stmt 0 view .LVU1113
 2893 0948 BDF95480 		ldrsh	r8, [sp, #84]
 833:Middlewares/lvgl/src/draw/lv_draw_rect.c ****             sh_buf_tmp += corner_size * (a.y2 - ca.y2);
 2894              		.loc 1 833 42 view .LVU1114
 2895 094c A2EB0808 		sub	r8, r2, r8
 2896              	.LVL264:
 834:Middlewares/lvgl/src/draw/lv_draw_rect.c **** 
 2897              		.loc 1 834 13 is_stmt 1 view .LVU1115
 834:Middlewares/lvgl/src/draw/lv_draw_rect.c **** 
 2898              		.loc 1 834 43 is_stmt 0 view .LVU1116
 2899 0950 BDF95AC0 		ldrsh	ip, [sp, #90]
 834:Middlewares/lvgl/src/draw/lv_draw_rect.c **** 
 2900              		.loc 1 834 47 view .LVU1117
 2901 0954 ACEB030C 		sub	ip, ip, r3
 834:Middlewares/lvgl/src/draw/lv_draw_rect.c **** 
 2902              		.loc 1 834 24 view .LVU1118
 2903 0958 04FB0C88 		mla	r8, r4, ip, r8
 2904              	.LVL265:
 834:Middlewares/lvgl/src/draw/lv_draw_rect.c **** 
 2905              		.loc 1 834 24 view .LVU1119
 2906 095c 0999     		ldr	r1, [sp, #36]
 2907 095e 8844     		add	r8, r8, r1
 2908              	.LVL266:
 836:Middlewares/lvgl/src/draw/lv_draw_rect.c ****             lv_area_copy(&fa, &ca);
ARM GAS  /tmp/ccUpPomB.s 			page 92


 2909              		.loc 1 836 13 is_stmt 1 view .LVU1120
 837:Middlewares/lvgl/src/draw/lv_draw_rect.c ****             fa.y1 = fa.y2;    /*Fill from bottom to top*/
 2910              		.loc 1 837 13 view .LVU1121
 2911              	.LBB267:
 2912              	.LBI267:
 120:Middlewares/lvgl/src/draw/../misc/lv_area.h **** {
 2913              		.loc 2 120 20 view .LVU1122
 2914              	.LBB268:
 122:Middlewares/lvgl/src/draw/../misc/lv_area.h ****     dest->y1 = src->y1;
 2915              		.loc 2 122 5 view .LVU1123
 122:Middlewares/lvgl/src/draw/../misc/lv_area.h ****     dest->y1 = src->y1;
 2916              		.loc 2 122 14 is_stmt 0 view .LVU1124
 2917 0960 ADF84420 		strh	r2, [sp, #68]	@ movhi
 123:Middlewares/lvgl/src/draw/../misc/lv_area.h ****     dest->x2 = src->x2;
 2918              		.loc 2 123 5 is_stmt 1 view .LVU1125
 123:Middlewares/lvgl/src/draw/../misc/lv_area.h ****     dest->x2 = src->x2;
 2919              		.loc 2 123 14 is_stmt 0 view .LVU1126
 2920 0964 ADF84600 		strh	r0, [sp, #70]	@ movhi
 124:Middlewares/lvgl/src/draw/../misc/lv_area.h ****     dest->y2 = src->y2;
 2921              		.loc 2 124 5 is_stmt 1 view .LVU1127
 124:Middlewares/lvgl/src/draw/../misc/lv_area.h ****     dest->y2 = src->y2;
 2922              		.loc 2 124 14 is_stmt 0 view .LVU1128
 2923 0968 ADF848E0 		strh	lr, [sp, #72]	@ movhi
 125:Middlewares/lvgl/src/draw/../misc/lv_area.h **** }
 2924              		.loc 2 125 5 is_stmt 1 view .LVU1129
 125:Middlewares/lvgl/src/draw/../misc/lv_area.h **** }
 2925              		.loc 2 125 14 is_stmt 0 view .LVU1130
 2926 096c ADF84A30 		strh	r3, [sp, #74]	@ movhi
 2927              	.LVL267:
 125:Middlewares/lvgl/src/draw/../misc/lv_area.h **** }
 2928              		.loc 2 125 14 view .LVU1131
 2929              	.LBE268:
 2930              	.LBE267:
 838:Middlewares/lvgl/src/draw/lv_draw_rect.c **** 
 2931              		.loc 1 838 13 is_stmt 1 view .LVU1132
 838:Middlewares/lvgl/src/draw/lv_draw_rect.c **** 
 2932              		.loc 1 838 19 is_stmt 0 view .LVU1133
 2933 0970 ADF84630 		strh	r3, [sp, #70]	@ movhi
 840:Middlewares/lvgl/src/draw/lv_draw_rect.c ****                 lv_memcpy(mask_buf, sh_buf_tmp, w);
 2934              		.loc 1 840 13 is_stmt 1 view .LVU1134
 2935              	.LVL268:
 840:Middlewares/lvgl/src/draw/lv_draw_rect.c ****                 lv_memcpy(mask_buf, sh_buf_tmp, w);
 2936              		.loc 1 840 19 is_stmt 0 view .LVU1135
 2937 0974 4FF00009 		mov	r9, #0
 2938 0978 0E97     		str	r7, [sp, #56]
 2939 097a 079F     		ldr	r7, [sp, #28]
 840:Middlewares/lvgl/src/draw/lv_draw_rect.c ****                 lv_memcpy(mask_buf, sh_buf_tmp, w);
 2940              		.loc 1 840 13 view .LVU1136
 2941 097c 16E0     		b	.L115
 2942              	.LVL269:
 2943              	.L116:
 845:Middlewares/lvgl/src/draw/lv_draw_rect.c ****                                mask_res, opa, dsc->blend_mode);
 2944              		.loc 1 845 17 is_stmt 1 discriminator 2 view .LVU1137
 2945 097e AB78     		ldrb	r3, [r5, #2]	@ zero_extendqisi2
 2946 0980 0293     		str	r3, [sp, #8]
 2947 0982 0197     		str	r7, [sp, #4]
 2948 0984 0090     		str	r0, [sp]
ARM GAS  /tmp/ccUpPomB.s 			page 93


 2949 0986 3346     		mov	r3, r6
 2950 0988 2A8D     		ldrh	r2, [r5, #40]
 2951 098a 11A9     		add	r1, sp, #68
 2952 098c 0498     		ldr	r0, [sp, #16]
 2953              	.LVL270:
 845:Middlewares/lvgl/src/draw/lv_draw_rect.c ****                                mask_res, opa, dsc->blend_mode);
 2954              		.loc 1 845 17 is_stmt 0 discriminator 2 view .LVU1138
 2955 098e FFF7FEFF 		bl	_lv_blend_fill
 2956              	.LVL271:
 847:Middlewares/lvgl/src/draw/lv_draw_rect.c ****                 fa.y2--;
 2957              		.loc 1 847 17 is_stmt 1 discriminator 2 view .LVU1139
 847:Middlewares/lvgl/src/draw/lv_draw_rect.c ****                 fa.y2--;
 2958              		.loc 1 847 19 is_stmt 0 discriminator 2 view .LVU1140
 2959 0992 BDF94630 		ldrsh	r3, [sp, #70]
 847:Middlewares/lvgl/src/draw/lv_draw_rect.c ****                 fa.y2--;
 2960              		.loc 1 847 22 discriminator 2 view .LVU1141
 2961 0996 013B     		subs	r3, r3, #1
 2962 0998 ADF84630 		strh	r3, [sp, #70]	@ movhi
 848:Middlewares/lvgl/src/draw/lv_draw_rect.c ****                 sh_buf_tmp += corner_size;
 2963              		.loc 1 848 17 is_stmt 1 discriminator 2 view .LVU1142
 848:Middlewares/lvgl/src/draw/lv_draw_rect.c ****                 sh_buf_tmp += corner_size;
 2964              		.loc 1 848 19 is_stmt 0 discriminator 2 view .LVU1143
 2965 099c BDF94A30 		ldrsh	r3, [sp, #74]
 848:Middlewares/lvgl/src/draw/lv_draw_rect.c ****                 sh_buf_tmp += corner_size;
 2966              		.loc 1 848 22 discriminator 2 view .LVU1144
 2967 09a0 013B     		subs	r3, r3, #1
 2968 09a2 ADF84A30 		strh	r3, [sp, #74]	@ movhi
 849:Middlewares/lvgl/src/draw/lv_draw_rect.c ****             }
 2969              		.loc 1 849 17 is_stmt 1 discriminator 2 view .LVU1145
 849:Middlewares/lvgl/src/draw/lv_draw_rect.c ****             }
 2970              		.loc 1 849 28 is_stmt 0 discriminator 2 view .LVU1146
 2971 09a6 A044     		add	r8, r8, r4
 2972              	.LVL272:
 840:Middlewares/lvgl/src/draw/lv_draw_rect.c ****                 lv_memcpy(mask_buf, sh_buf_tmp, w);
 2973              		.loc 1 840 31 is_stmt 1 discriminator 2 view .LVU1147
 840:Middlewares/lvgl/src/draw/lv_draw_rect.c ****                 lv_memcpy(mask_buf, sh_buf_tmp, w);
 2974              		.loc 1 840 32 is_stmt 0 discriminator 2 view .LVU1148
 2975 09a8 09F10109 		add	r9, r9, #1
 2976              	.LVL273:
 2977              	.L115:
 840:Middlewares/lvgl/src/draw/lv_draw_rect.c ****                 lv_memcpy(mask_buf, sh_buf_tmp, w);
 2978              		.loc 1 840 24 is_stmt 1 discriminator 1 view .LVU1149
 840:Middlewares/lvgl/src/draw/lv_draw_rect.c ****                 lv_memcpy(mask_buf, sh_buf_tmp, w);
 2979              		.loc 1 840 13 is_stmt 0 discriminator 1 view .LVU1150
 2980 09ac CB45     		cmp	fp, r9
 2981 09ae 10DD     		ble	.L184
 841:Middlewares/lvgl/src/draw/lv_draw_rect.c ****                 mask_res = lv_draw_mask_apply(mask_buf, fa.x1, fa.y1, w);
 2982              		.loc 1 841 17 is_stmt 1 view .LVU1151
 2983 09b0 5246     		mov	r2, r10
 2984 09b2 4146     		mov	r1, r8
 2985 09b4 3046     		mov	r0, r6
 2986 09b6 FFF7FEFF 		bl	lv_memcpy
 2987              	.LVL274:
 842:Middlewares/lvgl/src/draw/lv_draw_rect.c ****                 if(mask_res == LV_DRAW_MASK_RES_FULL_COVER) mask_res = LV_DRAW_MASK_RES_CHANGED;
 2988              		.loc 1 842 17 view .LVU1152
 842:Middlewares/lvgl/src/draw/lv_draw_rect.c ****                 if(mask_res == LV_DRAW_MASK_RES_FULL_COVER) mask_res = LV_DRAW_MASK_RES_CHANGED;
 2989              		.loc 1 842 28 is_stmt 0 view .LVU1153
ARM GAS  /tmp/ccUpPomB.s 			page 94


 2990 09ba 5346     		mov	r3, r10
 2991 09bc BDF94620 		ldrsh	r2, [sp, #70]
 2992 09c0 BDF94410 		ldrsh	r1, [sp, #68]
 2993 09c4 3046     		mov	r0, r6
 2994 09c6 FFF7FEFF 		bl	lv_draw_mask_apply
 2995              	.LVL275:
 843:Middlewares/lvgl/src/draw/lv_draw_rect.c **** 
 2996              		.loc 1 843 17 is_stmt 1 view .LVU1154
 843:Middlewares/lvgl/src/draw/lv_draw_rect.c **** 
 2997              		.loc 1 843 19 is_stmt 0 view .LVU1155
 2998 09ca 0128     		cmp	r0, #1
 2999 09cc D7D1     		bne	.L116
 843:Middlewares/lvgl/src/draw/lv_draw_rect.c **** 
 3000              		.loc 1 843 70 view .LVU1156
 3001 09ce 0220     		movs	r0, #2
 3002              	.LVL276:
 843:Middlewares/lvgl/src/draw/lv_draw_rect.c **** 
 3003              		.loc 1 843 70 view .LVU1157
 3004 09d0 D5E7     		b	.L116
 3005              	.L184:
 843:Middlewares/lvgl/src/draw/lv_draw_rect.c **** 
 3006              		.loc 1 843 70 view .LVU1158
 3007 09d2 0E9F     		ldr	r7, [sp, #56]
 3008 09d4 7DE6     		b	.L112
 3009              	.LVL277:
 3010              	.L179:
 843:Middlewares/lvgl/src/draw/lv_draw_rect.c **** 
 3011              		.loc 1 843 70 view .LVU1159
 3012              	.LBE266:
 3013              	.LBE261:
 861:Middlewares/lvgl/src/draw/lv_draw_rect.c ****         /*Avoid overlap in the middle with large radius*/
 3014              		.loc 1 861 19 discriminator 1 view .LVU1160
 3015 09d6 089A     		ldr	r2, [sp, #32]
 3016 09d8 1EA9     		add	r1, sp, #120
 3017 09da 15A8     		add	r0, sp, #84
 3018              	.LVL278:
 861:Middlewares/lvgl/src/draw/lv_draw_rect.c ****         /*Avoid overlap in the middle with large radius*/
 3019              		.loc 1 861 19 discriminator 1 view .LVU1161
 3020 09dc FFF7FEFF 		bl	_lv_area_is_in
 3021              	.LVL279:
 861:Middlewares/lvgl/src/draw/lv_draw_rect.c ****         /*Avoid overlap in the middle with large radius*/
 3022              		.loc 1 861 16 discriminator 1 view .LVU1162
 3023 09e0 0028     		cmp	r0, #0
 3024 09e2 7FF492AE 		bne	.L118
 3025              	.LBB269:
 863:Middlewares/lvgl/src/draw/lv_draw_rect.c **** 
 3026              		.loc 1 863 9 is_stmt 1 view .LVU1163
 863:Middlewares/lvgl/src/draw/lv_draw_rect.c **** 
 3027              		.loc 1 863 14 is_stmt 0 view .LVU1164
 3028 09e6 BDF95030 		ldrsh	r3, [sp, #80]
 863:Middlewares/lvgl/src/draw/lv_draw_rect.c **** 
 3029              		.loc 1 863 11 view .LVU1165
 3030 09ea 0C9A     		ldr	r2, [sp, #48]
 3031 09ec 9342     		cmp	r3, r2
 3032 09ee 01DD     		ble	.L119
 863:Middlewares/lvgl/src/draw/lv_draw_rect.c **** 
 3033              		.loc 1 863 28 is_stmt 1 discriminator 1 view .LVU1166
ARM GAS  /tmp/ccUpPomB.s 			page 95


 863:Middlewares/lvgl/src/draw/lv_draw_rect.c **** 
 3034              		.loc 1 863 34 is_stmt 0 discriminator 1 view .LVU1167
 3035 09f0 ADF85020 		strh	r2, [sp, #80]	@ movhi
 3036              	.L119:
 865:Middlewares/lvgl/src/draw/lv_draw_rect.c ****         /*Draw vertical lines*/
 3037              		.loc 1 865 9 is_stmt 1 view .LVU1168
 865:Middlewares/lvgl/src/draw/lv_draw_rect.c ****         /*Draw vertical lines*/
 3038              		.loc 1 865 11 is_stmt 0 view .LVU1169
 3039 09f4 069B     		ldr	r3, [sp, #24]
 3040 09f6 4BB1     		cbz	r3, .L120
 865:Middlewares/lvgl/src/draw/lv_draw_rect.c ****         /*Draw vertical lines*/
 3041              		.loc 1 865 25 is_stmt 1 discriminator 1 view .LVU1170
 865:Middlewares/lvgl/src/draw/lv_draw_rect.c ****         /*Draw vertical lines*/
 3042              		.loc 1 865 33 is_stmt 0 discriminator 1 view .LVU1171
 3043 09f8 BDF95030 		ldrsh	r3, [sp, #80]
 3044 09fc 059A     		ldr	r2, [sp, #20]
 3045 09fe B2F90020 		ldrsh	r2, [r2]
 3046 0a02 9342     		cmp	r3, r2
 3047 0a04 A8BF     		it	ge
 3048 0a06 1346     		movge	r3, r2
 865:Middlewares/lvgl/src/draw/lv_draw_rect.c ****         /*Draw vertical lines*/
 3049              		.loc 1 865 31 discriminator 1 view .LVU1172
 3050 0a08 ADF85030 		strh	r3, [sp, #80]	@ movhi
 3051              	.L120:
 867:Middlewares/lvgl/src/draw/lv_draw_rect.c ****         if(w > 0) {
 3052              		.loc 1 867 9 is_stmt 1 view .LVU1173
 3053              	.LVL280:
 3054              	.LBB270:
 3055              	.LBI270:
 133:Middlewares/lvgl/src/draw/../misc/lv_area.h **** {
 3056              		.loc 2 133 26 view .LVU1174
 3057              	.LBB271:
 135:Middlewares/lvgl/src/draw/../misc/lv_area.h **** }
 3058              		.loc 2 135 5 view .LVU1175
 135:Middlewares/lvgl/src/draw/../misc/lv_area.h **** }
 3059              		.loc 2 135 31 is_stmt 0 view .LVU1176
 3060 0a0c BDF95020 		ldrsh	r2, [sp, #80]
 3061 0a10 1FFA82F9 		uxth	r9, r2
 135:Middlewares/lvgl/src/draw/../misc/lv_area.h **** }
 3062              		.loc 2 135 44 view .LVU1177
 3063 0a14 BDF94C30 		ldrsh	r3, [sp, #76]
 3064 0a18 99B2     		uxth	r1, r3
 135:Middlewares/lvgl/src/draw/../misc/lv_area.h **** }
 3065              		.loc 2 135 36 view .LVU1178
 3066 0a1a A9EB0109 		sub	r9, r9, r1
 3067 0a1e 1FFA89F9 		uxth	r9, r9
 135:Middlewares/lvgl/src/draw/../misc/lv_area.h **** }
 3068              		.loc 2 135 49 view .LVU1179
 3069 0a22 09F10109 		add	r9, r9, #1
 135:Middlewares/lvgl/src/draw/../misc/lv_area.h **** }
 3070              		.loc 2 135 12 view .LVU1180
 3071 0a26 0FFA89F9 		sxth	r9, r9
 3072              	.LVL281:
 135:Middlewares/lvgl/src/draw/../misc/lv_area.h **** }
 3073              		.loc 2 135 12 view .LVU1181
 3074              	.LBE271:
 3075              	.LBE270:
ARM GAS  /tmp/ccUpPomB.s 			page 96


 868:Middlewares/lvgl/src/draw/lv_draw_rect.c ****             lv_coord_t h = lv_area_get_height(&ca);
 3076              		.loc 1 868 9 is_stmt 1 view .LVU1182
 868:Middlewares/lvgl/src/draw/lv_draw_rect.c ****             lv_coord_t h = lv_area_get_height(&ca);
 3077              		.loc 1 868 11 is_stmt 0 view .LVU1183
 3078 0a2a B9F1000F 		cmp	r9, #0
 3079 0a2e 7FF76CAE 		ble	.L118
 3080              	.LBB272:
 869:Middlewares/lvgl/src/draw/lv_draw_rect.c ****             /*The last line of the shadow is repeated on the side*/
 3081              		.loc 1 869 13 is_stmt 1 view .LVU1184
 3082              	.LVL282:
 3083              	.LBB273:
 3084              	.LBI273:
 143:Middlewares/lvgl/src/draw/../misc/lv_area.h **** {
 3085              		.loc 2 143 26 view .LVU1185
 3086              	.LBB274:
 3087              		.loc 2 145 5 view .LVU1186
 3088              		.loc 2 145 31 is_stmt 0 view .LVU1187
 3089 0a32 BDF952E0 		ldrsh	lr, [sp, #82]
 3090 0a36 1FFA8EFA 		uxth	r10, lr
 3091              		.loc 2 145 44 view .LVU1188
 3092 0a3a BDF94E10 		ldrsh	r1, [sp, #78]
 3093 0a3e 1FFA81FC 		uxth	ip, r1
 3094              		.loc 2 145 36 view .LVU1189
 3095 0a42 AAEB0C0A 		sub	r10, r10, ip
 3096 0a46 1FFA8AFA 		uxth	r10, r10
 3097              		.loc 2 145 49 view .LVU1190
 3098 0a4a 0AF1010A 		add	r10, r10, #1
 3099              		.loc 2 145 12 view .LVU1191
 3100 0a4e 0FFA8AFA 		sxth	r10, r10
 3101              	.LVL283:
 3102              		.loc 2 145 12 view .LVU1192
 3103              	.LBE274:
 3104              	.LBE273:
 871:Middlewares/lvgl/src/draw/lv_draw_rect.c ****             sh_buf_tmp += ca.x1 - a.x1;
 3105              		.loc 1 871 13 is_stmt 1 view .LVU1193
 871:Middlewares/lvgl/src/draw/lv_draw_rect.c ****             sh_buf_tmp += ca.x1 - a.x1;
 3106              		.loc 1 871 62 is_stmt 0 view .LVU1194
 3107 0a52 04F1FF3C 		add	ip, r4, #-1
 872:Middlewares/lvgl/src/draw/lv_draw_rect.c **** 
 3108              		.loc 1 872 13 is_stmt 1 view .LVU1195
 872:Middlewares/lvgl/src/draw/lv_draw_rect.c **** 
 3109              		.loc 1 872 36 is_stmt 0 view .LVU1196
 3110 0a56 BDF954B0 		ldrsh	fp, [sp, #84]
 872:Middlewares/lvgl/src/draw/lv_draw_rect.c **** 
 3111              		.loc 1 872 33 view .LVU1197
 3112 0a5a A3EB0B0B 		sub	fp, r3, fp
 872:Middlewares/lvgl/src/draw/lv_draw_rect.c **** 
 3113              		.loc 1 872 24 view .LVU1198
 3114 0a5e 04FB0CBB 		mla	fp, r4, ip, fp
 3115 0a62 0998     		ldr	r0, [sp, #36]
 3116 0a64 8344     		add	fp, fp, r0
 3117              	.LVL284:
 874:Middlewares/lvgl/src/draw/lv_draw_rect.c ****             lv_area_copy(&fa, &ca);
 3118              		.loc 1 874 13 is_stmt 1 view .LVU1199
 875:Middlewares/lvgl/src/draw/lv_draw_rect.c ****             fa.y2 = fa.y1;
 3119              		.loc 1 875 13 view .LVU1200
 3120              	.LBB275:
ARM GAS  /tmp/ccUpPomB.s 			page 97


 3121              	.LBI275:
 120:Middlewares/lvgl/src/draw/../misc/lv_area.h **** {
 3122              		.loc 2 120 20 view .LVU1201
 3123              	.LBB276:
 122:Middlewares/lvgl/src/draw/../misc/lv_area.h ****     dest->y1 = src->y1;
 3124              		.loc 2 122 5 view .LVU1202
 122:Middlewares/lvgl/src/draw/../misc/lv_area.h ****     dest->y1 = src->y1;
 3125              		.loc 2 122 14 is_stmt 0 view .LVU1203
 3126 0a66 ADF84430 		strh	r3, [sp, #68]	@ movhi
 123:Middlewares/lvgl/src/draw/../misc/lv_area.h ****     dest->x2 = src->x2;
 3127              		.loc 2 123 5 is_stmt 1 view .LVU1204
 123:Middlewares/lvgl/src/draw/../misc/lv_area.h ****     dest->x2 = src->x2;
 3128              		.loc 2 123 14 is_stmt 0 view .LVU1205
 3129 0a6a ADF84610 		strh	r1, [sp, #70]	@ movhi
 124:Middlewares/lvgl/src/draw/../misc/lv_area.h ****     dest->y2 = src->y2;
 3130              		.loc 2 124 5 is_stmt 1 view .LVU1206
 124:Middlewares/lvgl/src/draw/../misc/lv_area.h ****     dest->y2 = src->y2;
 3131              		.loc 2 124 14 is_stmt 0 view .LVU1207
 3132 0a6e ADF84820 		strh	r2, [sp, #72]	@ movhi
 125:Middlewares/lvgl/src/draw/../misc/lv_area.h **** }
 3133              		.loc 2 125 5 is_stmt 1 view .LVU1208
 125:Middlewares/lvgl/src/draw/../misc/lv_area.h **** }
 3134              		.loc 2 125 14 is_stmt 0 view .LVU1209
 3135 0a72 ADF84AE0 		strh	lr, [sp, #74]	@ movhi
 3136              	.LVL285:
 125:Middlewares/lvgl/src/draw/../misc/lv_area.h **** }
 3137              		.loc 2 125 14 view .LVU1210
 3138              	.LBE276:
 3139              	.LBE275:
 876:Middlewares/lvgl/src/draw/lv_draw_rect.c ****             for(y = 0; y < h; y++) {
 3140              		.loc 1 876 13 is_stmt 1 view .LVU1211
 876:Middlewares/lvgl/src/draw/lv_draw_rect.c ****             for(y = 0; y < h; y++) {
 3141              		.loc 1 876 19 is_stmt 0 view .LVU1212
 3142 0a76 ADF84A10 		strh	r1, [sp, #74]	@ movhi
 877:Middlewares/lvgl/src/draw/lv_draw_rect.c ****                 lv_memcpy(mask_buf, sh_buf_tmp, w);
 3143              		.loc 1 877 13 is_stmt 1 view .LVU1213
 3144              	.LVL286:
 877:Middlewares/lvgl/src/draw/lv_draw_rect.c ****                 lv_memcpy(mask_buf, sh_buf_tmp, w);
 3145              		.loc 1 877 19 is_stmt 0 view .LVU1214
 3146 0a7a 4FF00008 		mov	r8, #0
 3147 0a7e 0C97     		str	r7, [sp, #48]
 3148              	.LVL287:
 877:Middlewares/lvgl/src/draw/lv_draw_rect.c ****                 lv_memcpy(mask_buf, sh_buf_tmp, w);
 3149              		.loc 1 877 19 view .LVU1215
 3150 0a80 0E94     		str	r4, [sp, #56]
 3151 0a82 069C     		ldr	r4, [sp, #24]
 3152 0a84 049F     		ldr	r7, [sp, #16]
 877:Middlewares/lvgl/src/draw/lv_draw_rect.c ****                 lv_memcpy(mask_buf, sh_buf_tmp, w);
 3153              		.loc 1 877 13 view .LVU1216
 3154 0a86 21E0     		b	.L121
 3155              	.LVL288:
 3156              	.L187:
 883:Middlewares/lvgl/src/draw/lv_draw_rect.c ****                     if(mask_res == LV_DRAW_MASK_RES_FULL_COVER) mask_res = LV_DRAW_MASK_RES_CHANGED
 3157              		.loc 1 883 21 is_stmt 1 view .LVU1217
 883:Middlewares/lvgl/src/draw/lv_draw_rect.c ****                     if(mask_res == LV_DRAW_MASK_RES_FULL_COVER) mask_res = LV_DRAW_MASK_RES_CHANGED
 3158              		.loc 1 883 32 is_stmt 0 view .LVU1218
 3159 0a88 4B46     		mov	r3, r9
ARM GAS  /tmp/ccUpPomB.s 			page 98


 3160 0a8a BDF94620 		ldrsh	r2, [sp, #70]
 3161 0a8e BDF94410 		ldrsh	r1, [sp, #68]
 3162 0a92 3046     		mov	r0, r6
 3163 0a94 FFF7FEFF 		bl	lv_draw_mask_apply
 3164              	.LVL289:
 884:Middlewares/lvgl/src/draw/lv_draw_rect.c ****                 }
 3165              		.loc 1 884 21 is_stmt 1 view .LVU1219
 884:Middlewares/lvgl/src/draw/lv_draw_rect.c ****                 }
 3166              		.loc 1 884 23 is_stmt 0 view .LVU1220
 3167 0a98 0128     		cmp	r0, #1
 3168 0a9a 22D0     		beq	.L185
 3169              	.LVL290:
 3170              	.L122:
 887:Middlewares/lvgl/src/draw/lv_draw_rect.c ****                                dsc->shadow_color, mask_buf, mask_res, dsc->shadow_opa, dsc->blend_m
 3171              		.loc 1 887 17 is_stmt 1 discriminator 2 view .LVU1221
 3172 0a9c AB78     		ldrb	r3, [r5, #2]	@ zero_extendqisi2
 3173 0a9e 0293     		str	r3, [sp, #8]
 3174 0aa0 95F83230 		ldrb	r3, [r5, #50]	@ zero_extendqisi2
 3175 0aa4 0193     		str	r3, [sp, #4]
 3176 0aa6 0090     		str	r0, [sp]
 3177 0aa8 3346     		mov	r3, r6
 3178 0aaa 2A8D     		ldrh	r2, [r5, #40]
 3179 0aac 11A9     		add	r1, sp, #68
 3180 0aae 3846     		mov	r0, r7
 3181              	.LVL291:
 887:Middlewares/lvgl/src/draw/lv_draw_rect.c ****                                dsc->shadow_color, mask_buf, mask_res, dsc->shadow_opa, dsc->blend_m
 3182              		.loc 1 887 17 is_stmt 0 discriminator 2 view .LVU1222
 3183 0ab0 FFF7FEFF 		bl	_lv_blend_fill
 3184              	.LVL292:
 889:Middlewares/lvgl/src/draw/lv_draw_rect.c ****                 fa.y2++;
 3185              		.loc 1 889 17 is_stmt 1 discriminator 2 view .LVU1223
 889:Middlewares/lvgl/src/draw/lv_draw_rect.c ****                 fa.y2++;
 3186              		.loc 1 889 19 is_stmt 0 discriminator 2 view .LVU1224
 3187 0ab4 BDF94630 		ldrsh	r3, [sp, #70]
 889:Middlewares/lvgl/src/draw/lv_draw_rect.c ****                 fa.y2++;
 3188              		.loc 1 889 22 discriminator 2 view .LVU1225
 3189 0ab8 0133     		adds	r3, r3, #1
 3190 0aba ADF84630 		strh	r3, [sp, #70]	@ movhi
 890:Middlewares/lvgl/src/draw/lv_draw_rect.c ****             }
 3191              		.loc 1 890 17 is_stmt 1 discriminator 2 view .LVU1226
 890:Middlewares/lvgl/src/draw/lv_draw_rect.c ****             }
 3192              		.loc 1 890 19 is_stmt 0 discriminator 2 view .LVU1227
 3193 0abe BDF94A30 		ldrsh	r3, [sp, #74]
 890:Middlewares/lvgl/src/draw/lv_draw_rect.c ****             }
 3194              		.loc 1 890 22 discriminator 2 view .LVU1228
 3195 0ac2 0133     		adds	r3, r3, #1
 3196 0ac4 ADF84A30 		strh	r3, [sp, #74]	@ movhi
 877:Middlewares/lvgl/src/draw/lv_draw_rect.c ****                 lv_memcpy(mask_buf, sh_buf_tmp, w);
 3197              		.loc 1 877 31 is_stmt 1 discriminator 2 view .LVU1229
 877:Middlewares/lvgl/src/draw/lv_draw_rect.c ****                 lv_memcpy(mask_buf, sh_buf_tmp, w);
 3198              		.loc 1 877 32 is_stmt 0 discriminator 2 view .LVU1230
 3199 0ac8 08F10108 		add	r8, r8, #1
 3200              	.LVL293:
 3201              	.L121:
 877:Middlewares/lvgl/src/draw/lv_draw_rect.c ****                 lv_memcpy(mask_buf, sh_buf_tmp, w);
 3202              		.loc 1 877 24 is_stmt 1 discriminator 1 view .LVU1231
 877:Middlewares/lvgl/src/draw/lv_draw_rect.c ****                 lv_memcpy(mask_buf, sh_buf_tmp, w);
ARM GAS  /tmp/ccUpPomB.s 			page 99


 3203              		.loc 1 877 13 is_stmt 0 discriminator 1 view .LVU1232
 3204 0acc C245     		cmp	r10, r8
 3205 0ace 0ADD     		ble	.L186
 878:Middlewares/lvgl/src/draw/lv_draw_rect.c ****                 if(simple_mode) {
 3206              		.loc 1 878 17 is_stmt 1 view .LVU1233
 3207 0ad0 4A46     		mov	r2, r9
 3208 0ad2 5946     		mov	r1, fp
 3209 0ad4 3046     		mov	r0, r6
 3210 0ad6 FFF7FEFF 		bl	lv_memcpy
 3211              	.LVL294:
 879:Middlewares/lvgl/src/draw/lv_draw_rect.c ****                     mask_res = LV_DRAW_MASK_RES_CHANGED;
 3212              		.loc 1 879 17 view .LVU1234
 879:Middlewares/lvgl/src/draw/lv_draw_rect.c ****                     mask_res = LV_DRAW_MASK_RES_CHANGED;
 3213              		.loc 1 879 19 is_stmt 0 view .LVU1235
 3214 0ada 002C     		cmp	r4, #0
 3215 0adc D4D0     		beq	.L187
 880:Middlewares/lvgl/src/draw/lv_draw_rect.c ****                 }
 3216              		.loc 1 880 30 view .LVU1236
 3217 0ade 0220     		movs	r0, #2
 3218 0ae0 DCE7     		b	.L122
 3219              	.LVL295:
 3220              	.L185:
 884:Middlewares/lvgl/src/draw/lv_draw_rect.c ****                 }
 3221              		.loc 1 884 74 view .LVU1237
 3222 0ae2 0220     		movs	r0, #2
 3223              	.LVL296:
 884:Middlewares/lvgl/src/draw/lv_draw_rect.c ****                 }
 3224              		.loc 1 884 74 view .LVU1238
 3225 0ae4 DAE7     		b	.L122
 3226              	.L186:
 884:Middlewares/lvgl/src/draw/lv_draw_rect.c ****                 }
 3227              		.loc 1 884 74 view .LVU1239
 3228 0ae6 0C9F     		ldr	r7, [sp, #48]
 3229 0ae8 0E9C     		ldr	r4, [sp, #56]
 3230 0aea 0EE6     		b	.L118
 3231              	.LVL297:
 3232              	.L180:
 884:Middlewares/lvgl/src/draw/lv_draw_rect.c ****                 }
 3233              		.loc 1 884 74 view .LVU1240
 3234              	.LBE272:
 3235              	.LBE269:
 902:Middlewares/lvgl/src/draw/lv_draw_rect.c ****         /*Avoid overlap in the middle with large radius*/
 3236              		.loc 1 902 19 discriminator 1 view .LVU1241
 3237 0aec 089A     		ldr	r2, [sp, #32]
 3238 0aee 1EA9     		add	r1, sp, #120
 3239 0af0 15A8     		add	r0, sp, #84
 3240              	.LVL298:
 902:Middlewares/lvgl/src/draw/lv_draw_rect.c ****         /*Avoid overlap in the middle with large radius*/
 3241              		.loc 1 902 19 discriminator 1 view .LVU1242
 3242 0af2 FFF7FEFF 		bl	_lv_area_is_in
 3243              	.LVL299:
 902:Middlewares/lvgl/src/draw/lv_draw_rect.c ****         /*Avoid overlap in the middle with large radius*/
 3244              		.loc 1 902 16 discriminator 1 view .LVU1243
 3245 0af6 0028     		cmp	r0, #0
 3246 0af8 7FF423AE 		bne	.L124
 3247              	.LBB277:
 904:Middlewares/lvgl/src/draw/lv_draw_rect.c **** 
ARM GAS  /tmp/ccUpPomB.s 			page 100


 3248              		.loc 1 904 9 is_stmt 1 view .LVU1244
 904:Middlewares/lvgl/src/draw/lv_draw_rect.c **** 
 3249              		.loc 1 904 14 is_stmt 0 view .LVU1245
 3250 0afc BDF95230 		ldrsh	r3, [sp, #82]
 904:Middlewares/lvgl/src/draw/lv_draw_rect.c **** 
 3251              		.loc 1 904 11 view .LVU1246
 3252 0b00 0B9A     		ldr	r2, [sp, #44]
 3253 0b02 9342     		cmp	r3, r2
 3254 0b04 01DD     		ble	.L125
 904:Middlewares/lvgl/src/draw/lv_draw_rect.c **** 
 3255              		.loc 1 904 28 is_stmt 1 discriminator 1 view .LVU1247
 904:Middlewares/lvgl/src/draw/lv_draw_rect.c **** 
 3256              		.loc 1 904 34 is_stmt 0 discriminator 1 view .LVU1248
 3257 0b06 ADF85220 		strh	r2, [sp, #82]	@ movhi
 3258              	.L125:
 906:Middlewares/lvgl/src/draw/lv_draw_rect.c **** 
 3259              		.loc 1 906 9 is_stmt 1 view .LVU1249
 906:Middlewares/lvgl/src/draw/lv_draw_rect.c **** 
 3260              		.loc 1 906 11 is_stmt 0 view .LVU1250
 3261 0b0a 069B     		ldr	r3, [sp, #24]
 3262 0b0c 4BB1     		cbz	r3, .L126
 906:Middlewares/lvgl/src/draw/lv_draw_rect.c **** 
 3263              		.loc 1 906 25 is_stmt 1 discriminator 1 view .LVU1251
 906:Middlewares/lvgl/src/draw/lv_draw_rect.c **** 
 3264              		.loc 1 906 33 is_stmt 0 discriminator 1 view .LVU1252
 3265 0b0e 059B     		ldr	r3, [sp, #20]
 3266 0b10 B3F90230 		ldrsh	r3, [r3, #2]
 3267 0b14 BDF95220 		ldrsh	r2, [sp, #82]
 3268 0b18 9342     		cmp	r3, r2
 3269 0b1a A8BF     		it	ge
 3270 0b1c 1346     		movge	r3, r2
 906:Middlewares/lvgl/src/draw/lv_draw_rect.c **** 
 3271              		.loc 1 906 31 discriminator 1 view .LVU1253
 3272 0b1e ADF85230 		strh	r3, [sp, #82]	@ movhi
 3273              	.L126:
 909:Middlewares/lvgl/src/draw/lv_draw_rect.c ****         lv_coord_t h = lv_area_get_height(&ca);
 3274              		.loc 1 909 9 is_stmt 1 view .LVU1254
 3275              	.LVL300:
 3276              	.LBB278:
 3277              	.LBI278:
 133:Middlewares/lvgl/src/draw/../misc/lv_area.h **** {
 3278              		.loc 2 133 26 view .LVU1255
 3279              	.LBB279:
 135:Middlewares/lvgl/src/draw/../misc/lv_area.h **** }
 3280              		.loc 2 135 5 view .LVU1256
 135:Middlewares/lvgl/src/draw/../misc/lv_area.h **** }
 3281              		.loc 2 135 31 is_stmt 0 view .LVU1257
 3282 0b22 BDF95010 		ldrsh	r1, [sp, #80]
 3283 0b26 1FFA81FB 		uxth	fp, r1
 135:Middlewares/lvgl/src/draw/../misc/lv_area.h **** }
 3284              		.loc 2 135 44 view .LVU1258
 3285 0b2a BDF94C00 		ldrsh	r0, [sp, #76]
 3286 0b2e 83B2     		uxth	r3, r0
 135:Middlewares/lvgl/src/draw/../misc/lv_area.h **** }
 3287              		.loc 2 135 36 view .LVU1259
 3288 0b30 ABEB030B 		sub	fp, fp, r3
 3289 0b34 1FFA8BFB 		uxth	fp, fp
ARM GAS  /tmp/ccUpPomB.s 			page 101


 135:Middlewares/lvgl/src/draw/../misc/lv_area.h **** }
 3290              		.loc 2 135 49 view .LVU1260
 3291 0b38 0BF1010B 		add	fp, fp, #1
 135:Middlewares/lvgl/src/draw/../misc/lv_area.h **** }
 3292              		.loc 2 135 12 view .LVU1261
 3293 0b3c 0FFA8BFB 		sxth	fp, fp
 3294              	.LVL301:
 135:Middlewares/lvgl/src/draw/../misc/lv_area.h **** }
 3295              		.loc 2 135 12 view .LVU1262
 3296              	.LBE279:
 3297              	.LBE278:
 910:Middlewares/lvgl/src/draw/lv_draw_rect.c ****         sh_buf_tmp = sh_buf + corner_size - 1;
 3298              		.loc 1 910 9 is_stmt 1 view .LVU1263
 3299              	.LBB280:
 3300              	.LBI280:
 143:Middlewares/lvgl/src/draw/../misc/lv_area.h **** {
 3301              		.loc 2 143 26 view .LVU1264
 3302              	.LBB281:
 3303              		.loc 2 145 5 view .LVU1265
 3304              		.loc 2 145 31 is_stmt 0 view .LVU1266
 3305 0b40 BDF952E0 		ldrsh	lr, [sp, #82]
 3306 0b44 1FFA8EFA 		uxth	r10, lr
 3307              		.loc 2 145 44 view .LVU1267
 3308 0b48 BDF94E30 		ldrsh	r3, [sp, #78]
 3309 0b4c 1FFA83FC 		uxth	ip, r3
 3310              		.loc 2 145 36 view .LVU1268
 3311 0b50 AAEB0C0A 		sub	r10, r10, ip
 3312 0b54 1FFA8AFA 		uxth	r10, r10
 3313              		.loc 2 145 49 view .LVU1269
 3314 0b58 0AF1010A 		add	r10, r10, #1
 3315              		.loc 2 145 12 view .LVU1270
 3316 0b5c 0FFA8AFA 		sxth	r10, r10
 3317              	.LVL302:
 3318              		.loc 2 145 12 view .LVU1271
 3319              	.LBE281:
 3320              	.LBE280:
 911:Middlewares/lvgl/src/draw/lv_draw_rect.c ****         sh_buf_tmp += corner_size * (ca.y1 - a.y1);
 3321              		.loc 1 911 9 is_stmt 1 view .LVU1272
 911:Middlewares/lvgl/src/draw/lv_draw_rect.c ****         sh_buf_tmp += corner_size * (ca.y1 - a.y1);
 3322              		.loc 1 911 43 is_stmt 0 view .LVU1273
 3323 0b60 04F1FF38 		add	r8, r4, #-1
 912:Middlewares/lvgl/src/draw/lv_draw_rect.c **** 
 3324              		.loc 1 912 9 is_stmt 1 view .LVU1274
 912:Middlewares/lvgl/src/draw/lv_draw_rect.c **** 
 3325              		.loc 1 912 47 is_stmt 0 view .LVU1275
 3326 0b64 BDF956C0 		ldrsh	ip, [sp, #86]
 912:Middlewares/lvgl/src/draw/lv_draw_rect.c **** 
 3327              		.loc 1 912 44 view .LVU1276
 3328 0b68 A3EB0C0C 		sub	ip, r3, ip
 912:Middlewares/lvgl/src/draw/lv_draw_rect.c **** 
 3329              		.loc 1 912 20 view .LVU1277
 3330 0b6c 04FB0C88 		mla	r8, r4, ip, r8
 3331 0b70 099A     		ldr	r2, [sp, #36]
 3332 0b72 9044     		add	r8, r8, r2
 3333              	.LVL303:
 914:Middlewares/lvgl/src/draw/lv_draw_rect.c ****         lv_area_copy(&fa, &ca);
 3334              		.loc 1 914 9 is_stmt 1 view .LVU1278
ARM GAS  /tmp/ccUpPomB.s 			page 102


 915:Middlewares/lvgl/src/draw/lv_draw_rect.c ****         fa.y2 = fa.y1;
 3335              		.loc 1 915 9 view .LVU1279
 3336              	.LBB282:
 3337              	.LBI282:
 120:Middlewares/lvgl/src/draw/../misc/lv_area.h **** {
 3338              		.loc 2 120 20 view .LVU1280
 3339              	.LBB283:
 122:Middlewares/lvgl/src/draw/../misc/lv_area.h ****     dest->y1 = src->y1;
 3340              		.loc 2 122 5 view .LVU1281
 122:Middlewares/lvgl/src/draw/../misc/lv_area.h ****     dest->y1 = src->y1;
 3341              		.loc 2 122 14 is_stmt 0 view .LVU1282
 3342 0b74 ADF84400 		strh	r0, [sp, #68]	@ movhi
 123:Middlewares/lvgl/src/draw/../misc/lv_area.h ****     dest->x2 = src->x2;
 3343              		.loc 2 123 5 is_stmt 1 view .LVU1283
 123:Middlewares/lvgl/src/draw/../misc/lv_area.h ****     dest->x2 = src->x2;
 3344              		.loc 2 123 14 is_stmt 0 view .LVU1284
 3345 0b78 ADF84630 		strh	r3, [sp, #70]	@ movhi
 124:Middlewares/lvgl/src/draw/../misc/lv_area.h ****     dest->y2 = src->y2;
 3346              		.loc 2 124 5 is_stmt 1 view .LVU1285
 124:Middlewares/lvgl/src/draw/../misc/lv_area.h ****     dest->y2 = src->y2;
 3347              		.loc 2 124 14 is_stmt 0 view .LVU1286
 3348 0b7c ADF84810 		strh	r1, [sp, #72]	@ movhi
 125:Middlewares/lvgl/src/draw/../misc/lv_area.h **** }
 3349              		.loc 2 125 5 is_stmt 1 view .LVU1287
 125:Middlewares/lvgl/src/draw/../misc/lv_area.h **** }
 3350              		.loc 2 125 14 is_stmt 0 view .LVU1288
 3351 0b80 ADF84AE0 		strh	lr, [sp, #74]	@ movhi
 3352              	.LVL304:
 125:Middlewares/lvgl/src/draw/../misc/lv_area.h **** }
 3353              		.loc 2 125 14 view .LVU1289
 3354              	.LBE283:
 3355              	.LBE282:
 916:Middlewares/lvgl/src/draw/lv_draw_rect.c ****         mask_res = LV_DRAW_MASK_RES_FULL_COVER;
 3356              		.loc 1 916 9 is_stmt 1 view .LVU1290
 916:Middlewares/lvgl/src/draw/lv_draw_rect.c ****         mask_res = LV_DRAW_MASK_RES_FULL_COVER;
 3357              		.loc 1 916 15 is_stmt 0 view .LVU1291
 3358 0b84 ADF84A30 		strh	r3, [sp, #74]	@ movhi
 917:Middlewares/lvgl/src/draw/lv_draw_rect.c ****         for(y = 0; y < h; y++) {
 3359              		.loc 1 917 9 is_stmt 1 view .LVU1292
 3360              	.LVL305:
 918:Middlewares/lvgl/src/draw/lv_draw_rect.c ****             lv_opa_t opa_tmp = sh_buf_tmp[0];
 3361              		.loc 1 918 9 view .LVU1293
 918:Middlewares/lvgl/src/draw/lv_draw_rect.c ****             lv_opa_t opa_tmp = sh_buf_tmp[0];
 3362              		.loc 1 918 15 is_stmt 0 view .LVU1294
 3363 0b88 4FF00009 		mov	r9, #0
 3364 0b8c 0C97     		str	r7, [sp, #48]
 3365 0b8e 079F     		ldr	r7, [sp, #28]
 918:Middlewares/lvgl/src/draw/lv_draw_rect.c ****             lv_opa_t opa_tmp = sh_buf_tmp[0];
 3366              		.loc 1 918 9 view .LVU1295
 3367 0b90 1EE0     		b	.L127
 3368              	.LVL306:
 3369              	.L128:
 3370              	.LBB284:
 922:Middlewares/lvgl/src/draw/lv_draw_rect.c **** 
 3371              		.loc 1 922 13 is_stmt 1 view .LVU1296
 3372 0b92 5A46     		mov	r2, fp
 3373 0b94 3046     		mov	r0, r6
ARM GAS  /tmp/ccUpPomB.s 			page 103


 3374 0b96 FFF7FEFF 		bl	lv_memset
 3375              	.LVL307:
 924:Middlewares/lvgl/src/draw/lv_draw_rect.c ****                 mask_res = LV_DRAW_MASK_RES_CHANGED;
 3376              		.loc 1 924 13 view .LVU1297
 924:Middlewares/lvgl/src/draw/lv_draw_rect.c ****                 mask_res = LV_DRAW_MASK_RES_CHANGED;
 3377              		.loc 1 924 15 is_stmt 0 view .LVU1298
 3378 0b9a 069B     		ldr	r3, [sp, #24]
 3379 0b9c 2BB3     		cbz	r3, .L188
 925:Middlewares/lvgl/src/draw/lv_draw_rect.c ****             }
 3380              		.loc 1 925 26 view .LVU1299
 3381 0b9e 0220     		movs	r0, #2
 3382              	.L129:
 3383              	.LVL308:
 932:Middlewares/lvgl/src/draw/lv_draw_rect.c ****                            mask_res, LV_OPA_COVER, dsc->blend_mode);
 3384              		.loc 1 932 13 is_stmt 1 discriminator 2 view .LVU1300
 3385 0ba0 AB78     		ldrb	r3, [r5, #2]	@ zero_extendqisi2
 3386 0ba2 0293     		str	r3, [sp, #8]
 3387 0ba4 FF23     		movs	r3, #255
 3388 0ba6 0193     		str	r3, [sp, #4]
 3389 0ba8 0090     		str	r0, [sp]
 3390 0baa 3346     		mov	r3, r6
 3391 0bac 2A8D     		ldrh	r2, [r5, #40]
 3392 0bae 11A9     		add	r1, sp, #68
 3393 0bb0 0498     		ldr	r0, [sp, #16]
 3394              	.LVL309:
 932:Middlewares/lvgl/src/draw/lv_draw_rect.c ****                            mask_res, LV_OPA_COVER, dsc->blend_mode);
 3395              		.loc 1 932 13 is_stmt 0 discriminator 2 view .LVU1301
 3396 0bb2 FFF7FEFF 		bl	_lv_blend_fill
 3397              	.LVL310:
 934:Middlewares/lvgl/src/draw/lv_draw_rect.c ****             fa.y2++;
 3398              		.loc 1 934 13 is_stmt 1 discriminator 2 view .LVU1302
 934:Middlewares/lvgl/src/draw/lv_draw_rect.c ****             fa.y2++;
 3399              		.loc 1 934 15 is_stmt 0 discriminator 2 view .LVU1303
 3400 0bb6 BDF94630 		ldrsh	r3, [sp, #70]
 934:Middlewares/lvgl/src/draw/lv_draw_rect.c ****             fa.y2++;
 3401              		.loc 1 934 18 discriminator 2 view .LVU1304
 3402 0bba 0133     		adds	r3, r3, #1
 3403 0bbc ADF84630 		strh	r3, [sp, #70]	@ movhi
 935:Middlewares/lvgl/src/draw/lv_draw_rect.c ****             sh_buf_tmp += corner_size;
 3404              		.loc 1 935 13 is_stmt 1 discriminator 2 view .LVU1305
 935:Middlewares/lvgl/src/draw/lv_draw_rect.c ****             sh_buf_tmp += corner_size;
 3405              		.loc 1 935 15 is_stmt 0 discriminator 2 view .LVU1306
 3406 0bc0 BDF94A30 		ldrsh	r3, [sp, #74]
 935:Middlewares/lvgl/src/draw/lv_draw_rect.c ****             sh_buf_tmp += corner_size;
 3407              		.loc 1 935 18 discriminator 2 view .LVU1307
 3408 0bc4 0133     		adds	r3, r3, #1
 3409 0bc6 ADF84A30 		strh	r3, [sp, #74]	@ movhi
 936:Middlewares/lvgl/src/draw/lv_draw_rect.c ****         }
 3410              		.loc 1 936 13 is_stmt 1 discriminator 2 view .LVU1308
 936:Middlewares/lvgl/src/draw/lv_draw_rect.c ****         }
 3411              		.loc 1 936 24 is_stmt 0 discriminator 2 view .LVU1309
 3412 0bca A044     		add	r8, r8, r4
 3413              	.LVL311:
 936:Middlewares/lvgl/src/draw/lv_draw_rect.c ****         }
 3414              		.loc 1 936 24 discriminator 2 view .LVU1310
 3415              	.LBE284:
 918:Middlewares/lvgl/src/draw/lv_draw_rect.c ****             lv_opa_t opa_tmp = sh_buf_tmp[0];
ARM GAS  /tmp/ccUpPomB.s 			page 104


 3416              		.loc 1 918 27 is_stmt 1 discriminator 2 view .LVU1311
 918:Middlewares/lvgl/src/draw/lv_draw_rect.c ****             lv_opa_t opa_tmp = sh_buf_tmp[0];
 3417              		.loc 1 918 28 is_stmt 0 discriminator 2 view .LVU1312
 3418 0bcc 09F10109 		add	r9, r9, #1
 3419              	.LVL312:
 3420              	.L127:
 918:Middlewares/lvgl/src/draw/lv_draw_rect.c ****             lv_opa_t opa_tmp = sh_buf_tmp[0];
 3421              		.loc 1 918 20 is_stmt 1 discriminator 1 view .LVU1313
 918:Middlewares/lvgl/src/draw/lv_draw_rect.c ****             lv_opa_t opa_tmp = sh_buf_tmp[0];
 3422              		.loc 1 918 9 is_stmt 0 discriminator 1 view .LVU1314
 3423 0bd0 CA45     		cmp	r10, r9
 3424 0bd2 16DD     		ble	.L189
 3425              	.LBB285:
 919:Middlewares/lvgl/src/draw/lv_draw_rect.c ****             if(opa_tmp != LV_OPA_COVER || opa != LV_OPA_COVER) opa_tmp = (opa * opa_tmp) >> 8;
 3426              		.loc 1 919 13 is_stmt 1 view .LVU1315
 919:Middlewares/lvgl/src/draw/lv_draw_rect.c ****             if(opa_tmp != LV_OPA_COVER || opa != LV_OPA_COVER) opa_tmp = (opa * opa_tmp) >> 8;
 3427              		.loc 1 919 22 is_stmt 0 view .LVU1316
 3428 0bd4 98F80010 		ldrb	r1, [r8]	@ zero_extendqisi2
 3429              	.LVL313:
 920:Middlewares/lvgl/src/draw/lv_draw_rect.c **** 
 3430              		.loc 1 920 13 is_stmt 1 view .LVU1317
 920:Middlewares/lvgl/src/draw/lv_draw_rect.c **** 
 3431              		.loc 1 920 15 is_stmt 0 view .LVU1318
 3432 0bd8 07EA0103 		and	r3, r7, r1
 3433 0bdc FF2B     		cmp	r3, #255
 3434 0bde D8D0     		beq	.L128
 920:Middlewares/lvgl/src/draw/lv_draw_rect.c **** 
 3435              		.loc 1 920 64 is_stmt 1 discriminator 1 view .LVU1319
 920:Middlewares/lvgl/src/draw/lv_draw_rect.c **** 
 3436              		.loc 1 920 79 is_stmt 0 discriminator 1 view .LVU1320
 3437 0be0 07FB01F1 		mul	r1, r7, r1
 3438              	.LVL314:
 920:Middlewares/lvgl/src/draw/lv_draw_rect.c **** 
 3439              		.loc 1 920 72 discriminator 1 view .LVU1321
 3440 0be4 C1F30721 		ubfx	r1, r1, #8, #8
 3441              	.LVL315:
 920:Middlewares/lvgl/src/draw/lv_draw_rect.c **** 
 3442              		.loc 1 920 72 discriminator 1 view .LVU1322
 3443 0be8 D3E7     		b	.L128
 3444              	.LVL316:
 3445              	.L188:
 928:Middlewares/lvgl/src/draw/lv_draw_rect.c ****                 if(mask_res == LV_DRAW_MASK_RES_FULL_COVER) mask_res = LV_DRAW_MASK_RES_CHANGED;
 3446              		.loc 1 928 17 is_stmt 1 view .LVU1323
 928:Middlewares/lvgl/src/draw/lv_draw_rect.c ****                 if(mask_res == LV_DRAW_MASK_RES_FULL_COVER) mask_res = LV_DRAW_MASK_RES_CHANGED;
 3447              		.loc 1 928 28 is_stmt 0 view .LVU1324
 3448 0bea 5B46     		mov	r3, fp
 3449 0bec BDF94620 		ldrsh	r2, [sp, #70]
 3450 0bf0 BDF94410 		ldrsh	r1, [sp, #68]
 3451 0bf4 3046     		mov	r0, r6
 3452 0bf6 FFF7FEFF 		bl	lv_draw_mask_apply
 3453              	.LVL317:
 929:Middlewares/lvgl/src/draw/lv_draw_rect.c ****             }
 3454              		.loc 1 929 17 is_stmt 1 view .LVU1325
 929:Middlewares/lvgl/src/draw/lv_draw_rect.c ****             }
 3455              		.loc 1 929 19 is_stmt 0 view .LVU1326
 3456 0bfa 0128     		cmp	r0, #1
 3457 0bfc D0D1     		bne	.L129
ARM GAS  /tmp/ccUpPomB.s 			page 105


 929:Middlewares/lvgl/src/draw/lv_draw_rect.c ****             }
 3458              		.loc 1 929 70 view .LVU1327
 3459 0bfe 0220     		movs	r0, #2
 3460              	.LVL318:
 929:Middlewares/lvgl/src/draw/lv_draw_rect.c ****             }
 3461              		.loc 1 929 70 view .LVU1328
 3462 0c00 CEE7     		b	.L129
 3463              	.L189:
 929:Middlewares/lvgl/src/draw/lv_draw_rect.c ****             }
 3464              		.loc 1 929 70 view .LVU1329
 3465 0c02 0C9F     		ldr	r7, [sp, #48]
 3466 0c04 9DE5     		b	.L124
 3467              	.LVL319:
 3468              	.L181:
 929:Middlewares/lvgl/src/draw/lv_draw_rect.c ****             }
 3469              		.loc 1 929 70 view .LVU1330
 3470              	.LBE285:
 3471              	.LBE277:
 947:Middlewares/lvgl/src/draw/lv_draw_rect.c ****         /*Avoid overlap in the middle with large radius*/
 3472              		.loc 1 947 19 discriminator 1 view .LVU1331
 3473 0c06 089A     		ldr	r2, [sp, #32]
 3474 0c08 1EA9     		add	r1, sp, #120
 3475 0c0a 15A8     		add	r0, sp, #84
 3476              	.LVL320:
 947:Middlewares/lvgl/src/draw/lv_draw_rect.c ****         /*Avoid overlap in the middle with large radius*/
 3477              		.loc 1 947 19 discriminator 1 view .LVU1332
 3478 0c0c FFF7FEFF 		bl	_lv_area_is_in
 3479              	.LVL321:
 947:Middlewares/lvgl/src/draw/lv_draw_rect.c ****         /*Avoid overlap in the middle with large radius*/
 3480              		.loc 1 947 16 discriminator 1 view .LVU1333
 3481 0c10 0028     		cmp	r0, #0
 3482 0c12 7FF4B2AD 		bne	.L131
 3483              	.LBB286:
 949:Middlewares/lvgl/src/draw/lv_draw_rect.c **** 
 3484              		.loc 1 949 9 is_stmt 1 view .LVU1334
 949:Middlewares/lvgl/src/draw/lv_draw_rect.c **** 
 3485              		.loc 1 949 14 is_stmt 0 view .LVU1335
 3486 0c16 BDF94E30 		ldrsh	r3, [sp, #78]
 949:Middlewares/lvgl/src/draw/lv_draw_rect.c **** 
 3487              		.loc 1 949 11 view .LVU1336
 3488 0c1a 0B9A     		ldr	r2, [sp, #44]
 3489 0c1c 9342     		cmp	r3, r2
 3490 0c1e 03DC     		bgt	.L132
 949:Middlewares/lvgl/src/draw/lv_draw_rect.c **** 
 3491              		.loc 1 949 29 is_stmt 1 discriminator 1 view .LVU1337
 949:Middlewares/lvgl/src/draw/lv_draw_rect.c **** 
 3492              		.loc 1 949 44 is_stmt 0 discriminator 1 view .LVU1338
 3493 0c20 0D9B     		ldr	r3, [sp, #52]
 3494 0c22 0133     		adds	r3, r3, #1
 949:Middlewares/lvgl/src/draw/lv_draw_rect.c **** 
 3495              		.loc 1 949 35 discriminator 1 view .LVU1339
 3496 0c24 ADF84E30 		strh	r3, [sp, #78]	@ movhi
 3497              	.L132:
 951:Middlewares/lvgl/src/draw/lv_draw_rect.c **** 
 3498              		.loc 1 951 9 is_stmt 1 view .LVU1340
 951:Middlewares/lvgl/src/draw/lv_draw_rect.c **** 
 3499              		.loc 1 951 11 is_stmt 0 view .LVU1341
ARM GAS  /tmp/ccUpPomB.s 			page 106


 3500 0c28 069B     		ldr	r3, [sp, #24]
 3501 0c2a 4BB1     		cbz	r3, .L133
 951:Middlewares/lvgl/src/draw/lv_draw_rect.c **** 
 3502              		.loc 1 951 25 is_stmt 1 discriminator 1 view .LVU1342
 951:Middlewares/lvgl/src/draw/lv_draw_rect.c **** 
 3503              		.loc 1 951 33 is_stmt 0 discriminator 1 view .LVU1343
 3504 0c2c 059B     		ldr	r3, [sp, #20]
 3505 0c2e B3F90630 		ldrsh	r3, [r3, #6]
 3506 0c32 BDF94E20 		ldrsh	r2, [sp, #78]
 3507 0c36 9342     		cmp	r3, r2
 3508 0c38 B8BF     		it	lt
 3509 0c3a 1346     		movlt	r3, r2
 951:Middlewares/lvgl/src/draw/lv_draw_rect.c **** 
 3510              		.loc 1 951 31 discriminator 1 view .LVU1344
 3511 0c3c ADF84E30 		strh	r3, [sp, #78]	@ movhi
 3512              	.L133:
 954:Middlewares/lvgl/src/draw/lv_draw_rect.c ****         lv_coord_t h = lv_area_get_height(&ca);
 3513              		.loc 1 954 9 is_stmt 1 view .LVU1345
 3514              	.LVL322:
 3515              	.LBB287:
 3516              	.LBI287:
 133:Middlewares/lvgl/src/draw/../misc/lv_area.h **** {
 3517              		.loc 2 133 26 view .LVU1346
 3518              	.LBB288:
 135:Middlewares/lvgl/src/draw/../misc/lv_area.h **** }
 3519              		.loc 2 135 5 view .LVU1347
 135:Middlewares/lvgl/src/draw/../misc/lv_area.h **** }
 3520              		.loc 2 135 31 is_stmt 0 view .LVU1348
 3521 0c40 BDF950E0 		ldrsh	lr, [sp, #80]
 3522 0c44 1FFA8EFA 		uxth	r10, lr
 135:Middlewares/lvgl/src/draw/../misc/lv_area.h **** }
 3523              		.loc 2 135 44 view .LVU1349
 3524 0c48 BDF94C00 		ldrsh	r0, [sp, #76]
 3525 0c4c 83B2     		uxth	r3, r0
 135:Middlewares/lvgl/src/draw/../misc/lv_area.h **** }
 3526              		.loc 2 135 36 view .LVU1350
 3527 0c4e AAEB030A 		sub	r10, r10, r3
 3528 0c52 1FFA8AFA 		uxth	r10, r10
 135:Middlewares/lvgl/src/draw/../misc/lv_area.h **** }
 3529              		.loc 2 135 49 view .LVU1351
 3530 0c56 0AF1010A 		add	r10, r10, #1
 135:Middlewares/lvgl/src/draw/../misc/lv_area.h **** }
 3531              		.loc 2 135 12 view .LVU1352
 3532 0c5a 0FFA8AFA 		sxth	r10, r10
 3533              	.LVL323:
 135:Middlewares/lvgl/src/draw/../misc/lv_area.h **** }
 3534              		.loc 2 135 12 view .LVU1353
 3535              	.LBE288:
 3536              	.LBE287:
 955:Middlewares/lvgl/src/draw/lv_draw_rect.c ****         sh_buf_tmp = sh_buf + corner_size - 1;
 3537              		.loc 1 955 9 is_stmt 1 view .LVU1354
 3538              	.LBB289:
 3539              	.LBI289:
 143:Middlewares/lvgl/src/draw/../misc/lv_area.h **** {
 3540              		.loc 2 143 26 view .LVU1355
 3541              	.LBB290:
 3542              		.loc 2 145 5 view .LVU1356
ARM GAS  /tmp/ccUpPomB.s 			page 107


 3543              		.loc 2 145 31 is_stmt 0 view .LVU1357
 3544 0c5e BDF95230 		ldrsh	r3, [sp, #82]
 3545 0c62 1FFA83FB 		uxth	fp, r3
 3546              		.loc 2 145 44 view .LVU1358
 3547 0c66 BDF94E10 		ldrsh	r1, [sp, #78]
 3548 0c6a 1FFA81FC 		uxth	ip, r1
 3549              		.loc 2 145 36 view .LVU1359
 3550 0c6e ABEB0C0B 		sub	fp, fp, ip
 3551 0c72 1FFA8BFB 		uxth	fp, fp
 3552              		.loc 2 145 49 view .LVU1360
 3553 0c76 0BF1010B 		add	fp, fp, #1
 3554              		.loc 2 145 12 view .LVU1361
 3555 0c7a 0FFA8BFB 		sxth	fp, fp
 3556              	.LVL324:
 3557              		.loc 2 145 12 view .LVU1362
 3558              	.LBE290:
 3559              	.LBE289:
 956:Middlewares/lvgl/src/draw/lv_draw_rect.c ****         sh_buf_tmp += corner_size * (a.y2 - ca.y2);
 3560              		.loc 1 956 9 is_stmt 1 view .LVU1363
 956:Middlewares/lvgl/src/draw/lv_draw_rect.c ****         sh_buf_tmp += corner_size * (a.y2 - ca.y2);
 3561              		.loc 1 956 43 is_stmt 0 view .LVU1364
 3562 0c7e 04F1FF38 		add	r8, r4, #-1
 957:Middlewares/lvgl/src/draw/lv_draw_rect.c **** 
 3563              		.loc 1 957 9 is_stmt 1 view .LVU1365
 957:Middlewares/lvgl/src/draw/lv_draw_rect.c **** 
 3564              		.loc 1 957 39 is_stmt 0 view .LVU1366
 3565 0c82 BDF95AC0 		ldrsh	ip, [sp, #90]
 957:Middlewares/lvgl/src/draw/lv_draw_rect.c **** 
 3566              		.loc 1 957 43 view .LVU1367
 3567 0c86 ACEB030C 		sub	ip, ip, r3
 957:Middlewares/lvgl/src/draw/lv_draw_rect.c **** 
 3568              		.loc 1 957 20 view .LVU1368
 3569 0c8a 04FB0C88 		mla	r8, r4, ip, r8
 3570 0c8e 099A     		ldr	r2, [sp, #36]
 3571 0c90 9044     		add	r8, r8, r2
 3572              	.LVL325:
 959:Middlewares/lvgl/src/draw/lv_draw_rect.c ****         lv_area_copy(&fa, &ca);
 3573              		.loc 1 959 9 is_stmt 1 view .LVU1369
 960:Middlewares/lvgl/src/draw/lv_draw_rect.c ****         fa.y1 = fa.y2;
 3574              		.loc 1 960 9 view .LVU1370
 3575              	.LBB291:
 3576              	.LBI291:
 120:Middlewares/lvgl/src/draw/../misc/lv_area.h **** {
 3577              		.loc 2 120 20 view .LVU1371
 3578              	.LBB292:
 122:Middlewares/lvgl/src/draw/../misc/lv_area.h ****     dest->y1 = src->y1;
 3579              		.loc 2 122 5 view .LVU1372
 122:Middlewares/lvgl/src/draw/../misc/lv_area.h ****     dest->y1 = src->y1;
 3580              		.loc 2 122 14 is_stmt 0 view .LVU1373
 3581 0c92 ADF84400 		strh	r0, [sp, #68]	@ movhi
 123:Middlewares/lvgl/src/draw/../misc/lv_area.h ****     dest->x2 = src->x2;
 3582              		.loc 2 123 5 is_stmt 1 view .LVU1374
 123:Middlewares/lvgl/src/draw/../misc/lv_area.h ****     dest->x2 = src->x2;
 3583              		.loc 2 123 14 is_stmt 0 view .LVU1375
 3584 0c96 ADF84610 		strh	r1, [sp, #70]	@ movhi
 124:Middlewares/lvgl/src/draw/../misc/lv_area.h ****     dest->y2 = src->y2;
 3585              		.loc 2 124 5 is_stmt 1 view .LVU1376
ARM GAS  /tmp/ccUpPomB.s 			page 108


 124:Middlewares/lvgl/src/draw/../misc/lv_area.h ****     dest->y2 = src->y2;
 3586              		.loc 2 124 14 is_stmt 0 view .LVU1377
 3587 0c9a ADF848E0 		strh	lr, [sp, #72]	@ movhi
 125:Middlewares/lvgl/src/draw/../misc/lv_area.h **** }
 3588              		.loc 2 125 5 is_stmt 1 view .LVU1378
 125:Middlewares/lvgl/src/draw/../misc/lv_area.h **** }
 3589              		.loc 2 125 14 is_stmt 0 view .LVU1379
 3590 0c9e ADF84A30 		strh	r3, [sp, #74]	@ movhi
 3591              	.LVL326:
 125:Middlewares/lvgl/src/draw/../misc/lv_area.h **** }
 3592              		.loc 2 125 14 view .LVU1380
 3593              	.LBE292:
 3594              	.LBE291:
 961:Middlewares/lvgl/src/draw/lv_draw_rect.c ****         for(y = 0; y < h; y++) {
 3595              		.loc 1 961 9 is_stmt 1 view .LVU1381
 961:Middlewares/lvgl/src/draw/lv_draw_rect.c ****         for(y = 0; y < h; y++) {
 3596              		.loc 1 961 15 is_stmt 0 view .LVU1382
 3597 0ca2 ADF84630 		strh	r3, [sp, #70]	@ movhi
 962:Middlewares/lvgl/src/draw/lv_draw_rect.c ****             lv_opa_t opa_tmp = sh_buf_tmp[0];
 3598              		.loc 1 962 9 is_stmt 1 view .LVU1383
 3599              	.LVL327:
 962:Middlewares/lvgl/src/draw/lv_draw_rect.c ****             lv_opa_t opa_tmp = sh_buf_tmp[0];
 3600              		.loc 1 962 15 is_stmt 0 view .LVU1384
 3601 0ca6 4FF00009 		mov	r9, #0
 3602 0caa 0597     		str	r7, [sp, #20]
 3603              	.LVL328:
 962:Middlewares/lvgl/src/draw/lv_draw_rect.c ****             lv_opa_t opa_tmp = sh_buf_tmp[0];
 3604              		.loc 1 962 15 view .LVU1385
 3605 0cac 079F     		ldr	r7, [sp, #28]
 962:Middlewares/lvgl/src/draw/lv_draw_rect.c ****             lv_opa_t opa_tmp = sh_buf_tmp[0];
 3606              		.loc 1 962 9 view .LVU1386
 3607 0cae 1EE0     		b	.L134
 3608              	.LVL329:
 3609              	.L135:
 3610              	.LBB293:
 966:Middlewares/lvgl/src/draw/lv_draw_rect.c ****             if(simple_mode) {
 3611              		.loc 1 966 13 is_stmt 1 view .LVU1387
 3612 0cb0 5246     		mov	r2, r10
 3613 0cb2 3046     		mov	r0, r6
 3614 0cb4 FFF7FEFF 		bl	lv_memset
 3615              	.LVL330:
 967:Middlewares/lvgl/src/draw/lv_draw_rect.c ****                 mask_res = LV_DRAW_MASK_RES_CHANGED;
 3616              		.loc 1 967 13 view .LVU1388
 967:Middlewares/lvgl/src/draw/lv_draw_rect.c ****                 mask_res = LV_DRAW_MASK_RES_CHANGED;
 3617              		.loc 1 967 15 is_stmt 0 view .LVU1389
 3618 0cb8 069B     		ldr	r3, [sp, #24]
 3619 0cba 2BB3     		cbz	r3, .L190
 968:Middlewares/lvgl/src/draw/lv_draw_rect.c ****             }
 3620              		.loc 1 968 26 view .LVU1390
 3621 0cbc 0220     		movs	r0, #2
 3622              	.L136:
 3623              	.LVL331:
 975:Middlewares/lvgl/src/draw/lv_draw_rect.c ****                            mask_res, LV_OPA_COVER, dsc->blend_mode);
 3624              		.loc 1 975 13 is_stmt 1 discriminator 2 view .LVU1391
 3625 0cbe AB78     		ldrb	r3, [r5, #2]	@ zero_extendqisi2
 3626 0cc0 0293     		str	r3, [sp, #8]
 3627 0cc2 FF23     		movs	r3, #255
ARM GAS  /tmp/ccUpPomB.s 			page 109


 3628 0cc4 0193     		str	r3, [sp, #4]
 3629 0cc6 0090     		str	r0, [sp]
 3630 0cc8 3346     		mov	r3, r6
 3631 0cca 2A8D     		ldrh	r2, [r5, #40]
 3632 0ccc 11A9     		add	r1, sp, #68
 3633 0cce 0498     		ldr	r0, [sp, #16]
 3634              	.LVL332:
 975:Middlewares/lvgl/src/draw/lv_draw_rect.c ****                            mask_res, LV_OPA_COVER, dsc->blend_mode);
 3635              		.loc 1 975 13 is_stmt 0 discriminator 2 view .LVU1392
 3636 0cd0 FFF7FEFF 		bl	_lv_blend_fill
 3637              	.LVL333:
 977:Middlewares/lvgl/src/draw/lv_draw_rect.c ****             fa.y2--;
 3638              		.loc 1 977 13 is_stmt 1 discriminator 2 view .LVU1393
 977:Middlewares/lvgl/src/draw/lv_draw_rect.c ****             fa.y2--;
 3639              		.loc 1 977 15 is_stmt 0 discriminator 2 view .LVU1394
 3640 0cd4 BDF94630 		ldrsh	r3, [sp, #70]
 977:Middlewares/lvgl/src/draw/lv_draw_rect.c ****             fa.y2--;
 3641              		.loc 1 977 18 discriminator 2 view .LVU1395
 3642 0cd8 013B     		subs	r3, r3, #1
 3643 0cda ADF84630 		strh	r3, [sp, #70]	@ movhi
 978:Middlewares/lvgl/src/draw/lv_draw_rect.c ****             sh_buf_tmp += corner_size;
 3644              		.loc 1 978 13 is_stmt 1 discriminator 2 view .LVU1396
 978:Middlewares/lvgl/src/draw/lv_draw_rect.c ****             sh_buf_tmp += corner_size;
 3645              		.loc 1 978 15 is_stmt 0 discriminator 2 view .LVU1397
 3646 0cde BDF94A30 		ldrsh	r3, [sp, #74]
 978:Middlewares/lvgl/src/draw/lv_draw_rect.c ****             sh_buf_tmp += corner_size;
 3647              		.loc 1 978 18 discriminator 2 view .LVU1398
 3648 0ce2 013B     		subs	r3, r3, #1
 3649 0ce4 ADF84A30 		strh	r3, [sp, #74]	@ movhi
 979:Middlewares/lvgl/src/draw/lv_draw_rect.c ****         }
 3650              		.loc 1 979 13 is_stmt 1 discriminator 2 view .LVU1399
 979:Middlewares/lvgl/src/draw/lv_draw_rect.c ****         }
 3651              		.loc 1 979 24 is_stmt 0 discriminator 2 view .LVU1400
 3652 0ce8 A044     		add	r8, r8, r4
 3653              	.LVL334:
 979:Middlewares/lvgl/src/draw/lv_draw_rect.c ****         }
 3654              		.loc 1 979 24 discriminator 2 view .LVU1401
 3655              	.LBE293:
 962:Middlewares/lvgl/src/draw/lv_draw_rect.c ****             lv_opa_t opa_tmp = sh_buf_tmp[0];
 3656              		.loc 1 962 27 is_stmt 1 discriminator 2 view .LVU1402
 962:Middlewares/lvgl/src/draw/lv_draw_rect.c ****             lv_opa_t opa_tmp = sh_buf_tmp[0];
 3657              		.loc 1 962 28 is_stmt 0 discriminator 2 view .LVU1403
 3658 0cea 09F10109 		add	r9, r9, #1
 3659              	.LVL335:
 3660              	.L134:
 962:Middlewares/lvgl/src/draw/lv_draw_rect.c ****             lv_opa_t opa_tmp = sh_buf_tmp[0];
 3661              		.loc 1 962 20 is_stmt 1 discriminator 1 view .LVU1404
 962:Middlewares/lvgl/src/draw/lv_draw_rect.c ****             lv_opa_t opa_tmp = sh_buf_tmp[0];
 3662              		.loc 1 962 9 is_stmt 0 discriminator 1 view .LVU1405
 3663 0cee CB45     		cmp	fp, r9
 3664 0cf0 16DD     		ble	.L191
 3665              	.LBB294:
 963:Middlewares/lvgl/src/draw/lv_draw_rect.c ****             if(opa_tmp != LV_OPA_COVER || opa != LV_OPA_COVER) opa_tmp = (opa * opa_tmp) >> 8;
 3666              		.loc 1 963 13 is_stmt 1 view .LVU1406
 963:Middlewares/lvgl/src/draw/lv_draw_rect.c ****             if(opa_tmp != LV_OPA_COVER || opa != LV_OPA_COVER) opa_tmp = (opa * opa_tmp) >> 8;
 3667              		.loc 1 963 22 is_stmt 0 view .LVU1407
 3668 0cf2 98F80010 		ldrb	r1, [r8]	@ zero_extendqisi2
ARM GAS  /tmp/ccUpPomB.s 			page 110


 3669              	.LVL336:
 964:Middlewares/lvgl/src/draw/lv_draw_rect.c **** 
 3670              		.loc 1 964 13 is_stmt 1 view .LVU1408
 964:Middlewares/lvgl/src/draw/lv_draw_rect.c **** 
 3671              		.loc 1 964 15 is_stmt 0 view .LVU1409
 3672 0cf6 07EA0103 		and	r3, r7, r1
 3673 0cfa FF2B     		cmp	r3, #255
 3674 0cfc D8D0     		beq	.L135
 964:Middlewares/lvgl/src/draw/lv_draw_rect.c **** 
 3675              		.loc 1 964 64 is_stmt 1 discriminator 1 view .LVU1410
 964:Middlewares/lvgl/src/draw/lv_draw_rect.c **** 
 3676              		.loc 1 964 79 is_stmt 0 discriminator 1 view .LVU1411
 3677 0cfe 07FB01F1 		mul	r1, r7, r1
 3678              	.LVL337:
 964:Middlewares/lvgl/src/draw/lv_draw_rect.c **** 
 3679              		.loc 1 964 72 discriminator 1 view .LVU1412
 3680 0d02 C1F30721 		ubfx	r1, r1, #8, #8
 3681              	.LVL338:
 964:Middlewares/lvgl/src/draw/lv_draw_rect.c **** 
 3682              		.loc 1 964 72 discriminator 1 view .LVU1413
 3683 0d06 D3E7     		b	.L135
 3684              	.LVL339:
 3685              	.L190:
 971:Middlewares/lvgl/src/draw/lv_draw_rect.c ****                 if(mask_res == LV_DRAW_MASK_RES_FULL_COVER) mask_res = LV_DRAW_MASK_RES_CHANGED;
 3686              		.loc 1 971 17 is_stmt 1 view .LVU1414
 971:Middlewares/lvgl/src/draw/lv_draw_rect.c ****                 if(mask_res == LV_DRAW_MASK_RES_FULL_COVER) mask_res = LV_DRAW_MASK_RES_CHANGED;
 3687              		.loc 1 971 28 is_stmt 0 view .LVU1415
 3688 0d08 5346     		mov	r3, r10
 3689 0d0a BDF94620 		ldrsh	r2, [sp, #70]
 3690 0d0e BDF94410 		ldrsh	r1, [sp, #68]
 3691 0d12 3046     		mov	r0, r6
 3692 0d14 FFF7FEFF 		bl	lv_draw_mask_apply
 3693              	.LVL340:
 972:Middlewares/lvgl/src/draw/lv_draw_rect.c ****             }
 3694              		.loc 1 972 17 is_stmt 1 view .LVU1416
 972:Middlewares/lvgl/src/draw/lv_draw_rect.c ****             }
 3695              		.loc 1 972 19 is_stmt 0 view .LVU1417
 3696 0d18 0128     		cmp	r0, #1
 3697 0d1a D0D1     		bne	.L136
 972:Middlewares/lvgl/src/draw/lv_draw_rect.c ****             }
 3698              		.loc 1 972 70 view .LVU1418
 3699 0d1c 0220     		movs	r0, #2
 3700              	.LVL341:
 972:Middlewares/lvgl/src/draw/lv_draw_rect.c ****             }
 3701              		.loc 1 972 70 view .LVU1419
 3702 0d1e CEE7     		b	.L136
 3703              	.L191:
 972:Middlewares/lvgl/src/draw/lv_draw_rect.c ****             }
 3704              		.loc 1 972 70 view .LVU1420
 3705 0d20 059F     		ldr	r7, [sp, #20]
 3706 0d22 2AE5     		b	.L131
 3707              	.LVL342:
 3708              	.L182:
 972:Middlewares/lvgl/src/draw/lv_draw_rect.c ****             }
 3709              		.loc 1 972 70 view .LVU1421
 3710              	.LBE294:
 3711              	.LBE286:
ARM GAS  /tmp/ccUpPomB.s 			page 111


 990:Middlewares/lvgl/src/draw/lv_draw_rect.c ****         /*Draw horizontal lines*/
 3712              		.loc 1 990 44 discriminator 1 view .LVU1422
 3713 0d24 089A     		ldr	r2, [sp, #32]
 3714 0d26 1EA9     		add	r1, sp, #120
 3715 0d28 15A8     		add	r0, sp, #84
 3716              	.LVL343:
 990:Middlewares/lvgl/src/draw/lv_draw_rect.c ****         /*Draw horizontal lines*/
 3717              		.loc 1 990 44 discriminator 1 view .LVU1423
 3718 0d2a FFF7FEFF 		bl	_lv_area_is_in
 3719              	.LVL344:
 990:Middlewares/lvgl/src/draw/lv_draw_rect.c ****         /*Draw horizontal lines*/
 3720              		.loc 1 990 40 discriminator 1 view .LVU1424
 3721 0d2e 0028     		cmp	r0, #0
 3722 0d30 7FF443AD 		bne	.L138
 3723              	.LBB295:
 992:Middlewares/lvgl/src/draw/lv_draw_rect.c ****         lv_coord_t h = lv_area_get_height(&ca);
 3724              		.loc 1 992 9 is_stmt 1 view .LVU1425
 3725              	.LVL345:
 3726              	.LBB296:
 3727              	.LBI296:
 133:Middlewares/lvgl/src/draw/../misc/lv_area.h **** {
 3728              		.loc 2 133 26 view .LVU1426
 3729              	.LBB297:
 135:Middlewares/lvgl/src/draw/../misc/lv_area.h **** }
 3730              		.loc 2 135 5 view .LVU1427
 135:Middlewares/lvgl/src/draw/../misc/lv_area.h **** }
 3731              		.loc 2 135 31 is_stmt 0 view .LVU1428
 3732 0d34 BDF95010 		ldrsh	r1, [sp, #80]
 3733 0d38 8FB2     		uxth	r7, r1
 135:Middlewares/lvgl/src/draw/../misc/lv_area.h **** }
 3734              		.loc 2 135 44 view .LVU1429
 3735 0d3a BDF94C00 		ldrsh	r0, [sp, #76]
 3736 0d3e 83B2     		uxth	r3, r0
 135:Middlewares/lvgl/src/draw/../misc/lv_area.h **** }
 3737              		.loc 2 135 36 view .LVU1430
 3738 0d40 FF1A     		subs	r7, r7, r3
 3739 0d42 BFB2     		uxth	r7, r7
 135:Middlewares/lvgl/src/draw/../misc/lv_area.h **** }
 3740              		.loc 2 135 49 view .LVU1431
 3741 0d44 0137     		adds	r7, r7, #1
 135:Middlewares/lvgl/src/draw/../misc/lv_area.h **** }
 3742              		.loc 2 135 12 view .LVU1432
 3743 0d46 3FB2     		sxth	r7, r7
 3744              	.LVL346:
 135:Middlewares/lvgl/src/draw/../misc/lv_area.h **** }
 3745              		.loc 2 135 12 view .LVU1433
 3746              	.LBE297:
 3747              	.LBE296:
 993:Middlewares/lvgl/src/draw/lv_draw_rect.c **** 
 3748              		.loc 1 993 9 is_stmt 1 view .LVU1434
 3749              	.LBB298:
 3750              	.LBI298:
 143:Middlewares/lvgl/src/draw/../misc/lv_area.h **** {
 3751              		.loc 2 143 26 view .LVU1435
 3752              	.LBB299:
 3753              		.loc 2 145 5 view .LVU1436
 3754              		.loc 2 145 31 is_stmt 0 view .LVU1437
ARM GAS  /tmp/ccUpPomB.s 			page 112


 3755 0d48 BDF95220 		ldrsh	r2, [sp, #82]
 3756 0d4c 1FFA82F8 		uxth	r8, r2
 3757              		.loc 2 145 44 view .LVU1438
 3758 0d50 BDF94E30 		ldrsh	r3, [sp, #78]
 3759 0d54 9CB2     		uxth	r4, r3
 3760              		.loc 2 145 36 view .LVU1439
 3761 0d56 A8EB0408 		sub	r8, r8, r4
 3762 0d5a 1FFA88F8 		uxth	r8, r8
 3763              		.loc 2 145 49 view .LVU1440
 3764 0d5e 08F10108 		add	r8, r8, #1
 3765              		.loc 2 145 12 view .LVU1441
 3766 0d62 0FFA88F8 		sxth	r8, r8
 3767              	.LVL347:
 3768              		.loc 2 145 12 view .LVU1442
 3769              	.LBE299:
 3770              	.LBE298:
 995:Middlewares/lvgl/src/draw/lv_draw_rect.c ****         lv_area_copy(&fa, &ca);
 3771              		.loc 1 995 9 is_stmt 1 view .LVU1443
 996:Middlewares/lvgl/src/draw/lv_draw_rect.c ****         fa.y2 = fa.y1;
 3772              		.loc 1 996 9 view .LVU1444
 3773              	.LBB300:
 3774              	.LBI300:
 120:Middlewares/lvgl/src/draw/../misc/lv_area.h **** {
 3775              		.loc 2 120 20 view .LVU1445
 3776              	.LBB301:
 122:Middlewares/lvgl/src/draw/../misc/lv_area.h ****     dest->y1 = src->y1;
 3777              		.loc 2 122 5 view .LVU1446
 122:Middlewares/lvgl/src/draw/../misc/lv_area.h ****     dest->y1 = src->y1;
 3778              		.loc 2 122 14 is_stmt 0 view .LVU1447
 3779 0d66 ADF84400 		strh	r0, [sp, #68]	@ movhi
 123:Middlewares/lvgl/src/draw/../misc/lv_area.h ****     dest->x2 = src->x2;
 3780              		.loc 2 123 5 is_stmt 1 view .LVU1448
 123:Middlewares/lvgl/src/draw/../misc/lv_area.h ****     dest->x2 = src->x2;
 3781              		.loc 2 123 14 is_stmt 0 view .LVU1449
 3782 0d6a ADF84630 		strh	r3, [sp, #70]	@ movhi
 124:Middlewares/lvgl/src/draw/../misc/lv_area.h ****     dest->y2 = src->y2;
 3783              		.loc 2 124 5 is_stmt 1 view .LVU1450
 124:Middlewares/lvgl/src/draw/../misc/lv_area.h ****     dest->y2 = src->y2;
 3784              		.loc 2 124 14 is_stmt 0 view .LVU1451
 3785 0d6e ADF84810 		strh	r1, [sp, #72]	@ movhi
 125:Middlewares/lvgl/src/draw/../misc/lv_area.h **** }
 3786              		.loc 2 125 5 is_stmt 1 view .LVU1452
 125:Middlewares/lvgl/src/draw/../misc/lv_area.h **** }
 3787              		.loc 2 125 14 is_stmt 0 view .LVU1453
 3788 0d72 ADF84A20 		strh	r2, [sp, #74]	@ movhi
 3789              	.LVL348:
 125:Middlewares/lvgl/src/draw/../misc/lv_area.h **** }
 3790              		.loc 2 125 14 view .LVU1454
 3791              	.LBE301:
 3792              	.LBE300:
 997:Middlewares/lvgl/src/draw/lv_draw_rect.c ****         for(y = 0; y < h; y++) {
 3793              		.loc 1 997 9 is_stmt 1 view .LVU1455
 997:Middlewares/lvgl/src/draw/lv_draw_rect.c ****         for(y = 0; y < h; y++) {
 3794              		.loc 1 997 15 is_stmt 0 view .LVU1456
 3795 0d76 ADF84A30 		strh	r3, [sp, #74]	@ movhi
 998:Middlewares/lvgl/src/draw/lv_draw_rect.c ****             lv_memset(mask_buf, dsc->shadow_opa, w);
 3796              		.loc 1 998 9 is_stmt 1 view .LVU1457
ARM GAS  /tmp/ccUpPomB.s 			page 113


 3797              	.LVL349:
 998:Middlewares/lvgl/src/draw/lv_draw_rect.c ****             lv_memset(mask_buf, dsc->shadow_opa, w);
 3798              		.loc 1 998 15 is_stmt 0 view .LVU1458
 3799 0d7a 0024     		movs	r4, #0
 3800 0d7c DDF81090 		ldr	r9, [sp, #16]
 998:Middlewares/lvgl/src/draw/lv_draw_rect.c ****             lv_memset(mask_buf, dsc->shadow_opa, w);
 3801              		.loc 1 998 9 view .LVU1459
 3802 0d80 15E0     		b	.L139
 3803              	.LVL350:
 3804              	.L140:
1003:Middlewares/lvgl/src/draw/lv_draw_rect.c ****                            mask_res, LV_OPA_COVER, dsc->blend_mode);
 3805              		.loc 1 1003 13 is_stmt 1 discriminator 2 view .LVU1460
 3806 0d82 AB78     		ldrb	r3, [r5, #2]	@ zero_extendqisi2
 3807 0d84 0293     		str	r3, [sp, #8]
 3808 0d86 FF23     		movs	r3, #255
 3809 0d88 0193     		str	r3, [sp, #4]
 3810 0d8a 0090     		str	r0, [sp]
 3811 0d8c 3346     		mov	r3, r6
 3812 0d8e 2A8D     		ldrh	r2, [r5, #40]
 3813 0d90 11A9     		add	r1, sp, #68
 3814 0d92 4846     		mov	r0, r9
 3815              	.LVL351:
1003:Middlewares/lvgl/src/draw/lv_draw_rect.c ****                            mask_res, LV_OPA_COVER, dsc->blend_mode);
 3816              		.loc 1 1003 13 is_stmt 0 discriminator 2 view .LVU1461
 3817 0d94 FFF7FEFF 		bl	_lv_blend_fill
 3818              	.LVL352:
1005:Middlewares/lvgl/src/draw/lv_draw_rect.c ****             fa.y2++;
 3819              		.loc 1 1005 13 is_stmt 1 discriminator 2 view .LVU1462
1005:Middlewares/lvgl/src/draw/lv_draw_rect.c ****             fa.y2++;
 3820              		.loc 1 1005 15 is_stmt 0 discriminator 2 view .LVU1463
 3821 0d98 BDF94630 		ldrsh	r3, [sp, #70]
1005:Middlewares/lvgl/src/draw/lv_draw_rect.c ****             fa.y2++;
 3822              		.loc 1 1005 18 discriminator 2 view .LVU1464
 3823 0d9c 0133     		adds	r3, r3, #1
 3824 0d9e ADF84630 		strh	r3, [sp, #70]	@ movhi
1006:Middlewares/lvgl/src/draw/lv_draw_rect.c ****         }
 3825              		.loc 1 1006 13 is_stmt 1 discriminator 2 view .LVU1465
1006:Middlewares/lvgl/src/draw/lv_draw_rect.c ****         }
 3826              		.loc 1 1006 15 is_stmt 0 discriminator 2 view .LVU1466
 3827 0da2 BDF94A30 		ldrsh	r3, [sp, #74]
1006:Middlewares/lvgl/src/draw/lv_draw_rect.c ****         }
 3828              		.loc 1 1006 18 discriminator 2 view .LVU1467
 3829 0da6 0133     		adds	r3, r3, #1
 3830 0da8 ADF84A30 		strh	r3, [sp, #74]	@ movhi
 998:Middlewares/lvgl/src/draw/lv_draw_rect.c ****             lv_memset(mask_buf, dsc->shadow_opa, w);
 3831              		.loc 1 998 27 is_stmt 1 discriminator 2 view .LVU1468
 998:Middlewares/lvgl/src/draw/lv_draw_rect.c ****             lv_memset(mask_buf, dsc->shadow_opa, w);
 3832              		.loc 1 998 28 is_stmt 0 discriminator 2 view .LVU1469
 3833 0dac 0134     		adds	r4, r4, #1
 3834              	.LVL353:
 3835              	.L139:
 998:Middlewares/lvgl/src/draw/lv_draw_rect.c ****             lv_memset(mask_buf, dsc->shadow_opa, w);
 3836              		.loc 1 998 20 is_stmt 1 discriminator 1 view .LVU1470
 998:Middlewares/lvgl/src/draw/lv_draw_rect.c ****             lv_memset(mask_buf, dsc->shadow_opa, w);
 3837              		.loc 1 998 9 is_stmt 0 discriminator 1 view .LVU1471
 3838 0dae A045     		cmp	r8, r4
 3839 0db0 7FF703AD 		ble	.L138
ARM GAS  /tmp/ccUpPomB.s 			page 114


 999:Middlewares/lvgl/src/draw/lv_draw_rect.c ****             mask_res = lv_draw_mask_apply(mask_buf, fa.x1, fa.y1, w);
 3840              		.loc 1 999 13 is_stmt 1 view .LVU1472
 3841 0db4 3A46     		mov	r2, r7
 3842 0db6 95F83210 		ldrb	r1, [r5, #50]	@ zero_extendqisi2
 3843 0dba 3046     		mov	r0, r6
 3844 0dbc FFF7FEFF 		bl	lv_memset
 3845              	.LVL354:
1000:Middlewares/lvgl/src/draw/lv_draw_rect.c ****             if(mask_res == LV_DRAW_MASK_RES_FULL_COVER) mask_res = LV_DRAW_MASK_RES_CHANGED;
 3846              		.loc 1 1000 13 view .LVU1473
1000:Middlewares/lvgl/src/draw/lv_draw_rect.c ****             if(mask_res == LV_DRAW_MASK_RES_FULL_COVER) mask_res = LV_DRAW_MASK_RES_CHANGED;
 3847              		.loc 1 1000 24 is_stmt 0 view .LVU1474
 3848 0dc0 3B46     		mov	r3, r7
 3849 0dc2 BDF94620 		ldrsh	r2, [sp, #70]
 3850 0dc6 BDF94410 		ldrsh	r1, [sp, #68]
 3851 0dca 3046     		mov	r0, r6
 3852 0dcc FFF7FEFF 		bl	lv_draw_mask_apply
 3853              	.LVL355:
1001:Middlewares/lvgl/src/draw/lv_draw_rect.c **** 
 3854              		.loc 1 1001 13 is_stmt 1 view .LVU1475
1001:Middlewares/lvgl/src/draw/lv_draw_rect.c **** 
 3855              		.loc 1 1001 15 is_stmt 0 view .LVU1476
 3856 0dd0 0128     		cmp	r0, #1
 3857 0dd2 D6D1     		bne	.L140
1001:Middlewares/lvgl/src/draw/lv_draw_rect.c **** 
 3858              		.loc 1 1001 66 view .LVU1477
 3859 0dd4 0220     		movs	r0, #2
 3860              	.LVL356:
1001:Middlewares/lvgl/src/draw/lv_draw_rect.c **** 
 3861              		.loc 1 1001 66 view .LVU1478
 3862 0dd6 D4E7     		b	.L140
 3863              	.LBE295:
 3864              		.cfi_endproc
 3865              	.LFE153:
 3867              		.section	.text.draw_full_border,"ax",%progbits
 3868              		.align	1
 3869              		.syntax unified
 3870              		.thumb
 3871              		.thumb_func
 3873              	draw_full_border:
 3874              	.LVL357:
 3875              	.LFB157:
1176:Middlewares/lvgl/src/draw/lv_draw_rect.c **** 
1177:Middlewares/lvgl/src/draw/lv_draw_rect.c **** #endif
1178:Middlewares/lvgl/src/draw/lv_draw_rect.c **** 
1179:Middlewares/lvgl/src/draw/lv_draw_rect.c **** static void draw_outline(const lv_area_t * coords, const lv_area_t * clip, const lv_draw_rect_dsc_t
1180:Middlewares/lvgl/src/draw/lv_draw_rect.c **** {
1181:Middlewares/lvgl/src/draw/lv_draw_rect.c ****     if(dsc->outline_opa <= LV_OPA_MIN) return;
1182:Middlewares/lvgl/src/draw/lv_draw_rect.c ****     if(dsc->outline_width == 0) return;
1183:Middlewares/lvgl/src/draw/lv_draw_rect.c **** 
1184:Middlewares/lvgl/src/draw/lv_draw_rect.c ****     lv_opa_t opa = dsc->outline_opa;
1185:Middlewares/lvgl/src/draw/lv_draw_rect.c **** 
1186:Middlewares/lvgl/src/draw/lv_draw_rect.c ****     if(opa > LV_OPA_MAX) opa = LV_OPA_COVER;
1187:Middlewares/lvgl/src/draw/lv_draw_rect.c **** 
1188:Middlewares/lvgl/src/draw/lv_draw_rect.c ****     /*Get the inner radius*/
1189:Middlewares/lvgl/src/draw/lv_draw_rect.c ****     lv_area_t area_inner;
1190:Middlewares/lvgl/src/draw/lv_draw_rect.c ****     lv_area_copy(&area_inner, coords);
1191:Middlewares/lvgl/src/draw/lv_draw_rect.c **** 
ARM GAS  /tmp/ccUpPomB.s 			page 115


1192:Middlewares/lvgl/src/draw/lv_draw_rect.c ****     /*Extend the outline into the background area if it's overlapping the edge*/
1193:Middlewares/lvgl/src/draw/lv_draw_rect.c ****     lv_coord_t pad = (dsc->outline_pad == 0 ? (dsc->outline_pad - 1) : dsc->outline_pad);
1194:Middlewares/lvgl/src/draw/lv_draw_rect.c ****     area_inner.x1 -= pad;
1195:Middlewares/lvgl/src/draw/lv_draw_rect.c ****     area_inner.y1 -= pad;
1196:Middlewares/lvgl/src/draw/lv_draw_rect.c ****     area_inner.x2 += pad;
1197:Middlewares/lvgl/src/draw/lv_draw_rect.c ****     area_inner.y2 += pad;
1198:Middlewares/lvgl/src/draw/lv_draw_rect.c **** 
1199:Middlewares/lvgl/src/draw/lv_draw_rect.c ****     lv_area_t area_outer;
1200:Middlewares/lvgl/src/draw/lv_draw_rect.c ****     lv_area_copy(&area_outer, &area_inner);
1201:Middlewares/lvgl/src/draw/lv_draw_rect.c **** 
1202:Middlewares/lvgl/src/draw/lv_draw_rect.c ****     area_outer.x1 -= dsc->outline_width;
1203:Middlewares/lvgl/src/draw/lv_draw_rect.c ****     area_outer.x2 += dsc->outline_width;
1204:Middlewares/lvgl/src/draw/lv_draw_rect.c ****     area_outer.y1 -= dsc->outline_width;
1205:Middlewares/lvgl/src/draw/lv_draw_rect.c ****     area_outer.y2 += dsc->outline_width;
1206:Middlewares/lvgl/src/draw/lv_draw_rect.c **** 
1207:Middlewares/lvgl/src/draw/lv_draw_rect.c **** #if LV_DRAW_COMPLEX
1208:Middlewares/lvgl/src/draw/lv_draw_rect.c ****     draw_full_border(&area_inner, &area_outer, clip, dsc->radius, true, dsc->outline_color, dsc->ou
1209:Middlewares/lvgl/src/draw/lv_draw_rect.c ****                      dsc->blend_mode);
1210:Middlewares/lvgl/src/draw/lv_draw_rect.c **** #else
1211:Middlewares/lvgl/src/draw/lv_draw_rect.c ****     draw_simple_border(clip, &area_inner, &area_outer, dsc->outline_color, dsc->outline_opa, LV_BOR
1212:Middlewares/lvgl/src/draw/lv_draw_rect.c **** #endif
1213:Middlewares/lvgl/src/draw/lv_draw_rect.c **** }
1214:Middlewares/lvgl/src/draw/lv_draw_rect.c **** 
1215:Middlewares/lvgl/src/draw/lv_draw_rect.c **** #if LV_DRAW_COMPLEX
1216:Middlewares/lvgl/src/draw/lv_draw_rect.c **** static void draw_full_border(const lv_area_t * area_inner, const lv_area_t * area_outer, const lv_a
1217:Middlewares/lvgl/src/draw/lv_draw_rect.c ****                              lv_coord_t radius, bool radius_is_in, lv_color_t color, lv_opa_t opa, 
1218:Middlewares/lvgl/src/draw/lv_draw_rect.c **** {
 3876              		.loc 1 1218 1 is_stmt 1 view -0
 3877              		.cfi_startproc
 3878              		@ args = 16, pretend = 0, frame = 128
 3879              		@ frame_needed = 0, uses_anonymous_args = 0
 3880              		.loc 1 1218 1 is_stmt 0 view .LVU1480
 3881 0000 2DE9F04F 		push	{r4, r5, r6, r7, r8, r9, r10, fp, lr}
 3882              	.LCFI10:
 3883              		.cfi_def_cfa_offset 36
 3884              		.cfi_offset 4, -36
 3885              		.cfi_offset 5, -32
 3886              		.cfi_offset 6, -28
 3887              		.cfi_offset 7, -24
 3888              		.cfi_offset 8, -20
 3889              		.cfi_offset 9, -16
 3890              		.cfi_offset 10, -12
 3891              		.cfi_offset 11, -8
 3892              		.cfi_offset 14, -4
 3893 0004 A5B0     		sub	sp, sp, #148
 3894              	.LCFI11:
 3895              		.cfi_def_cfa_offset 184
 3896 0006 0546     		mov	r5, r0
 3897 0008 0C46     		mov	r4, r1
 3898 000a 0592     		str	r2, [sp, #20]
 3899 000c 1E46     		mov	r6, r3
 3900 000e 9DF8B890 		ldrb	r9, [sp, #184]	@ zero_extendqisi2
 3901 0012 9DF8C070 		ldrb	r7, [sp, #192]	@ zero_extendqisi2
 3902 0016 9DF8C430 		ldrb	r3, [sp, #196]	@ zero_extendqisi2
 3903              	.LVL358:
 3904              		.loc 1 1218 1 view .LVU1481
 3905 001a 0693     		str	r3, [sp, #24]
ARM GAS  /tmp/ccUpPomB.s 			page 116


1219:Middlewares/lvgl/src/draw/lv_draw_rect.c **** 
1220:Middlewares/lvgl/src/draw/lv_draw_rect.c ****     uint8_t other_mask_cnt = lv_draw_mask_get_cnt();
 3906              		.loc 1 1220 5 is_stmt 1 view .LVU1482
 3907              		.loc 1 1220 30 is_stmt 0 view .LVU1483
 3908 001c FFF7FEFF 		bl	lv_draw_mask_get_cnt
 3909              	.LVL359:
1221:Middlewares/lvgl/src/draw/lv_draw_rect.c ****     bool simple_mode = true;
 3910              		.loc 1 1221 5 is_stmt 1 view .LVU1484
1222:Middlewares/lvgl/src/draw/lv_draw_rect.c ****     if(other_mask_cnt) simple_mode = false;
 3911              		.loc 1 1222 5 view .LVU1485
 3912              		.loc 1 1222 7 is_stmt 0 view .LVU1486
 3913 0020 0028     		cmp	r0, #0
 3914 0022 40D1     		bne	.L214
1221:Middlewares/lvgl/src/draw/lv_draw_rect.c ****     bool simple_mode = true;
 3915              		.loc 1 1221 10 view .LVU1487
 3916 0024 4FF0010A 		mov	r10, #1
 3917              	.L193:
 3918              	.LVL360:
1223:Middlewares/lvgl/src/draw/lv_draw_rect.c **** 
1224:Middlewares/lvgl/src/draw/lv_draw_rect.c ****     int32_t inner_w = lv_area_get_width(area_inner);
 3919              		.loc 1 1224 5 is_stmt 1 view .LVU1488
 3920              	.LBB302:
 3921              	.LBI302:
 133:Middlewares/lvgl/src/draw/../misc/lv_area.h **** {
 3922              		.loc 2 133 26 view .LVU1489
 3923              	.LBB303:
 135:Middlewares/lvgl/src/draw/../misc/lv_area.h **** }
 3924              		.loc 2 135 5 view .LVU1490
 135:Middlewares/lvgl/src/draw/../misc/lv_area.h **** }
 3925              		.loc 2 135 31 is_stmt 0 view .LVU1491
 3926 0028 A988     		ldrh	r1, [r5, #4]
 3927 002a 0C91     		str	r1, [sp, #48]
 135:Middlewares/lvgl/src/draw/../misc/lv_area.h **** }
 3928              		.loc 2 135 44 view .LVU1492
 3929 002c 2A88     		ldrh	r2, [r5]
 135:Middlewares/lvgl/src/draw/../misc/lv_area.h **** }
 3930              		.loc 2 135 36 view .LVU1493
 3931 002e 8A1A     		subs	r2, r1, r2
 3932 0030 92B2     		uxth	r2, r2
 135:Middlewares/lvgl/src/draw/../misc/lv_area.h **** }
 3933              		.loc 2 135 49 view .LVU1494
 3934 0032 0132     		adds	r2, r2, #1
 135:Middlewares/lvgl/src/draw/../misc/lv_area.h **** }
 3935              		.loc 2 135 12 view .LVU1495
 3936 0034 12B2     		sxth	r2, r2
 3937              	.LVL361:
 135:Middlewares/lvgl/src/draw/../misc/lv_area.h **** }
 3938              		.loc 2 135 12 view .LVU1496
 3939              	.LBE303:
 3940              	.LBE302:
1225:Middlewares/lvgl/src/draw/lv_draw_rect.c ****     int32_t inner_h = lv_area_get_height(area_inner);
 3941              		.loc 1 1225 5 is_stmt 1 view .LVU1497
 3942              	.LBB304:
 3943              	.LBI304:
 143:Middlewares/lvgl/src/draw/../misc/lv_area.h **** {
 3944              		.loc 2 143 26 view .LVU1498
 3945              	.LBB305:
ARM GAS  /tmp/ccUpPomB.s 			page 117


 3946              		.loc 2 145 5 view .LVU1499
 3947              		.loc 2 145 31 is_stmt 0 view .LVU1500
 3948 0036 E888     		ldrh	r0, [r5, #6]
 3949              	.LVL362:
 3950              		.loc 2 145 44 view .LVU1501
 3951 0038 6B88     		ldrh	r3, [r5, #2]
 3952              		.loc 2 145 36 view .LVU1502
 3953 003a C01A     		subs	r0, r0, r3
 3954 003c 80B2     		uxth	r0, r0
 3955              		.loc 2 145 49 view .LVU1503
 3956 003e 0130     		adds	r0, r0, #1
 3957              		.loc 2 145 12 view .LVU1504
 3958 0040 00B2     		sxth	r0, r0
 3959              	.LVL363:
 3960              		.loc 2 145 12 view .LVU1505
 3961              	.LBE305:
 3962              	.LBE304:
1226:Middlewares/lvgl/src/draw/lv_draw_rect.c ****     lv_coord_t border_width = area_outer->x2 - area_inner->x2;
 3963              		.loc 1 1226 5 is_stmt 1 view .LVU1506
 3964              		.loc 1 1226 41 is_stmt 0 view .LVU1507
 3965 0042 A388     		ldrh	r3, [r4, #4]
 3966              		.loc 1 1226 46 view .LVU1508
 3967 0044 0A93     		str	r3, [sp, #40]
 3968 0046 5B1A     		subs	r3, r3, r1
 3969 0048 99B2     		uxth	r1, r3
 3970 004a 0B91     		str	r1, [sp, #44]
 3971              		.loc 1 1226 16 view .LVU1509
 3972 004c 19B2     		sxth	r1, r3
 3973 004e 0891     		str	r1, [sp, #32]
 3974              	.LVL364:
1227:Middlewares/lvgl/src/draw/lv_draw_rect.c **** 
1228:Middlewares/lvgl/src/draw/lv_draw_rect.c ****     int32_t coords_out_w = lv_area_get_width(area_outer);
 3975              		.loc 1 1228 5 is_stmt 1 view .LVU1510
 3976              	.LBB306:
 3977              	.LBI306:
 133:Middlewares/lvgl/src/draw/../misc/lv_area.h **** {
 3978              		.loc 2 133 26 view .LVU1511
 3979              	.LBB307:
 135:Middlewares/lvgl/src/draw/../misc/lv_area.h **** }
 3980              		.loc 2 135 5 view .LVU1512
 135:Middlewares/lvgl/src/draw/../misc/lv_area.h **** }
 3981              		.loc 2 135 44 is_stmt 0 view .LVU1513
 3982 0050 2388     		ldrh	r3, [r4]
 135:Middlewares/lvgl/src/draw/../misc/lv_area.h **** }
 3983              		.loc 2 135 36 view .LVU1514
 3984 0052 0A99     		ldr	r1, [sp, #40]
 3985 0054 CB1A     		subs	r3, r1, r3
 3986 0056 9BB2     		uxth	r3, r3
 135:Middlewares/lvgl/src/draw/../misc/lv_area.h **** }
 3987              		.loc 2 135 49 view .LVU1515
 3988 0058 0133     		adds	r3, r3, #1
 135:Middlewares/lvgl/src/draw/../misc/lv_area.h **** }
 3989              		.loc 2 135 12 view .LVU1516
 3990 005a 1BB2     		sxth	r3, r3
 3991              	.LVL365:
 135:Middlewares/lvgl/src/draw/../misc/lv_area.h **** }
 3992              		.loc 2 135 12 view .LVU1517
ARM GAS  /tmp/ccUpPomB.s 			page 118


 3993              	.LBE307:
 3994              	.LBE306:
1229:Middlewares/lvgl/src/draw/lv_draw_rect.c ****     int32_t coords_out_h = lv_area_get_height(area_outer);
 3995              		.loc 1 1229 5 is_stmt 1 view .LVU1518
 3996              	.LBB308:
 3997              	.LBI308:
 143:Middlewares/lvgl/src/draw/../misc/lv_area.h **** {
 3998              		.loc 2 143 26 view .LVU1519
 3999              	.LBB309:
 4000              		.loc 2 145 5 view .LVU1520
 4001              		.loc 2 145 31 is_stmt 0 view .LVU1521
 4002 005c E188     		ldrh	r1, [r4, #6]
 4003              		.loc 2 145 44 view .LVU1522
 4004 005e B4F802C0 		ldrh	ip, [r4, #2]
 4005              		.loc 2 145 36 view .LVU1523
 4006 0062 A1EB0C01 		sub	r1, r1, ip
 4007 0066 89B2     		uxth	r1, r1
 4008              		.loc 2 145 49 view .LVU1524
 4009 0068 0131     		adds	r1, r1, #1
 4010              		.loc 2 145 12 view .LVU1525
 4011 006a 09B2     		sxth	r1, r1
 4012              	.LVL366:
 4013              		.loc 2 145 12 view .LVU1526
 4014              	.LBE309:
 4015              	.LBE308:
1230:Middlewares/lvgl/src/draw/lv_draw_rect.c **** 
1231:Middlewares/lvgl/src/draw/lv_draw_rect.c ****     int32_t rin;
 4016              		.loc 1 1231 5 is_stmt 1 view .LVU1527
1232:Middlewares/lvgl/src/draw/lv_draw_rect.c ****     int32_t rout;
 4017              		.loc 1 1232 5 view .LVU1528
1233:Middlewares/lvgl/src/draw/lv_draw_rect.c ****     if(radius_is_in) {
 4018              		.loc 1 1233 5 view .LVU1529
 4019              		.loc 1 1233 7 is_stmt 0 view .LVU1530
 4020 006c B9F1000F 		cmp	r9, #0
 4021 0070 1CD0     		beq	.L194
 4022              	.LBB310:
1234:Middlewares/lvgl/src/draw/lv_draw_rect.c ****         rin = radius;
 4023              		.loc 1 1234 9 is_stmt 1 view .LVU1531
 4024              	.LVL367:
1235:Middlewares/lvgl/src/draw/lv_draw_rect.c ****         int32_t short_side = LV_MIN(inner_w, inner_h);
 4025              		.loc 1 1235 9 view .LVU1532
 4026              		.loc 1 1235 17 is_stmt 0 view .LVU1533
 4027 0072 8242     		cmp	r2, r0
 4028 0074 A8BF     		it	ge
 4029 0076 0246     		movge	r2, r0
 4030              	.LVL368:
1236:Middlewares/lvgl/src/draw/lv_draw_rect.c ****         if(rin > short_side >> 1) rin = short_side >> 1;
 4031              		.loc 1 1236 9 is_stmt 1 view .LVU1534
 4032              		.loc 1 1236 29 is_stmt 0 view .LVU1535
 4033 0078 4FEA6209 		asr	r9, r2, #1
 4034              		.loc 1 1236 11 view .LVU1536
 4035 007c B6EB620F 		cmp	r6, r2, asr #1
 4036 0080 00DC     		bgt	.L195
1234:Middlewares/lvgl/src/draw/lv_draw_rect.c ****         rin = radius;
 4037              		.loc 1 1234 13 view .LVU1537
 4038 0082 B146     		mov	r9, r6
 4039              	.L195:
ARM GAS  /tmp/ccUpPomB.s 			page 119


 4040              	.LVL369:
1237:Middlewares/lvgl/src/draw/lv_draw_rect.c **** 
1238:Middlewares/lvgl/src/draw/lv_draw_rect.c ****         /*Get the outer area*/
1239:Middlewares/lvgl/src/draw/lv_draw_rect.c ****         rout = rin + border_width;
 4041              		.loc 1 1239 9 is_stmt 1 view .LVU1538
 4042              		.loc 1 1239 14 is_stmt 0 view .LVU1539
 4043 0084 089B     		ldr	r3, [sp, #32]
 4044              	.LVL370:
 4045              		.loc 1 1239 14 view .LVU1540
 4046 0086 4B44     		add	r3, r3, r9
 4047 0088 0793     		str	r3, [sp, #28]
 4048              	.LVL371:
 4049              	.L196:
 4050              		.loc 1 1239 14 view .LVU1541
 4051              	.LBE310:
1240:Middlewares/lvgl/src/draw/lv_draw_rect.c ****     }
1241:Middlewares/lvgl/src/draw/lv_draw_rect.c ****     else {
1242:Middlewares/lvgl/src/draw/lv_draw_rect.c ****         rout = radius;
1243:Middlewares/lvgl/src/draw/lv_draw_rect.c ****         int32_t short_side = LV_MIN(coords_out_w, coords_out_h);
1244:Middlewares/lvgl/src/draw/lv_draw_rect.c ****         if(rout > short_side >> 1) rout = short_side >> 1;
1245:Middlewares/lvgl/src/draw/lv_draw_rect.c **** 
1246:Middlewares/lvgl/src/draw/lv_draw_rect.c ****         /*Get the outer area*/
1247:Middlewares/lvgl/src/draw/lv_draw_rect.c ****         rin = rout - border_width;
1248:Middlewares/lvgl/src/draw/lv_draw_rect.c ****         if(rin < 0) rin = 0;
1249:Middlewares/lvgl/src/draw/lv_draw_rect.c **** 
1250:Middlewares/lvgl/src/draw/lv_draw_rect.c ****     }
1251:Middlewares/lvgl/src/draw/lv_draw_rect.c **** 
1252:Middlewares/lvgl/src/draw/lv_draw_rect.c ****     lv_disp_t * disp = _lv_refr_get_disp_refreshing();
 4052              		.loc 1 1252 5 is_stmt 1 view .LVU1542
 4053              		.loc 1 1252 24 is_stmt 0 view .LVU1543
 4054 008a FFF7FEFF 		bl	_lv_refr_get_disp_refreshing
 4055              	.LVL372:
1253:Middlewares/lvgl/src/draw/lv_draw_rect.c ****     lv_disp_draw_buf_t * draw_buf = lv_disp_get_draw_buf(disp);
 4056              		.loc 1 1253 5 is_stmt 1 view .LVU1544
 4057              		.loc 1 1253 37 is_stmt 0 view .LVU1545
 4058 008e FFF7FEFF 		bl	lv_disp_get_draw_buf
 4059              	.LVL373:
 4060              		.loc 1 1253 37 view .LVU1546
 4061 0092 0646     		mov	r6, r0
 4062              	.LVL374:
1254:Middlewares/lvgl/src/draw/lv_draw_rect.c **** 
1255:Middlewares/lvgl/src/draw/lv_draw_rect.c ****     /*Get clipped fill area which is the real draw area.
1256:Middlewares/lvgl/src/draw/lv_draw_rect.c ****      *It is always the same or inside `fill_area`*/
1257:Middlewares/lvgl/src/draw/lv_draw_rect.c ****     lv_area_t draw_area;
 4063              		.loc 1 1257 5 is_stmt 1 view .LVU1547
1258:Middlewares/lvgl/src/draw/lv_draw_rect.c ****     bool is_common;
 4064              		.loc 1 1258 5 view .LVU1548
1259:Middlewares/lvgl/src/draw/lv_draw_rect.c ****     is_common = _lv_area_intersect(&draw_area, area_outer, clip);
 4065              		.loc 1 1259 5 view .LVU1549
 4066              		.loc 1 1259 17 is_stmt 0 view .LVU1550
 4067 0094 059A     		ldr	r2, [sp, #20]
 4068 0096 2146     		mov	r1, r4
 4069 0098 22A8     		add	r0, sp, #136
 4070              	.LVL375:
 4071              		.loc 1 1259 17 view .LVU1551
 4072 009a FFF7FEFF 		bl	_lv_area_intersect
 4073              	.LVL376:
ARM GAS  /tmp/ccUpPomB.s 			page 120


1260:Middlewares/lvgl/src/draw/lv_draw_rect.c ****     if(is_common == false) return;
 4074              		.loc 1 1260 5 is_stmt 1 view .LVU1552
 4075              		.loc 1 1260 7 is_stmt 0 view .LVU1553
 4076 009e B0B9     		cbnz	r0, .L220
 4077              	.LVL377:
 4078              	.L192:
1261:Middlewares/lvgl/src/draw/lv_draw_rect.c **** 
1262:Middlewares/lvgl/src/draw/lv_draw_rect.c ****     const lv_area_t * disp_area = &draw_buf->area;
1263:Middlewares/lvgl/src/draw/lv_draw_rect.c **** 
1264:Middlewares/lvgl/src/draw/lv_draw_rect.c ****     /*Now `draw_area` has absolute coordinates.
1265:Middlewares/lvgl/src/draw/lv_draw_rect.c ****      *Make it relative to `disp_area` to simplify draw to `disp_buf`*/
1266:Middlewares/lvgl/src/draw/lv_draw_rect.c ****     draw_area.x1 -= disp_area->x1;
1267:Middlewares/lvgl/src/draw/lv_draw_rect.c ****     draw_area.y1 -= disp_area->y1;
1268:Middlewares/lvgl/src/draw/lv_draw_rect.c ****     draw_area.x2 -= disp_area->x1;
1269:Middlewares/lvgl/src/draw/lv_draw_rect.c ****     draw_area.y2 -= disp_area->y1;
1270:Middlewares/lvgl/src/draw/lv_draw_rect.c **** 
1271:Middlewares/lvgl/src/draw/lv_draw_rect.c ****     int32_t draw_area_w = lv_area_get_width(&draw_area);
1272:Middlewares/lvgl/src/draw/lv_draw_rect.c **** 
1273:Middlewares/lvgl/src/draw/lv_draw_rect.c ****     /*Create inner the mask*/
1274:Middlewares/lvgl/src/draw/lv_draw_rect.c ****     lv_draw_mask_radius_param_t mask_rin_param;
1275:Middlewares/lvgl/src/draw/lv_draw_rect.c ****     lv_draw_mask_radius_init(&mask_rin_param, area_inner, rin, true);
1276:Middlewares/lvgl/src/draw/lv_draw_rect.c ****     int16_t mask_rin_id = lv_draw_mask_add(&mask_rin_param, NULL);
1277:Middlewares/lvgl/src/draw/lv_draw_rect.c **** 
1278:Middlewares/lvgl/src/draw/lv_draw_rect.c ****     lv_draw_mask_radius_param_t mask_rout_param;
1279:Middlewares/lvgl/src/draw/lv_draw_rect.c ****     lv_draw_mask_radius_init(&mask_rout_param, area_outer, rout, false);
1280:Middlewares/lvgl/src/draw/lv_draw_rect.c ****     int16_t mask_rout_id = lv_draw_mask_add(&mask_rout_param, NULL);
1281:Middlewares/lvgl/src/draw/lv_draw_rect.c **** 
1282:Middlewares/lvgl/src/draw/lv_draw_rect.c ****     lv_opa_t * mask_buf = lv_mem_buf_get(draw_area_w);
1283:Middlewares/lvgl/src/draw/lv_draw_rect.c **** 
1284:Middlewares/lvgl/src/draw/lv_draw_rect.c ****     int32_t corner_size = LV_MAX(rout, border_width - 1);
1285:Middlewares/lvgl/src/draw/lv_draw_rect.c **** 
1286:Middlewares/lvgl/src/draw/lv_draw_rect.c ****     int32_t h;
1287:Middlewares/lvgl/src/draw/lv_draw_rect.c ****     lv_draw_mask_res_t mask_res;
1288:Middlewares/lvgl/src/draw/lv_draw_rect.c ****     lv_area_t fill_area;
1289:Middlewares/lvgl/src/draw/lv_draw_rect.c **** 
1290:Middlewares/lvgl/src/draw/lv_draw_rect.c ****     /*Apply some optimization if there is no other mask*/
1291:Middlewares/lvgl/src/draw/lv_draw_rect.c ****     if(simple_mode) {
1292:Middlewares/lvgl/src/draw/lv_draw_rect.c ****         /*Draw the upper corner area*/
1293:Middlewares/lvgl/src/draw/lv_draw_rect.c ****         int32_t upper_corner_end = area_outer->y1 - disp_area->y1 + corner_size;
1294:Middlewares/lvgl/src/draw/lv_draw_rect.c **** 
1295:Middlewares/lvgl/src/draw/lv_draw_rect.c ****         fill_area.x1 = area_outer->x1;
1296:Middlewares/lvgl/src/draw/lv_draw_rect.c ****         fill_area.x2 = area_outer->x2;
1297:Middlewares/lvgl/src/draw/lv_draw_rect.c ****         fill_area.y1 = disp_area->y1 + draw_area.y1;
1298:Middlewares/lvgl/src/draw/lv_draw_rect.c ****         fill_area.y2 = fill_area.y1;
1299:Middlewares/lvgl/src/draw/lv_draw_rect.c ****         for(h = draw_area.y1; h <= upper_corner_end; h++) {
1300:Middlewares/lvgl/src/draw/lv_draw_rect.c ****             lv_memset_ff(mask_buf, draw_area_w);
1301:Middlewares/lvgl/src/draw/lv_draw_rect.c ****             mask_res = lv_draw_mask_apply(mask_buf, draw_buf->area.x1 + draw_area.x1, draw_buf->are
1302:Middlewares/lvgl/src/draw/lv_draw_rect.c **** 
1303:Middlewares/lvgl/src/draw/lv_draw_rect.c ****             lv_area_t fill_area2;
1304:Middlewares/lvgl/src/draw/lv_draw_rect.c ****             fill_area2.y1 = fill_area.y1;
1305:Middlewares/lvgl/src/draw/lv_draw_rect.c ****             fill_area2.y2 = fill_area.y2;
1306:Middlewares/lvgl/src/draw/lv_draw_rect.c **** 
1307:Middlewares/lvgl/src/draw/lv_draw_rect.c ****             fill_area2.x1 = area_outer->x1;
1308:Middlewares/lvgl/src/draw/lv_draw_rect.c ****             fill_area2.x2 = area_outer->x1 + rout - 1;
1309:Middlewares/lvgl/src/draw/lv_draw_rect.c **** 
1310:Middlewares/lvgl/src/draw/lv_draw_rect.c ****             _lv_blend_fill(clip, &fill_area2, color, mask_buf, mask_res, opa, blend_mode);
1311:Middlewares/lvgl/src/draw/lv_draw_rect.c **** 
ARM GAS  /tmp/ccUpPomB.s 			page 121


1312:Middlewares/lvgl/src/draw/lv_draw_rect.c ****             /*Draw the top horizontal line*/
1313:Middlewares/lvgl/src/draw/lv_draw_rect.c ****             if(fill_area2.y2 < area_outer->y1 + border_width) {
1314:Middlewares/lvgl/src/draw/lv_draw_rect.c ****                 fill_area2.x1 = area_outer->x1 + rout;
1315:Middlewares/lvgl/src/draw/lv_draw_rect.c ****                 fill_area2.x2 = area_outer->x2 - rout;
1316:Middlewares/lvgl/src/draw/lv_draw_rect.c **** 
1317:Middlewares/lvgl/src/draw/lv_draw_rect.c ****                 _lv_blend_fill(clip, &fill_area2, color, NULL, LV_DRAW_MASK_RES_FULL_COVER, opa, bl
1318:Middlewares/lvgl/src/draw/lv_draw_rect.c ****             }
1319:Middlewares/lvgl/src/draw/lv_draw_rect.c **** 
1320:Middlewares/lvgl/src/draw/lv_draw_rect.c ****             fill_area2.x1 = area_outer->x2 - rout + 1;
1321:Middlewares/lvgl/src/draw/lv_draw_rect.c ****             fill_area2.x2 = area_outer->x2;
1322:Middlewares/lvgl/src/draw/lv_draw_rect.c **** 
1323:Middlewares/lvgl/src/draw/lv_draw_rect.c ****             int32_t mask_ofs = (area_outer->x2 - rout + 1) - (draw_buf->area.x1 + draw_area.x1);
1324:Middlewares/lvgl/src/draw/lv_draw_rect.c ****             if(mask_ofs < 0) mask_ofs = 0;
1325:Middlewares/lvgl/src/draw/lv_draw_rect.c ****             _lv_blend_fill(clip, &fill_area2, color, mask_buf + mask_ofs, mask_res, opa, blend_mode
1326:Middlewares/lvgl/src/draw/lv_draw_rect.c **** 
1327:Middlewares/lvgl/src/draw/lv_draw_rect.c ****             fill_area.y1++;
1328:Middlewares/lvgl/src/draw/lv_draw_rect.c ****             fill_area.y2++;
1329:Middlewares/lvgl/src/draw/lv_draw_rect.c ****         }
1330:Middlewares/lvgl/src/draw/lv_draw_rect.c **** 
1331:Middlewares/lvgl/src/draw/lv_draw_rect.c ****         /*Draw the lower corner area*/
1332:Middlewares/lvgl/src/draw/lv_draw_rect.c ****         int32_t lower_corner_end = area_outer->y2 - disp_area->y1 - corner_size;
1333:Middlewares/lvgl/src/draw/lv_draw_rect.c ****         if(lower_corner_end <= upper_corner_end) lower_corner_end = upper_corner_end + 1;
1334:Middlewares/lvgl/src/draw/lv_draw_rect.c ****         fill_area.y1 = disp_area->y1 + lower_corner_end;
1335:Middlewares/lvgl/src/draw/lv_draw_rect.c ****         fill_area.y2 = fill_area.y1;
1336:Middlewares/lvgl/src/draw/lv_draw_rect.c ****         for(h = lower_corner_end; h <= draw_area.y2; h++) {
1337:Middlewares/lvgl/src/draw/lv_draw_rect.c ****             lv_memset_ff(mask_buf, draw_area_w);
1338:Middlewares/lvgl/src/draw/lv_draw_rect.c ****             mask_res = lv_draw_mask_apply(mask_buf, draw_buf->area.x1 + draw_area.x1, draw_buf->are
1339:Middlewares/lvgl/src/draw/lv_draw_rect.c **** 
1340:Middlewares/lvgl/src/draw/lv_draw_rect.c ****             lv_area_t fill_area2;
1341:Middlewares/lvgl/src/draw/lv_draw_rect.c ****             fill_area2.x1 = area_outer->x1;
1342:Middlewares/lvgl/src/draw/lv_draw_rect.c ****             fill_area2.x2 = area_outer->x1 + rout - 1;
1343:Middlewares/lvgl/src/draw/lv_draw_rect.c ****             fill_area2.y1 = fill_area.y1;
1344:Middlewares/lvgl/src/draw/lv_draw_rect.c ****             fill_area2.y2 = fill_area.y2;
1345:Middlewares/lvgl/src/draw/lv_draw_rect.c **** 
1346:Middlewares/lvgl/src/draw/lv_draw_rect.c ****             _lv_blend_fill(clip, &fill_area2, color, mask_buf, mask_res, opa, blend_mode);
1347:Middlewares/lvgl/src/draw/lv_draw_rect.c **** 
1348:Middlewares/lvgl/src/draw/lv_draw_rect.c ****             /*Draw the bottom horizontal line*/
1349:Middlewares/lvgl/src/draw/lv_draw_rect.c ****             if(fill_area2.y2 > area_outer->y2 - border_width) {
1350:Middlewares/lvgl/src/draw/lv_draw_rect.c ****                 fill_area2.x1 = area_outer->x1 + rout;
1351:Middlewares/lvgl/src/draw/lv_draw_rect.c ****                 fill_area2.x2 = area_outer->x2 - rout;
1352:Middlewares/lvgl/src/draw/lv_draw_rect.c **** 
1353:Middlewares/lvgl/src/draw/lv_draw_rect.c ****                 _lv_blend_fill(clip, &fill_area2, color, NULL, LV_DRAW_MASK_RES_FULL_COVER, opa, bl
1354:Middlewares/lvgl/src/draw/lv_draw_rect.c ****             }
1355:Middlewares/lvgl/src/draw/lv_draw_rect.c ****             fill_area2.x1 = area_outer->x2 - rout + 1;
1356:Middlewares/lvgl/src/draw/lv_draw_rect.c ****             fill_area2.x2 = area_outer->x2;
1357:Middlewares/lvgl/src/draw/lv_draw_rect.c **** 
1358:Middlewares/lvgl/src/draw/lv_draw_rect.c ****             int32_t mask_ofs = (area_outer->x2 - rout + 1) - (draw_buf->area.x1 + draw_area.x1);
1359:Middlewares/lvgl/src/draw/lv_draw_rect.c ****             if(mask_ofs < 0) mask_ofs = 0;
1360:Middlewares/lvgl/src/draw/lv_draw_rect.c ****             _lv_blend_fill(clip, &fill_area2, color, mask_buf + mask_ofs, mask_res, opa, blend_mode
1361:Middlewares/lvgl/src/draw/lv_draw_rect.c **** 
1362:Middlewares/lvgl/src/draw/lv_draw_rect.c ****             fill_area.y1++;
1363:Middlewares/lvgl/src/draw/lv_draw_rect.c ****             fill_area.y2++;
1364:Middlewares/lvgl/src/draw/lv_draw_rect.c ****         }
1365:Middlewares/lvgl/src/draw/lv_draw_rect.c **** 
1366:Middlewares/lvgl/src/draw/lv_draw_rect.c ****         /*Draw the left vertical part*/
1367:Middlewares/lvgl/src/draw/lv_draw_rect.c ****         fill_area.y1 = area_outer->y1 + corner_size + 1;
1368:Middlewares/lvgl/src/draw/lv_draw_rect.c ****         fill_area.y2 = area_outer->y2 - corner_size - 1;
ARM GAS  /tmp/ccUpPomB.s 			page 122


1369:Middlewares/lvgl/src/draw/lv_draw_rect.c **** 
1370:Middlewares/lvgl/src/draw/lv_draw_rect.c ****         fill_area.x1 = area_outer->x1;
1371:Middlewares/lvgl/src/draw/lv_draw_rect.c ****         fill_area.x2 = area_outer->x1 + border_width - 1;
1372:Middlewares/lvgl/src/draw/lv_draw_rect.c ****         _lv_blend_fill(clip, &fill_area, color, NULL, LV_DRAW_MASK_RES_FULL_COVER, opa, blend_mode)
1373:Middlewares/lvgl/src/draw/lv_draw_rect.c **** 
1374:Middlewares/lvgl/src/draw/lv_draw_rect.c ****         /*Draw the right vertical border*/
1375:Middlewares/lvgl/src/draw/lv_draw_rect.c ****         fill_area.x1 = area_outer->x2 - border_width + 1;
1376:Middlewares/lvgl/src/draw/lv_draw_rect.c ****         fill_area.x2 = area_outer->x2;
1377:Middlewares/lvgl/src/draw/lv_draw_rect.c **** 
1378:Middlewares/lvgl/src/draw/lv_draw_rect.c ****         _lv_blend_fill(clip, &fill_area, color, NULL, LV_DRAW_MASK_RES_FULL_COVER, opa, blend_mode)
1379:Middlewares/lvgl/src/draw/lv_draw_rect.c ****     }
1380:Middlewares/lvgl/src/draw/lv_draw_rect.c ****     /*Process line by line if there is other mask too*/
1381:Middlewares/lvgl/src/draw/lv_draw_rect.c ****     else {
1382:Middlewares/lvgl/src/draw/lv_draw_rect.c ****         fill_area.x1 = area_outer->x1;
1383:Middlewares/lvgl/src/draw/lv_draw_rect.c ****         fill_area.x2 = area_outer->x2;
1384:Middlewares/lvgl/src/draw/lv_draw_rect.c ****         fill_area.y1 = disp_area->y1 + draw_area.y1;
1385:Middlewares/lvgl/src/draw/lv_draw_rect.c ****         fill_area.y2 = fill_area.y1;
1386:Middlewares/lvgl/src/draw/lv_draw_rect.c **** 
1387:Middlewares/lvgl/src/draw/lv_draw_rect.c ****         for(h = draw_area.y1; h <= draw_area.y2; h++) {
1388:Middlewares/lvgl/src/draw/lv_draw_rect.c ****             lv_memset_ff(mask_buf, draw_area_w);
1389:Middlewares/lvgl/src/draw/lv_draw_rect.c ****             mask_res = lv_draw_mask_apply(mask_buf, draw_buf->area.x1 + draw_area.x1, draw_buf->are
1390:Middlewares/lvgl/src/draw/lv_draw_rect.c **** 
1391:Middlewares/lvgl/src/draw/lv_draw_rect.c ****             _lv_blend_fill(clip, &fill_area, color, mask_buf, mask_res, opa, blend_mode);
1392:Middlewares/lvgl/src/draw/lv_draw_rect.c ****             fill_area.y1++;
1393:Middlewares/lvgl/src/draw/lv_draw_rect.c ****             fill_area.y2++;
1394:Middlewares/lvgl/src/draw/lv_draw_rect.c **** 
1395:Middlewares/lvgl/src/draw/lv_draw_rect.c ****         }
1396:Middlewares/lvgl/src/draw/lv_draw_rect.c ****     }
1397:Middlewares/lvgl/src/draw/lv_draw_rect.c ****     lv_draw_mask_remove_id(mask_rin_id);
1398:Middlewares/lvgl/src/draw/lv_draw_rect.c ****     lv_draw_mask_remove_id(mask_rout_id);
1399:Middlewares/lvgl/src/draw/lv_draw_rect.c ****     lv_mem_buf_release(mask_buf);
1400:Middlewares/lvgl/src/draw/lv_draw_rect.c **** }
 4079              		.loc 1 1400 1 view .LVU1554
 4080 00a0 25B0     		add	sp, sp, #148
 4081              	.LCFI12:
 4082              		.cfi_remember_state
 4083              		.cfi_def_cfa_offset 36
 4084              		@ sp needed
 4085 00a2 BDE8F08F 		pop	{r4, r5, r6, r7, r8, r9, r10, fp, pc}
 4086              	.LVL378:
 4087              	.L214:
 4088              	.LCFI13:
 4089              		.cfi_restore_state
1222:Middlewares/lvgl/src/draw/lv_draw_rect.c **** 
 4090              		.loc 1 1222 36 view .LVU1555
 4091 00a6 4FF0000A 		mov	r10, #0
 4092 00aa BDE7     		b	.L193
 4093              	.LVL379:
 4094              	.L194:
 4095              	.LBB311:
1242:Middlewares/lvgl/src/draw/lv_draw_rect.c ****         int32_t short_side = LV_MIN(coords_out_w, coords_out_h);
 4096              		.loc 1 1242 9 is_stmt 1 view .LVU1556
1243:Middlewares/lvgl/src/draw/lv_draw_rect.c ****         if(rout > short_side >> 1) rout = short_side >> 1;
 4097              		.loc 1 1243 9 view .LVU1557
1243:Middlewares/lvgl/src/draw/lv_draw_rect.c ****         if(rout > short_side >> 1) rout = short_side >> 1;
 4098              		.loc 1 1243 17 is_stmt 0 view .LVU1558
 4099 00ac 9942     		cmp	r1, r3
ARM GAS  /tmp/ccUpPomB.s 			page 123


 4100 00ae A8BF     		it	ge
 4101 00b0 1946     		movge	r1, r3
 4102              	.LVL380:
1244:Middlewares/lvgl/src/draw/lv_draw_rect.c **** 
 4103              		.loc 1 1244 9 is_stmt 1 view .LVU1559
1244:Middlewares/lvgl/src/draw/lv_draw_rect.c **** 
 4104              		.loc 1 1244 30 is_stmt 0 view .LVU1560
 4105 00b2 4B10     		asrs	r3, r1, #1
 4106              	.LVL381:
1244:Middlewares/lvgl/src/draw/lv_draw_rect.c **** 
 4107              		.loc 1 1244 30 view .LVU1561
 4108 00b4 0793     		str	r3, [sp, #28]
1244:Middlewares/lvgl/src/draw/lv_draw_rect.c **** 
 4109              		.loc 1 1244 11 view .LVU1562
 4110 00b6 B6EB610F 		cmp	r6, r1, asr #1
 4111 00ba 00DC     		bgt	.L197
1242:Middlewares/lvgl/src/draw/lv_draw_rect.c ****         int32_t short_side = LV_MIN(coords_out_w, coords_out_h);
 4112              		.loc 1 1242 14 view .LVU1563
 4113 00bc 0796     		str	r6, [sp, #28]
 4114              	.L197:
 4115              	.LVL382:
1247:Middlewares/lvgl/src/draw/lv_draw_rect.c ****         if(rin < 0) rin = 0;
 4116              		.loc 1 1247 9 is_stmt 1 view .LVU1564
1248:Middlewares/lvgl/src/draw/lv_draw_rect.c **** 
 4117              		.loc 1 1248 9 view .LVU1565
1248:Middlewares/lvgl/src/draw/lv_draw_rect.c **** 
 4118              		.loc 1 1248 11 is_stmt 0 view .LVU1566
 4119 00be 079B     		ldr	r3, [sp, #28]
 4120 00c0 089A     		ldr	r2, [sp, #32]
 4121              	.LVL383:
1248:Middlewares/lvgl/src/draw/lv_draw_rect.c **** 
 4122              		.loc 1 1248 11 view .LVU1567
 4123 00c2 B3EB0209 		subs	r9, r3, r2
 4124              	.LVL384:
1248:Middlewares/lvgl/src/draw/lv_draw_rect.c **** 
 4125              		.loc 1 1248 11 view .LVU1568
 4126 00c6 E0D5     		bpl	.L196
1248:Middlewares/lvgl/src/draw/lv_draw_rect.c **** 
 4127              		.loc 1 1248 25 view .LVU1569
 4128 00c8 4FF00009 		mov	r9, #0
 4129              	.LVL385:
1248:Middlewares/lvgl/src/draw/lv_draw_rect.c **** 
 4130              		.loc 1 1248 25 view .LVU1570
 4131 00cc DDE7     		b	.L196
 4132              	.LVL386:
 4133              	.L220:
1248:Middlewares/lvgl/src/draw/lv_draw_rect.c **** 
 4134              		.loc 1 1248 25 view .LVU1571
 4135              	.LBE311:
1262:Middlewares/lvgl/src/draw/lv_draw_rect.c **** 
 4136              		.loc 1 1262 5 is_stmt 1 view .LVU1572
1266:Middlewares/lvgl/src/draw/lv_draw_rect.c ****     draw_area.y1 -= disp_area->y1;
 4137              		.loc 1 1266 5 view .LVU1573
1266:Middlewares/lvgl/src/draw/lv_draw_rect.c ****     draw_area.y1 -= disp_area->y1;
 4138              		.loc 1 1266 30 is_stmt 0 view .LVU1574
 4139 00ce B6F810C0 		ldrh	ip, [r6, #16]
1266:Middlewares/lvgl/src/draw/lv_draw_rect.c ****     draw_area.y1 -= disp_area->y1;
ARM GAS  /tmp/ccUpPomB.s 			page 124


 4140              		.loc 1 1266 18 view .LVU1575
 4141 00d2 BDF88830 		ldrh	r3, [sp, #136]
 4142 00d6 A3EB0C03 		sub	r3, r3, ip
 4143 00da 9AB2     		uxth	r2, r3
 4144 00dc ADF88820 		strh	r2, [sp, #136]	@ movhi
1267:Middlewares/lvgl/src/draw/lv_draw_rect.c ****     draw_area.x2 -= disp_area->x1;
 4145              		.loc 1 1267 5 is_stmt 1 view .LVU1576
1267:Middlewares/lvgl/src/draw/lv_draw_rect.c ****     draw_area.x2 -= disp_area->x1;
 4146              		.loc 1 1267 30 is_stmt 0 view .LVU1577
 4147 00e0 708A     		ldrh	r0, [r6, #18]
 4148              	.LVL387:
1267:Middlewares/lvgl/src/draw/lv_draw_rect.c ****     draw_area.x2 -= disp_area->x1;
 4149              		.loc 1 1267 18 view .LVU1578
 4150 00e2 BDF88A10 		ldrh	r1, [sp, #138]
 4151 00e6 091A     		subs	r1, r1, r0
 4152 00e8 ADF88A10 		strh	r1, [sp, #138]	@ movhi
1268:Middlewares/lvgl/src/draw/lv_draw_rect.c ****     draw_area.y2 -= disp_area->y1;
 4153              		.loc 1 1268 5 is_stmt 1 view .LVU1579
1268:Middlewares/lvgl/src/draw/lv_draw_rect.c ****     draw_area.y2 -= disp_area->y1;
 4154              		.loc 1 1268 18 is_stmt 0 view .LVU1580
 4155 00ec BDF88C30 		ldrh	r3, [sp, #140]
 4156 00f0 A3EB0C03 		sub	r3, r3, ip
 4157 00f4 9BB2     		uxth	r3, r3
 4158 00f6 ADF88C30 		strh	r3, [sp, #140]	@ movhi
1269:Middlewares/lvgl/src/draw/lv_draw_rect.c **** 
 4159              		.loc 1 1269 5 is_stmt 1 view .LVU1581
1269:Middlewares/lvgl/src/draw/lv_draw_rect.c **** 
 4160              		.loc 1 1269 18 is_stmt 0 view .LVU1582
 4161 00fa BDF88E10 		ldrh	r1, [sp, #142]
 4162 00fe 091A     		subs	r1, r1, r0
 4163 0100 ADF88E10 		strh	r1, [sp, #142]	@ movhi
1271:Middlewares/lvgl/src/draw/lv_draw_rect.c **** 
 4164              		.loc 1 1271 5 is_stmt 1 view .LVU1583
 4165              	.LVL388:
 4166              	.LBB312:
 4167              	.LBI312:
 133:Middlewares/lvgl/src/draw/../misc/lv_area.h **** {
 4168              		.loc 2 133 26 view .LVU1584
 4169              	.LBB313:
 135:Middlewares/lvgl/src/draw/../misc/lv_area.h **** }
 4170              		.loc 2 135 5 view .LVU1585
 135:Middlewares/lvgl/src/draw/../misc/lv_area.h **** }
 4171              		.loc 2 135 36 is_stmt 0 view .LVU1586
 4172 0104 9B1A     		subs	r3, r3, r2
 4173 0106 9BB2     		uxth	r3, r3
 135:Middlewares/lvgl/src/draw/../misc/lv_area.h **** }
 4174              		.loc 2 135 49 view .LVU1587
 4175 0108 0133     		adds	r3, r3, #1
 135:Middlewares/lvgl/src/draw/../misc/lv_area.h **** }
 4176              		.loc 2 135 12 view .LVU1588
 4177 010a 0FFA83F8 		sxth	r8, r3
 4178              	.LVL389:
 135:Middlewares/lvgl/src/draw/../misc/lv_area.h **** }
 4179              		.loc 2 135 12 view .LVU1589
 4180              	.LBE313:
 4181              	.LBE312:
1274:Middlewares/lvgl/src/draw/lv_draw_rect.c ****     lv_draw_mask_radius_init(&mask_rin_param, area_inner, rin, true);
ARM GAS  /tmp/ccUpPomB.s 			page 125


 4182              		.loc 1 1274 5 is_stmt 1 view .LVU1590
1275:Middlewares/lvgl/src/draw/lv_draw_rect.c ****     int16_t mask_rin_id = lv_draw_mask_add(&mask_rin_param, NULL);
 4183              		.loc 1 1275 5 view .LVU1591
 4184 010e 0123     		movs	r3, #1
 4185 0110 0FFA89F2 		sxth	r2, r9
 4186 0114 2946     		mov	r1, r5
 4187 0116 1BA8     		add	r0, sp, #108
 4188 0118 FFF7FEFF 		bl	lv_draw_mask_radius_init
 4189              	.LVL390:
1276:Middlewares/lvgl/src/draw/lv_draw_rect.c **** 
 4190              		.loc 1 1276 5 view .LVU1592
1276:Middlewares/lvgl/src/draw/lv_draw_rect.c **** 
 4191              		.loc 1 1276 27 is_stmt 0 view .LVU1593
 4192 011c 0021     		movs	r1, #0
 4193 011e 1BA8     		add	r0, sp, #108
 4194 0120 FFF7FEFF 		bl	lv_draw_mask_add
 4195              	.LVL391:
 4196 0124 0E90     		str	r0, [sp, #56]
 4197              	.LVL392:
1278:Middlewares/lvgl/src/draw/lv_draw_rect.c ****     lv_draw_mask_radius_init(&mask_rout_param, area_outer, rout, false);
 4198              		.loc 1 1278 5 is_stmt 1 view .LVU1594
1279:Middlewares/lvgl/src/draw/lv_draw_rect.c ****     int16_t mask_rout_id = lv_draw_mask_add(&mask_rout_param, NULL);
 4199              		.loc 1 1279 5 view .LVU1595
 4200 0126 0023     		movs	r3, #0
 4201 0128 DDF81C90 		ldr	r9, [sp, #28]
 4202              	.LVL393:
1279:Middlewares/lvgl/src/draw/lv_draw_rect.c ****     int16_t mask_rout_id = lv_draw_mask_add(&mask_rout_param, NULL);
 4203              		.loc 1 1279 5 is_stmt 0 view .LVU1596
 4204 012c 0FFA89F2 		sxth	r2, r9
 4205 0130 2146     		mov	r1, r4
 4206 0132 14A8     		add	r0, sp, #80
 4207 0134 FFF7FEFF 		bl	lv_draw_mask_radius_init
 4208              	.LVL394:
1280:Middlewares/lvgl/src/draw/lv_draw_rect.c **** 
 4209              		.loc 1 1280 5 is_stmt 1 view .LVU1597
1280:Middlewares/lvgl/src/draw/lv_draw_rect.c **** 
 4210              		.loc 1 1280 28 is_stmt 0 view .LVU1598
 4211 0138 0021     		movs	r1, #0
 4212 013a 14A8     		add	r0, sp, #80
 4213 013c FFF7FEFF 		bl	lv_draw_mask_add
 4214              	.LVL395:
 4215 0140 0F90     		str	r0, [sp, #60]
 4216              	.LVL396:
1282:Middlewares/lvgl/src/draw/lv_draw_rect.c **** 
 4217              		.loc 1 1282 5 is_stmt 1 view .LVU1599
1282:Middlewares/lvgl/src/draw/lv_draw_rect.c **** 
 4218              		.loc 1 1282 27 is_stmt 0 view .LVU1600
 4219 0142 4046     		mov	r0, r8
 4220 0144 FFF7FEFF 		bl	lv_mem_buf_get
 4221              	.LVL397:
 4222 0148 0546     		mov	r5, r0
 4223              	.LVL398:
1284:Middlewares/lvgl/src/draw/lv_draw_rect.c **** 
 4224              		.loc 1 1284 5 is_stmt 1 view .LVU1601
1284:Middlewares/lvgl/src/draw/lv_draw_rect.c **** 
 4225              		.loc 1 1284 27 is_stmt 0 view .LVU1602
 4226 014a 089B     		ldr	r3, [sp, #32]
ARM GAS  /tmp/ccUpPomB.s 			page 126


 4227 014c 4B45     		cmp	r3, r9
 4228 014e 22DD     		ble	.L216
1284:Middlewares/lvgl/src/draw/lv_draw_rect.c **** 
 4229              		.loc 1 1284 27 discriminator 1 view .LVU1603
 4230 0150 013B     		subs	r3, r3, #1
 4231 0152 0D93     		str	r3, [sp, #52]
 4232              	.L200:
 4233              	.LVL399:
1286:Middlewares/lvgl/src/draw/lv_draw_rect.c ****     lv_draw_mask_res_t mask_res;
 4234              		.loc 1 1286 5 is_stmt 1 discriminator 4 view .LVU1604
1287:Middlewares/lvgl/src/draw/lv_draw_rect.c ****     lv_area_t fill_area;
 4235              		.loc 1 1287 5 discriminator 4 view .LVU1605
1288:Middlewares/lvgl/src/draw/lv_draw_rect.c **** 
 4236              		.loc 1 1288 5 discriminator 4 view .LVU1606
1291:Middlewares/lvgl/src/draw/lv_draw_rect.c ****         /*Draw the upper corner area*/
 4237              		.loc 1 1291 5 discriminator 4 view .LVU1607
1291:Middlewares/lvgl/src/draw/lv_draw_rect.c ****         /*Draw the upper corner area*/
 4238              		.loc 1 1291 7 is_stmt 0 discriminator 4 view .LVU1608
 4239 0154 BAF1000F 		cmp	r10, #0
 4240 0158 00F08881 		beq	.L201
 4241              	.LBB314:
1293:Middlewares/lvgl/src/draw/lv_draw_rect.c **** 
 4242              		.loc 1 1293 9 is_stmt 1 view .LVU1609
1293:Middlewares/lvgl/src/draw/lv_draw_rect.c **** 
 4243              		.loc 1 1293 46 is_stmt 0 view .LVU1610
 4244 015c B4F90220 		ldrsh	r2, [r4, #2]
1293:Middlewares/lvgl/src/draw/lv_draw_rect.c **** 
 4245              		.loc 1 1293 62 view .LVU1611
 4246 0160 B6F91230 		ldrsh	r3, [r6, #18]
1293:Middlewares/lvgl/src/draw/lv_draw_rect.c **** 
 4247              		.loc 1 1293 51 view .LVU1612
 4248 0164 D21A     		subs	r2, r2, r3
1293:Middlewares/lvgl/src/draw/lv_draw_rect.c **** 
 4249              		.loc 1 1293 17 view .LVU1613
 4250 0166 0D99     		ldr	r1, [sp, #52]
 4251 0168 0A44     		add	r2, r2, r1
 4252 016a 0992     		str	r2, [sp, #36]
 4253              	.LVL400:
1295:Middlewares/lvgl/src/draw/lv_draw_rect.c ****         fill_area.x2 = area_outer->x2;
 4254              		.loc 1 1295 9 is_stmt 1 view .LVU1614
1295:Middlewares/lvgl/src/draw/lv_draw_rect.c ****         fill_area.x2 = area_outer->x2;
 4255              		.loc 1 1295 34 is_stmt 0 view .LVU1615
 4256 016c B4F90020 		ldrsh	r2, [r4]
 4257              	.LVL401:
1295:Middlewares/lvgl/src/draw/lv_draw_rect.c ****         fill_area.x2 = area_outer->x2;
 4258              		.loc 1 1295 22 view .LVU1616
 4259 0170 ADF84820 		strh	r2, [sp, #72]	@ movhi
1296:Middlewares/lvgl/src/draw/lv_draw_rect.c ****         fill_area.y1 = disp_area->y1 + draw_area.y1;
 4260              		.loc 1 1296 9 is_stmt 1 view .LVU1617
1296:Middlewares/lvgl/src/draw/lv_draw_rect.c ****         fill_area.y1 = disp_area->y1 + draw_area.y1;
 4261              		.loc 1 1296 34 is_stmt 0 view .LVU1618
 4262 0174 B4F90420 		ldrsh	r2, [r4, #4]
1296:Middlewares/lvgl/src/draw/lv_draw_rect.c ****         fill_area.y1 = disp_area->y1 + draw_area.y1;
 4263              		.loc 1 1296 22 view .LVU1619
 4264 0178 ADF84C20 		strh	r2, [sp, #76]	@ movhi
1297:Middlewares/lvgl/src/draw/lv_draw_rect.c ****         fill_area.y2 = fill_area.y1;
 4265              		.loc 1 1297 9 is_stmt 1 view .LVU1620
ARM GAS  /tmp/ccUpPomB.s 			page 127


1297:Middlewares/lvgl/src/draw/lv_draw_rect.c ****         fill_area.y2 = fill_area.y1;
 4266              		.loc 1 1297 49 is_stmt 0 view .LVU1621
 4267 017c BDF98AA0 		ldrsh	r10, [sp, #138]
 4268              	.LVL402:
1297:Middlewares/lvgl/src/draw/lv_draw_rect.c ****         fill_area.y2 = fill_area.y1;
 4269              		.loc 1 1297 49 view .LVU1622
 4270 0180 1FFA8AF2 		uxth	r2, r10
1297:Middlewares/lvgl/src/draw/lv_draw_rect.c ****         fill_area.y2 = fill_area.y1;
 4271              		.loc 1 1297 38 view .LVU1623
 4272 0184 12FA83F3 		uxtah	r3, r2, r3
 4273 0188 1BB2     		sxth	r3, r3
1297:Middlewares/lvgl/src/draw/lv_draw_rect.c ****         fill_area.y2 = fill_area.y1;
 4274              		.loc 1 1297 22 view .LVU1624
 4275 018a ADF84A30 		strh	r3, [sp, #74]	@ movhi
1298:Middlewares/lvgl/src/draw/lv_draw_rect.c ****         for(h = draw_area.y1; h <= upper_corner_end; h++) {
 4276              		.loc 1 1298 9 is_stmt 1 view .LVU1625
1298:Middlewares/lvgl/src/draw/lv_draw_rect.c ****         for(h = draw_area.y1; h <= upper_corner_end; h++) {
 4277              		.loc 1 1298 22 is_stmt 0 view .LVU1626
 4278 018e ADF84E30 		strh	r3, [sp, #78]	@ movhi
1299:Middlewares/lvgl/src/draw/lv_draw_rect.c ****             lv_memset_ff(mask_buf, draw_area_w);
 4279              		.loc 1 1299 9 is_stmt 1 view .LVU1627
 4280              	.LVL403:
1299:Middlewares/lvgl/src/draw/lv_draw_rect.c ****             lv_memset_ff(mask_buf, draw_area_w);
 4281              		.loc 1 1299 9 is_stmt 0 view .LVU1628
 4282 0192 A146     		mov	r9, r4
 4283 0194 31E0     		b	.L202
 4284              	.LVL404:
 4285              	.L216:
1299:Middlewares/lvgl/src/draw/lv_draw_rect.c ****             lv_memset_ff(mask_buf, draw_area_w);
 4286              		.loc 1 1299 9 view .LVU1629
 4287              	.LBE314:
1284:Middlewares/lvgl/src/draw/lv_draw_rect.c **** 
 4288              		.loc 1 1284 27 view .LVU1630
 4289 0196 079B     		ldr	r3, [sp, #28]
 4290 0198 0D93     		str	r3, [sp, #52]
 4291 019a DBE7     		b	.L200
 4292              	.LVL405:
 4293              	.L222:
 4294              	.LBB319:
 4295              	.LBB315:
1314:Middlewares/lvgl/src/draw/lv_draw_rect.c ****                 fill_area2.x2 = area_outer->x2 - rout;
 4296              		.loc 1 1314 17 is_stmt 1 view .LVU1631
1314:Middlewares/lvgl/src/draw/lv_draw_rect.c ****                 fill_area2.x2 = area_outer->x2 - rout;
 4297              		.loc 1 1314 43 is_stmt 0 view .LVU1632
 4298 019c B9F80030 		ldrh	r3, [r9]
1314:Middlewares/lvgl/src/draw/lv_draw_rect.c ****                 fill_area2.x2 = area_outer->x2 - rout;
 4299              		.loc 1 1314 48 view .LVU1633
 4300 01a0 5B44     		add	r3, r3, fp
1314:Middlewares/lvgl/src/draw/lv_draw_rect.c ****                 fill_area2.x2 = area_outer->x2 - rout;
 4301              		.loc 1 1314 31 view .LVU1634
 4302 01a2 ADF84030 		strh	r3, [sp, #64]	@ movhi
1315:Middlewares/lvgl/src/draw/lv_draw_rect.c **** 
 4303              		.loc 1 1315 17 is_stmt 1 view .LVU1635
1315:Middlewares/lvgl/src/draw/lv_draw_rect.c **** 
 4304              		.loc 1 1315 43 is_stmt 0 view .LVU1636
 4305 01a6 B9F80430 		ldrh	r3, [r9, #4]
1315:Middlewares/lvgl/src/draw/lv_draw_rect.c **** 
ARM GAS  /tmp/ccUpPomB.s 			page 128


 4306              		.loc 1 1315 48 view .LVU1637
 4307 01aa A3EB0B03 		sub	r3, r3, fp
1315:Middlewares/lvgl/src/draw/lv_draw_rect.c **** 
 4308              		.loc 1 1315 31 view .LVU1638
 4309 01ae ADF84430 		strh	r3, [sp, #68]	@ movhi
1317:Middlewares/lvgl/src/draw/lv_draw_rect.c ****             }
 4310              		.loc 1 1317 17 is_stmt 1 view .LVU1639
 4311 01b2 069B     		ldr	r3, [sp, #24]
 4312 01b4 0293     		str	r3, [sp, #8]
 4313 01b6 0197     		str	r7, [sp, #4]
 4314 01b8 0123     		movs	r3, #1
 4315 01ba 0093     		str	r3, [sp]
 4316 01bc 0023     		movs	r3, #0
 4317 01be BDF8BC20 		ldrh	r2, [sp, #188]
 4318 01c2 10A9     		add	r1, sp, #64
 4319 01c4 0598     		ldr	r0, [sp, #20]
 4320 01c6 FFF7FEFF 		bl	_lv_blend_fill
 4321              	.LVL406:
 4322 01ca 51E0     		b	.L203
 4323              	.LVL407:
 4324              	.L204:
1325:Middlewares/lvgl/src/draw/lv_draw_rect.c **** 
 4325              		.loc 1 1325 13 discriminator 2 view .LVU1640
 4326 01cc 069A     		ldr	r2, [sp, #24]
 4327 01ce 0292     		str	r2, [sp, #8]
 4328 01d0 0197     		str	r7, [sp, #4]
 4329 01d2 0094     		str	r4, [sp]
 4330 01d4 2B44     		add	r3, r3, r5
 4331              	.LVL408:
1325:Middlewares/lvgl/src/draw/lv_draw_rect.c **** 
 4332              		.loc 1 1325 13 is_stmt 0 discriminator 2 view .LVU1641
 4333 01d6 BDF8BC20 		ldrh	r2, [sp, #188]
 4334 01da 10A9     		add	r1, sp, #64
 4335 01dc 0598     		ldr	r0, [sp, #20]
 4336 01de FFF7FEFF 		bl	_lv_blend_fill
 4337              	.LVL409:
1327:Middlewares/lvgl/src/draw/lv_draw_rect.c ****             fill_area.y2++;
 4338              		.loc 1 1327 13 is_stmt 1 discriminator 2 view .LVU1642
1327:Middlewares/lvgl/src/draw/lv_draw_rect.c ****             fill_area.y2++;
 4339              		.loc 1 1327 22 is_stmt 0 discriminator 2 view .LVU1643
 4340 01e2 BDF94A30 		ldrsh	r3, [sp, #74]
1327:Middlewares/lvgl/src/draw/lv_draw_rect.c ****             fill_area.y2++;
 4341              		.loc 1 1327 25 discriminator 2 view .LVU1644
 4342 01e6 0133     		adds	r3, r3, #1
 4343 01e8 ADF84A30 		strh	r3, [sp, #74]	@ movhi
1328:Middlewares/lvgl/src/draw/lv_draw_rect.c ****         }
 4344              		.loc 1 1328 13 is_stmt 1 discriminator 2 view .LVU1645
1328:Middlewares/lvgl/src/draw/lv_draw_rect.c ****         }
 4345              		.loc 1 1328 22 is_stmt 0 discriminator 2 view .LVU1646
 4346 01ec BDF94E30 		ldrsh	r3, [sp, #78]
1328:Middlewares/lvgl/src/draw/lv_draw_rect.c ****         }
 4347              		.loc 1 1328 25 discriminator 2 view .LVU1647
 4348 01f0 0133     		adds	r3, r3, #1
 4349 01f2 ADF84E30 		strh	r3, [sp, #78]	@ movhi
 4350              	.LBE315:
1299:Middlewares/lvgl/src/draw/lv_draw_rect.c ****             lv_memset_ff(mask_buf, draw_area_w);
 4351              		.loc 1 1299 54 is_stmt 1 discriminator 2 view .LVU1648
ARM GAS  /tmp/ccUpPomB.s 			page 129


1299:Middlewares/lvgl/src/draw/lv_draw_rect.c ****             lv_memset_ff(mask_buf, draw_area_w);
 4352              		.loc 1 1299 55 is_stmt 0 discriminator 2 view .LVU1649
 4353 01f6 0AF1010A 		add	r10, r10, #1
 4354              	.LVL410:
 4355              	.L202:
1299:Middlewares/lvgl/src/draw/lv_draw_rect.c ****             lv_memset_ff(mask_buf, draw_area_w);
 4356              		.loc 1 1299 31 is_stmt 1 discriminator 1 view .LVU1650
1299:Middlewares/lvgl/src/draw/lv_draw_rect.c ****             lv_memset_ff(mask_buf, draw_area_w);
 4357              		.loc 1 1299 9 is_stmt 0 discriminator 1 view .LVU1651
 4358 01fa 099B     		ldr	r3, [sp, #36]
 4359 01fc 9A45     		cmp	r10, r3
 4360 01fe 50DC     		bgt	.L221
 4361              	.LBB316:
1300:Middlewares/lvgl/src/draw/lv_draw_rect.c ****             mask_res = lv_draw_mask_apply(mask_buf, draw_buf->area.x1 + draw_area.x1, draw_buf->are
 4362              		.loc 1 1300 13 is_stmt 1 view .LVU1652
 4363 0200 4146     		mov	r1, r8
 4364 0202 2846     		mov	r0, r5
 4365 0204 FFF7FEFF 		bl	lv_memset_ff
 4366              	.LVL411:
1301:Middlewares/lvgl/src/draw/lv_draw_rect.c **** 
 4367              		.loc 1 1301 13 view .LVU1653
1301:Middlewares/lvgl/src/draw/lv_draw_rect.c **** 
 4368              		.loc 1 1301 67 is_stmt 0 view .LVU1654
 4369 0208 318A     		ldrh	r1, [r6, #16]
1301:Middlewares/lvgl/src/draw/lv_draw_rect.c **** 
 4370              		.loc 1 1301 82 view .LVU1655
 4371 020a BDF88830 		ldrh	r3, [sp, #136]
1301:Middlewares/lvgl/src/draw/lv_draw_rect.c **** 
 4372              		.loc 1 1301 71 view .LVU1656
 4373 020e 1944     		add	r1, r1, r3
1301:Middlewares/lvgl/src/draw/lv_draw_rect.c **** 
 4374              		.loc 1 1301 101 view .LVU1657
 4375 0210 728A     		ldrh	r2, [r6, #18]
1301:Middlewares/lvgl/src/draw/lv_draw_rect.c **** 
 4376              		.loc 1 1301 105 view .LVU1658
 4377 0212 5244     		add	r2, r2, r10
1301:Middlewares/lvgl/src/draw/lv_draw_rect.c **** 
 4378              		.loc 1 1301 24 view .LVU1659
 4379 0214 4346     		mov	r3, r8
 4380 0216 12B2     		sxth	r2, r2
 4381 0218 09B2     		sxth	r1, r1
 4382 021a 2846     		mov	r0, r5
 4383 021c FFF7FEFF 		bl	lv_draw_mask_apply
 4384              	.LVL412:
 4385 0220 0446     		mov	r4, r0
 4386              	.LVL413:
1303:Middlewares/lvgl/src/draw/lv_draw_rect.c ****             fill_area2.y1 = fill_area.y1;
 4387              		.loc 1 1303 13 is_stmt 1 view .LVU1660
1304:Middlewares/lvgl/src/draw/lv_draw_rect.c ****             fill_area2.y2 = fill_area.y2;
 4388              		.loc 1 1304 13 view .LVU1661
1304:Middlewares/lvgl/src/draw/lv_draw_rect.c ****             fill_area2.y2 = fill_area.y2;
 4389              		.loc 1 1304 38 is_stmt 0 view .LVU1662
 4390 0222 BDF94A30 		ldrsh	r3, [sp, #74]
1304:Middlewares/lvgl/src/draw/lv_draw_rect.c ****             fill_area2.y2 = fill_area.y2;
 4391              		.loc 1 1304 27 view .LVU1663
 4392 0226 ADF84230 		strh	r3, [sp, #66]	@ movhi
1305:Middlewares/lvgl/src/draw/lv_draw_rect.c **** 
ARM GAS  /tmp/ccUpPomB.s 			page 130


 4393              		.loc 1 1305 13 is_stmt 1 view .LVU1664
1305:Middlewares/lvgl/src/draw/lv_draw_rect.c **** 
 4394              		.loc 1 1305 38 is_stmt 0 view .LVU1665
 4395 022a BDF94E30 		ldrsh	r3, [sp, #78]
1305:Middlewares/lvgl/src/draw/lv_draw_rect.c **** 
 4396              		.loc 1 1305 27 view .LVU1666
 4397 022e ADF84630 		strh	r3, [sp, #70]	@ movhi
1307:Middlewares/lvgl/src/draw/lv_draw_rect.c ****             fill_area2.x2 = area_outer->x1 + rout - 1;
 4398              		.loc 1 1307 13 is_stmt 1 view .LVU1667
1307:Middlewares/lvgl/src/draw/lv_draw_rect.c ****             fill_area2.x2 = area_outer->x1 + rout - 1;
 4399              		.loc 1 1307 39 is_stmt 0 view .LVU1668
 4400 0232 B9F90030 		ldrsh	r3, [r9]
1307:Middlewares/lvgl/src/draw/lv_draw_rect.c ****             fill_area2.x2 = area_outer->x1 + rout - 1;
 4401              		.loc 1 1307 27 view .LVU1669
 4402 0236 ADF84030 		strh	r3, [sp, #64]	@ movhi
1308:Middlewares/lvgl/src/draw/lv_draw_rect.c **** 
 4403              		.loc 1 1308 13 is_stmt 1 view .LVU1670
1308:Middlewares/lvgl/src/draw/lv_draw_rect.c **** 
 4404              		.loc 1 1308 44 is_stmt 0 view .LVU1671
 4405 023a BDF81CB0 		ldrh	fp, [sp, #28]
 4406 023e 1BFA83F3 		uxtah	r3, fp, r3
 4407 0242 9BB2     		uxth	r3, r3
1308:Middlewares/lvgl/src/draw/lv_draw_rect.c **** 
 4408              		.loc 1 1308 51 view .LVU1672
 4409 0244 013B     		subs	r3, r3, #1
1308:Middlewares/lvgl/src/draw/lv_draw_rect.c **** 
 4410              		.loc 1 1308 27 view .LVU1673
 4411 0246 ADF84430 		strh	r3, [sp, #68]	@ movhi
1310:Middlewares/lvgl/src/draw/lv_draw_rect.c **** 
 4412              		.loc 1 1310 13 is_stmt 1 view .LVU1674
 4413 024a 069B     		ldr	r3, [sp, #24]
 4414 024c 0293     		str	r3, [sp, #8]
 4415 024e 0197     		str	r7, [sp, #4]
 4416 0250 0090     		str	r0, [sp]
 4417 0252 2B46     		mov	r3, r5
 4418 0254 BDF8BC20 		ldrh	r2, [sp, #188]
 4419 0258 10A9     		add	r1, sp, #64
 4420 025a 0598     		ldr	r0, [sp, #20]
 4421              	.LVL414:
1310:Middlewares/lvgl/src/draw/lv_draw_rect.c **** 
 4422              		.loc 1 1310 13 is_stmt 0 view .LVU1675
 4423 025c FFF7FEFF 		bl	_lv_blend_fill
 4424              	.LVL415:
1313:Middlewares/lvgl/src/draw/lv_draw_rect.c ****                 fill_area2.x1 = area_outer->x1 + rout;
 4425              		.loc 1 1313 13 is_stmt 1 view .LVU1676
1313:Middlewares/lvgl/src/draw/lv_draw_rect.c ****                 fill_area2.x1 = area_outer->x1 + rout;
 4426              		.loc 1 1313 26 is_stmt 0 view .LVU1677
 4427 0260 BDF94620 		ldrsh	r2, [sp, #70]
1313:Middlewares/lvgl/src/draw/lv_draw_rect.c ****                 fill_area2.x1 = area_outer->x1 + rout;
 4428              		.loc 1 1313 42 view .LVU1678
 4429 0264 B9F90230 		ldrsh	r3, [r9, #2]
1313:Middlewares/lvgl/src/draw/lv_draw_rect.c ****                 fill_area2.x1 = area_outer->x1 + rout;
 4430              		.loc 1 1313 47 view .LVU1679
 4431 0268 0899     		ldr	r1, [sp, #32]
 4432 026a 0B44     		add	r3, r3, r1
1313:Middlewares/lvgl/src/draw/lv_draw_rect.c ****                 fill_area2.x1 = area_outer->x1 + rout;
 4433              		.loc 1 1313 15 view .LVU1680
ARM GAS  /tmp/ccUpPomB.s 			page 131


 4434 026c 9A42     		cmp	r2, r3
 4435 026e 95DB     		blt	.L222
 4436              	.L203:
1320:Middlewares/lvgl/src/draw/lv_draw_rect.c ****             fill_area2.x2 = area_outer->x2;
 4437              		.loc 1 1320 13 is_stmt 1 view .LVU1681
1320:Middlewares/lvgl/src/draw/lv_draw_rect.c ****             fill_area2.x2 = area_outer->x2;
 4438              		.loc 1 1320 39 is_stmt 0 view .LVU1682
 4439 0270 B9F90430 		ldrsh	r3, [r9, #4]
 4440 0274 9AB2     		uxth	r2, r3
1320:Middlewares/lvgl/src/draw/lv_draw_rect.c ****             fill_area2.x2 = area_outer->x2;
 4441              		.loc 1 1320 44 view .LVU1683
 4442 0276 A2EB0B0B 		sub	fp, r2, fp
 4443 027a 1FFA8BFB 		uxth	fp, fp
1320:Middlewares/lvgl/src/draw/lv_draw_rect.c ****             fill_area2.x2 = area_outer->x2;
 4444              		.loc 1 1320 51 view .LVU1684
 4445 027e 0BF1010B 		add	fp, fp, #1
1320:Middlewares/lvgl/src/draw/lv_draw_rect.c ****             fill_area2.x2 = area_outer->x2;
 4446              		.loc 1 1320 27 view .LVU1685
 4447 0282 ADF840B0 		strh	fp, [sp, #64]	@ movhi
1321:Middlewares/lvgl/src/draw/lv_draw_rect.c **** 
 4448              		.loc 1 1321 13 is_stmt 1 view .LVU1686
1321:Middlewares/lvgl/src/draw/lv_draw_rect.c **** 
 4449              		.loc 1 1321 27 is_stmt 0 view .LVU1687
 4450 0286 ADF84430 		strh	r3, [sp, #68]	@ movhi
1323:Middlewares/lvgl/src/draw/lv_draw_rect.c ****             if(mask_ofs < 0) mask_ofs = 0;
 4451              		.loc 1 1323 13 is_stmt 1 view .LVU1688
1323:Middlewares/lvgl/src/draw/lv_draw_rect.c ****             if(mask_ofs < 0) mask_ofs = 0;
 4452              		.loc 1 1323 48 is_stmt 0 view .LVU1689
 4453 028a 079A     		ldr	r2, [sp, #28]
 4454 028c 9B1A     		subs	r3, r3, r2
1323:Middlewares/lvgl/src/draw/lv_draw_rect.c ****             if(mask_ofs < 0) mask_ofs = 0;
 4455              		.loc 1 1323 55 view .LVU1690
 4456 028e 0133     		adds	r3, r3, #1
1323:Middlewares/lvgl/src/draw/lv_draw_rect.c ****             if(mask_ofs < 0) mask_ofs = 0;
 4457              		.loc 1 1323 77 view .LVU1691
 4458 0290 B6F91020 		ldrsh	r2, [r6, #16]
1323:Middlewares/lvgl/src/draw/lv_draw_rect.c ****             if(mask_ofs < 0) mask_ofs = 0;
 4459              		.loc 1 1323 92 view .LVU1692
 4460 0294 BDF98810 		ldrsh	r1, [sp, #136]
1323:Middlewares/lvgl/src/draw/lv_draw_rect.c ****             if(mask_ofs < 0) mask_ofs = 0;
 4461              		.loc 1 1323 81 view .LVU1693
 4462 0298 0A44     		add	r2, r2, r1
 4463              	.LVL416:
1324:Middlewares/lvgl/src/draw/lv_draw_rect.c ****             _lv_blend_fill(clip, &fill_area2, color, mask_buf + mask_ofs, mask_res, opa, blend_mode
 4464              		.loc 1 1324 13 is_stmt 1 view .LVU1694
1324:Middlewares/lvgl/src/draw/lv_draw_rect.c ****             _lv_blend_fill(clip, &fill_area2, color, mask_buf + mask_ofs, mask_res, opa, blend_mode
 4465              		.loc 1 1324 15 is_stmt 0 view .LVU1695
 4466 029a 9B1A     		subs	r3, r3, r2
 4467              	.LVL417:
1324:Middlewares/lvgl/src/draw/lv_draw_rect.c ****             _lv_blend_fill(clip, &fill_area2, color, mask_buf + mask_ofs, mask_res, opa, blend_mode
 4468              		.loc 1 1324 15 view .LVU1696
 4469 029c 96D5     		bpl	.L204
1324:Middlewares/lvgl/src/draw/lv_draw_rect.c ****             _lv_blend_fill(clip, &fill_area2, color, mask_buf + mask_ofs, mask_res, opa, blend_mode
 4470              		.loc 1 1324 39 view .LVU1697
 4471 029e 0023     		movs	r3, #0
 4472              	.LVL418:
1324:Middlewares/lvgl/src/draw/lv_draw_rect.c ****             _lv_blend_fill(clip, &fill_area2, color, mask_buf + mask_ofs, mask_res, opa, blend_mode
ARM GAS  /tmp/ccUpPomB.s 			page 132


 4473              		.loc 1 1324 39 view .LVU1698
 4474 02a0 94E7     		b	.L204
 4475              	.L221:
1324:Middlewares/lvgl/src/draw/lv_draw_rect.c ****             _lv_blend_fill(clip, &fill_area2, color, mask_buf + mask_ofs, mask_res, opa, blend_mode
 4476              		.loc 1 1324 39 view .LVU1699
 4477              	.LBE316:
1332:Middlewares/lvgl/src/draw/lv_draw_rect.c ****         if(lower_corner_end <= upper_corner_end) lower_corner_end = upper_corner_end + 1;
 4478              		.loc 1 1332 46 view .LVU1700
 4479 02a2 4C46     		mov	r4, r9
1332:Middlewares/lvgl/src/draw/lv_draw_rect.c ****         if(lower_corner_end <= upper_corner_end) lower_corner_end = upper_corner_end + 1;
 4480              		.loc 1 1332 9 is_stmt 1 view .LVU1701
1332:Middlewares/lvgl/src/draw/lv_draw_rect.c ****         if(lower_corner_end <= upper_corner_end) lower_corner_end = upper_corner_end + 1;
 4481              		.loc 1 1332 46 is_stmt 0 view .LVU1702
 4482 02a4 B9F90690 		ldrsh	r9, [r9, #6]
 4483              	.LVL419:
1332:Middlewares/lvgl/src/draw/lv_draw_rect.c ****         if(lower_corner_end <= upper_corner_end) lower_corner_end = upper_corner_end + 1;
 4484              		.loc 1 1332 62 view .LVU1703
 4485 02a8 B6F91230 		ldrsh	r3, [r6, #18]
1332:Middlewares/lvgl/src/draw/lv_draw_rect.c ****         if(lower_corner_end <= upper_corner_end) lower_corner_end = upper_corner_end + 1;
 4486              		.loc 1 1332 51 view .LVU1704
 4487 02ac A9EB0309 		sub	r9, r9, r3
1332:Middlewares/lvgl/src/draw/lv_draw_rect.c ****         if(lower_corner_end <= upper_corner_end) lower_corner_end = upper_corner_end + 1;
 4488              		.loc 1 1332 17 view .LVU1705
 4489 02b0 0D9A     		ldr	r2, [sp, #52]
 4490 02b2 A9EB0209 		sub	r9, r9, r2
 4491              	.LVL420:
1333:Middlewares/lvgl/src/draw/lv_draw_rect.c ****         fill_area.y1 = disp_area->y1 + lower_corner_end;
 4492              		.loc 1 1333 9 is_stmt 1 view .LVU1706
1333:Middlewares/lvgl/src/draw/lv_draw_rect.c ****         fill_area.y1 = disp_area->y1 + lower_corner_end;
 4493              		.loc 1 1333 11 is_stmt 0 view .LVU1707
 4494 02b6 099A     		ldr	r2, [sp, #36]
 4495 02b8 4A45     		cmp	r2, r9
 4496 02ba 01DB     		blt	.L206
1333:Middlewares/lvgl/src/draw/lv_draw_rect.c ****         fill_area.y1 = disp_area->y1 + lower_corner_end;
 4497              		.loc 1 1333 50 is_stmt 1 discriminator 1 view .LVU1708
1333:Middlewares/lvgl/src/draw/lv_draw_rect.c ****         fill_area.y1 = disp_area->y1 + lower_corner_end;
 4498              		.loc 1 1333 67 is_stmt 0 discriminator 1 view .LVU1709
 4499 02bc 02F10109 		add	r9, r2, #1
 4500              	.LVL421:
 4501              	.L206:
1334:Middlewares/lvgl/src/draw/lv_draw_rect.c ****         fill_area.y2 = fill_area.y1;
 4502              		.loc 1 1334 9 is_stmt 1 view .LVU1710
1334:Middlewares/lvgl/src/draw/lv_draw_rect.c ****         fill_area.y2 = fill_area.y1;
 4503              		.loc 1 1334 38 is_stmt 0 view .LVU1711
 4504 02c0 19FA83F3 		uxtah	r3, r9, r3
 4505 02c4 1BB2     		sxth	r3, r3
1334:Middlewares/lvgl/src/draw/lv_draw_rect.c ****         fill_area.y2 = fill_area.y1;
 4506              		.loc 1 1334 22 view .LVU1712
 4507 02c6 ADF84A30 		strh	r3, [sp, #74]	@ movhi
1335:Middlewares/lvgl/src/draw/lv_draw_rect.c ****         for(h = lower_corner_end; h <= draw_area.y2; h++) {
 4508              		.loc 1 1335 9 is_stmt 1 view .LVU1713
1335:Middlewares/lvgl/src/draw/lv_draw_rect.c ****         for(h = lower_corner_end; h <= draw_area.y2; h++) {
 4509              		.loc 1 1335 22 is_stmt 0 view .LVU1714
 4510 02ca ADF84E30 		strh	r3, [sp, #78]	@ movhi
1336:Middlewares/lvgl/src/draw/lv_draw_rect.c ****             lv_memset_ff(mask_buf, draw_area_w);
 4511              		.loc 1 1336 9 is_stmt 1 view .LVU1715
 4512              	.LVL422:
ARM GAS  /tmp/ccUpPomB.s 			page 133


1336:Middlewares/lvgl/src/draw/lv_draw_rect.c ****             lv_memset_ff(mask_buf, draw_area_w);
 4513              		.loc 1 1336 9 is_stmt 0 view .LVU1716
 4514 02ce B346     		mov	fp, r6
 4515 02d0 2CE0     		b	.L207
 4516              	.LVL423:
 4517              	.L224:
 4518              	.LBB317:
1350:Middlewares/lvgl/src/draw/lv_draw_rect.c ****                 fill_area2.x2 = area_outer->x2 - rout;
 4519              		.loc 1 1350 17 is_stmt 1 view .LVU1717
1350:Middlewares/lvgl/src/draw/lv_draw_rect.c ****                 fill_area2.x2 = area_outer->x2 - rout;
 4520              		.loc 1 1350 43 is_stmt 0 view .LVU1718
 4521 02d2 2388     		ldrh	r3, [r4]
1350:Middlewares/lvgl/src/draw/lv_draw_rect.c ****                 fill_area2.x2 = area_outer->x2 - rout;
 4522              		.loc 1 1350 48 view .LVU1719
 4523 02d4 5344     		add	r3, r3, r10
1350:Middlewares/lvgl/src/draw/lv_draw_rect.c ****                 fill_area2.x2 = area_outer->x2 - rout;
 4524              		.loc 1 1350 31 view .LVU1720
 4525 02d6 ADF84030 		strh	r3, [sp, #64]	@ movhi
1351:Middlewares/lvgl/src/draw/lv_draw_rect.c **** 
 4526              		.loc 1 1351 17 is_stmt 1 view .LVU1721
1351:Middlewares/lvgl/src/draw/lv_draw_rect.c **** 
 4527              		.loc 1 1351 43 is_stmt 0 view .LVU1722
 4528 02da A388     		ldrh	r3, [r4, #4]
1351:Middlewares/lvgl/src/draw/lv_draw_rect.c **** 
 4529              		.loc 1 1351 48 view .LVU1723
 4530 02dc A3EB0A03 		sub	r3, r3, r10
1351:Middlewares/lvgl/src/draw/lv_draw_rect.c **** 
 4531              		.loc 1 1351 31 view .LVU1724
 4532 02e0 ADF84430 		strh	r3, [sp, #68]	@ movhi
1353:Middlewares/lvgl/src/draw/lv_draw_rect.c ****             }
 4533              		.loc 1 1353 17 is_stmt 1 view .LVU1725
 4534 02e4 069B     		ldr	r3, [sp, #24]
 4535 02e6 0293     		str	r3, [sp, #8]
 4536 02e8 0197     		str	r7, [sp, #4]
 4537 02ea 0123     		movs	r3, #1
 4538 02ec 0093     		str	r3, [sp]
 4539 02ee 0023     		movs	r3, #0
 4540 02f0 BDF8BC20 		ldrh	r2, [sp, #188]
 4541 02f4 10A9     		add	r1, sp, #64
 4542 02f6 0598     		ldr	r0, [sp, #20]
 4543 02f8 FFF7FEFF 		bl	_lv_blend_fill
 4544              	.LVL424:
 4545 02fc 54E0     		b	.L208
 4546              	.LVL425:
 4547              	.L209:
1360:Middlewares/lvgl/src/draw/lv_draw_rect.c **** 
 4548              		.loc 1 1360 13 discriminator 2 view .LVU1726
 4549 02fe 069A     		ldr	r2, [sp, #24]
 4550 0300 0292     		str	r2, [sp, #8]
 4551 0302 0197     		str	r7, [sp, #4]
 4552 0304 0096     		str	r6, [sp]
 4553 0306 2B44     		add	r3, r3, r5
 4554              	.LVL426:
1360:Middlewares/lvgl/src/draw/lv_draw_rect.c **** 
 4555              		.loc 1 1360 13 is_stmt 0 discriminator 2 view .LVU1727
 4556 0308 BDF8BC20 		ldrh	r2, [sp, #188]
 4557 030c 10A9     		add	r1, sp, #64
ARM GAS  /tmp/ccUpPomB.s 			page 134


 4558 030e 0598     		ldr	r0, [sp, #20]
 4559 0310 FFF7FEFF 		bl	_lv_blend_fill
 4560              	.LVL427:
1362:Middlewares/lvgl/src/draw/lv_draw_rect.c ****             fill_area.y2++;
 4561              		.loc 1 1362 13 is_stmt 1 discriminator 2 view .LVU1728
1362:Middlewares/lvgl/src/draw/lv_draw_rect.c ****             fill_area.y2++;
 4562              		.loc 1 1362 22 is_stmt 0 discriminator 2 view .LVU1729
 4563 0314 BDF94A30 		ldrsh	r3, [sp, #74]
1362:Middlewares/lvgl/src/draw/lv_draw_rect.c ****             fill_area.y2++;
 4564              		.loc 1 1362 25 discriminator 2 view .LVU1730
 4565 0318 0133     		adds	r3, r3, #1
 4566 031a ADF84A30 		strh	r3, [sp, #74]	@ movhi
1363:Middlewares/lvgl/src/draw/lv_draw_rect.c ****         }
 4567              		.loc 1 1363 13 is_stmt 1 discriminator 2 view .LVU1731
1363:Middlewares/lvgl/src/draw/lv_draw_rect.c ****         }
 4568              		.loc 1 1363 22 is_stmt 0 discriminator 2 view .LVU1732
 4569 031e BDF94E30 		ldrsh	r3, [sp, #78]
1363:Middlewares/lvgl/src/draw/lv_draw_rect.c ****         }
 4570              		.loc 1 1363 25 discriminator 2 view .LVU1733
 4571 0322 0133     		adds	r3, r3, #1
 4572 0324 ADF84E30 		strh	r3, [sp, #78]	@ movhi
 4573              	.LBE317:
1336:Middlewares/lvgl/src/draw/lv_draw_rect.c ****             lv_memset_ff(mask_buf, draw_area_w);
 4574              		.loc 1 1336 54 is_stmt 1 discriminator 2 view .LVU1734
1336:Middlewares/lvgl/src/draw/lv_draw_rect.c ****             lv_memset_ff(mask_buf, draw_area_w);
 4575              		.loc 1 1336 55 is_stmt 0 discriminator 2 view .LVU1735
 4576 0328 09F10109 		add	r9, r9, #1
 4577              	.LVL428:
 4578              	.L207:
1336:Middlewares/lvgl/src/draw/lv_draw_rect.c ****             lv_memset_ff(mask_buf, draw_area_w);
 4579              		.loc 1 1336 35 is_stmt 1 discriminator 1 view .LVU1736
1336:Middlewares/lvgl/src/draw/lv_draw_rect.c ****             lv_memset_ff(mask_buf, draw_area_w);
 4580              		.loc 1 1336 49 is_stmt 0 discriminator 1 view .LVU1737
 4581 032c BDF98E30 		ldrsh	r3, [sp, #142]
1336:Middlewares/lvgl/src/draw/lv_draw_rect.c ****             lv_memset_ff(mask_buf, draw_area_w);
 4582              		.loc 1 1336 9 discriminator 1 view .LVU1738
 4583 0330 4B45     		cmp	r3, r9
 4584 0332 52DB     		blt	.L223
 4585              	.LBB318:
1337:Middlewares/lvgl/src/draw/lv_draw_rect.c ****             mask_res = lv_draw_mask_apply(mask_buf, draw_buf->area.x1 + draw_area.x1, draw_buf->are
 4586              		.loc 1 1337 13 is_stmt 1 view .LVU1739
 4587 0334 4146     		mov	r1, r8
 4588 0336 2846     		mov	r0, r5
 4589 0338 FFF7FEFF 		bl	lv_memset_ff
 4590              	.LVL429:
1338:Middlewares/lvgl/src/draw/lv_draw_rect.c **** 
 4591              		.loc 1 1338 13 view .LVU1740
1338:Middlewares/lvgl/src/draw/lv_draw_rect.c **** 
 4592              		.loc 1 1338 67 is_stmt 0 view .LVU1741
 4593 033c BBF81010 		ldrh	r1, [fp, #16]
1338:Middlewares/lvgl/src/draw/lv_draw_rect.c **** 
 4594              		.loc 1 1338 82 view .LVU1742
 4595 0340 BDF88830 		ldrh	r3, [sp, #136]
1338:Middlewares/lvgl/src/draw/lv_draw_rect.c **** 
 4596              		.loc 1 1338 71 view .LVU1743
 4597 0344 1944     		add	r1, r1, r3
1338:Middlewares/lvgl/src/draw/lv_draw_rect.c **** 
ARM GAS  /tmp/ccUpPomB.s 			page 135


 4598              		.loc 1 1338 101 view .LVU1744
 4599 0346 BBF81220 		ldrh	r2, [fp, #18]
1338:Middlewares/lvgl/src/draw/lv_draw_rect.c **** 
 4600              		.loc 1 1338 105 view .LVU1745
 4601 034a 4A44     		add	r2, r2, r9
1338:Middlewares/lvgl/src/draw/lv_draw_rect.c **** 
 4602              		.loc 1 1338 24 view .LVU1746
 4603 034c 4346     		mov	r3, r8
 4604 034e 12B2     		sxth	r2, r2
 4605 0350 09B2     		sxth	r1, r1
 4606 0352 2846     		mov	r0, r5
 4607 0354 FFF7FEFF 		bl	lv_draw_mask_apply
 4608              	.LVL430:
 4609 0358 0646     		mov	r6, r0
 4610              	.LVL431:
1340:Middlewares/lvgl/src/draw/lv_draw_rect.c ****             fill_area2.x1 = area_outer->x1;
 4611              		.loc 1 1340 13 is_stmt 1 view .LVU1747
1341:Middlewares/lvgl/src/draw/lv_draw_rect.c ****             fill_area2.x2 = area_outer->x1 + rout - 1;
 4612              		.loc 1 1341 13 view .LVU1748
1341:Middlewares/lvgl/src/draw/lv_draw_rect.c ****             fill_area2.x2 = area_outer->x1 + rout - 1;
 4613              		.loc 1 1341 39 is_stmt 0 view .LVU1749
 4614 035a B4F90030 		ldrsh	r3, [r4]
1341:Middlewares/lvgl/src/draw/lv_draw_rect.c ****             fill_area2.x2 = area_outer->x1 + rout - 1;
 4615              		.loc 1 1341 27 view .LVU1750
 4616 035e ADF84030 		strh	r3, [sp, #64]	@ movhi
1342:Middlewares/lvgl/src/draw/lv_draw_rect.c ****             fill_area2.y1 = fill_area.y1;
 4617              		.loc 1 1342 13 is_stmt 1 view .LVU1751
1342:Middlewares/lvgl/src/draw/lv_draw_rect.c ****             fill_area2.y1 = fill_area.y1;
 4618              		.loc 1 1342 44 is_stmt 0 view .LVU1752
 4619 0362 BDF81CA0 		ldrh	r10, [sp, #28]
 4620 0366 1AFA83F3 		uxtah	r3, r10, r3
 4621 036a 9BB2     		uxth	r3, r3
1342:Middlewares/lvgl/src/draw/lv_draw_rect.c ****             fill_area2.y1 = fill_area.y1;
 4622              		.loc 1 1342 51 view .LVU1753
 4623 036c 013B     		subs	r3, r3, #1
1342:Middlewares/lvgl/src/draw/lv_draw_rect.c ****             fill_area2.y1 = fill_area.y1;
 4624              		.loc 1 1342 27 view .LVU1754
 4625 036e ADF84430 		strh	r3, [sp, #68]	@ movhi
1343:Middlewares/lvgl/src/draw/lv_draw_rect.c ****             fill_area2.y2 = fill_area.y2;
 4626              		.loc 1 1343 13 is_stmt 1 view .LVU1755
1343:Middlewares/lvgl/src/draw/lv_draw_rect.c ****             fill_area2.y2 = fill_area.y2;
 4627              		.loc 1 1343 38 is_stmt 0 view .LVU1756
 4628 0372 BDF94A30 		ldrsh	r3, [sp, #74]
1343:Middlewares/lvgl/src/draw/lv_draw_rect.c ****             fill_area2.y2 = fill_area.y2;
 4629              		.loc 1 1343 27 view .LVU1757
 4630 0376 ADF84230 		strh	r3, [sp, #66]	@ movhi
1344:Middlewares/lvgl/src/draw/lv_draw_rect.c **** 
 4631              		.loc 1 1344 13 is_stmt 1 view .LVU1758
1344:Middlewares/lvgl/src/draw/lv_draw_rect.c **** 
 4632              		.loc 1 1344 38 is_stmt 0 view .LVU1759
 4633 037a BDF94E30 		ldrsh	r3, [sp, #78]
1344:Middlewares/lvgl/src/draw/lv_draw_rect.c **** 
 4634              		.loc 1 1344 27 view .LVU1760
 4635 037e ADF84630 		strh	r3, [sp, #70]	@ movhi
1346:Middlewares/lvgl/src/draw/lv_draw_rect.c **** 
 4636              		.loc 1 1346 13 is_stmt 1 view .LVU1761
 4637 0382 069B     		ldr	r3, [sp, #24]
ARM GAS  /tmp/ccUpPomB.s 			page 136


 4638 0384 0293     		str	r3, [sp, #8]
 4639 0386 0197     		str	r7, [sp, #4]
 4640 0388 0090     		str	r0, [sp]
 4641 038a 2B46     		mov	r3, r5
 4642 038c BDF8BC20 		ldrh	r2, [sp, #188]
 4643 0390 10A9     		add	r1, sp, #64
 4644 0392 0598     		ldr	r0, [sp, #20]
 4645              	.LVL432:
1346:Middlewares/lvgl/src/draw/lv_draw_rect.c **** 
 4646              		.loc 1 1346 13 is_stmt 0 view .LVU1762
 4647 0394 FFF7FEFF 		bl	_lv_blend_fill
 4648              	.LVL433:
1349:Middlewares/lvgl/src/draw/lv_draw_rect.c ****                 fill_area2.x1 = area_outer->x1 + rout;
 4649              		.loc 1 1349 13 is_stmt 1 view .LVU1763
1349:Middlewares/lvgl/src/draw/lv_draw_rect.c ****                 fill_area2.x1 = area_outer->x1 + rout;
 4650              		.loc 1 1349 26 is_stmt 0 view .LVU1764
 4651 0398 BDF94620 		ldrsh	r2, [sp, #70]
1349:Middlewares/lvgl/src/draw/lv_draw_rect.c ****                 fill_area2.x1 = area_outer->x1 + rout;
 4652              		.loc 1 1349 42 view .LVU1765
 4653 039c B4F90630 		ldrsh	r3, [r4, #6]
1349:Middlewares/lvgl/src/draw/lv_draw_rect.c ****                 fill_area2.x1 = area_outer->x1 + rout;
 4654              		.loc 1 1349 47 view .LVU1766
 4655 03a0 0899     		ldr	r1, [sp, #32]
 4656 03a2 5B1A     		subs	r3, r3, r1
1349:Middlewares/lvgl/src/draw/lv_draw_rect.c ****                 fill_area2.x1 = area_outer->x1 + rout;
 4657              		.loc 1 1349 15 view .LVU1767
 4658 03a4 9A42     		cmp	r2, r3
 4659 03a6 94DC     		bgt	.L224
 4660              	.L208:
1355:Middlewares/lvgl/src/draw/lv_draw_rect.c ****             fill_area2.x2 = area_outer->x2;
 4661              		.loc 1 1355 13 is_stmt 1 view .LVU1768
1355:Middlewares/lvgl/src/draw/lv_draw_rect.c ****             fill_area2.x2 = area_outer->x2;
 4662              		.loc 1 1355 39 is_stmt 0 view .LVU1769
 4663 03a8 B4F90430 		ldrsh	r3, [r4, #4]
 4664 03ac 9AB2     		uxth	r2, r3
1355:Middlewares/lvgl/src/draw/lv_draw_rect.c ****             fill_area2.x2 = area_outer->x2;
 4665              		.loc 1 1355 44 view .LVU1770
 4666 03ae A2EB0A0A 		sub	r10, r2, r10
 4667 03b2 1FFA8AFA 		uxth	r10, r10
1355:Middlewares/lvgl/src/draw/lv_draw_rect.c ****             fill_area2.x2 = area_outer->x2;
 4668              		.loc 1 1355 51 view .LVU1771
 4669 03b6 0AF1010A 		add	r10, r10, #1
1355:Middlewares/lvgl/src/draw/lv_draw_rect.c ****             fill_area2.x2 = area_outer->x2;
 4670              		.loc 1 1355 27 view .LVU1772
 4671 03ba ADF840A0 		strh	r10, [sp, #64]	@ movhi
1356:Middlewares/lvgl/src/draw/lv_draw_rect.c **** 
 4672              		.loc 1 1356 13 is_stmt 1 view .LVU1773
1356:Middlewares/lvgl/src/draw/lv_draw_rect.c **** 
 4673              		.loc 1 1356 27 is_stmt 0 view .LVU1774
 4674 03be ADF84430 		strh	r3, [sp, #68]	@ movhi
1358:Middlewares/lvgl/src/draw/lv_draw_rect.c ****             if(mask_ofs < 0) mask_ofs = 0;
 4675              		.loc 1 1358 13 is_stmt 1 view .LVU1775
1358:Middlewares/lvgl/src/draw/lv_draw_rect.c ****             if(mask_ofs < 0) mask_ofs = 0;
 4676              		.loc 1 1358 48 is_stmt 0 view .LVU1776
 4677 03c2 079A     		ldr	r2, [sp, #28]
 4678 03c4 9B1A     		subs	r3, r3, r2
1358:Middlewares/lvgl/src/draw/lv_draw_rect.c ****             if(mask_ofs < 0) mask_ofs = 0;
ARM GAS  /tmp/ccUpPomB.s 			page 137


 4679              		.loc 1 1358 55 view .LVU1777
 4680 03c6 0133     		adds	r3, r3, #1
1358:Middlewares/lvgl/src/draw/lv_draw_rect.c ****             if(mask_ofs < 0) mask_ofs = 0;
 4681              		.loc 1 1358 77 view .LVU1778
 4682 03c8 BBF91020 		ldrsh	r2, [fp, #16]
1358:Middlewares/lvgl/src/draw/lv_draw_rect.c ****             if(mask_ofs < 0) mask_ofs = 0;
 4683              		.loc 1 1358 92 view .LVU1779
 4684 03cc BDF98810 		ldrsh	r1, [sp, #136]
1358:Middlewares/lvgl/src/draw/lv_draw_rect.c ****             if(mask_ofs < 0) mask_ofs = 0;
 4685              		.loc 1 1358 81 view .LVU1780
 4686 03d0 0A44     		add	r2, r2, r1
 4687              	.LVL434:
1359:Middlewares/lvgl/src/draw/lv_draw_rect.c ****             _lv_blend_fill(clip, &fill_area2, color, mask_buf + mask_ofs, mask_res, opa, blend_mode
 4688              		.loc 1 1359 13 is_stmt 1 view .LVU1781
1359:Middlewares/lvgl/src/draw/lv_draw_rect.c ****             _lv_blend_fill(clip, &fill_area2, color, mask_buf + mask_ofs, mask_res, opa, blend_mode
 4689              		.loc 1 1359 15 is_stmt 0 view .LVU1782
 4690 03d2 9B1A     		subs	r3, r3, r2
 4691              	.LVL435:
1359:Middlewares/lvgl/src/draw/lv_draw_rect.c ****             _lv_blend_fill(clip, &fill_area2, color, mask_buf + mask_ofs, mask_res, opa, blend_mode
 4692              		.loc 1 1359 15 view .LVU1783
 4693 03d4 93D5     		bpl	.L209
1359:Middlewares/lvgl/src/draw/lv_draw_rect.c ****             _lv_blend_fill(clip, &fill_area2, color, mask_buf + mask_ofs, mask_res, opa, blend_mode
 4694              		.loc 1 1359 39 view .LVU1784
 4695 03d6 0023     		movs	r3, #0
 4696              	.LVL436:
1359:Middlewares/lvgl/src/draw/lv_draw_rect.c ****             _lv_blend_fill(clip, &fill_area2, color, mask_buf + mask_ofs, mask_res, opa, blend_mode
 4697              		.loc 1 1359 39 view .LVU1785
 4698 03d8 91E7     		b	.L209
 4699              	.L223:
1359:Middlewares/lvgl/src/draw/lv_draw_rect.c ****             _lv_blend_fill(clip, &fill_area2, color, mask_buf + mask_ofs, mask_res, opa, blend_mode
 4700              		.loc 1 1359 39 view .LVU1786
 4701              	.LBE318:
1367:Middlewares/lvgl/src/draw/lv_draw_rect.c ****         fill_area.y2 = area_outer->y2 - corner_size - 1;
 4702              		.loc 1 1367 9 is_stmt 1 view .LVU1787
1367:Middlewares/lvgl/src/draw/lv_draw_rect.c ****         fill_area.y2 = area_outer->y2 - corner_size - 1;
 4703              		.loc 1 1367 34 is_stmt 0 view .LVU1788
 4704 03da 6388     		ldrh	r3, [r4, #2]
1367:Middlewares/lvgl/src/draw/lv_draw_rect.c ****         fill_area.y2 = area_outer->y2 - corner_size - 1;
 4705              		.loc 1 1367 39 view .LVU1789
 4706 03dc BDF83420 		ldrh	r2, [sp, #52]
 4707 03e0 1344     		add	r3, r3, r2
 4708 03e2 9BB2     		uxth	r3, r3
1367:Middlewares/lvgl/src/draw/lv_draw_rect.c ****         fill_area.y2 = area_outer->y2 - corner_size - 1;
 4709              		.loc 1 1367 53 view .LVU1790
 4710 03e4 0133     		adds	r3, r3, #1
1367:Middlewares/lvgl/src/draw/lv_draw_rect.c ****         fill_area.y2 = area_outer->y2 - corner_size - 1;
 4711              		.loc 1 1367 22 view .LVU1791
 4712 03e6 ADF84A30 		strh	r3, [sp, #74]	@ movhi
1368:Middlewares/lvgl/src/draw/lv_draw_rect.c **** 
 4713              		.loc 1 1368 9 is_stmt 1 view .LVU1792
1368:Middlewares/lvgl/src/draw/lv_draw_rect.c **** 
 4714              		.loc 1 1368 34 is_stmt 0 view .LVU1793
 4715 03ea E388     		ldrh	r3, [r4, #6]
1368:Middlewares/lvgl/src/draw/lv_draw_rect.c **** 
 4716              		.loc 1 1368 39 view .LVU1794
 4717 03ec 9B1A     		subs	r3, r3, r2
 4718 03ee 9BB2     		uxth	r3, r3
ARM GAS  /tmp/ccUpPomB.s 			page 138


1368:Middlewares/lvgl/src/draw/lv_draw_rect.c **** 
 4719              		.loc 1 1368 53 view .LVU1795
 4720 03f0 013B     		subs	r3, r3, #1
1368:Middlewares/lvgl/src/draw/lv_draw_rect.c **** 
 4721              		.loc 1 1368 22 view .LVU1796
 4722 03f2 ADF84E30 		strh	r3, [sp, #78]	@ movhi
1370:Middlewares/lvgl/src/draw/lv_draw_rect.c ****         fill_area.x2 = area_outer->x1 + border_width - 1;
 4723              		.loc 1 1370 9 is_stmt 1 view .LVU1797
1370:Middlewares/lvgl/src/draw/lv_draw_rect.c ****         fill_area.x2 = area_outer->x1 + border_width - 1;
 4724              		.loc 1 1370 34 is_stmt 0 view .LVU1798
 4725 03f6 B4F90030 		ldrsh	r3, [r4]
1370:Middlewares/lvgl/src/draw/lv_draw_rect.c ****         fill_area.x2 = area_outer->x1 + border_width - 1;
 4726              		.loc 1 1370 22 view .LVU1799
 4727 03fa ADF84830 		strh	r3, [sp, #72]	@ movhi
1371:Middlewares/lvgl/src/draw/lv_draw_rect.c ****         _lv_blend_fill(clip, &fill_area, color, NULL, LV_DRAW_MASK_RES_FULL_COVER, opa, blend_mode)
 4728              		.loc 1 1371 9 is_stmt 1 view .LVU1800
1371:Middlewares/lvgl/src/draw/lv_draw_rect.c ****         _lv_blend_fill(clip, &fill_area, color, NULL, LV_DRAW_MASK_RES_FULL_COVER, opa, blend_mode)
 4729              		.loc 1 1371 39 is_stmt 0 view .LVU1801
 4730 03fe 0B9A     		ldr	r2, [sp, #44]
 4731 0400 12FA83F3 		uxtah	r3, r2, r3
 4732 0404 9BB2     		uxth	r3, r3
1371:Middlewares/lvgl/src/draw/lv_draw_rect.c ****         _lv_blend_fill(clip, &fill_area, color, NULL, LV_DRAW_MASK_RES_FULL_COVER, opa, blend_mode)
 4733              		.loc 1 1371 54 view .LVU1802
 4734 0406 013B     		subs	r3, r3, #1
1371:Middlewares/lvgl/src/draw/lv_draw_rect.c ****         _lv_blend_fill(clip, &fill_area, color, NULL, LV_DRAW_MASK_RES_FULL_COVER, opa, blend_mode)
 4735              		.loc 1 1371 22 view .LVU1803
 4736 0408 ADF84C30 		strh	r3, [sp, #76]	@ movhi
1372:Middlewares/lvgl/src/draw/lv_draw_rect.c **** 
 4737              		.loc 1 1372 9 is_stmt 1 view .LVU1804
 4738 040c 069B     		ldr	r3, [sp, #24]
 4739 040e 0293     		str	r3, [sp, #8]
 4740 0410 0197     		str	r7, [sp, #4]
 4741 0412 0126     		movs	r6, #1
 4742 0414 0096     		str	r6, [sp]
 4743 0416 0023     		movs	r3, #0
 4744 0418 BDF8BC20 		ldrh	r2, [sp, #188]
 4745 041c 12A9     		add	r1, sp, #72
 4746 041e DDF81480 		ldr	r8, [sp, #20]
 4747              	.LVL437:
1372:Middlewares/lvgl/src/draw/lv_draw_rect.c **** 
 4748              		.loc 1 1372 9 is_stmt 0 view .LVU1805
 4749 0422 4046     		mov	r0, r8
 4750 0424 FFF7FEFF 		bl	_lv_blend_fill
 4751              	.LVL438:
1375:Middlewares/lvgl/src/draw/lv_draw_rect.c ****         fill_area.x2 = area_outer->x2;
 4752              		.loc 1 1375 9 is_stmt 1 view .LVU1806
1375:Middlewares/lvgl/src/draw/lv_draw_rect.c ****         fill_area.x2 = area_outer->x2;
 4753              		.loc 1 1375 34 is_stmt 0 view .LVU1807
 4754 0428 B4F90420 		ldrsh	r2, [r4, #4]
1375:Middlewares/lvgl/src/draw/lv_draw_rect.c ****         fill_area.x2 = area_outer->x2;
 4755              		.loc 1 1375 39 view .LVU1808
 4756 042c 0C99     		ldr	r1, [sp, #48]
 4757 042e 0A9C     		ldr	r4, [sp, #40]
 4758              	.LVL439:
1375:Middlewares/lvgl/src/draw/lv_draw_rect.c ****         fill_area.x2 = area_outer->x2;
 4759              		.loc 1 1375 39 view .LVU1809
 4760 0430 0B1B     		subs	r3, r1, r4
ARM GAS  /tmp/ccUpPomB.s 			page 139


 4761 0432 13FA82F3 		uxtah	r3, r3, r2
 4762 0436 9BB2     		uxth	r3, r3
1375:Middlewares/lvgl/src/draw/lv_draw_rect.c ****         fill_area.x2 = area_outer->x2;
 4763              		.loc 1 1375 54 view .LVU1810
 4764 0438 3344     		add	r3, r3, r6
1375:Middlewares/lvgl/src/draw/lv_draw_rect.c ****         fill_area.x2 = area_outer->x2;
 4765              		.loc 1 1375 22 view .LVU1811
 4766 043a ADF84830 		strh	r3, [sp, #72]	@ movhi
1376:Middlewares/lvgl/src/draw/lv_draw_rect.c **** 
 4767              		.loc 1 1376 9 is_stmt 1 view .LVU1812
1376:Middlewares/lvgl/src/draw/lv_draw_rect.c **** 
 4768              		.loc 1 1376 22 is_stmt 0 view .LVU1813
 4769 043e ADF84C20 		strh	r2, [sp, #76]	@ movhi
1378:Middlewares/lvgl/src/draw/lv_draw_rect.c ****     }
 4770              		.loc 1 1378 9 is_stmt 1 view .LVU1814
 4771 0442 069B     		ldr	r3, [sp, #24]
 4772 0444 0293     		str	r3, [sp, #8]
 4773 0446 0197     		str	r7, [sp, #4]
 4774 0448 0096     		str	r6, [sp]
 4775 044a 0023     		movs	r3, #0
 4776 044c BDF8BC20 		ldrh	r2, [sp, #188]
 4777 0450 12A9     		add	r1, sp, #72
 4778 0452 4046     		mov	r0, r8
 4779 0454 FFF7FEFF 		bl	_lv_blend_fill
 4780              	.LVL440:
 4781              	.L211:
1378:Middlewares/lvgl/src/draw/lv_draw_rect.c ****     }
 4782              		.loc 1 1378 9 is_stmt 0 view .LVU1815
 4783              	.LBE319:
1397:Middlewares/lvgl/src/draw/lv_draw_rect.c ****     lv_draw_mask_remove_id(mask_rout_id);
 4784              		.loc 1 1397 5 is_stmt 1 view .LVU1816
 4785 0458 0E98     		ldr	r0, [sp, #56]
 4786 045a FFF7FEFF 		bl	lv_draw_mask_remove_id
 4787              	.LVL441:
1398:Middlewares/lvgl/src/draw/lv_draw_rect.c ****     lv_mem_buf_release(mask_buf);
 4788              		.loc 1 1398 5 view .LVU1817
 4789 045e 0F98     		ldr	r0, [sp, #60]
 4790 0460 FFF7FEFF 		bl	lv_draw_mask_remove_id
 4791              	.LVL442:
1399:Middlewares/lvgl/src/draw/lv_draw_rect.c **** }
 4792              		.loc 1 1399 5 view .LVU1818
 4793 0464 2846     		mov	r0, r5
 4794 0466 FFF7FEFF 		bl	lv_mem_buf_release
 4795              	.LVL443:
 4796 046a 19E6     		b	.L192
 4797              	.LVL444:
 4798              	.L201:
1382:Middlewares/lvgl/src/draw/lv_draw_rect.c ****         fill_area.x2 = area_outer->x2;
 4799              		.loc 1 1382 9 view .LVU1819
1382:Middlewares/lvgl/src/draw/lv_draw_rect.c ****         fill_area.x2 = area_outer->x2;
 4800              		.loc 1 1382 34 is_stmt 0 view .LVU1820
 4801 046c B4F90030 		ldrsh	r3, [r4]
1382:Middlewares/lvgl/src/draw/lv_draw_rect.c ****         fill_area.x2 = area_outer->x2;
 4802              		.loc 1 1382 22 view .LVU1821
 4803 0470 ADF84830 		strh	r3, [sp, #72]	@ movhi
1383:Middlewares/lvgl/src/draw/lv_draw_rect.c ****         fill_area.y1 = disp_area->y1 + draw_area.y1;
 4804              		.loc 1 1383 9 is_stmt 1 view .LVU1822
ARM GAS  /tmp/ccUpPomB.s 			page 140


1383:Middlewares/lvgl/src/draw/lv_draw_rect.c ****         fill_area.y1 = disp_area->y1 + draw_area.y1;
 4805              		.loc 1 1383 34 is_stmt 0 view .LVU1823
 4806 0474 B4F90430 		ldrsh	r3, [r4, #4]
1383:Middlewares/lvgl/src/draw/lv_draw_rect.c ****         fill_area.y1 = disp_area->y1 + draw_area.y1;
 4807              		.loc 1 1383 22 view .LVU1824
 4808 0478 ADF84C30 		strh	r3, [sp, #76]	@ movhi
1384:Middlewares/lvgl/src/draw/lv_draw_rect.c ****         fill_area.y2 = fill_area.y1;
 4809              		.loc 1 1384 9 is_stmt 1 view .LVU1825
1384:Middlewares/lvgl/src/draw/lv_draw_rect.c ****         fill_area.y2 = fill_area.y1;
 4810              		.loc 1 1384 33 is_stmt 0 view .LVU1826
 4811 047c 738A     		ldrh	r3, [r6, #18]
1384:Middlewares/lvgl/src/draw/lv_draw_rect.c ****         fill_area.y2 = fill_area.y1;
 4812              		.loc 1 1384 49 view .LVU1827
 4813 047e BDF98A40 		ldrsh	r4, [sp, #138]
 4814              	.LVL445:
1384:Middlewares/lvgl/src/draw/lv_draw_rect.c ****         fill_area.y2 = fill_area.y1;
 4815              		.loc 1 1384 38 view .LVU1828
 4816 0482 13FA84F3 		uxtah	r3, r3, r4
 4817 0486 1BB2     		sxth	r3, r3
1384:Middlewares/lvgl/src/draw/lv_draw_rect.c ****         fill_area.y2 = fill_area.y1;
 4818              		.loc 1 1384 22 view .LVU1829
 4819 0488 ADF84A30 		strh	r3, [sp, #74]	@ movhi
1385:Middlewares/lvgl/src/draw/lv_draw_rect.c **** 
 4820              		.loc 1 1385 9 is_stmt 1 view .LVU1830
1385:Middlewares/lvgl/src/draw/lv_draw_rect.c **** 
 4821              		.loc 1 1385 22 is_stmt 0 view .LVU1831
 4822 048c ADF84E30 		strh	r3, [sp, #78]	@ movhi
1387:Middlewares/lvgl/src/draw/lv_draw_rect.c ****             lv_memset_ff(mask_buf, draw_area_w);
 4823              		.loc 1 1387 9 is_stmt 1 view .LVU1832
 4824              	.LVL446:
1387:Middlewares/lvgl/src/draw/lv_draw_rect.c ****             lv_memset_ff(mask_buf, draw_area_w);
 4825              		.loc 1 1387 9 is_stmt 0 view .LVU1833
 4826 0490 DDF81490 		ldr	r9, [sp, #20]
 4827 0494 BDF8BCA0 		ldrh	r10, [sp, #188]
 4828              	.LVL447:
1387:Middlewares/lvgl/src/draw/lv_draw_rect.c ****             lv_memset_ff(mask_buf, draw_area_w);
 4829              		.loc 1 1387 9 view .LVU1834
 4830 0498 DDF818B0 		ldr	fp, [sp, #24]
 4831 049c 24E0     		b	.L212
 4832              	.LVL448:
 4833              	.L213:
1388:Middlewares/lvgl/src/draw/lv_draw_rect.c ****             mask_res = lv_draw_mask_apply(mask_buf, draw_buf->area.x1 + draw_area.x1, draw_buf->are
 4834              		.loc 1 1388 13 is_stmt 1 discriminator 3 view .LVU1835
 4835 049e 4146     		mov	r1, r8
 4836 04a0 2846     		mov	r0, r5
 4837 04a2 FFF7FEFF 		bl	lv_memset_ff
 4838              	.LVL449:
1389:Middlewares/lvgl/src/draw/lv_draw_rect.c **** 
 4839              		.loc 1 1389 13 discriminator 3 view .LVU1836
1389:Middlewares/lvgl/src/draw/lv_draw_rect.c **** 
 4840              		.loc 1 1389 67 is_stmt 0 discriminator 3 view .LVU1837
 4841 04a6 318A     		ldrh	r1, [r6, #16]
1389:Middlewares/lvgl/src/draw/lv_draw_rect.c **** 
 4842              		.loc 1 1389 82 discriminator 3 view .LVU1838
 4843 04a8 BDF88830 		ldrh	r3, [sp, #136]
1389:Middlewares/lvgl/src/draw/lv_draw_rect.c **** 
 4844              		.loc 1 1389 71 discriminator 3 view .LVU1839
ARM GAS  /tmp/ccUpPomB.s 			page 141


 4845 04ac 1944     		add	r1, r1, r3
1389:Middlewares/lvgl/src/draw/lv_draw_rect.c **** 
 4846              		.loc 1 1389 101 discriminator 3 view .LVU1840
 4847 04ae 728A     		ldrh	r2, [r6, #18]
1389:Middlewares/lvgl/src/draw/lv_draw_rect.c **** 
 4848              		.loc 1 1389 105 discriminator 3 view .LVU1841
 4849 04b0 2244     		add	r2, r2, r4
1389:Middlewares/lvgl/src/draw/lv_draw_rect.c **** 
 4850              		.loc 1 1389 24 discriminator 3 view .LVU1842
 4851 04b2 4346     		mov	r3, r8
 4852 04b4 12B2     		sxth	r2, r2
 4853 04b6 09B2     		sxth	r1, r1
 4854 04b8 2846     		mov	r0, r5
 4855 04ba FFF7FEFF 		bl	lv_draw_mask_apply
 4856              	.LVL450:
1391:Middlewares/lvgl/src/draw/lv_draw_rect.c ****             fill_area.y1++;
 4857              		.loc 1 1391 13 is_stmt 1 discriminator 3 view .LVU1843
 4858 04be CDF808B0 		str	fp, [sp, #8]
 4859 04c2 0197     		str	r7, [sp, #4]
 4860 04c4 0090     		str	r0, [sp]
 4861 04c6 2B46     		mov	r3, r5
 4862 04c8 5246     		mov	r2, r10	@ movhi
 4863 04ca 12A9     		add	r1, sp, #72
 4864 04cc 4846     		mov	r0, r9
 4865              	.LVL451:
1391:Middlewares/lvgl/src/draw/lv_draw_rect.c ****             fill_area.y1++;
 4866              		.loc 1 1391 13 is_stmt 0 discriminator 3 view .LVU1844
 4867 04ce FFF7FEFF 		bl	_lv_blend_fill
 4868              	.LVL452:
1392:Middlewares/lvgl/src/draw/lv_draw_rect.c ****             fill_area.y2++;
 4869              		.loc 1 1392 13 is_stmt 1 discriminator 3 view .LVU1845
1392:Middlewares/lvgl/src/draw/lv_draw_rect.c ****             fill_area.y2++;
 4870              		.loc 1 1392 22 is_stmt 0 discriminator 3 view .LVU1846
 4871 04d2 BDF94A30 		ldrsh	r3, [sp, #74]
1392:Middlewares/lvgl/src/draw/lv_draw_rect.c ****             fill_area.y2++;
 4872              		.loc 1 1392 25 discriminator 3 view .LVU1847
 4873 04d6 0133     		adds	r3, r3, #1
 4874 04d8 ADF84A30 		strh	r3, [sp, #74]	@ movhi
1393:Middlewares/lvgl/src/draw/lv_draw_rect.c **** 
 4875              		.loc 1 1393 13 is_stmt 1 discriminator 3 view .LVU1848
1393:Middlewares/lvgl/src/draw/lv_draw_rect.c **** 
 4876              		.loc 1 1393 22 is_stmt 0 discriminator 3 view .LVU1849
 4877 04dc BDF94E30 		ldrsh	r3, [sp, #78]
1393:Middlewares/lvgl/src/draw/lv_draw_rect.c **** 
 4878              		.loc 1 1393 25 discriminator 3 view .LVU1850
 4879 04e0 0133     		adds	r3, r3, #1
 4880 04e2 ADF84E30 		strh	r3, [sp, #78]	@ movhi
1387:Middlewares/lvgl/src/draw/lv_draw_rect.c ****             lv_memset_ff(mask_buf, draw_area_w);
 4881              		.loc 1 1387 50 is_stmt 1 discriminator 3 view .LVU1851
1387:Middlewares/lvgl/src/draw/lv_draw_rect.c ****             lv_memset_ff(mask_buf, draw_area_w);
 4882              		.loc 1 1387 51 is_stmt 0 discriminator 3 view .LVU1852
 4883 04e6 0134     		adds	r4, r4, #1
 4884              	.LVL453:
 4885              	.L212:
1387:Middlewares/lvgl/src/draw/lv_draw_rect.c ****             lv_memset_ff(mask_buf, draw_area_w);
 4886              		.loc 1 1387 31 is_stmt 1 discriminator 1 view .LVU1853
1387:Middlewares/lvgl/src/draw/lv_draw_rect.c ****             lv_memset_ff(mask_buf, draw_area_w);
ARM GAS  /tmp/ccUpPomB.s 			page 142


 4887              		.loc 1 1387 45 is_stmt 0 discriminator 1 view .LVU1854
 4888 04e8 BDF98E30 		ldrsh	r3, [sp, #142]
1387:Middlewares/lvgl/src/draw/lv_draw_rect.c ****             lv_memset_ff(mask_buf, draw_area_w);
 4889              		.loc 1 1387 9 discriminator 1 view .LVU1855
 4890 04ec A342     		cmp	r3, r4
 4891 04ee D6DA     		bge	.L213
 4892 04f0 B2E7     		b	.L211
 4893              		.cfi_endproc
 4894              	.LFE157:
 4896              		.section	.text.draw_outline,"ax",%progbits
 4897              		.align	1
 4898              		.syntax unified
 4899              		.thumb
 4900              		.thumb_func
 4902              	draw_outline:
 4903              	.LVL454:
 4904              	.LFB156:
1180:Middlewares/lvgl/src/draw/lv_draw_rect.c ****     if(dsc->outline_opa <= LV_OPA_MIN) return;
 4905              		.loc 1 1180 1 is_stmt 1 view -0
 4906              		.cfi_startproc
 4907              		@ args = 0, pretend = 0, frame = 16
 4908              		@ frame_needed = 0, uses_anonymous_args = 0
1180:Middlewares/lvgl/src/draw/lv_draw_rect.c ****     if(dsc->outline_opa <= LV_OPA_MIN) return;
 4909              		.loc 1 1180 1 is_stmt 0 view .LVU1857
 4910 0000 2DE9F043 		push	{r4, r5, r6, r7, r8, r9, lr}
 4911              	.LCFI14:
 4912              		.cfi_def_cfa_offset 28
 4913              		.cfi_offset 4, -28
 4914              		.cfi_offset 5, -24
 4915              		.cfi_offset 6, -20
 4916              		.cfi_offset 7, -16
 4917              		.cfi_offset 8, -12
 4918              		.cfi_offset 9, -8
 4919              		.cfi_offset 14, -4
 4920 0004 89B0     		sub	sp, sp, #36
 4921              	.LCFI15:
 4922              		.cfi_def_cfa_offset 64
1181:Middlewares/lvgl/src/draw/lv_draw_rect.c ****     if(dsc->outline_width == 0) return;
 4923              		.loc 1 1181 5 is_stmt 1 view .LVU1858
1181:Middlewares/lvgl/src/draw/lv_draw_rect.c ****     if(dsc->outline_width == 0) return;
 4924              		.loc 1 1181 11 is_stmt 0 view .LVU1859
 4925 0006 92F82650 		ldrb	r5, [r2, #38]	@ zero_extendqisi2
1181:Middlewares/lvgl/src/draw/lv_draw_rect.c ****     if(dsc->outline_width == 0) return;
 4926              		.loc 1 1181 7 view .LVU1860
 4927 000a 022D     		cmp	r5, #2
 4928 000c 5AD9     		bls	.L225
1182:Middlewares/lvgl/src/draw/lv_draw_rect.c **** 
 4929              		.loc 1 1182 5 is_stmt 1 view .LVU1861
1182:Middlewares/lvgl/src/draw/lv_draw_rect.c **** 
 4930              		.loc 1 1182 11 is_stmt 0 view .LVU1862
 4931 000e B2F92240 		ldrsh	r4, [r2, #34]
1182:Middlewares/lvgl/src/draw/lv_draw_rect.c **** 
 4932              		.loc 1 1182 7 view .LVU1863
 4933 0012 002C     		cmp	r4, #0
 4934 0014 56D0     		beq	.L225
1184:Middlewares/lvgl/src/draw/lv_draw_rect.c **** 
 4935              		.loc 1 1184 5 is_stmt 1 view .LVU1864
ARM GAS  /tmp/ccUpPomB.s 			page 143


 4936              	.LVL455:
1186:Middlewares/lvgl/src/draw/lv_draw_rect.c **** 
 4937              		.loc 1 1186 5 view .LVU1865
1189:Middlewares/lvgl/src/draw/lv_draw_rect.c ****     lv_area_copy(&area_inner, coords);
 4938              		.loc 1 1189 5 view .LVU1866
1190:Middlewares/lvgl/src/draw/lv_draw_rect.c **** 
 4939              		.loc 1 1190 5 view .LVU1867
 4940              	.LBB320:
 4941              	.LBI320:
 120:Middlewares/lvgl/src/draw/../misc/lv_area.h **** {
 4942              		.loc 2 120 20 view .LVU1868
 4943              	.LBB321:
 122:Middlewares/lvgl/src/draw/../misc/lv_area.h ****     dest->y1 = src->y1;
 4944              		.loc 2 122 5 view .LVU1869
 122:Middlewares/lvgl/src/draw/../misc/lv_area.h ****     dest->y1 = src->y1;
 4945              		.loc 2 122 19 is_stmt 0 view .LVU1870
 4946 0016 B0F900E0 		ldrsh	lr, [r0]
 122:Middlewares/lvgl/src/draw/../misc/lv_area.h ****     dest->y1 = src->y1;
 4947              		.loc 2 122 14 view .LVU1871
 4948 001a ADF818E0 		strh	lr, [sp, #24]	@ movhi
 123:Middlewares/lvgl/src/draw/../misc/lv_area.h ****     dest->x2 = src->x2;
 4949              		.loc 2 123 5 is_stmt 1 view .LVU1872
 123:Middlewares/lvgl/src/draw/../misc/lv_area.h ****     dest->x2 = src->x2;
 4950              		.loc 2 123 19 is_stmt 0 view .LVU1873
 4951 001e B0F902C0 		ldrsh	ip, [r0, #2]
 123:Middlewares/lvgl/src/draw/../misc/lv_area.h ****     dest->x2 = src->x2;
 4952              		.loc 2 123 14 view .LVU1874
 4953 0022 ADF81AC0 		strh	ip, [sp, #26]	@ movhi
 124:Middlewares/lvgl/src/draw/../misc/lv_area.h ****     dest->y2 = src->y2;
 4954              		.loc 2 124 5 is_stmt 1 view .LVU1875
 124:Middlewares/lvgl/src/draw/../misc/lv_area.h ****     dest->y2 = src->y2;
 4955              		.loc 2 124 19 is_stmt 0 view .LVU1876
 4956 0026 B0F90460 		ldrsh	r6, [r0, #4]
 124:Middlewares/lvgl/src/draw/../misc/lv_area.h ****     dest->y2 = src->y2;
 4957              		.loc 2 124 14 view .LVU1877
 4958 002a ADF81C60 		strh	r6, [sp, #28]	@ movhi
 125:Middlewares/lvgl/src/draw/../misc/lv_area.h **** }
 4959              		.loc 2 125 5 is_stmt 1 view .LVU1878
 125:Middlewares/lvgl/src/draw/../misc/lv_area.h **** }
 4960              		.loc 2 125 19 is_stmt 0 view .LVU1879
 4961 002e B0F90600 		ldrsh	r0, [r0, #6]
 4962              	.LVL456:
 125:Middlewares/lvgl/src/draw/../misc/lv_area.h **** }
 4963              		.loc 2 125 14 view .LVU1880
 4964 0032 ADF81E00 		strh	r0, [sp, #30]	@ movhi
 4965              	.LVL457:
 125:Middlewares/lvgl/src/draw/../misc/lv_area.h **** }
 4966              		.loc 2 125 14 view .LVU1881
 4967              	.LBE321:
 4968              	.LBE320:
1193:Middlewares/lvgl/src/draw/lv_draw_rect.c ****     area_inner.x1 -= pad;
 4969              		.loc 1 1193 5 is_stmt 1 view .LVU1882
1193:Middlewares/lvgl/src/draw/lv_draw_rect.c ****     area_inner.x1 -= pad;
 4970              		.loc 1 1193 26 is_stmt 0 view .LVU1883
 4971 0036 B2F92430 		ldrsh	r3, [r2, #36]
1193:Middlewares/lvgl/src/draw/lv_draw_rect.c ****     area_inner.x1 -= pad;
 4972              		.loc 1 1193 16 view .LVU1884
ARM GAS  /tmp/ccUpPomB.s 			page 144


 4973 003a 13B9     		cbnz	r3, .L227
1193:Middlewares/lvgl/src/draw/lv_draw_rect.c ****     area_inner.x1 -= pad;
 4974              		.loc 1 1193 51 discriminator 1 view .LVU1885
 4975 003c 9BB2     		uxth	r3, r3
1193:Middlewares/lvgl/src/draw/lv_draw_rect.c ****     area_inner.x1 -= pad;
 4976              		.loc 1 1193 65 discriminator 1 view .LVU1886
 4977 003e 013B     		subs	r3, r3, #1
1193:Middlewares/lvgl/src/draw/lv_draw_rect.c ****     area_inner.x1 -= pad;
 4978              		.loc 1 1193 16 discriminator 1 view .LVU1887
 4979 0040 1BB2     		sxth	r3, r3
 4980              	.L227:
 4981              	.LVL458:
1194:Middlewares/lvgl/src/draw/lv_draw_rect.c ****     area_inner.y1 -= pad;
 4982              		.loc 1 1194 5 is_stmt 1 discriminator 4 view .LVU1888
1194:Middlewares/lvgl/src/draw/lv_draw_rect.c ****     area_inner.y1 -= pad;
 4983              		.loc 1 1194 19 is_stmt 0 discriminator 4 view .LVU1889
 4984 0042 9BB2     		uxth	r3, r3
1194:Middlewares/lvgl/src/draw/lv_draw_rect.c ****     area_inner.y1 -= pad;
 4985              		.loc 1 1194 19 discriminator 4 view .LVU1890
 4986 0044 AEEB030E 		sub	lr, lr, r3
 4987 0048 1FFA8EF7 		uxth	r7, lr
 4988 004c 0FFA8EFE 		sxth	lr, lr
 4989 0050 ADF818E0 		strh	lr, [sp, #24]	@ movhi
1195:Middlewares/lvgl/src/draw/lv_draw_rect.c ****     area_inner.x2 += pad;
 4990              		.loc 1 1195 5 is_stmt 1 discriminator 4 view .LVU1891
1195:Middlewares/lvgl/src/draw/lv_draw_rect.c ****     area_inner.x2 += pad;
 4991              		.loc 1 1195 19 is_stmt 0 discriminator 4 view .LVU1892
 4992 0054 ACEB030C 		sub	ip, ip, r3
 4993 0058 1FFA8CF8 		uxth	r8, ip
 4994 005c 0FFA8CFC 		sxth	ip, ip
 4995 0060 ADF81AC0 		strh	ip, [sp, #26]	@ movhi
1196:Middlewares/lvgl/src/draw/lv_draw_rect.c ****     area_inner.y2 += pad;
 4996              		.loc 1 1196 5 is_stmt 1 discriminator 4 view .LVU1893
1196:Middlewares/lvgl/src/draw/lv_draw_rect.c ****     area_inner.y2 += pad;
 4997              		.loc 1 1196 19 is_stmt 0 discriminator 4 view .LVU1894
 4998 0064 1E44     		add	r6, r6, r3
 4999 0066 0FFA86F9 		sxth	r9, r6
 5000 006a ADF81C90 		strh	r9, [sp, #28]	@ movhi
1197:Middlewares/lvgl/src/draw/lv_draw_rect.c **** 
 5001              		.loc 1 1197 5 is_stmt 1 discriminator 4 view .LVU1895
1197:Middlewares/lvgl/src/draw/lv_draw_rect.c **** 
 5002              		.loc 1 1197 19 is_stmt 0 discriminator 4 view .LVU1896
 5003 006e 0344     		add	r3, r3, r0
 5004              	.LVL459:
1197:Middlewares/lvgl/src/draw/lv_draw_rect.c **** 
 5005              		.loc 1 1197 19 discriminator 4 view .LVU1897
 5006 0070 18B2     		sxth	r0, r3
 5007 0072 ADF81E00 		strh	r0, [sp, #30]	@ movhi
1199:Middlewares/lvgl/src/draw/lv_draw_rect.c ****     lv_area_copy(&area_outer, &area_inner);
 5008              		.loc 1 1199 5 is_stmt 1 discriminator 4 view .LVU1898
1200:Middlewares/lvgl/src/draw/lv_draw_rect.c **** 
 5009              		.loc 1 1200 5 discriminator 4 view .LVU1899
 5010              	.LVL460:
 5011              	.LBB322:
 5012              	.LBI322:
 120:Middlewares/lvgl/src/draw/../misc/lv_area.h **** {
 5013              		.loc 2 120 20 discriminator 4 view .LVU1900
ARM GAS  /tmp/ccUpPomB.s 			page 145


 5014              	.LBB323:
 122:Middlewares/lvgl/src/draw/../misc/lv_area.h ****     dest->y1 = src->y1;
 5015              		.loc 2 122 5 discriminator 4 view .LVU1901
 122:Middlewares/lvgl/src/draw/../misc/lv_area.h ****     dest->y1 = src->y1;
 5016              		.loc 2 122 14 is_stmt 0 discriminator 4 view .LVU1902
 5017 0076 ADF810E0 		strh	lr, [sp, #16]	@ movhi
 123:Middlewares/lvgl/src/draw/../misc/lv_area.h ****     dest->x2 = src->x2;
 5018              		.loc 2 123 5 is_stmt 1 discriminator 4 view .LVU1903
 123:Middlewares/lvgl/src/draw/../misc/lv_area.h ****     dest->x2 = src->x2;
 5019              		.loc 2 123 14 is_stmt 0 discriminator 4 view .LVU1904
 5020 007a ADF812C0 		strh	ip, [sp, #18]	@ movhi
 124:Middlewares/lvgl/src/draw/../misc/lv_area.h ****     dest->y2 = src->y2;
 5021              		.loc 2 124 5 is_stmt 1 discriminator 4 view .LVU1905
 124:Middlewares/lvgl/src/draw/../misc/lv_area.h ****     dest->y2 = src->y2;
 5022              		.loc 2 124 14 is_stmt 0 discriminator 4 view .LVU1906
 5023 007e ADF81490 		strh	r9, [sp, #20]	@ movhi
 125:Middlewares/lvgl/src/draw/../misc/lv_area.h **** }
 5024              		.loc 2 125 5 is_stmt 1 discriminator 4 view .LVU1907
 125:Middlewares/lvgl/src/draw/../misc/lv_area.h **** }
 5025              		.loc 2 125 14 is_stmt 0 discriminator 4 view .LVU1908
 5026 0082 ADF81600 		strh	r0, [sp, #22]	@ movhi
 5027              	.LVL461:
 125:Middlewares/lvgl/src/draw/../misc/lv_area.h **** }
 5028              		.loc 2 125 14 discriminator 4 view .LVU1909
 5029              	.LBE323:
 5030              	.LBE322:
1202:Middlewares/lvgl/src/draw/lv_draw_rect.c ****     area_outer.x2 += dsc->outline_width;
 5031              		.loc 1 1202 5 is_stmt 1 discriminator 4 view .LVU1910
1202:Middlewares/lvgl/src/draw/lv_draw_rect.c ****     area_outer.x2 += dsc->outline_width;
 5032              		.loc 1 1202 25 is_stmt 0 discriminator 4 view .LVU1911
 5033 0086 A0B2     		uxth	r0, r4
1202:Middlewares/lvgl/src/draw/lv_draw_rect.c ****     area_outer.x2 += dsc->outline_width;
 5034              		.loc 1 1202 19 discriminator 4 view .LVU1912
 5035 0088 3F1A     		subs	r7, r7, r0
 5036 008a ADF81070 		strh	r7, [sp, #16]	@ movhi
1203:Middlewares/lvgl/src/draw/lv_draw_rect.c ****     area_outer.y1 -= dsc->outline_width;
 5037              		.loc 1 1203 5 is_stmt 1 discriminator 4 view .LVU1913
1203:Middlewares/lvgl/src/draw/lv_draw_rect.c ****     area_outer.y1 -= dsc->outline_width;
 5038              		.loc 1 1203 19 is_stmt 0 discriminator 4 view .LVU1914
 5039 008e 10FA86F6 		uxtah	r6, r0, r6
 5040 0092 ADF81460 		strh	r6, [sp, #20]	@ movhi
1204:Middlewares/lvgl/src/draw/lv_draw_rect.c ****     area_outer.y2 += dsc->outline_width;
 5041              		.loc 1 1204 5 is_stmt 1 discriminator 4 view .LVU1915
1204:Middlewares/lvgl/src/draw/lv_draw_rect.c ****     area_outer.y2 += dsc->outline_width;
 5042              		.loc 1 1204 19 is_stmt 0 discriminator 4 view .LVU1916
 5043 0096 A8EB0008 		sub	r8, r8, r0
 5044 009a ADF81280 		strh	r8, [sp, #18]	@ movhi
1205:Middlewares/lvgl/src/draw/lv_draw_rect.c **** 
 5045              		.loc 1 1205 5 is_stmt 1 discriminator 4 view .LVU1917
1205:Middlewares/lvgl/src/draw/lv_draw_rect.c **** 
 5046              		.loc 1 1205 19 is_stmt 0 discriminator 4 view .LVU1918
 5047 009e 10FA83F3 		uxtah	r3, r0, r3
 5048 00a2 ADF81630 		strh	r3, [sp, #22]	@ movhi
1208:Middlewares/lvgl/src/draw/lv_draw_rect.c ****                      dsc->blend_mode);
 5049              		.loc 1 1208 5 is_stmt 1 discriminator 4 view .LVU1919
 5050 00a6 9378     		ldrb	r3, [r2, #2]	@ zero_extendqisi2
 5051 00a8 0393     		str	r3, [sp, #12]
ARM GAS  /tmp/ccUpPomB.s 			page 146


 5052 00aa 0295     		str	r5, [sp, #8]
 5053 00ac 138C     		ldrh	r3, [r2, #32]
 5054 00ae ADF80430 		strh	r3, [sp, #4]	@ movhi
 5055 00b2 0123     		movs	r3, #1
 5056 00b4 0093     		str	r3, [sp]
 5057 00b6 B2F90030 		ldrsh	r3, [r2]
 5058 00ba 0A46     		mov	r2, r1
 5059              	.LVL462:
1208:Middlewares/lvgl/src/draw/lv_draw_rect.c ****                      dsc->blend_mode);
 5060              		.loc 1 1208 5 is_stmt 0 discriminator 4 view .LVU1920
 5061 00bc 04A9     		add	r1, sp, #16
 5062              	.LVL463:
1208:Middlewares/lvgl/src/draw/lv_draw_rect.c ****                      dsc->blend_mode);
 5063              		.loc 1 1208 5 discriminator 4 view .LVU1921
 5064 00be 06A8     		add	r0, sp, #24
 5065 00c0 FFF7FEFF 		bl	draw_full_border
 5066              	.LVL464:
 5067              	.L225:
1213:Middlewares/lvgl/src/draw/lv_draw_rect.c **** 
 5068              		.loc 1 1213 1 view .LVU1922
 5069 00c4 09B0     		add	sp, sp, #36
 5070              	.LCFI16:
 5071              		.cfi_def_cfa_offset 28
 5072              		@ sp needed
 5073 00c6 BDE8F083 		pop	{r4, r5, r6, r7, r8, r9, pc}
 5074              		.cfi_endproc
 5075              	.LFE156:
 5077              		.section	.text.draw_border,"ax",%progbits
 5078              		.align	1
 5079              		.syntax unified
 5080              		.thumb
 5081              		.thumb_func
 5083              	draw_border:
 5084              	.LVL465:
 5085              	.LFB151:
 403:Middlewares/lvgl/src/draw/lv_draw_rect.c ****     if(dsc->border_opa <= LV_OPA_MIN) return;
 5086              		.loc 1 403 1 is_stmt 1 view -0
 5087              		.cfi_startproc
 5088              		@ args = 0, pretend = 0, frame = 104
 5089              		@ frame_needed = 0, uses_anonymous_args = 0
 403:Middlewares/lvgl/src/draw/lv_draw_rect.c ****     if(dsc->border_opa <= LV_OPA_MIN) return;
 5090              		.loc 1 403 1 is_stmt 0 view .LVU1924
 5091 0000 2DE9F04F 		push	{r4, r5, r6, r7, r8, r9, r10, fp, lr}
 5092              	.LCFI17:
 5093              		.cfi_def_cfa_offset 36
 5094              		.cfi_offset 4, -36
 5095              		.cfi_offset 5, -32
 5096              		.cfi_offset 6, -28
 5097              		.cfi_offset 7, -24
 5098              		.cfi_offset 8, -20
 5099              		.cfi_offset 9, -16
 5100              		.cfi_offset 10, -12
 5101              		.cfi_offset 11, -8
 5102              		.cfi_offset 14, -4
 5103 0004 9FB0     		sub	sp, sp, #124
 5104              	.LCFI18:
 5105              		.cfi_def_cfa_offset 160
ARM GAS  /tmp/ccUpPomB.s 			page 147


 5106 0006 0491     		str	r1, [sp, #16]
 404:Middlewares/lvgl/src/draw/lv_draw_rect.c ****     if(dsc->border_width == 0) return;
 5107              		.loc 1 404 5 is_stmt 1 view .LVU1925
 404:Middlewares/lvgl/src/draw/lv_draw_rect.c ****     if(dsc->border_width == 0) return;
 5108              		.loc 1 404 11 is_stmt 0 view .LVU1926
 5109 0008 967F     		ldrb	r6, [r2, #30]	@ zero_extendqisi2
 404:Middlewares/lvgl/src/draw/lv_draw_rect.c ****     if(dsc->border_width == 0) return;
 5110              		.loc 1 404 7 view .LVU1927
 5111 000a 022E     		cmp	r6, #2
 5112 000c 6CD9     		bls	.L230
 5113 000e 0546     		mov	r5, r0
 5114 0010 1446     		mov	r4, r2
 405:Middlewares/lvgl/src/draw/lv_draw_rect.c ****     if(dsc->border_side == LV_BORDER_SIDE_NONE) return;
 5115              		.loc 1 405 5 is_stmt 1 view .LVU1928
 405:Middlewares/lvgl/src/draw/lv_draw_rect.c ****     if(dsc->border_side == LV_BORDER_SIDE_NONE) return;
 5116              		.loc 1 405 11 is_stmt 0 view .LVU1929
 5117 0012 B2F91C30 		ldrsh	r3, [r2, #28]
 405:Middlewares/lvgl/src/draw/lv_draw_rect.c ****     if(dsc->border_side == LV_BORDER_SIDE_NONE) return;
 5118              		.loc 1 405 7 view .LVU1930
 5119 0016 002B     		cmp	r3, #0
 5120 0018 66D0     		beq	.L230
 406:Middlewares/lvgl/src/draw/lv_draw_rect.c ****     if(dsc->border_post) return;
 5121              		.loc 1 406 5 is_stmt 1 view .LVU1931
 406:Middlewares/lvgl/src/draw/lv_draw_rect.c ****     if(dsc->border_post) return;
 5122              		.loc 1 406 25 is_stmt 0 view .LVU1932
 5123 001a D27F     		ldrb	r2, [r2, #31]	@ zero_extendqisi2
 5124              	.LVL466:
 406:Middlewares/lvgl/src/draw/lv_draw_rect.c ****     if(dsc->border_post) return;
 5125              		.loc 1 406 7 view .LVU1933
 5126 001c 12F03E07 		ands	r7, r2, #62
 5127 0020 62D0     		beq	.L230
 407:Middlewares/lvgl/src/draw/lv_draw_rect.c **** 
 5128              		.loc 1 407 5 is_stmt 1 view .LVU1934
 407:Middlewares/lvgl/src/draw/lv_draw_rect.c **** 
 5129              		.loc 1 407 7 is_stmt 0 view .LVU1935
 5130 0022 12F0010F 		tst	r2, #1
 5131 0026 5FD1     		bne	.L230
 409:Middlewares/lvgl/src/draw/lv_draw_rect.c ****     int32_t coords_h = lv_area_get_height(coords);
 5132              		.loc 1 409 5 is_stmt 1 view .LVU1936
 5133              	.LVL467:
 5134              	.LBB324:
 5135              	.LBI324:
 133:Middlewares/lvgl/src/draw/../misc/lv_area.h **** {
 5136              		.loc 2 133 26 view .LVU1937
 5137              	.LBB325:
 135:Middlewares/lvgl/src/draw/../misc/lv_area.h **** }
 5138              		.loc 2 135 5 view .LVU1938
 135:Middlewares/lvgl/src/draw/../misc/lv_area.h **** }
 5139              		.loc 2 135 31 is_stmt 0 view .LVU1939
 5140 0028 B0F90420 		ldrsh	r2, [r0, #4]
 5141 002c 0692     		str	r2, [sp, #24]
 5142 002e 90B2     		uxth	r0, r2
 5143              	.LVL468:
 135:Middlewares/lvgl/src/draw/../misc/lv_area.h **** }
 5144              		.loc 2 135 44 view .LVU1940
 5145 0030 B5F90090 		ldrsh	r9, [r5]
 5146 0034 1FFA89FE 		uxth	lr, r9
ARM GAS  /tmp/ccUpPomB.s 			page 148


 135:Middlewares/lvgl/src/draw/../misc/lv_area.h **** }
 5147              		.loc 2 135 36 view .LVU1941
 5148 0038 A0EB0E02 		sub	r2, r0, lr
 5149 003c 92B2     		uxth	r2, r2
 135:Middlewares/lvgl/src/draw/../misc/lv_area.h **** }
 5150              		.loc 2 135 49 view .LVU1942
 5151 003e 0132     		adds	r2, r2, #1
 135:Middlewares/lvgl/src/draw/../misc/lv_area.h **** }
 5152              		.loc 2 135 12 view .LVU1943
 5153 0040 0FFA82FA 		sxth	r10, r2
 5154              	.LVL469:
 135:Middlewares/lvgl/src/draw/../misc/lv_area.h **** }
 5155              		.loc 2 135 12 view .LVU1944
 5156              	.LBE325:
 5157              	.LBE324:
 410:Middlewares/lvgl/src/draw/lv_draw_rect.c **** 
 5158              		.loc 1 410 5 is_stmt 1 view .LVU1945
 5159              	.LBB326:
 5160              	.LBI326:
 143:Middlewares/lvgl/src/draw/../misc/lv_area.h **** {
 5161              		.loc 2 143 26 view .LVU1946
 5162              	.LBB327:
 5163              		.loc 2 145 5 view .LVU1947
 5164              		.loc 2 145 31 is_stmt 0 view .LVU1948
 5165 0044 B5F906B0 		ldrsh	fp, [r5, #6]
 5166 0048 1FFA8BF2 		uxth	r2, fp
 5167 004c 0592     		str	r2, [sp, #20]
 5168              		.loc 2 145 44 view .LVU1949
 5169 004e B5F90280 		ldrsh	r8, [r5, #2]
 5170 0052 1FFA88FC 		uxth	ip, r8
 5171              		.loc 2 145 36 view .LVU1950
 5172 0056 A2EB0C02 		sub	r2, r2, ip
 5173 005a 92B2     		uxth	r2, r2
 5174              		.loc 2 145 49 view .LVU1951
 5175 005c 0132     		adds	r2, r2, #1
 5176              		.loc 2 145 12 view .LVU1952
 5177 005e 12B2     		sxth	r2, r2
 5178              	.LVL470:
 5179              		.loc 2 145 12 view .LVU1953
 5180              	.LBE327:
 5181              	.LBE326:
 413:Middlewares/lvgl/src/draw/lv_draw_rect.c ****     int32_t short_side = LV_MIN(coords_w, coords_h);
 5182              		.loc 1 413 5 is_stmt 1 view .LVU1954
 413:Middlewares/lvgl/src/draw/lv_draw_rect.c ****     int32_t short_side = LV_MIN(coords_w, coords_h);
 5183              		.loc 1 413 23 is_stmt 0 view .LVU1955
 5184 0060 B4F90010 		ldrsh	r1, [r4]
 5185              	.LVL471:
 414:Middlewares/lvgl/src/draw/lv_draw_rect.c ****     if(rout > short_side >> 1) rout = short_side >> 1;
 5186              		.loc 1 414 5 is_stmt 1 view .LVU1956
 414:Middlewares/lvgl/src/draw/lv_draw_rect.c ****     if(rout > short_side >> 1) rout = short_side >> 1;
 5187              		.loc 1 414 13 is_stmt 0 view .LVU1957
 5188 0064 5245     		cmp	r2, r10
 5189 0066 A8BF     		it	ge
 5190 0068 5246     		movge	r2, r10
 5191              	.LVL472:
 415:Middlewares/lvgl/src/draw/lv_draw_rect.c **** 
 5192              		.loc 1 415 5 is_stmt 1 view .LVU1958
ARM GAS  /tmp/ccUpPomB.s 			page 149


 415:Middlewares/lvgl/src/draw/lv_draw_rect.c **** 
 5193              		.loc 1 415 26 is_stmt 0 view .LVU1959
 5194 006a 4FEA620A 		asr	r10, r2, #1
 5195              	.LVL473:
 415:Middlewares/lvgl/src/draw/lv_draw_rect.c **** 
 5196              		.loc 1 415 7 view .LVU1960
 5197 006e B1EB620F 		cmp	r1, r2, asr #1
 5198 0072 00DC     		bgt	.L232
 413:Middlewares/lvgl/src/draw/lv_draw_rect.c ****     int32_t short_side = LV_MIN(coords_w, coords_h);
 5199              		.loc 1 413 13 view .LVU1961
 5200 0074 8A46     		mov	r10, r1
 5201              	.L232:
 5202              	.LVL474:
 418:Middlewares/lvgl/src/draw/lv_draw_rect.c ****     lv_area_copy(&area_inner, coords);
 5203              		.loc 1 418 5 is_stmt 1 view .LVU1962
 419:Middlewares/lvgl/src/draw/lv_draw_rect.c ****     area_inner.x1 += ((dsc->border_side & LV_BORDER_SIDE_LEFT) ? dsc->border_width : - (dsc->border
 5204              		.loc 1 419 5 view .LVU1963
 5205              	.LBB328:
 5206              	.LBI328:
 120:Middlewares/lvgl/src/draw/../misc/lv_area.h **** {
 5207              		.loc 2 120 20 view .LVU1964
 5208              	.LBB329:
 122:Middlewares/lvgl/src/draw/../misc/lv_area.h ****     dest->y1 = src->y1;
 5209              		.loc 2 122 5 view .LVU1965
 122:Middlewares/lvgl/src/draw/../misc/lv_area.h ****     dest->y1 = src->y1;
 5210              		.loc 2 122 14 is_stmt 0 view .LVU1966
 5211 0076 ADF87090 		strh	r9, [sp, #112]	@ movhi
 123:Middlewares/lvgl/src/draw/../misc/lv_area.h ****     dest->x2 = src->x2;
 5212              		.loc 2 123 5 is_stmt 1 view .LVU1967
 123:Middlewares/lvgl/src/draw/../misc/lv_area.h ****     dest->x2 = src->x2;
 5213              		.loc 2 123 14 is_stmt 0 view .LVU1968
 5214 007a ADF87280 		strh	r8, [sp, #114]	@ movhi
 124:Middlewares/lvgl/src/draw/../misc/lv_area.h ****     dest->y2 = src->y2;
 5215              		.loc 2 124 5 is_stmt 1 view .LVU1969
 124:Middlewares/lvgl/src/draw/../misc/lv_area.h ****     dest->y2 = src->y2;
 5216              		.loc 2 124 14 is_stmt 0 view .LVU1970
 5217 007e 069A     		ldr	r2, [sp, #24]
 5218              	.LVL475:
 124:Middlewares/lvgl/src/draw/../misc/lv_area.h ****     dest->y2 = src->y2;
 5219              		.loc 2 124 14 view .LVU1971
 5220 0080 ADF87420 		strh	r2, [sp, #116]	@ movhi
 125:Middlewares/lvgl/src/draw/../misc/lv_area.h **** }
 5221              		.loc 2 125 5 is_stmt 1 view .LVU1972
 125:Middlewares/lvgl/src/draw/../misc/lv_area.h **** }
 5222              		.loc 2 125 14 is_stmt 0 view .LVU1973
 5223 0084 ADF876B0 		strh	fp, [sp, #118]	@ movhi
 5224              	.LVL476:
 125:Middlewares/lvgl/src/draw/../misc/lv_area.h **** }
 5225              		.loc 2 125 14 view .LVU1974
 5226              	.LBE329:
 5227              	.LBE328:
 420:Middlewares/lvgl/src/draw/lv_draw_rect.c ****     area_inner.x2 -= ((dsc->border_side & LV_BORDER_SIDE_RIGHT) ? dsc->border_width : - (dsc->borde
 5228              		.loc 1 420 5 is_stmt 1 view .LVU1975
 420:Middlewares/lvgl/src/draw/lv_draw_rect.c ****     area_inner.x2 -= ((dsc->border_side & LV_BORDER_SIDE_RIGHT) ? dsc->border_width : - (dsc->borde
 5229              		.loc 1 420 27 is_stmt 0 view .LVU1976
 5230 0088 E27F     		ldrb	r2, [r4, #31]	@ zero_extendqisi2
 5231 008a C2F34408 		ubfx	r8, r2, #1, #5
ARM GAS  /tmp/ccUpPomB.s 			page 150


 420:Middlewares/lvgl/src/draw/lv_draw_rect.c ****     area_inner.x2 -= ((dsc->border_side & LV_BORDER_SIDE_RIGHT) ? dsc->border_width : - (dsc->borde
 5232              		.loc 1 420 19 view .LVU1977
 5233 008e 12F0080F 		tst	r2, #8
 5234 0092 2CD0     		beq	.L233
 420:Middlewares/lvgl/src/draw/lv_draw_rect.c ****     area_inner.x2 -= ((dsc->border_side & LV_BORDER_SIDE_RIGHT) ? dsc->border_width : - (dsc->borde
 5235              		.loc 1 420 19 discriminator 1 view .LVU1978
 5236 0094 9AB2     		uxth	r2, r3
 5237              	.L234:
 420:Middlewares/lvgl/src/draw/lv_draw_rect.c ****     area_inner.x2 -= ((dsc->border_side & LV_BORDER_SIDE_RIGHT) ? dsc->border_width : - (dsc->borde
 5238              		.loc 1 420 19 discriminator 4 view .LVU1979
 5239 0096 9644     		add	lr, lr, r2
 5240              	.LVL477:
 420:Middlewares/lvgl/src/draw/lv_draw_rect.c ****     area_inner.x2 -= ((dsc->border_side & LV_BORDER_SIDE_RIGHT) ? dsc->border_width : - (dsc->borde
 5241              		.loc 1 420 19 discriminator 4 view .LVU1980
 5242 0098 ADF870E0 		strh	lr, [sp, #112]	@ movhi
 421:Middlewares/lvgl/src/draw/lv_draw_rect.c ****     area_inner.y1 += ((dsc->border_side & LV_BORDER_SIDE_TOP) ? dsc->border_width : - (dsc->border_
 5243              		.loc 1 421 5 is_stmt 1 discriminator 4 view .LVU1981
 421:Middlewares/lvgl/src/draw/lv_draw_rect.c ****     area_inner.y1 += ((dsc->border_side & LV_BORDER_SIDE_TOP) ? dsc->border_width : - (dsc->border_
 5244              		.loc 1 421 19 is_stmt 0 discriminator 4 view .LVU1982
 5245 009c 18F0080F 		tst	r8, #8
 5246 00a0 2BD0     		beq	.L235
 421:Middlewares/lvgl/src/draw/lv_draw_rect.c ****     area_inner.y1 += ((dsc->border_side & LV_BORDER_SIDE_TOP) ? dsc->border_width : - (dsc->border_
 5247              		.loc 1 421 19 discriminator 1 view .LVU1983
 5248 00a2 9AB2     		uxth	r2, r3
 5249              	.L236:
 421:Middlewares/lvgl/src/draw/lv_draw_rect.c ****     area_inner.y1 += ((dsc->border_side & LV_BORDER_SIDE_TOP) ? dsc->border_width : - (dsc->border_
 5250              		.loc 1 421 19 discriminator 4 view .LVU1984
 5251 00a4 801A     		subs	r0, r0, r2
 5252              	.LVL478:
 421:Middlewares/lvgl/src/draw/lv_draw_rect.c ****     area_inner.y1 += ((dsc->border_side & LV_BORDER_SIDE_TOP) ? dsc->border_width : - (dsc->border_
 5253              		.loc 1 421 19 discriminator 4 view .LVU1985
 5254 00a6 ADF87400 		strh	r0, [sp, #116]	@ movhi
 422:Middlewares/lvgl/src/draw/lv_draw_rect.c ****     area_inner.y2 -= ((dsc->border_side & LV_BORDER_SIDE_BOTTOM) ? dsc->border_width : - (dsc->bord
 5255              		.loc 1 422 5 is_stmt 1 discriminator 4 view .LVU1986
 422:Middlewares/lvgl/src/draw/lv_draw_rect.c ****     area_inner.y2 -= ((dsc->border_side & LV_BORDER_SIDE_BOTTOM) ? dsc->border_width : - (dsc->bord
 5256              		.loc 1 422 19 is_stmt 0 discriminator 4 view .LVU1987
 5257 00aa 18F0020F 		tst	r8, #2
 5258 00ae 2AD0     		beq	.L237
 422:Middlewares/lvgl/src/draw/lv_draw_rect.c ****     area_inner.y2 -= ((dsc->border_side & LV_BORDER_SIDE_BOTTOM) ? dsc->border_width : - (dsc->bord
 5259              		.loc 1 422 19 discriminator 1 view .LVU1988
 5260 00b0 9AB2     		uxth	r2, r3
 5261              	.L238:
 422:Middlewares/lvgl/src/draw/lv_draw_rect.c ****     area_inner.y2 -= ((dsc->border_side & LV_BORDER_SIDE_BOTTOM) ? dsc->border_width : - (dsc->bord
 5262              		.loc 1 422 19 discriminator 4 view .LVU1989
 5263 00b2 9444     		add	ip, ip, r2
 5264              	.LVL479:
 422:Middlewares/lvgl/src/draw/lv_draw_rect.c ****     area_inner.y2 -= ((dsc->border_side & LV_BORDER_SIDE_BOTTOM) ? dsc->border_width : - (dsc->bord
 5265              		.loc 1 422 19 discriminator 4 view .LVU1990
 5266 00b4 ADF872C0 		strh	ip, [sp, #114]	@ movhi
 5267              	.LVL480:
 423:Middlewares/lvgl/src/draw/lv_draw_rect.c **** 
 5268              		.loc 1 423 5 is_stmt 1 discriminator 4 view .LVU1991
 423:Middlewares/lvgl/src/draw/lv_draw_rect.c **** 
 5269              		.loc 1 423 19 is_stmt 0 discriminator 4 view .LVU1992
 5270 00b8 18F0010F 		tst	r8, #1
 5271 00bc 29D0     		beq	.L239
 423:Middlewares/lvgl/src/draw/lv_draw_rect.c **** 
ARM GAS  /tmp/ccUpPomB.s 			page 151


 5272              		.loc 1 423 19 discriminator 1 view .LVU1993
 5273 00be 9BB2     		uxth	r3, r3
 5274              	.L240:
 423:Middlewares/lvgl/src/draw/lv_draw_rect.c **** 
 5275              		.loc 1 423 19 discriminator 4 view .LVU1994
 5276 00c0 059A     		ldr	r2, [sp, #20]
 5277 00c2 D31A     		subs	r3, r2, r3
 5278 00c4 ADF87630 		strh	r3, [sp, #118]	@ movhi
 426:Middlewares/lvgl/src/draw/lv_draw_rect.c ****         draw_full_border(&area_inner, coords, clip, dsc->radius, false, dsc->border_color, dsc->bor
 5279              		.loc 1 426 5 is_stmt 1 discriminator 4 view .LVU1995
 426:Middlewares/lvgl/src/draw/lv_draw_rect.c ****         draw_full_border(&area_inner, coords, clip, dsc->radius, false, dsc->border_color, dsc->bor
 5280              		.loc 1 426 7 is_stmt 0 discriminator 4 view .LVU1996
 5281 00c8 1E2F     		cmp	r7, #30
 5282 00ca 28D0     		beq	.L263
 5283              	.LBB330:
 431:Middlewares/lvgl/src/draw/lv_draw_rect.c ****         if(opa > LV_OPA_MAX) opa = LV_OPA_COVER;
 5284              		.loc 1 431 9 is_stmt 1 view .LVU1997
 5285              	.LVL481:
 432:Middlewares/lvgl/src/draw/lv_draw_rect.c **** 
 5286              		.loc 1 432 9 view .LVU1998
 432:Middlewares/lvgl/src/draw/lv_draw_rect.c **** 
 5287              		.loc 1 432 11 is_stmt 0 view .LVU1999
 5288 00cc FD2E     		cmp	r6, #253
 5289 00ce 00D9     		bls	.L243
 432:Middlewares/lvgl/src/draw/lv_draw_rect.c **** 
 5290              		.loc 1 432 34 view .LVU2000
 5291 00d0 FF26     		movs	r6, #255
 5292              	.LVL482:
 5293              	.L243:
 434:Middlewares/lvgl/src/draw/lv_draw_rect.c ****         lv_disp_draw_buf_t * draw_buf = lv_disp_get_draw_buf(disp);
 5294              		.loc 1 434 9 is_stmt 1 view .LVU2001
 434:Middlewares/lvgl/src/draw/lv_draw_rect.c ****         lv_disp_draw_buf_t * draw_buf = lv_disp_get_draw_buf(disp);
 5295              		.loc 1 434 28 is_stmt 0 view .LVU2002
 5296 00d2 FFF7FEFF 		bl	_lv_refr_get_disp_refreshing
 5297              	.LVL483:
 435:Middlewares/lvgl/src/draw/lv_draw_rect.c **** 
 5298              		.loc 1 435 9 is_stmt 1 view .LVU2003
 435:Middlewares/lvgl/src/draw/lv_draw_rect.c **** 
 5299              		.loc 1 435 41 is_stmt 0 view .LVU2004
 5300 00d6 FFF7FEFF 		bl	lv_disp_get_draw_buf
 5301              	.LVL484:
 435:Middlewares/lvgl/src/draw/lv_draw_rect.c **** 
 5302              		.loc 1 435 41 view .LVU2005
 5303 00da 8046     		mov	r8, r0
 5304              	.LVL485:
 439:Middlewares/lvgl/src/draw/lv_draw_rect.c ****         bool is_common;
 5305              		.loc 1 439 9 is_stmt 1 view .LVU2006
 440:Middlewares/lvgl/src/draw/lv_draw_rect.c ****         is_common = _lv_area_intersect(&draw_area, coords, clip);
 5306              		.loc 1 440 9 view .LVU2007
 441:Middlewares/lvgl/src/draw/lv_draw_rect.c ****         if(is_common == false) return;
 5307              		.loc 1 441 9 view .LVU2008
 441:Middlewares/lvgl/src/draw/lv_draw_rect.c ****         if(is_common == false) return;
 5308              		.loc 1 441 21 is_stmt 0 view .LVU2009
 5309 00dc 049A     		ldr	r2, [sp, #16]
 5310 00de 2946     		mov	r1, r5
 5311 00e0 0AA8     		add	r0, sp, #40
 5312              	.LVL486:
ARM GAS  /tmp/ccUpPomB.s 			page 152


 441:Middlewares/lvgl/src/draw/lv_draw_rect.c ****         if(is_common == false) return;
 5313              		.loc 1 441 21 view .LVU2010
 5314 00e2 FFF7FEFF 		bl	_lv_area_intersect
 5315              	.LVL487:
 442:Middlewares/lvgl/src/draw/lv_draw_rect.c **** 
 5316              		.loc 1 442 9 is_stmt 1 view .LVU2011
 442:Middlewares/lvgl/src/draw/lv_draw_rect.c **** 
 5317              		.loc 1 442 11 is_stmt 0 view .LVU2012
 5318 00e6 50BB     		cbnz	r0, .L264
 5319              	.LVL488:
 5320              	.L230:
 442:Middlewares/lvgl/src/draw/lv_draw_rect.c **** 
 5321              		.loc 1 442 11 view .LVU2013
 5322              	.LBE330:
 519:Middlewares/lvgl/src/draw/lv_draw_rect.c **** 
 5323              		.loc 1 519 1 view .LVU2014
 5324 00e8 1FB0     		add	sp, sp, #124
 5325              	.LCFI19:
 5326              		.cfi_remember_state
 5327              		.cfi_def_cfa_offset 36
 5328              		@ sp needed
 5329 00ea BDE8F08F 		pop	{r4, r5, r6, r7, r8, r9, r10, fp, pc}
 5330              	.LVL489:
 5331              	.L233:
 5332              	.LCFI20:
 5333              		.cfi_restore_state
 420:Middlewares/lvgl/src/draw/lv_draw_rect.c ****     area_inner.x2 -= ((dsc->border_side & LV_BORDER_SIDE_RIGHT) ? dsc->border_width : - (dsc->borde
 5334              		.loc 1 420 107 discriminator 2 view .LVU2015
 5335 00ee 1AFA83F2 		uxtah	r2, r10, r3
 5336 00f2 92B2     		uxth	r2, r2
 420:Middlewares/lvgl/src/draw/lv_draw_rect.c ****     area_inner.x2 -= ((dsc->border_side & LV_BORDER_SIDE_RIGHT) ? dsc->border_width : - (dsc->borde
 5337              		.loc 1 420 19 discriminator 2 view .LVU2016
 5338 00f4 5242     		rsbs	r2, r2, #0
 5339 00f6 92B2     		uxth	r2, r2
 5340 00f8 CDE7     		b	.L234
 5341              	.LVL490:
 5342              	.L235:
 421:Middlewares/lvgl/src/draw/lv_draw_rect.c ****     area_inner.y1 += ((dsc->border_side & LV_BORDER_SIDE_TOP) ? dsc->border_width : - (dsc->border_
 5343              		.loc 1 421 108 discriminator 2 view .LVU2017
 5344 00fa 1AFA83F2 		uxtah	r2, r10, r3
 5345 00fe 92B2     		uxth	r2, r2
 421:Middlewares/lvgl/src/draw/lv_draw_rect.c ****     area_inner.y1 += ((dsc->border_side & LV_BORDER_SIDE_TOP) ? dsc->border_width : - (dsc->border_
 5346              		.loc 1 421 19 discriminator 2 view .LVU2018
 5347 0100 5242     		rsbs	r2, r2, #0
 5348 0102 92B2     		uxth	r2, r2
 5349 0104 CEE7     		b	.L236
 5350              	.LVL491:
 5351              	.L237:
 422:Middlewares/lvgl/src/draw/lv_draw_rect.c ****     area_inner.y2 -= ((dsc->border_side & LV_BORDER_SIDE_BOTTOM) ? dsc->border_width : - (dsc->bord
 5352              		.loc 1 422 106 discriminator 2 view .LVU2019
 5353 0106 1AFA83F2 		uxtah	r2, r10, r3
 5354 010a 92B2     		uxth	r2, r2
 422:Middlewares/lvgl/src/draw/lv_draw_rect.c ****     area_inner.y2 -= ((dsc->border_side & LV_BORDER_SIDE_BOTTOM) ? dsc->border_width : - (dsc->bord
 5355              		.loc 1 422 19 discriminator 2 view .LVU2020
 5356 010c 5242     		rsbs	r2, r2, #0
 5357 010e 92B2     		uxth	r2, r2
 5358 0110 CFE7     		b	.L238
ARM GAS  /tmp/ccUpPomB.s 			page 153


 5359              	.LVL492:
 5360              	.L239:
 423:Middlewares/lvgl/src/draw/lv_draw_rect.c **** 
 5361              		.loc 1 423 109 discriminator 2 view .LVU2021
 5362 0112 1AFA83F3 		uxtah	r3, r10, r3
 5363 0116 9BB2     		uxth	r3, r3
 423:Middlewares/lvgl/src/draw/lv_draw_rect.c **** 
 5364              		.loc 1 423 19 discriminator 2 view .LVU2022
 5365 0118 5B42     		rsbs	r3, r3, #0
 5366 011a 9BB2     		uxth	r3, r3
 5367 011c D0E7     		b	.L240
 5368              	.L263:
 427:Middlewares/lvgl/src/draw/lv_draw_rect.c ****                          dsc->blend_mode);
 5369              		.loc 1 427 9 is_stmt 1 view .LVU2023
 5370 011e A378     		ldrb	r3, [r4, #2]	@ zero_extendqisi2
 5371 0120 0393     		str	r3, [sp, #12]
 5372 0122 0296     		str	r6, [sp, #8]
 5373 0124 638B     		ldrh	r3, [r4, #26]
 5374 0126 ADF80430 		strh	r3, [sp, #4]	@ movhi
 5375 012a 0023     		movs	r3, #0
 5376 012c 0093     		str	r3, [sp]
 5377 012e B4F90030 		ldrsh	r3, [r4]
 5378 0132 049A     		ldr	r2, [sp, #16]
 5379 0134 2946     		mov	r1, r5
 5380 0136 1CA8     		add	r0, sp, #112
 5381 0138 FFF7FEFF 		bl	draw_full_border
 5382              	.LVL493:
 5383 013c D4E7     		b	.L230
 5384              	.LVL494:
 5385              	.L264:
 5386              	.LBB333:
 444:Middlewares/lvgl/src/draw/lv_draw_rect.c **** 
 5387              		.loc 1 444 9 view .LVU2024
 448:Middlewares/lvgl/src/draw/lv_draw_rect.c ****         draw_area.y1 -= disp_area->y1;
 5388              		.loc 1 448 9 view .LVU2025
 448:Middlewares/lvgl/src/draw/lv_draw_rect.c ****         draw_area.y1 -= disp_area->y1;
 5389              		.loc 1 448 34 is_stmt 0 view .LVU2026
 5390 013e B8F81020 		ldrh	r2, [r8, #16]
 448:Middlewares/lvgl/src/draw/lv_draw_rect.c ****         draw_area.y1 -= disp_area->y1;
 5391              		.loc 1 448 22 view .LVU2027
 5392 0142 BDF82870 		ldrh	r7, [sp, #40]
 5393 0146 BF1A     		subs	r7, r7, r2
 5394 0148 BFB2     		uxth	r7, r7
 5395 014a ADF82870 		strh	r7, [sp, #40]	@ movhi
 449:Middlewares/lvgl/src/draw/lv_draw_rect.c ****         draw_area.x2 -= disp_area->x1;
 5396              		.loc 1 449 9 is_stmt 1 view .LVU2028
 449:Middlewares/lvgl/src/draw/lv_draw_rect.c ****         draw_area.x2 -= disp_area->x1;
 5397              		.loc 1 449 34 is_stmt 0 view .LVU2029
 5398 014e B8F81200 		ldrh	r0, [r8, #18]
 5399              	.LVL495:
 449:Middlewares/lvgl/src/draw/lv_draw_rect.c ****         draw_area.x2 -= disp_area->x1;
 5400              		.loc 1 449 22 view .LVU2030
 5401 0152 BDF82A10 		ldrh	r1, [sp, #42]
 5402 0156 091A     		subs	r1, r1, r0
 5403 0158 ADF82A10 		strh	r1, [sp, #42]	@ movhi
 450:Middlewares/lvgl/src/draw/lv_draw_rect.c ****         draw_area.y2 -= disp_area->y1;
 5404              		.loc 1 450 9 is_stmt 1 view .LVU2031
ARM GAS  /tmp/ccUpPomB.s 			page 154


 450:Middlewares/lvgl/src/draw/lv_draw_rect.c ****         draw_area.y2 -= disp_area->y1;
 5405              		.loc 1 450 22 is_stmt 0 view .LVU2032
 5406 015c BDF82C30 		ldrh	r3, [sp, #44]
 5407 0160 9B1A     		subs	r3, r3, r2
 5408 0162 9BB2     		uxth	r3, r3
 5409 0164 ADF82C30 		strh	r3, [sp, #44]	@ movhi
 451:Middlewares/lvgl/src/draw/lv_draw_rect.c **** 
 5410              		.loc 1 451 9 is_stmt 1 view .LVU2033
 451:Middlewares/lvgl/src/draw/lv_draw_rect.c **** 
 5411              		.loc 1 451 22 is_stmt 0 view .LVU2034
 5412 0168 BDF82E20 		ldrh	r2, [sp, #46]
 5413 016c 121A     		subs	r2, r2, r0
 5414 016e ADF82E20 		strh	r2, [sp, #46]	@ movhi
 453:Middlewares/lvgl/src/draw/lv_draw_rect.c **** 
 5415              		.loc 1 453 9 is_stmt 1 view .LVU2035
 5416              	.LVL496:
 5417              	.LBB331:
 5418              	.LBI331:
 133:Middlewares/lvgl/src/draw/../misc/lv_area.h **** {
 5419              		.loc 2 133 26 view .LVU2036
 5420              	.LBB332:
 135:Middlewares/lvgl/src/draw/../misc/lv_area.h **** }
 5421              		.loc 2 135 5 view .LVU2037
 135:Middlewares/lvgl/src/draw/../misc/lv_area.h **** }
 5422              		.loc 2 135 36 is_stmt 0 view .LVU2038
 5423 0172 DF1B     		subs	r7, r3, r7
 5424 0174 BFB2     		uxth	r7, r7
 135:Middlewares/lvgl/src/draw/../misc/lv_area.h **** }
 5425              		.loc 2 135 49 view .LVU2039
 5426 0176 0137     		adds	r7, r7, #1
 135:Middlewares/lvgl/src/draw/../misc/lv_area.h **** }
 5427              		.loc 2 135 12 view .LVU2040
 5428 0178 3FB2     		sxth	r7, r7
 5429              	.LVL497:
 135:Middlewares/lvgl/src/draw/../misc/lv_area.h **** }
 5430              		.loc 2 135 12 view .LVU2041
 5431              	.LBE332:
 5432              	.LBE331:
 456:Middlewares/lvgl/src/draw/lv_draw_rect.c **** 
 5433              		.loc 1 456 9 is_stmt 1 view .LVU2042
 456:Middlewares/lvgl/src/draw/lv_draw_rect.c **** 
 5434              		.loc 1 456 31 is_stmt 0 view .LVU2043
 5435 017a 3846     		mov	r0, r7
 5436 017c FFF7FEFF 		bl	lv_mem_buf_get
 5437              	.LVL498:
 5438 0180 8146     		mov	r9, r0
 5439              	.LVL499:
 459:Middlewares/lvgl/src/draw/lv_draw_rect.c ****         lv_draw_mask_radius_param_t mask_rout_param;
 5440              		.loc 1 459 9 is_stmt 1 view .LVU2044
 460:Middlewares/lvgl/src/draw/lv_draw_rect.c ****         if(rout > 0) {
 5441              		.loc 1 460 9 view .LVU2045
 461:Middlewares/lvgl/src/draw/lv_draw_rect.c ****             lv_draw_mask_radius_init(&mask_rout_param, coords, rout, false);
 5442              		.loc 1 461 9 view .LVU2046
 461:Middlewares/lvgl/src/draw/lv_draw_rect.c ****             lv_draw_mask_radius_init(&mask_rout_param, coords, rout, false);
 5443              		.loc 1 461 11 is_stmt 0 view .LVU2047
 5444 0182 BAF1000F 		cmp	r10, #0
 5445 0186 48DC     		bgt	.L265
ARM GAS  /tmp/ccUpPomB.s 			page 155


 459:Middlewares/lvgl/src/draw/lv_draw_rect.c ****         lv_draw_mask_radius_param_t mask_rout_param;
 5446              		.loc 1 459 17 view .LVU2048
 5447 0188 4FF0FF33 		mov	r3, #-1
 5448 018c 0793     		str	r3, [sp, #28]
 5449              	.LVL500:
 5450              	.L245:
 467:Middlewares/lvgl/src/draw/lv_draw_rect.c ****         if(rin < 0) rin = 0;
 5451              		.loc 1 467 9 is_stmt 1 view .LVU2049
 467:Middlewares/lvgl/src/draw/lv_draw_rect.c ****         if(rin < 0) rin = 0;
 5452              		.loc 1 467 33 is_stmt 0 view .LVU2050
 5453 018e B4F91C20 		ldrsh	r2, [r4, #28]
 5454              	.LVL501:
 468:Middlewares/lvgl/src/draw/lv_draw_rect.c ****         lv_draw_mask_radius_param_t mask_rin_param;
 5455              		.loc 1 468 9 is_stmt 1 view .LVU2051
 469:Middlewares/lvgl/src/draw/lv_draw_rect.c ****         lv_draw_mask_radius_init(&mask_rin_param, &area_inner, rout - dsc->border_width, true);
 5456              		.loc 1 469 9 view .LVU2052
 470:Middlewares/lvgl/src/draw/lv_draw_rect.c ****         int16_t mask_rin_id = lv_draw_mask_add(&mask_rin_param, NULL);
 5457              		.loc 1 470 9 view .LVU2053
 470:Middlewares/lvgl/src/draw/lv_draw_rect.c ****         int16_t mask_rin_id = lv_draw_mask_add(&mask_rin_param, NULL);
 5458              		.loc 1 470 74 is_stmt 0 view .LVU2054
 5459 0192 92B2     		uxth	r2, r2
 470:Middlewares/lvgl/src/draw/lv_draw_rect.c ****         int16_t mask_rin_id = lv_draw_mask_add(&mask_rin_param, NULL);
 5460              		.loc 1 470 69 view .LVU2055
 5461 0194 AAEB0202 		sub	r2, r10, r2
 470:Middlewares/lvgl/src/draw/lv_draw_rect.c ****         int16_t mask_rin_id = lv_draw_mask_add(&mask_rin_param, NULL);
 5462              		.loc 1 470 9 view .LVU2056
 5463 0198 0123     		movs	r3, #1
 5464 019a 12B2     		sxth	r2, r2
 5465 019c 1CA9     		add	r1, sp, #112
 5466 019e 15A8     		add	r0, sp, #84
 5467 01a0 FFF7FEFF 		bl	lv_draw_mask_radius_init
 5468              	.LVL502:
 471:Middlewares/lvgl/src/draw/lv_draw_rect.c **** 
 5469              		.loc 1 471 9 is_stmt 1 view .LVU2057
 471:Middlewares/lvgl/src/draw/lv_draw_rect.c **** 
 5470              		.loc 1 471 31 is_stmt 0 view .LVU2058
 5471 01a4 0021     		movs	r1, #0
 5472 01a6 15A8     		add	r0, sp, #84
 5473 01a8 FFF7FEFF 		bl	lv_draw_mask_add
 5474              	.LVL503:
 5475 01ac 0690     		str	r0, [sp, #24]
 5476              	.LVL504:
 473:Middlewares/lvgl/src/draw/lv_draw_rect.c **** 
 5477              		.loc 1 473 9 is_stmt 1 view .LVU2059
 473:Middlewares/lvgl/src/draw/lv_draw_rect.c **** 
 5478              		.loc 1 473 31 is_stmt 0 view .LVU2060
 5479 01ae B4F91C30 		ldrsh	r3, [r4, #28]
 5480 01b2 5345     		cmp	r3, r10
 5481 01b4 01DD     		ble	.L246
 473:Middlewares/lvgl/src/draw/lv_draw_rect.c **** 
 5482              		.loc 1 473 31 discriminator 1 view .LVU2061
 5483 01b6 03F1FF3A 		add	r10, r3, #-1
 5484              	.LVL505:
 5485              	.L246:
 475:Middlewares/lvgl/src/draw/lv_draw_rect.c ****         lv_draw_mask_res_t mask_res;
 5486              		.loc 1 475 9 is_stmt 1 discriminator 4 view .LVU2062
 476:Middlewares/lvgl/src/draw/lv_draw_rect.c ****         lv_area_t fill_area;
ARM GAS  /tmp/ccUpPomB.s 			page 156


 5487              		.loc 1 476 9 discriminator 4 view .LVU2063
 477:Middlewares/lvgl/src/draw/lv_draw_rect.c **** 
 5488              		.loc 1 477 9 discriminator 4 view .LVU2064
 479:Middlewares/lvgl/src/draw/lv_draw_rect.c ****         lv_blend_mode_t blend_mode = dsc->blend_mode;
 5489              		.loc 1 479 9 discriminator 4 view .LVU2065
 479:Middlewares/lvgl/src/draw/lv_draw_rect.c ****         lv_blend_mode_t blend_mode = dsc->blend_mode;
 5490              		.loc 1 479 20 is_stmt 0 discriminator 4 view .LVU2066
 5491 01ba 638B     		ldrh	r3, [r4, #26]
 5492              	.LVL506:
 479:Middlewares/lvgl/src/draw/lv_draw_rect.c ****         lv_blend_mode_t blend_mode = dsc->blend_mode;
 5493              		.loc 1 479 20 discriminator 4 view .LVU2067
 5494 01bc ADF81430 		strh	r3, [sp, #20]	@ movhi
 480:Middlewares/lvgl/src/draw/lv_draw_rect.c **** 
 5495              		.loc 1 480 9 is_stmt 1 discriminator 4 view .LVU2068
 480:Middlewares/lvgl/src/draw/lv_draw_rect.c **** 
 5496              		.loc 1 480 25 is_stmt 0 discriminator 4 view .LVU2069
 5497 01c0 94F802B0 		ldrb	fp, [r4, #2]	@ zero_extendqisi2
 5498              	.LVL507:
 482:Middlewares/lvgl/src/draw/lv_draw_rect.c ****         fill_area.x2 = coords->x2;
 5499              		.loc 1 482 9 is_stmt 1 discriminator 4 view .LVU2070
 482:Middlewares/lvgl/src/draw/lv_draw_rect.c ****         fill_area.x2 = coords->x2;
 5500              		.loc 1 482 30 is_stmt 0 discriminator 4 view .LVU2071
 5501 01c4 B5F90030 		ldrsh	r3, [r5]
 5502              	.LVL508:
 482:Middlewares/lvgl/src/draw/lv_draw_rect.c ****         fill_area.x2 = coords->x2;
 5503              		.loc 1 482 22 discriminator 4 view .LVU2072
 5504 01c8 ADF83030 		strh	r3, [sp, #48]	@ movhi
 483:Middlewares/lvgl/src/draw/lv_draw_rect.c ****         fill_area.y1 = disp_area->y1 + draw_area.y1;
 5505              		.loc 1 483 9 is_stmt 1 discriminator 4 view .LVU2073
 483:Middlewares/lvgl/src/draw/lv_draw_rect.c ****         fill_area.y1 = disp_area->y1 + draw_area.y1;
 5506              		.loc 1 483 30 is_stmt 0 discriminator 4 view .LVU2074
 5507 01cc B5F90430 		ldrsh	r3, [r5, #4]
 483:Middlewares/lvgl/src/draw/lv_draw_rect.c ****         fill_area.y1 = disp_area->y1 + draw_area.y1;
 5508              		.loc 1 483 22 discriminator 4 view .LVU2075
 5509 01d0 ADF83430 		strh	r3, [sp, #52]	@ movhi
 484:Middlewares/lvgl/src/draw/lv_draw_rect.c ****         fill_area.y2 = fill_area.y1;
 5510              		.loc 1 484 9 is_stmt 1 discriminator 4 view .LVU2076
 484:Middlewares/lvgl/src/draw/lv_draw_rect.c ****         fill_area.y2 = fill_area.y1;
 5511              		.loc 1 484 33 is_stmt 0 discriminator 4 view .LVU2077
 5512 01d4 B8F81230 		ldrh	r3, [r8, #18]
 484:Middlewares/lvgl/src/draw/lv_draw_rect.c ****         fill_area.y2 = fill_area.y1;
 5513              		.loc 1 484 49 discriminator 4 view .LVU2078
 5514 01d8 BDF92A20 		ldrsh	r2, [sp, #42]
 484:Middlewares/lvgl/src/draw/lv_draw_rect.c ****         fill_area.y2 = fill_area.y1;
 5515              		.loc 1 484 38 discriminator 4 view .LVU2079
 5516 01dc 13FA82F3 		uxtah	r3, r3, r2
 5517 01e0 1BB2     		sxth	r3, r3
 484:Middlewares/lvgl/src/draw/lv_draw_rect.c ****         fill_area.y2 = fill_area.y1;
 5518              		.loc 1 484 22 discriminator 4 view .LVU2080
 5519 01e2 ADF83230 		strh	r3, [sp, #50]	@ movhi
 485:Middlewares/lvgl/src/draw/lv_draw_rect.c **** 
 5520              		.loc 1 485 9 is_stmt 1 discriminator 4 view .LVU2081
 485:Middlewares/lvgl/src/draw/lv_draw_rect.c **** 
 5521              		.loc 1 485 22 is_stmt 0 discriminator 4 view .LVU2082
 5522 01e6 ADF83630 		strh	r3, [sp, #54]	@ movhi
 487:Middlewares/lvgl/src/draw/lv_draw_rect.c **** 
 5523              		.loc 1 487 9 is_stmt 1 discriminator 4 view .LVU2083
ARM GAS  /tmp/ccUpPomB.s 			page 157


 487:Middlewares/lvgl/src/draw/lv_draw_rect.c **** 
 5524              		.loc 1 487 29 is_stmt 0 discriminator 4 view .LVU2084
 5525 01ea E37F     		ldrb	r3, [r4, #31]	@ zero_extendqisi2
 5526 01ec 03F03E03 		and	r3, r3, #62
 487:Middlewares/lvgl/src/draw/lv_draw_rect.c **** 
 5527              		.loc 1 487 11 discriminator 4 view .LVU2085
 5528 01f0 082B     		cmp	r3, #8
 5529 01f2 1FD0     		beq	.L266
 5530              	.L247:
 489:Middlewares/lvgl/src/draw/lv_draw_rect.c ****         volatile bool bottom_only = false;
 5531              		.loc 1 489 9 is_stmt 1 view .LVU2086
 489:Middlewares/lvgl/src/draw/lv_draw_rect.c ****         volatile bool bottom_only = false;
 5532              		.loc 1 489 23 is_stmt 0 view .LVU2087
 5533 01f4 0021     		movs	r1, #0
 5534 01f6 8DF82510 		strb	r1, [sp, #37]
 490:Middlewares/lvgl/src/draw/lv_draw_rect.c ****         if(dsc->border_side == LV_BORDER_SIDE_TOP) top_only = true;
 5535              		.loc 1 490 9 is_stmt 1 view .LVU2088
 490:Middlewares/lvgl/src/draw/lv_draw_rect.c ****         if(dsc->border_side == LV_BORDER_SIDE_TOP) top_only = true;
 5536              		.loc 1 490 23 is_stmt 0 view .LVU2089
 5537 01fa 8DF82610 		strb	r1, [sp, #38]
 491:Middlewares/lvgl/src/draw/lv_draw_rect.c ****         if(dsc->border_side == LV_BORDER_SIDE_BOTTOM) bottom_only = true;
 5538              		.loc 1 491 9 is_stmt 1 view .LVU2090
 491:Middlewares/lvgl/src/draw/lv_draw_rect.c ****         if(dsc->border_side == LV_BORDER_SIDE_BOTTOM) bottom_only = true;
 5539              		.loc 1 491 11 is_stmt 0 view .LVU2091
 5540 01fe 042B     		cmp	r3, #4
 5541 0200 1DD0     		beq	.L267
 5542              	.L248:
 492:Middlewares/lvgl/src/draw/lv_draw_rect.c ****         if(dsc->border_side == (LV_BORDER_SIDE_TOP | LV_BORDER_SIDE_BOTTOM)) {
 5543              		.loc 1 492 9 is_stmt 1 view .LVU2092
 492:Middlewares/lvgl/src/draw/lv_draw_rect.c ****         if(dsc->border_side == (LV_BORDER_SIDE_TOP | LV_BORDER_SIDE_BOTTOM)) {
 5544              		.loc 1 492 11 is_stmt 0 view .LVU2093
 5545 0202 022B     		cmp	r3, #2
 5546 0204 1FD0     		beq	.L268
 5547              	.L249:
 493:Middlewares/lvgl/src/draw/lv_draw_rect.c ****             top_only = true;
 5548              		.loc 1 493 9 is_stmt 1 view .LVU2094
 493:Middlewares/lvgl/src/draw/lv_draw_rect.c ****             top_only = true;
 5549              		.loc 1 493 11 is_stmt 0 view .LVU2095
 5550 0206 062B     		cmp	r3, #6
 5551 0208 21D0     		beq	.L269
 5552              	.L250:
 498:Middlewares/lvgl/src/draw/lv_draw_rect.c **** 
 5553              		.loc 1 498 9 is_stmt 1 view .LVU2096
 498:Middlewares/lvgl/src/draw/lv_draw_rect.c **** 
 5554              		.loc 1 498 32 is_stmt 0 view .LVU2097
 5555 020a 9DF82530 		ldrb	r3, [sp, #37]	@ zero_extendqisi2
 498:Middlewares/lvgl/src/draw/lv_draw_rect.c **** 
 5556              		.loc 1 498 65 view .LVU2098
 5557 020e 23BB     		cbnz	r3, .L260
 498:Middlewares/lvgl/src/draw/lv_draw_rect.c **** 
 5558              		.loc 1 498 45 discriminator 1 view .LVU2099
 5559 0210 9DF82630 		ldrb	r3, [sp, #38]	@ zero_extendqisi2
 498:Middlewares/lvgl/src/draw/lv_draw_rect.c **** 
 5560              		.loc 1 498 65 discriminator 1 view .LVU2100
 5561 0214 4BB3     		cbz	r3, .L261
 498:Middlewares/lvgl/src/draw/lv_draw_rect.c **** 
 5562              		.loc 1 498 65 view .LVU2101
ARM GAS  /tmp/ccUpPomB.s 			page 158


 5563 0216 0023     		movs	r3, #0
 5564 0218 20E0     		b	.L251
 5565              	.LVL509:
 5566              	.L265:
 462:Middlewares/lvgl/src/draw/lv_draw_rect.c ****             mask_rout_id = lv_draw_mask_add(&mask_rout_param, NULL);
 5567              		.loc 1 462 13 is_stmt 1 view .LVU2102
 5568 021a 0023     		movs	r3, #0
 5569 021c 0FFA8AF2 		sxth	r2, r10
 5570 0220 2946     		mov	r1, r5
 5571 0222 0EA8     		add	r0, sp, #56
 5572              	.LVL510:
 462:Middlewares/lvgl/src/draw/lv_draw_rect.c ****             mask_rout_id = lv_draw_mask_add(&mask_rout_param, NULL);
 5573              		.loc 1 462 13 is_stmt 0 view .LVU2103
 5574 0224 FFF7FEFF 		bl	lv_draw_mask_radius_init
 5575              	.LVL511:
 463:Middlewares/lvgl/src/draw/lv_draw_rect.c ****         }
 5576              		.loc 1 463 13 is_stmt 1 view .LVU2104
 463:Middlewares/lvgl/src/draw/lv_draw_rect.c ****         }
 5577              		.loc 1 463 28 is_stmt 0 view .LVU2105
 5578 0228 0021     		movs	r1, #0
 5579 022a 0EA8     		add	r0, sp, #56
 5580 022c FFF7FEFF 		bl	lv_draw_mask_add
 5581              	.LVL512:
 5582 0230 0790     		str	r0, [sp, #28]
 5583              	.LVL513:
 463:Middlewares/lvgl/src/draw/lv_draw_rect.c ****         }
 5584              		.loc 1 463 28 view .LVU2106
 5585 0232 ACE7     		b	.L245
 5586              	.LVL514:
 5587              	.L266:
 487:Middlewares/lvgl/src/draw/lv_draw_rect.c **** 
 5588              		.loc 1 487 53 is_stmt 1 discriminator 1 view .LVU2107
 487:Middlewares/lvgl/src/draw/lv_draw_rect.c **** 
 5589              		.loc 1 487 74 is_stmt 0 discriminator 1 view .LVU2108
 5590 0234 2988     		ldrh	r1, [r5]
 487:Middlewares/lvgl/src/draw/lv_draw_rect.c **** 
 5591              		.loc 1 487 79 discriminator 1 view .LVU2109
 5592 0236 5144     		add	r1, r1, r10
 487:Middlewares/lvgl/src/draw/lv_draw_rect.c **** 
 5593              		.loc 1 487 66 discriminator 1 view .LVU2110
 5594 0238 ADF83410 		strh	r1, [sp, #52]	@ movhi
 5595 023c DAE7     		b	.L247
 5596              	.L267:
 491:Middlewares/lvgl/src/draw/lv_draw_rect.c ****         if(dsc->border_side == LV_BORDER_SIDE_BOTTOM) bottom_only = true;
 5597              		.loc 1 491 52 is_stmt 1 discriminator 1 view .LVU2111
 491:Middlewares/lvgl/src/draw/lv_draw_rect.c ****         if(dsc->border_side == LV_BORDER_SIDE_BOTTOM) bottom_only = true;
 5598              		.loc 1 491 61 is_stmt 0 discriminator 1 view .LVU2112
 5599 023e 0121     		movs	r1, #1
 5600 0240 8DF82510 		strb	r1, [sp, #37]
 5601 0244 DDE7     		b	.L248
 5602              	.L268:
 492:Middlewares/lvgl/src/draw/lv_draw_rect.c ****         if(dsc->border_side == (LV_BORDER_SIDE_TOP | LV_BORDER_SIDE_BOTTOM)) {
 5603              		.loc 1 492 55 is_stmt 1 discriminator 1 view .LVU2113
 492:Middlewares/lvgl/src/draw/lv_draw_rect.c ****         if(dsc->border_side == (LV_BORDER_SIDE_TOP | LV_BORDER_SIDE_BOTTOM)) {
 5604              		.loc 1 492 67 is_stmt 0 discriminator 1 view .LVU2114
 5605 0246 0121     		movs	r1, #1
 5606 0248 8DF82610 		strb	r1, [sp, #38]
ARM GAS  /tmp/ccUpPomB.s 			page 159


 5607 024c DBE7     		b	.L249
 5608              	.L269:
 494:Middlewares/lvgl/src/draw/lv_draw_rect.c ****             bottom_only = true;
 5609              		.loc 1 494 13 is_stmt 1 view .LVU2115
 494:Middlewares/lvgl/src/draw/lv_draw_rect.c ****             bottom_only = true;
 5610              		.loc 1 494 22 is_stmt 0 view .LVU2116
 5611 024e 0123     		movs	r3, #1
 5612 0250 8DF82530 		strb	r3, [sp, #37]
 495:Middlewares/lvgl/src/draw/lv_draw_rect.c ****         }
 5613              		.loc 1 495 13 is_stmt 1 view .LVU2117
 495:Middlewares/lvgl/src/draw/lv_draw_rect.c ****         }
 5614              		.loc 1 495 25 is_stmt 0 view .LVU2118
 5615 0254 8DF82630 		strb	r3, [sp, #38]
 5616 0258 D7E7     		b	.L250
 5617              	.L260:
 498:Middlewares/lvgl/src/draw/lv_draw_rect.c **** 
 5618              		.loc 1 498 65 view .LVU2119
 5619 025a 0023     		movs	r3, #0
 5620              	.L251:
 498:Middlewares/lvgl/src/draw/lv_draw_rect.c **** 
 5621              		.loc 1 498 23 discriminator 6 view .LVU2120
 5622 025c 8DF82730 		strb	r3, [sp, #39]
 500:Middlewares/lvgl/src/draw/lv_draw_rect.c ****             if(normal ||
 5623              		.loc 1 500 9 is_stmt 1 discriminator 6 view .LVU2121
 500:Middlewares/lvgl/src/draw/lv_draw_rect.c ****             if(normal ||
 5624              		.loc 1 500 15 is_stmt 0 discriminator 6 view .LVU2122
 5625 0260 1446     		mov	r4, r2
 5626              	.LVL515:
 500:Middlewares/lvgl/src/draw/lv_draw_rect.c ****             if(normal ||
 5627              		.loc 1 500 15 discriminator 6 view .LVU2123
 5628 0262 2B46     		mov	r3, r5
 5629 0264 5D46     		mov	r5, fp
 5630              	.LVL516:
 500:Middlewares/lvgl/src/draw/lv_draw_rect.c ****             if(normal ||
 5631              		.loc 1 500 15 discriminator 6 view .LVU2124
 5632 0266 9B46     		mov	fp, r3
 5633              	.LVL517:
 500:Middlewares/lvgl/src/draw/lv_draw_rect.c ****             if(normal ||
 5634              		.loc 1 500 9 discriminator 6 view .LVU2125
 5635 0268 28E0     		b	.L252
 5636              	.LVL518:
 5637              	.L261:
 498:Middlewares/lvgl/src/draw/lv_draw_rect.c **** 
 5638              		.loc 1 498 65 view .LVU2126
 5639 026a 0123     		movs	r3, #1
 5640 026c F6E7     		b	.L251
 5641              	.LVL519:
 5642              	.L253:
 504:Middlewares/lvgl/src/draw/lv_draw_rect.c ****                 mask_res = lv_draw_mask_apply(mask_buf, draw_buf->area.x1 + draw_area.x1, draw_buf-
 5643              		.loc 1 504 17 is_stmt 1 view .LVU2127
 5644 026e 3946     		mov	r1, r7
 5645 0270 4846     		mov	r0, r9
 5646 0272 FFF7FEFF 		bl	lv_memset_ff
 5647              	.LVL520:
 505:Middlewares/lvgl/src/draw/lv_draw_rect.c ****                 _lv_blend_fill(clip, &fill_area, color, mask_buf, mask_res, opa, blend_mode);
 5648              		.loc 1 505 17 view .LVU2128
 505:Middlewares/lvgl/src/draw/lv_draw_rect.c ****                 _lv_blend_fill(clip, &fill_area, color, mask_buf, mask_res, opa, blend_mode);
ARM GAS  /tmp/ccUpPomB.s 			page 160


 5649              		.loc 1 505 71 is_stmt 0 view .LVU2129
 5650 0276 B8F81010 		ldrh	r1, [r8, #16]
 505:Middlewares/lvgl/src/draw/lv_draw_rect.c ****                 _lv_blend_fill(clip, &fill_area, color, mask_buf, mask_res, opa, blend_mode);
 5651              		.loc 1 505 86 view .LVU2130
 5652 027a BDF82830 		ldrh	r3, [sp, #40]
 505:Middlewares/lvgl/src/draw/lv_draw_rect.c ****                 _lv_blend_fill(clip, &fill_area, color, mask_buf, mask_res, opa, blend_mode);
 5653              		.loc 1 505 75 view .LVU2131
 5654 027e 1944     		add	r1, r1, r3
 505:Middlewares/lvgl/src/draw/lv_draw_rect.c ****                 _lv_blend_fill(clip, &fill_area, color, mask_buf, mask_res, opa, blend_mode);
 5655              		.loc 1 505 105 view .LVU2132
 5656 0280 B8F81220 		ldrh	r2, [r8, #18]
 505:Middlewares/lvgl/src/draw/lv_draw_rect.c ****                 _lv_blend_fill(clip, &fill_area, color, mask_buf, mask_res, opa, blend_mode);
 5657              		.loc 1 505 109 view .LVU2133
 5658 0284 2244     		add	r2, r2, r4
 505:Middlewares/lvgl/src/draw/lv_draw_rect.c ****                 _lv_blend_fill(clip, &fill_area, color, mask_buf, mask_res, opa, blend_mode);
 5659              		.loc 1 505 28 view .LVU2134
 5660 0286 3B46     		mov	r3, r7
 5661 0288 12B2     		sxth	r2, r2
 5662 028a 09B2     		sxth	r1, r1
 5663 028c 4846     		mov	r0, r9
 5664 028e FFF7FEFF 		bl	lv_draw_mask_apply
 5665              	.LVL521:
 506:Middlewares/lvgl/src/draw/lv_draw_rect.c ****             }
 5666              		.loc 1 506 17 is_stmt 1 view .LVU2135
 5667 0292 0295     		str	r5, [sp, #8]
 5668 0294 0196     		str	r6, [sp, #4]
 5669 0296 0090     		str	r0, [sp]
 5670 0298 4B46     		mov	r3, r9
 5671 029a BDF81420 		ldrh	r2, [sp, #20]
 5672 029e 0CA9     		add	r1, sp, #48
 5673 02a0 0498     		ldr	r0, [sp, #16]
 5674              	.LVL522:
 506:Middlewares/lvgl/src/draw/lv_draw_rect.c ****             }
 5675              		.loc 1 506 17 is_stmt 0 view .LVU2136
 5676 02a2 FFF7FEFF 		bl	_lv_blend_fill
 5677              	.LVL523:
 5678              	.L255:
 508:Middlewares/lvgl/src/draw/lv_draw_rect.c ****             fill_area.y2++;
 5679              		.loc 1 508 13 is_stmt 1 discriminator 2 view .LVU2137
 508:Middlewares/lvgl/src/draw/lv_draw_rect.c ****             fill_area.y2++;
 5680              		.loc 1 508 22 is_stmt 0 discriminator 2 view .LVU2138
 5681 02a6 BDF93230 		ldrsh	r3, [sp, #50]
 508:Middlewares/lvgl/src/draw/lv_draw_rect.c ****             fill_area.y2++;
 5682              		.loc 1 508 25 discriminator 2 view .LVU2139
 5683 02aa 0133     		adds	r3, r3, #1
 5684 02ac ADF83230 		strh	r3, [sp, #50]	@ movhi
 509:Middlewares/lvgl/src/draw/lv_draw_rect.c **** 
 5685              		.loc 1 509 13 is_stmt 1 discriminator 2 view .LVU2140
 509:Middlewares/lvgl/src/draw/lv_draw_rect.c **** 
 5686              		.loc 1 509 22 is_stmt 0 discriminator 2 view .LVU2141
 5687 02b0 BDF93630 		ldrsh	r3, [sp, #54]
 509:Middlewares/lvgl/src/draw/lv_draw_rect.c **** 
 5688              		.loc 1 509 25 discriminator 2 view .LVU2142
 5689 02b4 0133     		adds	r3, r3, #1
 5690 02b6 ADF83630 		strh	r3, [sp, #54]	@ movhi
 500:Middlewares/lvgl/src/draw/lv_draw_rect.c ****             if(normal ||
 5691              		.loc 1 500 50 is_stmt 1 discriminator 2 view .LVU2143
ARM GAS  /tmp/ccUpPomB.s 			page 161


 500:Middlewares/lvgl/src/draw/lv_draw_rect.c ****             if(normal ||
 5692              		.loc 1 500 51 is_stmt 0 discriminator 2 view .LVU2144
 5693 02ba 0134     		adds	r4, r4, #1
 5694              	.LVL524:
 5695              	.L252:
 500:Middlewares/lvgl/src/draw/lv_draw_rect.c ****             if(normal ||
 5696              		.loc 1 500 31 is_stmt 1 discriminator 1 view .LVU2145
 500:Middlewares/lvgl/src/draw/lv_draw_rect.c ****             if(normal ||
 5697              		.loc 1 500 45 is_stmt 0 discriminator 1 view .LVU2146
 5698 02bc BDF92E30 		ldrsh	r3, [sp, #46]
 500:Middlewares/lvgl/src/draw/lv_draw_rect.c ****             if(normal ||
 5699              		.loc 1 500 9 discriminator 1 view .LVU2147
 5700 02c0 A342     		cmp	r3, r4
 5701 02c2 1ADB     		blt	.L270
 501:Middlewares/lvgl/src/draw/lv_draw_rect.c ****                (top_only && fill_area.y1 <= coords->y1 + corner_size) ||
 5702              		.loc 1 501 13 is_stmt 1 view .LVU2148
 501:Middlewares/lvgl/src/draw/lv_draw_rect.c ****                (top_only && fill_area.y1 <= coords->y1 + corner_size) ||
 5703              		.loc 1 501 16 is_stmt 0 view .LVU2149
 5704 02c4 9DF82730 		ldrb	r3, [sp, #39]	@ zero_extendqisi2
 501:Middlewares/lvgl/src/draw/lv_draw_rect.c ****                (top_only && fill_area.y1 <= coords->y1 + corner_size) ||
 5705              		.loc 1 501 15 view .LVU2150
 5706 02c8 002B     		cmp	r3, #0
 5707 02ca D0D1     		bne	.L253
 502:Middlewares/lvgl/src/draw/lv_draw_rect.c ****                (bottom_only && fill_area.y1 >= coords->y2 - corner_size)) {
 5708              		.loc 1 502 17 discriminator 1 view .LVU2151
 5709 02cc 9DF82530 		ldrb	r3, [sp, #37]	@ zero_extendqisi2
 501:Middlewares/lvgl/src/draw/lv_draw_rect.c ****                (top_only && fill_area.y1 <= coords->y1 + corner_size) ||
 5710              		.loc 1 501 23 discriminator 1 view .LVU2152
 5711 02d0 33B1     		cbz	r3, .L254
 502:Middlewares/lvgl/src/draw/lv_draw_rect.c ****                (bottom_only && fill_area.y1 >= coords->y2 - corner_size)) {
 5712              		.loc 1 502 38 view .LVU2153
 5713 02d2 BDF93220 		ldrsh	r2, [sp, #50]
 502:Middlewares/lvgl/src/draw/lv_draw_rect.c ****                (bottom_only && fill_area.y1 >= coords->y2 - corner_size)) {
 5714              		.loc 1 502 51 view .LVU2154
 5715 02d6 BBF90230 		ldrsh	r3, [fp, #2]
 502:Middlewares/lvgl/src/draw/lv_draw_rect.c ****                (bottom_only && fill_area.y1 >= coords->y2 - corner_size)) {
 5716              		.loc 1 502 56 view .LVU2155
 5717 02da 5344     		add	r3, r3, r10
 502:Middlewares/lvgl/src/draw/lv_draw_rect.c ****                (bottom_only && fill_area.y1 >= coords->y2 - corner_size)) {
 5718              		.loc 1 502 26 view .LVU2156
 5719 02dc 9A42     		cmp	r2, r3
 5720 02de C6DD     		ble	.L253
 5721              	.L254:
 503:Middlewares/lvgl/src/draw/lv_draw_rect.c ****                 lv_memset_ff(mask_buf, draw_area_w);
 5722              		.loc 1 503 17 discriminator 1 view .LVU2157
 5723 02e0 9DF82630 		ldrb	r3, [sp, #38]	@ zero_extendqisi2
 502:Middlewares/lvgl/src/draw/lv_draw_rect.c ****                (bottom_only && fill_area.y1 >= coords->y2 - corner_size)) {
 5724              		.loc 1 502 71 discriminator 1 view .LVU2158
 5725 02e4 002B     		cmp	r3, #0
 5726 02e6 DED0     		beq	.L255
 503:Middlewares/lvgl/src/draw/lv_draw_rect.c ****                 lv_memset_ff(mask_buf, draw_area_w);
 5727              		.loc 1 503 41 view .LVU2159
 5728 02e8 BDF93220 		ldrsh	r2, [sp, #50]
 503:Middlewares/lvgl/src/draw/lv_draw_rect.c ****                 lv_memset_ff(mask_buf, draw_area_w);
 5729              		.loc 1 503 54 view .LVU2160
 5730 02ec BBF90630 		ldrsh	r3, [fp, #6]
 503:Middlewares/lvgl/src/draw/lv_draw_rect.c ****                 lv_memset_ff(mask_buf, draw_area_w);
ARM GAS  /tmp/ccUpPomB.s 			page 162


 5731              		.loc 1 503 59 view .LVU2161
 5732 02f0 A3EB0A03 		sub	r3, r3, r10
 503:Middlewares/lvgl/src/draw/lv_draw_rect.c ****                 lv_memset_ff(mask_buf, draw_area_w);
 5733              		.loc 1 503 29 view .LVU2162
 5734 02f4 9A42     		cmp	r2, r3
 5735 02f6 D6DB     		blt	.L255
 5736 02f8 B9E7     		b	.L253
 5737              	.L270:
 512:Middlewares/lvgl/src/draw/lv_draw_rect.c ****         lv_draw_mask_remove_id(mask_rout_id);
 5738              		.loc 1 512 9 is_stmt 1 view .LVU2163
 5739 02fa 0698     		ldr	r0, [sp, #24]
 5740 02fc FFF7FEFF 		bl	lv_draw_mask_remove_id
 5741              	.LVL525:
 513:Middlewares/lvgl/src/draw/lv_draw_rect.c ****         lv_mem_buf_release(mask_buf);
 5742              		.loc 1 513 9 view .LVU2164
 5743 0300 0798     		ldr	r0, [sp, #28]
 5744 0302 FFF7FEFF 		bl	lv_draw_mask_remove_id
 5745              	.LVL526:
 514:Middlewares/lvgl/src/draw/lv_draw_rect.c ****     }
 5746              		.loc 1 514 9 view .LVU2165
 5747 0306 4846     		mov	r0, r9
 5748 0308 FFF7FEFF 		bl	lv_mem_buf_release
 5749              	.LVL527:
 5750 030c ECE6     		b	.L230
 5751              	.LBE333:
 5752              		.cfi_endproc
 5753              	.LFE151:
 5755              		.section	.text.draw_bg_img,"ax",%progbits
 5756              		.align	1
 5757              		.syntax unified
 5758              		.thumb
 5759              		.thumb_func
 5761              	draw_bg_img:
 5762              	.LVL528:
 5763              	.LFB150:
 339:Middlewares/lvgl/src/draw/lv_draw_rect.c ****     if(dsc->bg_img_src == NULL) return;
 5764              		.loc 1 339 1 view -0
 5765              		.cfi_startproc
 5766              		@ args = 0, pretend = 0, frame = 48
 5767              		@ frame_needed = 0, uses_anonymous_args = 0
 339:Middlewares/lvgl/src/draw/lv_draw_rect.c ****     if(dsc->bg_img_src == NULL) return;
 5768              		.loc 1 339 1 is_stmt 0 view .LVU2167
 5769 0000 70B5     		push	{r4, r5, r6, lr}
 5770              	.LCFI21:
 5771              		.cfi_def_cfa_offset 16
 5772              		.cfi_offset 4, -16
 5773              		.cfi_offset 5, -12
 5774              		.cfi_offset 6, -8
 5775              		.cfi_offset 14, -4
 5776 0002 90B0     		sub	sp, sp, #64
 5777              	.LCFI22:
 5778              		.cfi_def_cfa_offset 80
 5779 0004 0546     		mov	r5, r0
 340:Middlewares/lvgl/src/draw/lv_draw_rect.c ****     if(dsc->bg_img_opa <= LV_OPA_MIN) return;
 5780              		.loc 1 340 5 is_stmt 1 view .LVU2168
 340:Middlewares/lvgl/src/draw/lv_draw_rect.c ****     if(dsc->bg_img_opa <= LV_OPA_MIN) return;
 5781              		.loc 1 340 11 is_stmt 0 view .LVU2169
ARM GAS  /tmp/ccUpPomB.s 			page 163


 5782 0006 D068     		ldr	r0, [r2, #12]
 5783              	.LVL529:
 340:Middlewares/lvgl/src/draw/lv_draw_rect.c ****     if(dsc->bg_img_opa <= LV_OPA_MIN) return;
 5784              		.loc 1 340 7 view .LVU2170
 5785 0008 20B1     		cbz	r0, .L271
 5786 000a 0E46     		mov	r6, r1
 5787 000c 1446     		mov	r4, r2
 341:Middlewares/lvgl/src/draw/lv_draw_rect.c **** 
 5788              		.loc 1 341 5 is_stmt 1 view .LVU2171
 341:Middlewares/lvgl/src/draw/lv_draw_rect.c **** 
 5789              		.loc 1 341 11 is_stmt 0 view .LVU2172
 5790 000e 937D     		ldrb	r3, [r2, #22]	@ zero_extendqisi2
 341:Middlewares/lvgl/src/draw/lv_draw_rect.c **** 
 5791              		.loc 1 341 7 view .LVU2173
 5792 0010 022B     		cmp	r3, #2
 5793 0012 01D8     		bhi	.L290
 5794              	.LVL530:
 5795              	.L271:
 399:Middlewares/lvgl/src/draw/lv_draw_rect.c **** 
 5796              		.loc 1 399 1 view .LVU2174
 5797 0014 10B0     		add	sp, sp, #64
 5798              	.LCFI23:
 5799              		.cfi_remember_state
 5800              		.cfi_def_cfa_offset 16
 5801              		@ sp needed
 5802 0016 70BD     		pop	{r4, r5, r6, pc}
 5803              	.LVL531:
 5804              	.L290:
 5805              	.LCFI24:
 5806              		.cfi_restore_state
 343:Middlewares/lvgl/src/draw/lv_draw_rect.c ****     if(src_type == LV_IMG_SRC_SYMBOL) {
 5807              		.loc 1 343 5 is_stmt 1 view .LVU2175
 343:Middlewares/lvgl/src/draw/lv_draw_rect.c ****     if(src_type == LV_IMG_SRC_SYMBOL) {
 5808              		.loc 1 343 29 is_stmt 0 view .LVU2176
 5809 0018 FFF7FEFF 		bl	lv_img_src_get_type
 5810              	.LVL532:
 344:Middlewares/lvgl/src/draw/lv_draw_rect.c ****         lv_point_t size;
 5811              		.loc 1 344 5 is_stmt 1 view .LVU2177
 344:Middlewares/lvgl/src/draw/lv_draw_rect.c ****         lv_point_t size;
 5812              		.loc 1 344 7 is_stmt 0 view .LVU2178
 5813 001c 0228     		cmp	r0, #2
 5814 001e 2AD0     		beq	.L291
 5815              	.LBB334:
 361:Middlewares/lvgl/src/draw/lv_draw_rect.c ****         lv_res_t res = lv_img_decoder_get_info(dsc->bg_img_src, &header);
 5816              		.loc 1 361 9 is_stmt 1 view .LVU2179
 362:Middlewares/lvgl/src/draw/lv_draw_rect.c ****         if(res != LV_RES_OK) {
 5817              		.loc 1 362 9 view .LVU2180
 362:Middlewares/lvgl/src/draw/lv_draw_rect.c ****         if(res != LV_RES_OK) {
 5818              		.loc 1 362 24 is_stmt 0 view .LVU2181
 5819 0020 05A9     		add	r1, sp, #20
 5820 0022 E068     		ldr	r0, [r4, #12]
 5821              	.LVL533:
 362:Middlewares/lvgl/src/draw/lv_draw_rect.c ****         if(res != LV_RES_OK) {
 5822              		.loc 1 362 24 view .LVU2182
 5823 0024 FFF7FEFF 		bl	lv_img_decoder_get_info
 5824              	.LVL534:
 363:Middlewares/lvgl/src/draw/lv_draw_rect.c ****             LV_LOG_WARN("Coudn't read the background image");
ARM GAS  /tmp/ccUpPomB.s 			page 164


 5825              		.loc 1 363 9 is_stmt 1 view .LVU2183
 363:Middlewares/lvgl/src/draw/lv_draw_rect.c ****             LV_LOG_WARN("Coudn't read the background image");
 5826              		.loc 1 363 11 is_stmt 0 view .LVU2184
 5827 0028 0128     		cmp	r0, #1
 5828 002a F3D1     		bne	.L271
 368:Middlewares/lvgl/src/draw/lv_draw_rect.c ****         lv_draw_img_dsc_init(&img_dsc);
 5829              		.loc 1 368 9 is_stmt 1 view .LVU2185
 369:Middlewares/lvgl/src/draw/lv_draw_rect.c ****         img_dsc.blend_mode = dsc->blend_mode;
 5830              		.loc 1 369 9 view .LVU2186
 5831 002c 08A8     		add	r0, sp, #32
 5832              	.LVL535:
 369:Middlewares/lvgl/src/draw/lv_draw_rect.c ****         img_dsc.blend_mode = dsc->blend_mode;
 5833              		.loc 1 369 9 is_stmt 0 view .LVU2187
 5834 002e FFF7FEFF 		bl	lv_draw_img_dsc_init
 5835              	.LVL536:
 370:Middlewares/lvgl/src/draw/lv_draw_rect.c ****         img_dsc.recolor = dsc->bg_img_recolor;
 5836              		.loc 1 370 9 is_stmt 1 view .LVU2188
 370:Middlewares/lvgl/src/draw/lv_draw_rect.c ****         img_dsc.recolor = dsc->bg_img_recolor;
 5837              		.loc 1 370 33 is_stmt 0 view .LVU2189
 5838 0032 A278     		ldrb	r2, [r4, #2]	@ zero_extendqisi2
 370:Middlewares/lvgl/src/draw/lv_draw_rect.c ****         img_dsc.recolor = dsc->bg_img_recolor;
 5839              		.loc 1 370 28 view .LVU2190
 5840 0034 9DF82C30 		ldrb	r3, [sp, #44]	@ zero_extendqisi2
 5841 0038 62F30303 		bfi	r3, r2, #0, #4
 5842 003c 8DF82C30 		strb	r3, [sp, #44]
 371:Middlewares/lvgl/src/draw/lv_draw_rect.c ****         img_dsc.recolor_opa = dsc->bg_img_recolor_opa;
 5843              		.loc 1 371 9 is_stmt 1 view .LVU2191
 371:Middlewares/lvgl/src/draw/lv_draw_rect.c ****         img_dsc.recolor_opa = dsc->bg_img_recolor_opa;
 5844              		.loc 1 371 25 is_stmt 0 view .LVU2192
 5845 0040 A38A     		ldrh	r3, [r4, #20]
 5846 0042 ADF82830 		strh	r3, [sp, #40]	@ movhi
 372:Middlewares/lvgl/src/draw/lv_draw_rect.c ****         img_dsc.opa = dsc->bg_img_opa;
 5847              		.loc 1 372 9 is_stmt 1 view .LVU2193
 372:Middlewares/lvgl/src/draw/lv_draw_rect.c ****         img_dsc.opa = dsc->bg_img_opa;
 5848              		.loc 1 372 34 is_stmt 0 view .LVU2194
 5849 0046 E37D     		ldrb	r3, [r4, #23]	@ zero_extendqisi2
 372:Middlewares/lvgl/src/draw/lv_draw_rect.c ****         img_dsc.opa = dsc->bg_img_opa;
 5850              		.loc 1 372 29 view .LVU2195
 5851 0048 8DF82A30 		strb	r3, [sp, #42]
 373:Middlewares/lvgl/src/draw/lv_draw_rect.c **** 
 5852              		.loc 1 373 9 is_stmt 1 view .LVU2196
 373:Middlewares/lvgl/src/draw/lv_draw_rect.c **** 
 5853              		.loc 1 373 26 is_stmt 0 view .LVU2197
 5854 004c A37D     		ldrb	r3, [r4, #22]	@ zero_extendqisi2
 373:Middlewares/lvgl/src/draw/lv_draw_rect.c **** 
 5855              		.loc 1 373 21 view .LVU2198
 5856 004e 8DF82B30 		strb	r3, [sp, #43]
 376:Middlewares/lvgl/src/draw/lv_draw_rect.c ****             lv_area_t area;
 5857              		.loc 1 376 9 is_stmt 1 view .LVU2199
 376:Middlewares/lvgl/src/draw/lv_draw_rect.c ****             lv_area_t area;
 5858              		.loc 1 376 15 is_stmt 0 view .LVU2200
 5859 0052 237E     		ldrb	r3, [r4, #24]	@ zero_extendqisi2
 376:Middlewares/lvgl/src/draw/lv_draw_rect.c ****             lv_area_t area;
 5860              		.loc 1 376 11 view .LVU2201
 5861 0054 002B     		cmp	r3, #0
 5862 0056 6BD0     		beq	.L292
 5863              	.LBB335:
ARM GAS  /tmp/ccUpPomB.s 			page 165


 385:Middlewares/lvgl/src/draw/lv_draw_rect.c ****             area.y1 = coords->y1;
 5864              		.loc 1 385 13 is_stmt 1 view .LVU2202
 386:Middlewares/lvgl/src/draw/lv_draw_rect.c ****             area.y2 = area.y1 + header.h - 1;
 5865              		.loc 1 386 13 view .LVU2203
 386:Middlewares/lvgl/src/draw/lv_draw_rect.c ****             area.y2 = area.y1 + header.h - 1;
 5866              		.loc 1 386 29 is_stmt 0 view .LVU2204
 5867 0058 B5F90230 		ldrsh	r3, [r5, #2]
 386:Middlewares/lvgl/src/draw/lv_draw_rect.c ****             area.y2 = area.y1 + header.h - 1;
 5868              		.loc 1 386 21 view .LVU2205
 5869 005c ADF81A30 		strh	r3, [sp, #26]	@ movhi
 387:Middlewares/lvgl/src/draw/lv_draw_rect.c **** 
 5870              		.loc 1 387 13 is_stmt 1 view .LVU2206
 387:Middlewares/lvgl/src/draw/lv_draw_rect.c **** 
 5871              		.loc 1 387 39 is_stmt 0 view .LVU2207
 5872 0060 BDF81620 		ldrh	r2, [sp, #22]
 5873 0064 C2F34A12 		ubfx	r2, r2, #5, #11
 387:Middlewares/lvgl/src/draw/lv_draw_rect.c **** 
 5874              		.loc 1 387 31 view .LVU2208
 5875 0068 12FA83F3 		uxtah	r3, r2, r3
 5876 006c 9BB2     		uxth	r3, r3
 387:Middlewares/lvgl/src/draw/lv_draw_rect.c **** 
 5877              		.loc 1 387 42 view .LVU2209
 5878 006e 013B     		subs	r3, r3, #1
 387:Middlewares/lvgl/src/draw/lv_draw_rect.c **** 
 5879              		.loc 1 387 21 view .LVU2210
 5880 0070 ADF81E30 		strh	r3, [sp, #30]	@ movhi
 389:Middlewares/lvgl/src/draw/lv_draw_rect.c **** 
 5881              		.loc 1 389 13 is_stmt 1 view .LVU2211
 5882 0074 C3E0     		b	.L285
 5883              	.LVL537:
 5884              	.L291:
 389:Middlewares/lvgl/src/draw/lv_draw_rect.c **** 
 5885              		.loc 1 389 13 is_stmt 0 view .LVU2212
 5886              	.LBE335:
 5887              	.LBE334:
 5888              	.LBB343:
 345:Middlewares/lvgl/src/draw/lv_draw_rect.c ****         lv_txt_get_size(&size, dsc->bg_img_src, dsc->bg_img_symbol_font, 0, 0, LV_COORD_MAX, LV_TEX
 5889              		.loc 1 345 9 is_stmt 1 view .LVU2213
 346:Middlewares/lvgl/src/draw/lv_draw_rect.c ****         lv_area_t a;
 5890              		.loc 1 346 9 view .LVU2214
 5891 0076 0023     		movs	r3, #0
 5892 0078 0293     		str	r3, [sp, #8]
 5893 007a 4FF4C042 		mov	r2, #24576
 5894 007e 0192     		str	r2, [sp, #4]
 5895 0080 0093     		str	r3, [sp]
 5896 0082 2269     		ldr	r2, [r4, #16]
 5897 0084 E168     		ldr	r1, [r4, #12]
 5898 0086 05A8     		add	r0, sp, #20
 5899              	.LVL538:
 346:Middlewares/lvgl/src/draw/lv_draw_rect.c ****         lv_area_t a;
 5900              		.loc 1 346 9 is_stmt 0 view .LVU2215
 5901 0088 FFF7FEFF 		bl	lv_txt_get_size
 5902              	.LVL539:
 347:Middlewares/lvgl/src/draw/lv_draw_rect.c ****         a.x1 = coords->x1 + lv_area_get_width(coords) / 2 - size.x / 2;
 5903              		.loc 1 347 9 is_stmt 1 view .LVU2216
 348:Middlewares/lvgl/src/draw/lv_draw_rect.c ****         a.x2 = a.x1 + size.x - 1;
 5904              		.loc 1 348 9 view .LVU2217
ARM GAS  /tmp/ccUpPomB.s 			page 166


 348:Middlewares/lvgl/src/draw/lv_draw_rect.c ****         a.x2 = a.x1 + size.x - 1;
 5905              		.loc 1 348 22 is_stmt 0 view .LVU2218
 5906 008c 2B88     		ldrh	r3, [r5]
 5907              	.LVL540:
 5908              	.LBB344:
 5909              	.LBI344:
 133:Middlewares/lvgl/src/draw/../misc/lv_area.h **** {
 5910              		.loc 2 133 26 is_stmt 1 view .LVU2219
 5911              	.LBB345:
 135:Middlewares/lvgl/src/draw/../misc/lv_area.h **** }
 5912              		.loc 2 135 5 view .LVU2220
 135:Middlewares/lvgl/src/draw/../misc/lv_area.h **** }
 5913              		.loc 2 135 31 is_stmt 0 view .LVU2221
 5914 008e AA88     		ldrh	r2, [r5, #4]
 135:Middlewares/lvgl/src/draw/../misc/lv_area.h **** }
 5915              		.loc 2 135 36 view .LVU2222
 5916 0090 D21A     		subs	r2, r2, r3
 5917 0092 92B2     		uxth	r2, r2
 135:Middlewares/lvgl/src/draw/../misc/lv_area.h **** }
 5918              		.loc 2 135 49 view .LVU2223
 5919 0094 0132     		adds	r2, r2, #1
 135:Middlewares/lvgl/src/draw/../misc/lv_area.h **** }
 5920              		.loc 2 135 12 view .LVU2224
 5921 0096 12B2     		sxth	r2, r2
 5922              	.LVL541:
 135:Middlewares/lvgl/src/draw/../misc/lv_area.h **** }
 5923              		.loc 2 135 12 view .LVU2225
 5924              	.LBE345:
 5925              	.LBE344:
 348:Middlewares/lvgl/src/draw/lv_draw_rect.c ****         a.x2 = a.x1 + size.x - 1;
 5926              		.loc 1 348 27 view .LVU2226
 5927 0098 002A     		cmp	r2, #0
 5928 009a 41DB     		blt	.L293
 5929              	.L274:
 5930 009c 03EB6203 		add	r3, r3, r2, asr #1
 5931 00a0 9BB2     		uxth	r3, r3
 348:Middlewares/lvgl/src/draw/lv_draw_rect.c ****         a.x2 = a.x1 + size.x - 1;
 5932              		.loc 1 348 65 view .LVU2227
 5933 00a2 BDF91420 		ldrsh	r2, [sp, #20]
 348:Middlewares/lvgl/src/draw/lv_draw_rect.c ****         a.x2 = a.x1 + size.x - 1;
 5934              		.loc 1 348 59 view .LVU2228
 5935 00a6 1146     		mov	r1, r2
 5936 00a8 002A     		cmp	r2, #0
 5937 00aa 3BDB     		blt	.L294
 5938              	.L275:
 5939 00ac A3EB6103 		sub	r3, r3, r1, asr #1
 348:Middlewares/lvgl/src/draw/lv_draw_rect.c ****         a.x2 = a.x1 + size.x - 1;
 5940              		.loc 1 348 14 view .LVU2229
 5941 00b0 ADF81830 		strh	r3, [sp, #24]	@ movhi
 349:Middlewares/lvgl/src/draw/lv_draw_rect.c ****         a.y1 = coords->y1 + lv_area_get_height(coords) / 2 - size.y / 2;
 5942              		.loc 1 349 9 is_stmt 1 view .LVU2230
 349:Middlewares/lvgl/src/draw/lv_draw_rect.c ****         a.y1 = coords->y1 + lv_area_get_height(coords) / 2 - size.y / 2;
 5943              		.loc 1 349 27 is_stmt 0 view .LVU2231
 5944 00b4 92B2     		uxth	r2, r2
 349:Middlewares/lvgl/src/draw/lv_draw_rect.c ****         a.y1 = coords->y1 + lv_area_get_height(coords) / 2 - size.y / 2;
 5945              		.loc 1 349 21 view .LVU2232
 5946 00b6 12FA83F3 		uxtah	r3, r2, r3
ARM GAS  /tmp/ccUpPomB.s 			page 167


 5947 00ba 9BB2     		uxth	r3, r3
 349:Middlewares/lvgl/src/draw/lv_draw_rect.c ****         a.y1 = coords->y1 + lv_area_get_height(coords) / 2 - size.y / 2;
 5948              		.loc 1 349 30 view .LVU2233
 5949 00bc 013B     		subs	r3, r3, #1
 349:Middlewares/lvgl/src/draw/lv_draw_rect.c ****         a.y1 = coords->y1 + lv_area_get_height(coords) / 2 - size.y / 2;
 5950              		.loc 1 349 14 view .LVU2234
 5951 00be ADF81C30 		strh	r3, [sp, #28]	@ movhi
 350:Middlewares/lvgl/src/draw/lv_draw_rect.c ****         a.y2 = a.y1 + size.y - 1;
 5952              		.loc 1 350 9 is_stmt 1 view .LVU2235
 350:Middlewares/lvgl/src/draw/lv_draw_rect.c ****         a.y2 = a.y1 + size.y - 1;
 5953              		.loc 1 350 22 is_stmt 0 view .LVU2236
 5954 00c2 6B88     		ldrh	r3, [r5, #2]
 5955              	.LVL542:
 5956              	.LBB346:
 5957              	.LBI346:
 143:Middlewares/lvgl/src/draw/../misc/lv_area.h **** {
 5958              		.loc 2 143 26 is_stmt 1 view .LVU2237
 5959              	.LBB347:
 5960              		.loc 2 145 5 view .LVU2238
 5961              		.loc 2 145 31 is_stmt 0 view .LVU2239
 5962 00c4 EA88     		ldrh	r2, [r5, #6]
 5963              		.loc 2 145 36 view .LVU2240
 5964 00c6 D21A     		subs	r2, r2, r3
 5965 00c8 92B2     		uxth	r2, r2
 5966              		.loc 2 145 49 view .LVU2241
 5967 00ca 0132     		adds	r2, r2, #1
 5968              		.loc 2 145 12 view .LVU2242
 5969 00cc 12B2     		sxth	r2, r2
 5970              	.LVL543:
 5971              		.loc 2 145 12 view .LVU2243
 5972              	.LBE347:
 5973              	.LBE346:
 350:Middlewares/lvgl/src/draw/lv_draw_rect.c ****         a.y2 = a.y1 + size.y - 1;
 5974              		.loc 1 350 27 view .LVU2244
 5975 00ce 002A     		cmp	r2, #0
 5976 00d0 2ADB     		blt	.L295
 5977              	.L276:
 5978 00d2 03EB6203 		add	r3, r3, r2, asr #1
 5979 00d6 9BB2     		uxth	r3, r3
 350:Middlewares/lvgl/src/draw/lv_draw_rect.c ****         a.y2 = a.y1 + size.y - 1;
 5980              		.loc 1 350 66 view .LVU2245
 5981 00d8 BDF91620 		ldrsh	r2, [sp, #22]
 350:Middlewares/lvgl/src/draw/lv_draw_rect.c ****         a.y2 = a.y1 + size.y - 1;
 5982              		.loc 1 350 60 view .LVU2246
 5983 00dc 1146     		mov	r1, r2
 5984 00de 002A     		cmp	r2, #0
 5985 00e0 24DB     		blt	.L296
 5986              	.L277:
 5987 00e2 A3EB6103 		sub	r3, r3, r1, asr #1
 350:Middlewares/lvgl/src/draw/lv_draw_rect.c ****         a.y2 = a.y1 + size.y - 1;
 5988              		.loc 1 350 14 view .LVU2247
 5989 00e6 ADF81A30 		strh	r3, [sp, #26]	@ movhi
 351:Middlewares/lvgl/src/draw/lv_draw_rect.c **** 
 5990              		.loc 1 351 9 is_stmt 1 view .LVU2248
 351:Middlewares/lvgl/src/draw/lv_draw_rect.c **** 
 5991              		.loc 1 351 27 is_stmt 0 view .LVU2249
 5992 00ea 92B2     		uxth	r2, r2
ARM GAS  /tmp/ccUpPomB.s 			page 168


 351:Middlewares/lvgl/src/draw/lv_draw_rect.c **** 
 5993              		.loc 1 351 21 view .LVU2250
 5994 00ec 12FA83F3 		uxtah	r3, r2, r3
 5995 00f0 9BB2     		uxth	r3, r3
 351:Middlewares/lvgl/src/draw/lv_draw_rect.c **** 
 5996              		.loc 1 351 30 view .LVU2251
 5997 00f2 013B     		subs	r3, r3, #1
 351:Middlewares/lvgl/src/draw/lv_draw_rect.c **** 
 5998              		.loc 1 351 14 view .LVU2252
 5999 00f4 ADF81E30 		strh	r3, [sp, #30]	@ movhi
 353:Middlewares/lvgl/src/draw/lv_draw_rect.c ****         lv_draw_label_dsc_init(&label_draw_dsc);
 6000              		.loc 1 353 9 is_stmt 1 view .LVU2253
 354:Middlewares/lvgl/src/draw/lv_draw_rect.c ****         label_draw_dsc.font = dsc->bg_img_symbol_font;
 6001              		.loc 1 354 9 view .LVU2254
 6002 00f8 08A8     		add	r0, sp, #32
 6003 00fa FFF7FEFF 		bl	lv_draw_label_dsc_init
 6004              	.LVL544:
 355:Middlewares/lvgl/src/draw/lv_draw_rect.c ****         label_draw_dsc.color = dsc->bg_img_recolor;
 6005              		.loc 1 355 9 view .LVU2255
 355:Middlewares/lvgl/src/draw/lv_draw_rect.c ****         label_draw_dsc.color = dsc->bg_img_recolor;
 6006              		.loc 1 355 34 is_stmt 0 view .LVU2256
 6007 00fe 2369     		ldr	r3, [r4, #16]
 355:Middlewares/lvgl/src/draw/lv_draw_rect.c ****         label_draw_dsc.color = dsc->bg_img_recolor;
 6008              		.loc 1 355 29 view .LVU2257
 6009 0100 0893     		str	r3, [sp, #32]
 356:Middlewares/lvgl/src/draw/lv_draw_rect.c ****         label_draw_dsc.opa = dsc->bg_img_opa;
 6010              		.loc 1 356 9 is_stmt 1 view .LVU2258
 356:Middlewares/lvgl/src/draw/lv_draw_rect.c ****         label_draw_dsc.opa = dsc->bg_img_opa;
 6011              		.loc 1 356 30 is_stmt 0 view .LVU2259
 6012 0102 A38A     		ldrh	r3, [r4, #20]
 6013 0104 ADF82C30 		strh	r3, [sp, #44]	@ movhi
 357:Middlewares/lvgl/src/draw/lv_draw_rect.c ****         lv_draw_label(&a, clip, &label_draw_dsc, dsc->bg_img_src, NULL);
 6014              		.loc 1 357 9 is_stmt 1 view .LVU2260
 357:Middlewares/lvgl/src/draw/lv_draw_rect.c ****         lv_draw_label(&a, clip, &label_draw_dsc, dsc->bg_img_src, NULL);
 6015              		.loc 1 357 33 is_stmt 0 view .LVU2261
 6016 0108 A37D     		ldrb	r3, [r4, #22]	@ zero_extendqisi2
 357:Middlewares/lvgl/src/draw/lv_draw_rect.c ****         lv_draw_label(&a, clip, &label_draw_dsc, dsc->bg_img_src, NULL);
 6017              		.loc 1 357 28 view .LVU2262
 6018 010a 8DF83A30 		strb	r3, [sp, #58]
 358:Middlewares/lvgl/src/draw/lv_draw_rect.c ****     }
 6019              		.loc 1 358 9 is_stmt 1 view .LVU2263
 6020 010e 0023     		movs	r3, #0
 6021 0110 0093     		str	r3, [sp]
 6022 0112 E368     		ldr	r3, [r4, #12]
 6023 0114 08AA     		add	r2, sp, #32
 6024 0116 3146     		mov	r1, r6
 6025 0118 06A8     		add	r0, sp, #24
 6026 011a FFF7FEFF 		bl	lv_draw_label
 6027              	.LVL545:
 6028              	.LBE343:
 6029 011e 79E7     		b	.L271
 6030              	.L293:
 6031              	.LBB348:
 348:Middlewares/lvgl/src/draw/lv_draw_rect.c ****         a.x2 = a.x1 + size.x - 1;
 6032              		.loc 1 348 27 is_stmt 0 view .LVU2264
 6033 0120 0132     		adds	r2, r2, #1
 6034 0122 BBE7     		b	.L274
ARM GAS  /tmp/ccUpPomB.s 			page 169


 6035              	.L294:
 348:Middlewares/lvgl/src/draw/lv_draw_rect.c ****         a.x2 = a.x1 + size.x - 1;
 6036              		.loc 1 348 59 view .LVU2265
 6037 0124 511C     		adds	r1, r2, #1
 6038 0126 C1E7     		b	.L275
 6039              	.L295:
 350:Middlewares/lvgl/src/draw/lv_draw_rect.c ****         a.y2 = a.y1 + size.y - 1;
 6040              		.loc 1 350 27 view .LVU2266
 6041 0128 0132     		adds	r2, r2, #1
 6042 012a D2E7     		b	.L276
 6043              	.L296:
 350:Middlewares/lvgl/src/draw/lv_draw_rect.c ****         a.y2 = a.y1 + size.y - 1;
 6044              		.loc 1 350 60 view .LVU2267
 6045 012c 511C     		adds	r1, r2, #1
 6046 012e D8E7     		b	.L277
 6047              	.L292:
 350:Middlewares/lvgl/src/draw/lv_draw_rect.c ****         a.y2 = a.y1 + size.y - 1;
 6048              		.loc 1 350 60 view .LVU2268
 6049              	.LBE348:
 6050              	.LBB349:
 6051              	.LBB336:
 377:Middlewares/lvgl/src/draw/lv_draw_rect.c ****             area.x1 = coords->x1 + lv_area_get_width(coords) / 2 - header.w / 2;
 6052              		.loc 1 377 13 is_stmt 1 view .LVU2269
 378:Middlewares/lvgl/src/draw/lv_draw_rect.c ****             area.y1 = coords->y1 + lv_area_get_height(coords) / 2 - header.h / 2;
 6053              		.loc 1 378 13 view .LVU2270
 378:Middlewares/lvgl/src/draw/lv_draw_rect.c ****             area.y1 = coords->y1 + lv_area_get_height(coords) / 2 - header.h / 2;
 6054              		.loc 1 378 29 is_stmt 0 view .LVU2271
 6055 0130 2A88     		ldrh	r2, [r5]
 6056              	.LVL546:
 6057              	.LBB337:
 6058              	.LBI337:
 133:Middlewares/lvgl/src/draw/../misc/lv_area.h **** {
 6059              		.loc 2 133 26 is_stmt 1 view .LVU2272
 6060              	.LBB338:
 135:Middlewares/lvgl/src/draw/../misc/lv_area.h **** }
 6061              		.loc 2 135 5 view .LVU2273
 135:Middlewares/lvgl/src/draw/../misc/lv_area.h **** }
 6062              		.loc 2 135 31 is_stmt 0 view .LVU2274
 6063 0132 AB88     		ldrh	r3, [r5, #4]
 135:Middlewares/lvgl/src/draw/../misc/lv_area.h **** }
 6064              		.loc 2 135 36 view .LVU2275
 6065 0134 9B1A     		subs	r3, r3, r2
 6066 0136 9BB2     		uxth	r3, r3
 135:Middlewares/lvgl/src/draw/../misc/lv_area.h **** }
 6067              		.loc 2 135 49 view .LVU2276
 6068 0138 0133     		adds	r3, r3, #1
 135:Middlewares/lvgl/src/draw/../misc/lv_area.h **** }
 6069              		.loc 2 135 12 view .LVU2277
 6070 013a 1BB2     		sxth	r3, r3
 6071              	.LVL547:
 135:Middlewares/lvgl/src/draw/../misc/lv_area.h **** }
 6072              		.loc 2 135 12 view .LVU2278
 6073              	.LBE338:
 6074              	.LBE337:
 378:Middlewares/lvgl/src/draw/lv_draw_rect.c ****             area.y1 = coords->y1 + lv_area_get_height(coords) / 2 - header.h / 2;
 6075              		.loc 1 378 34 view .LVU2279
 6076 013c 002B     		cmp	r3, #0
ARM GAS  /tmp/ccUpPomB.s 			page 170


 6077 013e 33DB     		blt	.L297
 6078              	.L280:
 6079 0140 02EB6303 		add	r3, r2, r3, asr #1
 378:Middlewares/lvgl/src/draw/lv_draw_rect.c ****             area.y1 = coords->y1 + lv_area_get_height(coords) / 2 - header.h / 2;
 6080              		.loc 1 378 74 view .LVU2280
 6081 0144 059A     		ldr	r2, [sp, #20]
 6082 0146 C2F38A20 		ubfx	r0, r2, #10, #11
 378:Middlewares/lvgl/src/draw/lv_draw_rect.c ****             area.y1 = coords->y1 + lv_area_get_height(coords) / 2 - header.h / 2;
 6083              		.loc 1 378 77 view .LVU2281
 6084 014a C2F3C922 		ubfx	r2, r2, #11, #10
 6085 014e 5242     		rsbs	r2, r2, #0
 378:Middlewares/lvgl/src/draw/lv_draw_rect.c ****             area.y1 = coords->y1 + lv_area_get_height(coords) / 2 - header.h / 2;
 6086              		.loc 1 378 66 view .LVU2282
 6087 0150 12FA83F3 		uxtah	r3, r2, r3
 6088 0154 99B2     		uxth	r1, r3
 378:Middlewares/lvgl/src/draw/lv_draw_rect.c ****             area.y1 = coords->y1 + lv_area_get_height(coords) / 2 - header.h / 2;
 6089              		.loc 1 378 21 view .LVU2283
 6090 0156 ADF81830 		strh	r3, [sp, #24]	@ movhi
 379:Middlewares/lvgl/src/draw/lv_draw_rect.c ****             area.x2 = area.x1 + header.w - 1;
 6091              		.loc 1 379 13 is_stmt 1 view .LVU2284
 379:Middlewares/lvgl/src/draw/lv_draw_rect.c ****             area.x2 = area.x1 + header.w - 1;
 6092              		.loc 1 379 29 is_stmt 0 view .LVU2285
 6093 015a 6B88     		ldrh	r3, [r5, #2]
 6094              	.LVL548:
 6095              	.LBB339:
 6096              	.LBI339:
 143:Middlewares/lvgl/src/draw/../misc/lv_area.h **** {
 6097              		.loc 2 143 26 is_stmt 1 view .LVU2286
 6098              	.LBB340:
 6099              		.loc 2 145 5 view .LVU2287
 6100              		.loc 2 145 31 is_stmt 0 view .LVU2288
 6101 015c EA88     		ldrh	r2, [r5, #6]
 6102              		.loc 2 145 36 view .LVU2289
 6103 015e D21A     		subs	r2, r2, r3
 6104 0160 92B2     		uxth	r2, r2
 6105              		.loc 2 145 49 view .LVU2290
 6106 0162 0132     		adds	r2, r2, #1
 6107              		.loc 2 145 12 view .LVU2291
 6108 0164 12B2     		sxth	r2, r2
 6109              	.LVL549:
 6110              		.loc 2 145 12 view .LVU2292
 6111              	.LBE340:
 6112              	.LBE339:
 379:Middlewares/lvgl/src/draw/lv_draw_rect.c ****             area.x2 = area.x1 + header.w - 1;
 6113              		.loc 1 379 34 view .LVU2293
 6114 0166 002A     		cmp	r2, #0
 6115 0168 20DB     		blt	.L298
 6116              	.L282:
 6117 016a 03EB6203 		add	r3, r3, r2, asr #1
 379:Middlewares/lvgl/src/draw/lv_draw_rect.c ****             area.x2 = area.x1 + header.w - 1;
 6118              		.loc 1 379 75 view .LVU2294
 6119 016e BDF81620 		ldrh	r2, [sp, #22]
 6120 0172 C2F34A15 		ubfx	r5, r2, #5, #11
 6121              	.LVL550:
 379:Middlewares/lvgl/src/draw/lv_draw_rect.c ****             area.x2 = area.x1 + header.w - 1;
 6122              		.loc 1 379 78 view .LVU2295
 6123 0176 C2F38912 		ubfx	r2, r2, #6, #10
ARM GAS  /tmp/ccUpPomB.s 			page 171


 6124 017a 5242     		rsbs	r2, r2, #0
 379:Middlewares/lvgl/src/draw/lv_draw_rect.c ****             area.x2 = area.x1 + header.w - 1;
 6125              		.loc 1 379 67 view .LVU2296
 6126 017c 12FA83F3 		uxtah	r3, r2, r3
 379:Middlewares/lvgl/src/draw/lv_draw_rect.c ****             area.x2 = area.x1 + header.w - 1;
 6127              		.loc 1 379 21 view .LVU2297
 6128 0180 ADF81A30 		strh	r3, [sp, #26]	@ movhi
 380:Middlewares/lvgl/src/draw/lv_draw_rect.c ****             area.y2 = area.y1 + header.h - 1;
 6129              		.loc 1 380 13 is_stmt 1 view .LVU2298
 380:Middlewares/lvgl/src/draw/lv_draw_rect.c ****             area.y2 = area.y1 + header.h - 1;
 6130              		.loc 1 380 31 is_stmt 0 view .LVU2299
 6131 0184 0A18     		adds	r2, r1, r0
 6132 0186 92B2     		uxth	r2, r2
 380:Middlewares/lvgl/src/draw/lv_draw_rect.c ****             area.y2 = area.y1 + header.h - 1;
 6133              		.loc 1 380 42 view .LVU2300
 6134 0188 013A     		subs	r2, r2, #1
 380:Middlewares/lvgl/src/draw/lv_draw_rect.c ****             area.y2 = area.y1 + header.h - 1;
 6135              		.loc 1 380 21 view .LVU2301
 6136 018a ADF81C20 		strh	r2, [sp, #28]	@ movhi
 381:Middlewares/lvgl/src/draw/lv_draw_rect.c **** 
 6137              		.loc 1 381 13 is_stmt 1 view .LVU2302
 381:Middlewares/lvgl/src/draw/lv_draw_rect.c **** 
 6138              		.loc 1 381 31 is_stmt 0 view .LVU2303
 6139 018e 15FA83F3 		uxtah	r3, r5, r3
 6140 0192 9BB2     		uxth	r3, r3
 381:Middlewares/lvgl/src/draw/lv_draw_rect.c **** 
 6141              		.loc 1 381 42 view .LVU2304
 6142 0194 013B     		subs	r3, r3, #1
 381:Middlewares/lvgl/src/draw/lv_draw_rect.c **** 
 6143              		.loc 1 381 21 view .LVU2305
 6144 0196 ADF81E30 		strh	r3, [sp, #30]	@ movhi
 383:Middlewares/lvgl/src/draw/lv_draw_rect.c ****         } else {
 6145              		.loc 1 383 13 is_stmt 1 view .LVU2306
 6146 019a 08AB     		add	r3, sp, #32
 6147 019c E268     		ldr	r2, [r4, #12]
 6148 019e 3146     		mov	r1, r6
 6149 01a0 06A8     		add	r0, sp, #24
 6150 01a2 FFF7FEFF 		bl	lv_draw_img
 6151              	.LVL551:
 6152              	.LBE336:
 6153 01a6 35E7     		b	.L271
 6154              	.LVL552:
 6155              	.L297:
 6156              	.LBB341:
 378:Middlewares/lvgl/src/draw/lv_draw_rect.c ****             area.y1 = coords->y1 + lv_area_get_height(coords) / 2 - header.h / 2;
 6157              		.loc 1 378 34 is_stmt 0 view .LVU2307
 6158 01a8 0133     		adds	r3, r3, #1
 6159 01aa C9E7     		b	.L280
 6160              	.L298:
 379:Middlewares/lvgl/src/draw/lv_draw_rect.c ****             area.x2 = area.x1 + header.w - 1;
 6161              		.loc 1 379 34 view .LVU2308
 6162 01ac 0132     		adds	r2, r2, #1
 6163 01ae DCE7     		b	.L282
 6164              	.L287:
 379:Middlewares/lvgl/src/draw/lv_draw_rect.c ****             area.x2 = area.x1 + header.w - 1;
 6165              		.loc 1 379 34 view .LVU2309
 6166              	.LBE341:
ARM GAS  /tmp/ccUpPomB.s 			page 172


 6167              	.LBB342:
 394:Middlewares/lvgl/src/draw/lv_draw_rect.c ****                 }
 6168              		.loc 1 394 21 is_stmt 1 discriminator 2 view .LVU2310
 6169 01b0 08AB     		add	r3, sp, #32
 6170 01b2 E268     		ldr	r2, [r4, #12]
 6171 01b4 3146     		mov	r1, r6
 6172 01b6 06A8     		add	r0, sp, #24
 6173 01b8 FFF7FEFF 		bl	lv_draw_img
 6174              	.LVL553:
 393:Middlewares/lvgl/src/draw/lv_draw_rect.c ****                     lv_draw_img(&area, clip, dsc->bg_img_src, &img_dsc);
 6175              		.loc 1 393 46 discriminator 2 view .LVU2311
 393:Middlewares/lvgl/src/draw/lv_draw_rect.c ****                     lv_draw_img(&area, clip, dsc->bg_img_src, &img_dsc);
 6176              		.loc 1 393 63 is_stmt 0 discriminator 2 view .LVU2312
 6177 01bc 059B     		ldr	r3, [sp, #20]
 6178 01be C3F38A23 		ubfx	r3, r3, #10, #11
 393:Middlewares/lvgl/src/draw/lv_draw_rect.c ****                     lv_draw_img(&area, clip, dsc->bg_img_src, &img_dsc);
 6179              		.loc 1 393 54 discriminator 2 view .LVU2313
 6180 01c2 BDF818C0 		ldrh	ip, [sp, #24]
 6181 01c6 9C44     		add	ip, ip, r3
 6182 01c8 ADF818C0 		strh	ip, [sp, #24]	@ movhi
 393:Middlewares/lvgl/src/draw/lv_draw_rect.c ****                     lv_draw_img(&area, clip, dsc->bg_img_src, &img_dsc);
 6183              		.loc 1 393 75 discriminator 2 view .LVU2314
 6184 01cc BDF81C20 		ldrh	r2, [sp, #28]
 6185 01d0 1344     		add	r3, r3, r2
 6186 01d2 ADF81C30 		strh	r3, [sp, #28]	@ movhi
 6187              	.L286:
 393:Middlewares/lvgl/src/draw/lv_draw_rect.c ****                     lv_draw_img(&area, clip, dsc->bg_img_src, &img_dsc);
 6188              		.loc 1 393 23 is_stmt 1 discriminator 1 view .LVU2315
 393:Middlewares/lvgl/src/draw/lv_draw_rect.c ****                     lv_draw_img(&area, clip, dsc->bg_img_src, &img_dsc);
 6189              		.loc 1 393 27 is_stmt 0 discriminator 1 view .LVU2316
 6190 01d6 BDF91820 		ldrsh	r2, [sp, #24]
 393:Middlewares/lvgl/src/draw/lv_draw_rect.c ****                     lv_draw_img(&area, clip, dsc->bg_img_src, &img_dsc);
 6191              		.loc 1 393 40 discriminator 1 view .LVU2317
 6192 01da B5F90430 		ldrsh	r3, [r5, #4]
 393:Middlewares/lvgl/src/draw/lv_draw_rect.c ****                     lv_draw_img(&area, clip, dsc->bg_img_src, &img_dsc);
 6193              		.loc 1 393 17 discriminator 1 view .LVU2318
 6194 01de 9A42     		cmp	r2, r3
 6195 01e0 E6DD     		ble	.L287
 389:Middlewares/lvgl/src/draw/lv_draw_rect.c **** 
 6196              		.loc 1 389 42 is_stmt 1 view .LVU2319
 389:Middlewares/lvgl/src/draw/lv_draw_rect.c **** 
 6197              		.loc 1 389 59 is_stmt 0 view .LVU2320
 6198 01e2 BDF81630 		ldrh	r3, [sp, #22]
 6199 01e6 C3F34A13 		ubfx	r3, r3, #5, #11
 389:Middlewares/lvgl/src/draw/lv_draw_rect.c **** 
 6200              		.loc 1 389 50 view .LVU2321
 6201 01ea BDF81A20 		ldrh	r2, [sp, #26]
 6202 01ee 1A44     		add	r2, r2, r3
 6203 01f0 ADF81A20 		strh	r2, [sp, #26]	@ movhi
 389:Middlewares/lvgl/src/draw/lv_draw_rect.c **** 
 6204              		.loc 1 389 71 view .LVU2322
 6205 01f4 BDF81E20 		ldrh	r2, [sp, #30]
 6206 01f8 1344     		add	r3, r3, r2
 6207 01fa ADF81E30 		strh	r3, [sp, #30]	@ movhi
 6208              	.L285:
 389:Middlewares/lvgl/src/draw/lv_draw_rect.c **** 
 6209              		.loc 1 389 19 is_stmt 1 discriminator 1 view .LVU2323
ARM GAS  /tmp/ccUpPomB.s 			page 173


 389:Middlewares/lvgl/src/draw/lv_draw_rect.c **** 
 6210              		.loc 1 389 23 is_stmt 0 discriminator 1 view .LVU2324
 6211 01fe BDF91A20 		ldrsh	r2, [sp, #26]
 389:Middlewares/lvgl/src/draw/lv_draw_rect.c **** 
 6212              		.loc 1 389 36 discriminator 1 view .LVU2325
 6213 0202 B5F90630 		ldrsh	r3, [r5, #6]
 389:Middlewares/lvgl/src/draw/lv_draw_rect.c **** 
 6214              		.loc 1 389 13 discriminator 1 view .LVU2326
 6215 0206 9A42     		cmp	r2, r3
 6216 0208 3FF704AF 		bgt	.L271
 391:Middlewares/lvgl/src/draw/lv_draw_rect.c ****                 area.x2 = area.x1 + header.w - 1;
 6217              		.loc 1 391 17 is_stmt 1 view .LVU2327
 391:Middlewares/lvgl/src/draw/lv_draw_rect.c ****                 area.x2 = area.x1 + header.w - 1;
 6218              		.loc 1 391 33 is_stmt 0 view .LVU2328
 6219 020c B5F90030 		ldrsh	r3, [r5]
 391:Middlewares/lvgl/src/draw/lv_draw_rect.c ****                 area.x2 = area.x1 + header.w - 1;
 6220              		.loc 1 391 25 view .LVU2329
 6221 0210 ADF81830 		strh	r3, [sp, #24]	@ movhi
 392:Middlewares/lvgl/src/draw/lv_draw_rect.c ****                 for(; area.x1 <= coords->x2; area.x1 += header.w, area.x2 += header.w) {
 6222              		.loc 1 392 17 is_stmt 1 view .LVU2330
 392:Middlewares/lvgl/src/draw/lv_draw_rect.c ****                 for(; area.x1 <= coords->x2; area.x1 += header.w, area.x2 += header.w) {
 6223              		.loc 1 392 43 is_stmt 0 view .LVU2331
 6224 0214 059A     		ldr	r2, [sp, #20]
 6225 0216 C2F38A22 		ubfx	r2, r2, #10, #11
 392:Middlewares/lvgl/src/draw/lv_draw_rect.c ****                 for(; area.x1 <= coords->x2; area.x1 += header.w, area.x2 += header.w) {
 6226              		.loc 1 392 35 view .LVU2332
 6227 021a 12FA83F3 		uxtah	r3, r2, r3
 6228 021e 9BB2     		uxth	r3, r3
 392:Middlewares/lvgl/src/draw/lv_draw_rect.c ****                 for(; area.x1 <= coords->x2; area.x1 += header.w, area.x2 += header.w) {
 6229              		.loc 1 392 46 view .LVU2333
 6230 0220 013B     		subs	r3, r3, #1
 392:Middlewares/lvgl/src/draw/lv_draw_rect.c ****                 for(; area.x1 <= coords->x2; area.x1 += header.w, area.x2 += header.w) {
 6231              		.loc 1 392 25 view .LVU2334
 6232 0222 ADF81C30 		strh	r3, [sp, #28]	@ movhi
 393:Middlewares/lvgl/src/draw/lv_draw_rect.c ****                     lv_draw_img(&area, clip, dsc->bg_img_src, &img_dsc);
 6233              		.loc 1 393 17 is_stmt 1 view .LVU2335
 6234 0226 D6E7     		b	.L286
 6235              	.LBE342:
 6236              	.LBE349:
 6237              		.cfi_endproc
 6238              	.LFE150:
 6240              		.section	.text.draw_bg,"ax",%progbits
 6241              		.align	1
 6242              		.syntax unified
 6243              		.thumb
 6244              		.thumb_func
 6246              	draw_bg:
 6247              	.LVL554:
 6248              	.LFB149:
 121:Middlewares/lvgl/src/draw/lv_draw_rect.c ****     if(dsc->bg_opa <= LV_OPA_MIN) return;
 6249              		.loc 1 121 1 view -0
 6250              		.cfi_startproc
 6251              		@ args = 0, pretend = 0, frame = 112
 6252              		@ frame_needed = 0, uses_anonymous_args = 0
 121:Middlewares/lvgl/src/draw/lv_draw_rect.c ****     if(dsc->bg_opa <= LV_OPA_MIN) return;
 6253              		.loc 1 121 1 is_stmt 0 view .LVU2337
 6254 0000 2DE9F04F 		push	{r4, r5, r6, r7, r8, r9, r10, fp, lr}
ARM GAS  /tmp/ccUpPomB.s 			page 174


 6255              	.LCFI25:
 6256              		.cfi_def_cfa_offset 36
 6257              		.cfi_offset 4, -36
 6258              		.cfi_offset 5, -32
 6259              		.cfi_offset 6, -28
 6260              		.cfi_offset 7, -24
 6261              		.cfi_offset 8, -20
 6262              		.cfi_offset 9, -16
 6263              		.cfi_offset 10, -12
 6264              		.cfi_offset 11, -8
 6265              		.cfi_offset 14, -4
 6266 0004 A1B0     		sub	sp, sp, #132
 6267              	.LCFI26:
 6268              		.cfi_def_cfa_offset 168
 6269 0006 0791     		str	r1, [sp, #28]
 122:Middlewares/lvgl/src/draw/lv_draw_rect.c **** 
 6270              		.loc 1 122 5 is_stmt 1 view .LVU2338
 122:Middlewares/lvgl/src/draw/lv_draw_rect.c **** 
 6271              		.loc 1 122 11 is_stmt 0 view .LVU2339
 6272 0008 937A     		ldrb	r3, [r2, #10]	@ zero_extendqisi2
 6273 000a 0493     		str	r3, [sp, #16]
 122:Middlewares/lvgl/src/draw/lv_draw_rect.c **** 
 6274              		.loc 1 122 7 view .LVU2340
 6275 000c 022B     		cmp	r3, #2
 6276 000e 40F2F282 		bls	.L299
 6277 0012 1546     		mov	r5, r2
 124:Middlewares/lvgl/src/draw/lv_draw_rect.c ****     lv_area_copy(&coords_bg, coords);
 6278              		.loc 1 124 5 is_stmt 1 view .LVU2341
 125:Middlewares/lvgl/src/draw/lv_draw_rect.c **** 
 6279              		.loc 1 125 5 view .LVU2342
 6280              	.LVL555:
 6281              	.LBB374:
 6282              	.LBI374:
 120:Middlewares/lvgl/src/draw/../misc/lv_area.h **** {
 6283              		.loc 2 120 20 view .LVU2343
 6284              	.LBB375:
 122:Middlewares/lvgl/src/draw/../misc/lv_area.h ****     dest->y1 = src->y1;
 6285              		.loc 2 122 5 view .LVU2344
 122:Middlewares/lvgl/src/draw/../misc/lv_area.h ****     dest->y1 = src->y1;
 6286              		.loc 2 122 19 is_stmt 0 view .LVU2345
 6287 0014 B0F90040 		ldrsh	r4, [r0]
 122:Middlewares/lvgl/src/draw/../misc/lv_area.h ****     dest->y1 = src->y1;
 6288              		.loc 2 122 14 view .LVU2346
 6289 0018 ADF87840 		strh	r4, [sp, #120]	@ movhi
 123:Middlewares/lvgl/src/draw/../misc/lv_area.h ****     dest->x2 = src->x2;
 6290              		.loc 2 123 5 is_stmt 1 view .LVU2347
 123:Middlewares/lvgl/src/draw/../misc/lv_area.h ****     dest->x2 = src->x2;
 6291              		.loc 2 123 19 is_stmt 0 view .LVU2348
 6292 001c B0F90210 		ldrsh	r1, [r0, #2]
 6293              	.LVL556:
 123:Middlewares/lvgl/src/draw/../misc/lv_area.h ****     dest->x2 = src->x2;
 6294              		.loc 2 123 14 view .LVU2349
 6295 0020 ADF87A10 		strh	r1, [sp, #122]	@ movhi
 124:Middlewares/lvgl/src/draw/../misc/lv_area.h ****     dest->y2 = src->y2;
 6296              		.loc 2 124 5 is_stmt 1 view .LVU2350
 124:Middlewares/lvgl/src/draw/../misc/lv_area.h ****     dest->y2 = src->y2;
 6297              		.loc 2 124 19 is_stmt 0 view .LVU2351
ARM GAS  /tmp/ccUpPomB.s 			page 175


 6298 0024 B0F90420 		ldrsh	r2, [r0, #4]
 6299              	.LVL557:
 124:Middlewares/lvgl/src/draw/../misc/lv_area.h ****     dest->y2 = src->y2;
 6300              		.loc 2 124 14 view .LVU2352
 6301 0028 ADF87C20 		strh	r2, [sp, #124]	@ movhi
 125:Middlewares/lvgl/src/draw/../misc/lv_area.h **** }
 6302              		.loc 2 125 5 is_stmt 1 view .LVU2353
 125:Middlewares/lvgl/src/draw/../misc/lv_area.h **** }
 6303              		.loc 2 125 19 is_stmt 0 view .LVU2354
 6304 002c B0F90630 		ldrsh	r3, [r0, #6]
 125:Middlewares/lvgl/src/draw/../misc/lv_area.h **** }
 6305              		.loc 2 125 14 view .LVU2355
 6306 0030 ADF87E30 		strh	r3, [sp, #126]	@ movhi
 6307              	.LVL558:
 125:Middlewares/lvgl/src/draw/../misc/lv_area.h **** }
 6308              		.loc 2 125 14 view .LVU2356
 6309              	.LBE375:
 6310              	.LBE374:
 128:Middlewares/lvgl/src/draw/lv_draw_rect.c ****         coords_bg.x1 += (dsc->border_side & LV_BORDER_SIDE_LEFT) ? 1 : 0;
 6311              		.loc 1 128 5 is_stmt 1 view .LVU2357
 128:Middlewares/lvgl/src/draw/lv_draw_rect.c ****         coords_bg.x1 += (dsc->border_side & LV_BORDER_SIDE_LEFT) ? 1 : 0;
 6312              		.loc 1 128 11 is_stmt 0 view .LVU2358
 6313 0034 B5F91C00 		ldrsh	r0, [r5, #28]
 6314              	.LVL559:
 128:Middlewares/lvgl/src/draw/lv_draw_rect.c ****         coords_bg.x1 += (dsc->border_side & LV_BORDER_SIDE_LEFT) ? 1 : 0;
 6315              		.loc 1 128 7 view .LVU2359
 6316 0038 0128     		cmp	r0, #1
 6317 003a 1ADD     		ble	.L301
 128:Middlewares/lvgl/src/draw/lv_draw_rect.c ****         coords_bg.x1 += (dsc->border_side & LV_BORDER_SIDE_LEFT) ? 1 : 0;
 6318              		.loc 1 128 36 discriminator 1 view .LVU2360
 6319 003c A87F     		ldrb	r0, [r5, #30]	@ zero_extendqisi2
 128:Middlewares/lvgl/src/draw/lv_draw_rect.c ****         coords_bg.x1 += (dsc->border_side & LV_BORDER_SIDE_LEFT) ? 1 : 0;
 6320              		.loc 1 128 30 discriminator 1 view .LVU2361
 6321 003e FC28     		cmp	r0, #252
 6322 0040 17D9     		bls	.L301
 128:Middlewares/lvgl/src/draw/lv_draw_rect.c ****         coords_bg.x1 += (dsc->border_side & LV_BORDER_SIDE_LEFT) ? 1 : 0;
 6323              		.loc 1 128 69 discriminator 2 view .LVU2362
 6324 0042 B5F90000 		ldrsh	r0, [r5]
 128:Middlewares/lvgl/src/draw/lv_draw_rect.c ****         coords_bg.x1 += (dsc->border_side & LV_BORDER_SIDE_LEFT) ? 1 : 0;
 6325              		.loc 1 128 63 discriminator 2 view .LVU2363
 6326 0046 A0B1     		cbz	r0, .L301
 129:Middlewares/lvgl/src/draw/lv_draw_rect.c ****         coords_bg.y1 += (dsc->border_side & LV_BORDER_SIDE_TOP) ? 1 : 0;
 6327              		.loc 1 129 9 is_stmt 1 view .LVU2364
 129:Middlewares/lvgl/src/draw/lv_draw_rect.c ****         coords_bg.y1 += (dsc->border_side & LV_BORDER_SIDE_TOP) ? 1 : 0;
 6328              		.loc 1 129 29 is_stmt 0 view .LVU2365
 6329 0048 E87F     		ldrb	r0, [r5, #31]	@ zero_extendqisi2
 129:Middlewares/lvgl/src/draw/lv_draw_rect.c ****         coords_bg.y1 += (dsc->border_side & LV_BORDER_SIDE_TOP) ? 1 : 0;
 6330              		.loc 1 129 70 view .LVU2366
 6331 004a C0F3C007 		ubfx	r7, r0, #3, #1
 129:Middlewares/lvgl/src/draw/lv_draw_rect.c ****         coords_bg.y1 += (dsc->border_side & LV_BORDER_SIDE_TOP) ? 1 : 0;
 6332              		.loc 1 129 22 view .LVU2367
 6333 004e 3C44     		add	r4, r4, r7
 6334 0050 ADF87840 		strh	r4, [sp, #120]	@ movhi
 130:Middlewares/lvgl/src/draw/lv_draw_rect.c ****         coords_bg.x2 -= (dsc->border_side & LV_BORDER_SIDE_RIGHT) ? 1 : 0;
 6335              		.loc 1 130 9 is_stmt 1 view .LVU2368
 130:Middlewares/lvgl/src/draw/lv_draw_rect.c ****         coords_bg.x2 -= (dsc->border_side & LV_BORDER_SIDE_RIGHT) ? 1 : 0;
 6336              		.loc 1 130 69 is_stmt 0 view .LVU2369
ARM GAS  /tmp/ccUpPomB.s 			page 176


 6337 0054 C0F38004 		ubfx	r4, r0, #2, #1
 130:Middlewares/lvgl/src/draw/lv_draw_rect.c ****         coords_bg.x2 -= (dsc->border_side & LV_BORDER_SIDE_RIGHT) ? 1 : 0;
 6338              		.loc 1 130 22 view .LVU2370
 6339 0058 2144     		add	r1, r1, r4
 6340 005a ADF87A10 		strh	r1, [sp, #122]	@ movhi
 131:Middlewares/lvgl/src/draw/lv_draw_rect.c ****         coords_bg.y2 -= (dsc->border_side & LV_BORDER_SIDE_BOTTOM) ? 1 : 0;
 6341              		.loc 1 131 9 is_stmt 1 view .LVU2371
 131:Middlewares/lvgl/src/draw/lv_draw_rect.c ****         coords_bg.y2 -= (dsc->border_side & LV_BORDER_SIDE_BOTTOM) ? 1 : 0;
 6342              		.loc 1 131 71 is_stmt 0 view .LVU2372
 6343 005e C0F30011 		ubfx	r1, r0, #4, #1
 131:Middlewares/lvgl/src/draw/lv_draw_rect.c ****         coords_bg.y2 -= (dsc->border_side & LV_BORDER_SIDE_BOTTOM) ? 1 : 0;
 6344              		.loc 1 131 22 view .LVU2373
 6345 0062 521A     		subs	r2, r2, r1
 6346 0064 ADF87C20 		strh	r2, [sp, #124]	@ movhi
 132:Middlewares/lvgl/src/draw/lv_draw_rect.c ****     }
 6347              		.loc 1 132 9 is_stmt 1 view .LVU2374
 132:Middlewares/lvgl/src/draw/lv_draw_rect.c ****     }
 6348              		.loc 1 132 72 is_stmt 0 view .LVU2375
 6349 0068 C0F34000 		ubfx	r0, r0, #1, #1
 132:Middlewares/lvgl/src/draw/lv_draw_rect.c ****     }
 6350              		.loc 1 132 22 view .LVU2376
 6351 006c 1B1A     		subs	r3, r3, r0
 6352 006e ADF87E30 		strh	r3, [sp, #126]	@ movhi
 6353              	.L301:
 135:Middlewares/lvgl/src/draw/lv_draw_rect.c **** 
 6354              		.loc 1 135 5 is_stmt 1 view .LVU2377
 6355              	.LVL560:
 137:Middlewares/lvgl/src/draw/lv_draw_rect.c **** 
 6356              		.loc 1 137 5 view .LVU2378
 137:Middlewares/lvgl/src/draw/lv_draw_rect.c **** 
 6357              		.loc 1 137 7 is_stmt 0 view .LVU2379
 6358 0072 049B     		ldr	r3, [sp, #16]
 6359 0074 FD2B     		cmp	r3, #253
 6360 0076 01D9     		bls	.L302
 137:Middlewares/lvgl/src/draw/lv_draw_rect.c **** 
 6361              		.loc 1 137 30 view .LVU2380
 6362 0078 FF23     		movs	r3, #255
 6363 007a 0493     		str	r3, [sp, #16]
 6364              	.LVL561:
 6365              	.L302:
 139:Middlewares/lvgl/src/draw/lv_draw_rect.c ****     lv_disp_draw_buf_t * draw_buf = lv_disp_get_draw_buf(disp);
 6366              		.loc 1 139 5 is_stmt 1 view .LVU2381
 139:Middlewares/lvgl/src/draw/lv_draw_rect.c ****     lv_disp_draw_buf_t * draw_buf = lv_disp_get_draw_buf(disp);
 6367              		.loc 1 139 24 is_stmt 0 view .LVU2382
 6368 007c FFF7FEFF 		bl	_lv_refr_get_disp_refreshing
 6369              	.LVL562:
 140:Middlewares/lvgl/src/draw/lv_draw_rect.c **** 
 6370              		.loc 1 140 5 is_stmt 1 view .LVU2383
 140:Middlewares/lvgl/src/draw/lv_draw_rect.c **** 
 6371              		.loc 1 140 37 is_stmt 0 view .LVU2384
 6372 0080 FFF7FEFF 		bl	lv_disp_get_draw_buf
 6373              	.LVL563:
 140:Middlewares/lvgl/src/draw/lv_draw_rect.c **** 
 6374              		.loc 1 140 37 view .LVU2385
 6375 0084 8046     		mov	r8, r0
 6376              	.LVL564:
 144:Middlewares/lvgl/src/draw/lv_draw_rect.c ****     bool is_common;
ARM GAS  /tmp/ccUpPomB.s 			page 177


 6377              		.loc 1 144 5 is_stmt 1 view .LVU2386
 145:Middlewares/lvgl/src/draw/lv_draw_rect.c ****     is_common = _lv_area_intersect(&draw_area, &coords_bg, clip);
 6378              		.loc 1 145 5 view .LVU2387
 146:Middlewares/lvgl/src/draw/lv_draw_rect.c ****     if(is_common == false) return;
 6379              		.loc 1 146 5 view .LVU2388
 146:Middlewares/lvgl/src/draw/lv_draw_rect.c ****     if(is_common == false) return;
 6380              		.loc 1 146 17 is_stmt 0 view .LVU2389
 6381 0086 079A     		ldr	r2, [sp, #28]
 6382 0088 1EA9     		add	r1, sp, #120
 6383 008a 1CA8     		add	r0, sp, #112
 6384              	.LVL565:
 146:Middlewares/lvgl/src/draw/lv_draw_rect.c ****     if(is_common == false) return;
 6385              		.loc 1 146 17 view .LVU2390
 6386 008c FFF7FEFF 		bl	_lv_area_intersect
 6387              	.LVL566:
 147:Middlewares/lvgl/src/draw/lv_draw_rect.c **** 
 6388              		.loc 1 147 5 is_stmt 1 view .LVU2391
 147:Middlewares/lvgl/src/draw/lv_draw_rect.c **** 
 6389              		.loc 1 147 7 is_stmt 0 view .LVU2392
 6390 0090 0690     		str	r0, [sp, #24]
 6391 0092 0028     		cmp	r0, #0
 6392 0094 00F0AF82 		beq	.L299
 149:Middlewares/lvgl/src/draw/lv_draw_rect.c **** 
 6393              		.loc 1 149 5 is_stmt 1 view .LVU2393
 6394              	.LVL567:
 153:Middlewares/lvgl/src/draw/lv_draw_rect.c ****     draw_area.y1 -= disp_area->y1;
 6395              		.loc 1 153 5 view .LVU2394
 153:Middlewares/lvgl/src/draw/lv_draw_rect.c ****     draw_area.y1 -= disp_area->y1;
 6396              		.loc 1 153 30 is_stmt 0 view .LVU2395
 6397 0098 B8F81040 		ldrh	r4, [r8, #16]
 153:Middlewares/lvgl/src/draw/lv_draw_rect.c ****     draw_area.y1 -= disp_area->y1;
 6398              		.loc 1 153 18 view .LVU2396
 6399 009c BDF87030 		ldrh	r3, [sp, #112]
 6400 00a0 1B1B     		subs	r3, r3, r4
 6401 00a2 ADF87030 		strh	r3, [sp, #112]	@ movhi
 154:Middlewares/lvgl/src/draw/lv_draw_rect.c ****     draw_area.x2 -= disp_area->x1;
 6402              		.loc 1 154 5 is_stmt 1 view .LVU2397
 154:Middlewares/lvgl/src/draw/lv_draw_rect.c ****     draw_area.x2 -= disp_area->x1;
 6403              		.loc 1 154 30 is_stmt 0 view .LVU2398
 6404 00a6 B8F81200 		ldrh	r0, [r8, #18]
 6405              	.LVL568:
 154:Middlewares/lvgl/src/draw/lv_draw_rect.c ****     draw_area.x2 -= disp_area->x1;
 6406              		.loc 1 154 18 view .LVU2399
 6407 00aa BDF87210 		ldrh	r1, [sp, #114]
 6408 00ae 091A     		subs	r1, r1, r0
 6409 00b0 ADF87210 		strh	r1, [sp, #114]	@ movhi
 155:Middlewares/lvgl/src/draw/lv_draw_rect.c ****     draw_area.y2 -= disp_area->y1;
 6410              		.loc 1 155 5 is_stmt 1 view .LVU2400
 155:Middlewares/lvgl/src/draw/lv_draw_rect.c ****     draw_area.y2 -= disp_area->y1;
 6411              		.loc 1 155 18 is_stmt 0 view .LVU2401
 6412 00b4 BDF87420 		ldrh	r2, [sp, #116]
 6413 00b8 121B     		subs	r2, r2, r4
 6414 00ba ADF87420 		strh	r2, [sp, #116]	@ movhi
 156:Middlewares/lvgl/src/draw/lv_draw_rect.c **** 
 6415              		.loc 1 156 5 is_stmt 1 view .LVU2402
 156:Middlewares/lvgl/src/draw/lv_draw_rect.c **** 
 6416              		.loc 1 156 18 is_stmt 0 view .LVU2403
ARM GAS  /tmp/ccUpPomB.s 			page 178


 6417 00be BDF87630 		ldrh	r3, [sp, #118]
 6418 00c2 1B1A     		subs	r3, r3, r0
 6419 00c4 ADF87630 		strh	r3, [sp, #118]	@ movhi
 159:Middlewares/lvgl/src/draw/lv_draw_rect.c ****     if(dsc->bg_color.full == dsc->bg_grad_color.full) grad_dir = LV_GRAD_DIR_NONE;
 6420              		.loc 1 159 5 is_stmt 1 view .LVU2404
 159:Middlewares/lvgl/src/draw/lv_draw_rect.c ****     if(dsc->bg_color.full == dsc->bg_grad_color.full) grad_dir = LV_GRAD_DIR_NONE;
 6421              		.loc 1 159 33 is_stmt 0 view .LVU2405
 6422 00c8 EB7A     		ldrb	r3, [r5, #11]	@ zero_extendqisi2
 6423 00ca 03F0070B 		and	fp, r3, #7
 6424              	.LVL569:
 160:Middlewares/lvgl/src/draw/lv_draw_rect.c **** 
 6425              		.loc 1 160 5 is_stmt 1 view .LVU2406
 160:Middlewares/lvgl/src/draw/lv_draw_rect.c **** 
 6426              		.loc 1 160 21 is_stmt 0 view .LVU2407
 6427 00ce AA88     		ldrh	r2, [r5, #4]
 160:Middlewares/lvgl/src/draw/lv_draw_rect.c **** 
 6428              		.loc 1 160 48 view .LVU2408
 6429 00d0 EB88     		ldrh	r3, [r5, #6]
 6430              	.LVL570:
 160:Middlewares/lvgl/src/draw/lv_draw_rect.c **** 
 6431              		.loc 1 160 7 view .LVU2409
 6432 00d2 9A42     		cmp	r2, r3
 6433 00d4 0AD0     		beq	.L347
 6434              	.L303:
 6435              	.LVL571:
 162:Middlewares/lvgl/src/draw/lv_draw_rect.c ****     bool simple_mode = true;
 6436              		.loc 1 162 5 is_stmt 1 view .LVU2410
 162:Middlewares/lvgl/src/draw/lv_draw_rect.c ****     bool simple_mode = true;
 6437              		.loc 1 162 31 is_stmt 0 view .LVU2411
 6438 00d6 FFF7FEFF 		bl	lv_draw_mask_get_cnt
 6439              	.LVL572:
 162:Middlewares/lvgl/src/draw/lv_draw_rect.c ****     bool simple_mode = true;
 6440              		.loc 1 162 14 view .LVU2412
 6441 00da 83B2     		uxth	r3, r0
 6442 00dc 0B93     		str	r3, [sp, #44]
 6443              	.LVL573:
 163:Middlewares/lvgl/src/draw/lv_draw_rect.c ****     if(other_mask_cnt) simple_mode = false;
 6444              		.loc 1 163 5 is_stmt 1 view .LVU2413
 164:Middlewares/lvgl/src/draw/lv_draw_rect.c ****     else if(grad_dir == LV_GRAD_DIR_HOR) simple_mode = false;
 6445              		.loc 1 164 5 view .LVU2414
 164:Middlewares/lvgl/src/draw/lv_draw_rect.c ****     else if(grad_dir == LV_GRAD_DIR_HOR) simple_mode = false;
 6446              		.loc 1 164 7 is_stmt 0 view .LVU2415
 6447 00de 43B9     		cbnz	r3, .L339
 165:Middlewares/lvgl/src/draw/lv_draw_rect.c **** 
 6448              		.loc 1 165 10 is_stmt 1 view .LVU2416
 165:Middlewares/lvgl/src/draw/lv_draw_rect.c **** 
 6449              		.loc 1 165 12 is_stmt 0 view .LVU2417
 6450 00e0 BBF1020F 		cmp	fp, #2
 6451 00e4 68D0     		beq	.L340
 163:Middlewares/lvgl/src/draw/lv_draw_rect.c ****     if(other_mask_cnt) simple_mode = false;
 6452              		.loc 1 163 10 view .LVU2418
 6453 00e6 069B     		ldr	r3, [sp, #24]
 6454              	.LVL574:
 163:Middlewares/lvgl/src/draw/lv_draw_rect.c ****     if(other_mask_cnt) simple_mode = false;
 6455              		.loc 1 163 10 view .LVU2419
 6456 00e8 0893     		str	r3, [sp, #32]
 6457 00ea 04E0     		b	.L304
ARM GAS  /tmp/ccUpPomB.s 			page 179


 6458              	.LVL575:
 6459              	.L347:
 160:Middlewares/lvgl/src/draw/lv_draw_rect.c **** 
 6460              		.loc 1 160 64 view .LVU2420
 6461 00ec 4FF0000B 		mov	fp, #0
 6462 00f0 F1E7     		b	.L303
 6463              	.LVL576:
 6464              	.L339:
 164:Middlewares/lvgl/src/draw/lv_draw_rect.c ****     else if(grad_dir == LV_GRAD_DIR_HOR) simple_mode = false;
 6465              		.loc 1 164 36 view .LVU2421
 6466 00f2 0023     		movs	r3, #0
 6467              	.LVL577:
 164:Middlewares/lvgl/src/draw/lv_draw_rect.c ****     else if(grad_dir == LV_GRAD_DIR_HOR) simple_mode = false;
 6468              		.loc 1 164 36 view .LVU2422
 6469 00f4 0893     		str	r3, [sp, #32]
 6470              	.L304:
 6471              	.LVL578:
 168:Middlewares/lvgl/src/draw/lv_draw_rect.c ****     int32_t coords_h = lv_area_get_height(&coords_bg);
 6472              		.loc 1 168 5 is_stmt 1 view .LVU2423
 6473              	.LBB376:
 6474              	.LBI376:
 133:Middlewares/lvgl/src/draw/../misc/lv_area.h **** {
 6475              		.loc 2 133 26 view .LVU2424
 6476              	.LBB377:
 135:Middlewares/lvgl/src/draw/../misc/lv_area.h **** }
 6477              		.loc 2 135 5 view .LVU2425
 135:Middlewares/lvgl/src/draw/../misc/lv_area.h **** }
 6478              		.loc 2 135 31 is_stmt 0 view .LVU2426
 6479 00f6 BDF87C40 		ldrh	r4, [sp, #124]
 135:Middlewares/lvgl/src/draw/../misc/lv_area.h **** }
 6480              		.loc 2 135 44 view .LVU2427
 6481 00fa BDF87830 		ldrh	r3, [sp, #120]
 135:Middlewares/lvgl/src/draw/../misc/lv_area.h **** }
 6482              		.loc 2 135 36 view .LVU2428
 6483 00fe E41A     		subs	r4, r4, r3
 6484 0100 A4B2     		uxth	r4, r4
 135:Middlewares/lvgl/src/draw/../misc/lv_area.h **** }
 6485              		.loc 2 135 49 view .LVU2429
 6486 0102 0134     		adds	r4, r4, #1
 135:Middlewares/lvgl/src/draw/../misc/lv_area.h **** }
 6487              		.loc 2 135 12 view .LVU2430
 6488 0104 24B2     		sxth	r4, r4
 6489              	.LVL579:
 135:Middlewares/lvgl/src/draw/../misc/lv_area.h **** }
 6490              		.loc 2 135 12 view .LVU2431
 6491              	.LBE377:
 6492              	.LBE376:
 169:Middlewares/lvgl/src/draw/lv_draw_rect.c **** 
 6493              		.loc 1 169 5 is_stmt 1 view .LVU2432
 6494              	.LBB378:
 6495              	.LBI378:
 143:Middlewares/lvgl/src/draw/../misc/lv_area.h **** {
 6496              		.loc 2 143 26 view .LVU2433
 6497              	.LBB379:
 6498              		.loc 2 145 5 view .LVU2434
 6499              		.loc 2 145 31 is_stmt 0 view .LVU2435
 6500 0106 BDF87E30 		ldrh	r3, [sp, #126]
ARM GAS  /tmp/ccUpPomB.s 			page 180


 6501              		.loc 2 145 44 view .LVU2436
 6502 010a BDF87A20 		ldrh	r2, [sp, #122]
 6503              		.loc 2 145 36 view .LVU2437
 6504 010e 9B1A     		subs	r3, r3, r2
 6505 0110 9BB2     		uxth	r3, r3
 6506              		.loc 2 145 49 view .LVU2438
 6507 0112 0133     		adds	r3, r3, #1
 6508              		.loc 2 145 12 view .LVU2439
 6509 0114 1BB2     		sxth	r3, r3
 6510              	.LVL580:
 6511              		.loc 2 145 12 view .LVU2440
 6512              	.LBE379:
 6513              	.LBE378:
 172:Middlewares/lvgl/src/draw/lv_draw_rect.c ****     int32_t short_side = LV_MIN(coords_w, coords_h);
 6514              		.loc 1 172 5 is_stmt 1 view .LVU2441
 172:Middlewares/lvgl/src/draw/lv_draw_rect.c ****     int32_t short_side = LV_MIN(coords_w, coords_h);
 6515              		.loc 1 172 23 is_stmt 0 view .LVU2442
 6516 0116 B5F90020 		ldrsh	r2, [r5]
 6517              	.LVL581:
 173:Middlewares/lvgl/src/draw/lv_draw_rect.c ****     if(rout > short_side >> 1) rout = short_side >> 1;
 6518              		.loc 1 173 5 is_stmt 1 view .LVU2443
 173:Middlewares/lvgl/src/draw/lv_draw_rect.c ****     if(rout > short_side >> 1) rout = short_side >> 1;
 6519              		.loc 1 173 13 is_stmt 0 view .LVU2444
 6520 011a A342     		cmp	r3, r4
 6521 011c A8BF     		it	ge
 6522 011e 2346     		movge	r3, r4
 6523              	.LVL582:
 174:Middlewares/lvgl/src/draw/lv_draw_rect.c **** 
 6524              		.loc 1 174 5 is_stmt 1 view .LVU2445
 174:Middlewares/lvgl/src/draw/lv_draw_rect.c **** 
 6525              		.loc 1 174 26 is_stmt 0 view .LVU2446
 6526 0120 4FEA6309 		asr	r9, r3, #1
 174:Middlewares/lvgl/src/draw/lv_draw_rect.c **** 
 6527              		.loc 1 174 7 view .LVU2447
 6528 0124 B2EB630F 		cmp	r2, r3, asr #1
 6529 0128 00DC     		bgt	.L305
 172:Middlewares/lvgl/src/draw/lv_draw_rect.c ****     int32_t short_side = LV_MIN(coords_w, coords_h);
 6530              		.loc 1 172 13 view .LVU2448
 6531 012a 9146     		mov	r9, r2
 6532              	.L305:
 6533              	.LVL583:
 177:Middlewares/lvgl/src/draw/lv_draw_rect.c ****         _lv_blend_fill(clip, &coords_bg,
 6534              		.loc 1 177 5 is_stmt 1 view .LVU2449
 177:Middlewares/lvgl/src/draw/lv_draw_rect.c ****         _lv_blend_fill(clip, &coords_bg,
 6535              		.loc 1 177 20 is_stmt 0 view .LVU2450
 6536 012c 089B     		ldr	r3, [sp, #32]
 6537              	.LVL584:
 177:Middlewares/lvgl/src/draw/lv_draw_rect.c ****         _lv_blend_fill(clip, &coords_bg,
 6538              		.loc 1 177 20 view .LVU2451
 6539 012e B9F1000F 		cmp	r9, #0
 6540 0132 14BF     		ite	ne
 6541 0134 0023     		movne	r3, #0
 6542 0136 03F00103 		andeq	r3, r3, #1
 177:Middlewares/lvgl/src/draw/lv_draw_rect.c ****         _lv_blend_fill(clip, &coords_bg,
 6543              		.loc 1 177 7 view .LVU2452
 6544 013a 13B1     		cbz	r3, .L306
 177:Middlewares/lvgl/src/draw/lv_draw_rect.c ****         _lv_blend_fill(clip, &coords_bg,
ARM GAS  /tmp/ccUpPomB.s 			page 181


 6545              		.loc 1 177 33 discriminator 1 view .LVU2453
 6546 013c BBF1000F 		cmp	fp, #0
 6547 0140 3DD0     		beq	.L348
 6548              	.L306:
 6549              	.LBB380:
 186:Middlewares/lvgl/src/draw/lv_draw_rect.c ****         int16_t mask_rout_id = LV_MASK_ID_INV;
 6550              		.loc 1 186 9 is_stmt 1 view .LVU2454
 6551              	.LVL585:
 6552              	.LBB381:
 6553              	.LBI381:
 133:Middlewares/lvgl/src/draw/../misc/lv_area.h **** {
 6554              		.loc 2 133 26 view .LVU2455
 6555              	.LBB382:
 135:Middlewares/lvgl/src/draw/../misc/lv_area.h **** }
 6556              		.loc 2 135 5 view .LVU2456
 135:Middlewares/lvgl/src/draw/../misc/lv_area.h **** }
 6557              		.loc 2 135 31 is_stmt 0 view .LVU2457
 6558 0142 BDF87430 		ldrh	r3, [sp, #116]
 135:Middlewares/lvgl/src/draw/../misc/lv_area.h **** }
 6559              		.loc 2 135 44 view .LVU2458
 6560 0146 BDF87020 		ldrh	r2, [sp, #112]
 135:Middlewares/lvgl/src/draw/../misc/lv_area.h **** }
 6561              		.loc 2 135 36 view .LVU2459
 6562 014a 9B1A     		subs	r3, r3, r2
 6563 014c 9BB2     		uxth	r3, r3
 135:Middlewares/lvgl/src/draw/../misc/lv_area.h **** }
 6564              		.loc 2 135 49 view .LVU2460
 6565 014e 0133     		adds	r3, r3, #1
 135:Middlewares/lvgl/src/draw/../misc/lv_area.h **** }
 6566              		.loc 2 135 12 view .LVU2461
 6567 0150 1BB2     		sxth	r3, r3
 6568 0152 0A93     		str	r3, [sp, #40]
 6569              	.LVL586:
 135:Middlewares/lvgl/src/draw/../misc/lv_area.h **** }
 6570              		.loc 2 135 12 view .LVU2462
 6571              	.LBE382:
 6572              	.LBE381:
 187:Middlewares/lvgl/src/draw/lv_draw_rect.c ****         lv_opa_t * mask_buf = lv_mem_buf_get(draw_area_w);
 6573              		.loc 1 187 9 is_stmt 1 view .LVU2463
 188:Middlewares/lvgl/src/draw/lv_draw_rect.c ****         lv_draw_mask_radius_param_t mask_rout_param;
 6574              		.loc 1 188 9 view .LVU2464
 188:Middlewares/lvgl/src/draw/lv_draw_rect.c ****         lv_draw_mask_radius_param_t mask_rout_param;
 6575              		.loc 1 188 31 is_stmt 0 view .LVU2465
 6576 0154 1846     		mov	r0, r3
 6577 0156 FFF7FEFF 		bl	lv_mem_buf_get
 6578              	.LVL587:
 188:Middlewares/lvgl/src/draw/lv_draw_rect.c ****         lv_draw_mask_radius_param_t mask_rout_param;
 6579              		.loc 1 188 31 view .LVU2466
 6580 015a 8246     		mov	r10, r0
 6581              	.LVL588:
 189:Middlewares/lvgl/src/draw/lv_draw_rect.c ****         if(rout > 0) {
 6582              		.loc 1 189 9 is_stmt 1 view .LVU2467
 190:Middlewares/lvgl/src/draw/lv_draw_rect.c ****             lv_draw_mask_radius_init(&mask_rout_param, &coords_bg, rout, false);
 6583              		.loc 1 190 9 view .LVU2468
 190:Middlewares/lvgl/src/draw/lv_draw_rect.c ****             lv_draw_mask_radius_init(&mask_rout_param, &coords_bg, rout, false);
 6584              		.loc 1 190 11 is_stmt 0 view .LVU2469
 6585 015c B9F1000F 		cmp	r9, #0
ARM GAS  /tmp/ccUpPomB.s 			page 182


 6586 0160 3ADC     		bgt	.L349
 187:Middlewares/lvgl/src/draw/lv_draw_rect.c ****         lv_opa_t * mask_buf = lv_mem_buf_get(draw_area_w);
 6587              		.loc 1 187 17 view .LVU2470
 6588 0162 4FF0FF33 		mov	r3, #-1
 6589 0166 0E93     		str	r3, [sp, #56]
 6590              	.LVL589:
 6591              	.L308:
 196:Middlewares/lvgl/src/draw/lv_draw_rect.c ****         lv_draw_mask_res_t mask_res = LV_DRAW_MASK_RES_FULL_COVER;
 6592              		.loc 1 196 9 is_stmt 1 view .LVU2471
 197:Middlewares/lvgl/src/draw/lv_draw_rect.c ****         lv_color_t grad_color = dsc->bg_color;
 6593              		.loc 1 197 9 view .LVU2472
 198:Middlewares/lvgl/src/draw/lv_draw_rect.c **** 
 6594              		.loc 1 198 9 view .LVU2473
 198:Middlewares/lvgl/src/draw/lv_draw_rect.c **** 
 6595              		.loc 1 198 20 is_stmt 0 view .LVU2474
 6596 0168 AB88     		ldrh	r3, [r5, #4]
 6597              	.LVL590:
 198:Middlewares/lvgl/src/draw/lv_draw_rect.c **** 
 6598              		.loc 1 198 20 view .LVU2475
 6599 016a ADF82430 		strh	r3, [sp, #36]	@ movhi
 201:Middlewares/lvgl/src/draw/lv_draw_rect.c ****         if(grad_dir == LV_GRAD_DIR_HOR) {
 6600              		.loc 1 201 9 is_stmt 1 view .LVU2476
 6601              	.LVL591:
 202:Middlewares/lvgl/src/draw/lv_draw_rect.c ****             grad_map = lv_mem_buf_get(coords_w * sizeof(lv_color_t));
 6602              		.loc 1 202 9 view .LVU2477
 202:Middlewares/lvgl/src/draw/lv_draw_rect.c ****             grad_map = lv_mem_buf_get(coords_w * sizeof(lv_color_t));
 6603              		.loc 1 202 11 is_stmt 0 view .LVU2478
 6604 016e BBF1020F 		cmp	fp, #2
 6605 0172 3DD0     		beq	.L350
 201:Middlewares/lvgl/src/draw/lv_draw_rect.c ****         if(grad_dir == LV_GRAD_DIR_HOR) {
 6606              		.loc 1 201 22 view .LVU2479
 6607 0174 0023     		movs	r3, #0
 6608              	.LVL592:
 201:Middlewares/lvgl/src/draw/lv_draw_rect.c ****         if(grad_dir == LV_GRAD_DIR_HOR) {
 6609              		.loc 1 201 22 view .LVU2480
 6610 0176 0C93     		str	r3, [sp, #48]
 6611              	.LVL593:
 6612              	.L309:
 211:Middlewares/lvgl/src/draw/lv_draw_rect.c ****         if(lv_area_get_width(&coords_bg) - 2 * rout > SPLIT_LIMIT) split = true;
 6613              		.loc 1 211 9 is_stmt 1 view .LVU2481
 212:Middlewares/lvgl/src/draw/lv_draw_rect.c **** 
 6614              		.loc 1 212 9 view .LVU2482
 6615              	.LBB383:
 6616              	.LBI383:
 133:Middlewares/lvgl/src/draw/../misc/lv_area.h **** {
 6617              		.loc 2 133 26 view .LVU2483
 6618              	.LBB384:
 135:Middlewares/lvgl/src/draw/../misc/lv_area.h **** }
 6619              		.loc 2 135 5 view .LVU2484
 135:Middlewares/lvgl/src/draw/../misc/lv_area.h **** }
 6620              		.loc 2 135 31 is_stmt 0 view .LVU2485
 6621 0178 BDF97C20 		ldrsh	r2, [sp, #124]
 6622 017c 93B2     		uxth	r3, r2
 135:Middlewares/lvgl/src/draw/../misc/lv_area.h **** }
 6623              		.loc 2 135 44 view .LVU2486
 6624 017e BDF97810 		ldrsh	r1, [sp, #120]
 6625 0182 88B2     		uxth	r0, r1
ARM GAS  /tmp/ccUpPomB.s 			page 183


 135:Middlewares/lvgl/src/draw/../misc/lv_area.h **** }
 6626              		.loc 2 135 36 view .LVU2487
 6627 0184 1B1A     		subs	r3, r3, r0
 6628 0186 9BB2     		uxth	r3, r3
 135:Middlewares/lvgl/src/draw/../misc/lv_area.h **** }
 6629              		.loc 2 135 49 view .LVU2488
 6630 0188 0133     		adds	r3, r3, #1
 135:Middlewares/lvgl/src/draw/../misc/lv_area.h **** }
 6631              		.loc 2 135 12 view .LVU2489
 6632 018a 1BB2     		sxth	r3, r3
 6633              	.LVL594:
 135:Middlewares/lvgl/src/draw/../misc/lv_area.h **** }
 6634              		.loc 2 135 12 view .LVU2490
 6635              	.LBE384:
 6636              	.LBE383:
 212:Middlewares/lvgl/src/draw/lv_draw_rect.c **** 
 6637              		.loc 1 212 42 view .LVU2491
 6638 018c A3EB4903 		sub	r3, r3, r9, lsl #1
 212:Middlewares/lvgl/src/draw/lv_draw_rect.c **** 
 6639              		.loc 1 212 11 view .LVU2492
 6640 0190 322B     		cmp	r3, #50
 6641 0192 01DC     		bgt	.L315
 211:Middlewares/lvgl/src/draw/lv_draw_rect.c ****         if(lv_area_get_width(&coords_bg) - 2 * rout > SPLIT_LIMIT) split = true;
 6642              		.loc 1 211 14 view .LVU2493
 6643 0194 0023     		movs	r3, #0
 6644 0196 0693     		str	r3, [sp, #24]
 6645              	.L315:
 6646              	.LVL595:
 214:Middlewares/lvgl/src/draw/lv_draw_rect.c **** 
 6647              		.loc 1 214 9 is_stmt 1 view .LVU2494
 216:Middlewares/lvgl/src/draw/lv_draw_rect.c ****         fill_area.x1 = coords_bg.x1;
 6648              		.loc 1 216 9 view .LVU2495
 217:Middlewares/lvgl/src/draw/lv_draw_rect.c ****         fill_area.x2 = coords_bg.x2;
 6649              		.loc 1 217 9 view .LVU2496
 217:Middlewares/lvgl/src/draw/lv_draw_rect.c ****         fill_area.x2 = coords_bg.x2;
 6650              		.loc 1 217 22 is_stmt 0 view .LVU2497
 6651 0198 ADF84410 		strh	r1, [sp, #68]	@ movhi
 218:Middlewares/lvgl/src/draw/lv_draw_rect.c ****         fill_area.y1 = disp_area->y1 + draw_area.y1;
 6652              		.loc 1 218 9 is_stmt 1 view .LVU2498
 218:Middlewares/lvgl/src/draw/lv_draw_rect.c ****         fill_area.y1 = disp_area->y1 + draw_area.y1;
 6653              		.loc 1 218 22 is_stmt 0 view .LVU2499
 6654 019c ADF84820 		strh	r2, [sp, #72]	@ movhi
 219:Middlewares/lvgl/src/draw/lv_draw_rect.c ****         fill_area.y2 = fill_area.y1;
 6655              		.loc 1 219 9 is_stmt 1 view .LVU2500
 219:Middlewares/lvgl/src/draw/lv_draw_rect.c ****         fill_area.y2 = fill_area.y1;
 6656              		.loc 1 219 33 is_stmt 0 view .LVU2501
 6657 01a0 B8F81230 		ldrh	r3, [r8, #18]
 219:Middlewares/lvgl/src/draw/lv_draw_rect.c ****         fill_area.y2 = fill_area.y1;
 6658              		.loc 1 219 49 view .LVU2502
 6659 01a4 BDF97260 		ldrsh	r6, [sp, #114]
 6660              	.LVL596:
 219:Middlewares/lvgl/src/draw/lv_draw_rect.c ****         fill_area.y2 = fill_area.y1;
 6661              		.loc 1 219 38 view .LVU2503
 6662 01a8 13FA86F3 		uxtah	r3, r3, r6
 6663 01ac 1BB2     		sxth	r3, r3
 219:Middlewares/lvgl/src/draw/lv_draw_rect.c ****         fill_area.y2 = fill_area.y1;
 6664              		.loc 1 219 22 view .LVU2504
ARM GAS  /tmp/ccUpPomB.s 			page 184


 6665 01ae ADF84630 		strh	r3, [sp, #70]	@ movhi
 220:Middlewares/lvgl/src/draw/lv_draw_rect.c ****         for(h = draw_area.y1; h <= draw_area.y2; h++) {
 6666              		.loc 1 220 9 is_stmt 1 view .LVU2505
 220:Middlewares/lvgl/src/draw/lv_draw_rect.c ****         for(h = draw_area.y1; h <= draw_area.y2; h++) {
 6667              		.loc 1 220 22 is_stmt 0 view .LVU2506
 6668 01b2 ADF84A30 		strh	r3, [sp, #74]	@ movhi
 221:Middlewares/lvgl/src/draw/lv_draw_rect.c ****             int32_t y = h + draw_buf->area.y1;
 6669              		.loc 1 221 9 is_stmt 1 view .LVU2507
 6670              	.LVL597:
 221:Middlewares/lvgl/src/draw/lv_draw_rect.c ****             int32_t y = h + draw_buf->area.y1;
 6671              		.loc 1 221 9 is_stmt 0 view .LVU2508
 6672 01b6 20E1     		b	.L316
 6673              	.LVL598:
 6674              	.L340:
 221:Middlewares/lvgl/src/draw/lv_draw_rect.c ****             int32_t y = h + draw_buf->area.y1;
 6675              		.loc 1 221 9 view .LVU2509
 6676              	.LBE380:
 165:Middlewares/lvgl/src/draw/lv_draw_rect.c **** 
 6677              		.loc 1 165 54 view .LVU2510
 6678 01b8 0023     		movs	r3, #0
 6679              	.LVL599:
 165:Middlewares/lvgl/src/draw/lv_draw_rect.c **** 
 6680              		.loc 1 165 54 view .LVU2511
 6681 01ba 0893     		str	r3, [sp, #32]
 6682 01bc 9BE7     		b	.L304
 6683              	.LVL600:
 6684              	.L348:
 178:Middlewares/lvgl/src/draw/lv_draw_rect.c ****                        dsc->bg_color, NULL, LV_DRAW_MASK_RES_FULL_COVER, opa,
 6685              		.loc 1 178 9 is_stmt 1 view .LVU2512
 6686 01be AB78     		ldrb	r3, [r5, #2]	@ zero_extendqisi2
 6687 01c0 0293     		str	r3, [sp, #8]
 6688 01c2 049B     		ldr	r3, [sp, #16]
 6689 01c4 0193     		str	r3, [sp, #4]
 6690 01c6 0123     		movs	r3, #1
 6691 01c8 0093     		str	r3, [sp]
 6692 01ca 0023     		movs	r3, #0
 6693 01cc AA88     		ldrh	r2, [r5, #4]
 6694 01ce 1EA9     		add	r1, sp, #120
 6695 01d0 0798     		ldr	r0, [sp, #28]
 6696 01d2 FFF7FEFF 		bl	_lv_blend_fill
 6697              	.LVL601:
 178:Middlewares/lvgl/src/draw/lv_draw_rect.c ****                        dsc->bg_color, NULL, LV_DRAW_MASK_RES_FULL_COVER, opa,
 6698              		.loc 1 178 9 is_stmt 0 view .LVU2513
 6699 01d6 0EE2     		b	.L299
 6700              	.LVL602:
 6701              	.L349:
 6702              	.LBB402:
 191:Middlewares/lvgl/src/draw/lv_draw_rect.c ****             mask_rout_id = lv_draw_mask_add(&mask_rout_param, NULL);
 6703              		.loc 1 191 13 is_stmt 1 view .LVU2514
 6704 01d8 0023     		movs	r3, #0
 6705 01da 4A46     		mov	r2, r9
 6706 01dc 1EA9     		add	r1, sp, #120
 6707 01de 15A8     		add	r0, sp, #84
 6708              	.LVL603:
 191:Middlewares/lvgl/src/draw/lv_draw_rect.c ****             mask_rout_id = lv_draw_mask_add(&mask_rout_param, NULL);
 6709              		.loc 1 191 13 is_stmt 0 view .LVU2515
 6710 01e0 FFF7FEFF 		bl	lv_draw_mask_radius_init
ARM GAS  /tmp/ccUpPomB.s 			page 185


 6711              	.LVL604:
 192:Middlewares/lvgl/src/draw/lv_draw_rect.c ****         }
 6712              		.loc 1 192 13 is_stmt 1 view .LVU2516
 192:Middlewares/lvgl/src/draw/lv_draw_rect.c ****         }
 6713              		.loc 1 192 28 is_stmt 0 view .LVU2517
 6714 01e4 0021     		movs	r1, #0
 6715 01e6 15A8     		add	r0, sp, #84
 6716 01e8 FFF7FEFF 		bl	lv_draw_mask_add
 6717              	.LVL605:
 6718 01ec 0E90     		str	r0, [sp, #56]
 6719              	.LVL606:
 192:Middlewares/lvgl/src/draw/lv_draw_rect.c ****         }
 6720              		.loc 1 192 28 view .LVU2518
 6721 01ee BBE7     		b	.L308
 6722              	.LVL607:
 6723              	.L350:
 6724              	.LBB385:
 203:Middlewares/lvgl/src/draw/lv_draw_rect.c **** 
 6725              		.loc 1 203 13 is_stmt 1 view .LVU2519
 203:Middlewares/lvgl/src/draw/lv_draw_rect.c **** 
 6726              		.loc 1 203 24 is_stmt 0 view .LVU2520
 6727 01f0 6000     		lsls	r0, r4, #1
 6728 01f2 FFF7FEFF 		bl	lv_mem_buf_get
 6729              	.LVL608:
 203:Middlewares/lvgl/src/draw/lv_draw_rect.c **** 
 6730              		.loc 1 203 24 view .LVU2521
 6731 01f6 0346     		mov	r3, r0
 6732 01f8 0C90     		str	r0, [sp, #48]
 6733              	.LVL609:
 205:Middlewares/lvgl/src/draw/lv_draw_rect.c ****             for(i = 0; i < coords_w; i++) {
 6734              		.loc 1 205 13 is_stmt 1 view .LVU2522
 206:Middlewares/lvgl/src/draw/lv_draw_rect.c ****                 grad_map[i] = grad_get(dsc, coords_w, i);
 6735              		.loc 1 206 13 view .LVU2523
 206:Middlewares/lvgl/src/draw/lv_draw_rect.c ****                 grad_map[i] = grad_get(dsc, coords_w, i);
 6736              		.loc 1 206 19 is_stmt 0 view .LVU2524
 6737 01fa 0020     		movs	r0, #0
 6738              	.LVL610:
 206:Middlewares/lvgl/src/draw/lv_draw_rect.c ****                 grad_map[i] = grad_get(dsc, coords_w, i);
 6739              		.loc 1 206 19 view .LVU2525
 6740 01fc CDF81490 		str	r9, [sp, #20]
 6741 0200 CDF83CB0 		str	fp, [sp, #60]
 6742 0204 9946     		mov	r9, r3
 6743              	.LVL611:
 206:Middlewares/lvgl/src/draw/lv_draw_rect.c ****                 grad_map[i] = grad_get(dsc, coords_w, i);
 6744              		.loc 1 206 13 view .LVU2526
 6745 0206 48E0     		b	.L310
 6746              	.LVL612:
 6747              	.L352:
 6748              	.LBB386:
 6749              	.LBB387:
 525:Middlewares/lvgl/src/draw/lv_draw_rect.c **** 
 6750              		.loc 1 525 18 is_stmt 1 view .LVU2527
 525:Middlewares/lvgl/src/draw/lv_draw_rect.c **** 
 6751              		.loc 1 525 28 is_stmt 0 view .LVU2528
 6752 0208 AB88     		ldrh	r3, [r5, #4]
 6753 020a 43E0     		b	.L312
 6754              	.LVL613:
ARM GAS  /tmp/ccUpPomB.s 			page 186


 6755              	.L313:
 530:Middlewares/lvgl/src/draw/lv_draw_rect.c ****     d = (s * d) >> 8;
 6756              		.loc 1 530 5 is_stmt 1 view .LVU2529
 530:Middlewares/lvgl/src/draw/lv_draw_rect.c ****     d = (s * d) >> 8;
 6757              		.loc 1 530 13 is_stmt 0 view .LVU2530
 6758 020c 5B1A     		subs	r3, r3, r1
 6759              	.LVL614:
 531:Middlewares/lvgl/src/draw/lv_draw_rect.c ****     i -= min;
 6760              		.loc 1 531 5 is_stmt 1 view .LVU2531
 531:Middlewares/lvgl/src/draw/lv_draw_rect.c ****     i -= min;
 6761              		.loc 1 531 12 is_stmt 0 view .LVU2532
 6762 020e 04FB03F3 		mul	r3, r4, r3
 6763              	.LVL615:
 531:Middlewares/lvgl/src/draw/lv_draw_rect.c ****     i -= min;
 6764              		.loc 1 531 7 view .LVU2533
 6765 0212 1912     		asrs	r1, r3, #8
 6766              	.LVL616:
 532:Middlewares/lvgl/src/draw/lv_draw_rect.c ****     lv_opa_t mix = (i * 255) / d;
 6767              		.loc 1 532 5 is_stmt 1 view .LVU2534
 532:Middlewares/lvgl/src/draw/lv_draw_rect.c ****     lv_opa_t mix = (i * 255) / d;
 6768              		.loc 1 532 7 is_stmt 0 view .LVU2535
 6769 0214 D21B     		subs	r2, r2, r7
 6770              	.LVL617:
 532:Middlewares/lvgl/src/draw/lv_draw_rect.c ****     lv_opa_t mix = (i * 255) / d;
 6771              		.loc 1 532 7 view .LVU2536
 6772 0216 12B2     		sxth	r2, r2
 6773              	.LVL618:
 533:Middlewares/lvgl/src/draw/lv_draw_rect.c ****     return lv_color_mix(dsc->bg_grad_color, dsc->bg_color, mix);
 6774              		.loc 1 533 5 is_stmt 1 view .LVU2537
 533:Middlewares/lvgl/src/draw/lv_draw_rect.c ****     return lv_color_mix(dsc->bg_grad_color, dsc->bg_color, mix);
 6775              		.loc 1 533 23 is_stmt 0 view .LVU2538
 6776 0218 C2EB0222 		rsb	r2, r2, r2, lsl #8
 6777              	.LVL619:
 533:Middlewares/lvgl/src/draw/lv_draw_rect.c ****     return lv_color_mix(dsc->bg_grad_color, dsc->bg_color, mix);
 6778              		.loc 1 533 30 view .LVU2539
 6779 021c 92FBF1F3 		sdiv	r3, r2, r1
 533:Middlewares/lvgl/src/draw/lv_draw_rect.c ****     return lv_color_mix(dsc->bg_grad_color, dsc->bg_color, mix);
 6780              		.loc 1 533 14 view .LVU2540
 6781 0220 DBB2     		uxtb	r3, r3
 6782              	.LVL620:
 534:Middlewares/lvgl/src/draw/lv_draw_rect.c **** }
 6783              		.loc 1 534 5 is_stmt 1 view .LVU2541
 6784 0222 EF88     		ldrh	r7, [r5, #6]
 6785              	.LVL621:
 534:Middlewares/lvgl/src/draw/lv_draw_rect.c **** }
 6786              		.loc 1 534 5 is_stmt 0 view .LVU2542
 6787 0224 B5F804C0 		ldrh	ip, [r5, #4]
 6788              	.LVL622:
 6789              	.LBB388:
 6790              	.LBI388:
 6791              		.file 3 "Middlewares/lvgl/src/draw/../misc/lv_color.h"
   1:Middlewares/lvgl/src/draw/../misc/lv_color.h **** /**
   2:Middlewares/lvgl/src/draw/../misc/lv_color.h ****  * @file lv_color.h
   3:Middlewares/lvgl/src/draw/../misc/lv_color.h ****  *
   4:Middlewares/lvgl/src/draw/../misc/lv_color.h ****  */
   5:Middlewares/lvgl/src/draw/../misc/lv_color.h **** 
   6:Middlewares/lvgl/src/draw/../misc/lv_color.h **** #ifndef LV_COLOR_H
ARM GAS  /tmp/ccUpPomB.s 			page 187


   7:Middlewares/lvgl/src/draw/../misc/lv_color.h **** #define LV_COLOR_H
   8:Middlewares/lvgl/src/draw/../misc/lv_color.h **** 
   9:Middlewares/lvgl/src/draw/../misc/lv_color.h **** #ifdef __cplusplus
  10:Middlewares/lvgl/src/draw/../misc/lv_color.h **** extern "C" {
  11:Middlewares/lvgl/src/draw/../misc/lv_color.h **** #endif
  12:Middlewares/lvgl/src/draw/../misc/lv_color.h **** 
  13:Middlewares/lvgl/src/draw/../misc/lv_color.h **** /*********************
  14:Middlewares/lvgl/src/draw/../misc/lv_color.h ****  *      INCLUDES
  15:Middlewares/lvgl/src/draw/../misc/lv_color.h ****  *********************/
  16:Middlewares/lvgl/src/draw/../misc/lv_color.h **** #include "../lv_conf_internal.h"
  17:Middlewares/lvgl/src/draw/../misc/lv_color.h **** #include "lv_math.h"
  18:Middlewares/lvgl/src/draw/../misc/lv_color.h **** #include "lv_types.h"
  19:Middlewares/lvgl/src/draw/../misc/lv_color.h **** 
  20:Middlewares/lvgl/src/draw/../misc/lv_color.h **** /*Error checking*/
  21:Middlewares/lvgl/src/draw/../misc/lv_color.h **** #if LV_COLOR_DEPTH == 24
  22:Middlewares/lvgl/src/draw/../misc/lv_color.h **** #error "LV_COLOR_DEPTH 24 is deprecated. Use LV_COLOR_DEPTH 32 instead (lv_conf.h)"
  23:Middlewares/lvgl/src/draw/../misc/lv_color.h **** #endif
  24:Middlewares/lvgl/src/draw/../misc/lv_color.h **** 
  25:Middlewares/lvgl/src/draw/../misc/lv_color.h **** #if LV_COLOR_DEPTH != 32 && LV_COLOR_SCREEN_TRANSP != 0
  26:Middlewares/lvgl/src/draw/../misc/lv_color.h **** #error "LV_COLOR_SCREEN_TRANSP requires LV_COLOR_DEPTH == 32. Set it in lv_conf.h"
  27:Middlewares/lvgl/src/draw/../misc/lv_color.h **** #endif
  28:Middlewares/lvgl/src/draw/../misc/lv_color.h **** 
  29:Middlewares/lvgl/src/draw/../misc/lv_color.h **** #if LV_COLOR_DEPTH != 16 && LV_COLOR_16_SWAP != 0
  30:Middlewares/lvgl/src/draw/../misc/lv_color.h **** #error "LV_COLOR_16_SWAP requires LV_COLOR_DEPTH == 16. Set it in lv_conf.h"
  31:Middlewares/lvgl/src/draw/../misc/lv_color.h **** #endif
  32:Middlewares/lvgl/src/draw/../misc/lv_color.h **** 
  33:Middlewares/lvgl/src/draw/../misc/lv_color.h **** #include <stdint.h>
  34:Middlewares/lvgl/src/draw/../misc/lv_color.h **** 
  35:Middlewares/lvgl/src/draw/../misc/lv_color.h **** /*********************
  36:Middlewares/lvgl/src/draw/../misc/lv_color.h ****  *      DEFINES
  37:Middlewares/lvgl/src/draw/../misc/lv_color.h ****  *********************/
  38:Middlewares/lvgl/src/draw/../misc/lv_color.h **** 
  39:Middlewares/lvgl/src/draw/../misc/lv_color.h **** /**
  40:Middlewares/lvgl/src/draw/../misc/lv_color.h ****  * Opacity percentages.
  41:Middlewares/lvgl/src/draw/../misc/lv_color.h ****  */
  42:Middlewares/lvgl/src/draw/../misc/lv_color.h **** enum {
  43:Middlewares/lvgl/src/draw/../misc/lv_color.h ****     LV_OPA_TRANSP = 0,
  44:Middlewares/lvgl/src/draw/../misc/lv_color.h ****     LV_OPA_0      = 0,
  45:Middlewares/lvgl/src/draw/../misc/lv_color.h ****     LV_OPA_10     = 25,
  46:Middlewares/lvgl/src/draw/../misc/lv_color.h ****     LV_OPA_20     = 51,
  47:Middlewares/lvgl/src/draw/../misc/lv_color.h ****     LV_OPA_30     = 76,
  48:Middlewares/lvgl/src/draw/../misc/lv_color.h ****     LV_OPA_40     = 102,
  49:Middlewares/lvgl/src/draw/../misc/lv_color.h ****     LV_OPA_50     = 127,
  50:Middlewares/lvgl/src/draw/../misc/lv_color.h ****     LV_OPA_60     = 153,
  51:Middlewares/lvgl/src/draw/../misc/lv_color.h ****     LV_OPA_70     = 178,
  52:Middlewares/lvgl/src/draw/../misc/lv_color.h ****     LV_OPA_80     = 204,
  53:Middlewares/lvgl/src/draw/../misc/lv_color.h ****     LV_OPA_90     = 229,
  54:Middlewares/lvgl/src/draw/../misc/lv_color.h ****     LV_OPA_100    = 255,
  55:Middlewares/lvgl/src/draw/../misc/lv_color.h ****     LV_OPA_COVER  = 255,
  56:Middlewares/lvgl/src/draw/../misc/lv_color.h **** };
  57:Middlewares/lvgl/src/draw/../misc/lv_color.h **** 
  58:Middlewares/lvgl/src/draw/../misc/lv_color.h **** #define LV_OPA_MIN 2    /*Opacities below this will be transparent*/
  59:Middlewares/lvgl/src/draw/../misc/lv_color.h **** #define LV_OPA_MAX 253  /*Opacities above this will fully cover*/
  60:Middlewares/lvgl/src/draw/../misc/lv_color.h **** 
  61:Middlewares/lvgl/src/draw/../misc/lv_color.h **** #if LV_COLOR_DEPTH == 1
  62:Middlewares/lvgl/src/draw/../misc/lv_color.h **** #define LV_COLOR_SIZE 8
  63:Middlewares/lvgl/src/draw/../misc/lv_color.h **** #elif LV_COLOR_DEPTH == 8
ARM GAS  /tmp/ccUpPomB.s 			page 188


  64:Middlewares/lvgl/src/draw/../misc/lv_color.h **** #define LV_COLOR_SIZE 8
  65:Middlewares/lvgl/src/draw/../misc/lv_color.h **** #elif LV_COLOR_DEPTH == 16
  66:Middlewares/lvgl/src/draw/../misc/lv_color.h **** #define LV_COLOR_SIZE 16
  67:Middlewares/lvgl/src/draw/../misc/lv_color.h **** #elif LV_COLOR_DEPTH == 32
  68:Middlewares/lvgl/src/draw/../misc/lv_color.h **** #define LV_COLOR_SIZE 32
  69:Middlewares/lvgl/src/draw/../misc/lv_color.h **** #else
  70:Middlewares/lvgl/src/draw/../misc/lv_color.h **** #error "Invalid LV_COLOR_DEPTH in lv_conf.h! Set it to 1, 8, 16 or 32!"
  71:Middlewares/lvgl/src/draw/../misc/lv_color.h **** #endif
  72:Middlewares/lvgl/src/draw/../misc/lv_color.h **** 
  73:Middlewares/lvgl/src/draw/../misc/lv_color.h **** /**
  74:Middlewares/lvgl/src/draw/../misc/lv_color.h ****  * Adjust color mix functions rounding.
  75:Middlewares/lvgl/src/draw/../misc/lv_color.h ****  * GPUs might calculate color mix (blending) differently.
  76:Middlewares/lvgl/src/draw/../misc/lv_color.h ****  * Should be in range of 0..254
  77:Middlewares/lvgl/src/draw/../misc/lv_color.h ****  * 0: no adjustment, get the integer part of the result (round down)
  78:Middlewares/lvgl/src/draw/../misc/lv_color.h ****  * 64: round up from x.75
  79:Middlewares/lvgl/src/draw/../misc/lv_color.h ****  * 128: round up from half
  80:Middlewares/lvgl/src/draw/../misc/lv_color.h ****  * 192: round up from x.25
  81:Middlewares/lvgl/src/draw/../misc/lv_color.h ****  * 254: round up*/
  82:Middlewares/lvgl/src/draw/../misc/lv_color.h **** #ifndef LV_COLOR_MIX_ROUND_OFS
  83:Middlewares/lvgl/src/draw/../misc/lv_color.h **** #if LV_COLOR_DEPTH == 32
  84:Middlewares/lvgl/src/draw/../misc/lv_color.h **** #define LV_COLOR_MIX_ROUND_OFS 0
  85:Middlewares/lvgl/src/draw/../misc/lv_color.h **** #else
  86:Middlewares/lvgl/src/draw/../misc/lv_color.h **** #define LV_COLOR_MIX_ROUND_OFS 128
  87:Middlewares/lvgl/src/draw/../misc/lv_color.h **** #endif
  88:Middlewares/lvgl/src/draw/../misc/lv_color.h **** #endif
  89:Middlewares/lvgl/src/draw/../misc/lv_color.h **** 
  90:Middlewares/lvgl/src/draw/../misc/lv_color.h **** #if defined(__cplusplus) && !defined(_LV_COLOR_HAS_MODERN_CPP)
  91:Middlewares/lvgl/src/draw/../misc/lv_color.h **** /**
  92:Middlewares/lvgl/src/draw/../misc/lv_color.h **** * MSVC compiler's definition of the __cplusplus indicating 199711L regardless to C++ standard versi
  93:Middlewares/lvgl/src/draw/../misc/lv_color.h **** * see https://devblogs.microsoft.com/cppblog/msvc-now-correctly-reports-cplusplus
  94:Middlewares/lvgl/src/draw/../misc/lv_color.h **** * so we use _MSC_VER macro instead of __cplusplus
  95:Middlewares/lvgl/src/draw/../misc/lv_color.h **** */
  96:Middlewares/lvgl/src/draw/../misc/lv_color.h **** #ifdef _MSC_VER
  97:Middlewares/lvgl/src/draw/../misc/lv_color.h **** #if _MSC_VER >= 1900 /*Visual Studio 2015*/
  98:Middlewares/lvgl/src/draw/../misc/lv_color.h **** #define _LV_COLOR_HAS_MODERN_CPP 1
  99:Middlewares/lvgl/src/draw/../misc/lv_color.h **** #endif
 100:Middlewares/lvgl/src/draw/../misc/lv_color.h **** #else
 101:Middlewares/lvgl/src/draw/../misc/lv_color.h **** #if __cplusplus >= 201103L
 102:Middlewares/lvgl/src/draw/../misc/lv_color.h **** #define _LV_COLOR_HAS_MODERN_CPP 1
 103:Middlewares/lvgl/src/draw/../misc/lv_color.h **** #endif
 104:Middlewares/lvgl/src/draw/../misc/lv_color.h **** #endif
 105:Middlewares/lvgl/src/draw/../misc/lv_color.h **** #endif /*__cplusplus*/
 106:Middlewares/lvgl/src/draw/../misc/lv_color.h **** 
 107:Middlewares/lvgl/src/draw/../misc/lv_color.h **** #ifndef _LV_COLOR_HAS_MODERN_CPP
 108:Middlewares/lvgl/src/draw/../misc/lv_color.h **** #define _LV_COLOR_HAS_MODERN_CPP 0
 109:Middlewares/lvgl/src/draw/../misc/lv_color.h **** #endif
 110:Middlewares/lvgl/src/draw/../misc/lv_color.h **** 
 111:Middlewares/lvgl/src/draw/../misc/lv_color.h **** #if _LV_COLOR_HAS_MODERN_CPP
 112:Middlewares/lvgl/src/draw/../misc/lv_color.h **** /*Fix msvc compiler error C4576 inside C++ code*/
 113:Middlewares/lvgl/src/draw/../misc/lv_color.h **** #define _LV_COLOR_MAKE_TYPE_HELPER lv_color_t
 114:Middlewares/lvgl/src/draw/../misc/lv_color.h **** #else
 115:Middlewares/lvgl/src/draw/../misc/lv_color.h **** #define _LV_COLOR_MAKE_TYPE_HELPER (lv_color_t)
 116:Middlewares/lvgl/src/draw/../misc/lv_color.h **** #endif
 117:Middlewares/lvgl/src/draw/../misc/lv_color.h **** 
 118:Middlewares/lvgl/src/draw/../misc/lv_color.h **** /*---------------------------------------
 119:Middlewares/lvgl/src/draw/../misc/lv_color.h ****  * Macros for all existing color depths
 120:Middlewares/lvgl/src/draw/../misc/lv_color.h ****  * to set/get values of the color channels
ARM GAS  /tmp/ccUpPomB.s 			page 189


 121:Middlewares/lvgl/src/draw/../misc/lv_color.h ****  *------------------------------------------*/
 122:Middlewares/lvgl/src/draw/../misc/lv_color.h **** # define LV_COLOR_SET_R1(c, v) (c).ch.red = (uint8_t)((v) & 0x1)
 123:Middlewares/lvgl/src/draw/../misc/lv_color.h **** # define LV_COLOR_SET_G1(c, v) (c).ch.green = (uint8_t)((v) & 0x1)
 124:Middlewares/lvgl/src/draw/../misc/lv_color.h **** # define LV_COLOR_SET_B1(c, v) (c).ch.blue = (uint8_t)((v) & 0x1)
 125:Middlewares/lvgl/src/draw/../misc/lv_color.h **** # define LV_COLOR_SET_A1(c, v) do {} while(0)
 126:Middlewares/lvgl/src/draw/../misc/lv_color.h **** 
 127:Middlewares/lvgl/src/draw/../misc/lv_color.h **** # define LV_COLOR_GET_R1(c) (c).ch.red
 128:Middlewares/lvgl/src/draw/../misc/lv_color.h **** # define LV_COLOR_GET_G1(c) (c).ch.green
 129:Middlewares/lvgl/src/draw/../misc/lv_color.h **** # define LV_COLOR_GET_B1(c) (c).ch.blue
 130:Middlewares/lvgl/src/draw/../misc/lv_color.h **** # define LV_COLOR_GET_A1(c) 0xFF
 131:Middlewares/lvgl/src/draw/../misc/lv_color.h **** 
 132:Middlewares/lvgl/src/draw/../misc/lv_color.h **** # define _LV_COLOR_ZERO_INITIALIZER1 {0x00}
 133:Middlewares/lvgl/src/draw/../misc/lv_color.h **** # define LV_COLOR_MAKE1(r8, g8, b8)  {(uint8_t)((b8 >> 7) | (g8 >> 7) | (r8 >> 7))}
 134:Middlewares/lvgl/src/draw/../misc/lv_color.h **** 
 135:Middlewares/lvgl/src/draw/../misc/lv_color.h **** # define LV_COLOR_SET_R8(c, v) (c).ch.red = (uint8_t)((v) & 0x7U)
 136:Middlewares/lvgl/src/draw/../misc/lv_color.h **** # define LV_COLOR_SET_G8(c, v) (c).ch.green = (uint8_t)((v) & 0x7U)
 137:Middlewares/lvgl/src/draw/../misc/lv_color.h **** # define LV_COLOR_SET_B8(c, v) (c).ch.blue = (uint8_t)((v) & 0x3U)
 138:Middlewares/lvgl/src/draw/../misc/lv_color.h **** # define LV_COLOR_SET_A8(c, v) do {} while(0)
 139:Middlewares/lvgl/src/draw/../misc/lv_color.h **** 
 140:Middlewares/lvgl/src/draw/../misc/lv_color.h **** # define LV_COLOR_GET_R8(c) (c).ch.red
 141:Middlewares/lvgl/src/draw/../misc/lv_color.h **** # define LV_COLOR_GET_G8(c) (c).ch.green
 142:Middlewares/lvgl/src/draw/../misc/lv_color.h **** # define LV_COLOR_GET_B8(c) (c).ch.blue
 143:Middlewares/lvgl/src/draw/../misc/lv_color.h **** # define LV_COLOR_GET_A8(c) 0xFF
 144:Middlewares/lvgl/src/draw/../misc/lv_color.h **** 
 145:Middlewares/lvgl/src/draw/../misc/lv_color.h **** # define _LV_COLOR_ZERO_INITIALIZER8 _LV_COLOR_MAKE_TYPE_HELPER {{0x00, 0x00, 0x00}}
 146:Middlewares/lvgl/src/draw/../misc/lv_color.h **** # define LV_COLOR_MAKE8(r8, g8, b8) _LV_COLOR_MAKE_TYPE_HELPER  {{(uint8_t)((b8 >> 6) & 0x3U), (uin
 147:Middlewares/lvgl/src/draw/../misc/lv_color.h **** 
 148:Middlewares/lvgl/src/draw/../misc/lv_color.h **** # define LV_COLOR_SET_R16(c, v) (c).ch.red = (uint8_t)((v) & 0x1FU)
 149:Middlewares/lvgl/src/draw/../misc/lv_color.h **** #if LV_COLOR_16_SWAP == 0
 150:Middlewares/lvgl/src/draw/../misc/lv_color.h **** # define LV_COLOR_SET_G16(c, v) (c).ch.green = (uint8_t)((v) & 0x3FU)
 151:Middlewares/lvgl/src/draw/../misc/lv_color.h **** #else
 152:Middlewares/lvgl/src/draw/../misc/lv_color.h **** # define LV_COLOR_SET_G16(c, v) {(c).ch.green_h = (uint8_t)(((v) >> 3) & 0x7); (c).ch.green_l = (ui
 153:Middlewares/lvgl/src/draw/../misc/lv_color.h **** #endif
 154:Middlewares/lvgl/src/draw/../misc/lv_color.h **** # define LV_COLOR_SET_B16(c, v) (c).ch.blue = (uint8_t)((v) & 0x1FU)
 155:Middlewares/lvgl/src/draw/../misc/lv_color.h **** # define LV_COLOR_SET_A16(c, v) do {} while(0)
 156:Middlewares/lvgl/src/draw/../misc/lv_color.h **** 
 157:Middlewares/lvgl/src/draw/../misc/lv_color.h **** # define LV_COLOR_GET_R16(c) (c).ch.red
 158:Middlewares/lvgl/src/draw/../misc/lv_color.h **** #if LV_COLOR_16_SWAP == 0
 159:Middlewares/lvgl/src/draw/../misc/lv_color.h **** # define LV_COLOR_GET_G16(c) (c).ch.green
 160:Middlewares/lvgl/src/draw/../misc/lv_color.h **** #else
 161:Middlewares/lvgl/src/draw/../misc/lv_color.h **** # define LV_COLOR_GET_G16(c) (((c).ch.green_h << 3) + (c).ch.green_l)
 162:Middlewares/lvgl/src/draw/../misc/lv_color.h **** #endif
 163:Middlewares/lvgl/src/draw/../misc/lv_color.h **** # define LV_COLOR_GET_B16(c) (c).ch.blue
 164:Middlewares/lvgl/src/draw/../misc/lv_color.h **** # define LV_COLOR_GET_A16(c) 0xFF
 165:Middlewares/lvgl/src/draw/../misc/lv_color.h **** 
 166:Middlewares/lvgl/src/draw/../misc/lv_color.h **** #if LV_COLOR_16_SWAP == 0
 167:Middlewares/lvgl/src/draw/../misc/lv_color.h **** # define _LV_COLOR_ZERO_INITIALIZER16  {{0x00, 0x00, 0x00}}
 168:Middlewares/lvgl/src/draw/../misc/lv_color.h **** # define LV_COLOR_MAKE16(r8, g8, b8) {{(uint8_t)((b8 >> 3) & 0x1FU), (uint8_t)((g8 >> 2) & 0x3FU), 
 169:Middlewares/lvgl/src/draw/../misc/lv_color.h **** #else
 170:Middlewares/lvgl/src/draw/../misc/lv_color.h **** # define _LV_COLOR_ZERO_INITIALIZER16 {{0x00, 0x00, 0x00, 0x00}}
 171:Middlewares/lvgl/src/draw/../misc/lv_color.h **** # define LV_COLOR_MAKE16(r8, g8, b8) {{(uint8_t)((g8 >> 5) & 0x7U), (uint8_t)((r8 >> 3) & 0x1FU), (
 172:Middlewares/lvgl/src/draw/../misc/lv_color.h **** #endif
 173:Middlewares/lvgl/src/draw/../misc/lv_color.h **** 
 174:Middlewares/lvgl/src/draw/../misc/lv_color.h **** # define LV_COLOR_SET_R32(c, v) (c).ch.red = (uint8_t)((v) & 0xFF)
 175:Middlewares/lvgl/src/draw/../misc/lv_color.h **** # define LV_COLOR_SET_G32(c, v) (c).ch.green = (uint8_t)((v) & 0xFF)
 176:Middlewares/lvgl/src/draw/../misc/lv_color.h **** # define LV_COLOR_SET_B32(c, v) (c).ch.blue = (uint8_t)((v) & 0xFF)
 177:Middlewares/lvgl/src/draw/../misc/lv_color.h **** # define LV_COLOR_SET_A32(c, v) (c).ch.alpha = (uint8_t)((v) & 0xFF)
ARM GAS  /tmp/ccUpPomB.s 			page 190


 178:Middlewares/lvgl/src/draw/../misc/lv_color.h **** 
 179:Middlewares/lvgl/src/draw/../misc/lv_color.h **** # define LV_COLOR_GET_R32(c) (c).ch.red
 180:Middlewares/lvgl/src/draw/../misc/lv_color.h **** # define LV_COLOR_GET_G32(c) (c).ch.green
 181:Middlewares/lvgl/src/draw/../misc/lv_color.h **** # define LV_COLOR_GET_B32(c) (c).ch.blue
 182:Middlewares/lvgl/src/draw/../misc/lv_color.h **** # define LV_COLOR_GET_A32(c) (c).ch.alpha
 183:Middlewares/lvgl/src/draw/../misc/lv_color.h **** 
 184:Middlewares/lvgl/src/draw/../misc/lv_color.h **** # define _LV_COLOR_ZERO_INITIALIZER32  {{0x00, 0x00, 0x00, 0x00}}
 185:Middlewares/lvgl/src/draw/../misc/lv_color.h **** # define LV_COLOR_MAKE32(r8, g8, b8) {{b8, g8, r8, 0xff}} /*Fix 0xff alpha*/
 186:Middlewares/lvgl/src/draw/../misc/lv_color.h **** 
 187:Middlewares/lvgl/src/draw/../misc/lv_color.h **** /*---------------------------------------
 188:Middlewares/lvgl/src/draw/../misc/lv_color.h ****  * Macros for the current color depth
 189:Middlewares/lvgl/src/draw/../misc/lv_color.h ****  * to set/get values of the color channels
 190:Middlewares/lvgl/src/draw/../misc/lv_color.h ****  *------------------------------------------*/
 191:Middlewares/lvgl/src/draw/../misc/lv_color.h **** #define LV_COLOR_SET_R(c, v) LV_CONCAT(LV_COLOR_SET_R, LV_COLOR_DEPTH)(c, v)
 192:Middlewares/lvgl/src/draw/../misc/lv_color.h **** #define LV_COLOR_SET_G(c, v) LV_CONCAT(LV_COLOR_SET_G, LV_COLOR_DEPTH)(c, v)
 193:Middlewares/lvgl/src/draw/../misc/lv_color.h **** #define LV_COLOR_SET_B(c, v) LV_CONCAT(LV_COLOR_SET_B, LV_COLOR_DEPTH)(c, v)
 194:Middlewares/lvgl/src/draw/../misc/lv_color.h **** #define LV_COLOR_SET_A(c, v) LV_CONCAT(LV_COLOR_SET_A, LV_COLOR_DEPTH)(c, v)
 195:Middlewares/lvgl/src/draw/../misc/lv_color.h **** 
 196:Middlewares/lvgl/src/draw/../misc/lv_color.h **** #define LV_COLOR_GET_R(c) LV_CONCAT(LV_COLOR_GET_R, LV_COLOR_DEPTH)(c)
 197:Middlewares/lvgl/src/draw/../misc/lv_color.h **** #define LV_COLOR_GET_G(c) LV_CONCAT(LV_COLOR_GET_G, LV_COLOR_DEPTH)(c)
 198:Middlewares/lvgl/src/draw/../misc/lv_color.h **** #define LV_COLOR_GET_B(c) LV_CONCAT(LV_COLOR_GET_B, LV_COLOR_DEPTH)(c)
 199:Middlewares/lvgl/src/draw/../misc/lv_color.h **** #define LV_COLOR_GET_A(c) LV_CONCAT(LV_COLOR_GET_A, LV_COLOR_DEPTH)(c)
 200:Middlewares/lvgl/src/draw/../misc/lv_color.h **** 
 201:Middlewares/lvgl/src/draw/../misc/lv_color.h **** #define _LV_COLOR_ZERO_INITIALIZER LV_CONCAT(_LV_COLOR_ZERO_INITIALIZER, LV_COLOR_DEPTH)
 202:Middlewares/lvgl/src/draw/../misc/lv_color.h **** #define LV_COLOR_MAKE(r8, g8, b8) LV_CONCAT(LV_COLOR_MAKE, LV_COLOR_DEPTH)(r8, g8, b8)
 203:Middlewares/lvgl/src/draw/../misc/lv_color.h **** 
 204:Middlewares/lvgl/src/draw/../misc/lv_color.h **** #define LV_UDIV255(x) ((uint32_t)((uint32_t) (x) * 0x8081) >> 0x17)
 205:Middlewares/lvgl/src/draw/../misc/lv_color.h **** 
 206:Middlewares/lvgl/src/draw/../misc/lv_color.h **** /**********************
 207:Middlewares/lvgl/src/draw/../misc/lv_color.h ****  *      TYPEDEFS
 208:Middlewares/lvgl/src/draw/../misc/lv_color.h ****  **********************/
 209:Middlewares/lvgl/src/draw/../misc/lv_color.h **** 
 210:Middlewares/lvgl/src/draw/../misc/lv_color.h **** typedef union {
 211:Middlewares/lvgl/src/draw/../misc/lv_color.h ****     uint8_t full; /*must be declared first to set all bits of byte via initializer list*/
 212:Middlewares/lvgl/src/draw/../misc/lv_color.h ****     union {
 213:Middlewares/lvgl/src/draw/../misc/lv_color.h ****         uint8_t blue : 1;
 214:Middlewares/lvgl/src/draw/../misc/lv_color.h ****         uint8_t green : 1;
 215:Middlewares/lvgl/src/draw/../misc/lv_color.h ****         uint8_t red : 1;
 216:Middlewares/lvgl/src/draw/../misc/lv_color.h ****     } ch;
 217:Middlewares/lvgl/src/draw/../misc/lv_color.h **** } lv_color1_t;
 218:Middlewares/lvgl/src/draw/../misc/lv_color.h **** 
 219:Middlewares/lvgl/src/draw/../misc/lv_color.h **** typedef union {
 220:Middlewares/lvgl/src/draw/../misc/lv_color.h ****     struct {
 221:Middlewares/lvgl/src/draw/../misc/lv_color.h ****         uint8_t blue : 2;
 222:Middlewares/lvgl/src/draw/../misc/lv_color.h ****         uint8_t green : 3;
 223:Middlewares/lvgl/src/draw/../misc/lv_color.h ****         uint8_t red : 3;
 224:Middlewares/lvgl/src/draw/../misc/lv_color.h ****     } ch;
 225:Middlewares/lvgl/src/draw/../misc/lv_color.h ****     uint8_t full;
 226:Middlewares/lvgl/src/draw/../misc/lv_color.h **** } lv_color8_t;
 227:Middlewares/lvgl/src/draw/../misc/lv_color.h **** 
 228:Middlewares/lvgl/src/draw/../misc/lv_color.h **** typedef union {
 229:Middlewares/lvgl/src/draw/../misc/lv_color.h ****     struct {
 230:Middlewares/lvgl/src/draw/../misc/lv_color.h **** #if LV_COLOR_16_SWAP == 0
 231:Middlewares/lvgl/src/draw/../misc/lv_color.h ****         uint16_t blue : 5;
 232:Middlewares/lvgl/src/draw/../misc/lv_color.h ****         uint16_t green : 6;
 233:Middlewares/lvgl/src/draw/../misc/lv_color.h ****         uint16_t red : 5;
 234:Middlewares/lvgl/src/draw/../misc/lv_color.h **** #else
ARM GAS  /tmp/ccUpPomB.s 			page 191


 235:Middlewares/lvgl/src/draw/../misc/lv_color.h ****         uint16_t green_h : 3;
 236:Middlewares/lvgl/src/draw/../misc/lv_color.h ****         uint16_t red : 5;
 237:Middlewares/lvgl/src/draw/../misc/lv_color.h ****         uint16_t blue : 5;
 238:Middlewares/lvgl/src/draw/../misc/lv_color.h ****         uint16_t green_l : 3;
 239:Middlewares/lvgl/src/draw/../misc/lv_color.h **** #endif
 240:Middlewares/lvgl/src/draw/../misc/lv_color.h ****     } ch;
 241:Middlewares/lvgl/src/draw/../misc/lv_color.h ****     uint16_t full;
 242:Middlewares/lvgl/src/draw/../misc/lv_color.h **** } lv_color16_t;
 243:Middlewares/lvgl/src/draw/../misc/lv_color.h **** 
 244:Middlewares/lvgl/src/draw/../misc/lv_color.h **** typedef union {
 245:Middlewares/lvgl/src/draw/../misc/lv_color.h ****     struct {
 246:Middlewares/lvgl/src/draw/../misc/lv_color.h ****         uint8_t blue;
 247:Middlewares/lvgl/src/draw/../misc/lv_color.h ****         uint8_t green;
 248:Middlewares/lvgl/src/draw/../misc/lv_color.h ****         uint8_t red;
 249:Middlewares/lvgl/src/draw/../misc/lv_color.h ****         uint8_t alpha;
 250:Middlewares/lvgl/src/draw/../misc/lv_color.h ****     } ch;
 251:Middlewares/lvgl/src/draw/../misc/lv_color.h ****     uint32_t full;
 252:Middlewares/lvgl/src/draw/../misc/lv_color.h **** } lv_color32_t;
 253:Middlewares/lvgl/src/draw/../misc/lv_color.h **** 
 254:Middlewares/lvgl/src/draw/../misc/lv_color.h **** typedef LV_CONCAT3(uint, LV_COLOR_SIZE, _t) lv_color_int_t;
 255:Middlewares/lvgl/src/draw/../misc/lv_color.h **** typedef LV_CONCAT3(lv_color, LV_COLOR_DEPTH, _t) lv_color_t;
 256:Middlewares/lvgl/src/draw/../misc/lv_color.h **** 
 257:Middlewares/lvgl/src/draw/../misc/lv_color.h **** typedef struct {
 258:Middlewares/lvgl/src/draw/../misc/lv_color.h ****     uint16_t h;
 259:Middlewares/lvgl/src/draw/../misc/lv_color.h ****     uint8_t s;
 260:Middlewares/lvgl/src/draw/../misc/lv_color.h ****     uint8_t v;
 261:Middlewares/lvgl/src/draw/../misc/lv_color.h **** } lv_color_hsv_t;
 262:Middlewares/lvgl/src/draw/../misc/lv_color.h **** 
 263:Middlewares/lvgl/src/draw/../misc/lv_color.h **** //! @cond Doxygen_Suppress
 264:Middlewares/lvgl/src/draw/../misc/lv_color.h **** /*No idea where the guard is required but else throws warnings in the docs*/
 265:Middlewares/lvgl/src/draw/../misc/lv_color.h **** typedef uint8_t lv_opa_t;
 266:Middlewares/lvgl/src/draw/../misc/lv_color.h **** //! @endcond
 267:Middlewares/lvgl/src/draw/../misc/lv_color.h **** 
 268:Middlewares/lvgl/src/draw/../misc/lv_color.h **** struct _lv_color_filter_dsc_t;
 269:Middlewares/lvgl/src/draw/../misc/lv_color.h **** 
 270:Middlewares/lvgl/src/draw/../misc/lv_color.h **** typedef lv_color_t (*lv_color_filter_cb_t)(const struct _lv_color_filter_dsc_t *, lv_color_t, lv_op
 271:Middlewares/lvgl/src/draw/../misc/lv_color.h **** 
 272:Middlewares/lvgl/src/draw/../misc/lv_color.h **** typedef struct _lv_color_filter_dsc_t {
 273:Middlewares/lvgl/src/draw/../misc/lv_color.h ****     lv_color_filter_cb_t filter_cb;
 274:Middlewares/lvgl/src/draw/../misc/lv_color.h ****     void * user_data;
 275:Middlewares/lvgl/src/draw/../misc/lv_color.h **** }lv_color_filter_dsc_t;
 276:Middlewares/lvgl/src/draw/../misc/lv_color.h **** 
 277:Middlewares/lvgl/src/draw/../misc/lv_color.h **** 
 278:Middlewares/lvgl/src/draw/../misc/lv_color.h **** typedef enum {
 279:Middlewares/lvgl/src/draw/../misc/lv_color.h ****     LV_PALETTE_RED,
 280:Middlewares/lvgl/src/draw/../misc/lv_color.h ****     LV_PALETTE_PINK,
 281:Middlewares/lvgl/src/draw/../misc/lv_color.h ****     LV_PALETTE_PURPLE,
 282:Middlewares/lvgl/src/draw/../misc/lv_color.h ****     LV_PALETTE_DEEP_PURPLE,
 283:Middlewares/lvgl/src/draw/../misc/lv_color.h ****     LV_PALETTE_INDIGO,
 284:Middlewares/lvgl/src/draw/../misc/lv_color.h ****     LV_PALETTE_BLUE,
 285:Middlewares/lvgl/src/draw/../misc/lv_color.h ****     LV_PALETTE_LIGHT_BLUE,
 286:Middlewares/lvgl/src/draw/../misc/lv_color.h ****     LV_PALETTE_CYAN,
 287:Middlewares/lvgl/src/draw/../misc/lv_color.h ****     LV_PALETTE_TEAL,
 288:Middlewares/lvgl/src/draw/../misc/lv_color.h ****     LV_PALETTE_GREEN,
 289:Middlewares/lvgl/src/draw/../misc/lv_color.h ****     LV_PALETTE_LIGHT_GREEN,
 290:Middlewares/lvgl/src/draw/../misc/lv_color.h ****     LV_PALETTE_LIME,
 291:Middlewares/lvgl/src/draw/../misc/lv_color.h ****     LV_PALETTE_YELLOW,
ARM GAS  /tmp/ccUpPomB.s 			page 192


 292:Middlewares/lvgl/src/draw/../misc/lv_color.h ****     LV_PALETTE_AMBER,
 293:Middlewares/lvgl/src/draw/../misc/lv_color.h ****     LV_PALETTE_ORANGE,
 294:Middlewares/lvgl/src/draw/../misc/lv_color.h ****     LV_PALETTE_DEEP_ORANGE,
 295:Middlewares/lvgl/src/draw/../misc/lv_color.h ****     LV_PALETTE_BROWN,
 296:Middlewares/lvgl/src/draw/../misc/lv_color.h ****     LV_PALETTE_BLUE_GREY,
 297:Middlewares/lvgl/src/draw/../misc/lv_color.h ****     LV_PALETTE_GREY,
 298:Middlewares/lvgl/src/draw/../misc/lv_color.h ****     _LV_PALETTE_LAST,
 299:Middlewares/lvgl/src/draw/../misc/lv_color.h ****     LV_PALETTE_NONE = 0xff,
 300:Middlewares/lvgl/src/draw/../misc/lv_color.h **** }lv_palette_t;
 301:Middlewares/lvgl/src/draw/../misc/lv_color.h **** 
 302:Middlewares/lvgl/src/draw/../misc/lv_color.h **** /**********************
 303:Middlewares/lvgl/src/draw/../misc/lv_color.h ****  * GLOBAL PROTOTYPES
 304:Middlewares/lvgl/src/draw/../misc/lv_color.h ****  **********************/
 305:Middlewares/lvgl/src/draw/../misc/lv_color.h **** 
 306:Middlewares/lvgl/src/draw/../misc/lv_color.h **** /*In color conversations:
 307:Middlewares/lvgl/src/draw/../misc/lv_color.h ****  * - When converting to bigger color type the LSB weight of 1 LSB is calculated
 308:Middlewares/lvgl/src/draw/../misc/lv_color.h ****  *   E.g. 16 bit Red has 5 bits
 309:Middlewares/lvgl/src/draw/../misc/lv_color.h ****  *         8 bit Red has 3 bits
 310:Middlewares/lvgl/src/draw/../misc/lv_color.h ****  *        ----------------------
 311:Middlewares/lvgl/src/draw/../misc/lv_color.h ****  *        8 bit red LSB = (2^5 - 1) / (2^3 - 1) = 31 / 7 = 4
 312:Middlewares/lvgl/src/draw/../misc/lv_color.h ****  *
 313:Middlewares/lvgl/src/draw/../misc/lv_color.h ****  * - When calculating to smaller color type simply shift out the LSBs
 314:Middlewares/lvgl/src/draw/../misc/lv_color.h ****  *   E.g.  8 bit Red has 3 bits
 315:Middlewares/lvgl/src/draw/../misc/lv_color.h ****  *        16 bit Red has 5 bits
 316:Middlewares/lvgl/src/draw/../misc/lv_color.h ****  *        ----------------------
 317:Middlewares/lvgl/src/draw/../misc/lv_color.h ****  *         Shift right with 5 - 3 = 2
 318:Middlewares/lvgl/src/draw/../misc/lv_color.h ****  */
 319:Middlewares/lvgl/src/draw/../misc/lv_color.h **** static inline uint8_t lv_color_to1(lv_color_t color)
 320:Middlewares/lvgl/src/draw/../misc/lv_color.h **** {
 321:Middlewares/lvgl/src/draw/../misc/lv_color.h **** #if LV_COLOR_DEPTH == 1
 322:Middlewares/lvgl/src/draw/../misc/lv_color.h ****     return color.full;
 323:Middlewares/lvgl/src/draw/../misc/lv_color.h **** #elif LV_COLOR_DEPTH == 8
 324:Middlewares/lvgl/src/draw/../misc/lv_color.h ****     if((LV_COLOR_GET_R(color) & 0x4) || (LV_COLOR_GET_G(color) & 0x4) || (LV_COLOR_GET_B(color) & 0
 325:Middlewares/lvgl/src/draw/../misc/lv_color.h ****         return 1;
 326:Middlewares/lvgl/src/draw/../misc/lv_color.h ****     }
 327:Middlewares/lvgl/src/draw/../misc/lv_color.h ****     else {
 328:Middlewares/lvgl/src/draw/../misc/lv_color.h ****         return 0;
 329:Middlewares/lvgl/src/draw/../misc/lv_color.h ****     }
 330:Middlewares/lvgl/src/draw/../misc/lv_color.h **** #elif LV_COLOR_DEPTH == 16
 331:Middlewares/lvgl/src/draw/../misc/lv_color.h ****     if((LV_COLOR_GET_R(color) & 0x10) || (LV_COLOR_GET_G(color) & 0x20) || (LV_COLOR_GET_B(color) &
 332:Middlewares/lvgl/src/draw/../misc/lv_color.h ****         return 1;
 333:Middlewares/lvgl/src/draw/../misc/lv_color.h ****     }
 334:Middlewares/lvgl/src/draw/../misc/lv_color.h ****     else {
 335:Middlewares/lvgl/src/draw/../misc/lv_color.h ****         return 0;
 336:Middlewares/lvgl/src/draw/../misc/lv_color.h ****     }
 337:Middlewares/lvgl/src/draw/../misc/lv_color.h **** #elif LV_COLOR_DEPTH == 32
 338:Middlewares/lvgl/src/draw/../misc/lv_color.h ****     if((LV_COLOR_GET_R(color) & 0x80) || (LV_COLOR_GET_G(color) & 0x80) || (LV_COLOR_GET_B(color) &
 339:Middlewares/lvgl/src/draw/../misc/lv_color.h ****         return 1;
 340:Middlewares/lvgl/src/draw/../misc/lv_color.h ****     }
 341:Middlewares/lvgl/src/draw/../misc/lv_color.h ****     else {
 342:Middlewares/lvgl/src/draw/../misc/lv_color.h ****         return 0;
 343:Middlewares/lvgl/src/draw/../misc/lv_color.h ****     }
 344:Middlewares/lvgl/src/draw/../misc/lv_color.h **** #endif
 345:Middlewares/lvgl/src/draw/../misc/lv_color.h **** }
 346:Middlewares/lvgl/src/draw/../misc/lv_color.h **** 
 347:Middlewares/lvgl/src/draw/../misc/lv_color.h **** static inline uint8_t lv_color_to8(lv_color_t color)
 348:Middlewares/lvgl/src/draw/../misc/lv_color.h **** {
ARM GAS  /tmp/ccUpPomB.s 			page 193


 349:Middlewares/lvgl/src/draw/../misc/lv_color.h **** #if LV_COLOR_DEPTH == 1
 350:Middlewares/lvgl/src/draw/../misc/lv_color.h ****     if(color.full == 0)
 351:Middlewares/lvgl/src/draw/../misc/lv_color.h ****         return 0;
 352:Middlewares/lvgl/src/draw/../misc/lv_color.h ****     else
 353:Middlewares/lvgl/src/draw/../misc/lv_color.h ****         return 0xFF;
 354:Middlewares/lvgl/src/draw/../misc/lv_color.h **** #elif LV_COLOR_DEPTH == 8
 355:Middlewares/lvgl/src/draw/../misc/lv_color.h ****     return color.full;
 356:Middlewares/lvgl/src/draw/../misc/lv_color.h **** #elif LV_COLOR_DEPTH == 16
 357:Middlewares/lvgl/src/draw/../misc/lv_color.h ****     lv_color8_t ret;
 358:Middlewares/lvgl/src/draw/../misc/lv_color.h ****     LV_COLOR_SET_R8(ret, LV_COLOR_GET_R(color) >> 2); /*5 - 3  = 2*/
 359:Middlewares/lvgl/src/draw/../misc/lv_color.h ****     LV_COLOR_SET_G8(ret, LV_COLOR_GET_G(color) >> 3); /*6 - 3  = 3*/
 360:Middlewares/lvgl/src/draw/../misc/lv_color.h ****     LV_COLOR_SET_B8(ret, LV_COLOR_GET_B(color) >> 3); /*5 - 2  = 3*/
 361:Middlewares/lvgl/src/draw/../misc/lv_color.h ****     return ret.full;
 362:Middlewares/lvgl/src/draw/../misc/lv_color.h **** #elif LV_COLOR_DEPTH == 32
 363:Middlewares/lvgl/src/draw/../misc/lv_color.h ****     lv_color8_t ret;
 364:Middlewares/lvgl/src/draw/../misc/lv_color.h ****     LV_COLOR_SET_R8(ret, LV_COLOR_GET_R(color) >> 5); /*8 - 3  = 5*/
 365:Middlewares/lvgl/src/draw/../misc/lv_color.h ****     LV_COLOR_SET_G8(ret, LV_COLOR_GET_G(color) >> 5); /*8 - 3  = 5*/
 366:Middlewares/lvgl/src/draw/../misc/lv_color.h ****     LV_COLOR_SET_B8(ret, LV_COLOR_GET_B(color) >> 6); /*8 - 2  = 6*/
 367:Middlewares/lvgl/src/draw/../misc/lv_color.h ****     return ret.full;
 368:Middlewares/lvgl/src/draw/../misc/lv_color.h **** #endif
 369:Middlewares/lvgl/src/draw/../misc/lv_color.h **** }
 370:Middlewares/lvgl/src/draw/../misc/lv_color.h **** 
 371:Middlewares/lvgl/src/draw/../misc/lv_color.h **** static inline uint16_t lv_color_to16(lv_color_t color)
 372:Middlewares/lvgl/src/draw/../misc/lv_color.h **** {
 373:Middlewares/lvgl/src/draw/../misc/lv_color.h **** #if LV_COLOR_DEPTH == 1
 374:Middlewares/lvgl/src/draw/../misc/lv_color.h ****     if(color.full == 0)
 375:Middlewares/lvgl/src/draw/../misc/lv_color.h ****         return 0;
 376:Middlewares/lvgl/src/draw/../misc/lv_color.h ****     else
 377:Middlewares/lvgl/src/draw/../misc/lv_color.h ****         return 0xFFFF;
 378:Middlewares/lvgl/src/draw/../misc/lv_color.h **** #elif LV_COLOR_DEPTH == 8
 379:Middlewares/lvgl/src/draw/../misc/lv_color.h ****     lv_color16_t ret;
 380:Middlewares/lvgl/src/draw/../misc/lv_color.h ****     LV_COLOR_SET_R16(ret, LV_COLOR_GET_R(color) * 4);  /*(2^5 - 1)/(2^3 - 1) = 31/7 = 4*/
 381:Middlewares/lvgl/src/draw/../misc/lv_color.h ****     LV_COLOR_SET_G16(ret, LV_COLOR_GET_G(color) * 9);  /*(2^6 - 1)/(2^3 - 1) = 63/7 = 9*/
 382:Middlewares/lvgl/src/draw/../misc/lv_color.h ****     LV_COLOR_SET_B16(ret, LV_COLOR_GET_B(color) * 10); /*(2^5 - 1)/(2^2 - 1) = 31/3 = 10*/
 383:Middlewares/lvgl/src/draw/../misc/lv_color.h ****     return ret.full;
 384:Middlewares/lvgl/src/draw/../misc/lv_color.h **** #elif LV_COLOR_DEPTH == 16
 385:Middlewares/lvgl/src/draw/../misc/lv_color.h ****     return color.full;
 386:Middlewares/lvgl/src/draw/../misc/lv_color.h **** #elif LV_COLOR_DEPTH == 32
 387:Middlewares/lvgl/src/draw/../misc/lv_color.h ****     lv_color16_t ret;
 388:Middlewares/lvgl/src/draw/../misc/lv_color.h ****     LV_COLOR_SET_R16(ret, LV_COLOR_GET_R(color) >> 3); /*8 - 5  = 3*/
 389:Middlewares/lvgl/src/draw/../misc/lv_color.h ****     LV_COLOR_SET_G16(ret, LV_COLOR_GET_G(color) >> 2); /*8 - 6  = 2*/
 390:Middlewares/lvgl/src/draw/../misc/lv_color.h ****     LV_COLOR_SET_B16(ret, LV_COLOR_GET_B(color) >> 3); /*8 - 5  = 3*/
 391:Middlewares/lvgl/src/draw/../misc/lv_color.h ****     return ret.full;
 392:Middlewares/lvgl/src/draw/../misc/lv_color.h **** #endif
 393:Middlewares/lvgl/src/draw/../misc/lv_color.h **** }
 394:Middlewares/lvgl/src/draw/../misc/lv_color.h **** 
 395:Middlewares/lvgl/src/draw/../misc/lv_color.h **** static inline uint32_t lv_color_to32(lv_color_t color)
 396:Middlewares/lvgl/src/draw/../misc/lv_color.h **** {
 397:Middlewares/lvgl/src/draw/../misc/lv_color.h **** #if LV_COLOR_DEPTH == 1
 398:Middlewares/lvgl/src/draw/../misc/lv_color.h ****     if(color.full == 0)
 399:Middlewares/lvgl/src/draw/../misc/lv_color.h ****         return 0xFF000000;
 400:Middlewares/lvgl/src/draw/../misc/lv_color.h ****     else
 401:Middlewares/lvgl/src/draw/../misc/lv_color.h ****         return 0xFFFFFFFF;
 402:Middlewares/lvgl/src/draw/../misc/lv_color.h **** #elif LV_COLOR_DEPTH == 8
 403:Middlewares/lvgl/src/draw/../misc/lv_color.h ****     lv_color32_t ret;
 404:Middlewares/lvgl/src/draw/../misc/lv_color.h ****     LV_COLOR_SET_R32(ret, LV_COLOR_GET_R(color) * 36); /*(2^8 - 1)/(2^3 - 1) = 255/7 = 36*/
 405:Middlewares/lvgl/src/draw/../misc/lv_color.h ****     LV_COLOR_SET_G32(ret, LV_COLOR_GET_G(color) * 36); /*(2^8 - 1)/(2^3 - 1) = 255/7 = 36*/
ARM GAS  /tmp/ccUpPomB.s 			page 194


 406:Middlewares/lvgl/src/draw/../misc/lv_color.h ****     LV_COLOR_SET_B32(ret, LV_COLOR_GET_B(color) * 85); /*(2^8 - 1)/(2^2 - 1) = 255/3 = 85*/
 407:Middlewares/lvgl/src/draw/../misc/lv_color.h ****     LV_COLOR_SET_A32(ret, 0xFF);
 408:Middlewares/lvgl/src/draw/../misc/lv_color.h ****     return ret.full;
 409:Middlewares/lvgl/src/draw/../misc/lv_color.h **** #elif LV_COLOR_DEPTH == 16
 410:Middlewares/lvgl/src/draw/../misc/lv_color.h ****     /**
 411:Middlewares/lvgl/src/draw/../misc/lv_color.h ****      * The floating point math for conversion is:
 412:Middlewares/lvgl/src/draw/../misc/lv_color.h ****      *  valueto = valuefrom * ( (2^bitsto - 1) / (float)(2^bitsfrom - 1) )
 413:Middlewares/lvgl/src/draw/../misc/lv_color.h ****      * The faster integer math for conversion is:
 414:Middlewares/lvgl/src/draw/../misc/lv_color.h ****      *  valueto = ( valuefrom * multiplier + adder ) >> divisor
 415:Middlewares/lvgl/src/draw/../misc/lv_color.h ****      *   multiplier = FLOOR( ( (2^bitsto - 1) << divisor ) / (float)(2^bitsfrom - 1) )
 416:Middlewares/lvgl/src/draw/../misc/lv_color.h ****      *
 417:Middlewares/lvgl/src/draw/../misc/lv_color.h ****      * Find the first divisor where ( adder >> divisor ) <= 0
 418:Middlewares/lvgl/src/draw/../misc/lv_color.h ****      *
 419:Middlewares/lvgl/src/draw/../misc/lv_color.h ****      * 5-bit to 8-bit: ( 31 * multiplier + adder ) >> divisor = 255
 420:Middlewares/lvgl/src/draw/../misc/lv_color.h ****      * divisor  multiplier  adder  min (0)  max (31)
 421:Middlewares/lvgl/src/draw/../misc/lv_color.h ****      *       0           8      7        7       255
 422:Middlewares/lvgl/src/draw/../misc/lv_color.h ****      *       1          16     14        7       255
 423:Middlewares/lvgl/src/draw/../misc/lv_color.h ****      *       2          32     28        7       255
 424:Middlewares/lvgl/src/draw/../misc/lv_color.h ****      *       3          65     25        3       255
 425:Middlewares/lvgl/src/draw/../misc/lv_color.h ****      *       4         131     19        1       255
 426:Middlewares/lvgl/src/draw/../misc/lv_color.h ****      *       5         263      7        0       255
 427:Middlewares/lvgl/src/draw/../misc/lv_color.h ****      *
 428:Middlewares/lvgl/src/draw/../misc/lv_color.h ****      * 6-bit to 8-bit: 255 = ( 63 * multiplier + adder ) >> divisor
 429:Middlewares/lvgl/src/draw/../misc/lv_color.h ****      * divisor  multiplier  adder  min (0)  max (63)
 430:Middlewares/lvgl/src/draw/../misc/lv_color.h ****      *       0           4      3        3       255
 431:Middlewares/lvgl/src/draw/../misc/lv_color.h ****      *       1           8      6        3       255
 432:Middlewares/lvgl/src/draw/../misc/lv_color.h ****      *       2          16     12        3       255
 433:Middlewares/lvgl/src/draw/../misc/lv_color.h ****      *       3          32     24        3       255
 434:Middlewares/lvgl/src/draw/../misc/lv_color.h ****      *       4          64     48        3       255
 435:Middlewares/lvgl/src/draw/../misc/lv_color.h ****      *       5         129     33        1       255
 436:Middlewares/lvgl/src/draw/../misc/lv_color.h ****      *       6         259      3        0       255
 437:Middlewares/lvgl/src/draw/../misc/lv_color.h ****      */
 438:Middlewares/lvgl/src/draw/../misc/lv_color.h **** 
 439:Middlewares/lvgl/src/draw/../misc/lv_color.h ****     lv_color32_t ret;
 440:Middlewares/lvgl/src/draw/../misc/lv_color.h ****     LV_COLOR_SET_R32(ret, (LV_COLOR_GET_R(color) * 263 + 7) >> 5);
 441:Middlewares/lvgl/src/draw/../misc/lv_color.h ****     LV_COLOR_SET_G32(ret, (LV_COLOR_GET_G(color) * 259 + 3) >> 6);
 442:Middlewares/lvgl/src/draw/../misc/lv_color.h ****     LV_COLOR_SET_B32(ret, (LV_COLOR_GET_B(color) * 263 + 7) >> 5);
 443:Middlewares/lvgl/src/draw/../misc/lv_color.h ****     LV_COLOR_SET_A32(ret, 0xFF);
 444:Middlewares/lvgl/src/draw/../misc/lv_color.h ****     return ret.full;
 445:Middlewares/lvgl/src/draw/../misc/lv_color.h **** #elif LV_COLOR_DEPTH == 32
 446:Middlewares/lvgl/src/draw/../misc/lv_color.h ****     return color.full;
 447:Middlewares/lvgl/src/draw/../misc/lv_color.h **** #endif
 448:Middlewares/lvgl/src/draw/../misc/lv_color.h **** }
 449:Middlewares/lvgl/src/draw/../misc/lv_color.h **** 
 450:Middlewares/lvgl/src/draw/../misc/lv_color.h **** //! @cond Doxygen_Suppress
 451:Middlewares/lvgl/src/draw/../misc/lv_color.h **** 
 452:Middlewares/lvgl/src/draw/../misc/lv_color.h **** /**
 453:Middlewares/lvgl/src/draw/../misc/lv_color.h ****  * Mix two colors with a given ratio.
 454:Middlewares/lvgl/src/draw/../misc/lv_color.h ****  * @param c1 the first color to mix (usually the foreground)
 455:Middlewares/lvgl/src/draw/../misc/lv_color.h ****  * @param c2 the second color to mix (usually the background)
 456:Middlewares/lvgl/src/draw/../misc/lv_color.h ****  * @param mix The ratio of the colors. 0: full `c2`, 255: full `c1`, 127: half `c1` and half`c2`
 457:Middlewares/lvgl/src/draw/../misc/lv_color.h ****  * @return the mixed color
 458:Middlewares/lvgl/src/draw/../misc/lv_color.h ****  */
 459:Middlewares/lvgl/src/draw/../misc/lv_color.h **** LV_ATTRIBUTE_FAST_MEM static inline lv_color_t lv_color_mix(lv_color_t c1, lv_color_t c2, uint8_t m
 6792              		.loc 3 459 48 is_stmt 1 view .LVU2543
 6793              	.LBB389:
 460:Middlewares/lvgl/src/draw/../misc/lv_color.h **** {
ARM GAS  /tmp/ccUpPomB.s 			page 195


 461:Middlewares/lvgl/src/draw/../misc/lv_color.h ****     lv_color_t ret;
 6794              		.loc 3 461 5 view .LVU2544
 462:Middlewares/lvgl/src/draw/../misc/lv_color.h **** #if LV_COLOR_DEPTH != 1
 463:Middlewares/lvgl/src/draw/../misc/lv_color.h ****     /*LV_COLOR_DEPTH == 8, 16 or 32*/
 464:Middlewares/lvgl/src/draw/../misc/lv_color.h ****     LV_COLOR_SET_R(ret, LV_UDIV255((uint16_t) LV_COLOR_GET_R(c1) * mix + LV_COLOR_GET_R(c2) *
 6795              		.loc 3 464 5 view .LVU2545
 6796              		.loc 3 464 5 is_stmt 0 view .LVU2546
 6797 0228 C7F3C42B 		ubfx	fp, r7, #11, #5
 6798              	.LVL623:
 6799              		.loc 3 464 5 view .LVU2547
 6800 022c CCF3C421 		ubfx	r1, ip, #11, #5
 6801              	.LVL624:
 6802              		.loc 3 464 5 view .LVU2548
 6803 0230 C3F1FF02 		rsb	r2, r3, #255
 6804 0234 02FB01F1 		mul	r1, r2, r1
 6805 0238 03FB0B11 		mla	r1, r3, fp, r1
 6806 023c 8031     		adds	r1, r1, #128
 6807 023e 01EB012B 		add	fp, r1, r1, lsl #8
 6808 0242 01EBCB11 		add	r1, r1, fp, lsl #7
 6809 0246 C1F3C451 		ubfx	r1, r1, #23, #5
 6810 024a 61F3CF26 		bfi	r6, r1, #11, #5
 465:Middlewares/lvgl/src/draw/../misc/lv_color.h ****                                         (255 - mix) + LV_COLOR_MIX_ROUND_OFS));
 466:Middlewares/lvgl/src/draw/../misc/lv_color.h ****     LV_COLOR_SET_G(ret, LV_UDIV255((uint16_t) LV_COLOR_GET_G(c1) * mix + LV_COLOR_GET_G(c2) *
 6811              		.loc 3 466 5 is_stmt 1 view .LVU2549
 6812 024e C7F3451B 		ubfx	fp, r7, #5, #6
 6813 0252 CCF34511 		ubfx	r1, ip, #5, #6
 6814 0256 02FB01F1 		mul	r1, r2, r1
 6815 025a 0BFB0311 		mla	r1, fp, r3, r1
 6816 025e 8031     		adds	r1, r1, #128
 6817 0260 01EB012B 		add	fp, r1, r1, lsl #8
 6818 0264 01EBCB11 		add	r1, r1, fp, lsl #7
 6819 0268 C1F3C551 		ubfx	r1, r1, #23, #6
 6820 026c 61F34A16 		bfi	r6, r1, #5, #6
 467:Middlewares/lvgl/src/draw/../misc/lv_color.h ****                                         (255 - mix) + LV_COLOR_MIX_ROUND_OFS));
 468:Middlewares/lvgl/src/draw/../misc/lv_color.h ****     LV_COLOR_SET_B(ret, LV_UDIV255((uint16_t) LV_COLOR_GET_B(c1) * mix + LV_COLOR_GET_B(c2) *
 6821              		.loc 3 468 5 view .LVU2550
 6822 0270 07F01F07 		and	r7, r7, #31
 6823              	.LVL625:
 6824              		.loc 3 468 5 is_stmt 0 view .LVU2551
 6825 0274 0CF01F0C 		and	ip, ip, #31
 6826              	.LVL626:
 6827              		.loc 3 468 5 view .LVU2552
 6828 0278 0CFB02F2 		mul	r2, ip, r2
 6829 027c 07FB0323 		mla	r3, r7, r3, r2
 6830              	.LVL627:
 6831              		.loc 3 468 5 view .LVU2553
 6832 0280 8033     		adds	r3, r3, #128
 6833 0282 03EB0322 		add	r2, r3, r3, lsl #8
 6834 0286 03EBC213 		add	r3, r3, r2, lsl #7
 6835 028a C3F3C453 		ubfx	r3, r3, #23, #5
 6836 028e 63F30406 		bfi	r6, r3, #0, #5
 469:Middlewares/lvgl/src/draw/../misc/lv_color.h ****                                         (255 - mix) + LV_COLOR_MIX_ROUND_OFS));
 470:Middlewares/lvgl/src/draw/../misc/lv_color.h ****     LV_COLOR_SET_A(ret, 0xFF);
 6837              		.loc 3 470 5 is_stmt 1 view .LVU2554
 6838              		.loc 3 470 5 view .LVU2555
 6839              		.loc 3 470 5 view .LVU2556
 471:Middlewares/lvgl/src/draw/../misc/lv_color.h **** #else
ARM GAS  /tmp/ccUpPomB.s 			page 196


 472:Middlewares/lvgl/src/draw/../misc/lv_color.h ****     /*LV_COLOR_DEPTH == 1*/
 473:Middlewares/lvgl/src/draw/../misc/lv_color.h ****     ret.full = mix > LV_OPA_50 ? c1.full : c2.full;
 474:Middlewares/lvgl/src/draw/../misc/lv_color.h **** #endif
 475:Middlewares/lvgl/src/draw/../misc/lv_color.h **** 
 476:Middlewares/lvgl/src/draw/../misc/lv_color.h ****     return ret;
 6840              		.loc 3 476 5 view .LVU2557
 6841 0292 3346     		mov	r3, r6	@ movhi
 6842              	.LVL628:
 6843              	.L312:
 6844              		.loc 3 476 5 is_stmt 0 view .LVU2558
 6845              	.LBE389:
 6846              	.LBE388:
 6847              	.LBE387:
 6848              	.LBE386:
 207:Middlewares/lvgl/src/draw/lv_draw_rect.c ****             }
 6849              		.loc 1 207 31 view .LVU2559
 6850 0294 AEF80030 		strh	r3, [lr]	@ movhi
 206:Middlewares/lvgl/src/draw/lv_draw_rect.c ****                 grad_map[i] = grad_get(dsc, coords_w, i);
 6851              		.loc 1 206 38 is_stmt 1 view .LVU2560
 206:Middlewares/lvgl/src/draw/lv_draw_rect.c ****                 grad_map[i] = grad_get(dsc, coords_w, i);
 6852              		.loc 1 206 39 is_stmt 0 view .LVU2561
 6853 0298 0130     		adds	r0, r0, #1
 6854              	.LVL629:
 6855              	.L310:
 206:Middlewares/lvgl/src/draw/lv_draw_rect.c ****                 grad_map[i] = grad_get(dsc, coords_w, i);
 6856              		.loc 1 206 24 is_stmt 1 discriminator 1 view .LVU2562
 206:Middlewares/lvgl/src/draw/lv_draw_rect.c ****                 grad_map[i] = grad_get(dsc, coords_w, i);
 6857              		.loc 1 206 13 is_stmt 0 discriminator 1 view .LVU2563
 6858 029a A042     		cmp	r0, r4
 6859 029c 11DA     		bge	.L351
 207:Middlewares/lvgl/src/draw/lv_draw_rect.c ****             }
 6860              		.loc 1 207 17 is_stmt 1 discriminator 3 view .LVU2564
 207:Middlewares/lvgl/src/draw/lv_draw_rect.c ****             }
 6861              		.loc 1 207 31 is_stmt 0 discriminator 3 view .LVU2565
 6862 029e 02B2     		sxth	r2, r0
 207:Middlewares/lvgl/src/draw/lv_draw_rect.c ****             }
 6863              		.loc 1 207 25 discriminator 3 view .LVU2566
 6864 02a0 09EB400E 		add	lr, r9, r0, lsl #1
 6865              	.LVL630:
 6866              	.LBB391:
 6867              	.LBI386:
 522:Middlewares/lvgl/src/draw/lv_draw_rect.c **** {
 6868              		.loc 1 522 48 is_stmt 1 discriminator 3 view .LVU2567
 6869              	.LBB390:
 524:Middlewares/lvgl/src/draw/lv_draw_rect.c ****     if(i <= min) return dsc->bg_color;
 6870              		.loc 1 524 5 discriminator 3 view .LVU2568
 524:Middlewares/lvgl/src/draw/lv_draw_rect.c ****     if(i <= min) return dsc->bg_color;
 6871              		.loc 1 524 23 is_stmt 0 discriminator 3 view .LVU2569
 6872 02a4 297A     		ldrb	r1, [r5, #8]	@ zero_extendqisi2
 524:Middlewares/lvgl/src/draw/lv_draw_rect.c ****     if(i <= min) return dsc->bg_color;
 6873              		.loc 1 524 44 discriminator 3 view .LVU2570
 6874 02a6 04FB01F3 		mul	r3, r4, r1
 524:Middlewares/lvgl/src/draw/lv_draw_rect.c ****     if(i <= min) return dsc->bg_color;
 6875              		.loc 1 524 13 discriminator 3 view .LVU2571
 6876 02aa 1F12     		asrs	r7, r3, #8
 6877              	.LVL631:
 525:Middlewares/lvgl/src/draw/lv_draw_rect.c **** 
ARM GAS  /tmp/ccUpPomB.s 			page 197


 6878              		.loc 1 525 5 is_stmt 1 discriminator 3 view .LVU2572
 525:Middlewares/lvgl/src/draw/lv_draw_rect.c **** 
 6879              		.loc 1 525 7 is_stmt 0 discriminator 3 view .LVU2573
 6880 02ac B2EB232F 		cmp	r2, r3, asr #8
 6881 02b0 AADD     		ble	.L352
 527:Middlewares/lvgl/src/draw/lv_draw_rect.c ****     if(i >= max) return dsc->bg_grad_color;
 6882              		.loc 1 527 5 is_stmt 1 view .LVU2574
 527:Middlewares/lvgl/src/draw/lv_draw_rect.c ****     if(i >= max) return dsc->bg_grad_color;
 6883              		.loc 1 527 23 is_stmt 0 view .LVU2575
 6884 02b2 6B7A     		ldrb	r3, [r5, #9]	@ zero_extendqisi2
 527:Middlewares/lvgl/src/draw/lv_draw_rect.c ****     if(i >= max) return dsc->bg_grad_color;
 6885              		.loc 1 527 44 view .LVU2576
 6886 02b4 03FB04FC 		mul	ip, r3, r4
 6887              	.LVL632:
 528:Middlewares/lvgl/src/draw/lv_draw_rect.c **** 
 6888              		.loc 1 528 5 is_stmt 1 view .LVU2577
 528:Middlewares/lvgl/src/draw/lv_draw_rect.c **** 
 6889              		.loc 1 528 7 is_stmt 0 view .LVU2578
 6890 02b8 B2EB2C2F 		cmp	r2, ip, asr #8
 6891 02bc A6DB     		blt	.L313
 528:Middlewares/lvgl/src/draw/lv_draw_rect.c **** 
 6892              		.loc 1 528 18 is_stmt 1 view .LVU2579
 528:Middlewares/lvgl/src/draw/lv_draw_rect.c **** 
 6893              		.loc 1 528 28 is_stmt 0 view .LVU2580
 6894 02be EB88     		ldrh	r3, [r5, #6]
 6895 02c0 E8E7     		b	.L312
 6896              	.LVL633:
 6897              	.L351:
 528:Middlewares/lvgl/src/draw/lv_draw_rect.c **** 
 6898              		.loc 1 528 28 view .LVU2581
 6899 02c2 DDF81490 		ldr	r9, [sp, #20]
 6900              	.LVL634:
 528:Middlewares/lvgl/src/draw/lv_draw_rect.c **** 
 6901              		.loc 1 528 28 view .LVU2582
 6902 02c6 DDF83CB0 		ldr	fp, [sp, #60]
 6903 02ca 55E7     		b	.L309
 6904              	.LVL635:
 6905              	.L357:
 528:Middlewares/lvgl/src/draw/lv_draw_rect.c **** 
 6906              		.loc 1 528 28 view .LVU2583
 6907              	.LBE390:
 6908              	.LBE391:
 6909              	.LBE385:
 6910              	.LBB392:
 231:Middlewares/lvgl/src/draw/lv_draw_rect.c ****                     mask_res = lv_draw_mask_apply(mask_buf, draw_buf->area.x1 + draw_area.x1, draw_
 6911              		.loc 1 231 21 is_stmt 1 view .LVU2584
 6912 02cc 0A9F     		ldr	r7, [sp, #40]
 6913 02ce 3A46     		mov	r2, r7
 6914 02d0 0499     		ldr	r1, [sp, #16]
 6915 02d2 5046     		mov	r0, r10
 6916 02d4 FFF7FEFF 		bl	lv_memset
 6917              	.LVL636:
 232:Middlewares/lvgl/src/draw/lv_draw_rect.c ****                 }
 6918              		.loc 1 232 21 view .LVU2585
 232:Middlewares/lvgl/src/draw/lv_draw_rect.c ****                 }
 6919              		.loc 1 232 75 is_stmt 0 view .LVU2586
 6920 02d8 B8F81010 		ldrh	r1, [r8, #16]
ARM GAS  /tmp/ccUpPomB.s 			page 198


 232:Middlewares/lvgl/src/draw/lv_draw_rect.c ****                 }
 6921              		.loc 1 232 90 view .LVU2587
 6922 02dc BDF87030 		ldrh	r3, [sp, #112]
 232:Middlewares/lvgl/src/draw/lv_draw_rect.c ****                 }
 6923              		.loc 1 232 79 view .LVU2588
 6924 02e0 1944     		add	r1, r1, r3
 232:Middlewares/lvgl/src/draw/lv_draw_rect.c ****                 }
 6925              		.loc 1 232 109 view .LVU2589
 6926 02e2 B8F81220 		ldrh	r2, [r8, #18]
 232:Middlewares/lvgl/src/draw/lv_draw_rect.c ****                 }
 6927              		.loc 1 232 113 view .LVU2590
 6928 02e6 3244     		add	r2, r2, r6
 232:Middlewares/lvgl/src/draw/lv_draw_rect.c ****                 }
 6929              		.loc 1 232 32 view .LVU2591
 6930 02e8 3B46     		mov	r3, r7
 6931 02ea 12B2     		sxth	r2, r2
 6932 02ec 09B2     		sxth	r1, r1
 6933 02ee 5046     		mov	r0, r10
 6934 02f0 FFF7FEFF 		bl	lv_draw_mask_apply
 6935              	.LVL637:
 6936 02f4 0746     		mov	r7, r0
 6937              	.LVL638:
 232:Middlewares/lvgl/src/draw/lv_draw_rect.c ****                 }
 6938              		.loc 1 232 32 view .LVU2592
 6939 02f6 14E0     		b	.L319
 6940              	.LVL639:
 6941              	.L317:
 237:Middlewares/lvgl/src/draw/lv_draw_rect.c ****                 mask_res = lv_draw_mask_apply(mask_buf, draw_buf->area.x1 + draw_area.x1, draw_buf-
 6942              		.loc 1 237 17 is_stmt 1 view .LVU2593
 6943 02f8 0A9F     		ldr	r7, [sp, #40]
 6944 02fa 3A46     		mov	r2, r7
 6945 02fc 0499     		ldr	r1, [sp, #16]
 6946 02fe 5046     		mov	r0, r10
 6947 0300 FFF7FEFF 		bl	lv_memset
 6948              	.LVL640:
 238:Middlewares/lvgl/src/draw/lv_draw_rect.c ****             }
 6949              		.loc 1 238 17 view .LVU2594
 238:Middlewares/lvgl/src/draw/lv_draw_rect.c ****             }
 6950              		.loc 1 238 71 is_stmt 0 view .LVU2595
 6951 0304 B8F81010 		ldrh	r1, [r8, #16]
 238:Middlewares/lvgl/src/draw/lv_draw_rect.c ****             }
 6952              		.loc 1 238 86 view .LVU2596
 6953 0308 BDF87030 		ldrh	r3, [sp, #112]
 238:Middlewares/lvgl/src/draw/lv_draw_rect.c ****             }
 6954              		.loc 1 238 75 view .LVU2597
 6955 030c 1944     		add	r1, r1, r3
 238:Middlewares/lvgl/src/draw/lv_draw_rect.c ****             }
 6956              		.loc 1 238 105 view .LVU2598
 6957 030e B8F81220 		ldrh	r2, [r8, #18]
 238:Middlewares/lvgl/src/draw/lv_draw_rect.c ****             }
 6958              		.loc 1 238 109 view .LVU2599
 6959 0312 3244     		add	r2, r2, r6
 238:Middlewares/lvgl/src/draw/lv_draw_rect.c ****             }
 6960              		.loc 1 238 28 view .LVU2600
 6961 0314 3B46     		mov	r3, r7
 6962 0316 12B2     		sxth	r2, r2
 6963 0318 09B2     		sxth	r1, r1
ARM GAS  /tmp/ccUpPomB.s 			page 199


 6964 031a 5046     		mov	r0, r10
 6965 031c FFF7FEFF 		bl	lv_draw_mask_apply
 6966              	.LVL641:
 6967 0320 0746     		mov	r7, r0
 6968              	.LVL642:
 6969              	.L319:
 242:Middlewares/lvgl/src/draw/lv_draw_rect.c ****                 opa2 = LV_OPA_COVER;
 6970              		.loc 1 242 13 is_stmt 1 view .LVU2601
 242:Middlewares/lvgl/src/draw/lv_draw_rect.c ****                 opa2 = LV_OPA_COVER;
 6971              		.loc 1 242 15 is_stmt 0 view .LVU2602
 6972 0322 022F     		cmp	r7, #2
 6973 0324 00F08880 		beq	.L344
 224:Middlewares/lvgl/src/draw/lv_draw_rect.c **** 
 6974              		.loc 1 224 18 view .LVU2603
 6975 0328 049B     		ldr	r3, [sp, #16]
 6976 032a 0593     		str	r3, [sp, #20]
 6977              	.LVL643:
 6978              	.L318:
 247:Middlewares/lvgl/src/draw/lv_draw_rect.c ****                 grad_color = grad_get(dsc, lv_area_get_height(&coords_bg), y - coords_bg.y1);
 6979              		.loc 1 247 13 is_stmt 1 view .LVU2604
 247:Middlewares/lvgl/src/draw/lv_draw_rect.c ****                 grad_color = grad_get(dsc, lv_area_get_height(&coords_bg), y - coords_bg.y1);
 6980              		.loc 1 247 15 is_stmt 0 view .LVU2605
 6981 032c BBF1010F 		cmp	fp, #1
 6982 0330 00F08580 		beq	.L353
 6983              	.LVL644:
 6984              	.L320:
 253:Middlewares/lvgl/src/draw/lv_draw_rect.c ****                (y < coords_bg.y1 + rout + 1 ||
 6985              		.loc 1 253 13 is_stmt 1 view .LVU2606
 253:Middlewares/lvgl/src/draw/lv_draw_rect.c ****                (y < coords_bg.y1 + rout + 1 ||
 6986              		.loc 1 253 28 is_stmt 0 view .LVU2607
 6987 0334 089B     		ldr	r3, [sp, #32]
 6988 0336 069A     		ldr	r2, [sp, #24]
 6989              	.LVL645:
 253:Middlewares/lvgl/src/draw/lv_draw_rect.c ****                (y < coords_bg.y1 + rout + 1 ||
 6990              		.loc 1 253 28 view .LVU2608
 6991 0338 1340     		ands	r3, r3, r2
 253:Middlewares/lvgl/src/draw/lv_draw_rect.c ****                (y < coords_bg.y1 + rout + 1 ||
 6992              		.loc 1 253 15 view .LVU2609
 6993 033a 13F0FF0F 		tst	r3, #255
 6994 033e 00F00C81 		beq	.L324
 254:Middlewares/lvgl/src/draw/lv_draw_rect.c ****                 y > coords_bg.y2 - rout - 1)) {
 6995              		.loc 1 254 30 discriminator 1 view .LVU2610
 6996 0342 BDF97A30 		ldrsh	r3, [sp, #122]
 254:Middlewares/lvgl/src/draw/lv_draw_rect.c ****                 y > coords_bg.y2 - rout - 1)) {
 6997              		.loc 1 254 34 discriminator 1 view .LVU2611
 6998 0346 4B44     		add	r3, r3, r9
 253:Middlewares/lvgl/src/draw/lv_draw_rect.c ****                (y < coords_bg.y1 + rout + 1 ||
 6999              		.loc 1 253 37 discriminator 1 view .LVU2612
 7000 0348 A342     		cmp	r3, r4
 7001 034a 06DA     		bge	.L325
 255:Middlewares/lvgl/src/draw/lv_draw_rect.c **** 
 7002              		.loc 1 255 30 view .LVU2613
 7003 034c BDF97E30 		ldrsh	r3, [sp, #126]
 255:Middlewares/lvgl/src/draw/lv_draw_rect.c **** 
 7004              		.loc 1 255 34 view .LVU2614
 7005 0350 A3EB0903 		sub	r3, r3, r9
 254:Middlewares/lvgl/src/draw/lv_draw_rect.c ****                 y > coords_bg.y2 - rout - 1)) {
ARM GAS  /tmp/ccUpPomB.s 			page 200


 7006              		.loc 1 254 45 view .LVU2615
 7007 0354 A342     		cmp	r3, r4
 7008 0356 00F30081 		bgt	.L324
 7009              	.L325:
 7010              	.LBB393:
 258:Middlewares/lvgl/src/draw/lv_draw_rect.c ****                 fill_area2.x1 = coords_bg.x1;
 7011              		.loc 1 258 17 is_stmt 1 view .LVU2616
 259:Middlewares/lvgl/src/draw/lv_draw_rect.c ****                 fill_area2.x2 = coords_bg.x1 + rout - 1;
 7012              		.loc 1 259 17 view .LVU2617
 259:Middlewares/lvgl/src/draw/lv_draw_rect.c ****                 fill_area2.x2 = coords_bg.x1 + rout - 1;
 7013              		.loc 1 259 42 is_stmt 0 view .LVU2618
 7014 035a BDF97830 		ldrsh	r3, [sp, #120]
 259:Middlewares/lvgl/src/draw/lv_draw_rect.c ****                 fill_area2.x2 = coords_bg.x1 + rout - 1;
 7015              		.loc 1 259 31 view .LVU2619
 7016 035e ADF84C30 		strh	r3, [sp, #76]	@ movhi
 260:Middlewares/lvgl/src/draw/lv_draw_rect.c ****                 fill_area2.y1 = fill_area.y1;
 7017              		.loc 1 260 17 is_stmt 1 view .LVU2620
 260:Middlewares/lvgl/src/draw/lv_draw_rect.c ****                 fill_area2.y1 = fill_area.y1;
 7018              		.loc 1 260 46 is_stmt 0 view .LVU2621
 7019 0362 1FFA89F4 		uxth	r4, r9
 7020              	.LVL646:
 260:Middlewares/lvgl/src/draw/lv_draw_rect.c ****                 fill_area2.y1 = fill_area.y1;
 7021              		.loc 1 260 46 view .LVU2622
 7022 0366 14FA83F3 		uxtah	r3, r4, r3
 7023 036a 9BB2     		uxth	r3, r3
 260:Middlewares/lvgl/src/draw/lv_draw_rect.c ****                 fill_area2.y1 = fill_area.y1;
 7024              		.loc 1 260 53 view .LVU2623
 7025 036c 013B     		subs	r3, r3, #1
 260:Middlewares/lvgl/src/draw/lv_draw_rect.c ****                 fill_area2.y1 = fill_area.y1;
 7026              		.loc 1 260 31 view .LVU2624
 7027 036e ADF85030 		strh	r3, [sp, #80]	@ movhi
 261:Middlewares/lvgl/src/draw/lv_draw_rect.c ****                 fill_area2.y2 = fill_area.y2;
 7028              		.loc 1 261 17 is_stmt 1 view .LVU2625
 261:Middlewares/lvgl/src/draw/lv_draw_rect.c ****                 fill_area2.y2 = fill_area.y2;
 7029              		.loc 1 261 42 is_stmt 0 view .LVU2626
 7030 0372 BDF94630 		ldrsh	r3, [sp, #70]
 261:Middlewares/lvgl/src/draw/lv_draw_rect.c ****                 fill_area2.y2 = fill_area.y2;
 7031              		.loc 1 261 31 view .LVU2627
 7032 0376 ADF84E30 		strh	r3, [sp, #78]	@ movhi
 262:Middlewares/lvgl/src/draw/lv_draw_rect.c **** 
 7033              		.loc 1 262 17 is_stmt 1 view .LVU2628
 262:Middlewares/lvgl/src/draw/lv_draw_rect.c **** 
 7034              		.loc 1 262 42 is_stmt 0 view .LVU2629
 7035 037a BDF94A30 		ldrsh	r3, [sp, #74]
 262:Middlewares/lvgl/src/draw/lv_draw_rect.c **** 
 7036              		.loc 1 262 31 view .LVU2630
 7037 037e ADF85230 		strh	r3, [sp, #82]	@ movhi
 264:Middlewares/lvgl/src/draw/lv_draw_rect.c ****                                grad_color, mask_buf, mask_res, opa2, dsc->blend_mode);
 7038              		.loc 1 264 17 is_stmt 1 view .LVU2631
 7039 0382 AB78     		ldrb	r3, [r5, #2]	@ zero_extendqisi2
 7040 0384 0293     		str	r3, [sp, #8]
 7041 0386 059B     		ldr	r3, [sp, #20]
 7042 0388 0193     		str	r3, [sp, #4]
 7043 038a 0097     		str	r7, [sp]
 7044 038c 5346     		mov	r3, r10
 7045 038e BDF82420 		ldrh	r2, [sp, #36]
 7046 0392 13A9     		add	r1, sp, #76
ARM GAS  /tmp/ccUpPomB.s 			page 201


 7047 0394 0798     		ldr	r0, [sp, #28]
 7048 0396 FFF7FEFF 		bl	_lv_blend_fill
 7049              	.LVL647:
 268:Middlewares/lvgl/src/draw/lv_draw_rect.c ****                     fill_area2.x1 = coords_bg.x1 + rout;
 7050              		.loc 1 268 17 view .LVU2632
 268:Middlewares/lvgl/src/draw/lv_draw_rect.c ****                     fill_area2.x1 = coords_bg.x1 + rout;
 7051              		.loc 1 268 19 is_stmt 0 view .LVU2633
 7052 039a BBF1010F 		cmp	fp, #1
 7053 039e 00F0C280 		beq	.L354
 7054              	.L326:
 276:Middlewares/lvgl/src/draw/lv_draw_rect.c ****                 fill_area2.x2 = coords_bg.x2;
 7055              		.loc 1 276 17 is_stmt 1 view .LVU2634
 276:Middlewares/lvgl/src/draw/lv_draw_rect.c ****                 fill_area2.x2 = coords_bg.x2;
 7056              		.loc 1 276 42 is_stmt 0 view .LVU2635
 7057 03a2 BDF97C30 		ldrsh	r3, [sp, #124]
 7058 03a6 9AB2     		uxth	r2, r3
 276:Middlewares/lvgl/src/draw/lv_draw_rect.c ****                 fill_area2.x2 = coords_bg.x2;
 7059              		.loc 1 276 46 view .LVU2636
 7060 03a8 141B     		subs	r4, r2, r4
 7061 03aa A4B2     		uxth	r4, r4
 276:Middlewares/lvgl/src/draw/lv_draw_rect.c ****                 fill_area2.x2 = coords_bg.x2;
 7062              		.loc 1 276 53 view .LVU2637
 7063 03ac 0134     		adds	r4, r4, #1
 276:Middlewares/lvgl/src/draw/lv_draw_rect.c ****                 fill_area2.x2 = coords_bg.x2;
 7064              		.loc 1 276 31 view .LVU2638
 7065 03ae ADF84C40 		strh	r4, [sp, #76]	@ movhi
 277:Middlewares/lvgl/src/draw/lv_draw_rect.c **** 
 7066              		.loc 1 277 17 is_stmt 1 view .LVU2639
 277:Middlewares/lvgl/src/draw/lv_draw_rect.c **** 
 7067              		.loc 1 277 31 is_stmt 0 view .LVU2640
 7068 03b2 ADF85030 		strh	r3, [sp, #80]	@ movhi
 279:Middlewares/lvgl/src/draw/lv_draw_rect.c ****                 if(mask_ofs < 0) mask_ofs = 0;
 7069              		.loc 1 279 17 is_stmt 1 view .LVU2641
 279:Middlewares/lvgl/src/draw/lv_draw_rect.c ****                 if(mask_ofs < 0) mask_ofs = 0;
 7070              		.loc 1 279 50 is_stmt 0 view .LVU2642
 7071 03b6 A3EB0903 		sub	r3, r3, r9
 279:Middlewares/lvgl/src/draw/lv_draw_rect.c ****                 if(mask_ofs < 0) mask_ofs = 0;
 7072              		.loc 1 279 57 view .LVU2643
 7073 03ba 0133     		adds	r3, r3, #1
 279:Middlewares/lvgl/src/draw/lv_draw_rect.c ****                 if(mask_ofs < 0) mask_ofs = 0;
 7074              		.loc 1 279 79 view .LVU2644
 7075 03bc B8F91020 		ldrsh	r2, [r8, #16]
 279:Middlewares/lvgl/src/draw/lv_draw_rect.c ****                 if(mask_ofs < 0) mask_ofs = 0;
 7076              		.loc 1 279 94 view .LVU2645
 7077 03c0 BDF97010 		ldrsh	r1, [sp, #112]
 279:Middlewares/lvgl/src/draw/lv_draw_rect.c ****                 if(mask_ofs < 0) mask_ofs = 0;
 7078              		.loc 1 279 83 view .LVU2646
 7079 03c4 0A44     		add	r2, r2, r1
 7080              	.LVL648:
 280:Middlewares/lvgl/src/draw/lv_draw_rect.c ****                 _lv_blend_fill(clip, &fill_area2,
 7081              		.loc 1 280 17 is_stmt 1 view .LVU2647
 280:Middlewares/lvgl/src/draw/lv_draw_rect.c ****                 _lv_blend_fill(clip, &fill_area2,
 7082              		.loc 1 280 19 is_stmt 0 view .LVU2648
 7083 03c6 9B1A     		subs	r3, r3, r2
 7084              	.LVL649:
 280:Middlewares/lvgl/src/draw/lv_draw_rect.c ****                 _lv_blend_fill(clip, &fill_area2,
 7085              		.loc 1 280 19 view .LVU2649
ARM GAS  /tmp/ccUpPomB.s 			page 202


 7086 03c8 00F1C580 		bmi	.L355
 7087              	.LVL650:
 7088              	.L327:
 281:Middlewares/lvgl/src/draw/lv_draw_rect.c ****                                grad_color, mask_buf + mask_ofs, mask_res, opa2, dsc->blend_mode);
 7089              		.loc 1 281 17 is_stmt 1 view .LVU2650
 7090 03cc AA78     		ldrb	r2, [r5, #2]	@ zero_extendqisi2
 7091 03ce 0292     		str	r2, [sp, #8]
 7092 03d0 059A     		ldr	r2, [sp, #20]
 7093 03d2 0192     		str	r2, [sp, #4]
 7094 03d4 0097     		str	r7, [sp]
 7095 03d6 5344     		add	r3, r3, r10
 7096              	.LVL651:
 281:Middlewares/lvgl/src/draw/lv_draw_rect.c ****                                grad_color, mask_buf + mask_ofs, mask_res, opa2, dsc->blend_mode);
 7097              		.loc 1 281 17 is_stmt 0 view .LVU2651
 7098 03d8 BDF82420 		ldrh	r2, [sp, #36]
 7099 03dc 13A9     		add	r1, sp, #76
 7100 03de 0798     		ldr	r0, [sp, #28]
 7101 03e0 FFF7FEFF 		bl	_lv_blend_fill
 7102              	.LVL652:
 7103              	.L328:
 281:Middlewares/lvgl/src/draw/lv_draw_rect.c ****                                grad_color, mask_buf + mask_ofs, mask_res, opa2, dsc->blend_mode);
 7104              		.loc 1 281 17 view .LVU2652
 7105              	.LBE393:
 298:Middlewares/lvgl/src/draw/lv_draw_rect.c ****             fill_area.y2++;
 7106              		.loc 1 298 13 is_stmt 1 discriminator 2 view .LVU2653
 298:Middlewares/lvgl/src/draw/lv_draw_rect.c ****             fill_area.y2++;
 7107              		.loc 1 298 22 is_stmt 0 discriminator 2 view .LVU2654
 7108 03e4 BDF94630 		ldrsh	r3, [sp, #70]
 298:Middlewares/lvgl/src/draw/lv_draw_rect.c ****             fill_area.y2++;
 7109              		.loc 1 298 25 discriminator 2 view .LVU2655
 7110 03e8 0133     		adds	r3, r3, #1
 7111 03ea ADF84630 		strh	r3, [sp, #70]	@ movhi
 299:Middlewares/lvgl/src/draw/lv_draw_rect.c ****         }
 7112              		.loc 1 299 13 is_stmt 1 discriminator 2 view .LVU2656
 299:Middlewares/lvgl/src/draw/lv_draw_rect.c ****         }
 7113              		.loc 1 299 22 is_stmt 0 discriminator 2 view .LVU2657
 7114 03ee BDF94A30 		ldrsh	r3, [sp, #74]
 299:Middlewares/lvgl/src/draw/lv_draw_rect.c ****         }
 7115              		.loc 1 299 25 discriminator 2 view .LVU2658
 7116 03f2 0133     		adds	r3, r3, #1
 7117 03f4 ADF84A30 		strh	r3, [sp, #74]	@ movhi
 7118              	.LBE392:
 221:Middlewares/lvgl/src/draw/lv_draw_rect.c ****             int32_t y = h + draw_buf->area.y1;
 7119              		.loc 1 221 50 is_stmt 1 discriminator 2 view .LVU2659
 221:Middlewares/lvgl/src/draw/lv_draw_rect.c ****             int32_t y = h + draw_buf->area.y1;
 7120              		.loc 1 221 51 is_stmt 0 discriminator 2 view .LVU2660
 7121 03f8 0136     		adds	r6, r6, #1
 7122              	.LVL653:
 7123              	.L316:
 221:Middlewares/lvgl/src/draw/lv_draw_rect.c ****             int32_t y = h + draw_buf->area.y1;
 7124              		.loc 1 221 31 is_stmt 1 discriminator 1 view .LVU2661
 221:Middlewares/lvgl/src/draw/lv_draw_rect.c ****             int32_t y = h + draw_buf->area.y1;
 7125              		.loc 1 221 45 is_stmt 0 discriminator 1 view .LVU2662
 7126 03fa BDF97630 		ldrsh	r3, [sp, #118]
 221:Middlewares/lvgl/src/draw/lv_draw_rect.c ****             int32_t y = h + draw_buf->area.y1;
 7127              		.loc 1 221 9 discriminator 1 view .LVU2663
 7128 03fe B342     		cmp	r3, r6
ARM GAS  /tmp/ccUpPomB.s 			page 203


 7129 0400 C0F2E380 		blt	.L356
 7130              	.LBB401:
 222:Middlewares/lvgl/src/draw/lv_draw_rect.c **** 
 7131              		.loc 1 222 13 is_stmt 1 view .LVU2664
 222:Middlewares/lvgl/src/draw/lv_draw_rect.c **** 
 7132              		.loc 1 222 43 is_stmt 0 view .LVU2665
 7133 0404 B8F91240 		ldrsh	r4, [r8, #18]
 222:Middlewares/lvgl/src/draw/lv_draw_rect.c **** 
 7134              		.loc 1 222 21 view .LVU2666
 7135 0408 3444     		add	r4, r4, r6
 7136              	.LVL654:
 224:Middlewares/lvgl/src/draw/lv_draw_rect.c **** 
 7137              		.loc 1 224 13 is_stmt 1 view .LVU2667
 227:Middlewares/lvgl/src/draw/lv_draw_rect.c ****                y < coords_bg.y2 - rout - 1) {
 7138              		.loc 1 227 13 view .LVU2668
 227:Middlewares/lvgl/src/draw/lv_draw_rect.c ****                y < coords_bg.y2 - rout - 1) {
 7139              		.loc 1 227 29 is_stmt 0 view .LVU2669
 7140 040a BDF97A30 		ldrsh	r3, [sp, #122]
 227:Middlewares/lvgl/src/draw/lv_draw_rect.c ****                y < coords_bg.y2 - rout - 1) {
 7141              		.loc 1 227 33 view .LVU2670
 7142 040e 4B44     		add	r3, r3, r9
 227:Middlewares/lvgl/src/draw/lv_draw_rect.c ****                y < coords_bg.y2 - rout - 1) {
 7143              		.loc 1 227 40 view .LVU2671
 7144 0410 0133     		adds	r3, r3, #1
 227:Middlewares/lvgl/src/draw/lv_draw_rect.c ****                y < coords_bg.y2 - rout - 1) {
 7145              		.loc 1 227 15 view .LVU2672
 7146 0412 A342     		cmp	r3, r4
 7147 0414 BFF670AF 		bge	.L317
 228:Middlewares/lvgl/src/draw/lv_draw_rect.c ****                 mask_res = LV_DRAW_MASK_RES_FULL_COVER;
 7148              		.loc 1 228 29 discriminator 1 view .LVU2673
 7149 0418 BDF97E30 		ldrsh	r3, [sp, #126]
 228:Middlewares/lvgl/src/draw/lv_draw_rect.c ****                 mask_res = LV_DRAW_MASK_RES_FULL_COVER;
 7150              		.loc 1 228 33 discriminator 1 view .LVU2674
 7151 041c A3EB0903 		sub	r3, r3, r9
 228:Middlewares/lvgl/src/draw/lv_draw_rect.c ****                 mask_res = LV_DRAW_MASK_RES_FULL_COVER;
 7152              		.loc 1 228 40 discriminator 1 view .LVU2675
 7153 0420 013B     		subs	r3, r3, #1
 227:Middlewares/lvgl/src/draw/lv_draw_rect.c ****                y < coords_bg.y2 - rout - 1) {
 7154              		.loc 1 227 44 discriminator 1 view .LVU2676
 7155 0422 A342     		cmp	r3, r4
 7156 0424 7FF768AF 		ble	.L317
 229:Middlewares/lvgl/src/draw/lv_draw_rect.c ****                 if(simple_mode == false) {
 7157              		.loc 1 229 17 is_stmt 1 view .LVU2677
 7158              	.LVL655:
 230:Middlewares/lvgl/src/draw/lv_draw_rect.c ****                     lv_memset(mask_buf, opa, draw_area_w);
 7159              		.loc 1 230 17 view .LVU2678
 230:Middlewares/lvgl/src/draw/lv_draw_rect.c ****                     lv_memset(mask_buf, opa, draw_area_w);
 7160              		.loc 1 230 19 is_stmt 0 view .LVU2679
 7161 0428 089B     		ldr	r3, [sp, #32]
 7162 042a 002B     		cmp	r3, #0
 7163 042c 3FF44EAF 		beq	.L357
 224:Middlewares/lvgl/src/draw/lv_draw_rect.c **** 
 7164              		.loc 1 224 18 view .LVU2680
 7165 0430 049B     		ldr	r3, [sp, #16]
 7166 0432 0593     		str	r3, [sp, #20]
 229:Middlewares/lvgl/src/draw/lv_draw_rect.c ****                 if(simple_mode == false) {
 7167              		.loc 1 229 26 view .LVU2681
ARM GAS  /tmp/ccUpPomB.s 			page 204


 7168 0434 0127     		movs	r7, #1
 7169 0436 79E7     		b	.L318
 7170              	.LVL656:
 7171              	.L344:
 243:Middlewares/lvgl/src/draw/lv_draw_rect.c ****             }
 7172              		.loc 1 243 22 view .LVU2682
 7173 0438 FF23     		movs	r3, #255
 7174 043a 0593     		str	r3, [sp, #20]
 7175 043c 76E7     		b	.L318
 7176              	.LVL657:
 7177              	.L353:
 248:Middlewares/lvgl/src/draw/lv_draw_rect.c ****             }
 7178              		.loc 1 248 17 is_stmt 1 view .LVU2683
 7179              	.LBB394:
 7180              	.LBI394:
 143:Middlewares/lvgl/src/draw/../misc/lv_area.h **** {
 7181              		.loc 2 143 26 view .LVU2684
 7182              	.LBB395:
 7183              		.loc 2 145 5 view .LVU2685
 7184              		.loc 2 145 31 is_stmt 0 view .LVU2686
 7185 043e BDF87E30 		ldrh	r3, [sp, #126]
 7186              		.loc 2 145 44 view .LVU2687
 7187 0442 BDF87A20 		ldrh	r2, [sp, #122]
 7188              		.loc 2 145 36 view .LVU2688
 7189 0446 9B1A     		subs	r3, r3, r2
 7190 0448 9BB2     		uxth	r3, r3
 7191              		.loc 2 145 49 view .LVU2689
 7192 044a 0133     		adds	r3, r3, #1
 7193              		.loc 2 145 12 view .LVU2690
 7194 044c 1BB2     		sxth	r3, r3
 7195              	.LVL658:
 7196              		.loc 2 145 12 view .LVU2691
 7197              	.LBE395:
 7198              	.LBE394:
 248:Middlewares/lvgl/src/draw/lv_draw_rect.c ****             }
 7199              		.loc 1 248 78 view .LVU2692
 7200 044e A21A     		subs	r2, r4, r2
 7201 0450 91B2     		uxth	r1, r2
 7202 0452 0991     		str	r1, [sp, #36]
 248:Middlewares/lvgl/src/draw/lv_draw_rect.c ****             }
 7203              		.loc 1 248 30 view .LVU2693
 7204 0454 12B2     		sxth	r2, r2
 7205              	.LVL659:
 7206              	.LBB396:
 7207              	.LBI396:
 522:Middlewares/lvgl/src/draw/lv_draw_rect.c **** {
 7208              		.loc 1 522 48 is_stmt 1 view .LVU2694
 7209              	.LBB397:
 524:Middlewares/lvgl/src/draw/lv_draw_rect.c ****     if(i <= min) return dsc->bg_color;
 7210              		.loc 1 524 5 view .LVU2695
 524:Middlewares/lvgl/src/draw/lv_draw_rect.c ****     if(i <= min) return dsc->bg_color;
 7211              		.loc 1 524 23 is_stmt 0 view .LVU2696
 7212 0456 95F808C0 		ldrb	ip, [r5, #8]	@ zero_extendqisi2
 524:Middlewares/lvgl/src/draw/lv_draw_rect.c ****     if(i <= min) return dsc->bg_color;
 7213              		.loc 1 524 44 view .LVU2697
 7214 045a 03FB0CF0 		mul	r0, r3, ip
 524:Middlewares/lvgl/src/draw/lv_draw_rect.c ****     if(i <= min) return dsc->bg_color;
ARM GAS  /tmp/ccUpPomB.s 			page 205


 7215              		.loc 1 524 13 view .LVU2698
 7216 045e 4FEA202E 		asr	lr, r0, #8
 7217              	.LVL660:
 525:Middlewares/lvgl/src/draw/lv_draw_rect.c **** 
 7218              		.loc 1 525 5 is_stmt 1 view .LVU2699
 525:Middlewares/lvgl/src/draw/lv_draw_rect.c **** 
 7219              		.loc 1 525 7 is_stmt 0 view .LVU2700
 7220 0462 B2EB202F 		cmp	r2, r0, asr #8
 7221 0466 5ADD     		ble	.L358
 527:Middlewares/lvgl/src/draw/lv_draw_rect.c ****     if(i >= max) return dsc->bg_grad_color;
 7222              		.loc 1 527 5 is_stmt 1 view .LVU2701
 527:Middlewares/lvgl/src/draw/lv_draw_rect.c ****     if(i >= max) return dsc->bg_grad_color;
 7223              		.loc 1 527 23 is_stmt 0 view .LVU2702
 7224 0468 687A     		ldrb	r0, [r5, #9]	@ zero_extendqisi2
 527:Middlewares/lvgl/src/draw/lv_draw_rect.c ****     if(i >= max) return dsc->bg_grad_color;
 7225              		.loc 1 527 44 view .LVU2703
 7226 046a 00FB03F1 		mul	r1, r0, r3
 7227              	.LVL661:
 528:Middlewares/lvgl/src/draw/lv_draw_rect.c **** 
 7228              		.loc 1 528 5 is_stmt 1 view .LVU2704
 528:Middlewares/lvgl/src/draw/lv_draw_rect.c **** 
 7229              		.loc 1 528 7 is_stmt 0 view .LVU2705
 7230 046e B2EB212F 		cmp	r2, r1, asr #8
 7231 0472 56DA     		bge	.L359
 530:Middlewares/lvgl/src/draw/lv_draw_rect.c ****     d = (s * d) >> 8;
 7232              		.loc 1 530 5 is_stmt 1 view .LVU2706
 530:Middlewares/lvgl/src/draw/lv_draw_rect.c ****     d = (s * d) >> 8;
 7233              		.loc 1 530 13 is_stmt 0 view .LVU2707
 7234 0474 A0EB0C00 		sub	r0, r0, ip
 7235              	.LVL662:
 531:Middlewares/lvgl/src/draw/lv_draw_rect.c ****     i -= min;
 7236              		.loc 1 531 5 is_stmt 1 view .LVU2708
 531:Middlewares/lvgl/src/draw/lv_draw_rect.c ****     i -= min;
 7237              		.loc 1 531 12 is_stmt 0 view .LVU2709
 7238 0478 00FB03F3 		mul	r3, r0, r3
 7239              	.LVL663:
 531:Middlewares/lvgl/src/draw/lv_draw_rect.c ****     i -= min;
 7240              		.loc 1 531 7 view .LVU2710
 7241 047c 1B12     		asrs	r3, r3, #8
 7242              	.LVL664:
 532:Middlewares/lvgl/src/draw/lv_draw_rect.c ****     lv_opa_t mix = (i * 255) / d;
 7243              		.loc 1 532 5 is_stmt 1 view .LVU2711
 532:Middlewares/lvgl/src/draw/lv_draw_rect.c ****     lv_opa_t mix = (i * 255) / d;
 7244              		.loc 1 532 7 is_stmt 0 view .LVU2712
 7245 047e 099A     		ldr	r2, [sp, #36]
 532:Middlewares/lvgl/src/draw/lv_draw_rect.c ****     lv_opa_t mix = (i * 255) / d;
 7246              		.loc 1 532 7 view .LVU2713
 7247 0480 A2EB0E01 		sub	r1, r2, lr
 7248              	.LVL665:
 532:Middlewares/lvgl/src/draw/lv_draw_rect.c ****     lv_opa_t mix = (i * 255) / d;
 7249              		.loc 1 532 7 view .LVU2714
 7250 0484 09B2     		sxth	r1, r1
 7251              	.LVL666:
 533:Middlewares/lvgl/src/draw/lv_draw_rect.c ****     return lv_color_mix(dsc->bg_grad_color, dsc->bg_color, mix);
 7252              		.loc 1 533 5 is_stmt 1 view .LVU2715
 533:Middlewares/lvgl/src/draw/lv_draw_rect.c ****     return lv_color_mix(dsc->bg_grad_color, dsc->bg_color, mix);
 7253              		.loc 1 533 23 is_stmt 0 view .LVU2716
ARM GAS  /tmp/ccUpPomB.s 			page 206


 7254 0486 C1EB0121 		rsb	r1, r1, r1, lsl #8
 7255              	.LVL667:
 533:Middlewares/lvgl/src/draw/lv_draw_rect.c ****     return lv_color_mix(dsc->bg_grad_color, dsc->bg_color, mix);
 7256              		.loc 1 533 30 view .LVU2717
 7257 048a 91FBF3F3 		sdiv	r3, r1, r3
 7258              	.LVL668:
 533:Middlewares/lvgl/src/draw/lv_draw_rect.c ****     return lv_color_mix(dsc->bg_grad_color, dsc->bg_color, mix);
 7259              		.loc 1 533 14 view .LVU2718
 7260 048e DBB2     		uxtb	r3, r3
 7261 0490 0993     		str	r3, [sp, #36]
 7262              	.LVL669:
 534:Middlewares/lvgl/src/draw/lv_draw_rect.c **** }
 7263              		.loc 1 534 5 is_stmt 1 view .LVU2719
 7264 0492 E888     		ldrh	r0, [r5, #6]
 7265              	.LVL670:
 534:Middlewares/lvgl/src/draw/lv_draw_rect.c **** }
 7266              		.loc 1 534 5 is_stmt 0 view .LVU2720
 7267 0494 B5F804C0 		ldrh	ip, [r5, #4]
 7268              	.LVL671:
 7269              	.LBB398:
 7270              	.LBI398:
 459:Middlewares/lvgl/src/draw/../misc/lv_color.h **** {
 7271              		.loc 3 459 48 is_stmt 1 view .LVU2721
 7272              	.LBB399:
 461:Middlewares/lvgl/src/draw/../misc/lv_color.h **** #if LV_COLOR_DEPTH != 1
 7273              		.loc 3 461 5 view .LVU2722
 464:Middlewares/lvgl/src/draw/../misc/lv_color.h ****                                         (255 - mix) + LV_COLOR_MIX_ROUND_OFS));
 7274              		.loc 3 464 5 view .LVU2723
 464:Middlewares/lvgl/src/draw/../misc/lv_color.h ****                                         (255 - mix) + LV_COLOR_MIX_ROUND_OFS));
 7275              		.loc 3 464 5 is_stmt 0 view .LVU2724
 7276 0498 C0F3C42E 		ubfx	lr, r0, #11, #5
 7277              	.LVL672:
 464:Middlewares/lvgl/src/draw/../misc/lv_color.h ****                                         (255 - mix) + LV_COLOR_MIX_ROUND_OFS));
 7278              		.loc 3 464 5 view .LVU2725
 7279 049c CCF3C421 		ubfx	r1, ip, #11, #5
 7280 04a0 C3F1FF03 		rsb	r3, r3, #255
 7281 04a4 03FB01F1 		mul	r1, r3, r1
 7282 04a8 099A     		ldr	r2, [sp, #36]
 7283              	.LVL673:
 464:Middlewares/lvgl/src/draw/../misc/lv_color.h ****                                         (255 - mix) + LV_COLOR_MIX_ROUND_OFS));
 7284              		.loc 3 464 5 view .LVU2726
 7285 04aa 02FB0E11 		mla	r1, r2, lr, r1
 7286 04ae 8031     		adds	r1, r1, #128
 7287 04b0 01EB012E 		add	lr, r1, r1, lsl #8
 7288 04b4 01EBCE11 		add	r1, r1, lr, lsl #7
 7289 04b8 C1F3C451 		ubfx	r1, r1, #23, #5
 7290 04bc 0D9A     		ldr	r2, [sp, #52]
 7291 04be 61F3CF22 		bfi	r2, r1, #11, #5
 7292 04c2 0D92     		str	r2, [sp, #52]
 466:Middlewares/lvgl/src/draw/../misc/lv_color.h ****                                         (255 - mix) + LV_COLOR_MIX_ROUND_OFS));
 7293              		.loc 3 466 5 is_stmt 1 view .LVU2727
 7294 04c4 C0F3451E 		ubfx	lr, r0, #5, #6
 7295 04c8 CCF34511 		ubfx	r1, ip, #5, #6
 7296 04cc 03FB01F1 		mul	r1, r3, r1
 7297 04d0 099A     		ldr	r2, [sp, #36]
 7298 04d2 0EFB0211 		mla	r1, lr, r2, r1
 7299 04d6 8031     		adds	r1, r1, #128
ARM GAS  /tmp/ccUpPomB.s 			page 207


 7300 04d8 01EB012E 		add	lr, r1, r1, lsl #8
 7301 04dc 01EBCE11 		add	r1, r1, lr, lsl #7
 7302 04e0 C1F3C551 		ubfx	r1, r1, #23, #6
 7303 04e4 0D9A     		ldr	r2, [sp, #52]
 7304 04e6 61F34A12 		bfi	r2, r1, #5, #6
 7305 04ea 1146     		mov	r1, r2
 468:Middlewares/lvgl/src/draw/../misc/lv_color.h ****                                         (255 - mix) + LV_COLOR_MIX_ROUND_OFS));
 7306              		.loc 3 468 5 view .LVU2728
 7307 04ec 00F01F00 		and	r0, r0, #31
 7308              	.LVL674:
 468:Middlewares/lvgl/src/draw/../misc/lv_color.h ****                                         (255 - mix) + LV_COLOR_MIX_ROUND_OFS));
 7309              		.loc 3 468 5 is_stmt 0 view .LVU2729
 7310 04f0 0CF01F0C 		and	ip, ip, #31
 7311              	.LVL675:
 468:Middlewares/lvgl/src/draw/../misc/lv_color.h ****                                         (255 - mix) + LV_COLOR_MIX_ROUND_OFS));
 7312              		.loc 3 468 5 view .LVU2730
 7313 04f4 0CFB03F2 		mul	r2, ip, r3
 7314 04f8 099B     		ldr	r3, [sp, #36]
 7315 04fa 00FB0323 		mla	r3, r0, r3, r2
 7316 04fe 8033     		adds	r3, r3, #128
 7317 0500 03EB0322 		add	r2, r3, r3, lsl #8
 7318 0504 03EBC213 		add	r3, r3, r2, lsl #7
 7319 0508 C3F3C453 		ubfx	r3, r3, #23, #5
 7320              	.LVL676:
 468:Middlewares/lvgl/src/draw/../misc/lv_color.h ****                                         (255 - mix) + LV_COLOR_MIX_ROUND_OFS));
 7321              		.loc 3 468 5 view .LVU2731
 7322 050c 0A46     		mov	r2, r1
 7323 050e 63F30402 		bfi	r2, r3, #0, #5
 7324 0512 1346     		mov	r3, r2
 7325              	.LVL677:
 468:Middlewares/lvgl/src/draw/../misc/lv_color.h ****                                         (255 - mix) + LV_COLOR_MIX_ROUND_OFS));
 7326              		.loc 3 468 5 view .LVU2732
 7327 0514 ADF83420 		strh	r2, [sp, #52]	@ movhi
 470:Middlewares/lvgl/src/draw/../misc/lv_color.h **** #else
 7328              		.loc 3 470 5 is_stmt 1 view .LVU2733
 470:Middlewares/lvgl/src/draw/../misc/lv_color.h **** #else
 7329              		.loc 3 470 5 view .LVU2734
 470:Middlewares/lvgl/src/draw/../misc/lv_color.h **** #else
 7330              		.loc 3 470 5 view .LVU2735
 7331              		.loc 3 476 5 view .LVU2736
 7332              	.LVL678:
 7333              	.L322:
 7334              		.loc 3 476 5 is_stmt 0 view .LVU2737
 7335 0518 ADF82430 		strh	r3, [sp, #36]	@ movhi
 7336 051c 0AE7     		b	.L320
 7337              	.LVL679:
 7338              	.L358:
 7339              		.loc 3 476 5 view .LVU2738
 7340              	.LBE399:
 7341              	.LBE398:
 525:Middlewares/lvgl/src/draw/lv_draw_rect.c **** 
 7342              		.loc 1 525 18 is_stmt 1 view .LVU2739
 525:Middlewares/lvgl/src/draw/lv_draw_rect.c **** 
 7343              		.loc 1 525 28 is_stmt 0 view .LVU2740
 7344 051e AB88     		ldrh	r3, [r5, #4]
 7345              	.LVL680:
 525:Middlewares/lvgl/src/draw/lv_draw_rect.c **** 
ARM GAS  /tmp/ccUpPomB.s 			page 208


 7346              		.loc 1 525 28 view .LVU2741
 7347 0520 FAE7     		b	.L322
 7348              	.LVL681:
 7349              	.L359:
 528:Middlewares/lvgl/src/draw/lv_draw_rect.c **** 
 7350              		.loc 1 528 18 is_stmt 1 view .LVU2742
 528:Middlewares/lvgl/src/draw/lv_draw_rect.c **** 
 7351              		.loc 1 528 28 is_stmt 0 view .LVU2743
 7352 0522 EB88     		ldrh	r3, [r5, #6]
 7353              	.LVL682:
 528:Middlewares/lvgl/src/draw/lv_draw_rect.c **** 
 7354              		.loc 1 528 28 view .LVU2744
 7355 0524 F8E7     		b	.L322
 7356              	.LVL683:
 7357              	.L354:
 528:Middlewares/lvgl/src/draw/lv_draw_rect.c **** 
 7358              		.loc 1 528 28 view .LVU2745
 7359              	.LBE397:
 7360              	.LBE396:
 7361              	.LBB400:
 269:Middlewares/lvgl/src/draw/lv_draw_rect.c ****                     fill_area2.x2 = coords_bg.x2 - rout;
 7362              		.loc 1 269 21 is_stmt 1 view .LVU2746
 269:Middlewares/lvgl/src/draw/lv_draw_rect.c ****                     fill_area2.x2 = coords_bg.x2 - rout;
 7363              		.loc 1 269 46 is_stmt 0 view .LVU2747
 7364 0526 BDF87830 		ldrh	r3, [sp, #120]
 269:Middlewares/lvgl/src/draw/lv_draw_rect.c ****                     fill_area2.x2 = coords_bg.x2 - rout;
 7365              		.loc 1 269 50 view .LVU2748
 7366 052a 2344     		add	r3, r3, r4
 269:Middlewares/lvgl/src/draw/lv_draw_rect.c ****                     fill_area2.x2 = coords_bg.x2 - rout;
 7367              		.loc 1 269 35 view .LVU2749
 7368 052c ADF84C30 		strh	r3, [sp, #76]	@ movhi
 270:Middlewares/lvgl/src/draw/lv_draw_rect.c ****                     _lv_blend_fill(clip, &fill_area2,
 7369              		.loc 1 270 21 is_stmt 1 view .LVU2750
 270:Middlewares/lvgl/src/draw/lv_draw_rect.c ****                     _lv_blend_fill(clip, &fill_area2,
 7370              		.loc 1 270 46 is_stmt 0 view .LVU2751
 7371 0530 BDF87C30 		ldrh	r3, [sp, #124]
 270:Middlewares/lvgl/src/draw/lv_draw_rect.c ****                     _lv_blend_fill(clip, &fill_area2,
 7372              		.loc 1 270 50 view .LVU2752
 7373 0534 1B1B     		subs	r3, r3, r4
 270:Middlewares/lvgl/src/draw/lv_draw_rect.c ****                     _lv_blend_fill(clip, &fill_area2,
 7374              		.loc 1 270 35 view .LVU2753
 7375 0536 ADF85030 		strh	r3, [sp, #80]	@ movhi
 271:Middlewares/lvgl/src/draw/lv_draw_rect.c ****                                    grad_color, NULL, LV_DRAW_MASK_RES_FULL_COVER, opa, dsc->blend_m
 7376              		.loc 1 271 21 is_stmt 1 view .LVU2754
 7377 053a AB78     		ldrb	r3, [r5, #2]	@ zero_extendqisi2
 7378 053c 0293     		str	r3, [sp, #8]
 7379 053e 049B     		ldr	r3, [sp, #16]
 7380 0540 0193     		str	r3, [sp, #4]
 7381 0542 0123     		movs	r3, #1
 7382 0544 0093     		str	r3, [sp]
 7383 0546 0023     		movs	r3, #0
 7384 0548 BDF82420 		ldrh	r2, [sp, #36]
 7385 054c 13A9     		add	r1, sp, #76
 7386 054e 0798     		ldr	r0, [sp, #28]
 7387 0550 FFF7FEFF 		bl	_lv_blend_fill
 7388              	.LVL684:
 7389 0554 25E7     		b	.L326
ARM GAS  /tmp/ccUpPomB.s 			page 209


 7390              	.LVL685:
 7391              	.L355:
 280:Middlewares/lvgl/src/draw/lv_draw_rect.c ****                 _lv_blend_fill(clip, &fill_area2,
 7392              		.loc 1 280 43 is_stmt 0 view .LVU2755
 7393 0556 0023     		movs	r3, #0
 7394              	.LVL686:
 280:Middlewares/lvgl/src/draw/lv_draw_rect.c ****                 _lv_blend_fill(clip, &fill_area2,
 7395              		.loc 1 280 43 view .LVU2756
 7396 0558 38E7     		b	.L327
 7397              	.LVL687:
 7398              	.L324:
 280:Middlewares/lvgl/src/draw/lv_draw_rect.c ****                 _lv_blend_fill(clip, &fill_area2,
 7399              		.loc 1 280 43 view .LVU2757
 7400              	.LBE400:
 286:Middlewares/lvgl/src/draw/lv_draw_rect.c ****                     _lv_blend_map(clip, &fill_area, grad_map, mask_buf, mask_res, opa2, dsc->blend_
 7401              		.loc 1 286 17 is_stmt 1 view .LVU2758
 286:Middlewares/lvgl/src/draw/lv_draw_rect.c ****                     _lv_blend_map(clip, &fill_area, grad_map, mask_buf, mask_res, opa2, dsc->blend_
 7402              		.loc 1 286 19 is_stmt 0 view .LVU2759
 7403 055a BBF1020F 		cmp	fp, #2
 7404 055e 1BD0     		beq	.L360
 289:Middlewares/lvgl/src/draw/lv_draw_rect.c ****                     _lv_blend_fill(clip, &fill_area,
 7405              		.loc 1 289 22 is_stmt 1 view .LVU2760
 289:Middlewares/lvgl/src/draw/lv_draw_rect.c ****                     _lv_blend_fill(clip, &fill_area,
 7406              		.loc 1 289 24 is_stmt 0 view .LVU2761
 7407 0560 BBF1010F 		cmp	fp, #1
 7408 0564 24D0     		beq	.L361
 293:Middlewares/lvgl/src/draw/lv_draw_rect.c ****                     _lv_blend_fill(clip, &fill_area,
 7409              		.loc 1 293 22 is_stmt 1 view .LVU2762
 293:Middlewares/lvgl/src/draw/lv_draw_rect.c ****                     _lv_blend_fill(clip, &fill_area,
 7410              		.loc 1 293 48 is_stmt 0 view .LVU2763
 7411 0566 069B     		ldr	r3, [sp, #24]
 7412 0568 83F00103 		eor	r3, r3, #1
 7413 056c DBB2     		uxtb	r3, r3
 293:Middlewares/lvgl/src/draw/lv_draw_rect.c ****                     _lv_blend_fill(clip, &fill_area,
 7414              		.loc 1 293 45 view .LVU2764
 7415 056e 0B9A     		ldr	r2, [sp, #44]
 7416 0570 002A     		cmp	r2, #0
 7417 0572 18BF     		it	ne
 7418 0574 43F00103 		orrne	r3, r3, #1
 293:Middlewares/lvgl/src/draw/lv_draw_rect.c ****                     _lv_blend_fill(clip, &fill_area,
 7419              		.loc 1 293 24 view .LVU2765
 7420 0578 002B     		cmp	r3, #0
 7421 057a 3FF433AF 		beq	.L328
 294:Middlewares/lvgl/src/draw/lv_draw_rect.c ****                                    grad_color, mask_buf, mask_res, opa2, dsc->blend_mode);
 7422              		.loc 1 294 21 is_stmt 1 view .LVU2766
 7423 057e AB78     		ldrb	r3, [r5, #2]	@ zero_extendqisi2
 7424 0580 0293     		str	r3, [sp, #8]
 7425 0582 059B     		ldr	r3, [sp, #20]
 7426 0584 0193     		str	r3, [sp, #4]
 7427 0586 0097     		str	r7, [sp]
 7428 0588 5346     		mov	r3, r10
 7429 058a BDF82420 		ldrh	r2, [sp, #36]
 7430 058e 11A9     		add	r1, sp, #68
 7431 0590 0798     		ldr	r0, [sp, #28]
 7432 0592 FFF7FEFF 		bl	_lv_blend_fill
 7433              	.LVL688:
 7434 0596 25E7     		b	.L328
ARM GAS  /tmp/ccUpPomB.s 			page 210


 7435              	.L360:
 287:Middlewares/lvgl/src/draw/lv_draw_rect.c ****                 }
 7436              		.loc 1 287 21 view .LVU2767
 7437 0598 AB78     		ldrb	r3, [r5, #2]	@ zero_extendqisi2
 7438 059a 0293     		str	r3, [sp, #8]
 7439 059c 059B     		ldr	r3, [sp, #20]
 7440 059e 0193     		str	r3, [sp, #4]
 7441 05a0 0097     		str	r7, [sp]
 7442 05a2 5346     		mov	r3, r10
 7443 05a4 0C9A     		ldr	r2, [sp, #48]
 7444 05a6 11A9     		add	r1, sp, #68
 7445 05a8 0798     		ldr	r0, [sp, #28]
 7446 05aa FFF7FEFF 		bl	_lv_blend_map
 7447              	.LVL689:
 7448 05ae 19E7     		b	.L328
 7449              	.L361:
 290:Middlewares/lvgl/src/draw/lv_draw_rect.c ****                                    grad_color, mask_buf, mask_res, opa2, dsc->blend_mode);
 7450              		.loc 1 290 21 view .LVU2768
 7451 05b0 AB78     		ldrb	r3, [r5, #2]	@ zero_extendqisi2
 7452 05b2 0293     		str	r3, [sp, #8]
 7453 05b4 059B     		ldr	r3, [sp, #20]
 7454 05b6 0193     		str	r3, [sp, #4]
 7455 05b8 0097     		str	r7, [sp]
 7456 05ba 5346     		mov	r3, r10
 7457 05bc BDF82420 		ldrh	r2, [sp, #36]
 7458 05c0 11A9     		add	r1, sp, #68
 7459 05c2 0798     		ldr	r0, [sp, #28]
 7460 05c4 FFF7FEFF 		bl	_lv_blend_fill
 7461              	.LVL690:
 7462 05c8 0CE7     		b	.L328
 7463              	.LVL691:
 7464              	.L356:
 290:Middlewares/lvgl/src/draw/lv_draw_rect.c ****                                    grad_color, mask_buf, mask_res, opa2, dsc->blend_mode);
 7465              		.loc 1 290 21 is_stmt 0 view .LVU2769
 7466              	.LBE401:
 302:Middlewares/lvgl/src/draw/lv_draw_rect.c ****             /*Central part*/
 7467              		.loc 1 302 9 is_stmt 1 view .LVU2770
 302:Middlewares/lvgl/src/draw/lv_draw_rect.c ****             /*Central part*/
 7468              		.loc 1 302 11 is_stmt 0 view .LVU2771
 7469 05ca 0B9B     		ldr	r3, [sp, #44]
 7470 05cc BBF1000F 		cmp	fp, #0
 7471 05d0 08BF     		it	eq
 7472 05d2 002B     		cmpeq	r3, #0
 7473 05d4 01D1     		bne	.L332
 302:Middlewares/lvgl/src/draw/lv_draw_rect.c ****             /*Central part*/
 7474              		.loc 1 302 64 discriminator 1 view .LVU2772
 7475 05d6 069B     		ldr	r3, [sp, #24]
 7476 05d8 83B9     		cbnz	r3, .L362
 7477              	.LVL692:
 7478              	.L332:
 329:Middlewares/lvgl/src/draw/lv_draw_rect.c ****         if(mask_buf) lv_mem_buf_release(mask_buf);
 7479              		.loc 1 329 9 is_stmt 1 view .LVU2773
 329:Middlewares/lvgl/src/draw/lv_draw_rect.c ****         if(mask_buf) lv_mem_buf_release(mask_buf);
 7480              		.loc 1 329 11 is_stmt 0 view .LVU2774
 7481 05da 0C9B     		ldr	r3, [sp, #48]
 7482 05dc 13B1     		cbz	r3, .L334
 329:Middlewares/lvgl/src/draw/lv_draw_rect.c ****         if(mask_buf) lv_mem_buf_release(mask_buf);
ARM GAS  /tmp/ccUpPomB.s 			page 211


 7483              		.loc 1 329 22 is_stmt 1 discriminator 1 view .LVU2775
 7484 05de 1846     		mov	r0, r3
 7485 05e0 FFF7FEFF 		bl	lv_mem_buf_release
 7486              	.LVL693:
 7487              	.L334:
 330:Middlewares/lvgl/src/draw/lv_draw_rect.c ****         lv_draw_mask_remove_id(mask_rout_id);
 7488              		.loc 1 330 9 view .LVU2776
 330:Middlewares/lvgl/src/draw/lv_draw_rect.c ****         lv_draw_mask_remove_id(mask_rout_id);
 7489              		.loc 1 330 11 is_stmt 0 view .LVU2777
 7490 05e4 BAF1000F 		cmp	r10, #0
 7491 05e8 02D0     		beq	.L335
 330:Middlewares/lvgl/src/draw/lv_draw_rect.c ****         lv_draw_mask_remove_id(mask_rout_id);
 7492              		.loc 1 330 22 is_stmt 1 discriminator 1 view .LVU2778
 7493 05ea 5046     		mov	r0, r10
 7494 05ec FFF7FEFF 		bl	lv_mem_buf_release
 7495              	.LVL694:
 7496              	.L335:
 331:Middlewares/lvgl/src/draw/lv_draw_rect.c ****     }
 7497              		.loc 1 331 9 view .LVU2779
 7498 05f0 0E98     		ldr	r0, [sp, #56]
 7499 05f2 FFF7FEFF 		bl	lv_draw_mask_remove_id
 7500              	.LVL695:
 7501              	.L299:
 331:Middlewares/lvgl/src/draw/lv_draw_rect.c ****     }
 7502              		.loc 1 331 9 is_stmt 0 view .LVU2780
 7503              	.LBE402:
 335:Middlewares/lvgl/src/draw/lv_draw_rect.c **** 
 7504              		.loc 1 335 1 view .LVU2781
 7505 05f6 21B0     		add	sp, sp, #132
 7506              	.LCFI27:
 7507              		.cfi_remember_state
 7508              		.cfi_def_cfa_offset 36
 7509              		@ sp needed
 7510 05f8 BDE8F08F 		pop	{r4, r5, r6, r7, r8, r9, r10, fp, pc}
 7511              	.LVL696:
 7512              	.L362:
 7513              	.LCFI28:
 7514              		.cfi_restore_state
 7515              	.LBB403:
 304:Middlewares/lvgl/src/draw/lv_draw_rect.c ****             fill_area.x2 = coords_bg.x2 - rout;
 7516              		.loc 1 304 13 is_stmt 1 view .LVU2782
 304:Middlewares/lvgl/src/draw/lv_draw_rect.c ****             fill_area.x2 = coords_bg.x2 - rout;
 7517              		.loc 1 304 37 is_stmt 0 view .LVU2783
 7518 05fc BDF87830 		ldrh	r3, [sp, #120]
 304:Middlewares/lvgl/src/draw/lv_draw_rect.c ****             fill_area.x2 = coords_bg.x2 - rout;
 7519              		.loc 1 304 41 view .LVU2784
 7520 0600 1FFA89F9 		uxth	r9, r9
 7521 0604 4B44     		add	r3, r3, r9
 304:Middlewares/lvgl/src/draw/lv_draw_rect.c ****             fill_area.x2 = coords_bg.x2 - rout;
 7522              		.loc 1 304 26 view .LVU2785
 7523 0606 ADF84430 		strh	r3, [sp, #68]	@ movhi
 305:Middlewares/lvgl/src/draw/lv_draw_rect.c ****             fill_area.y1 = coords_bg.y1;
 7524              		.loc 1 305 13 is_stmt 1 view .LVU2786
 305:Middlewares/lvgl/src/draw/lv_draw_rect.c ****             fill_area.y1 = coords_bg.y1;
 7525              		.loc 1 305 37 is_stmt 0 view .LVU2787
 7526 060a BDF87C30 		ldrh	r3, [sp, #124]
 305:Middlewares/lvgl/src/draw/lv_draw_rect.c ****             fill_area.y1 = coords_bg.y1;
ARM GAS  /tmp/ccUpPomB.s 			page 212


 7527              		.loc 1 305 41 view .LVU2788
 7528 060e A3EB0903 		sub	r3, r3, r9
 305:Middlewares/lvgl/src/draw/lv_draw_rect.c ****             fill_area.y1 = coords_bg.y1;
 7529              		.loc 1 305 26 view .LVU2789
 7530 0612 ADF84830 		strh	r3, [sp, #72]	@ movhi
 306:Middlewares/lvgl/src/draw/lv_draw_rect.c ****             fill_area.y2 = coords_bg.y1 + rout;
 7531              		.loc 1 306 13 is_stmt 1 view .LVU2790
 306:Middlewares/lvgl/src/draw/lv_draw_rect.c ****             fill_area.y2 = coords_bg.y1 + rout;
 7532              		.loc 1 306 37 is_stmt 0 view .LVU2791
 7533 0616 BDF97A30 		ldrsh	r3, [sp, #122]
 306:Middlewares/lvgl/src/draw/lv_draw_rect.c ****             fill_area.y2 = coords_bg.y1 + rout;
 7534              		.loc 1 306 26 view .LVU2792
 7535 061a ADF84630 		strh	r3, [sp, #70]	@ movhi
 307:Middlewares/lvgl/src/draw/lv_draw_rect.c **** 
 7536              		.loc 1 307 13 is_stmt 1 view .LVU2793
 307:Middlewares/lvgl/src/draw/lv_draw_rect.c **** 
 7537              		.loc 1 307 41 is_stmt 0 view .LVU2794
 7538 061e 19FA83F3 		uxtah	r3, r9, r3
 307:Middlewares/lvgl/src/draw/lv_draw_rect.c **** 
 7539              		.loc 1 307 26 view .LVU2795
 7540 0622 ADF84A30 		strh	r3, [sp, #74]	@ movhi
 309:Middlewares/lvgl/src/draw/lv_draw_rect.c ****                            dsc->bg_color, NULL, LV_DRAW_MASK_RES_FULL_COVER, opa, dsc->blend_mode);
 7541              		.loc 1 309 13 is_stmt 1 view .LVU2796
 7542 0626 AB78     		ldrb	r3, [r5, #2]	@ zero_extendqisi2
 7543 0628 0293     		str	r3, [sp, #8]
 7544 062a 049B     		ldr	r3, [sp, #16]
 7545 062c 0193     		str	r3, [sp, #4]
 7546 062e 0123     		movs	r3, #1
 7547 0630 0093     		str	r3, [sp]
 7548 0632 0023     		movs	r3, #0
 7549 0634 AA88     		ldrh	r2, [r5, #4]
 7550 0636 11A9     		add	r1, sp, #68
 7551 0638 0798     		ldr	r0, [sp, #28]
 7552 063a FFF7FEFF 		bl	_lv_blend_fill
 7553              	.LVL697:
 312:Middlewares/lvgl/src/draw/lv_draw_rect.c ****             if(fill_area.y1 <= fill_area.y2) fill_area.y1 = fill_area.y2 + 1;    /*Avoid overdrawin
 7554              		.loc 1 312 13 view .LVU2797
 312:Middlewares/lvgl/src/draw/lv_draw_rect.c ****             if(fill_area.y1 <= fill_area.y2) fill_area.y1 = fill_area.y2 + 1;    /*Avoid overdrawin
 7555              		.loc 1 312 37 is_stmt 0 view .LVU2798
 7556 063e BDF97E10 		ldrsh	r1, [sp, #126]
 7557 0642 8BB2     		uxth	r3, r1
 312:Middlewares/lvgl/src/draw/lv_draw_rect.c ****             if(fill_area.y1 <= fill_area.y2) fill_area.y1 = fill_area.y2 + 1;    /*Avoid overdrawin
 7558              		.loc 1 312 41 view .LVU2799
 7559 0644 A3EB0903 		sub	r3, r3, r9
 7560 0648 1BB2     		sxth	r3, r3
 312:Middlewares/lvgl/src/draw/lv_draw_rect.c ****             if(fill_area.y1 <= fill_area.y2) fill_area.y1 = fill_area.y2 + 1;    /*Avoid overdrawin
 7561              		.loc 1 312 26 view .LVU2800
 7562 064a ADF84630 		strh	r3, [sp, #70]	@ movhi
 313:Middlewares/lvgl/src/draw/lv_draw_rect.c ****             fill_area.y2 = coords_bg.y2;
 7563              		.loc 1 313 13 is_stmt 1 view .LVU2801
 313:Middlewares/lvgl/src/draw/lv_draw_rect.c ****             fill_area.y2 = coords_bg.y2;
 7564              		.loc 1 313 41 is_stmt 0 view .LVU2802
 7565 064e BDF94A20 		ldrsh	r2, [sp, #74]
 313:Middlewares/lvgl/src/draw/lv_draw_rect.c ****             fill_area.y2 = coords_bg.y2;
 7566              		.loc 1 313 15 view .LVU2803
 7567 0652 9342     		cmp	r3, r2
 7568 0654 03DC     		bgt	.L333
ARM GAS  /tmp/ccUpPomB.s 			page 213


 313:Middlewares/lvgl/src/draw/lv_draw_rect.c ****             fill_area.y2 = coords_bg.y2;
 7569              		.loc 1 313 46 is_stmt 1 discriminator 1 view .LVU2804
 313:Middlewares/lvgl/src/draw/lv_draw_rect.c ****             fill_area.y2 = coords_bg.y2;
 7570              		.loc 1 313 70 is_stmt 0 discriminator 1 view .LVU2805
 7571 0656 93B2     		uxth	r3, r2
 313:Middlewares/lvgl/src/draw/lv_draw_rect.c ****             fill_area.y2 = coords_bg.y2;
 7572              		.loc 1 313 74 discriminator 1 view .LVU2806
 7573 0658 0133     		adds	r3, r3, #1
 313:Middlewares/lvgl/src/draw/lv_draw_rect.c ****             fill_area.y2 = coords_bg.y2;
 7574              		.loc 1 313 59 discriminator 1 view .LVU2807
 7575 065a ADF84630 		strh	r3, [sp, #70]	@ movhi
 7576              	.L333:
 314:Middlewares/lvgl/src/draw/lv_draw_rect.c **** 
 7577              		.loc 1 314 13 is_stmt 1 view .LVU2808
 314:Middlewares/lvgl/src/draw/lv_draw_rect.c **** 
 7578              		.loc 1 314 26 is_stmt 0 view .LVU2809
 7579 065e ADF84A10 		strh	r1, [sp, #74]	@ movhi
 316:Middlewares/lvgl/src/draw/lv_draw_rect.c ****                            dsc->bg_color, NULL, LV_DRAW_MASK_RES_FULL_COVER, opa, dsc->blend_mode);
 7580              		.loc 1 316 13 is_stmt 1 view .LVU2810
 7581 0662 AB78     		ldrb	r3, [r5, #2]	@ zero_extendqisi2
 7582 0664 0293     		str	r3, [sp, #8]
 7583 0666 049E     		ldr	r6, [sp, #16]
 7584              	.LVL698:
 316:Middlewares/lvgl/src/draw/lv_draw_rect.c ****                            dsc->bg_color, NULL, LV_DRAW_MASK_RES_FULL_COVER, opa, dsc->blend_mode);
 7585              		.loc 1 316 13 is_stmt 0 view .LVU2811
 7586 0668 0196     		str	r6, [sp, #4]
 7587 066a 0124     		movs	r4, #1
 7588 066c 0094     		str	r4, [sp]
 7589 066e 0023     		movs	r3, #0
 7590 0670 AA88     		ldrh	r2, [r5, #4]
 7591 0672 11A9     		add	r1, sp, #68
 7592 0674 079F     		ldr	r7, [sp, #28]
 7593 0676 3846     		mov	r0, r7
 7594 0678 FFF7FEFF 		bl	_lv_blend_fill
 7595              	.LVL699:
 319:Middlewares/lvgl/src/draw/lv_draw_rect.c ****             fill_area.x2 = coords_bg.x2;
 7596              		.loc 1 319 13 is_stmt 1 view .LVU2812
 319:Middlewares/lvgl/src/draw/lv_draw_rect.c ****             fill_area.x2 = coords_bg.x2;
 7597              		.loc 1 319 37 is_stmt 0 view .LVU2813
 7598 067c BDF97830 		ldrsh	r3, [sp, #120]
 319:Middlewares/lvgl/src/draw/lv_draw_rect.c ****             fill_area.x2 = coords_bg.x2;
 7599              		.loc 1 319 26 view .LVU2814
 7600 0680 ADF84430 		strh	r3, [sp, #68]	@ movhi
 320:Middlewares/lvgl/src/draw/lv_draw_rect.c ****             fill_area.y1 = coords_bg.y1 + rout + 1;
 7601              		.loc 1 320 13 is_stmt 1 view .LVU2815
 320:Middlewares/lvgl/src/draw/lv_draw_rect.c ****             fill_area.y1 = coords_bg.y1 + rout + 1;
 7602              		.loc 1 320 37 is_stmt 0 view .LVU2816
 7603 0684 BDF97C30 		ldrsh	r3, [sp, #124]
 320:Middlewares/lvgl/src/draw/lv_draw_rect.c ****             fill_area.y1 = coords_bg.y1 + rout + 1;
 7604              		.loc 1 320 26 view .LVU2817
 7605 0688 ADF84830 		strh	r3, [sp, #72]	@ movhi
 321:Middlewares/lvgl/src/draw/lv_draw_rect.c ****             fill_area.y2 = coords_bg.y2 - rout - 1;
 7606              		.loc 1 321 13 is_stmt 1 view .LVU2818
 321:Middlewares/lvgl/src/draw/lv_draw_rect.c ****             fill_area.y2 = coords_bg.y2 - rout - 1;
 7607              		.loc 1 321 37 is_stmt 0 view .LVU2819
 7608 068c BDF87A30 		ldrh	r3, [sp, #122]
 321:Middlewares/lvgl/src/draw/lv_draw_rect.c ****             fill_area.y2 = coords_bg.y2 - rout - 1;
ARM GAS  /tmp/ccUpPomB.s 			page 214


 7609              		.loc 1 321 41 view .LVU2820
 7610 0690 4B44     		add	r3, r3, r9
 7611 0692 9BB2     		uxth	r3, r3
 321:Middlewares/lvgl/src/draw/lv_draw_rect.c ****             fill_area.y2 = coords_bg.y2 - rout - 1;
 7612              		.loc 1 321 48 view .LVU2821
 7613 0694 2344     		add	r3, r3, r4
 321:Middlewares/lvgl/src/draw/lv_draw_rect.c ****             fill_area.y2 = coords_bg.y2 - rout - 1;
 7614              		.loc 1 321 26 view .LVU2822
 7615 0696 ADF84630 		strh	r3, [sp, #70]	@ movhi
 322:Middlewares/lvgl/src/draw/lv_draw_rect.c **** 
 7616              		.loc 1 322 13 is_stmt 1 view .LVU2823
 322:Middlewares/lvgl/src/draw/lv_draw_rect.c **** 
 7617              		.loc 1 322 37 is_stmt 0 view .LVU2824
 7618 069a BDF87E30 		ldrh	r3, [sp, #126]
 322:Middlewares/lvgl/src/draw/lv_draw_rect.c **** 
 7619              		.loc 1 322 41 view .LVU2825
 7620 069e A3EB0903 		sub	r3, r3, r9
 7621 06a2 9BB2     		uxth	r3, r3
 322:Middlewares/lvgl/src/draw/lv_draw_rect.c **** 
 7622              		.loc 1 322 48 view .LVU2826
 7623 06a4 013B     		subs	r3, r3, #1
 322:Middlewares/lvgl/src/draw/lv_draw_rect.c **** 
 7624              		.loc 1 322 26 view .LVU2827
 7625 06a6 ADF84A30 		strh	r3, [sp, #74]	@ movhi
 324:Middlewares/lvgl/src/draw/lv_draw_rect.c ****                            dsc->bg_color, NULL, LV_DRAW_MASK_RES_FULL_COVER, opa, dsc->blend_mode);
 7626              		.loc 1 324 13 is_stmt 1 view .LVU2828
 7627 06aa AB78     		ldrb	r3, [r5, #2]	@ zero_extendqisi2
 7628 06ac 0293     		str	r3, [sp, #8]
 7629 06ae 0196     		str	r6, [sp, #4]
 7630 06b0 0094     		str	r4, [sp]
 7631 06b2 0023     		movs	r3, #0
 7632 06b4 AA88     		ldrh	r2, [r5, #4]
 7633 06b6 11A9     		add	r1, sp, #68
 7634 06b8 3846     		mov	r0, r7
 7635 06ba FFF7FEFF 		bl	_lv_blend_fill
 7636              	.LVL700:
 7637 06be 8CE7     		b	.L332
 7638              	.LBE403:
 7639              		.cfi_endproc
 7640              	.LFE149:
 7642              		.section	.text.lv_draw_rect_dsc_init,"ax",%progbits
 7643              		.align	1
 7644              		.global	lv_draw_rect_dsc_init
 7645              		.syntax unified
 7646              		.thumb
 7647              		.thumb_func
 7649              	lv_draw_rect_dsc_init:
 7650              	.LVL701:
 7651              	.LFB147:
  76:Middlewares/lvgl/src/draw/lv_draw_rect.c ****     lv_memset_00(dsc, sizeof(lv_draw_rect_dsc_t));
 7652              		.loc 1 76 1 view -0
 7653              		.cfi_startproc
 7654              		@ args = 0, pretend = 0, frame = 0
 7655              		@ frame_needed = 0, uses_anonymous_args = 0
  76:Middlewares/lvgl/src/draw/lv_draw_rect.c ****     lv_memset_00(dsc, sizeof(lv_draw_rect_dsc_t));
 7656              		.loc 1 76 1 is_stmt 0 view .LVU2830
 7657 0000 10B5     		push	{r4, lr}
ARM GAS  /tmp/ccUpPomB.s 			page 215


 7658              	.LCFI29:
 7659              		.cfi_def_cfa_offset 8
 7660              		.cfi_offset 4, -8
 7661              		.cfi_offset 14, -4
 7662 0002 0446     		mov	r4, r0
  77:Middlewares/lvgl/src/draw/lv_draw_rect.c ****     dsc->bg_color = lv_color_white();
 7663              		.loc 1 77 5 is_stmt 1 view .LVU2831
 7664 0004 3421     		movs	r1, #52
 7665 0006 FFF7FEFF 		bl	lv_memset_00
 7666              	.LVL702:
  78:Middlewares/lvgl/src/draw/lv_draw_rect.c ****     dsc->bg_grad_color = lv_color_black();
 7667              		.loc 1 78 5 view .LVU2832
 7668              	.LBB404:
 7669              	.LBI404:
 477:Middlewares/lvgl/src/draw/../misc/lv_color.h **** }
 478:Middlewares/lvgl/src/draw/../misc/lv_color.h **** 
 479:Middlewares/lvgl/src/draw/../misc/lv_color.h **** LV_ATTRIBUTE_FAST_MEM static inline void lv_color_premult(lv_color_t c, uint8_t mix, uint16_t * out
 480:Middlewares/lvgl/src/draw/../misc/lv_color.h **** {
 481:Middlewares/lvgl/src/draw/../misc/lv_color.h **** #if LV_COLOR_DEPTH != 1
 482:Middlewares/lvgl/src/draw/../misc/lv_color.h ****     out[0] = (uint16_t) LV_COLOR_GET_R(c) * mix;
 483:Middlewares/lvgl/src/draw/../misc/lv_color.h ****     out[1] = (uint16_t) LV_COLOR_GET_G(c) * mix;
 484:Middlewares/lvgl/src/draw/../misc/lv_color.h ****     out[2] = (uint16_t) LV_COLOR_GET_B(c) * mix;
 485:Middlewares/lvgl/src/draw/../misc/lv_color.h **** #else
 486:Middlewares/lvgl/src/draw/../misc/lv_color.h ****     (void) mix;
 487:Middlewares/lvgl/src/draw/../misc/lv_color.h ****     /*Pre-multiplication can't be used with 1 bpp*/
 488:Middlewares/lvgl/src/draw/../misc/lv_color.h ****     out[0] = LV_COLOR_GET_R(c);
 489:Middlewares/lvgl/src/draw/../misc/lv_color.h ****     out[1] = LV_COLOR_GET_G(c);
 490:Middlewares/lvgl/src/draw/../misc/lv_color.h ****     out[2] = LV_COLOR_GET_B(c);
 491:Middlewares/lvgl/src/draw/../misc/lv_color.h **** #endif
 492:Middlewares/lvgl/src/draw/../misc/lv_color.h **** 
 493:Middlewares/lvgl/src/draw/../misc/lv_color.h **** }
 494:Middlewares/lvgl/src/draw/../misc/lv_color.h **** 
 495:Middlewares/lvgl/src/draw/../misc/lv_color.h **** /**
 496:Middlewares/lvgl/src/draw/../misc/lv_color.h ****  * Mix two colors with a given ratio. It runs faster then `lv_color_mix` but requires some pre comp
 497:Middlewares/lvgl/src/draw/../misc/lv_color.h ****  * @param premult_c1 The first color. Should be preprocessed with `lv_color_premult(c1)`
 498:Middlewares/lvgl/src/draw/../misc/lv_color.h ****  * @param c2 The second color. As it is no pre computation required on it
 499:Middlewares/lvgl/src/draw/../misc/lv_color.h ****  * @param mix The ratio of the colors. 0: full `c1`, 255: full `c2`, 127: half `c1` and half `c2`.
 500:Middlewares/lvgl/src/draw/../misc/lv_color.h ****  *            Should be modified like mix = `255 - mix`
 501:Middlewares/lvgl/src/draw/../misc/lv_color.h ****  * @return the mixed color
 502:Middlewares/lvgl/src/draw/../misc/lv_color.h ****  * @note 255 won't give clearly `c1`.
 503:Middlewares/lvgl/src/draw/../misc/lv_color.h ****  */
 504:Middlewares/lvgl/src/draw/../misc/lv_color.h **** LV_ATTRIBUTE_FAST_MEM static inline lv_color_t lv_color_mix_premult(uint16_t * premult_c1, lv_color
 505:Middlewares/lvgl/src/draw/../misc/lv_color.h **** {
 506:Middlewares/lvgl/src/draw/../misc/lv_color.h ****     lv_color_t ret;
 507:Middlewares/lvgl/src/draw/../misc/lv_color.h **** #if LV_COLOR_DEPTH != 1
 508:Middlewares/lvgl/src/draw/../misc/lv_color.h ****     /*LV_COLOR_DEPTH == 8, 16 or 32*/
 509:Middlewares/lvgl/src/draw/../misc/lv_color.h ****     LV_COLOR_SET_R(ret, LV_UDIV255(premult_c1[0] + LV_COLOR_GET_R(c2) * mix + LV_COLOR_MIX_ROUND_OF
 510:Middlewares/lvgl/src/draw/../misc/lv_color.h ****     LV_COLOR_SET_G(ret, LV_UDIV255(premult_c1[1] + LV_COLOR_GET_G(c2) * mix + LV_COLOR_MIX_ROUND_OF
 511:Middlewares/lvgl/src/draw/../misc/lv_color.h ****     LV_COLOR_SET_B(ret, LV_UDIV255(premult_c1[2] + LV_COLOR_GET_B(c2) * mix + LV_COLOR_MIX_ROUND_OF
 512:Middlewares/lvgl/src/draw/../misc/lv_color.h ****     LV_COLOR_SET_A(ret, 0xFF);
 513:Middlewares/lvgl/src/draw/../misc/lv_color.h **** #else
 514:Middlewares/lvgl/src/draw/../misc/lv_color.h ****     /*LV_COLOR_DEPTH == 1*/
 515:Middlewares/lvgl/src/draw/../misc/lv_color.h ****     /*Restore color1*/
 516:Middlewares/lvgl/src/draw/../misc/lv_color.h ****     lv_color_t c1;
 517:Middlewares/lvgl/src/draw/../misc/lv_color.h ****     LV_COLOR_SET_R(c1, premult_c1[0]);
 518:Middlewares/lvgl/src/draw/../misc/lv_color.h ****     LV_COLOR_SET_G(c1, premult_c1[1]);
 519:Middlewares/lvgl/src/draw/../misc/lv_color.h ****     LV_COLOR_SET_B(c1, premult_c1[2]);
ARM GAS  /tmp/ccUpPomB.s 			page 216


 520:Middlewares/lvgl/src/draw/../misc/lv_color.h ****     ret.full = mix > LV_OPA_50 ? c2.full : c1.full;
 521:Middlewares/lvgl/src/draw/../misc/lv_color.h **** #endif
 522:Middlewares/lvgl/src/draw/../misc/lv_color.h **** 
 523:Middlewares/lvgl/src/draw/../misc/lv_color.h ****     return ret;
 524:Middlewares/lvgl/src/draw/../misc/lv_color.h **** }
 525:Middlewares/lvgl/src/draw/../misc/lv_color.h **** 
 526:Middlewares/lvgl/src/draw/../misc/lv_color.h **** /**
 527:Middlewares/lvgl/src/draw/../misc/lv_color.h ****  * Mix two colors. Both color can have alpha value.
 528:Middlewares/lvgl/src/draw/../misc/lv_color.h ****  * @param bg_color background color
 529:Middlewares/lvgl/src/draw/../misc/lv_color.h ****  * @param bg_opa alpha of the background color
 530:Middlewares/lvgl/src/draw/../misc/lv_color.h ****  * @param fg_color foreground color
 531:Middlewares/lvgl/src/draw/../misc/lv_color.h ****  * @param fg_opa alpha of the foreground color
 532:Middlewares/lvgl/src/draw/../misc/lv_color.h ****  * @param res_color the result color
 533:Middlewares/lvgl/src/draw/../misc/lv_color.h ****  * @param res_opa the result opacity
 534:Middlewares/lvgl/src/draw/../misc/lv_color.h ****  */
 535:Middlewares/lvgl/src/draw/../misc/lv_color.h **** LV_ATTRIBUTE_FAST_MEM static inline void lv_color_mix_with_alpha(lv_color_t bg_color, lv_opa_t bg_o
 536:Middlewares/lvgl/src/draw/../misc/lv_color.h ****                                                                  lv_color_t fg_color, lv_opa_t fg_o
 537:Middlewares/lvgl/src/draw/../misc/lv_color.h ****                                                                  lv_color_t * res_color, lv_opa_t *
 538:Middlewares/lvgl/src/draw/../misc/lv_color.h **** {
 539:Middlewares/lvgl/src/draw/../misc/lv_color.h ****     /*Pick the foreground if it's fully opaque or the Background is fully transparent*/
 540:Middlewares/lvgl/src/draw/../misc/lv_color.h ****     if(fg_opa >= LV_OPA_MAX || bg_opa <= LV_OPA_MIN) {
 541:Middlewares/lvgl/src/draw/../misc/lv_color.h ****         res_color->full = fg_color.full;
 542:Middlewares/lvgl/src/draw/../misc/lv_color.h ****         *res_opa = fg_opa;
 543:Middlewares/lvgl/src/draw/../misc/lv_color.h ****     }
 544:Middlewares/lvgl/src/draw/../misc/lv_color.h ****     /*Transparent foreground: use the Background*/
 545:Middlewares/lvgl/src/draw/../misc/lv_color.h ****     else if(fg_opa <= LV_OPA_MIN) {
 546:Middlewares/lvgl/src/draw/../misc/lv_color.h ****         res_color->full = bg_color.full;
 547:Middlewares/lvgl/src/draw/../misc/lv_color.h ****         *res_opa = bg_opa;
 548:Middlewares/lvgl/src/draw/../misc/lv_color.h ****     }
 549:Middlewares/lvgl/src/draw/../misc/lv_color.h ****     /*Opaque background: use simple mix*/
 550:Middlewares/lvgl/src/draw/../misc/lv_color.h ****     else if(bg_opa >= LV_OPA_MAX) {
 551:Middlewares/lvgl/src/draw/../misc/lv_color.h ****         *res_color = lv_color_mix(fg_color, bg_color, fg_opa);
 552:Middlewares/lvgl/src/draw/../misc/lv_color.h ****         *res_opa = LV_OPA_COVER;
 553:Middlewares/lvgl/src/draw/../misc/lv_color.h ****     }
 554:Middlewares/lvgl/src/draw/../misc/lv_color.h ****     /*Both colors have alpha. Expensive calculation need to be applied*/
 555:Middlewares/lvgl/src/draw/../misc/lv_color.h ****     else {
 556:Middlewares/lvgl/src/draw/../misc/lv_color.h ****         /*Save the parameters and the result. If they will be asked again don't compute again*/
 557:Middlewares/lvgl/src/draw/../misc/lv_color.h ****         static lv_opa_t fg_opa_save     = 0;
 558:Middlewares/lvgl/src/draw/../misc/lv_color.h ****         static lv_opa_t bg_opa_save     = 0;
 559:Middlewares/lvgl/src/draw/../misc/lv_color.h ****         static lv_color_t fg_color_save = _LV_COLOR_ZERO_INITIALIZER;
 560:Middlewares/lvgl/src/draw/../misc/lv_color.h ****         static lv_color_t bg_color_save = _LV_COLOR_ZERO_INITIALIZER;
 561:Middlewares/lvgl/src/draw/../misc/lv_color.h ****         static lv_color_t res_color_saved = _LV_COLOR_ZERO_INITIALIZER;
 562:Middlewares/lvgl/src/draw/../misc/lv_color.h ****         static lv_opa_t res_opa_saved = 0;
 563:Middlewares/lvgl/src/draw/../misc/lv_color.h **** 
 564:Middlewares/lvgl/src/draw/../misc/lv_color.h ****         if(fg_opa != fg_opa_save || bg_opa != bg_opa_save || fg_color.full != fg_color_save.full ||
 565:Middlewares/lvgl/src/draw/../misc/lv_color.h ****            bg_color.full != bg_color_save.full) {
 566:Middlewares/lvgl/src/draw/../misc/lv_color.h ****             fg_opa_save        = fg_opa;
 567:Middlewares/lvgl/src/draw/../misc/lv_color.h ****             bg_opa_save        = bg_opa;
 568:Middlewares/lvgl/src/draw/../misc/lv_color.h ****             fg_color_save.full = fg_color.full;
 569:Middlewares/lvgl/src/draw/../misc/lv_color.h ****             bg_color_save.full = bg_color.full;
 570:Middlewares/lvgl/src/draw/../misc/lv_color.h ****             /*Info:
 571:Middlewares/lvgl/src/draw/../misc/lv_color.h ****              * https://en.wikipedia.org/wiki/Alpha_compositing#Analytical_derivation_of_the_over_op
 572:Middlewares/lvgl/src/draw/../misc/lv_color.h ****             res_opa_saved = 255 - ((uint16_t)((uint16_t)(255 - fg_opa) * (255 - bg_opa)) >> 8);
 573:Middlewares/lvgl/src/draw/../misc/lv_color.h ****             if(res_opa_saved == 0) {
 574:Middlewares/lvgl/src/draw/../misc/lv_color.h ****                 while(1)
 575:Middlewares/lvgl/src/draw/../misc/lv_color.h ****                     ;
 576:Middlewares/lvgl/src/draw/../misc/lv_color.h ****             }
ARM GAS  /tmp/ccUpPomB.s 			page 217


 577:Middlewares/lvgl/src/draw/../misc/lv_color.h ****             lv_opa_t ratio = (uint16_t)((uint16_t)fg_opa * 255) / res_opa_saved;
 578:Middlewares/lvgl/src/draw/../misc/lv_color.h ****             res_color_saved = lv_color_mix(fg_color, bg_color, ratio);
 579:Middlewares/lvgl/src/draw/../misc/lv_color.h **** 
 580:Middlewares/lvgl/src/draw/../misc/lv_color.h ****         }
 581:Middlewares/lvgl/src/draw/../misc/lv_color.h **** 
 582:Middlewares/lvgl/src/draw/../misc/lv_color.h ****         res_color->full = res_color_saved.full;
 583:Middlewares/lvgl/src/draw/../misc/lv_color.h ****         *res_opa = res_opa_saved;
 584:Middlewares/lvgl/src/draw/../misc/lv_color.h ****     }
 585:Middlewares/lvgl/src/draw/../misc/lv_color.h **** }
 586:Middlewares/lvgl/src/draw/../misc/lv_color.h **** 
 587:Middlewares/lvgl/src/draw/../misc/lv_color.h **** //! @endcond
 588:Middlewares/lvgl/src/draw/../misc/lv_color.h **** 
 589:Middlewares/lvgl/src/draw/../misc/lv_color.h **** /**
 590:Middlewares/lvgl/src/draw/../misc/lv_color.h ****  * Get the brightness of a color
 591:Middlewares/lvgl/src/draw/../misc/lv_color.h ****  * @param color a color
 592:Middlewares/lvgl/src/draw/../misc/lv_color.h ****  * @return the brightness [0..255]
 593:Middlewares/lvgl/src/draw/../misc/lv_color.h ****  */
 594:Middlewares/lvgl/src/draw/../misc/lv_color.h **** static inline uint8_t lv_color_brightness(lv_color_t color)
 595:Middlewares/lvgl/src/draw/../misc/lv_color.h **** {
 596:Middlewares/lvgl/src/draw/../misc/lv_color.h ****     lv_color32_t c32;
 597:Middlewares/lvgl/src/draw/../misc/lv_color.h ****     c32.full        = lv_color_to32(color);
 598:Middlewares/lvgl/src/draw/../misc/lv_color.h ****     uint16_t bright = (uint16_t)(3u * LV_COLOR_GET_R32(c32) + LV_COLOR_GET_B32(c32) + 4u * LV_COLOR
 599:Middlewares/lvgl/src/draw/../misc/lv_color.h ****     return (uint8_t)(bright >> 3);
 600:Middlewares/lvgl/src/draw/../misc/lv_color.h **** }
 601:Middlewares/lvgl/src/draw/../misc/lv_color.h **** 
 602:Middlewares/lvgl/src/draw/../misc/lv_color.h **** static inline lv_color_t lv_color_make(uint8_t r, uint8_t g, uint8_t b)
 603:Middlewares/lvgl/src/draw/../misc/lv_color.h **** {
 604:Middlewares/lvgl/src/draw/../misc/lv_color.h ****     return _LV_COLOR_MAKE_TYPE_HELPER LV_COLOR_MAKE(r, g, b);
 605:Middlewares/lvgl/src/draw/../misc/lv_color.h **** }
 606:Middlewares/lvgl/src/draw/../misc/lv_color.h **** 
 607:Middlewares/lvgl/src/draw/../misc/lv_color.h **** static inline lv_color_t lv_color_hex(uint32_t c)
 608:Middlewares/lvgl/src/draw/../misc/lv_color.h **** {
 609:Middlewares/lvgl/src/draw/../misc/lv_color.h ****     return lv_color_make((uint8_t)((c >> 16) & 0xFF), (uint8_t)((c >> 8) & 0xFF), (uint8_t)(c & 0xF
 610:Middlewares/lvgl/src/draw/../misc/lv_color.h **** }
 611:Middlewares/lvgl/src/draw/../misc/lv_color.h **** 
 612:Middlewares/lvgl/src/draw/../misc/lv_color.h **** static inline lv_color_t lv_color_hex3(uint32_t c)
 613:Middlewares/lvgl/src/draw/../misc/lv_color.h **** {
 614:Middlewares/lvgl/src/draw/../misc/lv_color.h ****     return lv_color_make((uint8_t)(((c >> 4) & 0xF0) | ((c >> 8) & 0xF)), (uint8_t)((c & 0xF0) | ((
 615:Middlewares/lvgl/src/draw/../misc/lv_color.h ****                          (uint8_t)((c & 0xF) | ((c & 0xF) << 4)));
 616:Middlewares/lvgl/src/draw/../misc/lv_color.h **** }
 617:Middlewares/lvgl/src/draw/../misc/lv_color.h **** 
 618:Middlewares/lvgl/src/draw/../misc/lv_color.h **** static inline void lv_color_filter_dsc_init(lv_color_filter_dsc_t * dsc, lv_color_filter_cb_t cb)
 619:Middlewares/lvgl/src/draw/../misc/lv_color.h **** {
 620:Middlewares/lvgl/src/draw/../misc/lv_color.h ****     dsc->filter_cb = cb;
 621:Middlewares/lvgl/src/draw/../misc/lv_color.h **** }
 622:Middlewares/lvgl/src/draw/../misc/lv_color.h **** 
 623:Middlewares/lvgl/src/draw/../misc/lv_color.h **** //! @cond Doxygen_Suppress
 624:Middlewares/lvgl/src/draw/../misc/lv_color.h **** //!
 625:Middlewares/lvgl/src/draw/../misc/lv_color.h **** LV_ATTRIBUTE_FAST_MEM void lv_color_fill(lv_color_t * buf, lv_color_t color, uint32_t px_num);
 626:Middlewares/lvgl/src/draw/../misc/lv_color.h **** 
 627:Middlewares/lvgl/src/draw/../misc/lv_color.h **** //! @endcond
 628:Middlewares/lvgl/src/draw/../misc/lv_color.h **** lv_color_t lv_color_lighten(lv_color_t c, lv_opa_t lvl);
 629:Middlewares/lvgl/src/draw/../misc/lv_color.h **** 
 630:Middlewares/lvgl/src/draw/../misc/lv_color.h **** lv_color_t lv_color_darken(lv_color_t c, lv_opa_t lvl);
 631:Middlewares/lvgl/src/draw/../misc/lv_color.h **** 
 632:Middlewares/lvgl/src/draw/../misc/lv_color.h **** lv_color_t lv_color_change_lightness(lv_color_t c, lv_opa_t lvl);
 633:Middlewares/lvgl/src/draw/../misc/lv_color.h **** 
ARM GAS  /tmp/ccUpPomB.s 			page 218


 634:Middlewares/lvgl/src/draw/../misc/lv_color.h **** /**
 635:Middlewares/lvgl/src/draw/../misc/lv_color.h ****  * Convert a HSV color to RGB
 636:Middlewares/lvgl/src/draw/../misc/lv_color.h ****  * @param h hue [0..359]
 637:Middlewares/lvgl/src/draw/../misc/lv_color.h ****  * @param s saturation [0..100]
 638:Middlewares/lvgl/src/draw/../misc/lv_color.h ****  * @param v value [0..100]
 639:Middlewares/lvgl/src/draw/../misc/lv_color.h ****  * @return the given RGB color in RGB (with LV_COLOR_DEPTH depth)
 640:Middlewares/lvgl/src/draw/../misc/lv_color.h ****  */
 641:Middlewares/lvgl/src/draw/../misc/lv_color.h **** lv_color_t lv_color_hsv_to_rgb(uint16_t h, uint8_t s, uint8_t v);
 642:Middlewares/lvgl/src/draw/../misc/lv_color.h **** 
 643:Middlewares/lvgl/src/draw/../misc/lv_color.h **** /**
 644:Middlewares/lvgl/src/draw/../misc/lv_color.h ****  * Convert a 32-bit RGB color to HSV
 645:Middlewares/lvgl/src/draw/../misc/lv_color.h ****  * @param r8 8-bit red
 646:Middlewares/lvgl/src/draw/../misc/lv_color.h ****  * @param g8 8-bit green
 647:Middlewares/lvgl/src/draw/../misc/lv_color.h ****  * @param b8 8-bit blue
 648:Middlewares/lvgl/src/draw/../misc/lv_color.h ****  * @return the given RGB color in HSV
 649:Middlewares/lvgl/src/draw/../misc/lv_color.h ****  */
 650:Middlewares/lvgl/src/draw/../misc/lv_color.h **** lv_color_hsv_t lv_color_rgb_to_hsv(uint8_t r8, uint8_t g8, uint8_t b8);
 651:Middlewares/lvgl/src/draw/../misc/lv_color.h **** 
 652:Middlewares/lvgl/src/draw/../misc/lv_color.h **** /**
 653:Middlewares/lvgl/src/draw/../misc/lv_color.h ****  * Convert a color to HSV
 654:Middlewares/lvgl/src/draw/../misc/lv_color.h ****  * @param color color
 655:Middlewares/lvgl/src/draw/../misc/lv_color.h ****  * @return the given color in HSV
 656:Middlewares/lvgl/src/draw/../misc/lv_color.h ****  */
 657:Middlewares/lvgl/src/draw/../misc/lv_color.h **** lv_color_hsv_t lv_color_to_hsv(lv_color_t color);
 658:Middlewares/lvgl/src/draw/../misc/lv_color.h **** 
 659:Middlewares/lvgl/src/draw/../misc/lv_color.h **** /**
 660:Middlewares/lvgl/src/draw/../misc/lv_color.h ****  * Just a wrapper around LV_COLOR_CHROMA_KEY because it might be more convenient to use a function 
 661:Middlewares/lvgl/src/draw/../misc/lv_color.h ****  * @return LV_COLOR_CHROMA_KEY
 662:Middlewares/lvgl/src/draw/../misc/lv_color.h ****  */
 663:Middlewares/lvgl/src/draw/../misc/lv_color.h **** static inline lv_color_t lv_color_chroma_key(void)
 664:Middlewares/lvgl/src/draw/../misc/lv_color.h **** {
 665:Middlewares/lvgl/src/draw/../misc/lv_color.h ****     return LV_COLOR_CHROMA_KEY;
 666:Middlewares/lvgl/src/draw/../misc/lv_color.h **** }
 667:Middlewares/lvgl/src/draw/../misc/lv_color.h **** 
 668:Middlewares/lvgl/src/draw/../misc/lv_color.h **** /**********************
 669:Middlewares/lvgl/src/draw/../misc/lv_color.h ****  *  PREDEFINED COLORS
 670:Middlewares/lvgl/src/draw/../misc/lv_color.h ****  **********************/
 671:Middlewares/lvgl/src/draw/../misc/lv_color.h **** /*Source: https://vuetifyjs.com/en/styles/colors/#material-colors*/
 672:Middlewares/lvgl/src/draw/../misc/lv_color.h **** 
 673:Middlewares/lvgl/src/draw/../misc/lv_color.h **** lv_color_t lv_palette_main(lv_palette_t p);
 674:Middlewares/lvgl/src/draw/../misc/lv_color.h **** static inline lv_color_t lv_color_white(void) { return lv_color_make(0xff, 0xff, 0xff);}
 7670              		.loc 3 674 26 view .LVU2833
 7671              	.LBE404:
 7672              		.loc 3 674 49 view .LVU2834
 7673              	.LBB407:
 7674              	.LBB405:
 7675              	.LBI405:
 602:Middlewares/lvgl/src/draw/../misc/lv_color.h **** {
 7676              		.loc 3 602 26 view .LVU2835
 7677              	.LBB406:
 604:Middlewares/lvgl/src/draw/../misc/lv_color.h **** }
 7678              		.loc 3 604 5 view .LVU2836
 604:Middlewares/lvgl/src/draw/../misc/lv_color.h **** }
 7679              		.loc 3 604 12 is_stmt 0 view .LVU2837
 7680 000a 4FF6FF73 		movw	r3, #65535
 7681              	.LVL703:
 604:Middlewares/lvgl/src/draw/../misc/lv_color.h **** }
ARM GAS  /tmp/ccUpPomB.s 			page 219


 7682              		.loc 3 604 12 view .LVU2838
 7683              	.LBE406:
 7684              	.LBE405:
 7685              	.LBE407:
  78:Middlewares/lvgl/src/draw/lv_draw_rect.c ****     dsc->bg_grad_color = lv_color_black();
 7686              		.loc 1 78 21 view .LVU2839
 7687 000e A380     		strh	r3, [r4, #4]	@ movhi
  79:Middlewares/lvgl/src/draw/lv_draw_rect.c ****     dsc->border_color = lv_color_black();
 7688              		.loc 1 79 5 is_stmt 1 view .LVU2840
 7689              	.LBB408:
 7690              	.LBI408:
 675:Middlewares/lvgl/src/draw/../misc/lv_color.h **** static inline lv_color_t lv_color_black(void) { return lv_color_make(0x00, 0x0, 0x00);}
 7691              		.loc 3 675 26 view .LVU2841
 7692              	.LBE408:
 7693              		.loc 3 675 49 view .LVU2842
 7694              	.LVL704:
 7695              	.LBB411:
 7696              	.LBB409:
 7697              	.LBI409:
 602:Middlewares/lvgl/src/draw/../misc/lv_color.h **** {
 7698              		.loc 3 602 26 view .LVU2843
 7699              	.LBB410:
 604:Middlewares/lvgl/src/draw/../misc/lv_color.h **** }
 7700              		.loc 3 604 5 view .LVU2844
 604:Middlewares/lvgl/src/draw/../misc/lv_color.h **** }
 7701              		.loc 3 604 12 is_stmt 0 view .LVU2845
 7702 0010 4FF00003 		mov	r3, #0	@ movhi
 7703              	.LVL705:
 604:Middlewares/lvgl/src/draw/../misc/lv_color.h **** }
 7704              		.loc 3 604 12 view .LVU2846
 7705              	.LBE410:
 7706              	.LBE409:
 7707              	.LBE411:
  79:Middlewares/lvgl/src/draw/lv_draw_rect.c ****     dsc->border_color = lv_color_black();
 7708              		.loc 1 79 26 view .LVU2847
 7709 0014 E380     		strh	r3, [r4, #6]	@ movhi
  80:Middlewares/lvgl/src/draw/lv_draw_rect.c ****     dsc->shadow_color = lv_color_black();
 7710              		.loc 1 80 5 is_stmt 1 view .LVU2848
 7711              	.LBB412:
 7712              	.LBI412:
 7713              		.loc 3 675 26 view .LVU2849
 7714              	.LBE412:
 7715              		.loc 3 675 49 view .LVU2850
 7716              	.LVL706:
 7717              	.LBB415:
 7718              	.LBB413:
 7719              	.LBI413:
 602:Middlewares/lvgl/src/draw/../misc/lv_color.h **** {
 7720              		.loc 3 602 26 view .LVU2851
 7721              	.LBB414:
 604:Middlewares/lvgl/src/draw/../misc/lv_color.h **** }
 7722              		.loc 3 604 5 view .LVU2852
 604:Middlewares/lvgl/src/draw/../misc/lv_color.h **** }
 7723              		.loc 3 604 5 is_stmt 0 view .LVU2853
 7724              	.LBE414:
 7725              	.LBE413:
 7726              	.LBE415:
ARM GAS  /tmp/ccUpPomB.s 			page 220


  80:Middlewares/lvgl/src/draw/lv_draw_rect.c ****     dsc->shadow_color = lv_color_black();
 7727              		.loc 1 80 25 view .LVU2854
 7728 0016 6383     		strh	r3, [r4, #26]	@ movhi
  81:Middlewares/lvgl/src/draw/lv_draw_rect.c ****     dsc->bg_grad_color_stop = 0xFF;
 7729              		.loc 1 81 5 is_stmt 1 view .LVU2855
 7730              	.LBB416:
 7731              	.LBI416:
 7732              		.loc 3 675 26 view .LVU2856
 7733              	.LBE416:
 7734              		.loc 3 675 49 view .LVU2857
 7735              	.LVL707:
 7736              	.LBB419:
 7737              	.LBB417:
 7738              	.LBI417:
 602:Middlewares/lvgl/src/draw/../misc/lv_color.h **** {
 7739              		.loc 3 602 26 view .LVU2858
 7740              	.LBB418:
 604:Middlewares/lvgl/src/draw/../misc/lv_color.h **** }
 7741              		.loc 3 604 5 view .LVU2859
 604:Middlewares/lvgl/src/draw/../misc/lv_color.h **** }
 7742              		.loc 3 604 5 is_stmt 0 view .LVU2860
 7743              	.LBE418:
 7744              	.LBE417:
 7745              	.LBE419:
  81:Middlewares/lvgl/src/draw/lv_draw_rect.c ****     dsc->bg_grad_color_stop = 0xFF;
 7746              		.loc 1 81 25 view .LVU2861
 7747 0018 2385     		strh	r3, [r4, #40]	@ movhi
  82:Middlewares/lvgl/src/draw/lv_draw_rect.c ****     dsc->bg_img_symbol_font = LV_FONT_DEFAULT;
 7748              		.loc 1 82 5 is_stmt 1 view .LVU2862
  82:Middlewares/lvgl/src/draw/lv_draw_rect.c ****     dsc->bg_img_symbol_font = LV_FONT_DEFAULT;
 7749              		.loc 1 82 29 is_stmt 0 view .LVU2863
 7750 001a FF23     		movs	r3, #255
 7751 001c 6372     		strb	r3, [r4, #9]
  83:Middlewares/lvgl/src/draw/lv_draw_rect.c ****     dsc->bg_opa = LV_OPA_COVER;
 7752              		.loc 1 83 5 is_stmt 1 view .LVU2864
  83:Middlewares/lvgl/src/draw/lv_draw_rect.c ****     dsc->bg_opa = LV_OPA_COVER;
 7753              		.loc 1 83 29 is_stmt 0 view .LVU2865
 7754 001e 074A     		ldr	r2, .L365
 7755 0020 2261     		str	r2, [r4, #16]
  84:Middlewares/lvgl/src/draw/lv_draw_rect.c ****     dsc->bg_img_opa = LV_OPA_COVER;
 7756              		.loc 1 84 5 is_stmt 1 view .LVU2866
  84:Middlewares/lvgl/src/draw/lv_draw_rect.c ****     dsc->bg_img_opa = LV_OPA_COVER;
 7757              		.loc 1 84 17 is_stmt 0 view .LVU2867
 7758 0022 A372     		strb	r3, [r4, #10]
  85:Middlewares/lvgl/src/draw/lv_draw_rect.c ****     dsc->outline_opa = LV_OPA_COVER;
 7759              		.loc 1 85 5 is_stmt 1 view .LVU2868
  85:Middlewares/lvgl/src/draw/lv_draw_rect.c ****     dsc->outline_opa = LV_OPA_COVER;
 7760              		.loc 1 85 21 is_stmt 0 view .LVU2869
 7761 0024 A375     		strb	r3, [r4, #22]
  86:Middlewares/lvgl/src/draw/lv_draw_rect.c ****     dsc->border_opa = LV_OPA_COVER;
 7762              		.loc 1 86 5 is_stmt 1 view .LVU2870
  86:Middlewares/lvgl/src/draw/lv_draw_rect.c ****     dsc->border_opa = LV_OPA_COVER;
 7763              		.loc 1 86 22 is_stmt 0 view .LVU2871
 7764 0026 84F82630 		strb	r3, [r4, #38]
  87:Middlewares/lvgl/src/draw/lv_draw_rect.c ****     dsc->shadow_opa = LV_OPA_COVER;
 7765              		.loc 1 87 5 is_stmt 1 view .LVU2872
  87:Middlewares/lvgl/src/draw/lv_draw_rect.c ****     dsc->shadow_opa = LV_OPA_COVER;
ARM GAS  /tmp/ccUpPomB.s 			page 221


 7766              		.loc 1 87 21 is_stmt 0 view .LVU2873
 7767 002a A377     		strb	r3, [r4, #30]
  88:Middlewares/lvgl/src/draw/lv_draw_rect.c ****     dsc->border_side = LV_BORDER_SIDE_FULL;
 7768              		.loc 1 88 5 is_stmt 1 view .LVU2874
  88:Middlewares/lvgl/src/draw/lv_draw_rect.c ****     dsc->border_side = LV_BORDER_SIDE_FULL;
 7769              		.loc 1 88 21 is_stmt 0 view .LVU2875
 7770 002c 84F83230 		strb	r3, [r4, #50]
  89:Middlewares/lvgl/src/draw/lv_draw_rect.c **** }
 7771              		.loc 1 89 5 is_stmt 1 view .LVU2876
  89:Middlewares/lvgl/src/draw/lv_draw_rect.c **** }
 7772              		.loc 1 89 22 is_stmt 0 view .LVU2877
 7773 0030 E37F     		ldrb	r3, [r4, #31]	@ zero_extendqisi2
 7774 0032 0F22     		movs	r2, #15
 7775 0034 62F34503 		bfi	r3, r2, #1, #5
 7776 0038 E377     		strb	r3, [r4, #31]
  90:Middlewares/lvgl/src/draw/lv_draw_rect.c **** 
 7777              		.loc 1 90 1 view .LVU2878
 7778 003a 10BD     		pop	{r4, pc}
 7779              	.LVL708:
 7780              	.L366:
  90:Middlewares/lvgl/src/draw/lv_draw_rect.c **** 
 7781              		.loc 1 90 1 view .LVU2879
 7782              		.align	2
 7783              	.L365:
 7784 003c 00000000 		.word	lv_font_montserrat_14
 7785              		.cfi_endproc
 7786              	.LFE147:
 7788              		.section	.text.lv_draw_rect,"ax",%progbits
 7789              		.align	1
 7790              		.global	lv_draw_rect
 7791              		.syntax unified
 7792              		.thumb
 7793              		.thumb_func
 7795              	lv_draw_rect:
 7796              	.LVL709:
 7797              	.LFB148:
  99:Middlewares/lvgl/src/draw/lv_draw_rect.c ****     if(lv_area_get_height(coords) < 1 || lv_area_get_width(coords) < 1) return;
 7798              		.loc 1 99 1 is_stmt 1 view -0
 7799              		.cfi_startproc
 7800              		@ args = 0, pretend = 0, frame = 0
 7801              		@ frame_needed = 0, uses_anonymous_args = 0
  99:Middlewares/lvgl/src/draw/lv_draw_rect.c ****     if(lv_area_get_height(coords) < 1 || lv_area_get_width(coords) < 1) return;
 7802              		.loc 1 99 1 is_stmt 0 view .LVU2881
 7803 0000 70B5     		push	{r4, r5, r6, lr}
 7804              	.LCFI30:
 7805              		.cfi_def_cfa_offset 16
 7806              		.cfi_offset 4, -16
 7807              		.cfi_offset 5, -12
 7808              		.cfi_offset 6, -8
 7809              		.cfi_offset 14, -4
 7810 0002 1646     		mov	r6, r2
 100:Middlewares/lvgl/src/draw/lv_draw_rect.c **** #if LV_DRAW_COMPLEX
 7811              		.loc 1 100 5 is_stmt 1 view .LVU2882
 7812              	.LVL710:
 7813              	.LBB420:
 7814              	.LBI420:
 143:Middlewares/lvgl/src/draw/../misc/lv_area.h **** {
ARM GAS  /tmp/ccUpPomB.s 			page 222


 7815              		.loc 2 143 26 view .LVU2883
 7816              	.LBB421:
 7817              		.loc 2 145 5 view .LVU2884
 7818              		.loc 2 145 31 is_stmt 0 view .LVU2885
 7819 0004 C388     		ldrh	r3, [r0, #6]
 7820              		.loc 2 145 44 view .LVU2886
 7821 0006 4288     		ldrh	r2, [r0, #2]
 7822              	.LVL711:
 7823              		.loc 2 145 36 view .LVU2887
 7824 0008 9B1A     		subs	r3, r3, r2
 7825 000a 9BB2     		uxth	r3, r3
 7826              		.loc 2 145 49 view .LVU2888
 7827 000c 0133     		adds	r3, r3, #1
 7828              		.loc 2 145 12 view .LVU2889
 7829 000e 1BB2     		sxth	r3, r3
 7830              	.LVL712:
 7831              		.loc 2 145 12 view .LVU2890
 7832              	.LBE421:
 7833              	.LBE420:
 100:Middlewares/lvgl/src/draw/lv_draw_rect.c **** #if LV_DRAW_COMPLEX
 7834              		.loc 1 100 7 view .LVU2891
 7835 0010 002B     		cmp	r3, #0
 7836 0012 20DD     		ble	.L367
 7837 0014 0446     		mov	r4, r0
 7838 0016 0D46     		mov	r5, r1
 7839              	.LVL713:
 7840              	.LBB422:
 7841              	.LBI422:
 133:Middlewares/lvgl/src/draw/../misc/lv_area.h **** {
 7842              		.loc 2 133 26 is_stmt 1 view .LVU2892
 7843              	.LBB423:
 135:Middlewares/lvgl/src/draw/../misc/lv_area.h **** }
 7844              		.loc 2 135 5 view .LVU2893
 135:Middlewares/lvgl/src/draw/../misc/lv_area.h **** }
 7845              		.loc 2 135 31 is_stmt 0 view .LVU2894
 7846 0018 8388     		ldrh	r3, [r0, #4]
 135:Middlewares/lvgl/src/draw/../misc/lv_area.h **** }
 7847              		.loc 2 135 44 view .LVU2895
 7848 001a 0288     		ldrh	r2, [r0]
 135:Middlewares/lvgl/src/draw/../misc/lv_area.h **** }
 7849              		.loc 2 135 36 view .LVU2896
 7850 001c 9B1A     		subs	r3, r3, r2
 7851 001e 9BB2     		uxth	r3, r3
 135:Middlewares/lvgl/src/draw/../misc/lv_area.h **** }
 7852              		.loc 2 135 49 view .LVU2897
 7853 0020 0133     		adds	r3, r3, #1
 135:Middlewares/lvgl/src/draw/../misc/lv_area.h **** }
 7854              		.loc 2 135 12 view .LVU2898
 7855 0022 1BB2     		sxth	r3, r3
 7856              	.LVL714:
 135:Middlewares/lvgl/src/draw/../misc/lv_area.h **** }
 7857              		.loc 2 135 12 view .LVU2899
 7858              	.LBE423:
 7859              	.LBE422:
 100:Middlewares/lvgl/src/draw/lv_draw_rect.c **** #if LV_DRAW_COMPLEX
 7860              		.loc 1 100 39 view .LVU2900
 7861 0024 002B     		cmp	r3, #0
ARM GAS  /tmp/ccUpPomB.s 			page 223


 7862 0026 16DD     		ble	.L367
 102:Middlewares/lvgl/src/draw/lv_draw_rect.c **** #endif
 7863              		.loc 1 102 5 is_stmt 1 view .LVU2901
 7864 0028 3246     		mov	r2, r6
 7865 002a FFF7FEFF 		bl	draw_shadow
 7866              	.LVL715:
 105:Middlewares/lvgl/src/draw/lv_draw_rect.c ****     draw_bg_img(coords, clip, dsc);
 7867              		.loc 1 105 5 view .LVU2902
 7868 002e 3246     		mov	r2, r6
 7869 0030 2946     		mov	r1, r5
 7870 0032 2046     		mov	r0, r4
 7871 0034 FFF7FEFF 		bl	draw_bg
 7872              	.LVL716:
 106:Middlewares/lvgl/src/draw/lv_draw_rect.c **** 
 7873              		.loc 1 106 5 view .LVU2903
 7874 0038 3246     		mov	r2, r6
 7875 003a 2946     		mov	r1, r5
 7876 003c 2046     		mov	r0, r4
 7877 003e FFF7FEFF 		bl	draw_bg_img
 7878              	.LVL717:
 108:Middlewares/lvgl/src/draw/lv_draw_rect.c **** 
 7879              		.loc 1 108 5 view .LVU2904
 7880 0042 3246     		mov	r2, r6
 7881 0044 2946     		mov	r1, r5
 7882 0046 2046     		mov	r0, r4
 7883 0048 FFF7FEFF 		bl	draw_border
 7884              	.LVL718:
 110:Middlewares/lvgl/src/draw/lv_draw_rect.c **** 
 7885              		.loc 1 110 5 view .LVU2905
 7886 004c 3246     		mov	r2, r6
 7887 004e 2946     		mov	r1, r5
 7888 0050 2046     		mov	r0, r4
 7889 0052 FFF7FEFF 		bl	draw_outline
 7890              	.LVL719:
 112:Middlewares/lvgl/src/draw/lv_draw_rect.c **** }
 7891              		.loc 1 112 30 view .LVU2906
 7892              	.L367:
 113:Middlewares/lvgl/src/draw/lv_draw_rect.c **** 
 7893              		.loc 1 113 1 is_stmt 0 view .LVU2907
 7894 0056 70BD     		pop	{r4, r5, r6, pc}
 113:Middlewares/lvgl/src/draw/lv_draw_rect.c **** 
 7895              		.loc 1 113 1 view .LVU2908
 7896              		.cfi_endproc
 7897              	.LFE148:
 7899              		.text
 7900              	.Letext0:
 7901              		.file 4 "/home/akinya/gcc-arm-none-eabi/arm-none-eabi/include/machine/_default_types.h"
 7902              		.file 5 "/home/akinya/gcc-arm-none-eabi/arm-none-eabi/include/sys/_stdint.h"
 7903              		.file 6 "Middlewares/lvgl/src/draw/../misc/lv_math.h"
 7904              		.file 7 "Middlewares/lvgl/src/draw/../misc/lv_types.h"
 7905              		.file 8 "Middlewares/lvgl/src/draw/../misc/../font/lv_font.h"
 7906              		.file 9 "Middlewares/lvgl/src/draw/../misc/lv_txt.h"
 7907              		.file 10 "Middlewares/lvgl/src/draw/../misc/lv_bidi.h"
 7908              		.file 11 "Middlewares/lvgl/src/draw/../misc/lv_style.h"
 7909              		.file 12 "Middlewares/lvgl/src/draw/lv_draw_mask.h"
 7910              		.file 13 "Middlewares/lvgl/src/draw/lv_draw_rect.h"
 7911              		.file 14 "Middlewares/lvgl/src/draw/../misc/../draw/lv_img_buf.h"
ARM GAS  /tmp/ccUpPomB.s 			page 224


 7912              		.file 15 "Middlewares/lvgl/src/draw/../misc/../draw/lv_img_decoder.h"
 7913              		.file 16 "Middlewares/lvgl/src/draw/../misc/../draw/lv_draw_label.h"
 7914              		.file 17 "Middlewares/lvgl/src/draw/../misc/../draw/lv_draw_img.h"
 7915              		.file 18 "Middlewares/lvgl/src/draw/../core/../hal/../misc/lv_ll.h"
 7916              		.file 19 "Middlewares/lvgl/src/draw/../core/../hal/../misc/lv_timer.h"
 7917              		.file 20 "Middlewares/lvgl/src/draw/../core/../hal/lv_hal_disp.h"
 7918              		.file 21 "Middlewares/lvgl/src/draw/../core/lv_obj.h"
 7919              		.file 22 "Middlewares/lvgl/src/draw/../core/lv_group.h"
 7920              		.file 23 "Middlewares/lvgl/src/draw/../core/lv_obj_scroll.h"
 7921              		.file 24 "Middlewares/lvgl/src/draw/../core/lv_obj_style.h"
 7922              		.file 25 "Middlewares/lvgl/src/draw/../core/lv_obj_class.h"
 7923              		.file 26 "Middlewares/lvgl/src/draw/../core/lv_event.h"
 7924              		.file 27 "Middlewares/lvgl/src/draw/lv_draw_blend.h"
 7925              		.file 28 "Middlewares/lvgl/src/draw/../core/../hal/../misc/lv_mem.h"
 7926              		.file 29 "Middlewares/lvgl/src/draw/../core/lv_refr.h"
ARM GAS  /tmp/ccUpPomB.s 			page 225


DEFINED SYMBOLS
                            *ABS*:0000000000000000 lv_draw_rect.c
     /tmp/ccUpPomB.s:19     .text.shadow_blur_corner:0000000000000000 $t
     /tmp/ccUpPomB.s:24     .text.shadow_blur_corner:0000000000000000 shadow_blur_corner
     /tmp/ccUpPomB.s:427    .text.shadow_draw_corner_buf:0000000000000000 $t
     /tmp/ccUpPomB.s:432    .text.shadow_draw_corner_buf:0000000000000000 shadow_draw_corner_buf
     /tmp/ccUpPomB.s:882    .text.draw_shadow:0000000000000000 $t
     /tmp/ccUpPomB.s:887    .text.draw_shadow:0000000000000000 draw_shadow
     /tmp/ccUpPomB.s:3868   .text.draw_full_border:0000000000000000 $t
     /tmp/ccUpPomB.s:3873   .text.draw_full_border:0000000000000000 draw_full_border
     /tmp/ccUpPomB.s:4897   .text.draw_outline:0000000000000000 $t
     /tmp/ccUpPomB.s:4902   .text.draw_outline:0000000000000000 draw_outline
     /tmp/ccUpPomB.s:5078   .text.draw_border:0000000000000000 $t
     /tmp/ccUpPomB.s:5083   .text.draw_border:0000000000000000 draw_border
     /tmp/ccUpPomB.s:5756   .text.draw_bg_img:0000000000000000 $t
     /tmp/ccUpPomB.s:5761   .text.draw_bg_img:0000000000000000 draw_bg_img
     /tmp/ccUpPomB.s:6241   .text.draw_bg:0000000000000000 $t
     /tmp/ccUpPomB.s:6246   .text.draw_bg:0000000000000000 draw_bg
     /tmp/ccUpPomB.s:7643   .text.lv_draw_rect_dsc_init:0000000000000000 $t
     /tmp/ccUpPomB.s:7649   .text.lv_draw_rect_dsc_init:0000000000000000 lv_draw_rect_dsc_init
     /tmp/ccUpPomB.s:7784   .text.lv_draw_rect_dsc_init:000000000000003c $d
     /tmp/ccUpPomB.s:7789   .text.lv_draw_rect:0000000000000000 $t
     /tmp/ccUpPomB.s:7795   .text.lv_draw_rect:0000000000000000 lv_draw_rect

UNDEFINED SYMBOLS
lv_mem_buf_get
lv_memcpy
lv_mem_buf_release
lv_draw_mask_radius_init
lv_memset_ff
lv_memset_00
_lv_refr_get_disp_refreshing
lv_disp_get_draw_buf
_lv_area_intersect
lv_draw_mask_get_cnt
lv_draw_mask_add
_lv_area_is_in
_lv_blend_fill
lv_draw_mask_apply
lv_draw_mask_remove_id
lv_memset
lv_img_src_get_type
lv_img_decoder_get_info
lv_draw_img_dsc_init
lv_txt_get_size
lv_draw_label_dsc_init
lv_draw_label
lv_draw_img
_lv_blend_map
lv_font_montserrat_14
