ARM GAS  /tmp/ccUpPomB.s 			page 1


   1              		.cpu cortex-m7
   2              		.arch armv7e-m
   3              		.fpu fpv5-d16
   4              		.eabi_attribute 28, 1
   5              		.eabi_attribute 20, 1
   6              		.eabi_attribute 21, 1
   7              		.eabi_attribute 23, 3
   8              		.eabi_attribute 24, 1
   9              		.eabi_attribute 25, 1
  10              		.eabi_attribute 26, 1
  11              		.eabi_attribute 30, 1
  12              		.eabi_attribute 34, 1
  13              		.eabi_attribute 18, 4
  14              		.file	"lv_draw_rect.c"
  15              		.text
  16              	.Ltext0:
  17              		.cfi_sections	.debug_frame
  18              		.section	.text.shadow_blur_corner,"ax",%progbits
  19              		.align	1
  20              		.syntax unified
  21              		.thumb
  22              		.thumb_func
  24              	shadow_blur_corner:
  25              	.LVL0:
  26              	.LFB155:
  27              		.file 1 "Middlewares/lvgl/src/draw/lv_draw_rect.c"
   1:Middlewares/lvgl/src/draw/lv_draw_rect.c **** /**
   2:Middlewares/lvgl/src/draw/lv_draw_rect.c ****  * @file lv_draw_rect.c
   3:Middlewares/lvgl/src/draw/lv_draw_rect.c ****  *
   4:Middlewares/lvgl/src/draw/lv_draw_rect.c ****  */
   5:Middlewares/lvgl/src/draw/lv_draw_rect.c **** 
   6:Middlewares/lvgl/src/draw/lv_draw_rect.c **** /*********************
   7:Middlewares/lvgl/src/draw/lv_draw_rect.c ****  *      INCLUDES
   8:Middlewares/lvgl/src/draw/lv_draw_rect.c ****  *********************/
   9:Middlewares/lvgl/src/draw/lv_draw_rect.c **** #include "lv_draw_rect.h"
  10:Middlewares/lvgl/src/draw/lv_draw_rect.c **** #include "lv_draw_blend.h"
  11:Middlewares/lvgl/src/draw/lv_draw_rect.c **** #include "lv_draw_mask.h"
  12:Middlewares/lvgl/src/draw/lv_draw_rect.c **** #include "../misc/lv_math.h"
  13:Middlewares/lvgl/src/draw/lv_draw_rect.c **** #include "../misc/lv_txt_ap.h"
  14:Middlewares/lvgl/src/draw/lv_draw_rect.c **** #include "../core/lv_refr.h"
  15:Middlewares/lvgl/src/draw/lv_draw_rect.c **** #include "../misc/lv_assert.h"
  16:Middlewares/lvgl/src/draw/lv_draw_rect.c **** 
  17:Middlewares/lvgl/src/draw/lv_draw_rect.c **** /*********************
  18:Middlewares/lvgl/src/draw/lv_draw_rect.c ****  *      DEFINES
  19:Middlewares/lvgl/src/draw/lv_draw_rect.c ****  *********************/
  20:Middlewares/lvgl/src/draw/lv_draw_rect.c **** #define SHADOW_UPSCALE_SHIFT   6
  21:Middlewares/lvgl/src/draw/lv_draw_rect.c **** #define SHADOW_ENHANCE          1
  22:Middlewares/lvgl/src/draw/lv_draw_rect.c **** #define SPLIT_LIMIT             50
  23:Middlewares/lvgl/src/draw/lv_draw_rect.c **** 
  24:Middlewares/lvgl/src/draw/lv_draw_rect.c **** /**********************
  25:Middlewares/lvgl/src/draw/lv_draw_rect.c ****  *      TYPEDEFS
  26:Middlewares/lvgl/src/draw/lv_draw_rect.c ****  **********************/
  27:Middlewares/lvgl/src/draw/lv_draw_rect.c **** 
  28:Middlewares/lvgl/src/draw/lv_draw_rect.c **** /**********************
  29:Middlewares/lvgl/src/draw/lv_draw_rect.c ****  *  STATIC PROTOTYPES
  30:Middlewares/lvgl/src/draw/lv_draw_rect.c ****  **********************/
  31:Middlewares/lvgl/src/draw/lv_draw_rect.c **** LV_ATTRIBUTE_FAST_MEM static void draw_bg(const lv_area_t * coords, const lv_area_t * clip,
ARM GAS  /tmp/ccUpPomB.s 			page 2


  32:Middlewares/lvgl/src/draw/lv_draw_rect.c ****                                           const lv_draw_rect_dsc_t * dsc);
  33:Middlewares/lvgl/src/draw/lv_draw_rect.c **** LV_ATTRIBUTE_FAST_MEM static void draw_bg_img(const lv_area_t * coords, const lv_area_t * clip,
  34:Middlewares/lvgl/src/draw/lv_draw_rect.c ****                                           const lv_draw_rect_dsc_t * dsc);
  35:Middlewares/lvgl/src/draw/lv_draw_rect.c **** LV_ATTRIBUTE_FAST_MEM static void draw_border(const lv_area_t * coords, const lv_area_t * clip,
  36:Middlewares/lvgl/src/draw/lv_draw_rect.c ****                                               const lv_draw_rect_dsc_t * dsc);
  37:Middlewares/lvgl/src/draw/lv_draw_rect.c **** 
  38:Middlewares/lvgl/src/draw/lv_draw_rect.c **** static void draw_outline(const lv_area_t * coords, const lv_area_t * clip, const lv_draw_rect_dsc_t
  39:Middlewares/lvgl/src/draw/lv_draw_rect.c **** 
  40:Middlewares/lvgl/src/draw/lv_draw_rect.c **** #if LV_DRAW_COMPLEX
  41:Middlewares/lvgl/src/draw/lv_draw_rect.c **** LV_ATTRIBUTE_FAST_MEM static void draw_shadow(const lv_area_t * coords, const lv_area_t * clip,
  42:Middlewares/lvgl/src/draw/lv_draw_rect.c ****                                               const lv_draw_rect_dsc_t * dsc);
  43:Middlewares/lvgl/src/draw/lv_draw_rect.c **** LV_ATTRIBUTE_FAST_MEM static void shadow_draw_corner_buf(const lv_area_t * coords,  uint16_t * sh_b
  44:Middlewares/lvgl/src/draw/lv_draw_rect.c ****                                                          lv_coord_t r);
  45:Middlewares/lvgl/src/draw/lv_draw_rect.c **** LV_ATTRIBUTE_FAST_MEM static void shadow_blur_corner(lv_coord_t size, lv_coord_t sw, uint16_t * sh_
  46:Middlewares/lvgl/src/draw/lv_draw_rect.c **** 
  47:Middlewares/lvgl/src/draw/lv_draw_rect.c **** static void draw_full_border(const lv_area_t * area_inner, const lv_area_t * area_outer, const lv_a
  48:Middlewares/lvgl/src/draw/lv_draw_rect.c ****                              lv_coord_t radius, bool radius_is_in, lv_color_t color, lv_opa_t opa, 
  49:Middlewares/lvgl/src/draw/lv_draw_rect.c **** #else
  50:Middlewares/lvgl/src/draw/lv_draw_rect.c **** static void draw_simple_border(const lv_area_t * clip, const lv_area_t * area_inner, const lv_area_
  51:Middlewares/lvgl/src/draw/lv_draw_rect.c ****         lv_color_t color, lv_opa_t opa, lv_border_side_t side);
  52:Middlewares/lvgl/src/draw/lv_draw_rect.c **** #endif
  53:Middlewares/lvgl/src/draw/lv_draw_rect.c **** 
  54:Middlewares/lvgl/src/draw/lv_draw_rect.c **** #if LV_DRAW_COMPLEX
  55:Middlewares/lvgl/src/draw/lv_draw_rect.c **** LV_ATTRIBUTE_FAST_MEM static inline lv_color_t grad_get(const lv_draw_rect_dsc_t * dsc, lv_coord_t 
  56:Middlewares/lvgl/src/draw/lv_draw_rect.c **** #endif
  57:Middlewares/lvgl/src/draw/lv_draw_rect.c **** 
  58:Middlewares/lvgl/src/draw/lv_draw_rect.c **** /**********************
  59:Middlewares/lvgl/src/draw/lv_draw_rect.c ****  *  STATIC VARIABLES
  60:Middlewares/lvgl/src/draw/lv_draw_rect.c ****  **********************/
  61:Middlewares/lvgl/src/draw/lv_draw_rect.c **** #if defined(LV_SHADOW_CACHE_SIZE) && LV_SHADOW_CACHE_SIZE > 0
  62:Middlewares/lvgl/src/draw/lv_draw_rect.c ****     static uint8_t sh_cache[LV_SHADOW_CACHE_SIZE * LV_SHADOW_CACHE_SIZE];
  63:Middlewares/lvgl/src/draw/lv_draw_rect.c ****     static int32_t sh_cache_size = -1;
  64:Middlewares/lvgl/src/draw/lv_draw_rect.c ****     static int32_t sh_cache_r = -1;
  65:Middlewares/lvgl/src/draw/lv_draw_rect.c **** #endif
  66:Middlewares/lvgl/src/draw/lv_draw_rect.c **** 
  67:Middlewares/lvgl/src/draw/lv_draw_rect.c **** /**********************
  68:Middlewares/lvgl/src/draw/lv_draw_rect.c ****  *      MACROS
  69:Middlewares/lvgl/src/draw/lv_draw_rect.c ****  **********************/
  70:Middlewares/lvgl/src/draw/lv_draw_rect.c **** 
  71:Middlewares/lvgl/src/draw/lv_draw_rect.c **** /**********************
  72:Middlewares/lvgl/src/draw/lv_draw_rect.c ****  *   GLOBAL FUNCTIONS
  73:Middlewares/lvgl/src/draw/lv_draw_rect.c ****  **********************/
  74:Middlewares/lvgl/src/draw/lv_draw_rect.c **** 
  75:Middlewares/lvgl/src/draw/lv_draw_rect.c **** LV_ATTRIBUTE_FAST_MEM void lv_draw_rect_dsc_init(lv_draw_rect_dsc_t * dsc)
  76:Middlewares/lvgl/src/draw/lv_draw_rect.c **** {
  77:Middlewares/lvgl/src/draw/lv_draw_rect.c ****     lv_memset_00(dsc, sizeof(lv_draw_rect_dsc_t));
  78:Middlewares/lvgl/src/draw/lv_draw_rect.c ****     dsc->bg_color = lv_color_white();
  79:Middlewares/lvgl/src/draw/lv_draw_rect.c ****     dsc->bg_grad_color = lv_color_black();
  80:Middlewares/lvgl/src/draw/lv_draw_rect.c ****     dsc->border_color = lv_color_black();
  81:Middlewares/lvgl/src/draw/lv_draw_rect.c ****     dsc->shadow_color = lv_color_black();
  82:Middlewares/lvgl/src/draw/lv_draw_rect.c ****     dsc->bg_grad_color_stop = 0xFF;
  83:Middlewares/lvgl/src/draw/lv_draw_rect.c ****     dsc->bg_img_symbol_font = LV_FONT_DEFAULT;
  84:Middlewares/lvgl/src/draw/lv_draw_rect.c ****     dsc->bg_opa = LV_OPA_COVER;
  85:Middlewares/lvgl/src/draw/lv_draw_rect.c ****     dsc->bg_img_opa = LV_OPA_COVER;
  86:Middlewares/lvgl/src/draw/lv_draw_rect.c ****     dsc->outline_opa = LV_OPA_COVER;
  87:Middlewares/lvgl/src/draw/lv_draw_rect.c ****     dsc->border_opa = LV_OPA_COVER;
  88:Middlewares/lvgl/src/draw/lv_draw_rect.c ****     dsc->shadow_opa = LV_OPA_COVER;
ARM GAS  /tmp/ccUpPomB.s 			page 3


  89:Middlewares/lvgl/src/draw/lv_draw_rect.c ****     dsc->border_side = LV_BORDER_SIDE_FULL;
  90:Middlewares/lvgl/src/draw/lv_draw_rect.c **** }
  91:Middlewares/lvgl/src/draw/lv_draw_rect.c **** 
  92:Middlewares/lvgl/src/draw/lv_draw_rect.c **** /**
  93:Middlewares/lvgl/src/draw/lv_draw_rect.c ****  * Draw a rectangle
  94:Middlewares/lvgl/src/draw/lv_draw_rect.c ****  * @param coords the coordinates of the rectangle
  95:Middlewares/lvgl/src/draw/lv_draw_rect.c ****  * @param mask the rectangle will be drawn only in this mask
  96:Middlewares/lvgl/src/draw/lv_draw_rect.c ****  * @param dsc pointer to an initialized `lv_draw_rect_dsc_t` variable
  97:Middlewares/lvgl/src/draw/lv_draw_rect.c ****  */
  98:Middlewares/lvgl/src/draw/lv_draw_rect.c **** void lv_draw_rect(const lv_area_t * coords, const lv_area_t * clip, const lv_draw_rect_dsc_t * dsc)
  99:Middlewares/lvgl/src/draw/lv_draw_rect.c **** {
 100:Middlewares/lvgl/src/draw/lv_draw_rect.c ****     if(lv_area_get_height(coords) < 1 || lv_area_get_width(coords) < 1) return;
 101:Middlewares/lvgl/src/draw/lv_draw_rect.c **** #if LV_DRAW_COMPLEX
 102:Middlewares/lvgl/src/draw/lv_draw_rect.c ****     draw_shadow(coords, clip, dsc);
 103:Middlewares/lvgl/src/draw/lv_draw_rect.c **** #endif
 104:Middlewares/lvgl/src/draw/lv_draw_rect.c **** 
 105:Middlewares/lvgl/src/draw/lv_draw_rect.c ****     draw_bg(coords, clip, dsc);
 106:Middlewares/lvgl/src/draw/lv_draw_rect.c ****     draw_bg_img(coords, clip, dsc);
 107:Middlewares/lvgl/src/draw/lv_draw_rect.c **** 
 108:Middlewares/lvgl/src/draw/lv_draw_rect.c ****     draw_border(coords, clip, dsc);
 109:Middlewares/lvgl/src/draw/lv_draw_rect.c **** 
 110:Middlewares/lvgl/src/draw/lv_draw_rect.c ****     draw_outline(coords, clip, dsc);
 111:Middlewares/lvgl/src/draw/lv_draw_rect.c **** 
 112:Middlewares/lvgl/src/draw/lv_draw_rect.c ****     LV_ASSERT_MEM_INTEGRITY();
 113:Middlewares/lvgl/src/draw/lv_draw_rect.c **** }
 114:Middlewares/lvgl/src/draw/lv_draw_rect.c **** 
 115:Middlewares/lvgl/src/draw/lv_draw_rect.c **** /**********************
 116:Middlewares/lvgl/src/draw/lv_draw_rect.c ****  *   STATIC FUNCTIONS
 117:Middlewares/lvgl/src/draw/lv_draw_rect.c ****  **********************/
 118:Middlewares/lvgl/src/draw/lv_draw_rect.c **** 
 119:Middlewares/lvgl/src/draw/lv_draw_rect.c **** LV_ATTRIBUTE_FAST_MEM static void draw_bg(const lv_area_t * coords, const lv_area_t * clip,
 120:Middlewares/lvgl/src/draw/lv_draw_rect.c ****                                           const lv_draw_rect_dsc_t * dsc)
 121:Middlewares/lvgl/src/draw/lv_draw_rect.c **** {
 122:Middlewares/lvgl/src/draw/lv_draw_rect.c ****     if(dsc->bg_opa <= LV_OPA_MIN) return;
 123:Middlewares/lvgl/src/draw/lv_draw_rect.c **** 
 124:Middlewares/lvgl/src/draw/lv_draw_rect.c ****     lv_area_t coords_bg;
 125:Middlewares/lvgl/src/draw/lv_draw_rect.c ****     lv_area_copy(&coords_bg, coords);
 126:Middlewares/lvgl/src/draw/lv_draw_rect.c **** 
 127:Middlewares/lvgl/src/draw/lv_draw_rect.c ****     /*If the border fully covers make the bg area 1px smaller to avoid artifacts on the corners*/
 128:Middlewares/lvgl/src/draw/lv_draw_rect.c ****     if(dsc->border_width > 1 && dsc->border_opa >= LV_OPA_MAX && dsc->radius != 0) {
 129:Middlewares/lvgl/src/draw/lv_draw_rect.c ****         coords_bg.x1 += (dsc->border_side & LV_BORDER_SIDE_LEFT) ? 1 : 0;
 130:Middlewares/lvgl/src/draw/lv_draw_rect.c ****         coords_bg.y1 += (dsc->border_side & LV_BORDER_SIDE_TOP) ? 1 : 0;
 131:Middlewares/lvgl/src/draw/lv_draw_rect.c ****         coords_bg.x2 -= (dsc->border_side & LV_BORDER_SIDE_RIGHT) ? 1 : 0;
 132:Middlewares/lvgl/src/draw/lv_draw_rect.c ****         coords_bg.y2 -= (dsc->border_side & LV_BORDER_SIDE_BOTTOM) ? 1 : 0;
 133:Middlewares/lvgl/src/draw/lv_draw_rect.c ****     }
 134:Middlewares/lvgl/src/draw/lv_draw_rect.c **** 
 135:Middlewares/lvgl/src/draw/lv_draw_rect.c ****     lv_opa_t opa = dsc->bg_opa;
 136:Middlewares/lvgl/src/draw/lv_draw_rect.c **** 
 137:Middlewares/lvgl/src/draw/lv_draw_rect.c ****     if(opa > LV_OPA_MAX) opa = LV_OPA_COVER;
 138:Middlewares/lvgl/src/draw/lv_draw_rect.c **** 
 139:Middlewares/lvgl/src/draw/lv_draw_rect.c ****     lv_disp_t * disp = _lv_refr_get_disp_refreshing();
 140:Middlewares/lvgl/src/draw/lv_draw_rect.c ****     lv_disp_draw_buf_t * draw_buf = lv_disp_get_draw_buf(disp);
 141:Middlewares/lvgl/src/draw/lv_draw_rect.c **** 
 142:Middlewares/lvgl/src/draw/lv_draw_rect.c ****     /*Get clipped fill area which is the real draw area.
 143:Middlewares/lvgl/src/draw/lv_draw_rect.c ****      *It is always the same or inside `fill_area`*/
 144:Middlewares/lvgl/src/draw/lv_draw_rect.c ****     lv_area_t draw_area;
 145:Middlewares/lvgl/src/draw/lv_draw_rect.c ****     bool is_common;
ARM GAS  /tmp/ccUpPomB.s 			page 4


 146:Middlewares/lvgl/src/draw/lv_draw_rect.c ****     is_common = _lv_area_intersect(&draw_area, &coords_bg, clip);
 147:Middlewares/lvgl/src/draw/lv_draw_rect.c ****     if(is_common == false) return;
 148:Middlewares/lvgl/src/draw/lv_draw_rect.c **** 
 149:Middlewares/lvgl/src/draw/lv_draw_rect.c ****     const lv_area_t * disp_area = &draw_buf->area;
 150:Middlewares/lvgl/src/draw/lv_draw_rect.c **** 
 151:Middlewares/lvgl/src/draw/lv_draw_rect.c ****     /*Now `draw_area` has absolute coordinates.
 152:Middlewares/lvgl/src/draw/lv_draw_rect.c ****      *Make it relative to `disp_area` to simplify draw to `disp_buf`*/
 153:Middlewares/lvgl/src/draw/lv_draw_rect.c ****     draw_area.x1 -= disp_area->x1;
 154:Middlewares/lvgl/src/draw/lv_draw_rect.c ****     draw_area.y1 -= disp_area->y1;
 155:Middlewares/lvgl/src/draw/lv_draw_rect.c ****     draw_area.x2 -= disp_area->x1;
 156:Middlewares/lvgl/src/draw/lv_draw_rect.c ****     draw_area.y2 -= disp_area->y1;
 157:Middlewares/lvgl/src/draw/lv_draw_rect.c **** 
 158:Middlewares/lvgl/src/draw/lv_draw_rect.c **** 
 159:Middlewares/lvgl/src/draw/lv_draw_rect.c ****     lv_grad_dir_t grad_dir = dsc->bg_grad_dir;
 160:Middlewares/lvgl/src/draw/lv_draw_rect.c ****     if(dsc->bg_color.full == dsc->bg_grad_color.full) grad_dir = LV_GRAD_DIR_NONE;
 161:Middlewares/lvgl/src/draw/lv_draw_rect.c **** 
 162:Middlewares/lvgl/src/draw/lv_draw_rect.c ****     uint16_t other_mask_cnt = lv_draw_mask_get_cnt();
 163:Middlewares/lvgl/src/draw/lv_draw_rect.c ****     bool simple_mode = true;
 164:Middlewares/lvgl/src/draw/lv_draw_rect.c ****     if(other_mask_cnt) simple_mode = false;
 165:Middlewares/lvgl/src/draw/lv_draw_rect.c ****     else if(grad_dir == LV_GRAD_DIR_HOR) simple_mode = false;
 166:Middlewares/lvgl/src/draw/lv_draw_rect.c **** 
 167:Middlewares/lvgl/src/draw/lv_draw_rect.c **** 
 168:Middlewares/lvgl/src/draw/lv_draw_rect.c ****     int32_t coords_w = lv_area_get_width(&coords_bg);
 169:Middlewares/lvgl/src/draw/lv_draw_rect.c ****     int32_t coords_h = lv_area_get_height(&coords_bg);
 170:Middlewares/lvgl/src/draw/lv_draw_rect.c **** 
 171:Middlewares/lvgl/src/draw/lv_draw_rect.c ****     /*Get the real radius*/
 172:Middlewares/lvgl/src/draw/lv_draw_rect.c ****     int32_t rout = dsc->radius;
 173:Middlewares/lvgl/src/draw/lv_draw_rect.c ****     int32_t short_side = LV_MIN(coords_w, coords_h);
 174:Middlewares/lvgl/src/draw/lv_draw_rect.c ****     if(rout > short_side >> 1) rout = short_side >> 1;
 175:Middlewares/lvgl/src/draw/lv_draw_rect.c **** 
 176:Middlewares/lvgl/src/draw/lv_draw_rect.c ****     /*Most simple case: just a plain rectangle*/
 177:Middlewares/lvgl/src/draw/lv_draw_rect.c ****     if(simple_mode && rout == 0 && (grad_dir == LV_GRAD_DIR_NONE)) {
 178:Middlewares/lvgl/src/draw/lv_draw_rect.c ****         _lv_blend_fill(clip, &coords_bg,
 179:Middlewares/lvgl/src/draw/lv_draw_rect.c ****                        dsc->bg_color, NULL, LV_DRAW_MASK_RES_FULL_COVER, opa,
 180:Middlewares/lvgl/src/draw/lv_draw_rect.c ****                        dsc->blend_mode);
 181:Middlewares/lvgl/src/draw/lv_draw_rect.c ****     }
 182:Middlewares/lvgl/src/draw/lv_draw_rect.c **** 
 183:Middlewares/lvgl/src/draw/lv_draw_rect.c **** #if LV_DRAW_COMPLEX
 184:Middlewares/lvgl/src/draw/lv_draw_rect.c ****     /*More complex case: there is a radius, gradient or other mask.*/
 185:Middlewares/lvgl/src/draw/lv_draw_rect.c ****     else {
 186:Middlewares/lvgl/src/draw/lv_draw_rect.c ****         int32_t draw_area_w = lv_area_get_width(&draw_area);
 187:Middlewares/lvgl/src/draw/lv_draw_rect.c ****         int16_t mask_rout_id = LV_MASK_ID_INV;
 188:Middlewares/lvgl/src/draw/lv_draw_rect.c ****         lv_opa_t * mask_buf = lv_mem_buf_get(draw_area_w);
 189:Middlewares/lvgl/src/draw/lv_draw_rect.c ****         lv_draw_mask_radius_param_t mask_rout_param;
 190:Middlewares/lvgl/src/draw/lv_draw_rect.c ****         if(rout > 0) {
 191:Middlewares/lvgl/src/draw/lv_draw_rect.c ****             lv_draw_mask_radius_init(&mask_rout_param, &coords_bg, rout, false);
 192:Middlewares/lvgl/src/draw/lv_draw_rect.c ****             mask_rout_id = lv_draw_mask_add(&mask_rout_param, NULL);
 193:Middlewares/lvgl/src/draw/lv_draw_rect.c ****         }
 194:Middlewares/lvgl/src/draw/lv_draw_rect.c **** 
 195:Middlewares/lvgl/src/draw/lv_draw_rect.c ****         /*Draw the background line by line*/
 196:Middlewares/lvgl/src/draw/lv_draw_rect.c ****         int32_t h;
 197:Middlewares/lvgl/src/draw/lv_draw_rect.c ****         lv_draw_mask_res_t mask_res = LV_DRAW_MASK_RES_FULL_COVER;
 198:Middlewares/lvgl/src/draw/lv_draw_rect.c ****         lv_color_t grad_color = dsc->bg_color;
 199:Middlewares/lvgl/src/draw/lv_draw_rect.c **** 
 200:Middlewares/lvgl/src/draw/lv_draw_rect.c ****         /*In case of horizontal gradient pre-compute a line with a gradient*/
 201:Middlewares/lvgl/src/draw/lv_draw_rect.c ****         lv_color_t * grad_map = NULL;
 202:Middlewares/lvgl/src/draw/lv_draw_rect.c ****         if(grad_dir == LV_GRAD_DIR_HOR) {
ARM GAS  /tmp/ccUpPomB.s 			page 5


 203:Middlewares/lvgl/src/draw/lv_draw_rect.c ****             grad_map = lv_mem_buf_get(coords_w * sizeof(lv_color_t));
 204:Middlewares/lvgl/src/draw/lv_draw_rect.c **** 
 205:Middlewares/lvgl/src/draw/lv_draw_rect.c ****             int32_t i;
 206:Middlewares/lvgl/src/draw/lv_draw_rect.c ****             for(i = 0; i < coords_w; i++) {
 207:Middlewares/lvgl/src/draw/lv_draw_rect.c ****                 grad_map[i] = grad_get(dsc, coords_w, i);
 208:Middlewares/lvgl/src/draw/lv_draw_rect.c ****             }
 209:Middlewares/lvgl/src/draw/lv_draw_rect.c ****         }
 210:Middlewares/lvgl/src/draw/lv_draw_rect.c **** 
 211:Middlewares/lvgl/src/draw/lv_draw_rect.c ****         bool split = false;
 212:Middlewares/lvgl/src/draw/lv_draw_rect.c ****         if(lv_area_get_width(&coords_bg) - 2 * rout > SPLIT_LIMIT) split = true;
 213:Middlewares/lvgl/src/draw/lv_draw_rect.c **** 
 214:Middlewares/lvgl/src/draw/lv_draw_rect.c ****         lv_opa_t opa2;
 215:Middlewares/lvgl/src/draw/lv_draw_rect.c **** 
 216:Middlewares/lvgl/src/draw/lv_draw_rect.c ****         lv_area_t fill_area;
 217:Middlewares/lvgl/src/draw/lv_draw_rect.c ****         fill_area.x1 = coords_bg.x1;
 218:Middlewares/lvgl/src/draw/lv_draw_rect.c ****         fill_area.x2 = coords_bg.x2;
 219:Middlewares/lvgl/src/draw/lv_draw_rect.c ****         fill_area.y1 = disp_area->y1 + draw_area.y1;
 220:Middlewares/lvgl/src/draw/lv_draw_rect.c ****         fill_area.y2 = fill_area.y1;
 221:Middlewares/lvgl/src/draw/lv_draw_rect.c ****         for(h = draw_area.y1; h <= draw_area.y2; h++) {
 222:Middlewares/lvgl/src/draw/lv_draw_rect.c ****             int32_t y = h + draw_buf->area.y1;
 223:Middlewares/lvgl/src/draw/lv_draw_rect.c **** 
 224:Middlewares/lvgl/src/draw/lv_draw_rect.c ****             opa2 = opa;
 225:Middlewares/lvgl/src/draw/lv_draw_rect.c **** 
 226:Middlewares/lvgl/src/draw/lv_draw_rect.c ****             /*In not corner areas apply the mask only if required*/
 227:Middlewares/lvgl/src/draw/lv_draw_rect.c ****             if(y > coords_bg.y1 + rout + 1 &&
 228:Middlewares/lvgl/src/draw/lv_draw_rect.c ****                y < coords_bg.y2 - rout - 1) {
 229:Middlewares/lvgl/src/draw/lv_draw_rect.c ****                 mask_res = LV_DRAW_MASK_RES_FULL_COVER;
 230:Middlewares/lvgl/src/draw/lv_draw_rect.c ****                 if(simple_mode == false) {
 231:Middlewares/lvgl/src/draw/lv_draw_rect.c ****                     lv_memset(mask_buf, opa, draw_area_w);
 232:Middlewares/lvgl/src/draw/lv_draw_rect.c ****                     mask_res = lv_draw_mask_apply(mask_buf, draw_buf->area.x1 + draw_area.x1, draw_
 233:Middlewares/lvgl/src/draw/lv_draw_rect.c ****                 }
 234:Middlewares/lvgl/src/draw/lv_draw_rect.c ****             }
 235:Middlewares/lvgl/src/draw/lv_draw_rect.c ****             /*In corner areas apply the mask anyway*/
 236:Middlewares/lvgl/src/draw/lv_draw_rect.c ****             else {
 237:Middlewares/lvgl/src/draw/lv_draw_rect.c ****                 lv_memset(mask_buf, opa, draw_area_w);
 238:Middlewares/lvgl/src/draw/lv_draw_rect.c ****                 mask_res = lv_draw_mask_apply(mask_buf, draw_buf->area.x1 + draw_area.x1, draw_buf-
 239:Middlewares/lvgl/src/draw/lv_draw_rect.c ****             }
 240:Middlewares/lvgl/src/draw/lv_draw_rect.c **** 
 241:Middlewares/lvgl/src/draw/lv_draw_rect.c ****             /*If mask will taken into account its base opacity was already set by memset above*/
 242:Middlewares/lvgl/src/draw/lv_draw_rect.c ****             if(mask_res == LV_DRAW_MASK_RES_CHANGED) {
 243:Middlewares/lvgl/src/draw/lv_draw_rect.c ****                 opa2 = LV_OPA_COVER;
 244:Middlewares/lvgl/src/draw/lv_draw_rect.c ****             }
 245:Middlewares/lvgl/src/draw/lv_draw_rect.c **** 
 246:Middlewares/lvgl/src/draw/lv_draw_rect.c ****             /*Get the current line color*/
 247:Middlewares/lvgl/src/draw/lv_draw_rect.c ****             if(grad_dir == LV_GRAD_DIR_VER) {
 248:Middlewares/lvgl/src/draw/lv_draw_rect.c ****                 grad_color = grad_get(dsc, lv_area_get_height(&coords_bg), y - coords_bg.y1);
 249:Middlewares/lvgl/src/draw/lv_draw_rect.c ****             }
 250:Middlewares/lvgl/src/draw/lv_draw_rect.c **** 
 251:Middlewares/lvgl/src/draw/lv_draw_rect.c ****             /*If there is not other mask and drawing the corner area split the drawing to corner an
 252:Middlewares/lvgl/src/draw/lv_draw_rect.c ****              *because it the middle mask shouldn't be taken into account (therefore its faster)*/
 253:Middlewares/lvgl/src/draw/lv_draw_rect.c ****             if(simple_mode && split &&
 254:Middlewares/lvgl/src/draw/lv_draw_rect.c ****                (y < coords_bg.y1 + rout + 1 ||
 255:Middlewares/lvgl/src/draw/lv_draw_rect.c ****                 y > coords_bg.y2 - rout - 1)) {
 256:Middlewares/lvgl/src/draw/lv_draw_rect.c **** 
 257:Middlewares/lvgl/src/draw/lv_draw_rect.c ****                 /*Left part*/
 258:Middlewares/lvgl/src/draw/lv_draw_rect.c ****                 lv_area_t fill_area2;
 259:Middlewares/lvgl/src/draw/lv_draw_rect.c ****                 fill_area2.x1 = coords_bg.x1;
ARM GAS  /tmp/ccUpPomB.s 			page 6


 260:Middlewares/lvgl/src/draw/lv_draw_rect.c ****                 fill_area2.x2 = coords_bg.x1 + rout - 1;
 261:Middlewares/lvgl/src/draw/lv_draw_rect.c ****                 fill_area2.y1 = fill_area.y1;
 262:Middlewares/lvgl/src/draw/lv_draw_rect.c ****                 fill_area2.y2 = fill_area.y2;
 263:Middlewares/lvgl/src/draw/lv_draw_rect.c **** 
 264:Middlewares/lvgl/src/draw/lv_draw_rect.c ****                 _lv_blend_fill(clip, &fill_area2,
 265:Middlewares/lvgl/src/draw/lv_draw_rect.c ****                                grad_color, mask_buf, mask_res, opa2, dsc->blend_mode);
 266:Middlewares/lvgl/src/draw/lv_draw_rect.c **** 
 267:Middlewares/lvgl/src/draw/lv_draw_rect.c ****                 /*Center part*/
 268:Middlewares/lvgl/src/draw/lv_draw_rect.c ****                 if(grad_dir == LV_GRAD_DIR_VER) {
 269:Middlewares/lvgl/src/draw/lv_draw_rect.c ****                     fill_area2.x1 = coords_bg.x1 + rout;
 270:Middlewares/lvgl/src/draw/lv_draw_rect.c ****                     fill_area2.x2 = coords_bg.x2 - rout;
 271:Middlewares/lvgl/src/draw/lv_draw_rect.c ****                     _lv_blend_fill(clip, &fill_area2,
 272:Middlewares/lvgl/src/draw/lv_draw_rect.c ****                                    grad_color, NULL, LV_DRAW_MASK_RES_FULL_COVER, opa, dsc->blend_m
 273:Middlewares/lvgl/src/draw/lv_draw_rect.c ****                 }
 274:Middlewares/lvgl/src/draw/lv_draw_rect.c **** 
 275:Middlewares/lvgl/src/draw/lv_draw_rect.c ****                 /*Right part*/
 276:Middlewares/lvgl/src/draw/lv_draw_rect.c ****                 fill_area2.x1 = coords_bg.x2 - rout + 1;
 277:Middlewares/lvgl/src/draw/lv_draw_rect.c ****                 fill_area2.x2 = coords_bg.x2;
 278:Middlewares/lvgl/src/draw/lv_draw_rect.c **** 
 279:Middlewares/lvgl/src/draw/lv_draw_rect.c ****                 int32_t mask_ofs = (coords_bg.x2 - rout + 1) - (draw_buf->area.x1 + draw_area.x1);
 280:Middlewares/lvgl/src/draw/lv_draw_rect.c ****                 if(mask_ofs < 0) mask_ofs = 0;
 281:Middlewares/lvgl/src/draw/lv_draw_rect.c ****                 _lv_blend_fill(clip, &fill_area2,
 282:Middlewares/lvgl/src/draw/lv_draw_rect.c ****                                grad_color, mask_buf + mask_ofs, mask_res, opa2, dsc->blend_mode);
 283:Middlewares/lvgl/src/draw/lv_draw_rect.c **** 
 284:Middlewares/lvgl/src/draw/lv_draw_rect.c ****             }
 285:Middlewares/lvgl/src/draw/lv_draw_rect.c ****             else {
 286:Middlewares/lvgl/src/draw/lv_draw_rect.c ****                 if(grad_dir == LV_GRAD_DIR_HOR) {
 287:Middlewares/lvgl/src/draw/lv_draw_rect.c ****                     _lv_blend_map(clip, &fill_area, grad_map, mask_buf, mask_res, opa2, dsc->blend_
 288:Middlewares/lvgl/src/draw/lv_draw_rect.c ****                 }
 289:Middlewares/lvgl/src/draw/lv_draw_rect.c ****                 else if(grad_dir == LV_GRAD_DIR_VER) {
 290:Middlewares/lvgl/src/draw/lv_draw_rect.c ****                     _lv_blend_fill(clip, &fill_area,
 291:Middlewares/lvgl/src/draw/lv_draw_rect.c ****                                    grad_color, mask_buf, mask_res, opa2, dsc->blend_mode);
 292:Middlewares/lvgl/src/draw/lv_draw_rect.c ****                 }
 293:Middlewares/lvgl/src/draw/lv_draw_rect.c ****                 else if(other_mask_cnt != 0 || !split) {
 294:Middlewares/lvgl/src/draw/lv_draw_rect.c ****                     _lv_blend_fill(clip, &fill_area,
 295:Middlewares/lvgl/src/draw/lv_draw_rect.c ****                                    grad_color, mask_buf, mask_res, opa2, dsc->blend_mode);
 296:Middlewares/lvgl/src/draw/lv_draw_rect.c ****                 }
 297:Middlewares/lvgl/src/draw/lv_draw_rect.c ****             }
 298:Middlewares/lvgl/src/draw/lv_draw_rect.c ****             fill_area.y1++;
 299:Middlewares/lvgl/src/draw/lv_draw_rect.c ****             fill_area.y2++;
 300:Middlewares/lvgl/src/draw/lv_draw_rect.c ****         }
 301:Middlewares/lvgl/src/draw/lv_draw_rect.c **** 
 302:Middlewares/lvgl/src/draw/lv_draw_rect.c ****         if(grad_dir == LV_GRAD_DIR_NONE && other_mask_cnt == 0 && split) {
 303:Middlewares/lvgl/src/draw/lv_draw_rect.c ****             /*Central part*/
 304:Middlewares/lvgl/src/draw/lv_draw_rect.c ****             fill_area.x1 = coords_bg.x1 + rout;
 305:Middlewares/lvgl/src/draw/lv_draw_rect.c ****             fill_area.x2 = coords_bg.x2 - rout;
 306:Middlewares/lvgl/src/draw/lv_draw_rect.c ****             fill_area.y1 = coords_bg.y1;
 307:Middlewares/lvgl/src/draw/lv_draw_rect.c ****             fill_area.y2 = coords_bg.y1 + rout;
 308:Middlewares/lvgl/src/draw/lv_draw_rect.c **** 
 309:Middlewares/lvgl/src/draw/lv_draw_rect.c ****             _lv_blend_fill(clip, &fill_area,
 310:Middlewares/lvgl/src/draw/lv_draw_rect.c ****                            dsc->bg_color, NULL, LV_DRAW_MASK_RES_FULL_COVER, opa, dsc->blend_mode);
 311:Middlewares/lvgl/src/draw/lv_draw_rect.c **** 
 312:Middlewares/lvgl/src/draw/lv_draw_rect.c ****             fill_area.y1 = coords_bg.y2 - rout;
 313:Middlewares/lvgl/src/draw/lv_draw_rect.c ****             if(fill_area.y1 <= fill_area.y2) fill_area.y1 = fill_area.y2 + 1;    /*Avoid overdrawin
 314:Middlewares/lvgl/src/draw/lv_draw_rect.c ****             fill_area.y2 = coords_bg.y2;
 315:Middlewares/lvgl/src/draw/lv_draw_rect.c **** 
 316:Middlewares/lvgl/src/draw/lv_draw_rect.c ****             _lv_blend_fill(clip, &fill_area,
ARM GAS  /tmp/ccUpPomB.s 			page 7


 317:Middlewares/lvgl/src/draw/lv_draw_rect.c ****                            dsc->bg_color, NULL, LV_DRAW_MASK_RES_FULL_COVER, opa, dsc->blend_mode);
 318:Middlewares/lvgl/src/draw/lv_draw_rect.c **** 
 319:Middlewares/lvgl/src/draw/lv_draw_rect.c ****             fill_area.x1 = coords_bg.x1;
 320:Middlewares/lvgl/src/draw/lv_draw_rect.c ****             fill_area.x2 = coords_bg.x2;
 321:Middlewares/lvgl/src/draw/lv_draw_rect.c ****             fill_area.y1 = coords_bg.y1 + rout + 1;
 322:Middlewares/lvgl/src/draw/lv_draw_rect.c ****             fill_area.y2 = coords_bg.y2 - rout - 1;
 323:Middlewares/lvgl/src/draw/lv_draw_rect.c **** 
 324:Middlewares/lvgl/src/draw/lv_draw_rect.c ****             _lv_blend_fill(clip, &fill_area,
 325:Middlewares/lvgl/src/draw/lv_draw_rect.c ****                            dsc->bg_color, NULL, LV_DRAW_MASK_RES_FULL_COVER, opa, dsc->blend_mode);
 326:Middlewares/lvgl/src/draw/lv_draw_rect.c **** 
 327:Middlewares/lvgl/src/draw/lv_draw_rect.c ****         }
 328:Middlewares/lvgl/src/draw/lv_draw_rect.c **** 
 329:Middlewares/lvgl/src/draw/lv_draw_rect.c ****         if(grad_map) lv_mem_buf_release(grad_map);
 330:Middlewares/lvgl/src/draw/lv_draw_rect.c ****         if(mask_buf) lv_mem_buf_release(mask_buf);
 331:Middlewares/lvgl/src/draw/lv_draw_rect.c ****         lv_draw_mask_remove_id(mask_rout_id);
 332:Middlewares/lvgl/src/draw/lv_draw_rect.c ****     }
 333:Middlewares/lvgl/src/draw/lv_draw_rect.c **** 
 334:Middlewares/lvgl/src/draw/lv_draw_rect.c **** #endif
 335:Middlewares/lvgl/src/draw/lv_draw_rect.c **** }
 336:Middlewares/lvgl/src/draw/lv_draw_rect.c **** 
 337:Middlewares/lvgl/src/draw/lv_draw_rect.c **** LV_ATTRIBUTE_FAST_MEM static void draw_bg_img(const lv_area_t * coords, const lv_area_t * clip,
 338:Middlewares/lvgl/src/draw/lv_draw_rect.c ****                                           const lv_draw_rect_dsc_t * dsc)
 339:Middlewares/lvgl/src/draw/lv_draw_rect.c **** {
 340:Middlewares/lvgl/src/draw/lv_draw_rect.c ****     if(dsc->bg_img_src == NULL) return;
 341:Middlewares/lvgl/src/draw/lv_draw_rect.c ****     if(dsc->bg_img_opa <= LV_OPA_MIN) return;
 342:Middlewares/lvgl/src/draw/lv_draw_rect.c **** 
 343:Middlewares/lvgl/src/draw/lv_draw_rect.c ****     lv_img_src_t src_type = lv_img_src_get_type(dsc->bg_img_src);
 344:Middlewares/lvgl/src/draw/lv_draw_rect.c ****     if(src_type == LV_IMG_SRC_SYMBOL) {
 345:Middlewares/lvgl/src/draw/lv_draw_rect.c ****         lv_point_t size;
 346:Middlewares/lvgl/src/draw/lv_draw_rect.c ****         lv_txt_get_size(&size, dsc->bg_img_src, dsc->bg_img_symbol_font, 0, 0, LV_COORD_MAX, LV_TEX
 347:Middlewares/lvgl/src/draw/lv_draw_rect.c ****         lv_area_t a;
 348:Middlewares/lvgl/src/draw/lv_draw_rect.c ****         a.x1 = coords->x1 + lv_area_get_width(coords) / 2 - size.x / 2;
 349:Middlewares/lvgl/src/draw/lv_draw_rect.c ****         a.x2 = a.x1 + size.x - 1;
 350:Middlewares/lvgl/src/draw/lv_draw_rect.c ****         a.y1 = coords->y1 + lv_area_get_height(coords) / 2 - size.y / 2;
 351:Middlewares/lvgl/src/draw/lv_draw_rect.c ****         a.y2 = a.y1 + size.y - 1;
 352:Middlewares/lvgl/src/draw/lv_draw_rect.c **** 
 353:Middlewares/lvgl/src/draw/lv_draw_rect.c ****         lv_draw_label_dsc_t label_draw_dsc;
 354:Middlewares/lvgl/src/draw/lv_draw_rect.c ****         lv_draw_label_dsc_init(&label_draw_dsc);
 355:Middlewares/lvgl/src/draw/lv_draw_rect.c ****         label_draw_dsc.font = dsc->bg_img_symbol_font;
 356:Middlewares/lvgl/src/draw/lv_draw_rect.c ****         label_draw_dsc.color = dsc->bg_img_recolor;
 357:Middlewares/lvgl/src/draw/lv_draw_rect.c ****         label_draw_dsc.opa = dsc->bg_img_opa;
 358:Middlewares/lvgl/src/draw/lv_draw_rect.c ****         lv_draw_label(&a, clip, &label_draw_dsc, dsc->bg_img_src, NULL);
 359:Middlewares/lvgl/src/draw/lv_draw_rect.c ****     }
 360:Middlewares/lvgl/src/draw/lv_draw_rect.c ****     else {
 361:Middlewares/lvgl/src/draw/lv_draw_rect.c ****         lv_img_header_t header;
 362:Middlewares/lvgl/src/draw/lv_draw_rect.c ****         lv_res_t res = lv_img_decoder_get_info(dsc->bg_img_src, &header);
 363:Middlewares/lvgl/src/draw/lv_draw_rect.c ****         if(res != LV_RES_OK) {
 364:Middlewares/lvgl/src/draw/lv_draw_rect.c ****             LV_LOG_WARN("Coudn't read the background image");
 365:Middlewares/lvgl/src/draw/lv_draw_rect.c ****             return;
 366:Middlewares/lvgl/src/draw/lv_draw_rect.c ****         }
 367:Middlewares/lvgl/src/draw/lv_draw_rect.c **** 
 368:Middlewares/lvgl/src/draw/lv_draw_rect.c ****         lv_draw_img_dsc_t img_dsc;
 369:Middlewares/lvgl/src/draw/lv_draw_rect.c ****         lv_draw_img_dsc_init(&img_dsc);
 370:Middlewares/lvgl/src/draw/lv_draw_rect.c ****         img_dsc.blend_mode = dsc->blend_mode;
 371:Middlewares/lvgl/src/draw/lv_draw_rect.c ****         img_dsc.recolor = dsc->bg_img_recolor;
 372:Middlewares/lvgl/src/draw/lv_draw_rect.c ****         img_dsc.recolor_opa = dsc->bg_img_recolor_opa;
 373:Middlewares/lvgl/src/draw/lv_draw_rect.c ****         img_dsc.opa = dsc->bg_img_opa;
ARM GAS  /tmp/ccUpPomB.s 			page 8


 374:Middlewares/lvgl/src/draw/lv_draw_rect.c **** 
 375:Middlewares/lvgl/src/draw/lv_draw_rect.c ****         /*Center align*/
 376:Middlewares/lvgl/src/draw/lv_draw_rect.c ****         if(dsc->bg_img_tiled == false) {
 377:Middlewares/lvgl/src/draw/lv_draw_rect.c ****             lv_area_t area;
 378:Middlewares/lvgl/src/draw/lv_draw_rect.c ****             area.x1 = coords->x1 + lv_area_get_width(coords) / 2 - header.w / 2;
 379:Middlewares/lvgl/src/draw/lv_draw_rect.c ****             area.y1 = coords->y1 + lv_area_get_height(coords) / 2 - header.h / 2;
 380:Middlewares/lvgl/src/draw/lv_draw_rect.c ****             area.x2 = area.x1 + header.w - 1;
 381:Middlewares/lvgl/src/draw/lv_draw_rect.c ****             area.y2 = area.y1 + header.h - 1;
 382:Middlewares/lvgl/src/draw/lv_draw_rect.c **** 
 383:Middlewares/lvgl/src/draw/lv_draw_rect.c ****             lv_draw_img(&area, clip, dsc->bg_img_src, &img_dsc);
 384:Middlewares/lvgl/src/draw/lv_draw_rect.c ****         } else {
 385:Middlewares/lvgl/src/draw/lv_draw_rect.c ****             lv_area_t area;
 386:Middlewares/lvgl/src/draw/lv_draw_rect.c ****             area.y1 = coords->y1;
 387:Middlewares/lvgl/src/draw/lv_draw_rect.c ****             area.y2 = area.y1 + header.h - 1;
 388:Middlewares/lvgl/src/draw/lv_draw_rect.c **** 
 389:Middlewares/lvgl/src/draw/lv_draw_rect.c ****             for(; area.y1 <= coords->y2; area.y1 += header.h, area.y2 += header.h) {
 390:Middlewares/lvgl/src/draw/lv_draw_rect.c **** 
 391:Middlewares/lvgl/src/draw/lv_draw_rect.c ****                 area.x1 = coords->x1;
 392:Middlewares/lvgl/src/draw/lv_draw_rect.c ****                 area.x2 = area.x1 + header.w - 1;
 393:Middlewares/lvgl/src/draw/lv_draw_rect.c ****                 for(; area.x1 <= coords->x2; area.x1 += header.w, area.x2 += header.w) {
 394:Middlewares/lvgl/src/draw/lv_draw_rect.c ****                     lv_draw_img(&area, clip, dsc->bg_img_src, &img_dsc);
 395:Middlewares/lvgl/src/draw/lv_draw_rect.c ****                 }
 396:Middlewares/lvgl/src/draw/lv_draw_rect.c ****             }
 397:Middlewares/lvgl/src/draw/lv_draw_rect.c ****         }
 398:Middlewares/lvgl/src/draw/lv_draw_rect.c ****     }
 399:Middlewares/lvgl/src/draw/lv_draw_rect.c **** }
 400:Middlewares/lvgl/src/draw/lv_draw_rect.c **** 
 401:Middlewares/lvgl/src/draw/lv_draw_rect.c **** LV_ATTRIBUTE_FAST_MEM static void draw_border(const lv_area_t * coords, const lv_area_t * clip,
 402:Middlewares/lvgl/src/draw/lv_draw_rect.c ****                                               const lv_draw_rect_dsc_t * dsc)
 403:Middlewares/lvgl/src/draw/lv_draw_rect.c **** {
 404:Middlewares/lvgl/src/draw/lv_draw_rect.c ****     if(dsc->border_opa <= LV_OPA_MIN) return;
 405:Middlewares/lvgl/src/draw/lv_draw_rect.c ****     if(dsc->border_width == 0) return;
 406:Middlewares/lvgl/src/draw/lv_draw_rect.c ****     if(dsc->border_side == LV_BORDER_SIDE_NONE) return;
 407:Middlewares/lvgl/src/draw/lv_draw_rect.c ****     if(dsc->border_post) return;
 408:Middlewares/lvgl/src/draw/lv_draw_rect.c **** 
 409:Middlewares/lvgl/src/draw/lv_draw_rect.c ****     int32_t coords_w = lv_area_get_width(coords);
 410:Middlewares/lvgl/src/draw/lv_draw_rect.c ****     int32_t coords_h = lv_area_get_height(coords);
 411:Middlewares/lvgl/src/draw/lv_draw_rect.c **** 
 412:Middlewares/lvgl/src/draw/lv_draw_rect.c ****     /*Get the real radius*/
 413:Middlewares/lvgl/src/draw/lv_draw_rect.c ****     int32_t rout = dsc->radius;
 414:Middlewares/lvgl/src/draw/lv_draw_rect.c ****     int32_t short_side = LV_MIN(coords_w, coords_h);
 415:Middlewares/lvgl/src/draw/lv_draw_rect.c ****     if(rout > short_side >> 1) rout = short_side >> 1;
 416:Middlewares/lvgl/src/draw/lv_draw_rect.c **** 
 417:Middlewares/lvgl/src/draw/lv_draw_rect.c ****     /*Get the inner area*/
 418:Middlewares/lvgl/src/draw/lv_draw_rect.c ****     lv_area_t area_inner;
 419:Middlewares/lvgl/src/draw/lv_draw_rect.c ****     lv_area_copy(&area_inner, coords);
 420:Middlewares/lvgl/src/draw/lv_draw_rect.c ****     area_inner.x1 += ((dsc->border_side & LV_BORDER_SIDE_LEFT) ? dsc->border_width : - (dsc->border
 421:Middlewares/lvgl/src/draw/lv_draw_rect.c ****     area_inner.x2 -= ((dsc->border_side & LV_BORDER_SIDE_RIGHT) ? dsc->border_width : - (dsc->borde
 422:Middlewares/lvgl/src/draw/lv_draw_rect.c ****     area_inner.y1 += ((dsc->border_side & LV_BORDER_SIDE_TOP) ? dsc->border_width : - (dsc->border_
 423:Middlewares/lvgl/src/draw/lv_draw_rect.c ****     area_inner.y2 -= ((dsc->border_side & LV_BORDER_SIDE_BOTTOM) ? dsc->border_width : - (dsc->bord
 424:Middlewares/lvgl/src/draw/lv_draw_rect.c **** 
 425:Middlewares/lvgl/src/draw/lv_draw_rect.c **** #if LV_DRAW_COMPLEX
 426:Middlewares/lvgl/src/draw/lv_draw_rect.c ****     if(dsc->border_side == LV_BORDER_SIDE_FULL) {
 427:Middlewares/lvgl/src/draw/lv_draw_rect.c ****         draw_full_border(&area_inner, coords, clip, dsc->radius, false, dsc->border_color, dsc->bor
 428:Middlewares/lvgl/src/draw/lv_draw_rect.c ****                          dsc->blend_mode);
 429:Middlewares/lvgl/src/draw/lv_draw_rect.c ****     }
 430:Middlewares/lvgl/src/draw/lv_draw_rect.c ****     else {
ARM GAS  /tmp/ccUpPomB.s 			page 9


 431:Middlewares/lvgl/src/draw/lv_draw_rect.c ****         lv_opa_t opa = dsc->border_opa;
 432:Middlewares/lvgl/src/draw/lv_draw_rect.c ****         if(opa > LV_OPA_MAX) opa = LV_OPA_COVER;
 433:Middlewares/lvgl/src/draw/lv_draw_rect.c **** 
 434:Middlewares/lvgl/src/draw/lv_draw_rect.c ****         lv_disp_t * disp = _lv_refr_get_disp_refreshing();
 435:Middlewares/lvgl/src/draw/lv_draw_rect.c ****         lv_disp_draw_buf_t * draw_buf = lv_disp_get_draw_buf(disp);
 436:Middlewares/lvgl/src/draw/lv_draw_rect.c **** 
 437:Middlewares/lvgl/src/draw/lv_draw_rect.c ****         /*Get clipped fill area which is the real draw area.
 438:Middlewares/lvgl/src/draw/lv_draw_rect.c ****          *It is always the same or inside `fill_area`*/
 439:Middlewares/lvgl/src/draw/lv_draw_rect.c ****         lv_area_t draw_area;
 440:Middlewares/lvgl/src/draw/lv_draw_rect.c ****         bool is_common;
 441:Middlewares/lvgl/src/draw/lv_draw_rect.c ****         is_common = _lv_area_intersect(&draw_area, coords, clip);
 442:Middlewares/lvgl/src/draw/lv_draw_rect.c ****         if(is_common == false) return;
 443:Middlewares/lvgl/src/draw/lv_draw_rect.c **** 
 444:Middlewares/lvgl/src/draw/lv_draw_rect.c ****         const lv_area_t * disp_area = &draw_buf->area;
 445:Middlewares/lvgl/src/draw/lv_draw_rect.c **** 
 446:Middlewares/lvgl/src/draw/lv_draw_rect.c ****         /*Now `draw_area` has absolute coordinates.
 447:Middlewares/lvgl/src/draw/lv_draw_rect.c ****          *Make it relative to `disp_area` to simplify draw to `disp_buf`*/
 448:Middlewares/lvgl/src/draw/lv_draw_rect.c ****         draw_area.x1 -= disp_area->x1;
 449:Middlewares/lvgl/src/draw/lv_draw_rect.c ****         draw_area.y1 -= disp_area->y1;
 450:Middlewares/lvgl/src/draw/lv_draw_rect.c ****         draw_area.x2 -= disp_area->x1;
 451:Middlewares/lvgl/src/draw/lv_draw_rect.c ****         draw_area.y2 -= disp_area->y1;
 452:Middlewares/lvgl/src/draw/lv_draw_rect.c **** 
 453:Middlewares/lvgl/src/draw/lv_draw_rect.c ****         int32_t draw_area_w = lv_area_get_width(&draw_area);
 454:Middlewares/lvgl/src/draw/lv_draw_rect.c **** 
 455:Middlewares/lvgl/src/draw/lv_draw_rect.c ****         /*Create a mask if there is a radius*/
 456:Middlewares/lvgl/src/draw/lv_draw_rect.c ****         lv_opa_t * mask_buf = lv_mem_buf_get(draw_area_w);
 457:Middlewares/lvgl/src/draw/lv_draw_rect.c **** 
 458:Middlewares/lvgl/src/draw/lv_draw_rect.c ****         /*Create mask for the outer area*/
 459:Middlewares/lvgl/src/draw/lv_draw_rect.c ****         int16_t mask_rout_id = LV_MASK_ID_INV;
 460:Middlewares/lvgl/src/draw/lv_draw_rect.c ****         lv_draw_mask_radius_param_t mask_rout_param;
 461:Middlewares/lvgl/src/draw/lv_draw_rect.c ****         if(rout > 0) {
 462:Middlewares/lvgl/src/draw/lv_draw_rect.c ****             lv_draw_mask_radius_init(&mask_rout_param, coords, rout, false);
 463:Middlewares/lvgl/src/draw/lv_draw_rect.c ****             mask_rout_id = lv_draw_mask_add(&mask_rout_param, NULL);
 464:Middlewares/lvgl/src/draw/lv_draw_rect.c ****         }
 465:Middlewares/lvgl/src/draw/lv_draw_rect.c **** 
 466:Middlewares/lvgl/src/draw/lv_draw_rect.c ****         /*Create mask for the inner mask*/
 467:Middlewares/lvgl/src/draw/lv_draw_rect.c ****         int32_t rin = rout - dsc->border_width;
 468:Middlewares/lvgl/src/draw/lv_draw_rect.c ****         if(rin < 0) rin = 0;
 469:Middlewares/lvgl/src/draw/lv_draw_rect.c ****         lv_draw_mask_radius_param_t mask_rin_param;
 470:Middlewares/lvgl/src/draw/lv_draw_rect.c ****         lv_draw_mask_radius_init(&mask_rin_param, &area_inner, rout - dsc->border_width, true);
 471:Middlewares/lvgl/src/draw/lv_draw_rect.c ****         int16_t mask_rin_id = lv_draw_mask_add(&mask_rin_param, NULL);
 472:Middlewares/lvgl/src/draw/lv_draw_rect.c **** 
 473:Middlewares/lvgl/src/draw/lv_draw_rect.c ****         int32_t corner_size = LV_MAX(rout, dsc->border_width - 1);
 474:Middlewares/lvgl/src/draw/lv_draw_rect.c **** 
 475:Middlewares/lvgl/src/draw/lv_draw_rect.c ****         int32_t h;
 476:Middlewares/lvgl/src/draw/lv_draw_rect.c ****         lv_draw_mask_res_t mask_res;
 477:Middlewares/lvgl/src/draw/lv_draw_rect.c ****         lv_area_t fill_area;
 478:Middlewares/lvgl/src/draw/lv_draw_rect.c **** 
 479:Middlewares/lvgl/src/draw/lv_draw_rect.c ****         lv_color_t color = dsc->border_color;
 480:Middlewares/lvgl/src/draw/lv_draw_rect.c ****         lv_blend_mode_t blend_mode = dsc->blend_mode;
 481:Middlewares/lvgl/src/draw/lv_draw_rect.c **** 
 482:Middlewares/lvgl/src/draw/lv_draw_rect.c ****         fill_area.x1 = coords->x1;
 483:Middlewares/lvgl/src/draw/lv_draw_rect.c ****         fill_area.x2 = coords->x2;
 484:Middlewares/lvgl/src/draw/lv_draw_rect.c ****         fill_area.y1 = disp_area->y1 + draw_area.y1;
 485:Middlewares/lvgl/src/draw/lv_draw_rect.c ****         fill_area.y2 = fill_area.y1;
 486:Middlewares/lvgl/src/draw/lv_draw_rect.c **** 
 487:Middlewares/lvgl/src/draw/lv_draw_rect.c ****         if(dsc->border_side == LV_BORDER_SIDE_LEFT) fill_area.x2 = coords->x1 + corner_size;
ARM GAS  /tmp/ccUpPomB.s 			page 10


 488:Middlewares/lvgl/src/draw/lv_draw_rect.c **** 
 489:Middlewares/lvgl/src/draw/lv_draw_rect.c ****         volatile bool top_only = false;
 490:Middlewares/lvgl/src/draw/lv_draw_rect.c ****         volatile bool bottom_only = false;
 491:Middlewares/lvgl/src/draw/lv_draw_rect.c ****         if(dsc->border_side == LV_BORDER_SIDE_TOP) top_only = true;
 492:Middlewares/lvgl/src/draw/lv_draw_rect.c ****         if(dsc->border_side == LV_BORDER_SIDE_BOTTOM) bottom_only = true;
 493:Middlewares/lvgl/src/draw/lv_draw_rect.c ****         if(dsc->border_side == (LV_BORDER_SIDE_TOP | LV_BORDER_SIDE_BOTTOM)) {
 494:Middlewares/lvgl/src/draw/lv_draw_rect.c ****             top_only = true;
 495:Middlewares/lvgl/src/draw/lv_draw_rect.c ****             bottom_only = true;
 496:Middlewares/lvgl/src/draw/lv_draw_rect.c ****         }
 497:Middlewares/lvgl/src/draw/lv_draw_rect.c **** 
 498:Middlewares/lvgl/src/draw/lv_draw_rect.c ****         volatile bool normal = !top_only && !bottom_only ? true : false;
 499:Middlewares/lvgl/src/draw/lv_draw_rect.c **** 
 500:Middlewares/lvgl/src/draw/lv_draw_rect.c ****         for(h = draw_area.y1; h <= draw_area.y2; h++) {
 501:Middlewares/lvgl/src/draw/lv_draw_rect.c ****             if(normal ||
 502:Middlewares/lvgl/src/draw/lv_draw_rect.c ****                (top_only && fill_area.y1 <= coords->y1 + corner_size) ||
 503:Middlewares/lvgl/src/draw/lv_draw_rect.c ****                (bottom_only && fill_area.y1 >= coords->y2 - corner_size)) {
 504:Middlewares/lvgl/src/draw/lv_draw_rect.c ****                 lv_memset_ff(mask_buf, draw_area_w);
 505:Middlewares/lvgl/src/draw/lv_draw_rect.c ****                 mask_res = lv_draw_mask_apply(mask_buf, draw_buf->area.x1 + draw_area.x1, draw_buf-
 506:Middlewares/lvgl/src/draw/lv_draw_rect.c ****                 _lv_blend_fill(clip, &fill_area, color, mask_buf, mask_res, opa, blend_mode);
 507:Middlewares/lvgl/src/draw/lv_draw_rect.c ****             }
 508:Middlewares/lvgl/src/draw/lv_draw_rect.c ****             fill_area.y1++;
 509:Middlewares/lvgl/src/draw/lv_draw_rect.c ****             fill_area.y2++;
 510:Middlewares/lvgl/src/draw/lv_draw_rect.c **** 
 511:Middlewares/lvgl/src/draw/lv_draw_rect.c ****         }
 512:Middlewares/lvgl/src/draw/lv_draw_rect.c ****         lv_draw_mask_remove_id(mask_rin_id);
 513:Middlewares/lvgl/src/draw/lv_draw_rect.c ****         lv_draw_mask_remove_id(mask_rout_id);
 514:Middlewares/lvgl/src/draw/lv_draw_rect.c ****         lv_mem_buf_release(mask_buf);
 515:Middlewares/lvgl/src/draw/lv_draw_rect.c ****     }
 516:Middlewares/lvgl/src/draw/lv_draw_rect.c **** #else /*LV_DRAW_COMPLEX*/
 517:Middlewares/lvgl/src/draw/lv_draw_rect.c ****     draw_simple_border(clip, &area_inner, coords, dsc->border_color, dsc->border_opa, dsc->border_s
 518:Middlewares/lvgl/src/draw/lv_draw_rect.c **** #endif
 519:Middlewares/lvgl/src/draw/lv_draw_rect.c **** }
 520:Middlewares/lvgl/src/draw/lv_draw_rect.c **** 
 521:Middlewares/lvgl/src/draw/lv_draw_rect.c **** #if LV_DRAW_COMPLEX
 522:Middlewares/lvgl/src/draw/lv_draw_rect.c **** LV_ATTRIBUTE_FAST_MEM static inline lv_color_t grad_get(const lv_draw_rect_dsc_t * dsc, lv_coord_t 
 523:Middlewares/lvgl/src/draw/lv_draw_rect.c **** {
 524:Middlewares/lvgl/src/draw/lv_draw_rect.c ****     int32_t min = (dsc->bg_main_color_stop * s) >> 8;
 525:Middlewares/lvgl/src/draw/lv_draw_rect.c ****     if(i <= min) return dsc->bg_color;
 526:Middlewares/lvgl/src/draw/lv_draw_rect.c **** 
 527:Middlewares/lvgl/src/draw/lv_draw_rect.c ****     int32_t max = (dsc->bg_grad_color_stop * s) >> 8;
 528:Middlewares/lvgl/src/draw/lv_draw_rect.c ****     if(i >= max) return dsc->bg_grad_color;
 529:Middlewares/lvgl/src/draw/lv_draw_rect.c **** 
 530:Middlewares/lvgl/src/draw/lv_draw_rect.c ****     int32_t d = dsc->bg_grad_color_stop - dsc->bg_main_color_stop;
 531:Middlewares/lvgl/src/draw/lv_draw_rect.c ****     d = (s * d) >> 8;
 532:Middlewares/lvgl/src/draw/lv_draw_rect.c ****     i -= min;
 533:Middlewares/lvgl/src/draw/lv_draw_rect.c ****     lv_opa_t mix = (i * 255) / d;
 534:Middlewares/lvgl/src/draw/lv_draw_rect.c ****     return lv_color_mix(dsc->bg_grad_color, dsc->bg_color, mix);
 535:Middlewares/lvgl/src/draw/lv_draw_rect.c **** }
 536:Middlewares/lvgl/src/draw/lv_draw_rect.c **** 
 537:Middlewares/lvgl/src/draw/lv_draw_rect.c **** LV_ATTRIBUTE_FAST_MEM static void draw_shadow(const lv_area_t * coords, const lv_area_t * clip,
 538:Middlewares/lvgl/src/draw/lv_draw_rect.c ****                                               const lv_draw_rect_dsc_t * dsc)
 539:Middlewares/lvgl/src/draw/lv_draw_rect.c **** {
 540:Middlewares/lvgl/src/draw/lv_draw_rect.c ****     /*Check whether the shadow is visible*/
 541:Middlewares/lvgl/src/draw/lv_draw_rect.c ****     if(dsc->shadow_width == 0) return;
 542:Middlewares/lvgl/src/draw/lv_draw_rect.c ****     if(dsc->shadow_opa <= LV_OPA_MIN) return;
 543:Middlewares/lvgl/src/draw/lv_draw_rect.c **** 
 544:Middlewares/lvgl/src/draw/lv_draw_rect.c ****     if(dsc->shadow_width == 1 && dsc->shadow_ofs_x == 0 &&
ARM GAS  /tmp/ccUpPomB.s 			page 11


 545:Middlewares/lvgl/src/draw/lv_draw_rect.c ****        dsc->shadow_ofs_y == 0 && dsc->shadow_spread <= 0) {
 546:Middlewares/lvgl/src/draw/lv_draw_rect.c ****         return;
 547:Middlewares/lvgl/src/draw/lv_draw_rect.c ****     }
 548:Middlewares/lvgl/src/draw/lv_draw_rect.c **** 
 549:Middlewares/lvgl/src/draw/lv_draw_rect.c ****     int32_t sw = dsc->shadow_width;
 550:Middlewares/lvgl/src/draw/lv_draw_rect.c **** 
 551:Middlewares/lvgl/src/draw/lv_draw_rect.c ****     lv_area_t sh_rect_area;
 552:Middlewares/lvgl/src/draw/lv_draw_rect.c ****     sh_rect_area.x1 = coords->x1  + dsc->shadow_ofs_x - dsc->shadow_spread;
 553:Middlewares/lvgl/src/draw/lv_draw_rect.c ****     sh_rect_area.x2 = coords->x2  + dsc->shadow_ofs_x + dsc->shadow_spread;
 554:Middlewares/lvgl/src/draw/lv_draw_rect.c ****     sh_rect_area.y1 = coords->y1  + dsc->shadow_ofs_y - dsc->shadow_spread;
 555:Middlewares/lvgl/src/draw/lv_draw_rect.c ****     sh_rect_area.y2 = coords->y2  + dsc->shadow_ofs_y + dsc->shadow_spread;
 556:Middlewares/lvgl/src/draw/lv_draw_rect.c **** 
 557:Middlewares/lvgl/src/draw/lv_draw_rect.c ****     lv_area_t sh_area;
 558:Middlewares/lvgl/src/draw/lv_draw_rect.c ****     sh_area.x1 = sh_rect_area.x1 - sw / 2 - 1;
 559:Middlewares/lvgl/src/draw/lv_draw_rect.c ****     sh_area.x2 = sh_rect_area.x2 + sw / 2 + 1;
 560:Middlewares/lvgl/src/draw/lv_draw_rect.c ****     sh_area.y1 = sh_rect_area.y1 - sw / 2 - 1;
 561:Middlewares/lvgl/src/draw/lv_draw_rect.c ****     sh_area.y2 = sh_rect_area.y2 + sw / 2 + 1;
 562:Middlewares/lvgl/src/draw/lv_draw_rect.c **** 
 563:Middlewares/lvgl/src/draw/lv_draw_rect.c ****     lv_opa_t opa = dsc->shadow_opa;
 564:Middlewares/lvgl/src/draw/lv_draw_rect.c **** 
 565:Middlewares/lvgl/src/draw/lv_draw_rect.c ****     if(opa > LV_OPA_MAX) opa = LV_OPA_COVER;
 566:Middlewares/lvgl/src/draw/lv_draw_rect.c **** 
 567:Middlewares/lvgl/src/draw/lv_draw_rect.c ****     lv_disp_t * disp = _lv_refr_get_disp_refreshing();
 568:Middlewares/lvgl/src/draw/lv_draw_rect.c ****     lv_disp_draw_buf_t * draw_buf = lv_disp_get_draw_buf(disp);
 569:Middlewares/lvgl/src/draw/lv_draw_rect.c **** 
 570:Middlewares/lvgl/src/draw/lv_draw_rect.c ****     /*Get clipped fill area which is the real draw area.
 571:Middlewares/lvgl/src/draw/lv_draw_rect.c ****      *It is always the same or inside `fill_area`*/
 572:Middlewares/lvgl/src/draw/lv_draw_rect.c ****     lv_area_t draw_area;
 573:Middlewares/lvgl/src/draw/lv_draw_rect.c ****     bool is_common;
 574:Middlewares/lvgl/src/draw/lv_draw_rect.c ****     is_common = _lv_area_intersect(&draw_area, &sh_area, clip);
 575:Middlewares/lvgl/src/draw/lv_draw_rect.c ****     if(is_common == false) return;
 576:Middlewares/lvgl/src/draw/lv_draw_rect.c **** 
 577:Middlewares/lvgl/src/draw/lv_draw_rect.c ****     const lv_area_t * disp_area = &draw_buf->area;
 578:Middlewares/lvgl/src/draw/lv_draw_rect.c **** 
 579:Middlewares/lvgl/src/draw/lv_draw_rect.c ****     /*Now `draw_area` has absolute coordinates.
 580:Middlewares/lvgl/src/draw/lv_draw_rect.c ****      *Make it relative to `disp_area` to simplify draw to `disp_buf`*/
 581:Middlewares/lvgl/src/draw/lv_draw_rect.c ****     draw_area.x1 -= disp_area->x1;
 582:Middlewares/lvgl/src/draw/lv_draw_rect.c ****     draw_area.y1 -= disp_area->y1;
 583:Middlewares/lvgl/src/draw/lv_draw_rect.c ****     draw_area.x2 -= disp_area->x1;
 584:Middlewares/lvgl/src/draw/lv_draw_rect.c ****     draw_area.y2 -= disp_area->y1;
 585:Middlewares/lvgl/src/draw/lv_draw_rect.c **** 
 586:Middlewares/lvgl/src/draw/lv_draw_rect.c ****     /*Consider 1 px smaller bg to be sure the edge will be covered by the shadow*/
 587:Middlewares/lvgl/src/draw/lv_draw_rect.c ****     lv_area_t bg_coords;
 588:Middlewares/lvgl/src/draw/lv_draw_rect.c ****     lv_area_copy(&bg_coords, coords);
 589:Middlewares/lvgl/src/draw/lv_draw_rect.c ****     bg_coords.x1 += 1;
 590:Middlewares/lvgl/src/draw/lv_draw_rect.c ****     bg_coords.y1 += 1;
 591:Middlewares/lvgl/src/draw/lv_draw_rect.c ****     bg_coords.x2 -= 1;
 592:Middlewares/lvgl/src/draw/lv_draw_rect.c ****     bg_coords.y2 -= 1;
 593:Middlewares/lvgl/src/draw/lv_draw_rect.c **** 
 594:Middlewares/lvgl/src/draw/lv_draw_rect.c ****     /*Get the real radius*/
 595:Middlewares/lvgl/src/draw/lv_draw_rect.c ****     int32_t r_bg = dsc->radius;
 596:Middlewares/lvgl/src/draw/lv_draw_rect.c ****     int32_t short_side = LV_MIN(lv_area_get_width(&bg_coords), lv_area_get_height(&bg_coords));
 597:Middlewares/lvgl/src/draw/lv_draw_rect.c ****     if(r_bg > short_side >> 1) r_bg = short_side >> 1;
 598:Middlewares/lvgl/src/draw/lv_draw_rect.c **** 
 599:Middlewares/lvgl/src/draw/lv_draw_rect.c ****     int32_t r_sh = dsc->radius;
 600:Middlewares/lvgl/src/draw/lv_draw_rect.c ****     short_side = LV_MIN(lv_area_get_width(&sh_rect_area), lv_area_get_height(&sh_rect_area));
 601:Middlewares/lvgl/src/draw/lv_draw_rect.c ****     if(r_sh > short_side >> 1) r_sh = short_side >> 1;
ARM GAS  /tmp/ccUpPomB.s 			page 12


 602:Middlewares/lvgl/src/draw/lv_draw_rect.c **** 
 603:Middlewares/lvgl/src/draw/lv_draw_rect.c ****     int32_t corner_size = sw  + r_sh;
 604:Middlewares/lvgl/src/draw/lv_draw_rect.c **** 
 605:Middlewares/lvgl/src/draw/lv_draw_rect.c ****     lv_opa_t * sh_buf;
 606:Middlewares/lvgl/src/draw/lv_draw_rect.c **** 
 607:Middlewares/lvgl/src/draw/lv_draw_rect.c **** #if LV_SHADOW_CACHE_SIZE
 608:Middlewares/lvgl/src/draw/lv_draw_rect.c ****     if(sh_cache_size == corner_size && sh_cache_r == r_sh) {
 609:Middlewares/lvgl/src/draw/lv_draw_rect.c ****         /*Use the cache if available*/
 610:Middlewares/lvgl/src/draw/lv_draw_rect.c ****         sh_buf = lv_mem_buf_get(corner_size * corner_size);
 611:Middlewares/lvgl/src/draw/lv_draw_rect.c ****         lv_memcpy(sh_buf, sh_cache, corner_size * corner_size);
 612:Middlewares/lvgl/src/draw/lv_draw_rect.c ****     }
 613:Middlewares/lvgl/src/draw/lv_draw_rect.c ****     else {
 614:Middlewares/lvgl/src/draw/lv_draw_rect.c ****         /*A larger buffer is required for calculation*/
 615:Middlewares/lvgl/src/draw/lv_draw_rect.c ****         sh_buf = lv_mem_buf_get(corner_size * corner_size * sizeof(uint16_t));
 616:Middlewares/lvgl/src/draw/lv_draw_rect.c ****         shadow_draw_corner_buf(&sh_rect_area, (uint16_t *)sh_buf, dsc->shadow_width, r_sh);
 617:Middlewares/lvgl/src/draw/lv_draw_rect.c **** 
 618:Middlewares/lvgl/src/draw/lv_draw_rect.c ****         /*Cache the corner if it fits into the cache size*/
 619:Middlewares/lvgl/src/draw/lv_draw_rect.c ****         if((uint32_t)corner_size * corner_size < sizeof(sh_cache)) {
 620:Middlewares/lvgl/src/draw/lv_draw_rect.c ****             lv_memcpy(sh_cache, sh_buf, corner_size * corner_size);
 621:Middlewares/lvgl/src/draw/lv_draw_rect.c ****             sh_cache_size = corner_size;
 622:Middlewares/lvgl/src/draw/lv_draw_rect.c ****             sh_cache_r = r_sh;
 623:Middlewares/lvgl/src/draw/lv_draw_rect.c ****         }
 624:Middlewares/lvgl/src/draw/lv_draw_rect.c ****     }
 625:Middlewares/lvgl/src/draw/lv_draw_rect.c **** #else
 626:Middlewares/lvgl/src/draw/lv_draw_rect.c ****     sh_buf = lv_mem_buf_get(corner_size * corner_size * sizeof(uint16_t));
 627:Middlewares/lvgl/src/draw/lv_draw_rect.c ****     shadow_draw_corner_buf(&sh_rect_area, (uint16_t *)sh_buf, dsc->shadow_width, r_sh);
 628:Middlewares/lvgl/src/draw/lv_draw_rect.c **** #endif
 629:Middlewares/lvgl/src/draw/lv_draw_rect.c **** 
 630:Middlewares/lvgl/src/draw/lv_draw_rect.c ****     lv_coord_t h_half = sh_area.y1 + lv_area_get_height(&sh_area) / 2;
 631:Middlewares/lvgl/src/draw/lv_draw_rect.c ****     lv_coord_t w_half = sh_area.x1 + lv_area_get_width(&sh_area) / 2;
 632:Middlewares/lvgl/src/draw/lv_draw_rect.c **** 
 633:Middlewares/lvgl/src/draw/lv_draw_rect.c ****     bool simple_mode = true;
 634:Middlewares/lvgl/src/draw/lv_draw_rect.c ****     if(lv_draw_mask_get_cnt() > 0) simple_mode = false;
 635:Middlewares/lvgl/src/draw/lv_draw_rect.c ****     else if(dsc->shadow_ofs_x != 0 || dsc->shadow_ofs_y != 0) simple_mode = false;
 636:Middlewares/lvgl/src/draw/lv_draw_rect.c ****     else if(dsc->shadow_spread != 0) simple_mode = false;
 637:Middlewares/lvgl/src/draw/lv_draw_rect.c **** 
 638:Middlewares/lvgl/src/draw/lv_draw_rect.c ****     /*Create a mask*/
 639:Middlewares/lvgl/src/draw/lv_draw_rect.c ****     lv_draw_mask_res_t mask_res;
 640:Middlewares/lvgl/src/draw/lv_draw_rect.c ****     lv_opa_t * mask_buf = lv_mem_buf_get(lv_area_get_width(&sh_area));
 641:Middlewares/lvgl/src/draw/lv_draw_rect.c **** 
 642:Middlewares/lvgl/src/draw/lv_draw_rect.c ****     lv_draw_mask_radius_param_t mask_rout_param;
 643:Middlewares/lvgl/src/draw/lv_draw_rect.c ****     lv_draw_mask_radius_init(&mask_rout_param, &bg_coords, r_bg, true);
 644:Middlewares/lvgl/src/draw/lv_draw_rect.c **** 
 645:Middlewares/lvgl/src/draw/lv_draw_rect.c ****     int16_t mask_rout_id = lv_draw_mask_add(&mask_rout_param, NULL);
 646:Middlewares/lvgl/src/draw/lv_draw_rect.c **** 
 647:Middlewares/lvgl/src/draw/lv_draw_rect.c ****     lv_area_t a;
 648:Middlewares/lvgl/src/draw/lv_draw_rect.c **** 
 649:Middlewares/lvgl/src/draw/lv_draw_rect.c ****     /*Draw the top right corner*/
 650:Middlewares/lvgl/src/draw/lv_draw_rect.c ****     int32_t y;
 651:Middlewares/lvgl/src/draw/lv_draw_rect.c ****     lv_opa_t * sh_buf_tmp;
 652:Middlewares/lvgl/src/draw/lv_draw_rect.c ****     a.x2 = sh_area.x2;
 653:Middlewares/lvgl/src/draw/lv_draw_rect.c ****     a.x1 = a.x2 - corner_size + 1;
 654:Middlewares/lvgl/src/draw/lv_draw_rect.c ****     a.y1 = sh_area.y1;
 655:Middlewares/lvgl/src/draw/lv_draw_rect.c ****     a.y2 = a.y1 + corner_size - 1;
 656:Middlewares/lvgl/src/draw/lv_draw_rect.c **** 
 657:Middlewares/lvgl/src/draw/lv_draw_rect.c ****     lv_area_t ca;
 658:Middlewares/lvgl/src/draw/lv_draw_rect.c ****     bool has_com = _lv_area_intersect(&ca, &a, clip);
ARM GAS  /tmp/ccUpPomB.s 			page 13


 659:Middlewares/lvgl/src/draw/lv_draw_rect.c ****     if(has_com && _lv_area_is_in(&a, &bg_coords, r_bg) == false) {
 660:Middlewares/lvgl/src/draw/lv_draw_rect.c ****         /*Avoid overlap in the middle with large radius*/
 661:Middlewares/lvgl/src/draw/lv_draw_rect.c ****         if(ca.y2 > h_half) ca.y2 = h_half;
 662:Middlewares/lvgl/src/draw/lv_draw_rect.c ****         if(ca.x1 <= w_half) ca.x1 = w_half + 1;
 663:Middlewares/lvgl/src/draw/lv_draw_rect.c **** 
 664:Middlewares/lvgl/src/draw/lv_draw_rect.c ****         lv_coord_t h = lv_area_get_height(&ca);
 665:Middlewares/lvgl/src/draw/lv_draw_rect.c ****         lv_coord_t w = lv_area_get_width(&ca);
 666:Middlewares/lvgl/src/draw/lv_draw_rect.c ****         if(w > 0) {
 667:Middlewares/lvgl/src/draw/lv_draw_rect.c ****             sh_buf_tmp = sh_buf + (ca.x1 - a.x1);
 668:Middlewares/lvgl/src/draw/lv_draw_rect.c ****             sh_buf_tmp += corner_size * (ca.y1 - a.y1);
 669:Middlewares/lvgl/src/draw/lv_draw_rect.c **** 
 670:Middlewares/lvgl/src/draw/lv_draw_rect.c ****             lv_area_t fa;
 671:Middlewares/lvgl/src/draw/lv_draw_rect.c ****             lv_area_copy(&fa, &ca);
 672:Middlewares/lvgl/src/draw/lv_draw_rect.c ****             fa.y2 = fa.y1;
 673:Middlewares/lvgl/src/draw/lv_draw_rect.c **** 
 674:Middlewares/lvgl/src/draw/lv_draw_rect.c ****             for(y = 0; y < h; y++) {
 675:Middlewares/lvgl/src/draw/lv_draw_rect.c ****                 lv_memcpy(mask_buf, sh_buf_tmp, w);
 676:Middlewares/lvgl/src/draw/lv_draw_rect.c ****                 mask_res = lv_draw_mask_apply(mask_buf, fa.x1, fa.y1, w);
 677:Middlewares/lvgl/src/draw/lv_draw_rect.c ****                 if(mask_res == LV_DRAW_MASK_RES_FULL_COVER) mask_res = LV_DRAW_MASK_RES_CHANGED;
 678:Middlewares/lvgl/src/draw/lv_draw_rect.c **** 
 679:Middlewares/lvgl/src/draw/lv_draw_rect.c ****                 _lv_blend_fill(clip, &fa, dsc->shadow_color, mask_buf,
 680:Middlewares/lvgl/src/draw/lv_draw_rect.c ****                                mask_res, opa, dsc->blend_mode);
 681:Middlewares/lvgl/src/draw/lv_draw_rect.c ****                 fa.y1++;
 682:Middlewares/lvgl/src/draw/lv_draw_rect.c ****                 fa.y2++;
 683:Middlewares/lvgl/src/draw/lv_draw_rect.c ****                 sh_buf_tmp += corner_size;
 684:Middlewares/lvgl/src/draw/lv_draw_rect.c ****             }
 685:Middlewares/lvgl/src/draw/lv_draw_rect.c ****         }
 686:Middlewares/lvgl/src/draw/lv_draw_rect.c ****     }
 687:Middlewares/lvgl/src/draw/lv_draw_rect.c **** 
 688:Middlewares/lvgl/src/draw/lv_draw_rect.c ****     /*Draw the bottom right corner*/
 689:Middlewares/lvgl/src/draw/lv_draw_rect.c ****     a.x2 = sh_area.x2;
 690:Middlewares/lvgl/src/draw/lv_draw_rect.c ****     a.x1 = a.x2 - corner_size + 1;
 691:Middlewares/lvgl/src/draw/lv_draw_rect.c ****     a.y1 = sh_area.y2 - corner_size + 1;
 692:Middlewares/lvgl/src/draw/lv_draw_rect.c ****     a.y2 = sh_area.y2;
 693:Middlewares/lvgl/src/draw/lv_draw_rect.c **** 
 694:Middlewares/lvgl/src/draw/lv_draw_rect.c ****     has_com = _lv_area_intersect(&ca, &a, clip);
 695:Middlewares/lvgl/src/draw/lv_draw_rect.c ****     if(has_com && _lv_area_is_in(&a, &bg_coords, r_bg) == false) {
 696:Middlewares/lvgl/src/draw/lv_draw_rect.c ****         /*Avoid overlap in the middle with large radius*/
 697:Middlewares/lvgl/src/draw/lv_draw_rect.c ****         if(ca.y1 <= h_half) ca.y1 = h_half;
 698:Middlewares/lvgl/src/draw/lv_draw_rect.c ****         if(ca.x1 <= w_half) ca.x1 = w_half;
 699:Middlewares/lvgl/src/draw/lv_draw_rect.c **** 
 700:Middlewares/lvgl/src/draw/lv_draw_rect.c ****         lv_coord_t h = lv_area_get_height(&ca);
 701:Middlewares/lvgl/src/draw/lv_draw_rect.c ****         lv_coord_t w = lv_area_get_width(&ca);
 702:Middlewares/lvgl/src/draw/lv_draw_rect.c **** 
 703:Middlewares/lvgl/src/draw/lv_draw_rect.c ****         if(w > 0) {
 704:Middlewares/lvgl/src/draw/lv_draw_rect.c ****             sh_buf_tmp = sh_buf + (ca.x1 - a.x1);
 705:Middlewares/lvgl/src/draw/lv_draw_rect.c ****             sh_buf_tmp += corner_size * (a.y2 - ca.y2);
 706:Middlewares/lvgl/src/draw/lv_draw_rect.c **** 
 707:Middlewares/lvgl/src/draw/lv_draw_rect.c ****             lv_area_t fa;
 708:Middlewares/lvgl/src/draw/lv_draw_rect.c ****             lv_area_copy(&fa, &ca);
 709:Middlewares/lvgl/src/draw/lv_draw_rect.c ****             fa.y1 = fa.y2;    /*Fill from bottom to top*/
 710:Middlewares/lvgl/src/draw/lv_draw_rect.c **** 
 711:Middlewares/lvgl/src/draw/lv_draw_rect.c ****             for(y = 0; y < h; y++) {
 712:Middlewares/lvgl/src/draw/lv_draw_rect.c ****                 lv_memcpy(mask_buf, sh_buf_tmp, w);
 713:Middlewares/lvgl/src/draw/lv_draw_rect.c ****                 mask_res = lv_draw_mask_apply(mask_buf, fa.x1, fa.y1, w);
 714:Middlewares/lvgl/src/draw/lv_draw_rect.c ****                 if(mask_res == LV_DRAW_MASK_RES_FULL_COVER) mask_res = LV_DRAW_MASK_RES_CHANGED;
 715:Middlewares/lvgl/src/draw/lv_draw_rect.c **** 
ARM GAS  /tmp/ccUpPomB.s 			page 14


 716:Middlewares/lvgl/src/draw/lv_draw_rect.c ****                 _lv_blend_fill(clip, &fa, dsc->shadow_color, mask_buf,
 717:Middlewares/lvgl/src/draw/lv_draw_rect.c ****                                mask_res, opa, dsc->blend_mode);
 718:Middlewares/lvgl/src/draw/lv_draw_rect.c ****                 fa.y1--;
 719:Middlewares/lvgl/src/draw/lv_draw_rect.c ****                 fa.y2--;
 720:Middlewares/lvgl/src/draw/lv_draw_rect.c ****                 sh_buf_tmp += corner_size;
 721:Middlewares/lvgl/src/draw/lv_draw_rect.c ****             }
 722:Middlewares/lvgl/src/draw/lv_draw_rect.c ****         }
 723:Middlewares/lvgl/src/draw/lv_draw_rect.c ****     }
 724:Middlewares/lvgl/src/draw/lv_draw_rect.c **** 
 725:Middlewares/lvgl/src/draw/lv_draw_rect.c ****     /*Fill the right side*/
 726:Middlewares/lvgl/src/draw/lv_draw_rect.c ****     a.x2 = sh_area.x2;
 727:Middlewares/lvgl/src/draw/lv_draw_rect.c ****     a.x1 = a.x2 - corner_size + 1;
 728:Middlewares/lvgl/src/draw/lv_draw_rect.c ****     a.y1 = sh_area.y1 + corner_size;
 729:Middlewares/lvgl/src/draw/lv_draw_rect.c ****     a.y2 = sh_area.y2 - corner_size;
 730:Middlewares/lvgl/src/draw/lv_draw_rect.c **** 
 731:Middlewares/lvgl/src/draw/lv_draw_rect.c ****     has_com = _lv_area_intersect(&ca, &a, clip);
 732:Middlewares/lvgl/src/draw/lv_draw_rect.c ****     if(has_com && _lv_area_is_in(&a, &bg_coords, r_bg) == false) {
 733:Middlewares/lvgl/src/draw/lv_draw_rect.c ****         /*Avoid overlap in the middle with large radius*/
 734:Middlewares/lvgl/src/draw/lv_draw_rect.c ****         if(ca.x1 <= w_half) ca.x1 = w_half + 1;
 735:Middlewares/lvgl/src/draw/lv_draw_rect.c **** 
 736:Middlewares/lvgl/src/draw/lv_draw_rect.c ****         if(simple_mode) ca.x1 = LV_MAX(ca.x1, coords->x2);
 737:Middlewares/lvgl/src/draw/lv_draw_rect.c **** 
 738:Middlewares/lvgl/src/draw/lv_draw_rect.c ****         /*Draw horizontal lines*/
 739:Middlewares/lvgl/src/draw/lv_draw_rect.c ****         lv_coord_t w = lv_area_get_width(&ca);
 740:Middlewares/lvgl/src/draw/lv_draw_rect.c ****         if(w > 0) {
 741:Middlewares/lvgl/src/draw/lv_draw_rect.c ****             lv_coord_t h = lv_area_get_height(&ca);
 742:Middlewares/lvgl/src/draw/lv_draw_rect.c **** 
 743:Middlewares/lvgl/src/draw/lv_draw_rect.c ****             /*The last line of the shadow is repeated on the side*/
 744:Middlewares/lvgl/src/draw/lv_draw_rect.c ****             sh_buf_tmp = sh_buf + corner_size * (corner_size - 1);
 745:Middlewares/lvgl/src/draw/lv_draw_rect.c ****             sh_buf_tmp += ca.x1 - a.x1;
 746:Middlewares/lvgl/src/draw/lv_draw_rect.c **** 
 747:Middlewares/lvgl/src/draw/lv_draw_rect.c ****             lv_area_t fa;
 748:Middlewares/lvgl/src/draw/lv_draw_rect.c ****             lv_area_copy(&fa, &ca);
 749:Middlewares/lvgl/src/draw/lv_draw_rect.c ****             fa.y2 = fa.y1;
 750:Middlewares/lvgl/src/draw/lv_draw_rect.c ****             mask_res = LV_DRAW_MASK_RES_FULL_COVER;
 751:Middlewares/lvgl/src/draw/lv_draw_rect.c ****             for(y = 0; y < h; y++) {
 752:Middlewares/lvgl/src/draw/lv_draw_rect.c ****                 lv_memcpy(mask_buf, sh_buf_tmp, w);
 753:Middlewares/lvgl/src/draw/lv_draw_rect.c **** 
 754:Middlewares/lvgl/src/draw/lv_draw_rect.c ****                 if(simple_mode) {
 755:Middlewares/lvgl/src/draw/lv_draw_rect.c ****                     mask_res = LV_DRAW_MASK_RES_CHANGED;
 756:Middlewares/lvgl/src/draw/lv_draw_rect.c ****                 }
 757:Middlewares/lvgl/src/draw/lv_draw_rect.c ****                 else {
 758:Middlewares/lvgl/src/draw/lv_draw_rect.c ****                     mask_res = lv_draw_mask_apply(mask_buf, fa.x1, fa.y1, w);
 759:Middlewares/lvgl/src/draw/lv_draw_rect.c ****                     if(mask_res == LV_DRAW_MASK_RES_FULL_COVER) mask_res = LV_DRAW_MASK_RES_CHANGED
 760:Middlewares/lvgl/src/draw/lv_draw_rect.c ****                 }
 761:Middlewares/lvgl/src/draw/lv_draw_rect.c **** 
 762:Middlewares/lvgl/src/draw/lv_draw_rect.c ****                 _lv_blend_fill(clip, &fa,
 763:Middlewares/lvgl/src/draw/lv_draw_rect.c ****                                dsc->shadow_color, mask_buf, mask_res, dsc->shadow_opa, dsc->blend_m
 764:Middlewares/lvgl/src/draw/lv_draw_rect.c ****                 fa.y1++;
 765:Middlewares/lvgl/src/draw/lv_draw_rect.c ****                 fa.y2++;
 766:Middlewares/lvgl/src/draw/lv_draw_rect.c ****             }
 767:Middlewares/lvgl/src/draw/lv_draw_rect.c ****         }
 768:Middlewares/lvgl/src/draw/lv_draw_rect.c ****     }
 769:Middlewares/lvgl/src/draw/lv_draw_rect.c **** 
 770:Middlewares/lvgl/src/draw/lv_draw_rect.c ****     /*Invert the shadow corner buffer and draw the corners on the left*/
 771:Middlewares/lvgl/src/draw/lv_draw_rect.c ****     sh_buf_tmp = sh_buf ;
 772:Middlewares/lvgl/src/draw/lv_draw_rect.c ****     for(y = 0; y < corner_size; y++) {
ARM GAS  /tmp/ccUpPomB.s 			page 15


 773:Middlewares/lvgl/src/draw/lv_draw_rect.c ****         int32_t x;
 774:Middlewares/lvgl/src/draw/lv_draw_rect.c ****         for(x = 0; x < corner_size / 2; x++) {
 775:Middlewares/lvgl/src/draw/lv_draw_rect.c ****             lv_opa_t tmp = sh_buf_tmp[x];
 776:Middlewares/lvgl/src/draw/lv_draw_rect.c ****             sh_buf_tmp[x] = sh_buf_tmp[corner_size - x - 1];
 777:Middlewares/lvgl/src/draw/lv_draw_rect.c ****             sh_buf_tmp[corner_size - x - 1] = tmp;
 778:Middlewares/lvgl/src/draw/lv_draw_rect.c ****         }
 779:Middlewares/lvgl/src/draw/lv_draw_rect.c ****         sh_buf_tmp += corner_size;
 780:Middlewares/lvgl/src/draw/lv_draw_rect.c ****     }
 781:Middlewares/lvgl/src/draw/lv_draw_rect.c **** 
 782:Middlewares/lvgl/src/draw/lv_draw_rect.c ****     /*Draw the top left corner*/
 783:Middlewares/lvgl/src/draw/lv_draw_rect.c ****     a.x1 = sh_area.x1;
 784:Middlewares/lvgl/src/draw/lv_draw_rect.c ****     a.x2 = a.x1 + corner_size - 1;
 785:Middlewares/lvgl/src/draw/lv_draw_rect.c ****     a.y1 = sh_area.y1;
 786:Middlewares/lvgl/src/draw/lv_draw_rect.c ****     a.y2 = a.y1 + corner_size - 1;
 787:Middlewares/lvgl/src/draw/lv_draw_rect.c **** 
 788:Middlewares/lvgl/src/draw/lv_draw_rect.c ****     has_com = _lv_area_intersect(&ca, &a, clip);
 789:Middlewares/lvgl/src/draw/lv_draw_rect.c ****     if(has_com && _lv_area_is_in(&a, &bg_coords, r_bg) == false) {
 790:Middlewares/lvgl/src/draw/lv_draw_rect.c ****         /*Avoid overlap in the middle with large radius*/
 791:Middlewares/lvgl/src/draw/lv_draw_rect.c ****         if(ca.y2 > h_half) ca.y2 = h_half;
 792:Middlewares/lvgl/src/draw/lv_draw_rect.c ****         if(ca.x2 > w_half) ca.x2 = w_half;
 793:Middlewares/lvgl/src/draw/lv_draw_rect.c **** 
 794:Middlewares/lvgl/src/draw/lv_draw_rect.c ****         lv_coord_t h = lv_area_get_height(&ca);
 795:Middlewares/lvgl/src/draw/lv_draw_rect.c ****         lv_coord_t w = lv_area_get_width(&ca);
 796:Middlewares/lvgl/src/draw/lv_draw_rect.c ****         if(w > 0) {
 797:Middlewares/lvgl/src/draw/lv_draw_rect.c ****             sh_buf_tmp = sh_buf + (ca.x1 - a.x1);
 798:Middlewares/lvgl/src/draw/lv_draw_rect.c ****             sh_buf_tmp += corner_size * (ca.y1 - a.y1);
 799:Middlewares/lvgl/src/draw/lv_draw_rect.c **** 
 800:Middlewares/lvgl/src/draw/lv_draw_rect.c ****             lv_area_t fa;
 801:Middlewares/lvgl/src/draw/lv_draw_rect.c ****             lv_area_copy(&fa, &ca);
 802:Middlewares/lvgl/src/draw/lv_draw_rect.c ****             fa.y2 = fa.y1;
 803:Middlewares/lvgl/src/draw/lv_draw_rect.c **** 
 804:Middlewares/lvgl/src/draw/lv_draw_rect.c ****             for(y = 0; y < h; y++) {
 805:Middlewares/lvgl/src/draw/lv_draw_rect.c ****                 lv_memcpy(mask_buf, sh_buf_tmp, w);
 806:Middlewares/lvgl/src/draw/lv_draw_rect.c ****                 mask_res = lv_draw_mask_apply(mask_buf, fa.x1, fa.y1, w);
 807:Middlewares/lvgl/src/draw/lv_draw_rect.c ****                 if(mask_res == LV_DRAW_MASK_RES_FULL_COVER) mask_res = LV_DRAW_MASK_RES_CHANGED;
 808:Middlewares/lvgl/src/draw/lv_draw_rect.c **** 
 809:Middlewares/lvgl/src/draw/lv_draw_rect.c ****                 _lv_blend_fill(clip, &fa, dsc->shadow_color, mask_buf,
 810:Middlewares/lvgl/src/draw/lv_draw_rect.c ****                                mask_res, opa, dsc->blend_mode);
 811:Middlewares/lvgl/src/draw/lv_draw_rect.c ****                 fa.y1++;
 812:Middlewares/lvgl/src/draw/lv_draw_rect.c ****                 fa.y2++;
 813:Middlewares/lvgl/src/draw/lv_draw_rect.c ****                 sh_buf_tmp += corner_size;
 814:Middlewares/lvgl/src/draw/lv_draw_rect.c ****             }
 815:Middlewares/lvgl/src/draw/lv_draw_rect.c ****         }
 816:Middlewares/lvgl/src/draw/lv_draw_rect.c ****     }
 817:Middlewares/lvgl/src/draw/lv_draw_rect.c **** 
 818:Middlewares/lvgl/src/draw/lv_draw_rect.c ****     /*Draw the bottom left corner*/
 819:Middlewares/lvgl/src/draw/lv_draw_rect.c ****     a.x1 = sh_area.x1;
 820:Middlewares/lvgl/src/draw/lv_draw_rect.c ****     a.x2 = a.x1 + corner_size - 1;
 821:Middlewares/lvgl/src/draw/lv_draw_rect.c ****     a.y1 = sh_area.y2 - corner_size + 1;
 822:Middlewares/lvgl/src/draw/lv_draw_rect.c ****     a.y2 = sh_area.y2;
 823:Middlewares/lvgl/src/draw/lv_draw_rect.c **** 
 824:Middlewares/lvgl/src/draw/lv_draw_rect.c ****     has_com = _lv_area_intersect(&ca, &a, clip);
 825:Middlewares/lvgl/src/draw/lv_draw_rect.c ****     if(has_com && _lv_area_is_in(&a, &bg_coords, r_bg) == false) {
 826:Middlewares/lvgl/src/draw/lv_draw_rect.c ****         /*Avoid overlap in the middle with large radius*/
 827:Middlewares/lvgl/src/draw/lv_draw_rect.c ****         if(ca.y1 <= h_half) ca.y1 = h_half + 1;
 828:Middlewares/lvgl/src/draw/lv_draw_rect.c ****         if(ca.x2 > w_half) ca.x2 = w_half;
 829:Middlewares/lvgl/src/draw/lv_draw_rect.c ****         lv_coord_t h = lv_area_get_height(&ca);
ARM GAS  /tmp/ccUpPomB.s 			page 16


 830:Middlewares/lvgl/src/draw/lv_draw_rect.c ****         lv_coord_t w = lv_area_get_width(&ca);
 831:Middlewares/lvgl/src/draw/lv_draw_rect.c **** 
 832:Middlewares/lvgl/src/draw/lv_draw_rect.c ****         if(w > 0) {
 833:Middlewares/lvgl/src/draw/lv_draw_rect.c ****             sh_buf_tmp = sh_buf + (ca.x1 - a.x1);
 834:Middlewares/lvgl/src/draw/lv_draw_rect.c ****             sh_buf_tmp += corner_size * (a.y2 - ca.y2);
 835:Middlewares/lvgl/src/draw/lv_draw_rect.c **** 
 836:Middlewares/lvgl/src/draw/lv_draw_rect.c ****             lv_area_t fa;
 837:Middlewares/lvgl/src/draw/lv_draw_rect.c ****             lv_area_copy(&fa, &ca);
 838:Middlewares/lvgl/src/draw/lv_draw_rect.c ****             fa.y1 = fa.y2;    /*Fill from bottom to top*/
 839:Middlewares/lvgl/src/draw/lv_draw_rect.c **** 
 840:Middlewares/lvgl/src/draw/lv_draw_rect.c ****             for(y = 0; y < h; y++) {
 841:Middlewares/lvgl/src/draw/lv_draw_rect.c ****                 lv_memcpy(mask_buf, sh_buf_tmp, w);
 842:Middlewares/lvgl/src/draw/lv_draw_rect.c ****                 mask_res = lv_draw_mask_apply(mask_buf, fa.x1, fa.y1, w);
 843:Middlewares/lvgl/src/draw/lv_draw_rect.c ****                 if(mask_res == LV_DRAW_MASK_RES_FULL_COVER) mask_res = LV_DRAW_MASK_RES_CHANGED;
 844:Middlewares/lvgl/src/draw/lv_draw_rect.c **** 
 845:Middlewares/lvgl/src/draw/lv_draw_rect.c ****                 _lv_blend_fill(clip, &fa, dsc->shadow_color, mask_buf,
 846:Middlewares/lvgl/src/draw/lv_draw_rect.c ****                                mask_res, opa, dsc->blend_mode);
 847:Middlewares/lvgl/src/draw/lv_draw_rect.c ****                 fa.y1--;
 848:Middlewares/lvgl/src/draw/lv_draw_rect.c ****                 fa.y2--;
 849:Middlewares/lvgl/src/draw/lv_draw_rect.c ****                 sh_buf_tmp += corner_size;
 850:Middlewares/lvgl/src/draw/lv_draw_rect.c ****             }
 851:Middlewares/lvgl/src/draw/lv_draw_rect.c ****         }
 852:Middlewares/lvgl/src/draw/lv_draw_rect.c ****     }
 853:Middlewares/lvgl/src/draw/lv_draw_rect.c **** 
 854:Middlewares/lvgl/src/draw/lv_draw_rect.c ****     /*Fill the left side*/
 855:Middlewares/lvgl/src/draw/lv_draw_rect.c ****     a.x1 = sh_area.x1;
 856:Middlewares/lvgl/src/draw/lv_draw_rect.c ****     a.x2 = a.x1 + corner_size - 1;
 857:Middlewares/lvgl/src/draw/lv_draw_rect.c ****     a.y1 = sh_area.y1 + corner_size;
 858:Middlewares/lvgl/src/draw/lv_draw_rect.c ****     a.y2 = sh_area.y2 - corner_size;
 859:Middlewares/lvgl/src/draw/lv_draw_rect.c **** 
 860:Middlewares/lvgl/src/draw/lv_draw_rect.c ****     has_com = _lv_area_intersect(&ca, &a, clip);
 861:Middlewares/lvgl/src/draw/lv_draw_rect.c ****     if(has_com && _lv_area_is_in(&a, &bg_coords, r_bg) == false) {
 862:Middlewares/lvgl/src/draw/lv_draw_rect.c ****         /*Avoid overlap in the middle with large radius*/
 863:Middlewares/lvgl/src/draw/lv_draw_rect.c ****         if(ca.x2 > w_half) ca.x2 = w_half;
 864:Middlewares/lvgl/src/draw/lv_draw_rect.c **** 
 865:Middlewares/lvgl/src/draw/lv_draw_rect.c ****         if(simple_mode) ca.x2 = LV_MIN(coords->x1, ca.x2);
 866:Middlewares/lvgl/src/draw/lv_draw_rect.c ****         /*Draw vertical lines*/
 867:Middlewares/lvgl/src/draw/lv_draw_rect.c ****         lv_coord_t w = lv_area_get_width(&ca);
 868:Middlewares/lvgl/src/draw/lv_draw_rect.c ****         if(w > 0) {
 869:Middlewares/lvgl/src/draw/lv_draw_rect.c ****             lv_coord_t h = lv_area_get_height(&ca);
 870:Middlewares/lvgl/src/draw/lv_draw_rect.c ****             /*The last line of the shadow is repeated on the side*/
 871:Middlewares/lvgl/src/draw/lv_draw_rect.c ****             sh_buf_tmp = sh_buf + corner_size * (corner_size - 1);
 872:Middlewares/lvgl/src/draw/lv_draw_rect.c ****             sh_buf_tmp += ca.x1 - a.x1;
 873:Middlewares/lvgl/src/draw/lv_draw_rect.c **** 
 874:Middlewares/lvgl/src/draw/lv_draw_rect.c ****             lv_area_t fa;
 875:Middlewares/lvgl/src/draw/lv_draw_rect.c ****             lv_area_copy(&fa, &ca);
 876:Middlewares/lvgl/src/draw/lv_draw_rect.c ****             fa.y2 = fa.y1;
 877:Middlewares/lvgl/src/draw/lv_draw_rect.c ****             for(y = 0; y < h; y++) {
 878:Middlewares/lvgl/src/draw/lv_draw_rect.c ****                 lv_memcpy(mask_buf, sh_buf_tmp, w);
 879:Middlewares/lvgl/src/draw/lv_draw_rect.c ****                 if(simple_mode) {
 880:Middlewares/lvgl/src/draw/lv_draw_rect.c ****                     mask_res = LV_DRAW_MASK_RES_CHANGED;
 881:Middlewares/lvgl/src/draw/lv_draw_rect.c ****                 }
 882:Middlewares/lvgl/src/draw/lv_draw_rect.c ****                 else {
 883:Middlewares/lvgl/src/draw/lv_draw_rect.c ****                     mask_res = lv_draw_mask_apply(mask_buf, fa.x1, fa.y1, w);
 884:Middlewares/lvgl/src/draw/lv_draw_rect.c ****                     if(mask_res == LV_DRAW_MASK_RES_FULL_COVER) mask_res = LV_DRAW_MASK_RES_CHANGED
 885:Middlewares/lvgl/src/draw/lv_draw_rect.c ****                 }
 886:Middlewares/lvgl/src/draw/lv_draw_rect.c **** 
ARM GAS  /tmp/ccUpPomB.s 			page 17


 887:Middlewares/lvgl/src/draw/lv_draw_rect.c ****                 _lv_blend_fill(clip, &fa,
 888:Middlewares/lvgl/src/draw/lv_draw_rect.c ****                                dsc->shadow_color, mask_buf, mask_res, dsc->shadow_opa, dsc->blend_m
 889:Middlewares/lvgl/src/draw/lv_draw_rect.c ****                 fa.y1++;
 890:Middlewares/lvgl/src/draw/lv_draw_rect.c ****                 fa.y2++;
 891:Middlewares/lvgl/src/draw/lv_draw_rect.c ****             }
 892:Middlewares/lvgl/src/draw/lv_draw_rect.c ****         }
 893:Middlewares/lvgl/src/draw/lv_draw_rect.c ****     }
 894:Middlewares/lvgl/src/draw/lv_draw_rect.c **** 
 895:Middlewares/lvgl/src/draw/lv_draw_rect.c ****     /*Fill the top side*/
 896:Middlewares/lvgl/src/draw/lv_draw_rect.c ****     a.x1 = sh_area.x1 + corner_size;
 897:Middlewares/lvgl/src/draw/lv_draw_rect.c ****     a.x2 = sh_area.x2 - corner_size;
 898:Middlewares/lvgl/src/draw/lv_draw_rect.c ****     a.y1 = sh_area.y1;
 899:Middlewares/lvgl/src/draw/lv_draw_rect.c ****     a.y2 = sh_area.y1 + corner_size - 1;
 900:Middlewares/lvgl/src/draw/lv_draw_rect.c **** 
 901:Middlewares/lvgl/src/draw/lv_draw_rect.c ****     has_com = _lv_area_intersect(&ca, &a, clip);
 902:Middlewares/lvgl/src/draw/lv_draw_rect.c ****     if(has_com && _lv_area_is_in(&a, &bg_coords, r_bg) == false) {
 903:Middlewares/lvgl/src/draw/lv_draw_rect.c ****         /*Avoid overlap in the middle with large radius*/
 904:Middlewares/lvgl/src/draw/lv_draw_rect.c ****         if(ca.y2 > h_half) ca.y2 = h_half;
 905:Middlewares/lvgl/src/draw/lv_draw_rect.c **** 
 906:Middlewares/lvgl/src/draw/lv_draw_rect.c ****         if(simple_mode) ca.y2 = LV_MIN(ca.y2, coords->y1);
 907:Middlewares/lvgl/src/draw/lv_draw_rect.c **** 
 908:Middlewares/lvgl/src/draw/lv_draw_rect.c ****         /*Draw horizontal lines*/
 909:Middlewares/lvgl/src/draw/lv_draw_rect.c ****         lv_coord_t w = lv_area_get_width(&ca);
 910:Middlewares/lvgl/src/draw/lv_draw_rect.c ****         lv_coord_t h = lv_area_get_height(&ca);
 911:Middlewares/lvgl/src/draw/lv_draw_rect.c ****         sh_buf_tmp = sh_buf + corner_size - 1;
 912:Middlewares/lvgl/src/draw/lv_draw_rect.c ****         sh_buf_tmp += corner_size * (ca.y1 - a.y1);
 913:Middlewares/lvgl/src/draw/lv_draw_rect.c **** 
 914:Middlewares/lvgl/src/draw/lv_draw_rect.c ****         lv_area_t fa;
 915:Middlewares/lvgl/src/draw/lv_draw_rect.c ****         lv_area_copy(&fa, &ca);
 916:Middlewares/lvgl/src/draw/lv_draw_rect.c ****         fa.y2 = fa.y1;
 917:Middlewares/lvgl/src/draw/lv_draw_rect.c ****         mask_res = LV_DRAW_MASK_RES_FULL_COVER;
 918:Middlewares/lvgl/src/draw/lv_draw_rect.c ****         for(y = 0; y < h; y++) {
 919:Middlewares/lvgl/src/draw/lv_draw_rect.c ****             lv_opa_t opa_tmp = sh_buf_tmp[0];
 920:Middlewares/lvgl/src/draw/lv_draw_rect.c ****             if(opa_tmp != LV_OPA_COVER || opa != LV_OPA_COVER) opa_tmp = (opa * opa_tmp) >> 8;
 921:Middlewares/lvgl/src/draw/lv_draw_rect.c **** 
 922:Middlewares/lvgl/src/draw/lv_draw_rect.c ****             lv_memset(mask_buf, opa_tmp, w);
 923:Middlewares/lvgl/src/draw/lv_draw_rect.c **** 
 924:Middlewares/lvgl/src/draw/lv_draw_rect.c ****             if(simple_mode) {
 925:Middlewares/lvgl/src/draw/lv_draw_rect.c ****                 mask_res = LV_DRAW_MASK_RES_CHANGED;
 926:Middlewares/lvgl/src/draw/lv_draw_rect.c ****             }
 927:Middlewares/lvgl/src/draw/lv_draw_rect.c ****             else {
 928:Middlewares/lvgl/src/draw/lv_draw_rect.c ****                 mask_res = lv_draw_mask_apply(mask_buf, fa.x1, fa.y1, w);
 929:Middlewares/lvgl/src/draw/lv_draw_rect.c ****                 if(mask_res == LV_DRAW_MASK_RES_FULL_COVER) mask_res = LV_DRAW_MASK_RES_CHANGED;
 930:Middlewares/lvgl/src/draw/lv_draw_rect.c ****             }
 931:Middlewares/lvgl/src/draw/lv_draw_rect.c **** 
 932:Middlewares/lvgl/src/draw/lv_draw_rect.c ****             _lv_blend_fill(clip, &fa, dsc->shadow_color, mask_buf,
 933:Middlewares/lvgl/src/draw/lv_draw_rect.c ****                            mask_res, LV_OPA_COVER, dsc->blend_mode);
 934:Middlewares/lvgl/src/draw/lv_draw_rect.c ****             fa.y1++;
 935:Middlewares/lvgl/src/draw/lv_draw_rect.c ****             fa.y2++;
 936:Middlewares/lvgl/src/draw/lv_draw_rect.c ****             sh_buf_tmp += corner_size;
 937:Middlewares/lvgl/src/draw/lv_draw_rect.c ****         }
 938:Middlewares/lvgl/src/draw/lv_draw_rect.c ****     }
 939:Middlewares/lvgl/src/draw/lv_draw_rect.c **** 
 940:Middlewares/lvgl/src/draw/lv_draw_rect.c ****     /*Fill the bottom side*/
 941:Middlewares/lvgl/src/draw/lv_draw_rect.c ****     a.x1 = sh_area.x1 + corner_size;
 942:Middlewares/lvgl/src/draw/lv_draw_rect.c ****     a.x2 = sh_area.x2 - corner_size;
 943:Middlewares/lvgl/src/draw/lv_draw_rect.c ****     a.y1 = sh_area.y2 - corner_size + 1;
ARM GAS  /tmp/ccUpPomB.s 			page 18


 944:Middlewares/lvgl/src/draw/lv_draw_rect.c ****     a.y2 = sh_area.y2;
 945:Middlewares/lvgl/src/draw/lv_draw_rect.c **** 
 946:Middlewares/lvgl/src/draw/lv_draw_rect.c ****     has_com = _lv_area_intersect(&ca, &a, clip);
 947:Middlewares/lvgl/src/draw/lv_draw_rect.c ****     if(has_com && _lv_area_is_in(&a, &bg_coords, r_bg) == false) {
 948:Middlewares/lvgl/src/draw/lv_draw_rect.c ****         /*Avoid overlap in the middle with large radius*/
 949:Middlewares/lvgl/src/draw/lv_draw_rect.c ****         if(ca.y1 <= h_half) ca.y1 = h_half + 1;
 950:Middlewares/lvgl/src/draw/lv_draw_rect.c **** 
 951:Middlewares/lvgl/src/draw/lv_draw_rect.c ****         if(simple_mode) ca.y1 = LV_MAX(ca.y1, coords->y2);
 952:Middlewares/lvgl/src/draw/lv_draw_rect.c **** 
 953:Middlewares/lvgl/src/draw/lv_draw_rect.c ****         /*Draw horizontal lines*/
 954:Middlewares/lvgl/src/draw/lv_draw_rect.c ****         lv_coord_t w = lv_area_get_width(&ca);
 955:Middlewares/lvgl/src/draw/lv_draw_rect.c ****         lv_coord_t h = lv_area_get_height(&ca);
 956:Middlewares/lvgl/src/draw/lv_draw_rect.c ****         sh_buf_tmp = sh_buf + corner_size - 1;
 957:Middlewares/lvgl/src/draw/lv_draw_rect.c ****         sh_buf_tmp += corner_size * (a.y2 - ca.y2);
 958:Middlewares/lvgl/src/draw/lv_draw_rect.c **** 
 959:Middlewares/lvgl/src/draw/lv_draw_rect.c ****         lv_area_t fa;
 960:Middlewares/lvgl/src/draw/lv_draw_rect.c ****         lv_area_copy(&fa, &ca);
 961:Middlewares/lvgl/src/draw/lv_draw_rect.c ****         fa.y1 = fa.y2;
 962:Middlewares/lvgl/src/draw/lv_draw_rect.c ****         for(y = 0; y < h; y++) {
 963:Middlewares/lvgl/src/draw/lv_draw_rect.c ****             lv_opa_t opa_tmp = sh_buf_tmp[0];
 964:Middlewares/lvgl/src/draw/lv_draw_rect.c ****             if(opa_tmp != LV_OPA_COVER || opa != LV_OPA_COVER) opa_tmp = (opa * opa_tmp) >> 8;
 965:Middlewares/lvgl/src/draw/lv_draw_rect.c **** 
 966:Middlewares/lvgl/src/draw/lv_draw_rect.c ****             lv_memset(mask_buf, opa_tmp, w);
 967:Middlewares/lvgl/src/draw/lv_draw_rect.c ****             if(simple_mode) {
 968:Middlewares/lvgl/src/draw/lv_draw_rect.c ****                 mask_res = LV_DRAW_MASK_RES_CHANGED;
 969:Middlewares/lvgl/src/draw/lv_draw_rect.c ****             }
 970:Middlewares/lvgl/src/draw/lv_draw_rect.c ****             else {
 971:Middlewares/lvgl/src/draw/lv_draw_rect.c ****                 mask_res = lv_draw_mask_apply(mask_buf, fa.x1, fa.y1, w);
 972:Middlewares/lvgl/src/draw/lv_draw_rect.c ****                 if(mask_res == LV_DRAW_MASK_RES_FULL_COVER) mask_res = LV_DRAW_MASK_RES_CHANGED;
 973:Middlewares/lvgl/src/draw/lv_draw_rect.c ****             }
 974:Middlewares/lvgl/src/draw/lv_draw_rect.c **** 
 975:Middlewares/lvgl/src/draw/lv_draw_rect.c ****             _lv_blend_fill(clip, &fa, dsc->shadow_color, mask_buf,
 976:Middlewares/lvgl/src/draw/lv_draw_rect.c ****                            mask_res, LV_OPA_COVER, dsc->blend_mode);
 977:Middlewares/lvgl/src/draw/lv_draw_rect.c ****             fa.y1--;
 978:Middlewares/lvgl/src/draw/lv_draw_rect.c ****             fa.y2--;
 979:Middlewares/lvgl/src/draw/lv_draw_rect.c ****             sh_buf_tmp += corner_size;
 980:Middlewares/lvgl/src/draw/lv_draw_rect.c ****         }
 981:Middlewares/lvgl/src/draw/lv_draw_rect.c ****     }
 982:Middlewares/lvgl/src/draw/lv_draw_rect.c **** 
 983:Middlewares/lvgl/src/draw/lv_draw_rect.c ****     /*Draw the middle area*/
 984:Middlewares/lvgl/src/draw/lv_draw_rect.c ****     a.x1 = sh_area.x1 + corner_size;
 985:Middlewares/lvgl/src/draw/lv_draw_rect.c ****     a.x2 = sh_area.x2 - corner_size;
 986:Middlewares/lvgl/src/draw/lv_draw_rect.c ****     a.y1 = sh_area.y1 + corner_size;
 987:Middlewares/lvgl/src/draw/lv_draw_rect.c ****     a.y2 = sh_area.y2 - corner_size;
 988:Middlewares/lvgl/src/draw/lv_draw_rect.c **** 
 989:Middlewares/lvgl/src/draw/lv_draw_rect.c ****     has_com = _lv_area_intersect(&ca, &a, clip);
 990:Middlewares/lvgl/src/draw/lv_draw_rect.c ****     if(has_com && simple_mode == false &&  _lv_area_is_in(&a, &bg_coords, r_bg) == false) {
 991:Middlewares/lvgl/src/draw/lv_draw_rect.c ****         /*Draw horizontal lines*/
 992:Middlewares/lvgl/src/draw/lv_draw_rect.c ****         lv_coord_t w = lv_area_get_width(&ca);
 993:Middlewares/lvgl/src/draw/lv_draw_rect.c ****         lv_coord_t h = lv_area_get_height(&ca);
 994:Middlewares/lvgl/src/draw/lv_draw_rect.c **** 
 995:Middlewares/lvgl/src/draw/lv_draw_rect.c ****         lv_area_t fa;
 996:Middlewares/lvgl/src/draw/lv_draw_rect.c ****         lv_area_copy(&fa, &ca);
 997:Middlewares/lvgl/src/draw/lv_draw_rect.c ****         fa.y2 = fa.y1;
 998:Middlewares/lvgl/src/draw/lv_draw_rect.c ****         for(y = 0; y < h; y++) {
 999:Middlewares/lvgl/src/draw/lv_draw_rect.c ****             lv_memset(mask_buf, dsc->shadow_opa, w);
1000:Middlewares/lvgl/src/draw/lv_draw_rect.c ****             mask_res = lv_draw_mask_apply(mask_buf, fa.x1, fa.y1, w);
ARM GAS  /tmp/ccUpPomB.s 			page 19


1001:Middlewares/lvgl/src/draw/lv_draw_rect.c ****             if(mask_res == LV_DRAW_MASK_RES_FULL_COVER) mask_res = LV_DRAW_MASK_RES_CHANGED;
1002:Middlewares/lvgl/src/draw/lv_draw_rect.c **** 
1003:Middlewares/lvgl/src/draw/lv_draw_rect.c ****             _lv_blend_fill(clip, &fa, dsc->shadow_color, mask_buf,
1004:Middlewares/lvgl/src/draw/lv_draw_rect.c ****                            mask_res, LV_OPA_COVER, dsc->blend_mode);
1005:Middlewares/lvgl/src/draw/lv_draw_rect.c ****             fa.y1++;
1006:Middlewares/lvgl/src/draw/lv_draw_rect.c ****             fa.y2++;
1007:Middlewares/lvgl/src/draw/lv_draw_rect.c ****         }
1008:Middlewares/lvgl/src/draw/lv_draw_rect.c ****     }
1009:Middlewares/lvgl/src/draw/lv_draw_rect.c **** 
1010:Middlewares/lvgl/src/draw/lv_draw_rect.c ****     lv_draw_mask_remove_id(mask_rout_id);
1011:Middlewares/lvgl/src/draw/lv_draw_rect.c ****     lv_mem_buf_release(mask_buf);
1012:Middlewares/lvgl/src/draw/lv_draw_rect.c ****     lv_mem_buf_release(sh_buf);
1013:Middlewares/lvgl/src/draw/lv_draw_rect.c **** }
1014:Middlewares/lvgl/src/draw/lv_draw_rect.c **** 
1015:Middlewares/lvgl/src/draw/lv_draw_rect.c **** /**
1016:Middlewares/lvgl/src/draw/lv_draw_rect.c ****  * Calculate a blurred corner
1017:Middlewares/lvgl/src/draw/lv_draw_rect.c ****  * @param coords Coordinates of the shadow
1018:Middlewares/lvgl/src/draw/lv_draw_rect.c ****  * @param sh_buf a buffer to store the result. It's size should be `(sw + r)^2 * 2`
1019:Middlewares/lvgl/src/draw/lv_draw_rect.c ****  * @param sw shadow width
1020:Middlewares/lvgl/src/draw/lv_draw_rect.c ****  * @param r radius
1021:Middlewares/lvgl/src/draw/lv_draw_rect.c ****  */
1022:Middlewares/lvgl/src/draw/lv_draw_rect.c **** LV_ATTRIBUTE_FAST_MEM static void shadow_draw_corner_buf(const lv_area_t * coords, uint16_t * sh_bu
1023:Middlewares/lvgl/src/draw/lv_draw_rect.c ****                                                          lv_coord_t r)
1024:Middlewares/lvgl/src/draw/lv_draw_rect.c **** {
1025:Middlewares/lvgl/src/draw/lv_draw_rect.c ****     int32_t sw_ori = sw;
1026:Middlewares/lvgl/src/draw/lv_draw_rect.c ****     int32_t size = sw_ori  + r;
1027:Middlewares/lvgl/src/draw/lv_draw_rect.c **** 
1028:Middlewares/lvgl/src/draw/lv_draw_rect.c ****     lv_area_t sh_area;
1029:Middlewares/lvgl/src/draw/lv_draw_rect.c ****     lv_area_copy(&sh_area, coords);
1030:Middlewares/lvgl/src/draw/lv_draw_rect.c ****     sh_area.x2 = sw / 2 + r - 1  - ((sw & 1) ? 0 : 1);
1031:Middlewares/lvgl/src/draw/lv_draw_rect.c ****     sh_area.y1 = sw / 2 + 1;
1032:Middlewares/lvgl/src/draw/lv_draw_rect.c **** 
1033:Middlewares/lvgl/src/draw/lv_draw_rect.c ****     sh_area.x1 = sh_area.x2 - lv_area_get_width(coords);
1034:Middlewares/lvgl/src/draw/lv_draw_rect.c ****     sh_area.y2 = sh_area.y1 + lv_area_get_height(coords);
1035:Middlewares/lvgl/src/draw/lv_draw_rect.c **** 
1036:Middlewares/lvgl/src/draw/lv_draw_rect.c ****     lv_draw_mask_radius_param_t mask_param;
1037:Middlewares/lvgl/src/draw/lv_draw_rect.c ****     lv_draw_mask_radius_init(&mask_param, &sh_area, r, false);
1038:Middlewares/lvgl/src/draw/lv_draw_rect.c **** 
1039:Middlewares/lvgl/src/draw/lv_draw_rect.c **** #if SHADOW_ENHANCE
1040:Middlewares/lvgl/src/draw/lv_draw_rect.c ****     /*Set half shadow width width because blur will be repeated*/
1041:Middlewares/lvgl/src/draw/lv_draw_rect.c ****     if(sw_ori == 1) sw = 1;
1042:Middlewares/lvgl/src/draw/lv_draw_rect.c ****     else sw = sw_ori >> 1;
1043:Middlewares/lvgl/src/draw/lv_draw_rect.c **** #endif
1044:Middlewares/lvgl/src/draw/lv_draw_rect.c **** 
1045:Middlewares/lvgl/src/draw/lv_draw_rect.c ****     int32_t y;
1046:Middlewares/lvgl/src/draw/lv_draw_rect.c ****     lv_opa_t * mask_line = lv_mem_buf_get(size);
1047:Middlewares/lvgl/src/draw/lv_draw_rect.c ****     uint16_t * sh_ups_tmp_buf = (uint16_t *)sh_buf;
1048:Middlewares/lvgl/src/draw/lv_draw_rect.c ****     for(y = 0; y < size; y++) {
1049:Middlewares/lvgl/src/draw/lv_draw_rect.c ****         lv_memset_ff(mask_line, size);
1050:Middlewares/lvgl/src/draw/lv_draw_rect.c ****         lv_draw_mask_res_t mask_res = mask_param.dsc.cb(mask_line, 0, y, size, &mask_param);
1051:Middlewares/lvgl/src/draw/lv_draw_rect.c ****         if(mask_res == LV_DRAW_MASK_RES_TRANSP) {
1052:Middlewares/lvgl/src/draw/lv_draw_rect.c ****             lv_memset_00(sh_ups_tmp_buf, size * sizeof(sh_ups_tmp_buf[0]));
1053:Middlewares/lvgl/src/draw/lv_draw_rect.c ****         }
1054:Middlewares/lvgl/src/draw/lv_draw_rect.c ****         else {
1055:Middlewares/lvgl/src/draw/lv_draw_rect.c ****             int32_t i;
1056:Middlewares/lvgl/src/draw/lv_draw_rect.c ****             sh_ups_tmp_buf[0] = (mask_line[0] << SHADOW_UPSCALE_SHIFT) / sw;
1057:Middlewares/lvgl/src/draw/lv_draw_rect.c ****             for(i = 1; i < size; i++) {
ARM GAS  /tmp/ccUpPomB.s 			page 20


1058:Middlewares/lvgl/src/draw/lv_draw_rect.c ****                 if(mask_line[i] == mask_line[i - 1]) sh_ups_tmp_buf[i] = sh_ups_tmp_buf[i - 1];
1059:Middlewares/lvgl/src/draw/lv_draw_rect.c ****                 else  sh_ups_tmp_buf[i] = (mask_line[i] << SHADOW_UPSCALE_SHIFT) / sw;
1060:Middlewares/lvgl/src/draw/lv_draw_rect.c ****             }
1061:Middlewares/lvgl/src/draw/lv_draw_rect.c ****         }
1062:Middlewares/lvgl/src/draw/lv_draw_rect.c **** 
1063:Middlewares/lvgl/src/draw/lv_draw_rect.c ****         sh_ups_tmp_buf += size;
1064:Middlewares/lvgl/src/draw/lv_draw_rect.c ****     }
1065:Middlewares/lvgl/src/draw/lv_draw_rect.c ****     lv_mem_buf_release(mask_line);
1066:Middlewares/lvgl/src/draw/lv_draw_rect.c **** 
1067:Middlewares/lvgl/src/draw/lv_draw_rect.c ****     if(sw == 1) {
1068:Middlewares/lvgl/src/draw/lv_draw_rect.c ****         int32_t i;
1069:Middlewares/lvgl/src/draw/lv_draw_rect.c ****         lv_opa_t * res_buf = (lv_opa_t *)sh_buf;
1070:Middlewares/lvgl/src/draw/lv_draw_rect.c ****         for(i = 0; i < size * size; i++) {
1071:Middlewares/lvgl/src/draw/lv_draw_rect.c ****             res_buf[i] = (sh_buf[i] >> SHADOW_UPSCALE_SHIFT);
1072:Middlewares/lvgl/src/draw/lv_draw_rect.c ****         }
1073:Middlewares/lvgl/src/draw/lv_draw_rect.c ****         return;
1074:Middlewares/lvgl/src/draw/lv_draw_rect.c ****     }
1075:Middlewares/lvgl/src/draw/lv_draw_rect.c **** 
1076:Middlewares/lvgl/src/draw/lv_draw_rect.c ****     shadow_blur_corner(size, sw, sh_buf);
1077:Middlewares/lvgl/src/draw/lv_draw_rect.c **** 
1078:Middlewares/lvgl/src/draw/lv_draw_rect.c **** #if SHADOW_ENHANCE == 0
1079:Middlewares/lvgl/src/draw/lv_draw_rect.c ****     /*The result is required in lv_opa_t not uint16_t*/
1080:Middlewares/lvgl/src/draw/lv_draw_rect.c ****     uint32_t x;
1081:Middlewares/lvgl/src/draw/lv_draw_rect.c ****     lv_opa_t * res_buf = (lv_opa_t *)sh_buf;
1082:Middlewares/lvgl/src/draw/lv_draw_rect.c ****     for(x = 0; x < size * size; x++) {
1083:Middlewares/lvgl/src/draw/lv_draw_rect.c ****         res_buf[x] = sh_buf[x];
1084:Middlewares/lvgl/src/draw/lv_draw_rect.c ****     }
1085:Middlewares/lvgl/src/draw/lv_draw_rect.c **** #else
1086:Middlewares/lvgl/src/draw/lv_draw_rect.c ****     sw += sw_ori & 1;
1087:Middlewares/lvgl/src/draw/lv_draw_rect.c ****     if(sw > 1) {
1088:Middlewares/lvgl/src/draw/lv_draw_rect.c ****         uint32_t i;
1089:Middlewares/lvgl/src/draw/lv_draw_rect.c ****         sh_buf[0] = (sh_buf[0] << SHADOW_UPSCALE_SHIFT) / sw;
1090:Middlewares/lvgl/src/draw/lv_draw_rect.c ****         for(i = 1; i < (uint32_t) size * size; i++) {
1091:Middlewares/lvgl/src/draw/lv_draw_rect.c ****             if(sh_buf[i] == sh_buf[i - 1]) sh_buf[i] = sh_buf[i - 1];
1092:Middlewares/lvgl/src/draw/lv_draw_rect.c ****             else  sh_buf[i] = (sh_buf[i] << SHADOW_UPSCALE_SHIFT) / sw;
1093:Middlewares/lvgl/src/draw/lv_draw_rect.c ****         }
1094:Middlewares/lvgl/src/draw/lv_draw_rect.c **** 
1095:Middlewares/lvgl/src/draw/lv_draw_rect.c ****         shadow_blur_corner(size, sw, sh_buf);
1096:Middlewares/lvgl/src/draw/lv_draw_rect.c ****     }
1097:Middlewares/lvgl/src/draw/lv_draw_rect.c ****     int32_t x;
1098:Middlewares/lvgl/src/draw/lv_draw_rect.c ****     lv_opa_t * res_buf = (lv_opa_t *)sh_buf;
1099:Middlewares/lvgl/src/draw/lv_draw_rect.c ****     for(x = 0; x < size * size; x++) {
1100:Middlewares/lvgl/src/draw/lv_draw_rect.c ****         res_buf[x] = sh_buf[x];
1101:Middlewares/lvgl/src/draw/lv_draw_rect.c ****     }
1102:Middlewares/lvgl/src/draw/lv_draw_rect.c **** #endif
1103:Middlewares/lvgl/src/draw/lv_draw_rect.c **** 
1104:Middlewares/lvgl/src/draw/lv_draw_rect.c **** }
1105:Middlewares/lvgl/src/draw/lv_draw_rect.c **** 
1106:Middlewares/lvgl/src/draw/lv_draw_rect.c **** LV_ATTRIBUTE_FAST_MEM static void shadow_blur_corner(lv_coord_t size, lv_coord_t sw, uint16_t * sh_
1107:Middlewares/lvgl/src/draw/lv_draw_rect.c **** {
  28              		.loc 1 1107 1 view -0
  29              		.cfi_startproc
  30              		@ args = 0, pretend = 0, frame = 8
  31              		@ frame_needed = 0, uses_anonymous_args = 0
  32              		.loc 1 1107 1 is_stmt 0 view .LVU1
  33 0000 2DE9F04F 		push	{r4, r5, r6, r7, r8, r9, r10, fp, lr}
  34              	.LCFI0:
ARM GAS  /tmp/ccUpPomB.s 			page 21


  35              		.cfi_def_cfa_offset 36
  36              		.cfi_offset 4, -36
  37              		.cfi_offset 5, -32
  38              		.cfi_offset 6, -28
  39              		.cfi_offset 7, -24
  40              		.cfi_offset 8, -20
  41              		.cfi_offset 9, -16
  42              		.cfi_offset 10, -12
  43              		.cfi_offset 11, -8
  44              		.cfi_offset 14, -4
  45 0004 83B0     		sub	sp, sp, #12
  46              	.LCFI1:
  47              		.cfi_def_cfa_offset 48
  48 0006 0446     		mov	r4, r0
  49 0008 0191     		str	r1, [sp, #4]
  50 000a 1646     		mov	r6, r2
1108:Middlewares/lvgl/src/draw/lv_draw_rect.c ****     int32_t s_left = sw >> 1;
  51              		.loc 1 1108 5 is_stmt 1 view .LVU2
  52              		.loc 1 1108 25 is_stmt 0 view .LVU3
  53 000c 4FEA6108 		asr	r8, r1, #1
  54              	.LVL1:
1109:Middlewares/lvgl/src/draw/lv_draw_rect.c ****     int32_t s_right = (sw >> 1);
  55              		.loc 1 1109 5 is_stmt 1 view .LVU4
1110:Middlewares/lvgl/src/draw/lv_draw_rect.c ****     if((sw & 1) == 0) s_left--;
  56              		.loc 1 1110 5 view .LVU5
  57              		.loc 1 1110 7 is_stmt 0 view .LVU6
  58 0010 11F0010F 		tst	r1, #1
  59 0014 02D1     		bne	.L25
  60              		.loc 1 1110 23 is_stmt 1 discriminator 1 view .LVU7
  61              		.loc 1 1110 29 is_stmt 0 discriminator 1 view .LVU8
  62 0016 08F1FF39 		add	r9, r8, #-1
  63              	.LVL2:
  64              		.loc 1 1110 29 discriminator 1 view .LVU9
  65 001a 00E0     		b	.L2
  66              	.LVL3:
  67              	.L25:
1108:Middlewares/lvgl/src/draw/lv_draw_rect.c ****     int32_t s_left = sw >> 1;
  68              		.loc 1 1108 13 view .LVU10
  69 001c C146     		mov	r9, r8
  70              	.LVL4:
  71              	.L2:
1111:Middlewares/lvgl/src/draw/lv_draw_rect.c **** 
1112:Middlewares/lvgl/src/draw/lv_draw_rect.c ****     /*Horizontal blur*/
1113:Middlewares/lvgl/src/draw/lv_draw_rect.c ****     uint16_t * sh_ups_blur_buf = lv_mem_buf_get(size * sizeof(uint16_t));
  72              		.loc 1 1113 5 is_stmt 1 view .LVU11
  73              		.loc 1 1113 54 is_stmt 0 view .LVU12
  74 001e 6700     		lsls	r7, r4, #1
  75              		.loc 1 1113 34 view .LVU13
  76 0020 3846     		mov	r0, r7
  77              	.LVL5:
  78              		.loc 1 1113 34 view .LVU14
  79 0022 FFF7FEFF 		bl	lv_mem_buf_get
  80              	.LVL6:
  81              		.loc 1 1113 34 view .LVU15
  82 0026 0546     		mov	r5, r0
  83              	.LVL7:
1114:Middlewares/lvgl/src/draw/lv_draw_rect.c **** 
ARM GAS  /tmp/ccUpPomB.s 			page 22


1115:Middlewares/lvgl/src/draw/lv_draw_rect.c ****     int32_t x;
  84              		.loc 1 1115 5 is_stmt 1 view .LVU16
1116:Middlewares/lvgl/src/draw/lv_draw_rect.c ****     int32_t y;
  85              		.loc 1 1116 5 view .LVU17
1117:Middlewares/lvgl/src/draw/lv_draw_rect.c **** 
1118:Middlewares/lvgl/src/draw/lv_draw_rect.c ****     uint16_t * sh_ups_tmp_buf = sh_ups_buf;
  86              		.loc 1 1118 5 view .LVU18
1119:Middlewares/lvgl/src/draw/lv_draw_rect.c **** 
1120:Middlewares/lvgl/src/draw/lv_draw_rect.c ****     for(y = 0; y < size; y++) {
  87              		.loc 1 1120 5 view .LVU19
1118:Middlewares/lvgl/src/draw/lv_draw_rect.c **** 
  88              		.loc 1 1118 16 is_stmt 0 view .LVU20
  89 0028 B246     		mov	r10, r6
  90              		.loc 1 1120 11 view .LVU21
  91 002a 4FF0000B 		mov	fp, #0
  92              		.loc 1 1120 5 view .LVU22
  93 002e 22E0     		b	.L3
  94              	.LVL8:
  95              	.L26:
  96              	.LBB189:
  97              	.LBB190:
1121:Middlewares/lvgl/src/draw/lv_draw_rect.c ****         int32_t v = sh_ups_tmp_buf[size - 1] * sw;
1122:Middlewares/lvgl/src/draw/lv_draw_rect.c ****         for(x = size - 1; x >= 0; x--) {
1123:Middlewares/lvgl/src/draw/lv_draw_rect.c ****             sh_ups_blur_buf[x] = v;
1124:Middlewares/lvgl/src/draw/lv_draw_rect.c **** 
1125:Middlewares/lvgl/src/draw/lv_draw_rect.c ****             /*Forget the right pixel*/
1126:Middlewares/lvgl/src/draw/lv_draw_rect.c ****             uint32_t right_val = 0;
  98              		.loc 1 1126 22 view .LVU23
  99 0030 0021     		movs	r1, #0
 100              	.LVL9:
 101              	.L5:
1127:Middlewares/lvgl/src/draw/lv_draw_rect.c ****             if(x + s_right < size) right_val = sh_ups_tmp_buf[x + s_right];
1128:Middlewares/lvgl/src/draw/lv_draw_rect.c ****             v -= right_val;
 102              		.loc 1 1128 13 is_stmt 1 view .LVU24
 103              		.loc 1 1128 15 is_stmt 0 view .LVU25
 104 0032 521A     		subs	r2, r2, r1
 105              	.LVL10:
1129:Middlewares/lvgl/src/draw/lv_draw_rect.c **** 
1130:Middlewares/lvgl/src/draw/lv_draw_rect.c ****             /*Add the left pixel*/
1131:Middlewares/lvgl/src/draw/lv_draw_rect.c ****             uint32_t left_val;
 106              		.loc 1 1131 13 is_stmt 1 view .LVU26
1132:Middlewares/lvgl/src/draw/lv_draw_rect.c ****             if(x - s_left - 1 < 0) left_val = sh_ups_tmp_buf[0];
 107              		.loc 1 1132 13 view .LVU27
 108              		.loc 1 1132 18 is_stmt 0 view .LVU28
 109 0034 A3EB0901 		sub	r1, r3, r9
 110              	.LVL11:
 111              		.loc 1 1132 15 view .LVU29
 112 0038 0029     		cmp	r1, #0
 113 003a 11DD     		ble	.L29
1133:Middlewares/lvgl/src/draw/lv_draw_rect.c ****             else left_val = sh_ups_tmp_buf[x - s_left - 1];
 114              		.loc 1 1133 18 is_stmt 1 view .LVU30
 115              		.loc 1 1133 43 is_stmt 0 view .LVU31
 116 003c 6FF00040 		mvn	r0, #-2147483648
 117 0040 0844     		add	r0, r0, r1
 118 0042 3AF81010 		ldrh	r1, [r10, r0, lsl #1]
 119              	.LVL12:
 120              	.L7:
ARM GAS  /tmp/ccUpPomB.s 			page 23


1134:Middlewares/lvgl/src/draw/lv_draw_rect.c ****             v += left_val;
 121              		.loc 1 1134 13 is_stmt 1 discriminator 2 view .LVU32
 122              		.loc 1 1134 15 is_stmt 0 discriminator 2 view .LVU33
 123 0046 0A44     		add	r2, r2, r1
 124              	.LVL13:
 125              		.loc 1 1134 15 discriminator 2 view .LVU34
 126              	.LBE190:
1122:Middlewares/lvgl/src/draw/lv_draw_rect.c ****             sh_ups_blur_buf[x] = v;
 127              		.loc 1 1122 35 is_stmt 1 discriminator 2 view .LVU35
1122:Middlewares/lvgl/src/draw/lv_draw_rect.c ****             sh_ups_blur_buf[x] = v;
 128              		.loc 1 1122 36 is_stmt 0 discriminator 2 view .LVU36
 129 0048 013B     		subs	r3, r3, #1
 130              	.LVL14:
 131              	.L4:
1122:Middlewares/lvgl/src/draw/lv_draw_rect.c ****             sh_ups_blur_buf[x] = v;
 132              		.loc 1 1122 27 is_stmt 1 discriminator 1 view .LVU37
1122:Middlewares/lvgl/src/draw/lv_draw_rect.c ****             sh_ups_blur_buf[x] = v;
 133              		.loc 1 1122 9 is_stmt 0 discriminator 1 view .LVU38
 134 004a 002B     		cmp	r3, #0
 135 004c 0BDB     		blt	.L30
 136              	.LBB191:
1123:Middlewares/lvgl/src/draw/lv_draw_rect.c **** 
 137              		.loc 1 1123 13 is_stmt 1 view .LVU39
1123:Middlewares/lvgl/src/draw/lv_draw_rect.c **** 
 138              		.loc 1 1123 32 is_stmt 0 view .LVU40
 139 004e 25F81320 		strh	r2, [r5, r3, lsl #1]	@ movhi
1126:Middlewares/lvgl/src/draw/lv_draw_rect.c ****             if(x + s_right < size) right_val = sh_ups_tmp_buf[x + s_right];
 140              		.loc 1 1126 13 is_stmt 1 view .LVU41
 141              	.LVL15:
1127:Middlewares/lvgl/src/draw/lv_draw_rect.c ****             v -= right_val;
 142              		.loc 1 1127 13 view .LVU42
1127:Middlewares/lvgl/src/draw/lv_draw_rect.c ****             v -= right_val;
 143              		.loc 1 1127 18 is_stmt 0 view .LVU43
 144 0052 03EB0801 		add	r1, r3, r8
1127:Middlewares/lvgl/src/draw/lv_draw_rect.c ****             v -= right_val;
 145              		.loc 1 1127 15 view .LVU44
 146 0056 A142     		cmp	r1, r4
 147 0058 EADA     		bge	.L26
1127:Middlewares/lvgl/src/draw/lv_draw_rect.c ****             v -= right_val;
 148              		.loc 1 1127 36 is_stmt 1 discriminator 1 view .LVU45
1127:Middlewares/lvgl/src/draw/lv_draw_rect.c ****             v -= right_val;
 149              		.loc 1 1127 62 is_stmt 0 discriminator 1 view .LVU46
 150 005a 3AF81110 		ldrh	r1, [r10, r1, lsl #1]
 151              	.LVL16:
1127:Middlewares/lvgl/src/draw/lv_draw_rect.c ****             v -= right_val;
 152              		.loc 1 1127 62 discriminator 1 view .LVU47
 153 005e E8E7     		b	.L5
 154              	.LVL17:
 155              	.L29:
1132:Middlewares/lvgl/src/draw/lv_draw_rect.c ****             else left_val = sh_ups_tmp_buf[x - s_left - 1];
 156              		.loc 1 1132 36 is_stmt 1 discriminator 1 view .LVU48
1132:Middlewares/lvgl/src/draw/lv_draw_rect.c ****             else left_val = sh_ups_tmp_buf[x - s_left - 1];
 157              		.loc 1 1132 61 is_stmt 0 discriminator 1 view .LVU49
 158 0060 BAF80010 		ldrh	r1, [r10]
 159              	.LVL18:
1132:Middlewares/lvgl/src/draw/lv_draw_rect.c ****             else left_val = sh_ups_tmp_buf[x - s_left - 1];
 160              		.loc 1 1132 61 discriminator 1 view .LVU50
ARM GAS  /tmp/ccUpPomB.s 			page 24


 161 0064 EFE7     		b	.L7
 162              	.LVL19:
 163              	.L30:
1132:Middlewares/lvgl/src/draw/lv_draw_rect.c ****             else left_val = sh_ups_tmp_buf[x - s_left - 1];
 164              		.loc 1 1132 61 discriminator 1 view .LVU51
 165              	.LBE191:
1135:Middlewares/lvgl/src/draw/lv_draw_rect.c ****         }
1136:Middlewares/lvgl/src/draw/lv_draw_rect.c ****         lv_memcpy(sh_ups_tmp_buf, sh_ups_blur_buf, size * sizeof(uint16_t));
 166              		.loc 1 1136 9 is_stmt 1 discriminator 2 view .LVU52
 167 0066 3A46     		mov	r2, r7
 168              	.LVL20:
 169              		.loc 1 1136 9 is_stmt 0 discriminator 2 view .LVU53
 170 0068 2946     		mov	r1, r5
 171 006a 5046     		mov	r0, r10
 172 006c FFF7FEFF 		bl	lv_memcpy
 173              	.LVL21:
1137:Middlewares/lvgl/src/draw/lv_draw_rect.c ****         sh_ups_tmp_buf += size;
 174              		.loc 1 1137 9 is_stmt 1 discriminator 2 view .LVU54
 175              		.loc 1 1137 24 is_stmt 0 discriminator 2 view .LVU55
 176 0070 BA44     		add	r10, r10, r7
 177              	.LVL22:
 178              		.loc 1 1137 24 discriminator 2 view .LVU56
 179              	.LBE189:
1120:Middlewares/lvgl/src/draw/lv_draw_rect.c ****         int32_t v = sh_ups_tmp_buf[size - 1] * sw;
 180              		.loc 1 1120 26 is_stmt 1 discriminator 2 view .LVU57
1120:Middlewares/lvgl/src/draw/lv_draw_rect.c ****         int32_t v = sh_ups_tmp_buf[size - 1] * sw;
 181              		.loc 1 1120 27 is_stmt 0 discriminator 2 view .LVU58
 182 0072 0BF1010B 		add	fp, fp, #1
 183              	.LVL23:
 184              	.L3:
1120:Middlewares/lvgl/src/draw/lv_draw_rect.c ****         int32_t v = sh_ups_tmp_buf[size - 1] * sw;
 185              		.loc 1 1120 16 is_stmt 1 discriminator 1 view .LVU59
1120:Middlewares/lvgl/src/draw/lv_draw_rect.c ****         int32_t v = sh_ups_tmp_buf[size - 1] * sw;
 186              		.loc 1 1120 5 is_stmt 0 discriminator 1 view .LVU60
 187 0076 5C45     		cmp	r4, fp
 188 0078 09DD     		ble	.L31
 189              	.LBB192:
1121:Middlewares/lvgl/src/draw/lv_draw_rect.c ****         for(x = size - 1; x >= 0; x--) {
 190              		.loc 1 1121 9 is_stmt 1 view .LVU61
1121:Middlewares/lvgl/src/draw/lv_draw_rect.c ****         for(x = size - 1; x >= 0; x--) {
 191              		.loc 1 1121 35 is_stmt 0 view .LVU62
 192 007a 6FF00043 		mvn	r3, #-2147483648
 193 007e 2344     		add	r3, r3, r4
 194 0080 3AF81320 		ldrh	r2, [r10, r3, lsl #1]
1121:Middlewares/lvgl/src/draw/lv_draw_rect.c ****         for(x = size - 1; x >= 0; x--) {
 195              		.loc 1 1121 17 view .LVU63
 196 0084 019B     		ldr	r3, [sp, #4]
 197 0086 03FB02F2 		mul	r2, r3, r2
 198              	.LVL24:
1122:Middlewares/lvgl/src/draw/lv_draw_rect.c ****             sh_ups_blur_buf[x] = v;
 199              		.loc 1 1122 9 is_stmt 1 view .LVU64
1122:Middlewares/lvgl/src/draw/lv_draw_rect.c ****             sh_ups_blur_buf[x] = v;
 200              		.loc 1 1122 15 is_stmt 0 view .LVU65
 201 008a 631E     		subs	r3, r4, #1
 202              	.LVL25:
1122:Middlewares/lvgl/src/draw/lv_draw_rect.c ****             sh_ups_blur_buf[x] = v;
 203              		.loc 1 1122 9 view .LVU66
ARM GAS  /tmp/ccUpPomB.s 			page 25


 204 008c DDE7     		b	.L4
 205              	.LVL26:
 206              	.L31:
1122:Middlewares/lvgl/src/draw/lv_draw_rect.c ****             sh_ups_blur_buf[x] = v;
 207              		.loc 1 1122 9 view .LVU67
 208              	.LBE192:
1138:Middlewares/lvgl/src/draw/lv_draw_rect.c ****     }
1139:Middlewares/lvgl/src/draw/lv_draw_rect.c **** 
1140:Middlewares/lvgl/src/draw/lv_draw_rect.c ****     /*Vertical blur*/
1141:Middlewares/lvgl/src/draw/lv_draw_rect.c ****     uint32_t i;
 209              		.loc 1 1141 5 is_stmt 1 view .LVU68
1142:Middlewares/lvgl/src/draw/lv_draw_rect.c ****     sh_ups_buf[0] = sh_ups_buf[0] / sw;
 210              		.loc 1 1142 5 view .LVU69
 211              		.loc 1 1142 31 is_stmt 0 view .LVU70
 212 008e 3388     		ldrh	r3, [r6]
 213              		.loc 1 1142 35 view .LVU71
 214 0090 019A     		ldr	r2, [sp, #4]
 215 0092 93FBF2F3 		sdiv	r3, r3, r2
 216              		.loc 1 1142 19 view .LVU72
 217 0096 3380     		strh	r3, [r6]	@ movhi
1143:Middlewares/lvgl/src/draw/lv_draw_rect.c ****     for(i = 1; i < (uint32_t)size * size; i++) {
 218              		.loc 1 1143 5 is_stmt 1 view .LVU73
 219              	.LVL27:
 220              		.loc 1 1143 11 is_stmt 0 view .LVU74
 221 0098 0123     		movs	r3, #1
 222              		.loc 1 1143 5 view .LVU75
 223 009a 02E0     		b	.L10
 224              	.LVL28:
 225              	.L33:
1144:Middlewares/lvgl/src/draw/lv_draw_rect.c ****         if(sh_ups_buf[i] == sh_ups_buf[i - 1]) sh_ups_buf[i] = sh_ups_buf[i - 1];
 226              		.loc 1 1144 48 is_stmt 1 discriminator 1 view .LVU76
 227              		.loc 1 1144 62 is_stmt 0 discriminator 1 view .LVU77
 228 009c 26F81320 		strh	r2, [r6, r3, lsl #1]	@ movhi
 229              	.L12:
1143:Middlewares/lvgl/src/draw/lv_draw_rect.c ****     for(i = 1; i < (uint32_t)size * size; i++) {
 230              		.loc 1 1143 43 is_stmt 1 discriminator 2 view .LVU78
1143:Middlewares/lvgl/src/draw/lv_draw_rect.c ****     for(i = 1; i < (uint32_t)size * size; i++) {
 231              		.loc 1 1143 44 is_stmt 0 discriminator 2 view .LVU79
 232 00a0 0133     		adds	r3, r3, #1
 233              	.LVL29:
 234              	.L10:
1143:Middlewares/lvgl/src/draw/lv_draw_rect.c ****     for(i = 1; i < (uint32_t)size * size; i++) {
 235              		.loc 1 1143 16 is_stmt 1 discriminator 1 view .LVU80
1143:Middlewares/lvgl/src/draw/lv_draw_rect.c ****     for(i = 1; i < (uint32_t)size * size; i++) {
 236              		.loc 1 1143 35 is_stmt 0 discriminator 1 view .LVU81
 237 00a2 04FB04F2 		mul	r2, r4, r4
1143:Middlewares/lvgl/src/draw/lv_draw_rect.c ****     for(i = 1; i < (uint32_t)size * size; i++) {
 238              		.loc 1 1143 5 discriminator 1 view .LVU82
 239 00a6 9A42     		cmp	r2, r3
 240 00a8 0ED9     		bls	.L32
 241              		.loc 1 1144 9 is_stmt 1 view .LVU83
 242              		.loc 1 1144 22 is_stmt 0 view .LVU84
 243 00aa 36F81310 		ldrh	r1, [r6, r3, lsl #1]
 244              		.loc 1 1144 39 view .LVU85
 245 00ae 6FF00042 		mvn	r2, #-2147483648
 246 00b2 1A44     		add	r2, r2, r3
 247 00b4 36F81220 		ldrh	r2, [r6, r2, lsl #1]
ARM GAS  /tmp/ccUpPomB.s 			page 26


 248              		.loc 1 1144 11 view .LVU86
 249 00b8 9142     		cmp	r1, r2
 250 00ba EFD0     		beq	.L33
1145:Middlewares/lvgl/src/draw/lv_draw_rect.c ****         else  sh_ups_buf[i] = sh_ups_buf[i] / sw;
 251              		.loc 1 1145 15 is_stmt 1 view .LVU87
 252              		.loc 1 1145 45 is_stmt 0 view .LVU88
 253 00bc 019A     		ldr	r2, [sp, #4]
 254 00be 91FBF2F1 		sdiv	r1, r1, r2
 255              		.loc 1 1145 29 view .LVU89
 256 00c2 26F81310 		strh	r1, [r6, r3, lsl #1]	@ movhi
 257 00c6 EBE7     		b	.L12
 258              	.L32:
1146:Middlewares/lvgl/src/draw/lv_draw_rect.c ****     }
1147:Middlewares/lvgl/src/draw/lv_draw_rect.c **** 
1148:Middlewares/lvgl/src/draw/lv_draw_rect.c ****     for(x = 0; x < size; x++) {
 259              		.loc 1 1148 11 view .LVU90
 260 00c8 4FF0000E 		mov	lr, #0
 261 00cc 32E0     		b	.L14
 262              	.LVL30:
 263              	.L27:
 264              	.LBB193:
 265              	.LBB194:
1149:Middlewares/lvgl/src/draw/lv_draw_rect.c ****         sh_ups_tmp_buf = &sh_ups_buf[x];
1150:Middlewares/lvgl/src/draw/lv_draw_rect.c ****         int32_t v = sh_ups_tmp_buf[0] * sw;
1151:Middlewares/lvgl/src/draw/lv_draw_rect.c ****         for(y = 0; y < size ; y++, sh_ups_tmp_buf += size) {
1152:Middlewares/lvgl/src/draw/lv_draw_rect.c ****             sh_ups_blur_buf[y] = v < 0 ? 0 : (v >> SHADOW_UPSCALE_SHIFT);
 266              		.loc 1 1152 32 view .LVU91
 267 00ce 0021     		movs	r1, #0
 268 00d0 10E0     		b	.L16
 269              	.L35:
1153:Middlewares/lvgl/src/draw/lv_draw_rect.c **** 
1154:Middlewares/lvgl/src/draw/lv_draw_rect.c ****             /*Forget the top pixel*/
1155:Middlewares/lvgl/src/draw/lv_draw_rect.c ****             uint32_t top_val;
1156:Middlewares/lvgl/src/draw/lv_draw_rect.c ****             if(y - s_right <= 0) top_val = sh_ups_tmp_buf[0];
 270              		.loc 1 1156 34 is_stmt 1 discriminator 1 view .LVU92
 271              		.loc 1 1156 58 is_stmt 0 discriminator 1 view .LVU93
 272 00d2 BCF80010 		ldrh	r1, [ip]
 273              	.LVL31:
 274              		.loc 1 1156 58 discriminator 1 view .LVU94
 275 00d6 17E0     		b	.L18
 276              	.LVL32:
 277              	.L19:
1157:Middlewares/lvgl/src/draw/lv_draw_rect.c ****             else top_val = sh_ups_buf[(y - s_right) * size + x];
1158:Middlewares/lvgl/src/draw/lv_draw_rect.c ****             v -= top_val;
1159:Middlewares/lvgl/src/draw/lv_draw_rect.c **** 
1160:Middlewares/lvgl/src/draw/lv_draw_rect.c ****             /*Add the bottom pixel*/
1161:Middlewares/lvgl/src/draw/lv_draw_rect.c ****             uint32_t bottom_val;
1162:Middlewares/lvgl/src/draw/lv_draw_rect.c ****             if(y + s_left + 1 < size) bottom_val = sh_ups_buf[(y + s_left + 1) * size + x];
1163:Middlewares/lvgl/src/draw/lv_draw_rect.c ****             else bottom_val = sh_ups_buf[(size - 1) * size + x];
 278              		.loc 1 1163 18 is_stmt 1 view .LVU95
 279              		.loc 1 1163 48 is_stmt 0 view .LVU96
 280 00d8 611E     		subs	r1, r4, #1
 281              		.loc 1 1163 60 view .LVU97
 282 00da 01FB04E1 		mla	r1, r1, r4, lr
 283              		.loc 1 1163 41 view .LVU98
 284 00de 36F81110 		ldrh	r1, [r6, r1, lsl #1]
 285              	.LVL33:
ARM GAS  /tmp/ccUpPomB.s 			page 27


 286              	.L20:
1164:Middlewares/lvgl/src/draw/lv_draw_rect.c ****             v += bottom_val;
 287              		.loc 1 1164 13 is_stmt 1 discriminator 2 view .LVU99
 288              		.loc 1 1164 15 is_stmt 0 discriminator 2 view .LVU100
 289 00e2 0A44     		add	r2, r2, r1
 290              	.LVL34:
 291              		.loc 1 1164 15 discriminator 2 view .LVU101
 292              	.LBE194:
1151:Middlewares/lvgl/src/draw/lv_draw_rect.c ****             sh_ups_blur_buf[y] = v < 0 ? 0 : (v >> SHADOW_UPSCALE_SHIFT);
 293              		.loc 1 1151 31 is_stmt 1 discriminator 2 view .LVU102
1151:Middlewares/lvgl/src/draw/lv_draw_rect.c ****             sh_ups_blur_buf[y] = v < 0 ? 0 : (v >> SHADOW_UPSCALE_SHIFT);
 294              		.loc 1 1151 32 is_stmt 0 discriminator 2 view .LVU103
 295 00e4 0133     		adds	r3, r3, #1
 296              	.LVL35:
1151:Middlewares/lvgl/src/draw/lv_draw_rect.c ****             sh_ups_blur_buf[y] = v < 0 ? 0 : (v >> SHADOW_UPSCALE_SHIFT);
 297              		.loc 1 1151 51 discriminator 2 view .LVU104
 298 00e6 BC44     		add	ip, ip, r7
 299              	.LVL36:
 300              	.L15:
1151:Middlewares/lvgl/src/draw/lv_draw_rect.c ****             sh_ups_blur_buf[y] = v < 0 ? 0 : (v >> SHADOW_UPSCALE_SHIFT);
 301              		.loc 1 1151 20 is_stmt 1 discriminator 1 view .LVU105
1151:Middlewares/lvgl/src/draw/lv_draw_rect.c ****             sh_ups_blur_buf[y] = v < 0 ? 0 : (v >> SHADOW_UPSCALE_SHIFT);
 302              		.loc 1 1151 9 is_stmt 0 discriminator 1 view .LVU106
 303 00e8 9C42     		cmp	r4, r3
 304 00ea 18DD     		ble	.L34
 305              	.LBB195:
1152:Middlewares/lvgl/src/draw/lv_draw_rect.c **** 
 306              		.loc 1 1152 13 is_stmt 1 view .LVU107
1152:Middlewares/lvgl/src/draw/lv_draw_rect.c **** 
 307              		.loc 1 1152 32 is_stmt 0 view .LVU108
 308 00ec 002A     		cmp	r2, #0
 309 00ee EEDB     		blt	.L27
1152:Middlewares/lvgl/src/draw/lv_draw_rect.c **** 
 310              		.loc 1 1152 32 discriminator 1 view .LVU109
 311 00f0 C2F38F11 		ubfx	r1, r2, #6, #16
 312              	.L16:
1152:Middlewares/lvgl/src/draw/lv_draw_rect.c **** 
 313              		.loc 1 1152 32 discriminator 4 view .LVU110
 314 00f4 25F81310 		strh	r1, [r5, r3, lsl #1]	@ movhi
1155:Middlewares/lvgl/src/draw/lv_draw_rect.c ****             if(y - s_right <= 0) top_val = sh_ups_tmp_buf[0];
 315              		.loc 1 1155 13 is_stmt 1 discriminator 4 view .LVU111
1156:Middlewares/lvgl/src/draw/lv_draw_rect.c ****             else top_val = sh_ups_buf[(y - s_right) * size + x];
 316              		.loc 1 1156 13 discriminator 4 view .LVU112
1156:Middlewares/lvgl/src/draw/lv_draw_rect.c ****             else top_val = sh_ups_buf[(y - s_right) * size + x];
 317              		.loc 1 1156 18 is_stmt 0 discriminator 4 view .LVU113
 318 00f8 A3EB0801 		sub	r1, r3, r8
1156:Middlewares/lvgl/src/draw/lv_draw_rect.c ****             else top_val = sh_ups_buf[(y - s_right) * size + x];
 319              		.loc 1 1156 15 discriminator 4 view .LVU114
 320 00fc 0029     		cmp	r1, #0
 321 00fe E8DD     		ble	.L35
1157:Middlewares/lvgl/src/draw/lv_draw_rect.c ****             v -= top_val;
 322              		.loc 1 1157 18 is_stmt 1 view .LVU115
1157:Middlewares/lvgl/src/draw/lv_draw_rect.c ****             v -= top_val;
 323              		.loc 1 1157 60 is_stmt 0 view .LVU116
 324 0100 01FB04E1 		mla	r1, r1, r4, lr
1157:Middlewares/lvgl/src/draw/lv_draw_rect.c ****             v -= top_val;
 325              		.loc 1 1157 38 view .LVU117
ARM GAS  /tmp/ccUpPomB.s 			page 28


 326 0104 36F81110 		ldrh	r1, [r6, r1, lsl #1]
 327              	.LVL37:
 328              	.L18:
1158:Middlewares/lvgl/src/draw/lv_draw_rect.c **** 
 329              		.loc 1 1158 13 is_stmt 1 view .LVU118
1158:Middlewares/lvgl/src/draw/lv_draw_rect.c **** 
 330              		.loc 1 1158 15 is_stmt 0 view .LVU119
 331 0108 521A     		subs	r2, r2, r1
 332              	.LVL38:
1161:Middlewares/lvgl/src/draw/lv_draw_rect.c ****             if(y + s_left + 1 < size) bottom_val = sh_ups_buf[(y + s_left + 1) * size + x];
 333              		.loc 1 1161 13 is_stmt 1 view .LVU120
1162:Middlewares/lvgl/src/draw/lv_draw_rect.c ****             else bottom_val = sh_ups_buf[(size - 1) * size + x];
 334              		.loc 1 1162 13 view .LVU121
1162:Middlewares/lvgl/src/draw/lv_draw_rect.c ****             else bottom_val = sh_ups_buf[(size - 1) * size + x];
 335              		.loc 1 1162 18 is_stmt 0 view .LVU122
 336 010a 09EB0301 		add	r1, r9, r3
 337              	.LVL39:
1162:Middlewares/lvgl/src/draw/lv_draw_rect.c ****             else bottom_val = sh_ups_buf[(size - 1) * size + x];
 338              		.loc 1 1162 27 view .LVU123
 339 010e 0131     		adds	r1, r1, #1
1162:Middlewares/lvgl/src/draw/lv_draw_rect.c ****             else bottom_val = sh_ups_buf[(size - 1) * size + x];
 340              		.loc 1 1162 15 view .LVU124
 341 0110 8C42     		cmp	r4, r1
 342 0112 E1DD     		ble	.L19
1162:Middlewares/lvgl/src/draw/lv_draw_rect.c ****             else bottom_val = sh_ups_buf[(size - 1) * size + x];
 343              		.loc 1 1162 39 is_stmt 1 discriminator 1 view .LVU125
1162:Middlewares/lvgl/src/draw/lv_draw_rect.c ****             else bottom_val = sh_ups_buf[(size - 1) * size + x];
 344              		.loc 1 1162 87 is_stmt 0 discriminator 1 view .LVU126
 345 0114 01FB04E1 		mla	r1, r1, r4, lr
1162:Middlewares/lvgl/src/draw/lv_draw_rect.c ****             else bottom_val = sh_ups_buf[(size - 1) * size + x];
 346              		.loc 1 1162 62 discriminator 1 view .LVU127
 347 0118 36F81110 		ldrh	r1, [r6, r1, lsl #1]
 348              	.LVL40:
1162:Middlewares/lvgl/src/draw/lv_draw_rect.c ****             else bottom_val = sh_ups_buf[(size - 1) * size + x];
 349              		.loc 1 1162 62 discriminator 1 view .LVU128
 350 011c E1E7     		b	.L20
 351              	.LVL41:
 352              	.L34:
1162:Middlewares/lvgl/src/draw/lv_draw_rect.c ****             else bottom_val = sh_ups_buf[(size - 1) * size + x];
 353              		.loc 1 1162 62 discriminator 1 view .LVU129
 354              	.LBE195:
1165:Middlewares/lvgl/src/draw/lv_draw_rect.c ****         }
1166:Middlewares/lvgl/src/draw/lv_draw_rect.c **** 
1167:Middlewares/lvgl/src/draw/lv_draw_rect.c ****         /*Write back the result into `sh_ups_buf`*/
1168:Middlewares/lvgl/src/draw/lv_draw_rect.c ****         sh_ups_tmp_buf = &sh_ups_buf[x];
1169:Middlewares/lvgl/src/draw/lv_draw_rect.c ****         for(y = 0; y < size; y++, sh_ups_tmp_buf += size) {
 355              		.loc 1 1169 15 view .LVU130
 356 011e 0023     		movs	r3, #0
 357              	.LVL42:
 358              		.loc 1 1169 15 view .LVU131
 359 0120 04E0     		b	.L22
 360              	.LVL43:
 361              	.L23:
1170:Middlewares/lvgl/src/draw/lv_draw_rect.c ****             (*sh_ups_tmp_buf) = sh_ups_blur_buf[y];
 362              		.loc 1 1170 13 is_stmt 1 discriminator 3 view .LVU132
 363              		.loc 1 1170 48 is_stmt 0 discriminator 3 view .LVU133
 364 0122 35F81320 		ldrh	r2, [r5, r3, lsl #1]
ARM GAS  /tmp/ccUpPomB.s 			page 29


 365              		.loc 1 1170 31 discriminator 3 view .LVU134
 366 0126 0280     		strh	r2, [r0]	@ movhi
1169:Middlewares/lvgl/src/draw/lv_draw_rect.c ****             (*sh_ups_tmp_buf) = sh_ups_blur_buf[y];
 367              		.loc 1 1169 30 is_stmt 1 discriminator 3 view .LVU135
1169:Middlewares/lvgl/src/draw/lv_draw_rect.c ****             (*sh_ups_tmp_buf) = sh_ups_blur_buf[y];
 368              		.loc 1 1169 31 is_stmt 0 discriminator 3 view .LVU136
 369 0128 0133     		adds	r3, r3, #1
 370              	.LVL44:
1169:Middlewares/lvgl/src/draw/lv_draw_rect.c ****             (*sh_ups_tmp_buf) = sh_ups_blur_buf[y];
 371              		.loc 1 1169 50 discriminator 3 view .LVU137
 372 012a 3844     		add	r0, r0, r7
 373              	.LVL45:
 374              	.L22:
1169:Middlewares/lvgl/src/draw/lv_draw_rect.c ****             (*sh_ups_tmp_buf) = sh_ups_blur_buf[y];
 375              		.loc 1 1169 20 is_stmt 1 discriminator 1 view .LVU138
1169:Middlewares/lvgl/src/draw/lv_draw_rect.c ****             (*sh_ups_tmp_buf) = sh_ups_blur_buf[y];
 376              		.loc 1 1169 9 is_stmt 0 discriminator 1 view .LVU139
 377 012c 9C42     		cmp	r4, r3
 378 012e F8DC     		bgt	.L23
 379              	.LBE193:
1148:Middlewares/lvgl/src/draw/lv_draw_rect.c ****         sh_ups_tmp_buf = &sh_ups_buf[x];
 380              		.loc 1 1148 26 is_stmt 1 discriminator 2 view .LVU140
1148:Middlewares/lvgl/src/draw/lv_draw_rect.c ****         sh_ups_tmp_buf = &sh_ups_buf[x];
 381              		.loc 1 1148 27 is_stmt 0 discriminator 2 view .LVU141
 382 0130 0EF1010E 		add	lr, lr, #1
 383              	.LVL46:
 384              	.L14:
1148:Middlewares/lvgl/src/draw/lv_draw_rect.c ****         sh_ups_tmp_buf = &sh_ups_buf[x];
 385              		.loc 1 1148 16 is_stmt 1 discriminator 1 view .LVU142
1148:Middlewares/lvgl/src/draw/lv_draw_rect.c ****         sh_ups_tmp_buf = &sh_ups_buf[x];
 386              		.loc 1 1148 5 is_stmt 0 discriminator 1 view .LVU143
 387 0134 7445     		cmp	r4, lr
 388 0136 09DD     		ble	.L36
 389              	.LBB196:
1149:Middlewares/lvgl/src/draw/lv_draw_rect.c ****         int32_t v = sh_ups_tmp_buf[0] * sw;
 390              		.loc 1 1149 9 is_stmt 1 view .LVU144
1149:Middlewares/lvgl/src/draw/lv_draw_rect.c ****         int32_t v = sh_ups_tmp_buf[0] * sw;
 391              		.loc 1 1149 24 is_stmt 0 view .LVU145
 392 0138 06EB4E00 		add	r0, r6, lr, lsl #1
 393              	.LVL47:
1150:Middlewares/lvgl/src/draw/lv_draw_rect.c ****         for(y = 0; y < size ; y++, sh_ups_tmp_buf += size) {
 394              		.loc 1 1150 9 is_stmt 1 view .LVU146
1150:Middlewares/lvgl/src/draw/lv_draw_rect.c ****         for(y = 0; y < size ; y++, sh_ups_tmp_buf += size) {
 395              		.loc 1 1150 35 is_stmt 0 view .LVU147
 396 013c 36F81E20 		ldrh	r2, [r6, lr, lsl #1]
1150:Middlewares/lvgl/src/draw/lv_draw_rect.c ****         for(y = 0; y < size ; y++, sh_ups_tmp_buf += size) {
 397              		.loc 1 1150 17 view .LVU148
 398 0140 019B     		ldr	r3, [sp, #4]
 399 0142 03FB02F2 		mul	r2, r3, r2
 400              	.LVL48:
1151:Middlewares/lvgl/src/draw/lv_draw_rect.c ****             sh_ups_blur_buf[y] = v < 0 ? 0 : (v >> SHADOW_UPSCALE_SHIFT);
 401              		.loc 1 1151 9 is_stmt 1 view .LVU149
1149:Middlewares/lvgl/src/draw/lv_draw_rect.c ****         int32_t v = sh_ups_tmp_buf[0] * sw;
 402              		.loc 1 1149 24 is_stmt 0 view .LVU150
 403 0146 8446     		mov	ip, r0
1151:Middlewares/lvgl/src/draw/lv_draw_rect.c ****             sh_ups_blur_buf[y] = v < 0 ? 0 : (v >> SHADOW_UPSCALE_SHIFT);
 404              		.loc 1 1151 15 view .LVU151
ARM GAS  /tmp/ccUpPomB.s 			page 30


 405 0148 0023     		movs	r3, #0
1151:Middlewares/lvgl/src/draw/lv_draw_rect.c ****             sh_ups_blur_buf[y] = v < 0 ? 0 : (v >> SHADOW_UPSCALE_SHIFT);
 406              		.loc 1 1151 9 view .LVU152
 407 014a CDE7     		b	.L15
 408              	.LVL49:
 409              	.L36:
1151:Middlewares/lvgl/src/draw/lv_draw_rect.c ****             sh_ups_blur_buf[y] = v < 0 ? 0 : (v >> SHADOW_UPSCALE_SHIFT);
 410              		.loc 1 1151 9 view .LVU153
 411              	.LBE196:
1171:Middlewares/lvgl/src/draw/lv_draw_rect.c ****         }
1172:Middlewares/lvgl/src/draw/lv_draw_rect.c ****     }
1173:Middlewares/lvgl/src/draw/lv_draw_rect.c **** 
1174:Middlewares/lvgl/src/draw/lv_draw_rect.c ****     lv_mem_buf_release(sh_ups_blur_buf);
 412              		.loc 1 1174 5 is_stmt 1 view .LVU154
 413 014c 2846     		mov	r0, r5
 414 014e FFF7FEFF 		bl	lv_mem_buf_release
 415              	.LVL50:
1175:Middlewares/lvgl/src/draw/lv_draw_rect.c **** }
 416              		.loc 1 1175 1 is_stmt 0 view .LVU155
 417 0152 03B0     		add	sp, sp, #12
 418              	.LCFI2:
 419              		.cfi_def_cfa_offset 36
 420              		@ sp needed
 421 0154 BDE8F08F 		pop	{r4, r5, r6, r7, r8, r9, r10, fp, pc}
 422              		.loc 1 1175 1 view .LVU156
 423              		.cfi_endproc
 424              	.LFE155:
 426              		.section	.text.shadow_draw_corner_buf,"ax",%progbits
 427              		.align	1
 428              		.syntax unified
 429              		.thumb
 430              		.thumb_func
 432              	shadow_draw_corner_buf:
 433              	.LVL51:
 434              	.LFB154:
1024:Middlewares/lvgl/src/draw/lv_draw_rect.c ****     int32_t sw_ori = sw;
 435              		.loc 1 1024 1 is_stmt 1 view -0
 436              		.cfi_startproc
 437              		@ args = 0, pretend = 0, frame = 40
 438              		@ frame_needed = 0, uses_anonymous_args = 0
1024:Middlewares/lvgl/src/draw/lv_draw_rect.c ****     int32_t sw_ori = sw;
 439              		.loc 1 1024 1 is_stmt 0 view .LVU158
 440 0000 2DE9F04F 		push	{r4, r5, r6, r7, r8, r9, r10, fp, lr}
 441              	.LCFI3:
 442              		.cfi_def_cfa_offset 36
 443              		.cfi_offset 4, -36
 444              		.cfi_offset 5, -32
 445              		.cfi_offset 6, -28
 446              		.cfi_offset 7, -24
 447              		.cfi_offset 8, -20
 448              		.cfi_offset 9, -16
 449              		.cfi_offset 10, -12
 450              		.cfi_offset 11, -8
 451              		.cfi_offset 14, -4
 452 0004 8DB0     		sub	sp, sp, #52
 453              	.LCFI4:
 454              		.cfi_def_cfa_offset 88
ARM GAS  /tmp/ccUpPomB.s 			page 31


 455 0006 8846     		mov	r8, r1
 456 0008 9146     		mov	r9, r2
 457 000a 1A46     		mov	r2, r3
 458              	.LVL52:
1025:Middlewares/lvgl/src/draw/lv_draw_rect.c ****     int32_t size = sw_ori  + r;
 459              		.loc 1 1025 5 is_stmt 1 view .LVU159
1026:Middlewares/lvgl/src/draw/lv_draw_rect.c **** 
 460              		.loc 1 1026 5 view .LVU160
1026:Middlewares/lvgl/src/draw/lv_draw_rect.c **** 
 461              		.loc 1 1026 13 is_stmt 0 view .LVU161
 462 000c 03EB0904 		add	r4, r3, r9
 463              	.LVL53:
1028:Middlewares/lvgl/src/draw/lv_draw_rect.c ****     lv_area_copy(&sh_area, coords);
 464              		.loc 1 1028 5 is_stmt 1 view .LVU162
1029:Middlewares/lvgl/src/draw/lv_draw_rect.c ****     sh_area.x2 = sw / 2 + r - 1  - ((sw & 1) ? 0 : 1);
 465              		.loc 1 1029 5 view .LVU163
 466              	.LBB197:
 467              	.LBI197:
 468              		.file 2 "Middlewares/lvgl/src/draw/../misc/lv_area.h"
   1:Middlewares/lvgl/src/draw/../misc/lv_area.h **** /**
   2:Middlewares/lvgl/src/draw/../misc/lv_area.h ****  * @file lv_area.h
   3:Middlewares/lvgl/src/draw/../misc/lv_area.h ****  *
   4:Middlewares/lvgl/src/draw/../misc/lv_area.h ****  */
   5:Middlewares/lvgl/src/draw/../misc/lv_area.h **** 
   6:Middlewares/lvgl/src/draw/../misc/lv_area.h **** #ifndef LV_AREA_H
   7:Middlewares/lvgl/src/draw/../misc/lv_area.h **** #define LV_AREA_H
   8:Middlewares/lvgl/src/draw/../misc/lv_area.h **** 
   9:Middlewares/lvgl/src/draw/../misc/lv_area.h **** #ifdef __cplusplus
  10:Middlewares/lvgl/src/draw/../misc/lv_area.h **** extern "C" {
  11:Middlewares/lvgl/src/draw/../misc/lv_area.h **** #endif
  12:Middlewares/lvgl/src/draw/../misc/lv_area.h **** 
  13:Middlewares/lvgl/src/draw/../misc/lv_area.h **** /*********************
  14:Middlewares/lvgl/src/draw/../misc/lv_area.h ****  *      INCLUDES
  15:Middlewares/lvgl/src/draw/../misc/lv_area.h ****  *********************/
  16:Middlewares/lvgl/src/draw/../misc/lv_area.h **** #include "../lv_conf_internal.h"
  17:Middlewares/lvgl/src/draw/../misc/lv_area.h **** #include <string.h>
  18:Middlewares/lvgl/src/draw/../misc/lv_area.h **** #include <stdbool.h>
  19:Middlewares/lvgl/src/draw/../misc/lv_area.h **** #include <stdint.h>
  20:Middlewares/lvgl/src/draw/../misc/lv_area.h **** 
  21:Middlewares/lvgl/src/draw/../misc/lv_area.h **** /*********************
  22:Middlewares/lvgl/src/draw/../misc/lv_area.h ****  *      DEFINES
  23:Middlewares/lvgl/src/draw/../misc/lv_area.h ****  *********************/
  24:Middlewares/lvgl/src/draw/../misc/lv_area.h **** 
  25:Middlewares/lvgl/src/draw/../misc/lv_area.h **** #define _LV_COORD_MAX_REDUCE    8192
  26:Middlewares/lvgl/src/draw/../misc/lv_area.h **** 
  27:Middlewares/lvgl/src/draw/../misc/lv_area.h **** #if LV_USE_LARGE_COORD
  28:Middlewares/lvgl/src/draw/../misc/lv_area.h **** typedef int32_t lv_coord_t;
  29:Middlewares/lvgl/src/draw/../misc/lv_area.h **** #else
  30:Middlewares/lvgl/src/draw/../misc/lv_area.h **** typedef int16_t lv_coord_t;
  31:Middlewares/lvgl/src/draw/../misc/lv_area.h **** #endif
  32:Middlewares/lvgl/src/draw/../misc/lv_area.h **** 
  33:Middlewares/lvgl/src/draw/../misc/lv_area.h **** /*To allow some special values in the end reduce the max value*/
  34:Middlewares/lvgl/src/draw/../misc/lv_area.h **** #define LV_COORD_MAX ((lv_coord_t)((uint32_t)((uint32_t)1 << (8 * sizeof(lv_coord_t) - 1)) - _LV_CO
  35:Middlewares/lvgl/src/draw/../misc/lv_area.h **** #define LV_COORD_MIN (-LV_COORD_MAX)
  36:Middlewares/lvgl/src/draw/../misc/lv_area.h **** 
  37:Middlewares/lvgl/src/draw/../misc/lv_area.h **** LV_EXPORT_CONST_INT(LV_COORD_MAX);
  38:Middlewares/lvgl/src/draw/../misc/lv_area.h **** LV_EXPORT_CONST_INT(LV_COORD_MIN);
ARM GAS  /tmp/ccUpPomB.s 			page 32


  39:Middlewares/lvgl/src/draw/../misc/lv_area.h **** 
  40:Middlewares/lvgl/src/draw/../misc/lv_area.h **** /**********************
  41:Middlewares/lvgl/src/draw/../misc/lv_area.h ****  *      TYPEDEFS
  42:Middlewares/lvgl/src/draw/../misc/lv_area.h ****  **********************/
  43:Middlewares/lvgl/src/draw/../misc/lv_area.h **** 
  44:Middlewares/lvgl/src/draw/../misc/lv_area.h **** /**
  45:Middlewares/lvgl/src/draw/../misc/lv_area.h ****  * Represents a point on the screen.
  46:Middlewares/lvgl/src/draw/../misc/lv_area.h ****  */
  47:Middlewares/lvgl/src/draw/../misc/lv_area.h **** typedef struct {
  48:Middlewares/lvgl/src/draw/../misc/lv_area.h ****     lv_coord_t x;
  49:Middlewares/lvgl/src/draw/../misc/lv_area.h ****     lv_coord_t y;
  50:Middlewares/lvgl/src/draw/../misc/lv_area.h **** } lv_point_t;
  51:Middlewares/lvgl/src/draw/../misc/lv_area.h **** 
  52:Middlewares/lvgl/src/draw/../misc/lv_area.h **** /** Represents an area of the screen.*/
  53:Middlewares/lvgl/src/draw/../misc/lv_area.h **** typedef struct {
  54:Middlewares/lvgl/src/draw/../misc/lv_area.h ****     lv_coord_t x1;
  55:Middlewares/lvgl/src/draw/../misc/lv_area.h ****     lv_coord_t y1;
  56:Middlewares/lvgl/src/draw/../misc/lv_area.h ****     lv_coord_t x2;
  57:Middlewares/lvgl/src/draw/../misc/lv_area.h ****     lv_coord_t y2;
  58:Middlewares/lvgl/src/draw/../misc/lv_area.h **** } lv_area_t;
  59:Middlewares/lvgl/src/draw/../misc/lv_area.h **** 
  60:Middlewares/lvgl/src/draw/../misc/lv_area.h **** /** Alignments*/
  61:Middlewares/lvgl/src/draw/../misc/lv_area.h **** enum {
  62:Middlewares/lvgl/src/draw/../misc/lv_area.h ****     LV_ALIGN_DEFAULT = 0,
  63:Middlewares/lvgl/src/draw/../misc/lv_area.h ****     LV_ALIGN_TOP_LEFT,
  64:Middlewares/lvgl/src/draw/../misc/lv_area.h ****     LV_ALIGN_TOP_MID,
  65:Middlewares/lvgl/src/draw/../misc/lv_area.h ****     LV_ALIGN_TOP_RIGHT,
  66:Middlewares/lvgl/src/draw/../misc/lv_area.h ****     LV_ALIGN_BOTTOM_LEFT,
  67:Middlewares/lvgl/src/draw/../misc/lv_area.h ****     LV_ALIGN_BOTTOM_MID,
  68:Middlewares/lvgl/src/draw/../misc/lv_area.h ****     LV_ALIGN_BOTTOM_RIGHT,
  69:Middlewares/lvgl/src/draw/../misc/lv_area.h ****     LV_ALIGN_LEFT_MID,
  70:Middlewares/lvgl/src/draw/../misc/lv_area.h ****     LV_ALIGN_RIGHT_MID,
  71:Middlewares/lvgl/src/draw/../misc/lv_area.h ****     LV_ALIGN_CENTER,
  72:Middlewares/lvgl/src/draw/../misc/lv_area.h **** 
  73:Middlewares/lvgl/src/draw/../misc/lv_area.h ****     LV_ALIGN_OUT_TOP_LEFT,
  74:Middlewares/lvgl/src/draw/../misc/lv_area.h ****     LV_ALIGN_OUT_TOP_MID,
  75:Middlewares/lvgl/src/draw/../misc/lv_area.h ****     LV_ALIGN_OUT_TOP_RIGHT,
  76:Middlewares/lvgl/src/draw/../misc/lv_area.h ****     LV_ALIGN_OUT_BOTTOM_LEFT,
  77:Middlewares/lvgl/src/draw/../misc/lv_area.h ****     LV_ALIGN_OUT_BOTTOM_MID,
  78:Middlewares/lvgl/src/draw/../misc/lv_area.h ****     LV_ALIGN_OUT_BOTTOM_RIGHT,
  79:Middlewares/lvgl/src/draw/../misc/lv_area.h ****     LV_ALIGN_OUT_LEFT_TOP,
  80:Middlewares/lvgl/src/draw/../misc/lv_area.h ****     LV_ALIGN_OUT_LEFT_MID,
  81:Middlewares/lvgl/src/draw/../misc/lv_area.h ****     LV_ALIGN_OUT_LEFT_BOTTOM,
  82:Middlewares/lvgl/src/draw/../misc/lv_area.h ****     LV_ALIGN_OUT_RIGHT_TOP,
  83:Middlewares/lvgl/src/draw/../misc/lv_area.h ****     LV_ALIGN_OUT_RIGHT_MID,
  84:Middlewares/lvgl/src/draw/../misc/lv_area.h ****     LV_ALIGN_OUT_RIGHT_BOTTOM,
  85:Middlewares/lvgl/src/draw/../misc/lv_area.h **** };
  86:Middlewares/lvgl/src/draw/../misc/lv_area.h **** typedef uint8_t lv_align_t;
  87:Middlewares/lvgl/src/draw/../misc/lv_area.h **** 
  88:Middlewares/lvgl/src/draw/../misc/lv_area.h **** enum {
  89:Middlewares/lvgl/src/draw/../misc/lv_area.h ****     LV_DIR_NONE     = 0x00,
  90:Middlewares/lvgl/src/draw/../misc/lv_area.h ****     LV_DIR_LEFT     = (1 << 0),
  91:Middlewares/lvgl/src/draw/../misc/lv_area.h ****     LV_DIR_RIGHT    = (1 << 1),
  92:Middlewares/lvgl/src/draw/../misc/lv_area.h ****     LV_DIR_TOP      = (1 << 2),
  93:Middlewares/lvgl/src/draw/../misc/lv_area.h ****     LV_DIR_BOTTOM   = (1 << 3),
  94:Middlewares/lvgl/src/draw/../misc/lv_area.h ****     LV_DIR_HOR      = LV_DIR_LEFT | LV_DIR_RIGHT,
  95:Middlewares/lvgl/src/draw/../misc/lv_area.h ****     LV_DIR_VER      = LV_DIR_TOP | LV_DIR_BOTTOM,
ARM GAS  /tmp/ccUpPomB.s 			page 33


  96:Middlewares/lvgl/src/draw/../misc/lv_area.h ****     LV_DIR_ALL      = LV_DIR_HOR | LV_DIR_VER,
  97:Middlewares/lvgl/src/draw/../misc/lv_area.h **** };
  98:Middlewares/lvgl/src/draw/../misc/lv_area.h **** 
  99:Middlewares/lvgl/src/draw/../misc/lv_area.h **** typedef uint8_t lv_dir_t;
 100:Middlewares/lvgl/src/draw/../misc/lv_area.h **** 
 101:Middlewares/lvgl/src/draw/../misc/lv_area.h **** /**********************
 102:Middlewares/lvgl/src/draw/../misc/lv_area.h ****  * GLOBAL PROTOTYPES
 103:Middlewares/lvgl/src/draw/../misc/lv_area.h ****  **********************/
 104:Middlewares/lvgl/src/draw/../misc/lv_area.h **** 
 105:Middlewares/lvgl/src/draw/../misc/lv_area.h **** /**
 106:Middlewares/lvgl/src/draw/../misc/lv_area.h ****  * Initialize an area
 107:Middlewares/lvgl/src/draw/../misc/lv_area.h ****  * @param area_p pointer to an area
 108:Middlewares/lvgl/src/draw/../misc/lv_area.h ****  * @param x1 left coordinate of the area
 109:Middlewares/lvgl/src/draw/../misc/lv_area.h ****  * @param y1 top coordinate of the area
 110:Middlewares/lvgl/src/draw/../misc/lv_area.h ****  * @param x2 right coordinate of the area
 111:Middlewares/lvgl/src/draw/../misc/lv_area.h ****  * @param y2 bottom coordinate of the area
 112:Middlewares/lvgl/src/draw/../misc/lv_area.h ****  */
 113:Middlewares/lvgl/src/draw/../misc/lv_area.h **** void lv_area_set(lv_area_t * area_p, lv_coord_t x1, lv_coord_t y1, lv_coord_t x2, lv_coord_t y2);
 114:Middlewares/lvgl/src/draw/../misc/lv_area.h **** 
 115:Middlewares/lvgl/src/draw/../misc/lv_area.h **** /**
 116:Middlewares/lvgl/src/draw/../misc/lv_area.h ****  * Copy an area
 117:Middlewares/lvgl/src/draw/../misc/lv_area.h ****  * @param dest pointer to the destination area
 118:Middlewares/lvgl/src/draw/../misc/lv_area.h ****  * @param src pointer to the source area
 119:Middlewares/lvgl/src/draw/../misc/lv_area.h ****  */
 120:Middlewares/lvgl/src/draw/../misc/lv_area.h **** inline static void lv_area_copy(lv_area_t * dest, const lv_area_t * src)
 469              		.loc 2 120 20 view .LVU164
 470              	.LBB198:
 121:Middlewares/lvgl/src/draw/../misc/lv_area.h **** {
 122:Middlewares/lvgl/src/draw/../misc/lv_area.h ****     dest->x1 = src->x1;
 471              		.loc 2 122 5 view .LVU165
 472              		.loc 2 122 19 is_stmt 0 view .LVU166
 473 0010 B0F90030 		ldrsh	r3, [r0]
 474              	.LVL54:
 475              		.loc 2 122 14 view .LVU167
 476 0014 ADF82830 		strh	r3, [sp, #40]	@ movhi
 123:Middlewares/lvgl/src/draw/../misc/lv_area.h ****     dest->y1 = src->y1;
 477              		.loc 2 123 5 is_stmt 1 view .LVU168
 478              		.loc 2 123 19 is_stmt 0 view .LVU169
 479 0018 B0F90230 		ldrsh	r3, [r0, #2]
 480              		.loc 2 123 14 view .LVU170
 481 001c ADF82A30 		strh	r3, [sp, #42]	@ movhi
 124:Middlewares/lvgl/src/draw/../misc/lv_area.h ****     dest->x2 = src->x2;
 482              		.loc 2 124 5 is_stmt 1 view .LVU171
 483              		.loc 2 124 19 is_stmt 0 view .LVU172
 484 0020 B0F90430 		ldrsh	r3, [r0, #4]
 485              		.loc 2 124 14 view .LVU173
 486 0024 ADF82C30 		strh	r3, [sp, #44]	@ movhi
 125:Middlewares/lvgl/src/draw/../misc/lv_area.h ****     dest->y2 = src->y2;
 487              		.loc 2 125 5 is_stmt 1 view .LVU174
 488              		.loc 2 125 19 is_stmt 0 view .LVU175
 489 0028 B0F90630 		ldrsh	r3, [r0, #6]
 490              		.loc 2 125 14 view .LVU176
 491 002c ADF82E30 		strh	r3, [sp, #46]	@ movhi
 492              	.LVL55:
 493              		.loc 2 125 14 view .LVU177
 494              	.LBE198:
 495              	.LBE197:
ARM GAS  /tmp/ccUpPomB.s 			page 34


1030:Middlewares/lvgl/src/draw/lv_draw_rect.c ****     sh_area.y1 = sw / 2 + 1;
 496              		.loc 1 1030 5 is_stmt 1 view .LVU178
1030:Middlewares/lvgl/src/draw/lv_draw_rect.c ****     sh_area.y1 = sw / 2 + 1;
 497              		.loc 1 1030 25 is_stmt 0 view .LVU179
 498 0030 4946     		mov	r1, r9
 499              	.LVL56:
1030:Middlewares/lvgl/src/draw/lv_draw_rect.c ****     sh_area.y1 = sw / 2 + 1;
 500              		.loc 1 1030 25 view .LVU180
 501 0032 B9F1000F 		cmp	r9, #0
 502 0036 35DB     		blt	.L63
 503              	.L38:
1030:Middlewares/lvgl/src/draw/lv_draw_rect.c ****     sh_area.y1 = sw / 2 + 1;
 504              		.loc 1 1030 25 view .LVU181
 505 0038 C1F34F01 		ubfx	r1, r1, #1, #16
 506 003c 8B18     		adds	r3, r1, r2
 507 003e 9BB2     		uxth	r3, r3
1030:Middlewares/lvgl/src/draw/lv_draw_rect.c ****     sh_area.y1 = sw / 2 + 1;
 508              		.loc 1 1030 50 view .LVU182
 509 0040 19F0010A 		ands	r10, r9, #1
 510 0044 0CBF     		ite	eq
 511 0046 0125     		moveq	r5, #1
 512 0048 0025     		movne	r5, #0
1030:Middlewares/lvgl/src/draw/lv_draw_rect.c ****     sh_area.y1 = sw / 2 + 1;
 513              		.loc 1 1030 34 view .LVU183
 514 004a 5B1B     		subs	r3, r3, r5
 515 004c 013B     		subs	r3, r3, #1
 516 004e 9EB2     		uxth	r6, r3
1030:Middlewares/lvgl/src/draw/lv_draw_rect.c ****     sh_area.y1 = sw / 2 + 1;
 517              		.loc 1 1030 16 view .LVU184
 518 0050 ADF82C30 		strh	r3, [sp, #44]	@ movhi
1031:Middlewares/lvgl/src/draw/lv_draw_rect.c **** 
 519              		.loc 1 1031 5 is_stmt 1 view .LVU185
1031:Middlewares/lvgl/src/draw/lv_draw_rect.c **** 
 520              		.loc 1 1031 25 is_stmt 0 view .LVU186
 521 0054 0131     		adds	r1, r1, #1
1031:Middlewares/lvgl/src/draw/lv_draw_rect.c **** 
 522              		.loc 1 1031 16 view .LVU187
 523 0056 ADF82A10 		strh	r1, [sp, #42]	@ movhi
1033:Middlewares/lvgl/src/draw/lv_draw_rect.c ****     sh_area.y2 = sh_area.y1 + lv_area_get_height(coords);
 524              		.loc 1 1033 5 is_stmt 1 view .LVU188
 525              	.LVL57:
 526              	.LBB199:
 527              	.LBI199:
 126:Middlewares/lvgl/src/draw/../misc/lv_area.h **** }
 127:Middlewares/lvgl/src/draw/../misc/lv_area.h **** 
 128:Middlewares/lvgl/src/draw/../misc/lv_area.h **** /**
 129:Middlewares/lvgl/src/draw/../misc/lv_area.h ****  * Get the width of an area
 130:Middlewares/lvgl/src/draw/../misc/lv_area.h ****  * @param area_p pointer to an area
 131:Middlewares/lvgl/src/draw/../misc/lv_area.h ****  * @return the width of the area (if x1 == x2 -> width = 1)
 132:Middlewares/lvgl/src/draw/../misc/lv_area.h ****  */
 133:Middlewares/lvgl/src/draw/../misc/lv_area.h **** static inline lv_coord_t lv_area_get_width(const lv_area_t * area_p)
 528              		.loc 2 133 26 view .LVU189
 529              	.LBB200:
 134:Middlewares/lvgl/src/draw/../misc/lv_area.h **** {
 135:Middlewares/lvgl/src/draw/../misc/lv_area.h ****     return (lv_coord_t)(area_p->x2 - area_p->x1 + 1);
 530              		.loc 2 135 5 view .LVU190
 531              		.loc 2 135 31 is_stmt 0 view .LVU191
ARM GAS  /tmp/ccUpPomB.s 			page 35


 532 005a 8588     		ldrh	r5, [r0, #4]
 533              		.loc 2 135 44 view .LVU192
 534 005c 0388     		ldrh	r3, [r0]
 535              		.loc 2 135 36 view .LVU193
 536 005e ED1A     		subs	r5, r5, r3
 537 0060 ADB2     		uxth	r5, r5
 538              		.loc 2 135 49 view .LVU194
 539 0062 0135     		adds	r5, r5, #1
 540 0064 ADB2     		uxth	r5, r5
 541              	.LVL58:
 542              		.loc 2 135 49 view .LVU195
 543              	.LBE200:
 544              	.LBE199:
1033:Middlewares/lvgl/src/draw/lv_draw_rect.c ****     sh_area.y2 = sh_area.y1 + lv_area_get_height(coords);
 545              		.loc 1 1033 29 view .LVU196
 546 0066 751B     		subs	r5, r6, r5
1033:Middlewares/lvgl/src/draw/lv_draw_rect.c ****     sh_area.y2 = sh_area.y1 + lv_area_get_height(coords);
 547              		.loc 1 1033 16 view .LVU197
 548 0068 ADF82850 		strh	r5, [sp, #40]	@ movhi
1034:Middlewares/lvgl/src/draw/lv_draw_rect.c **** 
 549              		.loc 1 1034 5 is_stmt 1 view .LVU198
 550              	.LVL59:
 551              	.LBB201:
 552              	.LBI201:
 136:Middlewares/lvgl/src/draw/../misc/lv_area.h **** }
 137:Middlewares/lvgl/src/draw/../misc/lv_area.h **** 
 138:Middlewares/lvgl/src/draw/../misc/lv_area.h **** /**
 139:Middlewares/lvgl/src/draw/../misc/lv_area.h ****  * Get the height of an area
 140:Middlewares/lvgl/src/draw/../misc/lv_area.h ****  * @param area_p pointer to an area
 141:Middlewares/lvgl/src/draw/../misc/lv_area.h ****  * @return the height of the area (if y1 == y2 -> height = 1)
 142:Middlewares/lvgl/src/draw/../misc/lv_area.h ****  */
 143:Middlewares/lvgl/src/draw/../misc/lv_area.h **** static inline lv_coord_t lv_area_get_height(const lv_area_t * area_p)
 553              		.loc 2 143 26 view .LVU199
 554              	.LBB202:
 144:Middlewares/lvgl/src/draw/../misc/lv_area.h **** {
 145:Middlewares/lvgl/src/draw/../misc/lv_area.h ****     return (lv_coord_t)(area_p->y2 - area_p->y1 + 1);
 555              		.loc 2 145 5 view .LVU200
 556              		.loc 2 145 31 is_stmt 0 view .LVU201
 557 006c C588     		ldrh	r5, [r0, #6]
 558              		.loc 2 145 44 view .LVU202
 559 006e 4088     		ldrh	r0, [r0, #2]
 560              	.LVL60:
 561              		.loc 2 145 36 view .LVU203
 562 0070 281A     		subs	r0, r5, r0
 563 0072 80B2     		uxth	r0, r0
 564              		.loc 2 145 49 view .LVU204
 565 0074 0130     		adds	r0, r0, #1
 566 0076 80B2     		uxth	r0, r0
 567              	.LVL61:
 568              		.loc 2 145 49 view .LVU205
 569              	.LBE202:
 570              	.LBE201:
1034:Middlewares/lvgl/src/draw/lv_draw_rect.c **** 
 571              		.loc 1 1034 29 view .LVU206
 572 0078 10FA81F1 		uxtah	r1, r0, r1
1034:Middlewares/lvgl/src/draw/lv_draw_rect.c **** 
 573              		.loc 1 1034 16 view .LVU207
ARM GAS  /tmp/ccUpPomB.s 			page 36


 574 007c ADF82E10 		strh	r1, [sp, #46]	@ movhi
1036:Middlewares/lvgl/src/draw/lv_draw_rect.c ****     lv_draw_mask_radius_init(&mask_param, &sh_area, r, false);
 575              		.loc 1 1036 5 is_stmt 1 view .LVU208
1037:Middlewares/lvgl/src/draw/lv_draw_rect.c **** 
 576              		.loc 1 1037 5 view .LVU209
 577 0080 0023     		movs	r3, #0
 578 0082 0AA9     		add	r1, sp, #40
 579 0084 03A8     		add	r0, sp, #12
 580 0086 FFF7FEFF 		bl	lv_draw_mask_radius_init
 581              	.LVL62:
1041:Middlewares/lvgl/src/draw/lv_draw_rect.c ****     else sw = sw_ori >> 1;
 582              		.loc 1 1041 5 view .LVU210
1041:Middlewares/lvgl/src/draw/lv_draw_rect.c ****     else sw = sw_ori >> 1;
 583              		.loc 1 1041 7 is_stmt 0 view .LVU211
 584 008a B9F1010F 		cmp	r9, #1
 585 008e 0CD0     		beq	.L59
1042:Middlewares/lvgl/src/draw/lv_draw_rect.c **** #endif
 586              		.loc 1 1042 10 is_stmt 1 view .LVU212
1042:Middlewares/lvgl/src/draw/lv_draw_rect.c **** #endif
 587              		.loc 1 1042 13 is_stmt 0 view .LVU213
 588 0090 4FEA6909 		asr	r9, r9, #1
 589              	.LVL63:
 590              	.L39:
1045:Middlewares/lvgl/src/draw/lv_draw_rect.c ****     lv_opa_t * mask_line = lv_mem_buf_get(size);
 591              		.loc 1 1045 5 is_stmt 1 view .LVU214
1046:Middlewares/lvgl/src/draw/lv_draw_rect.c ****     uint16_t * sh_ups_tmp_buf = (uint16_t *)sh_buf;
 592              		.loc 1 1046 5 view .LVU215
1046:Middlewares/lvgl/src/draw/lv_draw_rect.c ****     uint16_t * sh_ups_tmp_buf = (uint16_t *)sh_buf;
 593              		.loc 1 1046 28 is_stmt 0 view .LVU216
 594 0094 2046     		mov	r0, r4
 595 0096 FFF7FEFF 		bl	lv_mem_buf_get
 596              	.LVL64:
 597 009a 0546     		mov	r5, r0
 598              	.LVL65:
1047:Middlewares/lvgl/src/draw/lv_draw_rect.c ****     for(y = 0; y < size; y++) {
 599              		.loc 1 1047 5 is_stmt 1 view .LVU217
1048:Middlewares/lvgl/src/draw/lv_draw_rect.c ****         lv_memset_ff(mask_line, size);
 600              		.loc 1 1048 5 view .LVU218
1047:Middlewares/lvgl/src/draw/lv_draw_rect.c ****     for(y = 0; y < size; y++) {
 601              		.loc 1 1047 16 is_stmt 0 view .LVU219
 602 009c 4646     		mov	r6, r8
1048:Middlewares/lvgl/src/draw/lv_draw_rect.c ****         lv_memset_ff(mask_line, size);
 603              		.loc 1 1048 11 view .LVU220
 604 009e 4FF0000B 		mov	fp, #0
1048:Middlewares/lvgl/src/draw/lv_draw_rect.c ****         lv_memset_ff(mask_line, size);
 605              		.loc 1 1048 5 view .LVU221
 606 00a2 27E0     		b	.L40
 607              	.LVL66:
 608              	.L63:
1030:Middlewares/lvgl/src/draw/lv_draw_rect.c ****     sh_area.y1 = sw / 2 + 1;
 609              		.loc 1 1030 25 view .LVU222
 610 00a4 09F10101 		add	r1, r9, #1
 611              	.LVL67:
1030:Middlewares/lvgl/src/draw/lv_draw_rect.c ****     sh_area.y1 = sw / 2 + 1;
 612              		.loc 1 1030 25 view .LVU223
 613 00a8 C6E7     		b	.L38
 614              	.LVL68:
ARM GAS  /tmp/ccUpPomB.s 			page 37


 615              	.L59:
1041:Middlewares/lvgl/src/draw/lv_draw_rect.c ****     else sw = sw_ori >> 1;
 616              		.loc 1 1041 24 view .LVU224
 617 00aa 4FF00109 		mov	r9, #1
 618              	.LVL69:
1041:Middlewares/lvgl/src/draw/lv_draw_rect.c ****     else sw = sw_ori >> 1;
 619              		.loc 1 1041 24 view .LVU225
 620 00ae F1E7     		b	.L39
 621              	.LVL70:
 622              	.L41:
 623              	.LBB203:
 624              	.LBB204:
1055:Middlewares/lvgl/src/draw/lv_draw_rect.c ****             sh_ups_tmp_buf[0] = (mask_line[0] << SHADOW_UPSCALE_SHIFT) / sw;
 625              		.loc 1 1055 13 is_stmt 1 view .LVU226
1056:Middlewares/lvgl/src/draw/lv_draw_rect.c ****             for(i = 1; i < size; i++) {
 626              		.loc 1 1056 13 view .LVU227
1056:Middlewares/lvgl/src/draw/lv_draw_rect.c ****             for(i = 1; i < size; i++) {
 627              		.loc 1 1056 43 is_stmt 0 view .LVU228
 628 00b0 2B78     		ldrb	r3, [r5]	@ zero_extendqisi2
1056:Middlewares/lvgl/src/draw/lv_draw_rect.c ****             for(i = 1; i < size; i++) {
 629              		.loc 1 1056 47 view .LVU229
 630 00b2 9B01     		lsls	r3, r3, #6
1056:Middlewares/lvgl/src/draw/lv_draw_rect.c ****             for(i = 1; i < size; i++) {
 631              		.loc 1 1056 72 view .LVU230
 632 00b4 4846     		mov	r0, r9
 633              	.LVL71:
1056:Middlewares/lvgl/src/draw/lv_draw_rect.c ****             for(i = 1; i < size; i++) {
 634              		.loc 1 1056 72 view .LVU231
 635 00b6 93FBF9F3 		sdiv	r3, r3, r9
1056:Middlewares/lvgl/src/draw/lv_draw_rect.c ****             for(i = 1; i < size; i++) {
 636              		.loc 1 1056 31 view .LVU232
 637 00ba 3380     		strh	r3, [r6]	@ movhi
1057:Middlewares/lvgl/src/draw/lv_draw_rect.c ****                 if(mask_line[i] == mask_line[i - 1]) sh_ups_tmp_buf[i] = sh_ups_tmp_buf[i - 1];
 638              		.loc 1 1057 13 is_stmt 1 view .LVU233
 639              	.LVL72:
1057:Middlewares/lvgl/src/draw/lv_draw_rect.c ****                 if(mask_line[i] == mask_line[i - 1]) sh_ups_tmp_buf[i] = sh_ups_tmp_buf[i - 1];
 640              		.loc 1 1057 19 is_stmt 0 view .LVU234
 641 00bc 0123     		movs	r3, #1
1057:Middlewares/lvgl/src/draw/lv_draw_rect.c ****                 if(mask_line[i] == mask_line[i - 1]) sh_ups_tmp_buf[i] = sh_ups_tmp_buf[i - 1];
 642              		.loc 1 1057 13 view .LVU235
 643 00be 07E0     		b	.L43
 644              	.LVL73:
 645              	.L64:
1058:Middlewares/lvgl/src/draw/lv_draw_rect.c ****                 else  sh_ups_tmp_buf[i] = (mask_line[i] << SHADOW_UPSCALE_SHIFT) / sw;
 646              		.loc 1 1058 54 is_stmt 1 discriminator 1 view .LVU236
1058:Middlewares/lvgl/src/draw/lv_draw_rect.c ****                 else  sh_ups_tmp_buf[i] = (mask_line[i] << SHADOW_UPSCALE_SHIFT) / sw;
 647              		.loc 1 1058 88 is_stmt 0 discriminator 1 view .LVU237
 648 00c0 6FF00042 		mvn	r2, #-2147483648
 649 00c4 1A44     		add	r2, r2, r3
 650 00c6 36F81220 		ldrh	r2, [r6, r2, lsl #1]
1058:Middlewares/lvgl/src/draw/lv_draw_rect.c ****                 else  sh_ups_tmp_buf[i] = (mask_line[i] << SHADOW_UPSCALE_SHIFT) / sw;
 651              		.loc 1 1058 72 discriminator 1 view .LVU238
 652 00ca 26F81320 		strh	r2, [r6, r3, lsl #1]	@ movhi
 653              	.L45:
1057:Middlewares/lvgl/src/draw/lv_draw_rect.c ****                 if(mask_line[i] == mask_line[i - 1]) sh_ups_tmp_buf[i] = sh_ups_tmp_buf[i - 1];
 654              		.loc 1 1057 34 is_stmt 1 discriminator 2 view .LVU239
1057:Middlewares/lvgl/src/draw/lv_draw_rect.c ****                 if(mask_line[i] == mask_line[i - 1]) sh_ups_tmp_buf[i] = sh_ups_tmp_buf[i - 1];
ARM GAS  /tmp/ccUpPomB.s 			page 38


 655              		.loc 1 1057 35 is_stmt 0 discriminator 2 view .LVU240
 656 00ce 0133     		adds	r3, r3, #1
 657              	.LVL74:
 658              	.L43:
1057:Middlewares/lvgl/src/draw/lv_draw_rect.c ****                 if(mask_line[i] == mask_line[i - 1]) sh_ups_tmp_buf[i] = sh_ups_tmp_buf[i - 1];
 659              		.loc 1 1057 24 is_stmt 1 discriminator 1 view .LVU241
1057:Middlewares/lvgl/src/draw/lv_draw_rect.c ****                 if(mask_line[i] == mask_line[i - 1]) sh_ups_tmp_buf[i] = sh_ups_tmp_buf[i - 1];
 660              		.loc 1 1057 13 is_stmt 0 discriminator 1 view .LVU242
 661 00d0 A342     		cmp	r3, r4
 662 00d2 0BDA     		bge	.L42
1058:Middlewares/lvgl/src/draw/lv_draw_rect.c ****                 else  sh_ups_tmp_buf[i] = (mask_line[i] << SHADOW_UPSCALE_SHIFT) / sw;
 663              		.loc 1 1058 17 is_stmt 1 view .LVU243
1058:Middlewares/lvgl/src/draw/lv_draw_rect.c ****                 else  sh_ups_tmp_buf[i] = (mask_line[i] << SHADOW_UPSCALE_SHIFT) / sw;
 664              		.loc 1 1058 29 is_stmt 0 view .LVU244
 665 00d4 EA5C     		ldrb	r2, [r5, r3]	@ zero_extendqisi2
1058:Middlewares/lvgl/src/draw/lv_draw_rect.c ****                 else  sh_ups_tmp_buf[i] = (mask_line[i] << SHADOW_UPSCALE_SHIFT) / sw;
 666              		.loc 1 1058 45 view .LVU245
 667 00d6 E918     		adds	r1, r5, r3
 668 00d8 11F8011C 		ldrb	r1, [r1, #-1]	@ zero_extendqisi2
1058:Middlewares/lvgl/src/draw/lv_draw_rect.c ****                 else  sh_ups_tmp_buf[i] = (mask_line[i] << SHADOW_UPSCALE_SHIFT) / sw;
 669              		.loc 1 1058 19 view .LVU246
 670 00dc 8A42     		cmp	r2, r1
 671 00de EFD0     		beq	.L64
1059:Middlewares/lvgl/src/draw/lv_draw_rect.c ****             }
 672              		.loc 1 1059 23 is_stmt 1 view .LVU247
1059:Middlewares/lvgl/src/draw/lv_draw_rect.c ****             }
 673              		.loc 1 1059 57 is_stmt 0 view .LVU248
 674 00e0 9201     		lsls	r2, r2, #6
1059:Middlewares/lvgl/src/draw/lv_draw_rect.c ****             }
 675              		.loc 1 1059 82 view .LVU249
 676 00e2 92FBF0F2 		sdiv	r2, r2, r0
1059:Middlewares/lvgl/src/draw/lv_draw_rect.c ****             }
 677              		.loc 1 1059 41 view .LVU250
 678 00e6 26F81320 		strh	r2, [r6, r3, lsl #1]	@ movhi
 679 00ea F0E7     		b	.L45
 680              	.LVL75:
 681              	.L42:
1059:Middlewares/lvgl/src/draw/lv_draw_rect.c ****             }
 682              		.loc 1 1059 41 view .LVU251
 683              	.LBE204:
1063:Middlewares/lvgl/src/draw/lv_draw_rect.c ****     }
 684              		.loc 1 1063 9 is_stmt 1 discriminator 2 view .LVU252
1063:Middlewares/lvgl/src/draw/lv_draw_rect.c ****     }
 685              		.loc 1 1063 24 is_stmt 0 discriminator 2 view .LVU253
 686 00ec 06EB4406 		add	r6, r6, r4, lsl #1
 687              	.LVL76:
1063:Middlewares/lvgl/src/draw/lv_draw_rect.c ****     }
 688              		.loc 1 1063 24 discriminator 2 view .LVU254
 689              	.LBE203:
1048:Middlewares/lvgl/src/draw/lv_draw_rect.c ****         lv_memset_ff(mask_line, size);
 690              		.loc 1 1048 26 is_stmt 1 discriminator 2 view .LVU255
1048:Middlewares/lvgl/src/draw/lv_draw_rect.c ****         lv_memset_ff(mask_line, size);
 691              		.loc 1 1048 27 is_stmt 0 discriminator 2 view .LVU256
 692 00f0 0BF1010B 		add	fp, fp, #1
 693              	.LVL77:
 694              	.L40:
1048:Middlewares/lvgl/src/draw/lv_draw_rect.c ****         lv_memset_ff(mask_line, size);
ARM GAS  /tmp/ccUpPomB.s 			page 39


 695              		.loc 1 1048 16 is_stmt 1 discriminator 1 view .LVU257
1048:Middlewares/lvgl/src/draw/lv_draw_rect.c ****         lv_memset_ff(mask_line, size);
 696              		.loc 1 1048 5 is_stmt 0 discriminator 1 view .LVU258
 697 00f4 A345     		cmp	fp, r4
 698 00f6 13DA     		bge	.L65
 699              	.LBB205:
1049:Middlewares/lvgl/src/draw/lv_draw_rect.c ****         lv_draw_mask_res_t mask_res = mask_param.dsc.cb(mask_line, 0, y, size, &mask_param);
 700              		.loc 1 1049 9 is_stmt 1 view .LVU259
 701 00f8 2146     		mov	r1, r4
 702 00fa 2846     		mov	r0, r5
 703 00fc FFF7FEFF 		bl	lv_memset_ff
 704              	.LVL78:
1050:Middlewares/lvgl/src/draw/lv_draw_rect.c ****         if(mask_res == LV_DRAW_MASK_RES_TRANSP) {
 705              		.loc 1 1050 9 view .LVU260
1050:Middlewares/lvgl/src/draw/lv_draw_rect.c ****         if(mask_res == LV_DRAW_MASK_RES_TRANSP) {
 706              		.loc 1 1050 39 is_stmt 0 view .LVU261
 707 0100 03AB     		add	r3, sp, #12
 708 0102 0093     		str	r3, [sp]
 709 0104 23B2     		sxth	r3, r4
 710 0106 0FFA8BF2 		sxth	r2, fp
 711 010a 0021     		movs	r1, #0
 712 010c 2846     		mov	r0, r5
 713 010e 039F     		ldr	r7, [sp, #12]
 714 0110 B847     		blx	r7
 715              	.LVL79:
1051:Middlewares/lvgl/src/draw/lv_draw_rect.c ****             lv_memset_00(sh_ups_tmp_buf, size * sizeof(sh_ups_tmp_buf[0]));
 716              		.loc 1 1051 9 is_stmt 1 view .LVU262
1051:Middlewares/lvgl/src/draw/lv_draw_rect.c ****             lv_memset_00(sh_ups_tmp_buf, size * sizeof(sh_ups_tmp_buf[0]));
 717              		.loc 1 1051 11 is_stmt 0 view .LVU263
 718 0112 0028     		cmp	r0, #0
 719 0114 CCD1     		bne	.L41
1052:Middlewares/lvgl/src/draw/lv_draw_rect.c ****         }
 720              		.loc 1 1052 13 is_stmt 1 view .LVU264
 721 0116 6100     		lsls	r1, r4, #1
 722 0118 3046     		mov	r0, r6
 723              	.LVL80:
1052:Middlewares/lvgl/src/draw/lv_draw_rect.c ****         }
 724              		.loc 1 1052 13 is_stmt 0 view .LVU265
 725 011a FFF7FEFF 		bl	lv_memset_00
 726              	.LVL81:
 727 011e E5E7     		b	.L42
 728              	.L65:
1052:Middlewares/lvgl/src/draw/lv_draw_rect.c ****         }
 729              		.loc 1 1052 13 view .LVU266
 730              	.LBE205:
1065:Middlewares/lvgl/src/draw/lv_draw_rect.c **** 
 731              		.loc 1 1065 5 is_stmt 1 view .LVU267
 732 0120 2846     		mov	r0, r5
 733 0122 FFF7FEFF 		bl	lv_mem_buf_release
 734              	.LVL82:
1067:Middlewares/lvgl/src/draw/lv_draw_rect.c ****         int32_t i;
 735              		.loc 1 1067 5 view .LVU268
1067:Middlewares/lvgl/src/draw/lv_draw_rect.c ****         int32_t i;
 736              		.loc 1 1067 7 is_stmt 0 view .LVU269
 737 0126 B9F1010F 		cmp	r9, #1
 738 012a 1DD0     		beq	.L66
1076:Middlewares/lvgl/src/draw/lv_draw_rect.c **** 
ARM GAS  /tmp/ccUpPomB.s 			page 40


 739              		.loc 1 1076 5 is_stmt 1 view .LVU270
 740 012c 25B2     		sxth	r5, r4
 741              	.LVL83:
1076:Middlewares/lvgl/src/draw/lv_draw_rect.c **** 
 742              		.loc 1 1076 5 is_stmt 0 view .LVU271
 743 012e 4246     		mov	r2, r8
 744 0130 4946     		mov	r1, r9
 745 0132 2846     		mov	r0, r5
 746 0134 FFF7FEFF 		bl	shadow_blur_corner
 747              	.LVL84:
1086:Middlewares/lvgl/src/draw/lv_draw_rect.c ****     if(sw > 1) {
 748              		.loc 1 1086 5 is_stmt 1 view .LVU272
1086:Middlewares/lvgl/src/draw/lv_draw_rect.c ****     if(sw > 1) {
 749              		.loc 1 1086 8 is_stmt 0 view .LVU273
 750 0138 0AEB0901 		add	r1, r10, r9
 751              	.LVL85:
1087:Middlewares/lvgl/src/draw/lv_draw_rect.c ****         uint32_t i;
 752              		.loc 1 1087 5 is_stmt 1 view .LVU274
1087:Middlewares/lvgl/src/draw/lv_draw_rect.c ****         uint32_t i;
 753              		.loc 1 1087 7 is_stmt 0 view .LVU275
 754 013c 0129     		cmp	r1, #1
 755 013e 2FDD     		ble	.L52
 756              	.LBB206:
1088:Middlewares/lvgl/src/draw/lv_draw_rect.c ****         sh_buf[0] = (sh_buf[0] << SHADOW_UPSCALE_SHIFT) / sw;
 757              		.loc 1 1088 9 is_stmt 1 view .LVU276
1089:Middlewares/lvgl/src/draw/lv_draw_rect.c ****         for(i = 1; i < (uint32_t) size * size; i++) {
 758              		.loc 1 1089 9 view .LVU277
1089:Middlewares/lvgl/src/draw/lv_draw_rect.c ****         for(i = 1; i < (uint32_t) size * size; i++) {
 759              		.loc 1 1089 28 is_stmt 0 view .LVU278
 760 0140 B8F80030 		ldrh	r3, [r8]
1089:Middlewares/lvgl/src/draw/lv_draw_rect.c ****         for(i = 1; i < (uint32_t) size * size; i++) {
 761              		.loc 1 1089 32 view .LVU279
 762 0144 9B01     		lsls	r3, r3, #6
1089:Middlewares/lvgl/src/draw/lv_draw_rect.c ****         for(i = 1; i < (uint32_t) size * size; i++) {
 763              		.loc 1 1089 57 view .LVU280
 764 0146 93FBF1F3 		sdiv	r3, r3, r1
1089:Middlewares/lvgl/src/draw/lv_draw_rect.c ****         for(i = 1; i < (uint32_t) size * size; i++) {
 765              		.loc 1 1089 19 view .LVU281
 766 014a A8F80030 		strh	r3, [r8]	@ movhi
1090:Middlewares/lvgl/src/draw/lv_draw_rect.c ****             if(sh_buf[i] == sh_buf[i - 1]) sh_buf[i] = sh_buf[i - 1];
 767              		.loc 1 1090 9 is_stmt 1 view .LVU282
 768              	.LVL86:
1090:Middlewares/lvgl/src/draw/lv_draw_rect.c ****             if(sh_buf[i] == sh_buf[i - 1]) sh_buf[i] = sh_buf[i - 1];
 769              		.loc 1 1090 15 is_stmt 0 view .LVU283
 770 014e 0123     		movs	r3, #1
1090:Middlewares/lvgl/src/draw/lv_draw_rect.c ****             if(sh_buf[i] == sh_buf[i - 1]) sh_buf[i] = sh_buf[i - 1];
 771              		.loc 1 1090 9 view .LVU284
 772 0150 0FE0     		b	.L53
 773              	.LVL87:
 774              	.L50:
1090:Middlewares/lvgl/src/draw/lv_draw_rect.c ****             if(sh_buf[i] == sh_buf[i - 1]) sh_buf[i] = sh_buf[i - 1];
 775              		.loc 1 1090 9 view .LVU285
 776              	.LBE206:
 777              	.LBB207:
1071:Middlewares/lvgl/src/draw/lv_draw_rect.c ****         }
 778              		.loc 1 1071 13 is_stmt 1 discriminator 3 view .LVU286
1071:Middlewares/lvgl/src/draw/lv_draw_rect.c ****         }
ARM GAS  /tmp/ccUpPomB.s 			page 41


 779              		.loc 1 1071 33 is_stmt 0 discriminator 3 view .LVU287
 780 0152 38F81320 		ldrh	r2, [r8, r3, lsl #1]
1071:Middlewares/lvgl/src/draw/lv_draw_rect.c ****         }
 781              		.loc 1 1071 24 discriminator 3 view .LVU288
 782 0156 9209     		lsrs	r2, r2, #6
 783 0158 08F80320 		strb	r2, [r8, r3]
1070:Middlewares/lvgl/src/draw/lv_draw_rect.c ****             res_buf[i] = (sh_buf[i] >> SHADOW_UPSCALE_SHIFT);
 784              		.loc 1 1070 37 is_stmt 1 discriminator 3 view .LVU289
1070:Middlewares/lvgl/src/draw/lv_draw_rect.c ****             res_buf[i] = (sh_buf[i] >> SHADOW_UPSCALE_SHIFT);
 785              		.loc 1 1070 38 is_stmt 0 discriminator 3 view .LVU290
 786 015c 0133     		adds	r3, r3, #1
 787              	.LVL88:
 788              	.L48:
1070:Middlewares/lvgl/src/draw/lv_draw_rect.c ****             res_buf[i] = (sh_buf[i] >> SHADOW_UPSCALE_SHIFT);
 789              		.loc 1 1070 20 is_stmt 1 discriminator 1 view .LVU291
1070:Middlewares/lvgl/src/draw/lv_draw_rect.c ****             res_buf[i] = (sh_buf[i] >> SHADOW_UPSCALE_SHIFT);
 790              		.loc 1 1070 29 is_stmt 0 discriminator 1 view .LVU292
 791 015e 04FB04F2 		mul	r2, r4, r4
1070:Middlewares/lvgl/src/draw/lv_draw_rect.c ****             res_buf[i] = (sh_buf[i] >> SHADOW_UPSCALE_SHIFT);
 792              		.loc 1 1070 9 discriminator 1 view .LVU293
 793 0162 9A42     		cmp	r2, r3
 794 0164 F5DC     		bgt	.L50
 795 0166 26E0     		b	.L37
 796              	.LVL89:
 797              	.L66:
1070:Middlewares/lvgl/src/draw/lv_draw_rect.c ****             res_buf[i] = (sh_buf[i] >> SHADOW_UPSCALE_SHIFT);
 798              		.loc 1 1070 15 view .LVU294
 799 0168 0023     		movs	r3, #0
 800 016a F8E7     		b	.L48
 801              	.LVL90:
 802              	.L68:
1070:Middlewares/lvgl/src/draw/lv_draw_rect.c ****             res_buf[i] = (sh_buf[i] >> SHADOW_UPSCALE_SHIFT);
 803              		.loc 1 1070 15 view .LVU295
 804              	.LBE207:
 805              	.LBB208:
1091:Middlewares/lvgl/src/draw/lv_draw_rect.c ****             else  sh_buf[i] = (sh_buf[i] << SHADOW_UPSCALE_SHIFT) / sw;
 806              		.loc 1 1091 44 is_stmt 1 discriminator 1 view .LVU296
1091:Middlewares/lvgl/src/draw/lv_draw_rect.c ****             else  sh_buf[i] = (sh_buf[i] << SHADOW_UPSCALE_SHIFT) / sw;
 807              		.loc 1 1091 54 is_stmt 0 discriminator 1 view .LVU297
 808 016c 28F81300 		strh	r0, [r8, r3, lsl #1]	@ movhi
 809              	.L55:
1090:Middlewares/lvgl/src/draw/lv_draw_rect.c ****             if(sh_buf[i] == sh_buf[i - 1]) sh_buf[i] = sh_buf[i - 1];
 810              		.loc 1 1090 48 is_stmt 1 discriminator 2 view .LVU298
1090:Middlewares/lvgl/src/draw/lv_draw_rect.c ****             if(sh_buf[i] == sh_buf[i - 1]) sh_buf[i] = sh_buf[i - 1];
 811              		.loc 1 1090 49 is_stmt 0 discriminator 2 view .LVU299
 812 0170 0133     		adds	r3, r3, #1
 813              	.LVL91:
 814              	.L53:
1090:Middlewares/lvgl/src/draw/lv_draw_rect.c ****             if(sh_buf[i] == sh_buf[i - 1]) sh_buf[i] = sh_buf[i - 1];
 815              		.loc 1 1090 20 is_stmt 1 discriminator 1 view .LVU300
1090:Middlewares/lvgl/src/draw/lv_draw_rect.c ****             if(sh_buf[i] == sh_buf[i - 1]) sh_buf[i] = sh_buf[i - 1];
 816              		.loc 1 1090 40 is_stmt 0 discriminator 1 view .LVU301
 817 0172 04FB04F2 		mul	r2, r4, r4
1090:Middlewares/lvgl/src/draw/lv_draw_rect.c ****             if(sh_buf[i] == sh_buf[i - 1]) sh_buf[i] = sh_buf[i - 1];
 818              		.loc 1 1090 9 discriminator 1 view .LVU302
 819 0176 9A42     		cmp	r2, r3
 820 0178 0ED9     		bls	.L67
ARM GAS  /tmp/ccUpPomB.s 			page 42


1091:Middlewares/lvgl/src/draw/lv_draw_rect.c ****             else  sh_buf[i] = (sh_buf[i] << SHADOW_UPSCALE_SHIFT) / sw;
 821              		.loc 1 1091 13 is_stmt 1 view .LVU303
1091:Middlewares/lvgl/src/draw/lv_draw_rect.c ****             else  sh_buf[i] = (sh_buf[i] << SHADOW_UPSCALE_SHIFT) / sw;
 822              		.loc 1 1091 22 is_stmt 0 view .LVU304
 823 017a 38F81320 		ldrh	r2, [r8, r3, lsl #1]
1091:Middlewares/lvgl/src/draw/lv_draw_rect.c ****             else  sh_buf[i] = (sh_buf[i] << SHADOW_UPSCALE_SHIFT) / sw;
 824              		.loc 1 1091 35 view .LVU305
 825 017e 6FF00040 		mvn	r0, #-2147483648
 826 0182 1844     		add	r0, r0, r3
 827 0184 38F81000 		ldrh	r0, [r8, r0, lsl #1]
1091:Middlewares/lvgl/src/draw/lv_draw_rect.c ****             else  sh_buf[i] = (sh_buf[i] << SHADOW_UPSCALE_SHIFT) / sw;
 828              		.loc 1 1091 15 view .LVU306
 829 0188 8242     		cmp	r2, r0
 830 018a EFD0     		beq	.L68
1092:Middlewares/lvgl/src/draw/lv_draw_rect.c ****         }
 831              		.loc 1 1092 19 is_stmt 1 view .LVU307
1092:Middlewares/lvgl/src/draw/lv_draw_rect.c ****         }
 832              		.loc 1 1092 42 is_stmt 0 view .LVU308
 833 018c 9201     		lsls	r2, r2, #6
1092:Middlewares/lvgl/src/draw/lv_draw_rect.c ****         }
 834              		.loc 1 1092 67 view .LVU309
 835 018e 92FBF1F2 		sdiv	r2, r2, r1
1092:Middlewares/lvgl/src/draw/lv_draw_rect.c ****         }
 836              		.loc 1 1092 29 view .LVU310
 837 0192 28F81320 		strh	r2, [r8, r3, lsl #1]	@ movhi
 838 0196 EBE7     		b	.L55
 839              	.L67:
1095:Middlewares/lvgl/src/draw/lv_draw_rect.c ****     }
 840              		.loc 1 1095 9 is_stmt 1 view .LVU311
 841 0198 4246     		mov	r2, r8
 842 019a 2846     		mov	r0, r5
 843 019c FFF7FEFF 		bl	shadow_blur_corner
 844              	.LVL92:
 845              	.L52:
1090:Middlewares/lvgl/src/draw/lv_draw_rect.c ****             if(sh_buf[i] == sh_buf[i - 1]) sh_buf[i] = sh_buf[i - 1];
 846              		.loc 1 1090 15 is_stmt 0 discriminator 1 view .LVU312
 847 01a0 0023     		movs	r3, #0
 848 01a2 04E0     		b	.L57
 849              	.LVL93:
 850              	.L58:
1090:Middlewares/lvgl/src/draw/lv_draw_rect.c ****             if(sh_buf[i] == sh_buf[i - 1]) sh_buf[i] = sh_buf[i - 1];
 851              		.loc 1 1090 15 discriminator 1 view .LVU313
 852              	.LBE208:
1100:Middlewares/lvgl/src/draw/lv_draw_rect.c ****     }
 853              		.loc 1 1100 9 is_stmt 1 discriminator 3 view .LVU314
1100:Middlewares/lvgl/src/draw/lv_draw_rect.c ****     }
 854              		.loc 1 1100 28 is_stmt 0 discriminator 3 view .LVU315
 855 01a4 38F81320 		ldrh	r2, [r8, r3, lsl #1]
1100:Middlewares/lvgl/src/draw/lv_draw_rect.c ****     }
 856              		.loc 1 1100 20 discriminator 3 view .LVU316
 857 01a8 08F80320 		strb	r2, [r8, r3]
1099:Middlewares/lvgl/src/draw/lv_draw_rect.c ****         res_buf[x] = sh_buf[x];
 858              		.loc 1 1099 33 is_stmt 1 discriminator 3 view .LVU317
1099:Middlewares/lvgl/src/draw/lv_draw_rect.c ****         res_buf[x] = sh_buf[x];
 859              		.loc 1 1099 34 is_stmt 0 discriminator 3 view .LVU318
 860 01ac 0133     		adds	r3, r3, #1
 861              	.LVL94:
ARM GAS  /tmp/ccUpPomB.s 			page 43


 862              	.L57:
1099:Middlewares/lvgl/src/draw/lv_draw_rect.c ****         res_buf[x] = sh_buf[x];
 863              		.loc 1 1099 16 is_stmt 1 discriminator 1 view .LVU319
1099:Middlewares/lvgl/src/draw/lv_draw_rect.c ****         res_buf[x] = sh_buf[x];
 864              		.loc 1 1099 25 is_stmt 0 discriminator 1 view .LVU320
 865 01ae 04FB04F2 		mul	r2, r4, r4
1099:Middlewares/lvgl/src/draw/lv_draw_rect.c ****         res_buf[x] = sh_buf[x];
 866              		.loc 1 1099 5 discriminator 1 view .LVU321
 867 01b2 9A42     		cmp	r2, r3
 868 01b4 F6DC     		bgt	.L58
 869              	.LVL95:
 870              	.L37:
1104:Middlewares/lvgl/src/draw/lv_draw_rect.c **** 
 871              		.loc 1 1104 1 view .LVU322
 872 01b6 0DB0     		add	sp, sp, #52
 873              	.LCFI5:
 874              		.cfi_def_cfa_offset 36
 875              		@ sp needed
 876 01b8 BDE8F08F 		pop	{r4, r5, r6, r7, r8, r9, r10, fp, pc}
1104:Middlewares/lvgl/src/draw/lv_draw_rect.c **** 
 877              		.loc 1 1104 1 view .LVU323
 878              		.cfi_endproc
 879              	.LFE154:
 881              		.section	.text.draw_shadow,"ax",%progbits
 882              		.align	1
 883              		.syntax unified
 884              		.thumb
 885              		.thumb_func
 887              	draw_shadow:
 888              	.LVL96:
 889              	.LFB153:
 539:Middlewares/lvgl/src/draw/lv_draw_rect.c ****     /*Check whether the shadow is visible*/
 890              		.loc 1 539 1 is_stmt 1 view -0
 891              		.cfi_startproc
 892              		@ args = 0, pretend = 0, frame = 136
 893              		@ frame_needed = 0, uses_anonymous_args = 0
 539:Middlewares/lvgl/src/draw/lv_draw_rect.c ****     /*Check whether the shadow is visible*/
 894              		.loc 1 539 1 is_stmt 0 view .LVU325
 895 0000 2DE9F04F 		push	{r4, r5, r6, r7, r8, r9, r10, fp, lr}
 896              	.LCFI6:
 897              		.cfi_def_cfa_offset 36
 898              		.cfi_offset 4, -36
 899              		.cfi_offset 5, -32
 900              		.cfi_offset 6, -28
 901              		.cfi_offset 7, -24
 902              		.cfi_offset 8, -20
 903              		.cfi_offset 9, -16
 904              		.cfi_offset 10, -12
 905              		.cfi_offset 11, -8
 906              		.cfi_offset 14, -4
 907 0004 A7B0     		sub	sp, sp, #156
 908              	.LCFI7:
 909              		.cfi_def_cfa_offset 192
 910 0006 0590     		str	r0, [sp, #20]
 911 0008 0491     		str	r1, [sp, #16]
 541:Middlewares/lvgl/src/draw/lv_draw_rect.c ****     if(dsc->shadow_opa <= LV_OPA_MIN) return;
 912              		.loc 1 541 5 is_stmt 1 view .LVU326
ARM GAS  /tmp/ccUpPomB.s 			page 44


 541:Middlewares/lvgl/src/draw/lv_draw_rect.c ****     if(dsc->shadow_opa <= LV_OPA_MIN) return;
 913              		.loc 1 541 11 is_stmt 0 view .LVU327
 914 000a B2F92A40 		ldrsh	r4, [r2, #42]
 541:Middlewares/lvgl/src/draw/lv_draw_rect.c ****     if(dsc->shadow_opa <= LV_OPA_MIN) return;
 915              		.loc 1 541 7 view .LVU328
 916 000e 002C     		cmp	r4, #0
 917 0010 00F0DC83 		beq	.L69
 918 0014 1546     		mov	r5, r2
 542:Middlewares/lvgl/src/draw/lv_draw_rect.c **** 
 919              		.loc 1 542 5 is_stmt 1 view .LVU329
 542:Middlewares/lvgl/src/draw/lv_draw_rect.c **** 
 920              		.loc 1 542 11 is_stmt 0 view .LVU330
 921 0016 92F83230 		ldrb	r3, [r2, #50]	@ zero_extendqisi2
 922 001a 0793     		str	r3, [sp, #28]
 542:Middlewares/lvgl/src/draw/lv_draw_rect.c **** 
 923              		.loc 1 542 7 view .LVU331
 924 001c 022B     		cmp	r3, #2
 925 001e 40F2D583 		bls	.L69
 544:Middlewares/lvgl/src/draw/lv_draw_rect.c ****        dsc->shadow_ofs_y == 0 && dsc->shadow_spread <= 0) {
 926              		.loc 1 544 5 is_stmt 1 view .LVU332
 544:Middlewares/lvgl/src/draw/lv_draw_rect.c ****        dsc->shadow_ofs_y == 0 && dsc->shadow_spread <= 0) {
 927              		.loc 1 544 7 is_stmt 0 view .LVU333
 928 0022 012C     		cmp	r4, #1
 929 0024 00F0F180 		beq	.L162
 930              	.L71:
 549:Middlewares/lvgl/src/draw/lv_draw_rect.c **** 
 931              		.loc 1 549 5 is_stmt 1 view .LVU334
 932              	.LVL97:
 551:Middlewares/lvgl/src/draw/lv_draw_rect.c ****     sh_rect_area.x1 = coords->x1  + dsc->shadow_ofs_x - dsc->shadow_spread;
 933              		.loc 1 551 5 view .LVU335
 552:Middlewares/lvgl/src/draw/lv_draw_rect.c ****     sh_rect_area.x2 = coords->x2  + dsc->shadow_ofs_x + dsc->shadow_spread;
 934              		.loc 1 552 5 view .LVU336
 552:Middlewares/lvgl/src/draw/lv_draw_rect.c ****     sh_rect_area.x2 = coords->x2  + dsc->shadow_ofs_x + dsc->shadow_spread;
 935              		.loc 1 552 29 is_stmt 0 view .LVU337
 936 0028 059F     		ldr	r7, [sp, #20]
 937 002a 3B88     		ldrh	r3, [r7]
 552:Middlewares/lvgl/src/draw/lv_draw_rect.c ****     sh_rect_area.x2 = coords->x2  + dsc->shadow_ofs_x + dsc->shadow_spread;
 938              		.loc 1 552 40 view .LVU338
 939 002c A98D     		ldrh	r1, [r5, #44]
 940              	.LVL98:
 552:Middlewares/lvgl/src/draw/lv_draw_rect.c ****     sh_rect_area.x2 = coords->x2  + dsc->shadow_ofs_x + dsc->shadow_spread;
 941              		.loc 1 552 35 view .LVU339
 942 002e 0B44     		add	r3, r3, r1
 943 0030 9BB2     		uxth	r3, r3
 552:Middlewares/lvgl/src/draw/lv_draw_rect.c ****     sh_rect_area.x2 = coords->x2  + dsc->shadow_ofs_x + dsc->shadow_spread;
 944              		.loc 1 552 60 view .LVU340
 945 0032 2A8E     		ldrh	r2, [r5, #48]
 946              	.LVL99:
 552:Middlewares/lvgl/src/draw/lv_draw_rect.c ****     sh_rect_area.x2 = coords->x2  + dsc->shadow_ofs_x + dsc->shadow_spread;
 947              		.loc 1 552 55 view .LVU341
 948 0034 9B1A     		subs	r3, r3, r2
 949 0036 9EB2     		uxth	r6, r3
 552:Middlewares/lvgl/src/draw/lv_draw_rect.c ****     sh_rect_area.x2 = coords->x2  + dsc->shadow_ofs_x + dsc->shadow_spread;
 950              		.loc 1 552 21 view .LVU342
 951 0038 ADF89030 		strh	r3, [sp, #144]	@ movhi
 553:Middlewares/lvgl/src/draw/lv_draw_rect.c ****     sh_rect_area.y1 = coords->y1  + dsc->shadow_ofs_y - dsc->shadow_spread;
 952              		.loc 1 553 5 is_stmt 1 view .LVU343
ARM GAS  /tmp/ccUpPomB.s 			page 45


 553:Middlewares/lvgl/src/draw/lv_draw_rect.c ****     sh_rect_area.y1 = coords->y1  + dsc->shadow_ofs_y - dsc->shadow_spread;
 953              		.loc 1 553 29 is_stmt 0 view .LVU344
 954 003c BB88     		ldrh	r3, [r7, #4]
 553:Middlewares/lvgl/src/draw/lv_draw_rect.c ****     sh_rect_area.y1 = coords->y1  + dsc->shadow_ofs_y - dsc->shadow_spread;
 955              		.loc 1 553 35 view .LVU345
 956 003e 0B44     		add	r3, r3, r1
 553:Middlewares/lvgl/src/draw/lv_draw_rect.c ****     sh_rect_area.y1 = coords->y1  + dsc->shadow_ofs_y - dsc->shadow_spread;
 957              		.loc 1 553 55 view .LVU346
 958 0040 12FA83F3 		uxtah	r3, r2, r3
 959 0044 98B2     		uxth	r0, r3
 960              	.LVL100:
 553:Middlewares/lvgl/src/draw/lv_draw_rect.c ****     sh_rect_area.y1 = coords->y1  + dsc->shadow_ofs_y - dsc->shadow_spread;
 961              		.loc 1 553 21 view .LVU347
 962 0046 ADF89430 		strh	r3, [sp, #148]	@ movhi
 554:Middlewares/lvgl/src/draw/lv_draw_rect.c ****     sh_rect_area.y2 = coords->y2  + dsc->shadow_ofs_y + dsc->shadow_spread;
 963              		.loc 1 554 5 is_stmt 1 view .LVU348
 554:Middlewares/lvgl/src/draw/lv_draw_rect.c ****     sh_rect_area.y2 = coords->y2  + dsc->shadow_ofs_y + dsc->shadow_spread;
 964              		.loc 1 554 29 is_stmt 0 view .LVU349
 965 004a 7B88     		ldrh	r3, [r7, #2]
 554:Middlewares/lvgl/src/draw/lv_draw_rect.c ****     sh_rect_area.y2 = coords->y2  + dsc->shadow_ofs_y + dsc->shadow_spread;
 966              		.loc 1 554 40 view .LVU350
 967 004c EF8D     		ldrh	r7, [r5, #46]
 554:Middlewares/lvgl/src/draw/lv_draw_rect.c ****     sh_rect_area.y2 = coords->y2  + dsc->shadow_ofs_y + dsc->shadow_spread;
 968              		.loc 1 554 35 view .LVU351
 969 004e 3B44     		add	r3, r3, r7
 970 0050 9BB2     		uxth	r3, r3
 554:Middlewares/lvgl/src/draw/lv_draw_rect.c ****     sh_rect_area.y2 = coords->y2  + dsc->shadow_ofs_y + dsc->shadow_spread;
 971              		.loc 1 554 55 view .LVU352
 972 0052 9B1A     		subs	r3, r3, r2
 973 0054 99B2     		uxth	r1, r3
 554:Middlewares/lvgl/src/draw/lv_draw_rect.c ****     sh_rect_area.y2 = coords->y2  + dsc->shadow_ofs_y + dsc->shadow_spread;
 974              		.loc 1 554 21 view .LVU353
 975 0056 ADF89230 		strh	r3, [sp, #146]	@ movhi
 555:Middlewares/lvgl/src/draw/lv_draw_rect.c **** 
 976              		.loc 1 555 5 is_stmt 1 view .LVU354
 555:Middlewares/lvgl/src/draw/lv_draw_rect.c **** 
 977              		.loc 1 555 29 is_stmt 0 view .LVU355
 978 005a 059B     		ldr	r3, [sp, #20]
 979 005c DB88     		ldrh	r3, [r3, #6]
 555:Middlewares/lvgl/src/draw/lv_draw_rect.c **** 
 980              		.loc 1 555 35 view .LVU356
 981 005e 3B44     		add	r3, r3, r7
 555:Middlewares/lvgl/src/draw/lv_draw_rect.c **** 
 982              		.loc 1 555 55 view .LVU357
 983 0060 12FA83F3 		uxtah	r3, r2, r3
 984 0064 9AB2     		uxth	r2, r3
 555:Middlewares/lvgl/src/draw/lv_draw_rect.c **** 
 985              		.loc 1 555 21 view .LVU358
 986 0066 ADF89630 		strh	r3, [sp, #150]	@ movhi
 557:Middlewares/lvgl/src/draw/lv_draw_rect.c ****     sh_area.x1 = sh_rect_area.x1 - sw / 2 - 1;
 987              		.loc 1 557 5 is_stmt 1 view .LVU359
 558:Middlewares/lvgl/src/draw/lv_draw_rect.c ****     sh_area.x2 = sh_rect_area.x2 + sw / 2 + 1;
 988              		.loc 1 558 5 view .LVU360
 558:Middlewares/lvgl/src/draw/lv_draw_rect.c ****     sh_area.x2 = sh_rect_area.x2 + sw / 2 + 1;
 989              		.loc 1 558 39 is_stmt 0 view .LVU361
 990 006a 2346     		mov	r3, r4
 991 006c 002C     		cmp	r4, #0
ARM GAS  /tmp/ccUpPomB.s 			page 46


 992 006e C0F2D680 		blt	.L163
 993              	.L72:
 558:Middlewares/lvgl/src/draw/lv_draw_rect.c ****     sh_area.x2 = sh_rect_area.x2 + sw / 2 + 1;
 994              		.loc 1 558 39 view .LVU362
 995 0072 5B10     		asrs	r3, r3, #1
 996 0074 5B42     		rsbs	r3, r3, #0
 558:Middlewares/lvgl/src/draw/lv_draw_rect.c ****     sh_area.x2 = sh_rect_area.x2 + sw / 2 + 1;
 997              		.loc 1 558 34 view .LVU363
 998 0076 9BB2     		uxth	r3, r3
 999 0078 1E44     		add	r6, r6, r3
 1000 007a B6B2     		uxth	r6, r6
 558:Middlewares/lvgl/src/draw/lv_draw_rect.c ****     sh_area.x2 = sh_rect_area.x2 + sw / 2 + 1;
 1001              		.loc 1 558 43 view .LVU364
 1002 007c 013E     		subs	r6, r6, #1
 558:Middlewares/lvgl/src/draw/lv_draw_rect.c ****     sh_area.x2 = sh_rect_area.x2 + sw / 2 + 1;
 1003              		.loc 1 558 16 view .LVU365
 1004 007e ADF88860 		strh	r6, [sp, #136]	@ movhi
 559:Middlewares/lvgl/src/draw/lv_draw_rect.c ****     sh_area.y1 = sh_rect_area.y1 - sw / 2 - 1;
 1005              		.loc 1 559 5 is_stmt 1 view .LVU366
 559:Middlewares/lvgl/src/draw/lv_draw_rect.c ****     sh_area.y1 = sh_rect_area.y1 - sw / 2 - 1;
 1006              		.loc 1 559 39 is_stmt 0 view .LVU367
 1007 0082 2646     		mov	r6, r4
 1008 0084 002C     		cmp	r4, #0
 1009 0086 C0F2CC80 		blt	.L164
 1010              	.L73:
 559:Middlewares/lvgl/src/draw/lv_draw_rect.c ****     sh_area.y1 = sh_rect_area.y1 - sw / 2 - 1;
 1011              		.loc 1 559 34 view .LVU368
 1012 008a C6F34F06 		ubfx	r6, r6, #1, #16
 1013 008e 3044     		add	r0, r0, r6
 1014 0090 80B2     		uxth	r0, r0
 559:Middlewares/lvgl/src/draw/lv_draw_rect.c ****     sh_area.y1 = sh_rect_area.y1 - sw / 2 - 1;
 1015              		.loc 1 559 43 view .LVU369
 1016 0092 0130     		adds	r0, r0, #1
 559:Middlewares/lvgl/src/draw/lv_draw_rect.c ****     sh_area.y1 = sh_rect_area.y1 - sw / 2 - 1;
 1017              		.loc 1 559 16 view .LVU370
 1018 0094 ADF88C00 		strh	r0, [sp, #140]	@ movhi
 560:Middlewares/lvgl/src/draw/lv_draw_rect.c ****     sh_area.y2 = sh_rect_area.y2 + sw / 2 + 1;
 1019              		.loc 1 560 5 is_stmt 1 view .LVU371
 560:Middlewares/lvgl/src/draw/lv_draw_rect.c ****     sh_area.y2 = sh_rect_area.y2 + sw / 2 + 1;
 1020              		.loc 1 560 34 is_stmt 0 view .LVU372
 1021 0098 1944     		add	r1, r1, r3
 1022 009a 89B2     		uxth	r1, r1
 560:Middlewares/lvgl/src/draw/lv_draw_rect.c ****     sh_area.y2 = sh_rect_area.y2 + sw / 2 + 1;
 1023              		.loc 1 560 43 view .LVU373
 1024 009c 0139     		subs	r1, r1, #1
 560:Middlewares/lvgl/src/draw/lv_draw_rect.c ****     sh_area.y2 = sh_rect_area.y2 + sw / 2 + 1;
 1025              		.loc 1 560 16 view .LVU374
 1026 009e ADF88A10 		strh	r1, [sp, #138]	@ movhi
 561:Middlewares/lvgl/src/draw/lv_draw_rect.c **** 
 1027              		.loc 1 561 5 is_stmt 1 view .LVU375
 561:Middlewares/lvgl/src/draw/lv_draw_rect.c **** 
 1028              		.loc 1 561 34 is_stmt 0 view .LVU376
 1029 00a2 9319     		adds	r3, r2, r6
 1030 00a4 9BB2     		uxth	r3, r3
 561:Middlewares/lvgl/src/draw/lv_draw_rect.c **** 
 1031              		.loc 1 561 43 view .LVU377
 1032 00a6 0133     		adds	r3, r3, #1
ARM GAS  /tmp/ccUpPomB.s 			page 47


 561:Middlewares/lvgl/src/draw/lv_draw_rect.c **** 
 1033              		.loc 1 561 16 view .LVU378
 1034 00a8 ADF88E30 		strh	r3, [sp, #142]	@ movhi
 563:Middlewares/lvgl/src/draw/lv_draw_rect.c **** 
 1035              		.loc 1 563 5 is_stmt 1 view .LVU379
 1036              	.LVL101:
 565:Middlewares/lvgl/src/draw/lv_draw_rect.c **** 
 1037              		.loc 1 565 5 view .LVU380
 565:Middlewares/lvgl/src/draw/lv_draw_rect.c **** 
 1038              		.loc 1 565 7 is_stmt 0 view .LVU381
 1039 00ac 079B     		ldr	r3, [sp, #28]
 1040 00ae FD2B     		cmp	r3, #253
 1041 00b0 01D9     		bls	.L74
 565:Middlewares/lvgl/src/draw/lv_draw_rect.c **** 
 1042              		.loc 1 565 30 view .LVU382
 1043 00b2 FF23     		movs	r3, #255
 1044 00b4 0793     		str	r3, [sp, #28]
 1045              	.LVL102:
 1046              	.L74:
 567:Middlewares/lvgl/src/draw/lv_draw_rect.c ****     lv_disp_draw_buf_t * draw_buf = lv_disp_get_draw_buf(disp);
 1047              		.loc 1 567 5 is_stmt 1 view .LVU383
 567:Middlewares/lvgl/src/draw/lv_draw_rect.c ****     lv_disp_draw_buf_t * draw_buf = lv_disp_get_draw_buf(disp);
 1048              		.loc 1 567 24 is_stmt 0 view .LVU384
 1049 00b6 FFF7FEFF 		bl	_lv_refr_get_disp_refreshing
 1050              	.LVL103:
 568:Middlewares/lvgl/src/draw/lv_draw_rect.c **** 
 1051              		.loc 1 568 5 is_stmt 1 view .LVU385
 568:Middlewares/lvgl/src/draw/lv_draw_rect.c **** 
 1052              		.loc 1 568 37 is_stmt 0 view .LVU386
 1053 00ba FFF7FEFF 		bl	lv_disp_get_draw_buf
 1054              	.LVL104:
 568:Middlewares/lvgl/src/draw/lv_draw_rect.c **** 
 1055              		.loc 1 568 37 view .LVU387
 1056 00be 0646     		mov	r6, r0
 1057              	.LVL105:
 572:Middlewares/lvgl/src/draw/lv_draw_rect.c ****     bool is_common;
 1058              		.loc 1 572 5 is_stmt 1 view .LVU388
 573:Middlewares/lvgl/src/draw/lv_draw_rect.c ****     is_common = _lv_area_intersect(&draw_area, &sh_area, clip);
 1059              		.loc 1 573 5 view .LVU389
 574:Middlewares/lvgl/src/draw/lv_draw_rect.c ****     if(is_common == false) return;
 1060              		.loc 1 574 5 view .LVU390
 574:Middlewares/lvgl/src/draw/lv_draw_rect.c ****     if(is_common == false) return;
 1061              		.loc 1 574 17 is_stmt 0 view .LVU391
 1062 00c0 049A     		ldr	r2, [sp, #16]
 1063 00c2 22A9     		add	r1, sp, #136
 1064 00c4 20A8     		add	r0, sp, #128
 1065              	.LVL106:
 574:Middlewares/lvgl/src/draw/lv_draw_rect.c ****     if(is_common == false) return;
 1066              		.loc 1 574 17 view .LVU392
 1067 00c6 FFF7FEFF 		bl	_lv_area_intersect
 1068              	.LVL107:
 575:Middlewares/lvgl/src/draw/lv_draw_rect.c **** 
 1069              		.loc 1 575 5 is_stmt 1 view .LVU393
 575:Middlewares/lvgl/src/draw/lv_draw_rect.c **** 
 1070              		.loc 1 575 7 is_stmt 0 view .LVU394
 1071 00ca 0690     		str	r0, [sp, #24]
 1072 00cc 0028     		cmp	r0, #0
ARM GAS  /tmp/ccUpPomB.s 			page 48


 1073 00ce 00F07D83 		beq	.L69
 577:Middlewares/lvgl/src/draw/lv_draw_rect.c **** 
 1074              		.loc 1 577 5 is_stmt 1 view .LVU395
 1075              	.LVL108:
 581:Middlewares/lvgl/src/draw/lv_draw_rect.c ****     draw_area.y1 -= disp_area->y1;
 1076              		.loc 1 581 5 view .LVU396
 581:Middlewares/lvgl/src/draw/lv_draw_rect.c ****     draw_area.y1 -= disp_area->y1;
 1077              		.loc 1 581 30 is_stmt 0 view .LVU397
 1078 00d2 318A     		ldrh	r1, [r6, #16]
 581:Middlewares/lvgl/src/draw/lv_draw_rect.c ****     draw_area.y1 -= disp_area->y1;
 1079              		.loc 1 581 18 view .LVU398
 1080 00d4 BDF88030 		ldrh	r3, [sp, #128]
 1081 00d8 5B1A     		subs	r3, r3, r1
 1082 00da ADF88030 		strh	r3, [sp, #128]	@ movhi
 582:Middlewares/lvgl/src/draw/lv_draw_rect.c ****     draw_area.x2 -= disp_area->x1;
 1083              		.loc 1 582 5 is_stmt 1 view .LVU399
 582:Middlewares/lvgl/src/draw/lv_draw_rect.c ****     draw_area.x2 -= disp_area->x1;
 1084              		.loc 1 582 30 is_stmt 0 view .LVU400
 1085 00de 728A     		ldrh	r2, [r6, #18]
 582:Middlewares/lvgl/src/draw/lv_draw_rect.c ****     draw_area.x2 -= disp_area->x1;
 1086              		.loc 1 582 18 view .LVU401
 1087 00e0 BDF88230 		ldrh	r3, [sp, #130]
 1088 00e4 9B1A     		subs	r3, r3, r2
 1089 00e6 ADF88230 		strh	r3, [sp, #130]	@ movhi
 583:Middlewares/lvgl/src/draw/lv_draw_rect.c ****     draw_area.y2 -= disp_area->y1;
 1090              		.loc 1 583 5 is_stmt 1 view .LVU402
 583:Middlewares/lvgl/src/draw/lv_draw_rect.c ****     draw_area.y2 -= disp_area->y1;
 1091              		.loc 1 583 18 is_stmt 0 view .LVU403
 1092 00ea BDF88430 		ldrh	r3, [sp, #132]
 1093 00ee 5B1A     		subs	r3, r3, r1
 1094 00f0 ADF88430 		strh	r3, [sp, #132]	@ movhi
 584:Middlewares/lvgl/src/draw/lv_draw_rect.c **** 
 1095              		.loc 1 584 5 is_stmt 1 view .LVU404
 584:Middlewares/lvgl/src/draw/lv_draw_rect.c **** 
 1096              		.loc 1 584 18 is_stmt 0 view .LVU405
 1097 00f4 BDF88630 		ldrh	r3, [sp, #134]
 1098 00f8 9B1A     		subs	r3, r3, r2
 1099 00fa ADF88630 		strh	r3, [sp, #134]	@ movhi
 587:Middlewares/lvgl/src/draw/lv_draw_rect.c ****     lv_area_copy(&bg_coords, coords);
 1100              		.loc 1 587 5 is_stmt 1 view .LVU406
 588:Middlewares/lvgl/src/draw/lv_draw_rect.c ****     bg_coords.x1 += 1;
 1101              		.loc 1 588 5 view .LVU407
 1102              	.LVL109:
 1103              	.LBB209:
 1104              	.LBI209:
 120:Middlewares/lvgl/src/draw/../misc/lv_area.h **** {
 1105              		.loc 2 120 20 view .LVU408
 1106              	.LBB210:
 122:Middlewares/lvgl/src/draw/../misc/lv_area.h ****     dest->y1 = src->y1;
 1107              		.loc 2 122 5 view .LVU409
 122:Middlewares/lvgl/src/draw/../misc/lv_area.h ****     dest->y1 = src->y1;
 1108              		.loc 2 122 19 is_stmt 0 view .LVU410
 1109 00fe 0599     		ldr	r1, [sp, #20]
 1110 0100 B1F90020 		ldrsh	r2, [r1]
 122:Middlewares/lvgl/src/draw/../misc/lv_area.h ****     dest->y1 = src->y1;
 1111              		.loc 2 122 14 view .LVU411
 1112 0104 ADF87820 		strh	r2, [sp, #120]	@ movhi
ARM GAS  /tmp/ccUpPomB.s 			page 49


 123:Middlewares/lvgl/src/draw/../misc/lv_area.h ****     dest->x2 = src->x2;
 1113              		.loc 2 123 5 is_stmt 1 view .LVU412
 123:Middlewares/lvgl/src/draw/../misc/lv_area.h ****     dest->x2 = src->x2;
 1114              		.loc 2 123 19 is_stmt 0 view .LVU413
 1115 0108 B1F90200 		ldrsh	r0, [r1, #2]
 1116              	.LVL110:
 123:Middlewares/lvgl/src/draw/../misc/lv_area.h ****     dest->x2 = src->x2;
 1117              		.loc 2 123 14 view .LVU414
 1118 010c ADF87A00 		strh	r0, [sp, #122]	@ movhi
 124:Middlewares/lvgl/src/draw/../misc/lv_area.h ****     dest->y2 = src->y2;
 1119              		.loc 2 124 5 is_stmt 1 view .LVU415
 124:Middlewares/lvgl/src/draw/../misc/lv_area.h ****     dest->y2 = src->y2;
 1120              		.loc 2 124 19 is_stmt 0 view .LVU416
 1121 0110 B1F90430 		ldrsh	r3, [r1, #4]
 124:Middlewares/lvgl/src/draw/../misc/lv_area.h ****     dest->y2 = src->y2;
 1122              		.loc 2 124 14 view .LVU417
 1123 0114 ADF87C30 		strh	r3, [sp, #124]	@ movhi
 125:Middlewares/lvgl/src/draw/../misc/lv_area.h **** }
 1124              		.loc 2 125 5 is_stmt 1 view .LVU418
 125:Middlewares/lvgl/src/draw/../misc/lv_area.h **** }
 1125              		.loc 2 125 19 is_stmt 0 view .LVU419
 1126 0118 B1F90610 		ldrsh	r1, [r1, #6]
 125:Middlewares/lvgl/src/draw/../misc/lv_area.h **** }
 1127              		.loc 2 125 14 view .LVU420
 1128 011c ADF87E10 		strh	r1, [sp, #126]	@ movhi
 1129              	.LVL111:
 125:Middlewares/lvgl/src/draw/../misc/lv_area.h **** }
 1130              		.loc 2 125 14 view .LVU421
 1131              	.LBE210:
 1132              	.LBE209:
 589:Middlewares/lvgl/src/draw/lv_draw_rect.c ****     bg_coords.y1 += 1;
 1133              		.loc 1 589 5 is_stmt 1 view .LVU422
 589:Middlewares/lvgl/src/draw/lv_draw_rect.c ****     bg_coords.y1 += 1;
 1134              		.loc 1 589 18 is_stmt 0 view .LVU423
 1135 0120 0132     		adds	r2, r2, #1
 1136 0122 96B2     		uxth	r6, r2
 1137              	.LVL112:
 589:Middlewares/lvgl/src/draw/lv_draw_rect.c ****     bg_coords.y1 += 1;
 1138              		.loc 1 589 18 view .LVU424
 1139 0124 ADF87860 		strh	r6, [sp, #120]	@ movhi
 590:Middlewares/lvgl/src/draw/lv_draw_rect.c ****     bg_coords.x2 -= 1;
 1140              		.loc 1 590 5 is_stmt 1 view .LVU425
 590:Middlewares/lvgl/src/draw/lv_draw_rect.c ****     bg_coords.x2 -= 1;
 1141              		.loc 1 590 18 is_stmt 0 view .LVU426
 1142 0128 0130     		adds	r0, r0, #1
 1143 012a 80B2     		uxth	r0, r0
 1144 012c ADF87A00 		strh	r0, [sp, #122]	@ movhi
 591:Middlewares/lvgl/src/draw/lv_draw_rect.c ****     bg_coords.y2 -= 1;
 1145              		.loc 1 591 5 is_stmt 1 view .LVU427
 591:Middlewares/lvgl/src/draw/lv_draw_rect.c ****     bg_coords.y2 -= 1;
 1146              		.loc 1 591 18 is_stmt 0 view .LVU428
 1147 0130 013B     		subs	r3, r3, #1
 1148 0132 9AB2     		uxth	r2, r3
 1149 0134 ADF87C20 		strh	r2, [sp, #124]	@ movhi
 592:Middlewares/lvgl/src/draw/lv_draw_rect.c **** 
 1150              		.loc 1 592 5 is_stmt 1 view .LVU429
 592:Middlewares/lvgl/src/draw/lv_draw_rect.c **** 
ARM GAS  /tmp/ccUpPomB.s 			page 50


 1151              		.loc 1 592 18 is_stmt 0 view .LVU430
 1152 0138 4B1E     		subs	r3, r1, #1
 1153 013a 9BB2     		uxth	r3, r3
 1154 013c ADF87E30 		strh	r3, [sp, #126]	@ movhi
 595:Middlewares/lvgl/src/draw/lv_draw_rect.c ****     int32_t short_side = LV_MIN(lv_area_get_width(&bg_coords), lv_area_get_height(&bg_coords));
 1155              		.loc 1 595 5 is_stmt 1 view .LVU431
 595:Middlewares/lvgl/src/draw/lv_draw_rect.c ****     int32_t short_side = LV_MIN(lv_area_get_width(&bg_coords), lv_area_get_height(&bg_coords));
 1156              		.loc 1 595 23 is_stmt 0 view .LVU432
 1157 0140 B5F90010 		ldrsh	r1, [r5]
 1158              	.LVL113:
 596:Middlewares/lvgl/src/draw/lv_draw_rect.c ****     if(r_bg > short_side >> 1) r_bg = short_side >> 1;
 1159              		.loc 1 596 5 is_stmt 1 view .LVU433
 1160              	.LBB211:
 1161              	.LBI211:
 133:Middlewares/lvgl/src/draw/../misc/lv_area.h **** {
 1162              		.loc 2 133 26 view .LVU434
 1163              	.LBB212:
 135:Middlewares/lvgl/src/draw/../misc/lv_area.h **** }
 1164              		.loc 2 135 5 view .LVU435
 135:Middlewares/lvgl/src/draw/../misc/lv_area.h **** }
 1165              		.loc 2 135 36 is_stmt 0 view .LVU436
 1166 0144 921B     		subs	r2, r2, r6
 1167 0146 92B2     		uxth	r2, r2
 135:Middlewares/lvgl/src/draw/../misc/lv_area.h **** }
 1168              		.loc 2 135 49 view .LVU437
 1169 0148 0132     		adds	r2, r2, #1
 135:Middlewares/lvgl/src/draw/../misc/lv_area.h **** }
 1170              		.loc 2 135 12 view .LVU438
 1171 014a 12B2     		sxth	r2, r2
 1172              	.LVL114:
 135:Middlewares/lvgl/src/draw/../misc/lv_area.h **** }
 1173              		.loc 2 135 12 view .LVU439
 1174              	.LBE212:
 1175              	.LBE211:
 1176              	.LBB213:
 1177              	.LBI213:
 143:Middlewares/lvgl/src/draw/../misc/lv_area.h **** {
 1178              		.loc 2 143 26 is_stmt 1 view .LVU440
 1179              	.LBB214:
 1180              		.loc 2 145 5 view .LVU441
 1181              		.loc 2 145 36 is_stmt 0 view .LVU442
 1182 014c 1B1A     		subs	r3, r3, r0
 1183 014e 9BB2     		uxth	r3, r3
 1184              		.loc 2 145 49 view .LVU443
 1185 0150 0133     		adds	r3, r3, #1
 1186              		.loc 2 145 12 view .LVU444
 1187 0152 1BB2     		sxth	r3, r3
 1188              	.LVL115:
 1189              		.loc 2 145 12 view .LVU445
 1190              	.LBE214:
 1191              	.LBE213:
 596:Middlewares/lvgl/src/draw/lv_draw_rect.c ****     if(r_bg > short_side >> 1) r_bg = short_side >> 1;
 1192              		.loc 1 596 26 view .LVU446
 1193 0154 9A42     		cmp	r2, r3
 1194 0156 00DB     		blt	.L76
 1195              	.LVL116:
 1196              		.loc 2 145 5 is_stmt 1 view .LVU447
ARM GAS  /tmp/ccUpPomB.s 			page 51


 596:Middlewares/lvgl/src/draw/lv_draw_rect.c ****     if(r_bg > short_side >> 1) r_bg = short_side >> 1;
 1197              		.loc 1 596 26 is_stmt 0 view .LVU448
 1198 0158 1A46     		mov	r2, r3
 1199              	.L76:
 1200              	.LVL117:
 597:Middlewares/lvgl/src/draw/lv_draw_rect.c **** 
 1201              		.loc 1 597 5 is_stmt 1 discriminator 4 view .LVU449
 597:Middlewares/lvgl/src/draw/lv_draw_rect.c **** 
 1202              		.loc 1 597 26 is_stmt 0 discriminator 4 view .LVU450
 1203 015a 5710     		asrs	r7, r2, #1
 597:Middlewares/lvgl/src/draw/lv_draw_rect.c **** 
 1204              		.loc 1 597 7 discriminator 4 view .LVU451
 1205 015c B1EB620F 		cmp	r1, r2, asr #1
 1206 0160 00DC     		bgt	.L77
 595:Middlewares/lvgl/src/draw/lv_draw_rect.c ****     int32_t short_side = LV_MIN(lv_area_get_width(&bg_coords), lv_area_get_height(&bg_coords));
 1207              		.loc 1 595 13 view .LVU452
 1208 0162 0F46     		mov	r7, r1
 1209              	.L77:
 1210              	.LVL118:
 599:Middlewares/lvgl/src/draw/lv_draw_rect.c ****     short_side = LV_MIN(lv_area_get_width(&sh_rect_area), lv_area_get_height(&sh_rect_area));
 1211              		.loc 1 599 5 is_stmt 1 view .LVU453
 600:Middlewares/lvgl/src/draw/lv_draw_rect.c ****     if(r_sh > short_side >> 1) r_sh = short_side >> 1;
 1212              		.loc 1 600 5 view .LVU454
 1213              	.LBB215:
 1214              	.LBI215:
 133:Middlewares/lvgl/src/draw/../misc/lv_area.h **** {
 1215              		.loc 2 133 26 view .LVU455
 1216              	.LBB216:
 135:Middlewares/lvgl/src/draw/../misc/lv_area.h **** }
 1217              		.loc 2 135 5 view .LVU456
 135:Middlewares/lvgl/src/draw/../misc/lv_area.h **** }
 1218              		.loc 2 135 31 is_stmt 0 view .LVU457
 1219 0164 BDF89430 		ldrh	r3, [sp, #148]
 135:Middlewares/lvgl/src/draw/../misc/lv_area.h **** }
 1220              		.loc 2 135 44 view .LVU458
 1221 0168 BDF89020 		ldrh	r2, [sp, #144]
 1222              	.LVL119:
 135:Middlewares/lvgl/src/draw/../misc/lv_area.h **** }
 1223              		.loc 2 135 36 view .LVU459
 1224 016c 9B1A     		subs	r3, r3, r2
 1225 016e 9BB2     		uxth	r3, r3
 135:Middlewares/lvgl/src/draw/../misc/lv_area.h **** }
 1226              		.loc 2 135 49 view .LVU460
 1227 0170 0133     		adds	r3, r3, #1
 135:Middlewares/lvgl/src/draw/../misc/lv_area.h **** }
 1228              		.loc 2 135 12 view .LVU461
 1229 0172 1AB2     		sxth	r2, r3
 1230              	.LVL120:
 135:Middlewares/lvgl/src/draw/../misc/lv_area.h **** }
 1231              		.loc 2 135 12 view .LVU462
 1232              	.LBE216:
 1233              	.LBE215:
 1234              	.LBB217:
 1235              	.LBI217:
 143:Middlewares/lvgl/src/draw/../misc/lv_area.h **** {
 1236              		.loc 2 143 26 is_stmt 1 view .LVU463
 1237              	.LBB218:
ARM GAS  /tmp/ccUpPomB.s 			page 52


 1238              		.loc 2 145 5 view .LVU464
 1239              		.loc 2 145 31 is_stmt 0 view .LVU465
 1240 0174 BDF89630 		ldrh	r3, [sp, #150]
 1241              		.loc 2 145 44 view .LVU466
 1242 0178 BDF89200 		ldrh	r0, [sp, #146]
 1243              		.loc 2 145 36 view .LVU467
 1244 017c 1B1A     		subs	r3, r3, r0
 1245 017e 9BB2     		uxth	r3, r3
 1246              		.loc 2 145 49 view .LVU468
 1247 0180 0133     		adds	r3, r3, #1
 1248              		.loc 2 145 12 view .LVU469
 1249 0182 1BB2     		sxth	r3, r3
 1250              	.LVL121:
 1251              		.loc 2 145 12 view .LVU470
 1252              	.LBE218:
 1253              	.LBE217:
 600:Middlewares/lvgl/src/draw/lv_draw_rect.c ****     if(r_sh > short_side >> 1) r_sh = short_side >> 1;
 1254              		.loc 1 600 18 view .LVU471
 1255 0184 9342     		cmp	r3, r2
 1256 0186 00DD     		ble	.L79
 1257              	.LVL122:
 135:Middlewares/lvgl/src/draw/../misc/lv_area.h **** }
 1258              		.loc 2 135 5 is_stmt 1 view .LVU472
 600:Middlewares/lvgl/src/draw/lv_draw_rect.c ****     if(r_sh > short_side >> 1) r_sh = short_side >> 1;
 1259              		.loc 1 600 18 is_stmt 0 view .LVU473
 1260 0188 1346     		mov	r3, r2
 1261              	.L79:
 1262              	.LVL123:
 601:Middlewares/lvgl/src/draw/lv_draw_rect.c **** 
 1263              		.loc 1 601 5 is_stmt 1 discriminator 4 view .LVU474
 601:Middlewares/lvgl/src/draw/lv_draw_rect.c **** 
 1264              		.loc 1 601 26 is_stmt 0 discriminator 4 view .LVU475
 1265 018a 5E10     		asrs	r6, r3, #1
 601:Middlewares/lvgl/src/draw/lv_draw_rect.c **** 
 1266              		.loc 1 601 7 discriminator 4 view .LVU476
 1267 018c B1EB630F 		cmp	r1, r3, asr #1
 1268 0190 00DC     		bgt	.L80
 599:Middlewares/lvgl/src/draw/lv_draw_rect.c ****     short_side = LV_MIN(lv_area_get_width(&sh_rect_area), lv_area_get_height(&sh_rect_area));
 1269              		.loc 1 599 13 view .LVU477
 1270 0192 0E46     		mov	r6, r1
 1271              	.L80:
 1272              	.LVL124:
 603:Middlewares/lvgl/src/draw/lv_draw_rect.c **** 
 1273              		.loc 1 603 5 is_stmt 1 view .LVU478
 603:Middlewares/lvgl/src/draw/lv_draw_rect.c **** 
 1274              		.loc 1 603 13 is_stmt 0 view .LVU479
 1275 0194 3444     		add	r4, r4, r6
 1276              	.LVL125:
 605:Middlewares/lvgl/src/draw/lv_draw_rect.c **** 
 1277              		.loc 1 605 5 is_stmt 1 view .LVU480
 626:Middlewares/lvgl/src/draw/lv_draw_rect.c ****     shadow_draw_corner_buf(&sh_rect_area, (uint16_t *)sh_buf, dsc->shadow_width, r_sh);
 1278              		.loc 1 626 5 view .LVU481
 626:Middlewares/lvgl/src/draw/lv_draw_rect.c ****     shadow_draw_corner_buf(&sh_rect_area, (uint16_t *)sh_buf, dsc->shadow_width, r_sh);
 1279              		.loc 1 626 41 is_stmt 0 view .LVU482
 1280 0196 04FB04F0 		mul	r0, r4, r4
 626:Middlewares/lvgl/src/draw/lv_draw_rect.c ****     shadow_draw_corner_buf(&sh_rect_area, (uint16_t *)sh_buf, dsc->shadow_width, r_sh);
 1281              		.loc 1 626 14 view .LVU483
ARM GAS  /tmp/ccUpPomB.s 			page 53


 1282 019a 4000     		lsls	r0, r0, #1
 1283 019c FFF7FEFF 		bl	lv_mem_buf_get
 1284              	.LVL126:
 626:Middlewares/lvgl/src/draw/lv_draw_rect.c ****     shadow_draw_corner_buf(&sh_rect_area, (uint16_t *)sh_buf, dsc->shadow_width, r_sh);
 1285              		.loc 1 626 14 view .LVU484
 1286 01a0 0146     		mov	r1, r0
 1287 01a2 0990     		str	r0, [sp, #36]
 1288              	.LVL127:
 627:Middlewares/lvgl/src/draw/lv_draw_rect.c **** #endif
 1289              		.loc 1 627 5 is_stmt 1 view .LVU485
 1290 01a4 33B2     		sxth	r3, r6
 1291 01a6 B5F92A20 		ldrsh	r2, [r5, #42]
 1292 01aa 24A8     		add	r0, sp, #144
 1293              	.LVL128:
 627:Middlewares/lvgl/src/draw/lv_draw_rect.c **** #endif
 1294              		.loc 1 627 5 is_stmt 0 view .LVU486
 1295 01ac FFF7FEFF 		bl	shadow_draw_corner_buf
 1296              	.LVL129:
 630:Middlewares/lvgl/src/draw/lv_draw_rect.c ****     lv_coord_t w_half = sh_area.x1 + lv_area_get_width(&sh_area) / 2;
 1297              		.loc 1 630 5 is_stmt 1 view .LVU487
 630:Middlewares/lvgl/src/draw/lv_draw_rect.c ****     lv_coord_t w_half = sh_area.x1 + lv_area_get_width(&sh_area) / 2;
 1298              		.loc 1 630 32 is_stmt 0 view .LVU488
 1299 01b0 BDF88A20 		ldrh	r2, [sp, #138]
 1300              	.LVL130:
 1301              	.LBB219:
 1302              	.LBI219:
 143:Middlewares/lvgl/src/draw/../misc/lv_area.h **** {
 1303              		.loc 2 143 26 is_stmt 1 view .LVU489
 1304              	.LBB220:
 1305              		.loc 2 145 5 view .LVU490
 1306              		.loc 2 145 31 is_stmt 0 view .LVU491
 1307 01b4 BDF88E30 		ldrh	r3, [sp, #142]
 1308              		.loc 2 145 36 view .LVU492
 1309 01b8 9B1A     		subs	r3, r3, r2
 1310 01ba 9BB2     		uxth	r3, r3
 1311              		.loc 2 145 49 view .LVU493
 1312 01bc 0133     		adds	r3, r3, #1
 1313              		.loc 2 145 12 view .LVU494
 1314 01be 1BB2     		sxth	r3, r3
 1315              	.LVL131:
 1316              		.loc 2 145 12 view .LVU495
 1317              	.LBE220:
 1318              	.LBE219:
 630:Middlewares/lvgl/src/draw/lv_draw_rect.c ****     lv_coord_t w_half = sh_area.x1 + lv_area_get_width(&sh_area) / 2;
 1319              		.loc 1 630 36 view .LVU496
 1320 01c0 002B     		cmp	r3, #0
 1321 01c2 30DB     		blt	.L165
 1322              	.L81:
 1323 01c4 02EB6303 		add	r3, r2, r3, asr #1
 1324 01c8 9AB2     		uxth	r2, r3
 1325 01ca 0D92     		str	r2, [sp, #52]
 630:Middlewares/lvgl/src/draw/lv_draw_rect.c ****     lv_coord_t w_half = sh_area.x1 + lv_area_get_width(&sh_area) / 2;
 1326              		.loc 1 630 16 view .LVU497
 1327 01cc 1BB2     		sxth	r3, r3
 1328 01ce 0B93     		str	r3, [sp, #44]
 1329              	.LVL132:
 631:Middlewares/lvgl/src/draw/lv_draw_rect.c **** 
ARM GAS  /tmp/ccUpPomB.s 			page 54


 1330              		.loc 1 631 5 is_stmt 1 view .LVU498
 631:Middlewares/lvgl/src/draw/lv_draw_rect.c **** 
 1331              		.loc 1 631 32 is_stmt 0 view .LVU499
 1332 01d0 BDF88820 		ldrh	r2, [sp, #136]
 1333              	.LVL133:
 1334              	.LBB221:
 1335              	.LBI221:
 133:Middlewares/lvgl/src/draw/../misc/lv_area.h **** {
 1336              		.loc 2 133 26 is_stmt 1 view .LVU500
 1337              	.LBB222:
 135:Middlewares/lvgl/src/draw/../misc/lv_area.h **** }
 1338              		.loc 2 135 5 view .LVU501
 135:Middlewares/lvgl/src/draw/../misc/lv_area.h **** }
 1339              		.loc 2 135 31 is_stmt 0 view .LVU502
 1340 01d4 BDF88C30 		ldrh	r3, [sp, #140]
 135:Middlewares/lvgl/src/draw/../misc/lv_area.h **** }
 1341              		.loc 2 135 36 view .LVU503
 1342 01d8 9B1A     		subs	r3, r3, r2
 1343 01da 9BB2     		uxth	r3, r3
 135:Middlewares/lvgl/src/draw/../misc/lv_area.h **** }
 1344              		.loc 2 135 49 view .LVU504
 1345 01dc 0133     		adds	r3, r3, #1
 135:Middlewares/lvgl/src/draw/../misc/lv_area.h **** }
 1346              		.loc 2 135 12 view .LVU505
 1347 01de 1BB2     		sxth	r3, r3
 1348              	.LVL134:
 135:Middlewares/lvgl/src/draw/../misc/lv_area.h **** }
 1349              		.loc 2 135 12 view .LVU506
 1350              	.LBE222:
 1351              	.LBE221:
 631:Middlewares/lvgl/src/draw/lv_draw_rect.c **** 
 1352              		.loc 1 631 36 view .LVU507
 1353 01e0 002B     		cmp	r3, #0
 1354 01e2 22DB     		blt	.L166
 1355              	.L82:
 1356 01e4 02EB6303 		add	r3, r2, r3, asr #1
 1357 01e8 9AB2     		uxth	r2, r3
 1358 01ea 0E92     		str	r2, [sp, #56]
 631:Middlewares/lvgl/src/draw/lv_draw_rect.c **** 
 1359              		.loc 1 631 16 view .LVU508
 1360 01ec 1BB2     		sxth	r3, r3
 1361 01ee 0C93     		str	r3, [sp, #48]
 1362              	.LVL135:
 633:Middlewares/lvgl/src/draw/lv_draw_rect.c ****     if(lv_draw_mask_get_cnt() > 0) simple_mode = false;
 1363              		.loc 1 633 5 is_stmt 1 view .LVU509
 634:Middlewares/lvgl/src/draw/lv_draw_rect.c ****     else if(dsc->shadow_ofs_x != 0 || dsc->shadow_ofs_y != 0) simple_mode = false;
 1364              		.loc 1 634 5 view .LVU510
 634:Middlewares/lvgl/src/draw/lv_draw_rect.c ****     else if(dsc->shadow_ofs_x != 0 || dsc->shadow_ofs_y != 0) simple_mode = false;
 1365              		.loc 1 634 8 is_stmt 0 view .LVU511
 1366 01f0 FFF7FEFF 		bl	lv_draw_mask_get_cnt
 1367              	.LVL136:
 634:Middlewares/lvgl/src/draw/lv_draw_rect.c ****     else if(dsc->shadow_ofs_x != 0 || dsc->shadow_ofs_y != 0) simple_mode = false;
 1368              		.loc 1 634 7 view .LVU512
 1369 01f4 D8B9     		cbnz	r0, .L144
 635:Middlewares/lvgl/src/draw/lv_draw_rect.c ****     else if(dsc->shadow_spread != 0) simple_mode = false;
 1370              		.loc 1 635 10 is_stmt 1 view .LVU513
 635:Middlewares/lvgl/src/draw/lv_draw_rect.c ****     else if(dsc->shadow_spread != 0) simple_mode = false;
ARM GAS  /tmp/ccUpPomB.s 			page 55


 1371              		.loc 1 635 36 is_stmt 0 view .LVU514
 1372 01f6 EB6A     		ldr	r3, [r5, #44]
 635:Middlewares/lvgl/src/draw/lv_draw_rect.c ****     else if(dsc->shadow_spread != 0) simple_mode = false;
 1373              		.loc 1 635 12 view .LVU515
 1374 01f8 002B     		cmp	r3, #0
 1375 01fa 40F08980 		bne	.L145
 636:Middlewares/lvgl/src/draw/lv_draw_rect.c **** 
 1376              		.loc 1 636 10 is_stmt 1 view .LVU516
 636:Middlewares/lvgl/src/draw/lv_draw_rect.c **** 
 1377              		.loc 1 636 16 is_stmt 0 view .LVU517
 1378 01fe B5F93030 		ldrsh	r3, [r5, #48]
 636:Middlewares/lvgl/src/draw/lv_draw_rect.c **** 
 1379              		.loc 1 636 12 view .LVU518
 1380 0202 B3B1     		cbz	r3, .L83
 636:Middlewares/lvgl/src/draw/lv_draw_rect.c **** 
 1381              		.loc 1 636 50 view .LVU519
 1382 0204 0023     		movs	r3, #0
 1383 0206 0693     		str	r3, [sp, #24]
 1384 0208 13E0     		b	.L83
 1385              	.LVL137:
 1386              	.L162:
 544:Middlewares/lvgl/src/draw/lv_draw_rect.c ****        dsc->shadow_ofs_y == 0 && dsc->shadow_spread <= 0) {
 1387              		.loc 1 544 57 discriminator 1 view .LVU520
 1388 020a D36A     		ldr	r3, [r2, #44]
 1389 020c 002B     		cmp	r3, #0
 1390 020e 7FF40BAF 		bne	.L71
 545:Middlewares/lvgl/src/draw/lv_draw_rect.c ****         return;
 1391              		.loc 1 545 37 view .LVU521
 1392 0212 B2F93030 		ldrsh	r3, [r2, #48]
 545:Middlewares/lvgl/src/draw/lv_draw_rect.c ****         return;
 1393              		.loc 1 545 31 view .LVU522
 1394 0216 002B     		cmp	r3, #0
 1395 0218 3FF706AF 		bgt	.L71
 1396 021c D6E2     		b	.L69
 1397              	.LVL138:
 1398              	.L163:
 558:Middlewares/lvgl/src/draw/lv_draw_rect.c ****     sh_area.x2 = sh_rect_area.x2 + sw / 2 + 1;
 1399              		.loc 1 558 39 view .LVU523
 1400 021e 631C     		adds	r3, r4, #1
 1401              	.LVL139:
 558:Middlewares/lvgl/src/draw/lv_draw_rect.c ****     sh_area.x2 = sh_rect_area.x2 + sw / 2 + 1;
 1402              		.loc 1 558 39 view .LVU524
 1403 0220 27E7     		b	.L72
 1404              	.L164:
 559:Middlewares/lvgl/src/draw/lv_draw_rect.c ****     sh_area.y1 = sh_rect_area.y1 - sw / 2 - 1;
 1405              		.loc 1 559 39 view .LVU525
 1406 0222 661C     		adds	r6, r4, #1
 1407 0224 31E7     		b	.L73
 1408              	.LVL140:
 1409              	.L165:
 630:Middlewares/lvgl/src/draw/lv_draw_rect.c ****     lv_coord_t w_half = sh_area.x1 + lv_area_get_width(&sh_area) / 2;
 1410              		.loc 1 630 36 view .LVU526
 1411 0226 0133     		adds	r3, r3, #1
 1412 0228 CCE7     		b	.L81
 1413              	.LVL141:
 1414              	.L166:
 631:Middlewares/lvgl/src/draw/lv_draw_rect.c **** 
ARM GAS  /tmp/ccUpPomB.s 			page 56


 1415              		.loc 1 631 36 view .LVU527
 1416 022a 0133     		adds	r3, r3, #1
 1417 022c DAE7     		b	.L82
 1418              	.LVL142:
 1419              	.L144:
 634:Middlewares/lvgl/src/draw/lv_draw_rect.c ****     else if(dsc->shadow_ofs_x != 0 || dsc->shadow_ofs_y != 0) simple_mode = false;
 1420              		.loc 1 634 48 view .LVU528
 1421 022e 0023     		movs	r3, #0
 1422 0230 0693     		str	r3, [sp, #24]
 1423              	.L83:
 1424              	.LVL143:
 639:Middlewares/lvgl/src/draw/lv_draw_rect.c ****     lv_opa_t * mask_buf = lv_mem_buf_get(lv_area_get_width(&sh_area));
 1425              		.loc 1 639 5 is_stmt 1 view .LVU529
 640:Middlewares/lvgl/src/draw/lv_draw_rect.c **** 
 1426              		.loc 1 640 5 view .LVU530
 1427              	.LBB223:
 1428              	.LBI223:
 133:Middlewares/lvgl/src/draw/../misc/lv_area.h **** {
 1429              		.loc 2 133 26 view .LVU531
 1430              	.LBB224:
 135:Middlewares/lvgl/src/draw/../misc/lv_area.h **** }
 1431              		.loc 2 135 5 view .LVU532
 135:Middlewares/lvgl/src/draw/../misc/lv_area.h **** }
 1432              		.loc 2 135 31 is_stmt 0 view .LVU533
 1433 0232 BDF88C00 		ldrh	r0, [sp, #140]
 135:Middlewares/lvgl/src/draw/../misc/lv_area.h **** }
 1434              		.loc 2 135 44 view .LVU534
 1435 0236 BDF88830 		ldrh	r3, [sp, #136]
 135:Middlewares/lvgl/src/draw/../misc/lv_area.h **** }
 1436              		.loc 2 135 36 view .LVU535
 1437 023a C01A     		subs	r0, r0, r3
 1438 023c 80B2     		uxth	r0, r0
 135:Middlewares/lvgl/src/draw/../misc/lv_area.h **** }
 1439              		.loc 2 135 49 view .LVU536
 1440 023e 0130     		adds	r0, r0, #1
 1441              	.LVL144:
 135:Middlewares/lvgl/src/draw/../misc/lv_area.h **** }
 1442              		.loc 2 135 49 view .LVU537
 1443              	.LBE224:
 1444              	.LBE223:
 640:Middlewares/lvgl/src/draw/lv_draw_rect.c **** 
 1445              		.loc 1 640 27 view .LVU538
 1446 0240 00B2     		sxth	r0, r0
 1447 0242 FFF7FEFF 		bl	lv_mem_buf_get
 1448              	.LVL145:
 1449 0246 0646     		mov	r6, r0
 1450              	.LVL146:
 642:Middlewares/lvgl/src/draw/lv_draw_rect.c ****     lv_draw_mask_radius_init(&mask_rout_param, &bg_coords, r_bg, true);
 1451              		.loc 1 642 5 is_stmt 1 view .LVU539
 643:Middlewares/lvgl/src/draw/lv_draw_rect.c **** 
 1452              		.loc 1 643 5 view .LVU540
 1453 0248 3BB2     		sxth	r3, r7
 1454 024a 1A46     		mov	r2, r3
 1455 024c 0893     		str	r3, [sp, #32]
 1456 024e 0123     		movs	r3, #1
 1457 0250 1EA9     		add	r1, sp, #120
 1458 0252 17A8     		add	r0, sp, #92
ARM GAS  /tmp/ccUpPomB.s 			page 57


 1459              	.LVL147:
 643:Middlewares/lvgl/src/draw/lv_draw_rect.c **** 
 1460              		.loc 1 643 5 is_stmt 0 view .LVU541
 1461 0254 FFF7FEFF 		bl	lv_draw_mask_radius_init
 1462              	.LVL148:
 645:Middlewares/lvgl/src/draw/lv_draw_rect.c **** 
 1463              		.loc 1 645 5 is_stmt 1 view .LVU542
 645:Middlewares/lvgl/src/draw/lv_draw_rect.c **** 
 1464              		.loc 1 645 28 is_stmt 0 view .LVU543
 1465 0258 0021     		movs	r1, #0
 1466 025a 17A8     		add	r0, sp, #92
 1467 025c FFF7FEFF 		bl	lv_draw_mask_add
 1468              	.LVL149:
 1469 0260 0A90     		str	r0, [sp, #40]
 1470              	.LVL150:
 647:Middlewares/lvgl/src/draw/lv_draw_rect.c **** 
 1471              		.loc 1 647 5 is_stmt 1 view .LVU544
 650:Middlewares/lvgl/src/draw/lv_draw_rect.c ****     lv_opa_t * sh_buf_tmp;
 1472              		.loc 1 650 5 view .LVU545
 651:Middlewares/lvgl/src/draw/lv_draw_rect.c ****     a.x2 = sh_area.x2;
 1473              		.loc 1 651 5 view .LVU546
 652:Middlewares/lvgl/src/draw/lv_draw_rect.c ****     a.x1 = a.x2 - corner_size + 1;
 1474              		.loc 1 652 5 view .LVU547
 652:Middlewares/lvgl/src/draw/lv_draw_rect.c ****     a.x1 = a.x2 - corner_size + 1;
 1475              		.loc 1 652 19 is_stmt 0 view .LVU548
 1476 0262 BDF98C30 		ldrsh	r3, [sp, #140]
 652:Middlewares/lvgl/src/draw/lv_draw_rect.c ****     a.x1 = a.x2 - corner_size + 1;
 1477              		.loc 1 652 10 view .LVU549
 1478 0266 ADF85830 		strh	r3, [sp, #88]	@ movhi
 653:Middlewares/lvgl/src/draw/lv_draw_rect.c ****     a.y1 = sh_area.y1;
 1479              		.loc 1 653 5 is_stmt 1 view .LVU550
 653:Middlewares/lvgl/src/draw/lv_draw_rect.c ****     a.y1 = sh_area.y1;
 1480              		.loc 1 653 13 is_stmt 0 view .LVU551
 1481 026a 9BB2     		uxth	r3, r3
 653:Middlewares/lvgl/src/draw/lv_draw_rect.c ****     a.y1 = sh_area.y1;
 1482              		.loc 1 653 17 view .LVU552
 1483 026c A7B2     		uxth	r7, r4
 1484              	.LVL151:
 653:Middlewares/lvgl/src/draw/lv_draw_rect.c ****     a.y1 = sh_area.y1;
 1485              		.loc 1 653 17 view .LVU553
 1486 026e DB1B     		subs	r3, r3, r7
 1487 0270 9BB2     		uxth	r3, r3
 653:Middlewares/lvgl/src/draw/lv_draw_rect.c ****     a.y1 = sh_area.y1;
 1488              		.loc 1 653 31 view .LVU554
 1489 0272 0133     		adds	r3, r3, #1
 653:Middlewares/lvgl/src/draw/lv_draw_rect.c ****     a.y1 = sh_area.y1;
 1490              		.loc 1 653 10 view .LVU555
 1491 0274 ADF85430 		strh	r3, [sp, #84]	@ movhi
 654:Middlewares/lvgl/src/draw/lv_draw_rect.c ****     a.y2 = a.y1 + corner_size - 1;
 1492              		.loc 1 654 5 is_stmt 1 view .LVU556
 654:Middlewares/lvgl/src/draw/lv_draw_rect.c ****     a.y2 = a.y1 + corner_size - 1;
 1493              		.loc 1 654 19 is_stmt 0 view .LVU557
 1494 0278 BDF98A30 		ldrsh	r3, [sp, #138]
 654:Middlewares/lvgl/src/draw/lv_draw_rect.c ****     a.y2 = a.y1 + corner_size - 1;
 1495              		.loc 1 654 10 view .LVU558
 1496 027c ADF85630 		strh	r3, [sp, #86]	@ movhi
 655:Middlewares/lvgl/src/draw/lv_draw_rect.c **** 
ARM GAS  /tmp/ccUpPomB.s 			page 58


 1497              		.loc 1 655 5 is_stmt 1 view .LVU559
 655:Middlewares/lvgl/src/draw/lv_draw_rect.c **** 
 1498              		.loc 1 655 17 is_stmt 0 view .LVU560
 1499 0280 17FA83F3 		uxtah	r3, r7, r3
 1500 0284 9BB2     		uxth	r3, r3
 655:Middlewares/lvgl/src/draw/lv_draw_rect.c **** 
 1501              		.loc 1 655 31 view .LVU561
 1502 0286 013B     		subs	r3, r3, #1
 655:Middlewares/lvgl/src/draw/lv_draw_rect.c **** 
 1503              		.loc 1 655 10 view .LVU562
 1504 0288 ADF85A30 		strh	r3, [sp, #90]	@ movhi
 657:Middlewares/lvgl/src/draw/lv_draw_rect.c ****     bool has_com = _lv_area_intersect(&ca, &a, clip);
 1505              		.loc 1 657 5 is_stmt 1 view .LVU563
 658:Middlewares/lvgl/src/draw/lv_draw_rect.c ****     if(has_com && _lv_area_is_in(&a, &bg_coords, r_bg) == false) {
 1506              		.loc 1 658 5 view .LVU564
 658:Middlewares/lvgl/src/draw/lv_draw_rect.c ****     if(has_com && _lv_area_is_in(&a, &bg_coords, r_bg) == false) {
 1507              		.loc 1 658 20 is_stmt 0 view .LVU565
 1508 028c 049A     		ldr	r2, [sp, #16]
 1509 028e 15A9     		add	r1, sp, #84
 1510 0290 13A8     		add	r0, sp, #76
 1511 0292 FFF7FEFF 		bl	_lv_area_intersect
 1512              	.LVL152:
 659:Middlewares/lvgl/src/draw/lv_draw_rect.c ****         /*Avoid overlap in the middle with large radius*/
 1513              		.loc 1 659 5 is_stmt 1 view .LVU566
 659:Middlewares/lvgl/src/draw/lv_draw_rect.c ****         /*Avoid overlap in the middle with large radius*/
 1514              		.loc 1 659 7 is_stmt 0 view .LVU567
 1515 0296 0028     		cmp	r0, #0
 1516 0298 3DD1     		bne	.L167
 1517              	.LVL153:
 1518              	.L84:
 689:Middlewares/lvgl/src/draw/lv_draw_rect.c ****     a.x1 = a.x2 - corner_size + 1;
 1519              		.loc 1 689 5 is_stmt 1 view .LVU568
 689:Middlewares/lvgl/src/draw/lv_draw_rect.c ****     a.x1 = a.x2 - corner_size + 1;
 1520              		.loc 1 689 19 is_stmt 0 view .LVU569
 1521 029a BDF98C30 		ldrsh	r3, [sp, #140]
 689:Middlewares/lvgl/src/draw/lv_draw_rect.c ****     a.x1 = a.x2 - corner_size + 1;
 1522              		.loc 1 689 10 view .LVU570
 1523 029e ADF85830 		strh	r3, [sp, #88]	@ movhi
 690:Middlewares/lvgl/src/draw/lv_draw_rect.c ****     a.y1 = sh_area.y2 - corner_size + 1;
 1524              		.loc 1 690 5 is_stmt 1 view .LVU571
 690:Middlewares/lvgl/src/draw/lv_draw_rect.c ****     a.y1 = sh_area.y2 - corner_size + 1;
 1525              		.loc 1 690 13 is_stmt 0 view .LVU572
 1526 02a2 9BB2     		uxth	r3, r3
 690:Middlewares/lvgl/src/draw/lv_draw_rect.c ****     a.y1 = sh_area.y2 - corner_size + 1;
 1527              		.loc 1 690 17 view .LVU573
 1528 02a4 DB1B     		subs	r3, r3, r7
 1529 02a6 9BB2     		uxth	r3, r3
 690:Middlewares/lvgl/src/draw/lv_draw_rect.c ****     a.y1 = sh_area.y2 - corner_size + 1;
 1530              		.loc 1 690 31 view .LVU574
 1531 02a8 0133     		adds	r3, r3, #1
 690:Middlewares/lvgl/src/draw/lv_draw_rect.c ****     a.y1 = sh_area.y2 - corner_size + 1;
 1532              		.loc 1 690 10 view .LVU575
 1533 02aa ADF85430 		strh	r3, [sp, #84]	@ movhi
 691:Middlewares/lvgl/src/draw/lv_draw_rect.c ****     a.y2 = sh_area.y2;
 1534              		.loc 1 691 5 is_stmt 1 view .LVU576
 691:Middlewares/lvgl/src/draw/lv_draw_rect.c ****     a.y2 = sh_area.y2;
 1535              		.loc 1 691 19 is_stmt 0 view .LVU577
ARM GAS  /tmp/ccUpPomB.s 			page 59


 1536 02ae BDF98E20 		ldrsh	r2, [sp, #142]
 1537 02b2 93B2     		uxth	r3, r2
 691:Middlewares/lvgl/src/draw/lv_draw_rect.c ****     a.y2 = sh_area.y2;
 1538              		.loc 1 691 23 view .LVU578
 1539 02b4 DB1B     		subs	r3, r3, r7
 1540 02b6 9BB2     		uxth	r3, r3
 691:Middlewares/lvgl/src/draw/lv_draw_rect.c ****     a.y2 = sh_area.y2;
 1541              		.loc 1 691 37 view .LVU579
 1542 02b8 0133     		adds	r3, r3, #1
 691:Middlewares/lvgl/src/draw/lv_draw_rect.c ****     a.y2 = sh_area.y2;
 1543              		.loc 1 691 10 view .LVU580
 1544 02ba ADF85630 		strh	r3, [sp, #86]	@ movhi
 692:Middlewares/lvgl/src/draw/lv_draw_rect.c **** 
 1545              		.loc 1 692 5 is_stmt 1 view .LVU581
 692:Middlewares/lvgl/src/draw/lv_draw_rect.c **** 
 1546              		.loc 1 692 10 is_stmt 0 view .LVU582
 1547 02be ADF85A20 		strh	r2, [sp, #90]	@ movhi
 694:Middlewares/lvgl/src/draw/lv_draw_rect.c ****     if(has_com && _lv_area_is_in(&a, &bg_coords, r_bg) == false) {
 1548              		.loc 1 694 5 is_stmt 1 view .LVU583
 694:Middlewares/lvgl/src/draw/lv_draw_rect.c ****     if(has_com && _lv_area_is_in(&a, &bg_coords, r_bg) == false) {
 1549              		.loc 1 694 15 is_stmt 0 view .LVU584
 1550 02c2 049A     		ldr	r2, [sp, #16]
 1551 02c4 15A9     		add	r1, sp, #84
 1552 02c6 13A8     		add	r0, sp, #76
 1553 02c8 FFF7FEFF 		bl	_lv_area_intersect
 1554              	.LVL154:
 695:Middlewares/lvgl/src/draw/lv_draw_rect.c ****         /*Avoid overlap in the middle with large radius*/
 1555              		.loc 1 695 5 is_stmt 1 view .LVU585
 695:Middlewares/lvgl/src/draw/lv_draw_rect.c ****         /*Avoid overlap in the middle with large radius*/
 1556              		.loc 1 695 7 is_stmt 0 view .LVU586
 1557 02cc 0028     		cmp	r0, #0
 1558 02ce 40F0A280 		bne	.L168
 1559              	.LVL155:
 1560              	.L90:
 726:Middlewares/lvgl/src/draw/lv_draw_rect.c ****     a.x1 = a.x2 - corner_size + 1;
 1561              		.loc 1 726 5 is_stmt 1 view .LVU587
 726:Middlewares/lvgl/src/draw/lv_draw_rect.c ****     a.x1 = a.x2 - corner_size + 1;
 1562              		.loc 1 726 19 is_stmt 0 view .LVU588
 1563 02d2 BDF98C30 		ldrsh	r3, [sp, #140]
 726:Middlewares/lvgl/src/draw/lv_draw_rect.c ****     a.x1 = a.x2 - corner_size + 1;
 1564              		.loc 1 726 10 view .LVU589
 1565 02d6 ADF85830 		strh	r3, [sp, #88]	@ movhi
 727:Middlewares/lvgl/src/draw/lv_draw_rect.c ****     a.y1 = sh_area.y1 + corner_size;
 1566              		.loc 1 727 5 is_stmt 1 view .LVU590
 727:Middlewares/lvgl/src/draw/lv_draw_rect.c ****     a.y1 = sh_area.y1 + corner_size;
 1567              		.loc 1 727 13 is_stmt 0 view .LVU591
 1568 02da 9BB2     		uxth	r3, r3
 727:Middlewares/lvgl/src/draw/lv_draw_rect.c ****     a.y1 = sh_area.y1 + corner_size;
 1569              		.loc 1 727 17 view .LVU592
 1570 02dc DB1B     		subs	r3, r3, r7
 1571 02de 9BB2     		uxth	r3, r3
 727:Middlewares/lvgl/src/draw/lv_draw_rect.c ****     a.y1 = sh_area.y1 + corner_size;
 1572              		.loc 1 727 31 view .LVU593
 1573 02e0 0133     		adds	r3, r3, #1
 727:Middlewares/lvgl/src/draw/lv_draw_rect.c ****     a.y1 = sh_area.y1 + corner_size;
 1574              		.loc 1 727 10 view .LVU594
 1575 02e2 ADF85430 		strh	r3, [sp, #84]	@ movhi
ARM GAS  /tmp/ccUpPomB.s 			page 60


 728:Middlewares/lvgl/src/draw/lv_draw_rect.c ****     a.y2 = sh_area.y2 - corner_size;
 1576              		.loc 1 728 5 is_stmt 1 view .LVU595
 728:Middlewares/lvgl/src/draw/lv_draw_rect.c ****     a.y2 = sh_area.y2 - corner_size;
 1577              		.loc 1 728 19 is_stmt 0 view .LVU596
 1578 02e6 BDF88A30 		ldrh	r3, [sp, #138]
 728:Middlewares/lvgl/src/draw/lv_draw_rect.c ****     a.y2 = sh_area.y2 - corner_size;
 1579              		.loc 1 728 23 view .LVU597
 1580 02ea 3B44     		add	r3, r3, r7
 728:Middlewares/lvgl/src/draw/lv_draw_rect.c ****     a.y2 = sh_area.y2 - corner_size;
 1581              		.loc 1 728 10 view .LVU598
 1582 02ec ADF85630 		strh	r3, [sp, #86]	@ movhi
 729:Middlewares/lvgl/src/draw/lv_draw_rect.c **** 
 1583              		.loc 1 729 5 is_stmt 1 view .LVU599
 729:Middlewares/lvgl/src/draw/lv_draw_rect.c **** 
 1584              		.loc 1 729 19 is_stmt 0 view .LVU600
 1585 02f0 BDF88E30 		ldrh	r3, [sp, #142]
 729:Middlewares/lvgl/src/draw/lv_draw_rect.c **** 
 1586              		.loc 1 729 23 view .LVU601
 1587 02f4 DB1B     		subs	r3, r3, r7
 729:Middlewares/lvgl/src/draw/lv_draw_rect.c **** 
 1588              		.loc 1 729 10 view .LVU602
 1589 02f6 ADF85A30 		strh	r3, [sp, #90]	@ movhi
 731:Middlewares/lvgl/src/draw/lv_draw_rect.c ****     if(has_com && _lv_area_is_in(&a, &bg_coords, r_bg) == false) {
 1590              		.loc 1 731 5 is_stmt 1 view .LVU603
 731:Middlewares/lvgl/src/draw/lv_draw_rect.c ****     if(has_com && _lv_area_is_in(&a, &bg_coords, r_bg) == false) {
 1591              		.loc 1 731 15 is_stmt 0 view .LVU604
 1592 02fa 049A     		ldr	r2, [sp, #16]
 1593 02fc 15A9     		add	r1, sp, #84
 1594 02fe 13A8     		add	r0, sp, #76
 1595 0300 FFF7FEFF 		bl	_lv_area_intersect
 1596              	.LVL156:
 732:Middlewares/lvgl/src/draw/lv_draw_rect.c ****         /*Avoid overlap in the middle with large radius*/
 1597              		.loc 1 732 5 is_stmt 1 view .LVU605
 732:Middlewares/lvgl/src/draw/lv_draw_rect.c ****         /*Avoid overlap in the middle with large radius*/
 1598              		.loc 1 732 7 is_stmt 0 view .LVU606
 1599 0304 0028     		cmp	r0, #0
 1600 0306 40F00681 		bne	.L169
 1601              	.LVL157:
 1602              	.L96:
 1603              	.LBB225:
 774:Middlewares/lvgl/src/draw/lv_draw_rect.c ****             lv_opa_t tmp = sh_buf_tmp[x];
 1604              		.loc 1 774 15 discriminator 1 view .LVU607
 1605 030a 0999     		ldr	r1, [sp, #36]
 1606 030c 0020     		movs	r0, #0
 1607 030e A4E1     		b	.L104
 1608              	.LVL158:
 1609              	.L145:
 774:Middlewares/lvgl/src/draw/lv_draw_rect.c ****             lv_opa_t tmp = sh_buf_tmp[x];
 1610              		.loc 1 774 15 discriminator 1 view .LVU608
 1611              	.LBE225:
 635:Middlewares/lvgl/src/draw/lv_draw_rect.c ****     else if(dsc->shadow_spread != 0) simple_mode = false;
 1612              		.loc 1 635 75 view .LVU609
 1613 0310 0023     		movs	r3, #0
 1614 0312 0693     		str	r3, [sp, #24]
 1615 0314 8DE7     		b	.L83
 1616              	.LVL159:
 1617              	.L167:
ARM GAS  /tmp/ccUpPomB.s 			page 61


 659:Middlewares/lvgl/src/draw/lv_draw_rect.c ****         /*Avoid overlap in the middle with large radius*/
 1618              		.loc 1 659 19 discriminator 1 view .LVU610
 1619 0316 089A     		ldr	r2, [sp, #32]
 1620 0318 1EA9     		add	r1, sp, #120
 1621 031a 15A8     		add	r0, sp, #84
 1622              	.LVL160:
 659:Middlewares/lvgl/src/draw/lv_draw_rect.c ****         /*Avoid overlap in the middle with large radius*/
 1623              		.loc 1 659 19 discriminator 1 view .LVU611
 1624 031c FFF7FEFF 		bl	_lv_area_is_in
 1625              	.LVL161:
 659:Middlewares/lvgl/src/draw/lv_draw_rect.c ****         /*Avoid overlap in the middle with large radius*/
 1626              		.loc 1 659 16 discriminator 1 view .LVU612
 1627 0320 0028     		cmp	r0, #0
 1628 0322 BAD1     		bne	.L84
 1629              	.LBB227:
 661:Middlewares/lvgl/src/draw/lv_draw_rect.c ****         if(ca.x1 <= w_half) ca.x1 = w_half + 1;
 1630              		.loc 1 661 9 is_stmt 1 view .LVU613
 661:Middlewares/lvgl/src/draw/lv_draw_rect.c ****         if(ca.x1 <= w_half) ca.x1 = w_half + 1;
 1631              		.loc 1 661 14 is_stmt 0 view .LVU614
 1632 0324 BDF95230 		ldrsh	r3, [sp, #82]
 661:Middlewares/lvgl/src/draw/lv_draw_rect.c ****         if(ca.x1 <= w_half) ca.x1 = w_half + 1;
 1633              		.loc 1 661 11 view .LVU615
 1634 0328 0B9A     		ldr	r2, [sp, #44]
 1635 032a 9342     		cmp	r3, r2
 1636 032c 01DD     		ble	.L85
 661:Middlewares/lvgl/src/draw/lv_draw_rect.c ****         if(ca.x1 <= w_half) ca.x1 = w_half + 1;
 1637              		.loc 1 661 28 is_stmt 1 discriminator 1 view .LVU616
 661:Middlewares/lvgl/src/draw/lv_draw_rect.c ****         if(ca.x1 <= w_half) ca.x1 = w_half + 1;
 1638              		.loc 1 661 34 is_stmt 0 discriminator 1 view .LVU617
 1639 032e ADF85220 		strh	r2, [sp, #82]	@ movhi
 1640              	.L85:
 662:Middlewares/lvgl/src/draw/lv_draw_rect.c **** 
 1641              		.loc 1 662 9 is_stmt 1 view .LVU618
 662:Middlewares/lvgl/src/draw/lv_draw_rect.c **** 
 1642              		.loc 1 662 14 is_stmt 0 view .LVU619
 1643 0332 BDF94C30 		ldrsh	r3, [sp, #76]
 662:Middlewares/lvgl/src/draw/lv_draw_rect.c **** 
 1644              		.loc 1 662 11 view .LVU620
 1645 0336 0C9A     		ldr	r2, [sp, #48]
 1646 0338 9342     		cmp	r3, r2
 1647 033a 03DC     		bgt	.L86
 662:Middlewares/lvgl/src/draw/lv_draw_rect.c **** 
 1648              		.loc 1 662 29 is_stmt 1 discriminator 1 view .LVU621
 662:Middlewares/lvgl/src/draw/lv_draw_rect.c **** 
 1649              		.loc 1 662 44 is_stmt 0 discriminator 1 view .LVU622
 1650 033c 0E9B     		ldr	r3, [sp, #56]
 1651 033e 0133     		adds	r3, r3, #1
 662:Middlewares/lvgl/src/draw/lv_draw_rect.c **** 
 1652              		.loc 1 662 35 discriminator 1 view .LVU623
 1653 0340 ADF84C30 		strh	r3, [sp, #76]	@ movhi
 1654              	.L86:
 664:Middlewares/lvgl/src/draw/lv_draw_rect.c ****         lv_coord_t w = lv_area_get_width(&ca);
 1655              		.loc 1 664 9 is_stmt 1 view .LVU624
 1656              	.LVL162:
 1657              	.LBB228:
 1658              	.LBI228:
 143:Middlewares/lvgl/src/draw/../misc/lv_area.h **** {
ARM GAS  /tmp/ccUpPomB.s 			page 62


 1659              		.loc 2 143 26 view .LVU625
 1660              	.LBB229:
 1661              		.loc 2 145 5 view .LVU626
 1662              		.loc 2 145 31 is_stmt 0 view .LVU627
 1663 0344 BDF952E0 		ldrsh	lr, [sp, #82]
 1664 0348 1FFA8EFB 		uxth	fp, lr
 1665              		.loc 2 145 44 view .LVU628
 1666 034c BDF94E30 		ldrsh	r3, [sp, #78]
 1667 0350 9AB2     		uxth	r2, r3
 1668              		.loc 2 145 36 view .LVU629
 1669 0352 ABEB020B 		sub	fp, fp, r2
 1670 0356 1FFA8BFB 		uxth	fp, fp
 1671              		.loc 2 145 49 view .LVU630
 1672 035a 0BF1010B 		add	fp, fp, #1
 1673              		.loc 2 145 12 view .LVU631
 1674 035e 0FFA8BFB 		sxth	fp, fp
 1675              	.LVL163:
 1676              		.loc 2 145 12 view .LVU632
 1677              	.LBE229:
 1678              	.LBE228:
 665:Middlewares/lvgl/src/draw/lv_draw_rect.c ****         if(w > 0) {
 1679              		.loc 1 665 9 is_stmt 1 view .LVU633
 1680              	.LBB230:
 1681              	.LBI230:
 133:Middlewares/lvgl/src/draw/../misc/lv_area.h **** {
 1682              		.loc 2 133 26 view .LVU634
 1683              	.LBB231:
 135:Middlewares/lvgl/src/draw/../misc/lv_area.h **** }
 1684              		.loc 2 135 5 view .LVU635
 135:Middlewares/lvgl/src/draw/../misc/lv_area.h **** }
 1685              		.loc 2 135 31 is_stmt 0 view .LVU636
 1686 0362 BDF95000 		ldrsh	r0, [sp, #80]
 1687 0366 1FFA80FA 		uxth	r10, r0
 135:Middlewares/lvgl/src/draw/../misc/lv_area.h **** }
 1688              		.loc 2 135 44 view .LVU637
 1689 036a BDF94C20 		ldrsh	r2, [sp, #76]
 1690 036e 1FFA82FC 		uxth	ip, r2
 135:Middlewares/lvgl/src/draw/../misc/lv_area.h **** }
 1691              		.loc 2 135 36 view .LVU638
 1692 0372 AAEB0C0A 		sub	r10, r10, ip
 1693 0376 1FFA8AFA 		uxth	r10, r10
 135:Middlewares/lvgl/src/draw/../misc/lv_area.h **** }
 1694              		.loc 2 135 49 view .LVU639
 1695 037a 0AF1010A 		add	r10, r10, #1
 135:Middlewares/lvgl/src/draw/../misc/lv_area.h **** }
 1696              		.loc 2 135 12 view .LVU640
 1697 037e 0FFA8AFA 		sxth	r10, r10
 1698              	.LVL164:
 135:Middlewares/lvgl/src/draw/../misc/lv_area.h **** }
 1699              		.loc 2 135 12 view .LVU641
 1700              	.LBE231:
 1701              	.LBE230:
 666:Middlewares/lvgl/src/draw/lv_draw_rect.c ****             sh_buf_tmp = sh_buf + (ca.x1 - a.x1);
 1702              		.loc 1 666 9 is_stmt 1 view .LVU642
 666:Middlewares/lvgl/src/draw/lv_draw_rect.c ****             sh_buf_tmp = sh_buf + (ca.x1 - a.x1);
 1703              		.loc 1 666 11 is_stmt 0 view .LVU643
 1704 0382 BAF1000F 		cmp	r10, #0
ARM GAS  /tmp/ccUpPomB.s 			page 63


 1705 0386 88DD     		ble	.L84
 1706              	.LBB232:
 667:Middlewares/lvgl/src/draw/lv_draw_rect.c ****             sh_buf_tmp += corner_size * (ca.y1 - a.y1);
 1707              		.loc 1 667 13 is_stmt 1 view .LVU644
 667:Middlewares/lvgl/src/draw/lv_draw_rect.c ****             sh_buf_tmp += corner_size * (ca.y1 - a.y1);
 1708              		.loc 1 667 45 is_stmt 0 view .LVU645
 1709 0388 BDF95480 		ldrsh	r8, [sp, #84]
 667:Middlewares/lvgl/src/draw/lv_draw_rect.c ****             sh_buf_tmp += corner_size * (ca.y1 - a.y1);
 1710              		.loc 1 667 42 view .LVU646
 1711 038c A2EB0808 		sub	r8, r2, r8
 1712              	.LVL165:
 668:Middlewares/lvgl/src/draw/lv_draw_rect.c **** 
 1713              		.loc 1 668 13 is_stmt 1 view .LVU647
 668:Middlewares/lvgl/src/draw/lv_draw_rect.c **** 
 1714              		.loc 1 668 51 is_stmt 0 view .LVU648
 1715 0390 BDF956C0 		ldrsh	ip, [sp, #86]
 668:Middlewares/lvgl/src/draw/lv_draw_rect.c **** 
 1716              		.loc 1 668 48 view .LVU649
 1717 0394 A3EB0C0C 		sub	ip, r3, ip
 668:Middlewares/lvgl/src/draw/lv_draw_rect.c **** 
 1718              		.loc 1 668 24 view .LVU650
 1719 0398 04FB0C88 		mla	r8, r4, ip, r8
 1720              	.LVL166:
 668:Middlewares/lvgl/src/draw/lv_draw_rect.c **** 
 1721              		.loc 1 668 24 view .LVU651
 1722 039c 0999     		ldr	r1, [sp, #36]
 1723 039e 8844     		add	r8, r8, r1
 1724              	.LVL167:
 670:Middlewares/lvgl/src/draw/lv_draw_rect.c ****             lv_area_copy(&fa, &ca);
 1725              		.loc 1 670 13 is_stmt 1 view .LVU652
 671:Middlewares/lvgl/src/draw/lv_draw_rect.c ****             fa.y2 = fa.y1;
 1726              		.loc 1 671 13 view .LVU653
 1727              	.LBB233:
 1728              	.LBI233:
 120:Middlewares/lvgl/src/draw/../misc/lv_area.h **** {
 1729              		.loc 2 120 20 view .LVU654
 1730              	.LBB234:
 122:Middlewares/lvgl/src/draw/../misc/lv_area.h ****     dest->y1 = src->y1;
 1731              		.loc 2 122 5 view .LVU655
 122:Middlewares/lvgl/src/draw/../misc/lv_area.h ****     dest->y1 = src->y1;
 1732              		.loc 2 122 14 is_stmt 0 view .LVU656
 1733 03a0 ADF84420 		strh	r2, [sp, #68]	@ movhi
 123:Middlewares/lvgl/src/draw/../misc/lv_area.h ****     dest->x2 = src->x2;
 1734              		.loc 2 123 5 is_stmt 1 view .LVU657
 123:Middlewares/lvgl/src/draw/../misc/lv_area.h ****     dest->x2 = src->x2;
 1735              		.loc 2 123 14 is_stmt 0 view .LVU658
 1736 03a4 ADF84630 		strh	r3, [sp, #70]	@ movhi
 124:Middlewares/lvgl/src/draw/../misc/lv_area.h ****     dest->y2 = src->y2;
 1737              		.loc 2 124 5 is_stmt 1 view .LVU659
 124:Middlewares/lvgl/src/draw/../misc/lv_area.h ****     dest->y2 = src->y2;
 1738              		.loc 2 124 14 is_stmt 0 view .LVU660
 1739 03a8 ADF84800 		strh	r0, [sp, #72]	@ movhi
 125:Middlewares/lvgl/src/draw/../misc/lv_area.h **** }
 1740              		.loc 2 125 5 is_stmt 1 view .LVU661
 125:Middlewares/lvgl/src/draw/../misc/lv_area.h **** }
 1741              		.loc 2 125 14 is_stmt 0 view .LVU662
 1742 03ac ADF84AE0 		strh	lr, [sp, #74]	@ movhi
ARM GAS  /tmp/ccUpPomB.s 			page 64


 1743              	.LVL168:
 125:Middlewares/lvgl/src/draw/../misc/lv_area.h **** }
 1744              		.loc 2 125 14 view .LVU663
 1745              	.LBE234:
 1746              	.LBE233:
 672:Middlewares/lvgl/src/draw/lv_draw_rect.c **** 
 1747              		.loc 1 672 13 is_stmt 1 view .LVU664
 672:Middlewares/lvgl/src/draw/lv_draw_rect.c **** 
 1748              		.loc 1 672 19 is_stmt 0 view .LVU665
 1749 03b0 ADF84A30 		strh	r3, [sp, #74]	@ movhi
 674:Middlewares/lvgl/src/draw/lv_draw_rect.c ****                 lv_memcpy(mask_buf, sh_buf_tmp, w);
 1750              		.loc 1 674 13 is_stmt 1 view .LVU666
 1751              	.LVL169:
 674:Middlewares/lvgl/src/draw/lv_draw_rect.c ****                 lv_memcpy(mask_buf, sh_buf_tmp, w);
 1752              		.loc 1 674 19 is_stmt 0 view .LVU667
 1753 03b4 4FF00009 		mov	r9, #0
 1754 03b8 0F97     		str	r7, [sp, #60]
 1755 03ba 079F     		ldr	r7, [sp, #28]
 674:Middlewares/lvgl/src/draw/lv_draw_rect.c ****                 lv_memcpy(mask_buf, sh_buf_tmp, w);
 1756              		.loc 1 674 13 view .LVU668
 1757 03bc 16E0     		b	.L87
 1758              	.LVL170:
 1759              	.L88:
 679:Middlewares/lvgl/src/draw/lv_draw_rect.c ****                                mask_res, opa, dsc->blend_mode);
 1760              		.loc 1 679 17 is_stmt 1 discriminator 2 view .LVU669
 1761 03be AB78     		ldrb	r3, [r5, #2]	@ zero_extendqisi2
 1762 03c0 0293     		str	r3, [sp, #8]
 1763 03c2 0197     		str	r7, [sp, #4]
 1764 03c4 0090     		str	r0, [sp]
 1765 03c6 3346     		mov	r3, r6
 1766 03c8 2A8D     		ldrh	r2, [r5, #40]
 1767 03ca 11A9     		add	r1, sp, #68
 1768 03cc 0498     		ldr	r0, [sp, #16]
 1769              	.LVL171:
 679:Middlewares/lvgl/src/draw/lv_draw_rect.c ****                                mask_res, opa, dsc->blend_mode);
 1770              		.loc 1 679 17 is_stmt 0 discriminator 2 view .LVU670
 1771 03ce FFF7FEFF 		bl	_lv_blend_fill
 1772              	.LVL172:
 681:Middlewares/lvgl/src/draw/lv_draw_rect.c ****                 fa.y2++;
 1773              		.loc 1 681 17 is_stmt 1 discriminator 2 view .LVU671
 681:Middlewares/lvgl/src/draw/lv_draw_rect.c ****                 fa.y2++;
 1774              		.loc 1 681 19 is_stmt 0 discriminator 2 view .LVU672
 1775 03d2 BDF94630 		ldrsh	r3, [sp, #70]
 681:Middlewares/lvgl/src/draw/lv_draw_rect.c ****                 fa.y2++;
 1776              		.loc 1 681 22 discriminator 2 view .LVU673
 1777 03d6 0133     		adds	r3, r3, #1
 1778 03d8 ADF84630 		strh	r3, [sp, #70]	@ movhi
 682:Middlewares/lvgl/src/draw/lv_draw_rect.c ****                 sh_buf_tmp += corner_size;
 1779              		.loc 1 682 17 is_stmt 1 discriminator 2 view .LVU674
 682:Middlewares/lvgl/src/draw/lv_draw_rect.c ****                 sh_buf_tmp += corner_size;
 1780              		.loc 1 682 19 is_stmt 0 discriminator 2 view .LVU675
 1781 03dc BDF94A30 		ldrsh	r3, [sp, #74]
 682:Middlewares/lvgl/src/draw/lv_draw_rect.c ****                 sh_buf_tmp += corner_size;
 1782              		.loc 1 682 22 discriminator 2 view .LVU676
 1783 03e0 0133     		adds	r3, r3, #1
 1784 03e2 ADF84A30 		strh	r3, [sp, #74]	@ movhi
 683:Middlewares/lvgl/src/draw/lv_draw_rect.c ****             }
ARM GAS  /tmp/ccUpPomB.s 			page 65


 1785              		.loc 1 683 17 is_stmt 1 discriminator 2 view .LVU677
 683:Middlewares/lvgl/src/draw/lv_draw_rect.c ****             }
 1786              		.loc 1 683 28 is_stmt 0 discriminator 2 view .LVU678
 1787 03e6 A044     		add	r8, r8, r4
 1788              	.LVL173:
 674:Middlewares/lvgl/src/draw/lv_draw_rect.c ****                 lv_memcpy(mask_buf, sh_buf_tmp, w);
 1789              		.loc 1 674 31 is_stmt 1 discriminator 2 view .LVU679
 674:Middlewares/lvgl/src/draw/lv_draw_rect.c ****                 lv_memcpy(mask_buf, sh_buf_tmp, w);
 1790              		.loc 1 674 32 is_stmt 0 discriminator 2 view .LVU680
 1791 03e8 09F10109 		add	r9, r9, #1
 1792              	.LVL174:
 1793              	.L87:
 674:Middlewares/lvgl/src/draw/lv_draw_rect.c ****                 lv_memcpy(mask_buf, sh_buf_tmp, w);
 1794              		.loc 1 674 24 is_stmt 1 discriminator 1 view .LVU681
 674:Middlewares/lvgl/src/draw/lv_draw_rect.c ****                 lv_memcpy(mask_buf, sh_buf_tmp, w);
 1795              		.loc 1 674 13 is_stmt 0 discriminator 1 view .LVU682
 1796 03ec CB45     		cmp	fp, r9
 1797 03ee 10DD     		ble	.L170
 675:Middlewares/lvgl/src/draw/lv_draw_rect.c ****                 mask_res = lv_draw_mask_apply(mask_buf, fa.x1, fa.y1, w);
 1798              		.loc 1 675 17 is_stmt 1 view .LVU683
 1799 03f0 5246     		mov	r2, r10
 1800 03f2 4146     		mov	r1, r8
 1801 03f4 3046     		mov	r0, r6
 1802 03f6 FFF7FEFF 		bl	lv_memcpy
 1803              	.LVL175:
 676:Middlewares/lvgl/src/draw/lv_draw_rect.c ****                 if(mask_res == LV_DRAW_MASK_RES_FULL_COVER) mask_res = LV_DRAW_MASK_RES_CHANGED;
 1804              		.loc 1 676 17 view .LVU684
 676:Middlewares/lvgl/src/draw/lv_draw_rect.c ****                 if(mask_res == LV_DRAW_MASK_RES_FULL_COVER) mask_res = LV_DRAW_MASK_RES_CHANGED;
 1805              		.loc 1 676 28 is_stmt 0 view .LVU685
 1806 03fa 5346     		mov	r3, r10
 1807 03fc BDF94620 		ldrsh	r2, [sp, #70]
 1808 0400 BDF94410 		ldrsh	r1, [sp, #68]
 1809 0404 3046     		mov	r0, r6
 1810 0406 FFF7FEFF 		bl	lv_draw_mask_apply
 1811              	.LVL176:
 677:Middlewares/lvgl/src/draw/lv_draw_rect.c **** 
 1812              		.loc 1 677 17 is_stmt 1 view .LVU686
 677:Middlewares/lvgl/src/draw/lv_draw_rect.c **** 
 1813              		.loc 1 677 19 is_stmt 0 view .LVU687
 1814 040a 0128     		cmp	r0, #1
 1815 040c D7D1     		bne	.L88
 677:Middlewares/lvgl/src/draw/lv_draw_rect.c **** 
 1816              		.loc 1 677 70 view .LVU688
 1817 040e 0220     		movs	r0, #2
 1818              	.LVL177:
 677:Middlewares/lvgl/src/draw/lv_draw_rect.c **** 
 1819              		.loc 1 677 70 view .LVU689
 1820 0410 D5E7     		b	.L88
 1821              	.L170:
 677:Middlewares/lvgl/src/draw/lv_draw_rect.c **** 
 1822              		.loc 1 677 70 view .LVU690
 1823 0412 0F9F     		ldr	r7, [sp, #60]
 1824 0414 41E7     		b	.L84
 1825              	.LVL178:
 1826              	.L168:
 677:Middlewares/lvgl/src/draw/lv_draw_rect.c **** 
 1827              		.loc 1 677 70 view .LVU691
ARM GAS  /tmp/ccUpPomB.s 			page 66


 1828              	.LBE232:
 1829              	.LBE227:
 695:Middlewares/lvgl/src/draw/lv_draw_rect.c ****         /*Avoid overlap in the middle with large radius*/
 1830              		.loc 1 695 19 discriminator 1 view .LVU692
 1831 0416 089A     		ldr	r2, [sp, #32]
 1832 0418 1EA9     		add	r1, sp, #120
 1833 041a 15A8     		add	r0, sp, #84
 1834              	.LVL179:
 695:Middlewares/lvgl/src/draw/lv_draw_rect.c ****         /*Avoid overlap in the middle with large radius*/
 1835              		.loc 1 695 19 discriminator 1 view .LVU693
 1836 041c FFF7FEFF 		bl	_lv_area_is_in
 1837              	.LVL180:
 695:Middlewares/lvgl/src/draw/lv_draw_rect.c ****         /*Avoid overlap in the middle with large radius*/
 1838              		.loc 1 695 16 discriminator 1 view .LVU694
 1839 0420 0028     		cmp	r0, #0
 1840 0422 7FF456AF 		bne	.L90
 1841              	.LBB235:
 697:Middlewares/lvgl/src/draw/lv_draw_rect.c ****         if(ca.x1 <= w_half) ca.x1 = w_half;
 1842              		.loc 1 697 9 is_stmt 1 view .LVU695
 697:Middlewares/lvgl/src/draw/lv_draw_rect.c ****         if(ca.x1 <= w_half) ca.x1 = w_half;
 1843              		.loc 1 697 14 is_stmt 0 view .LVU696
 1844 0426 BDF94E30 		ldrsh	r3, [sp, #78]
 697:Middlewares/lvgl/src/draw/lv_draw_rect.c ****         if(ca.x1 <= w_half) ca.x1 = w_half;
 1845              		.loc 1 697 11 view .LVU697
 1846 042a 0B9A     		ldr	r2, [sp, #44]
 1847 042c 9342     		cmp	r3, r2
 1848 042e 01DC     		bgt	.L91
 697:Middlewares/lvgl/src/draw/lv_draw_rect.c ****         if(ca.x1 <= w_half) ca.x1 = w_half;
 1849              		.loc 1 697 29 is_stmt 1 discriminator 1 view .LVU698
 697:Middlewares/lvgl/src/draw/lv_draw_rect.c ****         if(ca.x1 <= w_half) ca.x1 = w_half;
 1850              		.loc 1 697 35 is_stmt 0 discriminator 1 view .LVU699
 1851 0430 ADF84E20 		strh	r2, [sp, #78]	@ movhi
 1852              	.L91:
 698:Middlewares/lvgl/src/draw/lv_draw_rect.c **** 
 1853              		.loc 1 698 9 is_stmt 1 view .LVU700
 698:Middlewares/lvgl/src/draw/lv_draw_rect.c **** 
 1854              		.loc 1 698 14 is_stmt 0 view .LVU701
 1855 0434 BDF94C30 		ldrsh	r3, [sp, #76]
 698:Middlewares/lvgl/src/draw/lv_draw_rect.c **** 
 1856              		.loc 1 698 11 view .LVU702
 1857 0438 0C9A     		ldr	r2, [sp, #48]
 1858 043a 9342     		cmp	r3, r2
 1859 043c 01DC     		bgt	.L92
 698:Middlewares/lvgl/src/draw/lv_draw_rect.c **** 
 1860              		.loc 1 698 29 is_stmt 1 discriminator 1 view .LVU703
 698:Middlewares/lvgl/src/draw/lv_draw_rect.c **** 
 1861              		.loc 1 698 35 is_stmt 0 discriminator 1 view .LVU704
 1862 043e ADF84C20 		strh	r2, [sp, #76]	@ movhi
 1863              	.L92:
 700:Middlewares/lvgl/src/draw/lv_draw_rect.c ****         lv_coord_t w = lv_area_get_width(&ca);
 1864              		.loc 1 700 9 is_stmt 1 view .LVU705
 1865              	.LVL181:
 1866              	.LBB236:
 1867              	.LBI236:
 143:Middlewares/lvgl/src/draw/../misc/lv_area.h **** {
 1868              		.loc 2 143 26 view .LVU706
 1869              	.LBB237:
ARM GAS  /tmp/ccUpPomB.s 			page 67


 1870              		.loc 2 145 5 view .LVU707
 1871              		.loc 2 145 31 is_stmt 0 view .LVU708
 1872 0442 BDF95230 		ldrsh	r3, [sp, #82]
 1873 0446 1FFA83FB 		uxth	fp, r3
 1874              		.loc 2 145 44 view .LVU709
 1875 044a BDF94E00 		ldrsh	r0, [sp, #78]
 1876 044e 82B2     		uxth	r2, r0
 1877              		.loc 2 145 36 view .LVU710
 1878 0450 ABEB020B 		sub	fp, fp, r2
 1879 0454 1FFA8BFB 		uxth	fp, fp
 1880              		.loc 2 145 49 view .LVU711
 1881 0458 0BF1010B 		add	fp, fp, #1
 1882              		.loc 2 145 12 view .LVU712
 1883 045c 0FFA8BFB 		sxth	fp, fp
 1884              	.LVL182:
 1885              		.loc 2 145 12 view .LVU713
 1886              	.LBE237:
 1887              	.LBE236:
 701:Middlewares/lvgl/src/draw/lv_draw_rect.c **** 
 1888              		.loc 1 701 9 is_stmt 1 view .LVU714
 1889              	.LBB238:
 1890              	.LBI238:
 133:Middlewares/lvgl/src/draw/../misc/lv_area.h **** {
 1891              		.loc 2 133 26 view .LVU715
 1892              	.LBB239:
 135:Middlewares/lvgl/src/draw/../misc/lv_area.h **** }
 1893              		.loc 2 135 5 view .LVU716
 135:Middlewares/lvgl/src/draw/../misc/lv_area.h **** }
 1894              		.loc 2 135 31 is_stmt 0 view .LVU717
 1895 0460 BDF950E0 		ldrsh	lr, [sp, #80]
 1896 0464 1FFA8EFA 		uxth	r10, lr
 135:Middlewares/lvgl/src/draw/../misc/lv_area.h **** }
 1897              		.loc 2 135 44 view .LVU718
 1898 0468 BDF94C20 		ldrsh	r2, [sp, #76]
 1899 046c 1FFA82FC 		uxth	ip, r2
 135:Middlewares/lvgl/src/draw/../misc/lv_area.h **** }
 1900              		.loc 2 135 36 view .LVU719
 1901 0470 AAEB0C0A 		sub	r10, r10, ip
 1902 0474 1FFA8AFA 		uxth	r10, r10
 135:Middlewares/lvgl/src/draw/../misc/lv_area.h **** }
 1903              		.loc 2 135 49 view .LVU720
 1904 0478 0AF1010A 		add	r10, r10, #1
 135:Middlewares/lvgl/src/draw/../misc/lv_area.h **** }
 1905              		.loc 2 135 12 view .LVU721
 1906 047c 0FFA8AFA 		sxth	r10, r10
 1907              	.LVL183:
 135:Middlewares/lvgl/src/draw/../misc/lv_area.h **** }
 1908              		.loc 2 135 12 view .LVU722
 1909              	.LBE239:
 1910              	.LBE238:
 703:Middlewares/lvgl/src/draw/lv_draw_rect.c ****             sh_buf_tmp = sh_buf + (ca.x1 - a.x1);
 1911              		.loc 1 703 9 is_stmt 1 view .LVU723
 703:Middlewares/lvgl/src/draw/lv_draw_rect.c ****             sh_buf_tmp = sh_buf + (ca.x1 - a.x1);
 1912              		.loc 1 703 11 is_stmt 0 view .LVU724
 1913 0480 BAF1000F 		cmp	r10, #0
 1914 0484 7FF725AF 		ble	.L90
 1915              	.LBB240:
ARM GAS  /tmp/ccUpPomB.s 			page 68


 704:Middlewares/lvgl/src/draw/lv_draw_rect.c ****             sh_buf_tmp += corner_size * (a.y2 - ca.y2);
 1916              		.loc 1 704 13 is_stmt 1 view .LVU725
 704:Middlewares/lvgl/src/draw/lv_draw_rect.c ****             sh_buf_tmp += corner_size * (a.y2 - ca.y2);
 1917              		.loc 1 704 45 is_stmt 0 view .LVU726
 1918 0488 BDF95480 		ldrsh	r8, [sp, #84]
 704:Middlewares/lvgl/src/draw/lv_draw_rect.c ****             sh_buf_tmp += corner_size * (a.y2 - ca.y2);
 1919              		.loc 1 704 42 view .LVU727
 1920 048c A2EB0808 		sub	r8, r2, r8
 1921              	.LVL184:
 705:Middlewares/lvgl/src/draw/lv_draw_rect.c **** 
 1922              		.loc 1 705 13 is_stmt 1 view .LVU728
 705:Middlewares/lvgl/src/draw/lv_draw_rect.c **** 
 1923              		.loc 1 705 43 is_stmt 0 view .LVU729
 1924 0490 BDF95AC0 		ldrsh	ip, [sp, #90]
 705:Middlewares/lvgl/src/draw/lv_draw_rect.c **** 
 1925              		.loc 1 705 47 view .LVU730
 1926 0494 ACEB030C 		sub	ip, ip, r3
 705:Middlewares/lvgl/src/draw/lv_draw_rect.c **** 
 1927              		.loc 1 705 24 view .LVU731
 1928 0498 04FB0C88 		mla	r8, r4, ip, r8
 1929              	.LVL185:
 705:Middlewares/lvgl/src/draw/lv_draw_rect.c **** 
 1930              		.loc 1 705 24 view .LVU732
 1931 049c 0999     		ldr	r1, [sp, #36]
 1932 049e 8844     		add	r8, r8, r1
 1933              	.LVL186:
 707:Middlewares/lvgl/src/draw/lv_draw_rect.c ****             lv_area_copy(&fa, &ca);
 1934              		.loc 1 707 13 is_stmt 1 view .LVU733
 708:Middlewares/lvgl/src/draw/lv_draw_rect.c ****             fa.y1 = fa.y2;    /*Fill from bottom to top*/
 1935              		.loc 1 708 13 view .LVU734
 1936              	.LBB241:
 1937              	.LBI241:
 120:Middlewares/lvgl/src/draw/../misc/lv_area.h **** {
