ARM GAS  /tmp/ccF0Efvq.s 			page 1


   1              		.cpu cortex-m7
   2              		.eabi_attribute 28, 1
   3              		.eabi_attribute 20, 1
   4              		.eabi_attribute 21, 1
   5              		.eabi_attribute 23, 3
   6              		.eabi_attribute 24, 1
   7              		.eabi_attribute 25, 1
   8              		.eabi_attribute 26, 1
   9              		.eabi_attribute 30, 1
  10              		.eabi_attribute 34, 1
  11              		.eabi_attribute 18, 4
  12              		.file	"lv_example_dropdown_2.c"
  13              		.text
  14              	.Ltext0:
  15              		.cfi_sections	.debug_frame
  16              		.section	.rodata.lv_example_dropdown_2.str1.4,"aMS",%progbits,1
  17              		.align	2
  18              	.LC0:
  19 0000 4170706C 		.ascii	"Apple\012Banana\012Orange\012Melon\000"
  19      650A4261 
  19      6E616E61 
  19      0A4F7261 
  19      6E67650A 
  20 001a 0000     		.align	2
  21              	.LC1:
  22 001c EF81B700 		.ascii	"\357\201\267\000"
  23              		.align	2
  24              	.LC2:
  25 0020 EF819400 		.ascii	"\357\201\224\000"
  26              		.align	2
  27              	.LC3:
  28 0024 EF819300 		.ascii	"\357\201\223\000"
  29              		.section	.text.lv_example_dropdown_2,"ax",%progbits
  30              		.align	1
  31              		.global	lv_example_dropdown_2
  32              		.arch armv7e-m
  33              		.syntax unified
  34              		.thumb
  35              		.thumb_func
  36              		.fpu fpv5-d16
  38              	lv_example_dropdown_2:
  39              	.LFB184:
  40              		.file 1 "Middlewares/lvgl/examples/widgets/dropdown/lv_example_dropdown_2.c"
   1:Middlewares/lvgl/examples/widgets/dropdown/lv_example_dropdown_2.c **** #include "../../lv_examples.h"
   2:Middlewares/lvgl/examples/widgets/dropdown/lv_example_dropdown_2.c **** #if LV_USE_DROPDOWN && LV_BUILD_EXAMPLES
   3:Middlewares/lvgl/examples/widgets/dropdown/lv_example_dropdown_2.c **** 
   4:Middlewares/lvgl/examples/widgets/dropdown/lv_example_dropdown_2.c **** 
   5:Middlewares/lvgl/examples/widgets/dropdown/lv_example_dropdown_2.c **** /**
   6:Middlewares/lvgl/examples/widgets/dropdown/lv_example_dropdown_2.c ****  * Create a drop down, up, left and right menus
   7:Middlewares/lvgl/examples/widgets/dropdown/lv_example_dropdown_2.c ****  */
   8:Middlewares/lvgl/examples/widgets/dropdown/lv_example_dropdown_2.c **** void lv_example_dropdown_2(void)
   9:Middlewares/lvgl/examples/widgets/dropdown/lv_example_dropdown_2.c **** {
  41              		.loc 1 9 1 view -0
  42              		.cfi_startproc
  43              		@ args = 0, pretend = 0, frame = 0
  44              		@ frame_needed = 0, uses_anonymous_args = 0
  45 0000 38B5     		push	{r3, r4, r5, lr}
ARM GAS  /tmp/ccF0Efvq.s 			page 2


  46              	.LCFI0:
  47              		.cfi_def_cfa_offset 16
  48              		.cfi_offset 3, -16
  49              		.cfi_offset 4, -12
  50              		.cfi_offset 5, -8
  51              		.cfi_offset 14, -4
  10:Middlewares/lvgl/examples/widgets/dropdown/lv_example_dropdown_2.c ****     static const char * opts = "Apple\n"
  52              		.loc 1 10 5 view .LVU1
  11:Middlewares/lvgl/examples/widgets/dropdown/lv_example_dropdown_2.c ****                                "Banana\n"
  12:Middlewares/lvgl/examples/widgets/dropdown/lv_example_dropdown_2.c ****                                "Orange\n"
  13:Middlewares/lvgl/examples/widgets/dropdown/lv_example_dropdown_2.c ****                                "Melon";
  14:Middlewares/lvgl/examples/widgets/dropdown/lv_example_dropdown_2.c **** 
  15:Middlewares/lvgl/examples/widgets/dropdown/lv_example_dropdown_2.c ****     lv_obj_t * dd;
  53              		.loc 1 15 5 view .LVU2
  16:Middlewares/lvgl/examples/widgets/dropdown/lv_example_dropdown_2.c ****     dd = lv_dropdown_create(lv_scr_act());
  54              		.loc 1 16 5 view .LVU3
  55              	.LBB10:
  56              	.LBI10:
  57              		.file 2 "Middlewares/lvgl/examples/widgets/dropdown/../../../src/core/lv_disp.h"
   1:Middlewares/lvgl/examples/widgets/dropdown/../../../src/core/lv_disp.h **** /**
   2:Middlewares/lvgl/examples/widgets/dropdown/../../../src/core/lv_disp.h ****  * @file lv_disp.h
   3:Middlewares/lvgl/examples/widgets/dropdown/../../../src/core/lv_disp.h ****  *
   4:Middlewares/lvgl/examples/widgets/dropdown/../../../src/core/lv_disp.h ****  */
   5:Middlewares/lvgl/examples/widgets/dropdown/../../../src/core/lv_disp.h **** 
   6:Middlewares/lvgl/examples/widgets/dropdown/../../../src/core/lv_disp.h **** #ifndef LV_DISP_H
   7:Middlewares/lvgl/examples/widgets/dropdown/../../../src/core/lv_disp.h **** #define LV_DISP_H
   8:Middlewares/lvgl/examples/widgets/dropdown/../../../src/core/lv_disp.h **** 
   9:Middlewares/lvgl/examples/widgets/dropdown/../../../src/core/lv_disp.h **** #ifdef __cplusplus
  10:Middlewares/lvgl/examples/widgets/dropdown/../../../src/core/lv_disp.h **** extern "C" {
  11:Middlewares/lvgl/examples/widgets/dropdown/../../../src/core/lv_disp.h **** #endif
  12:Middlewares/lvgl/examples/widgets/dropdown/../../../src/core/lv_disp.h **** 
  13:Middlewares/lvgl/examples/widgets/dropdown/../../../src/core/lv_disp.h **** /*********************
  14:Middlewares/lvgl/examples/widgets/dropdown/../../../src/core/lv_disp.h ****  *      INCLUDES
  15:Middlewares/lvgl/examples/widgets/dropdown/../../../src/core/lv_disp.h ****  *********************/
  16:Middlewares/lvgl/examples/widgets/dropdown/../../../src/core/lv_disp.h **** #include "../hal/lv_hal.h"
  17:Middlewares/lvgl/examples/widgets/dropdown/../../../src/core/lv_disp.h **** #include "lv_obj.h"
  18:Middlewares/lvgl/examples/widgets/dropdown/../../../src/core/lv_disp.h **** #include "lv_theme.h"
  19:Middlewares/lvgl/examples/widgets/dropdown/../../../src/core/lv_disp.h **** 
  20:Middlewares/lvgl/examples/widgets/dropdown/../../../src/core/lv_disp.h **** /*********************
  21:Middlewares/lvgl/examples/widgets/dropdown/../../../src/core/lv_disp.h ****  *      DEFINES
  22:Middlewares/lvgl/examples/widgets/dropdown/../../../src/core/lv_disp.h ****  *********************/
  23:Middlewares/lvgl/examples/widgets/dropdown/../../../src/core/lv_disp.h **** 
  24:Middlewares/lvgl/examples/widgets/dropdown/../../../src/core/lv_disp.h **** /**********************
  25:Middlewares/lvgl/examples/widgets/dropdown/../../../src/core/lv_disp.h ****  *      TYPEDEFS
  26:Middlewares/lvgl/examples/widgets/dropdown/../../../src/core/lv_disp.h ****  **********************/
  27:Middlewares/lvgl/examples/widgets/dropdown/../../../src/core/lv_disp.h **** 
  28:Middlewares/lvgl/examples/widgets/dropdown/../../../src/core/lv_disp.h **** typedef enum {
  29:Middlewares/lvgl/examples/widgets/dropdown/../../../src/core/lv_disp.h ****     LV_SCR_LOAD_ANIM_NONE,
  30:Middlewares/lvgl/examples/widgets/dropdown/../../../src/core/lv_disp.h ****     LV_SCR_LOAD_ANIM_OVER_LEFT,
  31:Middlewares/lvgl/examples/widgets/dropdown/../../../src/core/lv_disp.h ****     LV_SCR_LOAD_ANIM_OVER_RIGHT,
  32:Middlewares/lvgl/examples/widgets/dropdown/../../../src/core/lv_disp.h ****     LV_SCR_LOAD_ANIM_OVER_TOP,
  33:Middlewares/lvgl/examples/widgets/dropdown/../../../src/core/lv_disp.h ****     LV_SCR_LOAD_ANIM_OVER_BOTTOM,
  34:Middlewares/lvgl/examples/widgets/dropdown/../../../src/core/lv_disp.h ****     LV_SCR_LOAD_ANIM_MOVE_LEFT,
  35:Middlewares/lvgl/examples/widgets/dropdown/../../../src/core/lv_disp.h ****     LV_SCR_LOAD_ANIM_MOVE_RIGHT,
  36:Middlewares/lvgl/examples/widgets/dropdown/../../../src/core/lv_disp.h ****     LV_SCR_LOAD_ANIM_MOVE_TOP,
  37:Middlewares/lvgl/examples/widgets/dropdown/../../../src/core/lv_disp.h ****     LV_SCR_LOAD_ANIM_MOVE_BOTTOM,
  38:Middlewares/lvgl/examples/widgets/dropdown/../../../src/core/lv_disp.h ****     LV_SCR_LOAD_ANIM_FADE_ON,
ARM GAS  /tmp/ccF0Efvq.s 			page 3


  39:Middlewares/lvgl/examples/widgets/dropdown/../../../src/core/lv_disp.h **** } lv_scr_load_anim_t;
  40:Middlewares/lvgl/examples/widgets/dropdown/../../../src/core/lv_disp.h **** 
  41:Middlewares/lvgl/examples/widgets/dropdown/../../../src/core/lv_disp.h **** /**********************
  42:Middlewares/lvgl/examples/widgets/dropdown/../../../src/core/lv_disp.h ****  * GLOBAL PROTOTYPES
  43:Middlewares/lvgl/examples/widgets/dropdown/../../../src/core/lv_disp.h ****  **********************/
  44:Middlewares/lvgl/examples/widgets/dropdown/../../../src/core/lv_disp.h **** 
  45:Middlewares/lvgl/examples/widgets/dropdown/../../../src/core/lv_disp.h **** /**
  46:Middlewares/lvgl/examples/widgets/dropdown/../../../src/core/lv_disp.h ****  * Return with a pointer to the active screen
  47:Middlewares/lvgl/examples/widgets/dropdown/../../../src/core/lv_disp.h ****  * @param disp pointer to display which active screen should be get. (NULL to use the default
  48:Middlewares/lvgl/examples/widgets/dropdown/../../../src/core/lv_disp.h ****  * screen)
  49:Middlewares/lvgl/examples/widgets/dropdown/../../../src/core/lv_disp.h ****  * @return pointer to the active screen object (loaded by 'lv_scr_load()')
  50:Middlewares/lvgl/examples/widgets/dropdown/../../../src/core/lv_disp.h ****  */
  51:Middlewares/lvgl/examples/widgets/dropdown/../../../src/core/lv_disp.h **** lv_obj_t * lv_disp_get_scr_act(lv_disp_t * disp);
  52:Middlewares/lvgl/examples/widgets/dropdown/../../../src/core/lv_disp.h **** 
  53:Middlewares/lvgl/examples/widgets/dropdown/../../../src/core/lv_disp.h **** /**
  54:Middlewares/lvgl/examples/widgets/dropdown/../../../src/core/lv_disp.h ****  * Return with a pointer to the previous screen. Only used during screen transitions.
  55:Middlewares/lvgl/examples/widgets/dropdown/../../../src/core/lv_disp.h ****  * @param disp pointer to display which previous screen should be get. (NULL to use the default
  56:Middlewares/lvgl/examples/widgets/dropdown/../../../src/core/lv_disp.h ****  * screen)
  57:Middlewares/lvgl/examples/widgets/dropdown/../../../src/core/lv_disp.h ****  * @return pointer to the previous screen object or NULL if not used now
  58:Middlewares/lvgl/examples/widgets/dropdown/../../../src/core/lv_disp.h ****  */
  59:Middlewares/lvgl/examples/widgets/dropdown/../../../src/core/lv_disp.h **** lv_obj_t * lv_disp_get_scr_prev(lv_disp_t * disp);
  60:Middlewares/lvgl/examples/widgets/dropdown/../../../src/core/lv_disp.h **** 
  61:Middlewares/lvgl/examples/widgets/dropdown/../../../src/core/lv_disp.h **** /**
  62:Middlewares/lvgl/examples/widgets/dropdown/../../../src/core/lv_disp.h ****  * Make a screen active
  63:Middlewares/lvgl/examples/widgets/dropdown/../../../src/core/lv_disp.h ****  * @param scr pointer to a screen
  64:Middlewares/lvgl/examples/widgets/dropdown/../../../src/core/lv_disp.h ****  */
  65:Middlewares/lvgl/examples/widgets/dropdown/../../../src/core/lv_disp.h **** void lv_disp_load_scr(lv_obj_t * scr);
  66:Middlewares/lvgl/examples/widgets/dropdown/../../../src/core/lv_disp.h **** 
  67:Middlewares/lvgl/examples/widgets/dropdown/../../../src/core/lv_disp.h **** /**
  68:Middlewares/lvgl/examples/widgets/dropdown/../../../src/core/lv_disp.h ****  * Return with the top layer. (Same on every screen and it is above the normal screen layer)
  69:Middlewares/lvgl/examples/widgets/dropdown/../../../src/core/lv_disp.h ****  * @param disp pointer to display which top layer should be get. (NULL to use the default screen)
  70:Middlewares/lvgl/examples/widgets/dropdown/../../../src/core/lv_disp.h ****  * @return pointer to the top layer object  (transparent screen sized lv_obj)
  71:Middlewares/lvgl/examples/widgets/dropdown/../../../src/core/lv_disp.h ****  */
  72:Middlewares/lvgl/examples/widgets/dropdown/../../../src/core/lv_disp.h **** lv_obj_t * lv_disp_get_layer_top(lv_disp_t * disp);
  73:Middlewares/lvgl/examples/widgets/dropdown/../../../src/core/lv_disp.h **** 
  74:Middlewares/lvgl/examples/widgets/dropdown/../../../src/core/lv_disp.h **** /**
  75:Middlewares/lvgl/examples/widgets/dropdown/../../../src/core/lv_disp.h ****  * Return with the sys. layer. (Same on every screen and it is above the normal screen and the top
  76:Middlewares/lvgl/examples/widgets/dropdown/../../../src/core/lv_disp.h ****  * layer)
  77:Middlewares/lvgl/examples/widgets/dropdown/../../../src/core/lv_disp.h ****  * @param disp pointer to display which sys. layer  should be get. (NULL to use the default screen)
  78:Middlewares/lvgl/examples/widgets/dropdown/../../../src/core/lv_disp.h ****  * @return pointer to the sys layer object  (transparent screen sized lv_obj)
  79:Middlewares/lvgl/examples/widgets/dropdown/../../../src/core/lv_disp.h ****  */
  80:Middlewares/lvgl/examples/widgets/dropdown/../../../src/core/lv_disp.h **** lv_obj_t * lv_disp_get_layer_sys(lv_disp_t * disp);
  81:Middlewares/lvgl/examples/widgets/dropdown/../../../src/core/lv_disp.h **** 
  82:Middlewares/lvgl/examples/widgets/dropdown/../../../src/core/lv_disp.h **** /**
  83:Middlewares/lvgl/examples/widgets/dropdown/../../../src/core/lv_disp.h ****  * Get the theme of a display
  84:Middlewares/lvgl/examples/widgets/dropdown/../../../src/core/lv_disp.h ****  * @param disp pointer to a display
  85:Middlewares/lvgl/examples/widgets/dropdown/../../../src/core/lv_disp.h ****  * @return the display's theme (can be NULL)
  86:Middlewares/lvgl/examples/widgets/dropdown/../../../src/core/lv_disp.h ****  */
  87:Middlewares/lvgl/examples/widgets/dropdown/../../../src/core/lv_disp.h **** void lv_disp_set_theme(lv_disp_t * disp, lv_theme_t * th);
  88:Middlewares/lvgl/examples/widgets/dropdown/../../../src/core/lv_disp.h **** 
  89:Middlewares/lvgl/examples/widgets/dropdown/../../../src/core/lv_disp.h **** /**
  90:Middlewares/lvgl/examples/widgets/dropdown/../../../src/core/lv_disp.h ****  * Get the theme of a display
  91:Middlewares/lvgl/examples/widgets/dropdown/../../../src/core/lv_disp.h ****  * @param disp pointer to a display
  92:Middlewares/lvgl/examples/widgets/dropdown/../../../src/core/lv_disp.h ****  * @return the display's theme (can be NULL)
  93:Middlewares/lvgl/examples/widgets/dropdown/../../../src/core/lv_disp.h ****  */
  94:Middlewares/lvgl/examples/widgets/dropdown/../../../src/core/lv_disp.h **** lv_theme_t * lv_disp_get_theme(lv_disp_t * disp);
  95:Middlewares/lvgl/examples/widgets/dropdown/../../../src/core/lv_disp.h **** 
ARM GAS  /tmp/ccF0Efvq.s 			page 4


  96:Middlewares/lvgl/examples/widgets/dropdown/../../../src/core/lv_disp.h **** /**
  97:Middlewares/lvgl/examples/widgets/dropdown/../../../src/core/lv_disp.h ****  * Set the background color of a display
  98:Middlewares/lvgl/examples/widgets/dropdown/../../../src/core/lv_disp.h ****  * @param disp pointer to a display
  99:Middlewares/lvgl/examples/widgets/dropdown/../../../src/core/lv_disp.h ****  * @param color color of the background
 100:Middlewares/lvgl/examples/widgets/dropdown/../../../src/core/lv_disp.h ****  */
 101:Middlewares/lvgl/examples/widgets/dropdown/../../../src/core/lv_disp.h **** void lv_disp_set_bg_color(lv_disp_t * disp, lv_color_t color);
 102:Middlewares/lvgl/examples/widgets/dropdown/../../../src/core/lv_disp.h **** 
 103:Middlewares/lvgl/examples/widgets/dropdown/../../../src/core/lv_disp.h **** /**
 104:Middlewares/lvgl/examples/widgets/dropdown/../../../src/core/lv_disp.h ****  * Set the background image of a display
 105:Middlewares/lvgl/examples/widgets/dropdown/../../../src/core/lv_disp.h ****  * @param disp pointer to a display
 106:Middlewares/lvgl/examples/widgets/dropdown/../../../src/core/lv_disp.h ****  * @param img_src path to file or pointer to an `lv_img_dsc_t` variable
 107:Middlewares/lvgl/examples/widgets/dropdown/../../../src/core/lv_disp.h ****  */
 108:Middlewares/lvgl/examples/widgets/dropdown/../../../src/core/lv_disp.h **** void lv_disp_set_bg_image(lv_disp_t * disp, const void  * img_src);
 109:Middlewares/lvgl/examples/widgets/dropdown/../../../src/core/lv_disp.h **** 
 110:Middlewares/lvgl/examples/widgets/dropdown/../../../src/core/lv_disp.h **** /**
 111:Middlewares/lvgl/examples/widgets/dropdown/../../../src/core/lv_disp.h ****  * Opacity of the background
 112:Middlewares/lvgl/examples/widgets/dropdown/../../../src/core/lv_disp.h ****  * @param disp pointer to a display
 113:Middlewares/lvgl/examples/widgets/dropdown/../../../src/core/lv_disp.h ****  * @param opa opacity (0..255)
 114:Middlewares/lvgl/examples/widgets/dropdown/../../../src/core/lv_disp.h ****  */
 115:Middlewares/lvgl/examples/widgets/dropdown/../../../src/core/lv_disp.h **** void lv_disp_set_bg_opa(lv_disp_t * disp, lv_opa_t opa);
 116:Middlewares/lvgl/examples/widgets/dropdown/../../../src/core/lv_disp.h **** 
 117:Middlewares/lvgl/examples/widgets/dropdown/../../../src/core/lv_disp.h **** /**
 118:Middlewares/lvgl/examples/widgets/dropdown/../../../src/core/lv_disp.h ****  * Switch screen with animation
 119:Middlewares/lvgl/examples/widgets/dropdown/../../../src/core/lv_disp.h ****  * @param scr pointer to the new screen to load
 120:Middlewares/lvgl/examples/widgets/dropdown/../../../src/core/lv_disp.h ****  * @param anim_type type of the animation from `lv_scr_load_anim_t`. E.g.  `LV_SCR_LOAD_ANIM_MOVE_L
 121:Middlewares/lvgl/examples/widgets/dropdown/../../../src/core/lv_disp.h ****  * @param time time of the animation
 122:Middlewares/lvgl/examples/widgets/dropdown/../../../src/core/lv_disp.h ****  * @param delay delay before the transition
 123:Middlewares/lvgl/examples/widgets/dropdown/../../../src/core/lv_disp.h ****  * @param auto_del true: automatically delete the old screen
 124:Middlewares/lvgl/examples/widgets/dropdown/../../../src/core/lv_disp.h ****  */
 125:Middlewares/lvgl/examples/widgets/dropdown/../../../src/core/lv_disp.h **** void lv_scr_load_anim(lv_obj_t * scr, lv_scr_load_anim_t anim_type, uint32_t time, uint32_t delay, 
 126:Middlewares/lvgl/examples/widgets/dropdown/../../../src/core/lv_disp.h **** 
 127:Middlewares/lvgl/examples/widgets/dropdown/../../../src/core/lv_disp.h **** /**
 128:Middlewares/lvgl/examples/widgets/dropdown/../../../src/core/lv_disp.h ****  * Get elapsed time since last user activity on a display (e.g. click)
 129:Middlewares/lvgl/examples/widgets/dropdown/../../../src/core/lv_disp.h ****  * @param disp pointer to an display (NULL to get the overall smallest inactivity)
 130:Middlewares/lvgl/examples/widgets/dropdown/../../../src/core/lv_disp.h ****  * @return elapsed ticks (milliseconds) since the last activity
 131:Middlewares/lvgl/examples/widgets/dropdown/../../../src/core/lv_disp.h ****  */
 132:Middlewares/lvgl/examples/widgets/dropdown/../../../src/core/lv_disp.h **** uint32_t lv_disp_get_inactive_time(const lv_disp_t * disp);
 133:Middlewares/lvgl/examples/widgets/dropdown/../../../src/core/lv_disp.h **** 
 134:Middlewares/lvgl/examples/widgets/dropdown/../../../src/core/lv_disp.h **** /**
 135:Middlewares/lvgl/examples/widgets/dropdown/../../../src/core/lv_disp.h ****  * Manually trigger an activity on a display
 136:Middlewares/lvgl/examples/widgets/dropdown/../../../src/core/lv_disp.h ****  * @param disp pointer to an display (NULL to use the default display)
 137:Middlewares/lvgl/examples/widgets/dropdown/../../../src/core/lv_disp.h ****  */
 138:Middlewares/lvgl/examples/widgets/dropdown/../../../src/core/lv_disp.h **** void lv_disp_trig_activity(lv_disp_t * disp);
 139:Middlewares/lvgl/examples/widgets/dropdown/../../../src/core/lv_disp.h **** 
 140:Middlewares/lvgl/examples/widgets/dropdown/../../../src/core/lv_disp.h **** /**
 141:Middlewares/lvgl/examples/widgets/dropdown/../../../src/core/lv_disp.h ****  * Clean any CPU cache that is related to the display.
 142:Middlewares/lvgl/examples/widgets/dropdown/../../../src/core/lv_disp.h ****  * @param disp pointer to an display (NULL to use the default display)
 143:Middlewares/lvgl/examples/widgets/dropdown/../../../src/core/lv_disp.h ****  */
 144:Middlewares/lvgl/examples/widgets/dropdown/../../../src/core/lv_disp.h **** void lv_disp_clean_dcache(lv_disp_t * disp);
 145:Middlewares/lvgl/examples/widgets/dropdown/../../../src/core/lv_disp.h **** 
 146:Middlewares/lvgl/examples/widgets/dropdown/../../../src/core/lv_disp.h **** /**
 147:Middlewares/lvgl/examples/widgets/dropdown/../../../src/core/lv_disp.h ****  * Get a pointer to the screen refresher timer to
 148:Middlewares/lvgl/examples/widgets/dropdown/../../../src/core/lv_disp.h ****  * modify its parameters with `lv_timer_...` functions.
 149:Middlewares/lvgl/examples/widgets/dropdown/../../../src/core/lv_disp.h ****  * @param disp pointer to a display
 150:Middlewares/lvgl/examples/widgets/dropdown/../../../src/core/lv_disp.h ****  * @return pointer to the display refresher timer. (NULL on error)
 151:Middlewares/lvgl/examples/widgets/dropdown/../../../src/core/lv_disp.h ****  */
 152:Middlewares/lvgl/examples/widgets/dropdown/../../../src/core/lv_disp.h **** lv_timer_t * _lv_disp_get_refr_timer(lv_disp_t * disp);
ARM GAS  /tmp/ccF0Efvq.s 			page 5


 153:Middlewares/lvgl/examples/widgets/dropdown/../../../src/core/lv_disp.h **** 
 154:Middlewares/lvgl/examples/widgets/dropdown/../../../src/core/lv_disp.h **** /*------------------------------------------------
 155:Middlewares/lvgl/examples/widgets/dropdown/../../../src/core/lv_disp.h ****  * To improve backward compatibility
 156:Middlewares/lvgl/examples/widgets/dropdown/../../../src/core/lv_disp.h ****  * Recommended only if you have one display
 157:Middlewares/lvgl/examples/widgets/dropdown/../../../src/core/lv_disp.h ****  *------------------------------------------------*/
 158:Middlewares/lvgl/examples/widgets/dropdown/../../../src/core/lv_disp.h **** 
 159:Middlewares/lvgl/examples/widgets/dropdown/../../../src/core/lv_disp.h **** /**
 160:Middlewares/lvgl/examples/widgets/dropdown/../../../src/core/lv_disp.h ****  * Get the active screen of the default display
 161:Middlewares/lvgl/examples/widgets/dropdown/../../../src/core/lv_disp.h ****  * @return pointer to the active screen
 162:Middlewares/lvgl/examples/widgets/dropdown/../../../src/core/lv_disp.h ****  */
 163:Middlewares/lvgl/examples/widgets/dropdown/../../../src/core/lv_disp.h **** static inline lv_obj_t * lv_scr_act(void)
  58              		.loc 2 163 26 view .LVU4
  59              	.LBB11:
 164:Middlewares/lvgl/examples/widgets/dropdown/../../../src/core/lv_disp.h **** {
 165:Middlewares/lvgl/examples/widgets/dropdown/../../../src/core/lv_disp.h ****     return lv_disp_get_scr_act(lv_disp_get_default());
  60              		.loc 2 165 5 view .LVU5
  61              		.loc 2 165 12 is_stmt 0 view .LVU6
  62 0002 FFF7FEFF 		bl	lv_disp_get_default
  63              	.LVL0:
  64 0006 FFF7FEFF 		bl	lv_disp_get_scr_act
  65              	.LVL1:
  66              	.LBE11:
  67              	.LBE10:
  68              		.loc 1 16 10 view .LVU7
  69 000a FFF7FEFF 		bl	lv_dropdown_create
  70              	.LVL2:
  71 000e 0446     		mov	r4, r0
  72              	.LVL3:
  17:Middlewares/lvgl/examples/widgets/dropdown/lv_example_dropdown_2.c ****     lv_dropdown_set_options_static(dd, opts);
  73              		.loc 1 17 5 is_stmt 1 view .LVU8
  74 0010 2A4D     		ldr	r5, .L3
  75 0012 2946     		mov	r1, r5
  76 0014 FFF7FEFF 		bl	lv_dropdown_set_options_static
  77              	.LVL4:
  18:Middlewares/lvgl/examples/widgets/dropdown/lv_example_dropdown_2.c ****     lv_obj_align(dd, LV_ALIGN_TOP_MID, 0, 10);
  78              		.loc 1 18 5 view .LVU9
  79 0018 0A23     		movs	r3, #10
  80 001a 0022     		movs	r2, #0
  81 001c 0221     		movs	r1, #2
  82 001e 2046     		mov	r0, r4
  83 0020 FFF7FEFF 		bl	lv_obj_align
  84              	.LVL5:
  19:Middlewares/lvgl/examples/widgets/dropdown/lv_example_dropdown_2.c **** 
  20:Middlewares/lvgl/examples/widgets/dropdown/lv_example_dropdown_2.c ****     dd = lv_dropdown_create(lv_scr_act());
  85              		.loc 1 20 5 view .LVU10
  86              	.LBB12:
  87              	.LBI12:
 163:Middlewares/lvgl/examples/widgets/dropdown/../../../src/core/lv_disp.h **** {
  88              		.loc 2 163 26 view .LVU11
  89              	.LBB13:
  90              		.loc 2 165 5 view .LVU12
  91              		.loc 2 165 12 is_stmt 0 view .LVU13
  92 0024 FFF7FEFF 		bl	lv_disp_get_default
  93              	.LVL6:
  94 0028 FFF7FEFF 		bl	lv_disp_get_scr_act
  95              	.LVL7:
  96              	.LBE13:
ARM GAS  /tmp/ccF0Efvq.s 			page 6


  97              	.LBE12:
  98              		.loc 1 20 10 view .LVU14
  99 002c FFF7FEFF 		bl	lv_dropdown_create
 100              	.LVL8:
 101 0030 0446     		mov	r4, r0
 102              	.LVL9:
  21:Middlewares/lvgl/examples/widgets/dropdown/lv_example_dropdown_2.c ****     lv_dropdown_set_options_static(dd, opts);
 103              		.loc 1 21 5 is_stmt 1 view .LVU15
 104 0032 2946     		mov	r1, r5
 105 0034 FFF7FEFF 		bl	lv_dropdown_set_options_static
 106              	.LVL10:
  22:Middlewares/lvgl/examples/widgets/dropdown/lv_example_dropdown_2.c ****     lv_dropdown_set_dir(dd, LV_DIR_BOTTOM);
 107              		.loc 1 22 5 view .LVU16
 108 0038 0821     		movs	r1, #8
 109 003a 2046     		mov	r0, r4
 110 003c FFF7FEFF 		bl	lv_dropdown_set_dir
 111              	.LVL11:
  23:Middlewares/lvgl/examples/widgets/dropdown/lv_example_dropdown_2.c ****     lv_dropdown_set_symbol(dd, LV_SYMBOL_UP);
 112              		.loc 1 23 5 view .LVU17
 113 0040 1F49     		ldr	r1, .L3+4
 114 0042 2046     		mov	r0, r4
 115 0044 FFF7FEFF 		bl	lv_dropdown_set_symbol
 116              	.LVL12:
  24:Middlewares/lvgl/examples/widgets/dropdown/lv_example_dropdown_2.c ****     lv_obj_align(dd, LV_ALIGN_BOTTOM_MID, 0, -10);
 117              		.loc 1 24 5 view .LVU18
 118 0048 6FF00903 		mvn	r3, #9
 119 004c 0022     		movs	r2, #0
 120 004e 0521     		movs	r1, #5
 121 0050 2046     		mov	r0, r4
 122 0052 FFF7FEFF 		bl	lv_obj_align
 123              	.LVL13:
  25:Middlewares/lvgl/examples/widgets/dropdown/lv_example_dropdown_2.c **** 
  26:Middlewares/lvgl/examples/widgets/dropdown/lv_example_dropdown_2.c ****     dd = lv_dropdown_create(lv_scr_act());
 124              		.loc 1 26 5 view .LVU19
 125              	.LBB14:
 126              	.LBI14:
 163:Middlewares/lvgl/examples/widgets/dropdown/../../../src/core/lv_disp.h **** {
 127              		.loc 2 163 26 view .LVU20
 128              	.LBB15:
 129              		.loc 2 165 5 view .LVU21
 130              		.loc 2 165 12 is_stmt 0 view .LVU22
 131 0056 FFF7FEFF 		bl	lv_disp_get_default
 132              	.LVL14:
 133 005a FFF7FEFF 		bl	lv_disp_get_scr_act
 134              	.LVL15:
 135              	.LBE15:
 136              	.LBE14:
 137              		.loc 1 26 10 view .LVU23
 138 005e FFF7FEFF 		bl	lv_dropdown_create
 139              	.LVL16:
 140 0062 0446     		mov	r4, r0
 141              	.LVL17:
  27:Middlewares/lvgl/examples/widgets/dropdown/lv_example_dropdown_2.c ****     lv_dropdown_set_options_static(dd, opts);
 142              		.loc 1 27 5 is_stmt 1 view .LVU24
 143 0064 2946     		mov	r1, r5
 144 0066 FFF7FEFF 		bl	lv_dropdown_set_options_static
 145              	.LVL18:
ARM GAS  /tmp/ccF0Efvq.s 			page 7


  28:Middlewares/lvgl/examples/widgets/dropdown/lv_example_dropdown_2.c ****     lv_dropdown_set_dir(dd, LV_DIR_RIGHT);
 146              		.loc 1 28 5 view .LVU25
 147 006a 0221     		movs	r1, #2
 148 006c 2046     		mov	r0, r4
 149 006e FFF7FEFF 		bl	lv_dropdown_set_dir
 150              	.LVL19:
  29:Middlewares/lvgl/examples/widgets/dropdown/lv_example_dropdown_2.c ****     lv_dropdown_set_symbol(dd, LV_SYMBOL_RIGHT);
 151              		.loc 1 29 5 view .LVU26
 152 0072 1449     		ldr	r1, .L3+8
 153 0074 2046     		mov	r0, r4
 154 0076 FFF7FEFF 		bl	lv_dropdown_set_symbol
 155              	.LVL20:
  30:Middlewares/lvgl/examples/widgets/dropdown/lv_example_dropdown_2.c ****     lv_obj_align(dd, LV_ALIGN_LEFT_MID, 10, 0);
 156              		.loc 1 30 5 view .LVU27
 157 007a 0023     		movs	r3, #0
 158 007c 0A22     		movs	r2, #10
 159 007e 0721     		movs	r1, #7
 160 0080 2046     		mov	r0, r4
 161 0082 FFF7FEFF 		bl	lv_obj_align
 162              	.LVL21:
  31:Middlewares/lvgl/examples/widgets/dropdown/lv_example_dropdown_2.c **** 
  32:Middlewares/lvgl/examples/widgets/dropdown/lv_example_dropdown_2.c ****     dd = lv_dropdown_create(lv_scr_act());
 163              		.loc 1 32 5 view .LVU28
 164              	.LBB16:
 165              	.LBI16:
 163:Middlewares/lvgl/examples/widgets/dropdown/../../../src/core/lv_disp.h **** {
 166              		.loc 2 163 26 view .LVU29
 167              	.LBB17:
 168              		.loc 2 165 5 view .LVU30
 169              		.loc 2 165 12 is_stmt 0 view .LVU31
 170 0086 FFF7FEFF 		bl	lv_disp_get_default
 171              	.LVL22:
 172 008a FFF7FEFF 		bl	lv_disp_get_scr_act
 173              	.LVL23:
 174              	.LBE17:
 175              	.LBE16:
 176              		.loc 1 32 10 view .LVU32
 177 008e FFF7FEFF 		bl	lv_dropdown_create
 178              	.LVL24:
 179 0092 0446     		mov	r4, r0
 180              	.LVL25:
  33:Middlewares/lvgl/examples/widgets/dropdown/lv_example_dropdown_2.c ****     lv_dropdown_set_options_static(dd, opts);
 181              		.loc 1 33 5 is_stmt 1 view .LVU33
 182 0094 2946     		mov	r1, r5
 183 0096 FFF7FEFF 		bl	lv_dropdown_set_options_static
 184              	.LVL26:
  34:Middlewares/lvgl/examples/widgets/dropdown/lv_example_dropdown_2.c ****     lv_dropdown_set_dir(dd, LV_DIR_LEFT);
 185              		.loc 1 34 5 view .LVU34
 186 009a 0121     		movs	r1, #1
 187 009c 2046     		mov	r0, r4
 188 009e FFF7FEFF 		bl	lv_dropdown_set_dir
 189              	.LVL27:
  35:Middlewares/lvgl/examples/widgets/dropdown/lv_example_dropdown_2.c ****     lv_dropdown_set_symbol(dd, LV_SYMBOL_LEFT);
 190              		.loc 1 35 5 view .LVU35
 191 00a2 0949     		ldr	r1, .L3+12
 192 00a4 2046     		mov	r0, r4
 193 00a6 FFF7FEFF 		bl	lv_dropdown_set_symbol
ARM GAS  /tmp/ccF0Efvq.s 			page 8


 194              	.LVL28:
  36:Middlewares/lvgl/examples/widgets/dropdown/lv_example_dropdown_2.c ****     lv_obj_align(dd, LV_ALIGN_RIGHT_MID, -10, 0);
 195              		.loc 1 36 5 view .LVU36
 196 00aa 0023     		movs	r3, #0
 197 00ac 6FF00902 		mvn	r2, #9
 198 00b0 0821     		movs	r1, #8
 199 00b2 2046     		mov	r0, r4
 200 00b4 FFF7FEFF 		bl	lv_obj_align
 201              	.LVL29:
  37:Middlewares/lvgl/examples/widgets/dropdown/lv_example_dropdown_2.c **** }
 202              		.loc 1 37 1 is_stmt 0 view .LVU37
 203 00b8 38BD     		pop	{r3, r4, r5, pc}
 204              	.LVL30:
 205              	.L4:
 206              		.loc 1 37 1 view .LVU38
 207 00ba 00BF     		.align	2
 208              	.L3:
 209 00bc 00000000 		.word	.LC0
 210 00c0 1C000000 		.word	.LC1
 211 00c4 20000000 		.word	.LC2
 212 00c8 24000000 		.word	.LC3
 213              		.cfi_endproc
 214              	.LFE184:
 216              		.text
 217              	.Letext0:
 218              		.file 3 "/home/akinya/gcc-arm-none-eabi/arm-none-eabi/include/machine/_default_types.h"
 219              		.file 4 "/home/akinya/gcc-arm-none-eabi/arm-none-eabi/include/sys/_stdint.h"
 220              		.file 5 "Middlewares/lvgl/examples/widgets/dropdown/../../../src/misc/lv_ll.h"
 221              		.file 6 "Middlewares/lvgl/examples/widgets/dropdown/../../../src/hal/../misc/lv_color.h"
 222              		.file 7 "Middlewares/lvgl/examples/widgets/dropdown/../../../src/hal/../misc/lv_area.h"
 223              		.file 8 "Middlewares/lvgl/examples/widgets/dropdown/../../../src/core/lv_obj.h"
 224              		.file 9 "Middlewares/lvgl/examples/widgets/dropdown/../../../src/core/lv_group.h"
 225              		.file 10 "Middlewares/lvgl/examples/widgets/dropdown/../../../src/core/../misc/lv_style.h"
 226              		.file 11 "Middlewares/lvgl/examples/widgets/dropdown/../../../src/core/lv_obj_scroll.h"
 227              		.file 12 "Middlewares/lvgl/examples/widgets/dropdown/../../../src/core/lv_obj_style.h"
 228              		.file 13 "Middlewares/lvgl/examples/widgets/dropdown/../../../src/core/lv_obj_class.h"
 229              		.file 14 "Middlewares/lvgl/examples/widgets/dropdown/../../../src/core/lv_event.h"
 230              		.file 15 "Middlewares/lvgl/examples/widgets/dropdown/../../../src/hal/lv_hal_disp.h"
 231              		.file 16 "Middlewares/lvgl/examples/widgets/dropdown/../../../src/widgets/lv_dropdown.h"
 232              		.file 17 "Middlewares/lvgl/examples/widgets/dropdown/../../../src/core/lv_obj_pos.h"
ARM GAS  /tmp/ccF0Efvq.s 			page 9

